 OPOSCoinDispenser

 Timestamp is 5d429dbc (Thu Aug  1 17:07:24 2019)

 Preferred load address is 10000000

 Start         Length     Name                   Class
 0001:00000000 00000d90H .text$di                CODE
 0001:00000d90 000a7130H .text$mn                CODE
 0001:000a7ec0 000001c0H .text$x                 CODE
 0001:000a8080 00000120H .text$yd                CODE
 0002:00000000 00000358H .idata$5                DATA
 0002:00000358 00000004H .00cfg                  DATA
 0002:0000035c 00000004H .CRT$XCA                DATA
 0002:00000360 00000004H .CRT$XCL                DATA
 0002:00000364 0000006cH .CRT$XCU                DATA
 0002:000003d0 00000004H .CRT$XCZ                DATA
 0002:000003d4 00000004H .CRT$XIA                DATA
 0002:000003d8 00000010H .CRT$XIC                DATA
 0002:000003e8 00000004H .CRT$XIZ                DATA
 0002:000003ec 00000004H .CRT$XLA                DATA
 0002:000003f0 00000004H .CRT$XLZ                DATA
 0002:000003f4 00000004H .CRT$XPA                DATA
 0002:000003f8 00000008H .CRT$XPX                DATA
 0002:00000400 00000004H .CRT$XPXA               DATA
 0002:00000404 00000004H .CRT$XPZ                DATA
 0002:00000408 00000004H .CRT$XTA                DATA
 0002:0000040c 00000004H .CRT$XTZ                DATA
 0002:00000410 00000000H .gfids$y                DATA
 0002:00000410 0002f0dcH .rdata                  DATA
 0002:0002f4ec 00000018H .rdata$T                DATA
 0002:0002f504 0000033cH .rdata$r                DATA
 0002:0002f840 00000044H .rdata$sxdata           DATA
 0002:0002f884 00000408H .rdata$zzzdbg           DATA
 0002:0002fc8c 00000004H .rtc$IAA                DATA
 0002:0002fc90 00000018H .rtc$IMZ                DATA
 0002:0002fca8 00000004H .rtc$IZZ                DATA
 0002:0002fcac 00000004H .rtc$TAA                DATA
 0002:0002fcb0 00000018H .rtc$TMZ                DATA
 0002:0002fcc8 00000004H .rtc$TZZ                DATA
 0002:0002fccc 00000004H .tls                    DATA
 0002:0002fcd0 00000004H .tls$                   DATA
 0002:0002fcd4 00000004H .tls$ZZZ                DATA
 0002:0002fcd8 00000e44H .xdata$x                DATA
 0002:00030b1c 00000004H ATL$__a                 DATA
 0002:00030b20 00000010H ATL$__z                 DATA
 0002:00030b30 000000b0H .edata                  DATA
 0002:00030be0 00000078H .idata$2                DATA
 0002:00030c58 00000014H .idata$3                DATA
 0002:00030c6c 00000358H .idata$4                DATA
 0002:00030fc4 00000d50H .idata$6                DATA
 0003:00000000 00000bb0H .data                   DATA
 0003:00000bb0 00000138H .data$r                 DATA
 0003:00000ce8 00003580H .bss                    DATA
 0004:00000000 00000220H .rsrc$01                DATA
 0004:00000220 00003a90H .rsrc$02                DATA

  Address         Publics by Value              Rva+Base       Lib:Object

 0000:00000000       ___hybrid_code_map         00000000     <absolute>
 0000:00000000       ___hybrid_code_map_count   00000000     <absolute>
 0000:00000000       ___guard_fids_count        00000000     <absolute>
 0000:00000000       __except_list              00000000     <absolute>
 0000:00000000       ___enclave_config          00000000     <absolute>
 0000:00000000       ___guard_longjmp_count     00000000     <absolute>
 0000:00000000       ___guard_longjmp_table     00000000     <absolute>
 0000:00000000       ___hybrid_auxiliary_iat    00000000     <absolute>
 0000:00000000       ___guard_iat_count         00000000     <absolute>
 0000:00000000       ___dynamic_value_reloc_table 00000000     <absolute>
 0000:00000000       ___guard_iat_table         00000000     <absolute>
 0000:00000000       ___guard_fids_table        00000000     <absolute>
 0000:00000000       ___volatile_metadata       00000000     <absolute>
 0000:00000000       ___AbsoluteZero            00000000     <absolute>
 0000:00000011       ___safe_se_handler_count   00000011     <absolute>
 0000:0000002c       __tls_array                0000002c     <absolute>
 0000:00000100       ___guard_flags             00000100     <absolute>
 0000:00000000       ___ImageBase               10000000     <linker-defined>
 0001:00000d90       ?_assert@@YAXPB_W0I@Z      10001d90 f   Assert.obj
 0001:00000ec0       ___local_stdio_printf_options 10001ec0 f i Assert.obj
 0001:00000ed0       ___vswprintf_l             10001ed0 f i Assert.obj
 0001:00000f00       __swprintf                 10001f00 f i Assert.obj
 0001:00000f60       __vswprintf_c_l            10001f60 f i Assert.obj
 0001:00000fd0       __vswprintf_l              10001fd0 f i Assert.obj
 0001:00001000       ?cw_memcpy@@YGHPADPB_WH@Z  10002000 f   CWString.obj
 0001:00001060       ?cw_memcpy@@YGHPA_WPBDH@Z  10002060 f   CWString.obj
 0001:000010c0       ?cw_memcpy@@YGHPADPBDH@Z   100020c0 f   CWString.obj
 0001:00001110       ?cw_memcpy@@YGHPA_WPB_WH@Z 10002110 f   CWString.obj
 0001:00001150       ?cw_memset@@YAXPADDH@Z     10002150 f   CWString.obj
 0001:00001170       ?cw_memset@@YAXPA_W_WH@Z   10002170 f   CWString.obj
 0001:00001190       ?cw_strlen@@YAHPBD@Z       10002190 f   CWString.obj
 0001:000011e0       ?cw_strlen@@YAHPB_W@Z      100021e0 f   CWString.obj
 0001:00001230       ?cw_strcpy@@YAHPADPB_W@Z   10002230 f   CWString.obj
 0001:00001250       ?cw_strcpy@@YAHPA_WPBD@Z   10002250 f   CWString.obj
 0001:00001270       ?cw_strcpy@@YAHPADPBD@Z    10002270 f   CWString.obj
 0001:00001290       ?cw_strcpy@@YAHPA_WPB_W@Z  10002290 f   CWString.obj
 0001:000012b0       ?cw_strcat@@YAHPADPB_W@Z   100022b0 f   CWString.obj
 0001:000012e0       ?cw_strcat@@YAHPA_WPBD@Z   100022e0 f   CWString.obj
 0001:00001310       ?cw_strcat@@YAHPADPBD@Z    10002310 f   CWString.obj
 0001:00001340       ?cw_strcat@@YAHPA_WPB_W@Z  10002340 f   CWString.obj
 0001:00001370       ?cw_dup@@YGXPBDAAHAAPA_W1@Z 10002370 f   CWString.obj
 0001:00001430       ?cw_dup@@YGXPB_WAAHAAPAD1@Z 10002430 f   CWString.obj
 0001:000014e0       ?DupChar@_CW@@AAEXXZ       100024e0 f   CWString.obj
 0001:00001530       ?DupWide@_CW@@AAEXXZ       10002530 f   CWString.obj
 0001:00001580       ?GetCharsMbcs@_CW@@QAEHXZ  10002580 f   CWString.obj
 0001:000015e0       ?GetCharsWide@_CW@@QAEHXZ  100025e0 f   CWString.obj
 0001:00001640       ?SetVARIANT_BOOL@OposVariant@@QAEXF@Z 10002640 f   OposVariant.obj
 0001:000016a0       ?SetVARIANT_BOOL_Ptr@OposVariant@@QAEXPAFAAJ@Z 100026a0 f   OposVariant.obj
 0001:000016f0       ?GetLONG@OposVariant@@QAEJXZ 100026f0 f   OposVariant.obj
 0001:00001780       ?ChangeLONG@OposVariant@@QAEXPAJAAJ@Z 10002780 f   OposVariant.obj
 0001:00001840       ?SetLONG@OposVariant@@QAEXJ@Z 10002840 f   OposVariant.obj
 0001:00001880       ?SetLONG_Ptr@OposVariant@@QAEXPAJAAJ@Z 10002880 f   OposVariant.obj
 0001:000018d0       ?ChangeCURRENCY@OposVariant@@QAEXPATtagCY@@AAJ@Z 100028d0 f   OposVariant.obj
 0001:00001990       ?SetCURRENCY@OposVariant@@QAEXTtagCY@@@Z 10002990 f   OposVariant.obj
 0001:000019d0       ?SetCURRENCY_Ptr@OposVariant@@QAEXPATtagCY@@AAJ@Z 100029d0 f   OposVariant.obj
 0001:00001a20       ?ChangeBSTR@OposVariant@@QAEXPAPA_WAAJ@Z 10002a20 f   OposVariant.obj
 0001:00001ae0       ?SetBSTR@OposVariant@@QAEXPA_WAAJ@Z 10002ae0 f   OposVariant.obj
 0001:00001b30       ?SetBSTR_Copy@OposVariant@@QAEXPA_WAAJ@Z 10002b30 f   OposVariant.obj
 0001:00001bd0       ?SetBSTR_OutPtr@OposVariant@@QAE_NPAPA_WAAJ@Z 10002bd0 f   OposVariant.obj
 0001:00001c20       ?SetBSTR_InOutPtr@OposVariant@@QAE_NPAPA_WAAJ@Z 10002c20 f   OposVariant.obj
 0001:00001c70       ?SetVARIANT@OposVariant@@QAEXAAUtagVARIANT@@GAAJ@Z 10002c70 f   OposVariant.obj
 0001:00001cf0       ?SetVARIANT_Ptr@OposVariant@@QAEXAAPAUtagVARIANT@@GAAJ@Z 10002cf0 f   OposVariant.obj
 0001:00001d90       ?SetString@OposVariant@@QAEXPB_WAAJ@Z 10002d90 f   OposVariant.obj
 0001:00001e20       ?SetDispatch_Ptr@OposVariant@@QAEXPAUIDispatch@@AAJ@Z 10002e20 f   OposVariant.obj
 0001:00001e90       ??0OposDispParms@@QAE@PAVOposVariant@@H@Z 10002e90 f   OposVariant.obj
 0001:00001f60       ??1OposDispParms@@QAE@XZ   10002f60 f   OposVariant.obj
 0001:00001fb0       ??$AtlMultiply@I@ATL@@YAJPAIII@Z 10002fb0 f i OposVariant.obj
 0001:00002010       ??0?$CHeapPtr@_WVCCRTAllocator@ATL@@@ATL@@QAE@XZ 10003010 f i OposVariant.obj
 0001:00002040       ??0?$CHeapPtrBase@_WVCCRTAllocator@ATL@@@ATL@@IAE@XZ 10003040 f i OposVariant.obj
 0001:00002060       ??0?$CSimpleArray@GV?$CSimpleArrayEqualHelper@G@ATL@@@ATL@@QAE@XZ 10003060 f i OposVariant.obj
 0001:000020a0       ??0?$CTraceCategoryEx@$00$0A@@ATL@@QAE@PB_W@Z 100030a0 f i OposVariant.obj
 0001:000020d0       ??0?$CTraceCategoryEx@$01$0A@@ATL@@QAE@PB_W@Z 100030d0 f i OposVariant.obj
 0001:00002100       ??0?$CTraceCategoryEx@$03$0A@@ATL@@QAE@PB_W@Z 10003100 f i OposVariant.obj
 0001:00002130       ??0?$CTraceCategoryEx@$07$0A@@ATL@@QAE@PB_W@Z 10003130 f i OposVariant.obj
 0001:00002160       ??0?$CTraceCategoryEx@$0BA@$0A@@ATL@@QAE@PB_W@Z 10003160 f i OposVariant.obj
 0001:00002190       ??0?$CTraceCategoryEx@$0BAA@$0A@@ATL@@QAE@PB_W@Z 10003190 f i OposVariant.obj
 0001:000021d0       ??0?$CTraceCategoryEx@$0BAAA@$0A@@ATL@@QAE@PB_W@Z 100031d0 f i OposVariant.obj
 0001:00002210       ??0?$CTraceCategoryEx@$0BAAAA@$0A@@ATL@@QAE@PB_W@Z 10003210 f i OposVariant.obj
 0001:00002250       ??0?$CTraceCategoryEx@$0BAAAAA@$0A@@ATL@@QAE@PB_W@Z 10003250 f i OposVariant.obj
 0001:00002290       ??0?$CTraceCategoryEx@$0CA@$0A@@ATL@@QAE@PB_W@Z 10003290 f i OposVariant.obj
 0001:000022c0       ??0?$CTraceCategoryEx@$0CAA@$0A@@ATL@@QAE@PB_W@Z 100032c0 f i OposVariant.obj
 0001:00002300       ??0?$CTraceCategoryEx@$0CAAA@$0A@@ATL@@QAE@PB_W@Z 10003300 f i OposVariant.obj
 0001:00002340       ??0?$CTraceCategoryEx@$0CAAAA@$0A@@ATL@@QAE@PB_W@Z 10003340 f i OposVariant.obj
 0001:00002380       ??0?$CTraceCategoryEx@$0CAAAAA@$0A@@ATL@@QAE@PB_W@Z 10003380 f i OposVariant.obj
 0001:000023c0       ??0?$CTraceCategoryEx@$0EA@$0A@@ATL@@QAE@PB_W@Z 100033c0 f i OposVariant.obj
 0001:000023f0       ??0?$CTraceCategoryEx@$0EAA@$0A@@ATL@@QAE@PB_W@Z 100033f0 f i OposVariant.obj
 0001:00002430       ??0?$CTraceCategoryEx@$0EAAA@$0A@@ATL@@QAE@PB_W@Z 10003430 f i OposVariant.obj
 0001:00002470       ??0?$CTraceCategoryEx@$0EAAAA@$0A@@ATL@@QAE@PB_W@Z 10003470 f i OposVariant.obj
 0001:000024b0       ??0?$CTraceCategoryEx@$0EAAAAA@$0A@@ATL@@QAE@PB_W@Z 100034b0 f i OposVariant.obj
 0001:000024f0       ??0?$CTraceCategoryEx@$0IA@$0A@@ATL@@QAE@PB_W@Z 100034f0 f i OposVariant.obj
 0001:00002530       ??0?$CTraceCategoryEx@$0IAA@$0A@@ATL@@QAE@PB_W@Z 10003530 f i OposVariant.obj
 0001:00002570       ??0?$CTraceCategoryEx@$0IAAA@$0A@@ATL@@QAE@PB_W@Z 10003570 f i OposVariant.obj
 0001:000025b0       ??0?$CTraceCategoryEx@$0IAAAA@$0A@@ATL@@QAE@PB_W@Z 100035b0 f i OposVariant.obj
 0001:000025f0       ??0CAtlComModule@ATL@@QAE@XZ 100035f0 f i OposVariant.obj
 0001:000026d0       ??0CAtlWinModule@ATL@@QAE@XZ 100036d0 f i OposVariant.obj
 0001:00002760       ??0CComCriticalSection@ATL@@QAE@XZ 10003760 f i OposVariant.obj
 0001:00002790       ??0CPreserveLastError@ATL@@QAE@XZ 10003790 f i OposVariant.obj
 0001:000027d0       ??0CTraceFileAndLineInfo@ATL@@QAE@PBDH@Z 100037d0 f i OposVariant.obj
 0001:00002800       ??0_ATL_COM_MODULE70@ATL@@QAE@XZ 10003800 f i OposVariant.obj
 0001:00002830       ??0_ATL_WIN_MODULE70@ATL@@QAE@XZ 10003830 f i OposVariant.obj
 0001:00002870       ??1?$CHeapPtr@_WVCCRTAllocator@ATL@@@ATL@@QAE@XZ 10003870 f i OposVariant.obj
 0001:000028a0       ??1?$CHeapPtrBase@_WVCCRTAllocator@ATL@@@ATL@@QAE@XZ 100038a0 f i OposVariant.obj
 0001:000028d0       ??1?$CSimpleArray@GV?$CSimpleArrayEqualHelper@G@ATL@@@ATL@@QAE@XZ 100038d0 f i OposVariant.obj
 0001:00002900       ??1CAtlComModule@ATL@@QAE@XZ 10003900 f i OposVariant.obj
 0001:00002930       ??1CAtlWinModule@ATL@@QAE@XZ 10003930 f i OposVariant.obj
 0001:00002960       ??1CComBSTR@ATL@@QAE@XZ    10003960 f i OposVariant.obj
 0001:000029a0       ??1CComCriticalSection@ATL@@QAE@XZ 100039a0 f i OposVariant.obj
 0001:000029c0       ??1CPreserveLastError@ATL@@QAE@XZ 100039c0 f i OposVariant.obj
 0001:00002a00       ??1_ATL_COM_MODULE70@ATL@@QAE@XZ 10003a00 f i OposVariant.obj
 0001:00002a30       ??1_ATL_WIN_MODULE70@ATL@@QAE@XZ 10003a30 f i OposVariant.obj
 0001:00002a70       ??1stringdispid@CComTypeInfoHolder@ATL@@QAE@XZ 10003a70 f i OposVariant.obj
 0001:00002aa0       ??A?$CSimpleArray@GV?$CSimpleArrayEqualHelper@G@ATL@@@ATL@@QAEAAGH@Z 10003aa0 f i OposVariant.obj
 0001:00002b20       ??B?$CHeapPtrBase@_WVCCRTAllocator@ATL@@@ATL@@QBEPA_WXZ 10003b20 f i OposVariant.obj
 0001:00002b40       ??B?$CTraceCategoryEx@$01$0A@@ATL@@QAEIXZ 10003b40 f i OposVariant.obj
 0001:00002b60       ??B?$CTraceCategoryEx@$0CA@$0A@@ATL@@QAEIXZ 10003b60 f i OposVariant.obj
 0001:00002b80       ??RCTraceFileAndLineInfo@ATL@@QBAXHIPB_WZZ 10003b80 f i OposVariant.obj
 0001:00002c20       ??_Estringdispid@CComTypeInfoHolder@ATL@@QAEPAXI@Z 10003c20 f i OposVariant.obj
 0001:00002cb0       ??_H@YGXPAXIIP6EPAX0@Z@Z   10003cb0 f i OposVariant.obj
 0001:00002d20       ??_I@YGXPAXIIP6EX0@Z@Z     10003d20 f i OposVariant.obj
 0001:00002da0       ?Allocate@?$CHeapPtr@_WVCCRTAllocator@ATL@@@ATL@@QAE_NI@Z 10003da0 f i OposVariant.obj
 0001:00002e30       ?Allocate@CCRTAllocator@ATL@@SAPAXI@Z 10003e30 f i OposVariant.obj
 0001:00002e50       ?AllocateBytes@?$CHeapPtrBase@_WVCCRTAllocator@ATL@@@ATL@@QAE_NI@Z 10003e50 f i OposVariant.obj
 0001:00002ec0       ?AtlWinModuleInit@ATL@@YGJPAU_ATL_WIN_MODULE70@1@@Z 10003ec0 f i OposVariant.obj
 0001:00002f90       ?AtlWinModuleTerm@ATL@@YGJPAU_ATL_WIN_MODULE70@1@PAUHINSTANCE__@@@Z 10003f90 f i OposVariant.obj
 0001:00003050       ?Clear@OposVariant@@QAEJXZ 10004050 f i OposVariant.obj
 0001:00003090       ?Free@?$CHeapPtrBase@_WVCCRTAllocator@ATL@@@ATL@@QAEXXZ 10004090 f i OposVariant.obj
 0001:000030d0       ?Free@CCRTAllocator@ATL@@SAXPAX@Z 100040d0 f i OposVariant.obj
 0001:000030f0       ?GetCategoryName@CTrace@ATL@@CAPA_WI@Z 100040f0 f i OposVariant.obj
 0001:00003140       ?GetModuleInstance@CAtlBaseModule@ATL@@QAEPAUHINSTANCE__@@XZ 10004140 f i OposVariant.obj
 0001:00003160       ?GetSize@?$CSimpleArray@GV?$CSimpleArrayEqualHelper@G@ATL@@@ATL@@QBEHXZ 10004160 f i OposVariant.obj
 0001:00003180       ?Init@CComCriticalSection@ATL@@QAEJXZ 10004180 f i OposVariant.obj
 0001:000031e0       ?RegisterCategory@CTrace@ATL@@SAXPB_WI@Z 100041e0 f i OposVariant.obj
 0001:00003270       ?RemoveAll@?$CSimpleArray@GV?$CSimpleArrayEqualHelper@G@ATL@@@ATL@@QAEXXZ 10004270 f i OposVariant.obj
 0001:000032f0       ?Term@CAtlComModule@ATL@@QAEXXZ 100042f0 f i OposVariant.obj
 0001:000033b0       ?Term@CAtlWinModule@ATL@@QAEXXZ 100043b0 f i OposVariant.obj
 0001:000033e0       ?Term@CComCriticalSection@ATL@@QAEJXZ 100043e0 f i OposVariant.obj
 0001:00003420       ?TraceV@CTrace@ATL@@CAXPBDHIIPB_W@Z 10004420 f i OposVariant.obj
 0001:000036a0       ?TraceV@CTrace@ATL@@SAXPBDHIIPB_WPAD@Z 100046a0 f i OposVariant.obj
 0001:000037e0       ?_AtlInitializeCriticalSectionEx@ATL@@YAHPAU_RTL_CRITICAL_SECTION@@KK@Z 100047e0 f i OposVariant.obj
 0001:00003810       ?_AtlRaiseException@ATL@@YAXKK@Z 10004810 f i OposVariant.obj
 0001:00003840       _HRESULT_FROM_WIN32        10004840 f i OposVariant.obj
 0001:00003880       __vswprintf_s_l            10004880 f i OposVariant.obj
 0001:000038f0       _swprintf_s                100048f0 f i OposVariant.obj
 0001:00003950       ?ObjectMain@CComObjectRootBase@ATL@@SGX_N@Z 10004950 f i CoinDispenser.obj
 0001:00003960       ?GetCategoryMap@CComObjectRootBase@ATL@@SAPBU_ATL_CATMAP_ENTRY@2@XZ 10004960 f i CoinDispenser.obj
 0001:00003970       ?CreateInstance@?$CComCreator@V?$CComObjectCached@VCComClassFactory@ATL@@@ATL@@@ATL@@SGJPAXABU_GUID@@PAPAX@Z 10004970 f i CoinDispenser.obj
 0001:00003af0       ?CreateInstance@?$CComCreator2@V?$CComCreator@V?$CComObject@VCOPOSCoinDispenser@@@ATL@@@ATL@@V?$CComCreator@V?$CComAggObject@VCOPOSCoinDispenser@@@ATL@@@2@@ATL@@SGJPAXABU_GUID@@PAPAX@Z 10004af0 f i CoinDispenser.obj
 0001:00003b70       ?GetObjectDescription@?$CComCoClass@VCOPOSCoinDispenser@@$1?CLSID_OPOSCoinDispenser@@3U_GUID@@B@ATL@@SGPB_WXZ 10004b70 f i CoinDispenser.obj
 0001:00003b80       ?UpdateRegistry@COPOSCoinDispenser@@SGJH@Z 10004b80 f i CoinDispenser.obj
 0001:00003cd0       _DllGetClassObject@12      10004cd0 f   CoinDispenser.obj
 0001:00003d00       _DllCanUnloadNow@0         10004d00 f   CoinDispenser.obj
 0001:00003d40       _DllRegisterServer@0       10004d40 f   CoinDispenser.obj
 0001:00003d60       _DllUnregisterServer@0     10004d60 f   CoinDispenser.obj
 0001:00003ef0       _DllMain@12                10004ef0 f   CoinDispenser.obj
 0001:00003f50       ??$?2G@Wrapper@?$CSimpleArray@GV?$CSimpleArrayEqualHelper@G@ATL@@@ATL@@SAPAXIPAG@Z 10004f50 f i CoinDispenser.obj
 0001:00003f60       ??$?2PA_W@?$Wrapper@PA_W@?$CSimpleMap@PA_WPA_WVCExpansionVectorEqualHelper@ATL@@@ATL@@SAPAXIPAPA_W@Z 10004f60 f i CoinDispenser.obj
 0001:00003f70       ??$?4UITypeInfo2@@@?$CComPtr@UITypeInfo@@@ATL@@QAEPAUITypeInfo@@ABV?$CComPtr@UITypeInfo2@@@1@@Z 10004f70 f i CoinDispenser.obj
 0001:00003fd0       ??$AtlAdd@K@ATL@@YAJPAKKK@Z 10004fd0 f i CoinDispenser.obj
 0001:00004010       ??$AtlAdd@_K@ATL@@YAJPA_K_K1@Z 10005010 f i CoinDispenser.obj
 0001:00004080       ??$AtlAddThrow@K@ATL@@YAKKK@Z 10005080 f i CoinDispenser.obj
 0001:00004100       ??$AtlModuleRegisterWndClassInfoT@VAtlModuleRegisterWndClassInfoParamW@ATL@@@ATL@@YAGPAU_ATL_BASE_MODULE70@0@PAU_ATL_WIN_MODULE70@0@PAU_ATL_WNDCLASSINFOW@0@PAP6GJPAUHWND__@@IIJ@ZVAtlModuleRegisterWndClassInfoParamW@0@@Z 10005100 f i CoinDispenser.obj
 0001:00004510       ??$AtlMultiply@H@ATL@@YAJPAHHH@Z 10005510 f i CoinDispenser.obj
 0001:00004590       ??$AtlMultiply@K@ATL@@YAJPAKKK@Z 10005590 f i CoinDispenser.obj
 0001:000045f0       ??$AtlMultiplyThrow@I@ATL@@YAIII@Z 100055f0 f i CoinDispenser.obj
 0001:00004670       ??$QueryInterface@UIPersistStream@@@IUnknown@@QAGJPAPAUIPersistStream@@@Z 10005670 f i CoinDispenser.obj
 0001:000046a0       ??$QueryInterface@UITypeInfo2@@@IUnknown@@QAGJPAPAUITypeInfo2@@@Z 100056a0 f i CoinDispenser.obj
 0001:000046d0       ??0?$CAtlModuleT@VCComModule@ATL@@@ATL@@QAE@XZ 100056d0 f i CoinDispenser.obj
 0001:00004700       ??0?$CAtlSafeAllocBufferManager@VCCRTAllocator@ATL@@@_ATL_SAFE_ALLOCA_IMPL@ATL@@QAE@XZ 10005700 f i CoinDispenser.obj
 0001:00004720       ??0?$CAutoVectorPtr@_W@ATL@@QAE@XZ 10005720 f i CoinDispenser.obj
 0001:00004740       ??0?$CComAggObject@VCOPOSCoinDispenser@@@ATL@@QAE@PAX@Z 10005740 f i CoinDispenser.obj
 0001:000047b0       ??0?$CComContainedObject@VCOPOSCoinDispenser@@@ATL@@QAE@PAX@Z 100057b0 f i CoinDispenser.obj
 0001:000048c0       ??0?$CComCritSecLock@VCComCriticalSection@ATL@@@ATL@@QAE@AAVCComCriticalSection@1@_N@Z 100058c0 f i CoinDispenser.obj
 0001:00004920       ??0?$CComEnum@UIEnumConnectionPoints@@$1?_GUID_b196b285_bab4_101a_b69c_00aa00341d07@@3U__s_GUID@@BPAUIConnectionPoint@@V?$_CopyInterface@UIConnectionPoint@@@ATL@@VCComSingleThreadModel@6@@ATL@@QAE@XZ 10005920 f i CoinDispenser.obj
 0001:00004960       ??0?$CComEnum@UIEnumConnections@@$1?_GUID_b196b287_bab4_101a_b69c_00aa00341d07@@3U__s_GUID@@BUtagCONNECTDATA@@V?$_Copy@UtagCONNECTDATA@@@ATL@@VCComSingleThreadModel@6@@ATL@@QAE@XZ 10005960 f i CoinDispenser.obj
 0001:000049a0       ??0?$CComEnumImpl@UIEnumConnectionPoints@@$1?_GUID_b196b285_bab4_101a_b69c_00aa00341d07@@3U__s_GUID@@BPAUIConnectionPoint@@V?$_CopyInterface@UIConnectionPoint@@@ATL@@@ATL@@QAE@XZ 100059a0 f i CoinDispenser.obj
 0001:00004a00       ??0?$CComEnumImpl@UIEnumConnections@@$1?_GUID_b196b287_bab4_101a_b69c_00aa00341d07@@3U__s_GUID@@BUtagCONNECTDATA@@V?$_Copy@UtagCONNECTDATA@@@ATL@@@ATL@@QAE@XZ 10005a00 f i CoinDispenser.obj
 0001:00004a60       ??0?$CComObject@V?$CComEnum@UIEnumConnectionPoints@@$1?_GUID_b196b285_bab4_101a_b69c_00aa00341d07@@3U__s_GUID@@BPAUIConnectionPoint@@V?$_CopyInterface@UIConnectionPoint@@@ATL@@VCComSingleThreadModel@6@@ATL@@@ATL@@QAE@PAX@Z 10005a60 f i CoinDispenser.obj
 0001:00004ab0       ??0?$CComObject@V?$CComEnum@UIEnumConnections@@$1?_GUID_b196b287_bab4_101a_b69c_00aa00341d07@@3U__s_GUID@@BUtagCONNECTDATA@@V?$_Copy@UtagCONNECTDATA@@@ATL@@VCComSingleThreadModel@6@@ATL@@@ATL@@QAE@PAX@Z 10005ab0 f i CoinDispenser.obj
 0001:00004b00       ??0?$CComObject@VCOPOSCoinDispenser@@@ATL@@QAE@PAX@Z 10005b00 f i CoinDispenser.obj
 0001:00004c20       ??0?$CComObjectCached@VCComClassFactory@ATL@@@ATL@@QAE@PAX@Z 10005c20 f i CoinDispenser.obj
 0001:00004c60       ??0?$CComObjectRootEx@VCComMultiThreadModel@ATL@@@ATL@@QAE@XZ 10005c60 f i CoinDispenser.obj
 0001:00004ca0       ??0?$CComObjectRootEx@VCComSingleThreadModel@ATL@@@ATL@@QAE@XZ 10005ca0 f i CoinDispenser.obj
 0001:00004cd0       ??0?$CComPtr@UIAdviseSink@@@ATL@@QAE@PAUIAdviseSink@@@Z 10005cd0 f i CoinDispenser.obj
 0001:00004d00       ??0?$CComPtr@UICatRegister@@@ATL@@QAE@XZ 10005d00 f i CoinDispenser.obj
 0001:00004d30       ??0?$CComPtr@UIConnectionPoint@@@ATL@@QAE@XZ 10005d30 f i CoinDispenser.obj
 0001:00004d60       ??0?$CComPtr@UIConnectionPointContainer@@@ATL@@QAE@XZ 10005d60 f i CoinDispenser.obj
 0001:00004d90       ??0?$CComPtr@UIDataObject@@@ATL@@QAE@XZ 10005d90 f i CoinDispenser.obj
 0001:00004dc0       ??0?$CComPtr@UIDispatch@@@ATL@@QAE@XZ 10005dc0 f i CoinDispenser.obj
 0001:00004df0       ??0?$CComPtr@UIOleClientSite@@@ATL@@QAE@PAUIOleClientSite@@@Z 10005df0 f i CoinDispenser.obj
 0001:00004e20       ??0?$CComPtr@UIOleControlSite@@@ATL@@QAE@XZ 10005e20 f i CoinDispenser.obj
 0001:00004e50       ??0?$CComPtr@UIOleInPlaceActiveObject@@@ATL@@QAE@XZ 10005e50 f i CoinDispenser.obj
 0001:00004e80       ??0?$CComPtr@UIOleInPlaceFrame@@@ATL@@QAE@XZ 10005e80 f i CoinDispenser.obj
 0001:00004eb0       ??0?$CComPtr@UIOleInPlaceObject@@@ATL@@QAE@XZ 10005eb0 f i CoinDispenser.obj
 0001:00004ee0       ??0?$CComPtr@UIOleInPlaceUIWindow@@@ATL@@QAE@XZ 10005ee0 f i CoinDispenser.obj
 0001:00004f10       ??0?$CComPtr@UIOleObject@@@ATL@@QAE@XZ 10005f10 f i CoinDispenser.obj
 0001:00004f40       ??0?$CComPtr@UIPersistStream@@@ATL@@QAE@XZ 10005f40 f i CoinDispenser.obj
 0001:00004f70       ??0?$CComPtr@UIPersistStreamInit@@@ATL@@QAE@XZ 10005f70 f i CoinDispenser.obj
 0001:00004fa0       ??0?$CComPtr@UIPointerInactive@@@ATL@@QAE@XZ 10005fa0 f i CoinDispenser.obj
 0001:00004fd0       ??0?$CComPtr@UIProvideClassInfo2@@@ATL@@QAE@XZ 10005fd0 f i CoinDispenser.obj
 0001:00005000       ??0?$CComPtr@UISpecifyPropertyPages@@@ATL@@QAE@XZ 10006000 f i CoinDispenser.obj
 0001:00005030       ??0?$CComPtr@UIStream@@@ATL@@QAE@XZ 10006030 f i CoinDispenser.obj
 0001:00005060       ??0?$CComPtr@UITypeInfo2@@@ATL@@QAE@XZ 10006060 f i CoinDispenser.obj
 0001:00005090       ??0?$CComPtr@UITypeInfo@@@ATL@@QAE@ABV01@@Z 10006090 f i CoinDispenser.obj
 0001:000050c0       ??0?$CComPtr@UITypeInfo@@@ATL@@QAE@XZ 100060c0 f i CoinDispenser.obj
 0001:000050f0       ??0?$CComPtr@UITypeLib@@@ATL@@QAE@XZ 100060f0 f i CoinDispenser.obj
 0001:00005120       ??0?$CComPtr@UIUnknown@@@ATL@@QAE@ABV01@@Z 10006120 f i CoinDispenser.obj
 0001:00005150       ??0?$CComPtr@UIUnknown@@@ATL@@QAE@PAUIUnknown@@@Z 10006150 f i CoinDispenser.obj
 0001:00005180       ??0?$CComPtr@UIUnknown@@@ATL@@QAE@XZ 10006180 f i CoinDispenser.obj
 0001:000051b0       ??0?$CComPtr@UIViewObjectEx@@@ATL@@QAE@XZ 100061b0 f i CoinDispenser.obj
 0001:000051e0       ??0?$CComPtrBase@UIAdviseSink@@@ATL@@IAE@PAUIAdviseSink@@@Z 100061e0 f i CoinDispenser.obj
 0001:00005230       ??0?$CComPtrBase@UICatRegister@@@ATL@@IAE@XZ 10006230 f i CoinDispenser.obj
 0001:00005250       ??0?$CComPtrBase@UIConnectionPoint@@@ATL@@IAE@XZ 10006250 f i CoinDispenser.obj
 0001:00005270       ??0?$CComPtrBase@UIConnectionPointContainer@@@ATL@@IAE@XZ 10006270 f i CoinDispenser.obj
 0001:00005290       ??0?$CComPtrBase@UIDataObject@@@ATL@@IAE@XZ 10006290 f i CoinDispenser.obj
 0001:000052b0       ??0?$CComPtrBase@UIDispatch@@@ATL@@IAE@XZ 100062b0 f i CoinDispenser.obj
 0001:000052d0       ??0?$CComPtrBase@UIOleClientSite@@@ATL@@IAE@PAUIOleClientSite@@@Z 100062d0 f i CoinDispenser.obj
 0001:00005320       ??0?$CComPtrBase@UIOleControlSite@@@ATL@@IAE@XZ 10006320 f i CoinDispenser.obj
 0001:00005340       ??0?$CComPtrBase@UIOleInPlaceActiveObject@@@ATL@@IAE@XZ 10006340 f i CoinDispenser.obj
 0001:00005360       ??0?$CComPtrBase@UIOleInPlaceFrame@@@ATL@@IAE@XZ 10006360 f i CoinDispenser.obj
 0001:00005380       ??0?$CComPtrBase@UIOleInPlaceObject@@@ATL@@IAE@XZ 10006380 f i CoinDispenser.obj
 0001:000053a0       ??0?$CComPtrBase@UIOleInPlaceUIWindow@@@ATL@@IAE@XZ 100063a0 f i CoinDispenser.obj
 0001:000053c0       ??0?$CComPtrBase@UIOleObject@@@ATL@@IAE@XZ 100063c0 f i CoinDispenser.obj
 0001:000053e0       ??0?$CComPtrBase@UIPersistStream@@@ATL@@IAE@XZ 100063e0 f i CoinDispenser.obj
 0001:00005400       ??0?$CComPtrBase@UIPersistStreamInit@@@ATL@@IAE@XZ 10006400 f i CoinDispenser.obj
 0001:00005420       ??0?$CComPtrBase@UIPointerInactive@@@ATL@@IAE@XZ 10006420 f i CoinDispenser.obj
 0001:00005440       ??0?$CComPtrBase@UIProvideClassInfo2@@@ATL@@IAE@XZ 10006440 f i CoinDispenser.obj
 0001:00005460       ??0?$CComPtrBase@UISpecifyPropertyPages@@@ATL@@IAE@XZ 10006460 f i CoinDispenser.obj
 0001:00005480       ??0?$CComPtrBase@UIStream@@@ATL@@IAE@XZ 10006480 f i CoinDispenser.obj
 0001:000054a0       ??0?$CComPtrBase@UITypeInfo2@@@ATL@@IAE@XZ 100064a0 f i CoinDispenser.obj
 0001:000054c0       ??0?$CComPtrBase@UITypeInfo@@@ATL@@IAE@PAUITypeInfo@@@Z 100064c0 f i CoinDispenser.obj
 0001:00005510       ??0?$CComPtrBase@UITypeInfo@@@ATL@@IAE@XZ 10006510 f i CoinDispenser.obj
 0001:00005530       ??0?$CComPtrBase@UITypeLib@@@ATL@@IAE@XZ 10006530 f i CoinDispenser.obj
 0001:00005550       ??0?$CComPtrBase@UIUnknown@@@ATL@@IAE@PAUIUnknown@@@Z 10006550 f i CoinDispenser.obj
 0001:000055a0       ??0?$CComPtrBase@UIUnknown@@@ATL@@IAE@XZ 100065a0 f i CoinDispenser.obj
 0001:000055c0       ??0?$CComPtrBase@UIViewObjectEx@@@ATL@@IAE@XZ 100065c0 f i CoinDispenser.obj
 0001:000055e0       ??0?$CComQIPtr@UIOleControlSite@@$1?_GUID_b196b289_bab4_101a_b69c_00aa00341d07@@3U__s_GUID@@B@ATL@@QAE@PAUIUnknown@@@Z 100065e0 f i CoinDispenser.obj
 0001:00005640       ??0?$CComQIPtr@UIOleObject@@$1?_GUID_00000112_0000_0000_c000_000000000046@@3U__s_GUID@@B@ATL@@QAE@XZ 10006640 f i CoinDispenser.obj
 0001:00005670       ??0?$CComQIPtr@UISpecifyPropertyPages@@$1?_GUID_b196b28b_bab4_101a_b69c_00aa00341d07@@3U__s_GUID@@B@ATL@@QAE@XZ 10006670 f i CoinDispenser.obj
 0001:000056a0       ??0?$CSimpleMap@PA_WPA_WVCExpansionVectorEqualHelper@ATL@@@ATL@@QAE@XZ 100066a0 f i CoinDispenser.obj
 0001:000056e0       ??0?$CTempBuffer@E$0BAA@VCCRTAllocator@ATL@@@ATL@@QAE@XZ 100066e0 f i CoinDispenser.obj
 0001:00005700       ??0?$CTempBuffer@_W$0BAA@VCCRTAllocator@ATL@@@ATL@@QAE@XZ 10006700 f i CoinDispenser.obj
 0001:00005720       ??0?$CTempBuffer@_W$0EAA@VCCRTAllocator@ATL@@@ATL@@QAE@XZ 10006720 f i CoinDispenser.obj
 0001:00005740       ??0?$Wrapper@PA_W@?$CSimpleMap@PA_WPA_WVCExpansionVectorEqualHelper@ATL@@@ATL@@QAE@ABQA_W@Z 10006740 f i CoinDispenser.obj
 0001:00005770       ??0CAtlModule@ATL@@QAE@XZ  10006770 f i CoinDispenser.obj
 0001:00005890       ??0CComAutoDeleteCriticalSection@ATL@@QAE@XZ 10006890 f i CoinDispenser.obj
 0001:000058c0       ??0CComBSTR@ATL@@QAE@XZ    100068c0 f i CoinDispenser.obj
 0001:000058e0       ??0CComClassFactory@ATL@@QAE@XZ 100068e0 f i CoinDispenser.obj
 0001:00005920       ??0CComModule@ATL@@QAE@XZ  10006920 f i CoinDispenser.obj
 0001:00005990       ??0CComObjectRootBase@ATL@@QAE@XZ 10006990 f i CoinDispenser.obj
 0001:000059b0       ??0CComSafeDeleteCriticalSection@ATL@@QAE@XZ 100069b0 f i CoinDispenser.obj
 0001:000059e0       ??0CComVariant@ATL@@QAE@XZ 100069e0 f i CoinDispenser.obj
 0001:00005a30       ??0CExpansionVector@ATL@@QAE@XZ 10006a30 f i CoinDispenser.obj
 0001:00005a60       ??0CParseBuffer@CRegParser@ATL@@QAE@H@Z 10006a60 f i CoinDispenser.obj
 0001:00005ad0       ??0CRegKey@ATL@@QAE@PAUHKEY__@@@Z 10006ad0 f i CoinDispenser.obj
 0001:00005b10       ??0CRegKey@ATL@@QAE@PAVCAtlTransactionManager@1@@Z 10006b10 f i CoinDispenser.obj
 0001:00005b50       ??0CRegObject@ATL@@QAE@XZ  10006b50 f i CoinDispenser.obj
 0001:00005b90       ??0CRegParser@ATL@@QAE@PAVCRegObject@1@@Z 10006b90 f i CoinDispenser.obj
 0001:00005bc0       ??0IClassFactory@@QAE@XZ   10006bc0 f i CoinDispenser.obj
 0001:00005bf0       ??0IEnumConnectionPoints@@QAE@XZ 10006bf0 f i CoinDispenser.obj
 0001:00005c20       ??0IEnumConnections@@QAE@XZ 10006c20 f i CoinDispenser.obj
 0001:00005c50       ??0IRegistrarBase@@QAE@XZ  10006c50 f i CoinDispenser.obj
 0001:00005c80       ??0IUnknown@@QAE@XZ        10006c80 f i CoinDispenser.obj
 0001:00005ca0       ??0ModuleLockHelper@ATL@@QAE@XZ 10006ca0 f i CoinDispenser.obj
 0001:00005ce0       ??0OposVariant@@QAE@XZ     10006ce0 f i CoinDispenser.obj
 0001:00005d10       ??0Wrapper@?$CSimpleArray@GV?$CSimpleArrayEqualHelper@G@ATL@@@ATL@@QAE@ABG@Z 10006d10 f i CoinDispenser.obj
 0001:00005d40       ??0_ATL_MODULE70@ATL@@QAE@XZ 10006d40 f i CoinDispenser.obj
 0001:00005d70       ??0_ATL_MSG@ATL@@QAE@PAUHWND__@@IIJH@Z 10006d70 f i CoinDispenser.obj
 0001:00005de0       ??0_U_MENUorID@ATL@@QAE@I@Z 10006de0 f i CoinDispenser.obj
 0001:00005e00       ??0_U_RECT@ATL@@QAE@AAUtagRECT@@@Z 10006e00 f i CoinDispenser.obj
 0001:00005e20       ??0stringdispid@CComTypeInfoHolder@ATL@@QAE@XZ 10006e20 f i CoinDispenser.obj
 0001:00005e60       ??1?$CAtlModuleT@VCComModule@ATL@@@ATL@@UAE@XZ 10006e60 f i CoinDispenser.obj
 0001:00005e90       ??1?$CAtlSafeAllocBufferManager@VCCRTAllocator@ATL@@@_ATL_SAFE_ALLOCA_IMPL@ATL@@QAE@XZ 10006e90 f i CoinDispenser.obj
 0001:00005ee0       ??1?$CAutoVectorPtr@_W@ATL@@QAE@XZ 10006ee0 f i CoinDispenser.obj
 0001:00005f10       ??1?$CComAggObject@VCOPOSCoinDispenser@@@ATL@@UAE@XZ 10006f10 f i CoinDispenser.obj
 0001:00005f80       ??1?$CComContainedObject@VCOPOSCoinDispenser@@@ATL@@UAE@XZ 10006f80 f i CoinDispenser.obj
 0001:00005fb0       ??1?$CComCritSecLock@VCComCriticalSection@ATL@@@ATL@@QAE@XZ 10006fb0 f i CoinDispenser.obj
 0001:00005fe0       ??1?$CComEnum@UIEnumConnectionPoints@@$1?_GUID_b196b285_bab4_101a_b69c_00aa00341d07@@3U__s_GUID@@BPAUIConnectionPoint@@V?$_CopyInterface@UIConnectionPoint@@@ATL@@VCComSingleThreadModel@6@@ATL@@UAE@XZ 10006fe0 f i CoinDispenser.obj
 0001:00006010       ??1?$CComEnum@UIEnumConnections@@$1?_GUID_b196b287_bab4_101a_b69c_00aa00341d07@@3U__s_GUID@@BUtagCONNECTDATA@@V?$_Copy@UtagCONNECTDATA@@@ATL@@VCComSingleThreadModel@6@@ATL@@UAE@XZ 10007010 f i CoinDispenser.obj
 0001:00006040       ??1?$CComEnumImpl@UIEnumConnectionPoints@@$1?_GUID_b196b285_bab4_101a_b69c_00aa00341d07@@3U__s_GUID@@BPAUIConnectionPoint@@V?$_CopyInterface@UIConnectionPoint@@@ATL@@@ATL@@UAE@XZ 10007040 f i CoinDispenser.obj
 0001:000060d0       ??1?$CComEnumImpl@UIEnumConnections@@$1?_GUID_b196b287_bab4_101a_b69c_00aa00341d07@@3U__s_GUID@@BUtagCONNECTDATA@@V?$_Copy@UtagCONNECTDATA@@@ATL@@@ATL@@UAE@XZ 100070d0 f i CoinDispenser.obj
 0001:00006160       ??1?$CComObject@V?$CComEnum@UIEnumConnectionPoints@@$1?_GUID_b196b285_bab4_101a_b69c_00aa00341d07@@3U__s_GUID@@BPAUIConnectionPoint@@V?$_CopyInterface@UIConnectionPoint@@@ATL@@VCComSingleThreadModel@6@@ATL@@@ATL@@UAE@XZ 10007160 f i CoinDispenser.obj
 0001:000061c0       ??1?$CComObject@V?$CComEnum@UIEnumConnections@@$1?_GUID_b196b287_bab4_101a_b69c_00aa00341d07@@3U__s_GUID@@BUtagCONNECTDATA@@V?$_Copy@UtagCONNECTDATA@@@ATL@@VCComSingleThreadModel@6@@ATL@@@ATL@@UAE@XZ 100071c0 f i CoinDispenser.obj
 0001:00006220       ??1?$CComObject@VCOPOSCoinDispenser@@@ATL@@UAE@XZ 10007220 f i CoinDispenser.obj
 0001:00006360       ??1?$CComObjectCached@VCComClassFactory@ATL@@@ATL@@UAE@XZ 10007360 f i CoinDispenser.obj
 0001:000063b0       ??1?$CComObjectRootEx@VCComMultiThreadModel@ATL@@@ATL@@QAE@XZ 100073b0 f i CoinDispenser.obj
 0001:000063e0       ??1?$CComObjectRootEx@VCComSingleThreadModel@ATL@@@ATL@@QAE@XZ 100073e0 f i CoinDispenser.obj
 0001:00006410       ??1?$CComPtr@UIAdviseSink@@@ATL@@QAE@XZ 10007410 f i CoinDispenser.obj
 0001:00006440       ??1?$CComPtr@UICatRegister@@@ATL@@QAE@XZ 10007440 f i CoinDispenser.obj
 0001:00006470       ??1?$CComPtr@UIConnectionPoint@@@ATL@@QAE@XZ 10007470 f i CoinDispenser.obj
 0001:000064a0       ??1?$CComPtr@UIConnectionPointContainer@@@ATL@@QAE@XZ 100074a0 f i CoinDispenser.obj
 0001:000064d0       ??1?$CComPtr@UIDataObject@@@ATL@@QAE@XZ 100074d0 f i CoinDispenser.obj
 0001:00006500       ??1?$CComPtr@UIDispatch@@@ATL@@QAE@XZ 10007500 f i CoinDispenser.obj
 0001:00006530       ??1?$CComPtr@UIOleClientSite@@@ATL@@QAE@XZ 10007530 f i CoinDispenser.obj
 0001:00006560       ??1?$CComPtr@UIOleControlSite@@@ATL@@QAE@XZ 10007560 f i CoinDispenser.obj
 0001:00006590       ??1?$CComPtr@UIOleInPlaceActiveObject@@@ATL@@QAE@XZ 10007590 f i CoinDispenser.obj
 0001:000065c0       ??1?$CComPtr@UIOleInPlaceFrame@@@ATL@@QAE@XZ 100075c0 f i CoinDispenser.obj
 0001:000065f0       ??1?$CComPtr@UIOleInPlaceObject@@@ATL@@QAE@XZ 100075f0 f i CoinDispenser.obj
 0001:00006620       ??1?$CComPtr@UIOleInPlaceUIWindow@@@ATL@@QAE@XZ 10007620 f i CoinDispenser.obj
 0001:00006650       ??1?$CComPtr@UIOleObject@@@ATL@@QAE@XZ 10007650 f i CoinDispenser.obj
 0001:00006680       ??1?$CComPtr@UIPersistStream@@@ATL@@QAE@XZ 10007680 f i CoinDispenser.obj
 0001:000066b0       ??1?$CComPtr@UIPersistStreamInit@@@ATL@@QAE@XZ 100076b0 f i CoinDispenser.obj
 0001:000066e0       ??1?$CComPtr@UIPointerInactive@@@ATL@@QAE@XZ 100076e0 f i CoinDispenser.obj
 0001:00006710       ??1?$CComPtr@UIProvideClassInfo2@@@ATL@@QAE@XZ 10007710 f i CoinDispenser.obj
 0001:00006740       ??1?$CComPtr@UISpecifyPropertyPages@@@ATL@@QAE@XZ 10007740 f i CoinDispenser.obj
 0001:00006770       ??1?$CComPtr@UIStream@@@ATL@@QAE@XZ 10007770 f i CoinDispenser.obj
 0001:000067a0       ??1?$CComPtr@UITypeInfo2@@@ATL@@QAE@XZ 100077a0 f i CoinDispenser.obj
 0001:000067d0       ??1?$CComPtr@UITypeInfo@@@ATL@@QAE@XZ 100077d0 f i CoinDispenser.obj
 0001:00006800       ??1?$CComPtr@UITypeLib@@@ATL@@QAE@XZ 10007800 f i CoinDispenser.obj
 0001:00006830       ??1?$CComPtr@UIUnknown@@@ATL@@QAE@XZ 10007830 f i CoinDispenser.obj
 0001:00006860       ??1?$CComPtr@UIViewObjectEx@@@ATL@@QAE@XZ 10007860 f i CoinDispenser.obj
 0001:00006890       ??1?$CComPtrBase@UIAdviseSink@@@ATL@@QAE@XZ 10007890 f i CoinDispenser.obj
 0001:000068e0       ??1?$CComPtrBase@UICatRegister@@@ATL@@QAE@XZ 100078e0 f i CoinDispenser.obj
 0001:00006930       ??1?$CComPtrBase@UIConnectionPoint@@@ATL@@QAE@XZ 10007930 f i CoinDispenser.obj
 0001:00006980       ??1?$CComPtrBase@UIConnectionPointContainer@@@ATL@@QAE@XZ 10007980 f i CoinDispenser.obj
 0001:000069d0       ??1?$CComPtrBase@UIDataObject@@@ATL@@QAE@XZ 100079d0 f i CoinDispenser.obj
 0001:00006a20       ??1?$CComPtrBase@UIDispatch@@@ATL@@QAE@XZ 10007a20 f i CoinDispenser.obj
 0001:00006a70       ??1?$CComPtrBase@UIOleClientSite@@@ATL@@QAE@XZ 10007a70 f i CoinDispenser.obj
 0001:00006ac0       ??1?$CComPtrBase@UIOleControlSite@@@ATL@@QAE@XZ 10007ac0 f i CoinDispenser.obj
 0001:00006b10       ??1?$CComPtrBase@UIOleInPlaceActiveObject@@@ATL@@QAE@XZ 10007b10 f i CoinDispenser.obj
 0001:00006b60       ??1?$CComPtrBase@UIOleInPlaceFrame@@@ATL@@QAE@XZ 10007b60 f i CoinDispenser.obj
 0001:00006bb0       ??1?$CComPtrBase@UIOleInPlaceObject@@@ATL@@QAE@XZ 10007bb0 f i CoinDispenser.obj
 0001:00006c00       ??1?$CComPtrBase@UIOleInPlaceUIWindow@@@ATL@@QAE@XZ 10007c00 f i CoinDispenser.obj
 0001:00006c50       ??1?$CComPtrBase@UIOleObject@@@ATL@@QAE@XZ 10007c50 f i CoinDispenser.obj
 0001:00006ca0       ??1?$CComPtrBase@UIPersistStream@@@ATL@@QAE@XZ 10007ca0 f i CoinDispenser.obj
 0001:00006cf0       ??1?$CComPtrBase@UIPersistStreamInit@@@ATL@@QAE@XZ 10007cf0 f i CoinDispenser.obj
 0001:00006d40       ??1?$CComPtrBase@UIPointerInactive@@@ATL@@QAE@XZ 10007d40 f i CoinDispenser.obj
 0001:00006d90       ??1?$CComPtrBase@UIProvideClassInfo2@@@ATL@@QAE@XZ 10007d90 f i CoinDispenser.obj
 0001:00006de0       ??1?$CComPtrBase@UISpecifyPropertyPages@@@ATL@@QAE@XZ 10007de0 f i CoinDispenser.obj
 0001:00006e30       ??1?$CComPtrBase@UIStream@@@ATL@@QAE@XZ 10007e30 f i CoinDispenser.obj
 0001:00006e80       ??1?$CComPtrBase@UITypeInfo2@@@ATL@@QAE@XZ 10007e80 f i CoinDispenser.obj
 0001:00006ed0       ??1?$CComPtrBase@UITypeInfo@@@ATL@@QAE@XZ 10007ed0 f i CoinDispenser.obj
 0001:00006f20       ??1?$CComPtrBase@UITypeLib@@@ATL@@QAE@XZ 10007f20 f i CoinDispenser.obj
 0001:00006f70       ??1?$CComPtrBase@UIUnknown@@@ATL@@QAE@XZ 10007f70 f i CoinDispenser.obj
 0001:00006fc0       ??1?$CComPtrBase@UIViewObjectEx@@@ATL@@QAE@XZ 10007fc0 f i CoinDispenser.obj
 0001:00007010       ??1?$CComQIPtr@UIOleControlSite@@$1?_GUID_b196b289_bab4_101a_b69c_00aa00341d07@@3U__s_GUID@@B@ATL@@QAE@XZ 10008010 f i CoinDispenser.obj
 0001:00007040       ??1?$CComQIPtr@UIOleObject@@$1?_GUID_00000112_0000_0000_c000_000000000046@@3U__s_GUID@@B@ATL@@QAE@XZ 10008040 f i CoinDispenser.obj
 0001:00007070       ??1?$CComQIPtr@UISpecifyPropertyPages@@$1?_GUID_b196b28b_bab4_101a_b69c_00aa00341d07@@3U__s_GUID@@B@ATL@@QAE@XZ 10008070 f i CoinDispenser.obj
 0001:000070a0       ??1?$CSimpleMap@PA_WPA_WVCExpansionVectorEqualHelper@ATL@@@ATL@@QAE@XZ 100080a0 f i CoinDispenser.obj
 0001:000070d0       ??1?$CTempBuffer@E$0BAA@VCCRTAllocator@ATL@@@ATL@@QAE@XZ 100080d0 f i CoinDispenser.obj
 0001:00007110       ??1?$CTempBuffer@_W$0BAA@VCCRTAllocator@ATL@@@ATL@@QAE@XZ 10008110 f i CoinDispenser.obj
 0001:00007150       ??1?$CTempBuffer@_W$0EAA@VCCRTAllocator@ATL@@@ATL@@QAE@XZ 10008150 f i CoinDispenser.obj
 0001:00007190       ??1CAtlModule@ATL@@UAE@XZ  10008190 f i CoinDispenser.obj
 0001:000071c0       ??1CComAutoDeleteCriticalSection@ATL@@QAE@XZ 100081c0 f i CoinDispenser.obj
 0001:000071f0       ??1CComClassFactory@ATL@@UAE@XZ 100081f0 f i CoinDispenser.obj
 0001:00007220       ??1CComModule@ATL@@UAE@XZ  10008220 f i CoinDispenser.obj
 0001:00007250       ??1CComObjectRootBase@ATL@@QAE@XZ 10008250 f i CoinDispenser.obj
 0001:00007270       ??1CComSafeDeleteCriticalSection@ATL@@QAE@XZ 10008270 f i CoinDispenser.obj
 0001:000072b0       ??1CComVariant@ATL@@QAE@XZ 100082b0 f i CoinDispenser.obj
 0001:00007310       ??1CExpansionVector@ATL@@QAE@XZ 10008310 f i CoinDispenser.obj
 0001:00007340       ??1CParseBuffer@CRegParser@ATL@@QAE@XZ 10008340 f i CoinDispenser.obj
 0001:00007380       ??1CRegKey@ATL@@QAE@XZ     10008380 f i CoinDispenser.obj
 0001:000073b0       ??1CRegObject@ATL@@UAE@XZ  100083b0 f i CoinDispenser.obj
 0001:000073f0       ??1ModuleLockHelper@ATL@@QAE@XZ 100083f0 f i CoinDispenser.obj
 0001:00007430       ??1OposVariant@@QAE@XZ     10008430 f i CoinDispenser.obj
 0001:00007460       ??1_ATL_MODULE70@ATL@@QAE@XZ 10008460 f i CoinDispenser.obj
 0001:00007490       ??4?$CComPtr@UIAdviseSink@@@ATL@@QAEPAUIAdviseSink@@PAU2@@Z 10008490 f i CoinDispenser.obj
 0001:00007500       ??4?$CComPtr@UIOleClientSite@@@ATL@@QAEPAUIOleClientSite@@PAU2@@Z 10008500 f i CoinDispenser.obj
 0001:00007570       ??4?$CComPtr@UIUnknown@@@ATL@@QAEPAUIUnknown@@PAU2@@Z 10008570 f i CoinDispenser.obj
 0001:000075e0       ??4?$CComQIPtr@UIOleObject@@$1?_GUID_00000112_0000_0000_c000_000000000046@@3U__s_GUID@@B@ATL@@QAEPAUIOleObject@@PAUIUnknown@@@Z 100085e0 f i CoinDispenser.obj
 0001:00007630       ??4?$CComQIPtr@UISpecifyPropertyPages@@$1?_GUID_b196b28b_bab4_101a_b69c_00aa00341d07@@3U__s_GUID@@B@ATL@@QAEPAUISpecifyPropertyPages@@PAUIUnknown@@@Z 10008630 f i CoinDispenser.obj
 0001:00007680       ??7?$CComPtrBase@UIOleClientSite@@@ATL@@QBE_NXZ 10008680 f i CoinDispenser.obj
 0001:000076c0       ??7?$CComPtrBase@UIOleInPlaceSiteWindowless@@@ATL@@QBE_NXZ 100086c0 f i CoinDispenser.obj
 0001:00007700       ??7CComBSTR@ATL@@QBE_NXZ   10008700 f i CoinDispenser.obj
 0001:00007740       ??8?$CComPtrBase@UIAdviseSink@@@ATL@@QBE_NPAUIAdviseSink@@@Z 10008740 f i CoinDispenser.obj
 0001:00007780       ??8?$CComPtrBase@UIConnectionPointContainer@@@ATL@@QBE_NPAUIConnectionPointContainer@@@Z 10008780 f i CoinDispenser.obj
 0001:000077c0       ??8?$CComPtrBase@UIDataAdviseHolder@@@ATL@@QBE_NPAUIDataAdviseHolder@@@Z 100087c0 f i CoinDispenser.obj
 0001:00007800       ??8?$CComPtrBase@UIOleAdviseHolder@@@ATL@@QBE_NPAUIOleAdviseHolder@@@Z 10008800 f i CoinDispenser.obj
 0001:00007840       ??8?$CComPtrBase@UIOleClientSite@@@ATL@@QBE_NPAUIOleClientSite@@@Z 10008840 f i CoinDispenser.obj
 0001:00007880       ??8?$CComPtrBase@UIOleControlSite@@@ATL@@QBE_NPAUIOleControlSite@@@Z 10008880 f i CoinDispenser.obj
 0001:000078c0       ??8?$CComPtrBase@UIOleInPlaceObject@@@ATL@@QBE_NPAUIOleInPlaceObject@@@Z 100088c0 f i CoinDispenser.obj
 0001:00007900       ??8?$CComPtrBase@UIOleInPlaceSiteWindowless@@@ATL@@QBE_NPAUIOleInPlaceSiteWindowless@@@Z 10008900 f i CoinDispenser.obj
 0001:00007940       ??8?$CComPtrBase@UIOleObject@@@ATL@@QBE_NPAUIOleObject@@@Z 10008940 f i CoinDispenser.obj
 0001:00007980       ??8?$CComPtrBase@UIPersistStream@@@ATL@@QBE_NPAUIPersistStream@@@Z 10008980 f i CoinDispenser.obj
 0001:000079c0       ??8?$CComPtrBase@UIPersistStreamInit@@@ATL@@QBE_NPAUIPersistStreamInit@@@Z 100089c0 f i CoinDispenser.obj
 0001:00007a00       ??8?$CComPtrBase@UIPointerInactive@@@ATL@@QBE_NPAUIPointerInactive@@@Z 10008a00 f i CoinDispenser.obj
 0001:00007a40       ??8?$CComPtrBase@UIUnknown@@@ATL@@QBE_NPAUIUnknown@@@Z 10008a40 f i CoinDispenser.obj
 0001:00007a80       ??8?$CComPtrBase@UIViewObjectEx@@@ATL@@QBE_NPAUIViewObjectEx@@@Z 10008a80 f i CoinDispenser.obj
 0001:00007ac0       ??8CComBSTR@ATL@@QBE_NH@Z  10008ac0 f i CoinDispenser.obj
 0001:00007b20       ??9?$CComPtrBase@UIAdviseSink@@@ATL@@QBE_NPAUIAdviseSink@@@Z 10008b20 f i CoinDispenser.obj
 0001:00007b70       ??9?$CComPtrBase@UIConnectionPointContainer@@@ATL@@QBE_NPAUIConnectionPointContainer@@@Z 10008b70 f i CoinDispenser.obj
 0001:00007bc0       ??9?$CComPtrBase@UIDataAdviseHolder@@@ATL@@QBE_NPAUIDataAdviseHolder@@@Z 10008bc0 f i CoinDispenser.obj
 0001:00007c10       ??9?$CComPtrBase@UIOleAdviseHolder@@@ATL@@QBE_NPAUIOleAdviseHolder@@@Z 10008c10 f i CoinDispenser.obj
 0001:00007c60       ??9?$CComPtrBase@UIOleClientSite@@@ATL@@QBE_NPAUIOleClientSite@@@Z 10008c60 f i CoinDispenser.obj
 0001:00007cb0       ??9?$CComPtrBase@UIOleControlSite@@@ATL@@QBE_NPAUIOleControlSite@@@Z 10008cb0 f i CoinDispenser.obj
 0001:00007d00       ??9?$CComPtrBase@UIOleInPlaceObject@@@ATL@@QBE_NPAUIOleInPlaceObject@@@Z 10008d00 f i CoinDispenser.obj
 0001:00007d50       ??9?$CComPtrBase@UIOleInPlaceSiteWindowless@@@ATL@@QBE_NPAUIOleInPlaceSiteWindowless@@@Z 10008d50 f i CoinDispenser.obj
 0001:00007da0       ??9?$CComPtrBase@UIOleObject@@@ATL@@QBE_NPAUIOleObject@@@Z 10008da0 f i CoinDispenser.obj
 0001:00007df0       ??9?$CComPtrBase@UIPersistStream@@@ATL@@QBE_NPAUIPersistStream@@@Z 10008df0 f i CoinDispenser.obj
 0001:00007e40       ??9?$CComPtrBase@UIPersistStreamInit@@@ATL@@QBE_NPAUIPersistStreamInit@@@Z 10008e40 f i CoinDispenser.obj
 0001:00007e90       ??9?$CComPtrBase@UIPointerInactive@@@ATL@@QBE_NPAUIPointerInactive@@@Z 10008e90 f i CoinDispenser.obj
 0001:00007ee0       ??9?$CComPtrBase@UIUnknown@@@ATL@@QBE_NPAUIUnknown@@@Z 10008ee0 f i CoinDispenser.obj
 0001:00007f30       ??9?$CComPtrBase@UIViewObjectEx@@@ATL@@QBE_NPAUIViewObjectEx@@@Z 10008f30 f i CoinDispenser.obj
 0001:00007f80       ??9CComBSTR@ATL@@QBE_NH@Z  10008f80 f i CoinDispenser.obj
 0001:00007fd0       ??B?$CComPtrBase@UIAdviseSink@@@ATL@@QBEPAUIAdviseSink@@XZ 10008fd0 f i CoinDispenser.obj
 0001:00007ff0       ??B?$CComPtrBase@UIDataAdviseHolder@@@ATL@@QBEPAUIDataAdviseHolder@@XZ 10008ff0 f i CoinDispenser.obj
 0001:00008010       ??B?$CComPtrBase@UIDataObject@@@ATL@@QBEPAUIDataObject@@XZ 10009010 f i CoinDispenser.obj
 0001:00008030       ??B?$CComPtrBase@UIOleAdviseHolder@@@ATL@@QBEPAUIOleAdviseHolder@@XZ 10009030 f i CoinDispenser.obj
 0001:00008050       ??B?$CComPtrBase@UIOleClientSite@@@ATL@@QBEPAUIOleClientSite@@XZ 10009050 f i CoinDispenser.obj
 0001:00008070       ??B?$CComPtrBase@UIOleControlSite@@@ATL@@QBEPAUIOleControlSite@@XZ 10009070 f i CoinDispenser.obj
 0001:00008090       ??B?$CComPtrBase@UIOleInPlaceActiveObject@@@ATL@@QBEPAUIOleInPlaceActiveObject@@XZ 10009090 f i CoinDispenser.obj
 0001:000080b0       ??B?$CComPtrBase@UIOleInPlaceFrame@@@ATL@@QBEPAUIOleInPlaceFrame@@XZ 100090b0 f i CoinDispenser.obj
 0001:000080d0       ??B?$CComPtrBase@UIOleInPlaceSiteWindowless@@@ATL@@QBEPAUIOleInPlaceSiteWindowless@@XZ 100090d0 f i CoinDispenser.obj
 0001:000080f0       ??B?$CComPtrBase@UIOleInPlaceUIWindow@@@ATL@@QBEPAUIOleInPlaceUIWindow@@XZ 100090f0 f i CoinDispenser.obj
 0001:00008110       ??B?$CComPtrBase@UIOleObject@@@ATL@@QBEPAUIOleObject@@XZ 10009110 f i CoinDispenser.obj
 0001:00008130       ??B?$CComPtrBase@UIPersistStream@@@ATL@@QBEPAUIPersistStream@@XZ 10009130 f i CoinDispenser.obj
 0001:00008150       ??B?$CComPtrBase@UIProvideClassInfo2@@@ATL@@QBEPAUIProvideClassInfo2@@XZ 10009150 f i CoinDispenser.obj
 0001:00008170       ??B?$CComPtrBase@UISpecifyPropertyPages@@@ATL@@QBEPAUISpecifyPropertyPages@@XZ 10009170 f i CoinDispenser.obj
 0001:00008190       ??B?$CComPtrBase@UIStream@@@ATL@@QBEPAUIStream@@XZ 10009190 f i CoinDispenser.obj
 0001:000081b0       ??B?$CComPtrBase@UITypeInfo2@@@ATL@@QBEPAUITypeInfo2@@XZ 100091b0 f i CoinDispenser.obj
 0001:000081d0       ??B?$CComPtrBase@UITypeInfo@@@ATL@@QBEPAUITypeInfo@@XZ 100091d0 f i CoinDispenser.obj
 0001:000081f0       ??B?$CComPtrBase@UITypeLib@@@ATL@@QBEPAUITypeLib@@XZ 100091f0 f i CoinDispenser.obj
 0001:00008210       ??B?$CComPtrBase@UIUnknown@@@ATL@@QBEPAUIUnknown@@XZ 10009210 f i CoinDispenser.obj
 0001:00008230       ??B?$CTempBuffer@E$0BAA@VCCRTAllocator@ATL@@@ATL@@QBEPAEXZ 10009230 f i CoinDispenser.obj
 0001:00008250       ??B?$CTempBuffer@_W$0BAA@VCCRTAllocator@ATL@@@ATL@@QBEPA_WXZ 10009250 f i CoinDispenser.obj
 0001:00008270       ??B?$CTempBuffer@_W$0EAA@VCCRTAllocator@ATL@@@ATL@@QBEPA_WXZ 10009270 f i CoinDispenser.obj
 0001:00008290       ??B?$CTraceCategoryEx@$00$0A@@ATL@@QAEIXZ 10009290 f i CoinDispenser.obj
 0001:000082b0       ??B?$CTraceCategoryEx@$07$0A@@ATL@@QAEIXZ 100092b0 f i CoinDispenser.obj
 0001:000082d0       ??B?$CTraceCategoryEx@$0CAAA@$0A@@ATL@@QAEIXZ 100092d0 f i CoinDispenser.obj
 0001:000082f0       ??B?$CTraceCategoryEx@$0EA@$0A@@ATL@@QAEIXZ 100092f0 f i CoinDispenser.obj
 0001:00008310       ??B?$CTraceCategoryEx@$0IAA@$0A@@ATL@@QAEIXZ 10009310 f i CoinDispenser.obj
 0001:00008330       ??BCComBSTR@ATL@@QBEPA_WXZ 10009330 f i CoinDispenser.obj
 0001:00008350       ??BCRegKey@ATL@@QBEPAUHKEY__@@XZ 10009350 f i CoinDispenser.obj
 0001:00008370       ??C?$CComPtrBase@UIAdviseSink@@@ATL@@QBEPAV?$_NoAddRefReleaseOnCComPtr@UIAdviseSink@@@1@XZ 10009370 f i CoinDispenser.obj
 0001:000083c0       ??C?$CComPtrBase@UICatRegister@@@ATL@@QBEPAV?$_NoAddRefReleaseOnCComPtr@UICatRegister@@@1@XZ 100093c0 f i CoinDispenser.obj
 0001:00008410       ??C?$CComPtrBase@UIConnectionPoint@@@ATL@@QBEPAV?$_NoAddRefReleaseOnCComPtr@UIConnectionPoint@@@1@XZ 10009410 f i CoinDispenser.obj
 0001:00008460       ??C?$CComPtrBase@UIConnectionPointContainer@@@ATL@@QBEPAV?$_NoAddRefReleaseOnCComPtr@UIConnectionPointContainer@@@1@XZ 10009460 f i CoinDispenser.obj
 0001:000084b0       ??C?$CComPtrBase@UIDataAdviseHolder@@@ATL@@QBEPAV?$_NoAddRefReleaseOnCComPtr@UIDataAdviseHolder@@@1@XZ 100094b0 f i CoinDispenser.obj
 0001:00008500       ??C?$CComPtrBase@UIOleAdviseHolder@@@ATL@@QBEPAV?$_NoAddRefReleaseOnCComPtr@UIOleAdviseHolder@@@1@XZ 10009500 f i CoinDispenser.obj
 0001:00008550       ??C?$CComPtrBase@UIOleClientSite@@@ATL@@QBEPAV?$_NoAddRefReleaseOnCComPtr@UIOleClientSite@@@1@XZ 10009550 f i CoinDispenser.obj
 0001:000085a0       ??C?$CComPtrBase@UIOleControlSite@@@ATL@@QBEPAV?$_NoAddRefReleaseOnCComPtr@UIOleControlSite@@@1@XZ 100095a0 f i CoinDispenser.obj
 0001:000085f0       ??C?$CComPtrBase@UIOleInPlaceFrame@@@ATL@@QBEPAV?$_NoAddRefReleaseOnCComPtr@UIOleInPlaceFrame@@@1@XZ 100095f0 f i CoinDispenser.obj
 0001:00008640       ??C?$CComPtrBase@UIOleInPlaceObject@@@ATL@@QBEPAV?$_NoAddRefReleaseOnCComPtr@UIOleInPlaceObject@@@1@XZ 10009640 f i CoinDispenser.obj
 0001:00008690       ??C?$CComPtrBase@UIOleInPlaceSiteWindowless@@@ATL@@QBEPAV?$_NoAddRefReleaseOnCComPtr@UIOleInPlaceSiteWindowless@@@1@XZ 10009690 f i CoinDispenser.obj
 0001:000086e0       ??C?$CComPtrBase@UIOleInPlaceUIWindow@@@ATL@@QBEPAV?$_NoAddRefReleaseOnCComPtr@UIOleInPlaceUIWindow@@@1@XZ 100096e0 f i CoinDispenser.obj
 0001:00008730       ??C?$CComPtrBase@UIOleObject@@@ATL@@QBEPAV?$_NoAddRefReleaseOnCComPtr@UIOleObject@@@1@XZ 10009730 f i CoinDispenser.obj
 0001:00008780       ??C?$CComPtrBase@UIPersistStream@@@ATL@@QBEPAV?$_NoAddRefReleaseOnCComPtr@UIPersistStream@@@1@XZ 10009780 f i CoinDispenser.obj
 0001:000087d0       ??C?$CComPtrBase@UIPersistStreamInit@@@ATL@@QBEPAV?$_NoAddRefReleaseOnCComPtr@UIPersistStreamInit@@@1@XZ 100097d0 f i CoinDispenser.obj
 0001:00008820       ??C?$CComPtrBase@UIPointerInactive@@@ATL@@QBEPAV?$_NoAddRefReleaseOnCComPtr@UIPointerInactive@@@1@XZ 10009820 f i CoinDispenser.obj
 0001:00008870       ??C?$CComPtrBase@UIProvideClassInfo2@@@ATL@@QBEPAV?$_NoAddRefReleaseOnCComPtr@UIProvideClassInfo2@@@1@XZ 10009870 f i CoinDispenser.obj
 0001:000088c0       ??C?$CComPtrBase@UISpecifyPropertyPages@@@ATL@@QBEPAV?$_NoAddRefReleaseOnCComPtr@UISpecifyPropertyPages@@@1@XZ 100098c0 f i CoinDispenser.obj
 0001:00008910       ??C?$CComPtrBase@UITypeInfo@@@ATL@@QBEPAV?$_NoAddRefReleaseOnCComPtr@UITypeInfo@@@1@XZ 10009910 f i CoinDispenser.obj
 0001:00008960       ??C?$CComPtrBase@UITypeLib@@@ATL@@QBEPAV?$_NoAddRefReleaseOnCComPtr@UITypeLib@@@1@XZ 10009960 f i CoinDispenser.obj
 0001:000089b0       ??C?$CComPtrBase@UIUnknown@@@ATL@@QBEPAV?$_NoAddRefReleaseOnCComPtr@UIUnknown@@@1@XZ 100099b0 f i CoinDispenser.obj
 0001:00008a00       ??C?$CComPtrBase@UIViewObjectEx@@@ATL@@QBEPAV?$_NoAddRefReleaseOnCComPtr@UIViewObjectEx@@@1@XZ 10009a00 f i CoinDispenser.obj
 0001:00008a50       ??I?$CComPtrBase@UICatRegister@@@ATL@@QAEPAPAUICatRegister@@XZ 10009a50 f i CoinDispenser.obj
 0001:00008aa0       ??I?$CComPtrBase@UIConnectionPoint@@@ATL@@QAEPAPAUIConnectionPoint@@XZ 10009aa0 f i CoinDispenser.obj
 0001:00008af0       ??I?$CComPtrBase@UIConnectionPointContainer@@@ATL@@QAEPAPAUIConnectionPointContainer@@XZ 10009af0 f i CoinDispenser.obj
 0001:00008b40       ??I?$CComPtrBase@UIDataAdviseHolder@@@ATL@@QAEPAPAUIDataAdviseHolder@@XZ 10009b40 f i CoinDispenser.obj
 0001:00008b90       ??I?$CComPtrBase@UIDataObject@@@ATL@@QAEPAPAUIDataObject@@XZ 10009b90 f i CoinDispenser.obj
 0001:00008be0       ??I?$CComPtrBase@UIDispatch@@@ATL@@QAEPAPAUIDispatch@@XZ 10009be0 f i CoinDispenser.obj
 0001:00008c30       ??I?$CComPtrBase@UIOleAdviseHolder@@@ATL@@QAEPAPAUIOleAdviseHolder@@XZ 10009c30 f i CoinDispenser.obj
 0001:00008c80       ??I?$CComPtrBase@UIOleControlSite@@@ATL@@QAEPAPAUIOleControlSite@@XZ 10009c80 f i CoinDispenser.obj
 0001:00008cd0       ??I?$CComPtrBase@UIOleInPlaceActiveObject@@@ATL@@QAEPAPAUIOleInPlaceActiveObject@@XZ 10009cd0 f i CoinDispenser.obj
 0001:00008d20       ??I?$CComPtrBase@UIOleInPlaceFrame@@@ATL@@QAEPAPAUIOleInPlaceFrame@@XZ 10009d20 f i CoinDispenser.obj
 0001:00008d70       ??I?$CComPtrBase@UIOleInPlaceObject@@@ATL@@QAEPAPAUIOleInPlaceObject@@XZ 10009d70 f i CoinDispenser.obj
 0001:00008dc0       ??I?$CComPtrBase@UIOleInPlaceSiteWindowless@@@ATL@@QAEPAPAUIOleInPlaceSiteWindowless@@XZ 10009dc0 f i CoinDispenser.obj
 0001:00008e10       ??I?$CComPtrBase@UIOleInPlaceUIWindow@@@ATL@@QAEPAPAUIOleInPlaceUIWindow@@XZ 10009e10 f i CoinDispenser.obj
 0001:00008e60       ??I?$CComPtrBase@UIOleObject@@@ATL@@QAEPAPAUIOleObject@@XZ 10009e60 f i CoinDispenser.obj
 0001:00008eb0       ??I?$CComPtrBase@UIPersistStream@@@ATL@@QAEPAPAUIPersistStream@@XZ 10009eb0 f i CoinDispenser.obj
 0001:00008f00       ??I?$CComPtrBase@UIPointerInactive@@@ATL@@QAEPAPAUIPointerInactive@@XZ 10009f00 f i CoinDispenser.obj
 0001:00008f50       ??I?$CComPtrBase@UIProvideClassInfo2@@@ATL@@QAEPAPAUIProvideClassInfo2@@XZ 10009f50 f i CoinDispenser.obj
 0001:00008fa0       ??I?$CComPtrBase@UIStream@@@ATL@@QAEPAPAUIStream@@XZ 10009fa0 f i CoinDispenser.obj
 0001:00008ff0       ??I?$CComPtrBase@UITypeInfo2@@@ATL@@QAEPAPAUITypeInfo2@@XZ 10009ff0 f i CoinDispenser.obj
 0001:00009040       ??I?$CComPtrBase@UITypeInfo@@@ATL@@QAEPAPAUITypeInfo@@XZ 1000a040 f i CoinDispenser.obj
 0001:00009090       ??I?$CComPtrBase@UITypeLib@@@ATL@@QAEPAPAUITypeLib@@XZ 1000a090 f i CoinDispenser.obj
 0001:000090e0       ??I?$CComPtrBase@UIUnknown@@@ATL@@QAEPAPAUIUnknown@@XZ 1000a0e0 f i CoinDispenser.obj
 0001:00009130       ??I?$CComPtrBase@UIViewObjectEx@@@ATL@@QAEPAPAUIViewObjectEx@@XZ 1000a130 f i CoinDispenser.obj
 0001:00009180       ??ICComBSTR@ATL@@QAEPAPA_WXZ 1000a180 f i CoinDispenser.obj
 0001:00009195       ??_E?$CComContainedObject@VCOPOSCoinDispenser@@@ATL@@W3AEPAXI@Z 1000a195 f i CoinDispenser.obj
 0001:0000919d       ??_E?$CComContainedObject@VCOPOSCoinDispenser@@@ATL@@WEM@AEPAXI@Z 1000a19d f i CoinDispenser.obj
 0001:000091a5       ??_E?$CComObject@VCOPOSCoinDispenser@@@ATL@@W3AEPAXI@Z 1000a1a5 f i CoinDispenser.obj
 0001:000091ad       ??_E?$CComObject@VCOPOSCoinDispenser@@@ATL@@WEM@AEPAXI@Z 1000a1ad f i CoinDispenser.obj
 0001:000091c0       ??_G?$CComAggObject@VCOPOSCoinDispenser@@@ATL@@UAEPAXI@Z 1000a1c0 f i CoinDispenser.obj
 0001:000091c0       ??_E?$CComAggObject@VCOPOSCoinDispenser@@@ATL@@UAEPAXI@Z 1000a1c0 f i CoinDispenser.obj
 0001:00009210       ??_E?$CComContainedObject@VCOPOSCoinDispenser@@@ATL@@UAEPAXI@Z 1000a210 f i CoinDispenser.obj
 0001:00009210       ??_G?$CComContainedObject@VCOPOSCoinDispenser@@@ATL@@UAEPAXI@Z 1000a210 f i CoinDispenser.obj
 0001:00009260       ??_G?$CComObject@V?$CComEnum@UIEnumConnectionPoints@@$1?_GUID_b196b285_bab4_101a_b69c_00aa00341d07@@3U__s_GUID@@BPAUIConnectionPoint@@V?$_CopyInterface@UIConnectionPoint@@@ATL@@VCComSingleThreadModel@6@@ATL@@@ATL@@UAEPAXI@Z 1000a260 f i CoinDispenser.obj
 0001:00009260       ??_E?$CComObject@V?$CComEnum@UIEnumConnectionPoints@@$1?_GUID_b196b285_bab4_101a_b69c_00aa00341d07@@3U__s_GUID@@BPAUIConnectionPoint@@V?$_CopyInterface@UIConnectionPoint@@@ATL@@VCComSingleThreadModel@6@@ATL@@@ATL@@UAEPAXI@Z 1000a260 f i CoinDispenser.obj
 0001:000092a0       ??_E?$CComObject@V?$CComEnum@UIEnumConnections@@$1?_GUID_b196b287_bab4_101a_b69c_00aa00341d07@@3U__s_GUID@@BUtagCONNECTDATA@@V?$_Copy@UtagCONNECTDATA@@@ATL@@VCComSingleThreadModel@6@@ATL@@@ATL@@UAEPAXI@Z 1000a2a0 f i CoinDispenser.obj
 0001:000092a0       ??_G?$CComObject@V?$CComEnum@UIEnumConnections@@$1?_GUID_b196b287_bab4_101a_b69c_00aa00341d07@@3U__s_GUID@@BUtagCONNECTDATA@@V?$_Copy@UtagCONNECTDATA@@@ATL@@VCComSingleThreadModel@6@@ATL@@@ATL@@UAEPAXI@Z 1000a2a0 f i CoinDispenser.obj
 0001:000092e0       ??_E?$CComObject@VCOPOSCoinDispenser@@@ATL@@UAEPAXI@Z 1000a2e0 f i CoinDispenser.obj
 0001:000092e0       ??_G?$CComObject@VCOPOSCoinDispenser@@@ATL@@UAEPAXI@Z 1000a2e0 f i CoinDispenser.obj
 0001:00009330       ??_E?$CComObjectCached@VCComClassFactory@ATL@@@ATL@@UAEPAXI@Z 1000a330 f i CoinDispenser.obj
 0001:00009330       ??_G?$CComObjectCached@VCComClassFactory@ATL@@@ATL@@UAEPAXI@Z 1000a330 f i CoinDispenser.obj
 0001:00009370       ??_GCComClassFactory@ATL@@UAEPAXI@Z 1000a370 f i CoinDispenser.obj
 0001:00009370       ??_ECComClassFactory@ATL@@UAEPAXI@Z 1000a370 f i CoinDispenser.obj
 0001:000093b0       ??_GCComModule@ATL@@UAEPAXI@Z 1000a3b0 f i CoinDispenser.obj
 0001:000093b0       ??_ECComModule@ATL@@UAEPAXI@Z 1000a3b0 f i CoinDispenser.obj
 0001:000093f0       ??_GCRegObject@ATL@@UAEPAXI@Z 1000a3f0 f i CoinDispenser.obj
 0001:000093f0       ??_ECRegObject@ATL@@UAEPAXI@Z 1000a3f0 f i CoinDispenser.obj
 0001:00009430       ?Add@?$CSimpleArray@GV?$CSimpleArrayEqualHelper@G@ATL@@@ATL@@QAEHABG@Z 1000a430 f i CoinDispenser.obj
 0001:00009580       ?Add@?$CSimpleMap@PA_WPA_WVCExpansionVectorEqualHelper@ATL@@@ATL@@QAEHABQA_W0@Z 1000a580 f i CoinDispenser.obj
 0001:00009640       ?Add@CComDynamicUnkArray@ATL@@QAEKPAUIUnknown@@@Z 1000a640 f i CoinDispenser.obj
 0001:000097e0       ?Add@CExpansionVector@ATL@@QAEHPB_W0@Z 1000a7e0 f i CoinDispenser.obj
 0001:00009a70       ?AddChar@CParseBuffer@CRegParser@ATL@@QAEHPB_W@Z 1000aa70 f i CoinDispenser.obj
 0001:00009ab0       ?AddCommonRGSReplacements@?$CAtlModuleT@VCComModule@ATL@@@ATL@@UAEJPAUIRegistrarBase@@@Z 1000aab0 f i CoinDispenser.obj
 0001:00009b00       ?AddCreateWndData@CAtlWinModule@ATL@@QAEXPAU_AtlCreateWndData@2@PAX@Z 1000ab00 f i CoinDispenser.obj
 0001:00009b30       ?AddRef@?$CComAggObject@VCOPOSCoinDispenser@@@ATL@@UAGKXZ 1000ab30 f i CoinDispenser.obj
 0001:00009b50       ?AddRef@?$CComContainedObject@VCOPOSCoinDispenser@@@ATL@@UAGKXZ 1000ab50 f i CoinDispenser.obj
 0001:00009b6c       ?AddRef@?$CComContainedObject@VCOPOSCoinDispenser@@@ATL@@WHA@AGKXZ 1000ab6c f i CoinDispenser.obj
 0001:00009b76       ?AddRef@?$CComContainedObject@VCOPOSCoinDispenser@@@ATL@@WHE@AGKXZ 1000ab76 f i CoinDispenser.obj
 0001:00009b80       ?AddRef@?$CComContainedObject@VCOPOSCoinDispenser@@@ATL@@WHI@AGKXZ 1000ab80 f i CoinDispenser.obj
 0001:00009b8a       ?AddRef@?$CComContainedObject@VCOPOSCoinDispenser@@@ATL@@WHM@AGKXZ 1000ab8a f i CoinDispenser.obj
 0001:00009b94       ?AddRef@?$CComContainedObject@VCOPOSCoinDispenser@@@ATL@@WIA@AGKXZ 1000ab94 f i CoinDispenser.obj
 0001:00009ba1       ?AddRef@?$CComContainedObject@VCOPOSCoinDispenser@@@ATL@@WIE@AGKXZ 1000aba1 f i CoinDispenser.obj
 0001:00009bae       ?AddRef@?$CComContainedObject@VCOPOSCoinDispenser@@@ATL@@WII@AGKXZ 1000abae f i CoinDispenser.obj
 0001:00009bbb       ?AddRef@?$CComContainedObject@VCOPOSCoinDispenser@@@ATL@@WIM@AGKXZ 1000abbb f i CoinDispenser.obj
 0001:00009bc8       ?AddRef@?$CComContainedObject@VCOPOSCoinDispenser@@@ATL@@WJA@AGKXZ 1000abc8 f i CoinDispenser.obj
 0001:00009bd5       ?AddRef@?$CComContainedObject@VCOPOSCoinDispenser@@@ATL@@WJE@AGKXZ 1000abd5 f i CoinDispenser.obj
 0001:00009be2       ?AddRef@?$CComContainedObject@VCOPOSCoinDispenser@@@ATL@@WJI@AGKXZ 1000abe2 f i CoinDispenser.obj
 0001:00009bef       ?AddRef@?$CComContainedObject@VCOPOSCoinDispenser@@@ATL@@WJM@AGKXZ 1000abef f i CoinDispenser.obj
 0001:00009bfc       ?AddRef@?$CComContainedObject@VCOPOSCoinDispenser@@@ATL@@WKA@AGKXZ 1000abfc f i CoinDispenser.obj
 0001:00009c09       ?AddRef@?$CComContainedObject@VCOPOSCoinDispenser@@@ATL@@WKI@AGKXZ 1000ac09 f i CoinDispenser.obj
 0001:00009c16       ?AddRef@?$CComContainedObject@VCOPOSCoinDispenser@@@ATL@@WLE@AGKXZ 1000ac16 f i CoinDispenser.obj
 0001:00009c30       ?AddRef@?$CComObject@V?$CComEnum@UIEnumConnectionPoints@@$1?_GUID_b196b285_bab4_101a_b69c_00aa00341d07@@3U__s_GUID@@BPAUIConnectionPoint@@V?$_CopyInterface@UIConnectionPoint@@@ATL@@VCComSingleThreadModel@6@@ATL@@@ATL@@UAGKXZ 1000ac30 f i CoinDispenser.obj
 0001:00009c50       ?AddRef@?$CComObject@V?$CComEnum@UIEnumConnections@@$1?_GUID_b196b287_bab4_101a_b69c_00aa00341d07@@3U__s_GUID@@BUtagCONNECTDATA@@V?$_Copy@UtagCONNECTDATA@@@ATL@@VCComSingleThreadModel@6@@ATL@@@ATL@@UAGKXZ 1000ac50 f i CoinDispenser.obj
 0001:00009c70       ?AddRef@?$CComObject@VCOPOSCoinDispenser@@@ATL@@UAGKXZ 1000ac70 f i CoinDispenser.obj
 0001:00009c8c       ?AddRef@?$CComObject@VCOPOSCoinDispenser@@@ATL@@WHA@AGKXZ 1000ac8c f i CoinDispenser.obj
 0001:00009c96       ?AddRef@?$CComObject@VCOPOSCoinDispenser@@@ATL@@WHE@AGKXZ 1000ac96 f i CoinDispenser.obj
 0001:00009ca0       ?AddRef@?$CComObject@VCOPOSCoinDispenser@@@ATL@@WHI@AGKXZ 1000aca0 f i CoinDispenser.obj
 0001:00009caa       ?AddRef@?$CComObject@VCOPOSCoinDispenser@@@ATL@@WHM@AGKXZ 1000acaa f i CoinDispenser.obj
 0001:00009cb4       ?AddRef@?$CComObject@VCOPOSCoinDispenser@@@ATL@@WIA@AGKXZ 1000acb4 f i CoinDispenser.obj
 0001:00009cc1       ?AddRef@?$CComObject@VCOPOSCoinDispenser@@@ATL@@WIE@AGKXZ 1000acc1 f i CoinDispenser.obj
 0001:00009cce       ?AddRef@?$CComObject@VCOPOSCoinDispenser@@@ATL@@WII@AGKXZ 1000acce f i CoinDispenser.obj
 0001:00009cdb       ?AddRef@?$CComObject@VCOPOSCoinDispenser@@@ATL@@WIM@AGKXZ 1000acdb f i CoinDispenser.obj
 0001:00009ce8       ?AddRef@?$CComObject@VCOPOSCoinDispenser@@@ATL@@WJA@AGKXZ 1000ace8 f i CoinDispenser.obj
 0001:00009cf5       ?AddRef@?$CComObject@VCOPOSCoinDispenser@@@ATL@@WJE@AGKXZ 1000acf5 f i CoinDispenser.obj
 0001:00009d02       ?AddRef@?$CComObject@VCOPOSCoinDispenser@@@ATL@@WJI@AGKXZ 1000ad02 f i CoinDispenser.obj
 0001:00009d0f       ?AddRef@?$CComObject@VCOPOSCoinDispenser@@@ATL@@WJM@AGKXZ 1000ad0f f i CoinDispenser.obj
 0001:00009d1c       ?AddRef@?$CComObject@VCOPOSCoinDispenser@@@ATL@@WKA@AGKXZ 1000ad1c f i CoinDispenser.obj
 0001:00009d29       ?AddRef@?$CComObject@VCOPOSCoinDispenser@@@ATL@@WKI@AGKXZ 1000ad29 f i CoinDispenser.obj
 0001:00009d36       ?AddRef@?$CComObject@VCOPOSCoinDispenser@@@ATL@@WLE@AGKXZ 1000ad36 f i CoinDispenser.obj
 0001:00009d50       ?AddRef@?$CComObjectCached@VCComClassFactory@ATL@@@ATL@@UAGKXZ 1000ad50 f i CoinDispenser.obj
 0001:00009da0       ?AddRef@CRegObject@ATL@@UAGKXZ 1000ada0 f i CoinDispenser.obj
 0001:00009df0       ?AddReplacement@CRegObject@ATL@@UAGJPB_W0@Z 1000adf0 f i CoinDispenser.obj
 0001:00009f00       ?AddString@CParseBuffer@CRegParser@ATL@@QAEHPB_W@Z 1000af00 f i CoinDispenser.obj
 0001:00009ff0       ?AddTermFunc@CAtlModule@ATL@@QAEJP6GXK@ZK@Z 1000aff0 f i CoinDispenser.obj
 0001:0000a040       ?AddValue@CRegParser@ATL@@IAEJAAVCRegKey@2@PB_WPA_W@Z 1000b040 f i CoinDispenser.obj
 0001:0000a7d0       ?Advise@?$CProxy_IOPOSEvents@VCOPOSCoinDispenser@@@@UAGJPAUIUnknown@@PAK@Z 1000b7d0 f i CoinDispenser.obj
 0001:0000a820       ?Advise@?$IConnectionPointImpl@VCOPOSCoinDispenser@@$1?DIID__IOPOSCoinDispenserEvents@@3U_GUID@@BVCComDynamicUnkArray@ATL@@@ATL@@UAGJPAUIUnknown@@PAK@Z 1000b820 f i CoinDispenser.obj
 0001:0000a9c0       ?Advise@?$IConnectionPointImpl@VCOPOSCoinDispenser@@$1?IID_IPropertyNotifySink@@3U_GUID@@BVCComDynamicUnkArray@ATL@@@ATL@@UAGJPAUIUnknown@@PAK@Z 1000b9c0 f i CoinDispenser.obj
 0001:0000ab60       ?Advise@?$IOleObjectImpl@VCOPOSCoinDispenser@@@ATL@@UAGJPAUIAdviseSink@@PAK@Z 1000bb60 f i CoinDispenser.obj
 0001:0000abf0       ?Allocate@?$CAtlSafeAllocBufferManager@VCCRTAllocator@ATL@@@_ATL_SAFE_ALLOCA_IMPL@ATL@@QAEPAXK@Z 1000bbf0 f i CoinDispenser.obj
 0001:0000ac60       ?Allocate@?$CTempBuffer@E$0BAA@VCCRTAllocator@ATL@@@ATL@@QAEPAEI@Z 1000bc60 f i CoinDispenser.obj
 0001:0000aca0       ?Allocate@?$CTempBuffer@_W$0BAA@VCCRTAllocator@ATL@@@ATL@@QAEPA_WI@Z 1000bca0 f i CoinDispenser.obj
 0001:0000ace0       ?Allocate@?$CTempBuffer@_W$0EAA@VCCRTAllocator@ATL@@@ATL@@QAEPA_WI@Z 1000bce0 f i CoinDispenser.obj
 0001:0000ad20       ?AllocateBytes@?$CTempBuffer@E$0BAA@VCCRTAllocator@ATL@@@ATL@@QAEPAEI@Z 1000bd20 f i CoinDispenser.obj
 0001:0000ada0       ?AllocateBytes@?$CTempBuffer@_W$0BAA@VCCRTAllocator@ATL@@@ATL@@QAEPA_WI@Z 1000bda0 f i CoinDispenser.obj
 0001:0000ae20       ?AllocateBytes@?$CTempBuffer@_W$0EAA@VCCRTAllocator@ATL@@@ATL@@QAEPA_WI@Z 1000be20 f i CoinDispenser.obj
 0001:0000aea0       ?AllocateHeap@?$CTempBuffer@E$0BAA@VCCRTAllocator@ATL@@@ATL@@AAEXI@Z 1000bea0 f i CoinDispenser.obj
 0001:0000aef0       ?AllocateHeap@?$CTempBuffer@_W$0BAA@VCCRTAllocator@ATL@@@ATL@@AAEXI@Z 1000bef0 f i CoinDispenser.obj
 0001:0000af40       ?AllocateHeap@?$CTempBuffer@_W$0EAA@VCCRTAllocator@ATL@@@ATL@@AAEXI@Z 1000bf40 f i CoinDispenser.obj
 0001:0000af90       ?Append@CParseBuffer@CRegParser@ATL@@QAEHPB_WH@Z 1000bf90 f i CoinDispenser.obj
 0001:0000b130       ?AtlCallTermFunc@ATL@@YGXPAU_ATL_MODULE70@1@@Z 1000c130 f i CoinDispenser.obj
 0001:0000b1d0       ?AtlCoTaskMemCAlloc@ATL@@YAPAXKK@Z 1000c1d0 f i CoinDispenser.obj
 0001:0000b260       ?AtlCoTaskMemRecalloc@ATL@@YAPAXPAXKK@Z 1000c260 f i CoinDispenser.obj
 0001:0000b300       ?AtlComModuleGetClassObject@ATL@@YGJPAU_ATL_COM_MODULE70@1@ABU_GUID@@1PAPAX@Z 1000c300 f i CoinDispenser.obj
 0001:0000b590       ?AtlComModuleRegisterServer@ATL@@YGJPAU_ATL_COM_MODULE70@1@HPBU_GUID@@@Z 1000c590 f i CoinDispenser.obj
 0001:0000b720       ?AtlComModuleUnregisterServer@ATL@@YGJPAU_ATL_COM_MODULE70@1@HPBU_GUID@@@Z 1000c720 f i CoinDispenser.obj
 0001:0000b850       ?AtlComQIPtrAssign2@ATL@@YAXPAPAUIUnknown@@PAU2@ABU_GUID@@@Z 1000c850 f i CoinDispenser.obj
 0001:0000b8d0       ?AtlCreateTargetDC@ATL@@YGPAUHDC__@@PAU2@PAUtagDVTARGETDEVICE@@@Z 1000c8d0 f i CoinDispenser.obj
 0001:0000ba70       ?AtlCrtErrorCheck@ATL@@YAHH@Z 1000ca70 f i CoinDispenser.obj
 0001:0000bb40       ?AtlGetPerUserRegistration@ATL@@YGJPA_N@Z 1000cb40 f i CoinDispenser.obj
 0001:0000bb70       ?AtlHiMetricToPixel@ATL@@YGXPBUtagSIZE@@PAU2@@Z 1000cb70 f i CoinDispenser.obj
 0001:0000bd40       ?AtlHresultFromLastError@ATL@@YAJXZ 1000cd40 f i CoinDispenser.obj
 0001:0000bd80       ?AtlHresultFromWin32@ATL@@YAJK@Z 1000cd80 f i CoinDispenser.obj
 0001:0000bda0       ?AtlIPersistStreamInit_Load@ATL@@YGJPAUIStream@@PBUATL_PROPMAP_ENTRY@1@PAXPAUIUnknown@@@Z 1000cda0 f i CoinDispenser.obj
 0001:0000c200       ?AtlIPersistStreamInit_Save@ATL@@YGJPAUIStream@@HPBUATL_PROPMAP_ENTRY@1@PAXPAUIUnknown@@@Z 1000d200 f i CoinDispenser.obj
 0001:0000c5e0       ?AtlInternalOleLoadFromStream@ATL@@YAJPAUIStream@@ABU_GUID@@PAPAXTClassesAllowedInStream@1@K@Z 1000d5e0 f i CoinDispenser.obj
 0001:0000c880       ?AtlInternalQueryInterface@ATL@@YGJPAXPBU_ATL_INTMAP_ENTRY@1@ABU_GUID@@PAPAX@Z 1000d880 f i CoinDispenser.obj
 0001:0000cab0       ?AtlLoadTypeLib@ATL@@YGJPAUHINSTANCE__@@PB_WPAPA_WPAPAUITypeLib@@@Z 1000dab0 f i CoinDispenser.obj
 0001:0000cf10       ?AtlModuleAddTermFunc@ATL@@YGJPAU_ATL_MODULE70@1@P6GXK@ZK@Z 1000df10 f i CoinDispenser.obj
 0001:0000d070       ?AtlRegisterClassCategoriesHelper@ATL@@YGJABU_GUID@@PBU_ATL_CATMAP_ENTRY@1@H@Z 1000e070 f i CoinDispenser.obj
 0001:0000d750       ?AtlRegisterTypeLib@ATL@@YGJPAUHINSTANCE__@@PB_W@Z 1000e750 f i CoinDispenser.obj
 0001:0000da90       ?AtlThrowImpl@ATL@@YGXJ@Z  1000ea90 f i CoinDispenser.obj
 0001:0000db40       ?AtlUnRegisterTypeLib@ATL@@YGJPAUHINSTANCE__@@PB_W@Z 1000eb40 f i CoinDispenser.obj
 0001:0000dd50       ?AtlWinModuleAddCreateWndData@ATL@@YGXPAU_ATL_WIN_MODULE70@1@PAU_AtlCreateWndData@1@PAX@Z 1000ed50 f i CoinDispenser.obj
 0001:0000dec0       ?AtlWinModuleExtractCreateWndData@ATL@@YGPAXPAU_ATL_WIN_MODULE70@1@@Z 1000eec0 f i CoinDispenser.obj
 0001:0000e040       ?AtlWinModuleRegisterClassExW@ATL@@YGGPAU_ATL_WIN_MODULE70@1@PBUtagWNDCLASSEXW@@@Z 1000f040 f i CoinDispenser.obj
 0001:0000e110       ?AtlWinModuleRegisterWndClassInfoW@ATL@@YGGPAU_ATL_WIN_MODULE70@1@PAU_ATL_BASE_MODULE70@1@PAU_ATL_WNDCLASSINFOW@1@PAP6GJPAUHWND__@@IIJ@Z@Z 1000f110 f i CoinDispenser.obj
 0001:0000e1a0       ?Attach@?$CAutoVectorPtr@_W@ATL@@QAEXPA_W@Z 1000f1a0 f i CoinDispenser.obj
 0001:0000e200       ?Attach@CComBSTR@ATL@@QAEXPA_W@Z 1000f200 f i CoinDispenser.obj
 0001:0000e250       ?Attach@CRegKey@ATL@@QAEXPAUHKEY__@@@Z 1000f250 f i CoinDispenser.obj
 0001:0000e2c0       ?CanForceRemoveKey@CRegParser@ATL@@IAEHPB_W@Z 1000f2c0 f i CoinDispenser.obj
 0001:0000e330       ?ChToByte@CRegParser@ATL@@KAE_W@Z 1000f330 f i CoinDispenser.obj
 0001:0000e450       ?ChangeType@CComVariant@ATL@@QAEJGPBUtagVARIANT@@@Z 1000f450 f i CoinDispenser.obj
 0001:0000e4b0       ?Cleanup@CComTypeInfoHolder@ATL@@SGXK@Z 1000f4b0 f i CoinDispenser.obj
 0001:0000e580       ?Clear@CComVariant@ATL@@QAEJXZ 1000f580 f i CoinDispenser.obj
 0001:0000e5c0       ?ClearReplacements@CExpansionVector@ATL@@QAEJXZ 1000f5c0 f i CoinDispenser.obj
 0001:0000e650       ?ClearReplacements@CRegObject@ATL@@UAGJXZ 1000f650 f i CoinDispenser.obj
 0001:0000e6a0       ?Clone@?$CComEnumImpl@UIEnumConnectionPoints@@$1?_GUID_b196b285_bab4_101a_b69c_00aa00341d07@@3U__s_GUID@@BPAUIConnectionPoint@@V?$_CopyInterface@UIConnectionPoint@@@ATL@@@ATL@@UAGJPAPAUIEnumConnectionPoints@@@Z 1000f6a0 f i CoinDispenser.obj
 0001:0000e810       ?Clone@?$CComEnumImpl@UIEnumConnections@@$1?_GUID_b196b287_bab4_101a_b69c_00aa00341d07@@3U__s_GUID@@BUtagCONNECTDATA@@V?$_Copy@UtagCONNECTDATA@@@ATL@@@ATL@@UAGJPAPAUIEnumConnections@@@Z 1000f810 f i CoinDispenser.obj
 0001:0000e980       ?Close@?$IOleObjectImpl@VCOPOSCoinDispenser@@@ATL@@UAGJK@Z 1000f980 f i CoinDispenser.obj
 0001:0000ea10       ?Close@CRegKey@ATL@@QAEJXZ 1000fa10 f i CoinDispenser.obj
 0001:0000ea80       ?ContextSensitiveHelp@?$IOleInPlaceActiveObjectImpl@VCOPOSCoinDispenser@@@ATL@@UAGJH@Z 1000fa80 f i CoinDispenser.obj
 0001:0000eaf0       ?ContextSensitiveHelp@?$IOleInPlaceObjectWindowlessImpl@VCOPOSCoinDispenser@@@ATL@@UAGJH@Z 1000faf0 f i CoinDispenser.obj
 0001:0000eb60       ?ControlQueryInterface@?$CComControl@VCOPOSCoinDispenser@@V?$CWindowImpl@VCOPOSCoinDispenser@@VCWindow@ATL@@V?$CWinTraits@$0FGAAAAAA@$0A@@3@@ATL@@@ATL@@UAEJABU_GUID@@PAPAX@Z 1000fb60 f i CoinDispenser.obj
 0001:0000ebe0       ?CreateControlWindow@?$CComControl@VCOPOSCoinDispenser@@V?$CWindowImpl@VCOPOSCoinDispenser@@VCWindow@ATL@@V?$CWinTraits@$0FGAAAAAA@$0A@@3@@ATL@@@ATL@@UAEPAUHWND__@@PAU3@AAUtagRECT@@@Z 1000fbe0 f i CoinDispenser.obj
 0001:0000ec60       ?CreateInstance@?$CComCreator@V?$CComAggObject@VCOPOSCoinDispenser@@@ATL@@@ATL@@SGJPAXABU_GUID@@PAPAX@Z 1000fc60 f i CoinDispenser.obj
 0001:0000ede0       ?CreateInstance@?$CComCreator@V?$CComObject@VCOPOSCoinDispenser@@@ATL@@@ATL@@SGJPAXABU_GUID@@PAPAX@Z 1000fde0 f i CoinDispenser.obj
 0001:0000ef70       ?CreateInstance@?$CComObject@V?$CComEnum@UIEnumConnectionPoints@@$1?_GUID_b196b285_bab4_101a_b69c_00aa00341d07@@3U__s_GUID@@BPAUIConnectionPoint@@V?$_CopyInterface@UIConnectionPoint@@@ATL@@VCComSingleThreadModel@6@@ATL@@@ATL@@SGJPAPAV12@@Z 1000ff70 f i CoinDispenser.obj
 0001:0000f0e0       ?CreateInstance@?$CComObject@V?$CComEnum@UIEnumConnections@@$1?_GUID_b196b287_bab4_101a_b69c_00aa00341d07@@3U__s_GUID@@BUtagCONNECTDATA@@V?$_Copy@UtagCONNECTDATA@@@ATL@@VCComSingleThreadModel@6@@ATL@@@ATL@@SGJPAPAV12@@Z 100100e0 f i CoinDispenser.obj
 0001:0000f250       ?CreateInstance@CComClassFactory@ATL@@UAGJPAUIUnknown@@ABU_GUID@@PAPAX@Z 10010250 f i CoinDispenser.obj
 0001:0000f340       ?DAdvise@?$IDataObjectImpl@VCOPOSCoinDispenser@@@ATL@@UAGJPAUtagFORMATETC@@KPAUIAdviseSink@@PAK@Z 10010340 f i CoinDispenser.obj
 0001:0000f440       ?DEVMODEOLE2T_EX@@YAPAU_devicemodeW@@PAU1@@Z 10010440 f i CoinDispenser.obj
 0001:0000f450       ?DUnadvise@?$IDataObjectImpl@VCOPOSCoinDispenser@@@ATL@@UAGJK@Z 10010450 f i CoinDispenser.obj
 0001:0000f520       ?Decrement@CComMultiThreadModel@ATL@@SGKPAJ@Z 10010520 f i CoinDispenser.obj
 0001:0000f540       ?Decrement@CComSingleThreadModel@ATL@@SGKPAJ@Z 10010540 f i CoinDispenser.obj
 0001:0000f560       ?DefWindowProcW@?$CWindowImplBaseT@VCWindow@ATL@@V?$CWinTraits@$0FGAAAAAA@$0A@@2@@ATL@@QAEJIIJ@Z 10010560 f i CoinDispenser.obj
 0001:0000f5b0       ?DefaultReflectionHandler@?$CWindowImplRoot@VCWindow@ATL@@@ATL@@SAHPAUHWND__@@IIJAAJ@Z 100105b0 f i CoinDispenser.obj
 0001:0000f7a0       ?DeleteSubKey@CRegKey@ATL@@QAEJPB_W@Z 100107a0 f i CoinDispenser.obj
 0001:0000f8b0       ?DeleteValue@CRegKey@ATL@@QAEJPB_W@Z 100108b0 f i CoinDispenser.obj
 0001:0000f920       ?Detach@?$CAutoVectorPtr@_W@ATL@@QAEPA_WXZ 10010920 f i CoinDispenser.obj
 0001:0000f950       ?Detach@?$CComPtrBase@UIPersistStream@@@ATL@@QAEPAUIPersistStream@@XZ 10010950 f i CoinDispenser.obj
 0001:0000f980       ?Detach@?$CComPtrBase@UITypeInfo@@@ATL@@QAEPAUITypeInfo@@XZ 10010980 f i CoinDispenser.obj
 0001:0000f9b0       ?Detach@?$CComPtrBase@UIUnknown@@@ATL@@QAEPAUIUnknown@@XZ 100109b0 f i CoinDispenser.obj
 0001:0000f9e0       ?Detach@CComBSTR@ATL@@QAEPA_WXZ 100109e0 f i CoinDispenser.obj
 0001:0000fa10       ?Detach@CParseBuffer@CRegParser@ATL@@QAEPA_WXZ 10010a10 f i CoinDispenser.obj
 0001:0000fa60       ?Detach@CRegKey@ATL@@QAEPAUHKEY__@@XZ 10010a60 f i CoinDispenser.obj
 0001:0000fab0       ?DoEvent@COPOSCoinDispenser@@IAEXIIJ@Z 10010ab0 f i CoinDispenser.obj
 0001:0000fbf0       ?DoVerb@?$IOleObjectImpl@VCOPOSCoinDispenser@@@ATL@@UAGJJPAUtagMSG@@PAUIOleClientSite@@JPAUHWND__@@PBUtagRECT@@@Z 10010bf0 f i CoinDispenser.obj
 0001:0000fe00       ?DoVerbDiscardUndo@?$IOleObjectImpl@VCOPOSCoinDispenser@@@ATL@@QAEJPBUtagRECT@@PAUHWND__@@@Z 10010e00 f i CoinDispenser.obj
 0001:0000fe70       ?DoVerbHide@?$IOleObjectImpl@VCOPOSCoinDispenser@@@ATL@@QAEJPBUtagRECT@@PAUHWND__@@@Z 10010e70 f i CoinDispenser.obj
 0001:0000ff20       ?DoVerbInPlaceActivate@?$IOleObjectImpl@VCOPOSCoinDispenser@@@ATL@@QAEJPBUtagRECT@@PAUHWND__@@@Z 10010f20 f i CoinDispenser.obj
 0001:0000ffc0       ?DoVerbOpen@?$IOleObjectImpl@VCOPOSCoinDispenser@@@ATL@@QAEJPBUtagRECT@@PAUHWND__@@@Z 10010fc0 f i CoinDispenser.obj
 0001:00010030       ?DoVerbPrimary@?$IOleObjectImpl@VCOPOSCoinDispenser@@@ATL@@QAEJPBUtagRECT@@PAUHWND__@@@Z 10011030 f i CoinDispenser.obj
 0001:00010140       ?DoVerbProperties@CComControlBase@ATL@@QAEJPBUtagRECT@@PAUHWND__@@@Z 10011140 f i CoinDispenser.obj
 0001:00010460       ?DoVerbShow@?$IOleObjectImpl@VCOPOSCoinDispenser@@@ATL@@QAEJPBUtagRECT@@PAUHWND__@@@Z 10011460 f i CoinDispenser.obj
 0001:000104f0       ?DoVerbUIActivate@?$IOleObjectImpl@VCOPOSCoinDispenser@@@ATL@@QAEJPBUtagRECT@@PAUHWND__@@@Z 100114f0 f i CoinDispenser.obj
 0001:00010590       ?DoesVerbActivate@CComControlBase@ATL@@QAEHJ@Z 10011590 f i CoinDispenser.obj
 0001:00010600       ?DoesVerbUIActivate@CComControlBase@ATL@@QAEHJ@Z 10011600 f i CoinDispenser.obj
 0001:00010680       ?Draw@?$IViewObjectExImpl@VCOPOSCoinDispenser@@@ATL@@UAGJKJPAXPAUtagDVTARGETDEVICE@@PAUHDC__@@2PBU_RECTL@@3P6GHK@ZK@Z 10011680 f i CoinDispenser.obj
 0001:00010720       ?Empty@CComBSTR@ATL@@QAEXXZ 10011720 f i CoinDispenser.obj
 0001:00010760       ?EnableModeless@?$IOleInPlaceActiveObjectImpl@VCOPOSCoinDispenser@@@ATL@@UAGJH@Z 10011760 f i CoinDispenser.obj
 0001:000107c0       ?EndOfVar@CRegParser@ATL@@IAEHXZ 100117c0 f i CoinDispenser.obj
 0001:00010830       ?EnsureTI@CComTypeInfoHolder@ATL@@QAEJK@Z 10011830 f i CoinDispenser.obj
 0001:00010890       ?EnumAdvise@?$IOleObjectImpl@VCOPOSCoinDispenser@@@ATL@@UAGJPAPAUIEnumSTATDATA@@@Z 10011890 f i CoinDispenser.obj
 0001:000109a0       ?EnumConnectionPoints@?$IConnectionPointContainerImpl@VCOPOSCoinDispenser@@@ATL@@UAGJPAPAUIEnumConnectionPoints@@@Z 100119a0 f i CoinDispenser.obj
 0001:00010dd0       ?EnumConnections@?$IConnectionPointImpl@VCOPOSCoinDispenser@@$1?DIID__IOPOSCoinDispenserEvents@@3U_GUID@@BVCComDynamicUnkArray@ATL@@@ATL@@UAGJPAPAUIEnumConnections@@@Z 10011dd0 f i CoinDispenser.obj
 0001:00011020       ?EnumConnections@?$IConnectionPointImpl@VCOPOSCoinDispenser@@$1?IID_IPropertyNotifySink@@3U_GUID@@BVCComDynamicUnkArray@ATL@@@ATL@@UAGJPAPAUIEnumConnections@@@Z 10012020 f i CoinDispenser.obj
 0001:00011270       ?EnumDAdvise@?$IDataObjectImpl@VCOPOSCoinDispenser@@@ATL@@UAGJPAPAUIEnumSTATDATA@@@Z 10012270 f i CoinDispenser.obj
 0001:00011370       ?EnumFormatEtc@?$IDataObjectImpl@VCOPOSCoinDispenser@@@ATL@@UAGJKPAPAUIEnumFORMATETC@@@Z 10012370 f i CoinDispenser.obj
 0001:000113e0       ?EnumVerbs@?$IOleObjectImpl@VCOPOSCoinDispenser@@@ATL@@UAGJPAPAUIEnumOLEVERB@@@Z 100123e0 f i CoinDispenser.obj
 0001:00011490       ?EscapeSingleQuote@CAtlModule@ATL@@SAXPA_WIPB_W@Z 10012490 f i CoinDispenser.obj
 0001:00011540       ?ExtractCreateWndData@CAtlWinModule@ATL@@QAEPAXXZ 10012540 f i CoinDispenser.obj
 0001:00011570       ?FAccessAllowed@?$IObjectSafetyImpl@VCOPOSCoinDispenser@@$02@ATL@@MAEHXZ 10012570 f i CoinDispenser.obj
 0001:00011590       ?FinalConstruct@?$CComAggObject@VCOPOSCoinDispenser@@@ATL@@QAEJXZ 10012590 f i CoinDispenser.obj
 0001:000115d0       ?FinalConstruct@CComObjectRootBase@ATL@@QAEJXZ 100125d0 f i CoinDispenser.obj
 0001:000115f0       ?FinalConstruct@CRegObject@ATL@@QAEJXZ 100125f0 f i CoinDispenser.obj
 0001:00011620       ?FinalRelease@?$CComAggObject@VCOPOSCoinDispenser@@@ATL@@QAEXXZ 10012620 f i CoinDispenser.obj
 0001:00011660       ?FinalRelease@CComObjectRootBase@ATL@@QAEXXZ 10012660 f i CoinDispenser.obj
 0001:00011680       ?FindConnectionPoint@?$IConnectionPointContainerImpl@VCOPOSCoinDispenser@@@ATL@@UAGJABU_GUID@@PAPAUIConnectionPoint@@@Z 10012680 f i CoinDispenser.obj
 0001:000117d0       ?FindKey@?$CSimpleMap@PA_WPA_WVCExpansionVectorEqualHelper@ATL@@@ATL@@QBEHABQA_W@Z 100127d0 f i CoinDispenser.obj
 0001:00011840       ?FireTheEvent@?$CProxy_IOPOSEvents@VCOPOSCoinDispenser@@@@IAEXPAUIUnknown@@PAVOposVariant@@IAAJPB_WJ@Z 10012840 f i CoinDispenser.obj
 0001:000119b0       ?FireViewChange@CComControlBase@ATL@@QAEJXZ 100129b0 f i CoinDispenser.obj
 0001:00011a70       ?Fire_DirectIOEvent@?$CProxy_IOPOSEvents@VCOPOSCoinDispenser@@@@QAEXJPAJPAPA_W@Z 10012a70 f i CoinDispenser.obj
 0001:00011c40       ?Fire_StatusUpdateEvent@?$CProxy_IOPOSEvents@VCOPOSCoinDispenser@@@@QAEXJ@Z 10012c40 f i CoinDispenser.obj
 0001:00011da0       ?FormatWindowClassName@AtlModuleRegisterWndClassInfoParamW@ATL@@SAXPA_WKPAX@Z 10012da0 f i CoinDispenser.obj
 0001:00011dd0       ?Free@?$CAutoVectorPtr@_W@ATL@@QAEXXZ 10012dd0 f i CoinDispenser.obj
 0001:00011e20       ?FreeHeap@?$CTempBuffer@E$0BAA@VCCRTAllocator@ATL@@@ATL@@AAEXXZ 10012e20 f i CoinDispenser.obj
 0001:00011e50       ?FreeHeap@?$CTempBuffer@_W$0BAA@VCCRTAllocator@ATL@@@ATL@@AAEXXZ 10012e50 f i CoinDispenser.obj
 0001:00011e80       ?FreeHeap@?$CTempBuffer@_W$0EAA@VCCRTAllocator@ATL@@@ATL@@AAEXXZ 10012e80 f i CoinDispenser.obj
 0001:00011eb0       ?Freeze@?$IViewObjectExImpl@VCOPOSCoinDispenser@@@ATL@@UAGJKJPAXPAK@Z 10012eb0 f i CoinDispenser.obj
 0001:00011f20       ?GenerateError@CRegParser@ATL@@IAEJI@Z 10012f20 f i CoinDispenser.obj
 0001:00011f40       ?GetAdvise@?$IViewObjectExImpl@VCOPOSCoinDispenser@@@ATL@@UAGJPAK0PAPAUIAdviseSink@@@Z 10012f40 f i CoinDispenser.obj
 0001:00012040       ?GetAmbientLocaleID@CComControlBase@ATL@@QAEJAAK@Z 10013040 f i CoinDispenser.obj
 0001:00012120       ?GetAmbientProperty@CComControlBase@ATL@@QAEJJAAUtagVARIANT@@@Z 10013120 f i CoinDispenser.obj
 0001:00012170       ?GetAmbientUserMode@CComControlBase@ATL@@QAEJAAH@Z 10013170 f i CoinDispenser.obj
 0001:00012270       ?GetAppId@?$CAtlModuleT@VCComModule@ATL@@@ATL@@SAPB_WXZ 10013270 f i CoinDispenser.obj
 0001:00012280       ?GetAt@CComDynamicUnkArray@ATL@@QAEPAUIUnknown@@H@Z 10013280 f i CoinDispenser.obj
 0001:00012300       ?GetCanonicalFormatEtc@?$IDataObjectImpl@VCOPOSCoinDispenser@@@ATL@@UAGJPAUtagFORMATETC@@0@Z 10013300 f i CoinDispenser.obj
 0001:00012370       ?GetClassID@?$IPersistStorageImpl@VCOPOSCoinDispenser@@@ATL@@UAGJPAU_GUID@@@Z 10013370 f i CoinDispenser.obj
 0001:000123f0       ?GetClassID@?$IPersistStreamInitImpl@VCOPOSCoinDispenser@@@ATL@@UAGJPAU_GUID@@@Z 100133f0 f i CoinDispenser.obj
 0001:00012470       ?GetClassInfoExW@AtlModuleRegisterWndClassInfoParamW@ATL@@SAHPAUHINSTANCE__@@PB_WPAUtagWNDCLASSEXW@@@Z 10013470 f i CoinDispenser.obj
 0001:000124a0       ?GetClassInfoW@?$IProvideClassInfo2Impl@$1?CLSID_OPOSCoinDispenser@@3U_GUID@@B$1?DIID__IOPOSCoinDispenserEvents@@3U2@B$1?LIBID_OposCoinDispenser_CCO@@3U2@B$00$0A@VCComTypeInfoHolder@ATL@@@ATL@@UAGJPAPAUITypeInfo@@@Z 100134a0 f i CoinDispenser.obj
 0001:000124c0       ?GetClassObject@CComModule@ATL@@QAEJABU_GUID@@0PAPAX@Z 100134c0 f i CoinDispenser.obj
 0001:000126c0       ?GetClientSite@?$IOleObjectImpl@VCOPOSCoinDispenser@@@ATL@@UAGJPAPAUIOleClientSite@@@Z 100136c0 f i CoinDispenser.obj
 0001:00012750       ?GetClipboardData@?$IOleObjectImpl@VCOPOSCoinDispenser@@@ATL@@UAGJKPAPAUIDataObject@@@Z 10013750 f i CoinDispenser.obj
 0001:000127c0       ?GetCodeAddress@CDynamicStdCallThunk2@ATL@@QAEPAXXZ 100137c0 f i CoinDispenser.obj
 0001:000127f0       ?GetColorSet@?$IViewObjectExImpl@VCOPOSCoinDispenser@@@ATL@@UAGJKJPAXPAUtagDVTARGETDEVICE@@PAUHDC__@@PAPAUtagLOGPALETTE@@@Z 100137f0 f i CoinDispenser.obj
 0001:00012860       ?GetConnMap@COPOSCoinDispenser@@SAPBU_ATL_CONNMAP_ENTRY@ATL@@PAH@Z 10013860 f i CoinDispenser.obj
 0001:000129a0       ?GetConnectionInterface@?$IConnectionPointImpl@VCOPOSCoinDispenser@@$1?DIID__IOPOSCoinDispenserEvents@@3U_GUID@@BVCComDynamicUnkArray@ATL@@@ATL@@UAGJPAU_GUID@@@Z 100139a0 f i CoinDispenser.obj
 0001:000129e0       ?GetConnectionInterface@?$IConnectionPointImpl@VCOPOSCoinDispenser@@$1?IID_IPropertyNotifySink@@3U_GUID@@BVCComDynamicUnkArray@ATL@@@ATL@@UAGJPAU_GUID@@@Z 100139e0 f i CoinDispenser.obj
 0001:00012a20       ?GetConnectionPointContainer@?$IConnectionPointImpl@VCOPOSCoinDispenser@@$1?DIID__IOPOSCoinDispenserEvents@@3U_GUID@@BVCComDynamicUnkArray@ATL@@@ATL@@UAGJPAPAUIConnectionPointContainer@@@Z 10013a20 f i CoinDispenser.obj
 0001:00012a90       ?GetConnectionPointContainer@?$IConnectionPointImpl@VCOPOSCoinDispenser@@$1?IID_IPropertyNotifySink@@3U_GUID@@BVCComDynamicUnkArray@ATL@@@ATL@@UAGJPAPAUIConnectionPointContainer@@@Z 10013a90 f i CoinDispenser.obj
 0001:00012b00       ?GetContentExtent@?$IQuickActivateImpl@VCOPOSCoinDispenser@@@ATL@@UAGJPAUtagSIZE@@@Z 10013b00 f i CoinDispenser.obj
 0001:00012b90       ?GetControlInfo@?$IOleControlImpl@VCOPOSCoinDispenser@@@ATL@@UAGJPAUtagCONTROLINFO@@@Z 10013b90 f i CoinDispenser.obj
 0001:00012c00       ?GetCookie@CComDynamicUnkArray@ATL@@QAGKPAPAUIUnknown@@@Z 10013c00 f i CoinDispenser.obj
 0001:00012cc0       ?GetData@?$IDataObjectImpl@VCOPOSCoinDispenser@@@ATL@@UAGJPAUtagFORMATETC@@PAUtagSTGMEDIUM@@@Z 10013cc0 f i CoinDispenser.obj
 0001:00012d50       ?GetData@CAtlSafeAllocBufferNode@?$CAtlSafeAllocBufferManager@VCCRTAllocator@ATL@@@_ATL_SAFE_ALLOCA_IMPL@ATL@@QAEPAXXZ 10013d50 f i CoinDispenser.obj
 0001:00012d70       ?GetDataHere@?$IDataObjectImpl@VCOPOSCoinDispenser@@@ATL@@UAGJPAUtagFORMATETC@@PAUtagSTGMEDIUM@@@Z 10013d70 f i CoinDispenser.obj
 0001:00012de0       ?GetDropTarget@?$IOleInPlaceObjectWindowlessImpl@VCOPOSCoinDispenser@@@ATL@@UAGJPAPAUIDropTarget@@@Z 10013de0 f i CoinDispenser.obj
 0001:00012e50       ?GetExtent@?$IOleObjectImpl@VCOPOSCoinDispenser@@@ATL@@UAGJKPAUtagSIZE@@@Z 10013e50 f i CoinDispenser.obj
 0001:00012ef0       ?GetExtent@?$IViewObjectExImpl@VCOPOSCoinDispenser@@@ATL@@UAGJKJPAUtagDVTARGETDEVICE@@PAUtagSIZE@@@Z 10013ef0 f i CoinDispenser.obj
 0001:00012fc0       ?GetGITPtr@CAtlModule@ATL@@UAEJPAPAUIGlobalInterfaceTable@@@Z 10013fc0 f i CoinDispenser.obj
 0001:000130c0       ?GetGUID@?$IProvideClassInfo2Impl@$1?CLSID_OPOSCoinDispenser@@3U_GUID@@B$1?DIID__IOPOSCoinDispenserEvents@@3U2@B$1?LIBID_OposCoinDispenser_CCO@@3U2@B$00$0A@VCComTypeInfoHolder@ATL@@@ATL@@UAGJKPAU_GUID@@@Z 100140c0 f i CoinDispenser.obj
 0001:00013140       ?GetIDsOfNames@?$IDispatchImpl@UIOPOSCoinDispenser@@$1?IID_IOPOSCoinDispenser@@3U_GUID@@B$1?LIBID_OposCoinDispenser_CCO@@3U3@B$00$0A@VCComTypeInfoHolder@ATL@@@ATL@@UAGJABU_GUID@@PAPA_WIKPAJ@Z 10014140 f i CoinDispenser.obj
 0001:00013170       ?GetIDsOfNames@CComTypeInfoHolder@ATL@@QAEJABU_GUID@@PAPA_WIKPAJ@Z 10014170 f i CoinDispenser.obj
 0001:00013320       ?GetInterfaceSafetyOptions@?$IObjectSafetyImpl@VCOPOSCoinDispenser@@$02@ATL@@UAGJABU_GUID@@PAK1@Z 10014320 f i CoinDispenser.obj
 0001:00013490       ?GetKeyAt@?$CSimpleMap@PA_WPA_WVCExpansionVectorEqualHelper@ATL@@@ATL@@QBEAAPA_WH@Z 10014490 f i CoinDispenser.obj
 0001:00013510       ?GetLockCount@CAtlModule@ATL@@UAEJXZ 10014510 f i CoinDispenser.obj
 0001:00013530       ?GetMiscStatus@?$IOleObjectImpl@VCOPOSCoinDispenser@@@ATL@@UAGJKPAK@Z 10014530 f i CoinDispenser.obj
 0001:000135a0       ?GetMoniker@?$IOleObjectImpl@VCOPOSCoinDispenser@@@ATL@@UAGJKKPAPAUIMoniker@@@Z 100145a0 f i CoinDispenser.obj
 0001:00013610       ?GetNaturalExtent@?$IViewObjectExImpl@VCOPOSCoinDispenser@@@ATL@@UAGJKJPAUtagDVTARGETDEVICE@@PAUHDC__@@PAUtagExtentInfo@@PAUtagSIZE@@@Z 10014610 f i CoinDispenser.obj
 0001:00013730       ?GetObjectCLSID@?$CComCoClass@VCOPOSCoinDispenser@@$1?CLSID_OPOSCoinDispenser@@3U_GUID@@B@ATL@@SGABU_GUID@@XZ 10014730 f i CoinDispenser.obj
 0001:00013740       ?GetPages@?$ISpecifyPropertyPagesImpl@VCOPOSCoinDispenser@@@ATL@@UAGJPAUtagCAUUID@@@Z 10014740 f i CoinDispenser.obj
 0001:000137b0       ?GetPagesHelper@?$ISpecifyPropertyPagesImpl@VCOPOSCoinDispenser@@@ATL@@IAEJPAUtagCAUUID@@PBUATL_PROPMAP_ENTRY@2@@Z 100147b0 f i CoinDispenser.obj
 0001:000139b0       ?GetProperty@?$CComPtr@UIDispatch@@@ATL@@QAEJJPAUtagVARIANT@@@Z 100149b0 f i CoinDispenser.obj
 0001:000139f0       ?GetProperty@?$CComPtr@UIDispatch@@@ATL@@SAJPAUIDispatch@@JPAUtagVARIANT@@@Z 100149f0 f i CoinDispenser.obj
 0001:00013b50       ?GetPropertyMap@COPOSCoinDispenser@@SAPBUATL_PROPMAP_ENTRY@ATL@@XZ 10014b50 f i CoinDispenser.obj
 0001:00013b60       ?GetRect@?$IViewObjectExImpl@VCOPOSCoinDispenser@@@ATL@@UAGJKPAU_RECTL@@@Z 10014b60 f i CoinDispenser.obj
 0001:00013bd0       ?GetSize@?$CSimpleMap@PA_WPA_WVCExpansionVectorEqualHelper@ATL@@@ATL@@QBEHXZ 10014bd0 f i CoinDispenser.obj
 0001:00013bf0       ?GetSize@CComDynamicUnkArray@ATL@@QBEHXZ 10014bf0 f i CoinDispenser.obj
 0001:00013c10       ?GetSizeMax@?$IPersistStreamInitImpl@VCOPOSCoinDispenser@@@ATL@@UAGJPAT_ULARGE_INTEGER@@@Z 10014c10 f i CoinDispenser.obj
 0001:00014180       ?GetSizeMax@CComVariant@ATL@@QBEJPAT_ULARGE_INTEGER@@@Z 10015180 f i CoinDispenser.obj
 0001:000144e0       ?GetStreamSize@CComBSTR@ATL@@SAKPA_W@Z 100154e0 f i CoinDispenser.obj
 0001:00014530       ?GetTI@CComTypeInfoHolder@ATL@@QAEJK@Z 10015530 f i CoinDispenser.obj
 0001:00014d40       ?GetTI@CComTypeInfoHolder@ATL@@QAEJKPAPAUITypeInfo@@@Z 10015d40 f i CoinDispenser.obj
 0001:00014e00       ?GetTypeInfo@?$IDispatchImpl@UIOPOSCoinDispenser@@$1?IID_IOPOSCoinDispenser@@3U_GUID@@B$1?LIBID_OposCoinDispenser_CCO@@3U3@B$00$0A@VCComTypeInfoHolder@ATL@@@ATL@@UAGJIKPAPAUITypeInfo@@@Z 10015e00 f i CoinDispenser.obj
 0001:00014e30       ?GetTypeInfo@CComTypeInfoHolder@ATL@@QAEJIKPAPAUITypeInfo@@@Z 10015e30 f i CoinDispenser.obj
 0001:00014e70       ?GetTypeInfoCount@?$IDispatchImpl@UIOPOSCoinDispenser@@$1?IID_IOPOSCoinDispenser@@3U_GUID@@B$1?LIBID_OposCoinDispenser_CCO@@3U3@B$00$0A@VCComTypeInfoHolder@ATL@@@ATL@@UAGJPAI@Z 10015e70 f i CoinDispenser.obj
 0001:00014e90       ?GetUnknown@CComDynamicUnkArray@ATL@@QAGPAUIUnknown@@K@Z 10015e90 f i CoinDispenser.obj
 0001:00014f00       ?GetUnknown@COPOSCoinDispenser@@QAEPAUIUnknown@@XZ 10015f00 f i CoinDispenser.obj
 0001:00014f30       ?GetUserClassID@?$IOleObjectImpl@VCOPOSCoinDispenser@@@ATL@@UAGJPAU_GUID@@@Z 10015f30 f i CoinDispenser.obj
 0001:00014fe0       ?GetUserType@?$IOleObjectImpl@VCOPOSCoinDispenser@@@ATL@@UAGJKPAPA_W@Z 10015fe0 f i CoinDispenser.obj
 0001:00015050       ?GetValueAt@?$CSimpleMap@PA_WPA_WVCExpansionVectorEqualHelper@ATL@@@ATL@@QBEAAPA_WH@Z 10016050 f i CoinDispenser.obj
 0001:000150d0       ?GetViewStatus@?$IViewObjectExImpl@VCOPOSCoinDispenser@@@ATL@@UAGJPAK@Z 100160d0 f i CoinDispenser.obj
 0001:00015190       ?GetWNDPROC@CWndProcThunk@ATL@@QAEP6GJPAUHWND__@@IIJ@ZXZ 10016190 f i CoinDispenser.obj
 0001:000151c0       ?GetWindow@?$IOleInPlaceActiveObjectImpl@VCOPOSCoinDispenser@@@ATL@@UAGJPAPAUHWND__@@@Z 100161c0 f i CoinDispenser.obj
 0001:00015290       ?GetWindow@?$IOleInPlaceObjectWindowlessImpl@VCOPOSCoinDispenser@@@ATL@@UAGJPAPAUHWND__@@@Z 10016290 f i CoinDispenser.obj
 0001:00015360       ?GetWindowLongPtrW@@YAJPAUHWND__@@H@Z 10016360 f i CoinDispenser.obj
 0001:00015390       ?GetWindowProc@?$CWindowImplBaseT@VCWindow@ATL@@V?$CWinTraits@$0FGAAAAAA@$0A@@2@@ATL@@UAEP6GJPAUHWND__@@IIJ@ZXZ 10016390 f i CoinDispenser.obj
 0001:000153b0       ?GetWndCaption@?$CWindowImpl@VCOPOSCoinDispenser@@VCWindow@ATL@@V?$CWinTraits@$0FGAAAAAA@$0A@@3@@ATL@@SAPB_WXZ 100163b0 f i CoinDispenser.obj
 0001:000153c0       ?GetWndClassInfo@?$CWindowImpl@VCOPOSCoinDispenser@@VCWindow@ATL@@V?$CWinTraits@$0FGAAAAAA@$0A@@3@@ATL@@SAAAU_ATL_WNDCLASSINFOW@2@XZ 100163c0 f i CoinDispenser.obj
 0001:000153d0       ?GetWndClassName@CWindow@ATL@@SAPB_WXZ 100163d0 f i CoinDispenser.obj
 0001:000153e0       ?GetWndExStyle@?$CWinTraits@$0FGAAAAAA@$0A@@ATL@@SAKK@Z 100163e0 f i CoinDispenser.obj
 0001:00015410       ?GetWndExStyle@?$CWindowImplBaseT@VCWindow@ATL@@V?$CWinTraits@$0FGAAAAAA@$0A@@2@@ATL@@SAKK@Z 10016410 f i CoinDispenser.obj
 0001:00015430       ?GetWndStyle@?$CWinTraits@$0FGAAAAAA@$0A@@ATL@@SAKK@Z 10016430 f i CoinDispenser.obj
 0001:00015460       ?GetWndStyle@?$CWindowImplBaseT@VCWindow@ATL@@V?$CWinTraits@$0FGAAAAAA@$0A@@2@@ATL@@SAKK@Z 10016460 f i CoinDispenser.obj
 0001:00015480       ?GetZoomInfo@CComControlBase@ATL@@QAEXAAUATL_DRAWINFO@@@Z 10016480 f i CoinDispenser.obj
 0001:000155f0       ?HKeyFromString@CRegParser@ATL@@KAPAUHKEY__@@PA_W@Z 100165f0 f i CoinDispenser.obj
 0001:00015660       ?HandsOffStorage@?$IPersistStorageImpl@VCOPOSCoinDispenser@@@ATL@@UAGJXZ 10016660 f i CoinDispenser.obj
 0001:000156c0       ?HasSubKeys@CRegParser@ATL@@IAEHPAUHKEY__@@@Z 100166c0 f i CoinDispenser.obj
 0001:000157d0       ?IDataObject_GetData@CComControlBase@ATL@@QAEJPAUtagFORMATETC@@PAUtagSTGMEDIUM@@@Z 100167d0 f i CoinDispenser.obj
 0001:00015bf0       ?IOleInPlaceObject_InPlaceDeactivate@CComControlBase@ATL@@QAEJXZ 10016bf0 f i CoinDispenser.obj
 0001:00015df0       ?IOleInPlaceObject_SetObjectRects@CComControlBase@ATL@@QAEJPBUtagRECT@@0@Z 10016df0 f i CoinDispenser.obj
 0001:00015fb0       ?IOleInPlaceObject_UIDeactivate@CComControlBase@ATL@@QAEJXZ 10016fb0 f i CoinDispenser.obj
 0001:00016220       ?IOleObject_Advise@CComControlBase@ATL@@QAEJPAUIAdviseSink@@PAK@Z 10017220 f i CoinDispenser.obj
 0001:000162d0       ?IOleObject_Close@CComControlBase@ATL@@QAEJK@Z 100172d0 f i CoinDispenser.obj
 0001:00016580       ?IOleObject_GetClientSite@CComControlBase@ATL@@QAEJPAPAUIOleClientSite@@@Z 10017580 f i CoinDispenser.obj
 0001:00016620       ?IOleObject_SetClientSite@CComControlBase@ATL@@QAEJPAUIOleClientSite@@@Z 10017620 f i CoinDispenser.obj
 0001:000166f0       ?IOleObject_SetExtent@CComControlBase@ATL@@QAEJKPAUtagSIZE@@@Z 100176f0 f i CoinDispenser.obj
 0001:00016830       ?IPSI_GetIPersistStreamInit@?$IPersistStorageImpl@VCOPOSCoinDispenser@@@ATL@@AAEPAUIPersistStreamInit@@XZ 10017830 f i CoinDispenser.obj
 0001:00016900       ?IPersistStreamInit_Load@?$IPersistStreamInitImpl@VCOPOSCoinDispenser@@@ATL@@QAEJPAUIStream@@PBUATL_PROPMAP_ENTRY@2@@Z 10017900 f i CoinDispenser.obj
 0001:00016980       ?IPersistStreamInit_Save@?$IPersistStreamInitImpl@VCOPOSCoinDispenser@@@ATL@@QAEJPAUIStream@@HPBUATL_PROPMAP_ENTRY@2@@Z 10017980 f i CoinDispenser.obj
 0001:00016a10       ?IQuickActivate_QuickActivate@CComControlBase@ATL@@QAEJPAUtagQACONTAINER@@PAUtagQACONTROL@@@Z 10017a10 f i CoinDispenser.obj
 0001:00017060       ?IViewObject_Draw@CComControlBase@ATL@@QAEJKJPAXPAUtagDVTARGETDEVICE@@PAUHDC__@@2PBU_RECTL@@3@Z 10018060 f i CoinDispenser.obj
 0001:00017300       ?InPlaceActivate@CComControlBase@ATL@@QAEJJPBUtagRECT@@@Z 10018300 f i CoinDispenser.obj
 0001:00017c90       ?InPlaceDeactivate@?$IOleInPlaceObjectWindowlessImpl@VCOPOSCoinDispenser@@@ATL@@UAGJXZ 10018c90 f i CoinDispenser.obj
 0001:00017d10       ?Increment@CComMultiThreadModel@ATL@@SGKPAJ@Z 10018d10 f i CoinDispenser.obj
 0001:00017d30       ?Increment@CComSingleThreadModel@ATL@@SGKPAJ@Z 10018d30 f i CoinDispenser.obj
 0001:00017d50       ?Init@?$CComEnumImpl@UIEnumConnectionPoints@@$1?_GUID_b196b285_bab4_101a_b69c_00aa00341d07@@3U__s_GUID@@BPAUIConnectionPoint@@V?$_CopyInterface@UIConnectionPoint@@@ATL@@@ATL@@QAEJPAPAUIConnectionPoint@@0PAUIUnknown@@W4CComEnumFlags@2@@Z 10018d50 f i CoinDispenser.obj
 0001:00017f30       ?Init@?$CComEnumImpl@UIEnumConnections@@$1?_GUID_b196b287_bab4_101a_b69c_00aa00341d07@@3U__s_GUID@@BUtagCONNECTDATA@@V?$_Copy@UtagCONNECTDATA@@@ATL@@@ATL@@QAEJPAUtagCONNECTDATA@@0PAUIUnknown@@W4CComEnumFlags@2@@Z 10018f30 f i CoinDispenser.obj
 0001:00018110       ?Init@CComFakeCriticalSection@ATL@@QAEJXZ 10019110 f i CoinDispenser.obj
 0001:00018130       ?Init@CComModule@ATL@@QAEJPAU_ATL_OBJMAP_ENTRY30@2@PAUHINSTANCE__@@PBU_GUID@@@Z 10019130 f i CoinDispenser.obj
 0001:00018220       ?Init@CComSafeDeleteCriticalSection@ATL@@QAEJXZ 10019220 f i CoinDispenser.obj
 0001:000182a0       ?Init@CDynamicStdCallThunk2@ATL@@QAEHKPAX@Z 100192a0 f i CoinDispenser.obj
 0001:00018300       ?Init@CWndProcThunk@ATL@@QAEHP6GJPAUHWND__@@IIJ@ZPAX@Z 10019300 f i CoinDispenser.obj
 0001:00018340       ?InitFromData@?$IOleObjectImpl@VCOPOSCoinDispenser@@@ATL@@UAGJPAUIDataObject@@HK@Z 10019340 f i CoinDispenser.obj
 0001:000183b0       ?InitLibId@?$CAtlModuleT@VCComModule@ATL@@@ATL@@SAXXZ 100193b0 f i CoinDispenser.obj
 0001:000183c0       ?InitNew@?$IPersistStorageImpl@VCOPOSCoinDispenser@@@ATL@@UAGJPAUIStorage@@@Z 100193c0 f i CoinDispenser.obj
 0001:000184b0       ?InitNew@?$IPersistStreamInitImpl@VCOPOSCoinDispenser@@@ATL@@UAGJXZ 100194b0 f i CoinDispenser.obj
 0001:00018540       ?InlineIsEqualUnknown@ATL@@YGHABU_GUID@@@Z 10019540 f i CoinDispenser.obj
 0001:000185b0       ?InternalAddRef@?$CComObjectRootEx@VCComMultiThreadModel@ATL@@@ATL@@QAEKXZ 100195b0 f i CoinDispenser.obj
 0001:00018610       ?InternalAddRef@?$CComObjectRootEx@VCComSingleThreadModel@ATL@@@ATL@@QAEKXZ 10019610 f i CoinDispenser.obj
 0001:00018670       ?InternalFinalConstructAddRef@CComObjectRootBase@ATL@@QAEXXZ 10019670 f i CoinDispenser.obj
 0001:00018690       ?InternalFinalConstructAddRef@COPOSCoinDispenser@@QAEXXZ 10019690 f i CoinDispenser.obj
 0001:000186c0       ?InternalFinalConstructRelease@CComObjectRootBase@ATL@@QAEXXZ 100196c0 f i CoinDispenser.obj
 0001:00018710       ?InternalFinalConstructRelease@COPOSCoinDispenser@@QAEXXZ 10019710 f i CoinDispenser.obj
 0001:00018740       ?InternalGetSite@CComControlBase@ATL@@QAEJABU_GUID@@PAPAX@Z 10019740 f i CoinDispenser.obj
 0001:00018800       ?InternalQueryInterface@CComObjectRootBase@ATL@@SGJPAXPBU_ATL_INTMAP_ENTRY@2@ABU_GUID@@PAPAX@Z 10019800 f i CoinDispenser.obj
 0001:000188c0       ?InternalRelease@?$CComObjectRootEx@VCComMultiThreadModel@ATL@@@ATL@@QAEKXZ 100198c0 f i CoinDispenser.obj
 0001:00018930       ?InternalRelease@?$CComObjectRootEx@VCComSingleThreadModel@ATL@@@ATL@@QAEKXZ 10019930 f i CoinDispenser.obj
 0001:000189a0       ?InternalSetAtIndex@?$CSimpleArray@GV?$CSimpleArrayEqualHelper@G@ATL@@@ATL@@QAEXHABG@Z 100199a0 f i CoinDispenser.obj
 0001:00018a10       ?InternalSetAtIndex@?$CSimpleMap@PA_WPA_WVCExpansionVectorEqualHelper@ATL@@@ATL@@QAEXHABQA_W0@Z 10019a10 f i CoinDispenser.obj
 0001:00018ab0       ?Invoke@?$IDispatchImpl@UIOPOSCoinDispenser@@$1?IID_IOPOSCoinDispenser@@3U_GUID@@B$1?LIBID_OposCoinDispenser_CCO@@3U3@B$00$0A@VCComTypeInfoHolder@ATL@@@ATL@@UAGJJABU_GUID@@KGPAUtagDISPPARAMS@@PAUtagVARIANT@@PAUtagEXCEPINFO@@PAI@Z 10019ab0 f i CoinDispenser.obj
 0001:00018af0       ?Invoke@CComTypeInfoHolder@ATL@@QAEJPAUIDispatch@@JABU_GUID@@KGPAUtagDISPPARAMS@@PAUtagVARIANT@@PAUtagEXCEPINFO@@PAI@Z 10019af0 f i CoinDispenser.obj
 0001:00018b80       ?IsDirty@?$IPersistStorageImpl@VCOPOSCoinDispenser@@@ATL@@UAGJXZ 10019b80 f i CoinDispenser.obj
 0001:00018c70       ?IsDirty@?$IPersistStreamInitImpl@VCOPOSCoinDispenser@@@ATL@@UAGJXZ 10019c70 f i CoinDispenser.obj
 0001:00018d10       ?IsEqualKey@CExpansionVectorEqualHelper@ATL@@SA_NQA_W0@Z 10019d10 f i CoinDispenser.obj
 0001:00018d40       ?IsEqualObject@?$CComPtrBase@UIOleClientSite@@@ATL@@QAE_NPAUIUnknown@@@Z 10019d40 f i CoinDispenser.obj
 0001:00018e70       ?IsEqualObject@?$CComPtrBase@UITypeInfo@@@ATL@@QAE_NPAUIUnknown@@@Z 10019e70 f i CoinDispenser.obj
 0001:00018fa0       ?IsSpace@CRegParser@ATL@@IAEH_W@Z 10019fa0 f i CoinDispenser.obj
 0001:00019010       ?IsUpToDate@?$IOleObjectImpl@VCOPOSCoinDispenser@@@ATL@@UAGJXZ 1001a010 f i CoinDispenser.obj
 0001:00019070       ?Length@CComBSTR@ATL@@QBEIXZ 1001a070 f i CoinDispenser.obj
 0001:000190b0       ?Load@?$IPersistStorageImpl@VCOPOSCoinDispenser@@@ATL@@UAGJPAUIStorage@@@Z 1001a0b0 f i CoinDispenser.obj
 0001:00019210       ?Load@?$IPersistStreamInitImpl@VCOPOSCoinDispenser@@@ATL@@UAGJPAUIStream@@@Z 1001a210 f i CoinDispenser.obj
 0001:000192a0       ?LoadCursorW@AtlModuleRegisterWndClassInfoParamW@ATL@@SAPAUHICON__@@PAUHINSTANCE__@@PB_W@Z 1001a2a0 f i CoinDispenser.obj
 0001:000192d0       ?LoadNameCache@CComTypeInfoHolder@ATL@@QAEJPAUITypeInfo@@@Z 1001a2d0 f i CoinDispenser.obj
 0001:00019560       ?Lock@?$CComCritSecLock@VCComCriticalSection@ATL@@@ATL@@QAEJXZ 1001a560 f i CoinDispenser.obj
 0001:00019610       ?Lock@?$CComObjectRootEx@VCComSingleThreadModel@ATL@@@ATL@@QAEXXZ 1001a610 f i CoinDispenser.obj
 0001:00019630       ?Lock@CAtlModule@ATL@@UAEJXZ 1001a630 f i CoinDispenser.obj
 0001:00019660       ?Lock@CComCriticalSection@ATL@@QAEJXZ 1001a660 f i CoinDispenser.obj
 0001:000196a0       ?Lock@CComFakeCriticalSection@ATL@@QAEJXZ 1001a6a0 f i CoinDispenser.obj
 0001:000196c0       ?LockServer@CComClassFactory@ATL@@UAGJH@Z 1001a6c0 f i CoinDispenser.obj
 0001:00019720       ?Lookup@?$CSimpleMap@PA_WPA_WVCExpansionVectorEqualHelper@ATL@@@ATL@@QBEPA_WABQA_W@Z 1001a720 f i CoinDispenser.obj
 0001:00019770       ?Next@?$CComEnumImpl@UIEnumConnectionPoints@@$1?_GUID_b196b285_bab4_101a_b69c_00aa00341d07@@3U__s_GUID@@BPAUIConnectionPoint@@V?$_CopyInterface@UIConnectionPoint@@@ATL@@@ATL@@UAGJKPAPAUIConnectionPoint@@PAK@Z 1001a770 f i CoinDispenser.obj
 0001:000198e0       ?Next@?$CComEnumImpl@UIEnumConnections@@$1?_GUID_b196b287_bab4_101a_b69c_00aa00341d07@@3U__s_GUID@@BUtagCONNECTDATA@@V?$_Copy@UtagCONNECTDATA@@@ATL@@@ATL@@UAGJKPAUtagCONNECTDATA@@PAK@Z 1001a8e0 f i CoinDispenser.obj
 0001:00019a50       ?NextToken@CRegParser@ATL@@IAEJPA_W@Z 1001aa50 f i CoinDispenser.obj
 0001:00019cf0       ?OLE2CT_EX@@YAPB_WPB_WI@Z  1001acf0 f i CoinDispenser.obj
 0001:00019d00       ?OLE2CT_EX_DEF@@YAPB_WPB_W@Z 1001ad00 f i CoinDispenser.obj
 0001:00019d10       ?OLE2T_EX@@YAPA_WPA_WI@Z   1001ad10 f i CoinDispenser.obj
 0001:00019d20       ?OnAmbientPropertyChange@?$IOleControlImpl@VCOPOSCoinDispenser@@@ATL@@UAGJJ@Z 1001ad20 f i CoinDispenser.obj
 0001:00019db0       ?OnDocWindowActivate@?$IOleInPlaceActiveObjectImpl@VCOPOSCoinDispenser@@@ATL@@UAGJH@Z 1001adb0 f i CoinDispenser.obj
 0001:00019e40       ?OnDrawAdvanced@CComControlBase@ATL@@UAEJAAUATL_DRAWINFO@@@Z 1001ae40 f i CoinDispenser.obj
 0001:0001a060       ?OnFinalMessage@?$CWindowImplBaseT@VCWindow@ATL@@V?$CWinTraits@$0FGAAAAAA@$0A@@2@@ATL@@UAEXPAUHWND__@@@Z 1001b060 f i CoinDispenser.obj
 0001:0001a080       ?OnFrameWindowActivate@?$IOleInPlaceActiveObjectImpl@VCOPOSCoinDispenser@@@ATL@@UAGJH@Z 1001b080 f i CoinDispenser.obj
 0001:0001a0e0       ?OnKillFocus@CComControlBase@ATL@@QAEJIIJAAH@Z 1001b0e0 f i CoinDispenser.obj
 0001:0001a1e0       ?OnMnemonic@?$IOleControlImpl@VCOPOSCoinDispenser@@@ATL@@UAGJPAUtagMSG@@@Z 1001b1e0 f i CoinDispenser.obj
 0001:0001a250       ?OnMouseActivate@CComControlBase@ATL@@QAEJIIJAAH@Z 1001b250 f i CoinDispenser.obj
 0001:0001a3a0       ?OnPaint@CComControlBase@ATL@@QAEJIIJAAH@Z 1001b3a0 f i CoinDispenser.obj
 0001:0001a520       ?OnPostVerbDiscardUndo@?$IOleObjectImpl@VCOPOSCoinDispenser@@@ATL@@QAEJXZ 1001b520 f i CoinDispenser.obj
 0001:0001a540       ?OnPostVerbHide@?$IOleObjectImpl@VCOPOSCoinDispenser@@@ATL@@QAEJXZ 1001b540 f i CoinDispenser.obj
 0001:0001a560       ?OnPostVerbInPlaceActivate@?$IOleObjectImpl@VCOPOSCoinDispenser@@@ATL@@QAEJXZ 1001b560 f i CoinDispenser.obj
 0001:0001a580       ?OnPostVerbOpen@?$IOleObjectImpl@VCOPOSCoinDispenser@@@ATL@@QAEJXZ 1001b580 f i CoinDispenser.obj
 0001:0001a5a0       ?OnPostVerbShow@?$IOleObjectImpl@VCOPOSCoinDispenser@@@ATL@@QAEJXZ 1001b5a0 f i CoinDispenser.obj
 0001:0001a5c0       ?OnPostVerbUIActivate@?$IOleObjectImpl@VCOPOSCoinDispenser@@@ATL@@QAEJXZ 1001b5c0 f i CoinDispenser.obj
 0001:0001a5e0       ?OnPreVerbDiscardUndo@?$IOleObjectImpl@VCOPOSCoinDispenser@@@ATL@@QAEJXZ 1001b5e0 f i CoinDispenser.obj
 0001:0001a600       ?OnPreVerbHide@?$IOleObjectImpl@VCOPOSCoinDispenser@@@ATL@@QAEJXZ 1001b600 f i CoinDispenser.obj
 0001:0001a620       ?OnPreVerbInPlaceActivate@?$IOleObjectImpl@VCOPOSCoinDispenser@@@ATL@@QAEJXZ 1001b620 f i CoinDispenser.obj
 0001:0001a640       ?OnPreVerbOpen@?$IOleObjectImpl@VCOPOSCoinDispenser@@@ATL@@QAEJXZ 1001b640 f i CoinDispenser.obj
 0001:0001a660       ?OnPreVerbShow@?$IOleObjectImpl@VCOPOSCoinDispenser@@@ATL@@QAEJXZ 1001b660 f i CoinDispenser.obj
 0001:0001a680       ?OnPreVerbUIActivate@?$IOleObjectImpl@VCOPOSCoinDispenser@@@ATL@@QAEJXZ 1001b680 f i CoinDispenser.obj
 0001:0001a6a0       ?OnSetFocus@CComControlBase@ATL@@QAEJIIJAAH@Z 1001b6a0 f i CoinDispenser.obj
 0001:0001a830       ?OnWindowMessage@?$IOleInPlaceObjectWindowlessImpl@VCOPOSCoinDispenser@@@ATL@@UAGJIIJPAJ@Z 1001b830 f i CoinDispenser.obj
 0001:0001a990       ?Open@CRegKey@ATL@@QAEJPAUHKEY__@@PB_WK@Z 1001b990 f i CoinDispenser.obj
 0001:0001aae0       ?OuterAddRef@CComObjectRootBase@ATL@@QAEKXZ 1001bae0 f i CoinDispenser.obj
 0001:0001ab20       ?OuterQueryInterface@CComObjectRootBase@ATL@@QAEJABU_GUID@@PAPAX@Z 1001bb20 f i CoinDispenser.obj
 0001:0001ab70       ?OuterRelease@CComObjectRootBase@ATL@@QAEKXZ 1001bb70 f i CoinDispenser.obj
 0001:0001abb0       ?PreProcessBuffer@CRegParser@ATL@@QAEJPA_WPAPA_W@Z 1001bbb0 f i CoinDispenser.obj
 0001:0001b0f0       ?PreTranslateAccelerator@CComControlBase@ATL@@QAEHPAUtagMSG@@AAJ@Z 1001c0f0 f i CoinDispenser.obj
 0001:0001b110       ?ProcessWindowMessage@?$CComControl@VCOPOSCoinDispenser@@V?$CWindowImpl@VCOPOSCoinDispenser@@VCWindow@ATL@@V?$CWinTraits@$0FGAAAAAA@$0A@@3@@ATL@@@ATL@@UAEHPAUHWND__@@IIJAAJK@Z 1001c110 f i CoinDispenser.obj
 0001:0001b2e0       ?ProcessWindowMessage@COPOSCoinDispenser@@UAEHPAUHWND__@@IIJAAJK@Z 1001c2e0 f i CoinDispenser.obj
 0001:0001b3e0       ?PutProperty@?$CComPtr@UIDispatch@@@ATL@@QAEJJPAUtagVARIANT@@@Z 1001c3e0 f i CoinDispenser.obj
 0001:0001b420       ?PutProperty@?$CComPtr@UIDispatch@@@ATL@@SAJPAUIDispatch@@JPAUtagVARIANT@@@Z 1001c420 f i CoinDispenser.obj
 0001:0001b610       ?QueryGetData@?$IDataObjectImpl@VCOPOSCoinDispenser@@@ATL@@UAGJPAUtagFORMATETC@@@Z 1001c610 f i CoinDispenser.obj
 0001:0001b680       ?QueryHitPoint@?$IViewObjectExImpl@VCOPOSCoinDispenser@@@ATL@@UAGJKPBUtagRECT@@UtagPOINT@@JPAK@Z 1001c680 f i CoinDispenser.obj
 0001:0001b790       ?QueryHitRect@?$IViewObjectExImpl@VCOPOSCoinDispenser@@@ATL@@UAGJKPBUtagRECT@@0JPAK@Z 1001c790 f i CoinDispenser.obj
 0001:0001b8e0       ?QueryInterface@?$CComAggObject@VCOPOSCoinDispenser@@@ATL@@UAGJABU_GUID@@PAPAX@Z 1001c8e0 f i CoinDispenser.obj
 0001:0001b990       ?QueryInterface@?$CComContainedObject@VCOPOSCoinDispenser@@@ATL@@UAGJABU_GUID@@PAPAX@Z 1001c990 f i CoinDispenser.obj
 0001:0001b9b4       ?QueryInterface@?$CComContainedObject@VCOPOSCoinDispenser@@@ATL@@WHA@AGJABU_GUID@@PAPAX@Z 1001c9b4 f i CoinDispenser.obj
 0001:0001b9be       ?QueryInterface@?$CComContainedObject@VCOPOSCoinDispenser@@@ATL@@WHE@AGJABU_GUID@@PAPAX@Z 1001c9be f i CoinDispenser.obj
 0001:0001b9c8       ?QueryInterface@?$CComContainedObject@VCOPOSCoinDispenser@@@ATL@@WHI@AGJABU_GUID@@PAPAX@Z 1001c9c8 f i CoinDispenser.obj
 0001:0001b9d2       ?QueryInterface@?$CComContainedObject@VCOPOSCoinDispenser@@@ATL@@WHM@AGJABU_GUID@@PAPAX@Z 1001c9d2 f i CoinDispenser.obj
 0001:0001b9dc       ?QueryInterface@?$CComContainedObject@VCOPOSCoinDispenser@@@ATL@@WIA@AGJABU_GUID@@PAPAX@Z 1001c9dc f i CoinDispenser.obj
 0001:0001b9e9       ?QueryInterface@?$CComContainedObject@VCOPOSCoinDispenser@@@ATL@@WIE@AGJABU_GUID@@PAPAX@Z 1001c9e9 f i CoinDispenser.obj
 0001:0001b9f6       ?QueryInterface@?$CComContainedObject@VCOPOSCoinDispenser@@@ATL@@WII@AGJABU_GUID@@PAPAX@Z 1001c9f6 f i CoinDispenser.obj
 0001:0001ba03       ?QueryInterface@?$CComContainedObject@VCOPOSCoinDispenser@@@ATL@@WIM@AGJABU_GUID@@PAPAX@Z 1001ca03 f i CoinDispenser.obj
 0001:0001ba10       ?QueryInterface@?$CComContainedObject@VCOPOSCoinDispenser@@@ATL@@WJA@AGJABU_GUID@@PAPAX@Z 1001ca10 f i CoinDispenser.obj
 0001:0001ba1d       ?QueryInterface@?$CComContainedObject@VCOPOSCoinDispenser@@@ATL@@WJE@AGJABU_GUID@@PAPAX@Z 1001ca1d f i CoinDispenser.obj
 0001:0001ba2a       ?QueryInterface@?$CComContainedObject@VCOPOSCoinDispenser@@@ATL@@WJI@AGJABU_GUID@@PAPAX@Z 1001ca2a f i CoinDispenser.obj
 0001:0001ba37       ?QueryInterface@?$CComContainedObject@VCOPOSCoinDispenser@@@ATL@@WJM@AGJABU_GUID@@PAPAX@Z 1001ca37 f i CoinDispenser.obj
 0001:0001ba44       ?QueryInterface@?$CComContainedObject@VCOPOSCoinDispenser@@@ATL@@WKA@AGJABU_GUID@@PAPAX@Z 1001ca44 f i CoinDispenser.obj
 0001:0001ba60       ?QueryInterface@?$CComObject@V?$CComEnum@UIEnumConnectionPoints@@$1?_GUID_b196b285_bab4_101a_b69c_00aa00341d07@@3U__s_GUID@@BPAUIConnectionPoint@@V?$_CopyInterface@UIConnectionPoint@@@ATL@@VCComSingleThreadModel@6@@ATL@@@ATL@@UAGJABU_GUID@@PAPAX@Z 1001ca60 f i CoinDispenser.obj
 0001:0001ba80       ?QueryInterface@?$CComObject@V?$CComEnum@UIEnumConnections@@$1?_GUID_b196b287_bab4_101a_b69c_00aa00341d07@@3U__s_GUID@@BUtagCONNECTDATA@@V?$_Copy@UtagCONNECTDATA@@@ATL@@VCComSingleThreadModel@6@@ATL@@@ATL@@UAGJABU_GUID@@PAPAX@Z 1001ca80 f i CoinDispenser.obj
 0001:0001baa0       ?QueryInterface@?$CComObject@VCOPOSCoinDispenser@@@ATL@@UAGJABU_GUID@@PAPAX@Z 1001caa0 f i CoinDispenser.obj
 0001:0001babe       ?QueryInterface@?$CComObject@VCOPOSCoinDispenser@@@ATL@@WHA@AGJABU_GUID@@PAPAX@Z 1001cabe f i CoinDispenser.obj
 0001:0001bac8       ?QueryInterface@?$CComObject@VCOPOSCoinDispenser@@@ATL@@WHE@AGJABU_GUID@@PAPAX@Z 1001cac8 f i CoinDispenser.obj
 0001:0001bad2       ?QueryInterface@?$CComObject@VCOPOSCoinDispenser@@@ATL@@WHI@AGJABU_GUID@@PAPAX@Z 1001cad2 f i CoinDispenser.obj
 0001:0001badc       ?QueryInterface@?$CComObject@VCOPOSCoinDispenser@@@ATL@@WHM@AGJABU_GUID@@PAPAX@Z 1001cadc f i CoinDispenser.obj
 0001:0001bae6       ?QueryInterface@?$CComObject@VCOPOSCoinDispenser@@@ATL@@WIA@AGJABU_GUID@@PAPAX@Z 1001cae6 f i CoinDispenser.obj
 0001:0001baf3       ?QueryInterface@?$CComObject@VCOPOSCoinDispenser@@@ATL@@WIE@AGJABU_GUID@@PAPAX@Z 1001caf3 f i CoinDispenser.obj
 0001:0001bb00       ?QueryInterface@?$CComObject@VCOPOSCoinDispenser@@@ATL@@WII@AGJABU_GUID@@PAPAX@Z 1001cb00 f i CoinDispenser.obj
 0001:0001bb0d       ?QueryInterface@?$CComObject@VCOPOSCoinDispenser@@@ATL@@WIM@AGJABU_GUID@@PAPAX@Z 1001cb0d f i CoinDispenser.obj
 0001:0001bb1a       ?QueryInterface@?$CComObject@VCOPOSCoinDispenser@@@ATL@@WJA@AGJABU_GUID@@PAPAX@Z 1001cb1a f i CoinDispenser.obj
 0001:0001bb27       ?QueryInterface@?$CComObject@VCOPOSCoinDispenser@@@ATL@@WJE@AGJABU_GUID@@PAPAX@Z 1001cb27 f i CoinDispenser.obj
 0001:0001bb34       ?QueryInterface@?$CComObject@VCOPOSCoinDispenser@@@ATL@@WJI@AGJABU_GUID@@PAPAX@Z 1001cb34 f i CoinDispenser.obj
 0001:0001bb41       ?QueryInterface@?$CComObject@VCOPOSCoinDispenser@@@ATL@@WJM@AGJABU_GUID@@PAPAX@Z 1001cb41 f i CoinDispenser.obj
 0001:0001bb4e       ?QueryInterface@?$CComObject@VCOPOSCoinDispenser@@@ATL@@WKA@AGJABU_GUID@@PAPAX@Z 1001cb4e f i CoinDispenser.obj
 0001:0001bb60       ?QueryInterface@?$CComObjectCached@VCComClassFactory@ATL@@@ATL@@UAGJABU_GUID@@PAPAX@Z 1001cb60 f i CoinDispenser.obj
 0001:0001bb80       ?QueryInterface@CRegObject@ATL@@UAGJABU_GUID@@PAPAX@Z 1001cb80 f i CoinDispenser.obj
 0001:0001bbd0       ?QuickActivate@?$IQuickActivateImpl@VCOPOSCoinDispenser@@@ATL@@UAGJPAUtagQACONTAINER@@PAUtagQACONTROL@@@Z 1001cbd0 f i CoinDispenser.obj
 0001:0001bc60       ?ReactivateAndUndo@?$IOleInPlaceObjectWindowlessImpl@VCOPOSCoinDispenser@@@ATL@@UAGJXZ 1001cc60 f i CoinDispenser.obj
 0001:0001bcd0       ?ReadFromStream@CComBSTR@ATL@@QAEJPAUIStream@@@Z 1001ccd0 f i CoinDispenser.obj
 0001:0001c0d0       ?ReadFromStream@CComVariant@ATL@@QAEJPAUIStream@@GTClassesAllowedInStream@2@K@Z 1001d0d0 f i CoinDispenser.obj
 0001:0001c430       ?RecurseDeleteKey@CRegKey@ATL@@QAEJPB_W@Z 1001d430 f i CoinDispenser.obj
 0001:0001c610       ?RegCreateKeyExW@CAtlTransactionManager@ATL@@QAEJPAUHKEY__@@PB_WKPA_WKKQAU_SECURITY_ATTRIBUTES@@PAPAU3@PAK@Z 1001d610 f i CoinDispenser.obj
 0001:0001c740       ?RegDeleteKeyW@CAtlTransactionManager@ATL@@QAEJPAUHKEY__@@PB_W@Z 1001d740 f i CoinDispenser.obj
 0001:0001c840       ?RegOpenKeyExW@CAtlTransactionManager@ATL@@QAEJPAUHKEY__@@PB_WKKPAPAU3@@Z 1001d840 f i CoinDispenser.obj
 0001:0001c950       ?Register@_ATL_WNDCLASSINFOW@ATL@@QAEGPAP6GJPAUHWND__@@IIJ@Z@Z 1001d950 f i CoinDispenser.obj
 0001:0001c990       ?RegisterBuffer@CRegParser@ATL@@QAEJPA_WH@Z 1001d990 f i CoinDispenser.obj
 0001:0001ccc0       ?RegisterClassExW@AtlModuleRegisterWndClassInfoParamW@ATL@@SAGPAU_ATL_WIN_MODULE70@2@PBUtagWNDCLASSEXW@@@Z 1001dcc0 f i CoinDispenser.obj
 0001:0001cce0       ?RegisterFromResource@CRegObject@ATL@@IAEJPB_W00H@Z 1001dce0 f i CoinDispenser.obj
 0001:0001d070       ?RegisterServer@?$CAtlModuleT@VCComModule@ATL@@@ATL@@QAEJHPBU_GUID@@@Z 1001e070 f i CoinDispenser.obj
 0001:0001d0f0       ?RegisterServer@CAtlComModule@ATL@@QAEJHPBU_GUID@@@Z 1001e0f0 f i CoinDispenser.obj
 0001:0001d120       ?RegisterServer@CComModule@ATL@@QAEJHPBU_GUID@@@Z 1001e120 f i CoinDispenser.obj
 0001:0001d200       ?RegisterSubkeys@CRegParser@ATL@@IAEJPA_WPAUHKEY__@@HH@Z 1001e200 f i CoinDispenser.obj
 0001:0001dd20       ?Release@?$CComAggObject@VCOPOSCoinDispenser@@@ATL@@UAGKXZ 1001ed20 f i CoinDispenser.obj
 0001:0001dde0       ?Release@?$CComContainedObject@VCOPOSCoinDispenser@@@ATL@@UAGKXZ 1001ede0 f i CoinDispenser.obj
 0001:0001ddfc       ?Release@?$CComContainedObject@VCOPOSCoinDispenser@@@ATL@@WHA@AGKXZ 1001edfc f i CoinDispenser.obj
 0001:0001de06       ?Release@?$CComContainedObject@VCOPOSCoinDispenser@@@ATL@@WHE@AGKXZ 1001ee06 f i CoinDispenser.obj
 0001:0001de10       ?Release@?$CComContainedObject@VCOPOSCoinDispenser@@@ATL@@WHI@AGKXZ 1001ee10 f i CoinDispenser.obj
 0001:0001de1a       ?Release@?$CComContainedObject@VCOPOSCoinDispenser@@@ATL@@WHM@AGKXZ 1001ee1a f i CoinDispenser.obj
 0001:0001de24       ?Release@?$CComContainedObject@VCOPOSCoinDispenser@@@ATL@@WIA@AGKXZ 1001ee24 f i CoinDispenser.obj
 0001:0001de31       ?Release@?$CComContainedObject@VCOPOSCoinDispenser@@@ATL@@WIE@AGKXZ 1001ee31 f i CoinDispenser.obj
 0001:0001de3e       ?Release@?$CComContainedObject@VCOPOSCoinDispenser@@@ATL@@WII@AGKXZ 1001ee3e f i CoinDispenser.obj
 0001:0001de4b       ?Release@?$CComContainedObject@VCOPOSCoinDispenser@@@ATL@@WIM@AGKXZ 1001ee4b f i CoinDispenser.obj
 0001:0001de58       ?Release@?$CComContainedObject@VCOPOSCoinDispenser@@@ATL@@WJA@AGKXZ 1001ee58 f i CoinDispenser.obj
 0001:0001de65       ?Release@?$CComContainedObject@VCOPOSCoinDispenser@@@ATL@@WJE@AGKXZ 1001ee65 f i CoinDispenser.obj
 0001:0001de72       ?Release@?$CComContainedObject@VCOPOSCoinDispenser@@@ATL@@WJI@AGKXZ 1001ee72 f i CoinDispenser.obj
 0001:0001de7f       ?Release@?$CComContainedObject@VCOPOSCoinDispenser@@@ATL@@WJM@AGKXZ 1001ee7f f i CoinDispenser.obj
 0001:0001de8c       ?Release@?$CComContainedObject@VCOPOSCoinDispenser@@@ATL@@WKA@AGKXZ 1001ee8c f i CoinDispenser.obj
 0001:0001de99       ?Release@?$CComContainedObject@VCOPOSCoinDispenser@@@ATL@@WKI@AGKXZ 1001ee99 f i CoinDispenser.obj
 0001:0001dea6       ?Release@?$CComContainedObject@VCOPOSCoinDispenser@@@ATL@@WLE@AGKXZ 1001eea6 f i CoinDispenser.obj
 0001:0001dec0       ?Release@?$CComObject@V?$CComEnum@UIEnumConnectionPoints@@$1?_GUID_b196b285_bab4_101a_b69c_00aa00341d07@@3U__s_GUID@@BPAUIConnectionPoint@@V?$_CopyInterface@UIConnectionPoint@@@ATL@@VCComSingleThreadModel@6@@ATL@@@ATL@@UAGKXZ 1001eec0 f i CoinDispenser.obj
 0001:0001df80       ?Release@?$CComObject@V?$CComEnum@UIEnumConnections@@$1?_GUID_b196b287_bab4_101a_b69c_00aa00341d07@@3U__s_GUID@@BUtagCONNECTDATA@@V?$_Copy@UtagCONNECTDATA@@@ATL@@VCComSingleThreadModel@6@@ATL@@@ATL@@UAGKXZ 1001ef80 f i CoinDispenser.obj
 0001:0001e040       ?Release@?$CComObject@VCOPOSCoinDispenser@@@ATL@@UAGKXZ 1001f040 f i CoinDispenser.obj
 0001:0001e0f9       ?Release@?$CComObject@VCOPOSCoinDispenser@@@ATL@@WHA@AGKXZ 1001f0f9 f i CoinDispenser.obj
 0001:0001e103       ?Release@?$CComObject@VCOPOSCoinDispenser@@@ATL@@WHE@AGKXZ 1001f103 f i CoinDispenser.obj
 0001:0001e10d       ?Release@?$CComObject@VCOPOSCoinDispenser@@@ATL@@WHI@AGKXZ 1001f10d f i CoinDispenser.obj
 0001:0001e117       ?Release@?$CComObject@VCOPOSCoinDispenser@@@ATL@@WHM@AGKXZ 1001f117 f i CoinDispenser.obj
 0001:0001e121       ?Release@?$CComObject@VCOPOSCoinDispenser@@@ATL@@WIA@AGKXZ 1001f121 f i CoinDispenser.obj
 0001:0001e12e       ?Release@?$CComObject@VCOPOSCoinDispenser@@@ATL@@WIE@AGKXZ 1001f12e f i CoinDispenser.obj
 0001:0001e13b       ?Release@?$CComObject@VCOPOSCoinDispenser@@@ATL@@WII@AGKXZ 1001f13b f i CoinDispenser.obj
 0001:0001e148       ?Release@?$CComObject@VCOPOSCoinDispenser@@@ATL@@WIM@AGKXZ 1001f148 f i CoinDispenser.obj
 0001:0001e155       ?Release@?$CComObject@VCOPOSCoinDispenser@@@ATL@@WJA@AGKXZ 1001f155 f i CoinDispenser.obj
 0001:0001e162       ?Release@?$CComObject@VCOPOSCoinDispenser@@@ATL@@WJE@AGKXZ 1001f162 f i CoinDispenser.obj
 0001:0001e16f       ?Release@?$CComObject@VCOPOSCoinDispenser@@@ATL@@WJI@AGKXZ 1001f16f f i CoinDispenser.obj
 0001:0001e17c       ?Release@?$CComObject@VCOPOSCoinDispenser@@@ATL@@WJM@AGKXZ 1001f17c f i CoinDispenser.obj
 0001:0001e189       ?Release@?$CComObject@VCOPOSCoinDispenser@@@ATL@@WKA@AGKXZ 1001f189 f i CoinDispenser.obj
 0001:0001e196       ?Release@?$CComObject@VCOPOSCoinDispenser@@@ATL@@WKI@AGKXZ 1001f196 f i CoinDispenser.obj
 0001:0001e1a3       ?Release@?$CComObject@VCOPOSCoinDispenser@@@ATL@@WLE@AGKXZ 1001f1a3 f i CoinDispenser.obj
 0001:0001e1b0       ?Release@?$CComObjectCached@VCComClassFactory@ATL@@@ATL@@UAGKXZ 1001f1b0 f i CoinDispenser.obj
 0001:0001e250       ?Release@?$CComPtrBase@UIAdviseSink@@@ATL@@QAEXXZ 1001f250 f i CoinDispenser.obj
 0001:0001e2b0       ?Release@?$CComPtrBase@UIDispatch@@@ATL@@QAEXXZ 1001f2b0 f i CoinDispenser.obj
 0001:0001e310       ?Release@?$CComPtrBase@UIOleInPlaceSiteWindowless@@@ATL@@QAEXXZ 1001f310 f i CoinDispenser.obj
 0001:0001e370       ?Release@CRegObject@ATL@@UAGKXZ 1001f370 f i CoinDispenser.obj
 0001:0001e3b0       ?Remove@CComDynamicUnkArray@ATL@@QAEHK@Z 1001f3b0 f i CoinDispenser.obj
 0001:0001e460       ?RemoveAll@?$CSimpleMap@PA_WPA_WVCExpansionVectorEqualHelper@ATL@@@ATL@@QAEXXZ 1001f460 f i CoinDispenser.obj
 0001:0001e4f0       ?Reset@?$CComEnumImpl@UIEnumConnectionPoints@@$1?_GUID_b196b285_bab4_101a_b69c_00aa00341d07@@3U__s_GUID@@BPAUIConnectionPoint@@V?$_CopyInterface@UIConnectionPoint@@@ATL@@@ATL@@UAGJXZ 1001f4f0 f i CoinDispenser.obj
 0001:0001e510       ?Reset@?$CComEnumImpl@UIEnumConnections@@$1?_GUID_b196b287_bab4_101a_b69c_00aa00341d07@@3U__s_GUID@@BUtagCONNECTDATA@@V?$_Copy@UtagCONNECTDATA@@@ATL@@@ATL@@UAGJXZ 1001f510 f i CoinDispenser.obj
 0001:0001e530       ?ResizeBorder@?$IOleInPlaceActiveObjectImpl@VCOPOSCoinDispenser@@@ATL@@UAGJPBUtagRECT@@PAUIOleInPlaceUIWindow@@H@Z 1001f530 f i CoinDispenser.obj
 0001:0001e590       ?ResourceRegister@CRegObject@ATL@@QAGJPB_WI0@Z 1001f590 f i CoinDispenser.obj
 0001:0001e670       ?ResourceRegisterSz@CRegObject@ATL@@QAGJPB_W00@Z 1001f670 f i CoinDispenser.obj
 0001:0001e770       ?ResourceUnregister@CRegObject@ATL@@QAGJPB_WI0@Z 1001f770 f i CoinDispenser.obj
 0001:0001e850       ?ResourceUnregisterSz@CRegObject@ATL@@QAGJPB_W00@Z 1001f850 f i CoinDispenser.obj
 0001:0001e950       ?SODataDummy@COPOSCoinDispenser@@MAGJJ@Z 1001f950 f i CoinDispenser.obj
 0001:0001e960       ?SODirectIO@COPOSCoinDispenser@@MAGJJPAJPAPA_W@Z 1001f960 f i CoinDispenser.obj
 0001:0001eb20       ?SOErrorDummy@COPOSCoinDispenser@@MAGJJJJPAJ@Z 1001fb20 f i CoinDispenser.obj
 0001:0001eb30       ?SOOutputCompleteDummy@COPOSCoinDispenser@@MAGJJ@Z 1001fb30 f i CoinDispenser.obj
 0001:0001eb40       ?SOStatusUpdate@COPOSCoinDispenser@@MAGJJ@Z 1001fb40 f i CoinDispenser.obj
 0001:0001ebc0       ?Save@?$IPersistStorageImpl@VCOPOSCoinDispenser@@@ATL@@UAGJPAUIStorage@@H@Z 1001fbc0 f i CoinDispenser.obj
 0001:0001ed20       ?Save@?$IPersistStreamInitImpl@VCOPOSCoinDispenser@@@ATL@@UAGJPAUIStream@@H@Z 1001fd20 f i CoinDispenser.obj
 0001:0001edb0       ?SaveCompleted@?$IPersistStorageImpl@VCOPOSCoinDispenser@@@ATL@@UAGJPAUIStorage@@@Z 1001fdb0 f i CoinDispenser.obj
 0001:0001ee10       ?SendOnDataChange@CComControlBase@ATL@@QAEJK@Z 1001fe10 f i CoinDispenser.obj
 0001:0001ef00       ?SendOnSave@CComControlBase@ATL@@QAEJXZ 1001ff00 f i CoinDispenser.obj
 0001:0001ef70       ?SendOnViewChange@CComControlBase@ATL@@QAEJKJ@Z 1001ff70 f i CoinDispenser.obj
 0001:0001efe0       ?SetAdvise@?$IViewObjectExImpl@VCOPOSCoinDispenser@@@ATL@@UAGJKKPAUIAdviseSink@@@Z 1001ffe0 f i CoinDispenser.obj
 0001:0001f070       ?SetClientSite@?$IOleObjectImpl@VCOPOSCoinDispenser@@@ATL@@UAGJPAUIOleClientSite@@@Z 10020070 f i CoinDispenser.obj
 0001:0001f100       ?SetColorScheme@?$IOleObjectImpl@VCOPOSCoinDispenser@@@ATL@@UAGJPAUtagLOGPALETTE@@@Z 10020100 f i CoinDispenser.obj
 0001:0001f170       ?SetContentExtent@?$IQuickActivateImpl@VCOPOSCoinDispenser@@@ATL@@UAGJPAUtagSIZE@@@Z 10020170 f i CoinDispenser.obj
 0001:0001f200       ?SetControlFocus@CComControlBase@ATL@@QAEHH@Z 10020200 f i CoinDispenser.obj
 0001:0001f380       ?SetDWORDValue@CRegKey@ATL@@QAEJPB_WK@Z 10020380 f i CoinDispenser.obj
 0001:0001f400       ?SetData@?$IDataObjectImpl@VCOPOSCoinDispenser@@@ATL@@UAGJPAUtagFORMATETC@@PAUtagSTGMEDIUM@@H@Z 10020400 f i CoinDispenser.obj
 0001:0001f470       ?SetExtent@?$IOleObjectImpl@VCOPOSCoinDispenser@@@ATL@@UAGJKPAUtagSIZE@@@Z 10020470 f i CoinDispenser.obj
 0001:0001f500       ?SetHostNames@?$IOleObjectImpl@VCOPOSCoinDispenser@@@ATL@@UAGJPB_W0@Z 10020500 f i CoinDispenser.obj
 0001:0001f560       ?SetInterfaceSafetyOptions@?$IObjectSafetyImpl@VCOPOSCoinDispenser@@$02@ATL@@UAGJABU_GUID@@KK@Z 10020560 f i CoinDispenser.obj
 0001:0001f6d0       ?SetMoniker@?$IOleObjectImpl@VCOPOSCoinDispenser@@@ATL@@UAGJKPAUIMoniker@@@Z 100206d0 f i CoinDispenser.obj
 0001:0001f740       ?SetMultiStringValue@CRegKey@ATL@@QAEJPB_W0@Z 10020740 f i CoinDispenser.obj
 0001:0001f860       ?SetObjectRects@?$IOleInPlaceObjectWindowlessImpl@VCOPOSCoinDispenser@@@ATL@@UAGJPBUtagRECT@@0@Z 10020860 f i CoinDispenser.obj
 0001:0001f8f0       ?SetStringValue@CRegKey@ATL@@QAEJPB_W0K@Z 100208f0 f i CoinDispenser.obj
 0001:0001fa20       ?SetVoid@CComClassFactory@ATL@@QAEXPAX@Z 10020a20 f i CoinDispenser.obj
 0001:0001fa40       ?SetVoid@CComObjectRootBase@ATL@@QAEXPAX@Z 10020a40 f i CoinDispenser.obj
 0001:0001fa60       ?SetWindowLongPtrW@@YAJPAUHWND__@@HJ@Z 10020a60 f i CoinDispenser.obj
 0001:0001fa90       ?ShowWindow@CWindow@ATL@@QAEHH@Z 10020a90 f i CoinDispenser.obj
 0001:0001fb10       ?Skip@?$CComEnumImpl@UIEnumConnectionPoints@@$1?_GUID_b196b285_bab4_101a_b69c_00aa00341d07@@3U__s_GUID@@BPAUIConnectionPoint@@V?$_CopyInterface@UIConnectionPoint@@@ATL@@@ATL@@UAGJK@Z 10020b10 f i CoinDispenser.obj
 0001:0001fb90       ?Skip@?$CComEnumImpl@UIEnumConnections@@$1?_GUID_b196b287_bab4_101a_b69c_00aa00341d07@@3U__s_GUID@@BUtagCONNECTDATA@@V?$_Copy@UtagCONNECTDATA@@@ATL@@@ATL@@UAGJK@Z 10020b90 f i CoinDispenser.obj
 0001:0001fc10       ?SkipAssignment@CRegParser@ATL@@IAEJPA_W@Z 10020c10 f i CoinDispenser.obj
 0001:0001fcf0       ?SkipWhiteSpace@CRegParser@ATL@@IAEXXZ 10020cf0 f i CoinDispenser.obj
 0001:0001fd40       ?StartWindowProc@?$CWindowImplBaseT@VCWindow@ATL@@V?$CWinTraits@$0FGAAAAAA@$0A@@2@@ATL@@SGJPAUHWND__@@IIJ@Z 10020d40 f i CoinDispenser.obj
 0001:0001fe60       ?StrChrW@CRegParser@ATL@@KAPA_WPA_W_W@Z 10020e60 f i CoinDispenser.obj
 0001:0001fed0       ?StrFromMap@CRegObject@ATL@@QAEPB_WPA_W@Z 10020ed0 f i CoinDispenser.obj
 0001:0001ff60       ?Swap@?$CComPtrBase@UIAdviseSink@@@ATL@@IAEXAAV12@@Z 10020f60 f i CoinDispenser.obj
 0001:0001ffa0       ?Swap@?$CComPtrBase@UIOleClientSite@@@ATL@@IAEXAAV12@@Z 10020fa0 f i CoinDispenser.obj
 0001:0001ffe0       ?Swap@?$CComPtrBase@UIUnknown@@@ATL@@IAEXAAV12@@Z 10020fe0 f i CoinDispenser.obj
 0001:00020020       ?T2COLE_EX@@YAPB_WPB_WI@Z  10021020 f i CoinDispenser.obj
 0001:00020030       ?T2OLE_EX@@YAPA_WPA_WI@Z   10021030 f i CoinDispenser.obj
 0001:00020040       ?Term@CAtlModule@ATL@@QAEXXZ 10021040 f i CoinDispenser.obj
 0001:000200f0       ?Term@CComModule@ATL@@QAEXXZ 100210f0 f i CoinDispenser.obj
 0001:000201e0       ?TranslateAcceleratorW@?$IOleInPlaceActiveObjectImpl@VCOPOSCoinDispenser@@@ATL@@UAGJPAUtagMSG@@@Z 100211e0 f i CoinDispenser.obj
 0001:000203e0       ?UIDeactivate@?$IOleInPlaceObjectWindowlessImpl@VCOPOSCoinDispenser@@@ATL@@UAGJXZ 100213e0 f i CoinDispenser.obj
 0001:00020460       ?Unadvise@?$CProxy_IOPOSEvents@VCOPOSCoinDispenser@@@@UAGJK@Z 10021460 f i CoinDispenser.obj
 0001:000204a0       ?Unadvise@?$IConnectionPointImpl@VCOPOSCoinDispenser@@$1?DIID__IOPOSCoinDispenserEvents@@3U_GUID@@BVCComDynamicUnkArray@ATL@@@ATL@@UAGJK@Z 100214a0 f i CoinDispenser.obj
 0001:00020570       ?Unadvise@?$IConnectionPointImpl@VCOPOSCoinDispenser@@$1?IID_IPropertyNotifySink@@3U_GUID@@BVCComDynamicUnkArray@ATL@@@ATL@@UAGJK@Z 10021570 f i CoinDispenser.obj
 0001:00020640       ?Unadvise@?$IOleObjectImpl@VCOPOSCoinDispenser@@@ATL@@UAGJK@Z 10021640 f i CoinDispenser.obj
 0001:00020710       ?Unfreeze@?$IViewObjectExImpl@VCOPOSCoinDispenser@@@ATL@@UAGJK@Z 10021710 f i CoinDispenser.obj
 0001:00020780       ?Unlock@?$CComCritSecLock@VCComCriticalSection@ATL@@@ATL@@QAEXXZ 10021780 f i CoinDispenser.obj
 0001:000207f0       ?Unlock@?$CComObjectRootEx@VCComSingleThreadModel@ATL@@@ATL@@QAEXXZ 100217f0 f i CoinDispenser.obj
 0001:00020810       ?Unlock@CAtlModule@ATL@@UAEJXZ 10021810 f i CoinDispenser.obj
 0001:00020840       ?Unlock@CComCriticalSection@ATL@@QAEJXZ 10021840 f i CoinDispenser.obj
 0001:00020880       ?Unlock@CComFakeCriticalSection@ATL@@QAEJXZ 10021880 f i CoinDispenser.obj
 0001:000208a0       ?UnregisterServer@?$CAtlModuleT@VCComModule@ATL@@@ATL@@QAEJHPBU_GUID@@@Z 100218a0 f i CoinDispenser.obj
 0001:00020910       ?UnregisterServer@CAtlComModule@ATL@@QAEJHPBU_GUID@@@Z 10021910 f i CoinDispenser.obj
 0001:00020940       ?UnregisterServer@CComModule@ATL@@QAEJHPBU_GUID@@@Z 10021940 f i CoinDispenser.obj
 0001:00020a20       ?Update@?$IOleObjectImpl@VCOPOSCoinDispenser@@@ATL@@UAGJXZ 10021a20 f i CoinDispenser.obj
 0001:00020a80       ?UpdateRegistryFromResource@CAtlModule@ATL@@QAGJIHPAU_ATL_REGMAP_ENTRY@2@@Z 10021a80 f i CoinDispenser.obj
 0001:00020f50       ?UpdateRegistryFromResource@CAtlModule@ATL@@QAGJPB_WHPAU_ATL_REGMAP_ENTRY@2@@Z 10021f50 f i CoinDispenser.obj
 0001:00021440       ?UpdateRegistryFromResource@CComModule@ATL@@UAGJIHPAU_ATL_REGMAP_ENTRY@2@@Z 10022440 f i CoinDispenser.obj
 0001:00021470       ?UpdateRegistryFromResource@CComModule@ATL@@UAGJPB_WHPAU_ATL_REGMAP_ENTRY@2@@Z 10022470 f i CoinDispenser.obj
 0001:000214a0       ?UpdateRegistryFromResourceD@CComModule@ATL@@UAGJIHPAU_ATL_REGMAP_ENTRY@2@@Z 100224a0 f i CoinDispenser.obj
 0001:000214b0       ?UpdateRegistryFromResourceD@CComModule@ATL@@UAGJPB_WHPAU_ATL_REGMAP_ENTRY@2@@Z 100224b0 f i CoinDispenser.obj
 0001:000214c0       ?VTFromRegType@CRegParser@ATL@@KAHPB_WAAG@Z 100224c0 f i CoinDispenser.obj
 0001:000215a0       ?WindowProc@?$CWindowImplBaseT@VCWindow@ATL@@V?$CWinTraits@$0FGAAAAAA@$0A@@2@@ATL@@SGJPAUHWND__@@IIJ@Z 100225a0 f i CoinDispenser.obj
 0001:000217b0       ?WriteToStream@CComBSTR@ATL@@QAEJPAUIStream@@@Z 100227b0 f i CoinDispenser.obj
 0001:00021910       ?WriteToStream@CComVariant@ATL@@QAEJPAUIStream@@@Z 10022910 f i CoinDispenser.obj
 0001:00021c50       ?WriteToStream@CComVariant@ATL@@QAEJPAUIStream@@G@Z 10022c50 f i CoinDispenser.obj
 0001:00021d20       ?_AtlFinalConstruct@CComObjectRootBase@ATL@@QAEJXZ 10022d20 f i CoinDispenser.obj
 0001:00021d40       ?_AtlGetConversionACP@ATL@@YGIXZ 10022d40 f i CoinDispenser.obj
 0001:00021d50       ?_AtlInitialConstruct@?$CComAggObject@VCOPOSCoinDispenser@@@ATL@@QAEJXZ 10022d50 f i CoinDispenser.obj
 0001:00021da0       ?_AtlInitialConstruct@?$CComObjectRootEx@VCComMultiThreadModel@ATL@@@ATL@@QAEJXZ 10022da0 f i CoinDispenser.obj
 0001:00021dd0       ?_AtlInitialConstruct@?$CComObjectRootEx@VCComSingleThreadModel@ATL@@@ATL@@QAEJXZ 10022dd0 f i CoinDispenser.obj
 0001:00021df0       ?_AtlVerifyStackAvailable@_ATL_SAFE_ALLOCA_IMPL@ATL@@YA_NK@Z 10022df0 f i CoinDispenser.obj
 0001:00021fa0       ?_GetEntries@?$CComEnum@UIEnumConnectionPoints@@$1?_GUID_b196b285_bab4_101a_b69c_00aa00341d07@@3U__s_GUID@@BPAUIConnectionPoint@@V?$_CopyInterface@UIConnectionPoint@@@ATL@@VCComSingleThreadModel@6@@ATL@@SGPBU_ATL_INTMAP_ENTRY@2@XZ 10022fa0 f i CoinDispenser.obj
 0001:00021fc0       ?_GetEntries@?$CComEnum@UIEnumConnections@@$1?_GUID_b196b287_bab4_101a_b69c_00aa00341d07@@3U__s_GUID@@BUtagCONNECTDATA@@V?$_Copy@UtagCONNECTDATA@@@ATL@@VCComSingleThreadModel@6@@ATL@@SGPBU_ATL_INTMAP_ENTRY@2@XZ 10022fc0 f i CoinDispenser.obj
 0001:00021fe0       ?_GetEntries@CComClassFactory@ATL@@SGPBU_ATL_INTMAP_ENTRY@2@XZ 10022fe0 f i CoinDispenser.obj
 0001:00022000       ?_GetEntries@COPOSCoinDispenser@@SGPBU_ATL_INTMAP_ENTRY@ATL@@XZ 10023000 f i CoinDispenser.obj
 0001:00022020       ?_GetRawUnknown@COPOSCoinDispenser@@QAEPAUIUnknown@@XZ 10023020 f i CoinDispenser.obj
 0001:00022090       ?_GetViewStatus@COPOSCoinDispenser@@QAEKXZ 10023090 f i CoinDispenser.obj
 0001:000220b0       ?_InternalQueryInterface@?$CComEnum@UIEnumConnectionPoints@@$1?_GUID_b196b285_bab4_101a_b69c_00aa00341d07@@3U__s_GUID@@BPAUIConnectionPoint@@V?$_CopyInterface@UIConnectionPoint@@@ATL@@VCComSingleThreadModel@6@@ATL@@QAEJABU_GUID@@PAPAX@Z 100230b0 f i CoinDispenser.obj
 0001:000220f0       ?_InternalQueryInterface@?$CComEnum@UIEnumConnections@@$1?_GUID_b196b287_bab4_101a_b69c_00aa00341d07@@3U__s_GUID@@BUtagCONNECTDATA@@V?$_Copy@UtagCONNECTDATA@@@ATL@@VCComSingleThreadModel@6@@ATL@@QAEJABU_GUID@@PAPAX@Z 100230f0 f i CoinDispenser.obj
 0001:00022130       ?_InternalQueryInterface@CComClassFactory@ATL@@QAEJABU_GUID@@PAPAX@Z 10023130 f i CoinDispenser.obj
 0001:00022170       ?_InternalQueryInterface@COPOSCoinDispenser@@QAEJABU_GUID@@PAPAX@Z 10023170 f i CoinDispenser.obj
 0001:000221b0       ?_LocCPQueryInterface@?$IConnectionPointImpl@VCOPOSCoinDispenser@@$1?DIID__IOPOSCoinDispenserEvents@@3U_GUID@@BVCComDynamicUnkArray@ATL@@@ATL@@UAGJABU_GUID@@PAPAX@Z 100231b0 f i CoinDispenser.obj
 0001:00022250       ?_LocCPQueryInterface@?$IConnectionPointImpl@VCOPOSCoinDispenser@@$1?IID_IPropertyNotifySink@@3U_GUID@@BVCComDynamicUnkArray@ATL@@@ATL@@UAGJABU_GUID@@PAPAX@Z 10023250 f i CoinDispenser.obj
 0001:000222f0       ?atlCreate@?$CWindowImpl@VCOPOSCoinDispenser@@VCWindow@ATL@@V?$CWinTraits@$0FGAAAAAA@$0A@@3@@ATL@@QAEPAUHWND__@@PAU3@V_U_RECT@2@PB_WKKV_U_MENUorID@2@PAX@Z 100232f0 f i CoinDispenser.obj
 0001:000223a0       ?atlCreate@?$CWindowImplBaseT@VCWindow@ATL@@V?$CWinTraits@$0FGAAAAAA@$0A@@2@@ATL@@QAEPAUHWND__@@PAU3@V_U_RECT@2@PB_WKKV_U_MENUorID@2@GPAX@Z 100233a0 f i CoinDispenser.obj
 0001:00022520       ?atlCreate@CRegKey@ATL@@QAEJPAUHKEY__@@PB_WPA_WKKPAU_SECURITY_ATTRIBUTES@@PAK@Z 10023520 f i CoinDispenser.obj
 0001:00022680       ?begin@CComDynamicUnkArray@ATL@@QAEPAPAUIUnknown@@XZ 10023680 f i CoinDispenser.obj
 0001:000226a0       ?copy@?$_Copy@UtagCONNECTDATA@@@ATL@@SAJPAUtagCONNECTDATA@@PBU3@@Z 100236a0 f i CoinDispenser.obj
 0001:00022760       ?copy@?$_CopyInterface@UIConnectionPoint@@@ATL@@SAJPAPAUIConnectionPoint@@PBQAU3@@Z 10023760 f i CoinDispenser.obj
 0001:00022820       ?destroy@?$_Copy@UtagCONNECTDATA@@@ATL@@SAXPAUtagCONNECTDATA@@@Z 10023820 f i CoinDispenser.obj
 0001:00022860       ?destroy@?$_CopyInterface@UIConnectionPoint@@@ATL@@SAXPAPAUIConnectionPoint@@@Z 10023860 f i CoinDispenser.obj
 0001:000228a0       ?end@CComDynamicUnkArray@ATL@@QAEPAPAUIUnknown@@XZ 100238a0 f i CoinDispenser.obj
 0001:000228c0       ?init@?$_Copy@UtagCONNECTDATA@@@ATL@@SAXPAUtagCONNECTDATA@@@Z 100238c0 f i CoinDispenser.obj
 0001:000228d0       ?init@?$_CopyInterface@UIConnectionPoint@@@ATL@@SAXPAPAUIConnectionPoint@@@Z 100238d0 f i CoinDispenser.obj
 0001:000228e0       ?memcpy_s@Checked@ATL@@YAXPAXIPBXI@Z 100238e0 f i CoinDispenser.obj
 0001:00022910       ?ocscpy_s@@YA_NPA_WIPB_W@Z 10023910 f i CoinDispenser.obj
 0001:00022970       ?ocslen@@YAHPB_W@Z         10023970 f i CoinDispenser.obj
 0001:000229a0       ?tcsncpy_s@Checked@ATL@@YAHPA_WIPB_WI@Z 100239a0 f i CoinDispenser.obj
 0001:000229d0       ?wcscat_s@Checked@ATL@@YAXPA_WIPB_W@Z 100239d0 f i CoinDispenser.obj
 0001:00022a00       ?wcscpy_s@Checked@ATL@@YAXPA_WIPB_W@Z 10023a00 f i CoinDispenser.obj
 0001:00022a30       ?wcsncpy_s@Checked@ATL@@YAHPA_WIPB_WI@Z 10023a30 f i CoinDispenser.obj
 0001:00022a60       ?wcsstr@@YAPA_WPA_WPB_W@Z  10023a60 f i CoinDispenser.obj
 0001:00022a80       _InlineIsEqualGUID         10023a80 f i CoinDispenser.obj
 0001:00022b20       _IsEqualGUID               10023b20 f i CoinDispenser.obj
 0001:00022b70       ??0COPOSCoinDispenser@@QAE@XZ 10023b70 f   CoinDispenserImpl.obj
 0001:00022c80       ?FinalConstruct@COPOSCoinDispenser@@QAEJXZ 10023c80 f   CoinDispenserImpl.obj
 0001:00022d50       ??1COPOSCoinDispenser@@UAE@XZ 10023d50 f   CoinDispenserImpl.obj
 0001:00022e30       ?WriteTrace@COPOSCoinDispenser@@QAAXPB_WZZ 10023e30 f   CoinDispenserImpl.obj
 0001:00022ee0       ?WriteTraceString@COPOSCoinDispenser@@QAEXPB_WPA_W@Z 10023ee0 f   CoinDispenserImpl.obj
 0001:00023250       ?WriteTraceString@COPOSCoinDispenser@@QAAXPAXHHHPB_WZZ 10024250 f   CoinDispenserImpl.obj
 0001:00023480       ?WriteTraceError@COPOSCoinDispenser@@QAEXPB_WK@Z 10024480 f   CoinDispenserImpl.obj
 0001:00023570       ?WriteTraceMethods@COPOSCoinDispenser@@QAEXPAJH@Z 10024570 f   CoinDispenserImpl.obj
 0001:000235e0       ?GetOposProp@COPOSCoinDispenser@@IAEJPBDJPAJJ@Z 100245e0 f   CoinDispenserImpl.obj
 0001:00023850       ?SetOposProp@COPOSCoinDispenser@@IAEJPBDJJJ@Z 10024850 f   CoinDispenserImpl.obj
 0001:00023ae0       ?GetOposProp@COPOSCoinDispenser@@IAEJPBDJPAFJ@Z 10024ae0 f   CoinDispenserImpl.obj
 0001:00023b80       ?SetOposProp@COPOSCoinDispenser@@IAEJPBDJFJ@Z 10024b80 f   CoinDispenserImpl.obj
 0001:00023be0       ?GetOposProp@COPOSCoinDispenser@@IAEJPBDJPAPA_WJ@Z 10024be0 f   CoinDispenserImpl.obj
 0001:00023e60       ?SetOposProp@COPOSCoinDispenser@@IAEJPBDJPA_WJ@Z 10024e60 f   CoinDispenserImpl.obj
 0001:000241a0       ?DoInvoke@COPOSCoinDispenser@@IAEJPBDJPAVOposVariant@@IHPAJ_N@Z 100251a0 f   CoinDispenserImpl.obj
 0001:00024ad0       ?SetCOFreezeEvents@COPOSCoinDispenser@@IAEXF@Z 10025ad0 f   CoinDispenserImpl.obj
 0001:00024c10       ?FreezeEvents@COPOSCoinDispenser@@MAGJH@Z 10025c10 f   CoinDispenserImpl.obj
 0001:00024cd0       ?OnDraw@COPOSCoinDispenser@@MAEJAAUATL_DRAWINFO@@@Z 10025cd0 f   CoinDispenserImpl.obj
 0001:00024e70       ?SOProcessID@COPOSCoinDispenser@@UAGJPAJ@Z 10025e70 f   CoinDispenserImpl.obj
 0001:00024eb0       ?get_OpenResult@COPOSCoinDispenser@@UAGJPAJ@Z 10025eb0 f   CoinDispenserImpl.obj
 0001:00024ef0       ?get_CheckHealthText@COPOSCoinDispenser@@UAGJPAPA_W@Z 10025ef0 f   CoinDispenserImpl.obj
 0001:00024f20       ?get_Claimed@COPOSCoinDispenser@@UAGJPAF@Z 10025f20 f   CoinDispenserImpl.obj
 0001:00024f50       ?get_DeviceEnabled@COPOSCoinDispenser@@UAGJPAF@Z 10025f50 f   CoinDispenserImpl.obj
 0001:00024f80       ?put_DeviceEnabled@COPOSCoinDispenser@@UAGJF@Z 10025f80 f   CoinDispenserImpl.obj
 0001:00024fb0       ?get_FreezeEvents@COPOSCoinDispenser@@UAGJPAF@Z 10025fb0 f   CoinDispenserImpl.obj
 0001:00024fe0       ?put_FreezeEvents@COPOSCoinDispenser@@UAGJF@Z 10025fe0 f   CoinDispenserImpl.obj
 0001:00025070       ?get_ResultCode@COPOSCoinDispenser@@UAGJPAJ@Z 10026070 f   CoinDispenserImpl.obj
 0001:00025100       ?get_ResultCodeExtended@COPOSCoinDispenser@@UAGJPAJ@Z 10026100 f   CoinDispenserImpl.obj
 0001:00025130       ?get_State@COPOSCoinDispenser@@UAGJPAJ@Z 10026130 f   CoinDispenserImpl.obj
 0001:00025180       ?get_ControlObjectDescription@COPOSCoinDispenser@@UAGJPAPA_W@Z 10026180 f   CoinDispenserImpl.obj
 0001:00025200       ?get_ControlObjectVersion@COPOSCoinDispenser@@UAGJPAJ@Z 10026200 f   CoinDispenserImpl.obj
 0001:00025240       ?get_ServiceObjectDescription@COPOSCoinDispenser@@UAGJPAPA_W@Z 10026240 f   CoinDispenserImpl.obj
 0001:00025270       ?get_ServiceObjectVersion@COPOSCoinDispenser@@UAGJPAJ@Z 10026270 f   CoinDispenserImpl.obj
 0001:000252a0       ?get_DeviceDescription@COPOSCoinDispenser@@UAGJPAPA_W@Z 100262a0 f   CoinDispenserImpl.obj
 0001:000252d0       ?get_DeviceName@COPOSCoinDispenser@@UAGJPAPA_W@Z 100262d0 f   CoinDispenserImpl.obj
 0001:00025300       ?CheckHealth@COPOSCoinDispenser@@UAGJJPAJ@Z 10026300 f   CoinDispenserImpl.obj
 0001:000253a0       ?ClaimDevice@COPOSCoinDispenser@@UAGJJPAJ@Z 100263a0 f   CoinDispenserImpl.obj
 0001:00025480       ?Close@COPOSCoinDispenser@@UAGJPAJ@Z 10026480 f   CoinDispenserImpl.obj
 0001:00025550       ?DirectIO@COPOSCoinDispenser@@UAGJJPAJPAPA_W0@Z 10026550 f   CoinDispenserImpl.obj
 0001:00025660       ?Open@COPOSCoinDispenser@@UAGJPA_WPAJ@Z 10026660 f   CoinDispenserImpl.obj
 0001:00026840       ?ReleaseDevice@COPOSCoinDispenser@@UAGJPAJ@Z 10027840 f   CoinDispenserImpl.obj
 0001:000268b0       ?get_CapEmptySensor@COPOSCoinDispenser@@UAGJPAF@Z 100278b0 f   CoinDispenserImpl.obj
 0001:000268e0       ?get_CapJamSensor@COPOSCoinDispenser@@UAGJPAF@Z 100278e0 f   CoinDispenserImpl.obj
 0001:00026910       ?get_CapNearEmptySensor@COPOSCoinDispenser@@UAGJPAF@Z 10027910 f   CoinDispenserImpl.obj
 0001:00026940       ?get_DispenserStatus@COPOSCoinDispenser@@UAGJPAJ@Z 10027940 f   CoinDispenserImpl.obj
 0001:00026970       ?DispenseChange@COPOSCoinDispenser@@UAGJJPAJ@Z 10027970 f   CoinDispenserImpl.obj
 0001:00026a10       ?get_BinaryConversion@COPOSCoinDispenser@@UAGJPAJ@Z 10027a10 f   CoinDispenserImpl.obj
 0001:00026a40       ?put_BinaryConversion@COPOSCoinDispenser@@UAGJJ@Z 10027a40 f   CoinDispenserImpl.obj
 0001:00026a70       ?get_CapPowerReporting@COPOSCoinDispenser@@UAGJPAJ@Z 10027a70 f   CoinDispenserImpl.obj
 0001:00026aa0       ?get_PowerNotify@COPOSCoinDispenser@@UAGJPAJ@Z 10027aa0 f   CoinDispenserImpl.obj
 0001:00026ad0       ?put_PowerNotify@COPOSCoinDispenser@@UAGJJ@Z 10027ad0 f   CoinDispenserImpl.obj
 0001:00026b00       ?get_PowerState@COPOSCoinDispenser@@UAGJPAJ@Z 10027b00 f   CoinDispenserImpl.obj
 0001:00026b30       ?get_CapStatisticsReporting@COPOSCoinDispenser@@UAGJPAF@Z 10027b30 f   CoinDispenserImpl.obj
 0001:00026b60       ?get_CapUpdateStatistics@COPOSCoinDispenser@@UAGJPAF@Z 10027b60 f   CoinDispenserImpl.obj
 0001:00026b90       ?ResetStatistics@COPOSCoinDispenser@@UAGJPA_WPAJ@Z 10027b90 f   CoinDispenserImpl.obj
 0001:00026c40       ?RetrieveStatistics@COPOSCoinDispenser@@UAGJPAPA_WPAJ@Z 10027c40 f   CoinDispenserImpl.obj
 0001:00026cf0       ?UpdateStatistics@COPOSCoinDispenser@@UAGJPA_WPAJ@Z 10027cf0 f   CoinDispenserImpl.obj
 0001:00026da0       ?get_CapCompareFirmwareVersion@COPOSCoinDispenser@@UAGJPAF@Z 10027da0 f   CoinDispenserImpl.obj
 0001:00026dd0       ?get_CapUpdateFirmware@COPOSCoinDispenser@@UAGJPAF@Z 10027dd0 f   CoinDispenserImpl.obj
 0001:00026e00       ?CompareFirmwareVersion@COPOSCoinDispenser@@UAGJPA_WPAJ1@Z 10027e00 f   CoinDispenserImpl.obj
 0001:00026ef0       ?UpdateFirmware@COPOSCoinDispenser@@UAGJPA_WPAJ@Z 10027ef0 f   CoinDispenserImpl.obj
 0001:00026fa0       ?AdjustCashCounts@COPOSCoinDispenser@@UAGJPA_WPAJ@Z 10027fa0 f   CoinDispenserImpl.obj
 0001:00027050       ?ReadCashCounts@COPOSCoinDispenser@@UAGJPAPA_WPAFPAJ@Z 10028050 f   CoinDispenserImpl.obj
 0001:00027140       ??0?$CComControl@VCOPOSCoinDispenser@@V?$CWindowImpl@VCOPOSCoinDispenser@@VCWindow@ATL@@V?$CWinTraits@$0FGAAAAAA@$0A@@3@@ATL@@@ATL@@QAE@XZ 10028140 f i CoinDispenserImpl.obj
 0001:00027180       ??0?$CComPtr@UIAdviseSink@@@ATL@@QAE@XZ 10028180 f i CoinDispenserImpl.obj
 0001:000271b0       ??0?$CComPtr@UIDataAdviseHolder@@@ATL@@QAE@XZ 100281b0 f i CoinDispenserImpl.obj
 0001:000271e0       ??0?$CComPtr@UIOleAdviseHolder@@@ATL@@QAE@XZ 100281e0 f i CoinDispenserImpl.obj
 0001:00027210       ??0?$CComPtr@UIOleClientSite@@@ATL@@QAE@XZ 10028210 f i CoinDispenserImpl.obj
 0001:00027240       ??0?$CComPtr@UIOleInPlaceSiteWindowless@@@ATL@@QAE@XZ 10028240 f i CoinDispenserImpl.obj
 0001:00027270       ??0?$CComPtrBase@UIAdviseSink@@@ATL@@IAE@XZ 10028270 f i CoinDispenserImpl.obj
 0001:00027290       ??0?$CComPtrBase@UIDataAdviseHolder@@@ATL@@IAE@XZ 10028290 f i CoinDispenserImpl.obj
 0001:000272b0       ??0?$CComPtrBase@UIOleAdviseHolder@@@ATL@@IAE@XZ 100282b0 f i CoinDispenserImpl.obj
 0001:000272d0       ??0?$CComPtrBase@UIOleClientSite@@@ATL@@IAE@XZ 100282d0 f i CoinDispenserImpl.obj
 0001:000272f0       ??0?$CComPtrBase@UIOleInPlaceSiteWindowless@@@ATL@@IAE@XZ 100282f0 f i CoinDispenserImpl.obj
 0001:00027310       ??0?$CComQIPtr@UIDispatch@@$1?_GUID_00020400_0000_0000_c000_000000000046@@3U__s_GUID@@B@ATL@@QAE@XZ 10028310 f i CoinDispenserImpl.obj
 0001:00027340       ??0?$CProxy_IOPOSEvents@VCOPOSCoinDispenser@@@@QAE@PAVCOPOSCoinDispenser@@@Z 10028340 f i CoinDispenserImpl.obj
 0001:00027390       ??0?$CWindowImpl@VCOPOSCoinDispenser@@VCWindow@ATL@@V?$CWinTraits@$0FGAAAAAA@$0A@@3@@ATL@@QAE@XZ 10028390 f i CoinDispenserImpl.obj
 0001:000273c0       ??0?$CWindowImplBaseT@VCWindow@ATL@@V?$CWinTraits@$0FGAAAAAA@$0A@@2@@ATL@@QAE@XZ 100283c0 f i CoinDispenserImpl.obj
 0001:00027400       ??0?$CWindowImplRoot@VCWindow@ATL@@@ATL@@QAE@XZ 10028400 f i CoinDispenserImpl.obj
 0001:00027460       ??0?$IConnectionPointContainerImpl@VCOPOSCoinDispenser@@@ATL@@QAE@XZ 10028460 f i CoinDispenserImpl.obj
 0001:00027490       ??0?$IConnectionPointImpl@VCOPOSCoinDispenser@@$1?DIID__IOPOSCoinDispenserEvents@@3U_GUID@@BVCComDynamicUnkArray@ATL@@@ATL@@QAE@XZ 10028490 f i CoinDispenserImpl.obj
 0001:000274d0       ??0?$IConnectionPointImpl@VCOPOSCoinDispenser@@$1?IID_IPropertyNotifySink@@3U_GUID@@BVCComDynamicUnkArray@ATL@@@ATL@@QAE@XZ 100284d0 f i CoinDispenserImpl.obj
 0001:00027510       ??0?$IDataObjectImpl@VCOPOSCoinDispenser@@@ATL@@QAE@XZ 10028510 f i CoinDispenserImpl.obj
 0001:00027540       ??0?$IDispatchImpl@UIOPOSCoinDispenser@@$1?IID_IOPOSCoinDispenser@@3U_GUID@@B$1?LIBID_OposCoinDispenser_CCO@@3U3@B$00$0A@VCComTypeInfoHolder@ATL@@@ATL@@QAE@XZ 10028540 f i CoinDispenserImpl.obj
 0001:00027570       ??0?$IObjectSafetyImpl@VCOPOSCoinDispenser@@$02@ATL@@QAE@XZ 10028570 f i CoinDispenserImpl.obj
 0001:000275b0       ??0?$IOleControlImpl@VCOPOSCoinDispenser@@@ATL@@QAE@XZ 100285b0 f i CoinDispenserImpl.obj
 0001:000275e0       ??0?$IOleInPlaceActiveObjectImpl@VCOPOSCoinDispenser@@@ATL@@QAE@XZ 100285e0 f i CoinDispenserImpl.obj
 0001:00027610       ??0?$IOleInPlaceObjectWindowlessImpl@VCOPOSCoinDispenser@@@ATL@@QAE@XZ 10028610 f i CoinDispenserImpl.obj
 0001:00027640       ??0?$IOleObjectImpl@VCOPOSCoinDispenser@@@ATL@@QAE@XZ 10028640 f i CoinDispenserImpl.obj
 0001:00027670       ??0?$IPersistStorageImpl@VCOPOSCoinDispenser@@@ATL@@QAE@XZ 10028670 f i CoinDispenserImpl.obj
 0001:000276a0       ??0?$IPersistStreamInitImpl@VCOPOSCoinDispenser@@@ATL@@QAE@XZ 100286a0 f i CoinDispenserImpl.obj
 0001:000276d0       ??0?$IPropertyNotifySinkCP@VCOPOSCoinDispenser@@VCComDynamicUnkArray@ATL@@@ATL@@QAE@XZ 100286d0 f i CoinDispenserImpl.obj
 0001:00027700       ??0?$IProvideClassInfo2Impl@$1?CLSID_OPOSCoinDispenser@@3U_GUID@@B$1?DIID__IOPOSCoinDispenserEvents@@3U2@B$1?LIBID_OposCoinDispenser_CCO@@3U2@B$00$0A@VCComTypeInfoHolder@ATL@@@ATL@@QAE@XZ 10028700 f i CoinDispenserImpl.obj
 0001:00027730       ??0?$IQuickActivateImpl@VCOPOSCoinDispenser@@@ATL@@QAE@XZ 10028730 f i CoinDispenserImpl.obj
 0001:00027760       ??0?$ISpecifyPropertyPagesImpl@VCOPOSCoinDispenser@@@ATL@@QAE@XZ 10028760 f i CoinDispenserImpl.obj
 0001:00027790       ??0?$IViewObjectExImpl@VCOPOSCoinDispenser@@@ATL@@QAE@XZ 10028790 f i CoinDispenserImpl.obj
 0001:000277c0       ??0?$_ICPLocator@$1?DIID__IOPOSCoinDispenserEvents@@3U_GUID@@B@ATL@@QAE@XZ 100287c0 f i CoinDispenserImpl.obj
 0001:000277e0       ??0?$_ICPLocator@$1?IID_IPropertyNotifySink@@3U_GUID@@B@ATL@@QAE@XZ 100287e0 f i CoinDispenserImpl.obj
 0001:00027800       ??0CComControlBase@ATL@@QAE@AAPAUHWND__@@@Z 10028800 f i CoinDispenserImpl.obj
 0001:000279b0       ??0CComDynamicUnkArray@ATL@@QAE@XZ 100289b0 f i CoinDispenserImpl.obj
 0001:000279e0       ??0CDynamicStdCallThunk2@ATL@@QAE@XZ 100289e0 f i CoinDispenserImpl.obj
 0001:00027a00       ??0CMessageMap@ATL@@QAE@XZ 10028a00 f i CoinDispenserImpl.obj
 0001:00027a20       ??0CWindow@ATL@@QAE@PAUHWND__@@@Z 10028a20 f i CoinDispenserImpl.obj
 0001:00027a40       ??0CWndProcThunk@ATL@@QAE@XZ 10028a40 f i CoinDispenserImpl.obj
 0001:00027a70       ??0IConnectionPointContainer@@QAE@XZ 10028a70 f i CoinDispenserImpl.obj
 0001:00027aa0       ??0IDataObject@@QAE@XZ     10028aa0 f i CoinDispenserImpl.obj
 0001:00027ad0       ??0IDispatch@@QAE@XZ       10028ad0 f i CoinDispenserImpl.obj
 0001:00027b00       ??0IOPOSCoinDispenser@@QAE@XZ 10028b00 f i CoinDispenserImpl.obj
 0001:00027b30       ??0IOPOSCoinDispenser_1_11@@QAE@XZ 10028b30 f i CoinDispenserImpl.obj
 0001:00027b60       ??0IOPOSCoinDispenser_1_5@@QAE@XZ 10028b60 f i CoinDispenserImpl.obj
 0001:00027b90       ??0IOPOSCoinDispenser_1_8@@QAE@XZ 10028b90 f i CoinDispenserImpl.obj
 0001:00027bc0       ??0IOPOSCoinDispenser_1_9@@QAE@XZ 10028bc0 f i CoinDispenserImpl.obj
 0001:00027bf0       ??0IObjectSafety@@QAE@XZ   10028bf0 f i CoinDispenserImpl.obj
 0001:00027c20       ??0IOleControl@@QAE@XZ     10028c20 f i CoinDispenserImpl.obj
 0001:00027c50       ??0IOleInPlaceActiveObject@@QAE@XZ 10028c50 f i CoinDispenserImpl.obj
 0001:00027c80       ??0IOleInPlaceObject@@QAE@XZ 10028c80 f i CoinDispenserImpl.obj
 0001:00027cb0       ??0IOleInPlaceObjectWindowless@@QAE@XZ 10028cb0 f i CoinDispenserImpl.obj
 0001:00027ce0       ??0IOleObject@@QAE@XZ      10028ce0 f i CoinDispenserImpl.obj
 0001:00027d10       ??0IOleWindow@@QAE@XZ      10028d10 f i CoinDispenserImpl.obj
 0001:00027d40       ??0IPersist@@QAE@XZ        10028d40 f i CoinDispenserImpl.obj
 0001:00027d70       ??0IPersistStorage@@QAE@XZ 10028d70 f i CoinDispenserImpl.obj
 0001:00027da0       ??0IPersistStreamInit@@QAE@XZ 10028da0 f i CoinDispenserImpl.obj
 0001:00027dd0       ??0IProvideClassInfo2@@QAE@XZ 10028dd0 f i CoinDispenserImpl.obj
 0001:00027e00       ??0IProvideClassInfo@@QAE@XZ 10028e00 f i CoinDispenserImpl.obj
 0001:00027e30       ??0IQuickActivate@@QAE@XZ  10028e30 f i CoinDispenserImpl.obj
 0001:00027e60       ??0ISpecifyPropertyPages@@QAE@XZ 10028e60 f i CoinDispenserImpl.obj
 0001:00027e90       ??0IViewObject2@@QAE@XZ    10028e90 f i CoinDispenserImpl.obj
 0001:00027ec0       ??0IViewObject@@QAE@XZ     10028ec0 f i CoinDispenserImpl.obj
 0001:00027ef0       ??0IViewObjectEx@@QAE@XZ   10028ef0 f i CoinDispenserImpl.obj
 0001:00027f20       ??0OposVariantResult@@QAE@XZ 10028f20 f i CoinDispenserImpl.obj
 0001:00027f50       ??0_CW@@QAE@PBD@Z          10028f50 f i CoinDispenserImpl.obj
 0001:00027f90       ??0_CW@@QAE@PB_W@Z         10028f90 f i CoinDispenserImpl.obj
 0001:00027fd0       ??0_CWNCC@@QAE@PBD@Z       10028fd0 f i CoinDispenserImpl.obj
 0001:00028000       ??1?$CComControl@VCOPOSCoinDispenser@@V?$CWindowImpl@VCOPOSCoinDispenser@@VCWindow@ATL@@V?$CWinTraits@$0FGAAAAAA@$0A@@3@@ATL@@@ATL@@UAE@XZ 10029000 f i CoinDispenserImpl.obj
 0001:00028030       ??1?$CComPtr@UIDataAdviseHolder@@@ATL@@QAE@XZ 10029030 f i CoinDispenserImpl.obj
 0001:00028060       ??1?$CComPtr@UIOleAdviseHolder@@@ATL@@QAE@XZ 10029060 f i CoinDispenserImpl.obj
 0001:00028090       ??1?$CComPtr@UIOleInPlaceSiteWindowless@@@ATL@@QAE@XZ 10029090 f i CoinDispenserImpl.obj
 0001:000280c0       ??1?$CComPtrBase@UIDataAdviseHolder@@@ATL@@QAE@XZ 100290c0 f i CoinDispenserImpl.obj
 0001:00028110       ??1?$CComPtrBase@UIOleAdviseHolder@@@ATL@@QAE@XZ 10029110 f i CoinDispenserImpl.obj
 0001:00028160       ??1?$CComPtrBase@UIOleInPlaceSiteWindowless@@@ATL@@QAE@XZ 10029160 f i CoinDispenserImpl.obj
 0001:000281b0       ??1?$CComQIPtr@UIDispatch@@$1?_GUID_00020400_0000_0000_c000_000000000046@@3U__s_GUID@@B@ATL@@QAE@XZ 100291b0 f i CoinDispenserImpl.obj
 0001:000281e0       ??1?$CProxy_IOPOSEvents@VCOPOSCoinDispenser@@@@QAE@XZ 100291e0 f i CoinDispenserImpl.obj
 0001:00028210       ??1?$CWindowImpl@VCOPOSCoinDispenser@@VCWindow@ATL@@V?$CWinTraits@$0FGAAAAAA@$0A@@3@@ATL@@UAE@XZ 10029210 f i CoinDispenserImpl.obj
 0001:00028240       ??1?$CWindowImplBaseT@VCWindow@ATL@@V?$CWinTraits@$0FGAAAAAA@$0A@@2@@ATL@@UAE@XZ 10029240 f i CoinDispenserImpl.obj
 0001:00028270       ??1?$CWindowImplRoot@VCWindow@ATL@@@ATL@@UAE@XZ 10029270 f i CoinDispenserImpl.obj
 0001:00028310       ??1?$IConnectionPointImpl@VCOPOSCoinDispenser@@$1?DIID__IOPOSCoinDispenserEvents@@3U_GUID@@BVCComDynamicUnkArray@ATL@@@ATL@@QAE@XZ 10029310 f i CoinDispenserImpl.obj
 0001:00028390       ??1?$IConnectionPointImpl@VCOPOSCoinDispenser@@$1?IID_IPropertyNotifySink@@3U_GUID@@BVCComDynamicUnkArray@ATL@@@ATL@@QAE@XZ 10029390 f i CoinDispenserImpl.obj
 0001:00028410       ??1?$IPropertyNotifySinkCP@VCOPOSCoinDispenser@@VCComDynamicUnkArray@ATL@@@ATL@@QAE@XZ 10029410 f i CoinDispenserImpl.obj
 0001:00028440       ??1CComControlBase@ATL@@UAE@XZ 10029440 f i CoinDispenserImpl.obj
 0001:00028500       ??1CComDynamicUnkArray@ATL@@QAE@XZ 10029500 f i CoinDispenserImpl.obj
 0001:00028540       ??1CDynamicStdCallThunk2@ATL@@QAE@XZ 10029540 f i CoinDispenserImpl.obj
 0001:00028570       ??1CWndProcThunk@ATL@@QAE@XZ 10029570 f i CoinDispenserImpl.obj
 0001:000285a0       ??1OposVariantResult@@QAE@XZ 100295a0 f i CoinDispenserImpl.obj
 0001:000285d0       ??1_CW@@QAE@XZ             100295d0 f i CoinDispenserImpl.obj
 0001:00028640       ??1_CWNCC@@QAE@XZ          10029640 f i CoinDispenserImpl.obj
 0001:00028670       ??B_CW@@QAEPB_WXZ          10029670 f i CoinDispenserImpl.obj
 0001:000286b0       ??B_CWNCC@@QAEPA_WXZ       100296b0 f i CoinDispenserImpl.obj
 0001:000286e0       ??_EOposVariant@@QAEPAXI@Z 100296e0 f i CoinDispenserImpl.obj
 0001:00028770       ?EventClaim@COPOSCoinDispenser@@IAEXXZ 10029770 f i CoinDispenserImpl.obj
 0001:000287b0       ?EventClose@COPOSCoinDispenser@@IAEXXZ 100297b0 f i CoinDispenserImpl.obj
 0001:00028850       ?EventInit@COPOSCoinDispenser@@IAEJXZ 10029850 f i CoinDispenserImpl.obj
 0001:00028a80       ?EventOpen@COPOSCoinDispenser@@IAEXXZ 10029a80 f i CoinDispenserImpl.obj
 0001:00028ac0       ?EventPreCloseRelease@COPOSCoinDispenser@@IAEXXZ 10029ac0 f i CoinDispenserImpl.obj
 0001:00028b40       ?EventUninit@COPOSCoinDispenser@@IAEXXZ 10029b40 f i CoinDispenserImpl.obj
 0001:00028c70       ?EventWindowProc@COPOSCoinDispenser@@IAGJIIJ@Z 10029c70 f i CoinDispenserImpl.obj
 0001:00028d50       ?FireEventCleanup@COPOSCoinDispenser@@IAEXXZ 10029d50 f i CoinDispenserImpl.obj
 0001:00028da0       ?FireEventSetup@COPOSCoinDispenser@@IAE_NXZ 10029da0 f i CoinDispenserImpl.obj
 0001:00028e10       ?GetModuleInstance@CComModule@ATL@@QAEPAUHINSTANCE__@@XZ 10029e10 f i CoinDispenserImpl.obj
 0001:00028e30       ?SetRC@COPOSCoinDispenser@@IAEJJ@Z 10029e30 f i CoinDispenserImpl.obj
 0001:00028e60       ?s_EventWindowProc@COPOSCoinDispenser@@KGJPAUHWND__@@IIJ@Z 10029e60 f i CoinDispenserImpl.obj
 0001:00028f00       __snwprintf                10029f00 f i CoinDispenserImpl.obj
 0001:00028f60       __vfwprintf_l              10029f60 f i CoinDispenserImpl.obj
 0001:00028f90       __vsnwprintf               10029f90 f i CoinDispenserImpl.obj
 0001:00028fc0       __vsnwprintf_l             10029fc0 f i CoinDispenserImpl.obj
 0001:00029030       _vfwprintf                 1002a030 f i CoinDispenserImpl.obj
 0001:00029052       _DebugBreak@0              1002a052 f   kernel32:KERNEL32.dll
 0001:00029058       _Sleep@4                   1002a058 f   kernel32:KERNEL32.dll
 0001:0002905e       _GetCurrentProcess@0       1002a05e f   kernel32:KERNEL32.dll
 0001:00029064       _TerminateProcess@8        1002a064 f   kernel32:KERNEL32.dll
 0001:0002906a       _MultiByteToWideChar@24    1002a06a f   kernel32:KERNEL32.dll
 0001:00029070       _WideCharToMultiByte@32    1002a070 f   kernel32:KERNEL32.dll
 0001:00029076       _DecodePointer@4           1002a076 f   kernel32:KERNEL32.dll
 0001:0002907c       _RaiseException@16         1002a07c f   kernel32:KERNEL32.dll
 0001:00029082       _GetLastError@0            1002a082 f   kernel32:KERNEL32.dll
 0001:00029088       _SetLastError@4            1002a088 f   kernel32:KERNEL32.dll
 0001:0002908e       _InitializeCriticalSectionEx@12 1002a08e f   kernel32:KERNEL32.dll
 0001:00029094       _DeleteCriticalSection@4   1002a094 f   kernel32:KERNEL32.dll
 0001:0002909a       _EncodePointer@4           1002a09a f   kernel32:KERNEL32.dll
 0001:000290a0       _EnterCriticalSection@4    1002a0a0 f   kernel32:KERNEL32.dll
 0001:000290a6       _LeaveCriticalSection@4    1002a0a6 f   kernel32:KERNEL32.dll
 0001:000290ac       _ResetEvent@4              1002a0ac f   kernel32:KERNEL32.dll
 0001:000290b2       _ReleaseMutex@4            1002a0b2 f   kernel32:KERNEL32.dll
 0001:000290b8       _WaitForSingleObject@8     1002a0b8 f   kernel32:KERNEL32.dll
 0001:000290be       _GetCurrentThreadId@0      1002a0be f   kernel32:KERNEL32.dll
 0001:000290c4       _DisableThreadLibraryCalls@4 1002a0c4 f   kernel32:KERNEL32.dll
 0001:000290ca       _FreeLibrary@4             1002a0ca f   kernel32:KERNEL32.dll
 0001:000290d0       _GetModuleFileNameW@12     1002a0d0 f   kernel32:KERNEL32.dll
 0001:000290d6       _GetModuleHandleW@4        1002a0d6 f   kernel32:KERNEL32.dll
 0001:000290dc       _GetProcAddress@8          1002a0dc f   kernel32:KERNEL32.dll
 0001:000290e2       _LoadLibraryExW@12         1002a0e2 f   kernel32:KERNEL32.dll
 0001:000290e8       _LoadResource@8            1002a0e8 f   kernel32:KERNEL32.dll
 0001:000290ee       _SizeofResource@8          1002a0ee f   kernel32:KERNEL32.dll
 0001:000290f4       _FindResourceW@12          1002a0f4 f   kernel32:KERNEL32.dll
 0001:000290fa       _GlobalAlloc@8             1002a0fa f   kernel32:KERNEL32.dll
 0001:00029100       _GlobalUnlock@4            1002a100 f   kernel32:KERNEL32.dll
 0001:00029106       _GlobalLock@4              1002a106 f   kernel32:KERNEL32.dll
 0001:0002910c       _MulDiv@12                 1002a10c f   kernel32:KERNEL32.dll
 0001:00029112       _lstrcmpiW@8               1002a112 f   kernel32:KERNEL32.dll
 0001:00029118       _DeleteFileW@4             1002a118 f   kernel32:KERNEL32.dll
 0001:0002911e       _CloseHandle@4             1002a11e f   kernel32:KERNEL32.dll
 0001:00029124       _SetEvent@4                1002a124 f   kernel32:KERNEL32.dll
 0001:0002912a       _CreateMutexW@12           1002a12a f   kernel32:KERNEL32.dll
 0001:00029130       _CreateEventW@16           1002a130 f   kernel32:KERNEL32.dll
 0001:00029136       _GetCurrentProcessId@0     1002a136 f   kernel32:KERNEL32.dll
 0001:0002913c       _LocalFree@4               1002a13c f   kernel32:KERNEL32.dll
 0001:00029142       _FormatMessageW@28         1002a142 f   kernel32:KERNEL32.dll
 0001:00029148       _GetActiveWindow@0         1002a148 f   user32:USER32.dll
 0001:0002914e       _MessageBoxW@16            1002a14e f   user32:USER32.dll
 0001:00029154       _UnregisterClassW@8        1002a154 f   user32:USER32.dll
 0001:0002915a       _PostMessageW@16           1002a15a f   user32:USER32.dll
 0001:00029160       _DefWindowProcW@16         1002a160 f   user32:USER32.dll
 0001:00029166       _CallWindowProcW@20        1002a166 f   user32:USER32.dll
 0001:0002916c       _RegisterClassExW@4        1002a16c f   user32:USER32.dll
 0001:00029172       _GetClassInfoExW@12        1002a172 f   user32:USER32.dll
 0001:00029178       _CreateWindowExW@48        1002a178 f   user32:USER32.dll
 0001:0002917e       _IsWindow@4                1002a17e f   user32:USER32.dll
 0001:00029184       _IsChild@8                 1002a184 f   user32:USER32.dll
 0001:0002918a       _DestroyWindow@4           1002a18a f   user32:USER32.dll
 0001:00029190       _ShowWindow@8              1002a190 f   user32:USER32.dll
 0001:00029196       _SetWindowPos@28           1002a196 f   user32:USER32.dll
 0001:0002919c       _CharNextW@4               1002a19c f   user32:USER32.dll
 0001:000291a2       _SetFocus@4                1002a1a2 f   user32:USER32.dll
 0001:000291a8       _GetFocus@0                1002a1a8 f   user32:USER32.dll
 0001:000291ae       _GetKeyState@4             1002a1ae f   user32:USER32.dll
 0001:000291b4       _GetDC@4                   1002a1b4 f   user32:USER32.dll
 0001:000291ba       _ReleaseDC@8               1002a1ba f   user32:USER32.dll
 0001:000291c0       _BeginPaint@8              1002a1c0 f   user32:USER32.dll
 0001:000291c6       _EndPaint@8                1002a1c6 f   user32:USER32.dll
 0001:000291cc       _SetWindowRgn@12           1002a1cc f   user32:USER32.dll
 0001:000291d2       _InvalidateRect@12         1002a1d2 f   user32:USER32.dll
 0001:000291d8       _GetClientRect@8           1002a1d8 f   user32:USER32.dll
 0001:000291de       _IntersectRect@12          1002a1de f   user32:USER32.dll
 0001:000291e4       _UnionRect@12              1002a1e4 f   user32:USER32.dll
 0001:000291ea       _OffsetRect@12             1002a1ea f   user32:USER32.dll
 0001:000291f0       _EqualRect@8               1002a1f0 f   user32:USER32.dll
 0001:000291f6       _PtInRect@12               1002a1f6 f   user32:USER32.dll
 0001:000291fc       _GetWindowLongW@8          1002a1fc f   user32:USER32.dll
 0001:00029202       _SetWindowLongW@12         1002a202 f   user32:USER32.dll
 0001:00029208       _GetParent@4               1002a208 f   user32:USER32.dll
 0001:0002920e       _LoadCursorW@8             1002a20e f   user32:USER32.dll
 0001:00029214       _PeekMessageW@20           1002a214 f   user32:USER32.dll
 0001:0002921a       _RegisterClassW@4          1002a21a f   user32:USER32.dll
 0001:00029220       _LoadBitmapW@8             1002a220 f   user32:USER32.dll
 0001:00029226       _CloseMetaFile@4           1002a226 f   gdi32:GDI32.dll
 0001:0002922c       _CreateDCW@16              1002a22c f   gdi32:GDI32.dll
 0001:00029232       _CreateMetaFileW@4         1002a232 f   gdi32:GDI32.dll
 0001:00029238       _CreateRectRgnIndirect@4   1002a238 f   gdi32:GDI32.dll
 0001:0002923e       _DeleteDC@4                1002a23e f   gdi32:GDI32.dll
 0001:00029244       _DeleteMetaFile@4          1002a244 f   gdi32:GDI32.dll
 0001:0002924a       _GetDeviceCaps@8           1002a24a f   gdi32:GDI32.dll
 0001:00029250       _RestoreDC@8               1002a250 f   gdi32:GDI32.dll
 0001:00029256       _SaveDC@4                  1002a256 f   gdi32:GDI32.dll
 0001:0002925c       _SetMapMode@8              1002a25c f   gdi32:GDI32.dll
 0001:00029262       _LPtoDP@12                 1002a262 f   gdi32:GDI32.dll
 0001:00029268       _SetViewportOrgEx@16       1002a268 f   gdi32:GDI32.dll
 0001:0002926e       _SetWindowExtEx@16         1002a26e f   gdi32:GDI32.dll
 0001:00029274       _SetWindowOrgEx@16         1002a274 f   gdi32:GDI32.dll
 0001:0002927a       _BitBlt@36                 1002a27a f   gdi32:GDI32.dll
 0001:00029280       _CreateCompatibleDC@4      1002a280 f   gdi32:GDI32.dll
 0001:00029286       _DeleteObject@4            1002a286 f   gdi32:GDI32.dll
 0001:0002928c       _SelectObject@8            1002a28c f   gdi32:GDI32.dll
 0001:00029292       _GetObjectW@12             1002a292 f   gdi32:GDI32.dll
 0001:00029298       _RegCloseKey@4             1002a298 f   advapi32:ADVAPI32.dll
 0001:0002929e       _RegCreateKeyExW@36        1002a29e f   advapi32:ADVAPI32.dll
 0001:000292a4       _RegDeleteKeyW@8           1002a2a4 f   advapi32:ADVAPI32.dll
 0001:000292aa       _RegDeleteValueW@8         1002a2aa f   advapi32:ADVAPI32.dll
 0001:000292b0       _RegEnumKeyExW@32          1002a2b0 f   advapi32:ADVAPI32.dll
 0001:000292b6       _RegOpenKeyExW@20          1002a2b6 f   advapi32:ADVAPI32.dll
 0001:000292bc       _RegQueryInfoKeyW@48       1002a2bc f   advapi32:ADVAPI32.dll
 0001:000292c2       _RegSetValueExW@24         1002a2c2 f   advapi32:ADVAPI32.dll
 0001:000292c8       _RegQueryValueExW@24       1002a2c8 f   advapi32:ADVAPI32.dll
 0001:000292ce       _CoCreateInstance@20       1002a2ce f   ole32:ole32.dll
 0001:000292d4       _StringFromGUID2@12        1002a2d4 f   ole32:ole32.dll
 0001:000292da       _CoTaskMemAlloc@4          1002a2da f   ole32:ole32.dll
 0001:000292e0       _CoTaskMemRealloc@8        1002a2e0 f   ole32:ole32.dll
 0001:000292e6       _CoTaskMemFree@4           1002a2e6 f   ole32:ole32.dll
 0001:000292ec       _ReadClassStm@8            1002a2ec f   ole32:ole32.dll
 0001:000292f2       _WriteClassStm@8           1002a2f2 f   ole32:ole32.dll
 0001:000292f8       _CreateDataAdviseHolder@4  1002a2f8 f   ole32:ole32.dll
 0001:000292fe       _OleSaveToStream@8         1002a2fe f   ole32:ole32.dll
 0001:00029304       _CreateOleAdviseHolder@4   1002a304 f   ole32:ole32.dll
 0001:0002930a       _OleRegGetUserType@12      1002a30a f   ole32:ole32.dll
 0001:00029310       _OleRegGetMiscStatus@12    1002a310 f   ole32:ole32.dll
 0001:00029316       _OleRegEnumVerbs@8         1002a316 f   ole32:ole32.dll
 0001:0002931c       _CLSIDFromProgID@8         1002a31c f   ole32:ole32.dll
 0001:00029322       _SysAllocString@4          1002a322 f   oleaut32:OLEAUT32.dll
 0001:00029328       _SysAllocStringLen@8       1002a328 f   oleaut32:OLEAUT32.dll
 0001:0002932e       _SysFreeString@4           1002a32e f   oleaut32:OLEAUT32.dll
 0001:00029334       _SysStringLen@4            1002a334 f   oleaut32:OLEAUT32.dll
 0001:0002933a       _VariantClear@4            1002a33a f   oleaut32:OLEAUT32.dll
 0001:00029340       _VariantCopyInd@8          1002a340 f   oleaut32:OLEAUT32.dll
 0001:00029346       _VariantChangeType@16      1002a346 f   oleaut32:OLEAUT32.dll
 0001:0002934c       _SysStringByteLen@4        1002a34c f   oleaut32:OLEAUT32.dll
 0001:00029352       _SysAllocStringByteLen@8   1002a352 f   oleaut32:OLEAUT32.dll
 0001:00029358       _VariantInit@4             1002a358 f   oleaut32:OLEAUT32.dll
 0001:0002935e       _VarUI4FromStr@16          1002a35e f   oleaut32:OLEAUT32.dll
 0001:00029364       _LoadTypeLib@8             1002a364 f   oleaut32:OLEAUT32.dll
 0001:0002936a       _LoadRegTypeLib@20         1002a36a f   oleaut32:OLEAUT32.dll
 0001:00029370       _RegisterTypeLib@12        1002a370 f   oleaut32:OLEAUT32.dll
 0001:00029376       _UnRegisterTypeLib@20      1002a376 f   oleaut32:OLEAUT32.dll
 0001:0002937c       _OleCreatePropertyFrame@44 1002a37c f   oleaut32:OLEAUT32.dll
 0001:00029390       @_RTC_AllocaHelper@12      1002a390 f   LIBCMTD:stack.obj
 0001:000293d0       @_RTC_CheckStackVars2@12   1002a3d0 f   LIBCMTD:stack.obj
 0001:000294b0       @_RTC_CheckStackVars@8     1002a4b0 f   LIBCMTD:stack.obj
 0001:00029520       __RTC_CheckEsp             1002a520 f   LIBCMTD:stack.obj
 0001:00029560       @__security_check_cookie@4 1002a560 f   LIBCMTD:secchk.obj
 0001:00029580       __CRT_RTC_INIT             1002a580 f   LIBCMTD:init.obj
 0001:00029590       __CRT_RTC_INITW            1002a590 f   LIBCMTD:init.obj
 0001:000295a0       __RTC_InitBase             1002a5a0 f   LIBCMTD:init.obj
 0001:000295d0       __RTC_Shutdown             1002a5d0 f   LIBCMTD:init.obj
 0001:000295f0       ??_U@YAPAXI@Z              1002a5f0 f   LIBCMTD:new_array.obj
 0001:00029610       ??3@YAXPAXI@Z              1002a610 f   LIBCMTD:delete_scalar_size.obj
 0001:00029630       ??_V@YAXPAX@Z              1002a630 f   LIBCMTD:delete_array.obj
 0001:00029650       ??_V@YAXPAXI@Z             1002a650 f   LIBCMTD:delete_array_size.obj
 0001:00029670       ?configure_argv@__scrt_narrow_argv_policy@@SAHXZ 1002a670 f i LIBCMTD:utility.obj
 0001:00029720       ?initialize_environment@__scrt_narrow_environment_policy@@SAHXZ 1002a720 f i LIBCMTD:utility.obj
 0001:000297a0       _NtCurrentTeb              1002a7a0 f i LIBCMTD:utility.obj
 0001:000297b0       ___scrt_acquire_startup_lock 1002a7b0 f   LIBCMTD:utility.obj
 0001:00029800       ___scrt_dllmain_after_initialize_c 1002a800 f   LIBCMTD:utility.obj
 0001:00029830       ___scrt_dllmain_before_initialize_c 1002a830 f   LIBCMTD:utility.obj
 0001:00029850       ___scrt_dllmain_crt_thread_attach 1002a850 f   LIBCMTD:utility.obj
 0001:00029880       ___scrt_dllmain_crt_thread_detach 1002a880 f   LIBCMTD:utility.obj
 0001:000298a0       ___scrt_dllmain_exception_filter 1002a8a0 f   LIBCMTD:utility.obj
 0001:000298f0       ___scrt_dllmain_uninitialize_c 1002a8f0 f   LIBCMTD:utility.obj
 0001:00029920       ___scrt_dllmain_uninitialize_critical 1002a920 f   LIBCMTD:utility.obj
 0001:00029940       ___scrt_initialize_crt     1002a940 f   LIBCMTD:utility.obj
 0001:00029990       ___scrt_initialize_onexit_tables 1002a990 f   LIBCMTD:utility.obj
 0001:00029a70       ___scrt_is_nonwritable_in_current_image 1002aa70 f   LIBCMTD:utility.obj
 0001:00029ba0       ___scrt_release_startup_lock 1002aba0 f   LIBCMTD:utility.obj
 0001:00029bd0       ___scrt_uninitialize_crt   1002abd0 f   LIBCMTD:utility.obj
 0001:00029c10       __onexit                   1002ac10 f   LIBCMTD:utility.obj
 0001:00029c80       _at_quick_exit             1002ac80 f   LIBCMTD:utility.obj
 0001:00029cc0       _atexit                    1002acc0 f   LIBCMTD:utility.obj
 0001:00029cf0       ??3@YAXPAX@Z               1002acf0 f   LIBCMTD:delete_scalar.obj
 0001:00029d10       ___raise_securityfailure   1002ad10 f   LIBCMTD:gs_report.obj
 0001:00029d40       ___report_gsfailure        1002ad40 f   LIBCMTD:gs_report.obj
 0001:00029e50       ___report_rangecheckfailure 1002ae50 f   LIBCMTD:gs_report.obj
 0001:00029e60       ___report_securityfailure  1002ae60 f   LIBCMTD:gs_report.obj
 0001:00029f40       ___report_securityfailureEx 1002af40 f   LIBCMTD:gs_report.obj
 0001:0002a190       __Init_thread_abort        1002b190 f   LIBCMTD:thread_safe_statics.obj
 0001:0002a1b0       __Init_thread_footer       1002b1b0 f   LIBCMTD:thread_safe_statics.obj
 0001:0002a200       __Init_thread_header       1002b200 f   LIBCMTD:thread_safe_statics.obj
 0001:0002a270       __Init_thread_lock         1002b270 f   LIBCMTD:thread_safe_statics.obj
 0001:0002a280       __Init_thread_notify       1002b280 f   LIBCMTD:thread_safe_statics.obj
 0001:0002a2d0       __Init_thread_unlock       1002b2d0 f   LIBCMTD:thread_safe_statics.obj
 0001:0002a2e0       __Init_thread_wait         1002b2e0 f   LIBCMTD:thread_safe_statics.obj
 0001:0002a370       ??2@YAPAXIABUnothrow_t@std@@@Z 1002b370 f   LIBCMTD:new_scalar_nothrow.obj
 0001:0002a3f0       ??_U@YAPAXIABUnothrow_t@std@@@Z 1002b3f0 f   LIBCMTD:new_array_nothrow.obj
 0001:0002a410       __allmul                   1002b410 f   LIBCMTD:llmul.obj
 0001:0002a450       __alloca_probe_16          1002b450 f   LIBCMTD:alloca16.obj
 0001:0002a466       __alloca_probe_8           1002b466     LIBCMTD:alloca16.obj
 0001:0002a480       __chkstk                   1002b480 f   LIBCMTD:chkstk.obj
 0001:0002a480       __alloca_probe             1002b480 f   LIBCMTD:chkstk.obj
 0001:0002a960       __CRT_INIT@12              1002b960 f   LIBCMTD:dll_dllmain.obj
 0001:0002a980       __DllMainCRTStartup@12     1002b980 f   LIBCMTD:dll_dllmain.obj
 0001:0002aa40       ?_RTC_AllocaFailure@@YAXPAXPAU_RTC_ALLOCA_NODE@@H@Z 1002ba40 f   LIBCMTD:error.obj
 0001:0002ab30       ?_RTC_Failure@@YAXPAXH@Z   1002bb30 f   LIBCMTD:error.obj
 0001:0002ab80       ?_RTC_StackFailure@@YAXPAXPBD@Z 1002bb80 f   LIBCMTD:error.obj
 0001:0002af40       __RTC_UninitUse            1002bf40 f   LIBCMTD:error.obj
 0001:0002aff0       __vsprintf_s_l             1002bff0 f i LIBCMTD:error.obj
 0001:0002b020       _sprintf_s                 1002c020 f i LIBCMTD:error.obj
 0001:0002b040       ?_RTC_GetErrorFunc@@YAP6AHHPBDH00ZZPBX@Z 1002c040 f   LIBCMTD:userapi.obj
 0001:0002b050       ?_RTC_GetErrorFuncW@@YAP6AHHPB_WH00ZZPBX@Z 1002c050 f   LIBCMTD:userapi.obj
 0001:0002b060       __RTC_GetErrDesc           1002c060 f   LIBCMTD:userapi.obj
 0001:0002b080       __RTC_NumErrors            1002c080 f   LIBCMTD:userapi.obj
 0001:0002b090       __RTC_SetErrorFunc         1002c090 f   LIBCMTD:userapi.obj
 0001:0002b0b0       __RTC_SetErrorFuncW        1002c0b0 f   LIBCMTD:userapi.obj
 0001:0002b0d0       __RTC_SetErrorType         1002c0d0 f   LIBCMTD:userapi.obj
 0001:0002b100       ??2@YAPAXI@Z               1002c100 f   LIBCMTD:new_scalar.obj
 0001:0002b150       ___isa_available_init      1002c150 f   LIBCMTD:cpu_disp.obj
 0001:0002b430       __get_startup_argv_mode    1002c430 f   LIBCMTD:argv_mode.obj
 0001:0002b440       ___scrt_is_ucrt_dll_in_use 1002c440 f   LIBCMTD:ucrt_detection.obj
 0001:0002b470       ___scrt_fastfail           1002c470 f   LIBCMTD:utility_desktop.obj
 0001:0002b5b0       ___scrt_get_show_window_mode 1002c5b0 f   LIBCMTD:utility_desktop.obj
 0001:0002b5f0       ___scrt_initialize_mta     1002c5f0 f   LIBCMTD:utility_desktop.obj
 0001:0002b600       ___scrt_initialize_winrt   1002c600 f   LIBCMTD:utility_desktop.obj
 0001:0002b610       ___scrt_is_managed_app     1002c610 f   LIBCMTD:utility_desktop.obj
 0001:0002b6a0       ___scrt_set_unhandled_exception_filter 1002c6a0 f   LIBCMTD:utility_desktop.obj
 0001:0002b6b0       ___scrt_exe_initialize_mta 1002c6b0 f   LIBCMTD:utility_desktop.obj
 0001:0002b6b0       ___scrt_stub_for_initialize_mta 1002c6b0 f   LIBCMTD:utility_desktop.obj
 0001:0002b6c0       ___scrt_unhandled_exception_filter@4 1002c6c0 f   LIBCMTD:utility_desktop.obj
 0001:0002b720       __crt_debugger_hook        1002c720 f   LIBCMTD:utility_desktop.obj
 0001:0002b730       @_guard_check_icall_nop@4  1002c730 f i LIBCMTD:guard_support.obj
 0001:0002b740       _ReadNoFence               1002c740 f i LIBCMTD:guard_support.obj
 0001:0002b760       _ReadPointerNoFence        1002c760 f i LIBCMTD:guard_support.obj
 0001:0002b780       __guard_icall_checks_enforced 1002c780 f i LIBCMTD:guard_support.obj
 0001:0002b820       ___security_init_cookie    1002c820 f   LIBCMTD:gs_support.obj
 0001:0002b8a0       ?__scrt_initialize_type_info@@YAXXZ 1002c8a0 f   LIBCMTD:tncleanup.obj
 0001:0002b8b0       ?__scrt_uninitialize_type_info@@YAXXZ 1002c8b0 f   LIBCMTD:tncleanup.obj
 0001:0002b8d0       ___local_stdio_scanf_options 1002c8d0 f i LIBCMTD:default_local_stdio_options.obj
 0001:0002b8e0       ___scrt_initialize_default_local_stdio_options 1002c8e0 f   LIBCMTD:default_local_stdio_options.obj
 0001:0002b920       ___scrt_get_dyn_tls_init_callback 1002c920 f   LIBCMTD:dyn_tls_init.obj
 0001:0002b930       __RTC_Initialize           1002c930 f   LIBCMTD:initsect.obj
 0001:0002b960       __RTC_Terminate            1002c960 f   LIBCMTD:initsect.obj
 0001:0002be10       ?_RTC_GetSrcLine@@YAHPAEPA_WKPAH1K@Z 1002ce10 f   LIBCMTD:pdblkup.obj
 0001:0002c1a0       __except_handler4_noexcept 1002d1a0 f   LIBCMTD:chandler4_noexcept.obj
 0001:0002c1f0       ??0bad_alloc@std@@AAE@QBD@Z 1002d1f0 f i LIBCMTD:throw_bad_alloc.obj
 0001:0002c220       ??0bad_alloc@std@@QAE@ABV01@@Z 1002d220 f i LIBCMTD:throw_bad_alloc.obj
 0001:0002c250       ??0bad_alloc@std@@QAE@XZ   1002d250 f i LIBCMTD:throw_bad_alloc.obj
 0001:0002c280       ??0bad_array_new_length@std@@QAE@ABV01@@Z 1002d280 f i LIBCMTD:throw_bad_alloc.obj
 0001:0002c2b0       ??0bad_array_new_length@std@@QAE@XZ 1002d2b0 f i LIBCMTD:throw_bad_alloc.obj
 0001:0002c2e0       ??0exception@std@@QAE@ABV01@@Z 1002d2e0 f i LIBCMTD:throw_bad_alloc.obj
 0001:0002c320       ??0exception@std@@QAE@QBDH@Z 1002d320 f i LIBCMTD:throw_bad_alloc.obj
 0001:0002c350       ??1bad_alloc@std@@UAE@XZ   1002d350 f i LIBCMTD:throw_bad_alloc.obj
 0001:0002c370       ??1bad_array_new_length@std@@UAE@XZ 1002d370 f i LIBCMTD:throw_bad_alloc.obj
 0001:0002c390       ??1exception@std@@UAE@XZ   1002d390 f i LIBCMTD:throw_bad_alloc.obj
 0001:0002c3c0       ??_Ebad_alloc@std@@UAEPAXI@Z 1002d3c0 f i LIBCMTD:throw_bad_alloc.obj
 0001:0002c3c0       ??_Gbad_alloc@std@@UAEPAXI@Z 1002d3c0 f i LIBCMTD:throw_bad_alloc.obj
 0001:0002c3f0       ??_Ebad_array_new_length@std@@UAEPAXI@Z 1002d3f0 f i LIBCMTD:throw_bad_alloc.obj
 0001:0002c3f0       ??_Gbad_array_new_length@std@@UAEPAXI@Z 1002d3f0 f i LIBCMTD:throw_bad_alloc.obj
 0001:0002c420       ??_Eexception@std@@UAEPAXI@Z 1002d420 f i LIBCMTD:throw_bad_alloc.obj
 0001:0002c420       ??_Gexception@std@@UAEPAXI@Z 1002d420 f i LIBCMTD:throw_bad_alloc.obj
 0001:0002c450       ?__scrt_throw_std_bad_alloc@@YAXXZ 1002d450 f   LIBCMTD:throw_bad_alloc.obj
 0001:0002c470       ?__scrt_throw_std_bad_array_new_length@@YAXXZ 1002d470 f   LIBCMTD:throw_bad_alloc.obj
 0001:0002c490       ?what@exception@std@@UBEPBDXZ 1002d490 f i LIBCMTD:throw_bad_alloc.obj
 0001:0002c4c0       ??1type_info@@UAE@XZ       1002d4c0 f   LIBCMTD:std_type_info_static.obj
 0001:0002c4e0       ??_Etype_info@@UAEPAXI@Z   1002d4e0 f i LIBCMTD:std_type_info_static.obj
 0001:0002c4e0       ??_Gtype_info@@UAEPAXI@Z   1002d4e0 f i LIBCMTD:std_type_info_static.obj
 0001:0002c50e       ??$?2PAUHINSTANCE__@@@Wrapper@?$CSimpleArray@PAUHINSTANCE__@@V?$CSimpleArrayEqualHelper@PAUHINSTANCE__@@@ATL@@@ATL@@SAPAXIPAPAUHINSTANCE__@@@Z 1002d50e f i atls:atlbase.obj
 0001:0002c516       ??0?$CSimpleArray@PAUHINSTANCE__@@V?$CSimpleArrayEqualHelper@PAUHINSTANCE__@@@ATL@@@ATL@@QAE@XZ 1002d516 f i atls:atlbase.obj
 0001:0002c523       ??0CAtlBaseModule@ATL@@QAE@XZ 1002d523 f   atls:atlbase.obj
 0001:0002c576       ??0Wrapper@?$CSimpleArray@PAUHINSTANCE__@@V?$CSimpleArrayEqualHelper@PAUHINSTANCE__@@@ATL@@@ATL@@QAE@ABQAUHINSTANCE__@@@Z 1002d576 f i atls:atlbase.obj
 0001:0002c586       ??0_ATL_BASE_MODULE70@ATL@@QAE@XZ 1002d586 f i atls:atlbase.obj
 0001:0002c5a9       ??1?$CSimpleArray@PAUHINSTANCE__@@V?$CSimpleArrayEqualHelper@PAUHINSTANCE__@@@ATL@@@ATL@@QAE@XZ 1002d5a9 f i atls:atlbase.obj
 0001:0002c5ae       ??1CAtlBaseModule@ATL@@QAE@XZ 1002d5ae f   atls:atlbase.obj
 0001:0002c5c4       ??1_ATL_BASE_MODULE70@ATL@@QAE@XZ 1002d5c4 f i atls:atlbase.obj
 0001:0002c5cc       ??A?$CSimpleArray@PAUHINSTANCE__@@V?$CSimpleArrayEqualHelper@PAUHINSTANCE__@@@ATL@@@ATL@@QAEAAPAUHINSTANCE__@@H@Z 1002d5cc f i atls:atlbase.obj
 0001:0002c5f1       ?Add@?$CSimpleArray@PAUHINSTANCE__@@V?$CSimpleArrayEqualHelper@PAUHINSTANCE__@@@ATL@@@ATL@@QAEHABQAUHINSTANCE__@@@Z 1002d5f1 f i atls:atlbase.obj
 0001:0002c673       ?AddResourceInstance@CAtlBaseModule@ATL@@QAE_NPAUHINSTANCE__@@@Z 1002d673 f   atls:atlbase.obj
 0001:0002c6a6       ?GetHInstanceAt@CAtlBaseModule@ATL@@QAEPAUHINSTANCE__@@H@Z 1002d6a6 f   atls:atlbase.obj
 0001:0002c6eb       ?GetSize@?$CSimpleArray@PAUHINSTANCE__@@V?$CSimpleArrayEqualHelper@PAUHINSTANCE__@@@ATL@@@ATL@@QBEHXZ 1002d6eb f i atls:atlbase.obj
 0001:0002c6ef       ?InternalSetAtIndex@?$CSimpleArray@PAUHINSTANCE__@@V?$CSimpleArrayEqualHelper@PAUHINSTANCE__@@@ATL@@@ATL@@QAEXHABQAUHINSTANCE__@@@Z 1002d6ef f i atls:atlbase.obj
 0001:0002c709       ?RemoveAll@?$CSimpleArray@PAUHINSTANCE__@@V?$CSimpleArrayEqualHelper@PAUHINSTANCE__@@@ATL@@@ATL@@QAEXXZ 1002d709 f i atls:atlbase.obj
 0001:0002c726       ?RemoveAt@?$CSimpleArray@PAUHINSTANCE__@@V?$CSimpleArrayEqualHelper@PAUHINSTANCE__@@@ATL@@@ATL@@QAEHH@Z 1002d726 f i atls:atlbase.obj
 0001:0002c774       ?RemoveResourceInstance@CAtlBaseModule@ATL@@QAE_NPAUHINSTANCE__@@@Z 1002d774 f   atls:atlbase.obj
 0001:0002c7d1       ?memmove_s@Checked@ATL@@YAXPAXIPBXI@Z 1002d7d1 f i atls:atlbase.obj
 0001:0002cb2e       ?GetCodeAddress@_stdcallthunk@ATL@@QAEPAXXZ 1002db2e f i atls:atlthunk.obj
 0001:0002cb58       ?Init@_stdcallthunk@ATL@@QAEHKPAX@Z 1002db58 f i atls:atlthunk.obj
 0001:0002cb8d       ?__AllocStdCallThunk@@YGPAXXZ 1002db8d f   atls:atlthunk.obj
 0001:0002cb92       ?__AllocStdCallThunk@ATL@@YGPAXXZ 1002db92 f   atls:atlthunk.obj
 0001:0002cb97       ?__AllocStdCallThunk_cmn@@YAPAXXZ 1002db97 f   atls:atlthunk.obj
 0001:0002cc5d       ?__FreeStdCallThunk@@YGXPAX@Z 1002dc5d f   atls:atlthunk.obj
 0001:0002cc6d       ?__FreeStdCallThunk@ATL@@YGXPAX@Z 1002dc6d f   atls:atlthunk.obj
 0001:0002cc7d       ?__FreeStdCallThunk_cmn@@YAXPAX@Z 1002dc7d f   atls:atlthunk.obj
 0001:0002cd18       _AtlThunk_AllocateData@0   1002dd18 f   atls:atlthunk.obj
 0001:0002cd7d       _AtlThunk_DataToCode@4     1002dd7d f   atls:atlthunk.obj
 0001:0002cdc4       _AtlThunk_FreeData@4       1002ddc4 f   atls:atlthunk.obj
 0001:0002ce1a       _AtlThunk_InitData@12      1002de1a f   atls:atlthunk.obj
 0001:0002ce69       _MemoryBarrier             1002de69 f i atls:atlthunk.obj
 0001:0002ce77       __InlineInterlockedCompareExchangePointer 1002de77 f i atls:atlthunk.obj
 0001:0002ce90       _memset                    1002de90 f   libvcruntimed:memset.obj
 0001:0002cff0       ??$__crt_interlocked_exchange_pointer@$$A6AXXZP6AXXZ@@YAP6AXXZPDS6AXXZQ6AXXZ@Z 1002dff0 f i libvcruntimed:purevirt.obj
 0001:0002d000       ??$__crt_interlocked_read_pointer@$$A6AXXZ@@YAP6AXXZPDS6AXXZ@Z 1002e000 f i libvcruntimed:purevirt.obj
 0001:0002d020       ?__crt_interlocked_read_32@@YAHPDH@Z 1002e020 f i libvcruntimed:purevirt.obj
 0001:0002d040       __get_purecall_handler     1002e040 f   libvcruntimed:purevirt.obj
 0001:0002d060       __purecall                 1002e060 f   libvcruntimed:purevirt.obj
 0001:0002d090       __set_purecall_handler     1002e090 f   libvcruntimed:purevirt.obj
 0001:0002d260       _memcmp                    1002e260 f   libvcruntimed:memcmp.obj
 0001:0002db30       _memcpy                    1002eb30 f   libvcruntimed:memcpy.obj
 0001:0002e0b0       _wcsstr                    1002f0b0 f   libvcruntimed:wcsstr.obj
 0001:0002e5e0       __except_handler4          1002f5e0 f   libvcruntimed:chandler4.obj
 0001:0002e7d0       ___vcrt_initialize         1002f7d0 f   libvcruntimed:initialization.obj
 0001:0002e810       ___vcrt_thread_attach      1002f810 f   libvcruntimed:initialization.obj
 0001:0002e830       ___vcrt_thread_detach      1002f830 f   libvcruntimed:initialization.obj
 0001:0002e850       ___vcrt_uninitialize       1002f850 f   libvcruntimed:initialization.obj
 0001:0002e870       ___vcrt_uninitialize_critical 1002f870 f   libvcruntimed:initialization.obj
 0001:0002e890       ??$?0AAViterator@TryBlockMap@__FrameHandler3@@AAV012@$0A@@?$pair@Viterator@TryBlockMap@__FrameHandler3@@V123@@std@@QAE@AAViterator@TryBlockMap@__FrameHandler3@@0@Z 1002f890 f i libvcruntimed:trnsctrl.obj
 0001:0002e8e0       ??$forward@AAViterator@TryBlockMap@__FrameHandler3@@@std@@YAAAViterator@TryBlockMap@__FrameHandler3@@AAV123@@Z 1002f8e0 f i libvcruntimed:trnsctrl.obj
 0001:0002e8f0       ??0iterator@TryBlockMap@__FrameHandler3@@QAE@AAV12@I@Z 1002f8f0 f i libvcruntimed:trnsctrl.obj
 0001:0002e920       ?GetRangeOfTrysToCheck@__FrameHandler3@@SA?AU?$pair@Viterator@TryBlockMap@__FrameHandler3@@V123@@std@@AAVTryBlockMap@1@HPAXPBU_s_FuncInfo@@H@Z 1002f920 f   libvcruntimed:trnsctrl.obj
 0001:0002ea00       ?_CallCatchBlock2@@YAPAXPAUEHRegistrationNode@@PBU_s_FuncInfo@@PAXHK@Z 1002fa00 f   libvcruntimed:trnsctrl.obj
 0001:0002ea70       ?_CallSETranslator@@YAHPAUEHExceptionRecord@@PAUEHRegistrationNode@@PAX2PBU_s_FuncInfo@@H1@Z 1002fa70 f   libvcruntimed:trnsctrl.obj
 0001:0002eb70       ?_JumpToContinuation@@YGXPAXPAUEHRegistrationNode@@@Z 1002fb70 f   libvcruntimed:trnsctrl.obj
 0001:0002ebb0       ?_UnwindNestedFrames@@YGXPAUEHRegistrationNode@@PAUEHExceptionRecord@@@Z 1002fbb0 f   libvcruntimed:trnsctrl.obj
 0001:0002ec10       __CatchGuardHandler        1002fc10 f   libvcruntimed:trnsctrl.obj
 0001:0002ec60       __CreateFrameInfo          1002fc60 f   libvcruntimed:trnsctrl.obj
 0001:0002ec90       __FindAndUnlinkFrame       1002fc90 f   libvcruntimed:trnsctrl.obj
 0001:0002ed10       __TranslatorGuardHandler   1002fd10 f   libvcruntimed:trnsctrl.obj
 0001:0002edc0       ___CxxFrameHandler         1002fdc0 f   libvcruntimed:trnsctrl.obj
 0001:0002ee00       ___CxxFrameHandler2        1002fe00 f   libvcruntimed:trnsctrl.obj
 0001:0002ee40       ___CxxFrameHandler3        1002fe40 f   libvcruntimed:trnsctrl.obj
 0001:0002ee80       ___CxxLongjmpUnwind@4      1002fe80 f   libvcruntimed:trnsctrl.obj
 0001:0002eec0       ?<lambda_invoker_cdecl>@_Closure_wrapper_b3626920_1@@CAPAXI@Z 1002fec0 f i libvcruntimed:std_type_info.obj
 0001:0002eed0       ?<lambda_invoker_cdecl>@_Closure_wrapper_b3626920_2@@CAXQAX@Z 1002fed0 f i libvcruntimed:std_type_info.obj
 0001:0002eee0       ??$?RD@__crt_internal_free_policy@@QBEXQBD@Z 1002fee0 f i libvcruntimed:std_type_info.obj
 0001:0002ef00       ??$?RX@__crt_internal_free_policy@@QBEXQBX@Z 1002ff00 f i libvcruntimed:std_type_info.obj
 0001:0002ef20       ??$__crt_interlocked_compare_exchange_pointer@$$CBDPAD$$T@@YAPBDPDSBDQAD$$T@Z 1002ff20 f i libvcruntimed:std_type_info.obj
 0001:0002ef40       ??$__crt_interlocked_read_pointer@$$CBD@@YAPBDPDSBD@Z 1002ff40 f i libvcruntimed:std_type_info.obj
 0001:0002ef60       ??0?$__crt_unique_heap_ptr@DU__crt_internal_free_policy@@@@QAE@QAD@Z 1002ff60 f i libvcruntimed:std_type_info.obj
 0001:0002ef80       ??0?$__crt_unique_heap_ptr@XU__crt_internal_free_policy@@@@QAE@QAX@Z 1002ff80 f i libvcruntimed:std_type_info.obj
 0001:0002efa0       ??1?$__crt_unique_heap_ptr@DU__crt_internal_free_policy@@@@QAE@XZ 1002ffa0 f i libvcruntimed:std_type_info.obj
 0001:0002efc0       ??1?$__crt_unique_heap_ptr@XU__crt_internal_free_policy@@@@QAE@XZ 1002ffc0 f i libvcruntimed:std_type_info.obj
 0001:0002efe0       ??B?$__crt_unique_heap_ptr@DU__crt_internal_free_policy@@@@QBE_NXZ 1002ffe0 f i libvcruntimed:std_type_info.obj
 0001:0002f000       ??B?$__crt_unique_heap_ptr@XU__crt_internal_free_policy@@@@QBE_NXZ 10030000 f i libvcruntimed:std_type_info.obj
 0001:0002f020       ??B_Closure_wrapper_b3626920_1@@QBEP6APAXI@ZXZ 10030020 f i libvcruntimed:std_type_info.obj
 0001:0002f030       ??B_Closure_wrapper_b3626920_2@@QBEP6AXQAX@ZXZ 10030030 f i libvcruntimed:std_type_info.obj
 0001:0002f090       ?detach@?$__crt_unique_heap_ptr@XU__crt_internal_free_policy@@@@QAEPAXXZ 10030090 f i libvcruntimed:std_type_info.obj
 0001:0002f0c0       ?get@?$__crt_unique_heap_ptr@DU__crt_internal_free_policy@@@@QBEPADXZ 100300c0 f i libvcruntimed:std_type_info.obj
 0001:0002f0d0       ?get@?$__crt_unique_heap_ptr@XU__crt_internal_free_policy@@@@QBEPAXXZ 100300d0 f i libvcruntimed:std_type_info.obj
 0001:0002f0e0       ?is_valid@?$__crt_unique_heap_ptr@DU__crt_internal_free_policy@@@@QBE_NXZ 100300e0 f i libvcruntimed:std_type_info.obj
 0001:0002f110       ?is_valid@?$__crt_unique_heap_ptr@XU__crt_internal_free_policy@@@@QBE_NXZ 10030110 f i libvcruntimed:std_type_info.obj
 0001:0002f140       ?release@?$__crt_unique_heap_ptr@DU__crt_internal_free_policy@@@@QAEXXZ 10030140 f i libvcruntimed:std_type_info.obj
 0001:0002f170       ?release@?$__crt_unique_heap_ptr@XU__crt_internal_free_policy@@@@QAEXXZ 10030170 f i libvcruntimed:std_type_info.obj
 0001:0002f1a0       ___std_type_info_compare   100301a0 f   libvcruntimed:std_type_info.obj
 0001:0002f1d0       ___std_type_info_destroy_list 100301d0 f   libvcruntimed:std_type_info.obj
 0001:0002f210       ___std_type_info_hash      10030210 f   libvcruntimed:std_type_info.obj
 0001:0002f270       ___std_type_info_name      10030270 f   libvcruntimed:std_type_info.obj
 0001:0002f450       ___vcrt_GetModuleFileNameW 10030450 f   libvcruntimed:winapi_thunks.obj
 0001:0002f470       ___vcrt_GetModuleHandleW   10030470 f   libvcruntimed:winapi_thunks.obj
 0001:0002f480       ___vcrt_LoadLibraryExW     10030480 f   libvcruntimed:winapi_thunks.obj
 0001:0002f4a0       ??$?RD@__crt_public_free_policy@@QBEXQBD@Z 100304a0 f i libvcruntimed:std_exception.obj
 0001:0002f4c0       ??0?$__crt_unique_heap_ptr@DU__crt_public_free_policy@@@@QAE@QAD@Z 100304c0 f i libvcruntimed:std_exception.obj
 0001:0002f4e0       ??1?$__crt_unique_heap_ptr@DU__crt_public_free_policy@@@@QAE@XZ 100304e0 f i libvcruntimed:std_exception.obj
 0001:0002f500       ??B?$__crt_unique_heap_ptr@DU__crt_public_free_policy@@@@QBE_NXZ 10030500 f i libvcruntimed:std_exception.obj
 0001:0002f520       ?detach@?$__crt_unique_heap_ptr@DU__crt_public_free_policy@@@@QAEPADXZ 10030520 f i libvcruntimed:std_exception.obj
 0001:0002f550       ?get@?$__crt_unique_heap_ptr@DU__crt_public_free_policy@@@@QBEPADXZ 10030550 f i libvcruntimed:std_exception.obj
 0001:0002f560       ?is_valid@?$__crt_unique_heap_ptr@DU__crt_public_free_policy@@@@QBE_NXZ 10030560 f i libvcruntimed:std_exception.obj
 0001:0002f590       ?release@?$__crt_unique_heap_ptr@DU__crt_public_free_policy@@@@QAEXXZ 10030590 f i libvcruntimed:std_exception.obj
 0001:0002f5c0       ___std_exception_copy      100305c0 f   libvcruntimed:std_exception.obj
 0001:0002f6b0       ___std_exception_destroy   100306b0 f   libvcruntimed:std_exception.obj
 0001:0002f6e0       __CxxThrowException@8      100306e0 f   libvcruntimed:throw.obj
 0001:0002f7a0       _memmove                   100307a0 f   libvcruntimed:memmove.obj
 0001:0002fd20       __local_unwind4            10030d20 f   libvcruntimed:exsup4.obj
 0001:0002fdf8       __seh_longjmp_unwind4@4    10030df8 f   libvcruntimed:exsup4.obj
 0001:0002fe20       @_EH4_CallFilterFunc@8     10030e20 f   libvcruntimed:exsup4.obj
 0001:0002fe38       @_EH4_TransferToHandler@8  10030e38 f   libvcruntimed:exsup4.obj
 0001:0002fe54       @_EH4_GlobalUnwind2@8      10030e54 f   libvcruntimed:exsup4.obj
 0001:0002fe70       @_EH4_LocalUnwind@16       10030e70 f   libvcruntimed:exsup4.obj
 0001:0002fea0       ___except_validate_context_record 10030ea0 f   libvcruntimed:jbcxrval.obj
 0001:0002fef0       ___except_validate_jump_buffer 10030ef0 f   libvcruntimed:jbcxrval.obj
 0001:0002ff10       ___except_validate_jump_buffer_common 10030f10 f i libvcruntimed:jbcxrval.obj
 0001:0002ff70       ??$?RU__vcrt_ptd@@@__crt_internal_free_policy@@QBEXQBU__vcrt_ptd@@@Z 10030f70 f i libvcruntimed:per_thread_data.obj
 0001:0002ff90       ??0?$__crt_unique_heap_ptr@U__vcrt_ptd@@U__crt_internal_free_policy@@@@QAE@QAU__vcrt_ptd@@@Z 10030f90 f i libvcruntimed:per_thread_data.obj
 0001:0002ffd0       ??1?$__crt_unique_heap_ptr@U__vcrt_ptd@@U__crt_internal_free_policy@@@@QAE@XZ 10030fd0 f i libvcruntimed:per_thread_data.obj
 0001:00030010       ??B?$__crt_unique_heap_ptr@U__vcrt_ptd@@U__crt_internal_free_policy@@@@QBE_NXZ 10031010 f i libvcruntimed:per_thread_data.obj
 0001:00030030       ?detach@?$__crt_unique_heap_ptr@U__vcrt_ptd@@U__crt_internal_free_policy@@@@QAEPAU__vcrt_ptd@@XZ 10031030 f i libvcruntimed:per_thread_data.obj
 0001:00030060       ?get@?$__crt_unique_heap_ptr@U__vcrt_ptd@@U__crt_internal_free_policy@@@@QBEPAU__vcrt_ptd@@XZ 10031060 f i libvcruntimed:per_thread_data.obj
 0001:00030070       ?is_valid@?$__crt_unique_heap_ptr@U__vcrt_ptd@@U__crt_internal_free_policy@@@@QBE_NXZ 10031070 f i libvcruntimed:per_thread_data.obj
 0001:000300a0       ?release@?$__crt_unique_heap_ptr@U__vcrt_ptd@@U__crt_internal_free_policy@@@@QAEXXZ 100310a0 f i libvcruntimed:per_thread_data.obj
 0001:00030100       ___vcrt_freefls@4          10031100 f   libvcruntimed:per_thread_data.obj
 0001:00030130       ___vcrt_freeptd            10031130 f   libvcruntimed:per_thread_data.obj
 0001:00030190       ___vcrt_getptd             10031190 f   libvcruntimed:per_thread_data.obj
 0001:000301b0       ___vcrt_getptd_noexit      100311b0 f   libvcruntimed:per_thread_data.obj
 0001:00030310       ___vcrt_getptd_noinit      10031310 f   libvcruntimed:per_thread_data.obj
 0001:00030370       ___vcrt_initialize_ptd     10031370 f   libvcruntimed:per_thread_data.obj
 0001:000303c0       ___vcrt_uninitialize_ptd   100313c0 f   libvcruntimed:per_thread_data.obj
 0001:000303f0       ___vcrt_initialize_locks   100313f0 f   libvcruntimed:locks.obj
 0001:00030450       ___vcrt_lock               10031450 f   libvcruntimed:locks.obj
 0001:00030470       ___vcrt_uninitialize_locks 10031470 f   libvcruntimed:locks.obj
 0001:000304c0       ___vcrt_unlock             100314c0 f   libvcruntimed:locks.obj
 0001:000310f0       ??$TypeMatchHelper@V__FrameHandler3@@@@YAHPBU_s_HandlerType@@PBU_s_CatchableType@@PBU_s_ThrowInfo@@@Z 100320f0 f i libvcruntimed:frame.obj
 0001:000311d0       ??$__InternalCxxFrameHandler@V__FrameHandler3@@@@YA?AW4_EXCEPTION_DISPOSITION@@PAUEHExceptionRecord@@PAUEHRegistrationNode@@PAU_CONTEXT@@PAXPBU_s_FuncInfo@@H1E@Z 100321d0 f i libvcruntimed:frame.obj
 0001:000313b0       ??0HandlerMap@__FrameHandler3@@QAE@PBU_s_TryBlockMapEntry@@II@Z 100323b0 f i libvcruntimed:frame.obj
 0001:000313e0       ??0TryBlockMap@__FrameHandler3@@QAE@PBU_s_FuncInfo@@I@Z 100323e0 f i libvcruntimed:frame.obj
 0001:00031410       ??0bad_exception@std@@QAE@ABV01@@Z 10032410 f i libvcruntimed:frame.obj
 0001:00031440       ??0bad_exception@std@@QAE@XZ 10032440 f i libvcruntimed:frame.obj
 0001:00031470       ??0iterator@HandlerMap@__FrameHandler3@@QAE@AAV12@I@Z 10032470 f i libvcruntimed:frame.obj
 0001:000314a0       ??1bad_exception@std@@UAE@XZ 100324a0 f i libvcruntimed:frame.obj
 0001:000314c0       ??8iterator@HandlerMap@__FrameHandler3@@QBE_NABV012@@Z 100324c0 f i libvcruntimed:frame.obj
 0001:000314f0       ??8type_info@@QBE_NABV0@@Z 100324f0 f i libvcruntimed:frame.obj
 0001:00031530       ??9iterator@HandlerMap@__FrameHandler3@@QBE_NABV012@@Z 10032530 f i libvcruntimed:frame.obj
 0001:00031570       ??Diterator@HandlerMap@__FrameHandler3@@QAE?BU_s_HandlerType@@XZ 10032570 f i libvcruntimed:frame.obj
 0001:000315b0       ??Diterator@TryBlockMap@__FrameHandler3@@QAE?BU_s_TryBlockMapEntry@@XZ 100325b0 f i libvcruntimed:frame.obj
 0001:00031600       ??Eiterator@HandlerMap@__FrameHandler3@@QAEAAV012@XZ 10032600 f i libvcruntimed:frame.obj
 0001:00031620       ??Eiterator@TryBlockMap@__FrameHandler3@@QAEAAV012@XZ 10032620 f i libvcruntimed:frame.obj
 0001:00031640       ??Miterator@TryBlockMap@__FrameHandler3@@QBE_NABV012@@Z 10032640 f i libvcruntimed:frame.obj
 0001:00031670       ??_Gbad_exception@std@@UAEPAXI@Z 10032670 f i libvcruntimed:frame.obj
 0001:00031670       ??_Ebad_exception@std@@UAEPAXI@Z 10032670 f i libvcruntimed:frame.obj
 0001:000316a0       ?BuildCatchObject@__FrameHandler3@@SAXPAUEHExceptionRecord@@PAXPBU_s_HandlerType@@PBU_s_CatchableType@@@Z 100326a0 f   libvcruntimed:frame.obj
 0001:000316c0       ?BuildCatchObjectHelper@__FrameHandler3@@SAHPAUEHExceptionRecord@@PAXPBU_s_HandlerType@@PBU_s_CatchableType@@@Z 100326c0 f   libvcruntimed:frame.obj
 0001:00031a60       ?FrameUnwindToEmptyState@__FrameHandler3@@SAXPAUEHRegistrationNode@@PAXPBU_s_FuncInfo@@@Z 10032a60 f   libvcruntimed:frame.obj
 0001:00031a80       ?FrameUnwindToState@__FrameHandler3@@SAXPAUEHRegistrationNode@@PAXPBU_s_FuncInfo@@H@Z 10032a80 f   libvcruntimed:frame.obj
 0001:00031c00       ?GetMaxState@__FrameHandler3@@SAHPAXPBU_s_FuncInfo@@@Z 10032c00 f i libvcruntimed:frame.obj
 0001:00031d30       ?TypeMatch@__FrameHandler3@@SAHPBU_s_HandlerType@@PBU_s_CatchableType@@PBU_s_ThrowInfo@@@Z 10032d30 f   libvcruntimed:frame.obj
 0001:00031d50       ?_CallMemberFunction1@@YGXQAX00@Z 10032d50 f i libvcruntimed:frame.obj
 0001:00031d80       ?_CallMemberFunction2@@YGXQAX00H@Z 10032d80 f i libvcruntimed:frame.obj
 0001:00031db0       ?_ValidateExecute@@YA_NP6GHXZ@Z 10032db0 f i libvcruntimed:frame.obj
 0001:00031dd0       ?_ValidateRead@@YA_NPBXI@Z 10032dd0 f i libvcruntimed:frame.obj
 0001:00031df0       ?_ValidateWrite@@YA_NPAXI@Z 10032df0 f i libvcruntimed:frame.obj
 0001:00031e10       ?begin@HandlerMap@__FrameHandler3@@QAE?AViterator@12@XZ 10032e10 f i libvcruntimed:frame.obj
 0001:00031e30       ?end@HandlerMap@__FrameHandler3@@QAE?AViterator@12@XZ 10032e30 f i libvcruntimed:frame.obj
 0001:00031e60       ?getESTypes@__FrameHandler3@@SAPBU_s_ESTypeList@@PBU_s_FuncInfo@@@Z 10032e60 f i libvcruntimed:frame.obj
 0001:00031e70       ?getLastEntry@HandlerMap@__FrameHandler3@@QAEPBU_s_HandlerType@@XZ 10032e70 f i libvcruntimed:frame.obj
 0001:00031e90       ?getMagicNum@__FrameHandler3@@SAIPBU_s_FuncInfo@@@Z 10032e90 f i libvcruntimed:frame.obj
 0001:00031ea0       ?getNumTryBlocks@TryBlockMap@__FrameHandler3@@QAEIXZ 10032ea0 f i libvcruntimed:frame.obj
 0001:00031ec0       ?isEHs@__FrameHandler3@@SA_NPBU_s_FuncInfo@@@Z 10032ec0 f i libvcruntimed:frame.obj
 0001:00031ef0       ?isNoExcept@__FrameHandler3@@SA_NPBU_s_FuncInfo@@@Z 10032ef0 f i libvcruntimed:frame.obj
 0001:00031f20       ___BuildCatchObject        10032f20 f   libvcruntimed:frame.obj
 0001:00031f40       ___BuildCatchObjectHelper  10032f40 f   libvcruntimed:frame.obj
 0001:00031f60       ___TypeMatch               10032f60 f   libvcruntimed:frame.obj
 0001:00031f80       ___vcrt_EncodePointer      10032f80 f i libvcruntimed:frame.obj
 0001:00031f90       __CallSettingFrame@12      10032f90 f   libvcruntimed:lowhelpr.obj
 0001:00031fb7       __NLG_Return               10032fb7     libvcruntimed:lowhelpr.obj
 0001:00031fe0       ??0Block@_HeapManager@@QAE@XZ 10032fe0 f i libvcruntimed:undname.obj
 0001:00032000       ??0DName@@QAE@AAPBDD@Z     10033000 f   libvcruntimed:undname.obj
 0001:00032230       ??0DName@@QAE@ABV0@@Z      10033230 f i libvcruntimed:undname.obj
 0001:00032260       ??0DName@@QAE@D@Z          10033260 f   libvcruntimed:undname.obj
 0001:000322a0       ??0DName@@QAE@PAV0@@Z      100332a0 f   libvcruntimed:undname.obj
 0001:00032350       ??0DName@@QAE@PBD@Z        10033350 f   libvcruntimed:undname.obj
 0001:000323a0       ??0DName@@QAE@W4DNameStatus@@@Z 100333a0 f   libvcruntimed:undname.obj
 0001:00032440       ??0DName@@QAE@XZ           10033440 f i libvcruntimed:undname.obj
 0001:00032470       ??0DName@@QAE@_J@Z         10033470 f   libvcruntimed:undname.obj
 0001:00032560       ??0DName@@QAE@_K@Z         10033560 f   libvcruntimed:undname.obj
 0001:00032610       ??0DNameNode@@IAE@XZ       10033610 f i libvcruntimed:undname.obj
 0001:00032630       ??0Replicator@@QAE@XZ      10033630 f i libvcruntimed:undname.obj
 0001:00032670       ??0UnDecorator@@QAE@PBDP6APADJ@ZK@Z 10033670 f i libvcruntimed:undname.obj
 0001:000326f0       ??0charNode@@QAE@D@Z       100336f0 f i libvcruntimed:undname.obj
 0001:00032720       ??0pDNameNode@@QAE@PAVDName@@@Z 10033720 f   libvcruntimed:undname.obj
 0001:00032780       ??0pairNode@@QAE@PBVDNameNode@@0@Z 10033780 f i libvcruntimed:undname.obj
 0001:000327c0       ??0pcharNode@@QAE@PBDH@Z   100337c0 f   libvcruntimed:undname.obj
 0001:00032880       ??2@YAPAXIAAV_HeapManager@@H@Z 10033880 f i libvcruntimed:undname.obj
 0001:000328a0       ??4DName@@QAEAAV0@ABV0@@Z  100338a0 f   libvcruntimed:undname.obj
 0001:000328d0       ??4DName@@QAEAAV0@D@Z      100338d0 f i libvcruntimed:undname.obj
 0001:00032910       ??4DName@@QAEAAV0@PAV0@@Z  10033910 f   libvcruntimed:undname.obj
 0001:000329b0       ??4DName@@QAEAAV0@PBD@Z    100339b0 f   libvcruntimed:undname.obj
 0001:000329f0       ??4DName@@QAEAAV0@W4DNameStatus@@@Z 100339f0 f   libvcruntimed:undname.obj
 0001:00032a70       ??AReplicator@@QBE?AVDName@@H@Z 10033a70 f   libvcruntimed:undname.obj
 0001:00032ae0       ??H@YA?AVDName@@DABV0@@Z   10033ae0 f i libvcruntimed:undname.obj
 0001:00032b10       ??H@YA?AVDName@@PBDABV0@@Z 10033b10 f i libvcruntimed:undname.obj
 0001:00032b40       ??H@YA?AVDName@@W4DNameStatus@@ABV0@@Z 10033b40 f i libvcruntimed:undname.obj
 0001:00032b70       ??HDName@@QBE?AV0@ABV0@@Z  10033b70 f   libvcruntimed:undname.obj
 0001:00032bb0       ??HDName@@QBE?AV0@D@Z      10033bb0 f   libvcruntimed:undname.obj
 0001:00032bf0       ??HDName@@QBE?AV0@PAV0@@Z  10033bf0 f   libvcruntimed:undname.obj
 0001:00032c30       ??HDName@@QBE?AV0@PBD@Z    10033c30 f   libvcruntimed:undname.obj
 0001:00032c70       ??HDName@@QBE?AV0@W4DNameStatus@@@Z 10033c70 f   libvcruntimed:undname.obj
 0001:00032cb0       ??YDName@@QAEAAV0@ABV0@@Z  10033cb0 f   libvcruntimed:undname.obj
 0001:00032d20       ??YDName@@QAEAAV0@D@Z      10033d20 f   libvcruntimed:undname.obj
 0001:00032da0       ??YDName@@QAEAAV0@PAV0@@Z  10033da0 f   libvcruntimed:undname.obj
 0001:00032e50       ??YDName@@QAEAAV0@PBD@Z    10033e50 f   libvcruntimed:undname.obj
 0001:00032ef0       ??YDName@@QAEAAV0@W4DNameStatus@@@Z 10033ef0 f   libvcruntimed:undname.obj
 0001:00032f50       ??YReplicator@@QAEAAV0@ABVDName@@@Z 10033f50 f   libvcruntimed:undname.obj
 0001:00032fe0       ??_5DName@@QAEAAV0@ABV0@@Z 10033fe0 f   libvcruntimed:undname.obj
 0001:00033040       ?Constructor@_HeapManager@@QAEXP6APAXI@ZP6AXPAX@Z@Z 10034040 f i libvcruntimed:undname.obj
 0001:00033080       ?Destructor@_HeapManager@@QAEXXZ 10034080 f i libvcruntimed:undname.obj
 0001:000330e0       ?UScore@UnDecorator@@SAPBDW4Tokens@@@Z 100340e0 f   libvcruntimed:undname.obj
 0001:00033110       ?append@DName@@AAEXPBVDNameNode@@@Z 10034110 f   libvcruntimed:undname.obj
 0001:000331a0       ?composeDeclaration@UnDecorator@@CA?AVDName@@ABV2@@Z 100341a0 f i libvcruntimed:undname.obj
 0001:00034f20       ?dbGetString@DName@@QBEPADXZ 10035f20 f   libvcruntimed:undname.obj
 0001:00034f40       ?doAccessSpecifiers@UnDecorator@@SAHXZ 10035f40 f i libvcruntimed:undname.obj
 0001:00034f70       ?doAllocationLanguage@UnDecorator@@SAHXZ 10035f70 f i libvcruntimed:undname.obj
 0001:00034fa0       ?doAllocationModel@UnDecorator@@SAHXZ 10035fa0 f i libvcruntimed:undname.obj
 0001:00034fd0       ?doEcsu@UnDecorator@@SAHXZ 10035fd0 f i libvcruntimed:undname.obj
 0001:00035000       ?doEllipsis@UnDecorator@@SAHXZ 10036000 f i libvcruntimed:undname.obj
 0001:00035030       ?doFunctionReturns@UnDecorator@@SAHXZ 10036030 f i libvcruntimed:undname.obj
 0001:00035060       ?doMSKeywords@UnDecorator@@SAHXZ 10036060 f i libvcruntimed:undname.obj
 0001:00035090       ?doMemberTypes@UnDecorator@@SAHXZ 10036090 f i libvcruntimed:undname.obj
 0001:000350c0       ?doNameOnly@UnDecorator@@SAHXZ 100360c0 f i libvcruntimed:undname.obj
 0001:000350d0       ?doNoIdentCharCheck@UnDecorator@@SAHXZ 100360d0 f i libvcruntimed:undname.obj
 0001:000350e0       ?doPchar@DName@@AAEXPBDH@Z 100360e0 f   libvcruntimed:undname.obj
 0001:00035220       ?doPtr64@UnDecorator@@SAHXZ 10036220 f i libvcruntimed:undname.obj
 0001:00035250       ?doRestrictionSpec@UnDecorator@@SAHXZ 10036250 f i libvcruntimed:undname.obj
 0001:00035280       ?doThisTypes@UnDecorator@@SAHXZ 10036280 f i libvcruntimed:undname.obj
 0001:000352b0       ?doThrowTypes@UnDecorator@@SAHXZ 100362b0 f i libvcruntimed:undname.obj
 0001:000352e0       ?doTypeOnly@UnDecorator@@SAHXZ 100362e0 f i libvcruntimed:undname.obj
 0001:000352f0       ?doUnderScore@UnDecorator@@SAHXZ 100362f0 f i libvcruntimed:undname.obj
 0001:00035320       ?getArgumentList@UnDecorator@@CA?AVDName@@XZ 10036320 f   libvcruntimed:undname.obj
 0001:00035470       ?getArgumentTypes@UnDecorator@@CA?AVDName@@XZ 10036470 f   libvcruntimed:undname.obj
 0001:000355c0       ?getArrayType@UnDecorator@@CA?AVDName@@ABV2@@Z 100365c0 f i libvcruntimed:undname.obj
 0001:00035830       ?getBasedType@UnDecorator@@CA?AVDName@@XZ 10036830 f   libvcruntimed:undname.obj
 0001:000358f0       ?getBasicDataType@UnDecorator@@CA?AVDName@@ABV2@@Z 100368f0 f   libvcruntimed:undname.obj
 0001:00035ef0       ?getCHPEName@UnDecorator@@QAEPADPADH@Z 10036ef0 f i libvcruntimed:undname.obj
 0001:00036050       ?getCallIndex@UnDecorator@@CA?AVDName@@XZ 10037050 f i libvcruntimed:undname.obj
 0001:00036070       ?getCallingConvention@UnDecorator@@CA?AVDName@@XZ 10037070 f   libvcruntimed:undname.obj
 0001:00036250       ?getDataIndirectType@UnDecorator@@CA?AVDName@@ABV2@PBD0H@Z 10037250 f   libvcruntimed:undname.obj
 0001:00036a70       ?getDataIndirectType@UnDecorator@@CA?AVDName@@XZ 10037a70 f i libvcruntimed:undname.obj
 0001:00036ac0       ?getDataType@UnDecorator@@CA?AVDName@@PAV2@@Z 10037ac0 f   libvcruntimed:undname.obj
 0001:00036be0       ?getDecoratedName@UnDecorator@@CA?AVDName@@XZ 10037be0 f   libvcruntimed:undname.obj
 0001:00036fe0       ?getDimension@UnDecorator@@CA?AVDName@@_N@Z 10037fe0 f   libvcruntimed:undname.obj
 0001:00037290       ?getDispatchTarget@UnDecorator@@CA?AVDName@@XZ 10038290 f   libvcruntimed:undname.obj
 0001:00037330       ?getDisplacement@UnDecorator@@CA?AVDName@@XZ 10038330 f i libvcruntimed:undname.obj
 0001:00037350       ?getECSUDataType@UnDecorator@@CA?AVDName@@XZ 10038350 f   libvcruntimed:undname.obj
 0001:00037520       ?getECSUName@UnDecorator@@CA?AVDName@@XZ 10038520 f i libvcruntimed:undname.obj
 0001:00037540       ?getEnumType@UnDecorator@@CA?AVDName@@XZ 10038540 f i libvcruntimed:undname.obj
 0001:00037690       ?getExtendedDataIndirectType@UnDecorator@@CA?AVDName@@AAPBDAA_NH@Z 10038690 f   libvcruntimed:undname.obj
 0001:000378e0       ?getExternalDataType@UnDecorator@@CA?AVDName@@ABV2@@Z 100388e0 f i libvcruntimed:undname.obj
 0001:00037980       ?getFunctionIndirectType@UnDecorator@@CA?AVDName@@ABV2@@Z 10038980 f   libvcruntimed:undname.obj
 0001:00037e50       ?getGuardNumber@UnDecorator@@CA?AVDName@@XZ 10038e50 f i libvcruntimed:undname.obj
 0001:00037e70       ?getLastChar@DName@@QBEDXZ 10038e70 f i libvcruntimed:undname.obj
 0001:00037eb0       ?getLastChar@DNameStatusNode@@UBEDXZ 10038eb0 f i libvcruntimed:undname.obj
 0001:00037ee0       ?getLastChar@charNode@@UBEDXZ 10038ee0 f i libvcruntimed:undname.obj
 0001:00037f00       ?getLastChar@pDNameNode@@UBEDXZ 10038f00 f i libvcruntimed:undname.obj
 0001:00037f30       ?getLastChar@pairNode@@UBEDXZ 10038f30 f i libvcruntimed:undname.obj
 0001:00037fa0       ?getLastChar@pcharNode@@UBEDXZ 10038fa0 f i libvcruntimed:undname.obj
 0001:00037fe0       ?getLexicalFrame@UnDecorator@@CA?AVDName@@XZ 10038fe0 f i libvcruntimed:undname.obj
 0001:00038020       ?getMemory@_HeapManager@@QAEPAXIH@Z 10039020 f   libvcruntimed:undname.obj
 0001:00038140       ?getNoexcept@UnDecorator@@CA?AVDName@@XZ 10039140 f   libvcruntimed:undname.obj
 0001:000381b0       ?getNumberOfDimensions@UnDecorator@@CAHXZ 100391b0 f   libvcruntimed:undname.obj
 0001:000382b0       ?getOperatorName@UnDecorator@@CA?AVDName@@_NPA_N@Z 100392b0 f i libvcruntimed:undname.obj
 0001:00038d20       ?getPointerType@UnDecorator@@CA?AVDName@@ABV2@0@Z 10039d20 f i libvcruntimed:undname.obj
 0001:00038d50       ?getPointerTypeArray@UnDecorator@@CA?AVDName@@ABV2@0@Z 10039d50 f i libvcruntimed:undname.obj
 0001:00038d80       ?getPrimaryDataType@UnDecorator@@CA?AVDName@@ABV2@@Z 10039d80 f   libvcruntimed:undname.obj
 0001:00039180       ?getPtrRefDataType@UnDecorator@@CA?AVDName@@ABV2@H@Z 1003a180 f   libvcruntimed:undname.obj
 0001:000393b0       ?getPtrRefType@UnDecorator@@CA?AVDName@@ABV2@0PBD@Z 1003a3b0 f   libvcruntimed:undname.obj
 0001:00039520       ?getReferenceType@UnDecorator@@CA?AVDName@@ABV2@0PBD@Z 1003a520 f i libvcruntimed:undname.obj
 0001:00039540       ?getRestrictionSpec@UnDecorator@@CA?AVDName@@XZ 1003a540 f   libvcruntimed:undname.obj
 0001:000396b0       ?getReturnType@UnDecorator@@CA?AVDName@@PAV2@@Z 1003a6b0 f   libvcruntimed:undname.obj
 0001:00039700       ?getScope@UnDecorator@@CA?AVDName@@XZ 1003a700 f   libvcruntimed:undname.obj
 0001:00039c30       ?getScopedName@UnDecorator@@CA?AVDName@@XZ 1003ac30 f   libvcruntimed:undname.obj
 0001:00039d60       ?getSignedDimension@UnDecorator@@CA?AVDName@@XZ 1003ad60 f   libvcruntimed:undname.obj
 0001:00039de0       ?getStorageConvention@UnDecorator@@CA?AVDName@@XZ 1003ade0 f i libvcruntimed:undname.obj
 0001:00039e00       ?getString@DName@@QBEPADPAD0@Z 1003ae00 f i libvcruntimed:undname.obj
 0001:00039e60       ?getString@DName@@QBEPADPADH@Z 1003ae60 f i libvcruntimed:undname.obj
 0001:00039ef0       ?getString@DNameStatusNode@@UBEPADPAD0@Z 1003aef0 f i libvcruntimed:undname.obj
 0001:00039f30       ?getString@charNode@@UBEPADPAD0@Z 1003af30 f i libvcruntimed:undname.obj
 0001:00039f60       ?getString@pDNameNode@@UBEPADPAD0@Z 1003af60 f i libvcruntimed:undname.obj
 0001:00039fa0       ?getString@pairNode@@UBEPADPAD0@Z 1003afa0 f i libvcruntimed:undname.obj
 0001:0003a030       ?getString@pcharNode@@UBEPADPAD0@Z 1003b030 f i libvcruntimed:undname.obj
 0001:0003a060       ?getStringEncoding@UnDecorator@@CA?AVDName@@PBDH@Z 1003b060 f   libvcruntimed:undname.obj
 0001:0003a170       ?getStringHelper@@YAPADPADPBD1H@Z 1003b170 f i libvcruntimed:undname.obj
 0001:0003a1b0       ?getSymbolName@UnDecorator@@CA?AVDName@@XZ 1003b1b0 f i libvcruntimed:undname.obj
 0001:0003a240       ?getTemplateArgumentList@UnDecorator@@CA?AVDName@@XZ 1003b240 f   libvcruntimed:undname.obj
 0001:0003a500       ?getTemplateName@UnDecorator@@CA?AVDName@@_N@Z 1003b500 f   libvcruntimed:undname.obj
 0001:0003a6d0       ?getTemplateNonTypeArgument@UnDecorator@@CA?AVDName@@XZ 1003b6d0 f   libvcruntimed:undname.obj
 0001:0003ad00       ?getTemplateTypeArgument@UnDecorator@@CA?AVDName@@XZ 1003bd00 f   libvcruntimed:undname.obj
 0001:0003ae60       ?getThisType@UnDecorator@@CA?AVDName@@XZ 1003be60 f i libvcruntimed:undname.obj
 0001:0003aeb0       ?getThrowTypes@UnDecorator@@CA?AVDName@@XZ 1003beb0 f   libvcruntimed:undname.obj
 0001:0003aef0       ?getTypeEncoding@UnDecorator@@CAHXZ 1003bef0 f i libvcruntimed:undname.obj
 0001:0003b980       ?getUndecoratedName@UnDecorator@@QAEPADPADH@Z 1003c980 f i libvcruntimed:undname.obj
 0001:0003bad0       ?getVCallThunkType@UnDecorator@@CA?AVDName@@XZ 1003cad0 f i libvcruntimed:undname.obj
 0001:0003bb30       ?getVbTableType@UnDecorator@@CA?AVDName@@ABV2@@Z 1003cb30 f i libvcruntimed:undname.obj
 0001:0003bb50       ?getVdispMapType@UnDecorator@@CA?AVDName@@ABV2@@Z 1003cb50 f i libvcruntimed:undname.obj
 0001:0003bbc0       ?getVfTableType@UnDecorator@@CA?AVDName@@ABV2@@Z 1003cbc0 f i libvcruntimed:undname.obj
 0001:0003bd90       ?getZName@UnDecorator@@CA?AVDName@@_N0@Z 1003cd90 f   libvcruntimed:undname.obj
 0001:0003c070       ?haveTemplateParameters@UnDecorator@@SAHXZ 1003d070 f i libvcruntimed:undname.obj
 0001:0003c080       ?isArray@DName@@QBEHXZ     1003d080 f i libvcruntimed:undname.obj
 0001:0003c0a0       ?isComArray@DName@@QBEHXZ  1003d0a0 f i libvcruntimed:undname.obj
 0001:0003c0c0       ?isEmpty@DName@@QBEHXZ     1003d0c0 f i libvcruntimed:undname.obj
 0001:0003c0f0       ?isFull@Replicator@@QBEHXZ 1003d0f0 f i libvcruntimed:undname.obj
 0001:0003c120       ?isNoTE@DName@@QBEHXZ      1003d120 f i libvcruntimed:undname.obj
 0001:0003c140       ?isPinPtr@DName@@QBEHXZ    1003d140 f i libvcruntimed:undname.obj
 0001:0003c160       ?isPtrRef@DName@@QBEHXZ    1003d160 f i libvcruntimed:undname.obj
 0001:0003c180       ?isUDC@DName@@QBEHXZ       1003d180 f i libvcruntimed:undname.obj
 0001:0003c1c0       ?isUDTThunk@DName@@QBEHXZ  1003d1c0 f i libvcruntimed:undname.obj
 0001:0003c200       ?isVCallThunk@DName@@QBEHXZ 1003d200 f i libvcruntimed:undname.obj
 0001:0003c220       ?isValid@DName@@QBEHXZ     1003d220 f i libvcruntimed:undname.obj
 0001:0003c260       ?length@DName@@QBEHXZ      1003d260 f i libvcruntimed:undname.obj
 0001:0003c2a0       ?length@DNameStatusNode@@UBEHXZ 1003d2a0 f i libvcruntimed:undname.obj
 0001:0003c2c0       ?length@charNode@@UBEHXZ   1003d2c0 f i libvcruntimed:undname.obj
 0001:0003c2d0       ?length@pDNameNode@@UBEHXZ 1003d2d0 f i libvcruntimed:undname.obj
 0001:0003c300       ?length@pairNode@@UBEHXZ   1003d300 f i libvcruntimed:undname.obj
 0001:0003c370       ?length@pcharNode@@UBEHXZ  1003d370 f i libvcruntimed:undname.obj
 0001:0003c390       ?make@DNameStatusNode@@SAPBV1@W4DNameStatus@@@Z 1003d390 f i libvcruntimed:undname.obj
 0001:0003c3c0       ?parseDecoratedName@UnDecorator@@CA?AVDName@@XZ 1003d3c0 f   libvcruntimed:undname.obj
 0001:0003c540       ?setIsArray@DName@@QAEXXZ  1003d540 f i libvcruntimed:undname.obj
 0001:0003c560       ?setIsComArray@DName@@QAEXXZ 1003d560 f i libvcruntimed:undname.obj
 0001:0003c580       ?setIsNoTE@DName@@QAEXXZ   1003d580 f i libvcruntimed:undname.obj
 0001:0003c5a0       ?setIsPinPtr@DName@@QAEXXZ 1003d5a0 f i libvcruntimed:undname.obj
 0001:0003c5c0       ?setIsUDC@DName@@QAEXXZ    1003d5c0 f i libvcruntimed:undname.obj
 0001:0003c5f0       ?setIsVCallThunk@DName@@QAEXXZ 1003d5f0 f i libvcruntimed:undname.obj
 0001:0003c610       ?setPtrRef@DName@@QAEAAV1@XZ 1003d610 f i libvcruntimed:undname.obj
 0001:0003c630       ?status@DName@@QBE?AW4DNameStatus@@XZ 1003d630 f i libvcruntimed:undname.obj
 0001:0003c730       ___unDName                 1003d730 f   libvcruntimed:undname.obj
 0001:0003c760       ___unDNameEx               1003d760 f   libvcruntimed:undname.obj
 0001:0003c830       _unDNameGenerateCHPE       1003d830 f   libvcruntimed:undname.obj
 0001:0003c890       __global_unwind2           1003d890 f   libvcruntimed:exsup.obj
 0001:0003c8f6       __local_unwind2            1003d8f6 f   libvcruntimed:exsup.obj
 0001:0003c97a       __abnormal_termination     1003d97a f   libvcruntimed:exsup.obj
 0001:0003c9a0       __NLG_Notify1              1003d9a0 f   libvcruntimed:exsup.obj
 0001:0003c9ac       __NLG_Notify               1003d9ac f   libvcruntimed:exsup.obj
 0001:0003c9c3       __NLG_Dispatch             1003d9c3     libvcruntimed:exsup.obj
 0001:0003c9c3       __NLG_Dispatch2            1003d9c3     libvcruntimed:exsup.obj
 0001:0003c9cb       __NLG_Call                 1003d9cb f   libvcruntimed:exsup.obj
 0001:0003c9cd       __NLG_Return2              1003d9cd     libvcruntimed:exsup.obj
 0001:0003c9d0       ??$__crt_interlocked_exchange_pointer@UHINSTANCE__@@PAU1@@@YAPAUHINSTANCE__@@PDSAU0@QAU0@@Z 1003d9d0 f i libvcruntimed:winapi_downlevel.obj
 0001:0003c9e0       ??$__crt_interlocked_exchange_pointer@UHINSTANCE__@@PAX@@YAPAUHINSTANCE__@@PDSAU0@QAX@Z 1003d9e0 f i libvcruntimed:winapi_downlevel.obj
 0001:0003c9f0       ??$__crt_interlocked_exchange_pointer@XPAX@@YAPAXPDSAXQAX@Z 1003d9f0 f i libvcruntimed:winapi_downlevel.obj
 0001:0003ca00       ??$__crt_interlocked_read_pointer@UHINSTANCE__@@@@YAPAUHINSTANCE__@@PDSAU0@@Z 1003da00 f i libvcruntimed:winapi_downlevel.obj
 0001:0003ca20       ??$__crt_interlocked_read_pointer@X@@YAPAXPDSAX@Z 1003da20 f i libvcruntimed:winapi_downlevel.obj
 0001:0003cdf0       ___vcrt_FlsAlloc           1003ddf0 f   libvcruntimed:winapi_downlevel.obj
 0001:0003ce30       ___vcrt_FlsFree            1003de30 f   libvcruntimed:winapi_downlevel.obj
 0001:0003ce70       ___vcrt_FlsGetValue        1003de70 f   libvcruntimed:winapi_downlevel.obj
 0001:0003ceb0       ___vcrt_FlsSetValue        1003deb0 f   libvcruntimed:winapi_downlevel.obj
 0001:0003cf00       ___vcrt_InitializeCriticalSectionEx 1003df00 f   libvcruntimed:winapi_downlevel.obj
 0001:0003cf80       __get_unexpected           1003df80 f   libvcruntimed:unexpected.obj
 0001:0003cfa0       _set_unexpected            1003dfa0 f   libvcruntimed:unexpected.obj
 0001:0003cfd0       _unexpected                1003dfd0 f   libvcruntimed:unexpected.obj
 0001:0003d010       ?GetCurrentState@__FrameHandler3@@SAHPAUEHRegistrationNode@@PAXPBU_s_FuncInfo@@@Z 1003e010 f   libvcruntimed:ehstate.obj
 0001:0003d040       ?SetState@__FrameHandler3@@SAXPAUEHRegistrationNode@@PBU_s_FuncInfo@@H@Z 1003e040 f   libvcruntimed:ehstate.obj
 0001:0003d050       ___DestructExceptionObject 1003e050 f   libvcruntimed:ehhelpers.obj
 0001:0003d180       ?_CallMemberFunction0@@YGXQAX0@Z 1003e180 f i libvcruntimed:ehhelpers.obj
 0001:0003d1a0       ?raw_name@type_info@@QBEPBDXZ 1003e1a0 f i libvcruntimed:ehhelpers.obj
 0001:0003d1c0       __IsExceptionObjectToBeDestroyed 1003e1c0 f   libvcruntimed:ehhelpers.obj
 0001:0003d200       __SetWinRTOutOfMemoryExceptionCallback 1003e200 f   libvcruntimed:ehhelpers.obj
 0001:0003d210       ___AdjustPointer           1003e210 f   libvcruntimed:ehhelpers.obj
 0001:0003d260       ___FrameUnwindFilter       1003e260 f   libvcruntimed:ehhelpers.obj
 0001:0003d2e0       ___GetPlatformExceptionInfo 1003e2e0 f   libvcruntimed:ehhelpers.obj
 0001:0003d360       ___current_exception       1003e360 f   libvcruntimed:ehhelpers.obj
 0001:0003d370       ___current_exception_context 1003e370 f   libvcruntimed:ehhelpers.obj
 0001:0003d380       ___processing_throw        1003e380 f   libvcruntimed:ehhelpers.obj
 0001:0003d390       ___std_terminate           1003e390 f   libvcruntimed:ehhelpers.obj
 0001:0003d3a0       __is_exception_typeof      1003e3a0 f   libvcruntimed:ehhelpers.obj
 0001:0003d480       ??$?0ABV?$stream_output_adapter@D@__crt_stdio_output@@AB_KABQBDABQAU__crt_locale_pointers@@ABQAD@?$format_validation_base@DV?$stream_output_adapter@D@__crt_stdio_output@@@__crt_stdio_output@@IAE@ABV?$stream_output_adapter@D@1@AB_KABQBDABQAU__crt_locale_pointers@@ABQAD@Z 1003e480 f i libucrtd:output.obj
 0001:0003d4b0       ??$?0ABV?$stream_output_adapter@D@__crt_stdio_output@@AB_KABQBDABQAU__crt_locale_pointers@@ABQAD@?$positional_parameter_base@DV?$stream_output_adapter@D@__crt_stdio_output@@@__crt_stdio_output@@IAE@ABV?$stream_output_adapter@D@1@AB_KABQBDABQAU__crt_locale_pointers@@ABQAD@Z 1003e4b0 f i libucrtd:output.obj
 0001:0003d530       ??$?0ABV?$stream_output_adapter@D@__crt_stdio_output@@AB_KABQBDABQAU__crt_locale_pointers@@ABQAD@?$standard_base@DV?$stream_output_adapter@D@__crt_stdio_output@@@__crt_stdio_output@@IAE@ABV?$stream_output_adapter@D@1@AB_KABQBDABQAU__crt_locale_pointers@@ABQAD@Z 1003e530 f i libucrtd:output.obj
 0001:0003d580       ??$?0ABV?$stream_output_adapter@_W@__crt_stdio_output@@AB_KABQB_WABQAU__crt_locale_pointers@@ABQAD@?$format_validation_base@_WV?$stream_output_adapter@_W@__crt_stdio_output@@@__crt_stdio_output@@IAE@ABV?$stream_output_adapter@_W@1@AB_KABQB_WABQAU__crt_locale_pointers@@ABQAD@Z 1003e580 f i libucrtd:output.obj
 0001:0003d5b0       ??$?0ABV?$stream_output_adapter@_W@__crt_stdio_output@@AB_KABQB_WABQAU__crt_locale_pointers@@ABQAD@?$positional_parameter_base@_WV?$stream_output_adapter@_W@__crt_stdio_output@@@__crt_stdio_output@@IAE@ABV?$stream_output_adapter@_W@1@AB_KABQB_WABQAU__crt_locale_pointers@@ABQAD@Z 1003e5b0 f i libucrtd:output.obj
 0001:0003d630       ??$?0ABV?$stream_output_adapter@_W@__crt_stdio_output@@AB_KABQB_WABQAU__crt_locale_pointers@@ABQAD@?$standard_base@_WV?$stream_output_adapter@_W@__crt_stdio_output@@@__crt_stdio_output@@IAE@ABV?$stream_output_adapter@_W@1@AB_KABQB_WABQAU__crt_locale_pointers@@ABQAD@Z 1003e630 f i libucrtd:output.obj
 0001:0003d680       ??$?0ABV?$string_output_adapter@D@__crt_stdio_output@@AB_KABQBDABQAU__crt_locale_pointers@@ABQAD@?$format_validation_base@DV?$string_output_adapter@D@__crt_stdio_output@@@__crt_stdio_output@@IAE@ABV?$string_output_adapter@D@1@AB_KABQBDABQAU__crt_locale_pointers@@ABQAD@Z 1003e680 f i libucrtd:output.obj
 0001:0003d6b0       ??$?0ABV?$string_output_adapter@D@__crt_stdio_output@@AB_KABQBDABQAU__crt_locale_pointers@@ABQAD@?$positional_parameter_base@DV?$string_output_adapter@D@__crt_stdio_output@@@__crt_stdio_output@@IAE@ABV?$string_output_adapter@D@1@AB_KABQBDABQAU__crt_locale_pointers@@ABQAD@Z 1003e6b0 f i libucrtd:output.obj
 0001:0003d730       ??$?0ABV?$string_output_adapter@D@__crt_stdio_output@@AB_KABQBDABQAU__crt_locale_pointers@@ABQAD@?$standard_base@DV?$string_output_adapter@D@__crt_stdio_output@@@__crt_stdio_output@@IAE@ABV?$string_output_adapter@D@1@AB_KABQBDABQAU__crt_locale_pointers@@ABQAD@Z 1003e730 f i libucrtd:output.obj
 0001:0003d780       ??$?0ABV?$string_output_adapter@_W@__crt_stdio_output@@AB_KABQB_WABQAU__crt_locale_pointers@@ABQAD@?$format_validation_base@_WV?$string_output_adapter@_W@__crt_stdio_output@@@__crt_stdio_output@@IAE@ABV?$string_output_adapter@_W@1@AB_KABQB_WABQAU__crt_locale_pointers@@ABQAD@Z 1003e780 f i libucrtd:output.obj
 0001:0003d7b0       ??$?0ABV?$string_output_adapter@_W@__crt_stdio_output@@AB_KABQB_WABQAU__crt_locale_pointers@@ABQAD@?$positional_parameter_base@_WV?$string_output_adapter@_W@__crt_stdio_output@@@__crt_stdio_output@@IAE@ABV?$string_output_adapter@_W@1@AB_KABQB_WABQAU__crt_locale_pointers@@ABQAD@Z 1003e7b0 f i libucrtd:output.obj
 0001:0003d830       ??$?0ABV?$string_output_adapter@_W@__crt_stdio_output@@AB_KABQB_WABQAU__crt_locale_pointers@@ABQAD@?$standard_base@_WV?$string_output_adapter@_W@__crt_stdio_output@@@__crt_stdio_output@@IAE@ABV?$string_output_adapter@_W@1@AB_KABQB_WABQAU__crt_locale_pointers@@ABQAD@Z 1003e830 f i libucrtd:output.obj
 0001:0003dd60       ??$__crt_interlocked_read@J@@YAJPDJ@Z 1003ed60 f i libucrtd:output.obj
 0001:00040b00       ??$count@D@formatting_buffer@__crt_stdio_output@@QBEIXZ 10041b00 f i libucrtd:output.obj
 0001:00040b40       ??$count@_W@formatting_buffer@__crt_stdio_output@@QBEIXZ 10041b40 f i libucrtd:output.obj
 0001:00040b80       ??$data@D@formatting_buffer@__crt_stdio_output@@QAEPADXZ 10041b80 f i libucrtd:output.obj
 0001:00040bc0       ??$data@_W@formatting_buffer@__crt_stdio_output@@QAEPA_WXZ 10041bc0 f i libucrtd:output.obj
 0001:00040c00       ??$ensure_buffer_is_big_enough@D@formatting_buffer@__crt_stdio_output@@QAE_NI@Z 10041c00 f i libucrtd:output.obj
 0001:00040ce0       ??$ensure_buffer_is_big_enough@_W@formatting_buffer@__crt_stdio_output@@QAE_NI@Z 10041ce0 f i libucrtd:output.obj
 0001:00040dd0       ??$extract_argument_from_va_list@C_J@?$positional_parameter_base@DV?$stream_output_adapter@D@__crt_stdio_output@@@__crt_stdio_output@@IAE_NAA_J@Z 10041dd0 f i libucrtd:output.obj
 0001:00040f10       ??$extract_argument_from_va_list@C_J@?$positional_parameter_base@DV?$string_output_adapter@D@__crt_stdio_output@@@__crt_stdio_output@@IAE_NAA_J@Z 10041f10 f i libucrtd:output.obj
 0001:00041050       ??$extract_argument_from_va_list@C_J@?$positional_parameter_base@_WV?$stream_output_adapter@_W@__crt_stdio_output@@@__crt_stdio_output@@IAE_NAA_J@Z 10042050 f i libucrtd:output.obj
 0001:00041190       ??$extract_argument_from_va_list@C_J@?$positional_parameter_base@_WV?$string_output_adapter@_W@__crt_stdio_output@@@__crt_stdio_output@@IAE_NAA_J@Z 10042190 f i libucrtd:output.obj
 0001:000412d0       ??$extract_argument_from_va_list@C_J@?$standard_base@DV?$stream_output_adapter@D@__crt_stdio_output@@@__crt_stdio_output@@IAE_NAA_J@Z 100422d0 f i libucrtd:output.obj
 0001:00041300       ??$extract_argument_from_va_list@C_J@?$standard_base@DV?$string_output_adapter@D@__crt_stdio_output@@@__crt_stdio_output@@IAE_NAA_J@Z 10042300 f i libucrtd:output.obj
 0001:00041330       ??$extract_argument_from_va_list@C_J@?$standard_base@_WV?$stream_output_adapter@_W@__crt_stdio_output@@@__crt_stdio_output@@IAE_NAA_J@Z 10042330 f i libucrtd:output.obj
 0001:00041360       ??$extract_argument_from_va_list@C_J@?$standard_base@_WV?$string_output_adapter@_W@__crt_stdio_output@@@__crt_stdio_output@@IAE_NAA_J@Z 10042360 f i libucrtd:output.obj
 0001:00041390       ??$extract_argument_from_va_list@E_J@?$positional_parameter_base@DV?$stream_output_adapter@D@__crt_stdio_output@@@__crt_stdio_output@@IAE_NAA_J@Z 10042390 f i libucrtd:output.obj
 0001:000414d0       ??$extract_argument_from_va_list@E_J@?$positional_parameter_base@DV?$string_output_adapter@D@__crt_stdio_output@@@__crt_stdio_output@@IAE_NAA_J@Z 100424d0 f i libucrtd:output.obj
 0001:00041610       ??$extract_argument_from_va_list@E_J@?$positional_parameter_base@_WV?$stream_output_adapter@_W@__crt_stdio_output@@@__crt_stdio_output@@IAE_NAA_J@Z 10042610 f i libucrtd:output.obj
 0001:00041750       ??$extract_argument_from_va_list@E_J@?$positional_parameter_base@_WV?$string_output_adapter@_W@__crt_stdio_output@@@__crt_stdio_output@@IAE_NAA_J@Z 10042750 f i libucrtd:output.obj
 0001:00041890       ??$extract_argument_from_va_list@E_J@?$standard_base@DV?$stream_output_adapter@D@__crt_stdio_output@@@__crt_stdio_output@@IAE_NAA_J@Z 10042890 f i libucrtd:output.obj
 0001:000418c0       ??$extract_argument_from_va_list@E_J@?$standard_base@DV?$string_output_adapter@D@__crt_stdio_output@@@__crt_stdio_output@@IAE_NAA_J@Z 100428c0 f i libucrtd:output.obj
 0001:000418f0       ??$extract_argument_from_va_list@E_J@?$standard_base@_WV?$stream_output_adapter@_W@__crt_stdio_output@@@__crt_stdio_output@@IAE_NAA_J@Z 100428f0 f i libucrtd:output.obj
 0001:00041920       ??$extract_argument_from_va_list@E_J@?$standard_base@_WV?$string_output_adapter@_W@__crt_stdio_output@@@__crt_stdio_output@@IAE_NAA_J@Z 10042920 f i libucrtd:output.obj
 0001:00041950       ??$extract_argument_from_va_list@F_J@?$positional_parameter_base@DV?$stream_output_adapter@D@__crt_stdio_output@@@__crt_stdio_output@@IAE_NAA_J@Z 10042950 f i libucrtd:output.obj
 0001:00041a80       ??$extract_argument_from_va_list@F_J@?$positional_parameter_base@DV?$string_output_adapter@D@__crt_stdio_output@@@__crt_stdio_output@@IAE_NAA_J@Z 10042a80 f i libucrtd:output.obj
 0001:00041bb0       ??$extract_argument_from_va_list@F_J@?$positional_parameter_base@_WV?$stream_output_adapter@_W@__crt_stdio_output@@@__crt_stdio_output@@IAE_NAA_J@Z 10042bb0 f i libucrtd:output.obj
 0001:00041ce0       ??$extract_argument_from_va_list@F_J@?$positional_parameter_base@_WV?$string_output_adapter@_W@__crt_stdio_output@@@__crt_stdio_output@@IAE_NAA_J@Z 10042ce0 f i libucrtd:output.obj
 0001:00041e10       ??$extract_argument_from_va_list@F_J@?$standard_base@DV?$stream_output_adapter@D@__crt_stdio_output@@@__crt_stdio_output@@IAE_NAA_J@Z 10042e10 f i libucrtd:output.obj
 0001:00041e40       ??$extract_argument_from_va_list@F_J@?$standard_base@DV?$string_output_adapter@D@__crt_stdio_output@@@__crt_stdio_output@@IAE_NAA_J@Z 10042e40 f i libucrtd:output.obj
 0001:00041e70       ??$extract_argument_from_va_list@F_J@?$standard_base@_WV?$stream_output_adapter@_W@__crt_stdio_output@@@__crt_stdio_output@@IAE_NAA_J@Z 10042e70 f i libucrtd:output.obj
 0001:00041ea0       ??$extract_argument_from_va_list@F_J@?$standard_base@_WV?$string_output_adapter@_W@__crt_stdio_output@@@__crt_stdio_output@@IAE_NAA_J@Z 10042ea0 f i libucrtd:output.obj
 0001:00041ed0       ??$extract_argument_from_va_list@GD@?$positional_parameter_base@DV?$stream_output_adapter@D@__crt_stdio_output@@@__crt_stdio_output@@IAE_NAAD@Z 10042ed0 f i libucrtd:output.obj
 0001:00042000       ??$extract_argument_from_va_list@GD@?$positional_parameter_base@DV?$string_output_adapter@D@__crt_stdio_output@@@__crt_stdio_output@@IAE_NAAD@Z 10043000 f i libucrtd:output.obj
 0001:00042130       ??$extract_argument_from_va_list@GD@?$standard_base@DV?$stream_output_adapter@D@__crt_stdio_output@@@__crt_stdio_output@@IAE_NAAD@Z 10043130 f i libucrtd:output.obj
 0001:00042160       ??$extract_argument_from_va_list@GD@?$standard_base@DV?$string_output_adapter@D@__crt_stdio_output@@@__crt_stdio_output@@IAE_NAAD@Z 10043160 f i libucrtd:output.obj
 0001:00042190       ??$extract_argument_from_va_list@G_J@?$positional_parameter_base@DV?$stream_output_adapter@D@__crt_stdio_output@@@__crt_stdio_output@@IAE_NAA_J@Z 10043190 f i libucrtd:output.obj
 0001:000422d0       ??$extract_argument_from_va_list@G_J@?$positional_parameter_base@DV?$string_output_adapter@D@__crt_stdio_output@@@__crt_stdio_output@@IAE_NAA_J@Z 100432d0 f i libucrtd:output.obj
 0001:00042410       ??$extract_argument_from_va_list@G_J@?$positional_parameter_base@_WV?$stream_output_adapter@_W@__crt_stdio_output@@@__crt_stdio_output@@IAE_NAA_J@Z 10043410 f i libucrtd:output.obj
 0001:00042550       ??$extract_argument_from_va_list@G_J@?$positional_parameter_base@_WV?$string_output_adapter@_W@__crt_stdio_output@@@__crt_stdio_output@@IAE_NAA_J@Z 10043550 f i libucrtd:output.obj
 0001:00042690       ??$extract_argument_from_va_list@G_J@?$standard_base@DV?$stream_output_adapter@D@__crt_stdio_output@@@__crt_stdio_output@@IAE_NAA_J@Z 10043690 f i libucrtd:output.obj
 0001:000426c0       ??$extract_argument_from_va_list@G_J@?$standard_base@DV?$string_output_adapter@D@__crt_stdio_output@@@__crt_stdio_output@@IAE_NAA_J@Z 100436c0 f i libucrtd:output.obj
 0001:000426f0       ??$extract_argument_from_va_list@G_J@?$standard_base@_WV?$stream_output_adapter@_W@__crt_stdio_output@@@__crt_stdio_output@@IAE_NAA_J@Z 100436f0 f i libucrtd:output.obj
 0001:00042720       ??$extract_argument_from_va_list@G_J@?$standard_base@_WV?$string_output_adapter@_W@__crt_stdio_output@@@__crt_stdio_output@@IAE_NAA_J@Z 10043720 f i libucrtd:output.obj
 0001:00042750       ??$extract_argument_from_va_list@H_J@?$positional_parameter_base@DV?$stream_output_adapter@D@__crt_stdio_output@@@__crt_stdio_output@@IAE_NAA_J@Z 10043750 f i libucrtd:output.obj
 0001:00042880       ??$extract_argument_from_va_list@H_J@?$positional_parameter_base@DV?$string_output_adapter@D@__crt_stdio_output@@@__crt_stdio_output@@IAE_NAA_J@Z 10043880 f i libucrtd:output.obj
 0001:000429b0       ??$extract_argument_from_va_list@H_J@?$positional_parameter_base@_WV?$stream_output_adapter@_W@__crt_stdio_output@@@__crt_stdio_output@@IAE_NAA_J@Z 100439b0 f i libucrtd:output.obj
 0001:00042ae0       ??$extract_argument_from_va_list@H_J@?$positional_parameter_base@_WV?$string_output_adapter@_W@__crt_stdio_output@@@__crt_stdio_output@@IAE_NAA_J@Z 10043ae0 f i libucrtd:output.obj
 0001:00042c10       ??$extract_argument_from_va_list@H_J@?$standard_base@DV?$stream_output_adapter@D@__crt_stdio_output@@@__crt_stdio_output@@IAE_NAA_J@Z 10043c10 f i libucrtd:output.obj
 0001:00042c40       ??$extract_argument_from_va_list@H_J@?$standard_base@DV?$string_output_adapter@D@__crt_stdio_output@@@__crt_stdio_output@@IAE_NAA_J@Z 10043c40 f i libucrtd:output.obj
 0001:00042c70       ??$extract_argument_from_va_list@H_J@?$standard_base@_WV?$stream_output_adapter@_W@__crt_stdio_output@@@__crt_stdio_output@@IAE_NAA_J@Z 10043c70 f i libucrtd:output.obj
 0001:00042ca0       ??$extract_argument_from_va_list@H_J@?$standard_base@_WV?$string_output_adapter@_W@__crt_stdio_output@@@__crt_stdio_output@@IAE_NAA_J@Z 10043ca0 f i libucrtd:output.obj
 0001:00042cd0       ??$extract_argument_from_va_list@I_J@?$positional_parameter_base@DV?$stream_output_adapter@D@__crt_stdio_output@@@__crt_stdio_output@@IAE_NAA_J@Z 10043cd0 f i libucrtd:output.obj
 0001:00042e00       ??$extract_argument_from_va_list@I_J@?$positional_parameter_base@DV?$string_output_adapter@D@__crt_stdio_output@@@__crt_stdio_output@@IAE_NAA_J@Z 10043e00 f i libucrtd:output.obj
 0001:00042f30       ??$extract_argument_from_va_list@I_J@?$positional_parameter_base@_WV?$stream_output_adapter@_W@__crt_stdio_output@@@__crt_stdio_output@@IAE_NAA_J@Z 10043f30 f i libucrtd:output.obj
 0001:00043060       ??$extract_argument_from_va_list@I_J@?$positional_parameter_base@_WV?$string_output_adapter@_W@__crt_stdio_output@@@__crt_stdio_output@@IAE_NAA_J@Z 10044060 f i libucrtd:output.obj
 0001:00043190       ??$extract_argument_from_va_list@I_J@?$standard_base@DV?$stream_output_adapter@D@__crt_stdio_output@@@__crt_stdio_output@@IAE_NAA_J@Z 10044190 f i libucrtd:output.obj
 0001:000431c0       ??$extract_argument_from_va_list@I_J@?$standard_base@DV?$string_output_adapter@D@__crt_stdio_output@@@__crt_stdio_output@@IAE_NAA_J@Z 100441c0 f i libucrtd:output.obj
 0001:000431f0       ??$extract_argument_from_va_list@I_J@?$standard_base@_WV?$stream_output_adapter@_W@__crt_stdio_output@@@__crt_stdio_output@@IAE_NAA_J@Z 100441f0 f i libucrtd:output.obj
 0001:00043220       ??$extract_argument_from_va_list@I_J@?$standard_base@_WV?$string_output_adapter@_W@__crt_stdio_output@@@__crt_stdio_output@@IAE_NAA_J@Z 10044220 f i libucrtd:output.obj
 0001:00043250       ??$extract_argument_from_va_list@PADPAD@?$positional_parameter_base@DV?$stream_output_adapter@D@__crt_stdio_output@@@__crt_stdio_output@@IAE_NAAPAD@Z 10044250 f i libucrtd:output.obj
 0001:00043380       ??$extract_argument_from_va_list@PADPAD@?$positional_parameter_base@DV?$string_output_adapter@D@__crt_stdio_output@@@__crt_stdio_output@@IAE_NAAPAD@Z 10044380 f i libucrtd:output.obj
 0001:000434b0       ??$extract_argument_from_va_list@PADPAD@?$positional_parameter_base@_WV?$stream_output_adapter@_W@__crt_stdio_output@@@__crt_stdio_output@@IAE_NAAPAD@Z 100444b0 f i libucrtd:output.obj
 0001:000435e0       ??$extract_argument_from_va_list@PADPAD@?$positional_parameter_base@_WV?$string_output_adapter@_W@__crt_stdio_output@@@__crt_stdio_output@@IAE_NAAPAD@Z 100445e0 f i libucrtd:output.obj
 0001:00043710       ??$extract_argument_from_va_list@PADPAD@?$standard_base@DV?$stream_output_adapter@D@__crt_stdio_output@@@__crt_stdio_output@@IAE_NAAPAD@Z 10044710 f i libucrtd:output.obj
 0001:00043740       ??$extract_argument_from_va_list@PADPAD@?$standard_base@DV?$string_output_adapter@D@__crt_stdio_output@@@__crt_stdio_output@@IAE_NAAPAD@Z 10044740 f i libucrtd:output.obj
 0001:00043770       ??$extract_argument_from_va_list@PADPAD@?$standard_base@_WV?$stream_output_adapter@_W@__crt_stdio_output@@@__crt_stdio_output@@IAE_NAAPAD@Z 10044770 f i libucrtd:output.obj
 0001:000437a0       ??$extract_argument_from_va_list@PADPAD@?$standard_base@_WV?$string_output_adapter@_W@__crt_stdio_output@@@__crt_stdio_output@@IAE_NAAPAD@Z 100447a0 f i libucrtd:output.obj
 0001:00043ed0       ??$extract_argument_from_va_list@PAXPAX@?$positional_parameter_base@DV?$stream_output_adapter@D@__crt_stdio_output@@@__crt_stdio_output@@IAE_NAAPAX@Z 10044ed0 f i libucrtd:output.obj
 0001:00044000       ??$extract_argument_from_va_list@PAXPAX@?$positional_parameter_base@DV?$string_output_adapter@D@__crt_stdio_output@@@__crt_stdio_output@@IAE_NAAPAX@Z 10045000 f i libucrtd:output.obj
 0001:00044130       ??$extract_argument_from_va_list@PAXPAX@?$positional_parameter_base@_WV?$stream_output_adapter@_W@__crt_stdio_output@@@__crt_stdio_output@@IAE_NAAPAX@Z 10045130 f i libucrtd:output.obj
 0001:00044260       ??$extract_argument_from_va_list@PAXPAX@?$positional_parameter_base@_WV?$string_output_adapter@_W@__crt_stdio_output@@@__crt_stdio_output@@IAE_NAAPAX@Z 10045260 f i libucrtd:output.obj
 0001:00044390       ??$extract_argument_from_va_list@PAXPAX@?$standard_base@DV?$stream_output_adapter@D@__crt_stdio_output@@@__crt_stdio_output@@IAE_NAAPAX@Z 10045390 f i libucrtd:output.obj
 0001:000443c0       ??$extract_argument_from_va_list@PAXPAX@?$standard_base@DV?$string_output_adapter@D@__crt_stdio_output@@@__crt_stdio_output@@IAE_NAAPAX@Z 100453c0 f i libucrtd:output.obj
 0001:000443f0       ??$extract_argument_from_va_list@PAXPAX@?$standard_base@_WV?$stream_output_adapter@_W@__crt_stdio_output@@@__crt_stdio_output@@IAE_NAAPAX@Z 100453f0 f i libucrtd:output.obj
 0001:00044420       ??$extract_argument_from_va_list@PAXPAX@?$standard_base@_WV?$string_output_adapter@_W@__crt_stdio_output@@@__crt_stdio_output@@IAE_NAAPAX@Z 10045420 f i libucrtd:output.obj
 0001:00044450       ??$extract_argument_from_va_list@U_CRT_DOUBLE@@U1@@?$positional_parameter_base@DV?$stream_output_adapter@D@__crt_stdio_output@@@__crt_stdio_output@@IAE_NAAU_CRT_DOUBLE@@@Z 10045450 f i libucrtd:output.obj
 0001:000445b0       ??$extract_argument_from_va_list@U_CRT_DOUBLE@@U1@@?$positional_parameter_base@DV?$string_output_adapter@D@__crt_stdio_output@@@__crt_stdio_output@@IAE_NAAU_CRT_DOUBLE@@@Z 100455b0 f i libucrtd:output.obj
 0001:00044710       ??$extract_argument_from_va_list@U_CRT_DOUBLE@@U1@@?$positional_parameter_base@_WV?$stream_output_adapter@_W@__crt_stdio_output@@@__crt_stdio_output@@IAE_NAAU_CRT_DOUBLE@@@Z 10045710 f i libucrtd:output.obj
 0001:00044870       ??$extract_argument_from_va_list@U_CRT_DOUBLE@@U1@@?$positional_parameter_base@_WV?$string_output_adapter@_W@__crt_stdio_output@@@__crt_stdio_output@@IAE_NAAU_CRT_DOUBLE@@@Z 10045870 f i libucrtd:output.obj
 0001:000449d0       ??$extract_argument_from_va_list@U_CRT_DOUBLE@@U1@@?$standard_base@DV?$stream_output_adapter@D@__crt_stdio_output@@@__crt_stdio_output@@IAE_NAAU_CRT_DOUBLE@@@Z 100459d0 f i libucrtd:output.obj
 0001:00044a20       ??$extract_argument_from_va_list@U_CRT_DOUBLE@@U1@@?$standard_base@DV?$string_output_adapter@D@__crt_stdio_output@@@__crt_stdio_output@@IAE_NAAU_CRT_DOUBLE@@@Z 10045a20 f i libucrtd:output.obj
 0001:00044a70       ??$extract_argument_from_va_list@U_CRT_DOUBLE@@U1@@?$standard_base@_WV?$stream_output_adapter@_W@__crt_stdio_output@@@__crt_stdio_output@@IAE_NAAU_CRT_DOUBLE@@@Z 10045a70 f i libucrtd:output.obj
 0001:00044ac0       ??$extract_argument_from_va_list@U_CRT_DOUBLE@@U1@@?$standard_base@_WV?$string_output_adapter@_W@__crt_stdio_output@@@__crt_stdio_output@@IAE_NAAU_CRT_DOUBLE@@@Z 10045ac0 f i libucrtd:output.obj
 0001:00044b10       ??$extract_argument_from_va_list@_J_J@?$positional_parameter_base@DV?$stream_output_adapter@D@__crt_stdio_output@@@__crt_stdio_output@@IAE_NAA_J@Z 10045b10 f i libucrtd:output.obj
 0001:00044c40       ??$extract_argument_from_va_list@_J_J@?$positional_parameter_base@DV?$string_output_adapter@D@__crt_stdio_output@@@__crt_stdio_output@@IAE_NAA_J@Z 10045c40 f i libucrtd:output.obj
 0001:00044d70       ??$extract_argument_from_va_list@_J_J@?$positional_parameter_base@_WV?$stream_output_adapter@_W@__crt_stdio_output@@@__crt_stdio_output@@IAE_NAA_J@Z 10045d70 f i libucrtd:output.obj
 0001:00044ea0       ??$extract_argument_from_va_list@_J_J@?$positional_parameter_base@_WV?$string_output_adapter@_W@__crt_stdio_output@@@__crt_stdio_output@@IAE_NAA_J@Z 10045ea0 f i libucrtd:output.obj
 0001:00044fd0       ??$extract_argument_from_va_list@_J_J@?$standard_base@DV?$stream_output_adapter@D@__crt_stdio_output@@@__crt_stdio_output@@IAE_NAA_J@Z 10045fd0 f i libucrtd:output.obj
 0001:00045000       ??$extract_argument_from_va_list@_J_J@?$standard_base@DV?$string_output_adapter@D@__crt_stdio_output@@@__crt_stdio_output@@IAE_NAA_J@Z 10046000 f i libucrtd:output.obj
 0001:00045030       ??$extract_argument_from_va_list@_J_J@?$standard_base@_WV?$stream_output_adapter@_W@__crt_stdio_output@@@__crt_stdio_output@@IAE_NAA_J@Z 10046030 f i libucrtd:output.obj
 0001:00045060       ??$extract_argument_from_va_list@_J_J@?$standard_base@_WV?$string_output_adapter@_W@__crt_stdio_output@@@__crt_stdio_output@@IAE_NAA_J@Z 10046060 f i libucrtd:output.obj
 0001:00045090       ??$extract_argument_from_va_list@_K_J@?$positional_parameter_base@DV?$stream_output_adapter@D@__crt_stdio_output@@@__crt_stdio_output@@IAE_NAA_J@Z 10046090 f i libucrtd:output.obj
 0001:000451c0       ??$extract_argument_from_va_list@_K_J@?$positional_parameter_base@DV?$string_output_adapter@D@__crt_stdio_output@@@__crt_stdio_output@@IAE_NAA_J@Z 100461c0 f i libucrtd:output.obj
 0001:000452f0       ??$extract_argument_from_va_list@_K_J@?$positional_parameter_base@_WV?$stream_output_adapter@_W@__crt_stdio_output@@@__crt_stdio_output@@IAE_NAA_J@Z 100462f0 f i libucrtd:output.obj
 0001:00045420       ??$extract_argument_from_va_list@_K_J@?$positional_parameter_base@_WV?$string_output_adapter@_W@__crt_stdio_output@@@__crt_stdio_output@@IAE_NAA_J@Z 10046420 f i libucrtd:output.obj
 0001:00045550       ??$extract_argument_from_va_list@_K_J@?$standard_base@DV?$stream_output_adapter@D@__crt_stdio_output@@@__crt_stdio_output@@IAE_NAA_J@Z 10046550 f i libucrtd:output.obj
 0001:00045580       ??$extract_argument_from_va_list@_K_J@?$standard_base@DV?$string_output_adapter@D@__crt_stdio_output@@@__crt_stdio_output@@IAE_NAA_J@Z 10046580 f i libucrtd:output.obj
 0001:000455b0       ??$extract_argument_from_va_list@_K_J@?$standard_base@_WV?$stream_output_adapter@_W@__crt_stdio_output@@@__crt_stdio_output@@IAE_NAA_J@Z 100465b0 f i libucrtd:output.obj
 0001:000455e0       ??$extract_argument_from_va_list@_K_J@?$standard_base@_WV?$string_output_adapter@_W@__crt_stdio_output@@@__crt_stdio_output@@IAE_NAA_J@Z 100465e0 f i libucrtd:output.obj
 0001:00045610       ??$extract_argument_from_va_list@_W_W@?$positional_parameter_base@DV?$stream_output_adapter@D@__crt_stdio_output@@@__crt_stdio_output@@IAE_NAA_W@Z 10046610 f i libucrtd:output.obj
 0001:00045740       ??$extract_argument_from_va_list@_W_W@?$positional_parameter_base@DV?$string_output_adapter@D@__crt_stdio_output@@@__crt_stdio_output@@IAE_NAA_W@Z 10046740 f i libucrtd:output.obj
 0001:00045870       ??$extract_argument_from_va_list@_W_W@?$positional_parameter_base@_WV?$stream_output_adapter@_W@__crt_stdio_output@@@__crt_stdio_output@@IAE_NAA_W@Z 10046870 f i libucrtd:output.obj
 0001:000459a0       ??$extract_argument_from_va_list@_W_W@?$positional_parameter_base@_WV?$string_output_adapter@_W@__crt_stdio_output@@@__crt_stdio_output@@IAE_NAA_W@Z 100469a0 f i libucrtd:output.obj
 0001:00045ad0       ??$extract_argument_from_va_list@_W_W@?$standard_base@DV?$stream_output_adapter@D@__crt_stdio_output@@@__crt_stdio_output@@IAE_NAA_W@Z 10046ad0 f i libucrtd:output.obj
 0001:00045b00       ??$extract_argument_from_va_list@_W_W@?$standard_base@DV?$string_output_adapter@D@__crt_stdio_output@@@__crt_stdio_output@@IAE_NAA_W@Z 10046b00 f i libucrtd:output.obj
 0001:00045b30       ??$extract_argument_from_va_list@_W_W@?$standard_base@_WV?$stream_output_adapter@_W@__crt_stdio_output@@@__crt_stdio_output@@IAE_NAA_W@Z 10046b30 f i libucrtd:output.obj
 0001:00045b60       ??$extract_argument_from_va_list@_W_W@?$standard_base@_WV?$string_output_adapter@_W@__crt_stdio_output@@@__crt_stdio_output@@IAE_NAA_W@Z 10046b60 f i libucrtd:output.obj
 0001:00045b90       ??$get_parameter_type@D@?$positional_parameter_base@DV?$stream_output_adapter@D@__crt_stdio_output@@@__crt_stdio_output@@CA?AW4parameter_type@01@PAD@Z 10046b90 f i libucrtd:output.obj
 0001:00045ba0       ??$get_parameter_type@D@?$positional_parameter_base@DV?$string_output_adapter@D@__crt_stdio_output@@@__crt_stdio_output@@CA?AW4parameter_type@01@PAD@Z 10046ba0 f i libucrtd:output.obj
 0001:00045bb0       ??$get_parameter_type@D@?$positional_parameter_base@_WV?$stream_output_adapter@_W@__crt_stdio_output@@@__crt_stdio_output@@CA?AW4parameter_type@01@PAD@Z 10046bb0 f i libucrtd:output.obj
 0001:00045bc0       ??$get_parameter_type@D@?$positional_parameter_base@_WV?$string_output_adapter@_W@__crt_stdio_output@@@__crt_stdio_output@@CA?AW4parameter_type@01@PAD@Z 10046bc0 f i libucrtd:output.obj
 0001:00045c10       ??$get_parameter_type@X@?$positional_parameter_base@DV?$stream_output_adapter@D@__crt_stdio_output@@@__crt_stdio_output@@CA?AW4parameter_type@01@PAX@Z 10046c10 f i libucrtd:output.obj
 0001:00045c20       ??$get_parameter_type@X@?$positional_parameter_base@DV?$string_output_adapter@D@__crt_stdio_output@@@__crt_stdio_output@@CA?AW4parameter_type@01@PAX@Z 10046c20 f i libucrtd:output.obj
 0001:00045c30       ??$get_parameter_type@X@?$positional_parameter_base@_WV?$stream_output_adapter@_W@__crt_stdio_output@@@__crt_stdio_output@@CA?AW4parameter_type@01@PAX@Z 10046c30 f i libucrtd:output.obj
 0001:00045c40       ??$get_parameter_type@X@?$positional_parameter_base@_WV?$string_output_adapter@_W@__crt_stdio_output@@@__crt_stdio_output@@CA?AW4parameter_type@01@PAX@Z 10046c40 f i libucrtd:output.obj
 0001:00045c50       ??$is_character_specifier@D@?$positional_parameter_base@DV?$stream_output_adapter@D@__crt_stdio_output@@@__crt_stdio_output@@CA_ND@Z 10046c50 f i libucrtd:output.obj
 0001:00045c80       ??$is_character_specifier@D@?$positional_parameter_base@DV?$string_output_adapter@D@__crt_stdio_output@@@__crt_stdio_output@@CA_ND@Z 10046c80 f i libucrtd:output.obj
 0001:00045cb0       ??$is_character_specifier@_W@?$positional_parameter_base@_WV?$stream_output_adapter@_W@__crt_stdio_output@@@__crt_stdio_output@@CA_N_W@Z 10046cb0 f i libucrtd:output.obj
 0001:00045ce0       ??$is_character_specifier@_W@?$positional_parameter_base@_WV?$string_output_adapter@_W@__crt_stdio_output@@@__crt_stdio_output@@CA_N_W@Z 10046ce0 f i libucrtd:output.obj
 0001:00045d10       ??$is_integral_specifier@D@?$positional_parameter_base@DV?$stream_output_adapter@D@__crt_stdio_output@@@__crt_stdio_output@@CA_ND@Z 10046d10 f i libucrtd:output.obj
 0001:00045d70       ??$is_integral_specifier@D@?$positional_parameter_base@DV?$string_output_adapter@D@__crt_stdio_output@@@__crt_stdio_output@@CA_ND@Z 10046d70 f i libucrtd:output.obj
 0001:00045dd0       ??$is_integral_specifier@_W@?$positional_parameter_base@_WV?$stream_output_adapter@_W@__crt_stdio_output@@@__crt_stdio_output@@CA_N_W@Z 10046dd0 f i libucrtd:output.obj
 0001:00045e30       ??$is_integral_specifier@_W@?$positional_parameter_base@_WV?$string_output_adapter@_W@__crt_stdio_output@@@__crt_stdio_output@@CA_N_W@Z 10046e30 f i libucrtd:output.obj
 0001:00045e90       ??$is_pointer_specifier@D@?$positional_parameter_base@DV?$stream_output_adapter@D@__crt_stdio_output@@@__crt_stdio_output@@CA_ND@Z 10046e90 f i libucrtd:output.obj
 0001:00045ec0       ??$is_pointer_specifier@D@?$positional_parameter_base@DV?$string_output_adapter@D@__crt_stdio_output@@@__crt_stdio_output@@CA_ND@Z 10046ec0 f i libucrtd:output.obj
 0001:00045ef0       ??$is_pointer_specifier@_W@?$positional_parameter_base@_WV?$stream_output_adapter@_W@__crt_stdio_output@@@__crt_stdio_output@@CA_N_W@Z 10046ef0 f i libucrtd:output.obj
 0001:00045f20       ??$is_pointer_specifier@_W@?$positional_parameter_base@_WV?$string_output_adapter@_W@__crt_stdio_output@@@__crt_stdio_output@@CA_N_W@Z 10046f20 f i libucrtd:output.obj
 0001:00045f50       ??$is_string_specifier@D@?$positional_parameter_base@DV?$stream_output_adapter@D@__crt_stdio_output@@@__crt_stdio_output@@CA_ND@Z 10046f50 f i libucrtd:output.obj
 0001:00045f80       ??$is_string_specifier@D@?$positional_parameter_base@DV?$string_output_adapter@D@__crt_stdio_output@@@__crt_stdio_output@@CA_ND@Z 10046f80 f i libucrtd:output.obj
 0001:00045fb0       ??$is_string_specifier@_W@?$positional_parameter_base@_WV?$stream_output_adapter@_W@__crt_stdio_output@@@__crt_stdio_output@@CA_N_W@Z 10046fb0 f i libucrtd:output.obj
 0001:00045fe0       ??$is_string_specifier@_W@?$positional_parameter_base@_WV?$string_output_adapter@_W@__crt_stdio_output@@@__crt_stdio_output@@CA_N_W@Z 10046fe0 f i libucrtd:output.obj
 0001:00046010       ??$is_wide_character_specifier@D@__crt_stdio_output@@YA_N_KDW4length_modifier@0@@Z 10047010 f i libucrtd:output.obj
 0001:00046090       ??$is_wide_character_specifier@_W@__crt_stdio_output@@YA_N_K_WW4length_modifier@0@@Z 10047090 f i libucrtd:output.obj
 0001:00046150       ??$peek_va_arg@C@__crt_stdio_output@@YACPAD@Z 10047150 f i libucrtd:output.obj
 0001:00046170       ??$peek_va_arg@E@__crt_stdio_output@@YAEPAD@Z 10047170 f i libucrtd:output.obj
 0001:00046190       ??$peek_va_arg@F@__crt_stdio_output@@YAFPAD@Z 10047190 f i libucrtd:output.obj
 0001:000461b0       ??$peek_va_arg@G@__crt_stdio_output@@YAGPAD@Z 100471b0 f i libucrtd:output.obj
 0001:000461d0       ??$peek_va_arg@H@__crt_stdio_output@@YAHPAD@Z 100471d0 f i libucrtd:output.obj
 0001:000461f0       ??$peek_va_arg@I@__crt_stdio_output@@YAIPAD@Z 100471f0 f i libucrtd:output.obj
 0001:00046210       ??$peek_va_arg@PAD@__crt_stdio_output@@YAPADPAD@Z 10047210 f i libucrtd:output.obj
 0001:000462b0       ??$peek_va_arg@PAX@__crt_stdio_output@@YAPAXPAD@Z 100472b0 f i libucrtd:output.obj
 0001:000462d0       ??$peek_va_arg@U_CRT_DOUBLE@@@__crt_stdio_output@@YA?AU_CRT_DOUBLE@@PAD@Z 100472d0 f i libucrtd:output.obj
 0001:000462f0       ??$peek_va_arg@_J@__crt_stdio_output@@YA_JPAD@Z 100472f0 f i libucrtd:output.obj
 0001:00046310       ??$peek_va_arg@_K@__crt_stdio_output@@YA_KPAD@Z 10047310 f i libucrtd:output.obj
 0001:00046330       ??$peek_va_arg@_W@__crt_stdio_output@@YA_WPAD@Z 10047330 f i libucrtd:output.obj
 0001:00046350       ??$puttc_nolock@ABDPAU_iobuf@@@?$__crt_char_traits@D@@SAHABD$$QAPAU_iobuf@@@Z 10047350 f i libucrtd:output.obj
 0001:00046370       ??$puttc_nolock@AB_WPAU_iobuf@@@?$__crt_char_traits@_W@@SAGAB_W$$QAPAU_iobuf@@@Z 10047370 f i libucrtd:output.obj
 0001:00046390       ??$read_va_arg@C@__crt_stdio_output@@YACAAPAD@Z 10047390 f i libucrtd:output.obj
 0001:000463b0       ??$read_va_arg@E@__crt_stdio_output@@YAEAAPAD@Z 100473b0 f i libucrtd:output.obj
 0001:000463d0       ??$read_va_arg@F@__crt_stdio_output@@YAFAAPAD@Z 100473d0 f i libucrtd:output.obj
 0001:000463f0       ??$read_va_arg@G@__crt_stdio_output@@YAGAAPAD@Z 100473f0 f i libucrtd:output.obj
 0001:00046410       ??$read_va_arg@H@__crt_stdio_output@@YAHAAPAD@Z 10047410 f i libucrtd:output.obj
 0001:00046430       ??$read_va_arg@I@__crt_stdio_output@@YAIAAPAD@Z 10047430 f i libucrtd:output.obj
 0001:00046450       ??$read_va_arg@PAD@__crt_stdio_output@@YAPADAAPAD@Z 10047450 f i libucrtd:output.obj
 0001:000465f0       ??$read_va_arg@PAX@__crt_stdio_output@@YAPAXAAPAD@Z 100475f0 f i libucrtd:output.obj
 0001:00046610       ??$read_va_arg@U_CRT_DOUBLE@@@__crt_stdio_output@@YA?AU_CRT_DOUBLE@@AAPAD@Z 10047610 f i libucrtd:output.obj
 0001:00046630       ??$read_va_arg@_J@__crt_stdio_output@@YA_JAAPAD@Z 10047630 f i libucrtd:output.obj
 0001:00046650       ??$read_va_arg@_K@__crt_stdio_output@@YA_KAAPAD@Z 10047650 f i libucrtd:output.obj
 0001:00046670       ??$read_va_arg@_W@__crt_stdio_output@@YA_WAAPAD@Z 10047670 f i libucrtd:output.obj
 0001:00046690       ??$scratch_count@D@formatting_buffer@__crt_stdio_output@@QBEIXZ 10047690 f i libucrtd:output.obj
 0001:000466b0       ??$scratch_data@D@formatting_buffer@__crt_stdio_output@@QAEPADXZ 100476b0 f i libucrtd:output.obj
 0001:00046700       ??$tcstol@AAPBDPAPADH@?$__crt_char_traits@D@@SAJAAPBD$$QAPAPAD$$QAH@Z 10047700 f i libucrtd:output.obj
 0001:00046730       ??$tcstol@AAPB_WPAPA_WH@?$__crt_char_traits@_W@@SAJAAPB_W$$QAPAPA_W$$QAH@Z 10047730 f i libucrtd:output.obj
 0001:00046760       ??$tcstol@PBDPAPADH@?$__crt_char_traits@D@@SAJ$$QAPBD$$QAPAPAD$$QAH@Z 10047760 f i libucrtd:output.obj
 0001:00046790       ??$tcstol@PB_WPAPA_WH@?$__crt_char_traits@_W@@SAJ$$QAPB_W$$QAPAPA_W$$QAH@Z 10047790 f i libucrtd:output.obj
 0001:000467c0       ??$type_case_integer_parse_into_buffer@I@?$output_processor@DV?$stream_output_adapter@D@__crt_stdio_output@@V?$format_validation_base@DV?$stream_output_adapter@D@__crt_stdio_output@@@2@@__crt_stdio_output@@AAEXII_N@Z 100477c0 f i libucrtd:output.obj
 0001:00046890       ??$type_case_integer_parse_into_buffer@I@?$output_processor@DV?$stream_output_adapter@D@__crt_stdio_output@@V?$positional_parameter_base@DV?$stream_output_adapter@D@__crt_stdio_output@@@2@@__crt_stdio_output@@AAEXII_N@Z 10047890 f i libucrtd:output.obj
 0001:00046960       ??$type_case_integer_parse_into_buffer@I@?$output_processor@DV?$stream_output_adapter@D@__crt_stdio_output@@V?$standard_base@DV?$stream_output_adapter@D@__crt_stdio_output@@@2@@__crt_stdio_output@@AAEXII_N@Z 10047960 f i libucrtd:output.obj
 0001:00046a30       ??$type_case_integer_parse_into_buffer@I@?$output_processor@DV?$string_output_adapter@D@__crt_stdio_output@@V?$format_validation_base@DV?$string_output_adapter@D@__crt_stdio_output@@@2@@__crt_stdio_output@@AAEXII_N@Z 10047a30 f i libucrtd:output.obj
 0001:00046b00       ??$type_case_integer_parse_into_buffer@I@?$output_processor@DV?$string_output_adapter@D@__crt_stdio_output@@V?$positional_parameter_base@DV?$string_output_adapter@D@__crt_stdio_output@@@2@@__crt_stdio_output@@AAEXII_N@Z 10047b00 f i libucrtd:output.obj
 0001:00046bd0       ??$type_case_integer_parse_into_buffer@I@?$output_processor@DV?$string_output_adapter@D@__crt_stdio_output@@V?$standard_base@DV?$string_output_adapter@D@__crt_stdio_output@@@2@@__crt_stdio_output@@AAEXII_N@Z 10047bd0 f i libucrtd:output.obj
 0001:00046ca0       ??$type_case_integer_parse_into_buffer@I@?$output_processor@_WV?$stream_output_adapter@_W@__crt_stdio_output@@V?$format_validation_base@_WV?$stream_output_adapter@_W@__crt_stdio_output@@@2@@__crt_stdio_output@@AAEXII_N@Z 10047ca0 f i libucrtd:output.obj
 0001:00046d80       ??$type_case_integer_parse_into_buffer@I@?$output_processor@_WV?$stream_output_adapter@_W@__crt_stdio_output@@V?$positional_parameter_base@_WV?$stream_output_adapter@_W@__crt_stdio_output@@@2@@__crt_stdio_output@@AAEXII_N@Z 10047d80 f i libucrtd:output.obj
 0001:00046e60       ??$type_case_integer_parse_into_buffer@I@?$output_processor@_WV?$stream_output_adapter@_W@__crt_stdio_output@@V?$standard_base@_WV?$stream_output_adapter@_W@__crt_stdio_output@@@2@@__crt_stdio_output@@AAEXII_N@Z 10047e60 f i libucrtd:output.obj
 0001:00046f40       ??$type_case_integer_parse_into_buffer@I@?$output_processor@_WV?$string_output_adapter@_W@__crt_stdio_output@@V?$format_validation_base@_WV?$string_output_adapter@_W@__crt_stdio_output@@@2@@__crt_stdio_output@@AAEXII_N@Z 10047f40 f i libucrtd:output.obj
 0001:00047020       ??$type_case_integer_parse_into_buffer@I@?$output_processor@_WV?$string_output_adapter@_W@__crt_stdio_output@@V?$positional_parameter_base@_WV?$string_output_adapter@_W@__crt_stdio_output@@@2@@__crt_stdio_output@@AAEXII_N@Z 10048020 f i libucrtd:output.obj
 0001:00047100       ??$type_case_integer_parse_into_buffer@I@?$output_processor@_WV?$string_output_adapter@_W@__crt_stdio_output@@V?$standard_base@_WV?$string_output_adapter@_W@__crt_stdio_output@@@2@@__crt_stdio_output@@AAEXII_N@Z 10048100 f i libucrtd:output.obj
 0001:000471e0       ??$type_case_integer_parse_into_buffer@_K@?$output_processor@DV?$stream_output_adapter@D@__crt_stdio_output@@V?$format_validation_base@DV?$stream_output_adapter@D@__crt_stdio_output@@@2@@__crt_stdio_output@@AAEX_KI_N@Z 100481e0 f i libucrtd:output.obj
 0001:000472d0       ??$type_case_integer_parse_into_buffer@_K@?$output_processor@DV?$stream_output_adapter@D@__crt_stdio_output@@V?$positional_parameter_base@DV?$stream_output_adapter@D@__crt_stdio_output@@@2@@__crt_stdio_output@@AAEX_KI_N@Z 100482d0 f i libucrtd:output.obj
 0001:000473c0       ??$type_case_integer_parse_into_buffer@_K@?$output_processor@DV?$stream_output_adapter@D@__crt_stdio_output@@V?$standard_base@DV?$stream_output_adapter@D@__crt_stdio_output@@@2@@__crt_stdio_output@@AAEX_KI_N@Z 100483c0 f i libucrtd:output.obj
 0001:000474b0       ??$type_case_integer_parse_into_buffer@_K@?$output_processor@DV?$string_output_adapter@D@__crt_stdio_output@@V?$format_validation_base@DV?$string_output_adapter@D@__crt_stdio_output@@@2@@__crt_stdio_output@@AAEX_KI_N@Z 100484b0 f i libucrtd:output.obj
 0001:000475a0       ??$type_case_integer_parse_into_buffer@_K@?$output_processor@DV?$string_output_adapter@D@__crt_stdio_output@@V?$positional_parameter_base@DV?$string_output_adapter@D@__crt_stdio_output@@@2@@__crt_stdio_output@@AAEX_KI_N@Z 100485a0 f i libucrtd:output.obj
 0001:00047690       ??$type_case_integer_parse_into_buffer@_K@?$output_processor@DV?$string_output_adapter@D@__crt_stdio_output@@V?$standard_base@DV?$string_output_adapter@D@__crt_stdio_output@@@2@@__crt_stdio_output@@AAEX_KI_N@Z 10048690 f i libucrtd:output.obj
 0001:00047780       ??$type_case_integer_parse_into_buffer@_K@?$output_processor@_WV?$stream_output_adapter@_W@__crt_stdio_output@@V?$format_validation_base@_WV?$stream_output_adapter@_W@__crt_stdio_output@@@2@@__crt_stdio_output@@AAEX_KI_N@Z 10048780 f i libucrtd:output.obj
 0001:00047880       ??$type_case_integer_parse_into_buffer@_K@?$output_processor@_WV?$stream_output_adapter@_W@__crt_stdio_output@@V?$positional_parameter_base@_WV?$stream_output_adapter@_W@__crt_stdio_output@@@2@@__crt_stdio_output@@AAEX_KI_N@Z 10048880 f i libucrtd:output.obj
 0001:00047980       ??$type_case_integer_parse_into_buffer@_K@?$output_processor@_WV?$stream_output_adapter@_W@__crt_stdio_output@@V?$standard_base@_WV?$stream_output_adapter@_W@__crt_stdio_output@@@2@@__crt_stdio_output@@AAEX_KI_N@Z 10048980 f i libucrtd:output.obj
 0001:00047a80       ??$type_case_integer_parse_into_buffer@_K@?$output_processor@_WV?$string_output_adapter@_W@__crt_stdio_output@@V?$format_validation_base@_WV?$string_output_adapter@_W@__crt_stdio_output@@@2@@__crt_stdio_output@@AAEX_KI_N@Z 10048a80 f i libucrtd:output.obj
 0001:00047b80       ??$type_case_integer_parse_into_buffer@_K@?$output_processor@_WV?$string_output_adapter@_W@__crt_stdio_output@@V?$positional_parameter_base@_WV?$string_output_adapter@_W@__crt_stdio_output@@@2@@__crt_stdio_output@@AAEX_KI_N@Z 10048b80 f i libucrtd:output.obj
 0001:00047c80       ??$type_case_integer_parse_into_buffer@_K@?$output_processor@_WV?$string_output_adapter@_W@__crt_stdio_output@@V?$standard_base@_WV?$string_output_adapter@_W@__crt_stdio_output@@@2@@__crt_stdio_output@@AAEX_KI_N@Z 10048c80 f i libucrtd:output.obj
 0001:00047d80       ??$write_multiple_characters@V?$stream_output_adapter@D@__crt_stdio_output@@D@__crt_stdio_output@@YAXABV?$stream_output_adapter@D@0@DHQAH@Z 10048d80 f i libucrtd:output.obj
 0001:00047dd0       ??$write_multiple_characters@V?$stream_output_adapter@_W@__crt_stdio_output@@D@__crt_stdio_output@@YAXABV?$stream_output_adapter@_W@0@DHQAH@Z 10048dd0 f i libucrtd:output.obj
 0001:00047e20       ??$write_multiple_characters@V?$string_output_adapter@D@__crt_stdio_output@@D@__crt_stdio_output@@YAXABV?$string_output_adapter@D@0@DHQAH@Z 10048e20 f i libucrtd:output.obj
 0001:00047e70       ??$write_multiple_characters@V?$string_output_adapter@_W@__crt_stdio_output@@D@__crt_stdio_output@@YAXABV?$string_output_adapter@_W@0@DHQAH@Z 10048e70 f i libucrtd:output.obj
 0001:000481c0       ??0?$common_data@D@__crt_stdio_output@@IAE@XZ 100491c0 f i libucrtd:output.obj
 0001:00048270       ??0?$common_data@_W@__crt_stdio_output@@IAE@XZ 10049270 f i libucrtd:output.obj
 0001:00048320       ??0?$output_adapter_data@DV?$stream_output_adapter@D@__crt_stdio_output@@@__crt_stdio_output@@IAE@ABV?$stream_output_adapter@D@1@_KQBDQAU__crt_locale_pointers@@QAD@Z 10049320 f i libucrtd:output.obj
 0001:00048380       ??0?$output_adapter_data@DV?$string_output_adapter@D@__crt_stdio_output@@@__crt_stdio_output@@IAE@ABV?$string_output_adapter@D@1@_KQBDQAU__crt_locale_pointers@@QAD@Z 10049380 f i libucrtd:output.obj
 0001:000483e0       ??0?$output_adapter_data@_WV?$stream_output_adapter@_W@__crt_stdio_output@@@__crt_stdio_output@@IAE@ABV?$stream_output_adapter@_W@1@_KQB_WQAU__crt_locale_pointers@@QAD@Z 100493e0 f i libucrtd:output.obj
 0001:00048440       ??0?$output_adapter_data@_WV?$string_output_adapter@_W@__crt_stdio_output@@@__crt_stdio_output@@IAE@ABV?$string_output_adapter@_W@1@_KQB_WQAU__crt_locale_pointers@@QAD@Z 10049440 f i libucrtd:output.obj
 0001:000484a0       ??0?$output_processor@DV?$stream_output_adapter@D@__crt_stdio_output@@V?$format_validation_base@DV?$stream_output_adapter@D@__crt_stdio_output@@@2@@__crt_stdio_output@@QAE@ABV?$stream_output_adapter@D@1@_KQBDQAU__crt_locale_pointers@@QAD@Z 100494a0 f i libucrtd:output.obj
 0001:000484d0       ??0?$output_processor@DV?$stream_output_adapter@D@__crt_stdio_output@@V?$positional_parameter_base@DV?$stream_output_adapter@D@__crt_stdio_output@@@2@@__crt_stdio_output@@QAE@ABV?$stream_output_adapter@D@1@_KQBDQAU__crt_locale_pointers@@QAD@Z 100494d0 f i libucrtd:output.obj
 0001:00048500       ??0?$output_processor@DV?$stream_output_adapter@D@__crt_stdio_output@@V?$standard_base@DV?$stream_output_adapter@D@__crt_stdio_output@@@2@@__crt_stdio_output@@QAE@ABV?$stream_output_adapter@D@1@_KQBDQAU__crt_locale_pointers@@QAD@Z 10049500 f i libucrtd:output.obj
 0001:00048530       ??0?$output_processor@DV?$string_output_adapter@D@__crt_stdio_output@@V?$format_validation_base@DV?$string_output_adapter@D@__crt_stdio_output@@@2@@__crt_stdio_output@@QAE@ABV?$string_output_adapter@D@1@_KQBDQAU__crt_locale_pointers@@QAD@Z 10049530 f i libucrtd:output.obj
 0001:00048560       ??0?$output_processor@DV?$string_output_adapter@D@__crt_stdio_output@@V?$positional_parameter_base@DV?$string_output_adapter@D@__crt_stdio_output@@@2@@__crt_stdio_output@@QAE@ABV?$string_output_adapter@D@1@_KQBDQAU__crt_locale_pointers@@QAD@Z 10049560 f i libucrtd:output.obj
 0001:00048590       ??0?$output_processor@DV?$string_output_adapter@D@__crt_stdio_output@@V?$standard_base@DV?$string_output_adapter@D@__crt_stdio_output@@@2@@__crt_stdio_output@@QAE@ABV?$string_output_adapter@D@1@_KQBDQAU__crt_locale_pointers@@QAD@Z 10049590 f i libucrtd:output.obj
 0001:000485c0       ??0?$output_processor@_WV?$stream_output_adapter@_W@__crt_stdio_output@@V?$format_validation_base@_WV?$stream_output_adapter@_W@__crt_stdio_output@@@2@@__crt_stdio_output@@QAE@ABV?$stream_output_adapter@_W@1@_KQB_WQAU__crt_locale_pointers@@QAD@Z 100495c0 f i libucrtd:output.obj
 0001:000485f0       ??0?$output_processor@_WV?$stream_output_adapter@_W@__crt_stdio_output@@V?$positional_parameter_base@_WV?$stream_output_adapter@_W@__crt_stdio_output@@@2@@__crt_stdio_output@@QAE@ABV?$stream_output_adapter@_W@1@_KQB_WQAU__crt_locale_pointers@@QAD@Z 100495f0 f i libucrtd:output.obj
 0001:00048620       ??0?$output_processor@_WV?$stream_output_adapter@_W@__crt_stdio_output@@V?$standard_base@_WV?$stream_output_adapter@_W@__crt_stdio_output@@@2@@__crt_stdio_output@@QAE@ABV?$stream_output_adapter@_W@1@_KQB_WQAU__crt_locale_pointers@@QAD@Z 10049620 f i libucrtd:output.obj
 0001:00048650       ??0?$output_processor@_WV?$string_output_adapter@_W@__crt_stdio_output@@V?$format_validation_base@_WV?$string_output_adapter@_W@__crt_stdio_output@@@2@@__crt_stdio_output@@QAE@ABV?$string_output_adapter@_W@1@_KQB_WQAU__crt_locale_pointers@@QAD@Z 10049650 f i libucrtd:output.obj
 0001:00048680       ??0?$output_processor@_WV?$string_output_adapter@_W@__crt_stdio_output@@V?$positional_parameter_base@_WV?$string_output_adapter@_W@__crt_stdio_output@@@2@@__crt_stdio_output@@QAE@ABV?$string_output_adapter@_W@1@_KQB_WQAU__crt_locale_pointers@@QAD@Z 10049680 f i libucrtd:output.obj
 0001:000486b0       ??0?$output_processor@_WV?$string_output_adapter@_W@__crt_stdio_output@@V?$standard_base@_WV?$string_output_adapter@_W@__crt_stdio_output@@@2@@__crt_stdio_output@@QAE@ABV?$string_output_adapter@_W@1@_KQB_WQAU__crt_locale_pointers@@QAD@Z 100496b0 f i libucrtd:output.obj
 0001:000486e0       ??0?$stream_output_adapter@D@__crt_stdio_output@@QAE@QAU_iobuf@@@Z 100496e0 f i libucrtd:output.obj
 0001:00048700       ??0?$stream_output_adapter@_W@__crt_stdio_output@@QAE@QAU_iobuf@@@Z 10049700 f i libucrtd:output.obj
 0001:00048720       ??0?$string_output_adapter@D@__crt_stdio_output@@QAE@QAU?$string_output_adapter_context@D@1@@Z 10049720 f i libucrtd:output.obj
 0001:00048740       ??0?$string_output_adapter@_W@__crt_stdio_output@@QAE@QAU?$string_output_adapter_context@_W@1@@Z 10049740 f i libucrtd:output.obj
 0001:00048760       ??0_LocaleUpdate@@QAE@QAU__crt_locale_pointers@@@Z 10049760 f i libucrtd:output.obj
 0001:00048840       ??0__acrt_stdio_temporary_buffering_guard@@QAE@QAU_iobuf@@@Z 10049840 f i libucrtd:output.obj
 0001:00048870       ??0__crt_deferred_errno_cache@@QAE@XZ 10049870 f i libucrtd:output.obj
 0001:00048890       ??0__crt_errno_guard@@QAE@QAH@Z 10049890 f i libucrtd:output.obj
 0001:000488c0       ??0__crt_stdio_stream@@QAE@QAU_iobuf@@@Z 100498c0 f i libucrtd:output.obj
 0001:000488e0       ??0formatting_buffer@__crt_stdio_output@@QAE@XZ 100498e0 f i libucrtd:output.obj
 0001:00048910       ??1?$common_data@D@__crt_stdio_output@@QAE@XZ 10049910 f i libucrtd:output.obj
 0001:00048930       ??1?$common_data@_W@__crt_stdio_output@@QAE@XZ 10049930 f i libucrtd:output.obj
 0001:00048950       ??1?$format_validation_base@DV?$stream_output_adapter@D@__crt_stdio_output@@@__crt_stdio_output@@QAE@XZ 10049950 f i libucrtd:output.obj
 0001:00048970       ??1?$format_validation_base@DV?$string_output_adapter@D@__crt_stdio_output@@@__crt_stdio_output@@QAE@XZ 10049970 f i libucrtd:output.obj
 0001:00048990       ??1?$format_validation_base@_WV?$stream_output_adapter@_W@__crt_stdio_output@@@__crt_stdio_output@@QAE@XZ 10049990 f i libucrtd:output.obj
 0001:000489b0       ??1?$format_validation_base@_WV?$string_output_adapter@_W@__crt_stdio_output@@@__crt_stdio_output@@QAE@XZ 100499b0 f i libucrtd:output.obj
 0001:000489d0       ??1?$output_adapter_data@DV?$stream_output_adapter@D@__crt_stdio_output@@@__crt_stdio_output@@QAE@XZ 100499d0 f i libucrtd:output.obj
 0001:000489f0       ??1?$output_adapter_data@DV?$string_output_adapter@D@__crt_stdio_output@@@__crt_stdio_output@@QAE@XZ 100499f0 f i libucrtd:output.obj
 0001:00048a10       ??1?$output_adapter_data@_WV?$stream_output_adapter@_W@__crt_stdio_output@@@__crt_stdio_output@@QAE@XZ 10049a10 f i libucrtd:output.obj
 0001:00048a30       ??1?$output_adapter_data@_WV?$string_output_adapter@_W@__crt_stdio_output@@@__crt_stdio_output@@QAE@XZ 10049a30 f i libucrtd:output.obj
 0001:00048a50       ??1?$output_processor@DV?$stream_output_adapter@D@__crt_stdio_output@@V?$format_validation_base@DV?$stream_output_adapter@D@__crt_stdio_output@@@2@@__crt_stdio_output@@QAE@XZ 10049a50 f i libucrtd:output.obj
 0001:00048a70       ??1?$output_processor@DV?$stream_output_adapter@D@__crt_stdio_output@@V?$positional_parameter_base@DV?$stream_output_adapter@D@__crt_stdio_output@@@2@@__crt_stdio_output@@QAE@XZ 10049a70 f i libucrtd:output.obj
 0001:00048a90       ??1?$output_processor@DV?$stream_output_adapter@D@__crt_stdio_output@@V?$standard_base@DV?$stream_output_adapter@D@__crt_stdio_output@@@2@@__crt_stdio_output@@QAE@XZ 10049a90 f i libucrtd:output.obj
 0001:00048ab0       ??1?$output_processor@DV?$string_output_adapter@D@__crt_stdio_output@@V?$format_validation_base@DV?$string_output_adapter@D@__crt_stdio_output@@@2@@__crt_stdio_output@@QAE@XZ 10049ab0 f i libucrtd:output.obj
 0001:00048ad0       ??1?$output_processor@DV?$string_output_adapter@D@__crt_stdio_output@@V?$positional_parameter_base@DV?$string_output_adapter@D@__crt_stdio_output@@@2@@__crt_stdio_output@@QAE@XZ 10049ad0 f i libucrtd:output.obj
 0001:00048af0       ??1?$output_processor@DV?$string_output_adapter@D@__crt_stdio_output@@V?$standard_base@DV?$string_output_adapter@D@__crt_stdio_output@@@2@@__crt_stdio_output@@QAE@XZ 10049af0 f i libucrtd:output.obj
 0001:00048b10       ??1?$output_processor@_WV?$stream_output_adapter@_W@__crt_stdio_output@@V?$format_validation_base@_WV?$stream_output_adapter@_W@__crt_stdio_output@@@2@@__crt_stdio_output@@QAE@XZ 10049b10 f i libucrtd:output.obj
 0001:00048b30       ??1?$output_processor@_WV?$stream_output_adapter@_W@__crt_stdio_output@@V?$positional_parameter_base@_WV?$stream_output_adapter@_W@__crt_stdio_output@@@2@@__crt_stdio_output@@QAE@XZ 10049b30 f i libucrtd:output.obj
 0001:00048b50       ??1?$output_processor@_WV?$stream_output_adapter@_W@__crt_stdio_output@@V?$standard_base@_WV?$stream_output_adapter@_W@__crt_stdio_output@@@2@@__crt_stdio_output@@QAE@XZ 10049b50 f i libucrtd:output.obj
 0001:00048b70       ??1?$output_processor@_WV?$string_output_adapter@_W@__crt_stdio_output@@V?$format_validation_base@_WV?$string_output_adapter@_W@__crt_stdio_output@@@2@@__crt_stdio_output@@QAE@XZ 10049b70 f i libucrtd:output.obj
 0001:00048b90       ??1?$output_processor@_WV?$string_output_adapter@_W@__crt_stdio_output@@V?$positional_parameter_base@_WV?$string_output_adapter@_W@__crt_stdio_output@@@2@@__crt_stdio_output@@QAE@XZ 10049b90 f i libucrtd:output.obj
 0001:00048bb0       ??1?$output_processor@_WV?$string_output_adapter@_W@__crt_stdio_output@@V?$standard_base@_WV?$string_output_adapter@_W@__crt_stdio_output@@@2@@__crt_stdio_output@@QAE@XZ 10049bb0 f i libucrtd:output.obj
 0001:00048bd0       ??1?$positional_parameter_base@DV?$stream_output_adapter@D@__crt_stdio_output@@@__crt_stdio_output@@QAE@XZ 10049bd0 f i libucrtd:output.obj
 0001:00048bf0       ??1?$positional_parameter_base@DV?$string_output_adapter@D@__crt_stdio_output@@@__crt_stdio_output@@QAE@XZ 10049bf0 f i libucrtd:output.obj
 0001:00048c10       ??1?$positional_parameter_base@_WV?$stream_output_adapter@_W@__crt_stdio_output@@@__crt_stdio_output@@QAE@XZ 10049c10 f i libucrtd:output.obj
 0001:00048c30       ??1?$positional_parameter_base@_WV?$string_output_adapter@_W@__crt_stdio_output@@@__crt_stdio_output@@QAE@XZ 10049c30 f i libucrtd:output.obj
 0001:00048c50       ??1?$standard_base@DV?$stream_output_adapter@D@__crt_stdio_output@@@__crt_stdio_output@@QAE@XZ 10049c50 f i libucrtd:output.obj
 0001:00048c70       ??1?$standard_base@DV?$string_output_adapter@D@__crt_stdio_output@@@__crt_stdio_output@@QAE@XZ 10049c70 f i libucrtd:output.obj
 0001:00048c90       ??1?$standard_base@_WV?$stream_output_adapter@_W@__crt_stdio_output@@@__crt_stdio_output@@QAE@XZ 10049c90 f i libucrtd:output.obj
 0001:00048cb0       ??1?$standard_base@_WV?$string_output_adapter@_W@__crt_stdio_output@@@__crt_stdio_output@@QAE@XZ 10049cb0 f i libucrtd:output.obj
 0001:00048cd0       ??1_LocaleUpdate@@QAE@XZ   10049cd0 f i libucrtd:output.obj
 0001:00048d10       ??1__acrt_stdio_temporary_buffering_guard@@QAE@XZ 10049d10 f i libucrtd:output.obj
 0001:00048d40       ??1__crt_errno_guard@@QAE@XZ 10049d40 f i libucrtd:output.obj
 0001:00048d70       ??1formatting_buffer@__crt_stdio_output@@QAE@XZ 10049d70 f i libucrtd:output.obj
 0001:00048d90       ??4?$__crt_unique_heap_ptr@DU__crt_internal_free_policy@@@@QAEAAV0@$$QAV0@@Z 10049d90 f i libucrtd:output.obj
 0001:00048dc0       ??C__crt_stdio_stream@@QBEPAU__crt_stdio_stream_data@@XZ 10049dc0 f i libucrtd:output.obj
 0001:00049500       ?GetLocaleT@_LocaleUpdate@@QAEPAU__crt_locale_pointers@@XZ 1004a500 f i libucrtd:output.obj
 0001:00049520       ?adjust_hexit@?$output_processor@DV?$stream_output_adapter@D@__crt_stdio_output@@V?$format_validation_base@DV?$stream_output_adapter@D@__crt_stdio_output@@@2@@__crt_stdio_output@@CADH_N@Z 1004a520 f i libucrtd:output.obj
 0001:00049560       ?adjust_hexit@?$output_processor@DV?$stream_output_adapter@D@__crt_stdio_output@@V?$positional_parameter_base@DV?$stream_output_adapter@D@__crt_stdio_output@@@2@@__crt_stdio_output@@CADH_N@Z 1004a560 f i libucrtd:output.obj
 0001:000495a0       ?adjust_hexit@?$output_processor@DV?$stream_output_adapter@D@__crt_stdio_output@@V?$standard_base@DV?$stream_output_adapter@D@__crt_stdio_output@@@2@@__crt_stdio_output@@CADH_N@Z 1004a5a0 f i libucrtd:output.obj
 0001:000495e0       ?adjust_hexit@?$output_processor@DV?$string_output_adapter@D@__crt_stdio_output@@V?$format_validation_base@DV?$string_output_adapter@D@__crt_stdio_output@@@2@@__crt_stdio_output@@CADH_N@Z 1004a5e0 f i libucrtd:output.obj
 0001:00049620       ?adjust_hexit@?$output_processor@DV?$string_output_adapter@D@__crt_stdio_output@@V?$positional_parameter_base@DV?$string_output_adapter@D@__crt_stdio_output@@@2@@__crt_stdio_output@@CADH_N@Z 1004a620 f i libucrtd:output.obj
 0001:00049660       ?adjust_hexit@?$output_processor@DV?$string_output_adapter@D@__crt_stdio_output@@V?$standard_base@DV?$string_output_adapter@D@__crt_stdio_output@@@2@@__crt_stdio_output@@CADH_N@Z 1004a660 f i libucrtd:output.obj
 0001:000496a0       ?adjust_hexit@?$output_processor@_WV?$stream_output_adapter@_W@__crt_stdio_output@@V?$format_validation_base@_WV?$stream_output_adapter@_W@__crt_stdio_output@@@2@@__crt_stdio_output@@CADH_N@Z 1004a6a0 f i libucrtd:output.obj
 0001:000496e0       ?adjust_hexit@?$output_processor@_WV?$stream_output_adapter@_W@__crt_stdio_output@@V?$positional_parameter_base@_WV?$stream_output_adapter@_W@__crt_stdio_output@@@2@@__crt_stdio_output@@CADH_N@Z 1004a6e0 f i libucrtd:output.obj
 0001:00049720       ?adjust_hexit@?$output_processor@_WV?$stream_output_adapter@_W@__crt_stdio_output@@V?$standard_base@_WV?$stream_output_adapter@_W@__crt_stdio_output@@@2@@__crt_stdio_output@@CADH_N@Z 1004a720 f i libucrtd:output.obj
 0001:00049760       ?adjust_hexit@?$output_processor@_WV?$string_output_adapter@_W@__crt_stdio_output@@V?$format_validation_base@_WV?$string_output_adapter@_W@__crt_stdio_output@@@2@@__crt_stdio_output@@CADH_N@Z 1004a760 f i libucrtd:output.obj
 0001:000497a0       ?adjust_hexit@?$output_processor@_WV?$string_output_adapter@_W@__crt_stdio_output@@V?$positional_parameter_base@_WV?$string_output_adapter@_W@__crt_stdio_output@@@2@@__crt_stdio_output@@CADH_N@Z 1004a7a0 f i libucrtd:output.obj
 0001:000497e0       ?adjust_hexit@?$output_processor@_WV?$string_output_adapter@_W@__crt_stdio_output@@V?$standard_base@_WV?$string_output_adapter@_W@__crt_stdio_output@@@2@@__crt_stdio_output@@CADH_N@Z 1004a7e0 f i libucrtd:output.obj
 0001:00049820       ?advance_to_next_pass@?$positional_parameter_base@DV?$stream_output_adapter@D@__crt_stdio_output@@@__crt_stdio_output@@IAE_NXZ 1004a820 f i libucrtd:output.obj
 0001:000498c0       ?advance_to_next_pass@?$positional_parameter_base@DV?$string_output_adapter@D@__crt_stdio_output@@@__crt_stdio_output@@IAE_NXZ 1004a8c0 f i libucrtd:output.obj
 0001:00049960       ?advance_to_next_pass@?$positional_parameter_base@_WV?$stream_output_adapter@_W@__crt_stdio_output@@@__crt_stdio_output@@IAE_NXZ 1004a960 f i libucrtd:output.obj
 0001:00049a00       ?advance_to_next_pass@?$positional_parameter_base@_WV?$string_output_adapter@_W@__crt_stdio_output@@@__crt_stdio_output@@IAE_NXZ 1004aa00 f i libucrtd:output.obj
 0001:00049aa0       ?advance_to_next_pass@?$standard_base@DV?$stream_output_adapter@D@__crt_stdio_output@@@__crt_stdio_output@@IAE_NXZ 1004aaa0 f i libucrtd:output.obj
 0001:00049af0       ?advance_to_next_pass@?$standard_base@DV?$string_output_adapter@D@__crt_stdio_output@@@__crt_stdio_output@@IAE_NXZ 1004aaf0 f i libucrtd:output.obj
 0001:00049b40       ?advance_to_next_pass@?$standard_base@_WV?$stream_output_adapter@_W@__crt_stdio_output@@@__crt_stdio_output@@IAE_NXZ 1004ab40 f i libucrtd:output.obj
 0001:00049b90       ?advance_to_next_pass@?$standard_base@_WV?$string_output_adapter@_W@__crt_stdio_output@@@__crt_stdio_output@@IAE_NXZ 1004ab90 f i libucrtd:output.obj
 0001:00049be0       ?crop_zeroes@__crt_stdio_output@@YAXPADQAU__crt_locale_pointers@@@Z 1004abe0 f i libucrtd:output.obj
 0001:00049ce0       ?find_next_state@?$output_processor@DV?$stream_output_adapter@D@__crt_stdio_output@@V?$format_validation_base@DV?$stream_output_adapter@D@__crt_stdio_output@@@2@@__crt_stdio_output@@ABE?AW4state@2@DW432@@Z 1004ace0 f i libucrtd:output.obj
 0001:00049d60       ?find_next_state@?$output_processor@DV?$stream_output_adapter@D@__crt_stdio_output@@V?$positional_parameter_base@DV?$stream_output_adapter@D@__crt_stdio_output@@@2@@__crt_stdio_output@@ABE?AW4state@2@DW432@@Z 1004ad60 f i libucrtd:output.obj
 0001:00049de0       ?find_next_state@?$output_processor@DV?$stream_output_adapter@D@__crt_stdio_output@@V?$standard_base@DV?$stream_output_adapter@D@__crt_stdio_output@@@2@@__crt_stdio_output@@ABE?AW4state@2@DW432@@Z 1004ade0 f i libucrtd:output.obj
 0001:00049e60       ?find_next_state@?$output_processor@DV?$string_output_adapter@D@__crt_stdio_output@@V?$format_validation_base@DV?$string_output_adapter@D@__crt_stdio_output@@@2@@__crt_stdio_output@@ABE?AW4state@2@DW432@@Z 1004ae60 f i libucrtd:output.obj
 0001:00049ee0       ?find_next_state@?$output_processor@DV?$string_output_adapter@D@__crt_stdio_output@@V?$positional_parameter_base@DV?$string_output_adapter@D@__crt_stdio_output@@@2@@__crt_stdio_output@@ABE?AW4state@2@DW432@@Z 1004aee0 f i libucrtd:output.obj
 0001:00049f60       ?find_next_state@?$output_processor@DV?$string_output_adapter@D@__crt_stdio_output@@V?$standard_base@DV?$string_output_adapter@D@__crt_stdio_output@@@2@@__crt_stdio_output@@ABE?AW4state@2@DW432@@Z 1004af60 f i libucrtd:output.obj
 0001:00049fe0       ?find_next_state@?$output_processor@_WV?$stream_output_adapter@_W@__crt_stdio_output@@V?$format_validation_base@_WV?$stream_output_adapter@_W@__crt_stdio_output@@@2@@__crt_stdio_output@@ABE?AW4state@2@_WW432@@Z 1004afe0 f i libucrtd:output.obj
 0001:0004a060       ?find_next_state@?$output_processor@_WV?$stream_output_adapter@_W@__crt_stdio_output@@V?$positional_parameter_base@_WV?$stream_output_adapter@_W@__crt_stdio_output@@@2@@__crt_stdio_output@@ABE?AW4state@2@_WW432@@Z 1004b060 f i libucrtd:output.obj
 0001:0004a0e0       ?find_next_state@?$output_processor@_WV?$stream_output_adapter@_W@__crt_stdio_output@@V?$standard_base@_WV?$stream_output_adapter@_W@__crt_stdio_output@@@2@@__crt_stdio_output@@ABE?AW4state@2@_WW432@@Z 1004b0e0 f i libucrtd:output.obj
 0001:0004a160       ?find_next_state@?$output_processor@_WV?$string_output_adapter@_W@__crt_stdio_output@@V?$format_validation_base@_WV?$string_output_adapter@_W@__crt_stdio_output@@@2@@__crt_stdio_output@@ABE?AW4state@2@_WW432@@Z 1004b160 f i libucrtd:output.obj
 0001:0004a1e0       ?find_next_state@?$output_processor@_WV?$string_output_adapter@_W@__crt_stdio_output@@V?$positional_parameter_base@_WV?$string_output_adapter@_W@__crt_stdio_output@@@2@@__crt_stdio_output@@ABE?AW4state@2@_WW432@@Z 1004b1e0 f i libucrtd:output.obj
 0001:0004a260       ?find_next_state@?$output_processor@_WV?$string_output_adapter@_W@__crt_stdio_output@@V?$standard_base@_WV?$string_output_adapter@_W@__crt_stdio_output@@@2@@__crt_stdio_output@@ABE?AW4state@2@_WW432@@Z 1004b260 f i libucrtd:output.obj
 0001:0004a2e0       ?force_decimal_point@__crt_stdio_output@@YAXPADQAU__crt_locale_pointers@@@Z 1004b2e0 f i libucrtd:output.obj
 0001:0004a3b0       ?get@__crt_deferred_errno_cache@@QAEAAHXZ 1004b3b0 f i libucrtd:output.obj
 0001:0004a3e0       ?get_flags@__crt_stdio_stream@@QBEJXZ 1004b3e0 f i libucrtd:output.obj
 0001:0004a400       ?get_parameter_type@?$positional_parameter_base@DV?$stream_output_adapter@D@__crt_stdio_output@@@__crt_stdio_output@@CA?AW4parameter_type@12@F@Z 1004b400 f i libucrtd:output.obj
 0001:0004a410       ?get_parameter_type@?$positional_parameter_base@DV?$stream_output_adapter@D@__crt_stdio_output@@@__crt_stdio_output@@CA?AW4parameter_type@12@G@Z 1004b410 f i libucrtd:output.obj
 0001:0004a420       ?get_parameter_type@?$positional_parameter_base@DV?$stream_output_adapter@D@__crt_stdio_output@@@__crt_stdio_output@@CA?AW4parameter_type@12@H@Z 1004b420 f i libucrtd:output.obj
 0001:0004a430       ?get_parameter_type@?$positional_parameter_base@DV?$stream_output_adapter@D@__crt_stdio_output@@@__crt_stdio_output@@CA?AW4parameter_type@12@I@Z 1004b430 f i libucrtd:output.obj
 0001:0004a440       ?get_parameter_type@?$positional_parameter_base@DV?$stream_output_adapter@D@__crt_stdio_output@@@__crt_stdio_output@@CA?AW4parameter_type@12@U_CRT_DOUBLE@@@Z 1004b440 f i libucrtd:output.obj
 0001:0004a450       ?get_parameter_type@?$positional_parameter_base@DV?$stream_output_adapter@D@__crt_stdio_output@@@__crt_stdio_output@@CA?AW4parameter_type@12@_J@Z 1004b450 f i libucrtd:output.obj
 0001:0004a460       ?get_parameter_type@?$positional_parameter_base@DV?$stream_output_adapter@D@__crt_stdio_output@@@__crt_stdio_output@@CA?AW4parameter_type@12@_K@Z 1004b460 f i libucrtd:output.obj
 0001:0004a470       ?get_parameter_type@?$positional_parameter_base@DV?$stream_output_adapter@D@__crt_stdio_output@@@__crt_stdio_output@@CA?AW4parameter_type@12@_W@Z 1004b470 f i libucrtd:output.obj
 0001:0004a480       ?get_parameter_type@?$positional_parameter_base@DV?$string_output_adapter@D@__crt_stdio_output@@@__crt_stdio_output@@CA?AW4parameter_type@12@F@Z 1004b480 f i libucrtd:output.obj
 0001:0004a490       ?get_parameter_type@?$positional_parameter_base@DV?$string_output_adapter@D@__crt_stdio_output@@@__crt_stdio_output@@CA?AW4parameter_type@12@G@Z 1004b490 f i libucrtd:output.obj
 0001:0004a4a0       ?get_parameter_type@?$positional_parameter_base@DV?$string_output_adapter@D@__crt_stdio_output@@@__crt_stdio_output@@CA?AW4parameter_type@12@H@Z 1004b4a0 f i libucrtd:output.obj
 0001:0004a4b0       ?get_parameter_type@?$positional_parameter_base@DV?$string_output_adapter@D@__crt_stdio_output@@@__crt_stdio_output@@CA?AW4parameter_type@12@I@Z 1004b4b0 f i libucrtd:output.obj
 0001:0004a4c0       ?get_parameter_type@?$positional_parameter_base@DV?$string_output_adapter@D@__crt_stdio_output@@@__crt_stdio_output@@CA?AW4parameter_type@12@U_CRT_DOUBLE@@@Z 1004b4c0 f i libucrtd:output.obj
 0001:0004a4d0       ?get_parameter_type@?$positional_parameter_base@DV?$string_output_adapter@D@__crt_stdio_output@@@__crt_stdio_output@@CA?AW4parameter_type@12@_J@Z 1004b4d0 f i libucrtd:output.obj
 0001:0004a4e0       ?get_parameter_type@?$positional_parameter_base@DV?$string_output_adapter@D@__crt_stdio_output@@@__crt_stdio_output@@CA?AW4parameter_type@12@_K@Z 1004b4e0 f i libucrtd:output.obj
 0001:0004a4f0       ?get_parameter_type@?$positional_parameter_base@DV?$string_output_adapter@D@__crt_stdio_output@@@__crt_stdio_output@@CA?AW4parameter_type@12@_W@Z 1004b4f0 f i libucrtd:output.obj
 0001:0004a500       ?get_parameter_type@?$positional_parameter_base@_WV?$stream_output_adapter@_W@__crt_stdio_output@@@__crt_stdio_output@@CA?AW4parameter_type@12@F@Z 1004b500 f i libucrtd:output.obj
 0001:0004a510       ?get_parameter_type@?$positional_parameter_base@_WV?$stream_output_adapter@_W@__crt_stdio_output@@@__crt_stdio_output@@CA?AW4parameter_type@12@G@Z 1004b510 f i libucrtd:output.obj
 0001:0004a520       ?get_parameter_type@?$positional_parameter_base@_WV?$stream_output_adapter@_W@__crt_stdio_output@@@__crt_stdio_output@@CA?AW4parameter_type@12@H@Z 1004b520 f i libucrtd:output.obj
 0001:0004a530       ?get_parameter_type@?$positional_parameter_base@_WV?$stream_output_adapter@_W@__crt_stdio_output@@@__crt_stdio_output@@CA?AW4parameter_type@12@I@Z 1004b530 f i libucrtd:output.obj
 0001:0004a540       ?get_parameter_type@?$positional_parameter_base@_WV?$stream_output_adapter@_W@__crt_stdio_output@@@__crt_stdio_output@@CA?AW4parameter_type@12@U_CRT_DOUBLE@@@Z 1004b540 f i libucrtd:output.obj
 0001:0004a550       ?get_parameter_type@?$positional_parameter_base@_WV?$stream_output_adapter@_W@__crt_stdio_output@@@__crt_stdio_output@@CA?AW4parameter_type@12@_J@Z 1004b550 f i libucrtd:output.obj
 0001:0004a560       ?get_parameter_type@?$positional_parameter_base@_WV?$stream_output_adapter@_W@__crt_stdio_output@@@__crt_stdio_output@@CA?AW4parameter_type@12@_K@Z 1004b560 f i libucrtd:output.obj
 0001:0004a570       ?get_parameter_type@?$positional_parameter_base@_WV?$stream_output_adapter@_W@__crt_stdio_output@@@__crt_stdio_output@@CA?AW4parameter_type@12@_W@Z 1004b570 f i libucrtd:output.obj
 0001:0004a580       ?get_parameter_type@?$positional_parameter_base@_WV?$string_output_adapter@_W@__crt_stdio_output@@@__crt_stdio_output@@CA?AW4parameter_type@12@F@Z 1004b580 f i libucrtd:output.obj
 0001:0004a590       ?get_parameter_type@?$positional_parameter_base@_WV?$string_output_adapter@_W@__crt_stdio_output@@@__crt_stdio_output@@CA?AW4parameter_type@12@G@Z 1004b590 f i libucrtd:output.obj
 0001:0004a5a0       ?get_parameter_type@?$positional_parameter_base@_WV?$string_output_adapter@_W@__crt_stdio_output@@@__crt_stdio_output@@CA?AW4parameter_type@12@H@Z 1004b5a0 f i libucrtd:output.obj
 0001:0004a5b0       ?get_parameter_type@?$positional_parameter_base@_WV?$string_output_adapter@_W@__crt_stdio_output@@@__crt_stdio_output@@CA?AW4parameter_type@12@I@Z 1004b5b0 f i libucrtd:output.obj
 0001:0004a5c0       ?get_parameter_type@?$positional_parameter_base@_WV?$string_output_adapter@_W@__crt_stdio_output@@@__crt_stdio_output@@CA?AW4parameter_type@12@U_CRT_DOUBLE@@@Z 1004b5c0 f i libucrtd:output.obj
 0001:0004a5d0       ?get_parameter_type@?$positional_parameter_base@_WV?$string_output_adapter@_W@__crt_stdio_output@@@__crt_stdio_output@@CA?AW4parameter_type@12@_J@Z 1004b5d0 f i libucrtd:output.obj
 0001:0004a5e0       ?get_parameter_type@?$positional_parameter_base@_WV?$string_output_adapter@_W@__crt_stdio_output@@@__crt_stdio_output@@CA?AW4parameter_type@12@_K@Z 1004b5e0 f i libucrtd:output.obj
 0001:0004a5f0       ?get_parameter_type@?$positional_parameter_base@_WV?$string_output_adapter@_W@__crt_stdio_output@@@__crt_stdio_output@@CA?AW4parameter_type@12@_W@Z 1004b5f0 f i libucrtd:output.obj
 0001:0004a600       ?has_flag@?$output_processor@DV?$stream_output_adapter@D@__crt_stdio_output@@V?$format_validation_base@DV?$stream_output_adapter@D@__crt_stdio_output@@@2@@__crt_stdio_output@@ABE_NI@Z 1004b600 f i libucrtd:output.obj
 0001:0004a630       ?has_flag@?$output_processor@DV?$stream_output_adapter@D@__crt_stdio_output@@V?$positional_parameter_base@DV?$stream_output_adapter@D@__crt_stdio_output@@@2@@__crt_stdio_output@@ABE_NI@Z 1004b630 f i libucrtd:output.obj
 0001:0004a660       ?has_flag@?$output_processor@DV?$stream_output_adapter@D@__crt_stdio_output@@V?$standard_base@DV?$stream_output_adapter@D@__crt_stdio_output@@@2@@__crt_stdio_output@@ABE_NI@Z 1004b660 f i libucrtd:output.obj
 0001:0004a690       ?has_flag@?$output_processor@DV?$string_output_adapter@D@__crt_stdio_output@@V?$format_validation_base@DV?$string_output_adapter@D@__crt_stdio_output@@@2@@__crt_stdio_output@@ABE_NI@Z 1004b690 f i libucrtd:output.obj
 0001:0004a6c0       ?has_flag@?$output_processor@DV?$string_output_adapter@D@__crt_stdio_output@@V?$positional_parameter_base@DV?$string_output_adapter@D@__crt_stdio_output@@@2@@__crt_stdio_output@@ABE_NI@Z 1004b6c0 f i libucrtd:output.obj
 0001:0004a6f0       ?has_flag@?$output_processor@DV?$string_output_adapter@D@__crt_stdio_output@@V?$standard_base@DV?$string_output_adapter@D@__crt_stdio_output@@@2@@__crt_stdio_output@@ABE_NI@Z 1004b6f0 f i libucrtd:output.obj
 0001:0004a720       ?has_flag@?$output_processor@_WV?$stream_output_adapter@_W@__crt_stdio_output@@V?$format_validation_base@_WV?$stream_output_adapter@_W@__crt_stdio_output@@@2@@__crt_stdio_output@@ABE_NI@Z 1004b720 f i libucrtd:output.obj
 0001:0004a750       ?has_flag@?$output_processor@_WV?$stream_output_adapter@_W@__crt_stdio_output@@V?$positional_parameter_base@_WV?$stream_output_adapter@_W@__crt_stdio_output@@@2@@__crt_stdio_output@@ABE_NI@Z 1004b750 f i libucrtd:output.obj
 0001:0004a780       ?has_flag@?$output_processor@_WV?$stream_output_adapter@_W@__crt_stdio_output@@V?$standard_base@_WV?$stream_output_adapter@_W@__crt_stdio_output@@@2@@__crt_stdio_output@@ABE_NI@Z 1004b780 f i libucrtd:output.obj
 0001:0004a7b0       ?has_flag@?$output_processor@_WV?$string_output_adapter@_W@__crt_stdio_output@@V?$format_validation_base@_WV?$string_output_adapter@_W@__crt_stdio_output@@@2@@__crt_stdio_output@@ABE_NI@Z 1004b7b0 f i libucrtd:output.obj
 0001:0004a7e0       ?has_flag@?$output_processor@_WV?$string_output_adapter@_W@__crt_stdio_output@@V?$positional_parameter_base@_WV?$string_output_adapter@_W@__crt_stdio_output@@@2@@__crt_stdio_output@@ABE_NI@Z 1004b7e0 f i libucrtd:output.obj
 0001:0004a810       ?has_flag@?$output_processor@_WV?$string_output_adapter@_W@__crt_stdio_output@@V?$standard_base@_WV?$string_output_adapter@_W@__crt_stdio_output@@@2@@__crt_stdio_output@@ABE_NI@Z 1004b810 f i libucrtd:output.obj
 0001:0004a840       ?is_positional_parameter_reappearance_consistent@?$positional_parameter_base@DV?$stream_output_adapter@D@__crt_stdio_output@@@__crt_stdio_output@@AAE_NABUparameter_data@12@W4parameter_type@12@DW4length_modifier@2@@Z 1004b840 f i libucrtd:output.obj
 0001:0004aa70       ?is_positional_parameter_reappearance_consistent@?$positional_parameter_base@DV?$string_output_adapter@D@__crt_stdio_output@@@__crt_stdio_output@@AAE_NABUparameter_data@12@W4parameter_type@12@DW4length_modifier@2@@Z 1004ba70 f i libucrtd:output.obj
 0001:0004aca0       ?is_positional_parameter_reappearance_consistent@?$positional_parameter_base@_WV?$stream_output_adapter@_W@__crt_stdio_output@@@__crt_stdio_output@@AAE_NABUparameter_data@12@W4parameter_type@12@_WW4length_modifier@2@@Z 1004bca0 f i libucrtd:output.obj
 0001:0004aed0       ?is_positional_parameter_reappearance_consistent@?$positional_parameter_base@_WV?$string_output_adapter@_W@__crt_stdio_output@@@__crt_stdio_output@@AAE_NABUparameter_data@12@W4parameter_type@12@_WW4length_modifier@2@@Z 1004bed0 f i libucrtd:output.obj
 0001:0004b100       ?is_string_backed@__crt_stdio_stream@@QBE_NXZ 1004c100 f i libucrtd:output.obj
 0001:0004b140       ?narrow_null_string@?$output_processor@DV?$stream_output_adapter@D@__crt_stdio_output@@V?$format_validation_base@DV?$stream_output_adapter@D@__crt_stdio_output@@@2@@__crt_stdio_output@@CAPADXZ 1004c140 f i libucrtd:output.obj
 0001:0004b150       ?narrow_null_string@?$output_processor@DV?$stream_output_adapter@D@__crt_stdio_output@@V?$positional_parameter_base@DV?$stream_output_adapter@D@__crt_stdio_output@@@2@@__crt_stdio_output@@CAPADXZ 1004c150 f i libucrtd:output.obj
 0001:0004b160       ?narrow_null_string@?$output_processor@DV?$stream_output_adapter@D@__crt_stdio_output@@V?$standard_base@DV?$stream_output_adapter@D@__crt_stdio_output@@@2@@__crt_stdio_output@@CAPADXZ 1004c160 f i libucrtd:output.obj
 0001:0004b170       ?narrow_null_string@?$output_processor@DV?$string_output_adapter@D@__crt_stdio_output@@V?$format_validation_base@DV?$string_output_adapter@D@__crt_stdio_output@@@2@@__crt_stdio_output@@CAPADXZ 1004c170 f i libucrtd:output.obj
 0001:0004b180       ?narrow_null_string@?$output_processor@DV?$string_output_adapter@D@__crt_stdio_output@@V?$positional_parameter_base@DV?$string_output_adapter@D@__crt_stdio_output@@@2@@__crt_stdio_output@@CAPADXZ 1004c180 f i libucrtd:output.obj
 0001:0004b190       ?narrow_null_string@?$output_processor@DV?$string_output_adapter@D@__crt_stdio_output@@V?$standard_base@DV?$string_output_adapter@D@__crt_stdio_output@@@2@@__crt_stdio_output@@CAPADXZ 1004c190 f i libucrtd:output.obj
 0001:0004b1a0       ?narrow_null_string@?$output_processor@_WV?$stream_output_adapter@_W@__crt_stdio_output@@V?$format_validation_base@_WV?$stream_output_adapter@_W@__crt_stdio_output@@@2@@__crt_stdio_output@@CAPADXZ 1004c1a0 f i libucrtd:output.obj
 0001:0004b1b0       ?narrow_null_string@?$output_processor@_WV?$stream_output_adapter@_W@__crt_stdio_output@@V?$positional_parameter_base@_WV?$stream_output_adapter@_W@__crt_stdio_output@@@2@@__crt_stdio_output@@CAPADXZ 1004c1b0 f i libucrtd:output.obj
 0001:0004b1c0       ?narrow_null_string@?$output_processor@_WV?$stream_output_adapter@_W@__crt_stdio_output@@V?$standard_base@_WV?$stream_output_adapter@_W@__crt_stdio_output@@@2@@__crt_stdio_output@@CAPADXZ 1004c1c0 f i libucrtd:output.obj
 0001:0004b1d0       ?narrow_null_string@?$output_processor@_WV?$string_output_adapter@_W@__crt_stdio_output@@V?$format_validation_base@_WV?$string_output_adapter@_W@__crt_stdio_output@@@2@@__crt_stdio_output@@CAPADXZ 1004c1d0 f i libucrtd:output.obj
 0001:0004b1e0       ?narrow_null_string@?$output_processor@_WV?$string_output_adapter@_W@__crt_stdio_output@@V?$positional_parameter_base@_WV?$string_output_adapter@_W@__crt_stdio_output@@@2@@__crt_stdio_output@@CAPADXZ 1004c1e0 f i libucrtd:output.obj
 0001:0004b1f0       ?narrow_null_string@?$output_processor@_WV?$string_output_adapter@_W@__crt_stdio_output@@V?$standard_base@_WV?$string_output_adapter@_W@__crt_stdio_output@@@2@@__crt_stdio_output@@CAPADXZ 1004c1f0 f i libucrtd:output.obj
 0001:0004b200       ?parse_int_from_format_string@?$output_processor@DV?$stream_output_adapter@D@__crt_stdio_output@@V?$format_validation_base@DV?$stream_output_adapter@D@__crt_stdio_output@@@2@@__crt_stdio_output@@AAE_NQAH@Z 1004c200 f i libucrtd:output.obj
 0001:0004b2c0       ?parse_int_from_format_string@?$output_processor@DV?$stream_output_adapter@D@__crt_stdio_output@@V?$positional_parameter_base@DV?$stream_output_adapter@D@__crt_stdio_output@@@2@@__crt_stdio_output@@AAE_NQAH@Z 1004c2c0 f i libucrtd:output.obj
 0001:0004b380       ?parse_int_from_format_string@?$output_processor@DV?$stream_output_adapter@D@__crt_stdio_output@@V?$standard_base@DV?$stream_output_adapter@D@__crt_stdio_output@@@2@@__crt_stdio_output@@AAE_NQAH@Z 1004c380 f i libucrtd:output.obj
 0001:0004b440       ?parse_int_from_format_string@?$output_processor@DV?$string_output_adapter@D@__crt_stdio_output@@V?$format_validation_base@DV?$string_output_adapter@D@__crt_stdio_output@@@2@@__crt_stdio_output@@AAE_NQAH@Z 1004c440 f i libucrtd:output.obj
 0001:0004b500       ?parse_int_from_format_string@?$output_processor@DV?$string_output_adapter@D@__crt_stdio_output@@V?$positional_parameter_base@DV?$string_output_adapter@D@__crt_stdio_output@@@2@@__crt_stdio_output@@AAE_NQAH@Z 1004c500 f i libucrtd:output.obj
 0001:0004b5c0       ?parse_int_from_format_string@?$output_processor@DV?$string_output_adapter@D@__crt_stdio_output@@V?$standard_base@DV?$string_output_adapter@D@__crt_stdio_output@@@2@@__crt_stdio_output@@AAE_NQAH@Z 1004c5c0 f i libucrtd:output.obj
 0001:0004b680       ?parse_int_from_format_string@?$output_processor@_WV?$stream_output_adapter@_W@__crt_stdio_output@@V?$format_validation_base@_WV?$stream_output_adapter@_W@__crt_stdio_output@@@2@@__crt_stdio_output@@AAE_NQAH@Z 1004c680 f i libucrtd:output.obj
 0001:0004b740       ?parse_int_from_format_string@?$output_processor@_WV?$stream_output_adapter@_W@__crt_stdio_output@@V?$positional_parameter_base@_WV?$stream_output_adapter@_W@__crt_stdio_output@@@2@@__crt_stdio_output@@AAE_NQAH@Z 1004c740 f i libucrtd:output.obj
 0001:0004b800       ?parse_int_from_format_string@?$output_processor@_WV?$stream_output_adapter@_W@__crt_stdio_output@@V?$standard_base@_WV?$stream_output_adapter@_W@__crt_stdio_output@@@2@@__crt_stdio_output@@AAE_NQAH@Z 1004c800 f i libucrtd:output.obj
 0001:0004b8c0       ?parse_int_from_format_string@?$output_processor@_WV?$string_output_adapter@_W@__crt_stdio_output@@V?$format_validation_base@_WV?$string_output_adapter@_W@__crt_stdio_output@@@2@@__crt_stdio_output@@AAE_NQAH@Z 1004c8c0 f i libucrtd:output.obj
 0001:0004b980       ?parse_int_from_format_string@?$output_processor@_WV?$string_output_adapter@_W@__crt_stdio_output@@V?$positional_parameter_base@_WV?$string_output_adapter@_W@__crt_stdio_output@@@2@@__crt_stdio_output@@AAE_NQAH@Z 1004c980 f i libucrtd:output.obj
 0001:0004ba40       ?parse_int_from_format_string@?$output_processor@_WV?$string_output_adapter@_W@__crt_stdio_output@@V?$standard_base@_WV?$string_output_adapter@_W@__crt_stdio_output@@@2@@__crt_stdio_output@@AAE_NQAH@Z 1004ca40 f i libucrtd:output.obj
 0001:0004bb00       ?process@?$output_processor@DV?$stream_output_adapter@D@__crt_stdio_output@@V?$format_validation_base@DV?$stream_output_adapter@D@__crt_stdio_output@@@2@@__crt_stdio_output@@QAEHXZ 1004cb00 f i libucrtd:output.obj
 0001:0004bdb0       ?process@?$output_processor@DV?$stream_output_adapter@D@__crt_stdio_output@@V?$positional_parameter_base@DV?$stream_output_adapter@D@__crt_stdio_output@@@2@@__crt_stdio_output@@QAEHXZ 1004cdb0 f i libucrtd:output.obj
 0001:0004c060       ?process@?$output_processor@DV?$stream_output_adapter@D@__crt_stdio_output@@V?$standard_base@DV?$stream_output_adapter@D@__crt_stdio_output@@@2@@__crt_stdio_output@@QAEHXZ 1004d060 f i libucrtd:output.obj
 0001:0004c310       ?process@?$output_processor@DV?$string_output_adapter@D@__crt_stdio_output@@V?$format_validation_base@DV?$string_output_adapter@D@__crt_stdio_output@@@2@@__crt_stdio_output@@QAEHXZ 1004d310 f i libucrtd:output.obj
 0001:0004c5c0       ?process@?$output_processor@DV?$string_output_adapter@D@__crt_stdio_output@@V?$positional_parameter_base@DV?$string_output_adapter@D@__crt_stdio_output@@@2@@__crt_stdio_output@@QAEHXZ 1004d5c0 f i libucrtd:output.obj
 0001:0004c870       ?process@?$output_processor@DV?$string_output_adapter@D@__crt_stdio_output@@V?$standard_base@DV?$string_output_adapter@D@__crt_stdio_output@@@2@@__crt_stdio_output@@QAEHXZ 1004d870 f i libucrtd:output.obj
 0001:0004cb20       ?process@?$output_processor@_WV?$stream_output_adapter@_W@__crt_stdio_output@@V?$format_validation_base@_WV?$stream_output_adapter@_W@__crt_stdio_output@@@2@@__crt_stdio_output@@QAEHXZ 1004db20 f i libucrtd:output.obj
 0001:0004cdd0       ?process@?$output_processor@_WV?$stream_output_adapter@_W@__crt_stdio_output@@V?$positional_parameter_base@_WV?$stream_output_adapter@_W@__crt_stdio_output@@@2@@__crt_stdio_output@@QAEHXZ 1004ddd0 f i libucrtd:output.obj
 0001:0004d080       ?process@?$output_processor@_WV?$stream_output_adapter@_W@__crt_stdio_output@@V?$standard_base@_WV?$stream_output_adapter@_W@__crt_stdio_output@@@2@@__crt_stdio_output@@QAEHXZ 1004e080 f i libucrtd:output.obj
 0001:0004d330       ?process@?$output_processor@_WV?$string_output_adapter@_W@__crt_stdio_output@@V?$format_validation_base@_WV?$string_output_adapter@_W@__crt_stdio_output@@@2@@__crt_stdio_output@@QAEHXZ 1004e330 f i libucrtd:output.obj
 0001:0004d5e0       ?process@?$output_processor@_WV?$string_output_adapter@_W@__crt_stdio_output@@V?$positional_parameter_base@_WV?$string_output_adapter@_W@__crt_stdio_output@@@2@@__crt_stdio_output@@QAEHXZ 1004e5e0 f i libucrtd:output.obj
 0001:0004d890       ?process@?$output_processor@_WV?$string_output_adapter@_W@__crt_stdio_output@@V?$standard_base@_WV?$string_output_adapter@_W@__crt_stdio_output@@@2@@__crt_stdio_output@@QAEHXZ 1004e890 f i libucrtd:output.obj
 0001:0004db40       ?public_stream@__crt_stdio_stream@@QBEPAU_iobuf@@XZ 1004eb40 f i libucrtd:output.obj
 0001:0004db60       ?set_flag@?$output_processor@DV?$stream_output_adapter@D@__crt_stdio_output@@V?$format_validation_base@DV?$stream_output_adapter@D@__crt_stdio_output@@@2@@__crt_stdio_output@@AAEXI@Z 1004eb60 f i libucrtd:output.obj
 0001:0004db80       ?set_flag@?$output_processor@DV?$stream_output_adapter@D@__crt_stdio_output@@V?$positional_parameter_base@DV?$stream_output_adapter@D@__crt_stdio_output@@@2@@__crt_stdio_output@@AAEXI@Z 1004eb80 f i libucrtd:output.obj
 0001:0004dba0       ?set_flag@?$output_processor@DV?$stream_output_adapter@D@__crt_stdio_output@@V?$standard_base@DV?$stream_output_adapter@D@__crt_stdio_output@@@2@@__crt_stdio_output@@AAEXI@Z 1004eba0 f i libucrtd:output.obj
 0001:0004dbc0       ?set_flag@?$output_processor@DV?$string_output_adapter@D@__crt_stdio_output@@V?$format_validation_base@DV?$string_output_adapter@D@__crt_stdio_output@@@2@@__crt_stdio_output@@AAEXI@Z 1004ebc0 f i libucrtd:output.obj
 0001:0004dbe0       ?set_flag@?$output_processor@DV?$string_output_adapter@D@__crt_stdio_output@@V?$positional_parameter_base@DV?$string_output_adapter@D@__crt_stdio_output@@@2@@__crt_stdio_output@@AAEXI@Z 1004ebe0 f i libucrtd:output.obj
 0001:0004dc00       ?set_flag@?$output_processor@DV?$string_output_adapter@D@__crt_stdio_output@@V?$standard_base@DV?$string_output_adapter@D@__crt_stdio_output@@@2@@__crt_stdio_output@@AAEXI@Z 1004ec00 f i libucrtd:output.obj
 0001:0004dc20       ?set_flag@?$output_processor@_WV?$stream_output_adapter@_W@__crt_stdio_output@@V?$format_validation_base@_WV?$stream_output_adapter@_W@__crt_stdio_output@@@2@@__crt_stdio_output@@AAEXI@Z 1004ec20 f i libucrtd:output.obj
 0001:0004dc40       ?set_flag@?$output_processor@_WV?$stream_output_adapter@_W@__crt_stdio_output@@V?$positional_parameter_base@_WV?$stream_output_adapter@_W@__crt_stdio_output@@@2@@__crt_stdio_output@@AAEXI@Z 1004ec40 f i libucrtd:output.obj
 0001:0004dc60       ?set_flag@?$output_processor@_WV?$stream_output_adapter@_W@__crt_stdio_output@@V?$standard_base@_WV?$stream_output_adapter@_W@__crt_stdio_output@@@2@@__crt_stdio_output@@AAEXI@Z 1004ec60 f i libucrtd:output.obj
 0001:0004dc80       ?set_flag@?$output_processor@_WV?$string_output_adapter@_W@__crt_stdio_output@@V?$format_validation_base@_WV?$string_output_adapter@_W@__crt_stdio_output@@@2@@__crt_stdio_output@@AAEXI@Z 1004ec80 f i libucrtd:output.obj
 0001:0004dca0       ?set_flag@?$output_processor@_WV?$string_output_adapter@_W@__crt_stdio_output@@V?$positional_parameter_base@_WV?$string_output_adapter@_W@__crt_stdio_output@@@2@@__crt_stdio_output@@AAEXI@Z 1004eca0 f i libucrtd:output.obj
 0001:0004dcc0       ?set_flag@?$output_processor@_WV?$string_output_adapter@_W@__crt_stdio_output@@V?$standard_base@_WV?$string_output_adapter@_W@__crt_stdio_output@@@2@@__crt_stdio_output@@AAEXI@Z 1004ecc0 f i libucrtd:output.obj
 0001:0004dce0       ?should_format@?$positional_parameter_base@DV?$stream_output_adapter@D@__crt_stdio_output@@@__crt_stdio_output@@IAE_NXZ 1004ece0 f i libucrtd:output.obj
 0001:0004dd20       ?should_format@?$positional_parameter_base@DV?$string_output_adapter@D@__crt_stdio_output@@@__crt_stdio_output@@IAE_NXZ 1004ed20 f i libucrtd:output.obj
 0001:0004dd60       ?should_format@?$positional_parameter_base@_WV?$stream_output_adapter@_W@__crt_stdio_output@@@__crt_stdio_output@@IAE_NXZ 1004ed60 f i libucrtd:output.obj
 0001:0004dda0       ?should_format@?$positional_parameter_base@_WV?$string_output_adapter@_W@__crt_stdio_output@@@__crt_stdio_output@@IAE_NXZ 1004eda0 f i libucrtd:output.obj
 0001:0004dde0       ?should_format@?$standard_base@DV?$stream_output_adapter@D@__crt_stdio_output@@@__crt_stdio_output@@IAE_NXZ 1004ede0 f i libucrtd:output.obj
 0001:0004ddf0       ?should_format@?$standard_base@DV?$string_output_adapter@D@__crt_stdio_output@@@__crt_stdio_output@@IAE_NXZ 1004edf0 f i libucrtd:output.obj
 0001:0004de00       ?should_format@?$standard_base@_WV?$stream_output_adapter@_W@__crt_stdio_output@@@__crt_stdio_output@@IAE_NXZ 1004ee00 f i libucrtd:output.obj
 0001:0004de10       ?should_format@?$standard_base@_WV?$string_output_adapter@_W@__crt_stdio_output@@@__crt_stdio_output@@IAE_NXZ 1004ee10 f i libucrtd:output.obj
 0001:0004de20       ?should_skip_normal_state_processing@?$positional_parameter_base@DV?$stream_output_adapter@D@__crt_stdio_output@@@__crt_stdio_output@@IAE_NXZ 1004ee20 f i libucrtd:output.obj
 0001:0004de70       ?should_skip_normal_state_processing@?$positional_parameter_base@DV?$string_output_adapter@D@__crt_stdio_output@@@__crt_stdio_output@@IAE_NXZ 1004ee70 f i libucrtd:output.obj
 0001:0004dec0       ?should_skip_normal_state_processing@?$positional_parameter_base@_WV?$stream_output_adapter@_W@__crt_stdio_output@@@__crt_stdio_output@@IAE_NXZ 1004eec0 f i libucrtd:output.obj
 0001:0004df10       ?should_skip_normal_state_processing@?$positional_parameter_base@_WV?$string_output_adapter@_W@__crt_stdio_output@@@__crt_stdio_output@@IAE_NXZ 1004ef10 f i libucrtd:output.obj
 0001:0004df60       ?should_skip_normal_state_processing@?$standard_base@DV?$stream_output_adapter@D@__crt_stdio_output@@@__crt_stdio_output@@IAE_NXZ 1004ef60 f i libucrtd:output.obj
 0001:0004df70       ?should_skip_normal_state_processing@?$standard_base@DV?$string_output_adapter@D@__crt_stdio_output@@@__crt_stdio_output@@IAE_NXZ 1004ef70 f i libucrtd:output.obj
 0001:0004df80       ?should_skip_normal_state_processing@?$standard_base@_WV?$stream_output_adapter@_W@__crt_stdio_output@@@__crt_stdio_output@@IAE_NXZ 1004ef80 f i libucrtd:output.obj
 0001:0004df90       ?should_skip_normal_state_processing@?$standard_base@_WV?$string_output_adapter@_W@__crt_stdio_output@@@__crt_stdio_output@@IAE_NXZ 1004ef90 f i libucrtd:output.obj
 0001:0004dfa0       ?should_skip_type_state_output@?$positional_parameter_base@DV?$stream_output_adapter@D@__crt_stdio_output@@@__crt_stdio_output@@IBE_NXZ 1004efa0 f i libucrtd:output.obj
 0001:0004dfe0       ?should_skip_type_state_output@?$positional_parameter_base@DV?$string_output_adapter@D@__crt_stdio_output@@@__crt_stdio_output@@IBE_NXZ 1004efe0 f i libucrtd:output.obj
 0001:0004e020       ?should_skip_type_state_output@?$positional_parameter_base@_WV?$stream_output_adapter@_W@__crt_stdio_output@@@__crt_stdio_output@@IBE_NXZ 1004f020 f i libucrtd:output.obj
 0001:0004e060       ?should_skip_type_state_output@?$positional_parameter_base@_WV?$string_output_adapter@_W@__crt_stdio_output@@@__crt_stdio_output@@IBE_NXZ 1004f060 f i libucrtd:output.obj
 0001:0004e0a0       ?should_skip_type_state_output@?$standard_base@DV?$stream_output_adapter@D@__crt_stdio_output@@@__crt_stdio_output@@IBE_NXZ 1004f0a0 f i libucrtd:output.obj
 0001:0004e0b0       ?should_skip_type_state_output@?$standard_base@DV?$string_output_adapter@D@__crt_stdio_output@@@__crt_stdio_output@@IBE_NXZ 1004f0b0 f i libucrtd:output.obj
 0001:0004e0c0       ?should_skip_type_state_output@?$standard_base@_WV?$stream_output_adapter@_W@__crt_stdio_output@@@__crt_stdio_output@@IBE_NXZ 1004f0c0 f i libucrtd:output.obj
 0001:0004e0d0       ?should_skip_type_state_output@?$standard_base@_WV?$string_output_adapter@_W@__crt_stdio_output@@@__crt_stdio_output@@IBE_NXZ 1004f0d0 f i libucrtd:output.obj
 0001:0004e0e0       ?state_case_dot@?$output_processor@DV?$stream_output_adapter@D@__crt_stdio_output@@V?$format_validation_base@DV?$stream_output_adapter@D@__crt_stdio_output@@@2@@__crt_stdio_output@@AAE_NXZ 1004f0e0 f i libucrtd:output.obj
 0001:0004e100       ?state_case_dot@?$output_processor@DV?$stream_output_adapter@D@__crt_stdio_output@@V?$positional_parameter_base@DV?$stream_output_adapter@D@__crt_stdio_output@@@2@@__crt_stdio_output@@AAE_NXZ 1004f100 f i libucrtd:output.obj
 0001:0004e120       ?state_case_dot@?$output_processor@DV?$stream_output_adapter@D@__crt_stdio_output@@V?$standard_base@DV?$stream_output_adapter@D@__crt_stdio_output@@@2@@__crt_stdio_output@@AAE_NXZ 1004f120 f i libucrtd:output.obj
 0001:0004e140       ?state_case_dot@?$output_processor@DV?$string_output_adapter@D@__crt_stdio_output@@V?$format_validation_base@DV?$string_output_adapter@D@__crt_stdio_output@@@2@@__crt_stdio_output@@AAE_NXZ 1004f140 f i libucrtd:output.obj
 0001:0004e160       ?state_case_dot@?$output_processor@DV?$string_output_adapter@D@__crt_stdio_output@@V?$positional_parameter_base@DV?$string_output_adapter@D@__crt_stdio_output@@@2@@__crt_stdio_output@@AAE_NXZ 1004f160 f i libucrtd:output.obj
 0001:0004e180       ?state_case_dot@?$output_processor@DV?$string_output_adapter@D@__crt_stdio_output@@V?$standard_base@DV?$string_output_adapter@D@__crt_stdio_output@@@2@@__crt_stdio_output@@AAE_NXZ 1004f180 f i libucrtd:output.obj
 0001:0004e1a0       ?state_case_dot@?$output_processor@_WV?$stream_output_adapter@_W@__crt_stdio_output@@V?$format_validation_base@_WV?$stream_output_adapter@_W@__crt_stdio_output@@@2@@__crt_stdio_output@@AAE_NXZ 1004f1a0 f i libucrtd:output.obj
 0001:0004e1c0       ?state_case_dot@?$output_processor@_WV?$stream_output_adapter@_W@__crt_stdio_output@@V?$positional_parameter_base@_WV?$stream_output_adapter@_W@__crt_stdio_output@@@2@@__crt_stdio_output@@AAE_NXZ 1004f1c0 f i libucrtd:output.obj
 0001:0004e1e0       ?state_case_dot@?$output_processor@_WV?$stream_output_adapter@_W@__crt_stdio_output@@V?$standard_base@_WV?$stream_output_adapter@_W@__crt_stdio_output@@@2@@__crt_stdio_output@@AAE_NXZ 1004f1e0 f i libucrtd:output.obj
 0001:0004e200       ?state_case_dot@?$output_processor@_WV?$string_output_adapter@_W@__crt_stdio_output@@V?$format_validation_base@_WV?$string_output_adapter@_W@__crt_stdio_output@@@2@@__crt_stdio_output@@AAE_NXZ 1004f200 f i libucrtd:output.obj
 0001:0004e220       ?state_case_dot@?$output_processor@_WV?$string_output_adapter@_W@__crt_stdio_output@@V?$positional_parameter_base@_WV?$string_output_adapter@_W@__crt_stdio_output@@@2@@__crt_stdio_output@@AAE_NXZ 1004f220 f i libucrtd:output.obj
 0001:0004e240       ?state_case_dot@?$output_processor@_WV?$string_output_adapter@_W@__crt_stdio_output@@V?$standard_base@_WV?$string_output_adapter@_W@__crt_stdio_output@@@2@@__crt_stdio_output@@AAE_NXZ 1004f240 f i libucrtd:output.obj
 0001:0004e260       ?state_case_flag@?$output_processor@DV?$stream_output_adapter@D@__crt_stdio_output@@V?$format_validation_base@DV?$stream_output_adapter@D@__crt_stdio_output@@@2@@__crt_stdio_output@@AAE_NXZ 1004f260 f i libucrtd:output.obj
 0001:0004e310       ?state_case_flag@?$output_processor@DV?$stream_output_adapter@D@__crt_stdio_output@@V?$positional_parameter_base@DV?$stream_output_adapter@D@__crt_stdio_output@@@2@@__crt_stdio_output@@AAE_NXZ 1004f310 f i libucrtd:output.obj
 0001:0004e3c0       ?state_case_flag@?$output_processor@DV?$stream_output_adapter@D@__crt_stdio_output@@V?$standard_base@DV?$stream_output_adapter@D@__crt_stdio_output@@@2@@__crt_stdio_output@@AAE_NXZ 1004f3c0 f i libucrtd:output.obj
 0001:0004e470       ?state_case_flag@?$output_processor@DV?$string_output_adapter@D@__crt_stdio_output@@V?$format_validation_base@DV?$string_output_adapter@D@__crt_stdio_output@@@2@@__crt_stdio_output@@AAE_NXZ 1004f470 f i libucrtd:output.obj
 0001:0004e520       ?state_case_flag@?$output_processor@DV?$string_output_adapter@D@__crt_stdio_output@@V?$positional_parameter_base@DV?$string_output_adapter@D@__crt_stdio_output@@@2@@__crt_stdio_output@@AAE_NXZ 1004f520 f i libucrtd:output.obj
 0001:0004e5d0       ?state_case_flag@?$output_processor@DV?$string_output_adapter@D@__crt_stdio_output@@V?$standard_base@DV?$string_output_adapter@D@__crt_stdio_output@@@2@@__crt_stdio_output@@AAE_NXZ 1004f5d0 f i libucrtd:output.obj
 0001:0004e680       ?state_case_flag@?$output_processor@_WV?$stream_output_adapter@_W@__crt_stdio_output@@V?$format_validation_base@_WV?$stream_output_adapter@_W@__crt_stdio_output@@@2@@__crt_stdio_output@@AAE_NXZ 1004f680 f i libucrtd:output.obj
 0001:0004e730       ?state_case_flag@?$output_processor@_WV?$stream_output_adapter@_W@__crt_stdio_output@@V?$positional_parameter_base@_WV?$stream_output_adapter@_W@__crt_stdio_output@@@2@@__crt_stdio_output@@AAE_NXZ 1004f730 f i libucrtd:output.obj
 0001:0004e7e0       ?state_case_flag@?$output_processor@_WV?$stream_output_adapter@_W@__crt_stdio_output@@V?$standard_base@_WV?$stream_output_adapter@_W@__crt_stdio_output@@@2@@__crt_stdio_output@@AAE_NXZ 1004f7e0 f i libucrtd:output.obj
 0001:0004e890       ?state_case_flag@?$output_processor@_WV?$string_output_adapter@_W@__crt_stdio_output@@V?$format_validation_base@_WV?$string_output_adapter@_W@__crt_stdio_output@@@2@@__crt_stdio_output@@AAE_NXZ 1004f890 f i libucrtd:output.obj
 0001:0004e940       ?state_case_flag@?$output_processor@_WV?$string_output_adapter@_W@__crt_stdio_output@@V?$positional_parameter_base@_WV?$string_output_adapter@_W@__crt_stdio_output@@@2@@__crt_stdio_output@@AAE_NXZ 1004f940 f i libucrtd:output.obj
 0001:0004e9f0       ?state_case_flag@?$output_processor@_WV?$string_output_adapter@_W@__crt_stdio_output@@V?$standard_base@_WV?$string_output_adapter@_W@__crt_stdio_output@@@2@@__crt_stdio_output@@AAE_NXZ 1004f9f0 f i libucrtd:output.obj
 0001:0004eaa0       ?state_case_normal@?$output_processor@DV?$stream_output_adapter@D@__crt_stdio_output@@V?$format_validation_base@DV?$stream_output_adapter@D@__crt_stdio_output@@@2@@__crt_stdio_output@@AAE_NXZ 1004faa0 f i libucrtd:output.obj
 0001:0004eb50       ?state_case_normal@?$output_processor@DV?$stream_output_adapter@D@__crt_stdio_output@@V?$positional_parameter_base@DV?$stream_output_adapter@D@__crt_stdio_output@@@2@@__crt_stdio_output@@AAE_NXZ 1004fb50 f i libucrtd:output.obj
 0001:0004ec00       ?state_case_normal@?$output_processor@DV?$stream_output_adapter@D@__crt_stdio_output@@V?$standard_base@DV?$stream_output_adapter@D@__crt_stdio_output@@@2@@__crt_stdio_output@@AAE_NXZ 1004fc00 f i libucrtd:output.obj
 0001:0004ecb0       ?state_case_normal@?$output_processor@DV?$string_output_adapter@D@__crt_stdio_output@@V?$format_validation_base@DV?$string_output_adapter@D@__crt_stdio_output@@@2@@__crt_stdio_output@@AAE_NXZ 1004fcb0 f i libucrtd:output.obj
 0001:0004ed60       ?state_case_normal@?$output_processor@DV?$string_output_adapter@D@__crt_stdio_output@@V?$positional_parameter_base@DV?$string_output_adapter@D@__crt_stdio_output@@@2@@__crt_stdio_output@@AAE_NXZ 1004fd60 f i libucrtd:output.obj
 0001:0004ee10       ?state_case_normal@?$output_processor@DV?$string_output_adapter@D@__crt_stdio_output@@V?$standard_base@DV?$string_output_adapter@D@__crt_stdio_output@@@2@@__crt_stdio_output@@AAE_NXZ 1004fe10 f i libucrtd:output.obj
 0001:0004eec0       ?state_case_normal@?$output_processor@_WV?$stream_output_adapter@_W@__crt_stdio_output@@V?$format_validation_base@_WV?$stream_output_adapter@_W@__crt_stdio_output@@@2@@__crt_stdio_output@@AAE_NXZ 1004fec0 f i libucrtd:output.obj
 0001:0004ef70       ?state_case_normal@?$output_processor@_WV?$stream_output_adapter@_W@__crt_stdio_output@@V?$positional_parameter_base@_WV?$stream_output_adapter@_W@__crt_stdio_output@@@2@@__crt_stdio_output@@AAE_NXZ 1004ff70 f i libucrtd:output.obj
 0001:0004f020       ?state_case_normal@?$output_processor@_WV?$stream_output_adapter@_W@__crt_stdio_output@@V?$standard_base@_WV?$stream_output_adapter@_W@__crt_stdio_output@@@2@@__crt_stdio_output@@AAE_NXZ 10050020 f i libucrtd:output.obj
 0001:0004f0d0       ?state_case_normal@?$output_processor@_WV?$string_output_adapter@_W@__crt_stdio_output@@V?$format_validation_base@_WV?$string_output_adapter@_W@__crt_stdio_output@@@2@@__crt_stdio_output@@AAE_NXZ 100500d0 f i libucrtd:output.obj
 0001:0004f180       ?state_case_normal@?$output_processor@_WV?$string_output_adapter@_W@__crt_stdio_output@@V?$positional_parameter_base@_WV?$string_output_adapter@_W@__crt_stdio_output@@@2@@__crt_stdio_output@@AAE_NXZ 10050180 f i libucrtd:output.obj
 0001:0004f230       ?state_case_normal@?$output_processor@_WV?$string_output_adapter@_W@__crt_stdio_output@@V?$standard_base@_WV?$string_output_adapter@_W@__crt_stdio_output@@@2@@__crt_stdio_output@@AAE_NXZ 10050230 f i libucrtd:output.obj
 0001:0004f2e0       ?state_case_normal_common@?$output_processor@DV?$stream_output_adapter@D@__crt_stdio_output@@V?$format_validation_base@DV?$stream_output_adapter@D@__crt_stdio_output@@@2@@__crt_stdio_output@@AAE_NXZ 100502e0 f i libucrtd:output.obj
 0001:0004f330       ?state_case_normal_common@?$output_processor@DV?$stream_output_adapter@D@__crt_stdio_output@@V?$positional_parameter_base@DV?$stream_output_adapter@D@__crt_stdio_output@@@2@@__crt_stdio_output@@AAE_NXZ 10050330 f i libucrtd:output.obj
 0001:0004f380       ?state_case_normal_common@?$output_processor@DV?$stream_output_adapter@D@__crt_stdio_output@@V?$standard_base@DV?$stream_output_adapter@D@__crt_stdio_output@@@2@@__crt_stdio_output@@AAE_NXZ 10050380 f i libucrtd:output.obj
 0001:0004f3d0       ?state_case_normal_common@?$output_processor@DV?$string_output_adapter@D@__crt_stdio_output@@V?$format_validation_base@DV?$string_output_adapter@D@__crt_stdio_output@@@2@@__crt_stdio_output@@AAE_NXZ 100503d0 f i libucrtd:output.obj
 0001:0004f420       ?state_case_normal_common@?$output_processor@DV?$string_output_adapter@D@__crt_stdio_output@@V?$positional_parameter_base@DV?$string_output_adapter@D@__crt_stdio_output@@@2@@__crt_stdio_output@@AAE_NXZ 10050420 f i libucrtd:output.obj
 0001:0004f470       ?state_case_normal_common@?$output_processor@DV?$string_output_adapter@D@__crt_stdio_output@@V?$standard_base@DV?$string_output_adapter@D@__crt_stdio_output@@@2@@__crt_stdio_output@@AAE_NXZ 10050470 f i libucrtd:output.obj
 0001:0004f4c0       ?state_case_normal_common@?$output_processor@_WV?$stream_output_adapter@_W@__crt_stdio_output@@V?$format_validation_base@_WV?$stream_output_adapter@_W@__crt_stdio_output@@@2@@__crt_stdio_output@@AAE_NXZ 100504c0 f i libucrtd:output.obj
 0001:0004f510       ?state_case_normal_common@?$output_processor@_WV?$stream_output_adapter@_W@__crt_stdio_output@@V?$positional_parameter_base@_WV?$stream_output_adapter@_W@__crt_stdio_output@@@2@@__crt_stdio_output@@AAE_NXZ 10050510 f i libucrtd:output.obj
 0001:0004f560       ?state_case_normal_common@?$output_processor@_WV?$stream_output_adapter@_W@__crt_stdio_output@@V?$standard_base@_WV?$stream_output_adapter@_W@__crt_stdio_output@@@2@@__crt_stdio_output@@AAE_NXZ 10050560 f i libucrtd:output.obj
 0001:0004f5b0       ?state_case_normal_common@?$output_processor@_WV?$string_output_adapter@_W@__crt_stdio_output@@V?$format_validation_base@_WV?$string_output_adapter@_W@__crt_stdio_output@@@2@@__crt_stdio_output@@AAE_NXZ 100505b0 f i libucrtd:output.obj
 0001:0004f600       ?state_case_normal_common@?$output_processor@_WV?$string_output_adapter@_W@__crt_stdio_output@@V?$positional_parameter_base@_WV?$string_output_adapter@_W@__crt_stdio_output@@@2@@__crt_stdio_output@@AAE_NXZ 10050600 f i libucrtd:output.obj
 0001:0004f650       ?state_case_normal_common@?$output_processor@_WV?$string_output_adapter@_W@__crt_stdio_output@@V?$standard_base@_WV?$string_output_adapter@_W@__crt_stdio_output@@@2@@__crt_stdio_output@@AAE_NXZ 10050650 f i libucrtd:output.obj
 0001:0004f6a0       ?state_case_normal_tchar@?$output_processor@DV?$stream_output_adapter@D@__crt_stdio_output@@V?$format_validation_base@DV?$stream_output_adapter@D@__crt_stdio_output@@@2@@__crt_stdio_output@@AAE_ND@Z 100506a0 f i libucrtd:output.obj
 0001:0004f7a0       ?state_case_normal_tchar@?$output_processor@DV?$stream_output_adapter@D@__crt_stdio_output@@V?$positional_parameter_base@DV?$stream_output_adapter@D@__crt_stdio_output@@@2@@__crt_stdio_output@@AAE_ND@Z 100507a0 f i libucrtd:output.obj
 0001:0004f8a0       ?state_case_normal_tchar@?$output_processor@DV?$stream_output_adapter@D@__crt_stdio_output@@V?$standard_base@DV?$stream_output_adapter@D@__crt_stdio_output@@@2@@__crt_stdio_output@@AAE_ND@Z 100508a0 f i libucrtd:output.obj
 0001:0004f9a0       ?state_case_normal_tchar@?$output_processor@DV?$string_output_adapter@D@__crt_stdio_output@@V?$format_validation_base@DV?$string_output_adapter@D@__crt_stdio_output@@@2@@__crt_stdio_output@@AAE_ND@Z 100509a0 f i libucrtd:output.obj
 0001:0004faa0       ?state_case_normal_tchar@?$output_processor@DV?$string_output_adapter@D@__crt_stdio_output@@V?$positional_parameter_base@DV?$string_output_adapter@D@__crt_stdio_output@@@2@@__crt_stdio_output@@AAE_ND@Z 10050aa0 f i libucrtd:output.obj
 0001:0004fba0       ?state_case_normal_tchar@?$output_processor@DV?$string_output_adapter@D@__crt_stdio_output@@V?$standard_base@DV?$string_output_adapter@D@__crt_stdio_output@@@2@@__crt_stdio_output@@AAE_ND@Z 10050ba0 f i libucrtd:output.obj
 0001:0004fca0       ?state_case_normal_tchar@?$output_processor@_WV?$stream_output_adapter@_W@__crt_stdio_output@@V?$format_validation_base@_WV?$stream_output_adapter@_W@__crt_stdio_output@@@2@@__crt_stdio_output@@AAE_N_W@Z 10050ca0 f i libucrtd:output.obj
 0001:0004fcc0       ?state_case_normal_tchar@?$output_processor@_WV?$stream_output_adapter@_W@__crt_stdio_output@@V?$positional_parameter_base@_WV?$stream_output_adapter@_W@__crt_stdio_output@@@2@@__crt_stdio_output@@AAE_N_W@Z 10050cc0 f i libucrtd:output.obj
 0001:0004fce0       ?state_case_normal_tchar@?$output_processor@_WV?$stream_output_adapter@_W@__crt_stdio_output@@V?$standard_base@_WV?$stream_output_adapter@_W@__crt_stdio_output@@@2@@__crt_stdio_output@@AAE_N_W@Z 10050ce0 f i libucrtd:output.obj
 0001:0004fd00       ?state_case_normal_tchar@?$output_processor@_WV?$string_output_adapter@_W@__crt_stdio_output@@V?$format_validation_base@_WV?$string_output_adapter@_W@__crt_stdio_output@@@2@@__crt_stdio_output@@AAE_N_W@Z 10050d00 f i libucrtd:output.obj
 0001:0004fd20       ?state_case_normal_tchar@?$output_processor@_WV?$string_output_adapter@_W@__crt_stdio_output@@V?$positional_parameter_base@_WV?$string_output_adapter@_W@__crt_stdio_output@@@2@@__crt_stdio_output@@AAE_N_W@Z 10050d20 f i libucrtd:output.obj
 0001:0004fd40       ?state_case_normal_tchar@?$output_processor@_WV?$string_output_adapter@_W@__crt_stdio_output@@V?$standard_base@_WV?$string_output_adapter@_W@__crt_stdio_output@@@2@@__crt_stdio_output@@AAE_N_W@Z 10050d40 f i libucrtd:output.obj
 0001:0004fd60       ?state_case_percent@?$output_processor@DV?$stream_output_adapter@D@__crt_stdio_output@@V?$format_validation_base@DV?$stream_output_adapter@D@__crt_stdio_output@@@2@@__crt_stdio_output@@AAE_NXZ 10050d60 f i libucrtd:output.obj
 0001:0004fdb0       ?state_case_percent@?$output_processor@DV?$stream_output_adapter@D@__crt_stdio_output@@V?$positional_parameter_base@DV?$stream_output_adapter@D@__crt_stdio_output@@@2@@__crt_stdio_output@@AAE_NXZ 10050db0 f i libucrtd:output.obj
 0001:0004fe00       ?state_case_percent@?$output_processor@DV?$stream_output_adapter@D@__crt_stdio_output@@V?$standard_base@DV?$stream_output_adapter@D@__crt_stdio_output@@@2@@__crt_stdio_output@@AAE_NXZ 10050e00 f i libucrtd:output.obj
 0001:0004fe50       ?state_case_percent@?$output_processor@DV?$string_output_adapter@D@__crt_stdio_output@@V?$format_validation_base@DV?$string_output_adapter@D@__crt_stdio_output@@@2@@__crt_stdio_output@@AAE_NXZ 10050e50 f i libucrtd:output.obj
 0001:0004fea0       ?state_case_percent@?$output_processor@DV?$string_output_adapter@D@__crt_stdio_output@@V?$positional_parameter_base@DV?$string_output_adapter@D@__crt_stdio_output@@@2@@__crt_stdio_output@@AAE_NXZ 10050ea0 f i libucrtd:output.obj
 0001:0004fef0       ?state_case_percent@?$output_processor@DV?$string_output_adapter@D@__crt_stdio_output@@V?$standard_base@DV?$string_output_adapter@D@__crt_stdio_output@@@2@@__crt_stdio_output@@AAE_NXZ 10050ef0 f i libucrtd:output.obj
 0001:0004ff40       ?state_case_percent@?$output_processor@_WV?$stream_output_adapter@_W@__crt_stdio_output@@V?$format_validation_base@_WV?$stream_output_adapter@_W@__crt_stdio_output@@@2@@__crt_stdio_output@@AAE_NXZ 10050f40 f i libucrtd:output.obj
 0001:0004ff90       ?state_case_percent@?$output_processor@_WV?$stream_output_adapter@_W@__crt_stdio_output@@V?$positional_parameter_base@_WV?$stream_output_adapter@_W@__crt_stdio_output@@@2@@__crt_stdio_output@@AAE_NXZ 10050f90 f i libucrtd:output.obj
 0001:0004ffe0       ?state_case_percent@?$output_processor@_WV?$stream_output_adapter@_W@__crt_stdio_output@@V?$standard_base@_WV?$stream_output_adapter@_W@__crt_stdio_output@@@2@@__crt_stdio_output@@AAE_NXZ 10050fe0 f i libucrtd:output.obj
 0001:00050030       ?state_case_percent@?$output_processor@_WV?$string_output_adapter@_W@__crt_stdio_output@@V?$format_validation_base@_WV?$string_output_adapter@_W@__crt_stdio_output@@@2@@__crt_stdio_output@@AAE_NXZ 10051030 f i libucrtd:output.obj
 0001:00050080       ?state_case_percent@?$output_processor@_WV?$string_output_adapter@_W@__crt_stdio_output@@V?$positional_parameter_base@_WV?$string_output_adapter@_W@__crt_stdio_output@@@2@@__crt_stdio_output@@AAE_NXZ 10051080 f i libucrtd:output.obj
 0001:000500d0       ?state_case_percent@?$output_processor@_WV?$string_output_adapter@_W@__crt_stdio_output@@V?$standard_base@_WV?$string_output_adapter@_W@__crt_stdio_output@@@2@@__crt_stdio_output@@AAE_NXZ 100510d0 f i libucrtd:output.obj
 0001:00050120       ?state_case_precision@?$output_processor@DV?$stream_output_adapter@D@__crt_stdio_output@@V?$format_validation_base@DV?$stream_output_adapter@D@__crt_stdio_output@@@2@@__crt_stdio_output@@AAE_NXZ 10051120 f i libucrtd:output.obj
 0001:00050190       ?state_case_precision@?$output_processor@DV?$stream_output_adapter@D@__crt_stdio_output@@V?$positional_parameter_base@DV?$stream_output_adapter@D@__crt_stdio_output@@@2@@__crt_stdio_output@@AAE_NXZ 10051190 f i libucrtd:output.obj
 0001:00050200       ?state_case_precision@?$output_processor@DV?$stream_output_adapter@D@__crt_stdio_output@@V?$standard_base@DV?$stream_output_adapter@D@__crt_stdio_output@@@2@@__crt_stdio_output@@AAE_NXZ 10051200 f i libucrtd:output.obj
 0001:00050270       ?state_case_precision@?$output_processor@DV?$string_output_adapter@D@__crt_stdio_output@@V?$format_validation_base@DV?$string_output_adapter@D@__crt_stdio_output@@@2@@__crt_stdio_output@@AAE_NXZ 10051270 f i libucrtd:output.obj
 0001:000502e0       ?state_case_precision@?$output_processor@DV?$string_output_adapter@D@__crt_stdio_output@@V?$positional_parameter_base@DV?$string_output_adapter@D@__crt_stdio_output@@@2@@__crt_stdio_output@@AAE_NXZ 100512e0 f i libucrtd:output.obj
 0001:00050350       ?state_case_precision@?$output_processor@DV?$string_output_adapter@D@__crt_stdio_output@@V?$standard_base@DV?$string_output_adapter@D@__crt_stdio_output@@@2@@__crt_stdio_output@@AAE_NXZ 10051350 f i libucrtd:output.obj
 0001:000503c0       ?state_case_precision@?$output_processor@_WV?$stream_output_adapter@_W@__crt_stdio_output@@V?$format_validation_base@_WV?$stream_output_adapter@_W@__crt_stdio_output@@@2@@__crt_stdio_output@@AAE_NXZ 100513c0 f i libucrtd:output.obj
 0001:00050430       ?state_case_precision@?$output_processor@_WV?$stream_output_adapter@_W@__crt_stdio_output@@V?$positional_parameter_base@_WV?$stream_output_adapter@_W@__crt_stdio_output@@@2@@__crt_stdio_output@@AAE_NXZ 10051430 f i libucrtd:output.obj
 0001:000504a0       ?state_case_precision@?$output_processor@_WV?$stream_output_adapter@_W@__crt_stdio_output@@V?$standard_base@_WV?$stream_output_adapter@_W@__crt_stdio_output@@@2@@__crt_stdio_output@@AAE_NXZ 100514a0 f i libucrtd:output.obj
 0001:00050510       ?state_case_precision@?$output_processor@_WV?$string_output_adapter@_W@__crt_stdio_output@@V?$format_validation_base@_WV?$string_output_adapter@_W@__crt_stdio_output@@@2@@__crt_stdio_output@@AAE_NXZ 10051510 f i libucrtd:output.obj
 0001:00050580       ?state_case_precision@?$output_processor@_WV?$string_output_adapter@_W@__crt_stdio_output@@V?$positional_parameter_base@_WV?$string_output_adapter@_W@__crt_stdio_output@@@2@@__crt_stdio_output@@AAE_NXZ 10051580 f i libucrtd:output.obj
 0001:000505f0       ?state_case_precision@?$output_processor@_WV?$string_output_adapter@_W@__crt_stdio_output@@V?$standard_base@_WV?$string_output_adapter@_W@__crt_stdio_output@@@2@@__crt_stdio_output@@AAE_NXZ 100515f0 f i libucrtd:output.obj
 0001:00050660       ?state_case_size@?$output_processor@DV?$stream_output_adapter@D@__crt_stdio_output@@V?$format_validation_base@DV?$stream_output_adapter@D@__crt_stdio_output@@@2@@__crt_stdio_output@@AAE_NXZ 10051660 f i libucrtd:output.obj
 0001:00050a30       ?state_case_size@?$output_processor@DV?$stream_output_adapter@D@__crt_stdio_output@@V?$positional_parameter_base@DV?$stream_output_adapter@D@__crt_stdio_output@@@2@@__crt_stdio_output@@AAE_NXZ 10051a30 f i libucrtd:output.obj
 0001:00050e00       ?state_case_size@?$output_processor@DV?$stream_output_adapter@D@__crt_stdio_output@@V?$standard_base@DV?$stream_output_adapter@D@__crt_stdio_output@@@2@@__crt_stdio_output@@AAE_NXZ 10051e00 f i libucrtd:output.obj
 0001:000511d0       ?state_case_size@?$output_processor@DV?$string_output_adapter@D@__crt_stdio_output@@V?$format_validation_base@DV?$string_output_adapter@D@__crt_stdio_output@@@2@@__crt_stdio_output@@AAE_NXZ 100521d0 f i libucrtd:output.obj
 0001:000515a0       ?state_case_size@?$output_processor@DV?$string_output_adapter@D@__crt_stdio_output@@V?$positional_parameter_base@DV?$string_output_adapter@D@__crt_stdio_output@@@2@@__crt_stdio_output@@AAE_NXZ 100525a0 f i libucrtd:output.obj
 0001:00051970       ?state_case_size@?$output_processor@DV?$string_output_adapter@D@__crt_stdio_output@@V?$standard_base@DV?$string_output_adapter@D@__crt_stdio_output@@@2@@__crt_stdio_output@@AAE_NXZ 10052970 f i libucrtd:output.obj
 0001:00051d40       ?state_case_size@?$output_processor@_WV?$stream_output_adapter@_W@__crt_stdio_output@@V?$format_validation_base@_WV?$stream_output_adapter@_W@__crt_stdio_output@@@2@@__crt_stdio_output@@AAE_NXZ 10052d40 f i libucrtd:output.obj
 0001:00052110       ?state_case_size@?$output_processor@_WV?$stream_output_adapter@_W@__crt_stdio_output@@V?$positional_parameter_base@_WV?$stream_output_adapter@_W@__crt_stdio_output@@@2@@__crt_stdio_output@@AAE_NXZ 10053110 f i libucrtd:output.obj
 0001:000524e0       ?state_case_size@?$output_processor@_WV?$stream_output_adapter@_W@__crt_stdio_output@@V?$standard_base@_WV?$stream_output_adapter@_W@__crt_stdio_output@@@2@@__crt_stdio_output@@AAE_NXZ 100534e0 f i libucrtd:output.obj
 0001:000528b0       ?state_case_size@?$output_processor@_WV?$string_output_adapter@_W@__crt_stdio_output@@V?$format_validation_base@_WV?$string_output_adapter@_W@__crt_stdio_output@@@2@@__crt_stdio_output@@AAE_NXZ 100538b0 f i libucrtd:output.obj
 0001:00052c80       ?state_case_size@?$output_processor@_WV?$string_output_adapter@_W@__crt_stdio_output@@V?$positional_parameter_base@_WV?$string_output_adapter@_W@__crt_stdio_output@@@2@@__crt_stdio_output@@AAE_NXZ 10053c80 f i libucrtd:output.obj
 0001:00053050       ?state_case_size@?$output_processor@_WV?$string_output_adapter@_W@__crt_stdio_output@@V?$standard_base@_WV?$string_output_adapter@_W@__crt_stdio_output@@@2@@__crt_stdio_output@@AAE_NXZ 10054050 f i libucrtd:output.obj
 0001:00053420       ?state_case_type@?$output_processor@DV?$stream_output_adapter@D@__crt_stdio_output@@V?$format_validation_base@DV?$stream_output_adapter@D@__crt_stdio_output@@@2@@__crt_stdio_output@@AAE_NXZ 10054420 f i libucrtd:output.obj
 0001:000537d0       ?state_case_type@?$output_processor@DV?$stream_output_adapter@D@__crt_stdio_output@@V?$positional_parameter_base@DV?$stream_output_adapter@D@__crt_stdio_output@@@2@@__crt_stdio_output@@AAE_NXZ 100547d0 f i libucrtd:output.obj
 0001:00053b80       ?state_case_type@?$output_processor@DV?$stream_output_adapter@D@__crt_stdio_output@@V?$standard_base@DV?$stream_output_adapter@D@__crt_stdio_output@@@2@@__crt_stdio_output@@AAE_NXZ 10054b80 f i libucrtd:output.obj
 0001:00053f30       ?state_case_type@?$output_processor@DV?$string_output_adapter@D@__crt_stdio_output@@V?$format_validation_base@DV?$string_output_adapter@D@__crt_stdio_output@@@2@@__crt_stdio_output@@AAE_NXZ 10054f30 f i libucrtd:output.obj
 0001:000542e0       ?state_case_type@?$output_processor@DV?$string_output_adapter@D@__crt_stdio_output@@V?$positional_parameter_base@DV?$string_output_adapter@D@__crt_stdio_output@@@2@@__crt_stdio_output@@AAE_NXZ 100552e0 f i libucrtd:output.obj
 0001:00054690       ?state_case_type@?$output_processor@DV?$string_output_adapter@D@__crt_stdio_output@@V?$standard_base@DV?$string_output_adapter@D@__crt_stdio_output@@@2@@__crt_stdio_output@@AAE_NXZ 10055690 f i libucrtd:output.obj
 0001:00054a40       ?state_case_type@?$output_processor@_WV?$stream_output_adapter@_W@__crt_stdio_output@@V?$format_validation_base@_WV?$stream_output_adapter@_W@__crt_stdio_output@@@2@@__crt_stdio_output@@AAE_NXZ 10055a40 f i libucrtd:output.obj
 0001:00054e20       ?state_case_type@?$output_processor@_WV?$stream_output_adapter@_W@__crt_stdio_output@@V?$positional_parameter_base@_WV?$stream_output_adapter@_W@__crt_stdio_output@@@2@@__crt_stdio_output@@AAE_NXZ 10055e20 f i libucrtd:output.obj
 0001:00055200       ?state_case_type@?$output_processor@_WV?$stream_output_adapter@_W@__crt_stdio_output@@V?$standard_base@_WV?$stream_output_adapter@_W@__crt_stdio_output@@@2@@__crt_stdio_output@@AAE_NXZ 10056200 f i libucrtd:output.obj
 0001:000555e0       ?state_case_type@?$output_processor@_WV?$string_output_adapter@_W@__crt_stdio_output@@V?$format_validation_base@_WV?$string_output_adapter@_W@__crt_stdio_output@@@2@@__crt_stdio_output@@AAE_NXZ 100565e0 f i libucrtd:output.obj
 0001:000559c0       ?state_case_type@?$output_processor@_WV?$string_output_adapter@_W@__crt_stdio_output@@V?$positional_parameter_base@_WV?$string_output_adapter@_W@__crt_stdio_output@@@2@@__crt_stdio_output@@AAE_NXZ 100569c0 f i libucrtd:output.obj
 0001:00055da0       ?state_case_type@?$output_processor@_WV?$string_output_adapter@_W@__crt_stdio_output@@V?$standard_base@_WV?$string_output_adapter@_W@__crt_stdio_output@@@2@@__crt_stdio_output@@AAE_NXZ 10056da0 f i libucrtd:output.obj
 0001:00056180       ?state_case_width@?$output_processor@DV?$stream_output_adapter@D@__crt_stdio_output@@V?$format_validation_base@DV?$stream_output_adapter@D@__crt_stdio_output@@@2@@__crt_stdio_output@@AAE_NXZ 10057180 f i libucrtd:output.obj
 0001:00056200       ?state_case_width@?$output_processor@DV?$stream_output_adapter@D@__crt_stdio_output@@V?$positional_parameter_base@DV?$stream_output_adapter@D@__crt_stdio_output@@@2@@__crt_stdio_output@@AAE_NXZ 10057200 f i libucrtd:output.obj
 0001:00056280       ?state_case_width@?$output_processor@DV?$stream_output_adapter@D@__crt_stdio_output@@V?$standard_base@DV?$stream_output_adapter@D@__crt_stdio_output@@@2@@__crt_stdio_output@@AAE_NXZ 10057280 f i libucrtd:output.obj
 0001:00056300       ?state_case_width@?$output_processor@DV?$string_output_adapter@D@__crt_stdio_output@@V?$format_validation_base@DV?$string_output_adapter@D@__crt_stdio_output@@@2@@__crt_stdio_output@@AAE_NXZ 10057300 f i libucrtd:output.obj
 0001:00056380       ?state_case_width@?$output_processor@DV?$string_output_adapter@D@__crt_stdio_output@@V?$positional_parameter_base@DV?$string_output_adapter@D@__crt_stdio_output@@@2@@__crt_stdio_output@@AAE_NXZ 10057380 f i libucrtd:output.obj
 0001:00056400       ?state_case_width@?$output_processor@DV?$string_output_adapter@D@__crt_stdio_output@@V?$standard_base@DV?$string_output_adapter@D@__crt_stdio_output@@@2@@__crt_stdio_output@@AAE_NXZ 10057400 f i libucrtd:output.obj
 0001:00056480       ?state_case_width@?$output_processor@_WV?$stream_output_adapter@_W@__crt_stdio_output@@V?$format_validation_base@_WV?$stream_output_adapter@_W@__crt_stdio_output@@@2@@__crt_stdio_output@@AAE_NXZ 10057480 f i libucrtd:output.obj
 0001:00056500       ?state_case_width@?$output_processor@_WV?$stream_output_adapter@_W@__crt_stdio_output@@V?$positional_parameter_base@_WV?$stream_output_adapter@_W@__crt_stdio_output@@@2@@__crt_stdio_output@@AAE_NXZ 10057500 f i libucrtd:output.obj
 0001:00056580       ?state_case_width@?$output_processor@_WV?$stream_output_adapter@_W@__crt_stdio_output@@V?$standard_base@_WV?$stream_output_adapter@_W@__crt_stdio_output@@@2@@__crt_stdio_output@@AAE_NXZ 10057580 f i libucrtd:output.obj
 0001:00056600       ?state_case_width@?$output_processor@_WV?$string_output_adapter@_W@__crt_stdio_output@@V?$format_validation_base@_WV?$string_output_adapter@_W@__crt_stdio_output@@@2@@__crt_stdio_output@@AAE_NXZ 10057600 f i libucrtd:output.obj
 0001:00056680       ?state_case_width@?$output_processor@_WV?$string_output_adapter@_W@__crt_stdio_output@@V?$positional_parameter_base@_WV?$string_output_adapter@_W@__crt_stdio_output@@@2@@__crt_stdio_output@@AAE_NXZ 10057680 f i libucrtd:output.obj
 0001:00056700       ?state_case_width@?$output_processor@_WV?$string_output_adapter@_W@__crt_stdio_output@@V?$standard_base@_WV?$string_output_adapter@_W@__crt_stdio_output@@@2@@__crt_stdio_output@@AAE_NXZ 10057700 f i libucrtd:output.obj
 0001:00056780       ?state_count@?$format_validation_base@DV?$stream_output_adapter@D@__crt_stdio_output@@@__crt_stdio_output@@KAIXZ 10057780 f i libucrtd:output.obj
 0001:00056790       ?state_count@?$format_validation_base@DV?$string_output_adapter@D@__crt_stdio_output@@@__crt_stdio_output@@KAIXZ 10057790 f i libucrtd:output.obj
 0001:000567a0       ?state_count@?$format_validation_base@_WV?$stream_output_adapter@_W@__crt_stdio_output@@@__crt_stdio_output@@KAIXZ 100577a0 f i libucrtd:output.obj
 0001:000567b0       ?state_count@?$format_validation_base@_WV?$string_output_adapter@_W@__crt_stdio_output@@@__crt_stdio_output@@KAIXZ 100577b0 f i libucrtd:output.obj
 0001:000567c0       ?state_count@?$standard_base@DV?$stream_output_adapter@D@__crt_stdio_output@@@__crt_stdio_output@@KAIXZ 100577c0 f i libucrtd:output.obj
 0001:000567d0       ?state_count@?$standard_base@DV?$string_output_adapter@D@__crt_stdio_output@@@__crt_stdio_output@@KAIXZ 100577d0 f i libucrtd:output.obj
 0001:000567e0       ?state_count@?$standard_base@_WV?$stream_output_adapter@_W@__crt_stdio_output@@@__crt_stdio_output@@KAIXZ 100577e0 f i libucrtd:output.obj
 0001:000567f0       ?state_count@?$standard_base@_WV?$string_output_adapter@_W@__crt_stdio_output@@@__crt_stdio_output@@KAIXZ 100577f0 f i libucrtd:output.obj
 0001:00056800       ?state_transition_table@?$format_validation_base@DV?$stream_output_adapter@D@__crt_stdio_output@@@__crt_stdio_output@@KAPBEXZ 10057800 f i libucrtd:output.obj
 0001:00056810       ?state_transition_table@?$format_validation_base@DV?$string_output_adapter@D@__crt_stdio_output@@@__crt_stdio_output@@KAPBEXZ 10057810 f i libucrtd:output.obj
 0001:00056820       ?state_transition_table@?$format_validation_base@_WV?$stream_output_adapter@_W@__crt_stdio_output@@@__crt_stdio_output@@KAPBEXZ 10057820 f i libucrtd:output.obj
 0001:00056830       ?state_transition_table@?$format_validation_base@_WV?$string_output_adapter@_W@__crt_stdio_output@@@__crt_stdio_output@@KAPBEXZ 10057830 f i libucrtd:output.obj
 0001:00056840       ?state_transition_table@?$standard_base@DV?$stream_output_adapter@D@__crt_stdio_output@@@__crt_stdio_output@@KAPBEXZ 10057840 f i libucrtd:output.obj
 0001:00056850       ?state_transition_table@?$standard_base@DV?$string_output_adapter@D@__crt_stdio_output@@@__crt_stdio_output@@KAPBEXZ 10057850 f i libucrtd:output.obj
 0001:00056860       ?state_transition_table@?$standard_base@_WV?$stream_output_adapter@_W@__crt_stdio_output@@@__crt_stdio_output@@KAPBEXZ 10057860 f i libucrtd:output.obj
 0001:00056870       ?state_transition_table@?$standard_base@_WV?$string_output_adapter@_W@__crt_stdio_output@@@__crt_stdio_output@@KAPBEXZ 10057870 f i libucrtd:output.obj
 0001:00056880       ?tchar_string@?$common_data@D@__crt_stdio_output@@IAEAAPADD@Z 10057880 f i libucrtd:output.obj
 0001:000568a0       ?tchar_string@?$common_data@D@__crt_stdio_output@@IAEAAPADXZ 100578a0 f i libucrtd:output.obj
 0001:000568c0       ?tchar_string@?$common_data@_W@__crt_stdio_output@@IAEAAPA_WXZ 100578c0 f i libucrtd:output.obj
 0001:000568e0       ?tchar_string@?$common_data@_W@__crt_stdio_output@@IAEAAPA_W_W@Z 100578e0 f i libucrtd:output.obj
 0001:00056900       ?to_integer_size@__crt_stdio_output@@YAIW4length_modifier@1@@Z 10057900 f i libucrtd:output.obj
 0001:000569a0       ?type_case_X@?$output_processor@DV?$stream_output_adapter@D@__crt_stdio_output@@V?$format_validation_base@DV?$stream_output_adapter@D@__crt_stdio_output@@@2@@__crt_stdio_output@@AAE_NXZ 100579a0 f i libucrtd:output.obj
 0001:000569c0       ?type_case_X@?$output_processor@DV?$stream_output_adapter@D@__crt_stdio_output@@V?$positional_parameter_base@DV?$stream_output_adapter@D@__crt_stdio_output@@@2@@__crt_stdio_output@@AAE_NXZ 100579c0 f i libucrtd:output.obj
 0001:000569e0       ?type_case_X@?$output_processor@DV?$stream_output_adapter@D@__crt_stdio_output@@V?$standard_base@DV?$stream_output_adapter@D@__crt_stdio_output@@@2@@__crt_stdio_output@@AAE_NXZ 100579e0 f i libucrtd:output.obj
 0001:00056a00       ?type_case_X@?$output_processor@DV?$string_output_adapter@D@__crt_stdio_output@@V?$format_validation_base@DV?$string_output_adapter@D@__crt_stdio_output@@@2@@__crt_stdio_output@@AAE_NXZ 10057a00 f i libucrtd:output.obj
 0001:00056a20       ?type_case_X@?$output_processor@DV?$string_output_adapter@D@__crt_stdio_output@@V?$positional_parameter_base@DV?$string_output_adapter@D@__crt_stdio_output@@@2@@__crt_stdio_output@@AAE_NXZ 10057a20 f i libucrtd:output.obj
 0001:00056a40       ?type_case_X@?$output_processor@DV?$string_output_adapter@D@__crt_stdio_output@@V?$standard_base@DV?$string_output_adapter@D@__crt_stdio_output@@@2@@__crt_stdio_output@@AAE_NXZ 10057a40 f i libucrtd:output.obj
 0001:00056a60       ?type_case_X@?$output_processor@_WV?$stream_output_adapter@_W@__crt_stdio_output@@V?$format_validation_base@_WV?$stream_output_adapter@_W@__crt_stdio_output@@@2@@__crt_stdio_output@@AAE_NXZ 10057a60 f i libucrtd:output.obj
 0001:00056a80       ?type_case_X@?$output_processor@_WV?$stream_output_adapter@_W@__crt_stdio_output@@V?$positional_parameter_base@_WV?$stream_output_adapter@_W@__crt_stdio_output@@@2@@__crt_stdio_output@@AAE_NXZ 10057a80 f i libucrtd:output.obj
 0001:00056aa0       ?type_case_X@?$output_processor@_WV?$stream_output_adapter@_W@__crt_stdio_output@@V?$standard_base@_WV?$stream_output_adapter@_W@__crt_stdio_output@@@2@@__crt_stdio_output@@AAE_NXZ 10057aa0 f i libucrtd:output.obj
 0001:00056ac0       ?type_case_X@?$output_processor@_WV?$string_output_adapter@_W@__crt_stdio_output@@V?$format_validation_base@_WV?$string_output_adapter@_W@__crt_stdio_output@@@2@@__crt_stdio_output@@AAE_NXZ 10057ac0 f i libucrtd:output.obj
 0001:00056ae0       ?type_case_X@?$output_processor@_WV?$string_output_adapter@_W@__crt_stdio_output@@V?$positional_parameter_base@_WV?$string_output_adapter@_W@__crt_stdio_output@@@2@@__crt_stdio_output@@AAE_NXZ 10057ae0 f i libucrtd:output.obj
 0001:00056b00       ?type_case_X@?$output_processor@_WV?$string_output_adapter@_W@__crt_stdio_output@@V?$standard_base@_WV?$string_output_adapter@_W@__crt_stdio_output@@@2@@__crt_stdio_output@@AAE_NXZ 10057b00 f i libucrtd:output.obj
 0001:00056b20       ?type_case_Z@?$output_processor@DV?$stream_output_adapter@D@__crt_stdio_output@@V?$format_validation_base@DV?$stream_output_adapter@D@__crt_stdio_output@@@2@@__crt_stdio_output@@AAE_NXZ 10057b20 f i libucrtd:output.obj
 0001:00056c10       ?type_case_Z@?$output_processor@DV?$stream_output_adapter@D@__crt_stdio_output@@V?$positional_parameter_base@DV?$stream_output_adapter@D@__crt_stdio_output@@@2@@__crt_stdio_output@@AAE_NXZ 10057c10 f i libucrtd:output.obj
 0001:00056d00       ?type_case_Z@?$output_processor@DV?$stream_output_adapter@D@__crt_stdio_output@@V?$standard_base@DV?$stream_output_adapter@D@__crt_stdio_output@@@2@@__crt_stdio_output@@AAE_NXZ 10057d00 f i libucrtd:output.obj
 0001:00056df0       ?type_case_Z@?$output_processor@DV?$string_output_adapter@D@__crt_stdio_output@@V?$format_validation_base@DV?$string_output_adapter@D@__crt_stdio_output@@@2@@__crt_stdio_output@@AAE_NXZ 10057df0 f i libucrtd:output.obj
 0001:00056ee0       ?type_case_Z@?$output_processor@DV?$string_output_adapter@D@__crt_stdio_output@@V?$positional_parameter_base@DV?$string_output_adapter@D@__crt_stdio_output@@@2@@__crt_stdio_output@@AAE_NXZ 10057ee0 f i libucrtd:output.obj
 0001:00056fd0       ?type_case_Z@?$output_processor@DV?$string_output_adapter@D@__crt_stdio_output@@V?$standard_base@DV?$string_output_adapter@D@__crt_stdio_output@@@2@@__crt_stdio_output@@AAE_NXZ 10057fd0 f i libucrtd:output.obj
 0001:000570c0       ?type_case_Z@?$output_processor@_WV?$stream_output_adapter@_W@__crt_stdio_output@@V?$format_validation_base@_WV?$stream_output_adapter@_W@__crt_stdio_output@@@2@@__crt_stdio_output@@AAE_NXZ 100580c0 f i libucrtd:output.obj
 0001:000571b0       ?type_case_Z@?$output_processor@_WV?$stream_output_adapter@_W@__crt_stdio_output@@V?$positional_parameter_base@_WV?$stream_output_adapter@_W@__crt_stdio_output@@@2@@__crt_stdio_output@@AAE_NXZ 100581b0 f i libucrtd:output.obj
 0001:000572a0       ?type_case_Z@?$output_processor@_WV?$stream_output_adapter@_W@__crt_stdio_output@@V?$standard_base@_WV?$stream_output_adapter@_W@__crt_stdio_output@@@2@@__crt_stdio_output@@AAE_NXZ 100582a0 f i libucrtd:output.obj
 0001:00057390       ?type_case_Z@?$output_processor@_WV?$string_output_adapter@_W@__crt_stdio_output@@V?$format_validation_base@_WV?$string_output_adapter@_W@__crt_stdio_output@@@2@@__crt_stdio_output@@AAE_NXZ 10058390 f i libucrtd:output.obj
 0001:00057480       ?type_case_Z@?$output_processor@_WV?$string_output_adapter@_W@__crt_stdio_output@@V?$positional_parameter_base@_WV?$string_output_adapter@_W@__crt_stdio_output@@@2@@__crt_stdio_output@@AAE_NXZ 10058480 f i libucrtd:output.obj
 0001:00057570       ?type_case_Z@?$output_processor@_WV?$string_output_adapter@_W@__crt_stdio_output@@V?$standard_base@_WV?$string_output_adapter@_W@__crt_stdio_output@@@2@@__crt_stdio_output@@AAE_NXZ 10058570 f i libucrtd:output.obj
 0001:00057660       ?type_case_a@?$output_processor@DV?$stream_output_adapter@D@__crt_stdio_output@@V?$format_validation_base@DV?$stream_output_adapter@D@__crt_stdio_output@@@2@@__crt_stdio_output@@AAE_NXZ 10058660 f i libucrtd:output.obj
 0001:000578d0       ?type_case_a@?$output_processor@DV?$stream_output_adapter@D@__crt_stdio_output@@V?$positional_parameter_base@DV?$stream_output_adapter@D@__crt_stdio_output@@@2@@__crt_stdio_output@@AAE_NXZ 100588d0 f i libucrtd:output.obj
 0001:00057b40       ?type_case_a@?$output_processor@DV?$stream_output_adapter@D@__crt_stdio_output@@V?$standard_base@DV?$stream_output_adapter@D@__crt_stdio_output@@@2@@__crt_stdio_output@@AAE_NXZ 10058b40 f i libucrtd:output.obj
 0001:00057db0       ?type_case_a@?$output_processor@DV?$string_output_adapter@D@__crt_stdio_output@@V?$format_validation_base@DV?$string_output_adapter@D@__crt_stdio_output@@@2@@__crt_stdio_output@@AAE_NXZ 10058db0 f i libucrtd:output.obj
 0001:00058020       ?type_case_a@?$output_processor@DV?$string_output_adapter@D@__crt_stdio_output@@V?$positional_parameter_base@DV?$string_output_adapter@D@__crt_stdio_output@@@2@@__crt_stdio_output@@AAE_NXZ 10059020 f i libucrtd:output.obj
 0001:00058290       ?type_case_a@?$output_processor@DV?$string_output_adapter@D@__crt_stdio_output@@V?$standard_base@DV?$string_output_adapter@D@__crt_stdio_output@@@2@@__crt_stdio_output@@AAE_NXZ 10059290 f i libucrtd:output.obj
 0001:00058500       ?type_case_a@?$output_processor@_WV?$stream_output_adapter@_W@__crt_stdio_output@@V?$format_validation_base@_WV?$stream_output_adapter@_W@__crt_stdio_output@@@2@@__crt_stdio_output@@AAE_NXZ 10059500 f i libucrtd:output.obj
 0001:00058770       ?type_case_a@?$output_processor@_WV?$stream_output_adapter@_W@__crt_stdio_output@@V?$positional_parameter_base@_WV?$stream_output_adapter@_W@__crt_stdio_output@@@2@@__crt_stdio_output@@AAE_NXZ 10059770 f i libucrtd:output.obj
 0001:000589e0       ?type_case_a@?$output_processor@_WV?$stream_output_adapter@_W@__crt_stdio_output@@V?$standard_base@_WV?$stream_output_adapter@_W@__crt_stdio_output@@@2@@__crt_stdio_output@@AAE_NXZ 100599e0 f i libucrtd:output.obj
 0001:00058c50       ?type_case_a@?$output_processor@_WV?$string_output_adapter@_W@__crt_stdio_output@@V?$format_validation_base@_WV?$string_output_adapter@_W@__crt_stdio_output@@@2@@__crt_stdio_output@@AAE_NXZ 10059c50 f i libucrtd:output.obj
 0001:00058ec0       ?type_case_a@?$output_processor@_WV?$string_output_adapter@_W@__crt_stdio_output@@V?$positional_parameter_base@_WV?$string_output_adapter@_W@__crt_stdio_output@@@2@@__crt_stdio_output@@AAE_NXZ 10059ec0 f i libucrtd:output.obj
 0001:00059130       ?type_case_a@?$output_processor@_WV?$string_output_adapter@_W@__crt_stdio_output@@V?$standard_base@_WV?$string_output_adapter@_W@__crt_stdio_output@@@2@@__crt_stdio_output@@AAE_NXZ 1005a130 f i libucrtd:output.obj
 0001:000593a0       ?type_case_c@?$output_processor@DV?$stream_output_adapter@D@__crt_stdio_output@@V?$format_validation_base@DV?$stream_output_adapter@D@__crt_stdio_output@@@2@@__crt_stdio_output@@AAE_NXZ 1005a3a0 f i libucrtd:output.obj
 0001:000593c0       ?type_case_c@?$output_processor@DV?$stream_output_adapter@D@__crt_stdio_output@@V?$positional_parameter_base@DV?$stream_output_adapter@D@__crt_stdio_output@@@2@@__crt_stdio_output@@AAE_NXZ 1005a3c0 f i libucrtd:output.obj
 0001:000593e0       ?type_case_c@?$output_processor@DV?$stream_output_adapter@D@__crt_stdio_output@@V?$standard_base@DV?$stream_output_adapter@D@__crt_stdio_output@@@2@@__crt_stdio_output@@AAE_NXZ 1005a3e0 f i libucrtd:output.obj
 0001:00059400       ?type_case_c@?$output_processor@DV?$string_output_adapter@D@__crt_stdio_output@@V?$format_validation_base@DV?$string_output_adapter@D@__crt_stdio_output@@@2@@__crt_stdio_output@@AAE_NXZ 1005a400 f i libucrtd:output.obj
 0001:00059420       ?type_case_c@?$output_processor@DV?$string_output_adapter@D@__crt_stdio_output@@V?$positional_parameter_base@DV?$string_output_adapter@D@__crt_stdio_output@@@2@@__crt_stdio_output@@AAE_NXZ 1005a420 f i libucrtd:output.obj
 0001:00059440       ?type_case_c@?$output_processor@DV?$string_output_adapter@D@__crt_stdio_output@@V?$standard_base@DV?$string_output_adapter@D@__crt_stdio_output@@@2@@__crt_stdio_output@@AAE_NXZ 1005a440 f i libucrtd:output.obj
 0001:00059460       ?type_case_c@?$output_processor@_WV?$stream_output_adapter@_W@__crt_stdio_output@@V?$format_validation_base@_WV?$stream_output_adapter@_W@__crt_stdio_output@@@2@@__crt_stdio_output@@AAE_NXZ 1005a460 f i libucrtd:output.obj
 0001:00059480       ?type_case_c@?$output_processor@_WV?$stream_output_adapter@_W@__crt_stdio_output@@V?$positional_parameter_base@_WV?$stream_output_adapter@_W@__crt_stdio_output@@@2@@__crt_stdio_output@@AAE_NXZ 1005a480 f i libucrtd:output.obj
 0001:000594a0       ?type_case_c@?$output_processor@_WV?$stream_output_adapter@_W@__crt_stdio_output@@V?$standard_base@_WV?$stream_output_adapter@_W@__crt_stdio_output@@@2@@__crt_stdio_output@@AAE_NXZ 1005a4a0 f i libucrtd:output.obj
 0001:000594c0       ?type_case_c@?$output_processor@_WV?$string_output_adapter@_W@__crt_stdio_output@@V?$format_validation_base@_WV?$string_output_adapter@_W@__crt_stdio_output@@@2@@__crt_stdio_output@@AAE_NXZ 1005a4c0 f i libucrtd:output.obj
 0001:000594e0       ?type_case_c@?$output_processor@_WV?$string_output_adapter@_W@__crt_stdio_output@@V?$positional_parameter_base@_WV?$string_output_adapter@_W@__crt_stdio_output@@@2@@__crt_stdio_output@@AAE_NXZ 1005a4e0 f i libucrtd:output.obj
 0001:00059500       ?type_case_c@?$output_processor@_WV?$string_output_adapter@_W@__crt_stdio_output@@V?$standard_base@_WV?$string_output_adapter@_W@__crt_stdio_output@@@2@@__crt_stdio_output@@AAE_NXZ 1005a500 f i libucrtd:output.obj
 0001:00059520       ?type_case_c_tchar@?$output_processor@DV?$stream_output_adapter@D@__crt_stdio_output@@V?$format_validation_base@DV?$stream_output_adapter@D@__crt_stdio_output@@@2@@__crt_stdio_output@@AAE_ND@Z 1005a520 f i libucrtd:output.obj
 0001:00059630       ?type_case_c_tchar@?$output_processor@DV?$stream_output_adapter@D@__crt_stdio_output@@V?$positional_parameter_base@DV?$stream_output_adapter@D@__crt_stdio_output@@@2@@__crt_stdio_output@@AAE_ND@Z 1005a630 f i libucrtd:output.obj
 0001:00059740       ?type_case_c_tchar@?$output_processor@DV?$stream_output_adapter@D@__crt_stdio_output@@V?$standard_base@DV?$stream_output_adapter@D@__crt_stdio_output@@@2@@__crt_stdio_output@@AAE_ND@Z 1005a740 f i libucrtd:output.obj
 0001:00059850       ?type_case_c_tchar@?$output_processor@DV?$string_output_adapter@D@__crt_stdio_output@@V?$format_validation_base@DV?$string_output_adapter@D@__crt_stdio_output@@@2@@__crt_stdio_output@@AAE_ND@Z 1005a850 f i libucrtd:output.obj
 0001:00059960       ?type_case_c_tchar@?$output_processor@DV?$string_output_adapter@D@__crt_stdio_output@@V?$positional_parameter_base@DV?$string_output_adapter@D@__crt_stdio_output@@@2@@__crt_stdio_output@@AAE_ND@Z 1005a960 f i libucrtd:output.obj
 0001:00059a70       ?type_case_c_tchar@?$output_processor@DV?$string_output_adapter@D@__crt_stdio_output@@V?$standard_base@DV?$string_output_adapter@D@__crt_stdio_output@@@2@@__crt_stdio_output@@AAE_ND@Z 1005aa70 f i libucrtd:output.obj
 0001:00059b80       ?type_case_c_tchar@?$output_processor@_WV?$stream_output_adapter@_W@__crt_stdio_output@@V?$format_validation_base@_WV?$stream_output_adapter@_W@__crt_stdio_output@@@2@@__crt_stdio_output@@AAE_N_W@Z 1005ab80 f i libucrtd:output.obj
 0001:00059c80       ?type_case_c_tchar@?$output_processor@_WV?$stream_output_adapter@_W@__crt_stdio_output@@V?$positional_parameter_base@_WV?$stream_output_adapter@_W@__crt_stdio_output@@@2@@__crt_stdio_output@@AAE_N_W@Z 1005ac80 f i libucrtd:output.obj
 0001:00059d80       ?type_case_c_tchar@?$output_processor@_WV?$stream_output_adapter@_W@__crt_stdio_output@@V?$standard_base@_WV?$stream_output_adapter@_W@__crt_stdio_output@@@2@@__crt_stdio_output@@AAE_N_W@Z 1005ad80 f i libucrtd:output.obj
 0001:00059e80       ?type_case_c_tchar@?$output_processor@_WV?$string_output_adapter@_W@__crt_stdio_output@@V?$format_validation_base@_WV?$string_output_adapter@_W@__crt_stdio_output@@@2@@__crt_stdio_output@@AAE_N_W@Z 1005ae80 f i libucrtd:output.obj
 0001:00059f80       ?type_case_c_tchar@?$output_processor@_WV?$string_output_adapter@_W@__crt_stdio_output@@V?$positional_parameter_base@_WV?$string_output_adapter@_W@__crt_stdio_output@@@2@@__crt_stdio_output@@AAE_N_W@Z 1005af80 f i libucrtd:output.obj
 0001:0005a080       ?type_case_c_tchar@?$output_processor@_WV?$string_output_adapter@_W@__crt_stdio_output@@V?$standard_base@_WV?$string_output_adapter@_W@__crt_stdio_output@@@2@@__crt_stdio_output@@AAE_N_W@Z 1005b080 f i libucrtd:output.obj
 0001:0005a180       ?type_case_d@?$output_processor@DV?$stream_output_adapter@D@__crt_stdio_output@@V?$format_validation_base@DV?$stream_output_adapter@D@__crt_stdio_output@@@2@@__crt_stdio_output@@AAE_NXZ 1005b180 f i libucrtd:output.obj
 0001:0005a1b0       ?type_case_d@?$output_processor@DV?$stream_output_adapter@D@__crt_stdio_output@@V?$positional_parameter_base@DV?$stream_output_adapter@D@__crt_stdio_output@@@2@@__crt_stdio_output@@AAE_NXZ 1005b1b0 f i libucrtd:output.obj
 0001:0005a1e0       ?type_case_d@?$output_processor@DV?$stream_output_adapter@D@__crt_stdio_output@@V?$standard_base@DV?$stream_output_adapter@D@__crt_stdio_output@@@2@@__crt_stdio_output@@AAE_NXZ 1005b1e0 f i libucrtd:output.obj
 0001:0005a210       ?type_case_d@?$output_processor@DV?$string_output_adapter@D@__crt_stdio_output@@V?$format_validation_base@DV?$string_output_adapter@D@__crt_stdio_output@@@2@@__crt_stdio_output@@AAE_NXZ 1005b210 f i libucrtd:output.obj
 0001:0005a240       ?type_case_d@?$output_processor@DV?$string_output_adapter@D@__crt_stdio_output@@V?$positional_parameter_base@DV?$string_output_adapter@D@__crt_stdio_output@@@2@@__crt_stdio_output@@AAE_NXZ 1005b240 f i libucrtd:output.obj
 0001:0005a270       ?type_case_d@?$output_processor@DV?$string_output_adapter@D@__crt_stdio_output@@V?$standard_base@DV?$string_output_adapter@D@__crt_stdio_output@@@2@@__crt_stdio_output@@AAE_NXZ 1005b270 f i libucrtd:output.obj
 0001:0005a2a0       ?type_case_d@?$output_processor@_WV?$stream_output_adapter@_W@__crt_stdio_output@@V?$format_validation_base@_WV?$stream_output_adapter@_W@__crt_stdio_output@@@2@@__crt_stdio_output@@AAE_NXZ 1005b2a0 f i libucrtd:output.obj
 0001:0005a2d0       ?type_case_d@?$output_processor@_WV?$stream_output_adapter@_W@__crt_stdio_output@@V?$positional_parameter_base@_WV?$stream_output_adapter@_W@__crt_stdio_output@@@2@@__crt_stdio_output@@AAE_NXZ 1005b2d0 f i libucrtd:output.obj
 0001:0005a300       ?type_case_d@?$output_processor@_WV?$stream_output_adapter@_W@__crt_stdio_output@@V?$standard_base@_WV?$stream_output_adapter@_W@__crt_stdio_output@@@2@@__crt_stdio_output@@AAE_NXZ 1005b300 f i libucrtd:output.obj
 0001:0005a330       ?type_case_d@?$output_processor@_WV?$string_output_adapter@_W@__crt_stdio_output@@V?$format_validation_base@_WV?$string_output_adapter@_W@__crt_stdio_output@@@2@@__crt_stdio_output@@AAE_NXZ 1005b330 f i libucrtd:output.obj
 0001:0005a360       ?type_case_d@?$output_processor@_WV?$string_output_adapter@_W@__crt_stdio_output@@V?$positional_parameter_base@_WV?$string_output_adapter@_W@__crt_stdio_output@@@2@@__crt_stdio_output@@AAE_NXZ 1005b360 f i libucrtd:output.obj
 0001:0005a390       ?type_case_d@?$output_processor@_WV?$string_output_adapter@_W@__crt_stdio_output@@V?$standard_base@_WV?$string_output_adapter@_W@__crt_stdio_output@@@2@@__crt_stdio_output@@AAE_NXZ 1005b390 f i libucrtd:output.obj
 0001:0005a3c0       ?type_case_integer@?$output_processor@DV?$stream_output_adapter@D@__crt_stdio_output@@V?$format_validation_base@DV?$stream_output_adapter@D@__crt_stdio_output@@@2@@__crt_stdio_output@@AAE_NI_N@Z 1005b3c0 f i libucrtd:output.obj
 0001:0005a710       ?type_case_integer@?$output_processor@DV?$stream_output_adapter@D@__crt_stdio_output@@V?$positional_parameter_base@DV?$stream_output_adapter@D@__crt_stdio_output@@@2@@__crt_stdio_output@@AAE_NI_N@Z 1005b710 f i libucrtd:output.obj
 0001:0005aa60       ?type_case_integer@?$output_processor@DV?$stream_output_adapter@D@__crt_stdio_output@@V?$standard_base@DV?$stream_output_adapter@D@__crt_stdio_output@@@2@@__crt_stdio_output@@AAE_NI_N@Z 1005ba60 f i libucrtd:output.obj
 0001:0005adb0       ?type_case_integer@?$output_processor@DV?$string_output_adapter@D@__crt_stdio_output@@V?$format_validation_base@DV?$string_output_adapter@D@__crt_stdio_output@@@2@@__crt_stdio_output@@AAE_NI_N@Z 1005bdb0 f i libucrtd:output.obj
 0001:0005b100       ?type_case_integer@?$output_processor@DV?$string_output_adapter@D@__crt_stdio_output@@V?$positional_parameter_base@DV?$string_output_adapter@D@__crt_stdio_output@@@2@@__crt_stdio_output@@AAE_NI_N@Z 1005c100 f i libucrtd:output.obj
 0001:0005b450       ?type_case_integer@?$output_processor@DV?$string_output_adapter@D@__crt_stdio_output@@V?$standard_base@DV?$string_output_adapter@D@__crt_stdio_output@@@2@@__crt_stdio_output@@AAE_NI_N@Z 1005c450 f i libucrtd:output.obj
 0001:0005b7a0       ?type_case_integer@?$output_processor@_WV?$stream_output_adapter@_W@__crt_stdio_output@@V?$format_validation_base@_WV?$stream_output_adapter@_W@__crt_stdio_output@@@2@@__crt_stdio_output@@AAE_NI_N@Z 1005c7a0 f i libucrtd:output.obj
 0001:0005baf0       ?type_case_integer@?$output_processor@_WV?$stream_output_adapter@_W@__crt_stdio_output@@V?$positional_parameter_base@_WV?$stream_output_adapter@_W@__crt_stdio_output@@@2@@__crt_stdio_output@@AAE_NI_N@Z 1005caf0 f i libucrtd:output.obj
 0001:0005be40       ?type_case_integer@?$output_processor@_WV?$stream_output_adapter@_W@__crt_stdio_output@@V?$standard_base@_WV?$stream_output_adapter@_W@__crt_stdio_output@@@2@@__crt_stdio_output@@AAE_NI_N@Z 1005ce40 f i libucrtd:output.obj
 0001:0005c190       ?type_case_integer@?$output_processor@_WV?$string_output_adapter@_W@__crt_stdio_output@@V?$format_validation_base@_WV?$string_output_adapter@_W@__crt_stdio_output@@@2@@__crt_stdio_output@@AAE_NI_N@Z 1005d190 f i libucrtd:output.obj
 0001:0005c4e0       ?type_case_integer@?$output_processor@_WV?$string_output_adapter@_W@__crt_stdio_output@@V?$positional_parameter_base@_WV?$string_output_adapter@_W@__crt_stdio_output@@@2@@__crt_stdio_output@@AAE_NI_N@Z 1005d4e0 f i libucrtd:output.obj
 0001:0005c830       ?type_case_integer@?$output_processor@_WV?$string_output_adapter@_W@__crt_stdio_output@@V?$standard_base@_WV?$string_output_adapter@_W@__crt_stdio_output@@@2@@__crt_stdio_output@@AAE_NI_N@Z 1005d830 f i libucrtd:output.obj
 0001:0005cb80       ?type_case_n@?$output_processor@DV?$stream_output_adapter@D@__crt_stdio_output@@V?$format_validation_base@DV?$stream_output_adapter@D@__crt_stdio_output@@@2@@__crt_stdio_output@@AAE_NXZ 1005db80 f i libucrtd:output.obj
 0001:0005cd70       ?type_case_n@?$output_processor@DV?$stream_output_adapter@D@__crt_stdio_output@@V?$positional_parameter_base@DV?$stream_output_adapter@D@__crt_stdio_output@@@2@@__crt_stdio_output@@AAE_NXZ 1005dd70 f i libucrtd:output.obj
 0001:0005cf60       ?type_case_n@?$output_processor@DV?$stream_output_adapter@D@__crt_stdio_output@@V?$standard_base@DV?$stream_output_adapter@D@__crt_stdio_output@@@2@@__crt_stdio_output@@AAE_NXZ 1005df60 f i libucrtd:output.obj
 0001:0005d150       ?type_case_n@?$output_processor@DV?$string_output_adapter@D@__crt_stdio_output@@V?$format_validation_base@DV?$string_output_adapter@D@__crt_stdio_output@@@2@@__crt_stdio_output@@AAE_NXZ 1005e150 f i libucrtd:output.obj
 0001:0005d340       ?type_case_n@?$output_processor@DV?$string_output_adapter@D@__crt_stdio_output@@V?$positional_parameter_base@DV?$string_output_adapter@D@__crt_stdio_output@@@2@@__crt_stdio_output@@AAE_NXZ 1005e340 f i libucrtd:output.obj
 0001:0005d530       ?type_case_n@?$output_processor@DV?$string_output_adapter@D@__crt_stdio_output@@V?$standard_base@DV?$string_output_adapter@D@__crt_stdio_output@@@2@@__crt_stdio_output@@AAE_NXZ 1005e530 f i libucrtd:output.obj
 0001:0005d720       ?type_case_n@?$output_processor@_WV?$stream_output_adapter@_W@__crt_stdio_output@@V?$format_validation_base@_WV?$stream_output_adapter@_W@__crt_stdio_output@@@2@@__crt_stdio_output@@AAE_NXZ 1005e720 f i libucrtd:output.obj
 0001:0005d910       ?type_case_n@?$output_processor@_WV?$stream_output_adapter@_W@__crt_stdio_output@@V?$positional_parameter_base@_WV?$stream_output_adapter@_W@__crt_stdio_output@@@2@@__crt_stdio_output@@AAE_NXZ 1005e910 f i libucrtd:output.obj
 0001:0005db00       ?type_case_n@?$output_processor@_WV?$stream_output_adapter@_W@__crt_stdio_output@@V?$standard_base@_WV?$stream_output_adapter@_W@__crt_stdio_output@@@2@@__crt_stdio_output@@AAE_NXZ 1005eb00 f i libucrtd:output.obj
 0001:0005dcf0       ?type_case_n@?$output_processor@_WV?$string_output_adapter@_W@__crt_stdio_output@@V?$format_validation_base@_WV?$string_output_adapter@_W@__crt_stdio_output@@@2@@__crt_stdio_output@@AAE_NXZ 1005ecf0 f i libucrtd:output.obj
 0001:0005dee0       ?type_case_n@?$output_processor@_WV?$string_output_adapter@_W@__crt_stdio_output@@V?$positional_parameter_base@_WV?$string_output_adapter@_W@__crt_stdio_output@@@2@@__crt_stdio_output@@AAE_NXZ 1005eee0 f i libucrtd:output.obj
 0001:0005e0d0       ?type_case_n@?$output_processor@_WV?$string_output_adapter@_W@__crt_stdio_output@@V?$standard_base@_WV?$string_output_adapter@_W@__crt_stdio_output@@@2@@__crt_stdio_output@@AAE_NXZ 1005f0d0 f i libucrtd:output.obj
 0001:0005e2c0       ?type_case_o@?$output_processor@DV?$stream_output_adapter@D@__crt_stdio_output@@V?$format_validation_base@DV?$stream_output_adapter@D@__crt_stdio_output@@@2@@__crt_stdio_output@@AAE_NXZ 1005f2c0 f i libucrtd:output.obj
 0001:0005e300       ?type_case_o@?$output_processor@DV?$stream_output_adapter@D@__crt_stdio_output@@V?$positional_parameter_base@DV?$stream_output_adapter@D@__crt_stdio_output@@@2@@__crt_stdio_output@@AAE_NXZ 1005f300 f i libucrtd:output.obj
 0001:0005e340       ?type_case_o@?$output_processor@DV?$stream_output_adapter@D@__crt_stdio_output@@V?$standard_base@DV?$stream_output_adapter@D@__crt_stdio_output@@@2@@__crt_stdio_output@@AAE_NXZ 1005f340 f i libucrtd:output.obj
 0001:0005e380       ?type_case_o@?$output_processor@DV?$string_output_adapter@D@__crt_stdio_output@@V?$format_validation_base@DV?$string_output_adapter@D@__crt_stdio_output@@@2@@__crt_stdio_output@@AAE_NXZ 1005f380 f i libucrtd:output.obj
 0001:0005e3c0       ?type_case_o@?$output_processor@DV?$string_output_adapter@D@__crt_stdio_output@@V?$positional_parameter_base@DV?$string_output_adapter@D@__crt_stdio_output@@@2@@__crt_stdio_output@@AAE_NXZ 1005f3c0 f i libucrtd:output.obj
 0001:0005e400       ?type_case_o@?$output_processor@DV?$string_output_adapter@D@__crt_stdio_output@@V?$standard_base@DV?$string_output_adapter@D@__crt_stdio_output@@@2@@__crt_stdio_output@@AAE_NXZ 1005f400 f i libucrtd:output.obj
 0001:0005e440       ?type_case_o@?$output_processor@_WV?$stream_output_adapter@_W@__crt_stdio_output@@V?$format_validation_base@_WV?$stream_output_adapter@_W@__crt_stdio_output@@@2@@__crt_stdio_output@@AAE_NXZ 1005f440 f i libucrtd:output.obj
 0001:0005e480       ?type_case_o@?$output_processor@_WV?$stream_output_adapter@_W@__crt_stdio_output@@V?$positional_parameter_base@_WV?$stream_output_adapter@_W@__crt_stdio_output@@@2@@__crt_stdio_output@@AAE_NXZ 1005f480 f i libucrtd:output.obj
 0001:0005e4c0       ?type_case_o@?$output_processor@_WV?$stream_output_adapter@_W@__crt_stdio_output@@V?$standard_base@_WV?$stream_output_adapter@_W@__crt_stdio_output@@@2@@__crt_stdio_output@@AAE_NXZ 1005f4c0 f i libucrtd:output.obj
 0001:0005e500       ?type_case_o@?$output_processor@_WV?$string_output_adapter@_W@__crt_stdio_output@@V?$format_validation_base@_WV?$string_output_adapter@_W@__crt_stdio_output@@@2@@__crt_stdio_output@@AAE_NXZ 1005f500 f i libucrtd:output.obj
 0001:0005e540       ?type_case_o@?$output_processor@_WV?$string_output_adapter@_W@__crt_stdio_output@@V?$positional_parameter_base@_WV?$string_output_adapter@_W@__crt_stdio_output@@@2@@__crt_stdio_output@@AAE_NXZ 1005f540 f i libucrtd:output.obj
 0001:0005e580       ?type_case_o@?$output_processor@_WV?$string_output_adapter@_W@__crt_stdio_output@@V?$standard_base@_WV?$string_output_adapter@_W@__crt_stdio_output@@@2@@__crt_stdio_output@@AAE_NXZ 1005f580 f i libucrtd:output.obj
 0001:0005e5c0       ?type_case_p@?$output_processor@DV?$stream_output_adapter@D@__crt_stdio_output@@V?$format_validation_base@DV?$stream_output_adapter@D@__crt_stdio_output@@@2@@__crt_stdio_output@@AAE_NXZ 1005f5c0 f i libucrtd:output.obj
 0001:0005e5f0       ?type_case_p@?$output_processor@DV?$stream_output_adapter@D@__crt_stdio_output@@V?$positional_parameter_base@DV?$stream_output_adapter@D@__crt_stdio_output@@@2@@__crt_stdio_output@@AAE_NXZ 1005f5f0 f i libucrtd:output.obj
 0001:0005e620       ?type_case_p@?$output_processor@DV?$stream_output_adapter@D@__crt_stdio_output@@V?$standard_base@DV?$stream_output_adapter@D@__crt_stdio_output@@@2@@__crt_stdio_output@@AAE_NXZ 1005f620 f i libucrtd:output.obj
 0001:0005e650       ?type_case_p@?$output_processor@DV?$string_output_adapter@D@__crt_stdio_output@@V?$format_validation_base@DV?$string_output_adapter@D@__crt_stdio_output@@@2@@__crt_stdio_output@@AAE_NXZ 1005f650 f i libucrtd:output.obj
 0001:0005e680       ?type_case_p@?$output_processor@DV?$string_output_adapter@D@__crt_stdio_output@@V?$positional_parameter_base@DV?$string_output_adapter@D@__crt_stdio_output@@@2@@__crt_stdio_output@@AAE_NXZ 1005f680 f i libucrtd:output.obj
 0001:0005e6b0       ?type_case_p@?$output_processor@DV?$string_output_adapter@D@__crt_stdio_output@@V?$standard_base@DV?$string_output_adapter@D@__crt_stdio_output@@@2@@__crt_stdio_output@@AAE_NXZ 1005f6b0 f i libucrtd:output.obj
 0001:0005e6e0       ?type_case_p@?$output_processor@_WV?$stream_output_adapter@_W@__crt_stdio_output@@V?$format_validation_base@_WV?$stream_output_adapter@_W@__crt_stdio_output@@@2@@__crt_stdio_output@@AAE_NXZ 1005f6e0 f i libucrtd:output.obj
 0001:0005e710       ?type_case_p@?$output_processor@_WV?$stream_output_adapter@_W@__crt_stdio_output@@V?$positional_parameter_base@_WV?$stream_output_adapter@_W@__crt_stdio_output@@@2@@__crt_stdio_output@@AAE_NXZ 1005f710 f i libucrtd:output.obj
 0001:0005e740       ?type_case_p@?$output_processor@_WV?$stream_output_adapter@_W@__crt_stdio_output@@V?$standard_base@_WV?$stream_output_adapter@_W@__crt_stdio_output@@@2@@__crt_stdio_output@@AAE_NXZ 1005f740 f i libucrtd:output.obj
 0001:0005e770       ?type_case_p@?$output_processor@_WV?$string_output_adapter@_W@__crt_stdio_output@@V?$format_validation_base@_WV?$string_output_adapter@_W@__crt_stdio_output@@@2@@__crt_stdio_output@@AAE_NXZ 1005f770 f i libucrtd:output.obj
 0001:0005e7a0       ?type_case_p@?$output_processor@_WV?$string_output_adapter@_W@__crt_stdio_output@@V?$positional_parameter_base@_WV?$string_output_adapter@_W@__crt_stdio_output@@@2@@__crt_stdio_output@@AAE_NXZ 1005f7a0 f i libucrtd:output.obj
 0001:0005e7d0       ?type_case_p@?$output_processor@_WV?$string_output_adapter@_W@__crt_stdio_output@@V?$standard_base@_WV?$string_output_adapter@_W@__crt_stdio_output@@@2@@__crt_stdio_output@@AAE_NXZ 1005f7d0 f i libucrtd:output.obj
 0001:0005e800       ?type_case_s@?$output_processor@DV?$stream_output_adapter@D@__crt_stdio_output@@V?$format_validation_base@DV?$stream_output_adapter@D@__crt_stdio_output@@@2@@__crt_stdio_output@@AAE_NXZ 1005f800 f i libucrtd:output.obj
 0001:0005e8f0       ?type_case_s@?$output_processor@DV?$stream_output_adapter@D@__crt_stdio_output@@V?$positional_parameter_base@DV?$stream_output_adapter@D@__crt_stdio_output@@@2@@__crt_stdio_output@@AAE_NXZ 1005f8f0 f i libucrtd:output.obj
 0001:0005e9e0       ?type_case_s@?$output_processor@DV?$stream_output_adapter@D@__crt_stdio_output@@V?$standard_base@DV?$stream_output_adapter@D@__crt_stdio_output@@@2@@__crt_stdio_output@@AAE_NXZ 1005f9e0 f i libucrtd:output.obj
 0001:0005ead0       ?type_case_s@?$output_processor@DV?$string_output_adapter@D@__crt_stdio_output@@V?$format_validation_base@DV?$string_output_adapter@D@__crt_stdio_output@@@2@@__crt_stdio_output@@AAE_NXZ 1005fad0 f i libucrtd:output.obj
 0001:0005ebc0       ?type_case_s@?$output_processor@DV?$string_output_adapter@D@__crt_stdio_output@@V?$positional_parameter_base@DV?$string_output_adapter@D@__crt_stdio_output@@@2@@__crt_stdio_output@@AAE_NXZ 1005fbc0 f i libucrtd:output.obj
 0001:0005ecb0       ?type_case_s@?$output_processor@DV?$string_output_adapter@D@__crt_stdio_output@@V?$standard_base@DV?$string_output_adapter@D@__crt_stdio_output@@@2@@__crt_stdio_output@@AAE_NXZ 1005fcb0 f i libucrtd:output.obj
 0001:0005eda0       ?type_case_s@?$output_processor@_WV?$stream_output_adapter@_W@__crt_stdio_output@@V?$format_validation_base@_WV?$stream_output_adapter@_W@__crt_stdio_output@@@2@@__crt_stdio_output@@AAE_NXZ 1005fda0 f i libucrtd:output.obj
 0001:0005ee90       ?type_case_s@?$output_processor@_WV?$stream_output_adapter@_W@__crt_stdio_output@@V?$positional_parameter_base@_WV?$stream_output_adapter@_W@__crt_stdio_output@@@2@@__crt_stdio_output@@AAE_NXZ 1005fe90 f i libucrtd:output.obj
 0001:0005ef80       ?type_case_s@?$output_processor@_WV?$stream_output_adapter@_W@__crt_stdio_output@@V?$standard_base@_WV?$stream_output_adapter@_W@__crt_stdio_output@@@2@@__crt_stdio_output@@AAE_NXZ 1005ff80 f i libucrtd:output.obj
 0001:0005f070       ?type_case_s@?$output_processor@_WV?$string_output_adapter@_W@__crt_stdio_output@@V?$format_validation_base@_WV?$string_output_adapter@_W@__crt_stdio_output@@@2@@__crt_stdio_output@@AAE_NXZ 10060070 f i libucrtd:output.obj
 0001:0005f160       ?type_case_s@?$output_processor@_WV?$string_output_adapter@_W@__crt_stdio_output@@V?$positional_parameter_base@_WV?$string_output_adapter@_W@__crt_stdio_output@@@2@@__crt_stdio_output@@AAE_NXZ 10060160 f i libucrtd:output.obj
 0001:0005f250       ?type_case_s@?$output_processor@_WV?$string_output_adapter@_W@__crt_stdio_output@@V?$standard_base@_WV?$string_output_adapter@_W@__crt_stdio_output@@@2@@__crt_stdio_output@@AAE_NXZ 10060250 f i libucrtd:output.obj
 0001:0005f340       ?type_case_s_compute_narrow_string_length@?$output_processor@DV?$stream_output_adapter@D@__crt_stdio_output@@V?$format_validation_base@DV?$stream_output_adapter@D@__crt_stdio_output@@@2@@__crt_stdio_output@@ABEHHD@Z 10060340 f i libucrtd:output.obj
 0001:0005f370       ?type_case_s_compute_narrow_string_length@?$output_processor@DV?$stream_output_adapter@D@__crt_stdio_output@@V?$positional_parameter_base@DV?$stream_output_adapter@D@__crt_stdio_output@@@2@@__crt_stdio_output@@ABEHHD@Z 10060370 f i libucrtd:output.obj
 0001:0005f3a0       ?type_case_s_compute_narrow_string_length@?$output_processor@DV?$stream_output_adapter@D@__crt_stdio_output@@V?$standard_base@DV?$stream_output_adapter@D@__crt_stdio_output@@@2@@__crt_stdio_output@@ABEHHD@Z 100603a0 f i libucrtd:output.obj
 0001:0005f3d0       ?type_case_s_compute_narrow_string_length@?$output_processor@DV?$string_output_adapter@D@__crt_stdio_output@@V?$format_validation_base@DV?$string_output_adapter@D@__crt_stdio_output@@@2@@__crt_stdio_output@@ABEHHD@Z 100603d0 f i libucrtd:output.obj
 0001:0005f400       ?type_case_s_compute_narrow_string_length@?$output_processor@DV?$string_output_adapter@D@__crt_stdio_output@@V?$positional_parameter_base@DV?$string_output_adapter@D@__crt_stdio_output@@@2@@__crt_stdio_output@@ABEHHD@Z 10060400 f i libucrtd:output.obj
 0001:0005f430       ?type_case_s_compute_narrow_string_length@?$output_processor@DV?$string_output_adapter@D@__crt_stdio_output@@V?$standard_base@DV?$string_output_adapter@D@__crt_stdio_output@@@2@@__crt_stdio_output@@ABEHHD@Z 10060430 f i libucrtd:output.obj
 0001:0005f460       ?type_case_s_compute_narrow_string_length@?$output_processor@_WV?$stream_output_adapter@_W@__crt_stdio_output@@V?$format_validation_base@_WV?$stream_output_adapter@_W@__crt_stdio_output@@@2@@__crt_stdio_output@@ABEHH_W@Z 10060460 f i libucrtd:output.obj
 0001:0005f4d0       ?type_case_s_compute_narrow_string_length@?$output_processor@_WV?$stream_output_adapter@_W@__crt_stdio_output@@V?$positional_parameter_base@_WV?$stream_output_adapter@_W@__crt_stdio_output@@@2@@__crt_stdio_output@@ABEHH_W@Z 100604d0 f i libucrtd:output.obj
 0001:0005f540       ?type_case_s_compute_narrow_string_length@?$output_processor@_WV?$stream_output_adapter@_W@__crt_stdio_output@@V?$standard_base@_WV?$stream_output_adapter@_W@__crt_stdio_output@@@2@@__crt_stdio_output@@ABEHH_W@Z 10060540 f i libucrtd:output.obj
 0001:0005f5b0       ?type_case_s_compute_narrow_string_length@?$output_processor@_WV?$string_output_adapter@_W@__crt_stdio_output@@V?$format_validation_base@_WV?$string_output_adapter@_W@__crt_stdio_output@@@2@@__crt_stdio_output@@ABEHH_W@Z 100605b0 f i libucrtd:output.obj
 0001:0005f620       ?type_case_s_compute_narrow_string_length@?$output_processor@_WV?$string_output_adapter@_W@__crt_stdio_output@@V?$positional_parameter_base@_WV?$string_output_adapter@_W@__crt_stdio_output@@@2@@__crt_stdio_output@@ABEHH_W@Z 10060620 f i libucrtd:output.obj
 0001:0005f690       ?type_case_s_compute_narrow_string_length@?$output_processor@_WV?$string_output_adapter@_W@__crt_stdio_output@@V?$standard_base@_WV?$string_output_adapter@_W@__crt_stdio_output@@@2@@__crt_stdio_output@@ABEHH_W@Z 10060690 f i libucrtd:output.obj
 0001:0005f700       ?type_case_u@?$output_processor@DV?$stream_output_adapter@D@__crt_stdio_output@@V?$format_validation_base@DV?$stream_output_adapter@D@__crt_stdio_output@@@2@@__crt_stdio_output@@AAE_NXZ 10060700 f i libucrtd:output.obj
 0001:0005f720       ?type_case_u@?$output_processor@DV?$stream_output_adapter@D@__crt_stdio_output@@V?$positional_parameter_base@DV?$stream_output_adapter@D@__crt_stdio_output@@@2@@__crt_stdio_output@@AAE_NXZ 10060720 f i libucrtd:output.obj
 0001:0005f740       ?type_case_u@?$output_processor@DV?$stream_output_adapter@D@__crt_stdio_output@@V?$standard_base@DV?$stream_output_adapter@D@__crt_stdio_output@@@2@@__crt_stdio_output@@AAE_NXZ 10060740 f i libucrtd:output.obj
 0001:0005f760       ?type_case_u@?$output_processor@DV?$string_output_adapter@D@__crt_stdio_output@@V?$format_validation_base@DV?$string_output_adapter@D@__crt_stdio_output@@@2@@__crt_stdio_output@@AAE_NXZ 10060760 f i libucrtd:output.obj
 0001:0005f780       ?type_case_u@?$output_processor@DV?$string_output_adapter@D@__crt_stdio_output@@V?$positional_parameter_base@DV?$string_output_adapter@D@__crt_stdio_output@@@2@@__crt_stdio_output@@AAE_NXZ 10060780 f i libucrtd:output.obj
 0001:0005f7a0       ?type_case_u@?$output_processor@DV?$string_output_adapter@D@__crt_stdio_output@@V?$standard_base@DV?$string_output_adapter@D@__crt_stdio_output@@@2@@__crt_stdio_output@@AAE_NXZ 100607a0 f i libucrtd:output.obj
 0001:0005f7c0       ?type_case_u@?$output_processor@_WV?$stream_output_adapter@_W@__crt_stdio_output@@V?$format_validation_base@_WV?$stream_output_adapter@_W@__crt_stdio_output@@@2@@__crt_stdio_output@@AAE_NXZ 100607c0 f i libucrtd:output.obj
 0001:0005f7e0       ?type_case_u@?$output_processor@_WV?$stream_output_adapter@_W@__crt_stdio_output@@V?$positional_parameter_base@_WV?$stream_output_adapter@_W@__crt_stdio_output@@@2@@__crt_stdio_output@@AAE_NXZ 100607e0 f i libucrtd:output.obj
 0001:0005f800       ?type_case_u@?$output_processor@_WV?$stream_output_adapter@_W@__crt_stdio_output@@V?$standard_base@_WV?$stream_output_adapter@_W@__crt_stdio_output@@@2@@__crt_stdio_output@@AAE_NXZ 10060800 f i libucrtd:output.obj
 0001:0005f820       ?type_case_u@?$output_processor@_WV?$string_output_adapter@_W@__crt_stdio_output@@V?$format_validation_base@_WV?$string_output_adapter@_W@__crt_stdio_output@@@2@@__crt_stdio_output@@AAE_NXZ 10060820 f i libucrtd:output.obj
 0001:0005f840       ?type_case_u@?$output_processor@_WV?$string_output_adapter@_W@__crt_stdio_output@@V?$positional_parameter_base@_WV?$string_output_adapter@_W@__crt_stdio_output@@@2@@__crt_stdio_output@@AAE_NXZ 10060840 f i libucrtd:output.obj
 0001:0005f860       ?type_case_u@?$output_processor@_WV?$string_output_adapter@_W@__crt_stdio_output@@V?$standard_base@_WV?$string_output_adapter@_W@__crt_stdio_output@@@2@@__crt_stdio_output@@AAE_NXZ 10060860 f i libucrtd:output.obj
 0001:0005f880       ?type_case_x@?$output_processor@DV?$stream_output_adapter@D@__crt_stdio_output@@V?$format_validation_base@DV?$stream_output_adapter@D@__crt_stdio_output@@@2@@__crt_stdio_output@@AAE_NXZ 10060880 f i libucrtd:output.obj
 0001:0005f8a0       ?type_case_x@?$output_processor@DV?$stream_output_adapter@D@__crt_stdio_output@@V?$positional_parameter_base@DV?$stream_output_adapter@D@__crt_stdio_output@@@2@@__crt_stdio_output@@AAE_NXZ 100608a0 f i libucrtd:output.obj
 0001:0005f8c0       ?type_case_x@?$output_processor@DV?$stream_output_adapter@D@__crt_stdio_output@@V?$standard_base@DV?$stream_output_adapter@D@__crt_stdio_output@@@2@@__crt_stdio_output@@AAE_NXZ 100608c0 f i libucrtd:output.obj
 0001:0005f8e0       ?type_case_x@?$output_processor@DV?$string_output_adapter@D@__crt_stdio_output@@V?$format_validation_base@DV?$string_output_adapter@D@__crt_stdio_output@@@2@@__crt_stdio_output@@AAE_NXZ 100608e0 f i libucrtd:output.obj
 0001:0005f900       ?type_case_x@?$output_processor@DV?$string_output_adapter@D@__crt_stdio_output@@V?$positional_parameter_base@DV?$string_output_adapter@D@__crt_stdio_output@@@2@@__crt_stdio_output@@AAE_NXZ 10060900 f i libucrtd:output.obj
 0001:0005f920       ?type_case_x@?$output_processor@DV?$string_output_adapter@D@__crt_stdio_output@@V?$standard_base@DV?$string_output_adapter@D@__crt_stdio_output@@@2@@__crt_stdio_output@@AAE_NXZ 10060920 f i libucrtd:output.obj
 0001:0005f940       ?type_case_x@?$output_processor@_WV?$stream_output_adapter@_W@__crt_stdio_output@@V?$format_validation_base@_WV?$stream_output_adapter@_W@__crt_stdio_output@@@2@@__crt_stdio_output@@AAE_NXZ 10060940 f i libucrtd:output.obj
 0001:0005f960       ?type_case_x@?$output_processor@_WV?$stream_output_adapter@_W@__crt_stdio_output@@V?$positional_parameter_base@_WV?$stream_output_adapter@_W@__crt_stdio_output@@@2@@__crt_stdio_output@@AAE_NXZ 10060960 f i libucrtd:output.obj
 0001:0005f980       ?type_case_x@?$output_processor@_WV?$stream_output_adapter@_W@__crt_stdio_output@@V?$standard_base@_WV?$stream_output_adapter@_W@__crt_stdio_output@@@2@@__crt_stdio_output@@AAE_NXZ 10060980 f i libucrtd:output.obj
 0001:0005f9a0       ?type_case_x@?$output_processor@_WV?$string_output_adapter@_W@__crt_stdio_output@@V?$format_validation_base@_WV?$string_output_adapter@_W@__crt_stdio_output@@@2@@__crt_stdio_output@@AAE_NXZ 100609a0 f i libucrtd:output.obj
 0001:0005f9c0       ?type_case_x@?$output_processor@_WV?$string_output_adapter@_W@__crt_stdio_output@@V?$positional_parameter_base@_WV?$string_output_adapter@_W@__crt_stdio_output@@@2@@__crt_stdio_output@@AAE_NXZ 100609c0 f i libucrtd:output.obj
 0001:0005f9e0       ?type_case_x@?$output_processor@_WV?$string_output_adapter@_W@__crt_stdio_output@@V?$standard_base@_WV?$string_output_adapter@_W@__crt_stdio_output@@@2@@__crt_stdio_output@@AAE_NXZ 100609e0 f i libucrtd:output.obj
 0001:0005fa00       ?unset_flag@?$output_processor@DV?$stream_output_adapter@D@__crt_stdio_output@@V?$format_validation_base@DV?$stream_output_adapter@D@__crt_stdio_output@@@2@@__crt_stdio_output@@AAEXI@Z 10060a00 f i libucrtd:output.obj
 0001:0005fa20       ?unset_flag@?$output_processor@DV?$stream_output_adapter@D@__crt_stdio_output@@V?$positional_parameter_base@DV?$stream_output_adapter@D@__crt_stdio_output@@@2@@__crt_stdio_output@@AAEXI@Z 10060a20 f i libucrtd:output.obj
 0001:0005fa40       ?unset_flag@?$output_processor@DV?$stream_output_adapter@D@__crt_stdio_output@@V?$standard_base@DV?$stream_output_adapter@D@__crt_stdio_output@@@2@@__crt_stdio_output@@AAEXI@Z 10060a40 f i libucrtd:output.obj
 0001:0005fa60       ?unset_flag@?$output_processor@DV?$string_output_adapter@D@__crt_stdio_output@@V?$format_validation_base@DV?$string_output_adapter@D@__crt_stdio_output@@@2@@__crt_stdio_output@@AAEXI@Z 10060a60 f i libucrtd:output.obj
 0001:0005fa80       ?unset_flag@?$output_processor@DV?$string_output_adapter@D@__crt_stdio_output@@V?$positional_parameter_base@DV?$string_output_adapter@D@__crt_stdio_output@@@2@@__crt_stdio_output@@AAEXI@Z 10060a80 f i libucrtd:output.obj
 0001:0005faa0       ?unset_flag@?$output_processor@DV?$string_output_adapter@D@__crt_stdio_output@@V?$standard_base@DV?$string_output_adapter@D@__crt_stdio_output@@@2@@__crt_stdio_output@@AAEXI@Z 10060aa0 f i libucrtd:output.obj
 0001:0005fac0       ?unset_flag@?$output_processor@_WV?$stream_output_adapter@_W@__crt_stdio_output@@V?$format_validation_base@_WV?$stream_output_adapter@_W@__crt_stdio_output@@@2@@__crt_stdio_output@@AAEXI@Z 10060ac0 f i libucrtd:output.obj
 0001:0005fae0       ?unset_flag@?$output_processor@_WV?$stream_output_adapter@_W@__crt_stdio_output@@V?$positional_parameter_base@_WV?$stream_output_adapter@_W@__crt_stdio_output@@@2@@__crt_stdio_output@@AAEXI@Z 10060ae0 f i libucrtd:output.obj
 0001:0005fb00       ?unset_flag@?$output_processor@_WV?$stream_output_adapter@_W@__crt_stdio_output@@V?$standard_base@_WV?$stream_output_adapter@_W@__crt_stdio_output@@@2@@__crt_stdio_output@@AAEXI@Z 10060b00 f i libucrtd:output.obj
 0001:0005fb20       ?unset_flag@?$output_processor@_WV?$string_output_adapter@_W@__crt_stdio_output@@V?$format_validation_base@_WV?$string_output_adapter@_W@__crt_stdio_output@@@2@@__crt_stdio_output@@AAEXI@Z 10060b20 f i libucrtd:output.obj
 0001:0005fb40       ?unset_flag@?$output_processor@_WV?$string_output_adapter@_W@__crt_stdio_output@@V?$positional_parameter_base@_WV?$string_output_adapter@_W@__crt_stdio_output@@@2@@__crt_stdio_output@@AAEXI@Z 10060b40 f i libucrtd:output.obj
 0001:0005fb60       ?unset_flag@?$output_processor@_WV?$string_output_adapter@_W@__crt_stdio_output@@V?$standard_base@_WV?$string_output_adapter@_W@__crt_stdio_output@@@2@@__crt_stdio_output@@AAEXI@Z 10060b60 f i libucrtd:output.obj
 0001:0005fb80       ?update_field_width@?$positional_parameter_base@DV?$stream_output_adapter@D@__crt_stdio_output@@@__crt_stdio_output@@IAE_NXZ 10060b80 f i libucrtd:output.obj
 0001:0005fd00       ?update_field_width@?$positional_parameter_base@DV?$string_output_adapter@D@__crt_stdio_output@@@__crt_stdio_output@@IAE_NXZ 10060d00 f i libucrtd:output.obj
 0001:0005fe80       ?update_field_width@?$positional_parameter_base@_WV?$stream_output_adapter@_W@__crt_stdio_output@@@__crt_stdio_output@@IAE_NXZ 10060e80 f i libucrtd:output.obj
 0001:00060000       ?update_field_width@?$positional_parameter_base@_WV?$string_output_adapter@_W@__crt_stdio_output@@@__crt_stdio_output@@IAE_NXZ 10061000 f i libucrtd:output.obj
 0001:00060180       ?update_field_width@?$standard_base@DV?$stream_output_adapter@D@__crt_stdio_output@@@__crt_stdio_output@@IAE_NXZ 10061180 f i libucrtd:output.obj
 0001:000601b0       ?update_field_width@?$standard_base@DV?$string_output_adapter@D@__crt_stdio_output@@@__crt_stdio_output@@IAE_NXZ 100611b0 f i libucrtd:output.obj
 0001:000601e0       ?update_field_width@?$standard_base@_WV?$stream_output_adapter@_W@__crt_stdio_output@@@__crt_stdio_output@@IAE_NXZ 100611e0 f i libucrtd:output.obj
 0001:00060210       ?update_field_width@?$standard_base@_WV?$string_output_adapter@_W@__crt_stdio_output@@@__crt_stdio_output@@IAE_NXZ 10061210 f i libucrtd:output.obj
 0001:00060240       ?update_precision@?$positional_parameter_base@DV?$stream_output_adapter@D@__crt_stdio_output@@@__crt_stdio_output@@IAE_NXZ 10061240 f i libucrtd:output.obj
 0001:000603c0       ?update_precision@?$positional_parameter_base@DV?$string_output_adapter@D@__crt_stdio_output@@@__crt_stdio_output@@IAE_NXZ 100613c0 f i libucrtd:output.obj
 0001:00060540       ?update_precision@?$positional_parameter_base@_WV?$stream_output_adapter@_W@__crt_stdio_output@@@__crt_stdio_output@@IAE_NXZ 10061540 f i libucrtd:output.obj
 0001:000606c0       ?update_precision@?$positional_parameter_base@_WV?$string_output_adapter@_W@__crt_stdio_output@@@__crt_stdio_output@@IAE_NXZ 100616c0 f i libucrtd:output.obj
 0001:00060840       ?update_precision@?$standard_base@DV?$stream_output_adapter@D@__crt_stdio_output@@@__crt_stdio_output@@IAE_NXZ 10061840 f i libucrtd:output.obj
 0001:00060870       ?update_precision@?$standard_base@DV?$string_output_adapter@D@__crt_stdio_output@@@__crt_stdio_output@@IAE_NXZ 10061870 f i libucrtd:output.obj
 0001:000608a0       ?update_precision@?$standard_base@_WV?$stream_output_adapter@_W@__crt_stdio_output@@@__crt_stdio_output@@IAE_NXZ 100618a0 f i libucrtd:output.obj
 0001:000608d0       ?update_precision@?$standard_base@_WV?$string_output_adapter@_W@__crt_stdio_output@@@__crt_stdio_output@@IAE_NXZ 100618d0 f i libucrtd:output.obj
 0001:00060900       ?valid@__crt_stdio_stream@@QBE_NXZ 10061900 f i libucrtd:output.obj
 0001:00060930       ?validate@?$stream_output_adapter@D@__crt_stdio_output@@QBE_NXZ 10061930 f i libucrtd:output.obj
 0001:000609e0       ?validate@?$stream_output_adapter@_W@__crt_stdio_output@@QBE_NXZ 100619e0 f i libucrtd:output.obj
 0001:00060a90       ?validate@?$string_output_adapter@D@__crt_stdio_output@@QBE_NXZ 10061a90 f i libucrtd:output.obj
 0001:00060b20       ?validate@?$string_output_adapter@_W@__crt_stdio_output@@QBE_NXZ 10061b20 f i libucrtd:output.obj
 0001:00060bb0       ?validate_and_store_parameter_data@?$positional_parameter_base@DV?$stream_output_adapter@D@__crt_stdio_output@@@__crt_stdio_output@@AAE_NAAUparameter_data@12@W4parameter_type@12@DW4length_modifier@2@@Z 10061bb0 f i libucrtd:output.obj
 0001:00060c80       ?validate_and_store_parameter_data@?$positional_parameter_base@DV?$string_output_adapter@D@__crt_stdio_output@@@__crt_stdio_output@@AAE_NAAUparameter_data@12@W4parameter_type@12@DW4length_modifier@2@@Z 10061c80 f i libucrtd:output.obj
 0001:00060d50       ?validate_and_store_parameter_data@?$positional_parameter_base@_WV?$stream_output_adapter@_W@__crt_stdio_output@@@__crt_stdio_output@@AAE_NAAUparameter_data@12@W4parameter_type@12@_WW4length_modifier@2@@Z 10061d50 f i libucrtd:output.obj
 0001:00060e30       ?validate_and_store_parameter_data@?$positional_parameter_base@_WV?$string_output_adapter@_W@__crt_stdio_output@@@__crt_stdio_output@@AAE_NAAUparameter_data@12@W4parameter_type@12@_WW4length_modifier@2@@Z 10061e30 f i libucrtd:output.obj
 0001:00060f10       ?validate_and_update_state_at_beginning_of_format_character@?$positional_parameter_base@DV?$stream_output_adapter@D@__crt_stdio_output@@@__crt_stdio_output@@IAE_NXZ 10061f10 f i libucrtd:output.obj
 0001:00061130       ?validate_and_update_state_at_beginning_of_format_character@?$positional_parameter_base@DV?$string_output_adapter@D@__crt_stdio_output@@@__crt_stdio_output@@IAE_NXZ 10062130 f i libucrtd:output.obj
 0001:00061350       ?validate_and_update_state_at_beginning_of_format_character@?$positional_parameter_base@_WV?$stream_output_adapter@_W@__crt_stdio_output@@@__crt_stdio_output@@IAE_NXZ 10062350 f i libucrtd:output.obj
 0001:00061570       ?validate_and_update_state_at_beginning_of_format_character@?$positional_parameter_base@_WV?$string_output_adapter@_W@__crt_stdio_output@@@__crt_stdio_output@@IAE_NXZ 10062570 f i libucrtd:output.obj
 0001:00061790       ?validate_and_update_state_at_beginning_of_format_character@?$standard_base@DV?$stream_output_adapter@D@__crt_stdio_output@@@__crt_stdio_output@@IAE_NXZ 10062790 f i libucrtd:output.obj
 0001:000617a0       ?validate_and_update_state_at_beginning_of_format_character@?$standard_base@DV?$string_output_adapter@D@__crt_stdio_output@@@__crt_stdio_output@@IAE_NXZ 100627a0 f i libucrtd:output.obj
 0001:000617b0       ?validate_and_update_state_at_beginning_of_format_character@?$standard_base@_WV?$stream_output_adapter@_W@__crt_stdio_output@@@__crt_stdio_output@@IAE_NXZ 100627b0 f i libucrtd:output.obj
 0001:000617c0       ?validate_and_update_state_at_beginning_of_format_character@?$standard_base@_WV?$string_output_adapter@_W@__crt_stdio_output@@@__crt_stdio_output@@IAE_NXZ 100627c0 f i libucrtd:output.obj
 0001:000617d0       ?validate_and_update_state_at_end_of_format_string@?$format_validation_base@DV?$stream_output_adapter@D@__crt_stdio_output@@@__crt_stdio_output@@IBE_NXZ 100627d0 f i libucrtd:output.obj
 0001:00061870       ?validate_and_update_state_at_end_of_format_string@?$format_validation_base@DV?$string_output_adapter@D@__crt_stdio_output@@@__crt_stdio_output@@IBE_NXZ 10062870 f i libucrtd:output.obj
 0001:00061910       ?validate_and_update_state_at_end_of_format_string@?$format_validation_base@_WV?$stream_output_adapter@_W@__crt_stdio_output@@@__crt_stdio_output@@IBE_NXZ 10062910 f i libucrtd:output.obj
 0001:000619b0       ?validate_and_update_state_at_end_of_format_string@?$format_validation_base@_WV?$string_output_adapter@_W@__crt_stdio_output@@@__crt_stdio_output@@IBE_NXZ 100629b0 f i libucrtd:output.obj
 0001:00061a50       ?validate_and_update_state_at_end_of_format_string@?$positional_parameter_base@DV?$stream_output_adapter@D@__crt_stdio_output@@@__crt_stdio_output@@IAE_NXZ 10062a50 f i libucrtd:output.obj
 0001:00061bf0       ?validate_and_update_state_at_end_of_format_string@?$positional_parameter_base@DV?$string_output_adapter@D@__crt_stdio_output@@@__crt_stdio_output@@IAE_NXZ 10062bf0 f i libucrtd:output.obj
 0001:00061d90       ?validate_and_update_state_at_end_of_format_string@?$positional_parameter_base@_WV?$stream_output_adapter@_W@__crt_stdio_output@@@__crt_stdio_output@@IAE_NXZ 10062d90 f i libucrtd:output.obj
 0001:00061f30       ?validate_and_update_state_at_end_of_format_string@?$positional_parameter_base@_WV?$string_output_adapter@_W@__crt_stdio_output@@@__crt_stdio_output@@IAE_NXZ 10062f30 f i libucrtd:output.obj
 0001:000620d0       ?validate_and_update_state_at_end_of_format_string@?$standard_base@DV?$stream_output_adapter@D@__crt_stdio_output@@@__crt_stdio_output@@IBE_NXZ 100630d0 f i libucrtd:output.obj
 0001:000620e0       ?validate_and_update_state_at_end_of_format_string@?$standard_base@DV?$string_output_adapter@D@__crt_stdio_output@@@__crt_stdio_output@@IBE_NXZ 100630e0 f i libucrtd:output.obj
 0001:000620f0       ?validate_and_update_state_at_end_of_format_string@?$standard_base@_WV?$stream_output_adapter@_W@__crt_stdio_output@@@__crt_stdio_output@@IBE_NXZ 100630f0 f i libucrtd:output.obj
 0001:00062100       ?validate_and_update_state_at_end_of_format_string@?$standard_base@_WV?$string_output_adapter@_W@__crt_stdio_output@@@__crt_stdio_output@@IBE_NXZ 10063100 f i libucrtd:output.obj
 0001:00062110       ?validate_state_for_type_case_a@?$positional_parameter_base@DV?$stream_output_adapter@D@__crt_stdio_output@@@__crt_stdio_output@@IAE_NXZ 10063110 f i libucrtd:output.obj
 0001:00062200       ?validate_state_for_type_case_a@?$positional_parameter_base@DV?$string_output_adapter@D@__crt_stdio_output@@@__crt_stdio_output@@IAE_NXZ 10063200 f i libucrtd:output.obj
 0001:000622f0       ?validate_state_for_type_case_a@?$positional_parameter_base@_WV?$stream_output_adapter@_W@__crt_stdio_output@@@__crt_stdio_output@@IAE_NXZ 100632f0 f i libucrtd:output.obj
 0001:000623e0       ?validate_state_for_type_case_a@?$positional_parameter_base@_WV?$string_output_adapter@_W@__crt_stdio_output@@@__crt_stdio_output@@IAE_NXZ 100633e0 f i libucrtd:output.obj
 0001:000624d0       ?validate_state_for_type_case_a@?$standard_base@DV?$stream_output_adapter@D@__crt_stdio_output@@@__crt_stdio_output@@IBE_NXZ 100634d0 f i libucrtd:output.obj
 0001:000624e0       ?validate_state_for_type_case_a@?$standard_base@DV?$string_output_adapter@D@__crt_stdio_output@@@__crt_stdio_output@@IBE_NXZ 100634e0 f i libucrtd:output.obj
 0001:000624f0       ?validate_state_for_type_case_a@?$standard_base@_WV?$stream_output_adapter@_W@__crt_stdio_output@@@__crt_stdio_output@@IBE_NXZ 100634f0 f i libucrtd:output.obj
 0001:00062500       ?validate_state_for_type_case_a@?$standard_base@_WV?$string_output_adapter@_W@__crt_stdio_output@@@__crt_stdio_output@@IBE_NXZ 10063500 f i libucrtd:output.obj
 0001:00062510       ?validate_stream_is_ansi_if_required@?$__acrt_stdio_char_traits@D@@SA_NQAU_iobuf@@@Z 10063510 f i libucrtd:output.obj
 0001:00062640       ?validate_stream_is_ansi_if_required@?$__acrt_stdio_char_traits@_W@@SA_NQAU_iobuf@@@Z 10063640 f i libucrtd:output.obj
 0001:00062650       ?wide_null_string@?$output_processor@DV?$stream_output_adapter@D@__crt_stdio_output@@V?$format_validation_base@DV?$stream_output_adapter@D@__crt_stdio_output@@@2@@__crt_stdio_output@@CAPA_WXZ 10063650 f i libucrtd:output.obj
 0001:00062660       ?wide_null_string@?$output_processor@DV?$stream_output_adapter@D@__crt_stdio_output@@V?$positional_parameter_base@DV?$stream_output_adapter@D@__crt_stdio_output@@@2@@__crt_stdio_output@@CAPA_WXZ 10063660 f i libucrtd:output.obj
 0001:00062670       ?wide_null_string@?$output_processor@DV?$stream_output_adapter@D@__crt_stdio_output@@V?$standard_base@DV?$stream_output_adapter@D@__crt_stdio_output@@@2@@__crt_stdio_output@@CAPA_WXZ 10063670 f i libucrtd:output.obj
 0001:00062680       ?wide_null_string@?$output_processor@DV?$string_output_adapter@D@__crt_stdio_output@@V?$format_validation_base@DV?$string_output_adapter@D@__crt_stdio_output@@@2@@__crt_stdio_output@@CAPA_WXZ 10063680 f i libucrtd:output.obj
 0001:00062690       ?wide_null_string@?$output_processor@DV?$string_output_adapter@D@__crt_stdio_output@@V?$positional_parameter_base@DV?$string_output_adapter@D@__crt_stdio_output@@@2@@__crt_stdio_output@@CAPA_WXZ 10063690 f i libucrtd:output.obj
 0001:000626a0       ?wide_null_string@?$output_processor@DV?$string_output_adapter@D@__crt_stdio_output@@V?$standard_base@DV?$string_output_adapter@D@__crt_stdio_output@@@2@@__crt_stdio_output@@CAPA_WXZ 100636a0 f i libucrtd:output.obj
 0001:000626b0       ?wide_null_string@?$output_processor@_WV?$stream_output_adapter@_W@__crt_stdio_output@@V?$format_validation_base@_WV?$stream_output_adapter@_W@__crt_stdio_output@@@2@@__crt_stdio_output@@CAPA_WXZ 100636b0 f i libucrtd:output.obj
 0001:000626c0       ?wide_null_string@?$output_processor@_WV?$stream_output_adapter@_W@__crt_stdio_output@@V?$positional_parameter_base@_WV?$stream_output_adapter@_W@__crt_stdio_output@@@2@@__crt_stdio_output@@CAPA_WXZ 100636c0 f i libucrtd:output.obj
 0001:000626d0       ?wide_null_string@?$output_processor@_WV?$stream_output_adapter@_W@__crt_stdio_output@@V?$standard_base@_WV?$stream_output_adapter@_W@__crt_stdio_output@@@2@@__crt_stdio_output@@CAPA_WXZ 100636d0 f i libucrtd:output.obj
 0001:000626e0       ?wide_null_string@?$output_processor@_WV?$string_output_adapter@_W@__crt_stdio_output@@V?$format_validation_base@_WV?$string_output_adapter@_W@__crt_stdio_output@@@2@@__crt_stdio_output@@CAPA_WXZ 100636e0 f i libucrtd:output.obj
 0001:000626f0       ?wide_null_string@?$output_processor@_WV?$string_output_adapter@_W@__crt_stdio_output@@V?$positional_parameter_base@_WV?$string_output_adapter@_W@__crt_stdio_output@@@2@@__crt_stdio_output@@CAPA_WXZ 100636f0 f i libucrtd:output.obj
 0001:00062700       ?wide_null_string@?$output_processor@_WV?$string_output_adapter@_W@__crt_stdio_output@@V?$standard_base@_WV?$string_output_adapter@_W@__crt_stdio_output@@@2@@__crt_stdio_output@@CAPA_WXZ 10063700 f i libucrtd:output.obj
 0001:00062710       ?write_character@?$output_adapter_common@DV?$stream_output_adapter@D@__crt_stdio_output@@@__crt_stdio_output@@QBEXDQAH@Z 10063710 f i libucrtd:output.obj
 0001:00062750       ?write_character@?$output_adapter_common@_WV?$stream_output_adapter@_W@__crt_stdio_output@@@__crt_stdio_output@@QBEX_WQAH@Z 10063750 f i libucrtd:output.obj
 0001:00062790       ?write_character@?$string_output_adapter@D@__crt_stdio_output@@QBE_NDQAH@Z 10063790 f i libucrtd:output.obj
 0001:00062820       ?write_character@?$string_output_adapter@_W@__crt_stdio_output@@QBE_N_WQAH@Z 10063820 f i libucrtd:output.obj
 0001:000628c0       ?write_character_without_count_update@?$stream_output_adapter@D@__crt_stdio_output@@QBE_ND@Z 100638c0 f i libucrtd:output.obj
 0001:00062930       ?write_character_without_count_update@?$stream_output_adapter@_W@__crt_stdio_output@@QBE_N_W@Z 10063930 f i libucrtd:output.obj
 0001:000629a0       ?write_stored_string_tchar@?$output_processor@DV?$stream_output_adapter@D@__crt_stdio_output@@V?$format_validation_base@DV?$stream_output_adapter@D@__crt_stdio_output@@@2@@__crt_stdio_output@@AAE_ND@Z 100639a0 f i libucrtd:output.obj
 0001:00062ab0       ?write_stored_string_tchar@?$output_processor@DV?$stream_output_adapter@D@__crt_stdio_output@@V?$positional_parameter_base@DV?$stream_output_adapter@D@__crt_stdio_output@@@2@@__crt_stdio_output@@AAE_ND@Z 10063ab0 f i libucrtd:output.obj
 0001:00062bc0       ?write_stored_string_tchar@?$output_processor@DV?$stream_output_adapter@D@__crt_stdio_output@@V?$standard_base@DV?$stream_output_adapter@D@__crt_stdio_output@@@2@@__crt_stdio_output@@AAE_ND@Z 10063bc0 f i libucrtd:output.obj
 0001:00062cd0       ?write_stored_string_tchar@?$output_processor@DV?$string_output_adapter@D@__crt_stdio_output@@V?$format_validation_base@DV?$string_output_adapter@D@__crt_stdio_output@@@2@@__crt_stdio_output@@AAE_ND@Z 10063cd0 f i libucrtd:output.obj
 0001:00062de0       ?write_stored_string_tchar@?$output_processor@DV?$string_output_adapter@D@__crt_stdio_output@@V?$positional_parameter_base@DV?$string_output_adapter@D@__crt_stdio_output@@@2@@__crt_stdio_output@@AAE_ND@Z 10063de0 f i libucrtd:output.obj
 0001:00062ef0       ?write_stored_string_tchar@?$output_processor@DV?$string_output_adapter@D@__crt_stdio_output@@V?$standard_base@DV?$string_output_adapter@D@__crt_stdio_output@@@2@@__crt_stdio_output@@AAE_ND@Z 10063ef0 f i libucrtd:output.obj
 0001:00063000       ?write_stored_string_tchar@?$output_processor@_WV?$stream_output_adapter@_W@__crt_stdio_output@@V?$format_validation_base@_WV?$stream_output_adapter@_W@__crt_stdio_output@@@2@@__crt_stdio_output@@AAE_N_W@Z 10064000 f i libucrtd:output.obj
 0001:000630f0       ?write_stored_string_tchar@?$output_processor@_WV?$stream_output_adapter@_W@__crt_stdio_output@@V?$positional_parameter_base@_WV?$stream_output_adapter@_W@__crt_stdio_output@@@2@@__crt_stdio_output@@AAE_N_W@Z 100640f0 f i libucrtd:output.obj
 0001:000631e0       ?write_stored_string_tchar@?$output_processor@_WV?$stream_output_adapter@_W@__crt_stdio_output@@V?$standard_base@_WV?$stream_output_adapter@_W@__crt_stdio_output@@@2@@__crt_stdio_output@@AAE_N_W@Z 100641e0 f i libucrtd:output.obj
 0001:000632d0       ?write_stored_string_tchar@?$output_processor@_WV?$string_output_adapter@_W@__crt_stdio_output@@V?$format_validation_base@_WV?$string_output_adapter@_W@__crt_stdio_output@@@2@@__crt_stdio_output@@AAE_N_W@Z 100642d0 f i libucrtd:output.obj
 0001:000633c0       ?write_stored_string_tchar@?$output_processor@_WV?$string_output_adapter@_W@__crt_stdio_output@@V?$positional_parameter_base@_WV?$string_output_adapter@_W@__crt_stdio_output@@@2@@__crt_stdio_output@@AAE_N_W@Z 100643c0 f i libucrtd:output.obj
 0001:000634b0       ?write_stored_string_tchar@?$output_processor@_WV?$string_output_adapter@_W@__crt_stdio_output@@V?$standard_base@_WV?$string_output_adapter@_W@__crt_stdio_output@@@2@@__crt_stdio_output@@AAE_N_W@Z 100644b0 f i libucrtd:output.obj
 0001:000635a0       ?write_string@?$stream_output_adapter@D@__crt_stdio_output@@QBEXQBDHQAHAAV__crt_deferred_errno_cache@@@Z 100645a0 f i libucrtd:output.obj
 0001:00063600       ?write_string@?$stream_output_adapter@_W@__crt_stdio_output@@QBEXQB_WHQAHAAV__crt_deferred_errno_cache@@@Z 10064600 f i libucrtd:output.obj
 0001:00063660       ?write_string@?$string_output_adapter@D@__crt_stdio_output@@QBEXQBDHQAHAAV__crt_deferred_errno_cache@@@Z 10064660 f i libucrtd:output.obj
 0001:00063760       ?write_string@?$string_output_adapter@_W@__crt_stdio_output@@QBEXQB_WHQAHAAV__crt_deferred_errno_cache@@@Z 10064760 f i libucrtd:output.obj
 0001:00063870       ?write_string_impl@?$output_adapter_common@DV?$stream_output_adapter@D@__crt_stdio_output@@@__crt_stdio_output@@IBEXQBDHQAHAAV__crt_deferred_errno_cache@@@Z 10064870 f i libucrtd:output.obj
 0001:00063910       ?write_string_impl@?$output_adapter_common@_WV?$stream_output_adapter@_W@__crt_stdio_output@@@__crt_stdio_output@@IBEXQB_WHQAHAAV__crt_deferred_errno_cache@@@Z 10064910 f i libucrtd:output.obj
 0001:000639b0       ___acrt_isleadbyte_l_noupdate 100649b0 f i libucrtd:output.obj
 0001:000639d0       ___acrt_locale_changed     100649d0 f i libucrtd:output.obj
 0001:00063a00       ___acrt_locale_get_ctype_array_value 10064a00 f i libucrtd:output.obj
 0001:00063a30       ___stdio_common_vfprintf   10064a30 f   libucrtd:output.obj
 0001:00063a60       ___stdio_common_vfprintf_p 10064a60 f   libucrtd:output.obj
 0001:00063a90       ___stdio_common_vfprintf_s 10064a90 f   libucrtd:output.obj
 0001:00063ac0       ___stdio_common_vfwprintf  10064ac0 f   libucrtd:output.obj
 0001:00063af0       ___stdio_common_vfwprintf_p 10064af0 f   libucrtd:output.obj
 0001:00063b20       ___stdio_common_vfwprintf_s 10064b20 f   libucrtd:output.obj
 0001:00063b50       ___stdio_common_vsnprintf_s 10064b50 f   libucrtd:output.obj
 0001:00063b80       ___stdio_common_vsnwprintf_s 10064b80 f   libucrtd:output.obj
 0001:00063bb0       ___stdio_common_vsprintf   10064bb0 f   libucrtd:output.obj
 0001:00063be0       ___stdio_common_vsprintf_p 10064be0 f   libucrtd:output.obj
 0001:00063c10       ___stdio_common_vsprintf_s 10064c10 f   libucrtd:output.obj
 0001:00063c40       ___stdio_common_vswprintf  10064c40 f   libucrtd:output.obj
 0001:00063c70       ___stdio_common_vswprintf_p 10064c70 f   libucrtd:output.obj
 0001:00063ca0       ___stdio_common_vswprintf_s 10064ca0 f   libucrtd:output.obj
 0001:00063cd0       __ctype_fast_check_internal 10064cd0 f i libucrtd:output.obj
 0001:00063cf0       __isdigit_fast_internal    10064cf0 f i libucrtd:output.obj
 0001:00063d10       __tolower_fast_internal    10064d10 f i libucrtd:output.obj
 0001:00063d30       _free                      10064d30 f   libucrtd:free.obj
 0001:00063d60       _malloc                    10064d60 f   libucrtd:malloc.obj
 0001:00063d80       ??$?RU?$__crt_report_hook_node@D@@@__crt_internal_free_policy@@QBEXQBU?$__crt_report_hook_node@D@@@Z 10064d80 f i libucrtd:dbgrpt.obj
 0001:00063da0       ??$?RU?$__crt_report_hook_node@_W@@@__crt_internal_free_policy@@QBEXQBU?$__crt_report_hook_node@_W@@@Z 10064da0 f i libucrtd:dbgrpt.obj
 0001:00064b90       ??$get_module_file_name@AAPAUHINSTANCE__@@AAY0BAF@DK@?$__crt_char_traits@D@@SAKAAPAUHINSTANCE__@@AAY0BAF@D$$QAK@Z 10065b90 f i libucrtd:dbgrpt.obj
 0001:00064bb0       ??$get_module_file_name@AAPAUHINSTANCE__@@AAY0BAF@_WK@?$__crt_char_traits@_W@@SAKAAPAUHINSTANCE__@@AAY0BAF@_W$$QAK@Z 10065bb0 f i libucrtd:dbgrpt.obj
 0001:00064bd0       ??$tcscpy_s@AAY0BAF@DIPBD@?$__crt_char_traits@D@@SAHAAY0BAF@D$$QAI$$QAPBD@Z 10065bd0 f i libucrtd:dbgrpt.obj
 0001:00064bf0       ??$tcscpy_s@AAY0BAF@_WIPB_W@?$__crt_char_traits@_W@@SAHAAY0BAF@_W$$QAI$$QAPB_W@Z 10065bf0 f i libucrtd:dbgrpt.obj
 0001:00064c10       ??$tcslen@AAY0BAF@D@?$__crt_char_traits@D@@SAIAAY0BAF@D@Z 10065c10 f i libucrtd:dbgrpt.obj
 0001:00064c30       ??$tcslen@AAY0BAF@_W@?$__crt_char_traits@_W@@SAIAAY0BAF@_W@Z 10065c30 f i libucrtd:dbgrpt.obj
 0001:00064c50       ??$tcslen@ABQBD@?$__crt_char_traits@D@@SAIABQBD@Z 10065c50 f i libucrtd:dbgrpt.obj
 0001:00064c70       ??$tcslen@ABQB_W@?$__crt_char_traits@_W@@SAIABQB_W@Z 10065c70 f i libucrtd:dbgrpt.obj
 0001:00064d70       ??0?$__crt_unique_heap_ptr@U?$__crt_report_hook_node@D@@U__crt_internal_free_policy@@@@QAE@QAU?$__crt_report_hook_node@D@@@Z 10065d70 f i libucrtd:dbgrpt.obj
 0001:00064d90       ??0?$__crt_unique_heap_ptr@U?$__crt_report_hook_node@_W@@U__crt_internal_free_policy@@@@QAE@QAU?$__crt_report_hook_node@_W@@@Z 10065d90 f i libucrtd:dbgrpt.obj
 0001:00064db0       ??1?$__crt_unique_heap_ptr@U?$__crt_report_hook_node@D@@U__crt_internal_free_policy@@@@QAE@XZ 10065db0 f i libucrtd:dbgrpt.obj
 0001:00064dd0       ??1?$__crt_unique_heap_ptr@U?$__crt_report_hook_node@_W@@U__crt_internal_free_policy@@@@QAE@XZ 10065dd0 f i libucrtd:dbgrpt.obj
 0001:00064df0       ??B?$__crt_unique_heap_ptr@U?$__crt_report_hook_node@D@@U__crt_internal_free_policy@@@@QBE_NXZ 10065df0 f i libucrtd:dbgrpt.obj
 0001:00064e10       ??B?$__crt_unique_heap_ptr@U?$__crt_report_hook_node@_W@@U__crt_internal_free_policy@@@@QBE_NXZ 10065e10 f i libucrtd:dbgrpt.obj
 0001:00065350       ?detach@?$__crt_unique_heap_ptr@U?$__crt_report_hook_node@D@@U__crt_internal_free_policy@@@@QAEPAU?$__crt_report_hook_node@D@@XZ 10066350 f i libucrtd:dbgrpt.obj
 0001:00065380       ?detach@?$__crt_unique_heap_ptr@U?$__crt_report_hook_node@_W@@U__crt_internal_free_policy@@@@QAEPAU?$__crt_report_hook_node@_W@@XZ 10066380 f i libucrtd:dbgrpt.obj
 0001:000653b0       ?get@?$__crt_unique_heap_ptr@U?$__crt_report_hook_node@D@@U__crt_internal_free_policy@@@@QBEPAU?$__crt_report_hook_node@D@@XZ 100663b0 f i libucrtd:dbgrpt.obj
 0001:000653d0       ?get@?$__crt_unique_heap_ptr@U?$__crt_report_hook_node@_W@@U__crt_internal_free_policy@@@@QBEPAU?$__crt_report_hook_node@_W@@XZ 100663d0 f i libucrtd:dbgrpt.obj
 0001:00065450       ?is_valid@?$__crt_unique_heap_ptr@U?$__crt_report_hook_node@D@@U__crt_internal_free_policy@@@@QBE_NXZ 10066450 f i libucrtd:dbgrpt.obj
 0001:00065480       ?is_valid@?$__crt_unique_heap_ptr@U?$__crt_report_hook_node@_W@@U__crt_internal_free_policy@@@@QBE_NXZ 10066480 f i libucrtd:dbgrpt.obj
 0001:000654b0       ?release@?$__crt_unique_heap_ptr@U?$__crt_report_hook_node@D@@U__crt_internal_free_policy@@@@QAEXXZ 100664b0 f i libucrtd:dbgrpt.obj
 0001:000654e0       ?release@?$__crt_unique_heap_ptr@U?$__crt_report_hook_node@_W@@U__crt_internal_free_policy@@@@QAEXXZ 100664e0 f i libucrtd:dbgrpt.obj
 0001:00065510       __CrtDbgReport             10066510 f   libucrtd:dbgrpt.obj
 0001:00065560       __CrtDbgReportW            10066560 f   libucrtd:dbgrpt.obj
 0001:000655b0       __CrtSetReportHook2        100665b0 f   libucrtd:dbgrpt.obj
 0001:000655d0       __CrtSetReportHookW2       100665d0 f   libucrtd:dbgrpt.obj
 0001:000655f0       ___acrt_MessageWindowA     100665f0 f   libucrtd:dbgrpt.obj
 0001:00065620       ___acrt_MessageWindowW     10066620 f   libucrtd:dbgrpt.obj
 0001:00065650       __invoke_watson_if_error   10066650 f i libucrtd:dbgrpt.obj
 0001:00065680       __invoke_watson_if_oneof   10066680 f i libucrtd:dbgrpt.obj
 0001:000656c0       __snwprintf_s              100666c0 f i libucrtd:dbgrpt.obj
 0001:00065700       __vsnwprintf_s_l           10066700 f i libucrtd:dbgrpt.obj
 0001:00065a80       _wcscpy_s                  10066a80 f   libucrtd:wcscpy_s.obj
 0001:000667a0       ??1?$__crt_simd_cleanup_guard@$00@@QAE@XZ 100677a0 f i libucrtd:strnlen.obj
 0001:000667b0       ??1?$__crt_simd_cleanup_guard@$0A@@@QAE@XZ 100677b0 f i libucrtd:strnlen.obj
 0001:000667c0       ?compare_equals@?$__crt_simd_traits@$00E@@SA?AT__m256i@@T2@0@Z 100677c0 f i libucrtd:strnlen.obj
 0001:00066800       ?compare_equals@?$__crt_simd_traits@$00G@@SA?AT__m256i@@T2@0@Z 10067800 f i libucrtd:strnlen.obj
 0001:00066840       ?compare_equals@?$__crt_simd_traits@$0A@E@@SA?AT__m128i@@T2@0@Z 10067840 f i libucrtd:strnlen.obj
 0001:00066880       ?compare_equals@?$__crt_simd_traits@$0A@G@@SA?AT__m128i@@T2@0@Z 10067880 f i libucrtd:strnlen.obj
 0001:000668c0       ?compute_byte_mask@?$__crt_simd_pack_traits@$00@@SAHT__m256i@@@Z 100678c0 f i libucrtd:strnlen.obj
 0001:000668f0       ?compute_byte_mask@?$__crt_simd_pack_traits@$0A@@@SAHT__m128i@@@Z 100678f0 f i libucrtd:strnlen.obj
 0001:00066920       ?get_zero_pack@?$__crt_simd_pack_traits@$00@@SA?AT__m256i@@XZ 10067920 f i libucrtd:strnlen.obj
 0001:00066950       ?get_zero_pack@?$__crt_simd_pack_traits@$0A@@@SA?AT__m128i@@XZ 10067950 f i libucrtd:strnlen.obj
 0001:00066980       _strnlen                   10067980 f   libucrtd:strnlen.obj
 0001:000669a0       _wcslen                    100679a0 f   libucrtd:strnlen.obj
 0001:000669c0       _wcsnlen                   100679c0 f   libucrtd:strnlen.obj
 0001:000669e0       ??$__crt_fast_decode_pointer@P6AXPB_W00II@Z@@YAP6AXPB_W00II@ZQ6AX000II@Z@Z 100679e0 f i libucrtd:invalid_parameter.obj
 0001:00066a10       ??$__crt_fast_encode_pointer@P6AXPB_W00II@Z@@YAP6AXPB_W00II@ZQ6AX000II@Z@Z 10067a10 f i libucrtd:invalid_parameter.obj
 0001:00066a40       ??$initialize_from_array@$$BY00Q6AXPB_W00II@Z@?$dual_state_global@P6AXPB_W00II@Z@__crt_state_management@@QAAXAAY00Q6AXPB_W00II@Z@Z 10067a40 f i libucrtd:invalid_parameter.obj
 0001:00066a90       ?__crt_rotate_pointer_value@@YAIIH@Z 10067a90 f i libucrtd:invalid_parameter.obj
 0001:00066aa0       ?dangerous_get_state_array@?$dual_state_global@P6AXPB_W00II@Z@__crt_state_management@@QAEPAP6AXPB_W00II@ZXZ 10067aa0 f i libucrtd:invalid_parameter.obj
 0001:00066ab0       ?get_current_state_index@__crt_state_management@@YAIXZ 10067ab0 f i libucrtd:invalid_parameter.obj
 0001:00066ac0       ?value@?$dual_state_global@P6AXPB_W00II@Z@__crt_state_management@@QAEAAP6AXPB_W00II@ZXZ 10067ac0 f i libucrtd:invalid_parameter.obj
 0001:00066ae0       ___acrt_call_reportfault   10067ae0 f   libucrtd:invalid_parameter.obj
 0001:00066c40       ___acrt_initialize_invalid_parameter_handler 10067c40 f   libucrtd:invalid_parameter.obj
 0001:00066c70       __get_invalid_parameter_handler 10067c70 f   libucrtd:invalid_parameter.obj
 0001:00066c90       __get_thread_local_invalid_parameter_handler 10067c90 f   libucrtd:invalid_parameter.obj
 0001:00066cc0       __invalid_parameter        10067cc0 f   libucrtd:invalid_parameter.obj
 0001:00066d80       __invalid_parameter_noinfo 10067d80 f   libucrtd:invalid_parameter.obj
 0001:00066da0       __invalid_parameter_noinfo_noreturn 10067da0 f   libucrtd:invalid_parameter.obj
 0001:00066dd0       __invoke_watson            10067dd0 f   libucrtd:invalid_parameter.obj
 0001:00066e10       __set_invalid_parameter_handler 10067e10 f   libucrtd:invalid_parameter.obj
 0001:00066e60       __set_thread_local_invalid_parameter_handler 10067e60 f   libucrtd:invalid_parameter.obj
 0001:00066e90       ___acrt_errno_from_os_error 10067e90 f   libucrtd:errno.obj
 0001:00066f10       ___acrt_errno_map_os_error 10067f10 f   libucrtd:errno.obj
 0001:00066f40       ___doserrno                10067f40 f   libucrtd:errno.obj
 0001:00066f70       __errno                    10067f70 f   libucrtd:errno.obj
 0001:00066fa0       __get_doserrno             10067fa0 f   libucrtd:errno.obj
 0001:00067030       __get_errno                10068030 f   libucrtd:errno.obj
 0001:000670c0       __set_doserrno             100680c0 f   libucrtd:errno.obj
 0001:000670f0       __set_errno                100680f0 f   libucrtd:errno.obj
 0001:00067120       _calloc                    10068120 f   libucrtd:calloc.obj
 0001:00067140       __recalloc                 10068140 f   libucrtd:recalloc.obj
 0001:00067170       __recalloc_base            10068170 f   libucrtd:recalloc.obj
 0001:0006720a       __resetstkoflw             1006820a f   libucrtd:resetstk.obj
 0001:000676f0       _wcscat_s                  100686f0 f   libucrtd:wcscat_s.obj
 0001:00067b40       _wcsncpy_s                 10068b40 f   libucrtd:wcsncpy_s.obj
 0001:00067b80       ___acrt_get_locale_data_prefix 10068b80 f i libucrtd:_ctype.obj
 0001:00067ba0       ___isascii                 10068ba0 f i libucrtd:_ctype.obj
 0001:00067bd0       ___iscsym                  10068bd0 f i libucrtd:_ctype.obj
 0001:00067c10       ___iscsymf                 10068c10 f i libucrtd:_ctype.obj
 0001:00067c50       ___toascii                 10068c50 f i libucrtd:_ctype.obj
 0001:00067c60       __chvalidchk_l             10068c60 f i libucrtd:_ctype.obj
 0001:00067c80       __isalnum_l                10068c80 f i libucrtd:_ctype.obj
 0001:00067cc0       __isalpha_l                10068cc0 f i libucrtd:_ctype.obj
 0001:00067d00       __isblank_l                10068d00 f i libucrtd:_ctype.obj
 0001:00067d60       __ischartype_l             10068d60 f i libucrtd:_ctype.obj
 0001:00067de0       __iscntrl_l                10068de0 f i libucrtd:_ctype.obj
 0001:00067e20       __iscsym_l                 10068e20 f i libucrtd:_ctype.obj
 0001:00067e60       __iscsymf_l                10068e60 f i libucrtd:_ctype.obj
 0001:00067ea0       __isdigit_l                10068ea0 f i libucrtd:_ctype.obj
 0001:00067ee0       __isgraph_l                10068ee0 f i libucrtd:_ctype.obj
 0001:00067f20       __islower_l                10068f20 f i libucrtd:_ctype.obj
 0001:00067f60       __isprint_l                10068f60 f i libucrtd:_ctype.obj
 0001:00067fa0       __ispunct_l                10068fa0 f i libucrtd:_ctype.obj
 0001:00067fe0       __isspace_l                10068fe0 f i libucrtd:_ctype.obj
 0001:00068020       __isupper_l                10069020 f i libucrtd:_ctype.obj
 0001:00068060       __isxdigit_l               10069060 f i libucrtd:_ctype.obj
 0001:000680a0       _isalnum                   100690a0 f i libucrtd:_ctype.obj
 0001:000680e0       _isalpha                   100690e0 f i libucrtd:_ctype.obj
 0001:00068120       _isblank                   10069120 f i libucrtd:_ctype.obj
 0001:00068180       _iscntrl                   10069180 f i libucrtd:_ctype.obj
 0001:000681c0       _isdigit                   100691c0 f i libucrtd:_ctype.obj
 0001:00068200       _isgraph                   10069200 f i libucrtd:_ctype.obj
 0001:00068240       _islower                   10069240 f i libucrtd:_ctype.obj
 0001:00068280       _isprint                   10069280 f i libucrtd:_ctype.obj
 0001:000682c0       _ispunct                   100692c0 f i libucrtd:_ctype.obj
 0001:00068300       _isspace                   10069300 f i libucrtd:_ctype.obj
 0001:00068340       _isupper                   10069340 f i libucrtd:_ctype.obj
 0001:00068380       _isxdigit                  10069380 f i libucrtd:_ctype.obj
 0001:000683c0       _wcscat                    100693c0 f   libucrtd:wcscat.obj
 0001:00068420       _wcscpy                    10069420 f   libucrtd:wcscpy.obj
 0001:00068ab0       ??$open_file@ABQBDABQBDABHPAU_iobuf@@@?$__crt_char_traits@D@@SAPAU_iobuf@@ABQBD0ABH$$QAPAU1@@Z 10069ab0 f i libucrtd:fopen.obj
 0001:00068ae0       ??$open_file@ABQB_WABQB_WABHPAU_iobuf@@@?$__crt_char_traits@_W@@SAPAU_iobuf@@ABQB_W0ABH$$QAPAU1@@Z 10069ae0 f i libucrtd:fopen.obj
 0001:00068b10       ?unlock@__crt_stdio_stream@@QBEXXZ 10069b10 f i libucrtd:fopen.obj
 0001:00068b30       __fsopen                   10069b30 f   libucrtd:fopen.obj
 0001:00068b50       __wfopen                   10069b50 f   libucrtd:fopen.obj
 0001:00068b70       __wfopen_s                 10069b70 f   libucrtd:fopen.obj
 0001:00068b90       __wfsopen                  10069b90 f   libucrtd:fopen.obj
 0001:00068bb0       _fopen                     10069bb0 f   libucrtd:fopen.obj
 0001:00068bd0       _fopen_s                   10069bd0 f   libucrtd:fopen.obj
 0001:00068bf0       ?is_in_use@__crt_stdio_stream@@QBE_NXZ 10069bf0 f i libucrtd:fclose.obj
 0001:00068c30       __fclose_nolock            10069c30 f   libucrtd:fclose.obj
 0001:00068d70       _fclose                    10069d70 f   libucrtd:fclose.obj
 0001:00068ec0       __fputc_nolock             10069ec0 f   libucrtd:fputc.obj
 0001:00068f50       __fputchar                 10069f50 f   libucrtd:fputc.obj
 0001:00068f70       __putc_nolock              10069f70 f   libucrtd:fputc.obj
 0001:00068f90       _fputc                     10069f90 f   libucrtd:fputc.obj
 0001:000691d0       _putc                      1006a1d0 f   libucrtd:fputc.obj
 0001:000691f0       _putchar                   1006a1f0 f   libucrtd:fputc.obj
 0001:00069260       __seh_filter_dll           1006a260 f   libucrtd:exception_filter.obj
 0001:00069290       __seh_filter_exe           1006a290 f   libucrtd:exception_filter.obj
 0001:000694a0       ??$?B$$A6GXPAXK0@Z@__crt_fast_encoded_nullptr_t@@QBEP6GXPAXK0@ZXZ 1006a4a0 f i libucrtd:exit.obj
 0001:00069580       ??$__crt_fast_decode_pointer@P6GXPAXK0@Z@@YAP6GXPAXK0@ZQ6GX0K0@Z@Z 1006a580 f i libucrtd:exit.obj
 0001:000695b0       ??$__crt_fast_encode_pointer@P6GXPAXK0@Z@@YAP6GXPAXK0@ZQ6GX0K0@Z@Z 1006a5b0 f i libucrtd:exit.obj
 0001:000695e0       ??$__crt_get_proc_address@P6GXI@Z@@YAP6GXI@ZQAUHINSTANCE__@@QBD@Z 1006a5e0 f i libucrtd:exit.obj
 0001:00069670       ??0?$__crt_unique_handle_t@U__crt_hmodule_traits@@@@QAE@QAUHINSTANCE__@@@Z 1006a670 f i libucrtd:exit.obj
 0001:00069690       ??1?$__crt_unique_handle_t@U__crt_hmodule_traits@@@@QAE@XZ 1006a690 f i libucrtd:exit.obj
 0001:00069850       ?__acrt_select_exit_lock@@YA?AW4__acrt_lock_id@@XZ 1006a850 f i libucrtd:exit.obj
 0001:00069860       ?__crt_fast_encode_pointer@@YA?AU__crt_fast_encoded_nullptr_t@@$$T@Z 1006a860 f i libucrtd:exit.obj
 0001:00069890       ?close@?$__crt_unique_handle_t@U__crt_hmodule_traits@@@@QAEXXZ 1006a890 f i libucrtd:exit.obj
 0001:000698d0       ?close@__crt_hmodule_traits@@SA_NPAUHINSTANCE__@@@Z 1006a8d0 f i libucrtd:exit.obj
 0001:000699c0       ?get@?$__crt_unique_handle_t@U__crt_hmodule_traits@@@@QBEPAUHINSTANCE__@@XZ 1006a9c0 f i libucrtd:exit.obj
 0001:000699e0       ?get_address_of@?$__crt_unique_handle_t@U__crt_hmodule_traits@@@@QAEPAPAUHINSTANCE__@@XZ 1006a9e0 f i libucrtd:exit.obj
 0001:000699f0       ?get_invalid_value@__crt_hmodule_traits@@SAPAUHINSTANCE__@@XZ 1006a9f0 f i libucrtd:exit.obj
 0001:00069b70       __Exit                     1006ab70 f   libucrtd:exit.obj
 0001:00069b90       ___acrt_initialize_thread_local_exit_callback 1006ab90 f   libucrtd:exit.obj
 0001:00069ba0       __c_exit                   1006aba0 f   libucrtd:exit.obj
 0001:00069bc0       __cexit                    1006abc0 f   libucrtd:exit.obj
 0001:00069be0       __exit                     1006abe0 f   libucrtd:exit.obj
 0001:00069c00       __is_c_termination_complete 1006ac00 f   libucrtd:exit.obj
 0001:00069c20       __register_thread_local_exe_atexit_callback 1006ac20 f   libucrtd:exit.obj
 0001:00069c60       _exit                      1006ac60 f   libucrtd:exit.obj
 0001:00069c80       _quick_exit                1006ac80 f   libucrtd:exit.obj
 0001:00069ca0       ??$?RE@__crt_internal_free_policy@@QBEXQBE@Z 1006aca0 f i libucrtd:argv_parsing.obj
 0001:00069cc0       ??$?RPAD@__crt_internal_free_policy@@QBEXQBQAD@Z 1006acc0 f i libucrtd:argv_parsing.obj
 0001:00069ce0       ??$?RPA_W@__crt_internal_free_policy@@QBEXQBQA_W@Z 1006ace0 f i libucrtd:argv_parsing.obj
 0001:0006a240       ??$get_module_file_name@$$TAAY0BAF@DH@?$__crt_char_traits@D@@SAK$$QA$$TAAY0BAF@D$$QAH@Z 1006b240 f i libucrtd:argv_parsing.obj
 0001:0006a260       ??$get_module_file_name@$$TAAY0BAF@_WH@?$__crt_char_traits@_W@@SAK$$QA$$TAAY0BAF@_W$$QAH@Z 1006b260 f i libucrtd:argv_parsing.obj
 0001:0006a980       ??$set_program_name@PAD@?$__crt_char_traits@D@@SAX$$QAPAD@Z 1006b980 f i libucrtd:argv_parsing.obj
 0001:0006a9a0       ??$set_program_name@PA_W@?$__crt_char_traits@_W@@SAX$$QAPA_W@Z 1006b9a0 f i libucrtd:argv_parsing.obj
 0001:0006aa00       ??0?$__crt_unique_heap_ptr@EU__crt_internal_free_policy@@@@QAE@QAE@Z 1006ba00 f i libucrtd:argv_parsing.obj
 0001:0006aa20       ??0?$__crt_unique_heap_ptr@PADU__crt_internal_free_policy@@@@QAE@QAPAD@Z 1006ba20 f i libucrtd:argv_parsing.obj
 0001:0006aa40       ??0?$__crt_unique_heap_ptr@PA_WU__crt_internal_free_policy@@@@QAE@QAPA_W@Z 1006ba40 f i libucrtd:argv_parsing.obj
 0001:0006aa60       ??1?$__crt_unique_heap_ptr@EU__crt_internal_free_policy@@@@QAE@XZ 1006ba60 f i libucrtd:argv_parsing.obj
 0001:0006aa80       ??1?$__crt_unique_heap_ptr@PADU__crt_internal_free_policy@@@@QAE@XZ 1006ba80 f i libucrtd:argv_parsing.obj
 0001:0006aaa0       ??1?$__crt_unique_heap_ptr@PA_WU__crt_internal_free_policy@@@@QAE@XZ 1006baa0 f i libucrtd:argv_parsing.obj
 0001:0006aac0       ??B?$__crt_unique_heap_ptr@EU__crt_internal_free_policy@@@@QBE_NXZ 1006bac0 f i libucrtd:argv_parsing.obj
 0001:0006ab80       ?detach@?$__crt_unique_heap_ptr@EU__crt_internal_free_policy@@@@QAEPAEXZ 1006bb80 f i libucrtd:argv_parsing.obj
 0001:0006abb0       ?detach@?$__crt_unique_heap_ptr@PADU__crt_internal_free_policy@@@@QAEPAPADXZ 1006bbb0 f i libucrtd:argv_parsing.obj
 0001:0006abe0       ?detach@?$__crt_unique_heap_ptr@PA_WU__crt_internal_free_policy@@@@QAEPAPA_WXZ 1006bbe0 f i libucrtd:argv_parsing.obj
 0001:0006ac70       ?get@?$__crt_unique_heap_ptr@EU__crt_internal_free_policy@@@@QBEPAEXZ 1006bc70 f i libucrtd:argv_parsing.obj
 0001:0006ac90       ?get@?$__crt_unique_heap_ptr@PADU__crt_internal_free_policy@@@@QBEPAPADXZ 1006bc90 f i libucrtd:argv_parsing.obj
 0001:0006acb0       ?get@?$__crt_unique_heap_ptr@PA_WU__crt_internal_free_policy@@@@QBEPAPA_WXZ 1006bcb0 f i libucrtd:argv_parsing.obj
 0001:0006acd0       ?get_address_of@?$__crt_unique_heap_ptr@PADU__crt_internal_free_policy@@@@QAEPAPAPADXZ 1006bcd0 f i libucrtd:argv_parsing.obj
 0001:0006ace0       ?get_address_of@?$__crt_unique_heap_ptr@PA_WU__crt_internal_free_policy@@@@QAEPAPAPA_WXZ 1006bce0 f i libucrtd:argv_parsing.obj
 0001:0006ad30       ?is_valid@?$__crt_unique_heap_ptr@EU__crt_internal_free_policy@@@@QBE_NXZ 1006bd30 f i libucrtd:argv_parsing.obj
 0001:0006ad60       ?release@?$__crt_unique_heap_ptr@EU__crt_internal_free_policy@@@@QAEXXZ 1006bd60 f i libucrtd:argv_parsing.obj
 0001:0006ad90       ?release@?$__crt_unique_heap_ptr@PADU__crt_internal_free_policy@@@@QAEXXZ 1006bd90 f i libucrtd:argv_parsing.obj
 0001:0006adc0       ?release@?$__crt_unique_heap_ptr@PA_WU__crt_internal_free_policy@@@@QAEXXZ 1006bdc0 f i libucrtd:argv_parsing.obj
 0001:0006ae30       ___acrt_allocate_buffer_for_argv 1006be30 f   libucrtd:argv_parsing.obj
 0001:0006aef0       __configure_narrow_argv    1006bef0 f   libucrtd:argv_parsing.obj
 0001:0006af10       __configure_wide_argv      1006bf10 f   libucrtd:argv_parsing.obj
 0001:0006af30       __set_pgmptr               1006bf30 f i libucrtd:argv_parsing.obj
 0001:0006af40       __set_wpgmptr              1006bf40 f i libucrtd:argv_parsing.obj
 0001:0006af4f       ??$?R_W@__crt_internal_free_policy@@QBEXQB_W@Z 1006bf4f f i libucrtd:environment_initialization.obj
 0001:0006b3b8       ??$get_environment_from_os@$$V@?$__crt_char_traits@D@@SAPADXZ 1006c3b8 f i libucrtd:environment_initialization.obj
 0001:0006b3bd       ??$get_environment_from_os@$$V@?$__crt_char_traits@_W@@SAPA_WXZ 1006c3bd f i libucrtd:environment_initialization.obj
 0001:0006b4e6       ??$set_variable_in_environment_nolock@PADH@?$__crt_char_traits@D@@SAH$$QAPAD$$QAH@Z 1006c4e6 f i libucrtd:environment_initialization.obj
 0001:0006b4fe       ??$set_variable_in_environment_nolock@PA_WH@?$__crt_char_traits@_W@@SAH$$QAPA_W$$QAH@Z 1006c4fe f i libucrtd:environment_initialization.obj
 0001:0006b516       ??$tcscpy_s@PADABIAAPAD@?$__crt_char_traits@D@@SAH$$QAPADABIAAPAD@Z 1006c516 f i libucrtd:environment_initialization.obj
 0001:0006b534       ??$tcscpy_s@PA_WABIAAPA_W@?$__crt_char_traits@_W@@SAH$$QAPA_WABIAAPA_W@Z 1006c534 f i libucrtd:environment_initialization.obj
 0001:0006b552       ??$tcslen@AAPAD@?$__crt_char_traits@D@@SAIAAPAD@Z 1006c552 f i libucrtd:environment_initialization.obj
 0001:0006b56a       ??$tcslen@AAPA_W@?$__crt_char_traits@_W@@SAIAAPA_W@Z 1006c56a f i libucrtd:environment_initialization.obj
 0001:0006b588       ??$uninitialize@A6AXAAPAPAD@Z@?$dual_state_global@PAPAD@__crt_state_management@@QAEXA6AXAAPAPAD@Z@Z 1006c588 f i libucrtd:environment_initialization.obj
 0001:0006b5b1       ??$uninitialize@A6AXAAPAPA_W@Z@?$dual_state_global@PAPA_W@__crt_state_management@@QAEXA6AXAAPAPA_W@Z@Z 1006c5b1 f i libucrtd:environment_initialization.obj
 0001:0006b610       ??0?$__crt_unique_heap_ptr@_WU__crt_internal_free_policy@@@@QAE@QA_W@Z 1006c610 f i libucrtd:environment_initialization.obj
 0001:0006b620       ??1?$__crt_unique_heap_ptr@_WU__crt_internal_free_policy@@@@QAE@XZ 1006c620 f i libucrtd:environment_initialization.obj
 0001:0006b635       ??B?$__crt_unique_heap_ptr@PADU__crt_internal_free_policy@@@@QBE_NXZ 1006c635 f i libucrtd:environment_initialization.obj
 0001:0006b63c       ??B?$__crt_unique_heap_ptr@PA_WU__crt_internal_free_policy@@@@QBE_NXZ 1006c63c f i libucrtd:environment_initialization.obj
 0001:0006b643       ??B?$__crt_unique_heap_ptr@_WU__crt_internal_free_policy@@@@QBE_NXZ 1006c643 f i libucrtd:environment_initialization.obj
 0001:0006b64a       ?__crt_compute_required_transform_buffer_count@@YAIIQBD@Z 1006c64a f i libucrtd:environment_initialization.obj
 0001:0006b666       ?__crt_compute_required_transform_buffer_count@@YAIIQB_W@Z 1006c666 f i libucrtd:environment_initialization.obj
 0001:0006b684       ?__crt_transform_string@@YAIIQBDQA_WI@Z 1006c684 f i libucrtd:environment_initialization.obj
 0001:0006b6a3       ?__crt_transform_string@@YAIIQB_WQADI@Z 1006c6a3 f i libucrtd:environment_initialization.obj
 0001:0006b6c5       ?detach@?$__crt_unique_heap_ptr@DU__crt_internal_free_policy@@@@QAEPADXZ 1006c6c5 f i libucrtd:environment_initialization.obj
 0001:0006b6cb       ?detach@?$__crt_unique_heap_ptr@_WU__crt_internal_free_policy@@@@QAEPA_WXZ 1006c6cb f i libucrtd:environment_initialization.obj
 0001:0006b6d1       ?get@?$__crt_unique_heap_ptr@_WU__crt_internal_free_policy@@@@QBEPA_WXZ 1006c6d1 f i libucrtd:environment_initialization.obj
 0001:0006b6f8       ?initialize@?$dual_state_global@PAPAD@__crt_state_management@@QAEXQAPAD@Z 1006c6f8 f i libucrtd:environment_initialization.obj
 0001:0006b71e       ?initialize@?$dual_state_global@PAPA_W@__crt_state_management@@QAEXQAPA_W@Z 1006c71e f i libucrtd:environment_initialization.obj
 0001:0006b744       ?is_valid@?$__crt_unique_heap_ptr@PADU__crt_internal_free_policy@@@@QBE_NXZ 1006c744 f i libucrtd:environment_initialization.obj
 0001:0006b74b       ?is_valid@?$__crt_unique_heap_ptr@PA_WU__crt_internal_free_policy@@@@QBE_NXZ 1006c74b f i libucrtd:environment_initialization.obj
 0001:0006b752       ?is_valid@?$__crt_unique_heap_ptr@_WU__crt_internal_free_policy@@@@QBE_NXZ 1006c752 f i libucrtd:environment_initialization.obj
 0001:0006b761       ?release@?$__crt_unique_heap_ptr@_WU__crt_internal_free_policy@@@@QAEXXZ 1006c761 f i libucrtd:environment_initialization.obj
 0001:0006b776       ?value@?$dual_state_global@PAPAD@__crt_state_management@@QAEAAPAPADXZ 1006c776 f i libucrtd:environment_initialization.obj
 0001:0006b779       ?value@?$dual_state_global@PAPA_W@__crt_state_management@@QAEAAPAPA_WXZ 1006c779 f i libucrtd:environment_initialization.obj
 0001:0006b77c       ___dcrt_get_or_create_narrow_environment_nolock 1006c77c f   libucrtd:environment_initialization.obj
 0001:0006b781       ___dcrt_get_or_create_wide_environment_nolock 1006c781 f   libucrtd:environment_initialization.obj
 0001:0006b786       ___dcrt_uninitialize_environments_nolock 1006c786 f   libucrtd:environment_initialization.obj
 0001:0006b7bd       ___p__environ              1006c7bd f   libucrtd:environment_initialization.obj
 0001:0006b7c3       ___p__wenviron             1006c7c3 f   libucrtd:environment_initialization.obj
 0001:0006b7c9       __get_initial_narrow_environment 1006c7c9 f   libucrtd:environment_initialization.obj
 0001:0006b7dd       __get_initial_wide_environment 1006c7dd f   libucrtd:environment_initialization.obj
 0001:0006b7f1       __initialize_narrow_environment 1006c7f1 f   libucrtd:environment_initialization.obj
 0001:0006b7f6       __initialize_wide_environment 1006c7f6 f   libucrtd:environment_initialization.obj
 0001:0006b800       ??$?B$$A6AXXZ@__crt_fast_encoded_nullptr_t@@QBEP6AXXZXZ 1006c800 f i libucrtd:onexit.obj
 0001:0006b820       ??$?BP6AXXZ@__crt_fast_encoded_nullptr_t@@QBEPAP6AXXZXZ 1006c820 f i libucrtd:onexit.obj
 0001:0006b840       ??$?RP6AXXZ@__crt_internal_free_policy@@QBEXQBQ6AXXZ@Z 1006c840 f i libucrtd:onexit.obj
 0001:0006ba00       ??$__crt_fast_decode_pointer@P6AXXZ@@YAP6AXXZQ6AXXZ@Z 1006ca00 f i libucrtd:onexit.obj
 0001:0006ba30       ??$__crt_fast_decode_pointer@PAP6AXXZ@@YAPAP6AXXZQAP6AXXZ@Z 1006ca30 f i libucrtd:onexit.obj
 0001:0006ba60       ??$__crt_fast_encode_pointer@P6AHXZ@@YAP6AHXZQ6AHXZ@Z 1006ca60 f i libucrtd:onexit.obj
 0001:0006ba90       ??$__crt_fast_encode_pointer@P6AXXZ@@YAP6AXXZQ6AXXZ@Z 1006ca90 f i libucrtd:onexit.obj
 0001:0006bac0       ??$__crt_fast_encode_pointer@PAP6AXXZ@@YAPAP6AXXZQAP6AXXZ@Z 1006cac0 f i libucrtd:onexit.obj
 0001:0006bbc0       ??0?$__crt_unique_heap_ptr@P6AXXZU__crt_internal_free_policy@@@@QAE@QAP6AXXZ@Z 1006cbc0 f i libucrtd:onexit.obj
 0001:0006bbe0       ??1?$__crt_unique_heap_ptr@P6AXXZU__crt_internal_free_policy@@@@QAE@XZ 1006cbe0 f i libucrtd:onexit.obj
 0001:0006bc00       ??1scoped_global_state_reset@__crt_state_management@@QAE@XZ 1006cc00 f i libucrtd:onexit.obj
 0001:0006c070       ?detach@?$__crt_unique_heap_ptr@P6AXXZU__crt_internal_free_policy@@@@QAEPAP6AXXZXZ 1006d070 f i libucrtd:onexit.obj
 0001:0006c0a0       ?release@?$__crt_unique_heap_ptr@P6AXXZU__crt_internal_free_policy@@@@QAEXXZ 1006d0a0 f i libucrtd:onexit.obj
 0001:0006c0d0       __crt_at_quick_exit        1006d0d0 f   libucrtd:onexit.obj
 0001:0006c0f0       __crt_atexit               1006d0f0 f   libucrtd:onexit.obj
 0001:0006c110       __execute_onexit_table     1006d110 f   libucrtd:onexit.obj
 0001:0006c140       __initialize_onexit_table  1006d140 f   libucrtd:onexit.obj
 0001:0006c1a0       __register_onexit_function 1006d1a0 f   libucrtd:onexit.obj
 0001:0006c3e0       ??$?BX@__crt_fast_encoded_nullptr_t@@QBEPAXXZ 1006d3e0 f i libucrtd:initialization.obj
 0001:0006c400       ??$__crt_fast_encode_pointer@PAX@@YAPAXQAX@Z 1006d400 f i libucrtd:initialization.obj
 0001:0006c4c0       ?initialize@?$dual_state_global@PAU__crt_locale_data@@@__crt_state_management@@QAEXQAU__crt_locale_data@@@Z 1006d4c0 f i libucrtd:initialization.obj
 0001:0006c500       ___acrt_initialize         1006d500 f   libucrtd:initialization.obj
 0001:0006c520       ___acrt_thread_attach      1006d520 f   libucrtd:initialization.obj
 0001:0006c540       ___acrt_thread_detach      1006d540 f   libucrtd:initialization.obj
 0001:0006c550       ___acrt_uninitialize       1006d550 f   libucrtd:initialization.obj
 0001:0006c570       ___acrt_uninitialize_critical 1006d570 f   libucrtd:initialization.obj
 0001:0006dde0       __CrtCheckMemory           1006ede0 f   libucrtd:debug_heap.obj
 0001:0006df70       __CrtDoForAllClientObjects 1006ef70 f   libucrtd:debug_heap.obj
 0001:0006e0c0       __CrtDumpMemoryLeaks       1006f0c0 f   libucrtd:debug_heap.obj
 0001:0006e160       __CrtGetAllocHook          1006f160 f   libucrtd:debug_heap.obj
 0001:0006e170       __CrtGetDumpClient         1006f170 f   libucrtd:debug_heap.obj
 0001:0006e180       __CrtIsMemoryBlock         1006f180 f   libucrtd:debug_heap.obj
 0001:0006e2d0       __CrtIsValidHeapPointer    1006f2d0 f   libucrtd:debug_heap.obj
 0001:0006e300       __CrtIsValidPointer        1006f300 f   libucrtd:debug_heap.obj
 0001:0006e330       __CrtMemCheckpoint         1006f330 f   libucrtd:debug_heap.obj
 0001:0006e560       __CrtMemDifference         1006f560 f   libucrtd:debug_heap.obj
 0001:0006e7d0       __CrtMemDumpAllObjectsSince 1006f7d0 f   libucrtd:debug_heap.obj
 0001:0006e870       __CrtMemDumpStatistics     1006f870 f   libucrtd:debug_heap.obj
 0001:0006e9a0       __CrtReportBlockType       1006f9a0 f   libucrtd:debug_heap.obj
 0001:0006e9d0       __CrtSetAllocHook          1006f9d0 f   libucrtd:debug_heap.obj
 0001:0006e9f0       __CrtSetBreakAlloc         1006f9f0 f   libucrtd:debug_heap.obj
 0001:0006ea10       __CrtSetDbgBlockType       1006fa10 f   libucrtd:debug_heap.obj
 0001:0006eaf0       __CrtSetDbgFlag            1006faf0 f   libucrtd:debug_heap.obj
 0001:0006ec60       __CrtSetDumpClient         1006fc60 f   libucrtd:debug_heap.obj
 0001:0006ec80       ___p__crtBreakAlloc        1006fc80 f   libucrtd:debug_heap.obj
 0001:0006ec90       ___p__crtDbgFlag           1006fc90 f   libucrtd:debug_heap.obj
 0001:0006eca0       __aligned_free_dbg         1006fca0 f   libucrtd:debug_heap.obj
 0001:0006ed50       __aligned_malloc_dbg       1006fd50 f   libucrtd:debug_heap.obj
 0001:0006ed80       __aligned_msize_dbg        1006fd80 f   libucrtd:debug_heap.obj
 0001:0006eeb0       __aligned_offset_malloc_dbg 1006feb0 f   libucrtd:debug_heap.obj
 0001:0006f090       __aligned_offset_realloc_dbg 10070090 f   libucrtd:debug_heap.obj
 0001:0006f3a0       __aligned_offset_recalloc_dbg 100703a0 f   libucrtd:debug_heap.obj
 0001:0006f460       __aligned_realloc_dbg      10070460 f   libucrtd:debug_heap.obj
 0001:0006f490       __aligned_recalloc_dbg     10070490 f   libucrtd:debug_heap.obj
 0001:0006f4c0       __calloc_dbg               100704c0 f   libucrtd:debug_heap.obj
 0001:0006f530       __expand_dbg               10070530 f   libucrtd:debug_heap.obj
 0001:0006f660       __free_dbg                 10070660 f   libucrtd:debug_heap.obj
 0001:0006f710       __malloc_dbg               10070710 f   libucrtd:debug_heap.obj
 0001:0006f730       __msize_dbg                10070730 f   libucrtd:debug_heap.obj
 0001:0006f8c0       __realloc_dbg              100708c0 f   libucrtd:debug_heap.obj
 0001:0006f960       __recalloc_dbg             10070960 f   libucrtd:debug_heap.obj
 0001:0006fa10       __initterm                 10070a10 f   libucrtd:initterm.obj
 0001:0006fa60       __initterm_e               10070a60 f   libucrtd:initterm.obj
 0001:0006fdd0       _strcpy_s                  10070dd0 f   libucrtd:strcpy_s.obj
 0001:00070200       _strcat_s                  10071200 f   libucrtd:strcat_s.obj
 0001:00070220       ??$?B$$A6AHI@Z@__crt_fast_encoded_nullptr_t@@QBEP6AHI@ZXZ 10071220 f i libucrtd:new_handler.obj
 0001:00070240       ??$__crt_fast_decode_pointer@P6AHI@Z@@YAP6AHI@ZQ6AHI@Z@Z 10071240 f i libucrtd:new_handler.obj
 0001:00070270       ??$__crt_fast_encode_pointer@P6AHI@Z@@YAP6AHI@ZQ6AHI@Z@Z 10071270 f i libucrtd:new_handler.obj
 0001:000702a0       ?_set_new_handler@@YAP6AHI@ZH@Z 100712a0 f   libucrtd:new_handler.obj
 0001:00070300       ?initialize@?$dual_state_global@P6AHI@Z@__crt_state_management@@QAEXQ6AHI@Z@Z 10071300 f i libucrtd:new_handler.obj
 0001:00070340       ?value@?$dual_state_global@P6AHI@Z@__crt_state_management@@QAEAAP6AHI@ZXZ 10071340 f i libucrtd:new_handler.obj
 0001:00070360       ___acrt_initialize_new_handler 10071360 f   libucrtd:new_handler.obj
 0001:00070380       __callnewh                 10071380 f   libucrtd:new_handler.obj
 0001:000703c0       __query_new_handler        100713c0 f   libucrtd:new_handler.obj
 0001:00070450       __set_new_handler          10071450 f   libucrtd:new_handler.obj
 0001:00070530       __get_terminate            10071530 f   libucrtd:terminate.obj
 0001:00070550       _set_terminate             10071550 f   libucrtd:terminate.obj
 0001:00070580       _terminate                 10071580 f   libucrtd:terminate.obj
 0001:00070f50       __makepath                 10071f50 f   libucrtd:makepath.obj
 0001:00070f80       __makepath_s               10071f80 f   libucrtd:makepath.obj
 0001:00070fb0       __wmakepath                10071fb0 f   libucrtd:makepath.obj
 0001:00070fe0       __wmakepath_s              10071fe0 f   libucrtd:makepath.obj
 0001:00072930       ??$tcsncpy_s@AAPADIAAPBDABI@?$__crt_char_traits@D@@SAHAAPAD$$QAIAAPBDABI@Z 10073930 f i libucrtd:splitpath.obj
 0001:00072960       ??$tcsncpy_s@AAPADIAAPBDH@?$__crt_char_traits@D@@SAHAAPAD$$QAIAAPBD$$QAH@Z 10073960 f i libucrtd:splitpath.obj
 0001:00072990       ??$tcsncpy_s@AAPA_WIAAPB_WABI@?$__crt_char_traits@_W@@SAHAAPA_W$$QAIAAPB_WABI@Z 10073990 f i libucrtd:splitpath.obj
 0001:000729c0       ??$tcsncpy_s@AAPA_WIAAPB_WH@?$__crt_char_traits@_W@@SAHAAPA_W$$QAIAAPB_W$$QAH@Z 100739c0 f i libucrtd:splitpath.obj
 0001:00072c00       __splitpath                10073c00 f   libucrtd:splitpath.obj
 0001:00072c30       __splitpath_s              10073c30 f   libucrtd:splitpath.obj
 0001:00072c80       __wsplitpath               10073c80 f   libucrtd:splitpath.obj
 0001:00072cb0       __wsplitpath_s             10073cb0 f   libucrtd:splitpath.obj
 0001:00072d00       __set_abort_behavior       10073d00 f   libucrtd:abort.obj
 0001:00072d30       _abort                     10073d30 f   libucrtd:abort.obj
 0001:00072da0       _strcmp                    10073da0 f   libucrtd:strcmp.obj
 0001:00072e30       _strlen                    10073e30 f   libucrtd:strlen.obj
 0001:00072ec0       ??$is_overflow_condition@K@__crt_strtox@@YA_NIK@Z 10073ec0 f i libucrtd:atox.obj
 0001:00072f20       ??$is_overflow_condition@_K@__crt_strtox@@YA_NI_K@Z 10073f20 f i libucrtd:atox.obj
 0001:00072fb0       ??$make_c_string_character_source@D$$T@__crt_strtox@@YA?AV?$c_string_character_source@D@0@QBD$$T@Z 10073fb0 f i libucrtd:atox.obj
 0001:00072fd0       ??$make_c_string_character_source@_W$$T@__crt_strtox@@YA?AV?$c_string_character_source@_W@0@QB_W$$T@Z 10073fd0 f i libucrtd:atox.obj
 0001:00072ff0       ??$parse_integer@KV?$c_string_character_source@D@__crt_strtox@@@__crt_strtox@@YAKQAU__crt_locale_pointers@@V?$c_string_character_source@D@0@H_N@Z 10073ff0 f i libucrtd:atox.obj
 0001:00073360       ??$parse_integer@KV?$c_string_character_source@_W@__crt_strtox@@@__crt_strtox@@YAKQAU__crt_locale_pointers@@V?$c_string_character_source@_W@0@H_N@Z 10074360 f i libucrtd:atox.obj
 0001:000736d0       ??$parse_integer@_KV?$c_string_character_source@D@__crt_strtox@@@__crt_strtox@@YA_KQAU__crt_locale_pointers@@V?$c_string_character_source@D@0@H_N@Z 100746d0 f i libucrtd:atox.obj
 0001:00073af0       ??$parse_integer@_KV?$c_string_character_source@_W@__crt_strtox@@@__crt_strtox@@YA_KQAU__crt_locale_pointers@@V?$c_string_character_source@_W@0@H_N@Z 10074af0 f i libucrtd:atox.obj
 0001:00073f20       ??$parse_integer_from_string@JD$$T@__crt_strtox@@YAJQBD$$THQAU__crt_locale_pointers@@@Z 10074f20 f i libucrtd:atox.obj
 0001:00073f60       ??$parse_integer_from_string@J_W$$T@__crt_strtox@@YAJQB_W$$THQAU__crt_locale_pointers@@@Z 10074f60 f i libucrtd:atox.obj
 0001:00073fa0       ??$parse_integer_from_string@_JD$$T@__crt_strtox@@YA_JQBD$$THQAU__crt_locale_pointers@@@Z 10074fa0 f i libucrtd:atox.obj
 0001:00073fe0       ??$parse_integer_from_string@_J_W$$T@__crt_strtox@@YA_JQB_W$$THQAU__crt_locale_pointers@@@Z 10074fe0 f i libucrtd:atox.obj
 0001:00074020       ??0?$c_string_character_source@D@__crt_strtox@@QAE@QBDQAPBD@Z 10075020 f i libucrtd:atox.obj
 0001:00074060       ??0?$c_string_character_source@_W@__crt_strtox@@QAE@QB_WQAPB_W@Z 10075060 f i libucrtd:atox.obj
 0001:000740a0       ??1?$c_string_character_source@D@__crt_strtox@@QAE@XZ 100750a0 f i libucrtd:atox.obj
 0001:000740d0       ??1?$c_string_character_source@_W@__crt_strtox@@QAE@XZ 100750d0 f i libucrtd:atox.obj
 0001:00074100       ?get@?$c_string_character_source@D@__crt_strtox@@QAEDXZ 10075100 f i libucrtd:atox.obj
 0001:00074130       ?get@?$c_string_character_source@_W@__crt_strtox@@QAE_WXZ 10075130 f i libucrtd:atox.obj
 0001:00074160       ?is_space@__crt_strtox@@YA_NDQAU__crt_locale_pointers@@@Z 10075160 f i libucrtd:atox.obj
 0001:000741a0       ?is_space@__crt_strtox@@YA_N_WPAU__crt_locale_pointers@@@Z 100751a0 f i libucrtd:atox.obj
 0001:000741d0       ?maximum_signed_value@__crt_strtox@@YAJK@Z 100751d0 f i libucrtd:atox.obj
 0001:000741e0       ?maximum_signed_value@__crt_strtox@@YA_J_K@Z 100751e0 f i libucrtd:atox.obj
 0001:000741f0       ?minimum_signed_value@__crt_strtox@@YAJK@Z 100751f0 f i libucrtd:atox.obj
 0001:00074200       ?minimum_signed_value@__crt_strtox@@YA_J_K@Z 10075200 f i libucrtd:atox.obj
 0001:00074210       ?parse_digit@__crt_strtox@@YAID@Z 10075210 f i libucrtd:atox.obj
 0001:00074270       ?parse_digit@__crt_strtox@@YAI_W@Z 10075270 f i libucrtd:atox.obj
 0001:000742c0       ?restore_state@?$c_string_character_source@D@__crt_strtox@@QAE_NQBD@Z 100752c0 f i libucrtd:atox.obj
 0001:000742e0       ?restore_state@?$c_string_character_source@_W@__crt_strtox@@QAE_NQB_W@Z 100752e0 f i libucrtd:atox.obj
 0001:00074300       ?save_state@?$c_string_character_source@D@__crt_strtox@@QBEPBDXZ 10075300 f i libucrtd:atox.obj
 0001:00074320       ?save_state@?$c_string_character_source@_W@__crt_strtox@@QBEPB_WXZ 10075320 f i libucrtd:atox.obj
 0001:00074340       ?unget@?$c_string_character_source@D@__crt_strtox@@QAEXD@Z 10075340 f i libucrtd:atox.obj
 0001:000743f0       ?unget@?$c_string_character_source@_W@__crt_strtox@@QAEX_W@Z 100753f0 f i libucrtd:atox.obj
 0001:000744a0       ?validate@?$c_string_character_source@D@__crt_strtox@@QBE_NXZ 100754a0 f i libucrtd:atox.obj
 0001:00074530       ?validate@?$c_string_character_source@_W@__crt_strtox@@QBE_NXZ 10075530 f i libucrtd:atox.obj
 0001:000745c0       ?wide_character_to_digit@__crt_strtox@@YAH_W@Z 100755c0 f i libucrtd:atox.obj
 0001:000748f0       ___ascii_iswalpha          100758f0 f i libucrtd:atox.obj
 0001:00074930       ___ascii_toupper           10075930 f i libucrtd:atox.obj
 0001:00074950       ___ascii_towupper          10075950 f i libucrtd:atox.obj
 0001:00074970       __atoi64                   10075970 f   libucrtd:atox.obj
 0001:00074990       __atoi64_l                 10075990 f   libucrtd:atox.obj
 0001:000749b0       __atoi_l                   100759b0 f   libucrtd:atox.obj
 0001:000749d0       __atol_l                   100759d0 f   libucrtd:atox.obj
 0001:000749f0       __atoll_l                  100759f0 f   libucrtd:atox.obj
 0001:00074a10       __wtoi                     10075a10 f   libucrtd:atox.obj
 0001:00074a30       __wtoi64                   10075a30 f   libucrtd:atox.obj
 0001:00074a50       __wtoi64_l                 10075a50 f   libucrtd:atox.obj
 0001:00074a70       __wtoi_l                   10075a70 f   libucrtd:atox.obj
 0001:00074a90       __wtol                     10075a90 f   libucrtd:atox.obj
 0001:00074ab0       __wtol_l                   10075ab0 f   libucrtd:atox.obj
 0001:00074ad0       __wtoll                    10075ad0 f   libucrtd:atox.obj
 0001:00074af0       __wtoll_l                  10075af0 f   libucrtd:atox.obj
 0001:00074b10       _atoi                      10075b10 f   libucrtd:atox.obj
 0001:00074b30       _atol                      10075b30 f   libucrtd:atox.obj
 0001:00074b50       _atoll                     10075b50 f   libucrtd:atox.obj
 0001:00074b70       _strncmp                   10075b70 f   libucrtd:strncmp.obj
 0001:00074bf0       _wcsncmp                   10075bf0 f   libucrtd:wcsncmp.obj
 0001:00074c50       __CrtGetDebugFillThreshold 10075c50 f   libucrtd:debug_fill_threshold.obj
 0001:00074c60       __CrtSetDebugFillThreshold 10075c60 f   libucrtd:debug_fill_threshold.obj
 0001:00074c80       ??$make_c_string_character_source@DPAPAD@__crt_strtox@@YA?AV?$c_string_character_source@D@0@QBDQAPAD@Z 10075c80 f i libucrtd:strtox.obj
 0001:00074ca0       ??$make_c_string_character_source@_WPAPA_W@__crt_strtox@@YA?AV?$c_string_character_source@_W@0@QB_WQAPA_W@Z 10075ca0 f i libucrtd:strtox.obj
 0001:00074cc0       ??$parse_integer_from_string@JDPAPAD@__crt_strtox@@YAJQBDQAPADHQAU__crt_locale_pointers@@@Z 10075cc0 f i libucrtd:strtox.obj
 0001:00074d00       ??$parse_integer_from_string@J_WPAPA_W@__crt_strtox@@YAJQB_WQAPA_WHQAU__crt_locale_pointers@@@Z 10075d00 f i libucrtd:strtox.obj
 0001:00074d40       ??$parse_integer_from_string@KDPAPAD@__crt_strtox@@YAKQBDQAPADHQAU__crt_locale_pointers@@@Z 10075d40 f i libucrtd:strtox.obj
 0001:00074d80       ??$parse_integer_from_string@K_WPAPA_W@__crt_strtox@@YAKQB_WQAPA_WHQAU__crt_locale_pointers@@@Z 10075d80 f i libucrtd:strtox.obj
 0001:00074dc0       ??$parse_integer_from_string@_JDPAPAD@__crt_strtox@@YA_JQBDQAPADHQAU__crt_locale_pointers@@@Z 10075dc0 f i libucrtd:strtox.obj
 0001:00074e00       ??$parse_integer_from_string@_J_WPAPA_W@__crt_strtox@@YA_JQB_WQAPA_WHQAU__crt_locale_pointers@@@Z 10075e00 f i libucrtd:strtox.obj
 0001:00074e40       ??$parse_integer_from_string@_KDPAPAD@__crt_strtox@@YA_KQBDQAPADHQAU__crt_locale_pointers@@@Z 10075e40 f i libucrtd:strtox.obj
 0001:00074e80       ??$parse_integer_from_string@_K_WPAPA_W@__crt_strtox@@YA_KQB_WQAPA_WHQAU__crt_locale_pointers@@@Z 10075e80 f i libucrtd:strtox.obj
 0001:00074ec0       __strtoi64                 10075ec0 f   libucrtd:strtox.obj
 0001:00074ee0       __strtoi64_l               10075ee0 f   libucrtd:strtox.obj
 0001:00074f00       __strtoimax_l              10075f00 f   libucrtd:strtox.obj
 0001:00074f20       __strtol_l                 10075f20 f   libucrtd:strtox.obj
 0001:00074f40       __strtoll_l                10075f40 f   libucrtd:strtox.obj
 0001:00074f60       __strtoui64                10075f60 f   libucrtd:strtox.obj
 0001:00074f80       __strtoui64_l              10075f80 f   libucrtd:strtox.obj
 0001:00074fa0       __strtoul_l                10075fa0 f   libucrtd:strtox.obj
 0001:00074fc0       __strtoull_l               10075fc0 f   libucrtd:strtox.obj
 0001:00074fe0       __strtoumax_l              10075fe0 f   libucrtd:strtox.obj
 0001:00075000       __wcstoi64                 10076000 f   libucrtd:strtox.obj
 0001:00075020       __wcstoi64_l               10076020 f   libucrtd:strtox.obj
 0001:00075040       __wcstoimax_l              10076040 f   libucrtd:strtox.obj
 0001:00075060       __wcstol_l                 10076060 f   libucrtd:strtox.obj
 0001:00075080       __wcstoll_l                10076080 f   libucrtd:strtox.obj
 0001:000750a0       __wcstoui64                100760a0 f   libucrtd:strtox.obj
 0001:000750c0       __wcstoui64_l              100760c0 f   libucrtd:strtox.obj
 0001:000750e0       __wcstoul_l                100760e0 f   libucrtd:strtox.obj
 0001:00075100       __wcstoull_l               10076100 f   libucrtd:strtox.obj
 0001:00075120       __wcstoumax_l              10076120 f   libucrtd:strtox.obj
 0001:00075140       _strtoimax                 10076140 f   libucrtd:strtox.obj
 0001:00075160       _strtol                    10076160 f   libucrtd:strtox.obj
 0001:00075180       _strtoll                   10076180 f   libucrtd:strtox.obj
 0001:000751a0       _strtoul                   100761a0 f   libucrtd:strtox.obj
 0001:000751c0       _strtoull                  100761c0 f   libucrtd:strtox.obj
 0001:000751e0       _strtoumax                 100761e0 f   libucrtd:strtox.obj
 0001:00075200       _wcstoimax                 10076200 f   libucrtd:strtox.obj
 0001:00075220       _wcstol                    10076220 f   libucrtd:strtox.obj
 0001:00075240       _wcstoll                   10076240 f   libucrtd:strtox.obj
 0001:00075260       _wcstoul                   10076260 f   libucrtd:strtox.obj
 0001:00075280       _wcstoull                  10076280 f   libucrtd:strtox.obj
 0001:000752a0       _wcstoumax                 100762a0 f   libucrtd:strtox.obj
 0001:000752c0       __mbtowc_l                 100762c0 f   libucrtd:mbtowc.obj
 0001:000755e0       _mbtowc                    100765e0 f   libucrtd:mbtowc.obj
 0001:00075600       __wctomb_l                 10076600 f   libucrtd:wctomb.obj
 0001:00075680       __wctomb_s_l               10076680 f   libucrtd:wctomb.obj
 0001:00075a40       _wctomb                    10076a40 f   libucrtd:wctomb.obj
 0001:00075a90       _wctomb_s                  10076a90 f   libucrtd:wctomb.obj
 0001:00075ac0       ??$?RU__acrt_ptd@@@__crt_internal_free_policy@@QBEXQBU__acrt_ptd@@@Z 10076ac0 f i libucrtd:per_thread_data.obj
 0001:00075f70       ??0?$__crt_unique_heap_ptr@U__acrt_ptd@@U__crt_internal_free_policy@@@@QAE@QAU__acrt_ptd@@@Z 10076f70 f i libucrtd:per_thread_data.obj
 0001:00075f90       ??0__crt_scoped_get_last_error_reset@@QAE@XZ 10076f90 f i libucrtd:per_thread_data.obj
 0001:00075fb0       ??1?$__crt_unique_heap_ptr@U__acrt_ptd@@U__crt_internal_free_policy@@@@QAE@XZ 10076fb0 f i libucrtd:per_thread_data.obj
 0001:00075fd0       ??1__crt_scoped_get_last_error_reset@@QAE@XZ 10076fd0 f i libucrtd:per_thread_data.obj
 0001:00075ff0       ??B?$__crt_unique_heap_ptr@U__acrt_ptd@@U__crt_internal_free_policy@@@@QBE_NXZ 10076ff0 f i libucrtd:per_thread_data.obj
 0001:000762d0       ?dangerous_get_state_array@?$dual_state_global@PAU__crt_locale_data@@@__crt_state_management@@QAEPAPAU__crt_locale_data@@XZ 100772d0 f i libucrtd:per_thread_data.obj
 0001:00076450       ?detach@?$__crt_unique_heap_ptr@U__acrt_ptd@@U__crt_internal_free_policy@@@@QAEPAU__acrt_ptd@@XZ 10077450 f i libucrtd:per_thread_data.obj
 0001:00076480       ?get@?$__crt_unique_heap_ptr@U__acrt_ptd@@U__crt_internal_free_policy@@@@QBEPAU__acrt_ptd@@XZ 10077480 f i libucrtd:per_thread_data.obj
 0001:000764a0       ?get_current_state_index@__crt_state_management@@YAIABV__crt_scoped_get_last_error_reset@@@Z 100774a0 f i libucrtd:per_thread_data.obj
 0001:00076610       ?is_valid@?$__crt_unique_heap_ptr@U__acrt_ptd@@U__crt_internal_free_policy@@@@QBE_NXZ 10077610 f i libucrtd:per_thread_data.obj
 0001:00076640       ?release@?$__crt_unique_heap_ptr@U__acrt_ptd@@U__crt_internal_free_policy@@@@QAEXXZ 10077640 f i libucrtd:per_thread_data.obj
 0001:00076730       ?value@?$dual_state_global@PAU__crt_locale_data@@@__crt_state_management@@QAEAAPAU__crt_locale_data@@XZ 10077730 f i libucrtd:per_thread_data.obj
 0001:00076750       ___acrt_freeptd            10077750 f   libucrtd:per_thread_data.obj
 0001:00076780       ___acrt_getptd             10077780 f   libucrtd:per_thread_data.obj
 0001:000767a0       ___acrt_getptd_head        100777a0 f   libucrtd:per_thread_data.obj
 0001:000767c0       ___acrt_getptd_noexit      100777c0 f   libucrtd:per_thread_data.obj
 0001:000767d0       ___acrt_initialize_ptd     100777d0 f   libucrtd:per_thread_data.obj
 0001:00076810       ___acrt_uninitialize_ptd   10077810 f   libucrtd:per_thread_data.obj
 0001:00076840       ___threadhandle            10077840 f   libucrtd:per_thread_data.obj
 0001:00076850       ___threadid                10077850 f   libucrtd:per_thread_data.obj
 0001:00076860       ?value@?$dual_state_global@PAU__crt_multibyte_data@@@__crt_state_management@@QAEAAPAU__crt_multibyte_data@@XZ 10077860 f i libucrtd:locale_update.obj
 0001:00076880       ___acrt_update_locale_info 10077880 f   libucrtd:locale_update.obj
 0001:000768c0       ___acrt_update_multibyte_info 100778c0 f   libucrtd:locale_update.obj
 0001:00076900       ?__acrt_fp_classify@@YA?AW4__acrt_fp_class@@ABN@Z 10077900 f i libucrtd:cvt.obj
 0001:00076a20       ?__acrt_fp_is_negative@@YA_NABN@Z 10077a20 f i libucrtd:cvt.obj
 0001:00077a70       ?strrchr@@YAPADQADH@Z      10078a70 f i libucrtd:cvt.obj
 0001:00077a90       ___acrt_fp_format          10078a90 f   libucrtd:cvt.obj
 0001:00077f20       __fputwc_nolock            10078f20 f   libucrtd:fputwc.obj
 0001:00078110       __fputwchar                10079110 f   libucrtd:fputwc.obj
 0001:00078130       __putwc_nolock             10079130 f   libucrtd:fputwc.obj
 0001:00078150       _fputwc                    10079150 f   libucrtd:fputwc.obj
 0001:00078260       _putwc                     10079260 f   libucrtd:fputwc.obj
 0001:00078280       _putwchar                  10079280 f   libucrtd:fputwc.obj
 0001:000782a0       ?lowio_handle@__crt_stdio_stream@@QBEHXZ 100792a0 f i libucrtd:fileno.obj
 0001:000782c0       __fileno                   100792c0 f   libucrtd:fileno.obj
 0001:00078360       ??$?RPAU__crt_stdio_stream_data@@@__crt_internal_free_policy@@QBEXQBQAU__crt_stdio_stream_data@@@Z 10079360 f i libucrtd:_file.obj
 0001:00078380       ??0?$__crt_unique_heap_ptr@PAU__crt_stdio_stream_data@@U__crt_internal_free_policy@@@@QAE@QAPAU__crt_stdio_stream_data@@@Z 10079380 f i libucrtd:_file.obj
 0001:000783a0       ??1?$__crt_unique_heap_ptr@PAU__crt_stdio_stream_data@@U__crt_internal_free_policy@@@@QAE@XZ 100793a0 f i libucrtd:_file.obj
 0001:000783c0       ?detach@?$__crt_unique_heap_ptr@PAU__crt_stdio_stream_data@@U__crt_internal_free_policy@@@@QAEPAPAU__crt_stdio_stream_data@@XZ 100793c0 f i libucrtd:_file.obj
 0001:000783f0       ?release@?$__crt_unique_heap_ptr@PAU__crt_stdio_stream_data@@U__crt_internal_free_policy@@@@QAEXXZ 100793f0 f i libucrtd:_file.obj
 0001:00078420       ___acrt_initialize_stdio   10079420 f   libucrtd:_file.obj
 0001:00078590       ___acrt_iob_func           10079590 f   libucrtd:_file.obj
 0001:000785a0       ___acrt_uninitialize_stdio 100795a0 f   libucrtd:_file.obj
 0001:00078620       __get_stream_buffer_pointers 10079620 f   libucrtd:_file.obj
 0001:00078700       __lock_file                10079700 f   libucrtd:_file.obj
 0001:00078730       __unlock_file              10079730 f   libucrtd:_file.obj
 0001:00078760       __get_printf_count_output  10079760 f   libucrtd:printf_count_output.obj
 0001:00078790       __set_printf_count_output  10079790 f   libucrtd:printf_count_output.obj
 0001:000787f0       ?has_any_buffer@__crt_stdio_stream@@QBE_NXZ 100797f0 f i libucrtd:_sftbuf.obj
 0001:00078810       ?has_any_of@__crt_stdio_stream@@QBE_NJ@Z 10079810 f i libucrtd:_sftbuf.obj
 0001:00078850       ?has_temporary_buffer@__crt_stdio_stream@@QBE_NXZ 10079850 f i libucrtd:_sftbuf.obj
 0001:00078870       ?set_flags@__crt_stdio_stream@@QBE_NJ@Z 10079870 f i libucrtd:_sftbuf.obj
 0001:000788c0       ?unset_flags@__crt_stdio_stream@@QBE_NJ@Z 100798c0 f i libucrtd:_sftbuf.obj
 0001:00078910       ___acrt_stdio_begin_temporary_buffering_nolock 10079910 f   libucrtd:_sftbuf.obj
 0001:00078ad0       ___acrt_stdio_end_temporary_buffering_nolock 10079ad0 f   libucrtd:_sftbuf.obj
 0001:00078b60       ??$?RU__crt_locale_data@@@__crt_internal_free_policy@@QBEXQBU__crt_locale_data@@@Z 10079b60 f i libucrtd:wsetlocale.obj
 0001:00078b80       ??$?RU__crt_locale_pointers@@@__crt_internal_free_policy@@QBEXQBU__crt_locale_pointers@@@Z 10079b80 f i libucrtd:wsetlocale.obj
 0001:00078ba0       ??$?RU__crt_multibyte_data@@@__crt_internal_free_policy@@QBEXQBU__crt_multibyte_data@@@Z 10079ba0 f i libucrtd:wsetlocale.obj
 0001:00079190       ??0?$__crt_unique_heap_ptr@U__crt_locale_data@@U__crt_internal_free_policy@@@@QAE@QAU__crt_locale_data@@@Z 1007a190 f i libucrtd:wsetlocale.obj
 0001:000791b0       ??0?$__crt_unique_heap_ptr@U__crt_locale_pointers@@U__crt_internal_free_policy@@@@QAE@QAU__crt_locale_pointers@@@Z 1007a1b0 f i libucrtd:wsetlocale.obj
 0001:000791d0       ??0?$__crt_unique_heap_ptr@U__crt_multibyte_data@@U__crt_internal_free_policy@@@@QAE@QAU__crt_multibyte_data@@@Z 1007a1d0 f i libucrtd:wsetlocale.obj
 0001:000791f0       ??0_expandlocale_locale_name_cache@@QAE@QA_WIQAU__crt_qualified_locale_data@@@Z 1007a1f0 f i libucrtd:wsetlocale.obj
 0001:00079260       ??1?$__crt_unique_heap_ptr@U__crt_locale_data@@U__crt_internal_free_policy@@@@QAE@XZ 1007a260 f i libucrtd:wsetlocale.obj
 0001:00079280       ??1?$__crt_unique_heap_ptr@U__crt_locale_pointers@@U__crt_internal_free_policy@@@@QAE@XZ 1007a280 f i libucrtd:wsetlocale.obj
 0001:000792a0       ??1?$__crt_unique_heap_ptr@U__crt_multibyte_data@@U__crt_internal_free_policy@@@@QAE@XZ 1007a2a0 f i libucrtd:wsetlocale.obj
 0001:000792c0       ??1_expandlocale_locale_name_cache@@QAE@XZ 1007a2c0 f i libucrtd:wsetlocale.obj
 0001:00079320       ??B?$__crt_unique_heap_ptr@U__crt_locale_data@@U__crt_internal_free_policy@@@@QBE_NXZ 1007a320 f i libucrtd:wsetlocale.obj
 0001:00079340       ??B?$__crt_unique_heap_ptr@U__crt_locale_pointers@@U__crt_internal_free_policy@@@@QBE_NXZ 1007a340 f i libucrtd:wsetlocale.obj
 0001:00079360       ??B?$__crt_unique_heap_ptr@U__crt_multibyte_data@@U__crt_internal_free_policy@@@@QBE_NXZ 1007a360 f i libucrtd:wsetlocale.obj
 0001:00079750       ?commit_locale_name@_expandlocale_locale_name_cache@@QAEXQB_WI@Z 1007a750 f i libucrtd:wsetlocale.obj
 0001:000797b0       ?commit_locale_name_cache_already_updated@_expandlocale_locale_name_cache@@QAEXQB_WI@Z 1007a7b0 f i libucrtd:wsetlocale.obj
 0001:00079810       ?detach@?$__crt_unique_heap_ptr@U__crt_locale_data@@U__crt_internal_free_policy@@@@QAEPAU__crt_locale_data@@XZ 1007a810 f i libucrtd:wsetlocale.obj
 0001:00079840       ?detach@?$__crt_unique_heap_ptr@U__crt_locale_pointers@@U__crt_internal_free_policy@@@@QAEPAU__crt_locale_pointers@@XZ 1007a840 f i libucrtd:wsetlocale.obj
 0001:00079870       ?detach@?$__crt_unique_heap_ptr@U__crt_multibyte_data@@U__crt_internal_free_policy@@@@QAEPAU__crt_multibyte_data@@XZ 1007a870 f i libucrtd:wsetlocale.obj
 0001:000798a0       ?get@?$__crt_unique_heap_ptr@U__crt_locale_data@@U__crt_internal_free_policy@@@@QBEPAU__crt_locale_data@@XZ 1007a8a0 f i libucrtd:wsetlocale.obj
 0001:000798c0       ?get@?$__crt_unique_heap_ptr@U__crt_locale_pointers@@U__crt_internal_free_policy@@@@QBEPAU__crt_locale_pointers@@XZ 1007a8c0 f i libucrtd:wsetlocale.obj
 0001:000798e0       ?get@?$__crt_unique_heap_ptr@U__crt_multibyte_data@@U__crt_internal_free_policy@@@@QBEPAU__crt_multibyte_data@@XZ 1007a8e0 f i libucrtd:wsetlocale.obj
 0001:00079900       ?is_valid@?$__crt_unique_heap_ptr@U__crt_locale_data@@U__crt_internal_free_policy@@@@QBE_NXZ 1007a900 f i libucrtd:wsetlocale.obj
 0001:00079930       ?is_valid@?$__crt_unique_heap_ptr@U__crt_locale_pointers@@U__crt_internal_free_policy@@@@QBE_NXZ 1007a930 f i libucrtd:wsetlocale.obj
 0001:00079960       ?is_valid@?$__crt_unique_heap_ptr@U__crt_multibyte_data@@U__crt_internal_free_policy@@@@QBE_NXZ 1007a960 f i libucrtd:wsetlocale.obj
 0001:00079990       ?release@?$__crt_unique_heap_ptr@U__crt_locale_data@@U__crt_internal_free_policy@@@@QAEXXZ 1007a990 f i libucrtd:wsetlocale.obj
 0001:000799c0       ?release@?$__crt_unique_heap_ptr@U__crt_locale_pointers@@U__crt_internal_free_policy@@@@QAEXXZ 1007a9c0 f i libucrtd:wsetlocale.obj
 0001:000799f0       ?release@?$__crt_unique_heap_ptr@U__crt_multibyte_data@@U__crt_internal_free_policy@@@@QAEXXZ 1007a9f0 f i libucrtd:wsetlocale.obj
 0001:00079a20       ___acrt_copy_locale_name   1007aa20 f   libucrtd:wsetlocale.obj
 0001:00079ac0       ___acrt_set_locale_changed 1007aac0 f   libucrtd:wsetlocale.obj
 0001:00079ae0       ___acrt_uninitialize_locale 1007aae0 f   libucrtd:wsetlocale.obj
 0001:00079b00       ___ascii_tolower           1007ab00 f i libucrtd:wsetlocale.obj
 0001:00079b20       ___ascii_towlower          1007ab20 f i libucrtd:wsetlocale.obj
 0001:00079b40       ___lc_lctowcs              1007ab40 f   libucrtd:wsetlocale.obj
 0001:00079bf0       ___lc_wcstolc              1007abf0 f   libucrtd:wsetlocale.obj
 0001:00079e20       __configthreadlocale       1007ae20 f   libucrtd:wsetlocale.obj
 0001:00079fa0       __create_locale            1007afa0 f   libucrtd:wsetlocale.obj
 0001:0007a5e0       __free_locale              1007b5e0 f   libucrtd:wsetlocale.obj
 0001:0007a710       __get_current_locale       1007b710 f   libucrtd:wsetlocale.obj
 0001:0007a7e0       __wcreate_locale           1007b7e0 f   libucrtd:wsetlocale.obj
 0001:0007aa20       __wcscats                  1007ba20 f   libucrtd:wsetlocale.obj
 0001:0007aaa0       __wsetlocale               1007baa0 f   libucrtd:wsetlocale.obj
 0001:0007c1a0       ___p___mb_cur_max          1007d1a0 f   libucrtd:nlsdata.obj
 0001:0007c4a0       ___acrt_initialize_lowio   1007d4a0 f   libucrtd:ioinit.obj
 0001:0007c540       ___acrt_uninitialize_lowio 1007d540 f   libucrtd:ioinit.obj
 0001:0007c5a0       __CrtGetReportHook         1007d5a0 f   libucrtd:dbgrptt.obj
 0001:0007c5b0       __CrtSetReportFile         1007d5b0 f   libucrtd:dbgrptt.obj
 0001:0007c6b0       __CrtSetReportHook         1007d6b0 f   libucrtd:dbgrptt.obj
 0001:0007c6d0       __CrtSetReportMode         1007d6d0 f   libucrtd:dbgrptt.obj
 0001:0007c810       __VCrtDbgReportA           1007d810 f   libucrtd:dbgrptt.obj
 0001:0007d090       __VCrtDbgReportW           1007e090 f   libucrtd:dbgrptt.obj
 0001:0007da40       __snprintf_s               1007ea40 f i libucrtd:dbgrptt.obj
 0001:0007da80       __vsnprintf_s              1007ea80 f i libucrtd:dbgrptt.obj
 0001:0007dab0       __vsnprintf_s_l            1007eab0 f i libucrtd:dbgrptt.obj
 0001:0007dc40       ??$__acrt_wcs_to_mbs_cp@U__crt_win32_buffer_no_resizing@@@@YAHQB_WAAV?$__crt_win32_buffer@DU__crt_win32_buffer_no_resizing@@@@I@Z 1007ec40 f i libucrtd:getmodulefilenamea.obj
 0001:0007dc70       ??0?$__crt_win32_buffer@DU__crt_win32_buffer_no_resizing@@@@QAE@QADI@Z 1007ec70 f i libucrtd:getmodulefilenamea.obj
 0001:0007dcc0       ??1?$__crt_win32_buffer@DU__crt_win32_buffer_no_resizing@@@@QAE@XZ 1007ecc0 f i libucrtd:getmodulefilenamea.obj
 0001:0007dd30       ?__acrt_get_utf8_acp_compatibility_codepage@@YAIXZ 1007ed30 f i libucrtd:getmodulefilenamea.obj
 0001:0007ddc0       ?_deallocate@?$__crt_win32_buffer@DU__crt_win32_buffer_no_resizing@@@@AAEXXZ 1007edc0 f i libucrtd:getmodulefilenamea.obj
 0001:0007de00       ?allocate@?$__crt_win32_buffer@DU__crt_win32_buffer_no_resizing@@@@QAEHI@Z 1007ee00 f i libucrtd:getmodulefilenamea.obj
 0001:0007de70       ?allocate@__crt_win32_buffer_no_resizing@@SAHQAPAXIABV__crt_win32_buffer_empty_debug_info@@@Z 1007ee70 f i libucrtd:getmodulefilenamea.obj
 0001:0007de90       ?capacity@?$__crt_win32_buffer@DU__crt_win32_buffer_no_resizing@@@@QBEIXZ 1007ee90 f i libucrtd:getmodulefilenamea.obj
 0001:0007deb0       ?data@?$__crt_win32_buffer@DU__crt_win32_buffer_no_resizing@@@@QAEPADXZ 1007eeb0 f i libucrtd:getmodulefilenamea.obj
 0001:0007ded0       ?deallocate@__crt_win32_buffer_no_resizing@@SAXQAXABV__crt_win32_buffer_empty_debug_info@@@Z 1007eed0 f i libucrtd:getmodulefilenamea.obj
 0001:0007dee0       ?debug_info@?$__crt_win32_buffer@DU__crt_win32_buffer_no_resizing@@@@QBEABV__crt_win32_buffer_empty_debug_info@@XZ 1007eee0 f i libucrtd:getmodulefilenamea.obj
 0001:0007def0       ?set_to_nullptr@?$__crt_win32_buffer@DU__crt_win32_buffer_no_resizing@@@@QAEXXZ 1007eef0 f i libucrtd:getmodulefilenamea.obj
 0001:0007df30       ?size@?$__crt_win32_buffer@DU__crt_win32_buffer_no_resizing@@@@QAEXI@Z 1007ef30 f i libucrtd:getmodulefilenamea.obj
 0001:0007df50       ?size@?$__crt_win32_buffer@DU__crt_win32_buffer_no_resizing@@@@QBEIXZ 1007ef50 f i libucrtd:getmodulefilenamea.obj
 0001:0007df70       ___acrt_GetModuleFileNameA 1007ef70 f   libucrtd:getmodulefilenamea.obj
 0001:0007e250       ??$message_box@$$TABQBDABQBDK@?$__crt_char_traits@D@@SAH$$QA$$TABQBD1$$QAK@Z 1007f250 f i libucrtd:crtmbox.obj
 0001:0007e280       ??$message_box@$$TABQB_WABQB_WK@?$__crt_char_traits@_W@@SAH$$QA$$TABQB_W1$$QAK@Z 1007f280 f i libucrtd:crtmbox.obj
 0001:0007e2b0       ??$message_box@PAUHWND__@@ABQBDABQBDABI@?$__crt_char_traits@D@@SAH$$QAPAUHWND__@@ABQBD1ABI@Z 1007f2b0 f i libucrtd:crtmbox.obj
 0001:0007e2e0       ??$message_box@PAUHWND__@@ABQB_WABQB_WABI@?$__crt_char_traits@_W@@SAH$$QAPAUHWND__@@ABQB_W1ABI@Z 1007f2e0 f i libucrtd:crtmbox.obj
 0001:0007e310       ??$output_debug_string@ABQBD@?$__crt_char_traits@D@@SAXABQBD@Z 1007f310 f i libucrtd:crtmbox.obj
 0001:0007e330       ??$output_debug_string@ABQB_W@?$__crt_char_traits@_W@@SAXABQB_W@Z 1007f330 f i libucrtd:crtmbox.obj
 0001:0007e350       ___acrt_show_narrow_message_box 1007f350 f   libucrtd:crtmbox.obj
 0001:0007e370       ___acrt_show_wide_message_box 1007f370 f   libucrtd:crtmbox.obj
 0001:0007e390       ___acrt_initialize_locks   1007f390 f   libucrtd:locks.obj
 0001:0007e3f0       ___acrt_lock               1007f3f0 f   libucrtd:locks.obj
 0001:0007e410       ___acrt_uninitialize_locks 1007f410 f   libucrtd:locks.obj
 0001:0007e460       ___acrt_unlock             1007f460 f   libucrtd:locks.obj
 0001:0007e480       __lock_locales             1007f480 f   libucrtd:locks.obj
 0001:0007e4a0       __unlock_locales           1007f4a0 f   libucrtd:locks.obj
 0001:0007e4c0       ??$?B$$A6AXH@Z@__crt_fast_encoded_nullptr_t@@QBEP6AXH@ZXZ 1007f4c0 f i libucrtd:signal.obj
 0001:0007e5b0       ??$__crt_fast_decode_pointer@P6AXH@Z@@YAP6AXH@ZQ6AXH@Z@Z 1007f5b0 f i libucrtd:signal.obj
 0001:0007e5e0       ??$__crt_fast_encode_pointer@P6AXH@Z@@YAP6AXH@ZQ6AXH@Z@Z 1007f5e0 f i libucrtd:signal.obj
 0001:0007e890       ?initialize@?$dual_state_global@P6AXH@Z@__crt_state_management@@QAEXQ6AXH@Z@Z 1007f890 f i libucrtd:signal.obj
 0001:0007e9d0       ?value@?$dual_state_global@P6AXH@Z@__crt_state_management@@QAEAAP6AXH@ZXZ 1007f9d0 f i libucrtd:signal.obj
 0001:0007e9f0       ___acrt_get_sigabrt_handler 1007f9f0 f   libucrtd:signal.obj
 0001:0007ea10       ___acrt_initialize_signal_handlers 1007fa10 f   libucrtd:signal.obj
 0001:0007ea50       ___fpecode                 1007fa50 f   libucrtd:signal.obj
 0001:0007ea60       ___pxcptinfoptrs           1007fa60 f   libucrtd:signal.obj
 0001:0007ea70       _raise                     1007fa70 f   libucrtd:signal.obj
 0001:0007ee40       _signal                    1007fe40 f   libucrtd:signal.obj
 0001:0007f0c0       __msize                    100800c0 f   libucrtd:msize.obj
 0001:0007f0e0       __msize_base               100800e0 f   libucrtd:msize.obj
 0001:0007f180       __realloc_base             10080180 f   libucrtd:realloc_base.obj
 0001:0007f240       ??$?B$$A6GHPA_WKJ@Z@__crt_fast_encoded_nullptr_t@@QBEP6GHPA_WKJ@ZXZ 10080240 f i libucrtd:winapi_thunks.obj
 0001:0007f330       ??$__crt_fast_decode_pointer@P6GHPA_WKJ@Z@@YAP6GHPA_WKJ@ZQ6GH0KJ@Z@Z 10080330 f i libucrtd:winapi_thunks.obj
 0001:0007f360       ??$__crt_fast_decode_pointer@PAX@@YAPAXQAX@Z 10080360 f i libucrtd:winapi_thunks.obj
 0001:0007f390       ??$__crt_fast_encode_pointer@P6GHPA_WKJ@Z@@YAP6GHPA_WKJ@ZQ6GH0KJ@Z@Z 10080390 f i libucrtd:winapi_thunks.obj
 0001:0007fcf0       _GetCurrentThreadEffectiveToken 10080cf0 f i libucrtd:winapi_thunks.obj
 0001:0007fd00       ___acrt_AppPolicyGetProcessTerminationMethodInternal@4 10080d00 f   libucrtd:winapi_thunks.obj
 0001:0007fd40       ___acrt_AppPolicyGetShowDeveloperDiagnosticInternal@4 10080d40 f   libucrtd:winapi_thunks.obj
 0001:0007fd80       ___acrt_AppPolicyGetThreadInitializationTypeInternal@4 10080d80 f   libucrtd:winapi_thunks.obj
 0001:0007fdc0       ___acrt_AppPolicyGetWindowingModelInternal@4 10080dc0 f   libucrtd:winapi_thunks.obj
 0001:0007fe00       ___acrt_AreFileApisANSI@0  10080e00 f   libucrtd:winapi_thunks.obj
 0001:0007fe40       ___acrt_CompareStringEx@36 10080e40 f   libucrtd:winapi_thunks.obj
 0001:0007fec0       ___acrt_EnumSystemLocalesEx@16 10080ec0 f   libucrtd:winapi_thunks.obj
 0001:0007ff20       ___acrt_FlsAlloc@4         10080f20 f   libucrtd:winapi_thunks.obj
 0001:0007ff60       ___acrt_FlsFree@4          10080f60 f   libucrtd:winapi_thunks.obj
 0001:0007ffa0       ___acrt_FlsGetValue@4      10080fa0 f   libucrtd:winapi_thunks.obj
 0001:0007ffe0       ___acrt_FlsSetValue@8      10080fe0 f   libucrtd:winapi_thunks.obj
 0001:00080030       ___acrt_GetDateFormatEx@28 10081030 f   libucrtd:winapi_thunks.obj
 0001:000800b0       ___acrt_GetEnabledXStateFeatures@0 100810b0 f   libucrtd:winapi_thunks.obj
 0001:000800f0       ___acrt_GetLocaleInfoEx@16 100810f0 f   libucrtd:winapi_thunks.obj
 0001:00080150       ___acrt_GetSystemTimePreciseAsFileTime@4 10081150 f   libucrtd:winapi_thunks.obj
 0001:00080190       ___acrt_GetTimeFormatEx@24 10081190 f   libucrtd:winapi_thunks.obj
 0001:00080200       ___acrt_GetUserDefaultLocaleName@8 10081200 f   libucrtd:winapi_thunks.obj
 0001:00080250       ___acrt_GetXStateFeaturesMask@8 10081250 f   libucrtd:winapi_thunks.obj
 0001:00080290       ___acrt_InitializeCriticalSectionEx@12 10081290 f   libucrtd:winapi_thunks.obj
 0001:000802e0       ___acrt_IsValidLocaleName@4 100812e0 f   libucrtd:winapi_thunks.obj
 0001:00080330       ___acrt_LCIDToLocaleName@16 10081330 f   libucrtd:winapi_thunks.obj
 0001:00080390       ___acrt_LCMapStringEx@36   10081390 f   libucrtd:winapi_thunks.obj
 0001:00080410       ___acrt_LocaleNameToLCID@8 10081410 f   libucrtd:winapi_thunks.obj
 0001:00080460       ___acrt_LocateXStateFeature@12 10081460 f   libucrtd:winapi_thunks.obj
 0001:000804b0       ___acrt_MessageBoxA@16     100814b0 f   libucrtd:winapi_thunks.obj
 0001:00080500       ___acrt_MessageBoxW@16     10081500 f   libucrtd:winapi_thunks.obj
 0001:00080550       ___acrt_RoInitialize@4     10081550 f   libucrtd:winapi_thunks.obj
 0001:00080590       ___acrt_RoUninitialize@0   10081590 f   libucrtd:winapi_thunks.obj
 0001:000805c0       ___acrt_RtlGenRandom@8     100815c0 f   libucrtd:winapi_thunks.obj
 0001:00080600       ___acrt_SetThreadStackGuarantee@4 10081600 f   libucrtd:winapi_thunks.obj
 0001:00080640       ___acrt_can_show_message_box 10081640 f   libucrtd:winapi_thunks.obj
 0001:00080680       ___acrt_can_use_vista_locale_apis 10081680 f   libucrtd:winapi_thunks.obj
 0001:000806b0       ___acrt_can_use_xstate_apis 100816b0 f   libucrtd:winapi_thunks.obj
 0001:000806e0       ___acrt_eagerly_load_locale_apis 100816e0 f   libucrtd:winapi_thunks.obj
 0001:00080720       ___acrt_get_parent_window  10081720 f   libucrtd:winapi_thunks.obj
 0001:00080790       ___acrt_initialize_winapi_thunks 10081790 f   libucrtd:winapi_thunks.obj
 0001:00080800       ___acrt_is_interactive     10081800 f   libucrtd:winapi_thunks.obj
 0001:000808b0       ___acrt_uninitialize_winapi_thunks 100818b0 f   libucrtd:winapi_thunks.obj
 0001:00080920       __chvalidator              10081920 f   libucrtd:isctype.obj
 0001:00080970       __chvalidator_l            10081970 f   libucrtd:isctype.obj
 0001:000809f0       __isctype                  100819f0 f   libucrtd:isctype.obj
 0001:00080a30       __isctype_l                10081a30 f   libucrtd:isctype.obj
 0001:00080bb0       __isleadbyte_fast_internal 10081bb0 f i libucrtd:isctype.obj
 0001:00080bd0       ??$?RU__crt_stdio_stream_data@@@__crt_internal_free_policy@@QBEXQBU__crt_stdio_stream_data@@@Z 10081bd0 f i libucrtd:stream.obj
 0001:00080bf0       ??0?$__crt_unique_heap_ptr@U__crt_stdio_stream_data@@U__crt_internal_free_policy@@@@QAE@QAU__crt_stdio_stream_data@@@Z 10081bf0 f i libucrtd:stream.obj
 0001:00080c10       ??0__crt_stdio_stream@@QAE@QAU__crt_stdio_stream_data@@@Z 10081c10 f i libucrtd:stream.obj
 0001:00080c30       ??0__crt_stdio_stream@@QAE@XZ 10081c30 f i libucrtd:stream.obj
 0001:00080c50       ??1?$__crt_unique_heap_ptr@U__crt_stdio_stream_data@@U__crt_internal_free_policy@@@@QAE@XZ 10081c50 f i libucrtd:stream.obj
 0001:00080c70       ?__acrt_stdio_allocate_stream@@YA?AV__crt_stdio_stream@@XZ 10081c70 f   libucrtd:stream.obj
 0001:00080d60       ?__acrt_stdio_free_stream@@YAXV__crt_stdio_stream@@@Z 10081d60 f   libucrtd:stream.obj
 0001:00080de0       ?deallocate@__crt_stdio_stream@@QAEXXZ 10081de0 f i libucrtd:stream.obj
 0001:00080e00       ?detach@?$__crt_unique_heap_ptr@U__crt_stdio_stream_data@@U__crt_internal_free_policy@@@@QAEPAU__crt_stdio_stream_data@@XZ 10081e00 f i libucrtd:stream.obj
 0001:00080f70       ?lock@__crt_stdio_stream@@QBEXXZ 10081f70 f i libucrtd:stream.obj
 0001:00080f90       ?release@?$__crt_unique_heap_ptr@U__crt_stdio_stream_data@@U__crt_internal_free_policy@@@@QAEXXZ 10081f90 f i libucrtd:stream.obj
 0001:00080fc0       ?try_allocate@__crt_stdio_stream@@QAE_NXZ 10081fc0 f i libucrtd:stream.obj
 0001:00081010       ??$__acrt_stdio_parse_mode@D@@YA?AU__acrt_stdio_stream_mode@@QBD@Z 10082010 f i libucrtd:openfile.obj
 0001:00081880       ??$__acrt_stdio_parse_mode@_W@@YA?AU__acrt_stdio_stream_mode@@QB_W@Z 10082880 f i libucrtd:openfile.obj
 0001:00082410       ??$tcsncmp@AAPBDAAY02$$CBDI@?$__crt_char_traits@D@@SAHAAPBDAAY02$$CBD$$QAI@Z 10083410 f i libucrtd:openfile.obj
 0001:00082430       ??$tcsncmp@AAPB_WAAY02$$CB_WI@?$__crt_char_traits@_W@@SAHAAPB_WAAY02$$CB_W$$QAI@Z 10083430 f i libucrtd:openfile.obj
 0001:00082450       ??$tcsnicmp@AAPBDAAY04$$CBDI@?$__crt_char_traits@D@@SAHAAPBDAAY04$$CBD$$QAI@Z 10083450 f i libucrtd:openfile.obj
 0001:00082470       ??$tcsnicmp@AAPBDAAY06$$CBDI@?$__crt_char_traits@D@@SAHAAPBDAAY06$$CBD$$QAI@Z 10083470 f i libucrtd:openfile.obj
 0001:00082490       ??$tcsnicmp@AAPBDAAY07$$CBDI@?$__crt_char_traits@D@@SAHAAPBDAAY07$$CBD$$QAI@Z 10083490 f i libucrtd:openfile.obj
 0001:000824b0       ??$tcsnicmp@AAPB_WAAY04$$CB_WI@?$__crt_char_traits@_W@@SAHAAPB_WAAY04$$CB_W$$QAI@Z 100834b0 f i libucrtd:openfile.obj
 0001:000824d0       ??$tcsnicmp@AAPB_WAAY06$$CB_WI@?$__crt_char_traits@_W@@SAHAAPB_WAAY06$$CB_W$$QAI@Z 100834d0 f i libucrtd:openfile.obj
 0001:000824f0       ??$tcsnicmp@AAPB_WAAY07$$CB_WI@?$__crt_char_traits@_W@@SAHAAPB_WAAY07$$CB_W$$QAI@Z 100834f0 f i libucrtd:openfile.obj
 0001:00082510       ??$tsopen_s@PAHABQBDABHABHH@?$__crt_char_traits@D@@SAH$$QAPAHABQBDABH2$$QAH@Z 10083510 f i libucrtd:openfile.obj
 0001:00082540       ??$tsopen_s@PAHABQB_WABHABHH@?$__crt_char_traits@_W@@SAH$$QAPAHABQB_WABH2$$QAH@Z 10083540 f i libucrtd:openfile.obj
 0001:00082570       ?__acrt_stdio_parse_mode_D@@YA_NAAU__acrt_stdio_stream_mode@@@Z 10083570 f i libucrtd:openfile.obj
 0001:000825a0       ?__acrt_stdio_parse_mode_N@@YA_NAAU__acrt_stdio_stream_mode@@@Z 100835a0 f i libucrtd:openfile.obj
 0001:000825c0       ?__acrt_stdio_parse_mode_R@@YA_NAAU__acrt_stdio_stream_mode@@AA_N@Z 100835c0 f i libucrtd:openfile.obj
 0001:000825f0       ?__acrt_stdio_parse_mode_S@@YA_NAAU__acrt_stdio_stream_mode@@AA_N@Z 100835f0 f i libucrtd:openfile.obj
 0001:00082620       ?__acrt_stdio_parse_mode_T@@YA_NAAU__acrt_stdio_stream_mode@@@Z 10083620 f i libucrtd:openfile.obj
 0001:00082650       ?__acrt_stdio_parse_mode_b@@YA_NAAU__acrt_stdio_stream_mode@@@Z 10083650 f i libucrtd:openfile.obj
 0001:00082680       ?__acrt_stdio_parse_mode_c@@YA_NAAU__acrt_stdio_stream_mode@@AA_N@Z 10083680 f i libucrtd:openfile.obj
 0001:000826b0       ?__acrt_stdio_parse_mode_n@@YA_NAAU__acrt_stdio_stream_mode@@AA_N@Z 100836b0 f i libucrtd:openfile.obj
 0001:000826e0       ?__acrt_stdio_parse_mode_plus@@YA_NAAU__acrt_stdio_stream_mode@@AA_N@Z 100836e0 f i libucrtd:openfile.obj
 0001:00082750       ?__acrt_stdio_parse_mode_t@@YA_NAAU__acrt_stdio_stream_mode@@@Z 10083750 f i libucrtd:openfile.obj
 0001:00082780       ?__acrt_stdio_parse_mode_x@@YA_NAAU__acrt_stdio_stream_mode@@@Z 10083780 f i libucrtd:openfile.obj
 0001:000827b0       __openfile                 100837b0 f   libucrtd:openfile.obj
 0001:000827e0       __wopenfile                100837e0 f   libucrtd:openfile.obj
 0001:00082ac0       __close                    10083ac0 f   libucrtd:close.obj
 0001:00082c40       __close_nolock             10083c40 f   libucrtd:close.obj
 0001:00082ca0       ?has_crt_buffer@__crt_stdio_stream@@QBE_NXZ 10083ca0 f i libucrtd:_freebuf.obj
 0001:00082cc0       ___acrt_stdio_free_buffer_nolock 10083cc0 f   libucrtd:_freebuf.obj
 0001:00083320       ?__acrt_stdio_reset_buffer@@YAXV__crt_stdio_stream@@@Z 10084320 f i libucrtd:fflush.obj
 0001:00083420       ?has_all_of@__crt_stdio_stream@@QBE_NJ@Z 10084420 f i libucrtd:fflush.obj
 0001:000834f0       ___acrt_stdio_flush_nolock 100844f0 f   libucrtd:fflush.obj
 0001:000835c0       __fflush_nolock            100845c0 f   libucrtd:fflush.obj
 0001:00083640       __flushall                 10084640 f   libucrtd:fflush.obj
 0001:00083660       _fflush                    10084660 f   libucrtd:fflush.obj
 0001:00083e10       ?has_big_buffer@__crt_stdio_stream@@QBE_NXZ 10084e10 f i libucrtd:_flsbuf.obj
 0001:00083f10       ___acrt_stdio_flush_and_write_narrow_nolock 10084f10 f   libucrtd:_flsbuf.obj
 0001:00083f40       ___acrt_stdio_flush_and_write_wide_nolock 10084f40 f   libucrtd:_flsbuf.obj
 0001:00084270       ___acrt_get_begin_thread_init_policy 10085270 f   libucrtd:win_policies.obj
 0001:00084290       ___acrt_get_developer_information_policy 10085290 f   libucrtd:win_policies.obj
 0001:000842b0       ___acrt_get_process_end_policy 100852b0 f   libucrtd:win_policies.obj
 0001:000842d0       ___acrt_get_windowing_model_policy 100852d0 f   libucrtd:win_policies.obj
 0001:000845a0       ??$__acrt_mbs_to_wcs_cp@U__crt_win32_buffer_internal_dynamic_resizing@@@@YAHQBDAAV?$__crt_win32_buffer@_WU__crt_win32_buffer_internal_dynamic_resizing@@@@I@Z 100855a0 f i libucrtd:argv_wildcards.obj
 0001:000845d0       ??$__acrt_wcs_to_mbs_cp@U__crt_win32_buffer_internal_dynamic_resizing@@@@YAHQB_WAAV?$__crt_win32_buffer@DU__crt_win32_buffer_internal_dynamic_resizing@@@@I@Z 100855d0 f i libucrtd:argv_wildcards.obj
 0001:00085520       ??$tcsncpy_s@AAPADIAAPADABI@?$__crt_char_traits@D@@SAHAAPAD$$QAI0ABI@Z 10086520 f i libucrtd:argv_wildcards.obj
 0001:00085550       ??$tcsncpy_s@AAPA_WIAAPA_WABI@?$__crt_char_traits@_W@@SAHAAPA_W$$QAI0ABI@Z 10086550 f i libucrtd:argv_wildcards.obj
 0001:00085580       ??$tcsncpy_s@PADABIABQBDABI@?$__crt_char_traits@D@@SAH$$QAPADABIABQBD1@Z 10086580 f i libucrtd:argv_wildcards.obj
 0001:000855b0       ??$tcsncpy_s@PADIABQBDABI@?$__crt_char_traits@D@@SAH$$QAPAD$$QAIABQBDABI@Z 100865b0 f i libucrtd:argv_wildcards.obj
 0001:000855e0       ??$tcsncpy_s@PA_WABIABQB_WABI@?$__crt_char_traits@_W@@SAH$$QAPA_WABIABQB_W1@Z 100865e0 f i libucrtd:argv_wildcards.obj
 0001:00085610       ??$tcsncpy_s@PA_WIABQB_WABI@?$__crt_char_traits@_W@@SAH$$QAPA_W$$QAIABQB_WABI@Z 10086610 f i libucrtd:argv_wildcards.obj
 0001:00085640       ??$tcspbrk@AAPADAAY02$$CBD@?$__crt_char_traits@D@@SAPADAAPADAAY02$$CBD@Z 10086640 f i libucrtd:argv_wildcards.obj
 0001:00085660       ??$tcspbrk@AAPA_WAAY02$$CB_W@?$__crt_char_traits@_W@@SAPA_WAAPA_WAAY02$$CB_W@Z 10086660 f i libucrtd:argv_wildcards.obj
 0001:00085680       ??0?$__crt_unique_handle_t@U__crt_findfile_traits@@@@QAE@QAX@Z 10086680 f i libucrtd:argv_wildcards.obj
 0001:000856a0       ??0?$__crt_win32_buffer@DU__crt_win32_buffer_internal_dynamic_resizing@@@@QAE@XZ 100866a0 f i libucrtd:argv_wildcards.obj
 0001:000856f0       ??0?$__crt_win32_buffer@_WU__crt_win32_buffer_internal_dynamic_resizing@@@@QAE@XZ 100866f0 f i libucrtd:argv_wildcards.obj
 0001:000857a0       ??1?$__crt_unique_handle_t@U__crt_findfile_traits@@@@QAE@XZ 100867a0 f i libucrtd:argv_wildcards.obj
 0001:000857c0       ??1?$__crt_win32_buffer@DU__crt_win32_buffer_internal_dynamic_resizing@@@@QAE@XZ 100867c0 f i libucrtd:argv_wildcards.obj
 0001:00085800       ??1?$__crt_win32_buffer@_WU__crt_win32_buffer_internal_dynamic_resizing@@@@QAE@XZ 10086800 f i libucrtd:argv_wildcards.obj
 0001:00085a60       ?_deallocate@?$__crt_win32_buffer@DU__crt_win32_buffer_internal_dynamic_resizing@@@@AAEXXZ 10086a60 f i libucrtd:argv_wildcards.obj
 0001:00085aa0       ?_deallocate@?$__crt_win32_buffer@_WU__crt_win32_buffer_internal_dynamic_resizing@@@@AAEXXZ 10086aa0 f i libucrtd:argv_wildcards.obj
 0001:00085ae0       ?allocate@?$__crt_win32_buffer@DU__crt_win32_buffer_internal_dynamic_resizing@@@@QAEHI@Z 10086ae0 f i libucrtd:argv_wildcards.obj
 0001:00085b50       ?allocate@?$__crt_win32_buffer@_WU__crt_win32_buffer_internal_dynamic_resizing@@@@QAEHI@Z 10086b50 f i libucrtd:argv_wildcards.obj
 0001:00085bc0       ?allocate@__crt_win32_buffer_internal_dynamic_resizing@@SAHQAPAXIABV__crt_win32_buffer_empty_debug_info@@@Z 10086bc0 f i libucrtd:argv_wildcards.obj
 0001:00085d00       ?capacity@?$__crt_win32_buffer@DU__crt_win32_buffer_internal_dynamic_resizing@@@@QBEIXZ 10086d00 f i libucrtd:argv_wildcards.obj
 0001:00085d20       ?capacity@?$__crt_win32_buffer@_WU__crt_win32_buffer_internal_dynamic_resizing@@@@QBEIXZ 10086d20 f i libucrtd:argv_wildcards.obj
 0001:00085d40       ?close@?$__crt_unique_handle_t@U__crt_findfile_traits@@@@QAEXXZ 10086d40 f i libucrtd:argv_wildcards.obj
 0001:00085d80       ?close@__crt_findfile_traits@@SA_NPAX@Z 10086d80 f i libucrtd:argv_wildcards.obj
 0001:00085db0       ?data@?$__crt_win32_buffer@DU__crt_win32_buffer_internal_dynamic_resizing@@@@QAEPADXZ 10086db0 f i libucrtd:argv_wildcards.obj
 0001:00085dd0       ?data@?$__crt_win32_buffer@_WU__crt_win32_buffer_internal_dynamic_resizing@@@@QAEPA_WXZ 10086dd0 f i libucrtd:argv_wildcards.obj
 0001:00085df0       ?deallocate@__crt_win32_buffer_internal_dynamic_resizing@@SAXQAXABV__crt_win32_buffer_empty_debug_info@@@Z 10086df0 f i libucrtd:argv_wildcards.obj
 0001:00085e10       ?debug_info@?$__crt_win32_buffer@DU__crt_win32_buffer_internal_dynamic_resizing@@@@QBEABV__crt_win32_buffer_empty_debug_info@@XZ 10086e10 f i libucrtd:argv_wildcards.obj
 0001:00085e20       ?debug_info@?$__crt_win32_buffer@_WU__crt_win32_buffer_internal_dynamic_resizing@@@@QBEABV__crt_win32_buffer_empty_debug_info@@XZ 10086e20 f i libucrtd:argv_wildcards.obj
 0001:00086130       ?get@?$__crt_unique_handle_t@U__crt_findfile_traits@@@@QBEPAXXZ 10087130 f i libucrtd:argv_wildcards.obj
 0001:000861a0       ?get_invalid_value@__crt_findfile_traits@@SAPAXXZ 100871a0 f i libucrtd:argv_wildcards.obj
 0001:00086230       ?set_to_nullptr@?$__crt_win32_buffer@DU__crt_win32_buffer_internal_dynamic_resizing@@@@QAEXXZ 10087230 f i libucrtd:argv_wildcards.obj
 0001:00086270       ?set_to_nullptr@?$__crt_win32_buffer@_WU__crt_win32_buffer_internal_dynamic_resizing@@@@QAEXXZ 10087270 f i libucrtd:argv_wildcards.obj
 0001:000862b0       ?size@?$__crt_win32_buffer@DU__crt_win32_buffer_internal_dynamic_resizing@@@@QAEXI@Z 100872b0 f i libucrtd:argv_wildcards.obj
 0001:000862d0       ?size@?$__crt_win32_buffer@_WU__crt_win32_buffer_internal_dynamic_resizing@@@@QAEXI@Z 100872d0 f i libucrtd:argv_wildcards.obj
 0001:00086330       ?strpbrk@@YAPADQADQBD@Z    10087330 f i libucrtd:argv_wildcards.obj
 0001:00086350       ?wcspbrk@@YAPA_WPA_WPB_W@Z 10087350 f i libucrtd:argv_wildcards.obj
 0001:00086370       ___acrt_expand_narrow_argv_wildcards 10087370 f   libucrtd:argv_wildcards.obj
 0001:00086390       ___acrt_expand_wide_argv_wildcards 10087390 f   libucrtd:argv_wildcards.obj
 0001:00086470       ??$initialize_from_array@$$BY10BAA@E@?$dual_state_global@PAE@__crt_state_management@@QAAXAAY10BAA@E@Z 10087470 f i libucrtd:mbctype.obj
 0001:000864c0       ??$initialize_from_array@$$BY10BAB@E@?$dual_state_global@PAE@__crt_state_management@@QAAXAAY10BAB@E@Z 100874c0 f i libucrtd:mbctype.obj
 0001:00086730       ?dangerous_get_state_array@?$dual_state_global@PAE@__crt_state_management@@QAEPAPAEXZ 10087730 f i libucrtd:mbctype.obj
 0001:00086740       ?dangerous_get_state_array@?$dual_state_global@PAU__crt_multibyte_data@@@__crt_state_management@@QAEPAPAU__crt_multibyte_data@@XZ 10087740 f i libucrtd:mbctype.obj
 0001:00086810       ?initialize@?$dual_state_global@PAU__crt_multibyte_data@@@__crt_state_management@@QAEXQAU__crt_multibyte_data@@@Z 10087810 f i libucrtd:mbctype.obj
 0001:00086f70       ?value@?$dual_state_global@PAE@__crt_state_management@@QAEAAPAEXZ 10087f70 f i libucrtd:mbctype.obj
 0001:00086f90       ___acrt_initialize_multibyte 10087f90 f   libucrtd:mbctype.obj
 0001:00087040       ___acrt_update_thread_multibyte_data 10088040 f   libucrtd:mbctype.obj
 0001:00087060       ___p__mbcasemap            10088060 f   libucrtd:mbctype.obj
 0001:00087080       ___p__mbctype              10088080 f   libucrtd:mbctype.obj
 0001:000870a0       __getmbcp                  100880a0 f   libucrtd:mbctype.obj
 0001:00087110       __setmbcp                  10088110 f   libucrtd:mbctype.obj
 0001:00087140       __setmbcp_nolock           10088140 f   libucrtd:mbctype.obj
 0001:000876b1       __ismbbalnum               100886b1 f   libucrtd:ismbbyte.obj
 0001:000876cc       __ismbbalnum_l             100886cc f   libucrtd:ismbbyte.obj
 0001:000876e8       __ismbbalpha               100886e8 f   libucrtd:ismbbyte.obj
 0001:00087703       __ismbbalpha_l             10088703 f   libucrtd:ismbbyte.obj
 0001:0008771f       __ismbbblank               1008871f f   libucrtd:ismbbyte.obj
 0001:00087742       __ismbbblank_l             10088742 f   libucrtd:ismbbyte.obj
 0001:00087766       __ismbbgraph               10088766 f   libucrtd:ismbbyte.obj
 0001:00087781       __ismbbgraph_l             10088781 f   libucrtd:ismbbyte.obj
 0001:0008779d       __ismbbkalnum              1008879d f   libucrtd:ismbbyte.obj
 0001:000877b5       __ismbbkalnum_l            100887b5 f   libucrtd:ismbbyte.obj
 0001:000877ce       __ismbbkana                100887ce f   libucrtd:ismbbyte.obj
 0001:000877e1       __ismbbkana_l              100887e1 f   libucrtd:ismbbyte.obj
 0001:00087830       __ismbbkprint              10088830 f   libucrtd:ismbbyte.obj
 0001:00087848       __ismbbkprint_l            10088848 f   libucrtd:ismbbyte.obj
 0001:00087861       __ismbbkpunct              10088861 f   libucrtd:ismbbyte.obj
 0001:00087879       __ismbbkpunct_l            10088879 f   libucrtd:ismbbyte.obj
 0001:00087892       __ismbblead                10088892 f   libucrtd:ismbbyte.obj
 0001:000878aa       __ismbblead_l              100888aa f   libucrtd:ismbbyte.obj
 0001:000878c3       __ismbbprint               100888c3 f   libucrtd:ismbbyte.obj
 0001:000878de       __ismbbprint_l             100888de f   libucrtd:ismbbyte.obj
 0001:000878fa       __ismbbpunct               100888fa f   libucrtd:ismbbyte.obj
 0001:00087912       __ismbbpunct_l             10088912 f   libucrtd:ismbbyte.obj
 0001:0008792b       __ismbbtrail               1008892b f   libucrtd:ismbbyte.obj
 0001:00087943       __ismbbtrail_l             10088943 f   libucrtd:ismbbyte.obj
 0001:00087960       ___acrt_initialize_command_line 10088960 f   libucrtd:argv_data.obj
 0001:00087980       ___acrt_uninitialize_command_line 10088980 f   libucrtd:argv_data.obj
 0001:00087990       ___p___argc                10088990 f   libucrtd:argv_data.obj
 0001:000879a0       ___p___argv                100889a0 f   libucrtd:argv_data.obj
 0001:000879b0       ___p___wargv               100889b0 f   libucrtd:argv_data.obj
 0001:000879c0       ___p__acmdln               100889c0 f   libucrtd:argv_data.obj
 0001:000879d0       ___p__pgmptr               100889d0 f   libucrtd:argv_data.obj
 0001:000879e0       ___p__wcmdln               100889e0 f   libucrtd:argv_data.obj
 0001:000879f0       ___p__wpgmptr              100889f0 f   libucrtd:argv_data.obj
 0001:00087a00       __get_pgmptr               10088a00 f   libucrtd:argv_data.obj
 0001:00087b10       __get_wpgmptr              10088b10 f   libucrtd:argv_data.obj
 0001:00087cd0       ___acrt_MultiByteToWideChar 10088cd0 f   libucrtd:multibytetowidechar.obj
 0001:00087dd0       ___acrt_WideCharToMultiByte 10088dd0 f   libucrtd:widechartomultibyte.obj
 0001:00087f12       ___dcrt_get_narrow_environment_from_os 10088f12 f   libucrtd:get_environment_from_os.obj
 0001:00087fa4       ___dcrt_get_wide_environment_from_os 10088fa4 f   libucrtd:get_environment_from_os.obj
 0001:00088939       ??$get_or_create_environment_nolock@$$V@?$__crt_char_traits@D@@SAPAPADXZ 10089939 f i libucrtd:setenv.obj
 0001:0008893e       ??$get_or_create_environment_nolock@$$V@?$__crt_char_traits@_W@@SAPAPA_WXZ 1008993e f i libucrtd:setenv.obj
 0001:00088943       ??$set_environment_variable@ABQADQAD@?$__crt_char_traits@D@@SAHABQAD$$QBQAD@Z 10089943 f i libucrtd:setenv.obj
 0001:0008895b       ??$set_environment_variable@ABQA_WQA_W@?$__crt_char_traits@_W@@SAHABQA_W$$QBQA_W@Z 1008995b f i libucrtd:setenv.obj
 0001:00088972       ??$tcschr@ABQADD@?$__crt_char_traits@D@@SAPADABQAD$$QAD@Z 10089972 f i libucrtd:setenv.obj
 0001:0008898c       ??$tcschr@ABQA_WD@?$__crt_char_traits@_W@@SAPA_WABQA_W$$QAD@Z 1008998c f i libucrtd:setenv.obj
 0001:000889aa       ??$tcscpy_s@AAPADABIAAPAD@?$__crt_char_traits@D@@SAHAAPADABI0@Z 100899aa f i libucrtd:setenv.obj
 0001:000889c8       ??$tcscpy_s@AAPA_WABIAAPA_W@?$__crt_char_traits@_W@@SAHAAPA_WABI0@Z 100899c8 f i libucrtd:setenv.obj
 0001:000889e6       ??$tcscpy_s@ABQADABIABQAD@?$__crt_char_traits@D@@SAHABQADABI0@Z 100899e6 f i libucrtd:setenv.obj
 0001:00088a04       ??$tcscpy_s@ABQA_WABIABQA_W@?$__crt_char_traits@_W@@SAHABQA_WABI0@Z 10089a04 f i libucrtd:setenv.obj
 0001:00088a22       ??$tcslen@ABQAD@?$__crt_char_traits@D@@SAIABQAD@Z 10089a22 f i libucrtd:setenv.obj
 0001:00088a3a       ??$tcslen@ABQA_W@?$__crt_char_traits@_W@@SAIABQA_W@Z 10089a3a f i libucrtd:setenv.obj
 0001:00088a58       ??$tcsnicoll@ABQBDAAPADABI@?$__crt_char_traits@D@@SAHABQBDAAPADABI@Z 10089a58 f i libucrtd:setenv.obj
 0001:00088a76       ??$tcsnicoll@ABQB_WAAPA_WABI@?$__crt_char_traits@_W@@SAHABQB_WAAPA_WABI@Z 10089a76 f i libucrtd:setenv.obj
 0001:00088a94       ??$tcsnlen@PADH@?$__crt_char_traits@D@@SAI$$QAPAD$$QAH@Z 10089a94 f i libucrtd:setenv.obj
 0001:00088aac       ??$tcsnlen@PA_WH@?$__crt_char_traits@_W@@SAI$$QAPA_W$$QAH@Z 10089aac f i libucrtd:setenv.obj
 0001:00088ae8       ?strchr@@YAPADQADH@Z       10089ae8 f i libucrtd:setenv.obj
 0001:00088af3       ?wcschr@@YAPA_WPA_W_W@Z    10089af3 f i libucrtd:setenv.obj
 0001:00088afe       ___dcrt_set_variable_in_narrow_environment_nolock 10089afe f   libucrtd:setenv.obj
 0001:00088b09       ___dcrt_set_variable_in_wide_environment_nolock 10089b09 f   libucrtd:setenv.obj
 0001:00088b20       ___acrt_getheap            10089b20 f   libucrtd:heap_handle.obj
 0001:00088b60       ___acrt_initialize_heap    10089b60 f   libucrtd:heap_handle.obj
 0001:00088b90       ___acrt_uninitialize_heap  10089b90 f   libucrtd:heap_handle.obj
 0001:00088bb0       __get_heap_handle          10089bb0 f   libucrtd:heap_handle.obj
 0001:00088bf0       ___acrt_execute_initializers 10089bf0 f   libucrtd:shared_initialization.obj
 0001:00088ca0       ___acrt_execute_uninitializers 10089ca0 f   libucrtd:shared_initialization.obj
 0001:00088d00       ??$__crt_fast_decode_pointer@P6AHPAU_exception@@@Z@@YAP6AHPAU_exception@@@ZQ6AH0@Z@Z 10089d00 f i libucrtd:matherr.obj
 0001:00088d30       ??$__crt_fast_encode_pointer@P6AHPAU_exception@@@Z@@YAP6AHPAU_exception@@@ZQ6AH0@Z@Z 10089d30 f i libucrtd:matherr.obj
 0001:00088d60       ?initialize@?$dual_state_global@P6AHPAU_exception@@@Z@__crt_state_management@@QAEXQ6AHPAU_exception@@@Z@Z 10089d60 f i libucrtd:matherr.obj
 0001:00088da0       ?value@?$dual_state_global@P6AHPAU_exception@@@Z@__crt_state_management@@QAEAAP6AHPAU_exception@@@ZXZ 10089da0 f i libucrtd:matherr.obj
 0001:00088dc0       ___acrt_has_user_matherr   10089dc0 f   libucrtd:matherr.obj
 0001:00088e00       ___acrt_initialize_user_matherr 10089e00 f   libucrtd:matherr.obj
 0001:00088e20       ___acrt_invoke_user_matherr 10089e20 f   libucrtd:matherr.obj
 0001:00088e70       ___setusermatherr          10089e70 f   libucrtd:matherr.obj
 0001:00088eb0       __free_base                10089eb0 f   libucrtd:free_base.obj
 0001:00088f60       __expand                   10089f60 f   libucrtd:expand.obj
 0001:00088f80       __expand_base              10089f80 f   libucrtd:expand.obj
 0001:000890b0       ?value@?$dual_state_global@J@__crt_state_management@@QAEAAJXZ 1008a0b0 f i libucrtd:new_mode.obj
 0001:000890d0       __query_new_mode           1008a0d0 f   libucrtd:new_mode.obj
 0001:000890f0       __set_new_mode             1008a0f0 f   libucrtd:new_mode.obj
 0001:00089190       __CrtDefaultAllocHook      1008a190 f   libucrtd:debug_heap_hook.obj
 0001:0008919c       __mbsdec                   1008a19c f   libucrtd:mbsdec.obj
 0001:000891b3       __mbsdec_l                 1008a1b3 f   libucrtd:mbsdec.obj
 0001:000896a0       _strncpy_s                 1008a6a0 f   libucrtd:strncpy_s.obj
 0001:00089870       ___acrt_report_runtime_error 1008a870 f   libucrtd:report_runtime_error.obj
 0001:00089a60       __query_app_type           1008aa60 f   libucrtd:report_runtime_error.obj
 0001:00089a70       __set_app_type             1008aa70 f   libucrtd:report_runtime_error.obj
 0001:00089a80       __iswctype_l               1008aa80 f   libucrtd:iswctype.obj
 0001:00089aa0       _iswctype                  1008aaa0 f   libucrtd:iswctype.obj
 0001:00089b10       ___iswcsym                 1008ab10 f i libucrtd:_wctype.obj
 0001:00089b50       ___iswcsymf                1008ab50 f i libucrtd:_wctype.obj
 0001:00089b90       __isleadbyte_l             1008ab90 f i libucrtd:_wctype.obj
 0001:00089be0       __iswalnum_l               1008abe0 f i libucrtd:_wctype.obj
 0001:00089c00       __iswalpha_l               1008ac00 f i libucrtd:_wctype.obj
 0001:00089c20       __iswblank_l               1008ac20 f i libucrtd:_wctype.obj
 0001:00089c60       __iswcntrl_l               1008ac60 f i libucrtd:_wctype.obj
 0001:00089c80       __iswcsym_l                1008ac80 f i libucrtd:_wctype.obj
 0001:00089cc0       __iswcsymf_l               1008acc0 f i libucrtd:_wctype.obj
 0001:00089d00       __iswdigit_l               1008ad00 f i libucrtd:_wctype.obj
 0001:00089d20       __iswgraph_l               1008ad20 f i libucrtd:_wctype.obj
 0001:00089d40       __iswlower_l               1008ad40 f i libucrtd:_wctype.obj
 0001:00089d60       __iswprint_l               1008ad60 f i libucrtd:_wctype.obj
 0001:00089d80       __iswpunct_l               1008ad80 f i libucrtd:_wctype.obj
 0001:00089da0       __iswspace_l               1008ada0 f i libucrtd:_wctype.obj
 0001:00089dc0       __iswupper_l               1008adc0 f i libucrtd:_wctype.obj
 0001:00089de0       __iswxdigit_l              1008ade0 f i libucrtd:_wctype.obj
 0001:00089e00       _isleadbyte                1008ae00 f i libucrtd:_wctype.obj
 0001:00089e20       _iswalnum                  1008ae20 f i libucrtd:_wctype.obj
 0001:00089e40       _iswalpha                  1008ae40 f i libucrtd:_wctype.obj
 0001:00089e60       _iswascii                  1008ae60 f i libucrtd:_wctype.obj
 0001:00089e90       _iswblank                  1008ae90 f i libucrtd:_wctype.obj
 0001:00089ed0       _iswcntrl                  1008aed0 f i libucrtd:_wctype.obj
 0001:00089ef0       _iswdigit                  1008aef0 f i libucrtd:_wctype.obj
 0001:00089f10       _iswgraph                  1008af10 f i libucrtd:_wctype.obj
 0001:00089f30       _iswlower                  1008af30 f i libucrtd:_wctype.obj
 0001:00089f50       _iswprint                  1008af50 f i libucrtd:_wctype.obj
 0001:00089f70       _iswpunct                  1008af70 f i libucrtd:_wctype.obj
 0001:00089f90       _iswspace                  1008af90 f i libucrtd:_wctype.obj
 0001:00089fb0       _iswupper                  1008afb0 f i libucrtd:_wctype.obj
 0001:00089fd0       _iswxdigit                 1008afd0 f i libucrtd:_wctype.obj
 0001:0008a060       ?__mbrtowc_utf8@__crt_mbstring@@YAIPA_WPBDIPAU_Mbstatet@@@Z 1008b060 f   libucrtd:mbrtowc.obj
 0001:0008a0b0       ?__mbsrtowcs_utf8@__crt_mbstring@@YAIPA_WPAPBDIPAU_Mbstatet@@@Z 1008b0b0 f   libucrtd:mbrtowc.obj
 0001:0008a920       _btowc                     1008b920 f   libucrtd:mbrtowc.obj
 0001:0008a990       _mbrlen                    1008b990 f   libucrtd:mbrtowc.obj
 0001:0008a9e0       _mbrtowc                   1008b9e0 f   libucrtd:mbrtowc.obj
 0001:0008aa70       _mbsrtowcs                 1008ba70 f   libucrtd:mbrtowc.obj
 0001:0008aa90       _mbsrtowcs_s               1008ba90 f   libucrtd:mbrtowc.obj
 0001:0008ade0       ??$?RG@__crt_internal_free_policy@@QBEXQBG@Z 1008bde0 f i libucrtd:initctype.obj
 0001:0008ae00       ??$?RJ@__crt_internal_free_policy@@QBEXQBJ@Z 1008be00 f i libucrtd:initctype.obj
 0001:0008ae20       ??0?$__crt_unique_heap_ptr@GU__crt_internal_free_policy@@@@QAE@QAG@Z 1008be20 f i libucrtd:initctype.obj
 0001:0008ae40       ??0?$__crt_unique_heap_ptr@JU__crt_internal_free_policy@@@@QAE@QAJ@Z 1008be40 f i libucrtd:initctype.obj
 0001:0008ae60       ??1?$__crt_unique_heap_ptr@GU__crt_internal_free_policy@@@@QAE@XZ 1008be60 f i libucrtd:initctype.obj
 0001:0008ae80       ??1?$__crt_unique_heap_ptr@JU__crt_internal_free_policy@@@@QAE@XZ 1008be80 f i libucrtd:initctype.obj
 0001:0008aea0       ?detach@?$__crt_unique_heap_ptr@GU__crt_internal_free_policy@@@@QAEPAGXZ 1008bea0 f i libucrtd:initctype.obj
 0001:0008aed0       ?detach@?$__crt_unique_heap_ptr@JU__crt_internal_free_policy@@@@QAEPAJXZ 1008bed0 f i libucrtd:initctype.obj
 0001:0008af00       ?release@?$__crt_unique_heap_ptr@GU__crt_internal_free_policy@@@@QAEXXZ 1008bf00 f i libucrtd:initctype.obj
 0001:0008af30       ?release@?$__crt_unique_heap_ptr@JU__crt_internal_free_policy@@@@QAEXXZ 1008bf30 f i libucrtd:initctype.obj
 0001:0008af60       ____lc_codepage_func       1008bf60 f   libucrtd:initctype.obj
 0001:0008afa0       ____lc_collate_cp_func     1008bfa0 f   libucrtd:initctype.obj
 0001:0008afe0       ____lc_locale_name_func    1008bfe0 f   libucrtd:initctype.obj
 0001:0008b020       ____mb_cur_max_func        1008c020 f   libucrtd:initctype.obj
 0001:0008b060       ____mb_cur_max_l_func      1008c060 f   libucrtd:initctype.obj
 0001:0008b090       ___acrt_locale_initialize_ctype 1008c090 f   libucrtd:initctype.obj
 0001:0008b810       ?__c32rtomb_utf8@__crt_mbstring@@YAIPAD_UPAU_Mbstatet@@@Z 1008c810 f   libucrtd:c32rtomb.obj
 0001:0008b9f0       ?reset_and_return@__crt_mbstring@@YAIIPAU_Mbstatet@@@Z 1008c9f0 f i libucrtd:c32rtomb.obj
 0001:0008ba20       ?return_illegal_sequence@__crt_mbstring@@YAIPAU_Mbstatet@@@Z 1008ca20 f i libucrtd:c32rtomb.obj
 0001:0008ba50       _c32rtomb                  1008ca50 f   libucrtd:c32rtomb.obj
 0001:0008ba70       ___acrt_add_locale_ref     1008ca70 f   libucrtd:locale_refcounting.obj
 0001:0008bb80       ___acrt_free_locale        1008cb80 f   libucrtd:locale_refcounting.obj
 0001:0008be50       ___acrt_locale_add_lc_time_reference 1008ce50 f   libucrtd:locale_refcounting.obj
 0001:0008be90       ___acrt_locale_free_lc_time_if_unreferenced 1008ce90 f   libucrtd:locale_refcounting.obj
 0001:0008bee0       ___acrt_locale_release_lc_time_reference 1008cee0 f   libucrtd:locale_refcounting.obj
 0001:0008bf10       ___acrt_release_locale_ref 1008cf10 f   libucrtd:locale_refcounting.obj
 0001:0008c020       ___acrt_update_thread_locale_data 1008d020 f   libucrtd:locale_refcounting.obj
 0001:0008c0f0       __updatetlocinfoEx_nolock  1008d0f0 f   libucrtd:locale_refcounting.obj
 0001:0008c170       ___acrt_fp_strflt_to_string 1008d170 f   libucrtd:_fptostr.obj
 0001:0008cab0       ??0big_integer@__crt_strtox@@QAE@ABU01@@Z 1008dab0 f i libucrtd:cfout.obj
 0001:0008caf0       ??0big_integer@__crt_strtox@@QAE@XZ 1008daf0 f i libucrtd:cfout.obj
 0001:0008cbb0       ??4big_integer@__crt_strtox@@QAEAAU01@ABU01@@Z 1008dbb0 f i libucrtd:cfout.obj
 0001:0008cbf0       ??8__crt_strtox@@YA_NABUbig_integer@0@0@Z 1008dbf0 f i libucrtd:cfout.obj
 0001:0008cc50       ??9__crt_strtox@@YA_NABUbig_integer@0@0@Z 1008dc50 f i libucrtd:cfout.obj
 0001:0008cc90       ?add_carry@__crt_strtox@@YAIAAIII@Z 1008dc90 f i libucrtd:cfout.obj
 0001:0008ccd0       ?add_multiply_carry@__crt_strtox@@YAIAAIIII@Z 1008dcd0 f i libucrtd:cfout.obj
 0001:0008cd10       ?bit_scan_reverse@__crt_strtox@@YAII@Z 1008dd10 f i libucrtd:cfout.obj
 0001:0008cd40       ?count_sequential_high_zeroes@__crt_strtox@@YAII@Z 1008dd40 f i libucrtd:cfout.obj
 0001:0008cd80       ?divide@__crt_strtox@@YA_KAAUbig_integer@1@ABU21@@Z 1008dd80 f i libucrtd:cfout.obj
 0001:0008d800       ?is_zero@__crt_strtox@@YA_NABUbig_integer@1@@Z 1008e800 f i libucrtd:cfout.obj
 0001:0008d830       ?make_big_integer@__crt_strtox@@YA?AUbig_integer@1@_K@Z 1008e830 f i libucrtd:cfout.obj
 0001:0008d8e0       ?make_big_integer_power_of_two@__crt_strtox@@YA?AUbig_integer@1@I@Z 1008e8e0 f i libucrtd:cfout.obj
 0001:0008d990       ?multiply@__crt_strtox@@YA_NAAUbig_integer@1@ABU21@@Z 1008e990 f i libucrtd:cfout.obj
 0001:0008dd10       ?multiply@__crt_strtox@@YA_NAAUbig_integer@1@I@Z 1008ed10 f i libucrtd:cfout.obj
 0001:0008dde0       ?multiply_64_32@__crt_strtox@@YA_K_KI@Z 1008ede0 f i libucrtd:cfout.obj
 0001:0008de00       ?multiply_by_power_of_ten@__crt_strtox@@YA_NAAUbig_integer@1@I@Z 1008ee00 f i libucrtd:cfout.obj
 0001:0008dfa0       ?multiply_core@__crt_strtox@@YAIQAIII@Z 1008efa0 f i libucrtd:cfout.obj
 0001:0008e010       ?shift_left@__crt_strtox@@YA_NAAUbig_integer@1@I@Z 1008f010 f i libucrtd:cfout.obj
 0001:0008e360       ___acrt_fltout             1008f360 f   libucrtd:cfout.obj
 0001:0008e710       __fcloseall                1008f710 f   libucrtd:closeall.obj
 0001:0008e840       __isatty                   1008f840 f   libucrtd:isatty.obj
 0001:0008e910       ??$?RUlconv@@@__crt_internal_free_policy@@QBEXQBUlconv@@@Z 1008f910 f i libucrtd:initmon.obj
 0001:0008e930       ??0?$__crt_unique_heap_ptr@Ulconv@@U__crt_internal_free_policy@@@@QAE@QAUlconv@@@Z 1008f930 f i libucrtd:initmon.obj
 0001:0008e950       ??1?$__crt_unique_heap_ptr@Ulconv@@U__crt_internal_free_policy@@@@QAE@XZ 1008f950 f i libucrtd:initmon.obj
 0001:0008e970       ?detach@?$__crt_unique_heap_ptr@Ulconv@@U__crt_internal_free_policy@@@@QAEPAUlconv@@XZ 1008f970 f i libucrtd:initmon.obj
 0001:0008e9a0       ?release@?$__crt_unique_heap_ptr@Ulconv@@U__crt_internal_free_policy@@@@QAEXXZ 1008f9a0 f i libucrtd:initmon.obj
 0001:0008e9d0       ___acrt_locale_free_monetary 1008f9d0 f   libucrtd:initmon.obj
 0001:0008eb80       ___acrt_locale_initialize_monetary 1008fb80 f   libucrtd:initmon.obj
 0001:0008f220       ___acrt_locale_free_numeric 10090220 f   libucrtd:initnum.obj
 0001:0008f2d0       ___acrt_locale_initialize_numeric 100902d0 f   libucrtd:initnum.obj
 0001:0008f720       ??$?RU__crt_lc_time_data@@@__crt_internal_free_policy@@QBEXQBU__crt_lc_time_data@@@Z 10090720 f i libucrtd:inittime.obj
 0001:0008f800       ??0?$__crt_unique_heap_ptr@U__crt_lc_time_data@@U__crt_internal_free_policy@@@@QAE@QAU__crt_lc_time_data@@@Z 10090800 f i libucrtd:inittime.obj
 0001:0008f820       ??1?$__crt_unique_heap_ptr@U__crt_lc_time_data@@U__crt_internal_free_policy@@@@QAE@XZ 10090820 f i libucrtd:inittime.obj
 0001:0008f840       ??B?$__crt_unique_heap_ptr@U__crt_lc_time_data@@U__crt_internal_free_policy@@@@QBE_NXZ 10090840 f i libucrtd:inittime.obj
 0001:0008f860       ?detach@?$__crt_unique_heap_ptr@U__crt_lc_time_data@@U__crt_internal_free_policy@@@@QAEPAU__crt_lc_time_data@@XZ 10090860 f i libucrtd:inittime.obj
 0001:0008f8d0       ?get@?$__crt_unique_heap_ptr@U__crt_lc_time_data@@U__crt_internal_free_policy@@@@QBEPAU__crt_lc_time_data@@XZ 100908d0 f i libucrtd:inittime.obj
 0001:0008fda0       ?is_valid@?$__crt_unique_heap_ptr@U__crt_lc_time_data@@U__crt_internal_free_policy@@@@QBE_NXZ 10090da0 f i libucrtd:inittime.obj
 0001:0008fdd0       ?release@?$__crt_unique_heap_ptr@U__crt_lc_time_data@@U__crt_internal_free_policy@@@@QAEXXZ 10090dd0 f i libucrtd:inittime.obj
 0001:0008fe00       ___acrt_locale_free_time   10090e00 f   libucrtd:inittime.obj
 0001:0008ff50       ___acrt_locale_initialize_time 10090f50 f   libucrtd:inittime.obj
 0001:0008ffd0       ___pctype_func             10090fd0 f   libucrtd:ctype.obj
 0001:00090010       ___pwctype_func            10091010 f   libucrtd:ctype.obj
 0001:000904f0       _wcsncat_s                 100914f0 f   libucrtd:wcsncat_s.obj
 0001:00090510       _wcscmp                    10091510 f   libucrtd:wcscmp.obj
 0001:00090590       _wcscspn                   10091590 f   libucrtd:wcscspn.obj
 0001:00090600       _wcspbrk                   10091600 f   libucrtd:wcspbrk.obj
 0001:00090660       ??0?$__crt_scoped_stack_ptr@_W@@QAE@U?$__crt_scoped_stack_ptr_tag@_W@@@Z 10091660 f i libucrtd:getstringtypea.obj
 0001:00090680       ??0?$__crt_scoped_stack_ptr_tag@_W@@QAE@QA_W@Z 10091680 f i libucrtd:getstringtypea.obj
 0001:000906a0       ??1?$__crt_scoped_stack_ptr@_W@@QAE@XZ 100916a0 f i libucrtd:getstringtypea.obj
 0001:000906c0       ?get@?$__crt_scoped_stack_ptr@_W@@QBEPA_WXZ 100916c0 f i libucrtd:getstringtypea.obj
 0001:000906e0       __MallocaComputeSize       100916e0 f i libucrtd:getstringtypea.obj
 0001:00090710       __MarkAllocaS              10091710 f i libucrtd:getstringtypea.obj
 0001:00090740       ___acrt_GetStringTypeA     10091740 f   libucrtd:getstringtypea.obj
 0001:000908f0       __freea_crt                100918f0 f i libucrtd:getstringtypea.obj
 0001:000914c0       ___acrt_get_qualified_locale 100924c0 f   libucrtd:get_qualified_locale.obj
 0001:000924d0       ___acrt_get_qualified_locale_downlevel 100934d0 f   libucrtd:getqloc_downlevel.obj
 0001:00092770       _localeconv                10093770 f   libucrtd:localeconv.obj
 0001:000927b0       ??$?RU__crt_lowio_handle_data@@@__crt_internal_free_policy@@QBEXQBU__crt_lowio_handle_data@@@Z 100937b0 f i libucrtd:osfinfo.obj
 0001:000927d0       ??0?$__crt_unique_heap_ptr@U__crt_lowio_handle_data@@U__crt_internal_free_policy@@@@QAE@QAU__crt_lowio_handle_data@@@Z 100937d0 f i libucrtd:osfinfo.obj
 0001:000927f0       ??1?$__crt_unique_heap_ptr@U__crt_lowio_handle_data@@U__crt_internal_free_policy@@@@QAE@XZ 100937f0 f i libucrtd:osfinfo.obj
 0001:00092810       ??B?$__crt_unique_heap_ptr@U__crt_lowio_handle_data@@U__crt_internal_free_policy@@@@QBE_NXZ 10093810 f i libucrtd:osfinfo.obj
 0001:00092830       ?detach@?$__crt_unique_heap_ptr@U__crt_lowio_handle_data@@U__crt_internal_free_policy@@@@QAEPAU__crt_lowio_handle_data@@XZ 10093830 f i libucrtd:osfinfo.obj
 0001:00092860       ?get@?$__crt_unique_heap_ptr@U__crt_lowio_handle_data@@U__crt_internal_free_policy@@@@QBEPAU__crt_lowio_handle_data@@XZ 10093860 f i libucrtd:osfinfo.obj
 0001:00092880       ?is_valid@?$__crt_unique_heap_ptr@U__crt_lowio_handle_data@@U__crt_internal_free_policy@@@@QBE_NXZ 10093880 f i libucrtd:osfinfo.obj
 0001:000928b0       ?release@?$__crt_unique_heap_ptr@U__crt_lowio_handle_data@@U__crt_internal_free_policy@@@@QAEXXZ 100938b0 f i libucrtd:osfinfo.obj
 0001:000928e0       ___acrt_lowio_create_handle_array 100938e0 f   libucrtd:osfinfo.obj
 0001:00092a40       ___acrt_lowio_destroy_handle_array 10093a40 f   libucrtd:osfinfo.obj
 0001:00092aa0       ___acrt_lowio_ensure_fh_exists 10093aa0 f   libucrtd:osfinfo.obj
 0001:00092c00       ___acrt_lowio_lock_fh      10093c00 f   libucrtd:osfinfo.obj
 0001:00092c30       ___acrt_lowio_set_os_handle 10093c30 f   libucrtd:osfinfo.obj
 0001:00092d00       ___acrt_lowio_unlock_fh    10093d00 f   libucrtd:osfinfo.obj
 0001:00092d30       __alloc_osfhnd             10093d30 f   libucrtd:osfinfo.obj
 0001:00092f10       __free_osfhnd              10093f10 f   libucrtd:osfinfo.obj
 0001:00093000       __get_osfhandle            10094000 f   libucrtd:osfinfo.obj
 0001:00093180       __open_osfhandle           10094180 f   libucrtd:osfinfo.obj
 0001:00094490       __i64toa                   10095490 f   libucrtd:xtoa.obj
 0001:000944e0       __i64toa_s                 100954e0 f   libucrtd:xtoa.obj
 0001:00094530       __i64tow                   10095530 f   libucrtd:xtoa.obj
 0001:00094580       __i64tow_s                 10095580 f   libucrtd:xtoa.obj
 0001:000945d0       __itoa                     100955d0 f   libucrtd:xtoa.obj
 0001:00094620       __itoa_s                   10095620 f   libucrtd:xtoa.obj
 0001:00094670       __itow                     10095670 f   libucrtd:xtoa.obj
 0001:000946c0       __itow_s                   100956c0 f   libucrtd:xtoa.obj
 0001:00094710       __ltoa                     10095710 f   libucrtd:xtoa.obj
 0001:00094760       __ltoa_s                   10095760 f   libucrtd:xtoa.obj
 0001:000947b0       __ltow                     100957b0 f   libucrtd:xtoa.obj
 0001:00094800       __ltow_s                   10095800 f   libucrtd:xtoa.obj
 0001:00094850       __ui64toa                  10095850 f   libucrtd:xtoa.obj
 0001:00094880       __ui64toa_s                10095880 f   libucrtd:xtoa.obj
 0001:000948b0       __ui64tow                  100958b0 f   libucrtd:xtoa.obj
 0001:000948e0       __ui64tow_s                100958e0 f   libucrtd:xtoa.obj
 0001:00094910       __ultoa                    10095910 f   libucrtd:xtoa.obj
 0001:00094940       __ultoa_s                  10095940 f   libucrtd:xtoa.obj
 0001:00094970       __ultow                    10095970 f   libucrtd:xtoa.obj
 0001:000949a0       __ultow_s                  100959a0 f   libucrtd:xtoa.obj
 0001:00094db0       __mbstowcs_l               10095db0 f   libucrtd:mbstowcs.obj
 0001:00094dd0       __mbstowcs_s_l             10095dd0 f   libucrtd:mbstowcs.obj
 0001:00095190       _mbstowcs                  10096190 f   libucrtd:mbstowcs.obj
 0001:000951e0       _mbstowcs_s                100961e0 f   libucrtd:mbstowcs.obj
 0001:000958d0       __wcstombs_l               100968d0 f   libucrtd:wcstombs.obj
 0001:000958f0       __wcstombs_s_l             100968f0 f   libucrtd:wcstombs.obj
 0001:00095c60       _wcstombs                  10096c60 f   libucrtd:wcstombs.obj
 0001:00095c80       _wcstombs_s                10096c80 f   libucrtd:wcstombs.obj
 0001:00095cb0       ___acrt_OutputDebugStringA@4 10096cb0 f   libucrtd:outputdebugstringa.obj
 0001:00095d40       __malloc_base              10096d40 f   libucrtd:malloc_base.obj
 0001:00095ed0       ___acrt_DownlevelLCIDToLocaleName 10096ed0 f   libucrtd:lcidtoname_downlevel.obj
 0001:00095fa0       ___acrt_DownlevelLocaleNameToLCID 10096fa0 f   libucrtd:lcidtoname_downlevel.obj
 0001:00095fe0       ___ascii_wcsnicmp          10096fe0 f   libucrtd:wcsnicmp.obj
 0001:00096070       __towlower_fast_internal   10097070 f i libucrtd:wcsnicmp.obj
 0001:000960b0       __towlower_internal        100970b0 f i libucrtd:wcsnicmp.obj
 0001:000960f0       __wcsnicmp                 100970f0 f   libucrtd:wcsnicmp.obj
 0001:00096230       __wcsnicmp_l               10097230 f   libucrtd:wcsnicmp.obj
 0001:00096430       __strnicmp                 10097430 f   libucrtd:strnicmp.obj
 0001:000965f0       __strnicmp_l               100975f0 f   libucrtd:strnicmp.obj
 0001:000971f0       ??$tsopen_nolock@PAHABQAHABQBDABHABHABHABH@?$__crt_char_traits@D@@SAH$$QAPAHABQAHABQBDABH333@Z 100981f0 f i libucrtd:open.obj
 0001:00097230       ??$tsopen_nolock@PAHABQAHABQB_WABHABHABHABH@?$__crt_char_traits@_W@@SAH$$QAPAHABQAHABQB_WABH333@Z 10098230 f i libucrtd:open.obj
 0001:00097270       ??$tsopen_nolock@PAHPAHABQBDABHHABHH@?$__crt_char_traits@D@@SAH$$QAPAH0ABQBDABH$$QAH23@Z 10098270 f i libucrtd:open.obj
 0001:000972b0       ??$tsopen_nolock@PAHPAHABQB_WABHHABHH@?$__crt_char_traits@_W@@SAH$$QAPAH0ABQB_WABH$$QAH23@Z 100982b0 f i libucrtd:open.obj
 0001:00097e50       __open                     10098e50 f   libucrtd:open.obj
 0001:00097e90       __sopen                    10098e90 f   libucrtd:open.obj
 0001:00097f00       __sopen_dispatch           10098f00 f   libucrtd:open.obj
 0001:00097f30       __sopen_nolock             10098f30 f   libucrtd:open.obj
 0001:00097fb0       __sopen_s                  10098fb0 f   libucrtd:open.obj
 0001:00097fe0       __wopen                    10098fe0 f   libucrtd:open.obj
 0001:00098020       __wsopen                   10099020 f   libucrtd:open.obj
 0001:00098090       __wsopen_dispatch          10099090 f   libucrtd:open.obj
 0001:000980c0       __wsopen_nolock            100990c0 f   libucrtd:open.obj
 0001:00098650       __wsopen_s                 10099650 f   libucrtd:open.obj
 0001:00098680       ___p__commode              10099680 f   libucrtd:ncommode.obj
 0001:000988a0       __commit                   100998a0 f   libucrtd:commit.obj
 0001:00099f60       __utf8_no_of_trailbytes    1009af60 f i libucrtd:write.obj
 0001:00099f80       __write                    1009af80 f   libucrtd:write.obj
 0001:0009a1d0       __write_nolock             1009b1d0 f   libucrtd:write.obj
 0001:0009ad90       __lseek                    1009bd90 f   libucrtd:lseek.obj
 0001:0009adb0       __lseek_nolock             1009bdb0 f   libucrtd:lseek.obj
 0001:0009add0       __lseeki64                 1009bdd0 f   libucrtd:lseek.obj
 0001:0009adf0       __lseeki64_nolock          1009bdf0 f   libucrtd:lseek.obj
 0001:0009ae10       ___acrt_stdio_allocate_buffer_nolock 1009be10 f   libucrtd:_getbuf.obj
 0001:0009b040       _qsort                     1009c040 f   libucrtd:qsort.obj
 0001:0009b6c0       _strpbrk                   1009c6c0 f   libucrtd:strpbrk.obj
 0001:0009b700       ??B?$__crt_scoped_stack_ptr@_W@@QBE_NXZ 1009c700 f i libucrtd:lcmapstringa.obj
 0001:0009baf0       ___acrt_LCMapStringA       1009caf0 f   libucrtd:lcmapstringa.obj
 0001:0009bb80       __wcsnicoll                1009cb80 f   libucrtd:wcsnicol.obj
 0001:0009bd40       __wcsnicoll_l              1009cd40 f   libucrtd:wcsnicol.obj
 0001:0009bf90       __strnicoll                1009cf90 f   libucrtd:strnicol.obj
