 OPOSBiometrics

 Timestamp is 5ed45723 (Mon Jun  1 10:17:23 2020)

 Preferred load address is 10000000

 Start         Length     Name                   Class
 0001:00000000 00000d90H .text$di                CODE
 0001:00000d90 000aa360H .text$mn                CODE
 0001:000ab0f0 000001c0H .text$x                 CODE
 0001:000ab2b0 00000120H .text$yd                CODE
 0002:00000000 00000364H .idata$5                DATA
 0002:00000364 00000008H .00cfg                  DATA
 0002:0000036c 00000004H .CRT$XCA                DATA
 0002:00000370 00000004H .CRT$XCL                DATA
 0002:00000374 0000006cH .CRT$XCU                DATA
 0002:000003e0 00000004H .CRT$XCZ                DATA
 0002:000003e4 00000004H .CRT$XIA                DATA
 0002:000003e8 00000014H .CRT$XIC                DATA
 0002:000003fc 00000004H .CRT$XIZ                DATA
 0002:00000400 00000004H .CRT$XLA                DATA
 0002:00000404 00000004H .CRT$XLZ                DATA
 0002:00000408 00000004H .CRT$XPA                DATA
 0002:0000040c 00000008H .CRT$XPX                DATA
 0002:00000414 00000004H .CRT$XPXA               DATA
 0002:00000418 00000004H .CRT$XPZ                DATA
 0002:0000041c 00000004H .CRT$XTA                DATA
 0002:00000420 00000010H .CRT$XTZ                DATA
 0002:00000424 00000000H .gfids$y                DATA
 0002:00000430 000301e8H .rdata                  DATA
 0002:00030618 00000018H .rdata$T                DATA
 0002:00030630 0000033cH .rdata$r                DATA
 0002:0003096c 00000044H .rdata$sxdata           DATA
 0002:000309b0 00000404H .rdata$zzzdbg           DATA
 0002:00030db4 00000004H .rtc$IAA                DATA
 0002:00030db8 00000018H .rtc$IMZ                DATA
 0002:00030dd0 00000004H .rtc$IZZ                DATA
 0002:00030dd4 00000004H .rtc$TAA                DATA
 0002:00030dd8 00000018H .rtc$TMZ                DATA
 0002:00030df0 00000004H .rtc$TZZ                DATA
 0002:00030df4 00000004H .tls                    DATA
 0002:00030df8 00000004H .tls$                   DATA
 0002:00030dfc 00000004H .tls$ZZZ                DATA
 0002:00030e00 00000e4cH .xdata$x                DATA
 0002:00031c4c 00000004H ATL$__a                 DATA
 0002:00031c50 00000010H ATL$__z                 DATA
 0002:00031c60 000000acH .edata                  DATA
 0002:00031d0c 00000078H .idata$2                DATA
 0002:00031d84 00000014H .idata$3                DATA
 0002:00031d98 00000364H .idata$4                DATA
 0002:000320fc 00000d56H .idata$6                DATA
 0003:00000000 00000bb0H .data                   DATA
 0003:00000bb0 00000138H .data$r                 DATA
 0003:00000ce8 00003580H .bss                    DATA
 0004:00000000 00000220H .rsrc$01                DATA
 0004:00000220 000048b0H .rsrc$02                DATA

  Address         Publics by Value              Rva+Base       Lib:Object

 0000:00000000       ___enclave_config          00000000     <absolute>
 0000:00000000       ___guard_iat_count         00000000     <absolute>
 0000:00000000       ___guard_eh_cont_count     00000000     <absolute>
 0000:00000000       ___guard_iat_table         00000000     <absolute>
 0000:00000000       ___volatile_metadata       00000000     <absolute>
 0000:00000000       ___guard_longjmp_table     00000000     <absolute>
 0000:00000000       ___guard_eh_cont_table     00000000     <absolute>
 0000:00000000       ___arm64x_native_entrypoint 00000000     <absolute>
 0000:00000000       ___guard_fids_table        00000000     <absolute>
 0000:00000000       ___arm64x_redirection_metadata 00000000     <absolute>
 0000:00000000       ___hybrid_code_map_count   00000000     <absolute>
 0000:00000000       ___AbsoluteZero            00000000     <absolute>
 0000:00000000       __except_list              00000000     <absolute>
 0000:00000000       ___x64_code_ranges_to_entry_points 00000000     <absolute>
 0000:00000000       ___hybrid_code_map         00000000     <absolute>
 0000:00000000       ___guard_longjmp_count     00000000     <absolute>
 0000:00000000       ___guard_fids_count        00000000     <absolute>
 0000:00000000       ___dynamic_value_reloc_table 00000000     <absolute>
 0000:00000000       ___hybrid_auxiliary_iat    00000000     <absolute>
 0000:00000011       ___safe_se_handler_count   00000011     <absolute>
 0000:0000002c       __tls_array                0000002c     <absolute>
 0000:00000100       ___guard_flags             00000100     <absolute>
 0000:00000000       ___ImageBase               10000000     <linker-defined>
 0001:00000d90       ?_assert@@YAXPB_W0I@Z      10001d90 f   Assert.obj
 0001:00000ec0       ___local_stdio_printf_options 10001ec0 f i Assert.obj
 0001:00000ed0       ___vswprintf_l             10001ed0 f i Assert.obj
 0001:00000f00       __swprintf                 10001f00 f i Assert.obj
 0001:00000f60       __vswprintf_c_l            10001f60 f i Assert.obj
 0001:00000fd0       __vswprintf_l              10001fd0 f i Assert.obj
 0001:00001000       ?cw_memcpy@@YGHPADPB_WH@Z  10002000 f   CWString.obj
 0001:00001060       ?cw_memcpy@@YGHPA_WPBDH@Z  10002060 f   CWString.obj
 0001:000010c0       ?cw_memcpy@@YGHPADPBDH@Z   100020c0 f   CWString.obj
 0001:00001110       ?cw_memcpy@@YGHPA_WPB_WH@Z 10002110 f   CWString.obj
 0001:00001150       ?cw_memset@@YAXPADDH@Z     10002150 f   CWString.obj
 0001:00001170       ?cw_memset@@YAXPA_W_WH@Z   10002170 f   CWString.obj
 0001:00001190       ?cw_strlen@@YAHPBD@Z       10002190 f   CWString.obj
 0001:000011e0       ?cw_strlen@@YAHPB_W@Z      100021e0 f   CWString.obj
 0001:00001230       ?cw_strcpy@@YAHPADPB_W@Z   10002230 f   CWString.obj
 0001:00001250       ?cw_strcpy@@YAHPA_WPBD@Z   10002250 f   CWString.obj
 0001:00001270       ?cw_strcpy@@YAHPADPBD@Z    10002270 f   CWString.obj
 0001:00001290       ?cw_strcpy@@YAHPA_WPB_W@Z  10002290 f   CWString.obj
 0001:000012b0       ?cw_strcat@@YAHPADPB_W@Z   100022b0 f   CWString.obj
 0001:000012e0       ?cw_strcat@@YAHPA_WPBD@Z   100022e0 f   CWString.obj
 0001:00001310       ?cw_strcat@@YAHPADPBD@Z    10002310 f   CWString.obj
 0001:00001340       ?cw_strcat@@YAHPA_WPB_W@Z  10002340 f   CWString.obj
 0001:00001370       ?cw_dup@@YGXPBDAAHAAPA_W1@Z 10002370 f   CWString.obj
 0001:00001430       ?cw_dup@@YGXPB_WAAHAAPAD1@Z 10002430 f   CWString.obj
 0001:000014e0       ?DupChar@_CW@@AAEXXZ       100024e0 f   CWString.obj
 0001:00001530       ?DupWide@_CW@@AAEXXZ       10002530 f   CWString.obj
 0001:00001580       ?GetCharsMbcs@_CW@@QAEHXZ  10002580 f   CWString.obj
 0001:000015e0       ?GetCharsWide@_CW@@QAEHXZ  100025e0 f   CWString.obj
 0001:00001640       ?SetVARIANT_BOOL@OposVariant@@QAEXF@Z 10002640 f   OposVariant.obj
 0001:000016a0       ?SetVARIANT_BOOL_Ptr@OposVariant@@QAEXPAFAAJ@Z 100026a0 f   OposVariant.obj
 0001:000016f0       ?GetLONG@OposVariant@@QAEJXZ 100026f0 f   OposVariant.obj
 0001:00001780       ?ChangeLONG@OposVariant@@QAEXPAJAAJ@Z 10002780 f   OposVariant.obj
 0001:00001840       ?SetLONG@OposVariant@@QAEXJ@Z 10002840 f   OposVariant.obj
 0001:00001880       ?SetLONG_Ptr@OposVariant@@QAEXPAJAAJ@Z 10002880 f   OposVariant.obj
 0001:000018d0       ?ChangeCURRENCY@OposVariant@@QAEXPATtagCY@@AAJ@Z 100028d0 f   OposVariant.obj
 0001:00001990       ?SetCURRENCY@OposVariant@@QAEXTtagCY@@@Z 10002990 f   OposVariant.obj
 0001:000019d0       ?SetCURRENCY_Ptr@OposVariant@@QAEXPATtagCY@@AAJ@Z 100029d0 f   OposVariant.obj
 0001:00001a20       ?ChangeBSTR@OposVariant@@QAEXPAPA_WAAJ@Z 10002a20 f   OposVariant.obj
 0001:00001ae0       ?SetBSTR@OposVariant@@QAEXPA_WAAJ@Z 10002ae0 f   OposVariant.obj
 0001:00001b30       ?SetBSTR_Copy@OposVariant@@QAEXPA_WAAJ@Z 10002b30 f   OposVariant.obj
 0001:00001bd0       ?SetBSTR_OutPtr@OposVariant@@QAE_NPAPA_WAAJ@Z 10002bd0 f   OposVariant.obj
 0001:00001c20       ?SetBSTR_InOutPtr@OposVariant@@QAE_NPAPA_WAAJ@Z 10002c20 f   OposVariant.obj
 0001:00001c70       ?SetVARIANT@OposVariant@@QAEXAAUtagVARIANT@@GAAJ@Z 10002c70 f   OposVariant.obj
 0001:00001cf0       ?SetVARIANT_Ptr@OposVariant@@QAEXAAPAUtagVARIANT@@GAAJ@Z 10002cf0 f   OposVariant.obj
 0001:00001d90       ?SetString@OposVariant@@QAEXPB_WAAJ@Z 10002d90 f   OposVariant.obj
 0001:00001e20       ?SetDispatch_Ptr@OposVariant@@QAEXPAUIDispatch@@AAJ@Z 10002e20 f   OposVariant.obj
 0001:00001e90       ??0OposDispParms@@QAE@PAVOposVariant@@H@Z 10002e90 f   OposVariant.obj
 0001:00001f60       ??1OposDispParms@@QAE@XZ   10002f60 f   OposVariant.obj
 0001:00001fb0       ??$AtlMultiply@I@ATL@@YAJPAIII@Z 10002fb0 f i OposVariant.obj
 0001:00002010       ??0?$CHeapPtr@_WVCCRTAllocator@ATL@@@ATL@@QAE@XZ 10003010 f i OposVariant.obj
 0001:00002040       ??0?$CHeapPtrBase@_WVCCRTAllocator@ATL@@@ATL@@IAE@XZ 10003040 f i OposVariant.obj
 0001:00002060       ??0?$CSimpleArray@GV?$CSimpleArrayEqualHelper@G@ATL@@@ATL@@QAE@XZ 10003060 f i OposVariant.obj
 0001:000020a0       ??0?$CTraceCategoryEx@$00$0A@@ATL@@QAE@PB_W@Z 100030a0 f i OposVariant.obj
 0001:000020d0       ??0?$CTraceCategoryEx@$01$0A@@ATL@@QAE@PB_W@Z 100030d0 f i OposVariant.obj
 0001:00002100       ??0?$CTraceCategoryEx@$03$0A@@ATL@@QAE@PB_W@Z 10003100 f i OposVariant.obj
 0001:00002130       ??0?$CTraceCategoryEx@$07$0A@@ATL@@QAE@PB_W@Z 10003130 f i OposVariant.obj
 0001:00002160       ??0?$CTraceCategoryEx@$0BA@$0A@@ATL@@QAE@PB_W@Z 10003160 f i OposVariant.obj
 0001:00002190       ??0?$CTraceCategoryEx@$0BAA@$0A@@ATL@@QAE@PB_W@Z 10003190 f i OposVariant.obj
 0001:000021d0       ??0?$CTraceCategoryEx@$0BAAA@$0A@@ATL@@QAE@PB_W@Z 100031d0 f i OposVariant.obj
 0001:00002210       ??0?$CTraceCategoryEx@$0BAAAA@$0A@@ATL@@QAE@PB_W@Z 10003210 f i OposVariant.obj
 0001:00002250       ??0?$CTraceCategoryEx@$0BAAAAA@$0A@@ATL@@QAE@PB_W@Z 10003250 f i OposVariant.obj
 0001:00002290       ??0?$CTraceCategoryEx@$0CA@$0A@@ATL@@QAE@PB_W@Z 10003290 f i OposVariant.obj
 0001:000022c0       ??0?$CTraceCategoryEx@$0CAA@$0A@@ATL@@QAE@PB_W@Z 100032c0 f i OposVariant.obj
 0001:00002300       ??0?$CTraceCategoryEx@$0CAAA@$0A@@ATL@@QAE@PB_W@Z 10003300 f i OposVariant.obj
 0001:00002340       ??0?$CTraceCategoryEx@$0CAAAA@$0A@@ATL@@QAE@PB_W@Z 10003340 f i OposVariant.obj
 0001:00002380       ??0?$CTraceCategoryEx@$0CAAAAA@$0A@@ATL@@QAE@PB_W@Z 10003380 f i OposVariant.obj
 0001:000023c0       ??0?$CTraceCategoryEx@$0EA@$0A@@ATL@@QAE@PB_W@Z 100033c0 f i OposVariant.obj
 0001:000023f0       ??0?$CTraceCategoryEx@$0EAA@$0A@@ATL@@QAE@PB_W@Z 100033f0 f i OposVariant.obj
 0001:00002430       ??0?$CTraceCategoryEx@$0EAAA@$0A@@ATL@@QAE@PB_W@Z 10003430 f i OposVariant.obj
 0001:00002470       ??0?$CTraceCategoryEx@$0EAAAA@$0A@@ATL@@QAE@PB_W@Z 10003470 f i OposVariant.obj
 0001:000024b0       ??0?$CTraceCategoryEx@$0EAAAAA@$0A@@ATL@@QAE@PB_W@Z 100034b0 f i OposVariant.obj
 0001:000024f0       ??0?$CTraceCategoryEx@$0IA@$0A@@ATL@@QAE@PB_W@Z 100034f0 f i OposVariant.obj
 0001:00002530       ??0?$CTraceCategoryEx@$0IAA@$0A@@ATL@@QAE@PB_W@Z 10003530 f i OposVariant.obj
 0001:00002570       ??0?$CTraceCategoryEx@$0IAAA@$0A@@ATL@@QAE@PB_W@Z 10003570 f i OposVariant.obj
 0001:000025b0       ??0?$CTraceCategoryEx@$0IAAAA@$0A@@ATL@@QAE@PB_W@Z 100035b0 f i OposVariant.obj
 0001:000025f0       ??0CAtlComModule@ATL@@QAE@XZ 100035f0 f i OposVariant.obj
 0001:000026d0       ??0CAtlWinModule@ATL@@QAE@XZ 100036d0 f i OposVariant.obj
 0001:00002760       ??0CComCriticalSection@ATL@@QAE@XZ 10003760 f i OposVariant.obj
 0001:00002790       ??0CPreserveLastError@ATL@@QAE@XZ 10003790 f i OposVariant.obj
 0001:000027d0       ??0CTraceFileAndLineInfo@ATL@@QAE@PBDH@Z 100037d0 f i OposVariant.obj
 0001:00002800       ??0_ATL_COM_MODULE70@ATL@@QAE@XZ 10003800 f i OposVariant.obj
 0001:00002830       ??0_ATL_WIN_MODULE70@ATL@@QAE@XZ 10003830 f i OposVariant.obj
 0001:00002870       ??1?$CHeapPtr@_WVCCRTAllocator@ATL@@@ATL@@QAE@XZ 10003870 f i OposVariant.obj
 0001:000028a0       ??1?$CHeapPtrBase@_WVCCRTAllocator@ATL@@@ATL@@QAE@XZ 100038a0 f i OposVariant.obj
 0001:000028d0       ??1?$CSimpleArray@GV?$CSimpleArrayEqualHelper@G@ATL@@@ATL@@QAE@XZ 100038d0 f i OposVariant.obj
 0001:00002900       ??1CAtlComModule@ATL@@QAE@XZ 10003900 f i OposVariant.obj
 0001:00002930       ??1CAtlWinModule@ATL@@QAE@XZ 10003930 f i OposVariant.obj
 0001:00002960       ??1CComBSTR@ATL@@QAE@XZ    10003960 f i OposVariant.obj
 0001:000029a0       ??1CComCriticalSection@ATL@@QAE@XZ 100039a0 f i OposVariant.obj
 0001:000029c0       ??1CPreserveLastError@ATL@@QAE@XZ 100039c0 f i OposVariant.obj
 0001:00002a00       ??1_ATL_COM_MODULE70@ATL@@QAE@XZ 10003a00 f i OposVariant.obj
 0001:00002a30       ??1_ATL_WIN_MODULE70@ATL@@QAE@XZ 10003a30 f i OposVariant.obj
 0001:00002a70       ??1stringdispid@CComTypeInfoHolder@ATL@@QAE@XZ 10003a70 f i OposVariant.obj
 0001:00002aa0       ??A?$CSimpleArray@GV?$CSimpleArrayEqualHelper@G@ATL@@@ATL@@QAEAAGH@Z 10003aa0 f i OposVariant.obj
 0001:00002b20       ??B?$CHeapPtrBase@_WVCCRTAllocator@ATL@@@ATL@@QBEPA_WXZ 10003b20 f i OposVariant.obj
 0001:00002b40       ??B?$CTraceCategoryEx@$01$0A@@ATL@@QAEIXZ 10003b40 f i OposVariant.obj
 0001:00002b60       ??B?$CTraceCategoryEx@$0CA@$0A@@ATL@@QAEIXZ 10003b60 f i OposVariant.obj
 0001:00002b80       ??RCTraceFileAndLineInfo@ATL@@QBAXHIPB_WZZ 10003b80 f i OposVariant.obj
 0001:00002c20       ??_Estringdispid@CComTypeInfoHolder@ATL@@QAEPAXI@Z 10003c20 f i OposVariant.obj
 0001:00002cb0       ??_H@YGXPAXIIP6EPAX0@Z@Z   10003cb0 f i OposVariant.obj
 0001:00002d20       ??_I@YGXPAXIIP6EX0@Z@Z     10003d20 f i OposVariant.obj
 0001:00002da0       ?Allocate@?$CHeapPtr@_WVCCRTAllocator@ATL@@@ATL@@QAE_NI@Z 10003da0 f i OposVariant.obj
 0001:00002e30       ?Allocate@CCRTAllocator@ATL@@SAPAXI@Z 10003e30 f i OposVariant.obj
 0001:00002e50       ?AllocateBytes@?$CHeapPtrBase@_WVCCRTAllocator@ATL@@@ATL@@QAE_NI@Z 10003e50 f i OposVariant.obj
 0001:00002ec0       ?AtlWinModuleInit@ATL@@YGJPAU_ATL_WIN_MODULE70@1@@Z 10003ec0 f i OposVariant.obj
 0001:00002f90       ?AtlWinModuleTerm@ATL@@YGJPAU_ATL_WIN_MODULE70@1@PAUHINSTANCE__@@@Z 10003f90 f i OposVariant.obj
 0001:00003050       ?Clear@OposVariant@@QAEJXZ 10004050 f i OposVariant.obj
 0001:00003090       ?Free@?$CHeapPtrBase@_WVCCRTAllocator@ATL@@@ATL@@QAEXXZ 10004090 f i OposVariant.obj
 0001:000030d0       ?Free@CCRTAllocator@ATL@@SAXPAX@Z 100040d0 f i OposVariant.obj
 0001:000030f0       ?GetCategoryName@CTrace@ATL@@CAPA_WI@Z 100040f0 f i OposVariant.obj
 0001:00003140       ?GetModuleInstance@CAtlBaseModule@ATL@@QAEPAUHINSTANCE__@@XZ 10004140 f i OposVariant.obj
 0001:00003160       ?GetSize@?$CSimpleArray@GV?$CSimpleArrayEqualHelper@G@ATL@@@ATL@@QBEHXZ 10004160 f i OposVariant.obj
 0001:00003180       ?Init@CComCriticalSection@ATL@@QAEJXZ 10004180 f i OposVariant.obj
 0001:000031e0       ?RegisterCategory@CTrace@ATL@@SAXPB_WI@Z 100041e0 f i OposVariant.obj
 0001:00003270       ?RemoveAll@?$CSimpleArray@GV?$CSimpleArrayEqualHelper@G@ATL@@@ATL@@QAEXXZ 10004270 f i OposVariant.obj
 0001:000032f0       ?Term@CAtlComModule@ATL@@QAEXXZ 100042f0 f i OposVariant.obj
 0001:000033b0       ?Term@CAtlWinModule@ATL@@QAEXXZ 100043b0 f i OposVariant.obj
 0001:000033e0       ?Term@CComCriticalSection@ATL@@QAEJXZ 100043e0 f i OposVariant.obj
 0001:00003420       ?TraceV@CTrace@ATL@@CAXPBDHIIPB_W@Z 10004420 f i OposVariant.obj
 0001:000036a0       ?TraceV@CTrace@ATL@@SAXPBDHIIPB_WPAD@Z 100046a0 f i OposVariant.obj
 0001:000037e0       ?_AtlInitializeCriticalSectionEx@ATL@@YAHPAU_RTL_CRITICAL_SECTION@@KK@Z 100047e0 f i OposVariant.obj
 0001:00003810       ?_AtlRaiseException@ATL@@YAXKK@Z 10004810 f i OposVariant.obj
 0001:00003840       _HRESULT_FROM_WIN32        10004840 f i OposVariant.obj
 0001:00003880       __vswprintf_s_l            10004880 f i OposVariant.obj
 0001:000038f0       _swprintf_s                100048f0 f i OposVariant.obj
 0001:00003950       ?ObjectMain@CComObjectRootBase@ATL@@SGX_N@Z 10004950 f i Biometrics.obj
 0001:00003960       ?GetCategoryMap@CComObjectRootBase@ATL@@SAPBU_ATL_CATMAP_ENTRY@2@XZ 10004960 f i Biometrics.obj
 0001:00003970       ?GetObjectDescription@?$CComCoClass@VCOPOSBiometrics@@$1?CLSID_OPOSBiometrics@@3U_GUID@@B@ATL@@SGPB_WXZ 10004970 f i Biometrics.obj
 0001:00003980       ?UpdateRegistry@COPOSBiometrics@@SGJH@Z 10004980 f i Biometrics.obj
 0001:000039a0       ?CreateInstance@?$CComCreator@V?$CComObjectCached@VCComClassFactory@ATL@@@ATL@@@ATL@@SGJPAXABU_GUID@@PAPAX@Z 100049a0 f i Biometrics.obj
 0001:00003b20       ?CreateInstance@?$CComCreator2@V?$CComCreator@V?$CComObject@VCOPOSBiometrics@@@ATL@@@ATL@@V?$CComCreator@V?$CComAggObject@VCOPOSBiometrics@@@ATL@@@2@@ATL@@SGJPAXABU_GUID@@PAPAX@Z 10004b20 f i Biometrics.obj
 0001:00003cd0       _DllGetClassObject@12      10004cd0 f   Biometrics.obj
 0001:00003d00       _DllCanUnloadNow@0         10004d00 f   Biometrics.obj
 0001:00003d40       _DllRegisterServer@0       10004d40 f   Biometrics.obj
 0001:00003d60       _DllUnregisterServer@0     10004d60 f   Biometrics.obj
 0001:00003ef0       _DllMain@12                10004ef0 f   Biometrics.obj
 0001:00003f50       ??$?2G@Wrapper@?$CSimpleArray@GV?$CSimpleArrayEqualHelper@G@ATL@@@ATL@@SAPAXIPAG@Z 10004f50 f i Biometrics.obj
 0001:00003f60       ??$?2PA_W@?$Wrapper@PA_W@?$CSimpleMap@PA_WPA_WVCExpansionVectorEqualHelper@ATL@@@ATL@@SAPAXIPAPA_W@Z 10004f60 f i Biometrics.obj
 0001:00003f70       ??$?4UITypeInfo2@@@?$CComPtr@UITypeInfo@@@ATL@@QAEPAUITypeInfo@@ABV?$CComPtr@UITypeInfo2@@@1@@Z 10004f70 f i Biometrics.obj
 0001:00003fd0       ??$AtlAdd@K@ATL@@YAJPAKKK@Z 10004fd0 f i Biometrics.obj
 0001:00004010       ??$AtlAdd@_K@ATL@@YAJPA_K_K1@Z 10005010 f i Biometrics.obj
 0001:00004080       ??$AtlAddThrow@K@ATL@@YAKKK@Z 10005080 f i Biometrics.obj
 0001:00004100       ??$AtlModuleRegisterWndClassInfoT@VAtlModuleRegisterWndClassInfoParamW@ATL@@@ATL@@YAGPAU_ATL_BASE_MODULE70@0@PAU_ATL_WIN_MODULE70@0@PAU_ATL_WNDCLASSINFOW@0@PAP6GJPAUHWND__@@IIJ@ZVAtlModuleRegisterWndClassInfoParamW@0@@Z 10005100 f i Biometrics.obj
 0001:00004510       ??$AtlMultiply@H@ATL@@YAJPAHHH@Z 10005510 f i Biometrics.obj
 0001:00004590       ??$AtlMultiply@K@ATL@@YAJPAKKK@Z 10005590 f i Biometrics.obj
 0001:000045f0       ??$AtlMultiplyThrow@I@ATL@@YAIII@Z 100055f0 f i Biometrics.obj
 0001:00004670       ??$QueryInterface@UIPersistStream@@@IUnknown@@QAGJPAPAUIPersistStream@@@Z 10005670 f i Biometrics.obj
 0001:000046a0       ??$QueryInterface@UITypeInfo2@@@IUnknown@@QAGJPAPAUITypeInfo2@@@Z 100056a0 f i Biometrics.obj
 0001:000046d0       ??0?$CAtlModuleT@VCComModule@ATL@@@ATL@@QAE@XZ 100056d0 f i Biometrics.obj
 0001:00004700       ??0?$CAtlSafeAllocBufferManager@VCCRTAllocator@ATL@@@_ATL_SAFE_ALLOCA_IMPL@ATL@@QAE@XZ 10005700 f i Biometrics.obj
 0001:00004720       ??0?$CAutoVectorPtr@_W@ATL@@QAE@XZ 10005720 f i Biometrics.obj
 0001:00004740       ??0?$CComAggObject@VCOPOSBiometrics@@@ATL@@QAE@PAX@Z 10005740 f i Biometrics.obj
 0001:000047b0       ??0?$CComContainedObject@VCOPOSBiometrics@@@ATL@@QAE@PAX@Z 100057b0 f i Biometrics.obj
 0001:000048c0       ??0?$CComCritSecLock@VCComCriticalSection@ATL@@@ATL@@QAE@AAVCComCriticalSection@1@_N@Z 100058c0 f i Biometrics.obj
 0001:00004920       ??0?$CComEnum@UIEnumConnectionPoints@@$1?_GUID_b196b285_bab4_101a_b69c_00aa00341d07@@3U__s_GUID@@BPAUIConnectionPoint@@V?$_CopyInterface@UIConnectionPoint@@@ATL@@VCComSingleThreadModel@6@@ATL@@QAE@XZ 10005920 f i Biometrics.obj
 0001:00004960       ??0?$CComEnum@UIEnumConnections@@$1?_GUID_b196b287_bab4_101a_b69c_00aa00341d07@@3U__s_GUID@@BUtagCONNECTDATA@@V?$_Copy@UtagCONNECTDATA@@@ATL@@VCComSingleThreadModel@6@@ATL@@QAE@XZ 10005960 f i Biometrics.obj
 0001:000049a0       ??0?$CComEnumImpl@UIEnumConnectionPoints@@$1?_GUID_b196b285_bab4_101a_b69c_00aa00341d07@@3U__s_GUID@@BPAUIConnectionPoint@@V?$_CopyInterface@UIConnectionPoint@@@ATL@@@ATL@@QAE@XZ 100059a0 f i Biometrics.obj
 0001:00004a00       ??0?$CComEnumImpl@UIEnumConnections@@$1?_GUID_b196b287_bab4_101a_b69c_00aa00341d07@@3U__s_GUID@@BUtagCONNECTDATA@@V?$_Copy@UtagCONNECTDATA@@@ATL@@@ATL@@QAE@XZ 10005a00 f i Biometrics.obj
 0001:00004a60       ??0?$CComObject@V?$CComEnum@UIEnumConnectionPoints@@$1?_GUID_b196b285_bab4_101a_b69c_00aa00341d07@@3U__s_GUID@@BPAUIConnectionPoint@@V?$_CopyInterface@UIConnectionPoint@@@ATL@@VCComSingleThreadModel@6@@ATL@@@ATL@@QAE@PAX@Z 10005a60 f i Biometrics.obj
 0001:00004ab0       ??0?$CComObject@V?$CComEnum@UIEnumConnections@@$1?_GUID_b196b287_bab4_101a_b69c_00aa00341d07@@3U__s_GUID@@BUtagCONNECTDATA@@V?$_Copy@UtagCONNECTDATA@@@ATL@@VCComSingleThreadModel@6@@ATL@@@ATL@@QAE@PAX@Z 10005ab0 f i Biometrics.obj
 0001:00004b00       ??0?$CComObject@VCOPOSBiometrics@@@ATL@@QAE@PAX@Z 10005b00 f i Biometrics.obj
 0001:00004c20       ??0?$CComObjectCached@VCComClassFactory@ATL@@@ATL@@QAE@PAX@Z 10005c20 f i Biometrics.obj
 0001:00004c60       ??0?$CComObjectRootEx@VCComMultiThreadModel@ATL@@@ATL@@QAE@XZ 10005c60 f i Biometrics.obj
 0001:00004ca0       ??0?$CComObjectRootEx@VCComSingleThreadModel@ATL@@@ATL@@QAE@XZ 10005ca0 f i Biometrics.obj
 0001:00004cd0       ??0?$CComPtr@UIAdviseSink@@@ATL@@QAE@PAUIAdviseSink@@@Z 10005cd0 f i Biometrics.obj
 0001:00004d00       ??0?$CComPtr@UICatRegister@@@ATL@@QAE@XZ 10005d00 f i Biometrics.obj
 0001:00004d30       ??0?$CComPtr@UIConnectionPoint@@@ATL@@QAE@XZ 10005d30 f i Biometrics.obj
 0001:00004d60       ??0?$CComPtr@UIConnectionPointContainer@@@ATL@@QAE@XZ 10005d60 f i Biometrics.obj
 0001:00004d90       ??0?$CComPtr@UIDataObject@@@ATL@@QAE@XZ 10005d90 f i Biometrics.obj
 0001:00004dc0       ??0?$CComPtr@UIDispatch@@@ATL@@QAE@XZ 10005dc0 f i Biometrics.obj
 0001:00004df0       ??0?$CComPtr@UIOleClientSite@@@ATL@@QAE@PAUIOleClientSite@@@Z 10005df0 f i Biometrics.obj
 0001:00004e20       ??0?$CComPtr@UIOleControlSite@@@ATL@@QAE@XZ 10005e20 f i Biometrics.obj
 0001:00004e50       ??0?$CComPtr@UIOleInPlaceActiveObject@@@ATL@@QAE@XZ 10005e50 f i Biometrics.obj
 0001:00004e80       ??0?$CComPtr@UIOleInPlaceFrame@@@ATL@@QAE@XZ 10005e80 f i Biometrics.obj
 0001:00004eb0       ??0?$CComPtr@UIOleInPlaceObject@@@ATL@@QAE@XZ 10005eb0 f i Biometrics.obj
 0001:00004ee0       ??0?$CComPtr@UIOleInPlaceUIWindow@@@ATL@@QAE@XZ 10005ee0 f i Biometrics.obj
 0001:00004f10       ??0?$CComPtr@UIOleObject@@@ATL@@QAE@XZ 10005f10 f i Biometrics.obj
 0001:00004f40       ??0?$CComPtr@UIPersistStream@@@ATL@@QAE@XZ 10005f40 f i Biometrics.obj
 0001:00004f70       ??0?$CComPtr@UIPersistStreamInit@@@ATL@@QAE@XZ 10005f70 f i Biometrics.obj
 0001:00004fa0       ??0?$CComPtr@UIPointerInactive@@@ATL@@QAE@XZ 10005fa0 f i Biometrics.obj
 0001:00004fd0       ??0?$CComPtr@UIProvideClassInfo2@@@ATL@@QAE@XZ 10005fd0 f i Biometrics.obj
 0001:00005000       ??0?$CComPtr@UISpecifyPropertyPages@@@ATL@@QAE@XZ 10006000 f i Biometrics.obj
 0001:00005030       ??0?$CComPtr@UIStream@@@ATL@@QAE@XZ 10006030 f i Biometrics.obj
 0001:00005060       ??0?$CComPtr@UITypeInfo2@@@ATL@@QAE@XZ 10006060 f i Biometrics.obj
 0001:00005090       ??0?$CComPtr@UITypeInfo@@@ATL@@QAE@ABV01@@Z 10006090 f i Biometrics.obj
 0001:000050c0       ??0?$CComPtr@UITypeInfo@@@ATL@@QAE@XZ 100060c0 f i Biometrics.obj
 0001:000050f0       ??0?$CComPtr@UITypeLib@@@ATL@@QAE@XZ 100060f0 f i Biometrics.obj
 0001:00005120       ??0?$CComPtr@UIUnknown@@@ATL@@QAE@ABV01@@Z 10006120 f i Biometrics.obj
 0001:00005150       ??0?$CComPtr@UIUnknown@@@ATL@@QAE@PAUIUnknown@@@Z 10006150 f i Biometrics.obj
 0001:00005180       ??0?$CComPtr@UIUnknown@@@ATL@@QAE@XZ 10006180 f i Biometrics.obj
 0001:000051b0       ??0?$CComPtr@UIViewObjectEx@@@ATL@@QAE@XZ 100061b0 f i Biometrics.obj
 0001:000051e0       ??0?$CComPtrBase@UIAdviseSink@@@ATL@@IAE@PAUIAdviseSink@@@Z 100061e0 f i Biometrics.obj
 0001:00005230       ??0?$CComPtrBase@UICatRegister@@@ATL@@IAE@XZ 10006230 f i Biometrics.obj
 0001:00005250       ??0?$CComPtrBase@UIConnectionPoint@@@ATL@@IAE@XZ 10006250 f i Biometrics.obj
 0001:00005270       ??0?$CComPtrBase@UIConnectionPointContainer@@@ATL@@IAE@XZ 10006270 f i Biometrics.obj
 0001:00005290       ??0?$CComPtrBase@UIDataObject@@@ATL@@IAE@XZ 10006290 f i Biometrics.obj
 0001:000052b0       ??0?$CComPtrBase@UIDispatch@@@ATL@@IAE@XZ 100062b0 f i Biometrics.obj
 0001:000052d0       ??0?$CComPtrBase@UIOleClientSite@@@ATL@@IAE@PAUIOleClientSite@@@Z 100062d0 f i Biometrics.obj
 0001:00005320       ??0?$CComPtrBase@UIOleControlSite@@@ATL@@IAE@XZ 10006320 f i Biometrics.obj
 0001:00005340       ??0?$CComPtrBase@UIOleInPlaceActiveObject@@@ATL@@IAE@XZ 10006340 f i Biometrics.obj
 0001:00005360       ??0?$CComPtrBase@UIOleInPlaceFrame@@@ATL@@IAE@XZ 10006360 f i Biometrics.obj
 0001:00005380       ??0?$CComPtrBase@UIOleInPlaceObject@@@ATL@@IAE@XZ 10006380 f i Biometrics.obj
 0001:000053a0       ??0?$CComPtrBase@UIOleInPlaceUIWindow@@@ATL@@IAE@XZ 100063a0 f i Biometrics.obj
 0001:000053c0       ??0?$CComPtrBase@UIOleObject@@@ATL@@IAE@XZ 100063c0 f i Biometrics.obj
 0001:000053e0       ??0?$CComPtrBase@UIPersistStream@@@ATL@@IAE@XZ 100063e0 f i Biometrics.obj
 0001:00005400       ??0?$CComPtrBase@UIPersistStreamInit@@@ATL@@IAE@XZ 10006400 f i Biometrics.obj
 0001:00005420       ??0?$CComPtrBase@UIPointerInactive@@@ATL@@IAE@XZ 10006420 f i Biometrics.obj
 0001:00005440       ??0?$CComPtrBase@UIProvideClassInfo2@@@ATL@@IAE@XZ 10006440 f i Biometrics.obj
 0001:00005460       ??0?$CComPtrBase@UISpecifyPropertyPages@@@ATL@@IAE@XZ 10006460 f i Biometrics.obj
 0001:00005480       ??0?$CComPtrBase@UIStream@@@ATL@@IAE@XZ 10006480 f i Biometrics.obj
 0001:000054a0       ??0?$CComPtrBase@UITypeInfo2@@@ATL@@IAE@XZ 100064a0 f i Biometrics.obj
 0001:000054c0       ??0?$CComPtrBase@UITypeInfo@@@ATL@@IAE@PAUITypeInfo@@@Z 100064c0 f i Biometrics.obj
 0001:00005510       ??0?$CComPtrBase@UITypeInfo@@@ATL@@IAE@XZ 10006510 f i Biometrics.obj
 0001:00005530       ??0?$CComPtrBase@UITypeLib@@@ATL@@IAE@XZ 10006530 f i Biometrics.obj
 0001:00005550       ??0?$CComPtrBase@UIUnknown@@@ATL@@IAE@PAUIUnknown@@@Z 10006550 f i Biometrics.obj
 0001:000055a0       ??0?$CComPtrBase@UIUnknown@@@ATL@@IAE@XZ 100065a0 f i Biometrics.obj
 0001:000055c0       ??0?$CComPtrBase@UIViewObjectEx@@@ATL@@IAE@XZ 100065c0 f i Biometrics.obj
 0001:000055e0       ??0?$CComQIPtr@UIOleControlSite@@$1?_GUID_b196b289_bab4_101a_b69c_00aa00341d07@@3U__s_GUID@@B@ATL@@QAE@PAUIUnknown@@@Z 100065e0 f i Biometrics.obj
 0001:00005640       ??0?$CComQIPtr@UIOleObject@@$1?_GUID_00000112_0000_0000_c000_000000000046@@3U__s_GUID@@B@ATL@@QAE@XZ 10006640 f i Biometrics.obj
 0001:00005670       ??0?$CComQIPtr@UISpecifyPropertyPages@@$1?_GUID_b196b28b_bab4_101a_b69c_00aa00341d07@@3U__s_GUID@@B@ATL@@QAE@XZ 10006670 f i Biometrics.obj
 0001:000056a0       ??0?$CSimpleMap@PA_WPA_WVCExpansionVectorEqualHelper@ATL@@@ATL@@QAE@XZ 100066a0 f i Biometrics.obj
 0001:000056e0       ??0?$CTempBuffer@E$0BAA@VCCRTAllocator@ATL@@@ATL@@QAE@XZ 100066e0 f i Biometrics.obj
 0001:00005700       ??0?$CTempBuffer@_W$0BAA@VCCRTAllocator@ATL@@@ATL@@QAE@XZ 10006700 f i Biometrics.obj
 0001:00005720       ??0?$CTempBuffer@_W$0EAA@VCCRTAllocator@ATL@@@ATL@@QAE@XZ 10006720 f i Biometrics.obj
 0001:00005740       ??0?$Wrapper@PA_W@?$CSimpleMap@PA_WPA_WVCExpansionVectorEqualHelper@ATL@@@ATL@@QAE@ABQA_W@Z 10006740 f i Biometrics.obj
 0001:00005770       ??0CAtlModule@ATL@@QAE@XZ  10006770 f i Biometrics.obj
 0001:00005890       ??0CComAutoDeleteCriticalSection@ATL@@QAE@XZ 10006890 f i Biometrics.obj
 0001:000058c0       ??0CComBSTR@ATL@@QAE@XZ    100068c0 f i Biometrics.obj
 0001:000058e0       ??0CComClassFactory@ATL@@QAE@XZ 100068e0 f i Biometrics.obj
 0001:00005920       ??0CComModule@ATL@@QAE@XZ  10006920 f i Biometrics.obj
 0001:00005990       ??0CComObjectRootBase@ATL@@QAE@XZ 10006990 f i Biometrics.obj
 0001:000059b0       ??0CComSafeDeleteCriticalSection@ATL@@QAE@XZ 100069b0 f i Biometrics.obj
 0001:000059e0       ??0CComVariant@ATL@@QAE@XZ 100069e0 f i Biometrics.obj
 0001:00005a30       ??0CExpansionVector@ATL@@QAE@XZ 10006a30 f i Biometrics.obj
 0001:00005a60       ??0CParseBuffer@CRegParser@ATL@@QAE@H@Z 10006a60 f i Biometrics.obj
 0001:00005ad0       ??0CRegKey@ATL@@QAE@PAUHKEY__@@@Z 10006ad0 f i Biometrics.obj
 0001:00005b10       ??0CRegKey@ATL@@QAE@PAVCAtlTransactionManager@1@@Z 10006b10 f i Biometrics.obj
 0001:00005b50       ??0CRegObject@ATL@@QAE@XZ  10006b50 f i Biometrics.obj
 0001:00005b90       ??0CRegParser@ATL@@QAE@PAVCRegObject@1@@Z 10006b90 f i Biometrics.obj
 0001:00005bc0       ??0IClassFactory@@QAE@XZ   10006bc0 f i Biometrics.obj
 0001:00005bf0       ??0IEnumConnectionPoints@@QAE@XZ 10006bf0 f i Biometrics.obj
 0001:00005c20       ??0IEnumConnections@@QAE@XZ 10006c20 f i Biometrics.obj
 0001:00005c50       ??0IRegistrarBase@@QAE@XZ  10006c50 f i Biometrics.obj
 0001:00005c80       ??0IUnknown@@QAE@XZ        10006c80 f i Biometrics.obj
 0001:00005ca0       ??0ModuleLockHelper@ATL@@QAE@XZ 10006ca0 f i Biometrics.obj
 0001:00005ce0       ??0OposVariant@@QAE@XZ     10006ce0 f i Biometrics.obj
 0001:00005d10       ??0Wrapper@?$CSimpleArray@GV?$CSimpleArrayEqualHelper@G@ATL@@@ATL@@QAE@ABG@Z 10006d10 f i Biometrics.obj
 0001:00005d40       ??0_ATL_MODULE70@ATL@@QAE@XZ 10006d40 f i Biometrics.obj
 0001:00005d70       ??0_ATL_MSG@ATL@@QAE@PAUHWND__@@IIJH@Z 10006d70 f i Biometrics.obj
 0001:00005de0       ??0_U_MENUorID@ATL@@QAE@I@Z 10006de0 f i Biometrics.obj
 0001:00005e00       ??0_U_RECT@ATL@@QAE@AAUtagRECT@@@Z 10006e00 f i Biometrics.obj
 0001:00005e20       ??0stringdispid@CComTypeInfoHolder@ATL@@QAE@XZ 10006e20 f i Biometrics.obj
 0001:00005e60       ??1?$CAtlModuleT@VCComModule@ATL@@@ATL@@UAE@XZ 10006e60 f i Biometrics.obj
 0001:00005e90       ??1?$CAtlSafeAllocBufferManager@VCCRTAllocator@ATL@@@_ATL_SAFE_ALLOCA_IMPL@ATL@@QAE@XZ 10006e90 f i Biometrics.obj
 0001:00005ee0       ??1?$CAutoVectorPtr@_W@ATL@@QAE@XZ 10006ee0 f i Biometrics.obj
 0001:00005f10       ??1?$CComAggObject@VCOPOSBiometrics@@@ATL@@UAE@XZ 10006f10 f i Biometrics.obj
 0001:00005f80       ??1?$CComContainedObject@VCOPOSBiometrics@@@ATL@@UAE@XZ 10006f80 f i Biometrics.obj
 0001:00005fb0       ??1?$CComCritSecLock@VCComCriticalSection@ATL@@@ATL@@QAE@XZ 10006fb0 f i Biometrics.obj
 0001:00005fe0       ??1?$CComEnum@UIEnumConnectionPoints@@$1?_GUID_b196b285_bab4_101a_b69c_00aa00341d07@@3U__s_GUID@@BPAUIConnectionPoint@@V?$_CopyInterface@UIConnectionPoint@@@ATL@@VCComSingleThreadModel@6@@ATL@@UAE@XZ 10006fe0 f i Biometrics.obj
 0001:00006010       ??1?$CComEnum@UIEnumConnections@@$1?_GUID_b196b287_bab4_101a_b69c_00aa00341d07@@3U__s_GUID@@BUtagCONNECTDATA@@V?$_Copy@UtagCONNECTDATA@@@ATL@@VCComSingleThreadModel@6@@ATL@@UAE@XZ 10007010 f i Biometrics.obj
 0001:00006040       ??1?$CComEnumImpl@UIEnumConnectionPoints@@$1?_GUID_b196b285_bab4_101a_b69c_00aa00341d07@@3U__s_GUID@@BPAUIConnectionPoint@@V?$_CopyInterface@UIConnectionPoint@@@ATL@@@ATL@@UAE@XZ 10007040 f i Biometrics.obj
 0001:000060d0       ??1?$CComEnumImpl@UIEnumConnections@@$1?_GUID_b196b287_bab4_101a_b69c_00aa00341d07@@3U__s_GUID@@BUtagCONNECTDATA@@V?$_Copy@UtagCONNECTDATA@@@ATL@@@ATL@@UAE@XZ 100070d0 f i Biometrics.obj
 0001:00006160       ??1?$CComObject@V?$CComEnum@UIEnumConnectionPoints@@$1?_GUID_b196b285_bab4_101a_b69c_00aa00341d07@@3U__s_GUID@@BPAUIConnectionPoint@@V?$_CopyInterface@UIConnectionPoint@@@ATL@@VCComSingleThreadModel@6@@ATL@@@ATL@@UAE@XZ 10007160 f i Biometrics.obj
 0001:000061c0       ??1?$CComObject@V?$CComEnum@UIEnumConnections@@$1?_GUID_b196b287_bab4_101a_b69c_00aa00341d07@@3U__s_GUID@@BUtagCONNECTDATA@@V?$_Copy@UtagCONNECTDATA@@@ATL@@VCComSingleThreadModel@6@@ATL@@@ATL@@UAE@XZ 100071c0 f i Biometrics.obj
 0001:00006220       ??1?$CComObject@VCOPOSBiometrics@@@ATL@@UAE@XZ 10007220 f i Biometrics.obj
 0001:00006360       ??1?$CComObjectCached@VCComClassFactory@ATL@@@ATL@@UAE@XZ 10007360 f i Biometrics.obj
 0001:000063b0       ??1?$CComObjectRootEx@VCComMultiThreadModel@ATL@@@ATL@@QAE@XZ 100073b0 f i Biometrics.obj
 0001:000063e0       ??1?$CComObjectRootEx@VCComSingleThreadModel@ATL@@@ATL@@QAE@XZ 100073e0 f i Biometrics.obj
 0001:00006410       ??1?$CComPtr@UIAdviseSink@@@ATL@@QAE@XZ 10007410 f i Biometrics.obj
 0001:00006440       ??1?$CComPtr@UICatRegister@@@ATL@@QAE@XZ 10007440 f i Biometrics.obj
 0001:00006470       ??1?$CComPtr@UIConnectionPoint@@@ATL@@QAE@XZ 10007470 f i Biometrics.obj
 0001:000064a0       ??1?$CComPtr@UIConnectionPointContainer@@@ATL@@QAE@XZ 100074a0 f i Biometrics.obj
 0001:000064d0       ??1?$CComPtr@UIDataObject@@@ATL@@QAE@XZ 100074d0 f i Biometrics.obj
 0001:00006500       ??1?$CComPtr@UIDispatch@@@ATL@@QAE@XZ 10007500 f i Biometrics.obj
 0001:00006530       ??1?$CComPtr@UIOleClientSite@@@ATL@@QAE@XZ 10007530 f i Biometrics.obj
 0001:00006560       ??1?$CComPtr@UIOleControlSite@@@ATL@@QAE@XZ 10007560 f i Biometrics.obj
 0001:00006590       ??1?$CComPtr@UIOleInPlaceActiveObject@@@ATL@@QAE@XZ 10007590 f i Biometrics.obj
 0001:000065c0       ??1?$CComPtr@UIOleInPlaceFrame@@@ATL@@QAE@XZ 100075c0 f i Biometrics.obj
 0001:000065f0       ??1?$CComPtr@UIOleInPlaceObject@@@ATL@@QAE@XZ 100075f0 f i Biometrics.obj
 0001:00006620       ??1?$CComPtr@UIOleInPlaceUIWindow@@@ATL@@QAE@XZ 10007620 f i Biometrics.obj
 0001:00006650       ??1?$CComPtr@UIOleObject@@@ATL@@QAE@XZ 10007650 f i Biometrics.obj
 0001:00006680       ??1?$CComPtr@UIPersistStream@@@ATL@@QAE@XZ 10007680 f i Biometrics.obj
 0001:000066b0       ??1?$CComPtr@UIPersistStreamInit@@@ATL@@QAE@XZ 100076b0 f i Biometrics.obj
 0001:000066e0       ??1?$CComPtr@UIPointerInactive@@@ATL@@QAE@XZ 100076e0 f i Biometrics.obj
 0001:00006710       ??1?$CComPtr@UIProvideClassInfo2@@@ATL@@QAE@XZ 10007710 f i Biometrics.obj
 0001:00006740       ??1?$CComPtr@UISpecifyPropertyPages@@@ATL@@QAE@XZ 10007740 f i Biometrics.obj
 0001:00006770       ??1?$CComPtr@UIStream@@@ATL@@QAE@XZ 10007770 f i Biometrics.obj
 0001:000067a0       ??1?$CComPtr@UITypeInfo2@@@ATL@@QAE@XZ 100077a0 f i Biometrics.obj
 0001:000067d0       ??1?$CComPtr@UITypeInfo@@@ATL@@QAE@XZ 100077d0 f i Biometrics.obj
 0001:00006800       ??1?$CComPtr@UITypeLib@@@ATL@@QAE@XZ 10007800 f i Biometrics.obj
 0001:00006830       ??1?$CComPtr@UIUnknown@@@ATL@@QAE@XZ 10007830 f i Biometrics.obj
 0001:00006860       ??1?$CComPtr@UIViewObjectEx@@@ATL@@QAE@XZ 10007860 f i Biometrics.obj
 0001:00006890       ??1?$CComPtrBase@UIAdviseSink@@@ATL@@QAE@XZ 10007890 f i Biometrics.obj
 0001:000068e0       ??1?$CComPtrBase@UICatRegister@@@ATL@@QAE@XZ 100078e0 f i Biometrics.obj
 0001:00006930       ??1?$CComPtrBase@UIConnectionPoint@@@ATL@@QAE@XZ 10007930 f i Biometrics.obj
 0001:00006980       ??1?$CComPtrBase@UIConnectionPointContainer@@@ATL@@QAE@XZ 10007980 f i Biometrics.obj
 0001:000069d0       ??1?$CComPtrBase@UIDataObject@@@ATL@@QAE@XZ 100079d0 f i Biometrics.obj
 0001:00006a20       ??1?$CComPtrBase@UIDispatch@@@ATL@@QAE@XZ 10007a20 f i Biometrics.obj
 0001:00006a70       ??1?$CComPtrBase@UIOleClientSite@@@ATL@@QAE@XZ 10007a70 f i Biometrics.obj
 0001:00006ac0       ??1?$CComPtrBase@UIOleControlSite@@@ATL@@QAE@XZ 10007ac0 f i Biometrics.obj
 0001:00006b10       ??1?$CComPtrBase@UIOleInPlaceActiveObject@@@ATL@@QAE@XZ 10007b10 f i Biometrics.obj
 0001:00006b60       ??1?$CComPtrBase@UIOleInPlaceFrame@@@ATL@@QAE@XZ 10007b60 f i Biometrics.obj
 0001:00006bb0       ??1?$CComPtrBase@UIOleInPlaceObject@@@ATL@@QAE@XZ 10007bb0 f i Biometrics.obj
 0001:00006c00       ??1?$CComPtrBase@UIOleInPlaceUIWindow@@@ATL@@QAE@XZ 10007c00 f i Biometrics.obj
 0001:00006c50       ??1?$CComPtrBase@UIOleObject@@@ATL@@QAE@XZ 10007c50 f i Biometrics.obj
 0001:00006ca0       ??1?$CComPtrBase@UIPersistStream@@@ATL@@QAE@XZ 10007ca0 f i Biometrics.obj
 0001:00006cf0       ??1?$CComPtrBase@UIPersistStreamInit@@@ATL@@QAE@XZ 10007cf0 f i Biometrics.obj
 0001:00006d40       ??1?$CComPtrBase@UIPointerInactive@@@ATL@@QAE@XZ 10007d40 f i Biometrics.obj
 0001:00006d90       ??1?$CComPtrBase@UIProvideClassInfo2@@@ATL@@QAE@XZ 10007d90 f i Biometrics.obj
 0001:00006de0       ??1?$CComPtrBase@UISpecifyPropertyPages@@@ATL@@QAE@XZ 10007de0 f i Biometrics.obj
 0001:00006e30       ??1?$CComPtrBase@UIStream@@@ATL@@QAE@XZ 10007e30 f i Biometrics.obj
 0001:00006e80       ??1?$CComPtrBase@UITypeInfo2@@@ATL@@QAE@XZ 10007e80 f i Biometrics.obj
 0001:00006ed0       ??1?$CComPtrBase@UITypeInfo@@@ATL@@QAE@XZ 10007ed0 f i Biometrics.obj
 0001:00006f20       ??1?$CComPtrBase@UITypeLib@@@ATL@@QAE@XZ 10007f20 f i Biometrics.obj
 0001:00006f70       ??1?$CComPtrBase@UIUnknown@@@ATL@@QAE@XZ 10007f70 f i Biometrics.obj
 0001:00006fc0       ??1?$CComPtrBase@UIViewObjectEx@@@ATL@@QAE@XZ 10007fc0 f i Biometrics.obj
 0001:00007010       ??1?$CComQIPtr@UIOleControlSite@@$1?_GUID_b196b289_bab4_101a_b69c_00aa00341d07@@3U__s_GUID@@B@ATL@@QAE@XZ 10008010 f i Biometrics.obj
 0001:00007040       ??1?$CComQIPtr@UIOleObject@@$1?_GUID_00000112_0000_0000_c000_000000000046@@3U__s_GUID@@B@ATL@@QAE@XZ 10008040 f i Biometrics.obj
 0001:00007070       ??1?$CComQIPtr@UISpecifyPropertyPages@@$1?_GUID_b196b28b_bab4_101a_b69c_00aa00341d07@@3U__s_GUID@@B@ATL@@QAE@XZ 10008070 f i Biometrics.obj
 0001:000070a0       ??1?$CSimpleMap@PA_WPA_WVCExpansionVectorEqualHelper@ATL@@@ATL@@QAE@XZ 100080a0 f i Biometrics.obj
 0001:000070d0       ??1?$CTempBuffer@E$0BAA@VCCRTAllocator@ATL@@@ATL@@QAE@XZ 100080d0 f i Biometrics.obj
 0001:00007110       ??1?$CTempBuffer@_W$0BAA@VCCRTAllocator@ATL@@@ATL@@QAE@XZ 10008110 f i Biometrics.obj
 0001:00007150       ??1?$CTempBuffer@_W$0EAA@VCCRTAllocator@ATL@@@ATL@@QAE@XZ 10008150 f i Biometrics.obj
 0001:00007190       ??1CAtlModule@ATL@@UAE@XZ  10008190 f i Biometrics.obj
 0001:000071c0       ??1CComAutoDeleteCriticalSection@ATL@@QAE@XZ 100081c0 f i Biometrics.obj
 0001:000071f0       ??1CComClassFactory@ATL@@UAE@XZ 100081f0 f i Biometrics.obj
 0001:00007220       ??1CComModule@ATL@@UAE@XZ  10008220 f i Biometrics.obj
 0001:00007250       ??1CComObjectRootBase@ATL@@QAE@XZ 10008250 f i Biometrics.obj
 0001:00007270       ??1CComSafeDeleteCriticalSection@ATL@@QAE@XZ 10008270 f i Biometrics.obj
 0001:000072b0       ??1CComVariant@ATL@@QAE@XZ 100082b0 f i Biometrics.obj
 0001:00007310       ??1CExpansionVector@ATL@@QAE@XZ 10008310 f i Biometrics.obj
 0001:00007340       ??1CParseBuffer@CRegParser@ATL@@QAE@XZ 10008340 f i Biometrics.obj
 0001:00007380       ??1CRegKey@ATL@@QAE@XZ     10008380 f i Biometrics.obj
 0001:000073b0       ??1CRegObject@ATL@@UAE@XZ  100083b0 f i Biometrics.obj
 0001:000073f0       ??1ModuleLockHelper@ATL@@QAE@XZ 100083f0 f i Biometrics.obj
 0001:00007430       ??1OposVariant@@QAE@XZ     10008430 f i Biometrics.obj
 0001:00007460       ??1_ATL_MODULE70@ATL@@QAE@XZ 10008460 f i Biometrics.obj
 0001:00007490       ??4?$CComPtr@UIAdviseSink@@@ATL@@QAEPAUIAdviseSink@@PAU2@@Z 10008490 f i Biometrics.obj
 0001:00007500       ??4?$CComPtr@UIOleClientSite@@@ATL@@QAEPAUIOleClientSite@@PAU2@@Z 10008500 f i Biometrics.obj
 0001:00007570       ??4?$CComPtr@UIUnknown@@@ATL@@QAEPAUIUnknown@@PAU2@@Z 10008570 f i Biometrics.obj
 0001:000075e0       ??4?$CComQIPtr@UIOleObject@@$1?_GUID_00000112_0000_0000_c000_000000000046@@3U__s_GUID@@B@ATL@@QAEPAUIOleObject@@PAUIUnknown@@@Z 100085e0 f i Biometrics.obj
 0001:00007630       ??4?$CComQIPtr@UISpecifyPropertyPages@@$1?_GUID_b196b28b_bab4_101a_b69c_00aa00341d07@@3U__s_GUID@@B@ATL@@QAEPAUISpecifyPropertyPages@@PAUIUnknown@@@Z 10008630 f i Biometrics.obj
 0001:00007680       ??7?$CComPtrBase@UIOleClientSite@@@ATL@@QBE_NXZ 10008680 f i Biometrics.obj
 0001:000076c0       ??7?$CComPtrBase@UIOleInPlaceSiteWindowless@@@ATL@@QBE_NXZ 100086c0 f i Biometrics.obj
 0001:00007700       ??7CComBSTR@ATL@@QBE_NXZ   10008700 f i Biometrics.obj
 0001:00007740       ??8?$CComPtrBase@UIAdviseSink@@@ATL@@QBE_NPAUIAdviseSink@@@Z 10008740 f i Biometrics.obj
 0001:00007780       ??8?$CComPtrBase@UIConnectionPointContainer@@@ATL@@QBE_NPAUIConnectionPointContainer@@@Z 10008780 f i Biometrics.obj
 0001:000077c0       ??8?$CComPtrBase@UIDataAdviseHolder@@@ATL@@QBE_NPAUIDataAdviseHolder@@@Z 100087c0 f i Biometrics.obj
 0001:00007800       ??8?$CComPtrBase@UIOleAdviseHolder@@@ATL@@QBE_NPAUIOleAdviseHolder@@@Z 10008800 f i Biometrics.obj
 0001:00007840       ??8?$CComPtrBase@UIOleClientSite@@@ATL@@QBE_NPAUIOleClientSite@@@Z 10008840 f i Biometrics.obj
 0001:00007880       ??8?$CComPtrBase@UIOleControlSite@@@ATL@@QBE_NPAUIOleControlSite@@@Z 10008880 f i Biometrics.obj
 0001:000078c0       ??8?$CComPtrBase@UIOleInPlaceObject@@@ATL@@QBE_NPAUIOleInPlaceObject@@@Z 100088c0 f i Biometrics.obj
 0001:00007900       ??8?$CComPtrBase@UIOleInPlaceSiteWindowless@@@ATL@@QBE_NPAUIOleInPlaceSiteWindowless@@@Z 10008900 f i Biometrics.obj
 0001:00007940       ??8?$CComPtrBase@UIOleObject@@@ATL@@QBE_NPAUIOleObject@@@Z 10008940 f i Biometrics.obj
 0001:00007980       ??8?$CComPtrBase@UIPersistStream@@@ATL@@QBE_NPAUIPersistStream@@@Z 10008980 f i Biometrics.obj
 0001:000079c0       ??8?$CComPtrBase@UIPersistStreamInit@@@ATL@@QBE_NPAUIPersistStreamInit@@@Z 100089c0 f i Biometrics.obj
 0001:00007a00       ??8?$CComPtrBase@UIPointerInactive@@@ATL@@QBE_NPAUIPointerInactive@@@Z 10008a00 f i Biometrics.obj
 0001:00007a40       ??8?$CComPtrBase@UIUnknown@@@ATL@@QBE_NPAUIUnknown@@@Z 10008a40 f i Biometrics.obj
 0001:00007a80       ??8?$CComPtrBase@UIViewObjectEx@@@ATL@@QBE_NPAUIViewObjectEx@@@Z 10008a80 f i Biometrics.obj
 0001:00007ac0       ??8CComBSTR@ATL@@QBE_NH@Z  10008ac0 f i Biometrics.obj
 0001:00007b20       ??9?$CComPtrBase@UIAdviseSink@@@ATL@@QBE_NPAUIAdviseSink@@@Z 10008b20 f i Biometrics.obj
 0001:00007b70       ??9?$CComPtrBase@UIConnectionPointContainer@@@ATL@@QBE_NPAUIConnectionPointContainer@@@Z 10008b70 f i Biometrics.obj
 0001:00007bc0       ??9?$CComPtrBase@UIDataAdviseHolder@@@ATL@@QBE_NPAUIDataAdviseHolder@@@Z 10008bc0 f i Biometrics.obj
 0001:00007c10       ??9?$CComPtrBase@UIOleAdviseHolder@@@ATL@@QBE_NPAUIOleAdviseHolder@@@Z 10008c10 f i Biometrics.obj
 0001:00007c60       ??9?$CComPtrBase@UIOleClientSite@@@ATL@@QBE_NPAUIOleClientSite@@@Z 10008c60 f i Biometrics.obj
 0001:00007cb0       ??9?$CComPtrBase@UIOleControlSite@@@ATL@@QBE_NPAUIOleControlSite@@@Z 10008cb0 f i Biometrics.obj
 0001:00007d00       ??9?$CComPtrBase@UIOleInPlaceObject@@@ATL@@QBE_NPAUIOleInPlaceObject@@@Z 10008d00 f i Biometrics.obj
 0001:00007d50       ??9?$CComPtrBase@UIOleInPlaceSiteWindowless@@@ATL@@QBE_NPAUIOleInPlaceSiteWindowless@@@Z 10008d50 f i Biometrics.obj
 0001:00007da0       ??9?$CComPtrBase@UIOleObject@@@ATL@@QBE_NPAUIOleObject@@@Z 10008da0 f i Biometrics.obj
 0001:00007df0       ??9?$CComPtrBase@UIPersistStream@@@ATL@@QBE_NPAUIPersistStream@@@Z 10008df0 f i Biometrics.obj
 0001:00007e40       ??9?$CComPtrBase@UIPersistStreamInit@@@ATL@@QBE_NPAUIPersistStreamInit@@@Z 10008e40 f i Biometrics.obj
 0001:00007e90       ??9?$CComPtrBase@UIPointerInactive@@@ATL@@QBE_NPAUIPointerInactive@@@Z 10008e90 f i Biometrics.obj
 0001:00007ee0       ??9?$CComPtrBase@UIUnknown@@@ATL@@QBE_NPAUIUnknown@@@Z 10008ee0 f i Biometrics.obj
 0001:00007f30       ??9?$CComPtrBase@UIViewObjectEx@@@ATL@@QBE_NPAUIViewObjectEx@@@Z 10008f30 f i Biometrics.obj
 0001:00007f80       ??9CComBSTR@ATL@@QBE_NH@Z  10008f80 f i Biometrics.obj
 0001:00007fd0       ??B?$CComPtrBase@UIAdviseSink@@@ATL@@QBEPAUIAdviseSink@@XZ 10008fd0 f i Biometrics.obj
 0001:00007ff0       ??B?$CComPtrBase@UIDataAdviseHolder@@@ATL@@QBEPAUIDataAdviseHolder@@XZ 10008ff0 f i Biometrics.obj
 0001:00008010       ??B?$CComPtrBase@UIDataObject@@@ATL@@QBEPAUIDataObject@@XZ 10009010 f i Biometrics.obj
 0001:00008030       ??B?$CComPtrBase@UIOleAdviseHolder@@@ATL@@QBEPAUIOleAdviseHolder@@XZ 10009030 f i Biometrics.obj
 0001:00008050       ??B?$CComPtrBase@UIOleClientSite@@@ATL@@QBEPAUIOleClientSite@@XZ 10009050 f i Biometrics.obj
 0001:00008070       ??B?$CComPtrBase@UIOleControlSite@@@ATL@@QBEPAUIOleControlSite@@XZ 10009070 f i Biometrics.obj
 0001:00008090       ??B?$CComPtrBase@UIOleInPlaceActiveObject@@@ATL@@QBEPAUIOleInPlaceActiveObject@@XZ 10009090 f i Biometrics.obj
 0001:000080b0       ??B?$CComPtrBase@UIOleInPlaceFrame@@@ATL@@QBEPAUIOleInPlaceFrame@@XZ 100090b0 f i Biometrics.obj
 0001:000080d0       ??B?$CComPtrBase@UIOleInPlaceSiteWindowless@@@ATL@@QBEPAUIOleInPlaceSiteWindowless@@XZ 100090d0 f i Biometrics.obj
 0001:000080f0       ??B?$CComPtrBase@UIOleInPlaceUIWindow@@@ATL@@QBEPAUIOleInPlaceUIWindow@@XZ 100090f0 f i Biometrics.obj
 0001:00008110       ??B?$CComPtrBase@UIOleObject@@@ATL@@QBEPAUIOleObject@@XZ 10009110 f i Biometrics.obj
 0001:00008130       ??B?$CComPtrBase@UIPersistStream@@@ATL@@QBEPAUIPersistStream@@XZ 10009130 f i Biometrics.obj
 0001:00008150       ??B?$CComPtrBase@UIProvideClassInfo2@@@ATL@@QBEPAUIProvideClassInfo2@@XZ 10009150 f i Biometrics.obj
 0001:00008170       ??B?$CComPtrBase@UISpecifyPropertyPages@@@ATL@@QBEPAUISpecifyPropertyPages@@XZ 10009170 f i Biometrics.obj
 0001:00008190       ??B?$CComPtrBase@UIStream@@@ATL@@QBEPAUIStream@@XZ 10009190 f i Biometrics.obj
 0001:000081b0       ??B?$CComPtrBase@UITypeInfo2@@@ATL@@QBEPAUITypeInfo2@@XZ 100091b0 f i Biometrics.obj
 0001:000081d0       ??B?$CComPtrBase@UITypeInfo@@@ATL@@QBEPAUITypeInfo@@XZ 100091d0 f i Biometrics.obj
 0001:000081f0       ??B?$CComPtrBase@UITypeLib@@@ATL@@QBEPAUITypeLib@@XZ 100091f0 f i Biometrics.obj
 0001:00008210       ??B?$CComPtrBase@UIUnknown@@@ATL@@QBEPAUIUnknown@@XZ 10009210 f i Biometrics.obj
 0001:00008230       ??B?$CTempBuffer@E$0BAA@VCCRTAllocator@ATL@@@ATL@@QBEPAEXZ 10009230 f i Biometrics.obj
 0001:00008250       ??B?$CTempBuffer@_W$0BAA@VCCRTAllocator@ATL@@@ATL@@QBEPA_WXZ 10009250 f i Biometrics.obj
 0001:00008270       ??B?$CTempBuffer@_W$0EAA@VCCRTAllocator@ATL@@@ATL@@QBEPA_WXZ 10009270 f i Biometrics.obj
 0001:00008290       ??B?$CTraceCategoryEx@$00$0A@@ATL@@QAEIXZ 10009290 f i Biometrics.obj
 0001:000082b0       ??B?$CTraceCategoryEx@$07$0A@@ATL@@QAEIXZ 100092b0 f i Biometrics.obj
 0001:000082d0       ??B?$CTraceCategoryEx@$0CAAA@$0A@@ATL@@QAEIXZ 100092d0 f i Biometrics.obj
 0001:000082f0       ??B?$CTraceCategoryEx@$0EA@$0A@@ATL@@QAEIXZ 100092f0 f i Biometrics.obj
 0001:00008310       ??B?$CTraceCategoryEx@$0IAA@$0A@@ATL@@QAEIXZ 10009310 f i Biometrics.obj
 0001:00008330       ??BCComBSTR@ATL@@QBEPA_WXZ 10009330 f i Biometrics.obj
 0001:00008350       ??BCRegKey@ATL@@QBEPAUHKEY__@@XZ 10009350 f i Biometrics.obj
 0001:00008370       ??C?$CComPtrBase@UIAdviseSink@@@ATL@@QBEPAV?$_NoAddRefReleaseOnCComPtr@UIAdviseSink@@@1@XZ 10009370 f i Biometrics.obj
 0001:000083c0       ??C?$CComPtrBase@UICatRegister@@@ATL@@QBEPAV?$_NoAddRefReleaseOnCComPtr@UICatRegister@@@1@XZ 100093c0 f i Biometrics.obj
 0001:00008410       ??C?$CComPtrBase@UIConnectionPoint@@@ATL@@QBEPAV?$_NoAddRefReleaseOnCComPtr@UIConnectionPoint@@@1@XZ 10009410 f i Biometrics.obj
 0001:00008460       ??C?$CComPtrBase@UIConnectionPointContainer@@@ATL@@QBEPAV?$_NoAddRefReleaseOnCComPtr@UIConnectionPointContainer@@@1@XZ 10009460 f i Biometrics.obj
 0001:000084b0       ??C?$CComPtrBase@UIDataAdviseHolder@@@ATL@@QBEPAV?$_NoAddRefReleaseOnCComPtr@UIDataAdviseHolder@@@1@XZ 100094b0 f i Biometrics.obj
 0001:00008500       ??C?$CComPtrBase@UIOleAdviseHolder@@@ATL@@QBEPAV?$_NoAddRefReleaseOnCComPtr@UIOleAdviseHolder@@@1@XZ 10009500 f i Biometrics.obj
 0001:00008550       ??C?$CComPtrBase@UIOleClientSite@@@ATL@@QBEPAV?$_NoAddRefReleaseOnCComPtr@UIOleClientSite@@@1@XZ 10009550 f i Biometrics.obj
 0001:000085a0       ??C?$CComPtrBase@UIOleControlSite@@@ATL@@QBEPAV?$_NoAddRefReleaseOnCComPtr@UIOleControlSite@@@1@XZ 100095a0 f i Biometrics.obj
 0001:000085f0       ??C?$CComPtrBase@UIOleInPlaceFrame@@@ATL@@QBEPAV?$_NoAddRefReleaseOnCComPtr@UIOleInPlaceFrame@@@1@XZ 100095f0 f i Biometrics.obj
 0001:00008640       ??C?$CComPtrBase@UIOleInPlaceObject@@@ATL@@QBEPAV?$_NoAddRefReleaseOnCComPtr@UIOleInPlaceObject@@@1@XZ 10009640 f i Biometrics.obj
 0001:00008690       ??C?$CComPtrBase@UIOleInPlaceSiteWindowless@@@ATL@@QBEPAV?$_NoAddRefReleaseOnCComPtr@UIOleInPlaceSiteWindowless@@@1@XZ 10009690 f i Biometrics.obj
 0001:000086e0       ??C?$CComPtrBase@UIOleInPlaceUIWindow@@@ATL@@QBEPAV?$_NoAddRefReleaseOnCComPtr@UIOleInPlaceUIWindow@@@1@XZ 100096e0 f i Biometrics.obj
 0001:00008730       ??C?$CComPtrBase@UIOleObject@@@ATL@@QBEPAV?$_NoAddRefReleaseOnCComPtr@UIOleObject@@@1@XZ 10009730 f i Biometrics.obj
 0001:00008780       ??C?$CComPtrBase@UIPersistStream@@@ATL@@QBEPAV?$_NoAddRefReleaseOnCComPtr@UIPersistStream@@@1@XZ 10009780 f i Biometrics.obj
 0001:000087d0       ??C?$CComPtrBase@UIPersistStreamInit@@@ATL@@QBEPAV?$_NoAddRefReleaseOnCComPtr@UIPersistStreamInit@@@1@XZ 100097d0 f i Biometrics.obj
 0001:00008820       ??C?$CComPtrBase@UIPointerInactive@@@ATL@@QBEPAV?$_NoAddRefReleaseOnCComPtr@UIPointerInactive@@@1@XZ 10009820 f i Biometrics.obj
 0001:00008870       ??C?$CComPtrBase@UIProvideClassInfo2@@@ATL@@QBEPAV?$_NoAddRefReleaseOnCComPtr@UIProvideClassInfo2@@@1@XZ 10009870 f i Biometrics.obj
 0001:000088c0       ??C?$CComPtrBase@UISpecifyPropertyPages@@@ATL@@QBEPAV?$_NoAddRefReleaseOnCComPtr@UISpecifyPropertyPages@@@1@XZ 100098c0 f i Biometrics.obj
 0001:00008910       ??C?$CComPtrBase@UITypeInfo@@@ATL@@QBEPAV?$_NoAddRefReleaseOnCComPtr@UITypeInfo@@@1@XZ 10009910 f i Biometrics.obj
 0001:00008960       ??C?$CComPtrBase@UITypeLib@@@ATL@@QBEPAV?$_NoAddRefReleaseOnCComPtr@UITypeLib@@@1@XZ 10009960 f i Biometrics.obj
 0001:000089b0       ??C?$CComPtrBase@UIUnknown@@@ATL@@QBEPAV?$_NoAddRefReleaseOnCComPtr@UIUnknown@@@1@XZ 100099b0 f i Biometrics.obj
 0001:00008a00       ??C?$CComPtrBase@UIViewObjectEx@@@ATL@@QBEPAV?$_NoAddRefReleaseOnCComPtr@UIViewObjectEx@@@1@XZ 10009a00 f i Biometrics.obj
 0001:00008a50       ??I?$CComPtrBase@UICatRegister@@@ATL@@QAEPAPAUICatRegister@@XZ 10009a50 f i Biometrics.obj
 0001:00008aa0       ??I?$CComPtrBase@UIConnectionPoint@@@ATL@@QAEPAPAUIConnectionPoint@@XZ 10009aa0 f i Biometrics.obj
 0001:00008af0       ??I?$CComPtrBase@UIConnectionPointContainer@@@ATL@@QAEPAPAUIConnectionPointContainer@@XZ 10009af0 f i Biometrics.obj
 0001:00008b40       ??I?$CComPtrBase@UIDataAdviseHolder@@@ATL@@QAEPAPAUIDataAdviseHolder@@XZ 10009b40 f i Biometrics.obj
 0001:00008b90       ??I?$CComPtrBase@UIDataObject@@@ATL@@QAEPAPAUIDataObject@@XZ 10009b90 f i Biometrics.obj
 0001:00008be0       ??I?$CComPtrBase@UIDispatch@@@ATL@@QAEPAPAUIDispatch@@XZ 10009be0 f i Biometrics.obj
 0001:00008c30       ??I?$CComPtrBase@UIOleAdviseHolder@@@ATL@@QAEPAPAUIOleAdviseHolder@@XZ 10009c30 f i Biometrics.obj
 0001:00008c80       ??I?$CComPtrBase@UIOleControlSite@@@ATL@@QAEPAPAUIOleControlSite@@XZ 10009c80 f i Biometrics.obj
 0001:00008cd0       ??I?$CComPtrBase@UIOleInPlaceActiveObject@@@ATL@@QAEPAPAUIOleInPlaceActiveObject@@XZ 10009cd0 f i Biometrics.obj
 0001:00008d20       ??I?$CComPtrBase@UIOleInPlaceFrame@@@ATL@@QAEPAPAUIOleInPlaceFrame@@XZ 10009d20 f i Biometrics.obj
 0001:00008d70       ??I?$CComPtrBase@UIOleInPlaceObject@@@ATL@@QAEPAPAUIOleInPlaceObject@@XZ 10009d70 f i Biometrics.obj
 0001:00008dc0       ??I?$CComPtrBase@UIOleInPlaceSiteWindowless@@@ATL@@QAEPAPAUIOleInPlaceSiteWindowless@@XZ 10009dc0 f i Biometrics.obj
 0001:00008e10       ??I?$CComPtrBase@UIOleInPlaceUIWindow@@@ATL@@QAEPAPAUIOleInPlaceUIWindow@@XZ 10009e10 f i Biometrics.obj
 0001:00008e60       ??I?$CComPtrBase@UIOleObject@@@ATL@@QAEPAPAUIOleObject@@XZ 10009e60 f i Biometrics.obj
 0001:00008eb0       ??I?$CComPtrBase@UIPersistStream@@@ATL@@QAEPAPAUIPersistStream@@XZ 10009eb0 f i Biometrics.obj
 0001:00008f00       ??I?$CComPtrBase@UIPointerInactive@@@ATL@@QAEPAPAUIPointerInactive@@XZ 10009f00 f i Biometrics.obj
 0001:00008f50       ??I?$CComPtrBase@UIProvideClassInfo2@@@ATL@@QAEPAPAUIProvideClassInfo2@@XZ 10009f50 f i Biometrics.obj
 0001:00008fa0       ??I?$CComPtrBase@UIStream@@@ATL@@QAEPAPAUIStream@@XZ 10009fa0 f i Biometrics.obj
 0001:00008ff0       ??I?$CComPtrBase@UITypeInfo2@@@ATL@@QAEPAPAUITypeInfo2@@XZ 10009ff0 f i Biometrics.obj
 0001:00009040       ??I?$CComPtrBase@UITypeInfo@@@ATL@@QAEPAPAUITypeInfo@@XZ 1000a040 f i Biometrics.obj
 0001:00009090       ??I?$CComPtrBase@UITypeLib@@@ATL@@QAEPAPAUITypeLib@@XZ 1000a090 f i Biometrics.obj
 0001:000090e0       ??I?$CComPtrBase@UIUnknown@@@ATL@@QAEPAPAUIUnknown@@XZ 1000a0e0 f i Biometrics.obj
 0001:00009130       ??I?$CComPtrBase@UIViewObjectEx@@@ATL@@QAEPAPAUIViewObjectEx@@XZ 1000a130 f i Biometrics.obj
 0001:00009180       ??ICComBSTR@ATL@@QAEPAPA_WXZ 1000a180 f i Biometrics.obj
 0001:00009195       ??_E?$CComContainedObject@VCOPOSBiometrics@@@ATL@@W3AEPAXI@Z 1000a195 f i Biometrics.obj
 0001:0000919d       ??_E?$CComContainedObject@VCOPOSBiometrics@@@ATL@@WEM@AEPAXI@Z 1000a19d f i Biometrics.obj
 0001:000091a5       ??_E?$CComObject@VCOPOSBiometrics@@@ATL@@W3AEPAXI@Z 1000a1a5 f i Biometrics.obj
 0001:000091ad       ??_E?$CComObject@VCOPOSBiometrics@@@ATL@@WEM@AEPAXI@Z 1000a1ad f i Biometrics.obj
 0001:000091c0       ??_E?$CComAggObject@VCOPOSBiometrics@@@ATL@@UAEPAXI@Z 1000a1c0 f i Biometrics.obj
 0001:000091c0       ??_G?$CComAggObject@VCOPOSBiometrics@@@ATL@@UAEPAXI@Z 1000a1c0 f i Biometrics.obj
 0001:00009210       ??_G?$CComContainedObject@VCOPOSBiometrics@@@ATL@@UAEPAXI@Z 1000a210 f i Biometrics.obj
 0001:00009210       ??_E?$CComContainedObject@VCOPOSBiometrics@@@ATL@@UAEPAXI@Z 1000a210 f i Biometrics.obj
 0001:00009260       ??_G?$CComObject@V?$CComEnum@UIEnumConnectionPoints@@$1?_GUID_b196b285_bab4_101a_b69c_00aa00341d07@@3U__s_GUID@@BPAUIConnectionPoint@@V?$_CopyInterface@UIConnectionPoint@@@ATL@@VCComSingleThreadModel@6@@ATL@@@ATL@@UAEPAXI@Z 1000a260 f i Biometrics.obj
 0001:00009260       ??_E?$CComObject@V?$CComEnum@UIEnumConnectionPoints@@$1?_GUID_b196b285_bab4_101a_b69c_00aa00341d07@@3U__s_GUID@@BPAUIConnectionPoint@@V?$_CopyInterface@UIConnectionPoint@@@ATL@@VCComSingleThreadModel@6@@ATL@@@ATL@@UAEPAXI@Z 1000a260 f i Biometrics.obj
 0001:000092a0       ??_E?$CComObject@V?$CComEnum@UIEnumConnections@@$1?_GUID_b196b287_bab4_101a_b69c_00aa00341d07@@3U__s_GUID@@BUtagCONNECTDATA@@V?$_Copy@UtagCONNECTDATA@@@ATL@@VCComSingleThreadModel@6@@ATL@@@ATL@@UAEPAXI@Z 1000a2a0 f i Biometrics.obj
 0001:000092a0       ??_G?$CComObject@V?$CComEnum@UIEnumConnections@@$1?_GUID_b196b287_bab4_101a_b69c_00aa00341d07@@3U__s_GUID@@BUtagCONNECTDATA@@V?$_Copy@UtagCONNECTDATA@@@ATL@@VCComSingleThreadModel@6@@ATL@@@ATL@@UAEPAXI@Z 1000a2a0 f i Biometrics.obj
 0001:000092e0       ??_G?$CComObject@VCOPOSBiometrics@@@ATL@@UAEPAXI@Z 1000a2e0 f i Biometrics.obj
 0001:000092e0       ??_E?$CComObject@VCOPOSBiometrics@@@ATL@@UAEPAXI@Z 1000a2e0 f i Biometrics.obj
 0001:00009330       ??_E?$CComObjectCached@VCComClassFactory@ATL@@@ATL@@UAEPAXI@Z 1000a330 f i Biometrics.obj
 0001:00009330       ??_G?$CComObjectCached@VCComClassFactory@ATL@@@ATL@@UAEPAXI@Z 1000a330 f i Biometrics.obj
 0001:00009370       ??_GCComClassFactory@ATL@@UAEPAXI@Z 1000a370 f i Biometrics.obj
 0001:00009370       ??_ECComClassFactory@ATL@@UAEPAXI@Z 1000a370 f i Biometrics.obj
 0001:000093b0       ??_ECComModule@ATL@@UAEPAXI@Z 1000a3b0 f i Biometrics.obj
 0001:000093b0       ??_GCComModule@ATL@@UAEPAXI@Z 1000a3b0 f i Biometrics.obj
 0001:000093f0       ??_GCRegObject@ATL@@UAEPAXI@Z 1000a3f0 f i Biometrics.obj
 0001:000093f0       ??_ECRegObject@ATL@@UAEPAXI@Z 1000a3f0 f i Biometrics.obj
 0001:00009430       ?Add@?$CSimpleArray@GV?$CSimpleArrayEqualHelper@G@ATL@@@ATL@@QAEHABG@Z 1000a430 f i Biometrics.obj
 0001:00009580       ?Add@?$CSimpleMap@PA_WPA_WVCExpansionVectorEqualHelper@ATL@@@ATL@@QAEHABQA_W0@Z 1000a580 f i Biometrics.obj
 0001:00009640       ?Add@CComDynamicUnkArray@ATL@@QAEKPAUIUnknown@@@Z 1000a640 f i Biometrics.obj
 0001:000097e0       ?Add@CExpansionVector@ATL@@QAEHPB_W0@Z 1000a7e0 f i Biometrics.obj
 0001:00009a70       ?AddChar@CParseBuffer@CRegParser@ATL@@QAEHPB_W@Z 1000aa70 f i Biometrics.obj
 0001:00009ab0       ?AddCommonRGSReplacements@?$CAtlModuleT@VCComModule@ATL@@@ATL@@UAEJPAUIRegistrarBase@@@Z 1000aab0 f i Biometrics.obj
 0001:00009b00       ?AddCreateWndData@CAtlWinModule@ATL@@QAEXPAU_AtlCreateWndData@2@PAX@Z 1000ab00 f i Biometrics.obj
 0001:00009b30       ?AddRef@?$CComAggObject@VCOPOSBiometrics@@@ATL@@UAGKXZ 1000ab30 f i Biometrics.obj
 0001:00009b50       ?AddRef@?$CComContainedObject@VCOPOSBiometrics@@@ATL@@UAGKXZ 1000ab50 f i Biometrics.obj
 0001:00009b6c       ?AddRef@?$CComContainedObject@VCOPOSBiometrics@@@ATL@@WHA@AGKXZ 1000ab6c f i Biometrics.obj
 0001:00009b76       ?AddRef@?$CComContainedObject@VCOPOSBiometrics@@@ATL@@WHE@AGKXZ 1000ab76 f i Biometrics.obj
 0001:00009b80       ?AddRef@?$CComContainedObject@VCOPOSBiometrics@@@ATL@@WHI@AGKXZ 1000ab80 f i Biometrics.obj
 0001:00009b8a       ?AddRef@?$CComContainedObject@VCOPOSBiometrics@@@ATL@@WHM@AGKXZ 1000ab8a f i Biometrics.obj
 0001:00009b94       ?AddRef@?$CComContainedObject@VCOPOSBiometrics@@@ATL@@WIA@AGKXZ 1000ab94 f i Biometrics.obj
 0001:00009ba1       ?AddRef@?$CComContainedObject@VCOPOSBiometrics@@@ATL@@WIE@AGKXZ 1000aba1 f i Biometrics.obj
 0001:00009bae       ?AddRef@?$CComContainedObject@VCOPOSBiometrics@@@ATL@@WII@AGKXZ 1000abae f i Biometrics.obj
 0001:00009bbb       ?AddRef@?$CComContainedObject@VCOPOSBiometrics@@@ATL@@WIM@AGKXZ 1000abbb f i Biometrics.obj
 0001:00009bc8       ?AddRef@?$CComContainedObject@VCOPOSBiometrics@@@ATL@@WJA@AGKXZ 1000abc8 f i Biometrics.obj
 0001:00009bd5       ?AddRef@?$CComContainedObject@VCOPOSBiometrics@@@ATL@@WJE@AGKXZ 1000abd5 f i Biometrics.obj
 0001:00009be2       ?AddRef@?$CComContainedObject@VCOPOSBiometrics@@@ATL@@WJI@AGKXZ 1000abe2 f i Biometrics.obj
 0001:00009bef       ?AddRef@?$CComContainedObject@VCOPOSBiometrics@@@ATL@@WJM@AGKXZ 1000abef f i Biometrics.obj
 0001:00009bfc       ?AddRef@?$CComContainedObject@VCOPOSBiometrics@@@ATL@@WKA@AGKXZ 1000abfc f i Biometrics.obj
 0001:00009c09       ?AddRef@?$CComContainedObject@VCOPOSBiometrics@@@ATL@@WKI@AGKXZ 1000ac09 f i Biometrics.obj
 0001:00009c16       ?AddRef@?$CComContainedObject@VCOPOSBiometrics@@@ATL@@WLE@AGKXZ 1000ac16 f i Biometrics.obj
 0001:00009c30       ?AddRef@?$CComObject@V?$CComEnum@UIEnumConnectionPoints@@$1?_GUID_b196b285_bab4_101a_b69c_00aa00341d07@@3U__s_GUID@@BPAUIConnectionPoint@@V?$_CopyInterface@UIConnectionPoint@@@ATL@@VCComSingleThreadModel@6@@ATL@@@ATL@@UAGKXZ 1000ac30 f i Biometrics.obj
 0001:00009c50       ?AddRef@?$CComObject@V?$CComEnum@UIEnumConnections@@$1?_GUID_b196b287_bab4_101a_b69c_00aa00341d07@@3U__s_GUID@@BUtagCONNECTDATA@@V?$_Copy@UtagCONNECTDATA@@@ATL@@VCComSingleThreadModel@6@@ATL@@@ATL@@UAGKXZ 1000ac50 f i Biometrics.obj
 0001:00009c70       ?AddRef@?$CComObject@VCOPOSBiometrics@@@ATL@@UAGKXZ 1000ac70 f i Biometrics.obj
 0001:00009c8c       ?AddRef@?$CComObject@VCOPOSBiometrics@@@ATL@@WHA@AGKXZ 1000ac8c f i Biometrics.obj
 0001:00009c96       ?AddRef@?$CComObject@VCOPOSBiometrics@@@ATL@@WHE@AGKXZ 1000ac96 f i Biometrics.obj
 0001:00009ca0       ?AddRef@?$CComObject@VCOPOSBiometrics@@@ATL@@WHI@AGKXZ 1000aca0 f i Biometrics.obj
 0001:00009caa       ?AddRef@?$CComObject@VCOPOSBiometrics@@@ATL@@WHM@AGKXZ 1000acaa f i Biometrics.obj
 0001:00009cb4       ?AddRef@?$CComObject@VCOPOSBiometrics@@@ATL@@WIA@AGKXZ 1000acb4 f i Biometrics.obj
 0001:00009cc1       ?AddRef@?$CComObject@VCOPOSBiometrics@@@ATL@@WIE@AGKXZ 1000acc1 f i Biometrics.obj
 0001:00009cce       ?AddRef@?$CComObject@VCOPOSBiometrics@@@ATL@@WII@AGKXZ 1000acce f i Biometrics.obj
 0001:00009cdb       ?AddRef@?$CComObject@VCOPOSBiometrics@@@ATL@@WIM@AGKXZ 1000acdb f i Biometrics.obj
 0001:00009ce8       ?AddRef@?$CComObject@VCOPOSBiometrics@@@ATL@@WJA@AGKXZ 1000ace8 f i Biometrics.obj
 0001:00009cf5       ?AddRef@?$CComObject@VCOPOSBiometrics@@@ATL@@WJE@AGKXZ 1000acf5 f i Biometrics.obj
 0001:00009d02       ?AddRef@?$CComObject@VCOPOSBiometrics@@@ATL@@WJI@AGKXZ 1000ad02 f i Biometrics.obj
 0001:00009d0f       ?AddRef@?$CComObject@VCOPOSBiometrics@@@ATL@@WJM@AGKXZ 1000ad0f f i Biometrics.obj
 0001:00009d1c       ?AddRef@?$CComObject@VCOPOSBiometrics@@@ATL@@WKA@AGKXZ 1000ad1c f i Biometrics.obj
 0001:00009d29       ?AddRef@?$CComObject@VCOPOSBiometrics@@@ATL@@WKI@AGKXZ 1000ad29 f i Biometrics.obj
 0001:00009d36       ?AddRef@?$CComObject@VCOPOSBiometrics@@@ATL@@WLE@AGKXZ 1000ad36 f i Biometrics.obj
 0001:00009d50       ?AddRef@?$CComObjectCached@VCComClassFactory@ATL@@@ATL@@UAGKXZ 1000ad50 f i Biometrics.obj
 0001:00009da0       ?AddRef@CRegObject@ATL@@UAGKXZ 1000ada0 f i Biometrics.obj
 0001:00009df0       ?AddReplacement@CRegObject@ATL@@UAGJPB_W0@Z 1000adf0 f i Biometrics.obj
 0001:00009f00       ?AddString@CParseBuffer@CRegParser@ATL@@QAEHPB_W@Z 1000af00 f i Biometrics.obj
 0001:00009ff0       ?AddTermFunc@CAtlModule@ATL@@QAEJP6GXK@ZK@Z 1000aff0 f i Biometrics.obj
 0001:0000a040       ?AddValue@CRegParser@ATL@@IAEJAAVCRegKey@2@PB_WPA_W@Z 1000b040 f i Biometrics.obj
 0001:0000a7d0       ?Advise@?$CProxy_IOPOSEvents@VCOPOSBiometrics@@@@UAGJPAUIUnknown@@PAK@Z 1000b7d0 f i Biometrics.obj
 0001:0000a820       ?Advise@?$IConnectionPointImpl@VCOPOSBiometrics@@$1?DIID__IOPOSBiometricsEvents@@3U_GUID@@BVCComDynamicUnkArray@ATL@@@ATL@@UAGJPAUIUnknown@@PAK@Z 1000b820 f i Biometrics.obj
 0001:0000a9c0       ?Advise@?$IConnectionPointImpl@VCOPOSBiometrics@@$1?IID_IPropertyNotifySink@@3U_GUID@@BVCComDynamicUnkArray@ATL@@@ATL@@UAGJPAUIUnknown@@PAK@Z 1000b9c0 f i Biometrics.obj
 0001:0000ab60       ?Advise@?$IOleObjectImpl@VCOPOSBiometrics@@@ATL@@UAGJPAUIAdviseSink@@PAK@Z 1000bb60 f i Biometrics.obj
 0001:0000abf0       ?Allocate@?$CAtlSafeAllocBufferManager@VCCRTAllocator@ATL@@@_ATL_SAFE_ALLOCA_IMPL@ATL@@QAEPAXK@Z 1000bbf0 f i Biometrics.obj
 0001:0000ac60       ?Allocate@?$CTempBuffer@E$0BAA@VCCRTAllocator@ATL@@@ATL@@QAEPAEI@Z 1000bc60 f i Biometrics.obj
 0001:0000aca0       ?Allocate@?$CTempBuffer@_W$0BAA@VCCRTAllocator@ATL@@@ATL@@QAEPA_WI@Z 1000bca0 f i Biometrics.obj
 0001:0000ace0       ?Allocate@?$CTempBuffer@_W$0EAA@VCCRTAllocator@ATL@@@ATL@@QAEPA_WI@Z 1000bce0 f i Biometrics.obj
 0001:0000ad20       ?AllocateBytes@?$CTempBuffer@E$0BAA@VCCRTAllocator@ATL@@@ATL@@QAEPAEI@Z 1000bd20 f i Biometrics.obj
 0001:0000ada0       ?AllocateBytes@?$CTempBuffer@_W$0BAA@VCCRTAllocator@ATL@@@ATL@@QAEPA_WI@Z 1000bda0 f i Biometrics.obj
 0001:0000ae20       ?AllocateBytes@?$CTempBuffer@_W$0EAA@VCCRTAllocator@ATL@@@ATL@@QAEPA_WI@Z 1000be20 f i Biometrics.obj
 0001:0000aea0       ?AllocateHeap@?$CTempBuffer@E$0BAA@VCCRTAllocator@ATL@@@ATL@@AAEXI@Z 1000bea0 f i Biometrics.obj
 0001:0000aef0       ?AllocateHeap@?$CTempBuffer@_W$0BAA@VCCRTAllocator@ATL@@@ATL@@AAEXI@Z 1000bef0 f i Biometrics.obj
 0001:0000af40       ?AllocateHeap@?$CTempBuffer@_W$0EAA@VCCRTAllocator@ATL@@@ATL@@AAEXI@Z 1000bf40 f i Biometrics.obj
 0001:0000af90       ?Append@CParseBuffer@CRegParser@ATL@@QAEHPB_WH@Z 1000bf90 f i Biometrics.obj
 0001:0000b130       ?AtlCallTermFunc@ATL@@YGXPAU_ATL_MODULE70@1@@Z 1000c130 f i Biometrics.obj
 0001:0000b1d0       ?AtlCoTaskMemCAlloc@ATL@@YAPAXKK@Z 1000c1d0 f i Biometrics.obj
 0001:0000b260       ?AtlCoTaskMemRecalloc@ATL@@YAPAXPAXKK@Z 1000c260 f i Biometrics.obj
 0001:0000b300       ?AtlComModuleGetClassObject@ATL@@YGJPAU_ATL_COM_MODULE70@1@ABU_GUID@@1PAPAX@Z 1000c300 f i Biometrics.obj
 0001:0000b590       ?AtlComModuleRegisterServer@ATL@@YGJPAU_ATL_COM_MODULE70@1@HPBU_GUID@@@Z 1000c590 f i Biometrics.obj
 0001:0000b720       ?AtlComModuleUnregisterServer@ATL@@YGJPAU_ATL_COM_MODULE70@1@HPBU_GUID@@@Z 1000c720 f i Biometrics.obj
 0001:0000b850       ?AtlComQIPtrAssign2@ATL@@YAXPAPAUIUnknown@@PAU2@ABU_GUID@@@Z 1000c850 f i Biometrics.obj
 0001:0000b8d0       ?AtlCreateTargetDC@ATL@@YGPAUHDC__@@PAU2@PAUtagDVTARGETDEVICE@@@Z 1000c8d0 f i Biometrics.obj
 0001:0000ba70       ?AtlCrtErrorCheck@ATL@@YAHH@Z 1000ca70 f i Biometrics.obj
 0001:0000bb40       ?AtlGetPerUserRegistration@ATL@@YGJPA_N@Z 1000cb40 f i Biometrics.obj
 0001:0000bb70       ?AtlHiMetricToPixel@ATL@@YGXPBUtagSIZE@@PAU2@@Z 1000cb70 f i Biometrics.obj
 0001:0000bd40       ?AtlHresultFromLastError@ATL@@YAJXZ 1000cd40 f i Biometrics.obj
 0001:0000bd80       ?AtlHresultFromWin32@ATL@@YAJK@Z 1000cd80 f i Biometrics.obj
 0001:0000bda0       ?AtlIPersistStreamInit_Load@ATL@@YGJPAUIStream@@PBUATL_PROPMAP_ENTRY@1@PAXPAUIUnknown@@@Z 1000cda0 f i Biometrics.obj
 0001:0000c200       ?AtlIPersistStreamInit_Save@ATL@@YGJPAUIStream@@HPBUATL_PROPMAP_ENTRY@1@PAXPAUIUnknown@@@Z 1000d200 f i Biometrics.obj
 0001:0000c5e0       ?AtlInternalOleLoadFromStream@ATL@@YAJPAUIStream@@ABU_GUID@@PAPAXTClassesAllowedInStream@1@K@Z 1000d5e0 f i Biometrics.obj
 0001:0000c880       ?AtlInternalQueryInterface@ATL@@YGJPAXPBU_ATL_INTMAP_ENTRY@1@ABU_GUID@@PAPAX@Z 1000d880 f i Biometrics.obj
 0001:0000cab0       ?AtlLoadTypeLib@ATL@@YGJPAUHINSTANCE__@@PB_WPAPA_WPAPAUITypeLib@@@Z 1000dab0 f i Biometrics.obj
 0001:0000cf10       ?AtlModuleAddTermFunc@ATL@@YGJPAU_ATL_MODULE70@1@P6GXK@ZK@Z 1000df10 f i Biometrics.obj
 0001:0000d070       ?AtlRegisterClassCategoriesHelper@ATL@@YGJABU_GUID@@PBU_ATL_CATMAP_ENTRY@1@H@Z 1000e070 f i Biometrics.obj
 0001:0000d750       ?AtlRegisterTypeLib@ATL@@YGJPAUHINSTANCE__@@PB_W@Z 1000e750 f i Biometrics.obj
 0001:0000da90       ?AtlThrowImpl@ATL@@YGXJ@Z  1000ea90 f i Biometrics.obj
 0001:0000db40       ?AtlUnRegisterTypeLib@ATL@@YGJPAUHINSTANCE__@@PB_W@Z 1000eb40 f i Biometrics.obj
 0001:0000dd50       ?AtlWinModuleAddCreateWndData@ATL@@YGXPAU_ATL_WIN_MODULE70@1@PAU_AtlCreateWndData@1@PAX@Z 1000ed50 f i Biometrics.obj
 0001:0000dec0       ?AtlWinModuleExtractCreateWndData@ATL@@YGPAXPAU_ATL_WIN_MODULE70@1@@Z 1000eec0 f i Biometrics.obj
 0001:0000e040       ?AtlWinModuleRegisterClassExW@ATL@@YGGPAU_ATL_WIN_MODULE70@1@PBUtagWNDCLASSEXW@@@Z 1000f040 f i Biometrics.obj
 0001:0000e110       ?AtlWinModuleRegisterWndClassInfoW@ATL@@YGGPAU_ATL_WIN_MODULE70@1@PAU_ATL_BASE_MODULE70@1@PAU_ATL_WNDCLASSINFOW@1@PAP6GJPAUHWND__@@IIJ@Z@Z 1000f110 f i Biometrics.obj
 0001:0000e1a0       ?Attach@?$CAutoVectorPtr@_W@ATL@@QAEXPA_W@Z 1000f1a0 f i Biometrics.obj
 0001:0000e200       ?Attach@CComBSTR@ATL@@QAEXPA_W@Z 1000f200 f i Biometrics.obj
 0001:0000e250       ?Attach@CRegKey@ATL@@QAEXPAUHKEY__@@@Z 1000f250 f i Biometrics.obj
 0001:0000e2c0       ?CanForceRemoveKey@CRegParser@ATL@@IAEHPB_W@Z 1000f2c0 f i Biometrics.obj
 0001:0000e330       ?ChToByte@CRegParser@ATL@@KAE_W@Z 1000f330 f i Biometrics.obj
 0001:0000e450       ?ChangeType@CComVariant@ATL@@QAEJGPBUtagVARIANT@@@Z 1000f450 f i Biometrics.obj
 0001:0000e4b0       ?Cleanup@CComTypeInfoHolder@ATL@@SGXK@Z 1000f4b0 f i Biometrics.obj
 0001:0000e580       ?Clear@CComVariant@ATL@@QAEJXZ 1000f580 f i Biometrics.obj
 0001:0000e5c0       ?ClearReplacements@CExpansionVector@ATL@@QAEJXZ 1000f5c0 f i Biometrics.obj
 0001:0000e650       ?ClearReplacements@CRegObject@ATL@@UAGJXZ 1000f650 f i Biometrics.obj
 0001:0000e6a0       ?Clone@?$CComEnumImpl@UIEnumConnectionPoints@@$1?_GUID_b196b285_bab4_101a_b69c_00aa00341d07@@3U__s_GUID@@BPAUIConnectionPoint@@V?$_CopyInterface@UIConnectionPoint@@@ATL@@@ATL@@UAGJPAPAUIEnumConnectionPoints@@@Z 1000f6a0 f i Biometrics.obj
 0001:0000e810       ?Clone@?$CComEnumImpl@UIEnumConnections@@$1?_GUID_b196b287_bab4_101a_b69c_00aa00341d07@@3U__s_GUID@@BUtagCONNECTDATA@@V?$_Copy@UtagCONNECTDATA@@@ATL@@@ATL@@UAGJPAPAUIEnumConnections@@@Z 1000f810 f i Biometrics.obj
 0001:0000e980       ?Close@?$IOleObjectImpl@VCOPOSBiometrics@@@ATL@@UAGJK@Z 1000f980 f i Biometrics.obj
 0001:0000ea10       ?Close@CRegKey@ATL@@QAEJXZ 1000fa10 f i Biometrics.obj
 0001:0000ea80       ?ContextSensitiveHelp@?$IOleInPlaceActiveObjectImpl@VCOPOSBiometrics@@@ATL@@UAGJH@Z 1000fa80 f i Biometrics.obj
 0001:0000eaf0       ?ContextSensitiveHelp@?$IOleInPlaceObjectWindowlessImpl@VCOPOSBiometrics@@@ATL@@UAGJH@Z 1000faf0 f i Biometrics.obj
 0001:0000eb60       ?ControlQueryInterface@?$CComControl@VCOPOSBiometrics@@V?$CWindowImpl@VCOPOSBiometrics@@VCWindow@ATL@@V?$CWinTraits@$0FGAAAAAA@$0A@@3@@ATL@@@ATL@@UAEJABU_GUID@@PAPAX@Z 1000fb60 f i Biometrics.obj
 0001:0000ebe0       ?CreateControlWindow@?$CComControl@VCOPOSBiometrics@@V?$CWindowImpl@VCOPOSBiometrics@@VCWindow@ATL@@V?$CWinTraits@$0FGAAAAAA@$0A@@3@@ATL@@@ATL@@UAEPAUHWND__@@PAU3@AAUtagRECT@@@Z 1000fbe0 f i Biometrics.obj
 0001:0000ec60       ?CreateInstance@?$CComCreator@V?$CComAggObject@VCOPOSBiometrics@@@ATL@@@ATL@@SGJPAXABU_GUID@@PAPAX@Z 1000fc60 f i Biometrics.obj
 0001:0000ede0       ?CreateInstance@?$CComCreator@V?$CComObject@VCOPOSBiometrics@@@ATL@@@ATL@@SGJPAXABU_GUID@@PAPAX@Z 1000fde0 f i Biometrics.obj
 0001:0000ef70       ?CreateInstance@?$CComObject@V?$CComEnum@UIEnumConnectionPoints@@$1?_GUID_b196b285_bab4_101a_b69c_00aa00341d07@@3U__s_GUID@@BPAUIConnectionPoint@@V?$_CopyInterface@UIConnectionPoint@@@ATL@@VCComSingleThreadModel@6@@ATL@@@ATL@@SGJPAPAV12@@Z 1000ff70 f i Biometrics.obj
 0001:0000f0e0       ?CreateInstance@?$CComObject@V?$CComEnum@UIEnumConnections@@$1?_GUID_b196b287_bab4_101a_b69c_00aa00341d07@@3U__s_GUID@@BUtagCONNECTDATA@@V?$_Copy@UtagCONNECTDATA@@@ATL@@VCComSingleThreadModel@6@@ATL@@@ATL@@SGJPAPAV12@@Z 100100e0 f i Biometrics.obj
 0001:0000f250       ?CreateInstance@CComClassFactory@ATL@@UAGJPAUIUnknown@@ABU_GUID@@PAPAX@Z 10010250 f i Biometrics.obj
 0001:0000f340       ?DAdvise@?$IDataObjectImpl@VCOPOSBiometrics@@@ATL@@UAGJPAUtagFORMATETC@@KPAUIAdviseSink@@PAK@Z 10010340 f i Biometrics.obj
 0001:0000f440       ?DEVMODEOLE2T_EX@@YAPAU_devicemodeW@@PAU1@@Z 10010440 f i Biometrics.obj
 0001:0000f450       ?DUnadvise@?$IDataObjectImpl@VCOPOSBiometrics@@@ATL@@UAGJK@Z 10010450 f i Biometrics.obj
 0001:0000f520       ?Decrement@CComMultiThreadModel@ATL@@SGKPAJ@Z 10010520 f i Biometrics.obj
 0001:0000f540       ?Decrement@CComSingleThreadModel@ATL@@SGKPAJ@Z 10010540 f i Biometrics.obj
 0001:0000f560       ?DefWindowProcW@?$CWindowImplBaseT@VCWindow@ATL@@V?$CWinTraits@$0FGAAAAAA@$0A@@2@@ATL@@QAEJIIJ@Z 10010560 f i Biometrics.obj
 0001:0000f5b0       ?DefaultReflectionHandler@?$CWindowImplRoot@VCWindow@ATL@@@ATL@@SAHPAUHWND__@@IIJAAJ@Z 100105b0 f i Biometrics.obj
 0001:0000f7a0       ?DeleteSubKey@CRegKey@ATL@@QAEJPB_W@Z 100107a0 f i Biometrics.obj
 0001:0000f8b0       ?DeleteValue@CRegKey@ATL@@QAEJPB_W@Z 100108b0 f i Biometrics.obj
 0001:0000f920       ?Detach@?$CAutoVectorPtr@_W@ATL@@QAEPA_WXZ 10010920 f i Biometrics.obj
 0001:0000f950       ?Detach@?$CComPtrBase@UIPersistStream@@@ATL@@QAEPAUIPersistStream@@XZ 10010950 f i Biometrics.obj
 0001:0000f980       ?Detach@?$CComPtrBase@UITypeInfo@@@ATL@@QAEPAUITypeInfo@@XZ 10010980 f i Biometrics.obj
 0001:0000f9b0       ?Detach@?$CComPtrBase@UIUnknown@@@ATL@@QAEPAUIUnknown@@XZ 100109b0 f i Biometrics.obj
 0001:0000f9e0       ?Detach@CComBSTR@ATL@@QAEPA_WXZ 100109e0 f i Biometrics.obj
 0001:0000fa10       ?Detach@CParseBuffer@CRegParser@ATL@@QAEPA_WXZ 10010a10 f i Biometrics.obj
 0001:0000fa60       ?Detach@CRegKey@ATL@@QAEPAUHKEY__@@XZ 10010a60 f i Biometrics.obj
 0001:0000fab0       ?DoEvent@COPOSBiometrics@@IAEXIIJ@Z 10010ab0 f i Biometrics.obj
 0001:0000fbf0       ?DoVerb@?$IOleObjectImpl@VCOPOSBiometrics@@@ATL@@UAGJJPAUtagMSG@@PAUIOleClientSite@@JPAUHWND__@@PBUtagRECT@@@Z 10010bf0 f i Biometrics.obj
 0001:0000fe00       ?DoVerbDiscardUndo@?$IOleObjectImpl@VCOPOSBiometrics@@@ATL@@QAEJPBUtagRECT@@PAUHWND__@@@Z 10010e00 f i Biometrics.obj
 0001:0000fe70       ?DoVerbHide@?$IOleObjectImpl@VCOPOSBiometrics@@@ATL@@QAEJPBUtagRECT@@PAUHWND__@@@Z 10010e70 f i Biometrics.obj
 0001:0000ff20       ?DoVerbInPlaceActivate@?$IOleObjectImpl@VCOPOSBiometrics@@@ATL@@QAEJPBUtagRECT@@PAUHWND__@@@Z 10010f20 f i Biometrics.obj
 0001:0000ffc0       ?DoVerbOpen@?$IOleObjectImpl@VCOPOSBiometrics@@@ATL@@QAEJPBUtagRECT@@PAUHWND__@@@Z 10010fc0 f i Biometrics.obj
 0001:00010030       ?DoVerbPrimary@?$IOleObjectImpl@VCOPOSBiometrics@@@ATL@@QAEJPBUtagRECT@@PAUHWND__@@@Z 10011030 f i Biometrics.obj
 0001:00010140       ?DoVerbProperties@CComControlBase@ATL@@QAEJPBUtagRECT@@PAUHWND__@@@Z 10011140 f i Biometrics.obj
 0001:00010460       ?DoVerbShow@?$IOleObjectImpl@VCOPOSBiometrics@@@ATL@@QAEJPBUtagRECT@@PAUHWND__@@@Z 10011460 f i Biometrics.obj
 0001:000104f0       ?DoVerbUIActivate@?$IOleObjectImpl@VCOPOSBiometrics@@@ATL@@QAEJPBUtagRECT@@PAUHWND__@@@Z 100114f0 f i Biometrics.obj
 0001:00010590       ?DoesVerbActivate@CComControlBase@ATL@@QAEHJ@Z 10011590 f i Biometrics.obj
 0001:00010600       ?DoesVerbUIActivate@CComControlBase@ATL@@QAEHJ@Z 10011600 f i Biometrics.obj
 0001:00010680       ?Draw@?$IViewObjectExImpl@VCOPOSBiometrics@@@ATL@@UAGJKJPAXPAUtagDVTARGETDEVICE@@PAUHDC__@@2PBU_RECTL@@3P6GHK@ZK@Z 10011680 f i Biometrics.obj
 0001:00010720       ?Empty@CComBSTR@ATL@@QAEXXZ 10011720 f i Biometrics.obj
 0001:00010760       ?EnableModeless@?$IOleInPlaceActiveObjectImpl@VCOPOSBiometrics@@@ATL@@UAGJH@Z 10011760 f i Biometrics.obj
 0001:000107c0       ?EndOfVar@CRegParser@ATL@@IAEHXZ 100117c0 f i Biometrics.obj
 0001:00010830       ?EnsureTI@CComTypeInfoHolder@ATL@@QAEJK@Z 10011830 f i Biometrics.obj
 0001:00010890       ?EnumAdvise@?$IOleObjectImpl@VCOPOSBiometrics@@@ATL@@UAGJPAPAUIEnumSTATDATA@@@Z 10011890 f i Biometrics.obj
 0001:000109a0       ?EnumConnectionPoints@?$IConnectionPointContainerImpl@VCOPOSBiometrics@@@ATL@@UAGJPAPAUIEnumConnectionPoints@@@Z 100119a0 f i Biometrics.obj
 0001:00010dd0       ?EnumConnections@?$IConnectionPointImpl@VCOPOSBiometrics@@$1?DIID__IOPOSBiometricsEvents@@3U_GUID@@BVCComDynamicUnkArray@ATL@@@ATL@@UAGJPAPAUIEnumConnections@@@Z 10011dd0 f i Biometrics.obj
 0001:00011020       ?EnumConnections@?$IConnectionPointImpl@VCOPOSBiometrics@@$1?IID_IPropertyNotifySink@@3U_GUID@@BVCComDynamicUnkArray@ATL@@@ATL@@UAGJPAPAUIEnumConnections@@@Z 10012020 f i Biometrics.obj
 0001:00011270       ?EnumDAdvise@?$IDataObjectImpl@VCOPOSBiometrics@@@ATL@@UAGJPAPAUIEnumSTATDATA@@@Z 10012270 f i Biometrics.obj
 0001:00011370       ?EnumFormatEtc@?$IDataObjectImpl@VCOPOSBiometrics@@@ATL@@UAGJKPAPAUIEnumFORMATETC@@@Z 10012370 f i Biometrics.obj
 0001:000113e0       ?EnumVerbs@?$IOleObjectImpl@VCOPOSBiometrics@@@ATL@@UAGJPAPAUIEnumOLEVERB@@@Z 100123e0 f i Biometrics.obj
 0001:00011490       ?EscapeSingleQuote@CAtlModule@ATL@@SAXPA_WIPB_W@Z 10012490 f i Biometrics.obj
 0001:00011540       ?ExtractCreateWndData@CAtlWinModule@ATL@@QAEPAXXZ 10012540 f i Biometrics.obj
 0001:00011570       ?FAccessAllowed@?$IObjectSafetyImpl@VCOPOSBiometrics@@$02@ATL@@MAEHXZ 10012570 f i Biometrics.obj
 0001:00011590       ?FinalConstruct@?$CComAggObject@VCOPOSBiometrics@@@ATL@@QAEJXZ 10012590 f i Biometrics.obj
 0001:000115d0       ?FinalConstruct@CComObjectRootBase@ATL@@QAEJXZ 100125d0 f i Biometrics.obj
 0001:000115f0       ?FinalConstruct@CRegObject@ATL@@QAEJXZ 100125f0 f i Biometrics.obj
 0001:00011620       ?FinalRelease@?$CComAggObject@VCOPOSBiometrics@@@ATL@@QAEXXZ 10012620 f i Biometrics.obj
 0001:00011660       ?FinalRelease@CComObjectRootBase@ATL@@QAEXXZ 10012660 f i Biometrics.obj
 0001:00011680       ?FindConnectionPoint@?$IConnectionPointContainerImpl@VCOPOSBiometrics@@@ATL@@UAGJABU_GUID@@PAPAUIConnectionPoint@@@Z 10012680 f i Biometrics.obj
 0001:000117d0       ?FindKey@?$CSimpleMap@PA_WPA_WVCExpansionVectorEqualHelper@ATL@@@ATL@@QBEHABQA_W@Z 100127d0 f i Biometrics.obj
 0001:00011840       ?FireTheEvent@?$CProxy_IOPOSEvents@VCOPOSBiometrics@@@@IAEXPAUIUnknown@@PAVOposVariant@@IAAJPB_WJ@Z 10012840 f i Biometrics.obj
 0001:000119b0       ?FireViewChange@CComControlBase@ATL@@QAEJXZ 100129b0 f i Biometrics.obj
 0001:00011a70       ?Fire_DataEvent@?$CProxy_IOPOSEvents@VCOPOSBiometrics@@@@QAEXJ@Z 10012a70 f i Biometrics.obj
 0001:00011bd0       ?Fire_DirectIOEvent@?$CProxy_IOPOSEvents@VCOPOSBiometrics@@@@QAEXJPAJPAPA_W@Z 10012bd0 f i Biometrics.obj
 0001:00011da0       ?Fire_ErrorEvent@?$CProxy_IOPOSEvents@VCOPOSBiometrics@@@@QAEXJJJPAJ@Z 10012da0 f i Biometrics.obj
 0001:00011f90       ?Fire_StatusUpdateEvent@?$CProxy_IOPOSEvents@VCOPOSBiometrics@@@@QAEXJ@Z 10012f90 f i Biometrics.obj
 0001:000120f0       ?FormatWindowClassName@AtlModuleRegisterWndClassInfoParamW@ATL@@SAXPA_WKPAX@Z 100130f0 f i Biometrics.obj
 0001:00012120       ?Free@?$CAutoVectorPtr@_W@ATL@@QAEXXZ 10013120 f i Biometrics.obj
 0001:00012170       ?FreeHeap@?$CTempBuffer@E$0BAA@VCCRTAllocator@ATL@@@ATL@@AAEXXZ 10013170 f i Biometrics.obj
 0001:000121a0       ?FreeHeap@?$CTempBuffer@_W$0BAA@VCCRTAllocator@ATL@@@ATL@@AAEXXZ 100131a0 f i Biometrics.obj
 0001:000121d0       ?FreeHeap@?$CTempBuffer@_W$0EAA@VCCRTAllocator@ATL@@@ATL@@AAEXXZ 100131d0 f i Biometrics.obj
 0001:00012200       ?Freeze@?$IViewObjectExImpl@VCOPOSBiometrics@@@ATL@@UAGJKJPAXPAK@Z 10013200 f i Biometrics.obj
 0001:00012270       ?GenerateError@CRegParser@ATL@@IAEJI@Z 10013270 f i Biometrics.obj
 0001:00012290       ?GetAdvise@?$IViewObjectExImpl@VCOPOSBiometrics@@@ATL@@UAGJPAK0PAPAUIAdviseSink@@@Z 10013290 f i Biometrics.obj
 0001:00012390       ?GetAmbientLocaleID@CComControlBase@ATL@@QAEJAAK@Z 10013390 f i Biometrics.obj
 0001:00012470       ?GetAmbientProperty@CComControlBase@ATL@@QAEJJAAUtagVARIANT@@@Z 10013470 f i Biometrics.obj
 0001:000124c0       ?GetAmbientUserMode@CComControlBase@ATL@@QAEJAAH@Z 100134c0 f i Biometrics.obj
 0001:000125c0       ?GetAppId@?$CAtlModuleT@VCComModule@ATL@@@ATL@@SAPB_WXZ 100135c0 f i Biometrics.obj
 0001:000125d0       ?GetAt@CComDynamicUnkArray@ATL@@QAEPAUIUnknown@@H@Z 100135d0 f i Biometrics.obj
 0001:00012650       ?GetCanonicalFormatEtc@?$IDataObjectImpl@VCOPOSBiometrics@@@ATL@@UAGJPAUtagFORMATETC@@0@Z 10013650 f i Biometrics.obj
 0001:000126c0       ?GetClassID@?$IPersistStorageImpl@VCOPOSBiometrics@@@ATL@@UAGJPAU_GUID@@@Z 100136c0 f i Biometrics.obj
 0001:00012740       ?GetClassID@?$IPersistStreamInitImpl@VCOPOSBiometrics@@@ATL@@UAGJPAU_GUID@@@Z 10013740 f i Biometrics.obj
 0001:000127c0       ?GetClassInfoExW@AtlModuleRegisterWndClassInfoParamW@ATL@@SAHPAUHINSTANCE__@@PB_WPAUtagWNDCLASSEXW@@@Z 100137c0 f i Biometrics.obj
 0001:000127f0       ?GetClassInfoW@?$IProvideClassInfo2Impl@$1?CLSID_OPOSBiometrics@@3U_GUID@@B$1?DIID__IOPOSBiometricsEvents@@3U2@B$1?LIBID_OposBiometrics_CCO@@3U2@B$00$0A@VCComTypeInfoHolder@ATL@@@ATL@@UAGJPAPAUITypeInfo@@@Z 100137f0 f i Biometrics.obj
 0001:00012810       ?GetClassObject@CComModule@ATL@@QAEJABU_GUID@@0PAPAX@Z 10013810 f i Biometrics.obj
 0001:00012a10       ?GetClientSite@?$IOleObjectImpl@VCOPOSBiometrics@@@ATL@@UAGJPAPAUIOleClientSite@@@Z 10013a10 f i Biometrics.obj
 0001:00012aa0       ?GetClipboardData@?$IOleObjectImpl@VCOPOSBiometrics@@@ATL@@UAGJKPAPAUIDataObject@@@Z 10013aa0 f i Biometrics.obj
 0001:00012b10       ?GetCodeAddress@CDynamicStdCallThunk2@ATL@@QAEPAXXZ 10013b10 f i Biometrics.obj
 0001:00012b40       ?GetColorSet@?$IViewObjectExImpl@VCOPOSBiometrics@@@ATL@@UAGJKJPAXPAUtagDVTARGETDEVICE@@PAUHDC__@@PAPAUtagLOGPALETTE@@@Z 10013b40 f i Biometrics.obj
 0001:00012bb0       ?GetConnMap@COPOSBiometrics@@SAPBU_ATL_CONNMAP_ENTRY@ATL@@PAH@Z 10013bb0 f i Biometrics.obj
 0001:00012cf0       ?GetConnectionInterface@?$IConnectionPointImpl@VCOPOSBiometrics@@$1?DIID__IOPOSBiometricsEvents@@3U_GUID@@BVCComDynamicUnkArray@ATL@@@ATL@@UAGJPAU_GUID@@@Z 10013cf0 f i Biometrics.obj
 0001:00012d30       ?GetConnectionInterface@?$IConnectionPointImpl@VCOPOSBiometrics@@$1?IID_IPropertyNotifySink@@3U_GUID@@BVCComDynamicUnkArray@ATL@@@ATL@@UAGJPAU_GUID@@@Z 10013d30 f i Biometrics.obj
 0001:00012d70       ?GetConnectionPointContainer@?$IConnectionPointImpl@VCOPOSBiometrics@@$1?DIID__IOPOSBiometricsEvents@@3U_GUID@@BVCComDynamicUnkArray@ATL@@@ATL@@UAGJPAPAUIConnectionPointContainer@@@Z 10013d70 f i Biometrics.obj
 0001:00012de0       ?GetConnectionPointContainer@?$IConnectionPointImpl@VCOPOSBiometrics@@$1?IID_IPropertyNotifySink@@3U_GUID@@BVCComDynamicUnkArray@ATL@@@ATL@@UAGJPAPAUIConnectionPointContainer@@@Z 10013de0 f i Biometrics.obj
 0001:00012e50       ?GetContentExtent@?$IQuickActivateImpl@VCOPOSBiometrics@@@ATL@@UAGJPAUtagSIZE@@@Z 10013e50 f i Biometrics.obj
 0001:00012ee0       ?GetControlInfo@?$IOleControlImpl@VCOPOSBiometrics@@@ATL@@UAGJPAUtagCONTROLINFO@@@Z 10013ee0 f i Biometrics.obj
 0001:00012f50       ?GetCookie@CComDynamicUnkArray@ATL@@QAGKPAPAUIUnknown@@@Z 10013f50 f i Biometrics.obj
 0001:00013010       ?GetData@?$IDataObjectImpl@VCOPOSBiometrics@@@ATL@@UAGJPAUtagFORMATETC@@PAUtagSTGMEDIUM@@@Z 10014010 f i Biometrics.obj
 0001:000130a0       ?GetData@CAtlSafeAllocBufferNode@?$CAtlSafeAllocBufferManager@VCCRTAllocator@ATL@@@_ATL_SAFE_ALLOCA_IMPL@ATL@@QAEPAXXZ 100140a0 f i Biometrics.obj
 0001:000130c0       ?GetDataHere@?$IDataObjectImpl@VCOPOSBiometrics@@@ATL@@UAGJPAUtagFORMATETC@@PAUtagSTGMEDIUM@@@Z 100140c0 f i Biometrics.obj
 0001:00013130       ?GetDropTarget@?$IOleInPlaceObjectWindowlessImpl@VCOPOSBiometrics@@@ATL@@UAGJPAPAUIDropTarget@@@Z 10014130 f i Biometrics.obj
 0001:000131a0       ?GetExtent@?$IOleObjectImpl@VCOPOSBiometrics@@@ATL@@UAGJKPAUtagSIZE@@@Z 100141a0 f i Biometrics.obj
 0001:00013240       ?GetExtent@?$IViewObjectExImpl@VCOPOSBiometrics@@@ATL@@UAGJKJPAUtagDVTARGETDEVICE@@PAUtagSIZE@@@Z 10014240 f i Biometrics.obj
 0001:00013310       ?GetGITPtr@CAtlModule@ATL@@UAEJPAPAUIGlobalInterfaceTable@@@Z 10014310 f i Biometrics.obj
 0001:00013410       ?GetGUID@?$IProvideClassInfo2Impl@$1?CLSID_OPOSBiometrics@@3U_GUID@@B$1?DIID__IOPOSBiometricsEvents@@3U2@B$1?LIBID_OposBiometrics_CCO@@3U2@B$00$0A@VCComTypeInfoHolder@ATL@@@ATL@@UAGJKPAU_GUID@@@Z 10014410 f i Biometrics.obj
 0001:00013490       ?GetIDsOfNames@?$IDispatchImpl@UIOPOSBiometrics@@$1?IID_IOPOSBiometrics@@3U_GUID@@B$1?LIBID_OposBiometrics_CCO@@3U3@B$00$0A@VCComTypeInfoHolder@ATL@@@ATL@@UAGJABU_GUID@@PAPA_WIKPAJ@Z 10014490 f i Biometrics.obj
 0001:000134c0       ?GetIDsOfNames@CComTypeInfoHolder@ATL@@QAEJABU_GUID@@PAPA_WIKPAJ@Z 100144c0 f i Biometrics.obj
 0001:00013670       ?GetInterfaceSafetyOptions@?$IObjectSafetyImpl@VCOPOSBiometrics@@$02@ATL@@UAGJABU_GUID@@PAK1@Z 10014670 f i Biometrics.obj
 0001:000137e0       ?GetKeyAt@?$CSimpleMap@PA_WPA_WVCExpansionVectorEqualHelper@ATL@@@ATL@@QBEAAPA_WH@Z 100147e0 f i Biometrics.obj
 0001:00013860       ?GetLockCount@CAtlModule@ATL@@UAEJXZ 10014860 f i Biometrics.obj
 0001:00013880       ?GetMiscStatus@?$IOleObjectImpl@VCOPOSBiometrics@@@ATL@@UAGJKPAK@Z 10014880 f i Biometrics.obj
 0001:000138f0       ?GetMoniker@?$IOleObjectImpl@VCOPOSBiometrics@@@ATL@@UAGJKKPAPAUIMoniker@@@Z 100148f0 f i Biometrics.obj
 0001:00013960       ?GetNaturalExtent@?$IViewObjectExImpl@VCOPOSBiometrics@@@ATL@@UAGJKJPAUtagDVTARGETDEVICE@@PAUHDC__@@PAUtagExtentInfo@@PAUtagSIZE@@@Z 10014960 f i Biometrics.obj
 0001:00013a80       ?GetObjectCLSID@?$CComCoClass@VCOPOSBiometrics@@$1?CLSID_OPOSBiometrics@@3U_GUID@@B@ATL@@SGABU_GUID@@XZ 10014a80 f i Biometrics.obj
 0001:00013a90       ?GetPages@?$ISpecifyPropertyPagesImpl@VCOPOSBiometrics@@@ATL@@UAGJPAUtagCAUUID@@@Z 10014a90 f i Biometrics.obj
 0001:00013b00       ?GetPagesHelper@?$ISpecifyPropertyPagesImpl@VCOPOSBiometrics@@@ATL@@IAEJPAUtagCAUUID@@PBUATL_PROPMAP_ENTRY@2@@Z 10014b00 f i Biometrics.obj
 0001:00013d00       ?GetProperty@?$CComPtr@UIDispatch@@@ATL@@QAEJJPAUtagVARIANT@@@Z 10014d00 f i Biometrics.obj
 0001:00013d40       ?GetProperty@?$CComPtr@UIDispatch@@@ATL@@SAJPAUIDispatch@@JPAUtagVARIANT@@@Z 10014d40 f i Biometrics.obj
 0001:00013ea0       ?GetPropertyMap@COPOSBiometrics@@SAPBUATL_PROPMAP_ENTRY@ATL@@XZ 10014ea0 f i Biometrics.obj
 0001:00013eb0       ?GetRect@?$IViewObjectExImpl@VCOPOSBiometrics@@@ATL@@UAGJKPAU_RECTL@@@Z 10014eb0 f i Biometrics.obj
 0001:00013f20       ?GetSize@?$CSimpleMap@PA_WPA_WVCExpansionVectorEqualHelper@ATL@@@ATL@@QBEHXZ 10014f20 f i Biometrics.obj
 0001:00013f40       ?GetSize@CComDynamicUnkArray@ATL@@QBEHXZ 10014f40 f i Biometrics.obj
 0001:00013f60       ?GetSizeMax@?$IPersistStreamInitImpl@VCOPOSBiometrics@@@ATL@@UAGJPAT_ULARGE_INTEGER@@@Z 10014f60 f i Biometrics.obj
 0001:000144d0       ?GetSizeMax@CComVariant@ATL@@QBEJPAT_ULARGE_INTEGER@@@Z 100154d0 f i Biometrics.obj
 0001:00014830       ?GetStreamSize@CComBSTR@ATL@@SAKPA_W@Z 10015830 f i Biometrics.obj
 0001:00014880       ?GetTI@CComTypeInfoHolder@ATL@@QAEJK@Z 10015880 f i Biometrics.obj
 0001:00015090       ?GetTI@CComTypeInfoHolder@ATL@@QAEJKPAPAUITypeInfo@@@Z 10016090 f i Biometrics.obj
 0001:00015150       ?GetTypeInfo@?$IDispatchImpl@UIOPOSBiometrics@@$1?IID_IOPOSBiometrics@@3U_GUID@@B$1?LIBID_OposBiometrics_CCO@@3U3@B$00$0A@VCComTypeInfoHolder@ATL@@@ATL@@UAGJIKPAPAUITypeInfo@@@Z 10016150 f i Biometrics.obj
 0001:00015180       ?GetTypeInfo@CComTypeInfoHolder@ATL@@QAEJIKPAPAUITypeInfo@@@Z 10016180 f i Biometrics.obj
 0001:000151c0       ?GetTypeInfoCount@?$IDispatchImpl@UIOPOSBiometrics@@$1?IID_IOPOSBiometrics@@3U_GUID@@B$1?LIBID_OposBiometrics_CCO@@3U3@B$00$0A@VCComTypeInfoHolder@ATL@@@ATL@@UAGJPAI@Z 100161c0 f i Biometrics.obj
 0001:000151e0       ?GetUnknown@CComDynamicUnkArray@ATL@@QAGPAUIUnknown@@K@Z 100161e0 f i Biometrics.obj
 0001:00015250       ?GetUnknown@COPOSBiometrics@@QAEPAUIUnknown@@XZ 10016250 f i Biometrics.obj
 0001:00015280       ?GetUserClassID@?$IOleObjectImpl@VCOPOSBiometrics@@@ATL@@UAGJPAU_GUID@@@Z 10016280 f i Biometrics.obj
 0001:00015330       ?GetUserType@?$IOleObjectImpl@VCOPOSBiometrics@@@ATL@@UAGJKPAPA_W@Z 10016330 f i Biometrics.obj
 0001:000153a0       ?GetValueAt@?$CSimpleMap@PA_WPA_WVCExpansionVectorEqualHelper@ATL@@@ATL@@QBEAAPA_WH@Z 100163a0 f i Biometrics.obj
 0001:00015420       ?GetViewStatus@?$IViewObjectExImpl@VCOPOSBiometrics@@@ATL@@UAGJPAK@Z 10016420 f i Biometrics.obj
 0001:000154e0       ?GetWNDPROC@CWndProcThunk@ATL@@QAEP6GJPAUHWND__@@IIJ@ZXZ 100164e0 f i Biometrics.obj
 0001:00015510       ?GetWindow@?$IOleInPlaceActiveObjectImpl@VCOPOSBiometrics@@@ATL@@UAGJPAPAUHWND__@@@Z 10016510 f i Biometrics.obj
 0001:000155e0       ?GetWindow@?$IOleInPlaceObjectWindowlessImpl@VCOPOSBiometrics@@@ATL@@UAGJPAPAUHWND__@@@Z 100165e0 f i Biometrics.obj
 0001:000156b0       ?GetWindowLongPtrW@@YAJPAUHWND__@@H@Z 100166b0 f i Biometrics.obj
 0001:000156e0       ?GetWindowProc@?$CWindowImplBaseT@VCWindow@ATL@@V?$CWinTraits@$0FGAAAAAA@$0A@@2@@ATL@@UAEP6GJPAUHWND__@@IIJ@ZXZ 100166e0 f i Biometrics.obj
 0001:00015700       ?GetWndCaption@?$CWindowImpl@VCOPOSBiometrics@@VCWindow@ATL@@V?$CWinTraits@$0FGAAAAAA@$0A@@3@@ATL@@SAPB_WXZ 10016700 f i Biometrics.obj
 0001:00015710       ?GetWndClassInfo@?$CWindowImpl@VCOPOSBiometrics@@VCWindow@ATL@@V?$CWinTraits@$0FGAAAAAA@$0A@@3@@ATL@@SAAAU_ATL_WNDCLASSINFOW@2@XZ 10016710 f i Biometrics.obj
 0001:00015720       ?GetWndClassName@CWindow@ATL@@SAPB_WXZ 10016720 f i Biometrics.obj
 0001:00015730       ?GetWndExStyle@?$CWinTraits@$0FGAAAAAA@$0A@@ATL@@SAKK@Z 10016730 f i Biometrics.obj
 0001:00015760       ?GetWndExStyle@?$CWindowImplBaseT@VCWindow@ATL@@V?$CWinTraits@$0FGAAAAAA@$0A@@2@@ATL@@SAKK@Z 10016760 f i Biometrics.obj
 0001:00015780       ?GetWndStyle@?$CWinTraits@$0FGAAAAAA@$0A@@ATL@@SAKK@Z 10016780 f i Biometrics.obj
 0001:000157b0       ?GetWndStyle@?$CWindowImplBaseT@VCWindow@ATL@@V?$CWinTraits@$0FGAAAAAA@$0A@@2@@ATL@@SAKK@Z 100167b0 f i Biometrics.obj
 0001:000157d0       ?GetZoomInfo@CComControlBase@ATL@@QAEXAAUATL_DRAWINFO@@@Z 100167d0 f i Biometrics.obj
 0001:00015940       ?HKeyFromString@CRegParser@ATL@@KAPAUHKEY__@@PA_W@Z 10016940 f i Biometrics.obj
 0001:000159b0       ?HandsOffStorage@?$IPersistStorageImpl@VCOPOSBiometrics@@@ATL@@UAGJXZ 100169b0 f i Biometrics.obj
 0001:00015a10       ?HasSubKeys@CRegParser@ATL@@IAEHPAUHKEY__@@@Z 10016a10 f i Biometrics.obj
 0001:00015b20       ?IDataObject_GetData@CComControlBase@ATL@@QAEJPAUtagFORMATETC@@PAUtagSTGMEDIUM@@@Z 10016b20 f i Biometrics.obj
 0001:00015f40       ?IOleInPlaceObject_InPlaceDeactivate@CComControlBase@ATL@@QAEJXZ 10016f40 f i Biometrics.obj
 0001:00016140       ?IOleInPlaceObject_SetObjectRects@CComControlBase@ATL@@QAEJPBUtagRECT@@0@Z 10017140 f i Biometrics.obj
 0001:00016300       ?IOleInPlaceObject_UIDeactivate@CComControlBase@ATL@@QAEJXZ 10017300 f i Biometrics.obj
 0001:00016570       ?IOleObject_Advise@CComControlBase@ATL@@QAEJPAUIAdviseSink@@PAK@Z 10017570 f i Biometrics.obj
 0001:00016620       ?IOleObject_Close@CComControlBase@ATL@@QAEJK@Z 10017620 f i Biometrics.obj
 0001:000168d0       ?IOleObject_GetClientSite@CComControlBase@ATL@@QAEJPAPAUIOleClientSite@@@Z 100178d0 f i Biometrics.obj
 0001:00016970       ?IOleObject_SetClientSite@CComControlBase@ATL@@QAEJPAUIOleClientSite@@@Z 10017970 f i Biometrics.obj
 0001:00016a40       ?IOleObject_SetExtent@CComControlBase@ATL@@QAEJKPAUtagSIZE@@@Z 10017a40 f i Biometrics.obj
 0001:00016b80       ?IPSI_GetIPersistStreamInit@?$IPersistStorageImpl@VCOPOSBiometrics@@@ATL@@AAEPAUIPersistStreamInit@@XZ 10017b80 f i Biometrics.obj
 0001:00016c50       ?IPersistStreamInit_Load@?$IPersistStreamInitImpl@VCOPOSBiometrics@@@ATL@@QAEJPAUIStream@@PBUATL_PROPMAP_ENTRY@2@@Z 10017c50 f i Biometrics.obj
 0001:00016cd0       ?IPersistStreamInit_Save@?$IPersistStreamInitImpl@VCOPOSBiometrics@@@ATL@@QAEJPAUIStream@@HPBUATL_PROPMAP_ENTRY@2@@Z 10017cd0 f i Biometrics.obj
 0001:00016d60       ?IQuickActivate_QuickActivate@CComControlBase@ATL@@QAEJPAUtagQACONTAINER@@PAUtagQACONTROL@@@Z 10017d60 f i Biometrics.obj
 0001:000173b0       ?IViewObject_Draw@CComControlBase@ATL@@QAEJKJPAXPAUtagDVTARGETDEVICE@@PAUHDC__@@2PBU_RECTL@@3@Z 100183b0 f i Biometrics.obj
 0001:00017650       ?InPlaceActivate@CComControlBase@ATL@@QAEJJPBUtagRECT@@@Z 10018650 f i Biometrics.obj
 0001:00017fe0       ?InPlaceDeactivate@?$IOleInPlaceObjectWindowlessImpl@VCOPOSBiometrics@@@ATL@@UAGJXZ 10018fe0 f i Biometrics.obj
 0001:00018060       ?Increment@CComMultiThreadModel@ATL@@SGKPAJ@Z 10019060 f i Biometrics.obj
 0001:00018080       ?Increment@CComSingleThreadModel@ATL@@SGKPAJ@Z 10019080 f i Biometrics.obj
 0001:000180a0       ?Init@?$CComEnumImpl@UIEnumConnectionPoints@@$1?_GUID_b196b285_bab4_101a_b69c_00aa00341d07@@3U__s_GUID@@BPAUIConnectionPoint@@V?$_CopyInterface@UIConnectionPoint@@@ATL@@@ATL@@QAEJPAPAUIConnectionPoint@@0PAUIUnknown@@W4CComEnumFlags@2@@Z 100190a0 f i Biometrics.obj
 0001:00018280       ?Init@?$CComEnumImpl@UIEnumConnections@@$1?_GUID_b196b287_bab4_101a_b69c_00aa00341d07@@3U__s_GUID@@BUtagCONNECTDATA@@V?$_Copy@UtagCONNECTDATA@@@ATL@@@ATL@@QAEJPAUtagCONNECTDATA@@0PAUIUnknown@@W4CComEnumFlags@2@@Z 10019280 f i Biometrics.obj
 0001:00018460       ?Init@CComFakeCriticalSection@ATL@@QAEJXZ 10019460 f i Biometrics.obj
 0001:00018480       ?Init@CComModule@ATL@@QAEJPAU_ATL_OBJMAP_ENTRY30@2@PAUHINSTANCE__@@PBU_GUID@@@Z 10019480 f i Biometrics.obj
 0001:00018570       ?Init@CComSafeDeleteCriticalSection@ATL@@QAEJXZ 10019570 f i Biometrics.obj
 0001:000185f0       ?Init@CDynamicStdCallThunk2@ATL@@QAEHKPAX@Z 100195f0 f i Biometrics.obj
 0001:00018650       ?Init@CWndProcThunk@ATL@@QAEHP6GJPAUHWND__@@IIJ@ZPAX@Z 10019650 f i Biometrics.obj
 0001:00018690       ?InitFromData@?$IOleObjectImpl@VCOPOSBiometrics@@@ATL@@UAGJPAUIDataObject@@HK@Z 10019690 f i Biometrics.obj
 0001:00018700       ?InitLibId@?$CAtlModuleT@VCComModule@ATL@@@ATL@@SAXXZ 10019700 f i Biometrics.obj
 0001:00018710       ?InitNew@?$IPersistStorageImpl@VCOPOSBiometrics@@@ATL@@UAGJPAUIStorage@@@Z 10019710 f i Biometrics.obj
 0001:00018800       ?InitNew@?$IPersistStreamInitImpl@VCOPOSBiometrics@@@ATL@@UAGJXZ 10019800 f i Biometrics.obj
 0001:00018890       ?InlineIsEqualUnknown@ATL@@YGHABU_GUID@@@Z 10019890 f i Biometrics.obj
 0001:00018900       ?InternalAddRef@?$CComObjectRootEx@VCComMultiThreadModel@ATL@@@ATL@@QAEKXZ 10019900 f i Biometrics.obj
 0001:00018960       ?InternalAddRef@?$CComObjectRootEx@VCComSingleThreadModel@ATL@@@ATL@@QAEKXZ 10019960 f i Biometrics.obj
 0001:000189c0       ?InternalFinalConstructAddRef@CComObjectRootBase@ATL@@QAEXXZ 100199c0 f i Biometrics.obj
 0001:000189e0       ?InternalFinalConstructAddRef@COPOSBiometrics@@QAEXXZ 100199e0 f i Biometrics.obj
 0001:00018a10       ?InternalFinalConstructRelease@CComObjectRootBase@ATL@@QAEXXZ 10019a10 f i Biometrics.obj
 0001:00018a60       ?InternalFinalConstructRelease@COPOSBiometrics@@QAEXXZ 10019a60 f i Biometrics.obj
 0001:00018a90       ?InternalGetSite@CComControlBase@ATL@@QAEJABU_GUID@@PAPAX@Z 10019a90 f i Biometrics.obj
 0001:00018b50       ?InternalQueryInterface@CComObjectRootBase@ATL@@SGJPAXPBU_ATL_INTMAP_ENTRY@2@ABU_GUID@@PAPAX@Z 10019b50 f i Biometrics.obj
 0001:00018c10       ?InternalRelease@?$CComObjectRootEx@VCComMultiThreadModel@ATL@@@ATL@@QAEKXZ 10019c10 f i Biometrics.obj
 0001:00018c80       ?InternalRelease@?$CComObjectRootEx@VCComSingleThreadModel@ATL@@@ATL@@QAEKXZ 10019c80 f i Biometrics.obj
 0001:00018cf0       ?InternalSetAtIndex@?$CSimpleArray@GV?$CSimpleArrayEqualHelper@G@ATL@@@ATL@@QAEXHABG@Z 10019cf0 f i Biometrics.obj
 0001:00018d60       ?InternalSetAtIndex@?$CSimpleMap@PA_WPA_WVCExpansionVectorEqualHelper@ATL@@@ATL@@QAEXHABQA_W0@Z 10019d60 f i Biometrics.obj
 0001:00018e00       ?Invoke@?$IDispatchImpl@UIOPOSBiometrics@@$1?IID_IOPOSBiometrics@@3U_GUID@@B$1?LIBID_OposBiometrics_CCO@@3U3@B$00$0A@VCComTypeInfoHolder@ATL@@@ATL@@UAGJJABU_GUID@@KGPAUtagDISPPARAMS@@PAUtagVARIANT@@PAUtagEXCEPINFO@@PAI@Z 10019e00 f i Biometrics.obj
 0001:00018e40       ?Invoke@CComTypeInfoHolder@ATL@@QAEJPAUIDispatch@@JABU_GUID@@KGPAUtagDISPPARAMS@@PAUtagVARIANT@@PAUtagEXCEPINFO@@PAI@Z 10019e40 f i Biometrics.obj
 0001:00018ed0       ?IsDirty@?$IPersistStorageImpl@VCOPOSBiometrics@@@ATL@@UAGJXZ 10019ed0 f i Biometrics.obj
 0001:00018fc0       ?IsDirty@?$IPersistStreamInitImpl@VCOPOSBiometrics@@@ATL@@UAGJXZ 10019fc0 f i Biometrics.obj
 0001:00019060       ?IsEqualKey@CExpansionVectorEqualHelper@ATL@@SA_NQA_W0@Z 1001a060 f i Biometrics.obj
 0001:00019090       ?IsEqualObject@?$CComPtrBase@UIOleClientSite@@@ATL@@QAE_NPAUIUnknown@@@Z 1001a090 f i Biometrics.obj
 0001:000191c0       ?IsEqualObject@?$CComPtrBase@UITypeInfo@@@ATL@@QAE_NPAUIUnknown@@@Z 1001a1c0 f i Biometrics.obj
 0001:000192f0       ?IsSpace@CRegParser@ATL@@IAEH_W@Z 1001a2f0 f i Biometrics.obj
 0001:00019360       ?IsUpToDate@?$IOleObjectImpl@VCOPOSBiometrics@@@ATL@@UAGJXZ 1001a360 f i Biometrics.obj
 0001:000193c0       ?Length@CComBSTR@ATL@@QBEIXZ 1001a3c0 f i Biometrics.obj
 0001:00019400       ?Load@?$IPersistStorageImpl@VCOPOSBiometrics@@@ATL@@UAGJPAUIStorage@@@Z 1001a400 f i Biometrics.obj
 0001:00019560       ?Load@?$IPersistStreamInitImpl@VCOPOSBiometrics@@@ATL@@UAGJPAUIStream@@@Z 1001a560 f i Biometrics.obj
 0001:000195f0       ?LoadCursorW@AtlModuleRegisterWndClassInfoParamW@ATL@@SAPAUHICON__@@PAUHINSTANCE__@@PB_W@Z 1001a5f0 f i Biometrics.obj
 0001:00019620       ?LoadNameCache@CComTypeInfoHolder@ATL@@QAEJPAUITypeInfo@@@Z 1001a620 f i Biometrics.obj
 0001:000198b0       ?Lock@?$CComCritSecLock@VCComCriticalSection@ATL@@@ATL@@QAEJXZ 1001a8b0 f i Biometrics.obj
 0001:00019960       ?Lock@?$CComObjectRootEx@VCComSingleThreadModel@ATL@@@ATL@@QAEXXZ 1001a960 f i Biometrics.obj
 0001:00019980       ?Lock@CAtlModule@ATL@@UAEJXZ 1001a980 f i Biometrics.obj
 0001:000199b0       ?Lock@CComCriticalSection@ATL@@QAEJXZ 1001a9b0 f i Biometrics.obj
 0001:000199f0       ?Lock@CComFakeCriticalSection@ATL@@QAEJXZ 1001a9f0 f i Biometrics.obj
 0001:00019a10       ?LockServer@CComClassFactory@ATL@@UAGJH@Z 1001aa10 f i Biometrics.obj
 0001:00019a70       ?Lookup@?$CSimpleMap@PA_WPA_WVCExpansionVectorEqualHelper@ATL@@@ATL@@QBEPA_WABQA_W@Z 1001aa70 f i Biometrics.obj
 0001:00019ac0       ?Next@?$CComEnumImpl@UIEnumConnectionPoints@@$1?_GUID_b196b285_bab4_101a_b69c_00aa00341d07@@3U__s_GUID@@BPAUIConnectionPoint@@V?$_CopyInterface@UIConnectionPoint@@@ATL@@@ATL@@UAGJKPAPAUIConnectionPoint@@PAK@Z 1001aac0 f i Biometrics.obj
 0001:00019c30       ?Next@?$CComEnumImpl@UIEnumConnections@@$1?_GUID_b196b287_bab4_101a_b69c_00aa00341d07@@3U__s_GUID@@BUtagCONNECTDATA@@V?$_Copy@UtagCONNECTDATA@@@ATL@@@ATL@@UAGJKPAUtagCONNECTDATA@@PAK@Z 1001ac30 f i Biometrics.obj
 0001:00019da0       ?NextToken@CRegParser@ATL@@IAEJPA_W@Z 1001ada0 f i Biometrics.obj
 0001:0001a040       ?OLE2CT_EX@@YAPB_WPB_WI@Z  1001b040 f i Biometrics.obj
 0001:0001a050       ?OLE2CT_EX_DEF@@YAPB_WPB_W@Z 1001b050 f i Biometrics.obj
 0001:0001a060       ?OLE2T_EX@@YAPA_WPA_WI@Z   1001b060 f i Biometrics.obj
 0001:0001a070       ?OnAmbientPropertyChange@?$IOleControlImpl@VCOPOSBiometrics@@@ATL@@UAGJJ@Z 1001b070 f i Biometrics.obj
 0001:0001a100       ?OnDocWindowActivate@?$IOleInPlaceActiveObjectImpl@VCOPOSBiometrics@@@ATL@@UAGJH@Z 1001b100 f i Biometrics.obj
 0001:0001a190       ?OnDrawAdvanced@CComControlBase@ATL@@UAEJAAUATL_DRAWINFO@@@Z 1001b190 f i Biometrics.obj
 0001:0001a3b0       ?OnFinalMessage@?$CWindowImplBaseT@VCWindow@ATL@@V?$CWinTraits@$0FGAAAAAA@$0A@@2@@ATL@@UAEXPAUHWND__@@@Z 1001b3b0 f i Biometrics.obj
 0001:0001a3d0       ?OnFrameWindowActivate@?$IOleInPlaceActiveObjectImpl@VCOPOSBiometrics@@@ATL@@UAGJH@Z 1001b3d0 f i Biometrics.obj
 0001:0001a430       ?OnKillFocus@CComControlBase@ATL@@QAEJIIJAAH@Z 1001b430 f i Biometrics.obj
 0001:0001a530       ?OnMnemonic@?$IOleControlImpl@VCOPOSBiometrics@@@ATL@@UAGJPAUtagMSG@@@Z 1001b530 f i Biometrics.obj
 0001:0001a5a0       ?OnMouseActivate@CComControlBase@ATL@@QAEJIIJAAH@Z 1001b5a0 f i Biometrics.obj
 0001:0001a6f0       ?OnPaint@CComControlBase@ATL@@QAEJIIJAAH@Z 1001b6f0 f i Biometrics.obj
 0001:0001a870       ?OnPostVerbDiscardUndo@?$IOleObjectImpl@VCOPOSBiometrics@@@ATL@@QAEJXZ 1001b870 f i Biometrics.obj
 0001:0001a890       ?OnPostVerbHide@?$IOleObjectImpl@VCOPOSBiometrics@@@ATL@@QAEJXZ 1001b890 f i Biometrics.obj
 0001:0001a8b0       ?OnPostVerbInPlaceActivate@?$IOleObjectImpl@VCOPOSBiometrics@@@ATL@@QAEJXZ 1001b8b0 f i Biometrics.obj
 0001:0001a8d0       ?OnPostVerbOpen@?$IOleObjectImpl@VCOPOSBiometrics@@@ATL@@QAEJXZ 1001b8d0 f i Biometrics.obj
 0001:0001a8f0       ?OnPostVerbShow@?$IOleObjectImpl@VCOPOSBiometrics@@@ATL@@QAEJXZ 1001b8f0 f i Biometrics.obj
 0001:0001a910       ?OnPostVerbUIActivate@?$IOleObjectImpl@VCOPOSBiometrics@@@ATL@@QAEJXZ 1001b910 f i Biometrics.obj
 0001:0001a930       ?OnPreVerbDiscardUndo@?$IOleObjectImpl@VCOPOSBiometrics@@@ATL@@QAEJXZ 1001b930 f i Biometrics.obj
 0001:0001a950       ?OnPreVerbHide@?$IOleObjectImpl@VCOPOSBiometrics@@@ATL@@QAEJXZ 1001b950 f i Biometrics.obj
 0001:0001a970       ?OnPreVerbInPlaceActivate@?$IOleObjectImpl@VCOPOSBiometrics@@@ATL@@QAEJXZ 1001b970 f i Biometrics.obj
 0001:0001a990       ?OnPreVerbOpen@?$IOleObjectImpl@VCOPOSBiometrics@@@ATL@@QAEJXZ 1001b990 f i Biometrics.obj
 0001:0001a9b0       ?OnPreVerbShow@?$IOleObjectImpl@VCOPOSBiometrics@@@ATL@@QAEJXZ 1001b9b0 f i Biometrics.obj
 0001:0001a9d0       ?OnPreVerbUIActivate@?$IOleObjectImpl@VCOPOSBiometrics@@@ATL@@QAEJXZ 1001b9d0 f i Biometrics.obj
 0001:0001a9f0       ?OnSetFocus@CComControlBase@ATL@@QAEJIIJAAH@Z 1001b9f0 f i Biometrics.obj
 0001:0001ab80       ?OnWindowMessage@?$IOleInPlaceObjectWindowlessImpl@VCOPOSBiometrics@@@ATL@@UAGJIIJPAJ@Z 1001bb80 f i Biometrics.obj
 0001:0001ace0       ?Open@CRegKey@ATL@@QAEJPAUHKEY__@@PB_WK@Z 1001bce0 f i Biometrics.obj
 0001:0001ae30       ?OuterAddRef@CComObjectRootBase@ATL@@QAEKXZ 1001be30 f i Biometrics.obj
 0001:0001ae70       ?OuterQueryInterface@CComObjectRootBase@ATL@@QAEJABU_GUID@@PAPAX@Z 1001be70 f i Biometrics.obj
 0001:0001aec0       ?OuterRelease@CComObjectRootBase@ATL@@QAEKXZ 1001bec0 f i Biometrics.obj
 0001:0001af00       ?PreProcessBuffer@CRegParser@ATL@@QAEJPA_WPAPA_W@Z 1001bf00 f i Biometrics.obj
 0001:0001b440       ?PreTranslateAccelerator@CComControlBase@ATL@@QAEHPAUtagMSG@@AAJ@Z 1001c440 f i Biometrics.obj
 0001:0001b460       ?ProcessWindowMessage@?$CComControl@VCOPOSBiometrics@@V?$CWindowImpl@VCOPOSBiometrics@@VCWindow@ATL@@V?$CWinTraits@$0FGAAAAAA@$0A@@3@@ATL@@@ATL@@UAEHPAUHWND__@@IIJAAJK@Z 1001c460 f i Biometrics.obj
 0001:0001b630       ?ProcessWindowMessage@COPOSBiometrics@@UAEHPAUHWND__@@IIJAAJK@Z 1001c630 f i Biometrics.obj
 0001:0001b730       ?PutProperty@?$CComPtr@UIDispatch@@@ATL@@QAEJJPAUtagVARIANT@@@Z 1001c730 f i Biometrics.obj
 0001:0001b770       ?PutProperty@?$CComPtr@UIDispatch@@@ATL@@SAJPAUIDispatch@@JPAUtagVARIANT@@@Z 1001c770 f i Biometrics.obj
 0001:0001b960       ?QueryGetData@?$IDataObjectImpl@VCOPOSBiometrics@@@ATL@@UAGJPAUtagFORMATETC@@@Z 1001c960 f i Biometrics.obj
 0001:0001b9d0       ?QueryHitPoint@?$IViewObjectExImpl@VCOPOSBiometrics@@@ATL@@UAGJKPBUtagRECT@@UtagPOINT@@JPAK@Z 1001c9d0 f i Biometrics.obj
 0001:0001bae0       ?QueryHitRect@?$IViewObjectExImpl@VCOPOSBiometrics@@@ATL@@UAGJKPBUtagRECT@@0JPAK@Z 1001cae0 f i Biometrics.obj
 0001:0001bc30       ?QueryInterface@?$CComAggObject@VCOPOSBiometrics@@@ATL@@UAGJABU_GUID@@PAPAX@Z 1001cc30 f i Biometrics.obj
 0001:0001bce0       ?QueryInterface@?$CComContainedObject@VCOPOSBiometrics@@@ATL@@UAGJABU_GUID@@PAPAX@Z 1001cce0 f i Biometrics.obj
 0001:0001bd04       ?QueryInterface@?$CComContainedObject@VCOPOSBiometrics@@@ATL@@WHA@AGJABU_GUID@@PAPAX@Z 1001cd04 f i Biometrics.obj
 0001:0001bd0e       ?QueryInterface@?$CComContainedObject@VCOPOSBiometrics@@@ATL@@WHE@AGJABU_GUID@@PAPAX@Z 1001cd0e f i Biometrics.obj
 0001:0001bd18       ?QueryInterface@?$CComContainedObject@VCOPOSBiometrics@@@ATL@@WHI@AGJABU_GUID@@PAPAX@Z 1001cd18 f i Biometrics.obj
 0001:0001bd22       ?QueryInterface@?$CComContainedObject@VCOPOSBiometrics@@@ATL@@WHM@AGJABU_GUID@@PAPAX@Z 1001cd22 f i Biometrics.obj
 0001:0001bd2c       ?QueryInterface@?$CComContainedObject@VCOPOSBiometrics@@@ATL@@WIA@AGJABU_GUID@@PAPAX@Z 1001cd2c f i Biometrics.obj
 0001:0001bd39       ?QueryInterface@?$CComContainedObject@VCOPOSBiometrics@@@ATL@@WIE@AGJABU_GUID@@PAPAX@Z 1001cd39 f i Biometrics.obj
 0001:0001bd46       ?QueryInterface@?$CComContainedObject@VCOPOSBiometrics@@@ATL@@WII@AGJABU_GUID@@PAPAX@Z 1001cd46 f i Biometrics.obj
 0001:0001bd53       ?QueryInterface@?$CComContainedObject@VCOPOSBiometrics@@@ATL@@WIM@AGJABU_GUID@@PAPAX@Z 1001cd53 f i Biometrics.obj
 0001:0001bd60       ?QueryInterface@?$CComContainedObject@VCOPOSBiometrics@@@ATL@@WJA@AGJABU_GUID@@PAPAX@Z 1001cd60 f i Biometrics.obj
 0001:0001bd6d       ?QueryInterface@?$CComContainedObject@VCOPOSBiometrics@@@ATL@@WJE@AGJABU_GUID@@PAPAX@Z 1001cd6d f i Biometrics.obj
 0001:0001bd7a       ?QueryInterface@?$CComContainedObject@VCOPOSBiometrics@@@ATL@@WJI@AGJABU_GUID@@PAPAX@Z 1001cd7a f i Biometrics.obj
 0001:0001bd87       ?QueryInterface@?$CComContainedObject@VCOPOSBiometrics@@@ATL@@WJM@AGJABU_GUID@@PAPAX@Z 1001cd87 f i Biometrics.obj
 0001:0001bd94       ?QueryInterface@?$CComContainedObject@VCOPOSBiometrics@@@ATL@@WKA@AGJABU_GUID@@PAPAX@Z 1001cd94 f i Biometrics.obj
 0001:0001bdb0       ?QueryInterface@?$CComObject@V?$CComEnum@UIEnumConnectionPoints@@$1?_GUID_b196b285_bab4_101a_b69c_00aa00341d07@@3U__s_GUID@@BPAUIConnectionPoint@@V?$_CopyInterface@UIConnectionPoint@@@ATL@@VCComSingleThreadModel@6@@ATL@@@ATL@@UAGJABU_GUID@@PAPAX@Z 1001cdb0 f i Biometrics.obj
 0001:0001bdd0       ?QueryInterface@?$CComObject@V?$CComEnum@UIEnumConnections@@$1?_GUID_b196b287_bab4_101a_b69c_00aa00341d07@@3U__s_GUID@@BUtagCONNECTDATA@@V?$_Copy@UtagCONNECTDATA@@@ATL@@VCComSingleThreadModel@6@@ATL@@@ATL@@UAGJABU_GUID@@PAPAX@Z 1001cdd0 f i Biometrics.obj
 0001:0001bdf0       ?QueryInterface@?$CComObject@VCOPOSBiometrics@@@ATL@@UAGJABU_GUID@@PAPAX@Z 1001cdf0 f i Biometrics.obj
 0001:0001be0e       ?QueryInterface@?$CComObject@VCOPOSBiometrics@@@ATL@@WHA@AGJABU_GUID@@PAPAX@Z 1001ce0e f i Biometrics.obj
 0001:0001be18       ?QueryInterface@?$CComObject@VCOPOSBiometrics@@@ATL@@WHE@AGJABU_GUID@@PAPAX@Z 1001ce18 f i Biometrics.obj
 0001:0001be22       ?QueryInterface@?$CComObject@VCOPOSBiometrics@@@ATL@@WHI@AGJABU_GUID@@PAPAX@Z 1001ce22 f i Biometrics.obj
 0001:0001be2c       ?QueryInterface@?$CComObject@VCOPOSBiometrics@@@ATL@@WHM@AGJABU_GUID@@PAPAX@Z 1001ce2c f i Biometrics.obj
 0001:0001be36       ?QueryInterface@?$CComObject@VCOPOSBiometrics@@@ATL@@WIA@AGJABU_GUID@@PAPAX@Z 1001ce36 f i Biometrics.obj
 0001:0001be43       ?QueryInterface@?$CComObject@VCOPOSBiometrics@@@ATL@@WIE@AGJABU_GUID@@PAPAX@Z 1001ce43 f i Biometrics.obj
 0001:0001be50       ?QueryInterface@?$CComObject@VCOPOSBiometrics@@@ATL@@WII@AGJABU_GUID@@PAPAX@Z 1001ce50 f i Biometrics.obj
 0001:0001be5d       ?QueryInterface@?$CComObject@VCOPOSBiometrics@@@ATL@@WIM@AGJABU_GUID@@PAPAX@Z 1001ce5d f i Biometrics.obj
 0001:0001be6a       ?QueryInterface@?$CComObject@VCOPOSBiometrics@@@ATL@@WJA@AGJABU_GUID@@PAPAX@Z 1001ce6a f i Biometrics.obj
 0001:0001be77       ?QueryInterface@?$CComObject@VCOPOSBiometrics@@@ATL@@WJE@AGJABU_GUID@@PAPAX@Z 1001ce77 f i Biometrics.obj
 0001:0001be84       ?QueryInterface@?$CComObject@VCOPOSBiometrics@@@ATL@@WJI@AGJABU_GUID@@PAPAX@Z 1001ce84 f i Biometrics.obj
 0001:0001be91       ?QueryInterface@?$CComObject@VCOPOSBiometrics@@@ATL@@WJM@AGJABU_GUID@@PAPAX@Z 1001ce91 f i Biometrics.obj
 0001:0001be9e       ?QueryInterface@?$CComObject@VCOPOSBiometrics@@@ATL@@WKA@AGJABU_GUID@@PAPAX@Z 1001ce9e f i Biometrics.obj
 0001:0001beb0       ?QueryInterface@?$CComObjectCached@VCComClassFactory@ATL@@@ATL@@UAGJABU_GUID@@PAPAX@Z 1001ceb0 f i Biometrics.obj
 0001:0001bed0       ?QueryInterface@CRegObject@ATL@@UAGJABU_GUID@@PAPAX@Z 1001ced0 f i Biometrics.obj
 0001:0001bf20       ?QuickActivate@?$IQuickActivateImpl@VCOPOSBiometrics@@@ATL@@UAGJPAUtagQACONTAINER@@PAUtagQACONTROL@@@Z 1001cf20 f i Biometrics.obj
 0001:0001bfb0       ?ReactivateAndUndo@?$IOleInPlaceObjectWindowlessImpl@VCOPOSBiometrics@@@ATL@@UAGJXZ 1001cfb0 f i Biometrics.obj
 0001:0001c020       ?ReadFromStream@CComBSTR@ATL@@QAEJPAUIStream@@@Z 1001d020 f i Biometrics.obj
 0001:0001c420       ?ReadFromStream@CComVariant@ATL@@QAEJPAUIStream@@GTClassesAllowedInStream@2@K@Z 1001d420 f i Biometrics.obj
 0001:0001c780       ?RecurseDeleteKey@CRegKey@ATL@@QAEJPB_W@Z 1001d780 f i Biometrics.obj
 0001:0001c960       ?RegCreateKeyExW@CAtlTransactionManager@ATL@@QAEJPAUHKEY__@@PB_WKPA_WKKQAU_SECURITY_ATTRIBUTES@@PAPAU3@PAK@Z 1001d960 f i Biometrics.obj
 0001:0001ca90       ?RegDeleteKeyW@CAtlTransactionManager@ATL@@QAEJPAUHKEY__@@PB_W@Z 1001da90 f i Biometrics.obj
 0001:0001cb90       ?RegOpenKeyExW@CAtlTransactionManager@ATL@@QAEJPAUHKEY__@@PB_WKKPAPAU3@@Z 1001db90 f i Biometrics.obj
 0001:0001cca0       ?Register@_ATL_WNDCLASSINFOW@ATL@@QAEGPAP6GJPAUHWND__@@IIJ@Z@Z 1001dca0 f i Biometrics.obj
 0001:0001cce0       ?RegisterBuffer@CRegParser@ATL@@QAEJPA_WH@Z 1001dce0 f i Biometrics.obj
 0001:0001d010       ?RegisterClassExW@AtlModuleRegisterWndClassInfoParamW@ATL@@SAGPAU_ATL_WIN_MODULE70@2@PBUtagWNDCLASSEXW@@@Z 1001e010 f i Biometrics.obj
 0001:0001d030       ?RegisterFromResource@CRegObject@ATL@@IAEJPB_W00H@Z 1001e030 f i Biometrics.obj
 0001:0001d3c0       ?RegisterServer@?$CAtlModuleT@VCComModule@ATL@@@ATL@@QAEJHPBU_GUID@@@Z 1001e3c0 f i Biometrics.obj
 0001:0001d440       ?RegisterServer@CAtlComModule@ATL@@QAEJHPBU_GUID@@@Z 1001e440 f i Biometrics.obj
 0001:0001d470       ?RegisterServer@CComModule@ATL@@QAEJHPBU_GUID@@@Z 1001e470 f i Biometrics.obj
 0001:0001d550       ?RegisterSubkeys@CRegParser@ATL@@IAEJPA_WPAUHKEY__@@HH@Z 1001e550 f i Biometrics.obj
 0001:0001e070       ?Release@?$CComAggObject@VCOPOSBiometrics@@@ATL@@UAGKXZ 1001f070 f i Biometrics.obj
 0001:0001e130       ?Release@?$CComContainedObject@VCOPOSBiometrics@@@ATL@@UAGKXZ 1001f130 f i Biometrics.obj
 0001:0001e14c       ?Release@?$CComContainedObject@VCOPOSBiometrics@@@ATL@@WHA@AGKXZ 1001f14c f i Biometrics.obj
 0001:0001e156       ?Release@?$CComContainedObject@VCOPOSBiometrics@@@ATL@@WHE@AGKXZ 1001f156 f i Biometrics.obj
 0001:0001e160       ?Release@?$CComContainedObject@VCOPOSBiometrics@@@ATL@@WHI@AGKXZ 1001f160 f i Biometrics.obj
 0001:0001e16a       ?Release@?$CComContainedObject@VCOPOSBiometrics@@@ATL@@WHM@AGKXZ 1001f16a f i Biometrics.obj
 0001:0001e174       ?Release@?$CComContainedObject@VCOPOSBiometrics@@@ATL@@WIA@AGKXZ 1001f174 f i Biometrics.obj
 0001:0001e181       ?Release@?$CComContainedObject@VCOPOSBiometrics@@@ATL@@WIE@AGKXZ 1001f181 f i Biometrics.obj
 0001:0001e18e       ?Release@?$CComContainedObject@VCOPOSBiometrics@@@ATL@@WII@AGKXZ 1001f18e f i Biometrics.obj
 0001:0001e19b       ?Release@?$CComContainedObject@VCOPOSBiometrics@@@ATL@@WIM@AGKXZ 1001f19b f i Biometrics.obj
 0001:0001e1a8       ?Release@?$CComContainedObject@VCOPOSBiometrics@@@ATL@@WJA@AGKXZ 1001f1a8 f i Biometrics.obj
 0001:0001e1b5       ?Release@?$CComContainedObject@VCOPOSBiometrics@@@ATL@@WJE@AGKXZ 1001f1b5 f i Biometrics.obj
 0001:0001e1c2       ?Release@?$CComContainedObject@VCOPOSBiometrics@@@ATL@@WJI@AGKXZ 1001f1c2 f i Biometrics.obj
 0001:0001e1cf       ?Release@?$CComContainedObject@VCOPOSBiometrics@@@ATL@@WJM@AGKXZ 1001f1cf f i Biometrics.obj
 0001:0001e1dc       ?Release@?$CComContainedObject@VCOPOSBiometrics@@@ATL@@WKA@AGKXZ 1001f1dc f i Biometrics.obj
 0001:0001e1e9       ?Release@?$CComContainedObject@VCOPOSBiometrics@@@ATL@@WKI@AGKXZ 1001f1e9 f i Biometrics.obj
 0001:0001e1f6       ?Release@?$CComContainedObject@VCOPOSBiometrics@@@ATL@@WLE@AGKXZ 1001f1f6 f i Biometrics.obj
 0001:0001e210       ?Release@?$CComObject@V?$CComEnum@UIEnumConnectionPoints@@$1?_GUID_b196b285_bab4_101a_b69c_00aa00341d07@@3U__s_GUID@@BPAUIConnectionPoint@@V?$_CopyInterface@UIConnectionPoint@@@ATL@@VCComSingleThreadModel@6@@ATL@@@ATL@@UAGKXZ 1001f210 f i Biometrics.obj
 0001:0001e2d0       ?Release@?$CComObject@V?$CComEnum@UIEnumConnections@@$1?_GUID_b196b287_bab4_101a_b69c_00aa00341d07@@3U__s_GUID@@BUtagCONNECTDATA@@V?$_Copy@UtagCONNECTDATA@@@ATL@@VCComSingleThreadModel@6@@ATL@@@ATL@@UAGKXZ 1001f2d0 f i Biometrics.obj
 0001:0001e390       ?Release@?$CComObject@VCOPOSBiometrics@@@ATL@@UAGKXZ 1001f390 f i Biometrics.obj
 0001:0001e449       ?Release@?$CComObject@VCOPOSBiometrics@@@ATL@@WHA@AGKXZ 1001f449 f i Biometrics.obj
 0001:0001e453       ?Release@?$CComObject@VCOPOSBiometrics@@@ATL@@WHE@AGKXZ 1001f453 f i Biometrics.obj
 0001:0001e45d       ?Release@?$CComObject@VCOPOSBiometrics@@@ATL@@WHI@AGKXZ 1001f45d f i Biometrics.obj
 0001:0001e467       ?Release@?$CComObject@VCOPOSBiometrics@@@ATL@@WHM@AGKXZ 1001f467 f i Biometrics.obj
 0001:0001e471       ?Release@?$CComObject@VCOPOSBiometrics@@@ATL@@WIA@AGKXZ 1001f471 f i Biometrics.obj
 0001:0001e47e       ?Release@?$CComObject@VCOPOSBiometrics@@@ATL@@WIE@AGKXZ 1001f47e f i Biometrics.obj
 0001:0001e48b       ?Release@?$CComObject@VCOPOSBiometrics@@@ATL@@WII@AGKXZ 1001f48b f i Biometrics.obj
 0001:0001e498       ?Release@?$CComObject@VCOPOSBiometrics@@@ATL@@WIM@AGKXZ 1001f498 f i Biometrics.obj
 0001:0001e4a5       ?Release@?$CComObject@VCOPOSBiometrics@@@ATL@@WJA@AGKXZ 1001f4a5 f i Biometrics.obj
 0001:0001e4b2       ?Release@?$CComObject@VCOPOSBiometrics@@@ATL@@WJE@AGKXZ 1001f4b2 f i Biometrics.obj
 0001:0001e4bf       ?Release@?$CComObject@VCOPOSBiometrics@@@ATL@@WJI@AGKXZ 1001f4bf f i Biometrics.obj
 0001:0001e4cc       ?Release@?$CComObject@VCOPOSBiometrics@@@ATL@@WJM@AGKXZ 1001f4cc f i Biometrics.obj
 0001:0001e4d9       ?Release@?$CComObject@VCOPOSBiometrics@@@ATL@@WKA@AGKXZ 1001f4d9 f i Biometrics.obj
 0001:0001e4e6       ?Release@?$CComObject@VCOPOSBiometrics@@@ATL@@WKI@AGKXZ 1001f4e6 f i Biometrics.obj
 0001:0001e4f3       ?Release@?$CComObject@VCOPOSBiometrics@@@ATL@@WLE@AGKXZ 1001f4f3 f i Biometrics.obj
 0001:0001e500       ?Release@?$CComObjectCached@VCComClassFactory@ATL@@@ATL@@UAGKXZ 1001f500 f i Biometrics.obj
 0001:0001e5a0       ?Release@?$CComPtrBase@UIAdviseSink@@@ATL@@QAEXXZ 1001f5a0 f i Biometrics.obj
 0001:0001e600       ?Release@?$CComPtrBase@UIDispatch@@@ATL@@QAEXXZ 1001f600 f i Biometrics.obj
 0001:0001e660       ?Release@?$CComPtrBase@UIOleInPlaceSiteWindowless@@@ATL@@QAEXXZ 1001f660 f i Biometrics.obj
 0001:0001e6c0       ?Release@CRegObject@ATL@@UAGKXZ 1001f6c0 f i Biometrics.obj
 0001:0001e700       ?Remove@CComDynamicUnkArray@ATL@@QAEHK@Z 1001f700 f i Biometrics.obj
 0001:0001e7b0       ?RemoveAll@?$CSimpleMap@PA_WPA_WVCExpansionVectorEqualHelper@ATL@@@ATL@@QAEXXZ 1001f7b0 f i Biometrics.obj
 0001:0001e840       ?Reset@?$CComEnumImpl@UIEnumConnectionPoints@@$1?_GUID_b196b285_bab4_101a_b69c_00aa00341d07@@3U__s_GUID@@BPAUIConnectionPoint@@V?$_CopyInterface@UIConnectionPoint@@@ATL@@@ATL@@UAGJXZ 1001f840 f i Biometrics.obj
 0001:0001e860       ?Reset@?$CComEnumImpl@UIEnumConnections@@$1?_GUID_b196b287_bab4_101a_b69c_00aa00341d07@@3U__s_GUID@@BUtagCONNECTDATA@@V?$_Copy@UtagCONNECTDATA@@@ATL@@@ATL@@UAGJXZ 1001f860 f i Biometrics.obj
 0001:0001e880       ?ResizeBorder@?$IOleInPlaceActiveObjectImpl@VCOPOSBiometrics@@@ATL@@UAGJPBUtagRECT@@PAUIOleInPlaceUIWindow@@H@Z 1001f880 f i Biometrics.obj
 0001:0001e8e0       ?ResourceRegister@CRegObject@ATL@@QAGJPB_WI0@Z 1001f8e0 f i Biometrics.obj
 0001:0001e9c0       ?ResourceRegisterSz@CRegObject@ATL@@QAGJPB_W00@Z 1001f9c0 f i Biometrics.obj
 0001:0001eac0       ?ResourceUnregister@CRegObject@ATL@@QAGJPB_WI0@Z 1001fac0 f i Biometrics.obj
 0001:0001eba0       ?ResourceUnregisterSz@CRegObject@ATL@@QAGJPB_W00@Z 1001fba0 f i Biometrics.obj
 0001:0001eca0       ?SOData@COPOSBiometrics@@MAGJJ@Z 1001fca0 f i Biometrics.obj
 0001:0001ed20       ?SODirectIO@COPOSBiometrics@@MAGJJPAJPAPA_W@Z 1001fd20 f i Biometrics.obj
 0001:0001eee0       ?SOError@COPOSBiometrics@@MAGJJJJPAJ@Z 1001fee0 f i Biometrics.obj
 0001:0001efa0       ?SOOutputCompleteDummy@COPOSBiometrics@@MAGJJ@Z 1001ffa0 f i Biometrics.obj
 0001:0001efb0       ?SOStatusUpdate@COPOSBiometrics@@MAGJJ@Z 1001ffb0 f i Biometrics.obj
 0001:0001f030       ?Save@?$IPersistStorageImpl@VCOPOSBiometrics@@@ATL@@UAGJPAUIStorage@@H@Z 10020030 f i Biometrics.obj
 0001:0001f190       ?Save@?$IPersistStreamInitImpl@VCOPOSBiometrics@@@ATL@@UAGJPAUIStream@@H@Z 10020190 f i Biometrics.obj
 0001:0001f220       ?SaveCompleted@?$IPersistStorageImpl@VCOPOSBiometrics@@@ATL@@UAGJPAUIStorage@@@Z 10020220 f i Biometrics.obj
 0001:0001f280       ?SendOnDataChange@CComControlBase@ATL@@QAEJK@Z 10020280 f i Biometrics.obj
 0001:0001f370       ?SendOnSave@CComControlBase@ATL@@QAEJXZ 10020370 f i Biometrics.obj
 0001:0001f3e0       ?SendOnViewChange@CComControlBase@ATL@@QAEJKJ@Z 100203e0 f i Biometrics.obj
 0001:0001f450       ?SetAdvise@?$IViewObjectExImpl@VCOPOSBiometrics@@@ATL@@UAGJKKPAUIAdviseSink@@@Z 10020450 f i Biometrics.obj
 0001:0001f4e0       ?SetClientSite@?$IOleObjectImpl@VCOPOSBiometrics@@@ATL@@UAGJPAUIOleClientSite@@@Z 100204e0 f i Biometrics.obj
 0001:0001f570       ?SetColorScheme@?$IOleObjectImpl@VCOPOSBiometrics@@@ATL@@UAGJPAUtagLOGPALETTE@@@Z 10020570 f i Biometrics.obj
 0001:0001f5e0       ?SetContentExtent@?$IQuickActivateImpl@VCOPOSBiometrics@@@ATL@@UAGJPAUtagSIZE@@@Z 100205e0 f i Biometrics.obj
 0001:0001f670       ?SetControlFocus@CComControlBase@ATL@@QAEHH@Z 10020670 f i Biometrics.obj
 0001:0001f7f0       ?SetDWORDValue@CRegKey@ATL@@QAEJPB_WK@Z 100207f0 f i Biometrics.obj
 0001:0001f870       ?SetData@?$IDataObjectImpl@VCOPOSBiometrics@@@ATL@@UAGJPAUtagFORMATETC@@PAUtagSTGMEDIUM@@H@Z 10020870 f i Biometrics.obj
 0001:0001f8e0       ?SetExtent@?$IOleObjectImpl@VCOPOSBiometrics@@@ATL@@UAGJKPAUtagSIZE@@@Z 100208e0 f i Biometrics.obj
 0001:0001f970       ?SetHostNames@?$IOleObjectImpl@VCOPOSBiometrics@@@ATL@@UAGJPB_W0@Z 10020970 f i Biometrics.obj
 0001:0001f9d0       ?SetInterfaceSafetyOptions@?$IObjectSafetyImpl@VCOPOSBiometrics@@$02@ATL@@UAGJABU_GUID@@KK@Z 100209d0 f i Biometrics.obj
 0001:0001fb40       ?SetMoniker@?$IOleObjectImpl@VCOPOSBiometrics@@@ATL@@UAGJKPAUIMoniker@@@Z 10020b40 f i Biometrics.obj
 0001:0001fbb0       ?SetMultiStringValue@CRegKey@ATL@@QAEJPB_W0@Z 10020bb0 f i Biometrics.obj
 0001:0001fcd0       ?SetObjectRects@?$IOleInPlaceObjectWindowlessImpl@VCOPOSBiometrics@@@ATL@@UAGJPBUtagRECT@@0@Z 10020cd0 f i Biometrics.obj
 0001:0001fd60       ?SetStringValue@CRegKey@ATL@@QAEJPB_W0K@Z 10020d60 f i Biometrics.obj
 0001:0001fe90       ?SetVoid@CComClassFactory@ATL@@QAEXPAX@Z 10020e90 f i Biometrics.obj
 0001:0001feb0       ?SetVoid@CComObjectRootBase@ATL@@QAEXPAX@Z 10020eb0 f i Biometrics.obj
 0001:0001fed0       ?SetWindowLongPtrW@@YAJPAUHWND__@@HJ@Z 10020ed0 f i Biometrics.obj
 0001:0001ff00       ?ShowWindow@CWindow@ATL@@QAEHH@Z 10020f00 f i Biometrics.obj
 0001:0001ff80       ?Skip@?$CComEnumImpl@UIEnumConnectionPoints@@$1?_GUID_b196b285_bab4_101a_b69c_00aa00341d07@@3U__s_GUID@@BPAUIConnectionPoint@@V?$_CopyInterface@UIConnectionPoint@@@ATL@@@ATL@@UAGJK@Z 10020f80 f i Biometrics.obj
 0001:00020000       ?Skip@?$CComEnumImpl@UIEnumConnections@@$1?_GUID_b196b287_bab4_101a_b69c_00aa00341d07@@3U__s_GUID@@BUtagCONNECTDATA@@V?$_Copy@UtagCONNECTDATA@@@ATL@@@ATL@@UAGJK@Z 10021000 f i Biometrics.obj
 0001:00020080       ?SkipAssignment@CRegParser@ATL@@IAEJPA_W@Z 10021080 f i Biometrics.obj
 0001:00020160       ?SkipWhiteSpace@CRegParser@ATL@@IAEXXZ 10021160 f i Biometrics.obj
 0001:000201b0       ?StartWindowProc@?$CWindowImplBaseT@VCWindow@ATL@@V?$CWinTraits@$0FGAAAAAA@$0A@@2@@ATL@@SGJPAUHWND__@@IIJ@Z 100211b0 f i Biometrics.obj
 0001:000202d0       ?StrChrW@CRegParser@ATL@@KAPA_WPA_W_W@Z 100212d0 f i Biometrics.obj
 0001:00020340       ?StrFromMap@CRegObject@ATL@@QAEPB_WPA_W@Z 10021340 f i Biometrics.obj
 0001:000203d0       ?Swap@?$CComPtrBase@UIAdviseSink@@@ATL@@IAEXAAV12@@Z 100213d0 f i Biometrics.obj
 0001:00020410       ?Swap@?$CComPtrBase@UIOleClientSite@@@ATL@@IAEXAAV12@@Z 10021410 f i Biometrics.obj
 0001:00020450       ?Swap@?$CComPtrBase@UIUnknown@@@ATL@@IAEXAAV12@@Z 10021450 f i Biometrics.obj
 0001:00020490       ?T2COLE_EX@@YAPB_WPB_WI@Z  10021490 f i Biometrics.obj
 0001:000204a0       ?T2OLE_EX@@YAPA_WPA_WI@Z   100214a0 f i Biometrics.obj
 0001:000204b0       ?Term@CAtlModule@ATL@@QAEXXZ 100214b0 f i Biometrics.obj
 0001:00020560       ?Term@CComModule@ATL@@QAEXXZ 10021560 f i Biometrics.obj
 0001:00020650       ?TranslateAcceleratorW@?$IOleInPlaceActiveObjectImpl@VCOPOSBiometrics@@@ATL@@UAGJPAUtagMSG@@@Z 10021650 f i Biometrics.obj
 0001:00020850       ?UIDeactivate@?$IOleInPlaceObjectWindowlessImpl@VCOPOSBiometrics@@@ATL@@UAGJXZ 10021850 f i Biometrics.obj
 0001:000208d0       ?Unadvise@?$CProxy_IOPOSEvents@VCOPOSBiometrics@@@@UAGJK@Z 100218d0 f i Biometrics.obj
 0001:00020910       ?Unadvise@?$IConnectionPointImpl@VCOPOSBiometrics@@$1?DIID__IOPOSBiometricsEvents@@3U_GUID@@BVCComDynamicUnkArray@ATL@@@ATL@@UAGJK@Z 10021910 f i Biometrics.obj
 0001:000209e0       ?Unadvise@?$IConnectionPointImpl@VCOPOSBiometrics@@$1?IID_IPropertyNotifySink@@3U_GUID@@BVCComDynamicUnkArray@ATL@@@ATL@@UAGJK@Z 100219e0 f i Biometrics.obj
 0001:00020ab0       ?Unadvise@?$IOleObjectImpl@VCOPOSBiometrics@@@ATL@@UAGJK@Z 10021ab0 f i Biometrics.obj
 0001:00020b80       ?Unfreeze@?$IViewObjectExImpl@VCOPOSBiometrics@@@ATL@@UAGJK@Z 10021b80 f i Biometrics.obj
 0001:00020bf0       ?Unlock@?$CComCritSecLock@VCComCriticalSection@ATL@@@ATL@@QAEXXZ 10021bf0 f i Biometrics.obj
 0001:00020c60       ?Unlock@?$CComObjectRootEx@VCComSingleThreadModel@ATL@@@ATL@@QAEXXZ 10021c60 f i Biometrics.obj
 0001:00020c80       ?Unlock@CAtlModule@ATL@@UAEJXZ 10021c80 f i Biometrics.obj
 0001:00020cb0       ?Unlock@CComCriticalSection@ATL@@QAEJXZ 10021cb0 f i Biometrics.obj
 0001:00020cf0       ?Unlock@CComFakeCriticalSection@ATL@@QAEJXZ 10021cf0 f i Biometrics.obj
 0001:00020d10       ?UnregisterServer@?$CAtlModuleT@VCComModule@ATL@@@ATL@@QAEJHPBU_GUID@@@Z 10021d10 f i Biometrics.obj
 0001:00020d80       ?UnregisterServer@CAtlComModule@ATL@@QAEJHPBU_GUID@@@Z 10021d80 f i Biometrics.obj
 0001:00020db0       ?UnregisterServer@CComModule@ATL@@QAEJHPBU_GUID@@@Z 10021db0 f i Biometrics.obj
 0001:00020e90       ?Update@?$IOleObjectImpl@VCOPOSBiometrics@@@ATL@@UAGJXZ 10021e90 f i Biometrics.obj
 0001:00020ef0       ?UpdateRegistryFromResource@CAtlModule@ATL@@QAGJIHPAU_ATL_REGMAP_ENTRY@2@@Z 10021ef0 f i Biometrics.obj
 0001:000213c0       ?UpdateRegistryFromResource@CAtlModule@ATL@@QAGJPB_WHPAU_ATL_REGMAP_ENTRY@2@@Z 100223c0 f i Biometrics.obj
 0001:000218b0       ?UpdateRegistryFromResource@CComModule@ATL@@UAGJIHPAU_ATL_REGMAP_ENTRY@2@@Z 100228b0 f i Biometrics.obj
 0001:000218e0       ?UpdateRegistryFromResource@CComModule@ATL@@UAGJPB_WHPAU_ATL_REGMAP_ENTRY@2@@Z 100228e0 f i Biometrics.obj
 0001:00021910       ?UpdateRegistryFromResourceD@CComModule@ATL@@UAGJIHPAU_ATL_REGMAP_ENTRY@2@@Z 10022910 f i Biometrics.obj
 0001:00021920       ?UpdateRegistryFromResourceD@CComModule@ATL@@UAGJPB_WHPAU_ATL_REGMAP_ENTRY@2@@Z 10022920 f i Biometrics.obj
 0001:00021930       ?VTFromRegType@CRegParser@ATL@@KAHPB_WAAG@Z 10022930 f i Biometrics.obj
 0001:00021a10       ?WindowProc@?$CWindowImplBaseT@VCWindow@ATL@@V?$CWinTraits@$0FGAAAAAA@$0A@@2@@ATL@@SGJPAUHWND__@@IIJ@Z 10022a10 f i Biometrics.obj
 0001:00021c20       ?WriteToStream@CComBSTR@ATL@@QAEJPAUIStream@@@Z 10022c20 f i Biometrics.obj
 0001:00021d80       ?WriteToStream@CComVariant@ATL@@QAEJPAUIStream@@@Z 10022d80 f i Biometrics.obj
 0001:000220c0       ?WriteToStream@CComVariant@ATL@@QAEJPAUIStream@@G@Z 100230c0 f i Biometrics.obj
 0001:00022190       ?_AtlFinalConstruct@CComObjectRootBase@ATL@@QAEJXZ 10023190 f i Biometrics.obj
 0001:000221b0       ?_AtlGetConversionACP@ATL@@YGIXZ 100231b0 f i Biometrics.obj
 0001:000221c0       ?_AtlInitialConstruct@?$CComAggObject@VCOPOSBiometrics@@@ATL@@QAEJXZ 100231c0 f i Biometrics.obj
 0001:00022210       ?_AtlInitialConstruct@?$CComObjectRootEx@VCComMultiThreadModel@ATL@@@ATL@@QAEJXZ 10023210 f i Biometrics.obj
 0001:00022240       ?_AtlInitialConstruct@?$CComObjectRootEx@VCComSingleThreadModel@ATL@@@ATL@@QAEJXZ 10023240 f i Biometrics.obj
 0001:00022260       ?_AtlVerifyStackAvailable@_ATL_SAFE_ALLOCA_IMPL@ATL@@YA_NK@Z 10023260 f i Biometrics.obj
 0001:00022410       ?_GetEntries@?$CComEnum@UIEnumConnectionPoints@@$1?_GUID_b196b285_bab4_101a_b69c_00aa00341d07@@3U__s_GUID@@BPAUIConnectionPoint@@V?$_CopyInterface@UIConnectionPoint@@@ATL@@VCComSingleThreadModel@6@@ATL@@SGPBU_ATL_INTMAP_ENTRY@2@XZ 10023410 f i Biometrics.obj
 0001:00022430       ?_GetEntries@?$CComEnum@UIEnumConnections@@$1?_GUID_b196b287_bab4_101a_b69c_00aa00341d07@@3U__s_GUID@@BUtagCONNECTDATA@@V?$_Copy@UtagCONNECTDATA@@@ATL@@VCComSingleThreadModel@6@@ATL@@SGPBU_ATL_INTMAP_ENTRY@2@XZ 10023430 f i Biometrics.obj
 0001:00022450       ?_GetEntries@CComClassFactory@ATL@@SGPBU_ATL_INTMAP_ENTRY@2@XZ 10023450 f i Biometrics.obj
 0001:00022470       ?_GetEntries@COPOSBiometrics@@SGPBU_ATL_INTMAP_ENTRY@ATL@@XZ 10023470 f i Biometrics.obj
 0001:00022490       ?_GetRawUnknown@COPOSBiometrics@@QAEPAUIUnknown@@XZ 10023490 f i Biometrics.obj
 0001:00022500       ?_GetViewStatus@COPOSBiometrics@@QAEKXZ 10023500 f i Biometrics.obj
 0001:00022520       ?_InternalQueryInterface@?$CComEnum@UIEnumConnectionPoints@@$1?_GUID_b196b285_bab4_101a_b69c_00aa00341d07@@3U__s_GUID@@BPAUIConnectionPoint@@V?$_CopyInterface@UIConnectionPoint@@@ATL@@VCComSingleThreadModel@6@@ATL@@QAEJABU_GUID@@PAPAX@Z 10023520 f i Biometrics.obj
 0001:00022560       ?_InternalQueryInterface@?$CComEnum@UIEnumConnections@@$1?_GUID_b196b287_bab4_101a_b69c_00aa00341d07@@3U__s_GUID@@BUtagCONNECTDATA@@V?$_Copy@UtagCONNECTDATA@@@ATL@@VCComSingleThreadModel@6@@ATL@@QAEJABU_GUID@@PAPAX@Z 10023560 f i Biometrics.obj
 0001:000225a0       ?_InternalQueryInterface@CComClassFactory@ATL@@QAEJABU_GUID@@PAPAX@Z 100235a0 f i Biometrics.obj
 0001:000225e0       ?_InternalQueryInterface@COPOSBiometrics@@QAEJABU_GUID@@PAPAX@Z 100235e0 f i Biometrics.obj
 0001:00022620       ?_LocCPQueryInterface@?$IConnectionPointImpl@VCOPOSBiometrics@@$1?DIID__IOPOSBiometricsEvents@@3U_GUID@@BVCComDynamicUnkArray@ATL@@@ATL@@UAGJABU_GUID@@PAPAX@Z 10023620 f i Biometrics.obj
 0001:000226c0       ?_LocCPQueryInterface@?$IConnectionPointImpl@VCOPOSBiometrics@@$1?IID_IPropertyNotifySink@@3U_GUID@@BVCComDynamicUnkArray@ATL@@@ATL@@UAGJABU_GUID@@PAPAX@Z 100236c0 f i Biometrics.obj
 0001:00022760       ?atlCreate@?$CWindowImpl@VCOPOSBiometrics@@VCWindow@ATL@@V?$CWinTraits@$0FGAAAAAA@$0A@@3@@ATL@@QAEPAUHWND__@@PAU3@V_U_RECT@2@PB_WKKV_U_MENUorID@2@PAX@Z 10023760 f i Biometrics.obj
 0001:00022810       ?atlCreate@?$CWindowImplBaseT@VCWindow@ATL@@V?$CWinTraits@$0FGAAAAAA@$0A@@2@@ATL@@QAEPAUHWND__@@PAU3@V_U_RECT@2@PB_WKKV_U_MENUorID@2@GPAX@Z 10023810 f i Biometrics.obj
 0001:00022990       ?atlCreate@CRegKey@ATL@@QAEJPAUHKEY__@@PB_WPA_WKKPAU_SECURITY_ATTRIBUTES@@PAK@Z 10023990 f i Biometrics.obj
 0001:00022af0       ?begin@CComDynamicUnkArray@ATL@@QAEPAPAUIUnknown@@XZ 10023af0 f i Biometrics.obj
 0001:00022b10       ?copy@?$_Copy@UtagCONNECTDATA@@@ATL@@SAJPAUtagCONNECTDATA@@PBU3@@Z 10023b10 f i Biometrics.obj
 0001:00022bd0       ?copy@?$_CopyInterface@UIConnectionPoint@@@ATL@@SAJPAPAUIConnectionPoint@@PBQAU3@@Z 10023bd0 f i Biometrics.obj
 0001:00022c90       ?destroy@?$_Copy@UtagCONNECTDATA@@@ATL@@SAXPAUtagCONNECTDATA@@@Z 10023c90 f i Biometrics.obj
 0001:00022cd0       ?destroy@?$_CopyInterface@UIConnectionPoint@@@ATL@@SAXPAPAUIConnectionPoint@@@Z 10023cd0 f i Biometrics.obj
 0001:00022d10       ?end@CComDynamicUnkArray@ATL@@QAEPAPAUIUnknown@@XZ 10023d10 f i Biometrics.obj
 0001:00022d30       ?init@?$_Copy@UtagCONNECTDATA@@@ATL@@SAXPAUtagCONNECTDATA@@@Z 10023d30 f i Biometrics.obj
 0001:00022d40       ?init@?$_CopyInterface@UIConnectionPoint@@@ATL@@SAXPAPAUIConnectionPoint@@@Z 10023d40 f i Biometrics.obj
 0001:00022d50       ?memcpy_s@Checked@ATL@@YAXPAXIPBXI@Z 10023d50 f i Biometrics.obj
 0001:00022d80       ?ocscpy_s@@YA_NPA_WIPB_W@Z 10023d80 f i Biometrics.obj
 0001:00022de0       ?ocslen@@YAHPB_W@Z         10023de0 f i Biometrics.obj
 0001:00022e10       ?tcsncpy_s@Checked@ATL@@YAHPA_WIPB_WI@Z 10023e10 f i Biometrics.obj
 0001:00022e40       ?wcscat_s@Checked@ATL@@YAXPA_WIPB_W@Z 10023e40 f i Biometrics.obj
 0001:00022e70       ?wcscpy_s@Checked@ATL@@YAXPA_WIPB_W@Z 10023e70 f i Biometrics.obj
 0001:00022ea0       ?wcsncpy_s@Checked@ATL@@YAHPA_WIPB_WI@Z 10023ea0 f i Biometrics.obj
 0001:00022ed0       ?wcsstr@@YAPA_WPA_WPB_W@Z  10023ed0 f i Biometrics.obj
 0001:00022ef0       _InlineIsEqualGUID         10023ef0 f i Biometrics.obj
 0001:00022f90       _IsEqualGUID               10023f90 f i Biometrics.obj
 0001:00022fe0       ??0COPOSBiometrics@@QAE@XZ 10023fe0 f   BiometricsImpl.obj
 0001:000230f0       ?FinalConstruct@COPOSBiometrics@@QAEJXZ 100240f0 f   BiometricsImpl.obj
 0001:000231c0       ??1COPOSBiometrics@@UAE@XZ 100241c0 f   BiometricsImpl.obj
 0001:000232a0       ?WriteTrace@COPOSBiometrics@@QAAXPB_WZZ 100242a0 f   BiometricsImpl.obj
 0001:00023350       ?WriteTraceString@COPOSBiometrics@@QAEXPB_WPA_W@Z 10024350 f   BiometricsImpl.obj
 0001:000236c0       ?WriteTraceString@COPOSBiometrics@@QAAXPAXHHHPB_WZZ 100246c0 f   BiometricsImpl.obj
 0001:000238f0       ?WriteTraceError@COPOSBiometrics@@QAEXPB_WK@Z 100248f0 f   BiometricsImpl.obj
 0001:000239e0       ?WriteTraceMethods@COPOSBiometrics@@QAEXPAJH@Z 100249e0 f   BiometricsImpl.obj
 0001:00023a50       ?GetOposProp@COPOSBiometrics@@IAEJPBDJPAJJ@Z 10024a50 f   BiometricsImpl.obj
 0001:00023cc0       ?SetOposProp@COPOSBiometrics@@IAEJPBDJJJ@Z 10024cc0 f   BiometricsImpl.obj
 0001:00023f50       ?GetOposProp@COPOSBiometrics@@IAEJPBDJPAFJ@Z 10024f50 f   BiometricsImpl.obj
 0001:00023ff0       ?SetOposProp@COPOSBiometrics@@IAEJPBDJFJ@Z 10024ff0 f   BiometricsImpl.obj
 0001:00024050       ?GetOposProp@COPOSBiometrics@@IAEJPBDJPAPA_WJ@Z 10025050 f   BiometricsImpl.obj
 0001:000242d0       ?SetOposProp@COPOSBiometrics@@IAEJPBDJPA_WJ@Z 100252d0 f   BiometricsImpl.obj
 0001:00024610       ?DoInvoke@COPOSBiometrics@@IAEJPBDJPAVOposVariant@@IHPAJ_N@Z 10025610 f   BiometricsImpl.obj
 0001:000252a0       ?SetCOFreezeEvents@COPOSBiometrics@@IAEXF@Z 100262a0 f   BiometricsImpl.obj
 0001:000253e0       ?FreezeEvents@COPOSBiometrics@@MAGJH@Z 100263e0 f   BiometricsImpl.obj
 0001:000254c0       ?OnDraw@COPOSBiometrics@@MAEJAAUATL_DRAWINFO@@@Z 100264c0 f   BiometricsImpl.obj
 0001:00025660       ?SOProcessID@COPOSBiometrics@@UAGJPAJ@Z 10026660 f   BiometricsImpl.obj
 0001:000256a0       ?get_OpenResult@COPOSBiometrics@@UAGJPAJ@Z 100266a0 f   BiometricsImpl.obj
 0001:000256e0       ?get_AutoDisable@COPOSBiometrics@@UAGJPAF@Z 100266e0 f   BiometricsImpl.obj
 0001:00025710       ?put_AutoDisable@COPOSBiometrics@@UAGJF@Z 10026710 f   BiometricsImpl.obj
 0001:00025740       ?get_BinaryConversion@COPOSBiometrics@@UAGJPAJ@Z 10026740 f   BiometricsImpl.obj
 0001:00025770       ?put_BinaryConversion@COPOSBiometrics@@UAGJJ@Z 10026770 f   BiometricsImpl.obj
 0001:000257a0       ?get_CapPowerReporting@COPOSBiometrics@@UAGJPAJ@Z 100267a0 f   BiometricsImpl.obj
 0001:000257d0       ?get_CheckHealthText@COPOSBiometrics@@UAGJPAPA_W@Z 100267d0 f   BiometricsImpl.obj
 0001:00025800       ?get_Claimed@COPOSBiometrics@@UAGJPAF@Z 10026800 f   BiometricsImpl.obj
 0001:00025830       ?get_DataCount@COPOSBiometrics@@UAGJPAJ@Z 10026830 f   BiometricsImpl.obj
 0001:00025860       ?get_DataEventEnabled@COPOSBiometrics@@UAGJPAF@Z 10026860 f   BiometricsImpl.obj
 0001:00025890       ?put_DataEventEnabled@COPOSBiometrics@@UAGJF@Z 10026890 f   BiometricsImpl.obj
 0001:000258c0       ?get_DeviceEnabled@COPOSBiometrics@@UAGJPAF@Z 100268c0 f   BiometricsImpl.obj
 0001:000258f0       ?put_DeviceEnabled@COPOSBiometrics@@UAGJF@Z 100268f0 f   BiometricsImpl.obj
 0001:00025920       ?get_FreezeEvents@COPOSBiometrics@@UAGJPAF@Z 10026920 f   BiometricsImpl.obj
 0001:00025950       ?put_FreezeEvents@COPOSBiometrics@@UAGJF@Z 10026950 f   BiometricsImpl.obj
 0001:000259e0       ?get_PowerNotify@COPOSBiometrics@@UAGJPAJ@Z 100269e0 f   BiometricsImpl.obj
 0001:00025a10       ?put_PowerNotify@COPOSBiometrics@@UAGJJ@Z 10026a10 f   BiometricsImpl.obj
 0001:00025a40       ?get_PowerState@COPOSBiometrics@@UAGJPAJ@Z 10026a40 f   BiometricsImpl.obj
 0001:00025a70       ?get_ResultCode@COPOSBiometrics@@UAGJPAJ@Z 10026a70 f   BiometricsImpl.obj
 0001:00025b00       ?get_ResultCodeExtended@COPOSBiometrics@@UAGJPAJ@Z 10026b00 f   BiometricsImpl.obj
 0001:00025b30       ?get_State@COPOSBiometrics@@UAGJPAJ@Z 10026b30 f   BiometricsImpl.obj
 0001:00025b80       ?get_ControlObjectDescription@COPOSBiometrics@@UAGJPAPA_W@Z 10026b80 f   BiometricsImpl.obj
 0001:00025c00       ?get_ControlObjectVersion@COPOSBiometrics@@UAGJPAJ@Z 10026c00 f   BiometricsImpl.obj
 0001:00025c40       ?get_ServiceObjectDescription@COPOSBiometrics@@UAGJPAPA_W@Z 10026c40 f   BiometricsImpl.obj
 0001:00025c70       ?get_ServiceObjectVersion@COPOSBiometrics@@UAGJPAJ@Z 10026c70 f   BiometricsImpl.obj
 0001:00025ca0       ?get_DeviceDescription@COPOSBiometrics@@UAGJPAPA_W@Z 10026ca0 f   BiometricsImpl.obj
 0001:00025cd0       ?get_DeviceName@COPOSBiometrics@@UAGJPAPA_W@Z 10026cd0 f   BiometricsImpl.obj
 0001:00025d00       ?get_CapStatisticsReporting@COPOSBiometrics@@UAGJPAF@Z 10026d00 f   BiometricsImpl.obj
 0001:00025d30       ?get_CapUpdateStatistics@COPOSBiometrics@@UAGJPAF@Z 10026d30 f   BiometricsImpl.obj
 0001:00025d60       ?get_CapCompareFirmwareVersion@COPOSBiometrics@@UAGJPAF@Z 10026d60 f   BiometricsImpl.obj
 0001:00025d90       ?get_CapUpdateFirmware@COPOSBiometrics@@UAGJPAF@Z 10026d90 f   BiometricsImpl.obj
 0001:00025dc0       ?CheckHealth@COPOSBiometrics@@UAGJJPAJ@Z 10026dc0 f   BiometricsImpl.obj
 0001:00025e60       ?ClaimDevice@COPOSBiometrics@@UAGJJPAJ@Z 10026e60 f   BiometricsImpl.obj
 0001:00025f40       ?ClearInput@COPOSBiometrics@@UAGJPAJ@Z 10026f40 f   BiometricsImpl.obj
 0001:00025f70       ?Close@COPOSBiometrics@@UAGJPAJ@Z 10026f70 f   BiometricsImpl.obj
 0001:00026040       ?DirectIO@COPOSBiometrics@@UAGJJPAJPAPA_W0@Z 10027040 f   BiometricsImpl.obj
 0001:00026150       ?Open@COPOSBiometrics@@UAGJPA_WPAJ@Z 10027150 f   BiometricsImpl.obj
 0001:00027340       ?ReleaseDevice@COPOSBiometrics@@UAGJPAJ@Z 10028340 f   BiometricsImpl.obj
 0001:000273b0       ?ResetStatistics@COPOSBiometrics@@UAGJPA_WPAJ@Z 100283b0 f   BiometricsImpl.obj
 0001:00027460       ?RetrieveStatistics@COPOSBiometrics@@UAGJPAPA_WPAJ@Z 10028460 f   BiometricsImpl.obj
 0001:00027510       ?UpdateStatistics@COPOSBiometrics@@UAGJPA_WPAJ@Z 10028510 f   BiometricsImpl.obj
 0001:000275c0       ?CompareFirmwareVersion@COPOSBiometrics@@UAGJPA_WPAJ1@Z 100285c0 f   BiometricsImpl.obj
 0001:000276b0       ?UpdateFirmware@COPOSBiometrics@@UAGJPA_WPAJ@Z 100286b0 f   BiometricsImpl.obj
 0001:00027760       ?ClearInputProperties@COPOSBiometrics@@UAGJPAJ@Z 10028760 f   BiometricsImpl.obj
 0001:00027790       ?get_Algorithm@COPOSBiometrics@@UAGJPAJ@Z 10028790 f   BiometricsImpl.obj
 0001:000277c0       ?put_Algorithm@COPOSBiometrics@@UAGJJ@Z 100287c0 f   BiometricsImpl.obj
 0001:000277f0       ?get_AlgorithmList@COPOSBiometrics@@UAGJPAPA_W@Z 100287f0 f   BiometricsImpl.obj
 0001:00027820       ?get_BIR@COPOSBiometrics@@UAGJPAPA_W@Z 10028820 f   BiometricsImpl.obj
 0001:00027850       ?get_CapPrematchData@COPOSBiometrics@@UAGJPAF@Z 10028850 f   BiometricsImpl.obj
 0001:00027880       ?get_CapRawSensorData@COPOSBiometrics@@UAGJPAF@Z 10028880 f   BiometricsImpl.obj
 0001:000278b0       ?get_CapRealTimeData@COPOSBiometrics@@UAGJPAF@Z 100288b0 f   BiometricsImpl.obj
 0001:000278e0       ?get_CapSensorColor@COPOSBiometrics@@UAGJPAJ@Z 100288e0 f   BiometricsImpl.obj
 0001:00027910       ?get_CapSensorOrientation@COPOSBiometrics@@UAGJPAJ@Z 10028910 f   BiometricsImpl.obj
 0001:00027940       ?get_CapSensorType@COPOSBiometrics@@UAGJPAJ@Z 10028940 f   BiometricsImpl.obj
 0001:00027970       ?get_CapTemplateAdaptation@COPOSBiometrics@@UAGJPAF@Z 10028970 f   BiometricsImpl.obj
 0001:000279a0       ?get_RawSensorData@COPOSBiometrics@@UAGJPAPA_W@Z 100289a0 f   BiometricsImpl.obj
 0001:000279d0       ?get_RealTimeDataEnabled@COPOSBiometrics@@UAGJPAF@Z 100289d0 f   BiometricsImpl.obj
 0001:00027a00       ?put_RealTimeDataEnabled@COPOSBiometrics@@UAGJF@Z 10028a00 f   BiometricsImpl.obj
 0001:00027a30       ?get_SensorBPP@COPOSBiometrics@@UAGJPAJ@Z 10028a30 f   BiometricsImpl.obj
 0001:00027a60       ?get_SensorColor@COPOSBiometrics@@UAGJPAJ@Z 10028a60 f   BiometricsImpl.obj
 0001:00027a90       ?put_SensorColor@COPOSBiometrics@@UAGJJ@Z 10028a90 f   BiometricsImpl.obj
 0001:00027ac0       ?get_SensorHeight@COPOSBiometrics@@UAGJPAJ@Z 10028ac0 f   BiometricsImpl.obj
 0001:00027af0       ?get_SensorOrientation@COPOSBiometrics@@UAGJPAJ@Z 10028af0 f   BiometricsImpl.obj
 0001:00027b20       ?put_SensorOrientation@COPOSBiometrics@@UAGJJ@Z 10028b20 f   BiometricsImpl.obj
 0001:00027b50       ?get_SensorType@COPOSBiometrics@@UAGJPAJ@Z 10028b50 f   BiometricsImpl.obj
 0001:00027b80       ?put_SensorType@COPOSBiometrics@@UAGJJ@Z 10028b80 f   BiometricsImpl.obj
 0001:00027bb0       ?get_SensorWidth@COPOSBiometrics@@UAGJPAJ@Z 10028bb0 f   BiometricsImpl.obj
 0001:00027be0       ?BeginEnrollCapture@COPOSBiometrics@@UAGJPA_W0PAJ@Z 10028be0 f   BiometricsImpl.obj
 0001:00027cd0       ?BeginVerifyCapture@COPOSBiometrics@@UAGJPAJ@Z 10028cd0 f   BiometricsImpl.obj
 0001:00027d00       ?EndCapture@COPOSBiometrics@@UAGJPAJ@Z 10028d00 f   BiometricsImpl.obj
 0001:00027d30       ?Identify@COPOSBiometrics@@UAGJJJFUtagVARIANT@@PAU2@JPAJ@Z 10028d30 f   BiometricsImpl.obj
 0001:00027ef0       ?IdentifyMatch@COPOSBiometrics@@UAGJJJFPA_WUtagVARIANT@@PAU2@PAJ@Z 10028ef0 f   BiometricsImpl.obj
 0001:000280c0       ?ProcessPrematchData@COPOSBiometrics@@UAGJPA_W0PAPA_WPAJ@Z 100290c0 f   BiometricsImpl.obj
 0001:000281e0       ?Verify@COPOSBiometrics@@UAGJJJFPA_WPAPA_WPAFPAJ31J3@Z 100291e0 f   BiometricsImpl.obj
 0001:000283e0       ?VerifyMatch@COPOSBiometrics@@UAGJJJFPA_W0PAPA_WPAFPAJ313@Z 100293e0 f   BiometricsImpl.obj
 0001:000285f0       ??0?$CComControl@VCOPOSBiometrics@@V?$CWindowImpl@VCOPOSBiometrics@@VCWindow@ATL@@V?$CWinTraits@$0FGAAAAAA@$0A@@3@@ATL@@@ATL@@QAE@XZ 100295f0 f i BiometricsImpl.obj
 0001:00028630       ??0?$CComPtr@UIAdviseSink@@@ATL@@QAE@XZ 10029630 f i BiometricsImpl.obj
 0001:00028660       ??0?$CComPtr@UIDataAdviseHolder@@@ATL@@QAE@XZ 10029660 f i BiometricsImpl.obj
 0001:00028690       ??0?$CComPtr@UIOleAdviseHolder@@@ATL@@QAE@XZ 10029690 f i BiometricsImpl.obj
 0001:000286c0       ??0?$CComPtr@UIOleClientSite@@@ATL@@QAE@XZ 100296c0 f i BiometricsImpl.obj
 0001:000286f0       ??0?$CComPtr@UIOleInPlaceSiteWindowless@@@ATL@@QAE@XZ 100296f0 f i BiometricsImpl.obj
 0001:00028720       ??0?$CComPtrBase@UIAdviseSink@@@ATL@@IAE@XZ 10029720 f i BiometricsImpl.obj
 0001:00028740       ??0?$CComPtrBase@UIDataAdviseHolder@@@ATL@@IAE@XZ 10029740 f i BiometricsImpl.obj
 0001:00028760       ??0?$CComPtrBase@UIOleAdviseHolder@@@ATL@@IAE@XZ 10029760 f i BiometricsImpl.obj
 0001:00028780       ??0?$CComPtrBase@UIOleClientSite@@@ATL@@IAE@XZ 10029780 f i BiometricsImpl.obj
 0001:000287a0       ??0?$CComPtrBase@UIOleInPlaceSiteWindowless@@@ATL@@IAE@XZ 100297a0 f i BiometricsImpl.obj
 0001:000287c0       ??0?$CComQIPtr@UIDispatch@@$1?_GUID_00020400_0000_0000_c000_000000000046@@3U__s_GUID@@B@ATL@@QAE@XZ 100297c0 f i BiometricsImpl.obj
 0001:000287f0       ??0?$CProxy_IOPOSEvents@VCOPOSBiometrics@@@@QAE@PAVCOPOSBiometrics@@@Z 100297f0 f i BiometricsImpl.obj
 0001:00028860       ??0?$CWindowImpl@VCOPOSBiometrics@@VCWindow@ATL@@V?$CWinTraits@$0FGAAAAAA@$0A@@3@@ATL@@QAE@XZ 10029860 f i BiometricsImpl.obj
 0001:00028890       ??0?$CWindowImplBaseT@VCWindow@ATL@@V?$CWinTraits@$0FGAAAAAA@$0A@@2@@ATL@@QAE@XZ 10029890 f i BiometricsImpl.obj
 0001:000288d0       ??0?$CWindowImplRoot@VCWindow@ATL@@@ATL@@QAE@XZ 100298d0 f i BiometricsImpl.obj
 0001:00028930       ??0?$IConnectionPointContainerImpl@VCOPOSBiometrics@@@ATL@@QAE@XZ 10029930 f i BiometricsImpl.obj
 0001:00028960       ??0?$IConnectionPointImpl@VCOPOSBiometrics@@$1?DIID__IOPOSBiometricsEvents@@3U_GUID@@BVCComDynamicUnkArray@ATL@@@ATL@@QAE@XZ 10029960 f i BiometricsImpl.obj
 0001:000289a0       ??0?$IConnectionPointImpl@VCOPOSBiometrics@@$1?IID_IPropertyNotifySink@@3U_GUID@@BVCComDynamicUnkArray@ATL@@@ATL@@QAE@XZ 100299a0 f i BiometricsImpl.obj
 0001:000289e0       ??0?$IDataObjectImpl@VCOPOSBiometrics@@@ATL@@QAE@XZ 100299e0 f i BiometricsImpl.obj
 0001:00028a10       ??0?$IDispatchImpl@UIOPOSBiometrics@@$1?IID_IOPOSBiometrics@@3U_GUID@@B$1?LIBID_OposBiometrics_CCO@@3U3@B$00$0A@VCComTypeInfoHolder@ATL@@@ATL@@QAE@XZ 10029a10 f i BiometricsImpl.obj
 0001:00028a40       ??0?$IObjectSafetyImpl@VCOPOSBiometrics@@$02@ATL@@QAE@XZ 10029a40 f i BiometricsImpl.obj
 0001:00028a80       ??0?$IOleControlImpl@VCOPOSBiometrics@@@ATL@@QAE@XZ 10029a80 f i BiometricsImpl.obj
 0001:00028ab0       ??0?$IOleInPlaceActiveObjectImpl@VCOPOSBiometrics@@@ATL@@QAE@XZ 10029ab0 f i BiometricsImpl.obj
 0001:00028ae0       ??0?$IOleInPlaceObjectWindowlessImpl@VCOPOSBiometrics@@@ATL@@QAE@XZ 10029ae0 f i BiometricsImpl.obj
 0001:00028b10       ??0?$IOleObjectImpl@VCOPOSBiometrics@@@ATL@@QAE@XZ 10029b10 f i BiometricsImpl.obj
 0001:00028b40       ??0?$IPersistStorageImpl@VCOPOSBiometrics@@@ATL@@QAE@XZ 10029b40 f i BiometricsImpl.obj
 0001:00028b70       ??0?$IPersistStreamInitImpl@VCOPOSBiometrics@@@ATL@@QAE@XZ 10029b70 f i BiometricsImpl.obj
 0001:00028ba0       ??0?$IPropertyNotifySinkCP@VCOPOSBiometrics@@VCComDynamicUnkArray@ATL@@@ATL@@QAE@XZ 10029ba0 f i BiometricsImpl.obj
 0001:00028bd0       ??0?$IProvideClassInfo2Impl@$1?CLSID_OPOSBiometrics@@3U_GUID@@B$1?DIID__IOPOSBiometricsEvents@@3U2@B$1?LIBID_OposBiometrics_CCO@@3U2@B$00$0A@VCComTypeInfoHolder@ATL@@@ATL@@QAE@XZ 10029bd0 f i BiometricsImpl.obj
 0001:00028c00       ??0?$IQuickActivateImpl@VCOPOSBiometrics@@@ATL@@QAE@XZ 10029c00 f i BiometricsImpl.obj
 0001:00028c30       ??0?$ISpecifyPropertyPagesImpl@VCOPOSBiometrics@@@ATL@@QAE@XZ 10029c30 f i BiometricsImpl.obj
 0001:00028c60       ??0?$IViewObjectExImpl@VCOPOSBiometrics@@@ATL@@QAE@XZ 10029c60 f i BiometricsImpl.obj
 0001:00028c90       ??0?$_ICPLocator@$1?DIID__IOPOSBiometricsEvents@@3U_GUID@@B@ATL@@QAE@XZ 10029c90 f i BiometricsImpl.obj
 0001:00028cb0       ??0?$_ICPLocator@$1?IID_IPropertyNotifySink@@3U_GUID@@B@ATL@@QAE@XZ 10029cb0 f i BiometricsImpl.obj
 0001:00028cd0       ??0CComControlBase@ATL@@QAE@AAPAUHWND__@@@Z 10029cd0 f i BiometricsImpl.obj
 0001:00028e80       ??0CComDynamicUnkArray@ATL@@QAE@XZ 10029e80 f i BiometricsImpl.obj
 0001:00028eb0       ??0CDynamicStdCallThunk2@ATL@@QAE@XZ 10029eb0 f i BiometricsImpl.obj
 0001:00028ed0       ??0CMessageMap@ATL@@QAE@XZ 10029ed0 f i BiometricsImpl.obj
 0001:00028ef0       ??0CWindow@ATL@@QAE@PAUHWND__@@@Z 10029ef0 f i BiometricsImpl.obj
 0001:00028f10       ??0CWndProcThunk@ATL@@QAE@XZ 10029f10 f i BiometricsImpl.obj
 0001:00028f40       ??0IConnectionPointContainer@@QAE@XZ 10029f40 f i BiometricsImpl.obj
 0001:00028f70       ??0IDataObject@@QAE@XZ     10029f70 f i BiometricsImpl.obj
 0001:00028fa0       ??0IDispatch@@QAE@XZ       10029fa0 f i BiometricsImpl.obj
 0001:00028fd0       ??0IOPOSBiometrics@@QAE@XZ 10029fd0 f i BiometricsImpl.obj
 0001:00029000       ??0IOPOSBiometrics_1_10@@QAE@XZ 1002a000 f i BiometricsImpl.obj
 0001:00029030       ??0IObjectSafety@@QAE@XZ   1002a030 f i BiometricsImpl.obj
 0001:00029060       ??0IOleControl@@QAE@XZ     1002a060 f i BiometricsImpl.obj
 0001:00029090       ??0IOleInPlaceActiveObject@@QAE@XZ 1002a090 f i BiometricsImpl.obj
 0001:000290c0       ??0IOleInPlaceObject@@QAE@XZ 1002a0c0 f i BiometricsImpl.obj
 0001:000290f0       ??0IOleInPlaceObjectWindowless@@QAE@XZ 1002a0f0 f i BiometricsImpl.obj
 0001:00029120       ??0IOleObject@@QAE@XZ      1002a120 f i BiometricsImpl.obj
 0001:00029150       ??0IOleWindow@@QAE@XZ      1002a150 f i BiometricsImpl.obj
 0001:00029180       ??0IPersist@@QAE@XZ        1002a180 f i BiometricsImpl.obj
 0001:000291b0       ??0IPersistStorage@@QAE@XZ 1002a1b0 f i BiometricsImpl.obj
 0001:000291e0       ??0IPersistStreamInit@@QAE@XZ 1002a1e0 f i BiometricsImpl.obj
 0001:00029210       ??0IProvideClassInfo2@@QAE@XZ 1002a210 f i BiometricsImpl.obj
 0001:00029240       ??0IProvideClassInfo@@QAE@XZ 1002a240 f i BiometricsImpl.obj
 0001:00029270       ??0IQuickActivate@@QAE@XZ  1002a270 f i BiometricsImpl.obj
 0001:000292a0       ??0ISpecifyPropertyPages@@QAE@XZ 1002a2a0 f i BiometricsImpl.obj
 0001:000292d0       ??0IViewObject2@@QAE@XZ    1002a2d0 f i BiometricsImpl.obj
 0001:00029300       ??0IViewObject@@QAE@XZ     1002a300 f i BiometricsImpl.obj
 0001:00029330       ??0IViewObjectEx@@QAE@XZ   1002a330 f i BiometricsImpl.obj
 0001:00029360       ??0OposVariantResult@@QAE@XZ 1002a360 f i BiometricsImpl.obj
 0001:00029390       ??0_CW@@QAE@PBD@Z          1002a390 f i BiometricsImpl.obj
 0001:000293d0       ??0_CW@@QAE@PB_W@Z         1002a3d0 f i BiometricsImpl.obj
 0001:00029410       ??0_CWNCC@@QAE@PBD@Z       1002a410 f i BiometricsImpl.obj
 0001:00029440       ??1?$CComControl@VCOPOSBiometrics@@V?$CWindowImpl@VCOPOSBiometrics@@VCWindow@ATL@@V?$CWinTraits@$0FGAAAAAA@$0A@@3@@ATL@@@ATL@@UAE@XZ 1002a440 f i BiometricsImpl.obj
 0001:00029470       ??1?$CComPtr@UIDataAdviseHolder@@@ATL@@QAE@XZ 1002a470 f i BiometricsImpl.obj
 0001:000294a0       ??1?$CComPtr@UIOleAdviseHolder@@@ATL@@QAE@XZ 1002a4a0 f i BiometricsImpl.obj
 0001:000294d0       ??1?$CComPtr@UIOleInPlaceSiteWindowless@@@ATL@@QAE@XZ 1002a4d0 f i BiometricsImpl.obj
 0001:00029500       ??1?$CComPtrBase@UIDataAdviseHolder@@@ATL@@QAE@XZ 1002a500 f i BiometricsImpl.obj
 0001:00029550       ??1?$CComPtrBase@UIOleAdviseHolder@@@ATL@@QAE@XZ 1002a550 f i BiometricsImpl.obj
 0001:000295a0       ??1?$CComPtrBase@UIOleInPlaceSiteWindowless@@@ATL@@QAE@XZ 1002a5a0 f i BiometricsImpl.obj
 0001:000295f0       ??1?$CComQIPtr@UIDispatch@@$1?_GUID_00020400_0000_0000_c000_000000000046@@3U__s_GUID@@B@ATL@@QAE@XZ 1002a5f0 f i BiometricsImpl.obj
 0001:00029620       ??1?$CProxy_IOPOSEvents@VCOPOSBiometrics@@@@QAE@XZ 1002a620 f i BiometricsImpl.obj
 0001:00029650       ??1?$CWindowImpl@VCOPOSBiometrics@@VCWindow@ATL@@V?$CWinTraits@$0FGAAAAAA@$0A@@3@@ATL@@UAE@XZ 1002a650 f i BiometricsImpl.obj
 0001:00029680       ??1?$CWindowImplBaseT@VCWindow@ATL@@V?$CWinTraits@$0FGAAAAAA@$0A@@2@@ATL@@UAE@XZ 1002a680 f i BiometricsImpl.obj
 0001:000296b0       ??1?$CWindowImplRoot@VCWindow@ATL@@@ATL@@UAE@XZ 1002a6b0 f i BiometricsImpl.obj
 0001:00029750       ??1?$IConnectionPointImpl@VCOPOSBiometrics@@$1?DIID__IOPOSBiometricsEvents@@3U_GUID@@BVCComDynamicUnkArray@ATL@@@ATL@@QAE@XZ 1002a750 f i BiometricsImpl.obj
 0001:000297d0       ??1?$IConnectionPointImpl@VCOPOSBiometrics@@$1?IID_IPropertyNotifySink@@3U_GUID@@BVCComDynamicUnkArray@ATL@@@ATL@@QAE@XZ 1002a7d0 f i BiometricsImpl.obj
 0001:00029850       ??1?$IPropertyNotifySinkCP@VCOPOSBiometrics@@VCComDynamicUnkArray@ATL@@@ATL@@QAE@XZ 1002a850 f i BiometricsImpl.obj
 0001:00029880       ??1CComControlBase@ATL@@UAE@XZ 1002a880 f i BiometricsImpl.obj
 0001:00029940       ??1CComDynamicUnkArray@ATL@@QAE@XZ 1002a940 f i BiometricsImpl.obj
 0001:00029980       ??1CDynamicStdCallThunk2@ATL@@QAE@XZ 1002a980 f i BiometricsImpl.obj
 0001:000299b0       ??1CWndProcThunk@ATL@@QAE@XZ 1002a9b0 f i BiometricsImpl.obj
 0001:000299e0       ??1OposVariantResult@@QAE@XZ 1002a9e0 f i BiometricsImpl.obj
 0001:00029a10       ??1_CW@@QAE@XZ             1002aa10 f i BiometricsImpl.obj
 0001:00029a80       ??1_CWNCC@@QAE@XZ          1002aa80 f i BiometricsImpl.obj
 0001:00029ab0       ??B_CW@@QAEPB_WXZ          1002aab0 f i BiometricsImpl.obj
 0001:00029af0       ??B_CWNCC@@QAEPA_WXZ       1002aaf0 f i BiometricsImpl.obj
 0001:00029b20       ??_EOposVariant@@QAEPAXI@Z 1002ab20 f i BiometricsImpl.obj
 0001:00029bb0       ?EventClaim@COPOSBiometrics@@IAEXXZ 1002abb0 f i BiometricsImpl.obj
 0001:00029bf0       ?EventClose@COPOSBiometrics@@IAEXXZ 1002abf0 f i BiometricsImpl.obj
 0001:00029c90       ?EventInit@COPOSBiometrics@@IAEJXZ 1002ac90 f i BiometricsImpl.obj
 0001:00029ec0       ?EventOpen@COPOSBiometrics@@IAEXXZ 1002aec0 f i BiometricsImpl.obj
 0001:00029f00       ?EventPreCloseRelease@COPOSBiometrics@@IAEXXZ 1002af00 f i BiometricsImpl.obj
 0001:00029f80       ?EventUninit@COPOSBiometrics@@IAEXXZ 1002af80 f i BiometricsImpl.obj
 0001:0002a0b0       ?EventWindowProc@COPOSBiometrics@@IAGJIIJ@Z 1002b0b0 f i BiometricsImpl.obj
 0001:0002a240       ?FireEventCleanup@COPOSBiometrics@@IAEXXZ 1002b240 f i BiometricsImpl.obj
 0001:0002a290       ?FireEventSetup@COPOSBiometrics@@IAE_NXZ 1002b290 f i BiometricsImpl.obj
 0001:0002a300       ?GetModuleInstance@CComModule@ATL@@QAEPAUHINSTANCE__@@XZ 1002b300 f i BiometricsImpl.obj
 0001:0002a320       ?SetRC@COPOSBiometrics@@IAEJJ@Z 1002b320 f i BiometricsImpl.obj
 0001:0002a350       ?s_EventWindowProc@COPOSBiometrics@@KGJPAUHWND__@@IIJ@Z 1002b350 f i BiometricsImpl.obj
 0001:0002a3f0       __snwprintf                1002b3f0 f i BiometricsImpl.obj
 0001:0002a450       __vfwprintf_l              1002b450 f i BiometricsImpl.obj
 0001:0002a480       __vsnwprintf               1002b480 f i BiometricsImpl.obj
 0001:0002a4b0       __vsnwprintf_l             1002b4b0 f i BiometricsImpl.obj
 0001:0002a520       _vfwprintf                 1002b520 f i BiometricsImpl.obj
 0001:0002a542       _DebugBreak@0              1002b542 f   kernel32:KERNEL32.dll
 0001:0002a548       _Sleep@4                   1002b548 f   kernel32:KERNEL32.dll
 0001:0002a54e       _GetCurrentProcess@0       1002b54e f   kernel32:KERNEL32.dll
 0001:0002a554       _TerminateProcess@8        1002b554 f   kernel32:KERNEL32.dll
 0001:0002a55a       _MultiByteToWideChar@24    1002b55a f   kernel32:KERNEL32.dll
 0001:0002a560       _WideCharToMultiByte@32    1002b560 f   kernel32:KERNEL32.dll
 0001:0002a566       _DecodePointer@4           1002b566 f   kernel32:KERNEL32.dll
 0001:0002a56c       _RaiseException@16         1002b56c f   kernel32:KERNEL32.dll
 0001:0002a572       _GetLastError@0            1002b572 f   kernel32:KERNEL32.dll
 0001:0002a578       _SetLastError@4            1002b578 f   kernel32:KERNEL32.dll
 0001:0002a57e       _InitializeCriticalSectionEx@12 1002b57e f   kernel32:KERNEL32.dll
 0001:0002a584       _DeleteCriticalSection@4   1002b584 f   kernel32:KERNEL32.dll
 0001:0002a58a       _EncodePointer@4           1002b58a f   kernel32:KERNEL32.dll
 0001:0002a590       _EnterCriticalSection@4    1002b590 f   kernel32:KERNEL32.dll
 0001:0002a596       _LeaveCriticalSection@4    1002b596 f   kernel32:KERNEL32.dll
 0001:0002a59c       _ResetEvent@4              1002b59c f   kernel32:KERNEL32.dll
 0001:0002a5a2       _ReleaseMutex@4            1002b5a2 f   kernel32:KERNEL32.dll
 0001:0002a5a8       _WaitForSingleObject@8     1002b5a8 f   kernel32:KERNEL32.dll
 0001:0002a5ae       _GetCurrentThreadId@0      1002b5ae f   kernel32:KERNEL32.dll
 0001:0002a5b4       _DisableThreadLibraryCalls@4 1002b5b4 f   kernel32:KERNEL32.dll
 0001:0002a5ba       _FreeLibrary@4             1002b5ba f   kernel32:KERNEL32.dll
 0001:0002a5c0       _GetModuleFileNameW@12     1002b5c0 f   kernel32:KERNEL32.dll
 0001:0002a5c6       _GetModuleHandleW@4        1002b5c6 f   kernel32:KERNEL32.dll
 0001:0002a5cc       _GetProcAddress@8          1002b5cc f   kernel32:KERNEL32.dll
 0001:0002a5d2       _LoadLibraryExW@12         1002b5d2 f   kernel32:KERNEL32.dll
 0001:0002a5d8       _LoadResource@8            1002b5d8 f   kernel32:KERNEL32.dll
 0001:0002a5de       _SizeofResource@8          1002b5de f   kernel32:KERNEL32.dll
 0001:0002a5e4       _FindResourceW@12          1002b5e4 f   kernel32:KERNEL32.dll
 0001:0002a5ea       _GlobalAlloc@8             1002b5ea f   kernel32:KERNEL32.dll
 0001:0002a5f0       _GlobalUnlock@4            1002b5f0 f   kernel32:KERNEL32.dll
 0001:0002a5f6       _GlobalLock@4              1002b5f6 f   kernel32:KERNEL32.dll
 0001:0002a5fc       _MulDiv@12                 1002b5fc f   kernel32:KERNEL32.dll
 0001:0002a602       _lstrcmpiW@8               1002b602 f   kernel32:KERNEL32.dll
 0001:0002a608       _DeleteFileW@4             1002b608 f   kernel32:KERNEL32.dll
 0001:0002a60e       _CloseHandle@4             1002b60e f   kernel32:KERNEL32.dll
 0001:0002a614       _SetEvent@4                1002b614 f   kernel32:KERNEL32.dll
 0001:0002a61a       _CreateMutexW@12           1002b61a f   kernel32:KERNEL32.dll
 0001:0002a620       _CreateEventW@16           1002b620 f   kernel32:KERNEL32.dll
 0001:0002a626       _GetCurrentProcessId@0     1002b626 f   kernel32:KERNEL32.dll
 0001:0002a62c       _LocalFree@4               1002b62c f   kernel32:KERNEL32.dll
 0001:0002a632       _FormatMessageW@28         1002b632 f   kernel32:KERNEL32.dll
 0001:0002a638       _GetActiveWindow@0         1002b638 f   user32:USER32.dll
 0001:0002a63e       _MessageBoxW@16            1002b63e f   user32:USER32.dll
 0001:0002a644       _UnregisterClassW@8        1002b644 f   user32:USER32.dll
 0001:0002a64a       _PostMessageW@16           1002b64a f   user32:USER32.dll
 0001:0002a650       _DefWindowProcW@16         1002b650 f   user32:USER32.dll
 0001:0002a656       _CallWindowProcW@20        1002b656 f   user32:USER32.dll
 0001:0002a65c       _RegisterClassExW@4        1002b65c f   user32:USER32.dll
 0001:0002a662       _GetClassInfoExW@12        1002b662 f   user32:USER32.dll
 0001:0002a668       _CreateWindowExW@48        1002b668 f   user32:USER32.dll
 0001:0002a66e       _IsWindow@4                1002b66e f   user32:USER32.dll
 0001:0002a674       _IsChild@8                 1002b674 f   user32:USER32.dll
 0001:0002a67a       _DestroyWindow@4           1002b67a f   user32:USER32.dll
 0001:0002a680       _ShowWindow@8              1002b680 f   user32:USER32.dll
 0001:0002a686       _SetWindowPos@28           1002b686 f   user32:USER32.dll
 0001:0002a68c       _CharNextW@4               1002b68c f   user32:USER32.dll
 0001:0002a692       _SetFocus@4                1002b692 f   user32:USER32.dll
 0001:0002a698       _GetFocus@0                1002b698 f   user32:USER32.dll
 0001:0002a69e       _GetKeyState@4             1002b69e f   user32:USER32.dll
 0001:0002a6a4       _GetDC@4                   1002b6a4 f   user32:USER32.dll
 0001:0002a6aa       _ReleaseDC@8               1002b6aa f   user32:USER32.dll
 0001:0002a6b0       _BeginPaint@8              1002b6b0 f   user32:USER32.dll
 0001:0002a6b6       _EndPaint@8                1002b6b6 f   user32:USER32.dll
 0001:0002a6bc       _SetWindowRgn@12           1002b6bc f   user32:USER32.dll
 0001:0002a6c2       _InvalidateRect@12         1002b6c2 f   user32:USER32.dll
 0001:0002a6c8       _GetClientRect@8           1002b6c8 f   user32:USER32.dll
 0001:0002a6ce       _IntersectRect@12          1002b6ce f   user32:USER32.dll
 0001:0002a6d4       _UnionRect@12              1002b6d4 f   user32:USER32.dll
 0001:0002a6da       _OffsetRect@12             1002b6da f   user32:USER32.dll
 0001:0002a6e0       _EqualRect@8               1002b6e0 f   user32:USER32.dll
 0001:0002a6e6       _PtInRect@12               1002b6e6 f   user32:USER32.dll
 0001:0002a6ec       _GetWindowLongW@8          1002b6ec f   user32:USER32.dll
 0001:0002a6f2       _SetWindowLongW@12         1002b6f2 f   user32:USER32.dll
 0001:0002a6f8       _GetParent@4               1002b6f8 f   user32:USER32.dll
 0001:0002a6fe       _LoadCursorW@8             1002b6fe f   user32:USER32.dll
 0001:0002a704       _PeekMessageW@20           1002b704 f   user32:USER32.dll
 0001:0002a70a       _RegisterClassW@4          1002b70a f   user32:USER32.dll
 0001:0002a710       _LoadBitmapW@8             1002b710 f   user32:USER32.dll
 0001:0002a716       _CloseMetaFile@4           1002b716 f   gdi32:GDI32.dll
 0001:0002a71c       _CreateDCW@16              1002b71c f   gdi32:GDI32.dll
 0001:0002a722       _CreateMetaFileW@4         1002b722 f   gdi32:GDI32.dll
 0001:0002a728       _CreateRectRgnIndirect@4   1002b728 f   gdi32:GDI32.dll
 0001:0002a72e       _DeleteDC@4                1002b72e f   gdi32:GDI32.dll
 0001:0002a734       _DeleteMetaFile@4          1002b734 f   gdi32:GDI32.dll
 0001:0002a73a       _GetDeviceCaps@8           1002b73a f   gdi32:GDI32.dll
 0001:0002a740       _RestoreDC@8               1002b740 f   gdi32:GDI32.dll
 0001:0002a746       _SaveDC@4                  1002b746 f   gdi32:GDI32.dll
 0001:0002a74c       _SetMapMode@8              1002b74c f   gdi32:GDI32.dll
 0001:0002a752       _LPtoDP@12                 1002b752 f   gdi32:GDI32.dll
 0001:0002a758       _SetViewportOrgEx@16       1002b758 f   gdi32:GDI32.dll
 0001:0002a75e       _SetWindowExtEx@16         1002b75e f   gdi32:GDI32.dll
 0001:0002a764       _SetWindowOrgEx@16         1002b764 f   gdi32:GDI32.dll
 0001:0002a76a       _BitBlt@36                 1002b76a f   gdi32:GDI32.dll
 0001:0002a770       _CreateCompatibleDC@4      1002b770 f   gdi32:GDI32.dll
 0001:0002a776       _DeleteObject@4            1002b776 f   gdi32:GDI32.dll
 0001:0002a77c       _SelectObject@8            1002b77c f   gdi32:GDI32.dll
 0001:0002a782       _GetObjectW@12             1002b782 f   gdi32:GDI32.dll
 0001:0002a788       _RegCloseKey@4             1002b788 f   advapi32:ADVAPI32.dll
 0001:0002a78e       _RegCreateKeyExW@36        1002b78e f   advapi32:ADVAPI32.dll
 0001:0002a794       _RegDeleteKeyW@8           1002b794 f   advapi32:ADVAPI32.dll
 0001:0002a79a       _RegDeleteValueW@8         1002b79a f   advapi32:ADVAPI32.dll
 0001:0002a7a0       _RegEnumKeyExW@32          1002b7a0 f   advapi32:ADVAPI32.dll
 0001:0002a7a6       _RegOpenKeyExW@20          1002b7a6 f   advapi32:ADVAPI32.dll
 0001:0002a7ac       _RegQueryInfoKeyW@48       1002b7ac f   advapi32:ADVAPI32.dll
 0001:0002a7b2       _RegSetValueExW@24         1002b7b2 f   advapi32:ADVAPI32.dll
 0001:0002a7b8       _RegQueryValueExW@24       1002b7b8 f   advapi32:ADVAPI32.dll
 0001:0002a7be       _CoCreateInstance@20       1002b7be f   ole32:ole32.dll
 0001:0002a7c4       _StringFromGUID2@12        1002b7c4 f   ole32:ole32.dll
 0001:0002a7ca       _CoTaskMemAlloc@4          1002b7ca f   ole32:ole32.dll
 0001:0002a7d0       _CoTaskMemRealloc@8        1002b7d0 f   ole32:ole32.dll
 0001:0002a7d6       _CoTaskMemFree@4           1002b7d6 f   ole32:ole32.dll
 0001:0002a7dc       _ReadClassStm@8            1002b7dc f   ole32:ole32.dll
 0001:0002a7e2       _WriteClassStm@8           1002b7e2 f   ole32:ole32.dll
 0001:0002a7e8       _CreateDataAdviseHolder@4  1002b7e8 f   ole32:ole32.dll
 0001:0002a7ee       _OleSaveToStream@8         1002b7ee f   ole32:ole32.dll
 0001:0002a7f4       _CreateOleAdviseHolder@4   1002b7f4 f   ole32:ole32.dll
 0001:0002a7fa       _OleRegGetUserType@12      1002b7fa f   ole32:ole32.dll
 0001:0002a800       _OleRegGetMiscStatus@12    1002b800 f   ole32:ole32.dll
 0001:0002a806       _OleRegEnumVerbs@8         1002b806 f   ole32:ole32.dll
 0001:0002a80c       _CLSIDFromProgID@8         1002b80c f   ole32:ole32.dll
 0001:0002a812       _SysAllocString@4          1002b812 f   oleaut32:OLEAUT32.dll
 0001:0002a818       _SysAllocStringLen@8       1002b818 f   oleaut32:OLEAUT32.dll
 0001:0002a81e       _SysFreeString@4           1002b81e f   oleaut32:OLEAUT32.dll
 0001:0002a824       _SysStringLen@4            1002b824 f   oleaut32:OLEAUT32.dll
 0001:0002a82a       _VariantClear@4            1002b82a f   oleaut32:OLEAUT32.dll
 0001:0002a830       _VariantCopyInd@8          1002b830 f   oleaut32:OLEAUT32.dll
 0001:0002a836       _VariantChangeType@16      1002b836 f   oleaut32:OLEAUT32.dll
 0001:0002a83c       _SysStringByteLen@4        1002b83c f   oleaut32:OLEAUT32.dll
 0001:0002a842       _SysAllocStringByteLen@8   1002b842 f   oleaut32:OLEAUT32.dll
 0001:0002a848       _VariantInit@4             1002b848 f   oleaut32:OLEAUT32.dll
 0001:0002a84e       _VarUI4FromStr@16          1002b84e f   oleaut32:OLEAUT32.dll
 0001:0002a854       _LoadTypeLib@8             1002b854 f   oleaut32:OLEAUT32.dll
 0001:0002a85a       _LoadRegTypeLib@20         1002b85a f   oleaut32:OLEAUT32.dll
 0001:0002a860       _RegisterTypeLib@12        1002b860 f   oleaut32:OLEAUT32.dll
 0001:0002a866       _UnRegisterTypeLib@20      1002b866 f   oleaut32:OLEAUT32.dll
 0001:0002a86c       _OleCreatePropertyFrame@44 1002b86c f   oleaut32:OLEAUT32.dll
 0001:0002a872       _SafeArrayGetDim@4         1002b872 f   oleaut32:OLEAUT32.dll
 0001:0002a878       _SafeArrayGetUBound@12     1002b878 f   oleaut32:OLEAUT32.dll
 0001:0002a87e       _SafeArrayGetLBound@12     1002b87e f   oleaut32:OLEAUT32.dll
 0001:0002a890       @_RTC_AllocaHelper@12      1002b890 f   LIBCMTD:stack.obj
 0001:0002a8d0       @_RTC_CheckStackVars2@12   1002b8d0 f   LIBCMTD:stack.obj
 0001:0002a9b0       @_RTC_CheckStackVars@8     1002b9b0 f   LIBCMTD:stack.obj
 0001:0002aa10       __RTC_CheckEsp             1002ba10 f   LIBCMTD:stack.obj
 0001:0002aa50       @__security_check_cookie@4 1002ba50 f   LIBCMTD:secchk.obj
 0001:0002aa70       __CRT_RTC_INIT             1002ba70 f   LIBCMTD:init.obj
 0001:0002aa80       __CRT_RTC_INITW            1002ba80 f   LIBCMTD:init.obj
 0001:0002aa90       __RTC_InitBase             1002ba90 f   LIBCMTD:init.obj
 0001:0002aac0       __RTC_Shutdown             1002bac0 f   LIBCMTD:init.obj
 0001:0002aae0       ??_U@YAPAXI@Z              1002bae0 f   LIBCMTD:new_array.obj
 0001:0002ab00       ??3@YAXPAXI@Z              1002bb00 f   LIBCMTD:delete_scalar_size.obj
 0001:0002ab20       ??_V@YAXPAX@Z              1002bb20 f   LIBCMTD:delete_array.obj
 0001:0002ab40       ??_V@YAXPAXI@Z             1002bb40 f   LIBCMTD:delete_array_size.obj
 0001:0002ab60       ?configure_argv@__scrt_narrow_argv_policy@@SAHXZ 1002bb60 f i LIBCMTD:utility.obj
 0001:0002ac10       ?initialize_environment@__scrt_narrow_environment_policy@@SAHXZ 1002bc10 f i LIBCMTD:utility.obj
 0001:0002ac90       _NtCurrentTeb              1002bc90 f i LIBCMTD:utility.obj
 0001:0002aca0       ___scrt_acquire_startup_lock 1002bca0 f   LIBCMTD:utility.obj
 0001:0002acf0       ___scrt_dllmain_after_initialize_c 1002bcf0 f   LIBCMTD:utility.obj
 0001:0002ad20       ___scrt_dllmain_before_initialize_c 1002bd20 f   LIBCMTD:utility.obj
 0001:0002ad40       ___scrt_dllmain_crt_thread_attach 1002bd40 f   LIBCMTD:utility.obj
 0001:0002ad70       ___scrt_dllmain_crt_thread_detach 1002bd70 f   LIBCMTD:utility.obj
 0001:0002ad90       ___scrt_dllmain_exception_filter 1002bd90 f   LIBCMTD:utility.obj
 0001:0002ade0       ___scrt_dllmain_uninitialize_c 1002bde0 f   LIBCMTD:utility.obj
 0001:0002ae10       ___scrt_dllmain_uninitialize_critical 1002be10 f   LIBCMTD:utility.obj
 0001:0002ae30       ___scrt_initialize_crt     1002be30 f   LIBCMTD:utility.obj
 0001:0002ae80       ___scrt_initialize_onexit_tables 1002be80 f   LIBCMTD:utility.obj
 0001:0002af60       ___scrt_is_nonwritable_in_current_image 1002bf60 f   LIBCMTD:utility.obj
 0001:0002b090       ___scrt_release_startup_lock 1002c090 f   LIBCMTD:utility.obj
 0001:0002b0c0       ___scrt_uninitialize_crt   1002c0c0 f   LIBCMTD:utility.obj
 0001:0002b100       __onexit                   1002c100 f   LIBCMTD:utility.obj
 0001:0002b170       _at_quick_exit             1002c170 f   LIBCMTD:utility.obj
 0001:0002b1b0       _atexit                    1002c1b0 f   LIBCMTD:utility.obj
 0001:0002b1e0       ??3@YAXPAX@Z               1002c1e0 f   LIBCMTD:delete_scalar.obj
 0001:0002b200       ___raise_securityfailure   1002c200 f   LIBCMTD:gs_report.obj
 0001:0002b230       ___report_gsfailure        1002c230 f   LIBCMTD:gs_report.obj
 0001:0002b340       ___report_rangecheckfailure 1002c340 f   LIBCMTD:gs_report.obj
 0001:0002b350       ___report_securityfailure  1002c350 f   LIBCMTD:gs_report.obj
 0001:0002b430       ___report_securityfailureEx 1002c430 f   LIBCMTD:gs_report.obj
 0001:0002b680       __Init_thread_abort        1002c680 f   LIBCMTD:thread_safe_statics.obj
 0001:0002b6a0       __Init_thread_footer       1002c6a0 f   LIBCMTD:thread_safe_statics.obj
 0001:0002b6f0       __Init_thread_header       1002c6f0 f   LIBCMTD:thread_safe_statics.obj
 0001:0002b760       __Init_thread_lock         1002c760 f   LIBCMTD:thread_safe_statics.obj
 0001:0002b770       __Init_thread_notify       1002c770 f   LIBCMTD:thread_safe_statics.obj
 0001:0002b7c0       __Init_thread_unlock       1002c7c0 f   LIBCMTD:thread_safe_statics.obj
 0001:0002b7d0       __Init_thread_wait         1002c7d0 f   LIBCMTD:thread_safe_statics.obj
 0001:0002b860       ??2@YAPAXIABUnothrow_t@std@@@Z 1002c860 f   LIBCMTD:new_scalar_nothrow.obj
 0001:0002b8e0       ??_U@YAPAXIABUnothrow_t@std@@@Z 1002c8e0 f   LIBCMTD:new_array_nothrow.obj
 0001:0002b900       __allmul                   1002c900 f   LIBCMTD:llmul.obj
 0001:0002b940       __alloca_probe_16          1002c940 f   LIBCMTD:alloca16.obj
 0001:0002b956       __alloca_probe_8           1002c956     LIBCMTD:alloca16.obj
 0001:0002b970       __chkstk                   1002c970 f   LIBCMTD:chkstk.obj
 0001:0002b970       __alloca_probe             1002c970 f   LIBCMTD:chkstk.obj
 0001:0002be70       __CRT_INIT@12              1002ce70 f   LIBCMTD:dll_dllmain.obj
 0001:0002be90       __DllMainCRTStartup@12     1002ce90 f   LIBCMTD:dll_dllmain.obj
 0001:0002bf50       ?_RTC_AllocaFailure@@YAXPAXPAU_RTC_ALLOCA_NODE@@H@Z 1002cf50 f   LIBCMTD:error.obj
 0001:0002c040       ?_RTC_Failure@@YAXPAXH@Z   1002d040 f   LIBCMTD:error.obj
 0001:0002c090       ?_RTC_StackFailure@@YAXPAXPBD@Z 1002d090 f   LIBCMTD:error.obj
 0001:0002c450       __RTC_UninitUse            1002d450 f   LIBCMTD:error.obj
 0001:0002c500       __vsprintf_s_l             1002d500 f i LIBCMTD:error.obj
 0001:0002c530       _sprintf_s                 1002d530 f i LIBCMTD:error.obj
 0001:0002c550       ?_RTC_GetErrorFunc@@YAP6AHHPBDH00ZZPBX@Z 1002d550 f   LIBCMTD:userapi.obj
 0001:0002c560       ?_RTC_GetErrorFuncW@@YAP6AHHPB_WH00ZZPBX@Z 1002d560 f   LIBCMTD:userapi.obj
 0001:0002c570       __RTC_GetErrDesc           1002d570 f   LIBCMTD:userapi.obj
 0001:0002c590       __RTC_NumErrors            1002d590 f   LIBCMTD:userapi.obj
 0001:0002c5a0       __RTC_SetErrorFunc         1002d5a0 f   LIBCMTD:userapi.obj
 0001:0002c5c0       __RTC_SetErrorFuncW        1002d5c0 f   LIBCMTD:userapi.obj
 0001:0002c5e0       __RTC_SetErrorType         1002d5e0 f   LIBCMTD:userapi.obj
 0001:0002c610       ??2@YAPAXI@Z               1002d610 f   LIBCMTD:new_scalar.obj
 0001:0002c660       ___isa_available_init      1002d660 f   LIBCMTD:cpu_disp.obj
 0001:0002c9a0       __get_startup_argv_mode    1002d9a0 f   LIBCMTD:argv_mode.obj
 0001:0002c9b0       ___scrt_is_ucrt_dll_in_use 1002d9b0 f   LIBCMTD:ucrt_detection.obj
 0001:0002c9e0       ___scrt_fastfail           1002d9e0 f   LIBCMTD:utility_desktop.obj
 0001:0002cb20       ___scrt_get_show_window_mode 1002db20 f   LIBCMTD:utility_desktop.obj
 0001:0002cb60       ___scrt_initialize_mta     1002db60 f   LIBCMTD:utility_desktop.obj
 0001:0002cb70       ___scrt_initialize_winrt   1002db70 f   LIBCMTD:utility_desktop.obj
 0001:0002cb80       ___scrt_is_managed_app     1002db80 f   LIBCMTD:utility_desktop.obj
 0001:0002cc10       ___scrt_set_unhandled_exception_filter 1002dc10 f   LIBCMTD:utility_desktop.obj
 0001:0002cc20       ___scrt_stub_for_initialize_mta 1002dc20 f   LIBCMTD:utility_desktop.obj
 0001:0002cc20       ___scrt_exe_initialize_mta 1002dc20 f   LIBCMTD:utility_desktop.obj
 0001:0002cc30       ___scrt_unhandled_exception_filter@4 1002dc30 f   LIBCMTD:utility_desktop.obj
 0001:0002ccb0       __crt_debugger_hook        1002dcb0 f   LIBCMTD:utility_desktop.obj
 0001:0002ccc0       @_guard_check_icall_nop@4  1002dcc0 f i LIBCMTD:guard_support.obj
 0001:0002ccd0       _ReadNoFence               1002dcd0 f i LIBCMTD:guard_support.obj
 0001:0002ccf0       _ReadPointerNoFence        1002dcf0 f i LIBCMTD:guard_support.obj
 0001:0002cd10       __guard_icall_checks_enforced 1002dd10 f i LIBCMTD:guard_support.obj
 0001:0002cdb0       ___security_init_cookie    1002ddb0 f   LIBCMTD:gs_support.obj
 0001:0002ce30       ?__scrt_initialize_type_info@@YAXXZ 1002de30 f   LIBCMTD:tncleanup.obj
 0001:0002ce40       ?__scrt_uninitialize_type_info@@YAXXZ 1002de40 f   LIBCMTD:tncleanup.obj
 0001:0002ce60       ___local_stdio_scanf_options 1002de60 f i LIBCMTD:default_local_stdio_options.obj
 0001:0002ce70       ___scrt_initialize_default_local_stdio_options 1002de70 f   LIBCMTD:default_local_stdio_options.obj
 0001:0002ceb0       ___scrt_get_dyn_tls_init_callback 1002deb0 f   LIBCMTD:dyn_tls_init.obj
 0001:0002cec0       __RTC_Initialize           1002dec0 f   LIBCMTD:initsect.obj
 0001:0002cef0       __RTC_Terminate            1002def0 f   LIBCMTD:initsect.obj
 0001:0002d3a0       ?_RTC_GetSrcLine@@YAHPAEPA_WKPAH1K@Z 1002e3a0 f   LIBCMTD:pdblkup.obj
 0001:0002d720       __except_handler4_noexcept 1002e720 f   LIBCMTD:chandler4_noexcept.obj
 0001:0002d780       ??0bad_alloc@std@@AAE@QBD@Z 1002e780 f i LIBCMTD:throw_bad_alloc.obj
 0001:0002d7b0       ??0bad_alloc@std@@QAE@ABV01@@Z 1002e7b0 f i LIBCMTD:throw_bad_alloc.obj
 0001:0002d7e0       ??0bad_alloc@std@@QAE@XZ   1002e7e0 f i LIBCMTD:throw_bad_alloc.obj
 0001:0002d810       ??0bad_array_new_length@std@@QAE@ABV01@@Z 1002e810 f i LIBCMTD:throw_bad_alloc.obj
 0001:0002d840       ??0bad_array_new_length@std@@QAE@XZ 1002e840 f i LIBCMTD:throw_bad_alloc.obj
 0001:0002d870       ??0exception@std@@QAE@ABV01@@Z 1002e870 f i LIBCMTD:throw_bad_alloc.obj
 0001:0002d8b0       ??0exception@std@@QAE@QBDH@Z 1002e8b0 f i LIBCMTD:throw_bad_alloc.obj
 0001:0002d8e0       ??1bad_alloc@std@@UAE@XZ   1002e8e0 f i LIBCMTD:throw_bad_alloc.obj
 0001:0002d900       ??1bad_array_new_length@std@@UAE@XZ 1002e900 f i LIBCMTD:throw_bad_alloc.obj
 0001:0002d920       ??1exception@std@@UAE@XZ   1002e920 f i LIBCMTD:throw_bad_alloc.obj
 0001:0002d950       ??_Gbad_alloc@std@@UAEPAXI@Z 1002e950 f i LIBCMTD:throw_bad_alloc.obj
 0001:0002d950       ??_Ebad_alloc@std@@UAEPAXI@Z 1002e950 f i LIBCMTD:throw_bad_alloc.obj
 0001:0002d980       ??_Gbad_array_new_length@std@@UAEPAXI@Z 1002e980 f i LIBCMTD:throw_bad_alloc.obj
 0001:0002d980       ??_Ebad_array_new_length@std@@UAEPAXI@Z 1002e980 f i LIBCMTD:throw_bad_alloc.obj
 0001:0002d9b0       ??_Gexception@std@@UAEPAXI@Z 1002e9b0 f i LIBCMTD:throw_bad_alloc.obj
 0001:0002d9b0       ??_Eexception@std@@UAEPAXI@Z 1002e9b0 f i LIBCMTD:throw_bad_alloc.obj
 0001:0002d9e0       ?__scrt_throw_std_bad_alloc@@YAXXZ 1002e9e0 f   LIBCMTD:throw_bad_alloc.obj
 0001:0002da00       ?__scrt_throw_std_bad_array_new_length@@YAXXZ 1002ea00 f   LIBCMTD:throw_bad_alloc.obj
 0001:0002da20       ?what@exception@std@@UBEPBDXZ 1002ea20 f i LIBCMTD:throw_bad_alloc.obj
 0001:0002da50       ??1type_info@@UAE@XZ       1002ea50 f   LIBCMTD:std_type_info_static.obj
 0001:0002da70       ??_Etype_info@@UAEPAXI@Z   1002ea70 f i LIBCMTD:std_type_info_static.obj
 0001:0002da70       ??_Gtype_info@@UAEPAXI@Z   1002ea70 f i LIBCMTD:std_type_info_static.obj
 0001:0002da9e       ??$?2PAUHINSTANCE__@@@Wrapper@?$CSimpleArray@PAUHINSTANCE__@@V?$CSimpleArrayEqualHelper@PAUHINSTANCE__@@@ATL@@@ATL@@SAPAXIPAPAUHINSTANCE__@@@Z 1002ea9e f i atls:atlbase.obj
 0001:0002daa6       ??0?$CSimpleArray@PAUHINSTANCE__@@V?$CSimpleArrayEqualHelper@PAUHINSTANCE__@@@ATL@@@ATL@@QAE@XZ 1002eaa6 f i atls:atlbase.obj
 0001:0002dab3       ??0CAtlBaseModule@ATL@@QAE@XZ 1002eab3 f   atls:atlbase.obj
 0001:0002db06       ??0Wrapper@?$CSimpleArray@PAUHINSTANCE__@@V?$CSimpleArrayEqualHelper@PAUHINSTANCE__@@@ATL@@@ATL@@QAE@ABQAUHINSTANCE__@@@Z 1002eb06 f i atls:atlbase.obj
 0001:0002db16       ??0_ATL_BASE_MODULE70@ATL@@QAE@XZ 1002eb16 f i atls:atlbase.obj
 0001:0002db39       ??1?$CSimpleArray@PAUHINSTANCE__@@V?$CSimpleArrayEqualHelper@PAUHINSTANCE__@@@ATL@@@ATL@@QAE@XZ 1002eb39 f i atls:atlbase.obj
 0001:0002db3e       ??1CAtlBaseModule@ATL@@QAE@XZ 1002eb3e f   atls:atlbase.obj
 0001:0002db54       ??1_ATL_BASE_MODULE70@ATL@@QAE@XZ 1002eb54 f i atls:atlbase.obj
 0001:0002db5c       ??A?$CSimpleArray@PAUHINSTANCE__@@V?$CSimpleArrayEqualHelper@PAUHINSTANCE__@@@ATL@@@ATL@@QAEAAPAUHINSTANCE__@@H@Z 1002eb5c f i atls:atlbase.obj
 0001:0002db81       ?Add@?$CSimpleArray@PAUHINSTANCE__@@V?$CSimpleArrayEqualHelper@PAUHINSTANCE__@@@ATL@@@ATL@@QAEHABQAUHINSTANCE__@@@Z 1002eb81 f i atls:atlbase.obj
 0001:0002dc03       ?AddResourceInstance@CAtlBaseModule@ATL@@QAE_NPAUHINSTANCE__@@@Z 1002ec03 f   atls:atlbase.obj
 0001:0002dc36       ?GetHInstanceAt@CAtlBaseModule@ATL@@QAEPAUHINSTANCE__@@H@Z 1002ec36 f   atls:atlbase.obj
 0001:0002dc7b       ?GetSize@?$CSimpleArray@PAUHINSTANCE__@@V?$CSimpleArrayEqualHelper@PAUHINSTANCE__@@@ATL@@@ATL@@QBEHXZ 1002ec7b f i atls:atlbase.obj
 0001:0002dc7f       ?InternalSetAtIndex@?$CSimpleArray@PAUHINSTANCE__@@V?$CSimpleArrayEqualHelper@PAUHINSTANCE__@@@ATL@@@ATL@@QAEXHABQAUHINSTANCE__@@@Z 1002ec7f f i atls:atlbase.obj
 0001:0002dc99       ?RemoveAll@?$CSimpleArray@PAUHINSTANCE__@@V?$CSimpleArrayEqualHelper@PAUHINSTANCE__@@@ATL@@@ATL@@QAEXXZ 1002ec99 f i atls:atlbase.obj
 0001:0002dcb6       ?RemoveAt@?$CSimpleArray@PAUHINSTANCE__@@V?$CSimpleArrayEqualHelper@PAUHINSTANCE__@@@ATL@@@ATL@@QAEHH@Z 1002ecb6 f i atls:atlbase.obj
 0001:0002dd04       ?RemoveResourceInstance@CAtlBaseModule@ATL@@QAE_NPAUHINSTANCE__@@@Z 1002ed04 f   atls:atlbase.obj
 0001:0002dd61       ?memmove_s@Checked@ATL@@YAXPAXIPBXI@Z 1002ed61 f i atls:atlbase.obj
 0001:0002e0be       ?GetCodeAddress@_stdcallthunk@ATL@@QAEPAXXZ 1002f0be f i atls:atlthunk.obj
 0001:0002e0e8       ?Init@_stdcallthunk@ATL@@QAEHKPAX@Z 1002f0e8 f i atls:atlthunk.obj
 0001:0002e11d       ?__AllocStdCallThunk@@YGPAXXZ 1002f11d f   atls:atlthunk.obj
 0001:0002e122       ?__AllocStdCallThunk@ATL@@YGPAXXZ 1002f122 f   atls:atlthunk.obj
 0001:0002e127       ?__AllocStdCallThunk_cmn@@YAPAXXZ 1002f127 f   atls:atlthunk.obj
 0001:0002e1ed       ?__FreeStdCallThunk@@YGXPAX@Z 1002f1ed f   atls:atlthunk.obj
 0001:0002e1fd       ?__FreeStdCallThunk@ATL@@YGXPAX@Z 1002f1fd f   atls:atlthunk.obj
 0001:0002e20d       ?__FreeStdCallThunk_cmn@@YAXPAX@Z 1002f20d f   atls:atlthunk.obj
 0001:0002e2a8       _AtlThunk_AllocateData@0   1002f2a8 f   atls:atlthunk.obj
 0001:0002e30d       _AtlThunk_DataToCode@4     1002f30d f   atls:atlthunk.obj
 0001:0002e354       _AtlThunk_FreeData@4       1002f354 f   atls:atlthunk.obj
 0001:0002e3aa       _AtlThunk_InitData@12      1002f3aa f   atls:atlthunk.obj
 0001:0002e3f9       _MemoryBarrier             1002f3f9 f i atls:atlthunk.obj
 0001:0002e407       __InlineInterlockedCompareExchangePointer 1002f407 f i atls:atlthunk.obj
 0001:0002e420       _memset                    1002f420 f   libvcruntimed:memset.obj
 0001:0002e580       ??$__crt_interlocked_exchange_pointer@$$A6AXXZP6AXXZ@@YAP6AXXZPDS6AXXZQ6AXXZ@Z 1002f580 f i libvcruntimed:purevirt.obj
 0001:0002e590       ??$__crt_interlocked_read_pointer@$$A6AXXZ@@YAP6AXXZPDS6AXXZ@Z 1002f590 f i libvcruntimed:purevirt.obj
 0001:0002e5b0       ?__crt_interlocked_read_32@@YAHPDH@Z 1002f5b0 f i libvcruntimed:purevirt.obj
 0001:0002e5d0       __get_purecall_handler     1002f5d0 f   libvcruntimed:purevirt.obj
 0001:0002e5f0       __purecall                 1002f5f0 f   libvcruntimed:purevirt.obj
 0001:0002e620       __set_purecall_handler     1002f620 f   libvcruntimed:purevirt.obj
 0001:0002e7f0       _memcmp                    1002f7f0 f   libvcruntimed:memcmp.obj
 0001:0002f0c0       _memcpy                    100300c0 f   libvcruntimed:memcpy.obj
 0001:0002f640       _wcsstr                    10030640 f   libvcruntimed:wcsstr.obj
 0001:0002fb70       __except_handler4          10030b70 f   libvcruntimed:chandler4.obj
 0001:0002fd60       ___vcrt_initialize         10030d60 f   libvcruntimed:initialization.obj
 0001:0002fda0       ___vcrt_thread_attach      10030da0 f   libvcruntimed:initialization.obj
 0001:0002fdc0       ___vcrt_thread_detach      10030dc0 f   libvcruntimed:initialization.obj
 0001:0002fde0       ___vcrt_uninitialize       10030de0 f   libvcruntimed:initialization.obj
 0001:0002fe00       ___vcrt_uninitialize_critical 10030e00 f   libvcruntimed:initialization.obj
 0001:0002fe20       ??$?0AAViterator@TryBlockMap@__FrameHandler3@@AAV012@$0A@@?$pair@Viterator@TryBlockMap@__FrameHandler3@@V123@@std@@QAE@AAViterator@TryBlockMap@__FrameHandler3@@0@Z 10030e20 f i libvcruntimed:trnsctrl.obj
 0001:0002fe70       ??$forward@AAViterator@TryBlockMap@__FrameHandler3@@@std@@YAAAViterator@TryBlockMap@__FrameHandler3@@AAV123@@Z 10030e70 f i libvcruntimed:trnsctrl.obj
 0001:0002fe80       ??0iterator@TryBlockMap@__FrameHandler3@@QAE@AAV12@I@Z 10030e80 f i libvcruntimed:trnsctrl.obj
 0001:0002feb0       ?GetRangeOfTrysToCheck@__FrameHandler3@@SA?AU?$pair@Viterator@TryBlockMap@__FrameHandler3@@V123@@std@@AAVTryBlockMap@1@HPAXPBU_s_FuncInfo@@H@Z 10030eb0 f   libvcruntimed:trnsctrl.obj
 0001:0002ff90       ?_CallCatchBlock2@@YAPAXPAUEHRegistrationNode@@PBU_s_FuncInfo@@PAXHK@Z 10030f90 f   libvcruntimed:trnsctrl.obj
 0001:00030000       ?_CallSETranslator@@YAHPAUEHExceptionRecord@@PAUEHRegistrationNode@@PAX2PBU_s_FuncInfo@@H1@Z 10031000 f   libvcruntimed:trnsctrl.obj
 0001:00030100       ?_JumpToContinuation@@YGXPAXPAUEHRegistrationNode@@@Z 10031100 f   libvcruntimed:trnsctrl.obj
 0001:00030140       ?_UnwindNestedFrames@@YGXPAUEHRegistrationNode@@PAUEHExceptionRecord@@@Z 10031140 f   libvcruntimed:trnsctrl.obj
 0001:000301a0       __CatchGuardHandler        100311a0 f   libvcruntimed:trnsctrl.obj
 0001:000301f0       __CreateFrameInfo          100311f0 f   libvcruntimed:trnsctrl.obj
 0001:00030220       __FindAndUnlinkFrame       10031220 f   libvcruntimed:trnsctrl.obj
 0001:00030290       __TranslatorGuardHandler   10031290 f   libvcruntimed:trnsctrl.obj
 0001:00030340       ___CxxFrameHandler         10031340 f   libvcruntimed:trnsctrl.obj
 0001:00030380       ___CxxFrameHandler2        10031380 f   libvcruntimed:trnsctrl.obj
 0001:000303c0       ___CxxFrameHandler3        100313c0 f   libvcruntimed:trnsctrl.obj
 0001:00030400       ___CxxLongjmpUnwind@4      10031400 f   libvcruntimed:trnsctrl.obj
 0001:00030440       ___DestructExceptionObject 10031440 f   libvcruntimed:ehhelpers.obj
 0001:00030560       ?_CallMemberFunction0@@YGXQAX0@Z 10031560 f i libvcruntimed:ehhelpers.obj
 0001:00030600       ?raw_name@type_info@@QBEPBDXZ 10031600 f i libvcruntimed:ehhelpers.obj
 0001:00030620       __IsExceptionObjectToBeDestroyed 10031620 f   libvcruntimed:ehhelpers.obj
 0001:00030660       __SetWinRTOutOfMemoryExceptionCallback 10031660 f   libvcruntimed:ehhelpers.obj
 0001:00030670       ___AdjustPointer           10031670 f   libvcruntimed:ehhelpers.obj
 0001:000306c0       ___FrameUnwindFilter       100316c0 f   libvcruntimed:ehhelpers.obj
 0001:00030750       ___GetPlatformExceptionInfo 10031750 f   libvcruntimed:ehhelpers.obj
 0001:000307d0       ___current_exception       100317d0 f   libvcruntimed:ehhelpers.obj
 0001:000307e0       ___current_exception_context 100317e0 f   libvcruntimed:ehhelpers.obj
 0001:000307f0       ___processing_throw        100317f0 f   libvcruntimed:ehhelpers.obj
 0001:00030800       ___std_terminate           10031800 f   libvcruntimed:ehhelpers.obj
 0001:00030810       __is_exception_typeof      10031810 f   libvcruntimed:ehhelpers.obj
 0001:00030910       ??$?RD@__crt_internal_free_policy@@QBEXQBD@Z 10031910 f i libvcruntimed:std_type_info.obj
 0001:00030930       ??$?RX@__crt_internal_free_policy@@QBEXQBX@Z 10031930 f i libvcruntimed:std_type_info.obj
 0001:00030950       ??$__crt_interlocked_compare_exchange_pointer@$$CBDPAD$$T@@YAPBDPDSBDQAD$$T@Z 10031950 f i libvcruntimed:std_type_info.obj
 0001:00030970       ??$__crt_interlocked_read_pointer@$$CBD@@YAPBDPDSBD@Z 10031970 f i libvcruntimed:std_type_info.obj
 0001:00030990       ??0?$__crt_unique_heap_ptr@DU__crt_internal_free_policy@@@@QAE@QAD@Z 10031990 f i libvcruntimed:std_type_info.obj
 0001:000309b0       ??0?$__crt_unique_heap_ptr@XU__crt_internal_free_policy@@@@QAE@QAX@Z 100319b0 f i libvcruntimed:std_type_info.obj
 0001:000309d0       ??1?$__crt_unique_heap_ptr@DU__crt_internal_free_policy@@@@QAE@XZ 100319d0 f i libvcruntimed:std_type_info.obj
 0001:000309f0       ??1?$__crt_unique_heap_ptr@XU__crt_internal_free_policy@@@@QAE@XZ 100319f0 f i libvcruntimed:std_type_info.obj
 0001:00030a10       ??B?$__crt_unique_heap_ptr@DU__crt_internal_free_policy@@@@QBE_NXZ 10031a10 f i libvcruntimed:std_type_info.obj
 0001:00030a30       ??B?$__crt_unique_heap_ptr@XU__crt_internal_free_policy@@@@QBE_NXZ 10031a30 f i libvcruntimed:std_type_info.obj
 0001:00030ac0       ?detach@?$__crt_unique_heap_ptr@XU__crt_internal_free_policy@@@@QAEPAXXZ 10031ac0 f i libvcruntimed:std_type_info.obj
 0001:00030af0       ?get@?$__crt_unique_heap_ptr@DU__crt_internal_free_policy@@@@QBEPADXZ 10031af0 f i libvcruntimed:std_type_info.obj
 0001:00030b00       ?get@?$__crt_unique_heap_ptr@XU__crt_internal_free_policy@@@@QBEPAXXZ 10031b00 f i libvcruntimed:std_type_info.obj
 0001:00030b10       ?is_valid@?$__crt_unique_heap_ptr@DU__crt_internal_free_policy@@@@QBE_NXZ 10031b10 f i libvcruntimed:std_type_info.obj
 0001:00030b40       ?is_valid@?$__crt_unique_heap_ptr@XU__crt_internal_free_policy@@@@QBE_NXZ 10031b40 f i libvcruntimed:std_type_info.obj
 0001:00030b70       ?release@?$__crt_unique_heap_ptr@DU__crt_internal_free_policy@@@@QAEXXZ 10031b70 f i libvcruntimed:std_type_info.obj
 0001:00030ba0       ?release@?$__crt_unique_heap_ptr@XU__crt_internal_free_policy@@@@QAEXXZ 10031ba0 f i libvcruntimed:std_type_info.obj
 0001:00030bd0       ___std_type_info_compare   10031bd0 f   libvcruntimed:std_type_info.obj
 0001:00030c00       ___std_type_info_destroy_list 10031c00 f   libvcruntimed:std_type_info.obj
 0001:00030c40       ___std_type_info_hash      10031c40 f   libvcruntimed:std_type_info.obj
 0001:00030ca0       ___std_type_info_name      10031ca0 f   libvcruntimed:std_type_info.obj
 0001:00030e80       ___vcrt_GetModuleFileNameW 10031e80 f   libvcruntimed:winapi_thunks.obj
 0001:00030ea0       ___vcrt_GetModuleHandleW   10031ea0 f   libvcruntimed:winapi_thunks.obj
 0001:00030eb0       ___vcrt_LoadLibraryExW     10031eb0 f   libvcruntimed:winapi_thunks.obj
 0001:00030ed0       ??$?RD@__crt_public_free_policy@@QBEXQBD@Z 10031ed0 f i libvcruntimed:std_exception.obj
 0001:00030ef0       ??0?$__crt_unique_heap_ptr@DU__crt_public_free_policy@@@@QAE@QAD@Z 10031ef0 f i libvcruntimed:std_exception.obj
 0001:00030f10       ??1?$__crt_unique_heap_ptr@DU__crt_public_free_policy@@@@QAE@XZ 10031f10 f i libvcruntimed:std_exception.obj
 0001:00030f30       ??B?$__crt_unique_heap_ptr@DU__crt_public_free_policy@@@@QBE_NXZ 10031f30 f i libvcruntimed:std_exception.obj
 0001:00030f50       ?detach@?$__crt_unique_heap_ptr@DU__crt_public_free_policy@@@@QAEPADXZ 10031f50 f i libvcruntimed:std_exception.obj
 0001:00030f80       ?get@?$__crt_unique_heap_ptr@DU__crt_public_free_policy@@@@QBEPADXZ 10031f80 f i libvcruntimed:std_exception.obj
 0001:00030f90       ?is_valid@?$__crt_unique_heap_ptr@DU__crt_public_free_policy@@@@QBE_NXZ 10031f90 f i libvcruntimed:std_exception.obj
 0001:00030fc0       ?release@?$__crt_unique_heap_ptr@DU__crt_public_free_policy@@@@QAEXXZ 10031fc0 f i libvcruntimed:std_exception.obj
 0001:00030ff0       ___std_exception_copy      10031ff0 f   libvcruntimed:std_exception.obj
 0001:000310e0       ___std_exception_destroy   100320e0 f   libvcruntimed:std_exception.obj
 0001:00031110       __CxxThrowException@8      10032110 f   libvcruntimed:throw.obj
 0001:000311c0       _memmove                   100321c0 f   libvcruntimed:memmove.obj
 0001:00031740       __local_unwind4            10032740 f   libvcruntimed:exsup4.obj
 0001:00031818       __seh_longjmp_unwind4@4    10032818 f   libvcruntimed:exsup4.obj
 0001:00031840       @_EH4_CallFilterFunc@8     10032840 f   libvcruntimed:exsup4.obj
 0001:00031858       @_EH4_TransferToHandler@8  10032858 f   libvcruntimed:exsup4.obj
 0001:00031874       @_EH4_GlobalUnwind2@8      10032874 f   libvcruntimed:exsup4.obj
 0001:00031890       @_EH4_LocalUnwind@16       10032890 f   libvcruntimed:exsup4.obj
 0001:000318c0       ___except_validate_context_record 100328c0 f   libvcruntimed:jbcxrval.obj
 0001:00031910       ___except_validate_jump_buffer 10032910 f   libvcruntimed:jbcxrval.obj
 0001:00031930       ___except_validate_jump_buffer_common 10032930 f i libvcruntimed:jbcxrval.obj
 0001:00031990       ??$?RU__vcrt_ptd@@@__crt_internal_free_policy@@QBEXQBU__vcrt_ptd@@@Z 10032990 f i libvcruntimed:per_thread_data.obj
 0001:000319b0       ??0?$__crt_unique_heap_ptr@U__vcrt_ptd@@U__crt_internal_free_policy@@@@QAE@QAU__vcrt_ptd@@@Z 100329b0 f i libvcruntimed:per_thread_data.obj
 0001:000319f0       ??1?$__crt_unique_heap_ptr@U__vcrt_ptd@@U__crt_internal_free_policy@@@@QAE@XZ 100329f0 f i libvcruntimed:per_thread_data.obj
 0001:00031a30       ??B?$__crt_unique_heap_ptr@U__vcrt_ptd@@U__crt_internal_free_policy@@@@QBE_NXZ 10032a30 f i libvcruntimed:per_thread_data.obj
 0001:00031a50       ?detach@?$__crt_unique_heap_ptr@U__vcrt_ptd@@U__crt_internal_free_policy@@@@QAEPAU__vcrt_ptd@@XZ 10032a50 f i libvcruntimed:per_thread_data.obj
 0001:00031a80       ?get@?$__crt_unique_heap_ptr@U__vcrt_ptd@@U__crt_internal_free_policy@@@@QBEPAU__vcrt_ptd@@XZ 10032a80 f i libvcruntimed:per_thread_data.obj
 0001:00031a90       ?is_valid@?$__crt_unique_heap_ptr@U__vcrt_ptd@@U__crt_internal_free_policy@@@@QBE_NXZ 10032a90 f i libvcruntimed:per_thread_data.obj
 0001:00031ac0       ?release@?$__crt_unique_heap_ptr@U__vcrt_ptd@@U__crt_internal_free_policy@@@@QAEXXZ 10032ac0 f i libvcruntimed:per_thread_data.obj
 0001:00031b20       ___vcrt_freefls@4          10032b20 f   libvcruntimed:per_thread_data.obj
 0001:00031b50       ___vcrt_freeptd            10032b50 f   libvcruntimed:per_thread_data.obj
 0001:00031bb0       ___vcrt_getptd             10032bb0 f   libvcruntimed:per_thread_data.obj
 0001:00031bd0       ___vcrt_getptd_noexit      10032bd0 f   libvcruntimed:per_thread_data.obj
 0001:00031d30       ___vcrt_getptd_noinit      10032d30 f   libvcruntimed:per_thread_data.obj
 0001:00031d90       ___vcrt_initialize_ptd     10032d90 f   libvcruntimed:per_thread_data.obj
 0001:00031de0       ___vcrt_uninitialize_ptd   10032de0 f   libvcruntimed:per_thread_data.obj
 0001:00031e10       ___vcrt_initialize_locks   10032e10 f   libvcruntimed:locks.obj
 0001:00031e70       ___vcrt_lock               10032e70 f   libvcruntimed:locks.obj
 0001:00031e90       ___vcrt_uninitialize_locks 10032e90 f   libvcruntimed:locks.obj
 0001:00031ee0       ___vcrt_unlock             10032ee0 f   libvcruntimed:locks.obj
 0001:00032a70       ??$TypeMatchHelper@V__FrameHandler3@@@@YAHPBU_s_HandlerType@@PBU_s_CatchableType@@PBU_s_ThrowInfo@@@Z 10033a70 f i libvcruntimed:frame.obj
 0001:00032b50       ??$__InternalCxxFrameHandler@V__FrameHandler3@@@@YA?AW4_EXCEPTION_DISPOSITION@@PAUEHExceptionRecord@@PAUEHRegistrationNode@@PAU_CONTEXT@@PAXPBU_s_FuncInfo@@H1E@Z 10033b50 f i libvcruntimed:frame.obj
 0001:00032d10       ??0HandlerMap@__FrameHandler3@@QAE@PBU_s_TryBlockMapEntry@@II@Z 10033d10 f i libvcruntimed:frame.obj
 0001:00032d40       ??0TryBlockMap@__FrameHandler3@@QAE@PBU_s_FuncInfo@@I@Z 10033d40 f i libvcruntimed:frame.obj
 0001:00032d70       ??0bad_exception@std@@QAE@ABV01@@Z 10033d70 f i libvcruntimed:frame.obj
 0001:00032da0       ??0bad_exception@std@@QAE@XZ 10033da0 f i libvcruntimed:frame.obj
 0001:00032dd0       ??0iterator@HandlerMap@__FrameHandler3@@QAE@AAV12@I@Z 10033dd0 f i libvcruntimed:frame.obj
 0001:00032e00       ??1bad_exception@std@@UAE@XZ 10033e00 f i libvcruntimed:frame.obj
 0001:00032e20       ??8iterator@HandlerMap@__FrameHandler3@@QBE_NABV012@@Z 10033e20 f i libvcruntimed:frame.obj
 0001:00032e50       ??8type_info@@QBE_NABV0@@Z 10033e50 f i libvcruntimed:frame.obj
 0001:00032e90       ??9iterator@HandlerMap@__FrameHandler3@@QBE_NABV012@@Z 10033e90 f i libvcruntimed:frame.obj
 0001:00032ed0       ??Diterator@HandlerMap@__FrameHandler3@@QAE?BU_s_HandlerType@@XZ 10033ed0 f i libvcruntimed:frame.obj
 0001:00032f10       ??Diterator@TryBlockMap@__FrameHandler3@@QAE?BU_s_TryBlockMapEntry@@XZ 10033f10 f i libvcruntimed:frame.obj
 0001:00032f60       ??Eiterator@HandlerMap@__FrameHandler3@@QAEAAV012@XZ 10033f60 f i libvcruntimed:frame.obj
 0001:00032f80       ??Eiterator@TryBlockMap@__FrameHandler3@@QAEAAV012@XZ 10033f80 f i libvcruntimed:frame.obj
 0001:00032fa0       ??Miterator@TryBlockMap@__FrameHandler3@@QBE_NABV012@@Z 10033fa0 f i libvcruntimed:frame.obj
 0001:00032fd0       ??_Ebad_exception@std@@UAEPAXI@Z 10033fd0 f i libvcruntimed:frame.obj
 0001:00032fd0       ??_Gbad_exception@std@@UAEPAXI@Z 10033fd0 f i libvcruntimed:frame.obj
 0001:00033000       ?BuildCatchObject@__FrameHandler3@@SAXPAUEHExceptionRecord@@PAXPBU_s_HandlerType@@PBU_s_CatchableType@@@Z 10034000 f   libvcruntimed:frame.obj
 0001:00033020       ?BuildCatchObjectHelper@__FrameHandler3@@SAHPAUEHExceptionRecord@@PAXPBU_s_HandlerType@@PBU_s_CatchableType@@@Z 10034020 f   libvcruntimed:frame.obj
 0001:000333c0       ?FrameUnwindToEmptyState@__FrameHandler3@@SAXPAUEHRegistrationNode@@PAXPBU_s_FuncInfo@@@Z 100343c0 f   libvcruntimed:frame.obj
 0001:000333e0       ?FrameUnwindToState@__FrameHandler3@@SAXPAUEHRegistrationNode@@PAXPBU_s_FuncInfo@@H@Z 100343e0 f   libvcruntimed:frame.obj
 0001:00033560       ?GetMaxState@__FrameHandler3@@SAHPAXPBU_s_FuncInfo@@@Z 10034560 f i libvcruntimed:frame.obj
 0001:00033680       ?TypeMatch@__FrameHandler3@@SAHPBU_s_HandlerType@@PBU_s_CatchableType@@PBU_s_ThrowInfo@@@Z 10034680 f   libvcruntimed:frame.obj
 0001:000336a0       ?_CallMemberFunction1@@YGXQAX00@Z 100346a0 f i libvcruntimed:frame.obj
 0001:000336d0       ?_CallMemberFunction2@@YGXQAX00H@Z 100346d0 f i libvcruntimed:frame.obj
 0001:00033700       ?begin@HandlerMap@__FrameHandler3@@QAE?AViterator@12@XZ 10034700 f i libvcruntimed:frame.obj
 0001:00033720       ?end@HandlerMap@__FrameHandler3@@QAE?AViterator@12@XZ 10034720 f i libvcruntimed:frame.obj
 0001:00033750       ?getESTypes@__FrameHandler3@@SAPBU_s_ESTypeList@@PBU_s_FuncInfo@@@Z 10034750 f i libvcruntimed:frame.obj
 0001:00033760       ?getLastEntry@HandlerMap@__FrameHandler3@@QAEPBU_s_HandlerType@@XZ 10034760 f i libvcruntimed:frame.obj
 0001:00033780       ?getMagicNum@__FrameHandler3@@SAIPBU_s_FuncInfo@@@Z 10034780 f i libvcruntimed:frame.obj
 0001:00033790       ?getNumTryBlocks@TryBlockMap@__FrameHandler3@@QAEIXZ 10034790 f i libvcruntimed:frame.obj
 0001:000337b0       ?isEHs@__FrameHandler3@@SA_NPBU_s_FuncInfo@@@Z 100347b0 f i libvcruntimed:frame.obj
 0001:000337e0       ?isNoExcept@__FrameHandler3@@SA_NPBU_s_FuncInfo@@@Z 100347e0 f i libvcruntimed:frame.obj
 0001:00033810       ___BuildCatchObject        10034810 f   libvcruntimed:frame.obj
 0001:00033830       ___BuildCatchObjectHelper  10034830 f   libvcruntimed:frame.obj
 0001:00033850       ___TypeMatch               10034850 f   libvcruntimed:frame.obj
 0001:00033870       ___vcrt_EncodePointer      10034870 f i libvcruntimed:frame.obj
 0001:00033880       __CallSettingFrame@12      10034880 f   libvcruntimed:lowhelpr.obj
 0001:000338a7       __NLG_Return               100348a7     libvcruntimed:lowhelpr.obj
 0001:000338d0       ??$?0$00@DName@@QAE@PBDU?$StringLifeSelector@$00@@@Z 100348d0 f i libvcruntimed:undname.obj
 0001:00033920       ??$?0$00@pcharNode@@QAE@PBDHU?$StringLifeSelector@$00@@@Z 10034920 f i libvcruntimed:undname.obj
 0001:00033960       ??$?0$01@DName@@QAE@PBDU?$StringLifeSelector@$01@@@Z 10034960 f i libvcruntimed:undname.obj
 0001:000339b0       ??$?0$01@pcharNode@@QAE@PBDHU?$StringLifeSelector@$01@@@Z 100349b0 f i libvcruntimed:undname.obj
 0001:00033a30       ??$?0$0A@@DName@@QAE@PBDU?$StringLifeSelector@$0A@@@@Z 10034a30 f i libvcruntimed:undname.obj
 0001:00033a80       ??$?0$0A@@pcharNode@@QAE@PBDHU?$StringLifeSelector@$0A@@@@Z 10034a80 f i libvcruntimed:undname.obj
 0001:00033b00       ??$?0_K$0A@@?$optional@_K@std@@QAE@$$QA_K@Z 10034b00 f i libvcruntimed:undname.obj
 0001:00033b40       ??$?0_K@?$_Optional_construct_base@_K@std@@QAE@Uin_place_t@1@$$QA_K@Z 10034b40 f i libvcruntimed:undname.obj
 0001:00033b70       ??$?0_K@?$_Optional_destruct_base@_K$00@std@@QAE@Uin_place_t@1@$$QA_K@Z 10034b70 f i libvcruntimed:undname.obj
 0001:00033ba0       ??$append@VDNameNode@@@DName@@AAEXPBVDNameNode@@@Z 10034ba0 f i libvcruntimed:undname.obj
 0001:00033c30       ??$append@VDNameStatusNode@@@DName@@AAEXPBVDNameStatusNode@@@Z 10034c30 f i libvcruntimed:undname.obj
 0001:00033cc0       ??$append@VcharNode@@@DName@@AAEXPBVcharNode@@@Z 10034cc0 f i libvcruntimed:undname.obj
 0001:00033d50       ??$append@VpDNameNode@@@DName@@AAEXPBVpDNameNode@@@Z 10034d50 f i libvcruntimed:undname.obj
 0001:00033de0       ??$append@VpcharNode@@@DName@@AAEXPBVpcharNode@@@Z 10034de0 f i libvcruntimed:undname.obj
 0001:00033e70       ??$doPchar@$00@DName@@AAEXPBDH@Z 10034e70 f i libvcruntimed:undname.obj
 0001:00033f80       ??$doPchar@$01@DName@@AAEXPBDH@Z 10034f80 f i libvcruntimed:undname.obj
 0001:00034090       ??$doPchar@$0A@@DName@@AAEXPBDH@Z 10035090 f i libvcruntimed:undname.obj
 0001:000341a0       ??$forward@_K@std@@YA$$QA_KAA_K@Z 100351a0 f i libvcruntimed:undname.obj
 0001:000341b0       ??$size@D$04@std@@YAIAAY04$$CBD@Z 100351b0 f i libvcruntimed:undname.obj
 0001:000341c0       ??$size@D$0EB@@std@@YAIAAY0EB@$$CBD@Z 100351c0 f i libvcruntimed:undname.obj
 0001:000341d0       ??0?$_Optional_construct_base@_K@std@@QAE@XZ 100351d0 f i libvcruntimed:undname.obj
 0001:000341f0       ??0?$_Optional_destruct_base@_K$00@std@@QAE@XZ 100351f0 f i libvcruntimed:undname.obj
 0001:00034210       ??0?$optional@_K@std@@QAE@XZ 10035210 f i libvcruntimed:undname.obj
 0001:00034240       ??0Block@_HeapManager@@QAE@XZ 10035240 f i libvcruntimed:undname.obj
 0001:00034260       ??0DName@@QAE@AAPBDD@Z     10035260 f   libvcruntimed:undname.obj
 0001:000343d0       ??0DName@@QAE@ABUStringLiteral@@@Z 100353d0 f   libvcruntimed:undname.obj
 0001:00034420       ??0DName@@QAE@ABV0@@Z      10035420 f i libvcruntimed:undname.obj
 0001:00034450       ??0DName@@QAE@D@Z          10035450 f   libvcruntimed:undname.obj
 0001:00034480       ??0DName@@QAE@PAV0@@Z      10035480 f   libvcruntimed:undname.obj
 0001:00034530       ??0DName@@QAE@W4DNameStatus@@@Z 10035530 f   libvcruntimed:undname.obj
 0001:000345d0       ??0DName@@QAE@XZ           100355d0 f i libvcruntimed:undname.obj
 0001:00034600       ??0DName@@QAE@_J@Z         10035600 f   libvcruntimed:undname.obj
 0001:000346f0       ??0DName@@QAE@_K@Z         100356f0 f   libvcruntimed:undname.obj
 0001:000347a0       ??0DNameNode@@IAE@XZ       100357a0 f i libvcruntimed:undname.obj
 0001:000347c0       ??0Replicator@@QAE@XZ      100357c0 f i libvcruntimed:undname.obj
 0001:00034800       ??0UnDecorator@@QAE@PBDP6APADJ@ZK@Z 10035800 f i libvcruntimed:undname.obj
 0001:00034880       ??0charNode@@QAE@D@Z       10035880 f i libvcruntimed:undname.obj
 0001:000348b0       ??0pDNameNode@@QAE@PAVDName@@@Z 100358b0 f   libvcruntimed:undname.obj
 0001:00034910       ??0pairNode@@QAE@PBVDNameNode@@0@Z 10035910 f i libvcruntimed:undname.obj
 0001:00034970       ??2@YAPAXIAAV_HeapManager@@H@Z 10035970 f   libvcruntimed:undname.obj
 0001:000349b0       ??4DName@@QAEAAV0@ABUStringLiteral@@@Z 100359b0 f   libvcruntimed:undname.obj
 0001:000349f0       ??4DName@@QAEAAV0@ABV0@@Z  100359f0 f   libvcruntimed:undname.obj
 0001:00034a20       ??4DName@@QAEAAV0@D@Z      10035a20 f i libvcruntimed:undname.obj
 0001:00034a50       ??4DName@@QAEAAV0@PAV0@@Z  10035a50 f   libvcruntimed:undname.obj
 0001:00034af0       ??4DName@@QAEAAV0@W4DNameStatus@@@Z 10035af0 f   libvcruntimed:undname.obj
 0001:00034b70       ??AReplicator@@QBE?AVDName@@H@Z 10035b70 f   libvcruntimed:undname.obj
 0001:00034be0       ??B?$optional@_K@std@@QBE_NXZ 10035be0 f i libvcruntimed:undname.obj
 0001:00034c00       ??D?$optional@_K@std@@QGAEAA_KXZ 10035c00 f i libvcruntimed:undname.obj
 0001:00034c10       ??H@YA?AVDName@@ABUStringLiteral@@ABV0@@Z 10035c10 f i libvcruntimed:undname.obj
 0001:00034c40       ??H@YA?AVDName@@DABV0@@Z   10035c40 f i libvcruntimed:undname.obj
 0001:00034c70       ??H@YA?AVDName@@W4DNameStatus@@ABV0@@Z 10035c70 f i libvcruntimed:undname.obj
 0001:00034ca0       ??HDName@@QBE?AV0@ABUStringLiteral@@@Z 10035ca0 f   libvcruntimed:undname.obj
 0001:00034ce0       ??HDName@@QBE?AV0@ABV0@@Z  10035ce0 f   libvcruntimed:undname.obj
 0001:00034d20       ??HDName@@QBE?AV0@D@Z      10035d20 f   libvcruntimed:undname.obj
 0001:00034d60       ??HDName@@QBE?AV0@PAV0@@Z  10035d60 f   libvcruntimed:undname.obj
 0001:00034da0       ??HDName@@QBE?AV0@W4DNameStatus@@@Z 10035da0 f   libvcruntimed:undname.obj
 0001:00034de0       ??HStringLiteral@@QBE?AU0@H@Z 10035de0 f i libvcruntimed:undname.obj
 0001:00034e10       ??YDName@@QAEAAV0@ABUStringLiteral@@@Z 10035e10 f   libvcruntimed:undname.obj
 0001:00034eb0       ??YDName@@QAEAAV0@ABV0@@Z  10035eb0 f   libvcruntimed:undname.obj
 0001:00034f50       ??YDName@@QAEAAV0@D@Z      10035f50 f   libvcruntimed:undname.obj
 0001:00034fd0       ??YDName@@QAEAAV0@PAV0@@Z  10035fd0 f   libvcruntimed:undname.obj
 0001:00035080       ??YDName@@QAEAAV0@W4DNameStatus@@@Z 10036080 f   libvcruntimed:undname.obj
 0001:000350e0       ??YReplicator@@QAEAAV0@ABVDName@@@Z 100360e0 f   libvcruntimed:undname.obj
 0001:00035170       ??_5DName@@QAEAAV0@ABV0@@Z 10036170 f   libvcruntimed:undname.obj
 0001:000351d0       ??__K_l@@YA?AUStringLiteral@@PBDI@Z 100361d0 f i libvcruntimed:undname.obj
 0001:000351f0       ?Constructor@_HeapManager@@QAEXP6APAXI@ZP6AXPAX@Z@Z 100361f0 f i libvcruntimed:undname.obj
 0001:00035230       ?Destructor@_HeapManager@@QAEXXZ 10036230 f i libvcruntimed:undname.obj
 0001:000352a0       ?UScore@UnDecorator@@SA?AUStringLiteral@@W4Tokens@@@Z 100362a0 f   libvcruntimed:undname.obj
 0001:000352f0       ?composeDeclaration@UnDecorator@@CA?AVDName@@ABV2@@Z 100362f0 f i libvcruntimed:undname.obj
 0001:00037260       ?dbGetString@DName@@QBEPADXZ 10038260 f   libvcruntimed:undname.obj
 0001:00037280       ?doAccessSpecifiers@UnDecorator@@SAHXZ 10038280 f i libvcruntimed:undname.obj
 0001:000372b0       ?doAllocationLanguage@UnDecorator@@SAHXZ 100382b0 f i libvcruntimed:undname.obj
 0001:000372e0       ?doAllocationModel@UnDecorator@@SAHXZ 100382e0 f i libvcruntimed:undname.obj
 0001:00037310       ?doEcsu@UnDecorator@@SAHXZ 10038310 f i libvcruntimed:undname.obj
 0001:00037340       ?doEllipsis@UnDecorator@@SAHXZ 10038340 f i libvcruntimed:undname.obj
 0001:00037370       ?doFunctionReturns@UnDecorator@@SAHXZ 10038370 f i libvcruntimed:undname.obj
 0001:000373a0       ?doMSKeywords@UnDecorator@@SAHXZ 100383a0 f i libvcruntimed:undname.obj
 0001:000373d0       ?doMemberTypes@UnDecorator@@SAHXZ 100383d0 f i libvcruntimed:undname.obj
 0001:00037400       ?doNameOnly@UnDecorator@@SAHXZ 10038400 f i libvcruntimed:undname.obj
 0001:00037410       ?doNoIdentCharCheck@UnDecorator@@SAHXZ 10038410 f i libvcruntimed:undname.obj
 0001:00037420       ?doPchar@DName@@AAEXD@Z    10038420 f   libvcruntimed:undname.obj
 0001:00037490       ?doPtr64@UnDecorator@@SAHXZ 10038490 f i libvcruntimed:undname.obj
 0001:000374c0       ?doRestrictionSpec@UnDecorator@@SAHXZ 100384c0 f i libvcruntimed:undname.obj
 0001:000374f0       ?doThisTypes@UnDecorator@@SAHXZ 100384f0 f i libvcruntimed:undname.obj
 0001:00037520       ?doThrowTypes@UnDecorator@@SAHXZ 10038520 f i libvcruntimed:undname.obj
 0001:00037550       ?doTypeOnly@UnDecorator@@SAHXZ 10038550 f i libvcruntimed:undname.obj
 0001:00037560       ?doUnderScore@UnDecorator@@SAHXZ 10038560 f i libvcruntimed:undname.obj
 0001:00037590       ?getArgumentList@UnDecorator@@CA?AVDName@@XZ 10038590 f   libvcruntimed:undname.obj
 0001:000376e0       ?getArgumentTypes@UnDecorator@@CA?AVDName@@XZ 100386e0 f   libvcruntimed:undname.obj
 0001:000378f0       ?getArrayObject@UnDecorator@@CA?AVDName@@XZ 100388f0 f   libvcruntimed:undname.obj
 0001:000379d0       ?getArrayType@UnDecorator@@CA?AVDName@@ABV2@@Z 100389d0 f i libvcruntimed:undname.obj
 0001:00037c70       ?getBasedType@UnDecorator@@CA?AVDName@@XZ 10038c70 f   libvcruntimed:undname.obj
 0001:00037d60       ?getBasicDataType@UnDecorator@@CA?AVDName@@ABV2@@Z 10038d60 f   libvcruntimed:undname.obj
 0001:00038670       ?getCHPEName@UnDecorator@@QAEPADPADH@Z 10039670 f i libvcruntimed:undname.obj
 0001:000387d0       ?getCallIndex@UnDecorator@@CA?AVDName@@XZ 100397d0 f i libvcruntimed:undname.obj
 0001:000387f0       ?getCallingConvention@UnDecorator@@CA?AVDName@@XZ 100397f0 f   libvcruntimed:undname.obj
 0001:00038a30       ?getDataIndirectType@UnDecorator@@CA?AVDName@@ABV2@W4IndirectionKind@@0H@Z 10039a30 f   libvcruntimed:undname.obj
 0001:00039350       ?getDataIndirectType@UnDecorator@@CA?AVDName@@XZ 1003a350 f i libvcruntimed:undname.obj
 0001:00039390       ?getDataType@UnDecorator@@CA?AVDName@@PAV2@@Z 1003a390 f   libvcruntimed:undname.obj
 0001:000394d0       ?getDecoratedName@UnDecorator@@CA?AVDName@@XZ 1003a4d0 f   libvcruntimed:undname.obj
 0001:00039910       ?getDimension@UnDecorator@@CA?AVDName@@_N@Z 1003a910 f   libvcruntimed:undname.obj
 0001:00039b70       ?getDispatchTarget@UnDecorator@@CA?AVDName@@XZ 1003ab70 f   libvcruntimed:undname.obj
 0001:00039c10       ?getDisplacement@UnDecorator@@CA?AVDName@@XZ 1003ac10 f i libvcruntimed:undname.obj
 0001:00039c30       ?getECSUDataType@UnDecorator@@CA?AVDName@@XZ 1003ac30 f   libvcruntimed:undname.obj
 0001:00039e90       ?getECSUName@UnDecorator@@CA?AVDName@@XZ 1003ae90 f i libvcruntimed:undname.obj
 0001:00039eb0       ?getEnumType@UnDecorator@@CA?AVDName@@XZ 1003aeb0 f i libvcruntimed:undname.obj
 0001:0003a060       ?getExtendedDataIndirectType@UnDecorator@@CA?AVDName@@AAW4IndirectionKind@@AA_NH@Z 1003b060 f   libvcruntimed:undname.obj
 0001:0003a2b0       ?getExternalDataType@UnDecorator@@CA?AVDName@@ABV2@@Z 1003b2b0 f i libvcruntimed:undname.obj
 0001:0003a350       ?getFloatingPoint@UnDecorator@@CA?AVDName@@H@Z 1003b350 f   libvcruntimed:undname.obj
 0001:0003a500       ?getFunctionIndirectType@UnDecorator@@CA?AVDName@@ABV2@@Z 1003b500 f   libvcruntimed:undname.obj
 0001:0003a9e0       ?getGuardNumber@UnDecorator@@CA?AVDName@@XZ 1003b9e0 f i libvcruntimed:undname.obj
 0001:0003aa00       ?getLastChar@DName@@QBEDXZ 1003ba00 f i libvcruntimed:undname.obj
 0001:0003aa40       ?getLastChar@DNameStatusNode@@UBEDXZ 1003ba40 f i libvcruntimed:undname.obj
 0001:0003aa70       ?getLastChar@charNode@@UBEDXZ 1003ba70 f i libvcruntimed:undname.obj
 0001:0003aa90       ?getLastChar@pDNameNode@@UBEDXZ 1003ba90 f i libvcruntimed:undname.obj
 0001:0003aac0       ?getLastChar@pairNode@@UBEDXZ 1003bac0 f i libvcruntimed:undname.obj
 0001:0003ab30       ?getLastChar@pcharNode@@UBEDXZ 1003bb30 f i libvcruntimed:undname.obj
 0001:0003ab70       ?getLexicalFrame@UnDecorator@@CA?AVDName@@XZ 1003bb70 f i libvcruntimed:undname.obj
 0001:0003abb0       ?getMemoryWithBuffer@_HeapManager@@QAEPAXI@Z 1003bbb0 f   libvcruntimed:undname.obj
 0001:0003aca0       ?getMemoryWithoutBuffer@_HeapManager@@QAEPAXI@Z 1003bca0 f   libvcruntimed:undname.obj
 0001:0003ace0       ?getNoexcept@UnDecorator@@CA?AVDName@@XZ 1003bce0 f   libvcruntimed:undname.obj
 0001:0003ad60       ?getNumberOfDimensions@UnDecorator@@CAHXZ 1003bd60 f   libvcruntimed:undname.obj
 0001:0003ae60       ?getOperatorName@UnDecorator@@CA?AVDName@@_NPA_N@Z 1003be60 f i libvcruntimed:undname.obj
 0001:0003b950       ?getPointerType@UnDecorator@@CA?AVDName@@ABV2@0@Z 1003c950 f i libvcruntimed:undname.obj
 0001:0003b970       ?getPointerTypeArray@UnDecorator@@CA?AVDName@@ABV2@0@Z 1003c970 f i libvcruntimed:undname.obj
 0001:0003b990       ?getPrimaryDataType@UnDecorator@@CA?AVDName@@ABV2@@Z 1003c990 f   libvcruntimed:undname.obj
 0001:0003be00       ?getPtrRefDataType@UnDecorator@@CA?AVDName@@ABV2@H@Z 1003ce00 f   libvcruntimed:undname.obj
 0001:0003c0b0       ?getPtrRefType@UnDecorator@@CA?AVDName@@ABV2@0W4IndirectionKind@@@Z 1003d0b0 f   libvcruntimed:undname.obj
 0001:0003c230       ?getReferenceType@UnDecorator@@CA?AVDName@@ABV2@0W4IndirectionKind@@@Z 1003d230 f i libvcruntimed:undname.obj
 0001:0003c250       ?getRestrictionSpec@UnDecorator@@CA?AVDName@@XZ 1003d250 f   libvcruntimed:undname.obj
 0001:0003c410       ?getReturnType@UnDecorator@@CA?AVDName@@PAV2@@Z 1003d410 f   libvcruntimed:undname.obj
 0001:0003c460       ?getScope@UnDecorator@@CA?AVDName@@XZ 1003d460 f   libvcruntimed:undname.obj
 0001:0003c9f0       ?getScopedName@UnDecorator@@CA?AVDName@@XZ 1003d9f0 f   libvcruntimed:undname.obj
 0001:0003cb40       ?getSignedDimension@UnDecorator@@CA?AVDName@@XZ 1003db40 f   libvcruntimed:undname.obj
 0001:0003cbc0       ?getStorageConvention@UnDecorator@@CA?AVDName@@XZ 1003dbc0 f i libvcruntimed:undname.obj
 0001:0003cbe0       ?getString@DName@@QBEPADPAD0@Z 1003dbe0 f i libvcruntimed:undname.obj
 0001:0003cc40       ?getString@DName@@QBEPADPADH@Z 1003dc40 f i libvcruntimed:undname.obj
 0001:0003ccd0       ?getString@DNameStatusNode@@UBEPADPAD0@Z 1003dcd0 f i libvcruntimed:undname.obj
 0001:0003cd10       ?getString@charNode@@UBEPADPAD0@Z 1003dd10 f i libvcruntimed:undname.obj
 0001:0003cd40       ?getString@pDNameNode@@UBEPADPAD0@Z 1003dd40 f i libvcruntimed:undname.obj
 0001:0003cd80       ?getString@pairNode@@UBEPADPAD0@Z 1003dd80 f i libvcruntimed:undname.obj
 0001:0003ce10       ?getString@pcharNode@@UBEPADPAD0@Z 1003de10 f i libvcruntimed:undname.obj
 0001:0003ce40       ?getStringEncoding@UnDecorator@@CA?AVDName@@W4PrefixKind@@H@Z 1003de40 f   libvcruntimed:undname.obj
 0001:0003cf50       ?getStringHelper@@YAPADPADPBD1H@Z 1003df50 f i libvcruntimed:undname.obj
 0001:0003cf90       ?getStringObject@UnDecorator@@CA?AVDName@@XZ 1003df90 f   libvcruntimed:undname.obj
 0001:0003d040       ?getSymbolName@UnDecorator@@CA?AVDName@@XZ 1003e040 f i libvcruntimed:undname.obj
 0001:0003d0d0       ?getTemplateArgumentList@UnDecorator@@CA?AVDName@@XZ 1003e0d0 f   libvcruntimed:undname.obj
 0001:0003d3a0       ?getTemplateName@UnDecorator@@CA?AVDName@@_N@Z 1003e3a0 f   libvcruntimed:undname.obj
 0001:0003d560       ?getTemplateNonTypeArgument@UnDecorator@@CA?AVDName@@XZ 1003e560 f   libvcruntimed:undname.obj
 0001:0003da80       ?getTemplateTypeArgument@UnDecorator@@CA?AVDName@@XZ 1003ea80 f   libvcruntimed:undname.obj
 0001:0003dc20       ?getThisType@UnDecorator@@CA?AVDName@@XZ 1003ec20 f i libvcruntimed:undname.obj
 0001:0003dc60       ?getThrowTypes@UnDecorator@@CA?AVDName@@XZ 1003ec60 f   libvcruntimed:undname.obj
 0001:0003dca0       ?getTypeEncoding@UnDecorator@@CAHXZ 1003eca0 f i libvcruntimed:undname.obj
 0001:0003e760       ?getUndecoratedName@UnDecorator@@QAEPADPADH@Z 1003f760 f i libvcruntimed:undname.obj
 0001:0003e8c0       ?getVCallThunkType@UnDecorator@@CA?AVDName@@XZ 1003f8c0 f i libvcruntimed:undname.obj
 0001:0003e940       ?getValue@UnDecorator@@CA?AV?$optional@_K@std@@XZ 1003f940 f   libvcruntimed:undname.obj
 0001:0003ea00       ?getValueObject@UnDecorator@@CA?AVDName@@XZ 1003fa00 f   libvcruntimed:undname.obj
 0001:0003eb70       ?getVbTableType@UnDecorator@@CA?AVDName@@ABV2@@Z 1003fb70 f i libvcruntimed:undname.obj
 0001:0003eb90       ?getVdispMapType@UnDecorator@@CA?AVDName@@ABV2@@Z 1003fb90 f i libvcruntimed:undname.obj
 0001:0003ec20       ?getVfTableType@UnDecorator@@CA?AVDName@@ABV2@@Z 1003fc20 f i libvcruntimed:undname.obj
 0001:0003ee20       ?getZName@UnDecorator@@CA?AVDName@@_N0@Z 1003fe20 f   libvcruntimed:undname.obj
 0001:0003f160       ?haveTemplateParameters@UnDecorator@@SAHXZ 10040160 f i libvcruntimed:undname.obj
 0001:0003f170       ?isArray@DName@@QBEHXZ     10040170 f i libvcruntimed:undname.obj
 0001:0003f190       ?isComArray@DName@@QBEHXZ  10040190 f i libvcruntimed:undname.obj
 0001:0003f1b0       ?isEmpty@DName@@QBEHXZ     100401b0 f i libvcruntimed:undname.obj
 0001:0003f1e0       ?isFull@Replicator@@QBEHXZ 100401e0 f i libvcruntimed:undname.obj
 0001:0003f210       ?isNoTE@DName@@QBEHXZ      10040210 f i libvcruntimed:undname.obj
 0001:0003f230       ?isPinPtr@DName@@QBEHXZ    10040230 f i libvcruntimed:undname.obj
 0001:0003f250       ?isPtrRef@DName@@QBEHXZ    10040250 f i libvcruntimed:undname.obj
 0001:0003f270       ?isUDC@DName@@QBEHXZ       10040270 f i libvcruntimed:undname.obj
 0001:0003f2b0       ?isUDTThunk@DName@@QBEHXZ  100402b0 f i libvcruntimed:undname.obj
 0001:0003f2f0       ?isVCallThunk@DName@@QBEHXZ 100402f0 f i libvcruntimed:undname.obj
 0001:0003f310       ?isValid@DName@@QBEHXZ     10040310 f i libvcruntimed:undname.obj
 0001:0003f350       ?length@DName@@QBEHXZ      10040350 f i libvcruntimed:undname.obj
 0001:0003f390       ?length@DNameStatusNode@@UBEHXZ 10040390 f i libvcruntimed:undname.obj
 0001:0003f3b0       ?length@charNode@@UBEHXZ   100403b0 f i libvcruntimed:undname.obj
 0001:0003f3c0       ?length@pDNameNode@@UBEHXZ 100403c0 f i libvcruntimed:undname.obj
 0001:0003f3f0       ?length@pairNode@@UBEHXZ   100403f0 f i libvcruntimed:undname.obj
 0001:0003f460       ?length@pcharNode@@UBEHXZ  10040460 f i libvcruntimed:undname.obj
 0001:0003f480       ?make@DNameStatusNode@@SAPBV1@W4DNameStatus@@@Z 10040480 f i libvcruntimed:undname.obj
 0001:0003f4b0       ?parseDecoratedName@UnDecorator@@CA?AVDName@@XZ 100404b0 f   libvcruntimed:undname.obj
 0001:0003f640       ?raw_length@DNameStatusNode@@UBEHXZ 10040640 f i libvcruntimed:undname.obj
 0001:0003f660       ?raw_length@charNode@@UBEHXZ 10040660 f i libvcruntimed:undname.obj
 0001:0003f680       ?raw_length@pDNameNode@@UBEHXZ 10040680 f i libvcruntimed:undname.obj
 0001:0003f690       ?raw_length@pairNode@@UBEHXZ 10040690 f i libvcruntimed:undname.obj
 0001:0003f6b0       ?raw_length@pcharNode@@UBEHXZ 100406b0 f i libvcruntimed:undname.obj
 0001:0003f6d0       ?setIsArray@DName@@QAEXXZ  100406d0 f i libvcruntimed:undname.obj
 0001:0003f6f0       ?setIsComArray@DName@@QAEXXZ 100406f0 f i libvcruntimed:undname.obj
 0001:0003f710       ?setIsNoTE@DName@@QAEXXZ   10040710 f i libvcruntimed:undname.obj
 0001:0003f730       ?setIsPinPtr@DName@@QAEXXZ 10040730 f i libvcruntimed:undname.obj
 0001:0003f750       ?setIsUDC@DName@@QAEXXZ    10040750 f i libvcruntimed:undname.obj
 0001:0003f780       ?setIsVCallThunk@DName@@QAEXXZ 10040780 f i libvcruntimed:undname.obj
 0001:0003f7a0       ?setPtrRef@DName@@QAEAAV1@XZ 100407a0 f i libvcruntimed:undname.obj
 0001:0003f7c0       ?status@DName@@QBE?AW4DNameStatus@@XZ 100407c0 f i libvcruntimed:undname.obj
 0001:0003f8c0       ___unDName                 100408c0 f   libvcruntimed:undname.obj
 0001:0003f8f0       ___unDNameEx               100408f0 f   libvcruntimed:undname.obj
 0001:0003f9c0       _unDNameGenerateCHPE       100409c0 f   libvcruntimed:undname.obj
 0001:0003fa20       __global_unwind2           10040a20 f   libvcruntimed:exsup.obj
 0001:0003fa86       __local_unwind2            10040a86 f   libvcruntimed:exsup.obj
 0001:0003fb0a       __abnormal_termination     10040b0a f   libvcruntimed:exsup.obj
 0001:0003fb30       __NLG_Notify1              10040b30 f   libvcruntimed:exsup.obj
 0001:0003fb3c       __NLG_Notify               10040b3c f   libvcruntimed:exsup.obj
 0001:0003fb53       __NLG_Dispatch             10040b53     libvcruntimed:exsup.obj
 0001:0003fb53       __NLG_Dispatch2            10040b53     libvcruntimed:exsup.obj
 0001:0003fb5b       __NLG_Call                 10040b5b f   libvcruntimed:exsup.obj
 0001:0003fb5d       __NLG_Return2              10040b5d     libvcruntimed:exsup.obj
 0001:0003fb60       ??$__crt_interlocked_exchange_pointer@UHINSTANCE__@@PAU1@@@YAPAUHINSTANCE__@@PDSAU0@QAU0@@Z 10040b60 f i libvcruntimed:winapi_downlevel.obj
 0001:0003fb70       ??$__crt_interlocked_exchange_pointer@UHINSTANCE__@@PAX@@YAPAUHINSTANCE__@@PDSAU0@QAX@Z 10040b70 f i libvcruntimed:winapi_downlevel.obj
 0001:0003fb80       ??$__crt_interlocked_exchange_pointer@XPAX@@YAPAXPDSAXQAX@Z 10040b80 f i libvcruntimed:winapi_downlevel.obj
 0001:0003fb90       ??$__crt_interlocked_read_pointer@UHINSTANCE__@@@@YAPAUHINSTANCE__@@PDSAU0@@Z 10040b90 f i libvcruntimed:winapi_downlevel.obj
 0001:0003fbb0       ??$__crt_interlocked_read_pointer@X@@YAPAXPDSAX@Z 10040bb0 f i libvcruntimed:winapi_downlevel.obj
 0001:0003ff80       ___vcrt_FlsAlloc           10040f80 f   libvcruntimed:winapi_downlevel.obj
 0001:0003ffc0       ___vcrt_FlsFree            10040fc0 f   libvcruntimed:winapi_downlevel.obj
 0001:00040000       ___vcrt_FlsGetValue        10041000 f   libvcruntimed:winapi_downlevel.obj
 0001:00040040       ___vcrt_FlsSetValue        10041040 f   libvcruntimed:winapi_downlevel.obj
 0001:00040090       ___vcrt_InitializeCriticalSectionEx 10041090 f   libvcruntimed:winapi_downlevel.obj
 0001:00040110       __get_unexpected           10041110 f   libvcruntimed:unexpected.obj
 0001:00040130       _set_unexpected            10041130 f   libvcruntimed:unexpected.obj
 0001:00040160       _unexpected                10041160 f   libvcruntimed:unexpected.obj
 0001:000401a0       ?GetCurrentState@__FrameHandler3@@SAHPAUEHRegistrationNode@@PAXPBU_s_FuncInfo@@@Z 100411a0 f   libvcruntimed:ehstate.obj
 0001:000401d0       ?SetState@__FrameHandler3@@SAXPAUEHRegistrationNode@@PBU_s_FuncInfo@@H@Z 100411d0 f   libvcruntimed:ehstate.obj
 0001:000401e0       ??$?0ABV?$stream_output_adapter@D@__crt_stdio_output@@AB_KABQBDABQAU__crt_locale_pointers@@ABQAD@?$format_validation_base@DV?$stream_output_adapter@D@__crt_stdio_output@@@__crt_stdio_output@@IAE@ABV?$stream_output_adapter@D@1@AB_KABQBDABQAU__crt_locale_pointers@@ABQAD@Z 100411e0 f i libucrtd:output.obj
 0001:00040210       ??$?0ABV?$stream_output_adapter@D@__crt_stdio_output@@AB_KABQBDABQAU__crt_locale_pointers@@ABQAD@?$positional_parameter_base@DV?$stream_output_adapter@D@__crt_stdio_output@@@__crt_stdio_output@@IAE@ABV?$stream_output_adapter@D@1@AB_KABQBDABQAU__crt_locale_pointers@@ABQAD@Z 10041210 f i libucrtd:output.obj
 0001:00040290       ??$?0ABV?$stream_output_adapter@D@__crt_stdio_output@@AB_KABQBDABQAU__crt_locale_pointers@@ABQAD@?$standard_base@DV?$stream_output_adapter@D@__crt_stdio_output@@@__crt_stdio_output@@IAE@ABV?$stream_output_adapter@D@1@AB_KABQBDABQAU__crt_locale_pointers@@ABQAD@Z 10041290 f i libucrtd:output.obj
 0001:000402e0       ??$?0ABV?$stream_output_adapter@_W@__crt_stdio_output@@AB_KABQB_WABQAU__crt_locale_pointers@@ABQAD@?$format_validation_base@_WV?$stream_output_adapter@_W@__crt_stdio_output@@@__crt_stdio_output@@IAE@ABV?$stream_output_adapter@_W@1@AB_KABQB_WABQAU__crt_locale_pointers@@ABQAD@Z 100412e0 f i libucrtd:output.obj
 0001:00040310       ??$?0ABV?$stream_output_adapter@_W@__crt_stdio_output@@AB_KABQB_WABQAU__crt_locale_pointers@@ABQAD@?$positional_parameter_base@_WV?$stream_output_adapter@_W@__crt_stdio_output@@@__crt_stdio_output@@IAE@ABV?$stream_output_adapter@_W@1@AB_KABQB_WABQAU__crt_locale_pointers@@ABQAD@Z 10041310 f i libucrtd:output.obj
 0001:00040390       ??$?0ABV?$stream_output_adapter@_W@__crt_stdio_output@@AB_KABQB_WABQAU__crt_locale_pointers@@ABQAD@?$standard_base@_WV?$stream_output_adapter@_W@__crt_stdio_output@@@__crt_stdio_output@@IAE@ABV?$stream_output_adapter@_W@1@AB_KABQB_WABQAU__crt_locale_pointers@@ABQAD@Z 10041390 f i libucrtd:output.obj
 0001:000403e0       ??$?0ABV?$string_output_adapter@D@__crt_stdio_output@@AB_KABQBDABQAU__crt_locale_pointers@@ABQAD@?$format_validation_base@DV?$string_output_adapter@D@__crt_stdio_output@@@__crt_stdio_output@@IAE@ABV?$string_output_adapter@D@1@AB_KABQBDABQAU__crt_locale_pointers@@ABQAD@Z 100413e0 f i libucrtd:output.obj
 0001:00040410       ??$?0ABV?$string_output_adapter@D@__crt_stdio_output@@AB_KABQBDABQAU__crt_locale_pointers@@ABQAD@?$positional_parameter_base@DV?$string_output_adapter@D@__crt_stdio_output@@@__crt_stdio_output@@IAE@ABV?$string_output_adapter@D@1@AB_KABQBDABQAU__crt_locale_pointers@@ABQAD@Z 10041410 f i libucrtd:output.obj
 0001:00040490       ??$?0ABV?$string_output_adapter@D@__crt_stdio_output@@AB_KABQBDABQAU__crt_locale_pointers@@ABQAD@?$standard_base@DV?$string_output_adapter@D@__crt_stdio_output@@@__crt_stdio_output@@IAE@ABV?$string_output_adapter@D@1@AB_KABQBDABQAU__crt_locale_pointers@@ABQAD@Z 10041490 f i libucrtd:output.obj
 0001:000404e0       ??$?0ABV?$string_output_adapter@_W@__crt_stdio_output@@AB_KABQB_WABQAU__crt_locale_pointers@@ABQAD@?$format_validation_base@_WV?$string_output_adapter@_W@__crt_stdio_output@@@__crt_stdio_output@@IAE@ABV?$string_output_adapter@_W@1@AB_KABQB_WABQAU__crt_locale_pointers@@ABQAD@Z 100414e0 f i libucrtd:output.obj
 0001:00040510       ??$?0ABV?$string_output_adapter@_W@__crt_stdio_output@@AB_KABQB_WABQAU__crt_locale_pointers@@ABQAD@?$positional_parameter_base@_WV?$string_output_adapter@_W@__crt_stdio_output@@@__crt_stdio_output@@IAE@ABV?$string_output_adapter@_W@1@AB_KABQB_WABQAU__crt_locale_pointers@@ABQAD@Z 10041510 f i libucrtd:output.obj
 0001:00040590       ??$?0ABV?$string_output_adapter@_W@__crt_stdio_output@@AB_KABQB_WABQAU__crt_locale_pointers@@ABQAD@?$standard_base@_WV?$string_output_adapter@_W@__crt_stdio_output@@@__crt_stdio_output@@IAE@ABV?$string_output_adapter@_W@1@AB_KABQB_WABQAU__crt_locale_pointers@@ABQAD@Z 10041590 f i libucrtd:output.obj
 0001:00040ac0       ??$__crt_interlocked_read@J@@YAJPDJ@Z 10041ac0 f i libucrtd:output.obj
 0001:00043860       ??$count@D@formatting_buffer@__crt_stdio_output@@QBEIXZ 10044860 f i libucrtd:output.obj
 0001:000438a0       ??$count@_W@formatting_buffer@__crt_stdio_output@@QBEIXZ 100448a0 f i libucrtd:output.obj
 0001:000438e0       ??$data@D@formatting_buffer@__crt_stdio_output@@QAEPADXZ 100448e0 f i libucrtd:output.obj
 0001:00043920       ??$data@_W@formatting_buffer@__crt_stdio_output@@QAEPA_WXZ 10044920 f i libucrtd:output.obj
 0001:00043960       ??$ensure_buffer_is_big_enough@D@formatting_buffer@__crt_stdio_output@@QAE_NI@Z 10044960 f i libucrtd:output.obj
 0001:00043a40       ??$ensure_buffer_is_big_enough@_W@formatting_buffer@__crt_stdio_output@@QAE_NI@Z 10044a40 f i libucrtd:output.obj
 0001:00043b30       ??$extract_argument_from_va_list@C_J@?$positional_parameter_base@DV?$stream_output_adapter@D@__crt_stdio_output@@@__crt_stdio_output@@IAE_NAA_J@Z 10044b30 f i libucrtd:output.obj
 0001:00043c70       ??$extract_argument_from_va_list@C_J@?$positional_parameter_base@DV?$string_output_adapter@D@__crt_stdio_output@@@__crt_stdio_output@@IAE_NAA_J@Z 10044c70 f i libucrtd:output.obj
 0001:00043db0       ??$extract_argument_from_va_list@C_J@?$positional_parameter_base@_WV?$stream_output_adapter@_W@__crt_stdio_output@@@__crt_stdio_output@@IAE_NAA_J@Z 10044db0 f i libucrtd:output.obj
 0001:00043ef0       ??$extract_argument_from_va_list@C_J@?$positional_parameter_base@_WV?$string_output_adapter@_W@__crt_stdio_output@@@__crt_stdio_output@@IAE_NAA_J@Z 10044ef0 f i libucrtd:output.obj
 0001:00044030       ??$extract_argument_from_va_list@C_J@?$standard_base@DV?$stream_output_adapter@D@__crt_stdio_output@@@__crt_stdio_output@@IAE_NAA_J@Z 10045030 f i libucrtd:output.obj
 0001:00044060       ??$extract_argument_from_va_list@C_J@?$standard_base@DV?$string_output_adapter@D@__crt_stdio_output@@@__crt_stdio_output@@IAE_NAA_J@Z 10045060 f i libucrtd:output.obj
 0001:00044090       ??$extract_argument_from_va_list@C_J@?$standard_base@_WV?$stream_output_adapter@_W@__crt_stdio_output@@@__crt_stdio_output@@IAE_NAA_J@Z 10045090 f i libucrtd:output.obj
 0001:000440c0       ??$extract_argument_from_va_list@C_J@?$standard_base@_WV?$string_output_adapter@_W@__crt_stdio_output@@@__crt_stdio_output@@IAE_NAA_J@Z 100450c0 f i libucrtd:output.obj
 0001:000440f0       ??$extract_argument_from_va_list@E_J@?$positional_parameter_base@DV?$stream_output_adapter@D@__crt_stdio_output@@@__crt_stdio_output@@IAE_NAA_J@Z 100450f0 f i libucrtd:output.obj
 0001:00044230       ??$extract_argument_from_va_list@E_J@?$positional_parameter_base@DV?$string_output_adapter@D@__crt_stdio_output@@@__crt_stdio_output@@IAE_NAA_J@Z 10045230 f i libucrtd:output.obj
 0001:00044370       ??$extract_argument_from_va_list@E_J@?$positional_parameter_base@_WV?$stream_output_adapter@_W@__crt_stdio_output@@@__crt_stdio_output@@IAE_NAA_J@Z 10045370 f i libucrtd:output.obj
 0001:000444b0       ??$extract_argument_from_va_list@E_J@?$positional_parameter_base@_WV?$string_output_adapter@_W@__crt_stdio_output@@@__crt_stdio_output@@IAE_NAA_J@Z 100454b0 f i libucrtd:output.obj
 0001:000445f0       ??$extract_argument_from_va_list@E_J@?$standard_base@DV?$stream_output_adapter@D@__crt_stdio_output@@@__crt_stdio_output@@IAE_NAA_J@Z 100455f0 f i libucrtd:output.obj
 0001:00044620       ??$extract_argument_from_va_list@E_J@?$standard_base@DV?$string_output_adapter@D@__crt_stdio_output@@@__crt_stdio_output@@IAE_NAA_J@Z 10045620 f i libucrtd:output.obj
 0001:00044650       ??$extract_argument_from_va_list@E_J@?$standard_base@_WV?$stream_output_adapter@_W@__crt_stdio_output@@@__crt_stdio_output@@IAE_NAA_J@Z 10045650 f i libucrtd:output.obj
 0001:00044680       ??$extract_argument_from_va_list@E_J@?$standard_base@_WV?$string_output_adapter@_W@__crt_stdio_output@@@__crt_stdio_output@@IAE_NAA_J@Z 10045680 f i libucrtd:output.obj
 0001:000446b0       ??$extract_argument_from_va_list@F_J@?$positional_parameter_base@DV?$stream_output_adapter@D@__crt_stdio_output@@@__crt_stdio_output@@IAE_NAA_J@Z 100456b0 f i libucrtd:output.obj
 0001:000447e0       ??$extract_argument_from_va_list@F_J@?$positional_parameter_base@DV?$string_output_adapter@D@__crt_stdio_output@@@__crt_stdio_output@@IAE_NAA_J@Z 100457e0 f i libucrtd:output.obj
 0001:00044910       ??$extract_argument_from_va_list@F_J@?$positional_parameter_base@_WV?$stream_output_adapter@_W@__crt_stdio_output@@@__crt_stdio_output@@IAE_NAA_J@Z 10045910 f i libucrtd:output.obj
 0001:00044a40       ??$extract_argument_from_va_list@F_J@?$positional_parameter_base@_WV?$string_output_adapter@_W@__crt_stdio_output@@@__crt_stdio_output@@IAE_NAA_J@Z 10045a40 f i libucrtd:output.obj
 0001:00044b70       ??$extract_argument_from_va_list@F_J@?$standard_base@DV?$stream_output_adapter@D@__crt_stdio_output@@@__crt_stdio_output@@IAE_NAA_J@Z 10045b70 f i libucrtd:output.obj
 0001:00044ba0       ??$extract_argument_from_va_list@F_J@?$standard_base@DV?$string_output_adapter@D@__crt_stdio_output@@@__crt_stdio_output@@IAE_NAA_J@Z 10045ba0 f i libucrtd:output.obj
 0001:00044bd0       ??$extract_argument_from_va_list@F_J@?$standard_base@_WV?$stream_output_adapter@_W@__crt_stdio_output@@@__crt_stdio_output@@IAE_NAA_J@Z 10045bd0 f i libucrtd:output.obj
 0001:00044c00       ??$extract_argument_from_va_list@F_J@?$standard_base@_WV?$string_output_adapter@_W@__crt_stdio_output@@@__crt_stdio_output@@IAE_NAA_J@Z 10045c00 f i libucrtd:output.obj
 0001:00044c30       ??$extract_argument_from_va_list@GD@?$positional_parameter_base@DV?$stream_output_adapter@D@__crt_stdio_output@@@__crt_stdio_output@@IAE_NAAD@Z 10045c30 f i libucrtd:output.obj
 0001:00044d60       ??$extract_argument_from_va_list@GD@?$positional_parameter_base@DV?$string_output_adapter@D@__crt_stdio_output@@@__crt_stdio_output@@IAE_NAAD@Z 10045d60 f i libucrtd:output.obj
 0001:00044e90       ??$extract_argument_from_va_list@GD@?$standard_base@DV?$stream_output_adapter@D@__crt_stdio_output@@@__crt_stdio_output@@IAE_NAAD@Z 10045e90 f i libucrtd:output.obj
 0001:00044ec0       ??$extract_argument_from_va_list@GD@?$standard_base@DV?$string_output_adapter@D@__crt_stdio_output@@@__crt_stdio_output@@IAE_NAAD@Z 10045ec0 f i libucrtd:output.obj
 0001:00044ef0       ??$extract_argument_from_va_list@G_J@?$positional_parameter_base@DV?$stream_output_adapter@D@__crt_stdio_output@@@__crt_stdio_output@@IAE_NAA_J@Z 10045ef0 f i libucrtd:output.obj
 0001:00045030       ??$extract_argument_from_va_list@G_J@?$positional_parameter_base@DV?$string_output_adapter@D@__crt_stdio_output@@@__crt_stdio_output@@IAE_NAA_J@Z 10046030 f i libucrtd:output.obj
 0001:00045170       ??$extract_argument_from_va_list@G_J@?$positional_parameter_base@_WV?$stream_output_adapter@_W@__crt_stdio_output@@@__crt_stdio_output@@IAE_NAA_J@Z 10046170 f i libucrtd:output.obj
 0001:000452b0       ??$extract_argument_from_va_list@G_J@?$positional_parameter_base@_WV?$string_output_adapter@_W@__crt_stdio_output@@@__crt_stdio_output@@IAE_NAA_J@Z 100462b0 f i libucrtd:output.obj
 0001:000453f0       ??$extract_argument_from_va_list@G_J@?$standard_base@DV?$stream_output_adapter@D@__crt_stdio_output@@@__crt_stdio_output@@IAE_NAA_J@Z 100463f0 f i libucrtd:output.obj
 0001:00045420       ??$extract_argument_from_va_list@G_J@?$standard_base@DV?$string_output_adapter@D@__crt_stdio_output@@@__crt_stdio_output@@IAE_NAA_J@Z 10046420 f i libucrtd:output.obj
 0001:00045450       ??$extract_argument_from_va_list@G_J@?$standard_base@_WV?$stream_output_adapter@_W@__crt_stdio_output@@@__crt_stdio_output@@IAE_NAA_J@Z 10046450 f i libucrtd:output.obj
 0001:00045480       ??$extract_argument_from_va_list@G_J@?$standard_base@_WV?$string_output_adapter@_W@__crt_stdio_output@@@__crt_stdio_output@@IAE_NAA_J@Z 10046480 f i libucrtd:output.obj
 0001:000454b0       ??$extract_argument_from_va_list@H_J@?$positional_parameter_base@DV?$stream_output_adapter@D@__crt_stdio_output@@@__crt_stdio_output@@IAE_NAA_J@Z 100464b0 f i libucrtd:output.obj
 0001:000455e0       ??$extract_argument_from_va_list@H_J@?$positional_parameter_base@DV?$string_output_adapter@D@__crt_stdio_output@@@__crt_stdio_output@@IAE_NAA_J@Z 100465e0 f i libucrtd:output.obj
 0001:00045710       ??$extract_argument_from_va_list@H_J@?$positional_parameter_base@_WV?$stream_output_adapter@_W@__crt_stdio_output@@@__crt_stdio_output@@IAE_NAA_J@Z 10046710 f i libucrtd:output.obj
 0001:00045840       ??$extract_argument_from_va_list@H_J@?$positional_parameter_base@_WV?$string_output_adapter@_W@__crt_stdio_output@@@__crt_stdio_output@@IAE_NAA_J@Z 10046840 f i libucrtd:output.obj
 0001:00045970       ??$extract_argument_from_va_list@H_J@?$standard_base@DV?$stream_output_adapter@D@__crt_stdio_output@@@__crt_stdio_output@@IAE_NAA_J@Z 10046970 f i libucrtd:output.obj
 0001:000459a0       ??$extract_argument_from_va_list@H_J@?$standard_base@DV?$string_output_adapter@D@__crt_stdio_output@@@__crt_stdio_output@@IAE_NAA_J@Z 100469a0 f i libucrtd:output.obj
 0001:000459d0       ??$extract_argument_from_va_list@H_J@?$standard_base@_WV?$stream_output_adapter@_W@__crt_stdio_output@@@__crt_stdio_output@@IAE_NAA_J@Z 100469d0 f i libucrtd:output.obj
 0001:00045a00       ??$extract_argument_from_va_list@H_J@?$standard_base@_WV?$string_output_adapter@_W@__crt_stdio_output@@@__crt_stdio_output@@IAE_NAA_J@Z 10046a00 f i libucrtd:output.obj
 0001:00045a30       ??$extract_argument_from_va_list@I_J@?$positional_parameter_base@DV?$stream_output_adapter@D@__crt_stdio_output@@@__crt_stdio_output@@IAE_NAA_J@Z 10046a30 f i libucrtd:output.obj
 0001:00045b60       ??$extract_argument_from_va_list@I_J@?$positional_parameter_base@DV?$string_output_adapter@D@__crt_stdio_output@@@__crt_stdio_output@@IAE_NAA_J@Z 10046b60 f i libucrtd:output.obj
 0001:00045c90       ??$extract_argument_from_va_list@I_J@?$positional_parameter_base@_WV?$stream_output_adapter@_W@__crt_stdio_output@@@__crt_stdio_output@@IAE_NAA_J@Z 10046c90 f i libucrtd:output.obj
 0001:00045dc0       ??$extract_argument_from_va_list@I_J@?$positional_parameter_base@_WV?$string_output_adapter@_W@__crt_stdio_output@@@__crt_stdio_output@@IAE_NAA_J@Z 10046dc0 f i libucrtd:output.obj
 0001:00045ef0       ??$extract_argument_from_va_list@I_J@?$standard_base@DV?$stream_output_adapter@D@__crt_stdio_output@@@__crt_stdio_output@@IAE_NAA_J@Z 10046ef0 f i libucrtd:output.obj
 0001:00045f20       ??$extract_argument_from_va_list@I_J@?$standard_base@DV?$string_output_adapter@D@__crt_stdio_output@@@__crt_stdio_output@@IAE_NAA_J@Z 10046f20 f i libucrtd:output.obj
 0001:00045f50       ??$extract_argument_from_va_list@I_J@?$standard_base@_WV?$stream_output_adapter@_W@__crt_stdio_output@@@__crt_stdio_output@@IAE_NAA_J@Z 10046f50 f i libucrtd:output.obj
 0001:00045f80       ??$extract_argument_from_va_list@I_J@?$standard_base@_WV?$string_output_adapter@_W@__crt_stdio_output@@@__crt_stdio_output@@IAE_NAA_J@Z 10046f80 f i libucrtd:output.obj
 0001:00045fb0       ??$extract_argument_from_va_list@PADPAD@?$positional_parameter_base@DV?$stream_output_adapter@D@__crt_stdio_output@@@__crt_stdio_output@@IAE_NAAPAD@Z 10046fb0 f i libucrtd:output.obj
 0001:000460e0       ??$extract_argument_from_va_list@PADPAD@?$positional_parameter_base@DV?$string_output_adapter@D@__crt_stdio_output@@@__crt_stdio_output@@IAE_NAAPAD@Z 100470e0 f i libucrtd:output.obj
 0001:00046210       ??$extract_argument_from_va_list@PADPAD@?$positional_parameter_base@_WV?$stream_output_adapter@_W@__crt_stdio_output@@@__crt_stdio_output@@IAE_NAAPAD@Z 10047210 f i libucrtd:output.obj
 0001:00046340       ??$extract_argument_from_va_list@PADPAD@?$positional_parameter_base@_WV?$string_output_adapter@_W@__crt_stdio_output@@@__crt_stdio_output@@IAE_NAAPAD@Z 10047340 f i libucrtd:output.obj
 0001:00046470       ??$extract_argument_from_va_list@PADPAD@?$standard_base@DV?$stream_output_adapter@D@__crt_stdio_output@@@__crt_stdio_output@@IAE_NAAPAD@Z 10047470 f i libucrtd:output.obj
 0001:000464a0       ??$extract_argument_from_va_list@PADPAD@?$standard_base@DV?$string_output_adapter@D@__crt_stdio_output@@@__crt_stdio_output@@IAE_NAAPAD@Z 100474a0 f i libucrtd:output.obj
 0001:000464d0       ??$extract_argument_from_va_list@PADPAD@?$standard_base@_WV?$stream_output_adapter@_W@__crt_stdio_output@@@__crt_stdio_output@@IAE_NAAPAD@Z 100474d0 f i libucrtd:output.obj
 0001:00046500       ??$extract_argument_from_va_list@PADPAD@?$standard_base@_WV?$string_output_adapter@_W@__crt_stdio_output@@@__crt_stdio_output@@IAE_NAAPAD@Z 10047500 f i libucrtd:output.obj
 0001:00046530       ??$extract_argument_from_va_list@PAUansi_string@?1??type_case_Z@?$output_processor@DV?$stream_output_adapter@D@__crt_stdio_output@@V?$format_validation_base@DV?$stream_output_adapter@D@__crt_stdio_output@@@2@@__crt_stdio_output@@AAE_NXZ@PAU1?1??234@AAE_NXZ@@?$standard_base@DV?$stream_output_adapter@D@__crt_stdio_output@@@__crt_stdio_output@@IAE_NAAPAUansi_string@?1??type_case_Z@?$output_processor@DV?$stream_output_adapter@D@__crt_stdio_output@@V?$format_validation_base@DV?$stream_output_adapter@D@__crt_stdio_output@@@2@@1@AAE_NXZ@@Z 10047530 f i libucrtd:output.obj
 0001:00046560       ??$extract_argument_from_va_list@PAUansi_string@?1??type_case_Z@?$output_processor@DV?$stream_output_adapter@D@__crt_stdio_output@@V?$positional_parameter_base@DV?$stream_output_adapter@D@__crt_stdio_output@@@2@@__crt_stdio_output@@AAE_NXZ@PAU1?1??234@AAE_NXZ@@?$positional_parameter_base@DV?$stream_output_adapter@D@__crt_stdio_output@@@__crt_stdio_output@@IAE_NAAPAUansi_string@?1??type_case_Z@?$output_processor@DV?$stream_output_adapter@D@__crt_stdio_output@@V?$positional_parameter_base@DV?$stream_output_adapter@D@__crt_stdio_output@@@2@@1@AAE_NXZ@@Z 10047560 f i libucrtd:output.obj
 0001:00046690       ??$extract_argument_from_va_list@PAUansi_string@?1??type_case_Z@?$output_processor@DV?$stream_output_adapter@D@__crt_stdio_output@@V?$positional_parameter_base@DV?$stream_output_adapter@D@__crt_stdio_output@@@2@@__crt_stdio_output@@AAE_NXZ@PAU1?1??234@AAE_NXZ@@?$standard_base@DV?$stream_output_adapter@D@__crt_stdio_output@@@__crt_stdio_output@@IAE_NAAPAUansi_string@?1??type_case_Z@?$output_processor@DV?$stream_output_adapter@D@__crt_stdio_output@@V?$positional_parameter_base@DV?$stream_output_adapter@D@__crt_stdio_output@@@2@@1@AAE_NXZ@@Z 10047690 f i libucrtd:output.obj
 0001:000466c0       ??$extract_argument_from_va_list@PAUansi_string@?1??type_case_Z@?$output_processor@DV?$stream_output_adapter@D@__crt_stdio_output@@V?$standard_base@DV?$stream_output_adapter@D@__crt_stdio_output@@@2@@__crt_stdio_output@@AAE_NXZ@PAU1?1??234@AAE_NXZ@@?$standard_base@DV?$stream_output_adapter@D@__crt_stdio_output@@@__crt_stdio_output@@IAE_NAAPAUansi_string@?1??type_case_Z@?$output_processor@DV?$stream_output_adapter@D@__crt_stdio_output@@V?$standard_base@DV?$stream_output_adapter@D@__crt_stdio_output@@@2@@1@AAE_NXZ@@Z 100476c0 f i libucrtd:output.obj
 0001:000466f0       ??$extract_argument_from_va_list@PAUansi_string@?1??type_case_Z@?$output_processor@DV?$string_output_adapter@D@__crt_stdio_output@@V?$format_validation_base@DV?$string_output_adapter@D@__crt_stdio_output@@@2@@__crt_stdio_output@@AAE_NXZ@PAU1?1??234@AAE_NXZ@@?$standard_base@DV?$string_output_adapter@D@__crt_stdio_output@@@__crt_stdio_output@@IAE_NAAPAUansi_string@?1??type_case_Z@?$output_processor@DV?$string_output_adapter@D@__crt_stdio_output@@V?$format_validation_base@DV?$string_output_adapter@D@__crt_stdio_output@@@2@@1@AAE_NXZ@@Z 100476f0 f i libucrtd:output.obj
 0001:00046720       ??$extract_argument_from_va_list@PAUansi_string@?1??type_case_Z@?$output_processor@DV?$string_output_adapter@D@__crt_stdio_output@@V?$positional_parameter_base@DV?$string_output_adapter@D@__crt_stdio_output@@@2@@__crt_stdio_output@@AAE_NXZ@PAU1?1??234@AAE_NXZ@@?$positional_parameter_base@DV?$string_output_adapter@D@__crt_stdio_output@@@__crt_stdio_output@@IAE_NAAPAUansi_string@?1??type_case_Z@?$output_processor@DV?$string_output_adapter@D@__crt_stdio_output@@V?$positional_parameter_base@DV?$string_output_adapter@D@__crt_stdio_output@@@2@@1@AAE_NXZ@@Z 10047720 f i libucrtd:output.obj
 0001:00046850       ??$extract_argument_from_va_list@PAUansi_string@?1??type_case_Z@?$output_processor@DV?$string_output_adapter@D@__crt_stdio_output@@V?$positional_parameter_base@DV?$string_output_adapter@D@__crt_stdio_output@@@2@@__crt_stdio_output@@AAE_NXZ@PAU1?1??234@AAE_NXZ@@?$standard_base@DV?$string_output_adapter@D@__crt_stdio_output@@@__crt_stdio_output@@IAE_NAAPAUansi_string@?1??type_case_Z@?$output_processor@DV?$string_output_adapter@D@__crt_stdio_output@@V?$positional_parameter_base@DV?$string_output_adapter@D@__crt_stdio_output@@@2@@1@AAE_NXZ@@Z 10047850 f i libucrtd:output.obj
 0001:00046880       ??$extract_argument_from_va_list@PAUansi_string@?1??type_case_Z@?$output_processor@DV?$string_output_adapter@D@__crt_stdio_output@@V?$standard_base@DV?$string_output_adapter@D@__crt_stdio_output@@@2@@__crt_stdio_output@@AAE_NXZ@PAU1?1??234@AAE_NXZ@@?$standard_base@DV?$string_output_adapter@D@__crt_stdio_output@@@__crt_stdio_output@@IAE_NAAPAUansi_string@?1??type_case_Z@?$output_processor@DV?$string_output_adapter@D@__crt_stdio_output@@V?$standard_base@DV?$string_output_adapter@D@__crt_stdio_output@@@2@@1@AAE_NXZ@@Z 10047880 f i libucrtd:output.obj
 0001:000468b0       ??$extract_argument_from_va_list@PAUansi_string@?1??type_case_Z@?$output_processor@_WV?$stream_output_adapter@_W@__crt_stdio_output@@V?$format_validation_base@_WV?$stream_output_adapter@_W@__crt_stdio_output@@@2@@__crt_stdio_output@@AAE_NXZ@PAU1?1??234@AAE_NXZ@@?$standard_base@_WV?$stream_output_adapter@_W@__crt_stdio_output@@@__crt_stdio_output@@IAE_NAAPAUansi_string@?1??type_case_Z@?$output_processor@_WV?$stream_output_adapter@_W@__crt_stdio_output@@V?$format_validation_base@_WV?$stream_output_adapter@_W@__crt_stdio_output@@@2@@1@AAE_NXZ@@Z 100478b0 f i libucrtd:output.obj
 0001:000468e0       ??$extract_argument_from_va_list@PAUansi_string@?1??type_case_Z@?$output_processor@_WV?$stream_output_adapter@_W@__crt_stdio_output@@V?$positional_parameter_base@_WV?$stream_output_adapter@_W@__crt_stdio_output@@@2@@__crt_stdio_output@@AAE_NXZ@PAU1?1??234@AAE_NXZ@@?$positional_parameter_base@_WV?$stream_output_adapter@_W@__crt_stdio_output@@@__crt_stdio_output@@IAE_NAAPAUansi_string@?1??type_case_Z@?$output_processor@_WV?$stream_output_adapter@_W@__crt_stdio_output@@V?$positional_parameter_base@_WV?$stream_output_adapter@_W@__crt_stdio_output@@@2@@1@AAE_NXZ@@Z 100478e0 f i libucrtd:output.obj
 0001:00046a10       ??$extract_argument_from_va_list@PAUansi_string@?1??type_case_Z@?$output_processor@_WV?$stream_output_adapter@_W@__crt_stdio_output@@V?$positional_parameter_base@_WV?$stream_output_adapter@_W@__crt_stdio_output@@@2@@__crt_stdio_output@@AAE_NXZ@PAU1?1??234@AAE_NXZ@@?$standard_base@_WV?$stream_output_adapter@_W@__crt_stdio_output@@@__crt_stdio_output@@IAE_NAAPAUansi_string@?1??type_case_Z@?$output_processor@_WV?$stream_output_adapter@_W@__crt_stdio_output@@V?$positional_parameter_base@_WV?$stream_output_adapter@_W@__crt_stdio_output@@@2@@1@AAE_NXZ@@Z 10047a10 f i libucrtd:output.obj
 0001:00046a40       ??$extract_argument_from_va_list@PAUansi_string@?1??type_case_Z@?$output_processor@_WV?$stream_output_adapter@_W@__crt_stdio_output@@V?$standard_base@_WV?$stream_output_adapter@_W@__crt_stdio_output@@@2@@__crt_stdio_output@@AAE_NXZ@PAU1?1??234@AAE_NXZ@@?$standard_base@_WV?$stream_output_adapter@_W@__crt_stdio_output@@@__crt_stdio_output@@IAE_NAAPAUansi_string@?1??type_case_Z@?$output_processor@_WV?$stream_output_adapter@_W@__crt_stdio_output@@V?$standard_base@_WV?$stream_output_adapter@_W@__crt_stdio_output@@@2@@1@AAE_NXZ@@Z 10047a40 f i libucrtd:output.obj
 0001:00046a70       ??$extract_argument_from_va_list@PAUansi_string@?1??type_case_Z@?$output_processor@_WV?$string_output_adapter@_W@__crt_stdio_output@@V?$format_validation_base@_WV?$string_output_adapter@_W@__crt_stdio_output@@@2@@__crt_stdio_output@@AAE_NXZ@PAU1?1??234@AAE_NXZ@@?$standard_base@_WV?$string_output_adapter@_W@__crt_stdio_output@@@__crt_stdio_output@@IAE_NAAPAUansi_string@?1??type_case_Z@?$output_processor@_WV?$string_output_adapter@_W@__crt_stdio_output@@V?$format_validation_base@_WV?$string_output_adapter@_W@__crt_stdio_output@@@2@@1@AAE_NXZ@@Z 10047a70 f i libucrtd:output.obj
 0001:00046aa0       ??$extract_argument_from_va_list@PAUansi_string@?1??type_case_Z@?$output_processor@_WV?$string_output_adapter@_W@__crt_stdio_output@@V?$positional_parameter_base@_WV?$string_output_adapter@_W@__crt_stdio_output@@@2@@__crt_stdio_output@@AAE_NXZ@PAU1?1??234@AAE_NXZ@@?$positional_parameter_base@_WV?$string_output_adapter@_W@__crt_stdio_output@@@__crt_stdio_output@@IAE_NAAPAUansi_string@?1??type_case_Z@?$output_processor@_WV?$string_output_adapter@_W@__crt_stdio_output@@V?$positional_parameter_base@_WV?$string_output_adapter@_W@__crt_stdio_output@@@2@@1@AAE_NXZ@@Z 10047aa0 f i libucrtd:output.obj
 0001:00046bd0       ??$extract_argument_from_va_list@PAUansi_string@?1??type_case_Z@?$output_processor@_WV?$string_output_adapter@_W@__crt_stdio_output@@V?$positional_parameter_base@_WV?$string_output_adapter@_W@__crt_stdio_output@@@2@@__crt_stdio_output@@AAE_NXZ@PAU1?1??234@AAE_NXZ@@?$standard_base@_WV?$string_output_adapter@_W@__crt_stdio_output@@@__crt_stdio_output@@IAE_NAAPAUansi_string@?1??type_case_Z@?$output_processor@_WV?$string_output_adapter@_W@__crt_stdio_output@@V?$positional_parameter_base@_WV?$string_output_adapter@_W@__crt_stdio_output@@@2@@1@AAE_NXZ@@Z 10047bd0 f i libucrtd:output.obj
 0001:00046c00       ??$extract_argument_from_va_list@PAUansi_string@?1??type_case_Z@?$output_processor@_WV?$string_output_adapter@_W@__crt_stdio_output@@V?$standard_base@_WV?$string_output_adapter@_W@__crt_stdio_output@@@2@@__crt_stdio_output@@AAE_NXZ@PAU1?1??234@AAE_NXZ@@?$standard_base@_WV?$string_output_adapter@_W@__crt_stdio_output@@@__crt_stdio_output@@IAE_NAAPAUansi_string@?1??type_case_Z@?$output_processor@_WV?$string_output_adapter@_W@__crt_stdio_output@@V?$standard_base@_WV?$string_output_adapter@_W@__crt_stdio_output@@@2@@1@AAE_NXZ@@Z 10047c00 f i libucrtd:output.obj
 0001:00046c30       ??$extract_argument_from_va_list@PAXPAX@?$positional_parameter_base@DV?$stream_output_adapter@D@__crt_stdio_output@@@__crt_stdio_output@@IAE_NAAPAX@Z 10047c30 f i libucrtd:output.obj
 0001:00046d60       ??$extract_argument_from_va_list@PAXPAX@?$positional_parameter_base@DV?$string_output_adapter@D@__crt_stdio_output@@@__crt_stdio_output@@IAE_NAAPAX@Z 10047d60 f i libucrtd:output.obj
 0001:00046e90       ??$extract_argument_from_va_list@PAXPAX@?$positional_parameter_base@_WV?$stream_output_adapter@_W@__crt_stdio_output@@@__crt_stdio_output@@IAE_NAAPAX@Z 10047e90 f i libucrtd:output.obj
 0001:00046fc0       ??$extract_argument_from_va_list@PAXPAX@?$positional_parameter_base@_WV?$string_output_adapter@_W@__crt_stdio_output@@@__crt_stdio_output@@IAE_NAAPAX@Z 10047fc0 f i libucrtd:output.obj
 0001:000470f0       ??$extract_argument_from_va_list@PAXPAX@?$standard_base@DV?$stream_output_adapter@D@__crt_stdio_output@@@__crt_stdio_output@@IAE_NAAPAX@Z 100480f0 f i libucrtd:output.obj
 0001:00047120       ??$extract_argument_from_va_list@PAXPAX@?$standard_base@DV?$string_output_adapter@D@__crt_stdio_output@@@__crt_stdio_output@@IAE_NAAPAX@Z 10048120 f i libucrtd:output.obj
 0001:00047150       ??$extract_argument_from_va_list@PAXPAX@?$standard_base@_WV?$stream_output_adapter@_W@__crt_stdio_output@@@__crt_stdio_output@@IAE_NAAPAX@Z 10048150 f i libucrtd:output.obj
 0001:00047180       ??$extract_argument_from_va_list@PAXPAX@?$standard_base@_WV?$string_output_adapter@_W@__crt_stdio_output@@@__crt_stdio_output@@IAE_NAAPAX@Z 10048180 f i libucrtd:output.obj
 0001:000471b0       ??$extract_argument_from_va_list@U_CRT_DOUBLE@@U1@@?$positional_parameter_base@DV?$stream_output_adapter@D@__crt_stdio_output@@@__crt_stdio_output@@IAE_NAAU_CRT_DOUBLE@@@Z 100481b0 f i libucrtd:output.obj
 0001:00047310       ??$extract_argument_from_va_list@U_CRT_DOUBLE@@U1@@?$positional_parameter_base@DV?$string_output_adapter@D@__crt_stdio_output@@@__crt_stdio_output@@IAE_NAAU_CRT_DOUBLE@@@Z 10048310 f i libucrtd:output.obj
 0001:00047470       ??$extract_argument_from_va_list@U_CRT_DOUBLE@@U1@@?$positional_parameter_base@_WV?$stream_output_adapter@_W@__crt_stdio_output@@@__crt_stdio_output@@IAE_NAAU_CRT_DOUBLE@@@Z 10048470 f i libucrtd:output.obj
 0001:000475d0       ??$extract_argument_from_va_list@U_CRT_DOUBLE@@U1@@?$positional_parameter_base@_WV?$string_output_adapter@_W@__crt_stdio_output@@@__crt_stdio_output@@IAE_NAAU_CRT_DOUBLE@@@Z 100485d0 f i libucrtd:output.obj
 0001:00047730       ??$extract_argument_from_va_list@U_CRT_DOUBLE@@U1@@?$standard_base@DV?$stream_output_adapter@D@__crt_stdio_output@@@__crt_stdio_output@@IAE_NAAU_CRT_DOUBLE@@@Z 10048730 f i libucrtd:output.obj
 0001:00047780       ??$extract_argument_from_va_list@U_CRT_DOUBLE@@U1@@?$standard_base@DV?$string_output_adapter@D@__crt_stdio_output@@@__crt_stdio_output@@IAE_NAAU_CRT_DOUBLE@@@Z 10048780 f i libucrtd:output.obj
 0001:000477d0       ??$extract_argument_from_va_list@U_CRT_DOUBLE@@U1@@?$standard_base@_WV?$stream_output_adapter@_W@__crt_stdio_output@@@__crt_stdio_output@@IAE_NAAU_CRT_DOUBLE@@@Z 100487d0 f i libucrtd:output.obj
 0001:00047820       ??$extract_argument_from_va_list@U_CRT_DOUBLE@@U1@@?$standard_base@_WV?$string_output_adapter@_W@__crt_stdio_output@@@__crt_stdio_output@@IAE_NAAU_CRT_DOUBLE@@@Z 10048820 f i libucrtd:output.obj
 0001:00047870       ??$extract_argument_from_va_list@_J_J@?$positional_parameter_base@DV?$stream_output_adapter@D@__crt_stdio_output@@@__crt_stdio_output@@IAE_NAA_J@Z 10048870 f i libucrtd:output.obj
 0001:000479a0       ??$extract_argument_from_va_list@_J_J@?$positional_parameter_base@DV?$string_output_adapter@D@__crt_stdio_output@@@__crt_stdio_output@@IAE_NAA_J@Z 100489a0 f i libucrtd:output.obj
 0001:00047ad0       ??$extract_argument_from_va_list@_J_J@?$positional_parameter_base@_WV?$stream_output_adapter@_W@__crt_stdio_output@@@__crt_stdio_output@@IAE_NAA_J@Z 10048ad0 f i libucrtd:output.obj
 0001:00047c00       ??$extract_argument_from_va_list@_J_J@?$positional_parameter_base@_WV?$string_output_adapter@_W@__crt_stdio_output@@@__crt_stdio_output@@IAE_NAA_J@Z 10048c00 f i libucrtd:output.obj
 0001:00047d30       ??$extract_argument_from_va_list@_J_J@?$standard_base@DV?$stream_output_adapter@D@__crt_stdio_output@@@__crt_stdio_output@@IAE_NAA_J@Z 10048d30 f i libucrtd:output.obj
 0001:00047d60       ??$extract_argument_from_va_list@_J_J@?$standard_base@DV?$string_output_adapter@D@__crt_stdio_output@@@__crt_stdio_output@@IAE_NAA_J@Z 10048d60 f i libucrtd:output.obj
 0001:00047d90       ??$extract_argument_from_va_list@_J_J@?$standard_base@_WV?$stream_output_adapter@_W@__crt_stdio_output@@@__crt_stdio_output@@IAE_NAA_J@Z 10048d90 f i libucrtd:output.obj
 0001:00047dc0       ??$extract_argument_from_va_list@_J_J@?$standard_base@_WV?$string_output_adapter@_W@__crt_stdio_output@@@__crt_stdio_output@@IAE_NAA_J@Z 10048dc0 f i libucrtd:output.obj
 0001:00047df0       ??$extract_argument_from_va_list@_K_J@?$positional_parameter_base@DV?$stream_output_adapter@D@__crt_stdio_output@@@__crt_stdio_output@@IAE_NAA_J@Z 10048df0 f i libucrtd:output.obj
 0001:00047f20       ??$extract_argument_from_va_list@_K_J@?$positional_parameter_base@DV?$string_output_adapter@D@__crt_stdio_output@@@__crt_stdio_output@@IAE_NAA_J@Z 10048f20 f i libucrtd:output.obj
 0001:00048050       ??$extract_argument_from_va_list@_K_J@?$positional_parameter_base@_WV?$stream_output_adapter@_W@__crt_stdio_output@@@__crt_stdio_output@@IAE_NAA_J@Z 10049050 f i libucrtd:output.obj
 0001:00048180       ??$extract_argument_from_va_list@_K_J@?$positional_parameter_base@_WV?$string_output_adapter@_W@__crt_stdio_output@@@__crt_stdio_output@@IAE_NAA_J@Z 10049180 f i libucrtd:output.obj
 0001:000482b0       ??$extract_argument_from_va_list@_K_J@?$standard_base@DV?$stream_output_adapter@D@__crt_stdio_output@@@__crt_stdio_output@@IAE_NAA_J@Z 100492b0 f i libucrtd:output.obj
 0001:000482e0       ??$extract_argument_from_va_list@_K_J@?$standard_base@DV?$string_output_adapter@D@__crt_stdio_output@@@__crt_stdio_output@@IAE_NAA_J@Z 100492e0 f i libucrtd:output.obj
 0001:00048310       ??$extract_argument_from_va_list@_K_J@?$standard_base@_WV?$stream_output_adapter@_W@__crt_stdio_output@@@__crt_stdio_output@@IAE_NAA_J@Z 10049310 f i libucrtd:output.obj
 0001:00048340       ??$extract_argument_from_va_list@_K_J@?$standard_base@_WV?$string_output_adapter@_W@__crt_stdio_output@@@__crt_stdio_output@@IAE_NAA_J@Z 10049340 f i libucrtd:output.obj
 0001:00048370       ??$extract_argument_from_va_list@_W_W@?$positional_parameter_base@DV?$stream_output_adapter@D@__crt_stdio_output@@@__crt_stdio_output@@IAE_NAA_W@Z 10049370 f i libucrtd:output.obj
 0001:000484a0       ??$extract_argument_from_va_list@_W_W@?$positional_parameter_base@DV?$string_output_adapter@D@__crt_stdio_output@@@__crt_stdio_output@@IAE_NAA_W@Z 100494a0 f i libucrtd:output.obj
 0001:000485d0       ??$extract_argument_from_va_list@_W_W@?$positional_parameter_base@_WV?$stream_output_adapter@_W@__crt_stdio_output@@@__crt_stdio_output@@IAE_NAA_W@Z 100495d0 f i libucrtd:output.obj
 0001:00048700       ??$extract_argument_from_va_list@_W_W@?$positional_parameter_base@_WV?$string_output_adapter@_W@__crt_stdio_output@@@__crt_stdio_output@@IAE_NAA_W@Z 10049700 f i libucrtd:output.obj
 0001:00048830       ??$extract_argument_from_va_list@_W_W@?$standard_base@DV?$stream_output_adapter@D@__crt_stdio_output@@@__crt_stdio_output@@IAE_NAA_W@Z 10049830 f i libucrtd:output.obj
 0001:00048860       ??$extract_argument_from_va_list@_W_W@?$standard_base@DV?$string_output_adapter@D@__crt_stdio_output@@@__crt_stdio_output@@IAE_NAA_W@Z 10049860 f i libucrtd:output.obj
 0001:00048890       ??$extract_argument_from_va_list@_W_W@?$standard_base@_WV?$stream_output_adapter@_W@__crt_stdio_output@@@__crt_stdio_output@@IAE_NAA_W@Z 10049890 f i libucrtd:output.obj
 0001:000488c0       ??$extract_argument_from_va_list@_W_W@?$standard_base@_WV?$string_output_adapter@_W@__crt_stdio_output@@@__crt_stdio_output@@IAE_NAA_W@Z 100498c0 f i libucrtd:output.obj
 0001:000488f0       ??$get_parameter_type@D@?$positional_parameter_base@DV?$stream_output_adapter@D@__crt_stdio_output@@@__crt_stdio_output@@CA?AW4parameter_type@01@PAD@Z 100498f0 f i libucrtd:output.obj
 0001:00048900       ??$get_parameter_type@D@?$positional_parameter_base@DV?$string_output_adapter@D@__crt_stdio_output@@@__crt_stdio_output@@CA?AW4parameter_type@01@PAD@Z 10049900 f i libucrtd:output.obj
 0001:00048910       ??$get_parameter_type@D@?$positional_parameter_base@_WV?$stream_output_adapter@_W@__crt_stdio_output@@@__crt_stdio_output@@CA?AW4parameter_type@01@PAD@Z 10049910 f i libucrtd:output.obj
 0001:00048920       ??$get_parameter_type@D@?$positional_parameter_base@_WV?$string_output_adapter@_W@__crt_stdio_output@@@__crt_stdio_output@@CA?AW4parameter_type@01@PAD@Z 10049920 f i libucrtd:output.obj
 0001:00048930       ??$get_parameter_type@Uansi_string@?1??type_case_Z@?$output_processor@DV?$stream_output_adapter@D@__crt_stdio_output@@V?$positional_parameter_base@DV?$stream_output_adapter@D@__crt_stdio_output@@@2@@__crt_stdio_output@@AAE_NXZ@@?$positional_parameter_base@DV?$stream_output_adapter@D@__crt_stdio_output@@@__crt_stdio_output@@CA?AW4parameter_type@01@PAUansi_string@?1??type_case_Z@?$output_processor@DV?$stream_output_adapter@D@__crt_stdio_output@@V?$positional_parameter_base@DV?$stream_output_adapter@D@__crt_stdio_output@@@2@@1@AAE_NXZ@@Z 10049930 f i libucrtd:output.obj
 0001:00048940       ??$get_parameter_type@Uansi_string@?1??type_case_Z@?$output_processor@DV?$string_output_adapter@D@__crt_stdio_output@@V?$positional_parameter_base@DV?$string_output_adapter@D@__crt_stdio_output@@@2@@__crt_stdio_output@@AAE_NXZ@@?$positional_parameter_base@DV?$string_output_adapter@D@__crt_stdio_output@@@__crt_stdio_output@@CA?AW4parameter_type@01@PAUansi_string@?1??type_case_Z@?$output_processor@DV?$string_output_adapter@D@__crt_stdio_output@@V?$positional_parameter_base@DV?$string_output_adapter@D@__crt_stdio_output@@@2@@1@AAE_NXZ@@Z 10049940 f i libucrtd:output.obj
 0001:00048950       ??$get_parameter_type@Uansi_string@?1??type_case_Z@?$output_processor@_WV?$stream_output_adapter@_W@__crt_stdio_output@@V?$positional_parameter_base@_WV?$stream_output_adapter@_W@__crt_stdio_output@@@2@@__crt_stdio_output@@AAE_NXZ@@?$positional_parameter_base@_WV?$stream_output_adapter@_W@__crt_stdio_output@@@__crt_stdio_output@@CA?AW4parameter_type@01@PAUansi_string@?1??type_case_Z@?$output_processor@_WV?$stream_output_adapter@_W@__crt_stdio_output@@V?$positional_parameter_base@_WV?$stream_output_adapter@_W@__crt_stdio_output@@@2@@1@AAE_NXZ@@Z 10049950 f i libucrtd:output.obj
 0001:00048960       ??$get_parameter_type@Uansi_string@?1??type_case_Z@?$output_processor@_WV?$string_output_adapter@_W@__crt_stdio_output@@V?$positional_parameter_base@_WV?$string_output_adapter@_W@__crt_stdio_output@@@2@@__crt_stdio_output@@AAE_NXZ@@?$positional_parameter_base@_WV?$string_output_adapter@_W@__crt_stdio_output@@@__crt_stdio_output@@CA?AW4parameter_type@01@PAUansi_string@?1??type_case_Z@?$output_processor@_WV?$string_output_adapter@_W@__crt_stdio_output@@V?$positional_parameter_base@_WV?$string_output_adapter@_W@__crt_stdio_output@@@2@@1@AAE_NXZ@@Z 10049960 f i libucrtd:output.obj
 0001:00048970       ??$get_parameter_type@X@?$positional_parameter_base@DV?$stream_output_adapter@D@__crt_stdio_output@@@__crt_stdio_output@@CA?AW4parameter_type@01@PAX@Z 10049970 f i libucrtd:output.obj
 0001:00048980       ??$get_parameter_type@X@?$positional_parameter_base@DV?$string_output_adapter@D@__crt_stdio_output@@@__crt_stdio_output@@CA?AW4parameter_type@01@PAX@Z 10049980 f i libucrtd:output.obj
 0001:00048990       ??$get_parameter_type@X@?$positional_parameter_base@_WV?$stream_output_adapter@_W@__crt_stdio_output@@@__crt_stdio_output@@CA?AW4parameter_type@01@PAX@Z 10049990 f i libucrtd:output.obj
 0001:000489a0       ??$get_parameter_type@X@?$positional_parameter_base@_WV?$string_output_adapter@_W@__crt_stdio_output@@@__crt_stdio_output@@CA?AW4parameter_type@01@PAX@Z 100499a0 f i libucrtd:output.obj
 0001:000489b0       ??$is_character_specifier@D@?$positional_parameter_base@DV?$stream_output_adapter@D@__crt_stdio_output@@@__crt_stdio_output@@CA_ND@Z 100499b0 f i libucrtd:output.obj
 0001:000489e0       ??$is_character_specifier@D@?$positional_parameter_base@DV?$string_output_adapter@D@__crt_stdio_output@@@__crt_stdio_output@@CA_ND@Z 100499e0 f i libucrtd:output.obj
 0001:00048a10       ??$is_character_specifier@_W@?$positional_parameter_base@_WV?$stream_output_adapter@_W@__crt_stdio_output@@@__crt_stdio_output@@CA_N_W@Z 10049a10 f i libucrtd:output.obj
 0001:00048a40       ??$is_character_specifier@_W@?$positional_parameter_base@_WV?$string_output_adapter@_W@__crt_stdio_output@@@__crt_stdio_output@@CA_N_W@Z 10049a40 f i libucrtd:output.obj
 0001:00048a70       ??$is_integral_specifier@D@?$positional_parameter_base@DV?$stream_output_adapter@D@__crt_stdio_output@@@__crt_stdio_output@@CA_ND@Z 10049a70 f i libucrtd:output.obj
 0001:00048ad0       ??$is_integral_specifier@D@?$positional_parameter_base@DV?$string_output_adapter@D@__crt_stdio_output@@@__crt_stdio_output@@CA_ND@Z 10049ad0 f i libucrtd:output.obj
 0001:00048b30       ??$is_integral_specifier@_W@?$positional_parameter_base@_WV?$stream_output_adapter@_W@__crt_stdio_output@@@__crt_stdio_output@@CA_N_W@Z 10049b30 f i libucrtd:output.obj
 0001:00048b90       ??$is_integral_specifier@_W@?$positional_parameter_base@_WV?$string_output_adapter@_W@__crt_stdio_output@@@__crt_stdio_output@@CA_N_W@Z 10049b90 f i libucrtd:output.obj
 0001:00048bf0       ??$is_pointer_specifier@D@?$positional_parameter_base@DV?$stream_output_adapter@D@__crt_stdio_output@@@__crt_stdio_output@@CA_ND@Z 10049bf0 f i libucrtd:output.obj
 0001:00048c20       ??$is_pointer_specifier@D@?$positional_parameter_base@DV?$string_output_adapter@D@__crt_stdio_output@@@__crt_stdio_output@@CA_ND@Z 10049c20 f i libucrtd:output.obj
 0001:00048c50       ??$is_pointer_specifier@_W@?$positional_parameter_base@_WV?$stream_output_adapter@_W@__crt_stdio_output@@@__crt_stdio_output@@CA_N_W@Z 10049c50 f i libucrtd:output.obj
 0001:00048c80       ??$is_pointer_specifier@_W@?$positional_parameter_base@_WV?$string_output_adapter@_W@__crt_stdio_output@@@__crt_stdio_output@@CA_N_W@Z 10049c80 f i libucrtd:output.obj
 0001:00048cb0       ??$is_string_specifier@D@?$positional_parameter_base@DV?$stream_output_adapter@D@__crt_stdio_output@@@__crt_stdio_output@@CA_ND@Z 10049cb0 f i libucrtd:output.obj
 0001:00048ce0       ??$is_string_specifier@D@?$positional_parameter_base@DV?$string_output_adapter@D@__crt_stdio_output@@@__crt_stdio_output@@CA_ND@Z 10049ce0 f i libucrtd:output.obj
 0001:00048d10       ??$is_string_specifier@_W@?$positional_parameter_base@_WV?$stream_output_adapter@_W@__crt_stdio_output@@@__crt_stdio_output@@CA_N_W@Z 10049d10 f i libucrtd:output.obj
 0001:00048d40       ??$is_string_specifier@_W@?$positional_parameter_base@_WV?$string_output_adapter@_W@__crt_stdio_output@@@__crt_stdio_output@@CA_N_W@Z 10049d40 f i libucrtd:output.obj
 0001:00048d70       ??$is_wide_character_specifier@D@__crt_stdio_output@@YA_N_KDW4length_modifier@0@@Z 10049d70 f i libucrtd:output.obj
 0001:00048df0       ??$is_wide_character_specifier@_W@__crt_stdio_output@@YA_N_K_WW4length_modifier@0@@Z 10049df0 f i libucrtd:output.obj
 0001:00048eb0       ??$peek_va_arg@C@__crt_stdio_output@@YACPAD@Z 10049eb0 f i libucrtd:output.obj
 0001:00048ed0       ??$peek_va_arg@E@__crt_stdio_output@@YAEPAD@Z 10049ed0 f i libucrtd:output.obj
 0001:00048ef0       ??$peek_va_arg@F@__crt_stdio_output@@YAFPAD@Z 10049ef0 f i libucrtd:output.obj
 0001:00048f10       ??$peek_va_arg@G@__crt_stdio_output@@YAGPAD@Z 10049f10 f i libucrtd:output.obj
 0001:00048f30       ??$peek_va_arg@H@__crt_stdio_output@@YAHPAD@Z 10049f30 f i libucrtd:output.obj
 0001:00048f50       ??$peek_va_arg@I@__crt_stdio_output@@YAIPAD@Z 10049f50 f i libucrtd:output.obj
 0001:00048f70       ??$peek_va_arg@PAD@__crt_stdio_output@@YAPADPAD@Z 10049f70 f i libucrtd:output.obj
 0001:00048f90       ??$peek_va_arg@PAUansi_string@?1??type_case_Z@?$output_processor@DV?$stream_output_adapter@D@__crt_stdio_output@@V?$positional_parameter_base@DV?$stream_output_adapter@D@__crt_stdio_output@@@2@@__crt_stdio_output@@AAE_NXZ@@__crt_stdio_output@@YAPAUansi_string@?1??type_case_Z@?$output_processor@DV?$stream_output_adapter@D@__crt_stdio_output@@V?$positional_parameter_base@DV?$stream_output_adapter@D@__crt_stdio_output@@@2@@0@AAE_NXZ@PAD@Z 10049f90 f i libucrtd:output.obj
 0001:00048fb0       ??$peek_va_arg@PAUansi_string@?1??type_case_Z@?$output_processor@DV?$string_output_adapter@D@__crt_stdio_output@@V?$positional_parameter_base@DV?$string_output_adapter@D@__crt_stdio_output@@@2@@__crt_stdio_output@@AAE_NXZ@@__crt_stdio_output@@YAPAUansi_string@?1??type_case_Z@?$output_processor@DV?$string_output_adapter@D@__crt_stdio_output@@V?$positional_parameter_base@DV?$string_output_adapter@D@__crt_stdio_output@@@2@@0@AAE_NXZ@PAD@Z 10049fb0 f i libucrtd:output.obj
 0001:00048fd0       ??$peek_va_arg@PAUansi_string@?1??type_case_Z@?$output_processor@_WV?$stream_output_adapter@_W@__crt_stdio_output@@V?$positional_parameter_base@_WV?$stream_output_adapter@_W@__crt_stdio_output@@@2@@__crt_stdio_output@@AAE_NXZ@@__crt_stdio_output@@YAPAUansi_string@?1??type_case_Z@?$output_processor@_WV?$stream_output_adapter@_W@__crt_stdio_output@@V?$positional_parameter_base@_WV?$stream_output_adapter@_W@__crt_stdio_output@@@2@@0@AAE_NXZ@PAD@Z 10049fd0 f i libucrtd:output.obj
 0001:00048ff0       ??$peek_va_arg@PAUansi_string@?1??type_case_Z@?$output_processor@_WV?$string_output_adapter@_W@__crt_stdio_output@@V?$positional_parameter_base@_WV?$string_output_adapter@_W@__crt_stdio_output@@@2@@__crt_stdio_output@@AAE_NXZ@@__crt_stdio_output@@YAPAUansi_string@?1??type_case_Z@?$output_processor@_WV?$string_output_adapter@_W@__crt_stdio_output@@V?$positional_parameter_base@_WV?$string_output_adapter@_W@__crt_stdio_output@@@2@@0@AAE_NXZ@PAD@Z 10049ff0 f i libucrtd:output.obj
 0001:00049010       ??$peek_va_arg@PAX@__crt_stdio_output@@YAPAXPAD@Z 1004a010 f i libucrtd:output.obj
 0001:00049030       ??$peek_va_arg@U_CRT_DOUBLE@@@__crt_stdio_output@@YA?AU_CRT_DOUBLE@@PAD@Z 1004a030 f i libucrtd:output.obj
 0001:00049050       ??$peek_va_arg@_J@__crt_stdio_output@@YA_JPAD@Z 1004a050 f i libucrtd:output.obj
 0001:00049070       ??$peek_va_arg@_K@__crt_stdio_output@@YA_KPAD@Z 1004a070 f i libucrtd:output.obj
 0001:00049090       ??$peek_va_arg@_W@__crt_stdio_output@@YA_WPAD@Z 1004a090 f i libucrtd:output.obj
 0001:000490b0       ??$puttc_nolock@ABDPAU_iobuf@@@?$__crt_char_traits@D@@SAHABD$$QAPAU_iobuf@@@Z 1004a0b0 f i libucrtd:output.obj
 0001:000490d0       ??$puttc_nolock@AB_WPAU_iobuf@@@?$__crt_char_traits@_W@@SAGAB_W$$QAPAU_iobuf@@@Z 1004a0d0 f i libucrtd:output.obj
 0001:000490f0       ??$read_va_arg@C@__crt_stdio_output@@YACAAPAD@Z 1004a0f0 f i libucrtd:output.obj
 0001:00049110       ??$read_va_arg@E@__crt_stdio_output@@YAEAAPAD@Z 1004a110 f i libucrtd:output.obj
 0001:00049130       ??$read_va_arg@F@__crt_stdio_output@@YAFAAPAD@Z 1004a130 f i libucrtd:output.obj
 0001:00049150       ??$read_va_arg@G@__crt_stdio_output@@YAGAAPAD@Z 1004a150 f i libucrtd:output.obj
 0001:00049170       ??$read_va_arg@H@__crt_stdio_output@@YAHAAPAD@Z 1004a170 f i libucrtd:output.obj
 0001:00049190       ??$read_va_arg@I@__crt_stdio_output@@YAIAAPAD@Z 1004a190 f i libucrtd:output.obj
 0001:000491b0       ??$read_va_arg@PAD@__crt_stdio_output@@YAPADAAPAD@Z 1004a1b0 f i libucrtd:output.obj
 0001:000491d0       ??$read_va_arg@PAUansi_string@?1??type_case_Z@?$output_processor@DV?$stream_output_adapter@D@__crt_stdio_output@@V?$format_validation_base@DV?$stream_output_adapter@D@__crt_stdio_output@@@2@@__crt_stdio_output@@AAE_NXZ@@__crt_stdio_output@@YAPAUansi_string@?1??type_case_Z@?$output_processor@DV?$stream_output_adapter@D@__crt_stdio_output@@V?$format_validation_base@DV?$stream_output_adapter@D@__crt_stdio_output@@@2@@0@AAE_NXZ@AAPAD@Z 1004a1d0 f i libucrtd:output.obj
 0001:000491f0       ??$read_va_arg@PAUansi_string@?1??type_case_Z@?$output_processor@DV?$stream_output_adapter@D@__crt_stdio_output@@V?$positional_parameter_base@DV?$stream_output_adapter@D@__crt_stdio_output@@@2@@__crt_stdio_output@@AAE_NXZ@@__crt_stdio_output@@YAPAUansi_string@?1??type_case_Z@?$output_processor@DV?$stream_output_adapter@D@__crt_stdio_output@@V?$positional_parameter_base@DV?$stream_output_adapter@D@__crt_stdio_output@@@2@@0@AAE_NXZ@AAPAD@Z 1004a1f0 f i libucrtd:output.obj
 0001:00049210       ??$read_va_arg@PAUansi_string@?1??type_case_Z@?$output_processor@DV?$stream_output_adapter@D@__crt_stdio_output@@V?$standard_base@DV?$stream_output_adapter@D@__crt_stdio_output@@@2@@__crt_stdio_output@@AAE_NXZ@@__crt_stdio_output@@YAPAUansi_string@?1??type_case_Z@?$output_processor@DV?$stream_output_adapter@D@__crt_stdio_output@@V?$standard_base@DV?$stream_output_adapter@D@__crt_stdio_output@@@2@@0@AAE_NXZ@AAPAD@Z 1004a210 f i libucrtd:output.obj
 0001:00049230       ??$read_va_arg@PAUansi_string@?1??type_case_Z@?$output_processor@DV?$string_output_adapter@D@__crt_stdio_output@@V?$format_validation_base@DV?$string_output_adapter@D@__crt_stdio_output@@@2@@__crt_stdio_output@@AAE_NXZ@@__crt_stdio_output@@YAPAUansi_string@?1??type_case_Z@?$output_processor@DV?$string_output_adapter@D@__crt_stdio_output@@V?$format_validation_base@DV?$string_output_adapter@D@__crt_stdio_output@@@2@@0@AAE_NXZ@AAPAD@Z 1004a230 f i libucrtd:output.obj
 0001:00049250       ??$read_va_arg@PAUansi_string@?1??type_case_Z@?$output_processor@DV?$string_output_adapter@D@__crt_stdio_output@@V?$positional_parameter_base@DV?$string_output_adapter@D@__crt_stdio_output@@@2@@__crt_stdio_output@@AAE_NXZ@@__crt_stdio_output@@YAPAUansi_string@?1??type_case_Z@?$output_processor@DV?$string_output_adapter@D@__crt_stdio_output@@V?$positional_parameter_base@DV?$string_output_adapter@D@__crt_stdio_output@@@2@@0@AAE_NXZ@AAPAD@Z 1004a250 f i libucrtd:output.obj
 0001:00049270       ??$read_va_arg@PAUansi_string@?1??type_case_Z@?$output_processor@DV?$string_output_adapter@D@__crt_stdio_output@@V?$standard_base@DV?$string_output_adapter@D@__crt_stdio_output@@@2@@__crt_stdio_output@@AAE_NXZ@@__crt_stdio_output@@YAPAUansi_string@?1??type_case_Z@?$output_processor@DV?$string_output_adapter@D@__crt_stdio_output@@V?$standard_base@DV?$string_output_adapter@D@__crt_stdio_output@@@2@@0@AAE_NXZ@AAPAD@Z 1004a270 f i libucrtd:output.obj
 0001:00049290       ??$read_va_arg@PAUansi_string@?1??type_case_Z@?$output_processor@_WV?$stream_output_adapter@_W@__crt_stdio_output@@V?$format_validation_base@_WV?$stream_output_adapter@_W@__crt_stdio_output@@@2@@__crt_stdio_output@@AAE_NXZ@@__crt_stdio_output@@YAPAUansi_string@?1??type_case_Z@?$output_processor@_WV?$stream_output_adapter@_W@__crt_stdio_output@@V?$format_validation_base@_WV?$stream_output_adapter@_W@__crt_stdio_output@@@2@@0@AAE_NXZ@AAPAD@Z 1004a290 f i libucrtd:output.obj
 0001:000492b0       ??$read_va_arg@PAUansi_string@?1??type_case_Z@?$output_processor@_WV?$stream_output_adapter@_W@__crt_stdio_output@@V?$positional_parameter_base@_WV?$stream_output_adapter@_W@__crt_stdio_output@@@2@@__crt_stdio_output@@AAE_NXZ@@__crt_stdio_output@@YAPAUansi_string@?1??type_case_Z@?$output_processor@_WV?$stream_output_adapter@_W@__crt_stdio_output@@V?$positional_parameter_base@_WV?$stream_output_adapter@_W@__crt_stdio_output@@@2@@0@AAE_NXZ@AAPAD@Z 1004a2b0 f i libucrtd:output.obj
 0001:000492d0       ??$read_va_arg@PAUansi_string@?1??type_case_Z@?$output_processor@_WV?$stream_output_adapter@_W@__crt_stdio_output@@V?$standard_base@_WV?$stream_output_adapter@_W@__crt_stdio_output@@@2@@__crt_stdio_output@@AAE_NXZ@@__crt_stdio_output@@YAPAUansi_string@?1??type_case_Z@?$output_processor@_WV?$stream_output_adapter@_W@__crt_stdio_output@@V?$standard_base@_WV?$stream_output_adapter@_W@__crt_stdio_output@@@2@@0@AAE_NXZ@AAPAD@Z 1004a2d0 f i libucrtd:output.obj
 0001:000492f0       ??$read_va_arg@PAUansi_string@?1??type_case_Z@?$output_processor@_WV?$string_output_adapter@_W@__crt_stdio_output@@V?$format_validation_base@_WV?$string_output_adapter@_W@__crt_stdio_output@@@2@@__crt_stdio_output@@AAE_NXZ@@__crt_stdio_output@@YAPAUansi_string@?1??type_case_Z@?$output_processor@_WV?$string_output_adapter@_W@__crt_stdio_output@@V?$format_validation_base@_WV?$string_output_adapter@_W@__crt_stdio_output@@@2@@0@AAE_NXZ@AAPAD@Z 1004a2f0 f i libucrtd:output.obj
 0001:00049310       ??$read_va_arg@PAUansi_string@?1??type_case_Z@?$output_processor@_WV?$string_output_adapter@_W@__crt_stdio_output@@V?$positional_parameter_base@_WV?$string_output_adapter@_W@__crt_stdio_output@@@2@@__crt_stdio_output@@AAE_NXZ@@__crt_stdio_output@@YAPAUansi_string@?1??type_case_Z@?$output_processor@_WV?$string_output_adapter@_W@__crt_stdio_output@@V?$positional_parameter_base@_WV?$string_output_adapter@_W@__crt_stdio_output@@@2@@0@AAE_NXZ@AAPAD@Z 1004a310 f i libucrtd:output.obj
 0001:00049330       ??$read_va_arg@PAUansi_string@?1??type_case_Z@?$output_processor@_WV?$string_output_adapter@_W@__crt_stdio_output@@V?$standard_base@_WV?$string_output_adapter@_W@__crt_stdio_output@@@2@@__crt_stdio_output@@AAE_NXZ@@__crt_stdio_output@@YAPAUansi_string@?1??type_case_Z@?$output_processor@_WV?$string_output_adapter@_W@__crt_stdio_output@@V?$standard_base@_WV?$string_output_adapter@_W@__crt_stdio_output@@@2@@0@AAE_NXZ@AAPAD@Z 1004a330 f i libucrtd:output.obj
 0001:00049350       ??$read_va_arg@PAX@__crt_stdio_output@@YAPAXAAPAD@Z 1004a350 f i libucrtd:output.obj
 0001:00049370       ??$read_va_arg@U_CRT_DOUBLE@@@__crt_stdio_output@@YA?AU_CRT_DOUBLE@@AAPAD@Z 1004a370 f i libucrtd:output.obj
 0001:00049390       ??$read_va_arg@_J@__crt_stdio_output@@YA_JAAPAD@Z 1004a390 f i libucrtd:output.obj
 0001:000493b0       ??$read_va_arg@_K@__crt_stdio_output@@YA_KAAPAD@Z 1004a3b0 f i libucrtd:output.obj
 0001:000493d0       ??$read_va_arg@_W@__crt_stdio_output@@YA_WAAPAD@Z 1004a3d0 f i libucrtd:output.obj
 0001:000493f0       ??$scratch_count@D@formatting_buffer@__crt_stdio_output@@QBEIXZ 1004a3f0 f i libucrtd:output.obj
 0001:00049410       ??$scratch_data@D@formatting_buffer@__crt_stdio_output@@QAEPADXZ 1004a410 f i libucrtd:output.obj
 0001:00049460       ??$tcstol@AAPBDPAPADH@?$__crt_char_traits@D@@SAJAAPBD$$QAPAPAD$$QAH@Z 1004a460 f i libucrtd:output.obj
 0001:00049490       ??$tcstol@AAPB_WPAPA_WH@?$__crt_char_traits@_W@@SAJAAPB_W$$QAPAPA_W$$QAH@Z 1004a490 f i libucrtd:output.obj
 0001:000494c0       ??$tcstol@PBDPAPADH@?$__crt_char_traits@D@@SAJ$$QAPBD$$QAPAPAD$$QAH@Z 1004a4c0 f i libucrtd:output.obj
 0001:000494f0       ??$tcstol@PB_WPAPA_WH@?$__crt_char_traits@_W@@SAJ$$QAPB_W$$QAPAPA_W$$QAH@Z 1004a4f0 f i libucrtd:output.obj
 0001:00049520       ??$type_case_integer_parse_into_buffer@I@?$output_processor@DV?$stream_output_adapter@D@__crt_stdio_output@@V?$format_validation_base@DV?$stream_output_adapter@D@__crt_stdio_output@@@2@@__crt_stdio_output@@AAEXII_N@Z 1004a520 f i libucrtd:output.obj
 0001:000495f0       ??$type_case_integer_parse_into_buffer@I@?$output_processor@DV?$stream_output_adapter@D@__crt_stdio_output@@V?$positional_parameter_base@DV?$stream_output_adapter@D@__crt_stdio_output@@@2@@__crt_stdio_output@@AAEXII_N@Z 1004a5f0 f i libucrtd:output.obj
 0001:000496c0       ??$type_case_integer_parse_into_buffer@I@?$output_processor@DV?$stream_output_adapter@D@__crt_stdio_output@@V?$standard_base@DV?$stream_output_adapter@D@__crt_stdio_output@@@2@@__crt_stdio_output@@AAEXII_N@Z 1004a6c0 f i libucrtd:output.obj
 0001:00049790       ??$type_case_integer_parse_into_buffer@I@?$output_processor@DV?$string_output_adapter@D@__crt_stdio_output@@V?$format_validation_base@DV?$string_output_adapter@D@__crt_stdio_output@@@2@@__crt_stdio_output@@AAEXII_N@Z 1004a790 f i libucrtd:output.obj
 0001:00049860       ??$type_case_integer_parse_into_buffer@I@?$output_processor@DV?$string_output_adapter@D@__crt_stdio_output@@V?$positional_parameter_base@DV?$string_output_adapter@D@__crt_stdio_output@@@2@@__crt_stdio_output@@AAEXII_N@Z 1004a860 f i libucrtd:output.obj
 0001:00049930       ??$type_case_integer_parse_into_buffer@I@?$output_processor@DV?$string_output_adapter@D@__crt_stdio_output@@V?$standard_base@DV?$string_output_adapter@D@__crt_stdio_output@@@2@@__crt_stdio_output@@AAEXII_N@Z 1004a930 f i libucrtd:output.obj
 0001:00049a00       ??$type_case_integer_parse_into_buffer@I@?$output_processor@_WV?$stream_output_adapter@_W@__crt_stdio_output@@V?$format_validation_base@_WV?$stream_output_adapter@_W@__crt_stdio_output@@@2@@__crt_stdio_output@@AAEXII_N@Z 1004aa00 f i libucrtd:output.obj
 0001:00049ae0       ??$type_case_integer_parse_into_buffer@I@?$output_processor@_WV?$stream_output_adapter@_W@__crt_stdio_output@@V?$positional_parameter_base@_WV?$stream_output_adapter@_W@__crt_stdio_output@@@2@@__crt_stdio_output@@AAEXII_N@Z 1004aae0 f i libucrtd:output.obj
 0001:00049bc0       ??$type_case_integer_parse_into_buffer@I@?$output_processor@_WV?$stream_output_adapter@_W@__crt_stdio_output@@V?$standard_base@_WV?$stream_output_adapter@_W@__crt_stdio_output@@@2@@__crt_stdio_output@@AAEXII_N@Z 1004abc0 f i libucrtd:output.obj
 0001:00049ca0       ??$type_case_integer_parse_into_buffer@I@?$output_processor@_WV?$string_output_adapter@_W@__crt_stdio_output@@V?$format_validation_base@_WV?$string_output_adapter@_W@__crt_stdio_output@@@2@@__crt_stdio_output@@AAEXII_N@Z 1004aca0 f i libucrtd:output.obj
 0001:00049d80       ??$type_case_integer_parse_into_buffer@I@?$output_processor@_WV?$string_output_adapter@_W@__crt_stdio_output@@V?$positional_parameter_base@_WV?$string_output_adapter@_W@__crt_stdio_output@@@2@@__crt_stdio_output@@AAEXII_N@Z 1004ad80 f i libucrtd:output.obj
 0001:00049e60       ??$type_case_integer_parse_into_buffer@I@?$output_processor@_WV?$string_output_adapter@_W@__crt_stdio_output@@V?$standard_base@_WV?$string_output_adapter@_W@__crt_stdio_output@@@2@@__crt_stdio_output@@AAEXII_N@Z 1004ae60 f i libucrtd:output.obj
 0001:00049f40       ??$type_case_integer_parse_into_buffer@_K@?$output_processor@DV?$stream_output_adapter@D@__crt_stdio_output@@V?$format_validation_base@DV?$stream_output_adapter@D@__crt_stdio_output@@@2@@__crt_stdio_output@@AAEX_KI_N@Z 1004af40 f i libucrtd:output.obj
 0001:0004a030       ??$type_case_integer_parse_into_buffer@_K@?$output_processor@DV?$stream_output_adapter@D@__crt_stdio_output@@V?$positional_parameter_base@DV?$stream_output_adapter@D@__crt_stdio_output@@@2@@__crt_stdio_output@@AAEX_KI_N@Z 1004b030 f i libucrtd:output.obj
 0001:0004a120       ??$type_case_integer_parse_into_buffer@_K@?$output_processor@DV?$stream_output_adapter@D@__crt_stdio_output@@V?$standard_base@DV?$stream_output_adapter@D@__crt_stdio_output@@@2@@__crt_stdio_output@@AAEX_KI_N@Z 1004b120 f i libucrtd:output.obj
 0001:0004a210       ??$type_case_integer_parse_into_buffer@_K@?$output_processor@DV?$string_output_adapter@D@__crt_stdio_output@@V?$format_validation_base@DV?$string_output_adapter@D@__crt_stdio_output@@@2@@__crt_stdio_output@@AAEX_KI_N@Z 1004b210 f i libucrtd:output.obj
 0001:0004a300       ??$type_case_integer_parse_into_buffer@_K@?$output_processor@DV?$string_output_adapter@D@__crt_stdio_output@@V?$positional_parameter_base@DV?$string_output_adapter@D@__crt_stdio_output@@@2@@__crt_stdio_output@@AAEX_KI_N@Z 1004b300 f i libucrtd:output.obj
 0001:0004a3f0       ??$type_case_integer_parse_into_buffer@_K@?$output_processor@DV?$string_output_adapter@D@__crt_stdio_output@@V?$standard_base@DV?$string_output_adapter@D@__crt_stdio_output@@@2@@__crt_stdio_output@@AAEX_KI_N@Z 1004b3f0 f i libucrtd:output.obj
 0001:0004a4e0       ??$type_case_integer_parse_into_buffer@_K@?$output_processor@_WV?$stream_output_adapter@_W@__crt_stdio_output@@V?$format_validation_base@_WV?$stream_output_adapter@_W@__crt_stdio_output@@@2@@__crt_stdio_output@@AAEX_KI_N@Z 1004b4e0 f i libucrtd:output.obj
 0001:0004a5e0       ??$type_case_integer_parse_into_buffer@_K@?$output_processor@_WV?$stream_output_adapter@_W@__crt_stdio_output@@V?$positional_parameter_base@_WV?$stream_output_adapter@_W@__crt_stdio_output@@@2@@__crt_stdio_output@@AAEX_KI_N@Z 1004b5e0 f i libucrtd:output.obj
 0001:0004a6e0       ??$type_case_integer_parse_into_buffer@_K@?$output_processor@_WV?$stream_output_adapter@_W@__crt_stdio_output@@V?$standard_base@_WV?$stream_output_adapter@_W@__crt_stdio_output@@@2@@__crt_stdio_output@@AAEX_KI_N@Z 1004b6e0 f i libucrtd:output.obj
 0001:0004a7e0       ??$type_case_integer_parse_into_buffer@_K@?$output_processor@_WV?$string_output_adapter@_W@__crt_stdio_output@@V?$format_validation_base@_WV?$string_output_adapter@_W@__crt_stdio_output@@@2@@__crt_stdio_output@@AAEX_KI_N@Z 1004b7e0 f i libucrtd:output.obj
 0001:0004a8e0       ??$type_case_integer_parse_into_buffer@_K@?$output_processor@_WV?$string_output_adapter@_W@__crt_stdio_output@@V?$positional_parameter_base@_WV?$string_output_adapter@_W@__crt_stdio_output@@@2@@__crt_stdio_output@@AAEX_KI_N@Z 1004b8e0 f i libucrtd:output.obj
 0001:0004a9e0       ??$type_case_integer_parse_into_buffer@_K@?$output_processor@_WV?$string_output_adapter@_W@__crt_stdio_output@@V?$standard_base@_WV?$string_output_adapter@_W@__crt_stdio_output@@@2@@__crt_stdio_output@@AAEX_KI_N@Z 1004b9e0 f i libucrtd:output.obj
 0001:0004aae0       ??$write_multiple_characters@V?$stream_output_adapter@D@__crt_stdio_output@@D@__crt_stdio_output@@YAXABV?$stream_output_adapter@D@0@DHQAH@Z 1004bae0 f i libucrtd:output.obj
 0001:0004ab30       ??$write_multiple_characters@V?$stream_output_adapter@_W@__crt_stdio_output@@D@__crt_stdio_output@@YAXABV?$stream_output_adapter@_W@0@DHQAH@Z 1004bb30 f i libucrtd:output.obj
 0001:0004ab80       ??$write_multiple_characters@V?$string_output_adapter@D@__crt_stdio_output@@D@__crt_stdio_output@@YAXABV?$string_output_adapter@D@0@DHQAH@Z 1004bb80 f i libucrtd:output.obj
 0001:0004abd0       ??$write_multiple_characters@V?$string_output_adapter@_W@__crt_stdio_output@@D@__crt_stdio_output@@YAXABV?$string_output_adapter@_W@0@DHQAH@Z 1004bbd0 f i libucrtd:output.obj
 0001:0004af20       ??0?$common_data@D@__crt_stdio_output@@IAE@XZ 1004bf20 f i libucrtd:output.obj
 0001:0004afd0       ??0?$common_data@_W@__crt_stdio_output@@IAE@XZ 1004bfd0 f i libucrtd:output.obj
 0001:0004b080       ??0?$output_adapter_data@DV?$stream_output_adapter@D@__crt_stdio_output@@@__crt_stdio_output@@IAE@ABV?$stream_output_adapter@D@1@_KQBDQAU__crt_locale_pointers@@QAD@Z 1004c080 f i libucrtd:output.obj
 0001:0004b0e0       ??0?$output_adapter_data@DV?$string_output_adapter@D@__crt_stdio_output@@@__crt_stdio_output@@IAE@ABV?$string_output_adapter@D@1@_KQBDQAU__crt_locale_pointers@@QAD@Z 1004c0e0 f i libucrtd:output.obj
 0001:0004b140       ??0?$output_adapter_data@_WV?$stream_output_adapter@_W@__crt_stdio_output@@@__crt_stdio_output@@IAE@ABV?$stream_output_adapter@_W@1@_KQB_WQAU__crt_locale_pointers@@QAD@Z 1004c140 f i libucrtd:output.obj
 0001:0004b1a0       ??0?$output_adapter_data@_WV?$string_output_adapter@_W@__crt_stdio_output@@@__crt_stdio_output@@IAE@ABV?$string_output_adapter@_W@1@_KQB_WQAU__crt_locale_pointers@@QAD@Z 1004c1a0 f i libucrtd:output.obj
 0001:0004b200       ??0?$output_processor@DV?$stream_output_adapter@D@__crt_stdio_output@@V?$format_validation_base@DV?$stream_output_adapter@D@__crt_stdio_output@@@2@@__crt_stdio_output@@QAE@ABV?$stream_output_adapter@D@1@_KQBDQAU__crt_locale_pointers@@QAD@Z 1004c200 f i libucrtd:output.obj
 0001:0004b230       ??0?$output_processor@DV?$stream_output_adapter@D@__crt_stdio_output@@V?$positional_parameter_base@DV?$stream_output_adapter@D@__crt_stdio_output@@@2@@__crt_stdio_output@@QAE@ABV?$stream_output_adapter@D@1@_KQBDQAU__crt_locale_pointers@@QAD@Z 1004c230 f i libucrtd:output.obj
 0001:0004b260       ??0?$output_processor@DV?$stream_output_adapter@D@__crt_stdio_output@@V?$standard_base@DV?$stream_output_adapter@D@__crt_stdio_output@@@2@@__crt_stdio_output@@QAE@ABV?$stream_output_adapter@D@1@_KQBDQAU__crt_locale_pointers@@QAD@Z 1004c260 f i libucrtd:output.obj
 0001:0004b290       ??0?$output_processor@DV?$string_output_adapter@D@__crt_stdio_output@@V?$format_validation_base@DV?$string_output_adapter@D@__crt_stdio_output@@@2@@__crt_stdio_output@@QAE@ABV?$string_output_adapter@D@1@_KQBDQAU__crt_locale_pointers@@QAD@Z 1004c290 f i libucrtd:output.obj
 0001:0004b2c0       ??0?$output_processor@DV?$string_output_adapter@D@__crt_stdio_output@@V?$positional_parameter_base@DV?$string_output_adapter@D@__crt_stdio_output@@@2@@__crt_stdio_output@@QAE@ABV?$string_output_adapter@D@1@_KQBDQAU__crt_locale_pointers@@QAD@Z 1004c2c0 f i libucrtd:output.obj
 0001:0004b2f0       ??0?$output_processor@DV?$string_output_adapter@D@__crt_stdio_output@@V?$standard_base@DV?$string_output_adapter@D@__crt_stdio_output@@@2@@__crt_stdio_output@@QAE@ABV?$string_output_adapter@D@1@_KQBDQAU__crt_locale_pointers@@QAD@Z 1004c2f0 f i libucrtd:output.obj
 0001:0004b320       ??0?$output_processor@_WV?$stream_output_adapter@_W@__crt_stdio_output@@V?$format_validation_base@_WV?$stream_output_adapter@_W@__crt_stdio_output@@@2@@__crt_stdio_output@@QAE@ABV?$stream_output_adapter@_W@1@_KQB_WQAU__crt_locale_pointers@@QAD@Z 1004c320 f i libucrtd:output.obj
 0001:0004b350       ??0?$output_processor@_WV?$stream_output_adapter@_W@__crt_stdio_output@@V?$positional_parameter_base@_WV?$stream_output_adapter@_W@__crt_stdio_output@@@2@@__crt_stdio_output@@QAE@ABV?$stream_output_adapter@_W@1@_KQB_WQAU__crt_locale_pointers@@QAD@Z 1004c350 f i libucrtd:output.obj
 0001:0004b380       ??0?$output_processor@_WV?$stream_output_adapter@_W@__crt_stdio_output@@V?$standard_base@_WV?$stream_output_adapter@_W@__crt_stdio_output@@@2@@__crt_stdio_output@@QAE@ABV?$stream_output_adapter@_W@1@_KQB_WQAU__crt_locale_pointers@@QAD@Z 1004c380 f i libucrtd:output.obj
 0001:0004b3b0       ??0?$output_processor@_WV?$string_output_adapter@_W@__crt_stdio_output@@V?$format_validation_base@_WV?$string_output_adapter@_W@__crt_stdio_output@@@2@@__crt_stdio_output@@QAE@ABV?$string_output_adapter@_W@1@_KQB_WQAU__crt_locale_pointers@@QAD@Z 1004c3b0 f i libucrtd:output.obj
 0001:0004b3e0       ??0?$output_processor@_WV?$string_output_adapter@_W@__crt_stdio_output@@V?$positional_parameter_base@_WV?$string_output_adapter@_W@__crt_stdio_output@@@2@@__crt_stdio_output@@QAE@ABV?$string_output_adapter@_W@1@_KQB_WQAU__crt_locale_pointers@@QAD@Z 1004c3e0 f i libucrtd:output.obj
 0001:0004b410       ??0?$output_processor@_WV?$string_output_adapter@_W@__crt_stdio_output@@V?$standard_base@_WV?$string_output_adapter@_W@__crt_stdio_output@@@2@@__crt_stdio_output@@QAE@ABV?$string_output_adapter@_W@1@_KQB_WQAU__crt_locale_pointers@@QAD@Z 1004c410 f i libucrtd:output.obj
 0001:0004b440       ??0?$stream_output_adapter@D@__crt_stdio_output@@QAE@QAU_iobuf@@@Z 1004c440 f i libucrtd:output.obj
 0001:0004b460       ??0?$stream_output_adapter@_W@__crt_stdio_output@@QAE@QAU_iobuf@@@Z 1004c460 f i libucrtd:output.obj
 0001:0004b480       ??0?$string_output_adapter@D@__crt_stdio_output@@QAE@QAU?$string_output_adapter_context@D@1@@Z 1004c480 f i libucrtd:output.obj
 0001:0004b4a0       ??0?$string_output_adapter@_W@__crt_stdio_output@@QAE@QAU?$string_output_adapter_context@_W@1@@Z 1004c4a0 f i libucrtd:output.obj
 0001:0004b4c0       ??0_LocaleUpdate@@QAE@QAU__crt_locale_pointers@@@Z 1004c4c0 f i libucrtd:output.obj
 0001:0004b590       ??0__acrt_stdio_temporary_buffering_guard@@QAE@QAU_iobuf@@@Z 1004c590 f i libucrtd:output.obj
 0001:0004b5c0       ??0__crt_deferred_errno_cache@@QAE@XZ 1004c5c0 f i libucrtd:output.obj
 0001:0004b5e0       ??0__crt_errno_guard@@QAE@QAH@Z 1004c5e0 f i libucrtd:output.obj
 0001:0004b610       ??0__crt_stdio_stream@@QAE@QAU_iobuf@@@Z 1004c610 f i libucrtd:output.obj
 0001:0004b630       ??0formatting_buffer@__crt_stdio_output@@QAE@XZ 1004c630 f i libucrtd:output.obj
 0001:0004b660       ??1?$common_data@D@__crt_stdio_output@@QAE@XZ 1004c660 f i libucrtd:output.obj
 0001:0004b680       ??1?$common_data@_W@__crt_stdio_output@@QAE@XZ 1004c680 f i libucrtd:output.obj
 0001:0004b6a0       ??1?$format_validation_base@DV?$stream_output_adapter@D@__crt_stdio_output@@@__crt_stdio_output@@QAE@XZ 1004c6a0 f i libucrtd:output.obj
 0001:0004b6c0       ??1?$format_validation_base@DV?$string_output_adapter@D@__crt_stdio_output@@@__crt_stdio_output@@QAE@XZ 1004c6c0 f i libucrtd:output.obj
 0001:0004b6e0       ??1?$format_validation_base@_WV?$stream_output_adapter@_W@__crt_stdio_output@@@__crt_stdio_output@@QAE@XZ 1004c6e0 f i libucrtd:output.obj
 0001:0004b700       ??1?$format_validation_base@_WV?$string_output_adapter@_W@__crt_stdio_output@@@__crt_stdio_output@@QAE@XZ 1004c700 f i libucrtd:output.obj
 0001:0004b720       ??1?$output_adapter_data@DV?$stream_output_adapter@D@__crt_stdio_output@@@__crt_stdio_output@@QAE@XZ 1004c720 f i libucrtd:output.obj
 0001:0004b740       ??1?$output_adapter_data@DV?$string_output_adapter@D@__crt_stdio_output@@@__crt_stdio_output@@QAE@XZ 1004c740 f i libucrtd:output.obj
 0001:0004b760       ??1?$output_adapter_data@_WV?$stream_output_adapter@_W@__crt_stdio_output@@@__crt_stdio_output@@QAE@XZ 1004c760 f i libucrtd:output.obj
 0001:0004b780       ??1?$output_adapter_data@_WV?$string_output_adapter@_W@__crt_stdio_output@@@__crt_stdio_output@@QAE@XZ 1004c780 f i libucrtd:output.obj
 0001:0004b7a0       ??1?$output_processor@DV?$stream_output_adapter@D@__crt_stdio_output@@V?$format_validation_base@DV?$stream_output_adapter@D@__crt_stdio_output@@@2@@__crt_stdio_output@@QAE@XZ 1004c7a0 f i libucrtd:output.obj
 0001:0004b7c0       ??1?$output_processor@DV?$stream_output_adapter@D@__crt_stdio_output@@V?$positional_parameter_base@DV?$stream_output_adapter@D@__crt_stdio_output@@@2@@__crt_stdio_output@@QAE@XZ 1004c7c0 f i libucrtd:output.obj
 0001:0004b7e0       ??1?$output_processor@DV?$stream_output_adapter@D@__crt_stdio_output@@V?$standard_base@DV?$stream_output_adapter@D@__crt_stdio_output@@@2@@__crt_stdio_output@@QAE@XZ 1004c7e0 f i libucrtd:output.obj
 0001:0004b800       ??1?$output_processor@DV?$string_output_adapter@D@__crt_stdio_output@@V?$format_validation_base@DV?$string_output_adapter@D@__crt_stdio_output@@@2@@__crt_stdio_output@@QAE@XZ 1004c800 f i libucrtd:output.obj
 0001:0004b820       ??1?$output_processor@DV?$string_output_adapter@D@__crt_stdio_output@@V?$positional_parameter_base@DV?$string_output_adapter@D@__crt_stdio_output@@@2@@__crt_stdio_output@@QAE@XZ 1004c820 f i libucrtd:output.obj
 0001:0004b840       ??1?$output_processor@DV?$string_output_adapter@D@__crt_stdio_output@@V?$standard_base@DV?$string_output_adapter@D@__crt_stdio_output@@@2@@__crt_stdio_output@@QAE@XZ 1004c840 f i libucrtd:output.obj
 0001:0004b860       ??1?$output_processor@_WV?$stream_output_adapter@_W@__crt_stdio_output@@V?$format_validation_base@_WV?$stream_output_adapter@_W@__crt_stdio_output@@@2@@__crt_stdio_output@@QAE@XZ 1004c860 f i libucrtd:output.obj
 0001:0004b880       ??1?$output_processor@_WV?$stream_output_adapter@_W@__crt_stdio_output@@V?$positional_parameter_base@_WV?$stream_output_adapter@_W@__crt_stdio_output@@@2@@__crt_stdio_output@@QAE@XZ 1004c880 f i libucrtd:output.obj
 0001:0004b8a0       ??1?$output_processor@_WV?$stream_output_adapter@_W@__crt_stdio_output@@V?$standard_base@_WV?$stream_output_adapter@_W@__crt_stdio_output@@@2@@__crt_stdio_output@@QAE@XZ 1004c8a0 f i libucrtd:output.obj
 0001:0004b8c0       ??1?$output_processor@_WV?$string_output_adapter@_W@__crt_stdio_output@@V?$format_validation_base@_WV?$string_output_adapter@_W@__crt_stdio_output@@@2@@__crt_stdio_output@@QAE@XZ 1004c8c0 f i libucrtd:output.obj
 0001:0004b8e0       ??1?$output_processor@_WV?$string_output_adapter@_W@__crt_stdio_output@@V?$positional_parameter_base@_WV?$string_output_adapter@_W@__crt_stdio_output@@@2@@__crt_stdio_output@@QAE@XZ 1004c8e0 f i libucrtd:output.obj
 0001:0004b900       ??1?$output_processor@_WV?$string_output_adapter@_W@__crt_stdio_output@@V?$standard_base@_WV?$string_output_adapter@_W@__crt_stdio_output@@@2@@__crt_stdio_output@@QAE@XZ 1004c900 f i libucrtd:output.obj
 0001:0004b920       ??1?$positional_parameter_base@DV?$stream_output_adapter@D@__crt_stdio_output@@@__crt_stdio_output@@QAE@XZ 1004c920 f i libucrtd:output.obj
 0001:0004b940       ??1?$positional_parameter_base@DV?$string_output_adapter@D@__crt_stdio_output@@@__crt_stdio_output@@QAE@XZ 1004c940 f i libucrtd:output.obj
 0001:0004b960       ??1?$positional_parameter_base@_WV?$stream_output_adapter@_W@__crt_stdio_output@@@__crt_stdio_output@@QAE@XZ 1004c960 f i libucrtd:output.obj
 0001:0004b980       ??1?$positional_parameter_base@_WV?$string_output_adapter@_W@__crt_stdio_output@@@__crt_stdio_output@@QAE@XZ 1004c980 f i libucrtd:output.obj
 0001:0004b9a0       ??1?$standard_base@DV?$stream_output_adapter@D@__crt_stdio_output@@@__crt_stdio_output@@QAE@XZ 1004c9a0 f i libucrtd:output.obj
 0001:0004b9c0       ??1?$standard_base@DV?$string_output_adapter@D@__crt_stdio_output@@@__crt_stdio_output@@QAE@XZ 1004c9c0 f i libucrtd:output.obj
 0001:0004b9e0       ??1?$standard_base@_WV?$stream_output_adapter@_W@__crt_stdio_output@@@__crt_stdio_output@@QAE@XZ 1004c9e0 f i libucrtd:output.obj
 0001:0004ba00       ??1?$standard_base@_WV?$string_output_adapter@_W@__crt_stdio_output@@@__crt_stdio_output@@QAE@XZ 1004ca00 f i libucrtd:output.obj
 0001:0004ba20       ??1_LocaleUpdate@@QAE@XZ   1004ca20 f i libucrtd:output.obj
 0001:0004ba50       ??1__acrt_stdio_temporary_buffering_guard@@QAE@XZ 1004ca50 f i libucrtd:output.obj
 0001:0004ba80       ??1__crt_errno_guard@@QAE@XZ 1004ca80 f i libucrtd:output.obj
 0001:0004bab0       ??1formatting_buffer@__crt_stdio_output@@QAE@XZ 1004cab0 f i libucrtd:output.obj
 0001:0004bad0       ??4?$__crt_unique_heap_ptr@DU__crt_internal_free_policy@@@@QAEAAV0@$$QAV0@@Z 1004cad0 f i libucrtd:output.obj
 0001:0004bb00       ??A?$spectre_mitigated_lookup_table@Ustate_transition_pair@__crt_stdio_output@@$0IA@@__crt_stdio_output@@QBEABUstate_transition_pair@1@I@Z 1004cb00 f i libucrtd:output.obj
 0001:0004bb20       ??C__crt_stdio_stream@@QBEPAU__crt_stdio_stream_data@@XZ 1004cb20 f i libucrtd:output.obj
 0001:0004c260       ?GetLocaleT@_LocaleUpdate@@QAEPAU__crt_locale_pointers@@XZ 1004d260 f i libucrtd:output.obj
 0001:0004c280       ?adjust_hexit@?$output_processor@DV?$stream_output_adapter@D@__crt_stdio_output@@V?$format_validation_base@DV?$stream_output_adapter@D@__crt_stdio_output@@@2@@__crt_stdio_output@@CADH_N@Z 1004d280 f i libucrtd:output.obj
 0001:0004c2c0       ?adjust_hexit@?$output_processor@DV?$stream_output_adapter@D@__crt_stdio_output@@V?$positional_parameter_base@DV?$stream_output_adapter@D@__crt_stdio_output@@@2@@__crt_stdio_output@@CADH_N@Z 1004d2c0 f i libucrtd:output.obj
 0001:0004c300       ?adjust_hexit@?$output_processor@DV?$stream_output_adapter@D@__crt_stdio_output@@V?$standard_base@DV?$stream_output_adapter@D@__crt_stdio_output@@@2@@__crt_stdio_output@@CADH_N@Z 1004d300 f i libucrtd:output.obj
 0001:0004c340       ?adjust_hexit@?$output_processor@DV?$string_output_adapter@D@__crt_stdio_output@@V?$format_validation_base@DV?$string_output_adapter@D@__crt_stdio_output@@@2@@__crt_stdio_output@@CADH_N@Z 1004d340 f i libucrtd:output.obj
 0001:0004c380       ?adjust_hexit@?$output_processor@DV?$string_output_adapter@D@__crt_stdio_output@@V?$positional_parameter_base@DV?$string_output_adapter@D@__crt_stdio_output@@@2@@__crt_stdio_output@@CADH_N@Z 1004d380 f i libucrtd:output.obj
 0001:0004c3c0       ?adjust_hexit@?$output_processor@DV?$string_output_adapter@D@__crt_stdio_output@@V?$standard_base@DV?$string_output_adapter@D@__crt_stdio_output@@@2@@__crt_stdio_output@@CADH_N@Z 1004d3c0 f i libucrtd:output.obj
 0001:0004c400       ?adjust_hexit@?$output_processor@_WV?$stream_output_adapter@_W@__crt_stdio_output@@V?$format_validation_base@_WV?$stream_output_adapter@_W@__crt_stdio_output@@@2@@__crt_stdio_output@@CADH_N@Z 1004d400 f i libucrtd:output.obj
 0001:0004c440       ?adjust_hexit@?$output_processor@_WV?$stream_output_adapter@_W@__crt_stdio_output@@V?$positional_parameter_base@_WV?$stream_output_adapter@_W@__crt_stdio_output@@@2@@__crt_stdio_output@@CADH_N@Z 1004d440 f i libucrtd:output.obj
 0001:0004c480       ?adjust_hexit@?$output_processor@_WV?$stream_output_adapter@_W@__crt_stdio_output@@V?$standard_base@_WV?$stream_output_adapter@_W@__crt_stdio_output@@@2@@__crt_stdio_output@@CADH_N@Z 1004d480 f i libucrtd:output.obj
 0001:0004c4c0       ?adjust_hexit@?$output_processor@_WV?$string_output_adapter@_W@__crt_stdio_output@@V?$format_validation_base@_WV?$string_output_adapter@_W@__crt_stdio_output@@@2@@__crt_stdio_output@@CADH_N@Z 1004d4c0 f i libucrtd:output.obj
 0001:0004c500       ?adjust_hexit@?$output_processor@_WV?$string_output_adapter@_W@__crt_stdio_output@@V?$positional_parameter_base@_WV?$string_output_adapter@_W@__crt_stdio_output@@@2@@__crt_stdio_output@@CADH_N@Z 1004d500 f i libucrtd:output.obj
 0001:0004c540       ?adjust_hexit@?$output_processor@_WV?$string_output_adapter@_W@__crt_stdio_output@@V?$standard_base@_WV?$string_output_adapter@_W@__crt_stdio_output@@@2@@__crt_stdio_output@@CADH_N@Z 1004d540 f i libucrtd:output.obj
 0001:0004c580       ?advance_to_next_pass@?$positional_parameter_base@DV?$stream_output_adapter@D@__crt_stdio_output@@@__crt_stdio_output@@IAE_NXZ 1004d580 f i libucrtd:output.obj
 0001:0004c620       ?advance_to_next_pass@?$positional_parameter_base@DV?$string_output_adapter@D@__crt_stdio_output@@@__crt_stdio_output@@IAE_NXZ 1004d620 f i libucrtd:output.obj
 0001:0004c6c0       ?advance_to_next_pass@?$positional_parameter_base@_WV?$stream_output_adapter@_W@__crt_stdio_output@@@__crt_stdio_output@@IAE_NXZ 1004d6c0 f i libucrtd:output.obj
 0001:0004c760       ?advance_to_next_pass@?$positional_parameter_base@_WV?$string_output_adapter@_W@__crt_stdio_output@@@__crt_stdio_output@@IAE_NXZ 1004d760 f i libucrtd:output.obj
 0001:0004c800       ?advance_to_next_pass@?$standard_base@DV?$stream_output_adapter@D@__crt_stdio_output@@@__crt_stdio_output@@IAE_NXZ 1004d800 f i libucrtd:output.obj
 0001:0004c850       ?advance_to_next_pass@?$standard_base@DV?$string_output_adapter@D@__crt_stdio_output@@@__crt_stdio_output@@IAE_NXZ 1004d850 f i libucrtd:output.obj
 0001:0004c8a0       ?advance_to_next_pass@?$standard_base@_WV?$stream_output_adapter@_W@__crt_stdio_output@@@__crt_stdio_output@@IAE_NXZ 1004d8a0 f i libucrtd:output.obj
 0001:0004c8f0       ?advance_to_next_pass@?$standard_base@_WV?$string_output_adapter@_W@__crt_stdio_output@@@__crt_stdio_output@@IAE_NXZ 1004d8f0 f i libucrtd:output.obj
 0001:0004c940       ?crop_zeroes@__crt_stdio_output@@YAXPADQAU__crt_locale_pointers@@@Z 1004d940 f i libucrtd:output.obj
 0001:0004ca40       ?find_next_state@?$output_processor@DV?$stream_output_adapter@D@__crt_stdio_output@@V?$format_validation_base@DV?$stream_output_adapter@D@__crt_stdio_output@@@2@@__crt_stdio_output@@ABE?AW4state@2@DW432@@Z 1004da40 f i libucrtd:output.obj
 0001:0004cab0       ?find_next_state@?$output_processor@DV?$stream_output_adapter@D@__crt_stdio_output@@V?$positional_parameter_base@DV?$stream_output_adapter@D@__crt_stdio_output@@@2@@__crt_stdio_output@@ABE?AW4state@2@DW432@@Z 1004dab0 f i libucrtd:output.obj
 0001:0004cb20       ?find_next_state@?$output_processor@DV?$stream_output_adapter@D@__crt_stdio_output@@V?$standard_base@DV?$stream_output_adapter@D@__crt_stdio_output@@@2@@__crt_stdio_output@@ABE?AW4state@2@DW432@@Z 1004db20 f i libucrtd:output.obj
 0001:0004cb90       ?find_next_state@?$output_processor@DV?$string_output_adapter@D@__crt_stdio_output@@V?$format_validation_base@DV?$string_output_adapter@D@__crt_stdio_output@@@2@@__crt_stdio_output@@ABE?AW4state@2@DW432@@Z 1004db90 f i libucrtd:output.obj
 0001:0004cc00       ?find_next_state@?$output_processor@DV?$string_output_adapter@D@__crt_stdio_output@@V?$positional_parameter_base@DV?$string_output_adapter@D@__crt_stdio_output@@@2@@__crt_stdio_output@@ABE?AW4state@2@DW432@@Z 1004dc00 f i libucrtd:output.obj
 0001:0004cc70       ?find_next_state@?$output_processor@DV?$string_output_adapter@D@__crt_stdio_output@@V?$standard_base@DV?$string_output_adapter@D@__crt_stdio_output@@@2@@__crt_stdio_output@@ABE?AW4state@2@DW432@@Z 1004dc70 f i libucrtd:output.obj
 0001:0004cce0       ?find_next_state@?$output_processor@_WV?$stream_output_adapter@_W@__crt_stdio_output@@V?$format_validation_base@_WV?$stream_output_adapter@_W@__crt_stdio_output@@@2@@__crt_stdio_output@@ABE?AW4state@2@_WW432@@Z 1004dce0 f i libucrtd:output.obj
 0001:0004cd50       ?find_next_state@?$output_processor@_WV?$stream_output_adapter@_W@__crt_stdio_output@@V?$positional_parameter_base@_WV?$stream_output_adapter@_W@__crt_stdio_output@@@2@@__crt_stdio_output@@ABE?AW4state@2@_WW432@@Z 1004dd50 f i libucrtd:output.obj
 0001:0004cdc0       ?find_next_state@?$output_processor@_WV?$stream_output_adapter@_W@__crt_stdio_output@@V?$standard_base@_WV?$stream_output_adapter@_W@__crt_stdio_output@@@2@@__crt_stdio_output@@ABE?AW4state@2@_WW432@@Z 1004ddc0 f i libucrtd:output.obj
 0001:0004ce30       ?find_next_state@?$output_processor@_WV?$string_output_adapter@_W@__crt_stdio_output@@V?$format_validation_base@_WV?$string_output_adapter@_W@__crt_stdio_output@@@2@@__crt_stdio_output@@ABE?AW4state@2@_WW432@@Z 1004de30 f i libucrtd:output.obj
 0001:0004cea0       ?find_next_state@?$output_processor@_WV?$string_output_adapter@_W@__crt_stdio_output@@V?$positional_parameter_base@_WV?$string_output_adapter@_W@__crt_stdio_output@@@2@@__crt_stdio_output@@ABE?AW4state@2@_WW432@@Z 1004dea0 f i libucrtd:output.obj
 0001:0004cf10       ?find_next_state@?$output_processor@_WV?$string_output_adapter@_W@__crt_stdio_output@@V?$standard_base@_WV?$string_output_adapter@_W@__crt_stdio_output@@@2@@__crt_stdio_output@@ABE?AW4state@2@_WW432@@Z 1004df10 f i libucrtd:output.obj
 0001:0004cf80       ?force_decimal_point@__crt_stdio_output@@YAXPADQAU__crt_locale_pointers@@@Z 1004df80 f i libucrtd:output.obj
 0001:0004d050       ?get@__crt_deferred_errno_cache@@QAEAAHXZ 1004e050 f i libucrtd:output.obj
 0001:0004d080       ?get_flags@__crt_stdio_stream@@QBEJXZ 1004e080 f i libucrtd:output.obj
 0001:0004d0a0       ?get_parameter_type@?$positional_parameter_base@DV?$stream_output_adapter@D@__crt_stdio_output@@@__crt_stdio_output@@CA?AW4parameter_type@12@F@Z 1004e0a0 f i libucrtd:output.obj
 0001:0004d0b0       ?get_parameter_type@?$positional_parameter_base@DV?$stream_output_adapter@D@__crt_stdio_output@@@__crt_stdio_output@@CA?AW4parameter_type@12@G@Z 1004e0b0 f i libucrtd:output.obj
 0001:0004d0c0       ?get_parameter_type@?$positional_parameter_base@DV?$stream_output_adapter@D@__crt_stdio_output@@@__crt_stdio_output@@CA?AW4parameter_type@12@H@Z 1004e0c0 f i libucrtd:output.obj
 0001:0004d0d0       ?get_parameter_type@?$positional_parameter_base@DV?$stream_output_adapter@D@__crt_stdio_output@@@__crt_stdio_output@@CA?AW4parameter_type@12@I@Z 1004e0d0 f i libucrtd:output.obj
 0001:0004d0e0       ?get_parameter_type@?$positional_parameter_base@DV?$stream_output_adapter@D@__crt_stdio_output@@@__crt_stdio_output@@CA?AW4parameter_type@12@U_CRT_DOUBLE@@@Z 1004e0e0 f i libucrtd:output.obj
 0001:0004d0f0       ?get_parameter_type@?$positional_parameter_base@DV?$stream_output_adapter@D@__crt_stdio_output@@@__crt_stdio_output@@CA?AW4parameter_type@12@_J@Z 1004e0f0 f i libucrtd:output.obj
 0001:0004d100       ?get_parameter_type@?$positional_parameter_base@DV?$stream_output_adapter@D@__crt_stdio_output@@@__crt_stdio_output@@CA?AW4parameter_type@12@_K@Z 1004e100 f i libucrtd:output.obj
 0001:0004d110       ?get_parameter_type@?$positional_parameter_base@DV?$stream_output_adapter@D@__crt_stdio_output@@@__crt_stdio_output@@CA?AW4parameter_type@12@_W@Z 1004e110 f i libucrtd:output.obj
 0001:0004d120       ?get_parameter_type@?$positional_parameter_base@DV?$string_output_adapter@D@__crt_stdio_output@@@__crt_stdio_output@@CA?AW4parameter_type@12@F@Z 1004e120 f i libucrtd:output.obj
 0001:0004d130       ?get_parameter_type@?$positional_parameter_base@DV?$string_output_adapter@D@__crt_stdio_output@@@__crt_stdio_output@@CA?AW4parameter_type@12@G@Z 1004e130 f i libucrtd:output.obj
 0001:0004d140       ?get_parameter_type@?$positional_parameter_base@DV?$string_output_adapter@D@__crt_stdio_output@@@__crt_stdio_output@@CA?AW4parameter_type@12@H@Z 1004e140 f i libucrtd:output.obj
 0001:0004d150       ?get_parameter_type@?$positional_parameter_base@DV?$string_output_adapter@D@__crt_stdio_output@@@__crt_stdio_output@@CA?AW4parameter_type@12@I@Z 1004e150 f i libucrtd:output.obj
 0001:0004d160       ?get_parameter_type@?$positional_parameter_base@DV?$string_output_adapter@D@__crt_stdio_output@@@__crt_stdio_output@@CA?AW4parameter_type@12@U_CRT_DOUBLE@@@Z 1004e160 f i libucrtd:output.obj
 0001:0004d170       ?get_parameter_type@?$positional_parameter_base@DV?$string_output_adapter@D@__crt_stdio_output@@@__crt_stdio_output@@CA?AW4parameter_type@12@_J@Z 1004e170 f i libucrtd:output.obj
 0001:0004d180       ?get_parameter_type@?$positional_parameter_base@DV?$string_output_adapter@D@__crt_stdio_output@@@__crt_stdio_output@@CA?AW4parameter_type@12@_K@Z 1004e180 f i libucrtd:output.obj
 0001:0004d190       ?get_parameter_type@?$positional_parameter_base@DV?$string_output_adapter@D@__crt_stdio_output@@@__crt_stdio_output@@CA?AW4parameter_type@12@_W@Z 1004e190 f i libucrtd:output.obj
 0001:0004d1a0       ?get_parameter_type@?$positional_parameter_base@_WV?$stream_output_adapter@_W@__crt_stdio_output@@@__crt_stdio_output@@CA?AW4parameter_type@12@F@Z 1004e1a0 f i libucrtd:output.obj
 0001:0004d1b0       ?get_parameter_type@?$positional_parameter_base@_WV?$stream_output_adapter@_W@__crt_stdio_output@@@__crt_stdio_output@@CA?AW4parameter_type@12@G@Z 1004e1b0 f i libucrtd:output.obj
 0001:0004d1c0       ?get_parameter_type@?$positional_parameter_base@_WV?$stream_output_adapter@_W@__crt_stdio_output@@@__crt_stdio_output@@CA?AW4parameter_type@12@H@Z 1004e1c0 f i libucrtd:output.obj
 0001:0004d1d0       ?get_parameter_type@?$positional_parameter_base@_WV?$stream_output_adapter@_W@__crt_stdio_output@@@__crt_stdio_output@@CA?AW4parameter_type@12@I@Z 1004e1d0 f i libucrtd:output.obj
 0001:0004d1e0       ?get_parameter_type@?$positional_parameter_base@_WV?$stream_output_adapter@_W@__crt_stdio_output@@@__crt_stdio_output@@CA?AW4parameter_type@12@U_CRT_DOUBLE@@@Z 1004e1e0 f i libucrtd:output.obj
 0001:0004d1f0       ?get_parameter_type@?$positional_parameter_base@_WV?$stream_output_adapter@_W@__crt_stdio_output@@@__crt_stdio_output@@CA?AW4parameter_type@12@_J@Z 1004e1f0 f i libucrtd:output.obj
 0001:0004d200       ?get_parameter_type@?$positional_parameter_base@_WV?$stream_output_adapter@_W@__crt_stdio_output@@@__crt_stdio_output@@CA?AW4parameter_type@12@_K@Z 1004e200 f i libucrtd:output.obj
 0001:0004d210       ?get_parameter_type@?$positional_parameter_base@_WV?$stream_output_adapter@_W@__crt_stdio_output@@@__crt_stdio_output@@CA?AW4parameter_type@12@_W@Z 1004e210 f i libucrtd:output.obj
 0001:0004d220       ?get_parameter_type@?$positional_parameter_base@_WV?$string_output_adapter@_W@__crt_stdio_output@@@__crt_stdio_output@@CA?AW4parameter_type@12@F@Z 1004e220 f i libucrtd:output.obj
 0001:0004d230       ?get_parameter_type@?$positional_parameter_base@_WV?$string_output_adapter@_W@__crt_stdio_output@@@__crt_stdio_output@@CA?AW4parameter_type@12@G@Z 1004e230 f i libucrtd:output.obj
 0001:0004d240       ?get_parameter_type@?$positional_parameter_base@_WV?$string_output_adapter@_W@__crt_stdio_output@@@__crt_stdio_output@@CA?AW4parameter_type@12@H@Z 1004e240 f i libucrtd:output.obj
 0001:0004d250       ?get_parameter_type@?$positional_parameter_base@_WV?$string_output_adapter@_W@__crt_stdio_output@@@__crt_stdio_output@@CA?AW4parameter_type@12@I@Z 1004e250 f i libucrtd:output.obj
 0001:0004d260       ?get_parameter_type@?$positional_parameter_base@_WV?$string_output_adapter@_W@__crt_stdio_output@@@__crt_stdio_output@@CA?AW4parameter_type@12@U_CRT_DOUBLE@@@Z 1004e260 f i libucrtd:output.obj
 0001:0004d270       ?get_parameter_type@?$positional_parameter_base@_WV?$string_output_adapter@_W@__crt_stdio_output@@@__crt_stdio_output@@CA?AW4parameter_type@12@_J@Z 1004e270 f i libucrtd:output.obj
 0001:0004d280       ?get_parameter_type@?$positional_parameter_base@_WV?$string_output_adapter@_W@__crt_stdio_output@@@__crt_stdio_output@@CA?AW4parameter_type@12@_K@Z 1004e280 f i libucrtd:output.obj
 0001:0004d290       ?get_parameter_type@?$positional_parameter_base@_WV?$string_output_adapter@_W@__crt_stdio_output@@@__crt_stdio_output@@CA?AW4parameter_type@12@_W@Z 1004e290 f i libucrtd:output.obj
 0001:0004d2a0       ?has_flag@?$output_processor@DV?$stream_output_adapter@D@__crt_stdio_output@@V?$format_validation_base@DV?$stream_output_adapter@D@__crt_stdio_output@@@2@@__crt_stdio_output@@ABE_NI@Z 1004e2a0 f i libucrtd:output.obj
 0001:0004d2d0       ?has_flag@?$output_processor@DV?$stream_output_adapter@D@__crt_stdio_output@@V?$positional_parameter_base@DV?$stream_output_adapter@D@__crt_stdio_output@@@2@@__crt_stdio_output@@ABE_NI@Z 1004e2d0 f i libucrtd:output.obj
 0001:0004d300       ?has_flag@?$output_processor@DV?$stream_output_adapter@D@__crt_stdio_output@@V?$standard_base@DV?$stream_output_adapter@D@__crt_stdio_output@@@2@@__crt_stdio_output@@ABE_NI@Z 1004e300 f i libucrtd:output.obj
 0001:0004d330       ?has_flag@?$output_processor@DV?$string_output_adapter@D@__crt_stdio_output@@V?$format_validation_base@DV?$string_output_adapter@D@__crt_stdio_output@@@2@@__crt_stdio_output@@ABE_NI@Z 1004e330 f i libucrtd:output.obj
 0001:0004d360       ?has_flag@?$output_processor@DV?$string_output_adapter@D@__crt_stdio_output@@V?$positional_parameter_base@DV?$string_output_adapter@D@__crt_stdio_output@@@2@@__crt_stdio_output@@ABE_NI@Z 1004e360 f i libucrtd:output.obj
 0001:0004d390       ?has_flag@?$output_processor@DV?$string_output_adapter@D@__crt_stdio_output@@V?$standard_base@DV?$string_output_adapter@D@__crt_stdio_output@@@2@@__crt_stdio_output@@ABE_NI@Z 1004e390 f i libucrtd:output.obj
 0001:0004d3c0       ?has_flag@?$output_processor@_WV?$stream_output_adapter@_W@__crt_stdio_output@@V?$format_validation_base@_WV?$stream_output_adapter@_W@__crt_stdio_output@@@2@@__crt_stdio_output@@ABE_NI@Z 1004e3c0 f i libucrtd:output.obj
 0001:0004d3f0       ?has_flag@?$output_processor@_WV?$stream_output_adapter@_W@__crt_stdio_output@@V?$positional_parameter_base@_WV?$stream_output_adapter@_W@__crt_stdio_output@@@2@@__crt_stdio_output@@ABE_NI@Z 1004e3f0 f i libucrtd:output.obj
 0001:0004d420       ?has_flag@?$output_processor@_WV?$stream_output_adapter@_W@__crt_stdio_output@@V?$standard_base@_WV?$stream_output_adapter@_W@__crt_stdio_output@@@2@@__crt_stdio_output@@ABE_NI@Z 1004e420 f i libucrtd:output.obj
 0001:0004d450       ?has_flag@?$output_processor@_WV?$string_output_adapter@_W@__crt_stdio_output@@V?$format_validation_base@_WV?$string_output_adapter@_W@__crt_stdio_output@@@2@@__crt_stdio_output@@ABE_NI@Z 1004e450 f i libucrtd:output.obj
 0001:0004d480       ?has_flag@?$output_processor@_WV?$string_output_adapter@_W@__crt_stdio_output@@V?$positional_parameter_base@_WV?$string_output_adapter@_W@__crt_stdio_output@@@2@@__crt_stdio_output@@ABE_NI@Z 1004e480 f i libucrtd:output.obj
 0001:0004d4b0       ?has_flag@?$output_processor@_WV?$string_output_adapter@_W@__crt_stdio_output@@V?$standard_base@_WV?$string_output_adapter@_W@__crt_stdio_output@@@2@@__crt_stdio_output@@ABE_NI@Z 1004e4b0 f i libucrtd:output.obj
 0001:0004d4e0       ?is_positional_parameter_reappearance_consistent@?$positional_parameter_base@DV?$stream_output_adapter@D@__crt_stdio_output@@@__crt_stdio_output@@AAE_NABUparameter_data@12@W4parameter_type@12@DW4length_modifier@2@@Z 1004e4e0 f i libucrtd:output.obj
 0001:0004d710       ?is_positional_parameter_reappearance_consistent@?$positional_parameter_base@DV?$string_output_adapter@D@__crt_stdio_output@@@__crt_stdio_output@@AAE_NABUparameter_data@12@W4parameter_type@12@DW4length_modifier@2@@Z 1004e710 f i libucrtd:output.obj
 0001:0004d940       ?is_positional_parameter_reappearance_consistent@?$positional_parameter_base@_WV?$stream_output_adapter@_W@__crt_stdio_output@@@__crt_stdio_output@@AAE_NABUparameter_data@12@W4parameter_type@12@_WW4length_modifier@2@@Z 1004e940 f i libucrtd:output.obj
 0001:0004db70       ?is_positional_parameter_reappearance_consistent@?$positional_parameter_base@_WV?$string_output_adapter@_W@__crt_stdio_output@@@__crt_stdio_output@@AAE_NABUparameter_data@12@W4parameter_type@12@_WW4length_modifier@2@@Z 1004eb70 f i libucrtd:output.obj
 0001:0004dda0       ?is_string_backed@__crt_stdio_stream@@QBE_NXZ 1004eda0 f i libucrtd:output.obj
 0001:0004dde0       ?narrow_null_string@?$output_processor@DV?$stream_output_adapter@D@__crt_stdio_output@@V?$format_validation_base@DV?$stream_output_adapter@D@__crt_stdio_output@@@2@@__crt_stdio_output@@CAPADXZ 1004ede0 f i libucrtd:output.obj
 0001:0004ddf0       ?narrow_null_string@?$output_processor@DV?$stream_output_adapter@D@__crt_stdio_output@@V?$positional_parameter_base@DV?$stream_output_adapter@D@__crt_stdio_output@@@2@@__crt_stdio_output@@CAPADXZ 1004edf0 f i libucrtd:output.obj
 0001:0004de00       ?narrow_null_string@?$output_processor@DV?$stream_output_adapter@D@__crt_stdio_output@@V?$standard_base@DV?$stream_output_adapter@D@__crt_stdio_output@@@2@@__crt_stdio_output@@CAPADXZ 1004ee00 f i libucrtd:output.obj
 0001:0004de10       ?narrow_null_string@?$output_processor@DV?$string_output_adapter@D@__crt_stdio_output@@V?$format_validation_base@DV?$string_output_adapter@D@__crt_stdio_output@@@2@@__crt_stdio_output@@CAPADXZ 1004ee10 f i libucrtd:output.obj
 0001:0004de20       ?narrow_null_string@?$output_processor@DV?$string_output_adapter@D@__crt_stdio_output@@V?$positional_parameter_base@DV?$string_output_adapter@D@__crt_stdio_output@@@2@@__crt_stdio_output@@CAPADXZ 1004ee20 f i libucrtd:output.obj
 0001:0004de30       ?narrow_null_string@?$output_processor@DV?$string_output_adapter@D@__crt_stdio_output@@V?$standard_base@DV?$string_output_adapter@D@__crt_stdio_output@@@2@@__crt_stdio_output@@CAPADXZ 1004ee30 f i libucrtd:output.obj
 0001:0004de40       ?narrow_null_string@?$output_processor@_WV?$stream_output_adapter@_W@__crt_stdio_output@@V?$format_validation_base@_WV?$stream_output_adapter@_W@__crt_stdio_output@@@2@@__crt_stdio_output@@CAPADXZ 1004ee40 f i libucrtd:output.obj
 0001:0004de50       ?narrow_null_string@?$output_processor@_WV?$stream_output_adapter@_W@__crt_stdio_output@@V?$positional_parameter_base@_WV?$stream_output_adapter@_W@__crt_stdio_output@@@2@@__crt_stdio_output@@CAPADXZ 1004ee50 f i libucrtd:output.obj
 0001:0004de60       ?narrow_null_string@?$output_processor@_WV?$stream_output_adapter@_W@__crt_stdio_output@@V?$standard_base@_WV?$stream_output_adapter@_W@__crt_stdio_output@@@2@@__crt_stdio_output@@CAPADXZ 1004ee60 f i libucrtd:output.obj
 0001:0004de70       ?narrow_null_string@?$output_processor@_WV?$string_output_adapter@_W@__crt_stdio_output@@V?$format_validation_base@_WV?$string_output_adapter@_W@__crt_stdio_output@@@2@@__crt_stdio_output@@CAPADXZ 1004ee70 f i libucrtd:output.obj
 0001:0004de80       ?narrow_null_string@?$output_processor@_WV?$string_output_adapter@_W@__crt_stdio_output@@V?$positional_parameter_base@_WV?$string_output_adapter@_W@__crt_stdio_output@@@2@@__crt_stdio_output@@CAPADXZ 1004ee80 f i libucrtd:output.obj
 0001:0004de90       ?narrow_null_string@?$output_processor@_WV?$string_output_adapter@_W@__crt_stdio_output@@V?$standard_base@_WV?$string_output_adapter@_W@__crt_stdio_output@@@2@@__crt_stdio_output@@CAPADXZ 1004ee90 f i libucrtd:output.obj
 0001:0004dea0       ?parse_int_from_format_string@?$output_processor@DV?$stream_output_adapter@D@__crt_stdio_output@@V?$format_validation_base@DV?$stream_output_adapter@D@__crt_stdio_output@@@2@@__crt_stdio_output@@AAE_NQAH@Z 1004eea0 f i libucrtd:output.obj
 0001:0004df60       ?parse_int_from_format_string@?$output_processor@DV?$stream_output_adapter@D@__crt_stdio_output@@V?$positional_parameter_base@DV?$stream_output_adapter@D@__crt_stdio_output@@@2@@__crt_stdio_output@@AAE_NQAH@Z 1004ef60 f i libucrtd:output.obj
 0001:0004e020       ?parse_int_from_format_string@?$output_processor@DV?$stream_output_adapter@D@__crt_stdio_output@@V?$standard_base@DV?$stream_output_adapter@D@__crt_stdio_output@@@2@@__crt_stdio_output@@AAE_NQAH@Z 1004f020 f i libucrtd:output.obj
 0001:0004e0e0       ?parse_int_from_format_string@?$output_processor@DV?$string_output_adapter@D@__crt_stdio_output@@V?$format_validation_base@DV?$string_output_adapter@D@__crt_stdio_output@@@2@@__crt_stdio_output@@AAE_NQAH@Z 1004f0e0 f i libucrtd:output.obj
 0001:0004e1a0       ?parse_int_from_format_string@?$output_processor@DV?$string_output_adapter@D@__crt_stdio_output@@V?$positional_parameter_base@DV?$string_output_adapter@D@__crt_stdio_output@@@2@@__crt_stdio_output@@AAE_NQAH@Z 1004f1a0 f i libucrtd:output.obj
 0001:0004e260       ?parse_int_from_format_string@?$output_processor@DV?$string_output_adapter@D@__crt_stdio_output@@V?$standard_base@DV?$string_output_adapter@D@__crt_stdio_output@@@2@@__crt_stdio_output@@AAE_NQAH@Z 1004f260 f i libucrtd:output.obj
 0001:0004e320       ?parse_int_from_format_string@?$output_processor@_WV?$stream_output_adapter@_W@__crt_stdio_output@@V?$format_validation_base@_WV?$stream_output_adapter@_W@__crt_stdio_output@@@2@@__crt_stdio_output@@AAE_NQAH@Z 1004f320 f i libucrtd:output.obj
 0001:0004e3e0       ?parse_int_from_format_string@?$output_processor@_WV?$stream_output_adapter@_W@__crt_stdio_output@@V?$positional_parameter_base@_WV?$stream_output_adapter@_W@__crt_stdio_output@@@2@@__crt_stdio_output@@AAE_NQAH@Z 1004f3e0 f i libucrtd:output.obj
 0001:0004e4a0       ?parse_int_from_format_string@?$output_processor@_WV?$stream_output_adapter@_W@__crt_stdio_output@@V?$standard_base@_WV?$stream_output_adapter@_W@__crt_stdio_output@@@2@@__crt_stdio_output@@AAE_NQAH@Z 1004f4a0 f i libucrtd:output.obj
 0001:0004e560       ?parse_int_from_format_string@?$output_processor@_WV?$string_output_adapter@_W@__crt_stdio_output@@V?$format_validation_base@_WV?$string_output_adapter@_W@__crt_stdio_output@@@2@@__crt_stdio_output@@AAE_NQAH@Z 1004f560 f i libucrtd:output.obj
 0001:0004e620       ?parse_int_from_format_string@?$output_processor@_WV?$string_output_adapter@_W@__crt_stdio_output@@V?$positional_parameter_base@_WV?$string_output_adapter@_W@__crt_stdio_output@@@2@@__crt_stdio_output@@AAE_NQAH@Z 1004f620 f i libucrtd:output.obj
 0001:0004e6e0       ?parse_int_from_format_string@?$output_processor@_WV?$string_output_adapter@_W@__crt_stdio_output@@V?$standard_base@_WV?$string_output_adapter@_W@__crt_stdio_output@@@2@@__crt_stdio_output@@AAE_NQAH@Z 1004f6e0 f i libucrtd:output.obj
 0001:0004e7a0       ?process@?$output_processor@DV?$stream_output_adapter@D@__crt_stdio_output@@V?$format_validation_base@DV?$stream_output_adapter@D@__crt_stdio_output@@@2@@__crt_stdio_output@@QAEHXZ 1004f7a0 f i libucrtd:output.obj
 0001:0004ea50       ?process@?$output_processor@DV?$stream_output_adapter@D@__crt_stdio_output@@V?$positional_parameter_base@DV?$stream_output_adapter@D@__crt_stdio_output@@@2@@__crt_stdio_output@@QAEHXZ 1004fa50 f i libucrtd:output.obj
 0001:0004ed00       ?process@?$output_processor@DV?$stream_output_adapter@D@__crt_stdio_output@@V?$standard_base@DV?$stream_output_adapter@D@__crt_stdio_output@@@2@@__crt_stdio_output@@QAEHXZ 1004fd00 f i libucrtd:output.obj
 0001:0004efb0       ?process@?$output_processor@DV?$string_output_adapter@D@__crt_stdio_output@@V?$format_validation_base@DV?$string_output_adapter@D@__crt_stdio_output@@@2@@__crt_stdio_output@@QAEHXZ 1004ffb0 f i libucrtd:output.obj
 0001:0004f260       ?process@?$output_processor@DV?$string_output_adapter@D@__crt_stdio_output@@V?$positional_parameter_base@DV?$string_output_adapter@D@__crt_stdio_output@@@2@@__crt_stdio_output@@QAEHXZ 10050260 f i libucrtd:output.obj
 0001:0004f510       ?process@?$output_processor@DV?$string_output_adapter@D@__crt_stdio_output@@V?$standard_base@DV?$string_output_adapter@D@__crt_stdio_output@@@2@@__crt_stdio_output@@QAEHXZ 10050510 f i libucrtd:output.obj
 0001:0004f7c0       ?process@?$output_processor@_WV?$stream_output_adapter@_W@__crt_stdio_output@@V?$format_validation_base@_WV?$stream_output_adapter@_W@__crt_stdio_output@@@2@@__crt_stdio_output@@QAEHXZ 100507c0 f i libucrtd:output.obj
 0001:0004fa70       ?process@?$output_processor@_WV?$stream_output_adapter@_W@__crt_stdio_output@@V?$positional_parameter_base@_WV?$stream_output_adapter@_W@__crt_stdio_output@@@2@@__crt_stdio_output@@QAEHXZ 10050a70 f i libucrtd:output.obj
 0001:0004fd20       ?process@?$output_processor@_WV?$stream_output_adapter@_W@__crt_stdio_output@@V?$standard_base@_WV?$stream_output_adapter@_W@__crt_stdio_output@@@2@@__crt_stdio_output@@QAEHXZ 10050d20 f i libucrtd:output.obj
 0001:0004ffd0       ?process@?$output_processor@_WV?$string_output_adapter@_W@__crt_stdio_output@@V?$format_validation_base@_WV?$string_output_adapter@_W@__crt_stdio_output@@@2@@__crt_stdio_output@@QAEHXZ 10050fd0 f i libucrtd:output.obj
 0001:00050280       ?process@?$output_processor@_WV?$string_output_adapter@_W@__crt_stdio_output@@V?$positional_parameter_base@_WV?$string_output_adapter@_W@__crt_stdio_output@@@2@@__crt_stdio_output@@QAEHXZ 10051280 f i libucrtd:output.obj
 0001:00050530       ?process@?$output_processor@_WV?$string_output_adapter@_W@__crt_stdio_output@@V?$standard_base@_WV?$string_output_adapter@_W@__crt_stdio_output@@@2@@__crt_stdio_output@@QAEHXZ 10051530 f i libucrtd:output.obj
 0001:000507e0       ?public_stream@__crt_stdio_stream@@QBEPAU_iobuf@@XZ 100517e0 f i libucrtd:output.obj
 0001:00050800       ?set_flag@?$output_processor@DV?$stream_output_adapter@D@__crt_stdio_output@@V?$format_validation_base@DV?$stream_output_adapter@D@__crt_stdio_output@@@2@@__crt_stdio_output@@AAEXI@Z 10051800 f i libucrtd:output.obj
 0001:00050820       ?set_flag@?$output_processor@DV?$stream_output_adapter@D@__crt_stdio_output@@V?$positional_parameter_base@DV?$stream_output_adapter@D@__crt_stdio_output@@@2@@__crt_stdio_output@@AAEXI@Z 10051820 f i libucrtd:output.obj
 0001:00050840       ?set_flag@?$output_processor@DV?$stream_output_adapter@D@__crt_stdio_output@@V?$standard_base@DV?$stream_output_adapter@D@__crt_stdio_output@@@2@@__crt_stdio_output@@AAEXI@Z 10051840 f i libucrtd:output.obj
 0001:00050860       ?set_flag@?$output_processor@DV?$string_output_adapter@D@__crt_stdio_output@@V?$format_validation_base@DV?$string_output_adapter@D@__crt_stdio_output@@@2@@__crt_stdio_output@@AAEXI@Z 10051860 f i libucrtd:output.obj
 0001:00050880       ?set_flag@?$output_processor@DV?$string_output_adapter@D@__crt_stdio_output@@V?$positional_parameter_base@DV?$string_output_adapter@D@__crt_stdio_output@@@2@@__crt_stdio_output@@AAEXI@Z 10051880 f i libucrtd:output.obj
 0001:000508a0       ?set_flag@?$output_processor@DV?$string_output_adapter@D@__crt_stdio_output@@V?$standard_base@DV?$string_output_adapter@D@__crt_stdio_output@@@2@@__crt_stdio_output@@AAEXI@Z 100518a0 f i libucrtd:output.obj
 0001:000508c0       ?set_flag@?$output_processor@_WV?$stream_output_adapter@_W@__crt_stdio_output@@V?$format_validation_base@_WV?$stream_output_adapter@_W@__crt_stdio_output@@@2@@__crt_stdio_output@@AAEXI@Z 100518c0 f i libucrtd:output.obj
 0001:000508e0       ?set_flag@?$output_processor@_WV?$stream_output_adapter@_W@__crt_stdio_output@@V?$positional_parameter_base@_WV?$stream_output_adapter@_W@__crt_stdio_output@@@2@@__crt_stdio_output@@AAEXI@Z 100518e0 f i libucrtd:output.obj
 0001:00050900       ?set_flag@?$output_processor@_WV?$stream_output_adapter@_W@__crt_stdio_output@@V?$standard_base@_WV?$stream_output_adapter@_W@__crt_stdio_output@@@2@@__crt_stdio_output@@AAEXI@Z 10051900 f i libucrtd:output.obj
 0001:00050920       ?set_flag@?$output_processor@_WV?$string_output_adapter@_W@__crt_stdio_output@@V?$format_validation_base@_WV?$string_output_adapter@_W@__crt_stdio_output@@@2@@__crt_stdio_output@@AAEXI@Z 10051920 f i libucrtd:output.obj
 0001:00050940       ?set_flag@?$output_processor@_WV?$string_output_adapter@_W@__crt_stdio_output@@V?$positional_parameter_base@_WV?$string_output_adapter@_W@__crt_stdio_output@@@2@@__crt_stdio_output@@AAEXI@Z 10051940 f i libucrtd:output.obj
 0001:00050960       ?set_flag@?$output_processor@_WV?$string_output_adapter@_W@__crt_stdio_output@@V?$standard_base@_WV?$string_output_adapter@_W@__crt_stdio_output@@@2@@__crt_stdio_output@@AAEXI@Z 10051960 f i libucrtd:output.obj
 0001:00050980       ?should_format@?$positional_parameter_base@DV?$stream_output_adapter@D@__crt_stdio_output@@@__crt_stdio_output@@IAE_NXZ 10051980 f i libucrtd:output.obj
 0001:000509c0       ?should_format@?$positional_parameter_base@DV?$string_output_adapter@D@__crt_stdio_output@@@__crt_stdio_output@@IAE_NXZ 100519c0 f i libucrtd:output.obj
 0001:00050a00       ?should_format@?$positional_parameter_base@_WV?$stream_output_adapter@_W@__crt_stdio_output@@@__crt_stdio_output@@IAE_NXZ 10051a00 f i libucrtd:output.obj
 0001:00050a40       ?should_format@?$positional_parameter_base@_WV?$string_output_adapter@_W@__crt_stdio_output@@@__crt_stdio_output@@IAE_NXZ 10051a40 f i libucrtd:output.obj
 0001:00050a80       ?should_format@?$standard_base@DV?$stream_output_adapter@D@__crt_stdio_output@@@__crt_stdio_output@@IAE_NXZ 10051a80 f i libucrtd:output.obj
 0001:00050a90       ?should_format@?$standard_base@DV?$string_output_adapter@D@__crt_stdio_output@@@__crt_stdio_output@@IAE_NXZ 10051a90 f i libucrtd:output.obj
 0001:00050aa0       ?should_format@?$standard_base@_WV?$stream_output_adapter@_W@__crt_stdio_output@@@__crt_stdio_output@@IAE_NXZ 10051aa0 f i libucrtd:output.obj
 0001:00050ab0       ?should_format@?$standard_base@_WV?$string_output_adapter@_W@__crt_stdio_output@@@__crt_stdio_output@@IAE_NXZ 10051ab0 f i libucrtd:output.obj
 0001:00050ac0       ?should_skip_normal_state_processing@?$positional_parameter_base@DV?$stream_output_adapter@D@__crt_stdio_output@@@__crt_stdio_output@@IAE_NXZ 10051ac0 f i libucrtd:output.obj
 0001:00050b10       ?should_skip_normal_state_processing@?$positional_parameter_base@DV?$string_output_adapter@D@__crt_stdio_output@@@__crt_stdio_output@@IAE_NXZ 10051b10 f i libucrtd:output.obj
 0001:00050b60       ?should_skip_normal_state_processing@?$positional_parameter_base@_WV?$stream_output_adapter@_W@__crt_stdio_output@@@__crt_stdio_output@@IAE_NXZ 10051b60 f i libucrtd:output.obj
 0001:00050bb0       ?should_skip_normal_state_processing@?$positional_parameter_base@_WV?$string_output_adapter@_W@__crt_stdio_output@@@__crt_stdio_output@@IAE_NXZ 10051bb0 f i libucrtd:output.obj
 0001:00050c00       ?should_skip_normal_state_processing@?$standard_base@DV?$stream_output_adapter@D@__crt_stdio_output@@@__crt_stdio_output@@IAE_NXZ 10051c00 f i libucrtd:output.obj
 0001:00050c10       ?should_skip_normal_state_processing@?$standard_base@DV?$string_output_adapter@D@__crt_stdio_output@@@__crt_stdio_output@@IAE_NXZ 10051c10 f i libucrtd:output.obj
 0001:00050c20       ?should_skip_normal_state_processing@?$standard_base@_WV?$stream_output_adapter@_W@__crt_stdio_output@@@__crt_stdio_output@@IAE_NXZ 10051c20 f i libucrtd:output.obj
 0001:00050c30       ?should_skip_normal_state_processing@?$standard_base@_WV?$string_output_adapter@_W@__crt_stdio_output@@@__crt_stdio_output@@IAE_NXZ 10051c30 f i libucrtd:output.obj
 0001:00050c40       ?should_skip_type_state_output@?$positional_parameter_base@DV?$stream_output_adapter@D@__crt_stdio_output@@@__crt_stdio_output@@IBE_NXZ 10051c40 f i libucrtd:output.obj
 0001:00050c80       ?should_skip_type_state_output@?$positional_parameter_base@DV?$string_output_adapter@D@__crt_stdio_output@@@__crt_stdio_output@@IBE_NXZ 10051c80 f i libucrtd:output.obj
 0001:00050cc0       ?should_skip_type_state_output@?$positional_parameter_base@_WV?$stream_output_adapter@_W@__crt_stdio_output@@@__crt_stdio_output@@IBE_NXZ 10051cc0 f i libucrtd:output.obj
 0001:00050d00       ?should_skip_type_state_output@?$positional_parameter_base@_WV?$string_output_adapter@_W@__crt_stdio_output@@@__crt_stdio_output@@IBE_NXZ 10051d00 f i libucrtd:output.obj
 0001:00050d40       ?should_skip_type_state_output@?$standard_base@DV?$stream_output_adapter@D@__crt_stdio_output@@@__crt_stdio_output@@IBE_NXZ 10051d40 f i libucrtd:output.obj
 0001:00050d50       ?should_skip_type_state_output@?$standard_base@DV?$string_output_adapter@D@__crt_stdio_output@@@__crt_stdio_output@@IBE_NXZ 10051d50 f i libucrtd:output.obj
 0001:00050d60       ?should_skip_type_state_output@?$standard_base@_WV?$stream_output_adapter@_W@__crt_stdio_output@@@__crt_stdio_output@@IBE_NXZ 10051d60 f i libucrtd:output.obj
 0001:00050d70       ?should_skip_type_state_output@?$standard_base@_WV?$string_output_adapter@_W@__crt_stdio_output@@@__crt_stdio_output@@IBE_NXZ 10051d70 f i libucrtd:output.obj
 0001:00050d80       ?state_case_dot@?$output_processor@DV?$stream_output_adapter@D@__crt_stdio_output@@V?$format_validation_base@DV?$stream_output_adapter@D@__crt_stdio_output@@@2@@__crt_stdio_output@@AAE_NXZ 10051d80 f i libucrtd:output.obj
 0001:00050da0       ?state_case_dot@?$output_processor@DV?$stream_output_adapter@D@__crt_stdio_output@@V?$positional_parameter_base@DV?$stream_output_adapter@D@__crt_stdio_output@@@2@@__crt_stdio_output@@AAE_NXZ 10051da0 f i libucrtd:output.obj
 0001:00050dc0       ?state_case_dot@?$output_processor@DV?$stream_output_adapter@D@__crt_stdio_output@@V?$standard_base@DV?$stream_output_adapter@D@__crt_stdio_output@@@2@@__crt_stdio_output@@AAE_NXZ 10051dc0 f i libucrtd:output.obj
 0001:00050de0       ?state_case_dot@?$output_processor@DV?$string_output_adapter@D@__crt_stdio_output@@V?$format_validation_base@DV?$string_output_adapter@D@__crt_stdio_output@@@2@@__crt_stdio_output@@AAE_NXZ 10051de0 f i libucrtd:output.obj
 0001:00050e00       ?state_case_dot@?$output_processor@DV?$string_output_adapter@D@__crt_stdio_output@@V?$positional_parameter_base@DV?$string_output_adapter@D@__crt_stdio_output@@@2@@__crt_stdio_output@@AAE_NXZ 10051e00 f i libucrtd:output.obj
 0001:00050e20       ?state_case_dot@?$output_processor@DV?$string_output_adapter@D@__crt_stdio_output@@V?$standard_base@DV?$string_output_adapter@D@__crt_stdio_output@@@2@@__crt_stdio_output@@AAE_NXZ 10051e20 f i libucrtd:output.obj
 0001:00050e40       ?state_case_dot@?$output_processor@_WV?$stream_output_adapter@_W@__crt_stdio_output@@V?$format_validation_base@_WV?$stream_output_adapter@_W@__crt_stdio_output@@@2@@__crt_stdio_output@@AAE_NXZ 10051e40 f i libucrtd:output.obj
 0001:00050e60       ?state_case_dot@?$output_processor@_WV?$stream_output_adapter@_W@__crt_stdio_output@@V?$positional_parameter_base@_WV?$stream_output_adapter@_W@__crt_stdio_output@@@2@@__crt_stdio_output@@AAE_NXZ 10051e60 f i libucrtd:output.obj
 0001:00050e80       ?state_case_dot@?$output_processor@_WV?$stream_output_adapter@_W@__crt_stdio_output@@V?$standard_base@_WV?$stream_output_adapter@_W@__crt_stdio_output@@@2@@__crt_stdio_output@@AAE_NXZ 10051e80 f i libucrtd:output.obj
 0001:00050ea0       ?state_case_dot@?$output_processor@_WV?$string_output_adapter@_W@__crt_stdio_output@@V?$format_validation_base@_WV?$string_output_adapter@_W@__crt_stdio_output@@@2@@__crt_stdio_output@@AAE_NXZ 10051ea0 f i libucrtd:output.obj
 0001:00050ec0       ?state_case_dot@?$output_processor@_WV?$string_output_adapter@_W@__crt_stdio_output@@V?$positional_parameter_base@_WV?$string_output_adapter@_W@__crt_stdio_output@@@2@@__crt_stdio_output@@AAE_NXZ 10051ec0 f i libucrtd:output.obj
 0001:00050ee0       ?state_case_dot@?$output_processor@_WV?$string_output_adapter@_W@__crt_stdio_output@@V?$standard_base@_WV?$string_output_adapter@_W@__crt_stdio_output@@@2@@__crt_stdio_output@@AAE_NXZ 10051ee0 f i libucrtd:output.obj
 0001:00050f00       ?state_case_flag@?$output_processor@DV?$stream_output_adapter@D@__crt_stdio_output@@V?$format_validation_base@DV?$stream_output_adapter@D@__crt_stdio_output@@@2@@__crt_stdio_output@@AAE_NXZ 10051f00 f i libucrtd:output.obj
 0001:00050fb0       ?state_case_flag@?$output_processor@DV?$stream_output_adapter@D@__crt_stdio_output@@V?$positional_parameter_base@DV?$stream_output_adapter@D@__crt_stdio_output@@@2@@__crt_stdio_output@@AAE_NXZ 10051fb0 f i libucrtd:output.obj
 0001:00051060       ?state_case_flag@?$output_processor@DV?$stream_output_adapter@D@__crt_stdio_output@@V?$standard_base@DV?$stream_output_adapter@D@__crt_stdio_output@@@2@@__crt_stdio_output@@AAE_NXZ 10052060 f i libucrtd:output.obj
 0001:00051110       ?state_case_flag@?$output_processor@DV?$string_output_adapter@D@__crt_stdio_output@@V?$format_validation_base@DV?$string_output_adapter@D@__crt_stdio_output@@@2@@__crt_stdio_output@@AAE_NXZ 10052110 f i libucrtd:output.obj
 0001:000511c0       ?state_case_flag@?$output_processor@DV?$string_output_adapter@D@__crt_stdio_output@@V?$positional_parameter_base@DV?$string_output_adapter@D@__crt_stdio_output@@@2@@__crt_stdio_output@@AAE_NXZ 100521c0 f i libucrtd:output.obj
 0001:00051270       ?state_case_flag@?$output_processor@DV?$string_output_adapter@D@__crt_stdio_output@@V?$standard_base@DV?$string_output_adapter@D@__crt_stdio_output@@@2@@__crt_stdio_output@@AAE_NXZ 10052270 f i libucrtd:output.obj
 0001:00051320       ?state_case_flag@?$output_processor@_WV?$stream_output_adapter@_W@__crt_stdio_output@@V?$format_validation_base@_WV?$stream_output_adapter@_W@__crt_stdio_output@@@2@@__crt_stdio_output@@AAE_NXZ 10052320 f i libucrtd:output.obj
 0001:000513d0       ?state_case_flag@?$output_processor@_WV?$stream_output_adapter@_W@__crt_stdio_output@@V?$positional_parameter_base@_WV?$stream_output_adapter@_W@__crt_stdio_output@@@2@@__crt_stdio_output@@AAE_NXZ 100523d0 f i libucrtd:output.obj
 0001:00051480       ?state_case_flag@?$output_processor@_WV?$stream_output_adapter@_W@__crt_stdio_output@@V?$standard_base@_WV?$stream_output_adapter@_W@__crt_stdio_output@@@2@@__crt_stdio_output@@AAE_NXZ 10052480 f i libucrtd:output.obj
 0001:00051530       ?state_case_flag@?$output_processor@_WV?$string_output_adapter@_W@__crt_stdio_output@@V?$format_validation_base@_WV?$string_output_adapter@_W@__crt_stdio_output@@@2@@__crt_stdio_output@@AAE_NXZ 10052530 f i libucrtd:output.obj
 0001:000515e0       ?state_case_flag@?$output_processor@_WV?$string_output_adapter@_W@__crt_stdio_output@@V?$positional_parameter_base@_WV?$string_output_adapter@_W@__crt_stdio_output@@@2@@__crt_stdio_output@@AAE_NXZ 100525e0 f i libucrtd:output.obj
 0001:00051690       ?state_case_flag@?$output_processor@_WV?$string_output_adapter@_W@__crt_stdio_output@@V?$standard_base@_WV?$string_output_adapter@_W@__crt_stdio_output@@@2@@__crt_stdio_output@@AAE_NXZ 10052690 f i libucrtd:output.obj
 0001:00051740       ?state_case_normal@?$output_processor@DV?$stream_output_adapter@D@__crt_stdio_output@@V?$format_validation_base@DV?$stream_output_adapter@D@__crt_stdio_output@@@2@@__crt_stdio_output@@AAE_NXZ 10052740 f i libucrtd:output.obj
 0001:000517f0       ?state_case_normal@?$output_processor@DV?$stream_output_adapter@D@__crt_stdio_output@@V?$positional_parameter_base@DV?$stream_output_adapter@D@__crt_stdio_output@@@2@@__crt_stdio_output@@AAE_NXZ 100527f0 f i libucrtd:output.obj
 0001:000518a0       ?state_case_normal@?$output_processor@DV?$stream_output_adapter@D@__crt_stdio_output@@V?$standard_base@DV?$stream_output_adapter@D@__crt_stdio_output@@@2@@__crt_stdio_output@@AAE_NXZ 100528a0 f i libucrtd:output.obj
 0001:00051950       ?state_case_normal@?$output_processor@DV?$string_output_adapter@D@__crt_stdio_output@@V?$format_validation_base@DV?$string_output_adapter@D@__crt_stdio_output@@@2@@__crt_stdio_output@@AAE_NXZ 10052950 f i libucrtd:output.obj
 0001:00051a00       ?state_case_normal@?$output_processor@DV?$string_output_adapter@D@__crt_stdio_output@@V?$positional_parameter_base@DV?$string_output_adapter@D@__crt_stdio_output@@@2@@__crt_stdio_output@@AAE_NXZ 10052a00 f i libucrtd:output.obj
 0001:00051ab0       ?state_case_normal@?$output_processor@DV?$string_output_adapter@D@__crt_stdio_output@@V?$standard_base@DV?$string_output_adapter@D@__crt_stdio_output@@@2@@__crt_stdio_output@@AAE_NXZ 10052ab0 f i libucrtd:output.obj
 0001:00051b60       ?state_case_normal@?$output_processor@_WV?$stream_output_adapter@_W@__crt_stdio_output@@V?$format_validation_base@_WV?$stream_output_adapter@_W@__crt_stdio_output@@@2@@__crt_stdio_output@@AAE_NXZ 10052b60 f i libucrtd:output.obj
 0001:00051c10       ?state_case_normal@?$output_processor@_WV?$stream_output_adapter@_W@__crt_stdio_output@@V?$positional_parameter_base@_WV?$stream_output_adapter@_W@__crt_stdio_output@@@2@@__crt_stdio_output@@AAE_NXZ 10052c10 f i libucrtd:output.obj
 0001:00051cc0       ?state_case_normal@?$output_processor@_WV?$stream_output_adapter@_W@__crt_stdio_output@@V?$standard_base@_WV?$stream_output_adapter@_W@__crt_stdio_output@@@2@@__crt_stdio_output@@AAE_NXZ 10052cc0 f i libucrtd:output.obj
 0001:00051d70       ?state_case_normal@?$output_processor@_WV?$string_output_adapter@_W@__crt_stdio_output@@V?$format_validation_base@_WV?$string_output_adapter@_W@__crt_stdio_output@@@2@@__crt_stdio_output@@AAE_NXZ 10052d70 f i libucrtd:output.obj
 0001:00051e20       ?state_case_normal@?$output_processor@_WV?$string_output_adapter@_W@__crt_stdio_output@@V?$positional_parameter_base@_WV?$string_output_adapter@_W@__crt_stdio_output@@@2@@__crt_stdio_output@@AAE_NXZ 10052e20 f i libucrtd:output.obj
 0001:00051ed0       ?state_case_normal@?$output_processor@_WV?$string_output_adapter@_W@__crt_stdio_output@@V?$standard_base@_WV?$string_output_adapter@_W@__crt_stdio_output@@@2@@__crt_stdio_output@@AAE_NXZ 10052ed0 f i libucrtd:output.obj
 0001:00051f80       ?state_case_normal_common@?$output_processor@DV?$stream_output_adapter@D@__crt_stdio_output@@V?$format_validation_base@DV?$stream_output_adapter@D@__crt_stdio_output@@@2@@__crt_stdio_output@@AAE_NXZ 10052f80 f i libucrtd:output.obj
 0001:00051fd0       ?state_case_normal_common@?$output_processor@DV?$stream_output_adapter@D@__crt_stdio_output@@V?$positional_parameter_base@DV?$stream_output_adapter@D@__crt_stdio_output@@@2@@__crt_stdio_output@@AAE_NXZ 10052fd0 f i libucrtd:output.obj
 0001:00052020       ?state_case_normal_common@?$output_processor@DV?$stream_output_adapter@D@__crt_stdio_output@@V?$standard_base@DV?$stream_output_adapter@D@__crt_stdio_output@@@2@@__crt_stdio_output@@AAE_NXZ 10053020 f i libucrtd:output.obj
 0001:00052070       ?state_case_normal_common@?$output_processor@DV?$string_output_adapter@D@__crt_stdio_output@@V?$format_validation_base@DV?$string_output_adapter@D@__crt_stdio_output@@@2@@__crt_stdio_output@@AAE_NXZ 10053070 f i libucrtd:output.obj
 0001:000520c0       ?state_case_normal_common@?$output_processor@DV?$string_output_adapter@D@__crt_stdio_output@@V?$positional_parameter_base@DV?$string_output_adapter@D@__crt_stdio_output@@@2@@__crt_stdio_output@@AAE_NXZ 100530c0 f i libucrtd:output.obj
 0001:00052110       ?state_case_normal_common@?$output_processor@DV?$string_output_adapter@D@__crt_stdio_output@@V?$standard_base@DV?$string_output_adapter@D@__crt_stdio_output@@@2@@__crt_stdio_output@@AAE_NXZ 10053110 f i libucrtd:output.obj
 0001:00052160       ?state_case_normal_common@?$output_processor@_WV?$stream_output_adapter@_W@__crt_stdio_output@@V?$format_validation_base@_WV?$stream_output_adapter@_W@__crt_stdio_output@@@2@@__crt_stdio_output@@AAE_NXZ 10053160 f i libucrtd:output.obj
 0001:000521b0       ?state_case_normal_common@?$output_processor@_WV?$stream_output_adapter@_W@__crt_stdio_output@@V?$positional_parameter_base@_WV?$stream_output_adapter@_W@__crt_stdio_output@@@2@@__crt_stdio_output@@AAE_NXZ 100531b0 f i libucrtd:output.obj
 0001:00052200       ?state_case_normal_common@?$output_processor@_WV?$stream_output_adapter@_W@__crt_stdio_output@@V?$standard_base@_WV?$stream_output_adapter@_W@__crt_stdio_output@@@2@@__crt_stdio_output@@AAE_NXZ 10053200 f i libucrtd:output.obj
 0001:00052250       ?state_case_normal_common@?$output_processor@_WV?$string_output_adapter@_W@__crt_stdio_output@@V?$format_validation_base@_WV?$string_output_adapter@_W@__crt_stdio_output@@@2@@__crt_stdio_output@@AAE_NXZ 10053250 f i libucrtd:output.obj
 0001:000522a0       ?state_case_normal_common@?$output_processor@_WV?$string_output_adapter@_W@__crt_stdio_output@@V?$positional_parameter_base@_WV?$string_output_adapter@_W@__crt_stdio_output@@@2@@__crt_stdio_output@@AAE_NXZ 100532a0 f i libucrtd:output.obj
 0001:000522f0       ?state_case_normal_common@?$output_processor@_WV?$string_output_adapter@_W@__crt_stdio_output@@V?$standard_base@_WV?$string_output_adapter@_W@__crt_stdio_output@@@2@@__crt_stdio_output@@AAE_NXZ 100532f0 f i libucrtd:output.obj
 0001:00052340       ?state_case_normal_tchar@?$output_processor@DV?$stream_output_adapter@D@__crt_stdio_output@@V?$format_validation_base@DV?$stream_output_adapter@D@__crt_stdio_output@@@2@@__crt_stdio_output@@AAE_ND@Z 10053340 f i libucrtd:output.obj
 0001:00052440       ?state_case_normal_tchar@?$output_processor@DV?$stream_output_adapter@D@__crt_stdio_output@@V?$positional_parameter_base@DV?$stream_output_adapter@D@__crt_stdio_output@@@2@@__crt_stdio_output@@AAE_ND@Z 10053440 f i libucrtd:output.obj
 0001:00052540       ?state_case_normal_tchar@?$output_processor@DV?$stream_output_adapter@D@__crt_stdio_output@@V?$standard_base@DV?$stream_output_adapter@D@__crt_stdio_output@@@2@@__crt_stdio_output@@AAE_ND@Z 10053540 f i libucrtd:output.obj
 0001:00052640       ?state_case_normal_tchar@?$output_processor@DV?$string_output_adapter@D@__crt_stdio_output@@V?$format_validation_base@DV?$string_output_adapter@D@__crt_stdio_output@@@2@@__crt_stdio_output@@AAE_ND@Z 10053640 f i libucrtd:output.obj
 0001:00052740       ?state_case_normal_tchar@?$output_processor@DV?$string_output_adapter@D@__crt_stdio_output@@V?$positional_parameter_base@DV?$string_output_adapter@D@__crt_stdio_output@@@2@@__crt_stdio_output@@AAE_ND@Z 10053740 f i libucrtd:output.obj
 0001:00052840       ?state_case_normal_tchar@?$output_processor@DV?$string_output_adapter@D@__crt_stdio_output@@V?$standard_base@DV?$string_output_adapter@D@__crt_stdio_output@@@2@@__crt_stdio_output@@AAE_ND@Z 10053840 f i libucrtd:output.obj
 0001:00052940       ?state_case_normal_tchar@?$output_processor@_WV?$stream_output_adapter@_W@__crt_stdio_output@@V?$format_validation_base@_WV?$stream_output_adapter@_W@__crt_stdio_output@@@2@@__crt_stdio_output@@AAE_N_W@Z 10053940 f i libucrtd:output.obj
 0001:00052960       ?state_case_normal_tchar@?$output_processor@_WV?$stream_output_adapter@_W@__crt_stdio_output@@V?$positional_parameter_base@_WV?$stream_output_adapter@_W@__crt_stdio_output@@@2@@__crt_stdio_output@@AAE_N_W@Z 10053960 f i libucrtd:output.obj
 0001:00052980       ?state_case_normal_tchar@?$output_processor@_WV?$stream_output_adapter@_W@__crt_stdio_output@@V?$standard_base@_WV?$stream_output_adapter@_W@__crt_stdio_output@@@2@@__crt_stdio_output@@AAE_N_W@Z 10053980 f i libucrtd:output.obj
 0001:000529a0       ?state_case_normal_tchar@?$output_processor@_WV?$string_output_adapter@_W@__crt_stdio_output@@V?$format_validation_base@_WV?$string_output_adapter@_W@__crt_stdio_output@@@2@@__crt_stdio_output@@AAE_N_W@Z 100539a0 f i libucrtd:output.obj
 0001:000529c0       ?state_case_normal_tchar@?$output_processor@_WV?$string_output_adapter@_W@__crt_stdio_output@@V?$positional_parameter_base@_WV?$string_output_adapter@_W@__crt_stdio_output@@@2@@__crt_stdio_output@@AAE_N_W@Z 100539c0 f i libucrtd:output.obj
 0001:000529e0       ?state_case_normal_tchar@?$output_processor@_WV?$string_output_adapter@_W@__crt_stdio_output@@V?$standard_base@_WV?$string_output_adapter@_W@__crt_stdio_output@@@2@@__crt_stdio_output@@AAE_N_W@Z 100539e0 f i libucrtd:output.obj
 0001:00052a00       ?state_case_percent@?$output_processor@DV?$stream_output_adapter@D@__crt_stdio_output@@V?$format_validation_base@DV?$stream_output_adapter@D@__crt_stdio_output@@@2@@__crt_stdio_output@@AAE_NXZ 10053a00 f i libucrtd:output.obj
 0001:00052a50       ?state_case_percent@?$output_processor@DV?$stream_output_adapter@D@__crt_stdio_output@@V?$positional_parameter_base@DV?$stream_output_adapter@D@__crt_stdio_output@@@2@@__crt_stdio_output@@AAE_NXZ 10053a50 f i libucrtd:output.obj
 0001:00052aa0       ?state_case_percent@?$output_processor@DV?$stream_output_adapter@D@__crt_stdio_output@@V?$standard_base@DV?$stream_output_adapter@D@__crt_stdio_output@@@2@@__crt_stdio_output@@AAE_NXZ 10053aa0 f i libucrtd:output.obj
 0001:00052af0       ?state_case_percent@?$output_processor@DV?$string_output_adapter@D@__crt_stdio_output@@V?$format_validation_base@DV?$string_output_adapter@D@__crt_stdio_output@@@2@@__crt_stdio_output@@AAE_NXZ 10053af0 f i libucrtd:output.obj
 0001:00052b40       ?state_case_percent@?$output_processor@DV?$string_output_adapter@D@__crt_stdio_output@@V?$positional_parameter_base@DV?$string_output_adapter@D@__crt_stdio_output@@@2@@__crt_stdio_output@@AAE_NXZ 10053b40 f i libucrtd:output.obj
 0001:00052b90       ?state_case_percent@?$output_processor@DV?$string_output_adapter@D@__crt_stdio_output@@V?$standard_base@DV?$string_output_adapter@D@__crt_stdio_output@@@2@@__crt_stdio_output@@AAE_NXZ 10053b90 f i libucrtd:output.obj
 0001:00052be0       ?state_case_percent@?$output_processor@_WV?$stream_output_adapter@_W@__crt_stdio_output@@V?$format_validation_base@_WV?$stream_output_adapter@_W@__crt_stdio_output@@@2@@__crt_stdio_output@@AAE_NXZ 10053be0 f i libucrtd:output.obj
 0001:00052c30       ?state_case_percent@?$output_processor@_WV?$stream_output_adapter@_W@__crt_stdio_output@@V?$positional_parameter_base@_WV?$stream_output_adapter@_W@__crt_stdio_output@@@2@@__crt_stdio_output@@AAE_NXZ 10053c30 f i libucrtd:output.obj
 0001:00052c80       ?state_case_percent@?$output_processor@_WV?$stream_output_adapter@_W@__crt_stdio_output@@V?$standard_base@_WV?$stream_output_adapter@_W@__crt_stdio_output@@@2@@__crt_stdio_output@@AAE_NXZ 10053c80 f i libucrtd:output.obj
 0001:00052cd0       ?state_case_percent@?$output_processor@_WV?$string_output_adapter@_W@__crt_stdio_output@@V?$format_validation_base@_WV?$string_output_adapter@_W@__crt_stdio_output@@@2@@__crt_stdio_output@@AAE_NXZ 10053cd0 f i libucrtd:output.obj
 0001:00052d20       ?state_case_percent@?$output_processor@_WV?$string_output_adapter@_W@__crt_stdio_output@@V?$positional_parameter_base@_WV?$string_output_adapter@_W@__crt_stdio_output@@@2@@__crt_stdio_output@@AAE_NXZ 10053d20 f i libucrtd:output.obj
 0001:00052d70       ?state_case_percent@?$output_processor@_WV?$string_output_adapter@_W@__crt_stdio_output@@V?$standard_base@_WV?$string_output_adapter@_W@__crt_stdio_output@@@2@@__crt_stdio_output@@AAE_NXZ 10053d70 f i libucrtd:output.obj
 0001:00052dc0       ?state_case_precision@?$output_processor@DV?$stream_output_adapter@D@__crt_stdio_output@@V?$format_validation_base@DV?$stream_output_adapter@D@__crt_stdio_output@@@2@@__crt_stdio_output@@AAE_NXZ 10053dc0 f i libucrtd:output.obj
 0001:00052e30       ?state_case_precision@?$output_processor@DV?$stream_output_adapter@D@__crt_stdio_output@@V?$positional_parameter_base@DV?$stream_output_adapter@D@__crt_stdio_output@@@2@@__crt_stdio_output@@AAE_NXZ 10053e30 f i libucrtd:output.obj
 0001:00052ea0       ?state_case_precision@?$output_processor@DV?$stream_output_adapter@D@__crt_stdio_output@@V?$standard_base@DV?$stream_output_adapter@D@__crt_stdio_output@@@2@@__crt_stdio_output@@AAE_NXZ 10053ea0 f i libucrtd:output.obj
 0001:00052f10       ?state_case_precision@?$output_processor@DV?$string_output_adapter@D@__crt_stdio_output@@V?$format_validation_base@DV?$string_output_adapter@D@__crt_stdio_output@@@2@@__crt_stdio_output@@AAE_NXZ 10053f10 f i libucrtd:output.obj
 0001:00052f80       ?state_case_precision@?$output_processor@DV?$string_output_adapter@D@__crt_stdio_output@@V?$positional_parameter_base@DV?$string_output_adapter@D@__crt_stdio_output@@@2@@__crt_stdio_output@@AAE_NXZ 10053f80 f i libucrtd:output.obj
 0001:00052ff0       ?state_case_precision@?$output_processor@DV?$string_output_adapter@D@__crt_stdio_output@@V?$standard_base@DV?$string_output_adapter@D@__crt_stdio_output@@@2@@__crt_stdio_output@@AAE_NXZ 10053ff0 f i libucrtd:output.obj
 0001:00053060       ?state_case_precision@?$output_processor@_WV?$stream_output_adapter@_W@__crt_stdio_output@@V?$format_validation_base@_WV?$stream_output_adapter@_W@__crt_stdio_output@@@2@@__crt_stdio_output@@AAE_NXZ 10054060 f i libucrtd:output.obj
 0001:000530d0       ?state_case_precision@?$output_processor@_WV?$stream_output_adapter@_W@__crt_stdio_output@@V?$positional_parameter_base@_WV?$stream_output_adapter@_W@__crt_stdio_output@@@2@@__crt_stdio_output@@AAE_NXZ 100540d0 f i libucrtd:output.obj
 0001:00053140       ?state_case_precision@?$output_processor@_WV?$stream_output_adapter@_W@__crt_stdio_output@@V?$standard_base@_WV?$stream_output_adapter@_W@__crt_stdio_output@@@2@@__crt_stdio_output@@AAE_NXZ 10054140 f i libucrtd:output.obj
 0001:000531b0       ?state_case_precision@?$output_processor@_WV?$string_output_adapter@_W@__crt_stdio_output@@V?$format_validation_base@_WV?$string_output_adapter@_W@__crt_stdio_output@@@2@@__crt_stdio_output@@AAE_NXZ 100541b0 f i libucrtd:output.obj
 0001:00053220       ?state_case_precision@?$output_processor@_WV?$string_output_adapter@_W@__crt_stdio_output@@V?$positional_parameter_base@_WV?$string_output_adapter@_W@__crt_stdio_output@@@2@@__crt_stdio_output@@AAE_NXZ 10054220 f i libucrtd:output.obj
 0001:00053290       ?state_case_precision@?$output_processor@_WV?$string_output_adapter@_W@__crt_stdio_output@@V?$standard_base@_WV?$string_output_adapter@_W@__crt_stdio_output@@@2@@__crt_stdio_output@@AAE_NXZ 10054290 f i libucrtd:output.obj
 0001:00053300       ?state_case_size@?$output_processor@DV?$stream_output_adapter@D@__crt_stdio_output@@V?$format_validation_base@DV?$stream_output_adapter@D@__crt_stdio_output@@@2@@__crt_stdio_output@@AAE_NXZ 10054300 f i libucrtd:output.obj
 0001:000536d0       ?state_case_size@?$output_processor@DV?$stream_output_adapter@D@__crt_stdio_output@@V?$positional_parameter_base@DV?$stream_output_adapter@D@__crt_stdio_output@@@2@@__crt_stdio_output@@AAE_NXZ 100546d0 f i libucrtd:output.obj
 0001:00053aa0       ?state_case_size@?$output_processor@DV?$stream_output_adapter@D@__crt_stdio_output@@V?$standard_base@DV?$stream_output_adapter@D@__crt_stdio_output@@@2@@__crt_stdio_output@@AAE_NXZ 10054aa0 f i libucrtd:output.obj
 0001:00053e70       ?state_case_size@?$output_processor@DV?$string_output_adapter@D@__crt_stdio_output@@V?$format_validation_base@DV?$string_output_adapter@D@__crt_stdio_output@@@2@@__crt_stdio_output@@AAE_NXZ 10054e70 f i libucrtd:output.obj
 0001:00054240       ?state_case_size@?$output_processor@DV?$string_output_adapter@D@__crt_stdio_output@@V?$positional_parameter_base@DV?$string_output_adapter@D@__crt_stdio_output@@@2@@__crt_stdio_output@@AAE_NXZ 10055240 f i libucrtd:output.obj
 0001:00054610       ?state_case_size@?$output_processor@DV?$string_output_adapter@D@__crt_stdio_output@@V?$standard_base@DV?$string_output_adapter@D@__crt_stdio_output@@@2@@__crt_stdio_output@@AAE_NXZ 10055610 f i libucrtd:output.obj
 0001:000549e0       ?state_case_size@?$output_processor@_WV?$stream_output_adapter@_W@__crt_stdio_output@@V?$format_validation_base@_WV?$stream_output_adapter@_W@__crt_stdio_output@@@2@@__crt_stdio_output@@AAE_NXZ 100559e0 f i libucrtd:output.obj
 0001:00054db0       ?state_case_size@?$output_processor@_WV?$stream_output_adapter@_W@__crt_stdio_output@@V?$positional_parameter_base@_WV?$stream_output_adapter@_W@__crt_stdio_output@@@2@@__crt_stdio_output@@AAE_NXZ 10055db0 f i libucrtd:output.obj
 0001:00055180       ?state_case_size@?$output_processor@_WV?$stream_output_adapter@_W@__crt_stdio_output@@V?$standard_base@_WV?$stream_output_adapter@_W@__crt_stdio_output@@@2@@__crt_stdio_output@@AAE_NXZ 10056180 f i libucrtd:output.obj
 0001:00055550       ?state_case_size@?$output_processor@_WV?$string_output_adapter@_W@__crt_stdio_output@@V?$format_validation_base@_WV?$string_output_adapter@_W@__crt_stdio_output@@@2@@__crt_stdio_output@@AAE_NXZ 10056550 f i libucrtd:output.obj
 0001:00055920       ?state_case_size@?$output_processor@_WV?$string_output_adapter@_W@__crt_stdio_output@@V?$positional_parameter_base@_WV?$string_output_adapter@_W@__crt_stdio_output@@@2@@__crt_stdio_output@@AAE_NXZ 10056920 f i libucrtd:output.obj
 0001:00055cf0       ?state_case_size@?$output_processor@_WV?$string_output_adapter@_W@__crt_stdio_output@@V?$standard_base@_WV?$string_output_adapter@_W@__crt_stdio_output@@@2@@__crt_stdio_output@@AAE_NXZ 10056cf0 f i libucrtd:output.obj
 0001:000560c0       ?state_case_type@?$output_processor@DV?$stream_output_adapter@D@__crt_stdio_output@@V?$format_validation_base@DV?$stream_output_adapter@D@__crt_stdio_output@@@2@@__crt_stdio_output@@AAE_NXZ 100570c0 f i libucrtd:output.obj
 0001:00056470       ?state_case_type@?$output_processor@DV?$stream_output_adapter@D@__crt_stdio_output@@V?$positional_parameter_base@DV?$stream_output_adapter@D@__crt_stdio_output@@@2@@__crt_stdio_output@@AAE_NXZ 10057470 f i libucrtd:output.obj
 0001:00056820       ?state_case_type@?$output_processor@DV?$stream_output_adapter@D@__crt_stdio_output@@V?$standard_base@DV?$stream_output_adapter@D@__crt_stdio_output@@@2@@__crt_stdio_output@@AAE_NXZ 10057820 f i libucrtd:output.obj
 0001:00056bd0       ?state_case_type@?$output_processor@DV?$string_output_adapter@D@__crt_stdio_output@@V?$format_validation_base@DV?$string_output_adapter@D@__crt_stdio_output@@@2@@__crt_stdio_output@@AAE_NXZ 10057bd0 f i libucrtd:output.obj
 0001:00056f80       ?state_case_type@?$output_processor@DV?$string_output_adapter@D@__crt_stdio_output@@V?$positional_parameter_base@DV?$string_output_adapter@D@__crt_stdio_output@@@2@@__crt_stdio_output@@AAE_NXZ 10057f80 f i libucrtd:output.obj
 0001:00057330       ?state_case_type@?$output_processor@DV?$string_output_adapter@D@__crt_stdio_output@@V?$standard_base@DV?$string_output_adapter@D@__crt_stdio_output@@@2@@__crt_stdio_output@@AAE_NXZ 10058330 f i libucrtd:output.obj
 0001:000576e0       ?state_case_type@?$output_processor@_WV?$stream_output_adapter@_W@__crt_stdio_output@@V?$format_validation_base@_WV?$stream_output_adapter@_W@__crt_stdio_output@@@2@@__crt_stdio_output@@AAE_NXZ 100586e0 f i libucrtd:output.obj
 0001:00057ac0       ?state_case_type@?$output_processor@_WV?$stream_output_adapter@_W@__crt_stdio_output@@V?$positional_parameter_base@_WV?$stream_output_adapter@_W@__crt_stdio_output@@@2@@__crt_stdio_output@@AAE_NXZ 10058ac0 f i libucrtd:output.obj
 0001:00057ea0       ?state_case_type@?$output_processor@_WV?$stream_output_adapter@_W@__crt_stdio_output@@V?$standard_base@_WV?$stream_output_adapter@_W@__crt_stdio_output@@@2@@__crt_stdio_output@@AAE_NXZ 10058ea0 f i libucrtd:output.obj
 0001:00058280       ?state_case_type@?$output_processor@_WV?$string_output_adapter@_W@__crt_stdio_output@@V?$format_validation_base@_WV?$string_output_adapter@_W@__crt_stdio_output@@@2@@__crt_stdio_output@@AAE_NXZ 10059280 f i libucrtd:output.obj
 0001:00058660       ?state_case_type@?$output_processor@_WV?$string_output_adapter@_W@__crt_stdio_output@@V?$positional_parameter_base@_WV?$string_output_adapter@_W@__crt_stdio_output@@@2@@__crt_stdio_output@@AAE_NXZ 10059660 f i libucrtd:output.obj
 0001:00058a40       ?state_case_type@?$output_processor@_WV?$string_output_adapter@_W@__crt_stdio_output@@V?$standard_base@_WV?$string_output_adapter@_W@__crt_stdio_output@@@2@@__crt_stdio_output@@AAE_NXZ 10059a40 f i libucrtd:output.obj
 0001:00058e20       ?state_case_width@?$output_processor@DV?$stream_output_adapter@D@__crt_stdio_output@@V?$format_validation_base@DV?$stream_output_adapter@D@__crt_stdio_output@@@2@@__crt_stdio_output@@AAE_NXZ 10059e20 f i libucrtd:output.obj
 0001:00058ea0       ?state_case_width@?$output_processor@DV?$stream_output_adapter@D@__crt_stdio_output@@V?$positional_parameter_base@DV?$stream_output_adapter@D@__crt_stdio_output@@@2@@__crt_stdio_output@@AAE_NXZ 10059ea0 f i libucrtd:output.obj
 0001:00058f20       ?state_case_width@?$output_processor@DV?$stream_output_adapter@D@__crt_stdio_output@@V?$standard_base@DV?$stream_output_adapter@D@__crt_stdio_output@@@2@@__crt_stdio_output@@AAE_NXZ 10059f20 f i libucrtd:output.obj
 0001:00058fa0       ?state_case_width@?$output_processor@DV?$string_output_adapter@D@__crt_stdio_output@@V?$format_validation_base@DV?$string_output_adapter@D@__crt_stdio_output@@@2@@__crt_stdio_output@@AAE_NXZ 10059fa0 f i libucrtd:output.obj
 0001:00059020       ?state_case_width@?$output_processor@DV?$string_output_adapter@D@__crt_stdio_output@@V?$positional_parameter_base@DV?$string_output_adapter@D@__crt_stdio_output@@@2@@__crt_stdio_output@@AAE_NXZ 1005a020 f i libucrtd:output.obj
 0001:000590a0       ?state_case_width@?$output_processor@DV?$string_output_adapter@D@__crt_stdio_output@@V?$standard_base@DV?$string_output_adapter@D@__crt_stdio_output@@@2@@__crt_stdio_output@@AAE_NXZ 1005a0a0 f i libucrtd:output.obj
 0001:00059120       ?state_case_width@?$output_processor@_WV?$stream_output_adapter@_W@__crt_stdio_output@@V?$format_validation_base@_WV?$stream_output_adapter@_W@__crt_stdio_output@@@2@@__crt_stdio_output@@AAE_NXZ 1005a120 f i libucrtd:output.obj
 0001:000591a0       ?state_case_width@?$output_processor@_WV?$stream_output_adapter@_W@__crt_stdio_output@@V?$positional_parameter_base@_WV?$stream_output_adapter@_W@__crt_stdio_output@@@2@@__crt_stdio_output@@AAE_NXZ 1005a1a0 f i libucrtd:output.obj
 0001:00059220       ?state_case_width@?$output_processor@_WV?$stream_output_adapter@_W@__crt_stdio_output@@V?$standard_base@_WV?$stream_output_adapter@_W@__crt_stdio_output@@@2@@__crt_stdio_output@@AAE_NXZ 1005a220 f i libucrtd:output.obj
 0001:000592a0       ?state_case_width@?$output_processor@_WV?$string_output_adapter@_W@__crt_stdio_output@@V?$format_validation_base@_WV?$string_output_adapter@_W@__crt_stdio_output@@@2@@__crt_stdio_output@@AAE_NXZ 1005a2a0 f i libucrtd:output.obj
 0001:00059320       ?state_case_width@?$output_processor@_WV?$string_output_adapter@_W@__crt_stdio_output@@V?$positional_parameter_base@_WV?$string_output_adapter@_W@__crt_stdio_output@@@2@@__crt_stdio_output@@AAE_NXZ 1005a320 f i libucrtd:output.obj
 0001:000593a0       ?state_case_width@?$output_processor@_WV?$string_output_adapter@_W@__crt_stdio_output@@V?$standard_base@_WV?$string_output_adapter@_W@__crt_stdio_output@@@2@@__crt_stdio_output@@AAE_NXZ 1005a3a0 f i libucrtd:output.obj
 0001:00059420       ?state_count@?$format_validation_base@DV?$stream_output_adapter@D@__crt_stdio_output@@@__crt_stdio_output@@KAIXZ 1005a420 f i libucrtd:output.obj
 0001:00059430       ?state_count@?$format_validation_base@DV?$string_output_adapter@D@__crt_stdio_output@@@__crt_stdio_output@@KAIXZ 1005a430 f i libucrtd:output.obj
 0001:00059440       ?state_count@?$format_validation_base@_WV?$stream_output_adapter@_W@__crt_stdio_output@@@__crt_stdio_output@@KAIXZ 1005a440 f i libucrtd:output.obj
 0001:00059450       ?state_count@?$format_validation_base@_WV?$string_output_adapter@_W@__crt_stdio_output@@@__crt_stdio_output@@KAIXZ 1005a450 f i libucrtd:output.obj
 0001:00059460       ?state_count@?$standard_base@DV?$stream_output_adapter@D@__crt_stdio_output@@@__crt_stdio_output@@KAIXZ 1005a460 f i libucrtd:output.obj
 0001:00059470       ?state_count@?$standard_base@DV?$string_output_adapter@D@__crt_stdio_output@@@__crt_stdio_output@@KAIXZ 1005a470 f i libucrtd:output.obj
 0001:00059480       ?state_count@?$standard_base@_WV?$stream_output_adapter@_W@__crt_stdio_output@@@__crt_stdio_output@@KAIXZ 1005a480 f i libucrtd:output.obj
 0001:00059490       ?state_count@?$standard_base@_WV?$string_output_adapter@_W@__crt_stdio_output@@@__crt_stdio_output@@KAIXZ 1005a490 f i libucrtd:output.obj
 0001:000594a0       ?state_transition_table@?$format_validation_base@DV?$stream_output_adapter@D@__crt_stdio_output@@@__crt_stdio_output@@KAABV?$spectre_mitigated_lookup_table@Ustate_transition_pair@__crt_stdio_output@@$0IA@@2@XZ 1005a4a0 f i libucrtd:output.obj
 0001:000594b0       ?state_transition_table@?$format_validation_base@DV?$string_output_adapter@D@__crt_stdio_output@@@__crt_stdio_output@@KAABV?$spectre_mitigated_lookup_table@Ustate_transition_pair@__crt_stdio_output@@$0IA@@2@XZ 1005a4b0 f i libucrtd:output.obj
 0001:000594c0       ?state_transition_table@?$format_validation_base@_WV?$stream_output_adapter@_W@__crt_stdio_output@@@__crt_stdio_output@@KAABV?$spectre_mitigated_lookup_table@Ustate_transition_pair@__crt_stdio_output@@$0IA@@2@XZ 1005a4c0 f i libucrtd:output.obj
 0001:000594d0       ?state_transition_table@?$format_validation_base@_WV?$string_output_adapter@_W@__crt_stdio_output@@@__crt_stdio_output@@KAABV?$spectre_mitigated_lookup_table@Ustate_transition_pair@__crt_stdio_output@@$0IA@@2@XZ 1005a4d0 f i libucrtd:output.obj
 0001:000594e0       ?state_transition_table@?$standard_base@DV?$stream_output_adapter@D@__crt_stdio_output@@@__crt_stdio_output@@KAABV?$spectre_mitigated_lookup_table@Ustate_transition_pair@__crt_stdio_output@@$0IA@@2@XZ 1005a4e0 f i libucrtd:output.obj
 0001:000594f0       ?state_transition_table@?$standard_base@DV?$string_output_adapter@D@__crt_stdio_output@@@__crt_stdio_output@@KAABV?$spectre_mitigated_lookup_table@Ustate_transition_pair@__crt_stdio_output@@$0IA@@2@XZ 1005a4f0 f i libucrtd:output.obj
 0001:00059500       ?state_transition_table@?$standard_base@_WV?$stream_output_adapter@_W@__crt_stdio_output@@@__crt_stdio_output@@KAABV?$spectre_mitigated_lookup_table@Ustate_transition_pair@__crt_stdio_output@@$0IA@@2@XZ 1005a500 f i libucrtd:output.obj
 0001:00059510       ?state_transition_table@?$standard_base@_WV?$string_output_adapter@_W@__crt_stdio_output@@@__crt_stdio_output@@KAABV?$spectre_mitigated_lookup_table@Ustate_transition_pair@__crt_stdio_output@@$0IA@@2@XZ 1005a510 f i libucrtd:output.obj
 0001:00059520       ?tchar_string@?$common_data@D@__crt_stdio_output@@IAEAAPADD@Z 1005a520 f i libucrtd:output.obj
 0001:00059540       ?tchar_string@?$common_data@D@__crt_stdio_output@@IAEAAPADXZ 1005a540 f i libucrtd:output.obj
 0001:00059560       ?tchar_string@?$common_data@_W@__crt_stdio_output@@IAEAAPA_WXZ 1005a560 f i libucrtd:output.obj
 0001:00059580       ?tchar_string@?$common_data@_W@__crt_stdio_output@@IAEAAPA_W_W@Z 1005a580 f i libucrtd:output.obj
 0001:000595a0       ?to_integer_size@__crt_stdio_output@@YAIW4length_modifier@1@@Z 1005a5a0 f i libucrtd:output.obj
 0001:00059640       ?type_case_X@?$output_processor@DV?$stream_output_adapter@D@__crt_stdio_output@@V?$format_validation_base@DV?$stream_output_adapter@D@__crt_stdio_output@@@2@@__crt_stdio_output@@AAE_NXZ 1005a640 f i libucrtd:output.obj
 0001:00059660       ?type_case_X@?$output_processor@DV?$stream_output_adapter@D@__crt_stdio_output@@V?$positional_parameter_base@DV?$stream_output_adapter@D@__crt_stdio_output@@@2@@__crt_stdio_output@@AAE_NXZ 1005a660 f i libucrtd:output.obj
 0001:00059680       ?type_case_X@?$output_processor@DV?$stream_output_adapter@D@__crt_stdio_output@@V?$standard_base@DV?$stream_output_adapter@D@__crt_stdio_output@@@2@@__crt_stdio_output@@AAE_NXZ 1005a680 f i libucrtd:output.obj
 0001:000596a0       ?type_case_X@?$output_processor@DV?$string_output_adapter@D@__crt_stdio_output@@V?$format_validation_base@DV?$string_output_adapter@D@__crt_stdio_output@@@2@@__crt_stdio_output@@AAE_NXZ 1005a6a0 f i libucrtd:output.obj
 0001:000596c0       ?type_case_X@?$output_processor@DV?$string_output_adapter@D@__crt_stdio_output@@V?$positional_parameter_base@DV?$string_output_adapter@D@__crt_stdio_output@@@2@@__crt_stdio_output@@AAE_NXZ 1005a6c0 f i libucrtd:output.obj
 0001:000596e0       ?type_case_X@?$output_processor@DV?$string_output_adapter@D@__crt_stdio_output@@V?$standard_base@DV?$string_output_adapter@D@__crt_stdio_output@@@2@@__crt_stdio_output@@AAE_NXZ 1005a6e0 f i libucrtd:output.obj
 0001:00059700       ?type_case_X@?$output_processor@_WV?$stream_output_adapter@_W@__crt_stdio_output@@V?$format_validation_base@_WV?$stream_output_adapter@_W@__crt_stdio_output@@@2@@__crt_stdio_output@@AAE_NXZ 1005a700 f i libucrtd:output.obj
 0001:00059720       ?type_case_X@?$output_processor@_WV?$stream_output_adapter@_W@__crt_stdio_output@@V?$positional_parameter_base@_WV?$stream_output_adapter@_W@__crt_stdio_output@@@2@@__crt_stdio_output@@AAE_NXZ 1005a720 f i libucrtd:output.obj
 0001:00059740       ?type_case_X@?$output_processor@_WV?$stream_output_adapter@_W@__crt_stdio_output@@V?$standard_base@_WV?$stream_output_adapter@_W@__crt_stdio_output@@@2@@__crt_stdio_output@@AAE_NXZ 1005a740 f i libucrtd:output.obj
 0001:00059760       ?type_case_X@?$output_processor@_WV?$string_output_adapter@_W@__crt_stdio_output@@V?$format_validation_base@_WV?$string_output_adapter@_W@__crt_stdio_output@@@2@@__crt_stdio_output@@AAE_NXZ 1005a760 f i libucrtd:output.obj
 0001:00059780       ?type_case_X@?$output_processor@_WV?$string_output_adapter@_W@__crt_stdio_output@@V?$positional_parameter_base@_WV?$string_output_adapter@_W@__crt_stdio_output@@@2@@__crt_stdio_output@@AAE_NXZ 1005a780 f i libucrtd:output.obj
 0001:000597a0       ?type_case_X@?$output_processor@_WV?$string_output_adapter@_W@__crt_stdio_output@@V?$standard_base@_WV?$string_output_adapter@_W@__crt_stdio_output@@@2@@__crt_stdio_output@@AAE_NXZ 1005a7a0 f i libucrtd:output.obj
 0001:000597c0       ?type_case_Z@?$output_processor@DV?$stream_output_adapter@D@__crt_stdio_output@@V?$format_validation_base@DV?$stream_output_adapter@D@__crt_stdio_output@@@2@@__crt_stdio_output@@AAE_NXZ 1005a7c0 f i libucrtd:output.obj
 0001:000598b0       ?type_case_Z@?$output_processor@DV?$stream_output_adapter@D@__crt_stdio_output@@V?$positional_parameter_base@DV?$stream_output_adapter@D@__crt_stdio_output@@@2@@__crt_stdio_output@@AAE_NXZ 1005a8b0 f i libucrtd:output.obj
 0001:000599a0       ?type_case_Z@?$output_processor@DV?$stream_output_adapter@D@__crt_stdio_output@@V?$standard_base@DV?$stream_output_adapter@D@__crt_stdio_output@@@2@@__crt_stdio_output@@AAE_NXZ 1005a9a0 f i libucrtd:output.obj
 0001:00059a90       ?type_case_Z@?$output_processor@DV?$string_output_adapter@D@__crt_stdio_output@@V?$format_validation_base@DV?$string_output_adapter@D@__crt_stdio_output@@@2@@__crt_stdio_output@@AAE_NXZ 1005aa90 f i libucrtd:output.obj
 0001:00059b80       ?type_case_Z@?$output_processor@DV?$string_output_adapter@D@__crt_stdio_output@@V?$positional_parameter_base@DV?$string_output_adapter@D@__crt_stdio_output@@@2@@__crt_stdio_output@@AAE_NXZ 1005ab80 f i libucrtd:output.obj
 0001:00059c70       ?type_case_Z@?$output_processor@DV?$string_output_adapter@D@__crt_stdio_output@@V?$standard_base@DV?$string_output_adapter@D@__crt_stdio_output@@@2@@__crt_stdio_output@@AAE_NXZ 1005ac70 f i libucrtd:output.obj
 0001:00059d60       ?type_case_Z@?$output_processor@_WV?$stream_output_adapter@_W@__crt_stdio_output@@V?$format_validation_base@_WV?$stream_output_adapter@_W@__crt_stdio_output@@@2@@__crt_stdio_output@@AAE_NXZ 1005ad60 f i libucrtd:output.obj
 0001:00059e50       ?type_case_Z@?$output_processor@_WV?$stream_output_adapter@_W@__crt_stdio_output@@V?$positional_parameter_base@_WV?$stream_output_adapter@_W@__crt_stdio_output@@@2@@__crt_stdio_output@@AAE_NXZ 1005ae50 f i libucrtd:output.obj
 0001:00059f40       ?type_case_Z@?$output_processor@_WV?$stream_output_adapter@_W@__crt_stdio_output@@V?$standard_base@_WV?$stream_output_adapter@_W@__crt_stdio_output@@@2@@__crt_stdio_output@@AAE_NXZ 1005af40 f i libucrtd:output.obj
 0001:0005a030       ?type_case_Z@?$output_processor@_WV?$string_output_adapter@_W@__crt_stdio_output@@V?$format_validation_base@_WV?$string_output_adapter@_W@__crt_stdio_output@@@2@@__crt_stdio_output@@AAE_NXZ 1005b030 f i libucrtd:output.obj
 0001:0005a120       ?type_case_Z@?$output_processor@_WV?$string_output_adapter@_W@__crt_stdio_output@@V?$positional_parameter_base@_WV?$string_output_adapter@_W@__crt_stdio_output@@@2@@__crt_stdio_output@@AAE_NXZ 1005b120 f i libucrtd:output.obj
 0001:0005a210       ?type_case_Z@?$output_processor@_WV?$string_output_adapter@_W@__crt_stdio_output@@V?$standard_base@_WV?$string_output_adapter@_W@__crt_stdio_output@@@2@@__crt_stdio_output@@AAE_NXZ 1005b210 f i libucrtd:output.obj
 0001:0005a300       ?type_case_a@?$output_processor@DV?$stream_output_adapter@D@__crt_stdio_output@@V?$format_validation_base@DV?$stream_output_adapter@D@__crt_stdio_output@@@2@@__crt_stdio_output@@AAE_NXZ 1005b300 f i libucrtd:output.obj
 0001:0005a570       ?type_case_a@?$output_processor@DV?$stream_output_adapter@D@__crt_stdio_output@@V?$positional_parameter_base@DV?$stream_output_adapter@D@__crt_stdio_output@@@2@@__crt_stdio_output@@AAE_NXZ 1005b570 f i libucrtd:output.obj
 0001:0005a7e0       ?type_case_a@?$output_processor@DV?$stream_output_adapter@D@__crt_stdio_output@@V?$standard_base@DV?$stream_output_adapter@D@__crt_stdio_output@@@2@@__crt_stdio_output@@AAE_NXZ 1005b7e0 f i libucrtd:output.obj
 0001:0005aa50       ?type_case_a@?$output_processor@DV?$string_output_adapter@D@__crt_stdio_output@@V?$format_validation_base@DV?$string_output_adapter@D@__crt_stdio_output@@@2@@__crt_stdio_output@@AAE_NXZ 1005ba50 f i libucrtd:output.obj
 0001:0005acc0       ?type_case_a@?$output_processor@DV?$string_output_adapter@D@__crt_stdio_output@@V?$positional_parameter_base@DV?$string_output_adapter@D@__crt_stdio_output@@@2@@__crt_stdio_output@@AAE_NXZ 1005bcc0 f i libucrtd:output.obj
 0001:0005af30       ?type_case_a@?$output_processor@DV?$string_output_adapter@D@__crt_stdio_output@@V?$standard_base@DV?$string_output_adapter@D@__crt_stdio_output@@@2@@__crt_stdio_output@@AAE_NXZ 1005bf30 f i libucrtd:output.obj
 0001:0005b1a0       ?type_case_a@?$output_processor@_WV?$stream_output_adapter@_W@__crt_stdio_output@@V?$format_validation_base@_WV?$stream_output_adapter@_W@__crt_stdio_output@@@2@@__crt_stdio_output@@AAE_NXZ 1005c1a0 f i libucrtd:output.obj
 0001:0005b410       ?type_case_a@?$output_processor@_WV?$stream_output_adapter@_W@__crt_stdio_output@@V?$positional_parameter_base@_WV?$stream_output_adapter@_W@__crt_stdio_output@@@2@@__crt_stdio_output@@AAE_NXZ 1005c410 f i libucrtd:output.obj
 0001:0005b680       ?type_case_a@?$output_processor@_WV?$stream_output_adapter@_W@__crt_stdio_output@@V?$standard_base@_WV?$stream_output_adapter@_W@__crt_stdio_output@@@2@@__crt_stdio_output@@AAE_NXZ 1005c680 f i libucrtd:output.obj
 0001:0005b8f0       ?type_case_a@?$output_processor@_WV?$string_output_adapter@_W@__crt_stdio_output@@V?$format_validation_base@_WV?$string_output_adapter@_W@__crt_stdio_output@@@2@@__crt_stdio_output@@AAE_NXZ 1005c8f0 f i libucrtd:output.obj
 0001:0005bb60       ?type_case_a@?$output_processor@_WV?$string_output_adapter@_W@__crt_stdio_output@@V?$positional_parameter_base@_WV?$string_output_adapter@_W@__crt_stdio_output@@@2@@__crt_stdio_output@@AAE_NXZ 1005cb60 f i libucrtd:output.obj
 0001:0005bdd0       ?type_case_a@?$output_processor@_WV?$string_output_adapter@_W@__crt_stdio_output@@V?$standard_base@_WV?$string_output_adapter@_W@__crt_stdio_output@@@2@@__crt_stdio_output@@AAE_NXZ 1005cdd0 f i libucrtd:output.obj
 0001:0005c040       ?type_case_c@?$output_processor@DV?$stream_output_adapter@D@__crt_stdio_output@@V?$format_validation_base@DV?$stream_output_adapter@D@__crt_stdio_output@@@2@@__crt_stdio_output@@AAE_NXZ 1005d040 f i libucrtd:output.obj
 0001:0005c060       ?type_case_c@?$output_processor@DV?$stream_output_adapter@D@__crt_stdio_output@@V?$positional_parameter_base@DV?$stream_output_adapter@D@__crt_stdio_output@@@2@@__crt_stdio_output@@AAE_NXZ 1005d060 f i libucrtd:output.obj
 0001:0005c080       ?type_case_c@?$output_processor@DV?$stream_output_adapter@D@__crt_stdio_output@@V?$standard_base@DV?$stream_output_adapter@D@__crt_stdio_output@@@2@@__crt_stdio_output@@AAE_NXZ 1005d080 f i libucrtd:output.obj
 0001:0005c0a0       ?type_case_c@?$output_processor@DV?$string_output_adapter@D@__crt_stdio_output@@V?$format_validation_base@DV?$string_output_adapter@D@__crt_stdio_output@@@2@@__crt_stdio_output@@AAE_NXZ 1005d0a0 f i libucrtd:output.obj
 0001:0005c0c0       ?type_case_c@?$output_processor@DV?$string_output_adapter@D@__crt_stdio_output@@V?$positional_parameter_base@DV?$string_output_adapter@D@__crt_stdio_output@@@2@@__crt_stdio_output@@AAE_NXZ 1005d0c0 f i libucrtd:output.obj
 0001:0005c0e0       ?type_case_c@?$output_processor@DV?$string_output_adapter@D@__crt_stdio_output@@V?$standard_base@DV?$string_output_adapter@D@__crt_stdio_output@@@2@@__crt_stdio_output@@AAE_NXZ 1005d0e0 f i libucrtd:output.obj
 0001:0005c100       ?type_case_c@?$output_processor@_WV?$stream_output_adapter@_W@__crt_stdio_output@@V?$format_validation_base@_WV?$stream_output_adapter@_W@__crt_stdio_output@@@2@@__crt_stdio_output@@AAE_NXZ 1005d100 f i libucrtd:output.obj
 0001:0005c120       ?type_case_c@?$output_processor@_WV?$stream_output_adapter@_W@__crt_stdio_output@@V?$positional_parameter_base@_WV?$stream_output_adapter@_W@__crt_stdio_output@@@2@@__crt_stdio_output@@AAE_NXZ 1005d120 f i libucrtd:output.obj
 0001:0005c140       ?type_case_c@?$output_processor@_WV?$stream_output_adapter@_W@__crt_stdio_output@@V?$standard_base@_WV?$stream_output_adapter@_W@__crt_stdio_output@@@2@@__crt_stdio_output@@AAE_NXZ 1005d140 f i libucrtd:output.obj
 0001:0005c160       ?type_case_c@?$output_processor@_WV?$string_output_adapter@_W@__crt_stdio_output@@V?$format_validation_base@_WV?$string_output_adapter@_W@__crt_stdio_output@@@2@@__crt_stdio_output@@AAE_NXZ 1005d160 f i libucrtd:output.obj
 0001:0005c180       ?type_case_c@?$output_processor@_WV?$string_output_adapter@_W@__crt_stdio_output@@V?$positional_parameter_base@_WV?$string_output_adapter@_W@__crt_stdio_output@@@2@@__crt_stdio_output@@AAE_NXZ 1005d180 f i libucrtd:output.obj
 0001:0005c1a0       ?type_case_c@?$output_processor@_WV?$string_output_adapter@_W@__crt_stdio_output@@V?$standard_base@_WV?$string_output_adapter@_W@__crt_stdio_output@@@2@@__crt_stdio_output@@AAE_NXZ 1005d1a0 f i libucrtd:output.obj
 0001:0005c1c0       ?type_case_c_tchar@?$output_processor@DV?$stream_output_adapter@D@__crt_stdio_output@@V?$format_validation_base@DV?$stream_output_adapter@D@__crt_stdio_output@@@2@@__crt_stdio_output@@AAE_ND@Z 1005d1c0 f i libucrtd:output.obj
 0001:0005c2d0       ?type_case_c_tchar@?$output_processor@DV?$stream_output_adapter@D@__crt_stdio_output@@V?$positional_parameter_base@DV?$stream_output_adapter@D@__crt_stdio_output@@@2@@__crt_stdio_output@@AAE_ND@Z 1005d2d0 f i libucrtd:output.obj
 0001:0005c3e0       ?type_case_c_tchar@?$output_processor@DV?$stream_output_adapter@D@__crt_stdio_output@@V?$standard_base@DV?$stream_output_adapter@D@__crt_stdio_output@@@2@@__crt_stdio_output@@AAE_ND@Z 1005d3e0 f i libucrtd:output.obj
 0001:0005c4f0       ?type_case_c_tchar@?$output_processor@DV?$string_output_adapter@D@__crt_stdio_output@@V?$format_validation_base@DV?$string_output_adapter@D@__crt_stdio_output@@@2@@__crt_stdio_output@@AAE_ND@Z 1005d4f0 f i libucrtd:output.obj
 0001:0005c600       ?type_case_c_tchar@?$output_processor@DV?$string_output_adapter@D@__crt_stdio_output@@V?$positional_parameter_base@DV?$string_output_adapter@D@__crt_stdio_output@@@2@@__crt_stdio_output@@AAE_ND@Z 1005d600 f i libucrtd:output.obj
 0001:0005c710       ?type_case_c_tchar@?$output_processor@DV?$string_output_adapter@D@__crt_stdio_output@@V?$standard_base@DV?$string_output_adapter@D@__crt_stdio_output@@@2@@__crt_stdio_output@@AAE_ND@Z 1005d710 f i libucrtd:output.obj
 0001:0005c820       ?type_case_c_tchar@?$output_processor@_WV?$stream_output_adapter@_W@__crt_stdio_output@@V?$format_validation_base@_WV?$stream_output_adapter@_W@__crt_stdio_output@@@2@@__crt_stdio_output@@AAE_N_W@Z 1005d820 f i libucrtd:output.obj
 0001:0005c920       ?type_case_c_tchar@?$output_processor@_WV?$stream_output_adapter@_W@__crt_stdio_output@@V?$positional_parameter_base@_WV?$stream_output_adapter@_W@__crt_stdio_output@@@2@@__crt_stdio_output@@AAE_N_W@Z 1005d920 f i libucrtd:output.obj
 0001:0005ca20       ?type_case_c_tchar@?$output_processor@_WV?$stream_output_adapter@_W@__crt_stdio_output@@V?$standard_base@_WV?$stream_output_adapter@_W@__crt_stdio_output@@@2@@__crt_stdio_output@@AAE_N_W@Z 1005da20 f i libucrtd:output.obj
 0001:0005cb20       ?type_case_c_tchar@?$output_processor@_WV?$string_output_adapter@_W@__crt_stdio_output@@V?$format_validation_base@_WV?$string_output_adapter@_W@__crt_stdio_output@@@2@@__crt_stdio_output@@AAE_N_W@Z 1005db20 f i libucrtd:output.obj
 0001:0005cc20       ?type_case_c_tchar@?$output_processor@_WV?$string_output_adapter@_W@__crt_stdio_output@@V?$positional_parameter_base@_WV?$string_output_adapter@_W@__crt_stdio_output@@@2@@__crt_stdio_output@@AAE_N_W@Z 1005dc20 f i libucrtd:output.obj
 0001:0005cd20       ?type_case_c_tchar@?$output_processor@_WV?$string_output_adapter@_W@__crt_stdio_output@@V?$standard_base@_WV?$string_output_adapter@_W@__crt_stdio_output@@@2@@__crt_stdio_output@@AAE_N_W@Z 1005dd20 f i libucrtd:output.obj
 0001:0005ce20       ?type_case_d@?$output_processor@DV?$stream_output_adapter@D@__crt_stdio_output@@V?$format_validation_base@DV?$stream_output_adapter@D@__crt_stdio_output@@@2@@__crt_stdio_output@@AAE_NXZ 1005de20 f i libucrtd:output.obj
 0001:0005ce50       ?type_case_d@?$output_processor@DV?$stream_output_adapter@D@__crt_stdio_output@@V?$positional_parameter_base@DV?$stream_output_adapter@D@__crt_stdio_output@@@2@@__crt_stdio_output@@AAE_NXZ 1005de50 f i libucrtd:output.obj
 0001:0005ce80       ?type_case_d@?$output_processor@DV?$stream_output_adapter@D@__crt_stdio_output@@V?$standard_base@DV?$stream_output_adapter@D@__crt_stdio_output@@@2@@__crt_stdio_output@@AAE_NXZ 1005de80 f i libucrtd:output.obj
 0001:0005ceb0       ?type_case_d@?$output_processor@DV?$string_output_adapter@D@__crt_stdio_output@@V?$format_validation_base@DV?$string_output_adapter@D@__crt_stdio_output@@@2@@__crt_stdio_output@@AAE_NXZ 1005deb0 f i libucrtd:output.obj
 0001:0005cee0       ?type_case_d@?$output_processor@DV?$string_output_adapter@D@__crt_stdio_output@@V?$positional_parameter_base@DV?$string_output_adapter@D@__crt_stdio_output@@@2@@__crt_stdio_output@@AAE_NXZ 1005dee0 f i libucrtd:output.obj
 0001:0005cf10       ?type_case_d@?$output_processor@DV?$string_output_adapter@D@__crt_stdio_output@@V?$standard_base@DV?$string_output_adapter@D@__crt_stdio_output@@@2@@__crt_stdio_output@@AAE_NXZ 1005df10 f i libucrtd:output.obj
 0001:0005cf40       ?type_case_d@?$output_processor@_WV?$stream_output_adapter@_W@__crt_stdio_output@@V?$format_validation_base@_WV?$stream_output_adapter@_W@__crt_stdio_output@@@2@@__crt_stdio_output@@AAE_NXZ 1005df40 f i libucrtd:output.obj
 0001:0005cf70       ?type_case_d@?$output_processor@_WV?$stream_output_adapter@_W@__crt_stdio_output@@V?$positional_parameter_base@_WV?$stream_output_adapter@_W@__crt_stdio_output@@@2@@__crt_stdio_output@@AAE_NXZ 1005df70 f i libucrtd:output.obj
 0001:0005cfa0       ?type_case_d@?$output_processor@_WV?$stream_output_adapter@_W@__crt_stdio_output@@V?$standard_base@_WV?$stream_output_adapter@_W@__crt_stdio_output@@@2@@__crt_stdio_output@@AAE_NXZ 1005dfa0 f i libucrtd:output.obj
 0001:0005cfd0       ?type_case_d@?$output_processor@_WV?$string_output_adapter@_W@__crt_stdio_output@@V?$format_validation_base@_WV?$string_output_adapter@_W@__crt_stdio_output@@@2@@__crt_stdio_output@@AAE_NXZ 1005dfd0 f i libucrtd:output.obj
 0001:0005d000       ?type_case_d@?$output_processor@_WV?$string_output_adapter@_W@__crt_stdio_output@@V?$positional_parameter_base@_WV?$string_output_adapter@_W@__crt_stdio_output@@@2@@__crt_stdio_output@@AAE_NXZ 1005e000 f i libucrtd:output.obj
 0001:0005d030       ?type_case_d@?$output_processor@_WV?$string_output_adapter@_W@__crt_stdio_output@@V?$standard_base@_WV?$string_output_adapter@_W@__crt_stdio_output@@@2@@__crt_stdio_output@@AAE_NXZ 1005e030 f i libucrtd:output.obj
 0001:0005d060       ?type_case_integer@?$output_processor@DV?$stream_output_adapter@D@__crt_stdio_output@@V?$format_validation_base@DV?$stream_output_adapter@D@__crt_stdio_output@@@2@@__crt_stdio_output@@AAE_NI_N@Z 1005e060 f i libucrtd:output.obj
 0001:0005d3b0       ?type_case_integer@?$output_processor@DV?$stream_output_adapter@D@__crt_stdio_output@@V?$positional_parameter_base@DV?$stream_output_adapter@D@__crt_stdio_output@@@2@@__crt_stdio_output@@AAE_NI_N@Z 1005e3b0 f i libucrtd:output.obj
 0001:0005d700       ?type_case_integer@?$output_processor@DV?$stream_output_adapter@D@__crt_stdio_output@@V?$standard_base@DV?$stream_output_adapter@D@__crt_stdio_output@@@2@@__crt_stdio_output@@AAE_NI_N@Z 1005e700 f i libucrtd:output.obj
 0001:0005da50       ?type_case_integer@?$output_processor@DV?$string_output_adapter@D@__crt_stdio_output@@V?$format_validation_base@DV?$string_output_adapter@D@__crt_stdio_output@@@2@@__crt_stdio_output@@AAE_NI_N@Z 1005ea50 f i libucrtd:output.obj
 0001:0005dda0       ?type_case_integer@?$output_processor@DV?$string_output_adapter@D@__crt_stdio_output@@V?$positional_parameter_base@DV?$string_output_adapter@D@__crt_stdio_output@@@2@@__crt_stdio_output@@AAE_NI_N@Z 1005eda0 f i libucrtd:output.obj
 0001:0005e0f0       ?type_case_integer@?$output_processor@DV?$string_output_adapter@D@__crt_stdio_output@@V?$standard_base@DV?$string_output_adapter@D@__crt_stdio_output@@@2@@__crt_stdio_output@@AAE_NI_N@Z 1005f0f0 f i libucrtd:output.obj
 0001:0005e440       ?type_case_integer@?$output_processor@_WV?$stream_output_adapter@_W@__crt_stdio_output@@V?$format_validation_base@_WV?$stream_output_adapter@_W@__crt_stdio_output@@@2@@__crt_stdio_output@@AAE_NI_N@Z 1005f440 f i libucrtd:output.obj
 0001:0005e790       ?type_case_integer@?$output_processor@_WV?$stream_output_adapter@_W@__crt_stdio_output@@V?$positional_parameter_base@_WV?$stream_output_adapter@_W@__crt_stdio_output@@@2@@__crt_stdio_output@@AAE_NI_N@Z 1005f790 f i libucrtd:output.obj
 0001:0005eae0       ?type_case_integer@?$output_processor@_WV?$stream_output_adapter@_W@__crt_stdio_output@@V?$standard_base@_WV?$stream_output_adapter@_W@__crt_stdio_output@@@2@@__crt_stdio_output@@AAE_NI_N@Z 1005fae0 f i libucrtd:output.obj
 0001:0005ee30       ?type_case_integer@?$output_processor@_WV?$string_output_adapter@_W@__crt_stdio_output@@V?$format_validation_base@_WV?$string_output_adapter@_W@__crt_stdio_output@@@2@@__crt_stdio_output@@AAE_NI_N@Z 1005fe30 f i libucrtd:output.obj
 0001:0005f180       ?type_case_integer@?$output_processor@_WV?$string_output_adapter@_W@__crt_stdio_output@@V?$positional_parameter_base@_WV?$string_output_adapter@_W@__crt_stdio_output@@@2@@__crt_stdio_output@@AAE_NI_N@Z 10060180 f i libucrtd:output.obj
 0001:0005f4d0       ?type_case_integer@?$output_processor@_WV?$string_output_adapter@_W@__crt_stdio_output@@V?$standard_base@_WV?$string_output_adapter@_W@__crt_stdio_output@@@2@@__crt_stdio_output@@AAE_NI_N@Z 100604d0 f i libucrtd:output.obj
 0001:0005f820       ?type_case_n@?$output_processor@DV?$stream_output_adapter@D@__crt_stdio_output@@V?$format_validation_base@DV?$stream_output_adapter@D@__crt_stdio_output@@@2@@__crt_stdio_output@@AAE_NXZ 10060820 f i libucrtd:output.obj
 0001:0005fa10       ?type_case_n@?$output_processor@DV?$stream_output_adapter@D@__crt_stdio_output@@V?$positional_parameter_base@DV?$stream_output_adapter@D@__crt_stdio_output@@@2@@__crt_stdio_output@@AAE_NXZ 10060a10 f i libucrtd:output.obj
 0001:0005fc00       ?type_case_n@?$output_processor@DV?$stream_output_adapter@D@__crt_stdio_output@@V?$standard_base@DV?$stream_output_adapter@D@__crt_stdio_output@@@2@@__crt_stdio_output@@AAE_NXZ 10060c00 f i libucrtd:output.obj
 0001:0005fdf0       ?type_case_n@?$output_processor@DV?$string_output_adapter@D@__crt_stdio_output@@V?$format_validation_base@DV?$string_output_adapter@D@__crt_stdio_output@@@2@@__crt_stdio_output@@AAE_NXZ 10060df0 f i libucrtd:output.obj
 0001:0005ffe0       ?type_case_n@?$output_processor@DV?$string_output_adapter@D@__crt_stdio_output@@V?$positional_parameter_base@DV?$string_output_adapter@D@__crt_stdio_output@@@2@@__crt_stdio_output@@AAE_NXZ 10060fe0 f i libucrtd:output.obj
 0001:000601d0       ?type_case_n@?$output_processor@DV?$string_output_adapter@D@__crt_stdio_output@@V?$standard_base@DV?$string_output_adapter@D@__crt_stdio_output@@@2@@__crt_stdio_output@@AAE_NXZ 100611d0 f i libucrtd:output.obj
 0001:000603c0       ?type_case_n@?$output_processor@_WV?$stream_output_adapter@_W@__crt_stdio_output@@V?$format_validation_base@_WV?$stream_output_adapter@_W@__crt_stdio_output@@@2@@__crt_stdio_output@@AAE_NXZ 100613c0 f i libucrtd:output.obj
 0001:000605b0       ?type_case_n@?$output_processor@_WV?$stream_output_adapter@_W@__crt_stdio_output@@V?$positional_parameter_base@_WV?$stream_output_adapter@_W@__crt_stdio_output@@@2@@__crt_stdio_output@@AAE_NXZ 100615b0 f i libucrtd:output.obj
 0001:000607a0       ?type_case_n@?$output_processor@_WV?$stream_output_adapter@_W@__crt_stdio_output@@V?$standard_base@_WV?$stream_output_adapter@_W@__crt_stdio_output@@@2@@__crt_stdio_output@@AAE_NXZ 100617a0 f i libucrtd:output.obj
 0001:00060990       ?type_case_n@?$output_processor@_WV?$string_output_adapter@_W@__crt_stdio_output@@V?$format_validation_base@_WV?$string_output_adapter@_W@__crt_stdio_output@@@2@@__crt_stdio_output@@AAE_NXZ 10061990 f i libucrtd:output.obj
 0001:00060b80       ?type_case_n@?$output_processor@_WV?$string_output_adapter@_W@__crt_stdio_output@@V?$positional_parameter_base@_WV?$string_output_adapter@_W@__crt_stdio_output@@@2@@__crt_stdio_output@@AAE_NXZ 10061b80 f i libucrtd:output.obj
 0001:00060d70       ?type_case_n@?$output_processor@_WV?$string_output_adapter@_W@__crt_stdio_output@@V?$standard_base@_WV?$string_output_adapter@_W@__crt_stdio_output@@@2@@__crt_stdio_output@@AAE_NXZ 10061d70 f i libucrtd:output.obj
 0001:00060f60       ?type_case_o@?$output_processor@DV?$stream_output_adapter@D@__crt_stdio_output@@V?$format_validation_base@DV?$stream_output_adapter@D@__crt_stdio_output@@@2@@__crt_stdio_output@@AAE_NXZ 10061f60 f i libucrtd:output.obj
 0001:00060fa0       ?type_case_o@?$output_processor@DV?$stream_output_adapter@D@__crt_stdio_output@@V?$positional_parameter_base@DV?$stream_output_adapter@D@__crt_stdio_output@@@2@@__crt_stdio_output@@AAE_NXZ 10061fa0 f i libucrtd:output.obj
 0001:00060fe0       ?type_case_o@?$output_processor@DV?$stream_output_adapter@D@__crt_stdio_output@@V?$standard_base@DV?$stream_output_adapter@D@__crt_stdio_output@@@2@@__crt_stdio_output@@AAE_NXZ 10061fe0 f i libucrtd:output.obj
 0001:00061020       ?type_case_o@?$output_processor@DV?$string_output_adapter@D@__crt_stdio_output@@V?$format_validation_base@DV?$string_output_adapter@D@__crt_stdio_output@@@2@@__crt_stdio_output@@AAE_NXZ 10062020 f i libucrtd:output.obj
 0001:00061060       ?type_case_o@?$output_processor@DV?$string_output_adapter@D@__crt_stdio_output@@V?$positional_parameter_base@DV?$string_output_adapter@D@__crt_stdio_output@@@2@@__crt_stdio_output@@AAE_NXZ 10062060 f i libucrtd:output.obj
 0001:000610a0       ?type_case_o@?$output_processor@DV?$string_output_adapter@D@__crt_stdio_output@@V?$standard_base@DV?$string_output_adapter@D@__crt_stdio_output@@@2@@__crt_stdio_output@@AAE_NXZ 100620a0 f i libucrtd:output.obj
 0001:000610e0       ?type_case_o@?$output_processor@_WV?$stream_output_adapter@_W@__crt_stdio_output@@V?$format_validation_base@_WV?$stream_output_adapter@_W@__crt_stdio_output@@@2@@__crt_stdio_output@@AAE_NXZ 100620e0 f i libucrtd:output.obj
 0001:00061120       ?type_case_o@?$output_processor@_WV?$stream_output_adapter@_W@__crt_stdio_output@@V?$positional_parameter_base@_WV?$stream_output_adapter@_W@__crt_stdio_output@@@2@@__crt_stdio_output@@AAE_NXZ 10062120 f i libucrtd:output.obj
 0001:00061160       ?type_case_o@?$output_processor@_WV?$stream_output_adapter@_W@__crt_stdio_output@@V?$standard_base@_WV?$stream_output_adapter@_W@__crt_stdio_output@@@2@@__crt_stdio_output@@AAE_NXZ 10062160 f i libucrtd:output.obj
 0001:000611a0       ?type_case_o@?$output_processor@_WV?$string_output_adapter@_W@__crt_stdio_output@@V?$format_validation_base@_WV?$string_output_adapter@_W@__crt_stdio_output@@@2@@__crt_stdio_output@@AAE_NXZ 100621a0 f i libucrtd:output.obj
 0001:000611e0       ?type_case_o@?$output_processor@_WV?$string_output_adapter@_W@__crt_stdio_output@@V?$positional_parameter_base@_WV?$string_output_adapter@_W@__crt_stdio_output@@@2@@__crt_stdio_output@@AAE_NXZ 100621e0 f i libucrtd:output.obj
 0001:00061220       ?type_case_o@?$output_processor@_WV?$string_output_adapter@_W@__crt_stdio_output@@V?$standard_base@_WV?$string_output_adapter@_W@__crt_stdio_output@@@2@@__crt_stdio_output@@AAE_NXZ 10062220 f i libucrtd:output.obj
 0001:00061260       ?type_case_p@?$output_processor@DV?$stream_output_adapter@D@__crt_stdio_output@@V?$format_validation_base@DV?$stream_output_adapter@D@__crt_stdio_output@@@2@@__crt_stdio_output@@AAE_NXZ 10062260 f i libucrtd:output.obj
 0001:00061290       ?type_case_p@?$output_processor@DV?$stream_output_adapter@D@__crt_stdio_output@@V?$positional_parameter_base@DV?$stream_output_adapter@D@__crt_stdio_output@@@2@@__crt_stdio_output@@AAE_NXZ 10062290 f i libucrtd:output.obj
 0001:000612c0       ?type_case_p@?$output_processor@DV?$stream_output_adapter@D@__crt_stdio_output@@V?$standard_base@DV?$stream_output_adapter@D@__crt_stdio_output@@@2@@__crt_stdio_output@@AAE_NXZ 100622c0 f i libucrtd:output.obj
 0001:000612f0       ?type_case_p@?$output_processor@DV?$string_output_adapter@D@__crt_stdio_output@@V?$format_validation_base@DV?$string_output_adapter@D@__crt_stdio_output@@@2@@__crt_stdio_output@@AAE_NXZ 100622f0 f i libucrtd:output.obj
 0001:00061320       ?type_case_p@?$output_processor@DV?$string_output_adapter@D@__crt_stdio_output@@V?$positional_parameter_base@DV?$string_output_adapter@D@__crt_stdio_output@@@2@@__crt_stdio_output@@AAE_NXZ 10062320 f i libucrtd:output.obj
 0001:00061350       ?type_case_p@?$output_processor@DV?$string_output_adapter@D@__crt_stdio_output@@V?$standard_base@DV?$string_output_adapter@D@__crt_stdio_output@@@2@@__crt_stdio_output@@AAE_NXZ 10062350 f i libucrtd:output.obj
 0001:00061380       ?type_case_p@?$output_processor@_WV?$stream_output_adapter@_W@__crt_stdio_output@@V?$format_validation_base@_WV?$stream_output_adapter@_W@__crt_stdio_output@@@2@@__crt_stdio_output@@AAE_NXZ 10062380 f i libucrtd:output.obj
 0001:000613b0       ?type_case_p@?$output_processor@_WV?$stream_output_adapter@_W@__crt_stdio_output@@V?$positional_parameter_base@_WV?$stream_output_adapter@_W@__crt_stdio_output@@@2@@__crt_stdio_output@@AAE_NXZ 100623b0 f i libucrtd:output.obj
 0001:000613e0       ?type_case_p@?$output_processor@_WV?$stream_output_adapter@_W@__crt_stdio_output@@V?$standard_base@_WV?$stream_output_adapter@_W@__crt_stdio_output@@@2@@__crt_stdio_output@@AAE_NXZ 100623e0 f i libucrtd:output.obj
 0001:00061410       ?type_case_p@?$output_processor@_WV?$string_output_adapter@_W@__crt_stdio_output@@V?$format_validation_base@_WV?$string_output_adapter@_W@__crt_stdio_output@@@2@@__crt_stdio_output@@AAE_NXZ 10062410 f i libucrtd:output.obj
 0001:00061440       ?type_case_p@?$output_processor@_WV?$string_output_adapter@_W@__crt_stdio_output@@V?$positional_parameter_base@_WV?$string_output_adapter@_W@__crt_stdio_output@@@2@@__crt_stdio_output@@AAE_NXZ 10062440 f i libucrtd:output.obj
 0001:00061470       ?type_case_p@?$output_processor@_WV?$string_output_adapter@_W@__crt_stdio_output@@V?$standard_base@_WV?$string_output_adapter@_W@__crt_stdio_output@@@2@@__crt_stdio_output@@AAE_NXZ 10062470 f i libucrtd:output.obj
 0001:000614a0       ?type_case_s@?$output_processor@DV?$stream_output_adapter@D@__crt_stdio_output@@V?$format_validation_base@DV?$stream_output_adapter@D@__crt_stdio_output@@@2@@__crt_stdio_output@@AAE_NXZ 100624a0 f i libucrtd:output.obj
 0001:00061590       ?type_case_s@?$output_processor@DV?$stream_output_adapter@D@__crt_stdio_output@@V?$positional_parameter_base@DV?$stream_output_adapter@D@__crt_stdio_output@@@2@@__crt_stdio_output@@AAE_NXZ 10062590 f i libucrtd:output.obj
 0001:00061680       ?type_case_s@?$output_processor@DV?$stream_output_adapter@D@__crt_stdio_output@@V?$standard_base@DV?$stream_output_adapter@D@__crt_stdio_output@@@2@@__crt_stdio_output@@AAE_NXZ 10062680 f i libucrtd:output.obj
 0001:00061770       ?type_case_s@?$output_processor@DV?$string_output_adapter@D@__crt_stdio_output@@V?$format_validation_base@DV?$string_output_adapter@D@__crt_stdio_output@@@2@@__crt_stdio_output@@AAE_NXZ 10062770 f i libucrtd:output.obj
 0001:00061860       ?type_case_s@?$output_processor@DV?$string_output_adapter@D@__crt_stdio_output@@V?$positional_parameter_base@DV?$string_output_adapter@D@__crt_stdio_output@@@2@@__crt_stdio_output@@AAE_NXZ 10062860 f i libucrtd:output.obj
 0001:00061950       ?type_case_s@?$output_processor@DV?$string_output_adapter@D@__crt_stdio_output@@V?$standard_base@DV?$string_output_adapter@D@__crt_stdio_output@@@2@@__crt_stdio_output@@AAE_NXZ 10062950 f i libucrtd:output.obj
 0001:00061a40       ?type_case_s@?$output_processor@_WV?$stream_output_adapter@_W@__crt_stdio_output@@V?$format_validation_base@_WV?$stream_output_adapter@_W@__crt_stdio_output@@@2@@__crt_stdio_output@@AAE_NXZ 10062a40 f i libucrtd:output.obj
 0001:00061b30       ?type_case_s@?$output_processor@_WV?$stream_output_adapter@_W@__crt_stdio_output@@V?$positional_parameter_base@_WV?$stream_output_adapter@_W@__crt_stdio_output@@@2@@__crt_stdio_output@@AAE_NXZ 10062b30 f i libucrtd:output.obj
 0001:00061c20       ?type_case_s@?$output_processor@_WV?$stream_output_adapter@_W@__crt_stdio_output@@V?$standard_base@_WV?$stream_output_adapter@_W@__crt_stdio_output@@@2@@__crt_stdio_output@@AAE_NXZ 10062c20 f i libucrtd:output.obj
 0001:00061d10       ?type_case_s@?$output_processor@_WV?$string_output_adapter@_W@__crt_stdio_output@@V?$format_validation_base@_WV?$string_output_adapter@_W@__crt_stdio_output@@@2@@__crt_stdio_output@@AAE_NXZ 10062d10 f i libucrtd:output.obj
 0001:00061e00       ?type_case_s@?$output_processor@_WV?$string_output_adapter@_W@__crt_stdio_output@@V?$positional_parameter_base@_WV?$string_output_adapter@_W@__crt_stdio_output@@@2@@__crt_stdio_output@@AAE_NXZ 10062e00 f i libucrtd:output.obj
 0001:00061ef0       ?type_case_s@?$output_processor@_WV?$string_output_adapter@_W@__crt_stdio_output@@V?$standard_base@_WV?$string_output_adapter@_W@__crt_stdio_output@@@2@@__crt_stdio_output@@AAE_NXZ 10062ef0 f i libucrtd:output.obj
 0001:00061fe0       ?type_case_s_compute_narrow_string_length@?$output_processor@DV?$stream_output_adapter@D@__crt_stdio_output@@V?$format_validation_base@DV?$stream_output_adapter@D@__crt_stdio_output@@@2@@__crt_stdio_output@@ABEHHD@Z 10062fe0 f i libucrtd:output.obj
 0001:00062010       ?type_case_s_compute_narrow_string_length@?$output_processor@DV?$stream_output_adapter@D@__crt_stdio_output@@V?$positional_parameter_base@DV?$stream_output_adapter@D@__crt_stdio_output@@@2@@__crt_stdio_output@@ABEHHD@Z 10063010 f i libucrtd:output.obj
 0001:00062040       ?type_case_s_compute_narrow_string_length@?$output_processor@DV?$stream_output_adapter@D@__crt_stdio_output@@V?$standard_base@DV?$stream_output_adapter@D@__crt_stdio_output@@@2@@__crt_stdio_output@@ABEHHD@Z 10063040 f i libucrtd:output.obj
 0001:00062070       ?type_case_s_compute_narrow_string_length@?$output_processor@DV?$string_output_adapter@D@__crt_stdio_output@@V?$format_validation_base@DV?$string_output_adapter@D@__crt_stdio_output@@@2@@__crt_stdio_output@@ABEHHD@Z 10063070 f i libucrtd:output.obj
 0001:000620a0       ?type_case_s_compute_narrow_string_length@?$output_processor@DV?$string_output_adapter@D@__crt_stdio_output@@V?$positional_parameter_base@DV?$string_output_adapter@D@__crt_stdio_output@@@2@@__crt_stdio_output@@ABEHHD@Z 100630a0 f i libucrtd:output.obj
 0001:000620d0       ?type_case_s_compute_narrow_string_length@?$output_processor@DV?$string_output_adapter@D@__crt_stdio_output@@V?$standard_base@DV?$string_output_adapter@D@__crt_stdio_output@@@2@@__crt_stdio_output@@ABEHHD@Z 100630d0 f i libucrtd:output.obj
 0001:00062100       ?type_case_s_compute_narrow_string_length@?$output_processor@_WV?$stream_output_adapter@_W@__crt_stdio_output@@V?$format_validation_base@_WV?$stream_output_adapter@_W@__crt_stdio_output@@@2@@__crt_stdio_output@@ABEHH_W@Z 10063100 f i libucrtd:output.obj
 0001:00062170       ?type_case_s_compute_narrow_string_length@?$output_processor@_WV?$stream_output_adapter@_W@__crt_stdio_output@@V?$positional_parameter_base@_WV?$stream_output_adapter@_W@__crt_stdio_output@@@2@@__crt_stdio_output@@ABEHH_W@Z 10063170 f i libucrtd:output.obj
 0001:000621e0       ?type_case_s_compute_narrow_string_length@?$output_processor@_WV?$stream_output_adapter@_W@__crt_stdio_output@@V?$standard_base@_WV?$stream_output_adapter@_W@__crt_stdio_output@@@2@@__crt_stdio_output@@ABEHH_W@Z 100631e0 f i libucrtd:output.obj
 0001:00062250       ?type_case_s_compute_narrow_string_length@?$output_processor@_WV?$string_output_adapter@_W@__crt_stdio_output@@V?$format_validation_base@_WV?$string_output_adapter@_W@__crt_stdio_output@@@2@@__crt_stdio_output@@ABEHH_W@Z 10063250 f i libucrtd:output.obj
 0001:000622c0       ?type_case_s_compute_narrow_string_length@?$output_processor@_WV?$string_output_adapter@_W@__crt_stdio_output@@V?$positional_parameter_base@_WV?$string_output_adapter@_W@__crt_stdio_output@@@2@@__crt_stdio_output@@ABEHH_W@Z 100632c0 f i libucrtd:output.obj
 0001:00062330       ?type_case_s_compute_narrow_string_length@?$output_processor@_WV?$string_output_adapter@_W@__crt_stdio_output@@V?$standard_base@_WV?$string_output_adapter@_W@__crt_stdio_output@@@2@@__crt_stdio_output@@ABEHH_W@Z 10063330 f i libucrtd:output.obj
 0001:000623a0       ?type_case_u@?$output_processor@DV?$stream_output_adapter@D@__crt_stdio_output@@V?$format_validation_base@DV?$stream_output_adapter@D@__crt_stdio_output@@@2@@__crt_stdio_output@@AAE_NXZ 100633a0 f i libucrtd:output.obj
 0001:000623c0       ?type_case_u@?$output_processor@DV?$stream_output_adapter@D@__crt_stdio_output@@V?$positional_parameter_base@DV?$stream_output_adapter@D@__crt_stdio_output@@@2@@__crt_stdio_output@@AAE_NXZ 100633c0 f i libucrtd:output.obj
 0001:000623e0       ?type_case_u@?$output_processor@DV?$stream_output_adapter@D@__crt_stdio_output@@V?$standard_base@DV?$stream_output_adapter@D@__crt_stdio_output@@@2@@__crt_stdio_output@@AAE_NXZ 100633e0 f i libucrtd:output.obj
 0001:00062400       ?type_case_u@?$output_processor@DV?$string_output_adapter@D@__crt_stdio_output@@V?$format_validation_base@DV?$string_output_adapter@D@__crt_stdio_output@@@2@@__crt_stdio_output@@AAE_NXZ 10063400 f i libucrtd:output.obj
 0001:00062420       ?type_case_u@?$output_processor@DV?$string_output_adapter@D@__crt_stdio_output@@V?$positional_parameter_base@DV?$string_output_adapter@D@__crt_stdio_output@@@2@@__crt_stdio_output@@AAE_NXZ 10063420 f i libucrtd:output.obj
 0001:00062440       ?type_case_u@?$output_processor@DV?$string_output_adapter@D@__crt_stdio_output@@V?$standard_base@DV?$string_output_adapter@D@__crt_stdio_output@@@2@@__crt_stdio_output@@AAE_NXZ 10063440 f i libucrtd:output.obj
 0001:00062460       ?type_case_u@?$output_processor@_WV?$stream_output_adapter@_W@__crt_stdio_output@@V?$format_validation_base@_WV?$stream_output_adapter@_W@__crt_stdio_output@@@2@@__crt_stdio_output@@AAE_NXZ 10063460 f i libucrtd:output.obj
 0001:00062480       ?type_case_u@?$output_processor@_WV?$stream_output_adapter@_W@__crt_stdio_output@@V?$positional_parameter_base@_WV?$stream_output_adapter@_W@__crt_stdio_output@@@2@@__crt_stdio_output@@AAE_NXZ 10063480 f i libucrtd:output.obj
 0001:000624a0       ?type_case_u@?$output_processor@_WV?$stream_output_adapter@_W@__crt_stdio_output@@V?$standard_base@_WV?$stream_output_adapter@_W@__crt_stdio_output@@@2@@__crt_stdio_output@@AAE_NXZ 100634a0 f i libucrtd:output.obj
 0001:000624c0       ?type_case_u@?$output_processor@_WV?$string_output_adapter@_W@__crt_stdio_output@@V?$format_validation_base@_WV?$string_output_adapter@_W@__crt_stdio_output@@@2@@__crt_stdio_output@@AAE_NXZ 100634c0 f i libucrtd:output.obj
 0001:000624e0       ?type_case_u@?$output_processor@_WV?$string_output_adapter@_W@__crt_stdio_output@@V?$positional_parameter_base@_WV?$string_output_adapter@_W@__crt_stdio_output@@@2@@__crt_stdio_output@@AAE_NXZ 100634e0 f i libucrtd:output.obj
 0001:00062500       ?type_case_u@?$output_processor@_WV?$string_output_adapter@_W@__crt_stdio_output@@V?$standard_base@_WV?$string_output_adapter@_W@__crt_stdio_output@@@2@@__crt_stdio_output@@AAE_NXZ 10063500 f i libucrtd:output.obj
 0001:00062520       ?type_case_x@?$output_processor@DV?$stream_output_adapter@D@__crt_stdio_output@@V?$format_validation_base@DV?$stream_output_adapter@D@__crt_stdio_output@@@2@@__crt_stdio_output@@AAE_NXZ 10063520 f i libucrtd:output.obj
 0001:00062540       ?type_case_x@?$output_processor@DV?$stream_output_adapter@D@__crt_stdio_output@@V?$positional_parameter_base@DV?$stream_output_adapter@D@__crt_stdio_output@@@2@@__crt_stdio_output@@AAE_NXZ 10063540 f i libucrtd:output.obj
 0001:00062560       ?type_case_x@?$output_processor@DV?$stream_output_adapter@D@__crt_stdio_output@@V?$standard_base@DV?$stream_output_adapter@D@__crt_stdio_output@@@2@@__crt_stdio_output@@AAE_NXZ 10063560 f i libucrtd:output.obj
 0001:00062580       ?type_case_x@?$output_processor@DV?$string_output_adapter@D@__crt_stdio_output@@V?$format_validation_base@DV?$string_output_adapter@D@__crt_stdio_output@@@2@@__crt_stdio_output@@AAE_NXZ 10063580 f i libucrtd:output.obj
 0001:000625a0       ?type_case_x@?$output_processor@DV?$string_output_adapter@D@__crt_stdio_output@@V?$positional_parameter_base@DV?$string_output_adapter@D@__crt_stdio_output@@@2@@__crt_stdio_output@@AAE_NXZ 100635a0 f i libucrtd:output.obj
 0001:000625c0       ?type_case_x@?$output_processor@DV?$string_output_adapter@D@__crt_stdio_output@@V?$standard_base@DV?$string_output_adapter@D@__crt_stdio_output@@@2@@__crt_stdio_output@@AAE_NXZ 100635c0 f i libucrtd:output.obj
 0001:000625e0       ?type_case_x@?$output_processor@_WV?$stream_output_adapter@_W@__crt_stdio_output@@V?$format_validation_base@_WV?$stream_output_adapter@_W@__crt_stdio_output@@@2@@__crt_stdio_output@@AAE_NXZ 100635e0 f i libucrtd:output.obj
 0001:00062600       ?type_case_x@?$output_processor@_WV?$stream_output_adapter@_W@__crt_stdio_output@@V?$positional_parameter_base@_WV?$stream_output_adapter@_W@__crt_stdio_output@@@2@@__crt_stdio_output@@AAE_NXZ 10063600 f i libucrtd:output.obj
 0001:00062620       ?type_case_x@?$output_processor@_WV?$stream_output_adapter@_W@__crt_stdio_output@@V?$standard_base@_WV?$stream_output_adapter@_W@__crt_stdio_output@@@2@@__crt_stdio_output@@AAE_NXZ 10063620 f i libucrtd:output.obj
 0001:00062640       ?type_case_x@?$output_processor@_WV?$string_output_adapter@_W@__crt_stdio_output@@V?$format_validation_base@_WV?$string_output_adapter@_W@__crt_stdio_output@@@2@@__crt_stdio_output@@AAE_NXZ 10063640 f i libucrtd:output.obj
 0001:00062660       ?type_case_x@?$output_processor@_WV?$string_output_adapter@_W@__crt_stdio_output@@V?$positional_parameter_base@_WV?$string_output_adapter@_W@__crt_stdio_output@@@2@@__crt_stdio_output@@AAE_NXZ 10063660 f i libucrtd:output.obj
 0001:00062680       ?type_case_x@?$output_processor@_WV?$string_output_adapter@_W@__crt_stdio_output@@V?$standard_base@_WV?$string_output_adapter@_W@__crt_stdio_output@@@2@@__crt_stdio_output@@AAE_NXZ 10063680 f i libucrtd:output.obj
 0001:000626a0       ?unset_flag@?$output_processor@DV?$stream_output_adapter@D@__crt_stdio_output@@V?$format_validation_base@DV?$stream_output_adapter@D@__crt_stdio_output@@@2@@__crt_stdio_output@@AAEXI@Z 100636a0 f i libucrtd:output.obj
 0001:000626c0       ?unset_flag@?$output_processor@DV?$stream_output_adapter@D@__crt_stdio_output@@V?$positional_parameter_base@DV?$stream_output_adapter@D@__crt_stdio_output@@@2@@__crt_stdio_output@@AAEXI@Z 100636c0 f i libucrtd:output.obj
 0001:000626e0       ?unset_flag@?$output_processor@DV?$stream_output_adapter@D@__crt_stdio_output@@V?$standard_base@DV?$stream_output_adapter@D@__crt_stdio_output@@@2@@__crt_stdio_output@@AAEXI@Z 100636e0 f i libucrtd:output.obj
 0001:00062700       ?unset_flag@?$output_processor@DV?$string_output_adapter@D@__crt_stdio_output@@V?$format_validation_base@DV?$string_output_adapter@D@__crt_stdio_output@@@2@@__crt_stdio_output@@AAEXI@Z 10063700 f i libucrtd:output.obj
 0001:00062720       ?unset_flag@?$output_processor@DV?$string_output_adapter@D@__crt_stdio_output@@V?$positional_parameter_base@DV?$string_output_adapter@D@__crt_stdio_output@@@2@@__crt_stdio_output@@AAEXI@Z 10063720 f i libucrtd:output.obj
 0001:00062740       ?unset_flag@?$output_processor@DV?$string_output_adapter@D@__crt_stdio_output@@V?$standard_base@DV?$string_output_adapter@D@__crt_stdio_output@@@2@@__crt_stdio_output@@AAEXI@Z 10063740 f i libucrtd:output.obj
 0001:00062760       ?unset_flag@?$output_processor@_WV?$stream_output_adapter@_W@__crt_stdio_output@@V?$format_validation_base@_WV?$stream_output_adapter@_W@__crt_stdio_output@@@2@@__crt_stdio_output@@AAEXI@Z 10063760 f i libucrtd:output.obj
 0001:00062780       ?unset_flag@?$output_processor@_WV?$stream_output_adapter@_W@__crt_stdio_output@@V?$positional_parameter_base@_WV?$stream_output_adapter@_W@__crt_stdio_output@@@2@@__crt_stdio_output@@AAEXI@Z 10063780 f i libucrtd:output.obj
 0001:000627a0       ?unset_flag@?$output_processor@_WV?$stream_output_adapter@_W@__crt_stdio_output@@V?$standard_base@_WV?$stream_output_adapter@_W@__crt_stdio_output@@@2@@__crt_stdio_output@@AAEXI@Z 100637a0 f i libucrtd:output.obj
 0001:000627c0       ?unset_flag@?$output_processor@_WV?$string_output_adapter@_W@__crt_stdio_output@@V?$format_validation_base@_WV?$string_output_adapter@_W@__crt_stdio_output@@@2@@__crt_stdio_output@@AAEXI@Z 100637c0 f i libucrtd:output.obj
 0001:000627e0       ?unset_flag@?$output_processor@_WV?$string_output_adapter@_W@__crt_stdio_output@@V?$positional_parameter_base@_WV?$string_output_adapter@_W@__crt_stdio_output@@@2@@__crt_stdio_output@@AAEXI@Z 100637e0 f i libucrtd:output.obj
 0001:00062800       ?unset_flag@?$output_processor@_WV?$string_output_adapter@_W@__crt_stdio_output@@V?$standard_base@_WV?$string_output_adapter@_W@__crt_stdio_output@@@2@@__crt_stdio_output@@AAEXI@Z 10063800 f i libucrtd:output.obj
 0001:00062820       ?update_field_width@?$positional_parameter_base@DV?$stream_output_adapter@D@__crt_stdio_output@@@__crt_stdio_output@@IAE_NXZ 10063820 f i libucrtd:output.obj
 0001:000629a0       ?update_field_width@?$positional_parameter_base@DV?$string_output_adapter@D@__crt_stdio_output@@@__crt_stdio_output@@IAE_NXZ 100639a0 f i libucrtd:output.obj
 0001:00062b20       ?update_field_width@?$positional_parameter_base@_WV?$stream_output_adapter@_W@__crt_stdio_output@@@__crt_stdio_output@@IAE_NXZ 10063b20 f i libucrtd:output.obj
 0001:00062ca0       ?update_field_width@?$positional_parameter_base@_WV?$string_output_adapter@_W@__crt_stdio_output@@@__crt_stdio_output@@IAE_NXZ 10063ca0 f i libucrtd:output.obj
 0001:00062e20       ?update_field_width@?$standard_base@DV?$stream_output_adapter@D@__crt_stdio_output@@@__crt_stdio_output@@IAE_NXZ 10063e20 f i libucrtd:output.obj
 0001:00062e50       ?update_field_width@?$standard_base@DV?$string_output_adapter@D@__crt_stdio_output@@@__crt_stdio_output@@IAE_NXZ 10063e50 f i libucrtd:output.obj
 0001:00062e80       ?update_field_width@?$standard_base@_WV?$stream_output_adapter@_W@__crt_stdio_output@@@__crt_stdio_output@@IAE_NXZ 10063e80 f i libucrtd:output.obj
 0001:00062eb0       ?update_field_width@?$standard_base@_WV?$string_output_adapter@_W@__crt_stdio_output@@@__crt_stdio_output@@IAE_NXZ 10063eb0 f i libucrtd:output.obj
 0001:00062ee0       ?update_precision@?$positional_parameter_base@DV?$stream_output_adapter@D@__crt_stdio_output@@@__crt_stdio_output@@IAE_NXZ 10063ee0 f i libucrtd:output.obj
 0001:00063060       ?update_precision@?$positional_parameter_base@DV?$string_output_adapter@D@__crt_stdio_output@@@__crt_stdio_output@@IAE_NXZ 10064060 f i libucrtd:output.obj
 0001:000631e0       ?update_precision@?$positional_parameter_base@_WV?$stream_output_adapter@_W@__crt_stdio_output@@@__crt_stdio_output@@IAE_NXZ 100641e0 f i libucrtd:output.obj
 0001:00063360       ?update_precision@?$positional_parameter_base@_WV?$string_output_adapter@_W@__crt_stdio_output@@@__crt_stdio_output@@IAE_NXZ 10064360 f i libucrtd:output.obj
 0001:000634e0       ?update_precision@?$standard_base@DV?$stream_output_adapter@D@__crt_stdio_output@@@__crt_stdio_output@@IAE_NXZ 100644e0 f i libucrtd:output.obj
 0001:00063510       ?update_precision@?$standard_base@DV?$string_output_adapter@D@__crt_stdio_output@@@__crt_stdio_output@@IAE_NXZ 10064510 f i libucrtd:output.obj
 0001:00063540       ?update_precision@?$standard_base@_WV?$stream_output_adapter@_W@__crt_stdio_output@@@__crt_stdio_output@@IAE_NXZ 10064540 f i libucrtd:output.obj
 0001:00063570       ?update_precision@?$standard_base@_WV?$string_output_adapter@_W@__crt_stdio_output@@@__crt_stdio_output@@IAE_NXZ 10064570 f i libucrtd:output.obj
 0001:000635a0       ?valid@__crt_stdio_stream@@QBE_NXZ 100645a0 f i libucrtd:output.obj
 0001:000635d0       ?validate@?$stream_output_adapter@D@__crt_stdio_output@@QBE_NXZ 100645d0 f i libucrtd:output.obj
 0001:00063680       ?validate@?$stream_output_adapter@_W@__crt_stdio_output@@QBE_NXZ 10064680 f i libucrtd:output.obj
 0001:00063730       ?validate@?$string_output_adapter@D@__crt_stdio_output@@QBE_NXZ 10064730 f i libucrtd:output.obj
 0001:000637c0       ?validate@?$string_output_adapter@_W@__crt_stdio_output@@QBE_NXZ 100647c0 f i libucrtd:output.obj
 0001:00063850       ?validate_and_store_parameter_data@?$positional_parameter_base@DV?$stream_output_adapter@D@__crt_stdio_output@@@__crt_stdio_output@@AAE_NAAUparameter_data@12@W4parameter_type@12@DW4length_modifier@2@@Z 10064850 f i libucrtd:output.obj
 0001:00063920       ?validate_and_store_parameter_data@?$positional_parameter_base@DV?$string_output_adapter@D@__crt_stdio_output@@@__crt_stdio_output@@AAE_NAAUparameter_data@12@W4parameter_type@12@DW4length_modifier@2@@Z 10064920 f i libucrtd:output.obj
 0001:000639f0       ?validate_and_store_parameter_data@?$positional_parameter_base@_WV?$stream_output_adapter@_W@__crt_stdio_output@@@__crt_stdio_output@@AAE_NAAUparameter_data@12@W4parameter_type@12@_WW4length_modifier@2@@Z 100649f0 f i libucrtd:output.obj
 0001:00063ad0       ?validate_and_store_parameter_data@?$positional_parameter_base@_WV?$string_output_adapter@_W@__crt_stdio_output@@@__crt_stdio_output@@AAE_NAAUparameter_data@12@W4parameter_type@12@_WW4length_modifier@2@@Z 10064ad0 f i libucrtd:output.obj
 0001:00063bb0       ?validate_and_update_state_at_beginning_of_format_character@?$positional_parameter_base@DV?$stream_output_adapter@D@__crt_stdio_output@@@__crt_stdio_output@@IAE_NXZ 10064bb0 f i libucrtd:output.obj
 0001:00063dd0       ?validate_and_update_state_at_beginning_of_format_character@?$positional_parameter_base@DV?$string_output_adapter@D@__crt_stdio_output@@@__crt_stdio_output@@IAE_NXZ 10064dd0 f i libucrtd:output.obj
 0001:00063ff0       ?validate_and_update_state_at_beginning_of_format_character@?$positional_parameter_base@_WV?$stream_output_adapter@_W@__crt_stdio_output@@@__crt_stdio_output@@IAE_NXZ 10064ff0 f i libucrtd:output.obj
 0001:00064210       ?validate_and_update_state_at_beginning_of_format_character@?$positional_parameter_base@_WV?$string_output_adapter@_W@__crt_stdio_output@@@__crt_stdio_output@@IAE_NXZ 10065210 f i libucrtd:output.obj
 0001:00064430       ?validate_and_update_state_at_beginning_of_format_character@?$standard_base@DV?$stream_output_adapter@D@__crt_stdio_output@@@__crt_stdio_output@@IAE_NXZ 10065430 f i libucrtd:output.obj
 0001:00064440       ?validate_and_update_state_at_beginning_of_format_character@?$standard_base@DV?$string_output_adapter@D@__crt_stdio_output@@@__crt_stdio_output@@IAE_NXZ 10065440 f i libucrtd:output.obj
 0001:00064450       ?validate_and_update_state_at_beginning_of_format_character@?$standard_base@_WV?$stream_output_adapter@_W@__crt_stdio_output@@@__crt_stdio_output@@IAE_NXZ 10065450 f i libucrtd:output.obj
 0001:00064460       ?validate_and_update_state_at_beginning_of_format_character@?$standard_base@_WV?$string_output_adapter@_W@__crt_stdio_output@@@__crt_stdio_output@@IAE_NXZ 10065460 f i libucrtd:output.obj
 0001:00064470       ?validate_and_update_state_at_end_of_format_string@?$format_validation_base@DV?$stream_output_adapter@D@__crt_stdio_output@@@__crt_stdio_output@@IBE_NXZ 10065470 f i libucrtd:output.obj
 0001:00064510       ?validate_and_update_state_at_end_of_format_string@?$format_validation_base@DV?$string_output_adapter@D@__crt_stdio_output@@@__crt_stdio_output@@IBE_NXZ 10065510 f i libucrtd:output.obj
 0001:000645b0       ?validate_and_update_state_at_end_of_format_string@?$format_validation_base@_WV?$stream_output_adapter@_W@__crt_stdio_output@@@__crt_stdio_output@@IBE_NXZ 100655b0 f i libucrtd:output.obj
 0001:00064650       ?validate_and_update_state_at_end_of_format_string@?$format_validation_base@_WV?$string_output_adapter@_W@__crt_stdio_output@@@__crt_stdio_output@@IBE_NXZ 10065650 f i libucrtd:output.obj
 0001:000646f0       ?validate_and_update_state_at_end_of_format_string@?$positional_parameter_base@DV?$stream_output_adapter@D@__crt_stdio_output@@@__crt_stdio_output@@IAE_NXZ 100656f0 f i libucrtd:output.obj
 0001:00064890       ?validate_and_update_state_at_end_of_format_string@?$positional_parameter_base@DV?$string_output_adapter@D@__crt_stdio_output@@@__crt_stdio_output@@IAE_NXZ 10065890 f i libucrtd:output.obj
 0001:00064a30       ?validate_and_update_state_at_end_of_format_string@?$positional_parameter_base@_WV?$stream_output_adapter@_W@__crt_stdio_output@@@__crt_stdio_output@@IAE_NXZ 10065a30 f i libucrtd:output.obj
 0001:00064bd0       ?validate_and_update_state_at_end_of_format_string@?$positional_parameter_base@_WV?$string_output_adapter@_W@__crt_stdio_output@@@__crt_stdio_output@@IAE_NXZ 10065bd0 f i libucrtd:output.obj
 0001:00064d70       ?validate_and_update_state_at_end_of_format_string@?$standard_base@DV?$stream_output_adapter@D@__crt_stdio_output@@@__crt_stdio_output@@IBE_NXZ 10065d70 f i libucrtd:output.obj
 0001:00064d80       ?validate_and_update_state_at_end_of_format_string@?$standard_base@DV?$string_output_adapter@D@__crt_stdio_output@@@__crt_stdio_output@@IBE_NXZ 10065d80 f i libucrtd:output.obj
 0001:00064d90       ?validate_and_update_state_at_end_of_format_string@?$standard_base@_WV?$stream_output_adapter@_W@__crt_stdio_output@@@__crt_stdio_output@@IBE_NXZ 10065d90 f i libucrtd:output.obj
 0001:00064da0       ?validate_and_update_state_at_end_of_format_string@?$standard_base@_WV?$string_output_adapter@_W@__crt_stdio_output@@@__crt_stdio_output@@IBE_NXZ 10065da0 f i libucrtd:output.obj
 0001:00064db0       ?validate_state_for_type_case_a@?$positional_parameter_base@DV?$stream_output_adapter@D@__crt_stdio_output@@@__crt_stdio_output@@IAE_NXZ 10065db0 f i libucrtd:output.obj
 0001:00064ea0       ?validate_state_for_type_case_a@?$positional_parameter_base@DV?$string_output_adapter@D@__crt_stdio_output@@@__crt_stdio_output@@IAE_NXZ 10065ea0 f i libucrtd:output.obj
 0001:00064f90       ?validate_state_for_type_case_a@?$positional_parameter_base@_WV?$stream_output_adapter@_W@__crt_stdio_output@@@__crt_stdio_output@@IAE_NXZ 10065f90 f i libucrtd:output.obj
 0001:00065080       ?validate_state_for_type_case_a@?$positional_parameter_base@_WV?$string_output_adapter@_W@__crt_stdio_output@@@__crt_stdio_output@@IAE_NXZ 10066080 f i libucrtd:output.obj
 0001:00065170       ?validate_state_for_type_case_a@?$standard_base@DV?$stream_output_adapter@D@__crt_stdio_output@@@__crt_stdio_output@@IBE_NXZ 10066170 f i libucrtd:output.obj
 0001:00065180       ?validate_state_for_type_case_a@?$standard_base@DV?$string_output_adapter@D@__crt_stdio_output@@@__crt_stdio_output@@IBE_NXZ 10066180 f i libucrtd:output.obj
 0001:00065190       ?validate_state_for_type_case_a@?$standard_base@_WV?$stream_output_adapter@_W@__crt_stdio_output@@@__crt_stdio_output@@IBE_NXZ 10066190 f i libucrtd:output.obj
 0001:000651a0       ?validate_state_for_type_case_a@?$standard_base@_WV?$string_output_adapter@_W@__crt_stdio_output@@@__crt_stdio_output@@IBE_NXZ 100661a0 f i libucrtd:output.obj
 0001:000651b0       ?validate_stream_is_ansi_if_required@?$__acrt_stdio_char_traits@D@@SA_NQAU_iobuf@@@Z 100661b0 f i libucrtd:output.obj
 0001:000652e0       ?validate_stream_is_ansi_if_required@?$__acrt_stdio_char_traits@_W@@SA_NQAU_iobuf@@@Z 100662e0 f i libucrtd:output.obj
 0001:000652f0       ?wide_null_string@?$output_processor@DV?$stream_output_adapter@D@__crt_stdio_output@@V?$format_validation_base@DV?$stream_output_adapter@D@__crt_stdio_output@@@2@@__crt_stdio_output@@CAPA_WXZ 100662f0 f i libucrtd:output.obj
 0001:00065300       ?wide_null_string@?$output_processor@DV?$stream_output_adapter@D@__crt_stdio_output@@V?$positional_parameter_base@DV?$stream_output_adapter@D@__crt_stdio_output@@@2@@__crt_stdio_output@@CAPA_WXZ 10066300 f i libucrtd:output.obj
 0001:00065310       ?wide_null_string@?$output_processor@DV?$stream_output_adapter@D@__crt_stdio_output@@V?$standard_base@DV?$stream_output_adapter@D@__crt_stdio_output@@@2@@__crt_stdio_output@@CAPA_WXZ 10066310 f i libucrtd:output.obj
 0001:00065320       ?wide_null_string@?$output_processor@DV?$string_output_adapter@D@__crt_stdio_output@@V?$format_validation_base@DV?$string_output_adapter@D@__crt_stdio_output@@@2@@__crt_stdio_output@@CAPA_WXZ 10066320 f i libucrtd:output.obj
 0001:00065330       ?wide_null_string@?$output_processor@DV?$string_output_adapter@D@__crt_stdio_output@@V?$positional_parameter_base@DV?$string_output_adapter@D@__crt_stdio_output@@@2@@__crt_stdio_output@@CAPA_WXZ 10066330 f i libucrtd:output.obj
 0001:00065340       ?wide_null_string@?$output_processor@DV?$string_output_adapter@D@__crt_stdio_output@@V?$standard_base@DV?$string_output_adapter@D@__crt_stdio_output@@@2@@__crt_stdio_output@@CAPA_WXZ 10066340 f i libucrtd:output.obj
 0001:00065350       ?wide_null_string@?$output_processor@_WV?$stream_output_adapter@_W@__crt_stdio_output@@V?$format_validation_base@_WV?$stream_output_adapter@_W@__crt_stdio_output@@@2@@__crt_stdio_output@@CAPA_WXZ 10066350 f i libucrtd:output.obj
 0001:00065360       ?wide_null_string@?$output_processor@_WV?$stream_output_adapter@_W@__crt_stdio_output@@V?$positional_parameter_base@_WV?$stream_output_adapter@_W@__crt_stdio_output@@@2@@__crt_stdio_output@@CAPA_WXZ 10066360 f i libucrtd:output.obj
 0001:00065370       ?wide_null_string@?$output_processor@_WV?$stream_output_adapter@_W@__crt_stdio_output@@V?$standard_base@_WV?$stream_output_adapter@_W@__crt_stdio_output@@@2@@__crt_stdio_output@@CAPA_WXZ 10066370 f i libucrtd:output.obj
 0001:00065380       ?wide_null_string@?$output_processor@_WV?$string_output_adapter@_W@__crt_stdio_output@@V?$format_validation_base@_WV?$string_output_adapter@_W@__crt_stdio_output@@@2@@__crt_stdio_output@@CAPA_WXZ 10066380 f i libucrtd:output.obj
 0001:00065390       ?wide_null_string@?$output_processor@_WV?$string_output_adapter@_W@__crt_stdio_output@@V?$positional_parameter_base@_WV?$string_output_adapter@_W@__crt_stdio_output@@@2@@__crt_stdio_output@@CAPA_WXZ 10066390 f i libucrtd:output.obj
 0001:000653a0       ?wide_null_string@?$output_processor@_WV?$string_output_adapter@_W@__crt_stdio_output@@V?$standard_base@_WV?$string_output_adapter@_W@__crt_stdio_output@@@2@@__crt_stdio_output@@CAPA_WXZ 100663a0 f i libucrtd:output.obj
 0001:000653b0       ?write_character@?$output_adapter_common@DV?$stream_output_adapter@D@__crt_stdio_output@@@__crt_stdio_output@@QBEXDQAH@Z 100663b0 f i libucrtd:output.obj
 0001:000653f0       ?write_character@?$output_adapter_common@_WV?$stream_output_adapter@_W@__crt_stdio_output@@@__crt_stdio_output@@QBEX_WQAH@Z 100663f0 f i libucrtd:output.obj
 0001:00065430       ?write_character@?$string_output_adapter@D@__crt_stdio_output@@QBE_NDQAH@Z 10066430 f i libucrtd:output.obj
 0001:000654c0       ?write_character@?$string_output_adapter@_W@__crt_stdio_output@@QBE_N_WQAH@Z 100664c0 f i libucrtd:output.obj
 0001:00065560       ?write_character_without_count_update@?$stream_output_adapter@D@__crt_stdio_output@@QBE_ND@Z 10066560 f i libucrtd:output.obj
 0001:000655d0       ?write_character_without_count_update@?$stream_output_adapter@_W@__crt_stdio_output@@QBE_N_W@Z 100665d0 f i libucrtd:output.obj
 0001:00065640       ?write_stored_string_tchar@?$output_processor@DV?$stream_output_adapter@D@__crt_stdio_output@@V?$format_validation_base@DV?$stream_output_adapter@D@__crt_stdio_output@@@2@@__crt_stdio_output@@AAE_ND@Z 10066640 f i libucrtd:output.obj
 0001:00065760       ?write_stored_string_tchar@?$output_processor@DV?$stream_output_adapter@D@__crt_stdio_output@@V?$positional_parameter_base@DV?$stream_output_adapter@D@__crt_stdio_output@@@2@@__crt_stdio_output@@AAE_ND@Z 10066760 f i libucrtd:output.obj
 0001:00065880       ?write_stored_string_tchar@?$output_processor@DV?$stream_output_adapter@D@__crt_stdio_output@@V?$standard_base@DV?$stream_output_adapter@D@__crt_stdio_output@@@2@@__crt_stdio_output@@AAE_ND@Z 10066880 f i libucrtd:output.obj
 0001:000659a0       ?write_stored_string_tchar@?$output_processor@DV?$string_output_adapter@D@__crt_stdio_output@@V?$format_validation_base@DV?$string_output_adapter@D@__crt_stdio_output@@@2@@__crt_stdio_output@@AAE_ND@Z 100669a0 f i libucrtd:output.obj
 0001:00065ac0       ?write_stored_string_tchar@?$output_processor@DV?$string_output_adapter@D@__crt_stdio_output@@V?$positional_parameter_base@DV?$string_output_adapter@D@__crt_stdio_output@@@2@@__crt_stdio_output@@AAE_ND@Z 10066ac0 f i libucrtd:output.obj
 0001:00065be0       ?write_stored_string_tchar@?$output_processor@DV?$string_output_adapter@D@__crt_stdio_output@@V?$standard_base@DV?$string_output_adapter@D@__crt_stdio_output@@@2@@__crt_stdio_output@@AAE_ND@Z 10066be0 f i libucrtd:output.obj
 0001:00065d00       ?write_stored_string_tchar@?$output_processor@_WV?$stream_output_adapter@_W@__crt_stdio_output@@V?$format_validation_base@_WV?$stream_output_adapter@_W@__crt_stdio_output@@@2@@__crt_stdio_output@@AAE_N_W@Z 10066d00 f i libucrtd:output.obj
 0001:00065df0       ?write_stored_string_tchar@?$output_processor@_WV?$stream_output_adapter@_W@__crt_stdio_output@@V?$positional_parameter_base@_WV?$stream_output_adapter@_W@__crt_stdio_output@@@2@@__crt_stdio_output@@AAE_N_W@Z 10066df0 f i libucrtd:output.obj
 0001:00065ee0       ?write_stored_string_tchar@?$output_processor@_WV?$stream_output_adapter@_W@__crt_stdio_output@@V?$standard_base@_WV?$stream_output_adapter@_W@__crt_stdio_output@@@2@@__crt_stdio_output@@AAE_N_W@Z 10066ee0 f i libucrtd:output.obj
 0001:00065fd0       ?write_stored_string_tchar@?$output_processor@_WV?$string_output_adapter@_W@__crt_stdio_output@@V?$format_validation_base@_WV?$string_output_adapter@_W@__crt_stdio_output@@@2@@__crt_stdio_output@@AAE_N_W@Z 10066fd0 f i libucrtd:output.obj
 0001:000660c0       ?write_stored_string_tchar@?$output_processor@_WV?$string_output_adapter@_W@__crt_stdio_output@@V?$positional_parameter_base@_WV?$string_output_adapter@_W@__crt_stdio_output@@@2@@__crt_stdio_output@@AAE_N_W@Z 100670c0 f i libucrtd:output.obj
 0001:000661b0       ?write_stored_string_tchar@?$output_processor@_WV?$string_output_adapter@_W@__crt_stdio_output@@V?$standard_base@_WV?$string_output_adapter@_W@__crt_stdio_output@@@2@@__crt_stdio_output@@AAE_N_W@Z 100671b0 f i libucrtd:output.obj
 0001:000662a0       ?write_string@?$stream_output_adapter@D@__crt_stdio_output@@QBEXQBDHQAHAAV__crt_deferred_errno_cache@@@Z 100672a0 f i libucrtd:output.obj
 0001:00066300       ?write_string@?$stream_output_adapter@_W@__crt_stdio_output@@QBEXQB_WHQAHAAV__crt_deferred_errno_cache@@@Z 10067300 f i libucrtd:output.obj
 0001:00066360       ?write_string@?$string_output_adapter@D@__crt_stdio_output@@QBEXQBDHQAHAAV__crt_deferred_errno_cache@@@Z 10067360 f i libucrtd:output.obj
 0001:00066460       ?write_string@?$string_output_adapter@_W@__crt_stdio_output@@QBEXQB_WHQAHAAV__crt_deferred_errno_cache@@@Z 10067460 f i libucrtd:output.obj
 0001:00066570       ?write_string_impl@?$output_adapter_common@DV?$stream_output_adapter@D@__crt_stdio_output@@@__crt_stdio_output@@IBEXQBDHQAHAAV__crt_deferred_errno_cache@@@Z 10067570 f i libucrtd:output.obj
 0001:00066610       ?write_string_impl@?$output_adapter_common@_WV?$stream_output_adapter@_W@__crt_stdio_output@@@__crt_stdio_output@@IBEXQB_WHQAHAAV__crt_deferred_errno_cache@@@Z 10067610 f i libucrtd:output.obj
 0001:000666b0       ___acrt_disable_global_locale_sync 100676b0 f i libucrtd:output.obj
 0001:000666d0       ___acrt_enable_global_locale_sync 100676d0 f i libucrtd:output.obj
 0001:000666f0       ___acrt_isleadbyte_l_noupdate 100676f0 f i libucrtd:output.obj
 0001:00066710       ___acrt_locale_changed     10067710 f i libucrtd:output.obj
 0001:00066740       ___acrt_locale_get_ctype_array_value 10067740 f i libucrtd:output.obj
 0001:00066770       ___stdio_common_vfprintf   10067770 f   libucrtd:output.obj
 0001:000667a0       ___stdio_common_vfprintf_p 100677a0 f   libucrtd:output.obj
 0001:000667d0       ___stdio_common_vfprintf_s 100677d0 f   libucrtd:output.obj
 0001:00066800       ___stdio_common_vfwprintf  10067800 f   libucrtd:output.obj
 0001:00066830       ___stdio_common_vfwprintf_p 10067830 f   libucrtd:output.obj
 0001:00066860       ___stdio_common_vfwprintf_s 10067860 f   libucrtd:output.obj
 0001:00066890       ___stdio_common_vsnprintf_s 10067890 f   libucrtd:output.obj
 0001:000668c0       ___stdio_common_vsnwprintf_s 100678c0 f   libucrtd:output.obj
 0001:000668f0       ___stdio_common_vsprintf   100678f0 f   libucrtd:output.obj
 0001:00066920       ___stdio_common_vsprintf_p 10067920 f   libucrtd:output.obj
 0001:00066950       ___stdio_common_vsprintf_s 10067950 f   libucrtd:output.obj
 0001:00066980       ___stdio_common_vswprintf  10067980 f   libucrtd:output.obj
 0001:000669b0       ___stdio_common_vswprintf_p 100679b0 f   libucrtd:output.obj
 0001:000669e0       ___stdio_common_vswprintf_s 100679e0 f   libucrtd:output.obj
 0001:00066a10       __ctype_fast_check_internal 10067a10 f i libucrtd:output.obj
 0001:00066a30       __isdigit_fast_internal    10067a30 f i libucrtd:output.obj
 0001:00066a50       __tolower_fast_internal    10067a50 f i libucrtd:output.obj
 0001:00066a70       _free                      10067a70 f   libucrtd:free.obj
 0001:00066aa0       _malloc                    10067aa0 f   libucrtd:malloc.obj
 0001:00066ac0       ??$?RU?$__crt_report_hook_node@D@@@__crt_internal_free_policy@@QBEXQBU?$__crt_report_hook_node@D@@@Z 10067ac0 f i libucrtd:dbgrpt.obj
 0001:00066ae0       ??$?RU?$__crt_report_hook_node@_W@@@__crt_internal_free_policy@@QBEXQBU?$__crt_report_hook_node@_W@@@Z 10067ae0 f i libucrtd:dbgrpt.obj
 0001:000678d0       ??$get_module_file_name@AAPAUHINSTANCE__@@AAY0BAF@DK@?$__crt_char_traits@D@@SAKAAPAUHINSTANCE__@@AAY0BAF@D$$QAK@Z 100688d0 f i libucrtd:dbgrpt.obj
 0001:000678f0       ??$get_module_file_name@AAPAUHINSTANCE__@@AAY0BAF@_WK@?$__crt_char_traits@_W@@SAKAAPAUHINSTANCE__@@AAY0BAF@_W$$QAK@Z 100688f0 f i libucrtd:dbgrpt.obj
 0001:00067910       ??$tcscpy_s@AAY0BAF@DIPBD@?$__crt_char_traits@D@@SAHAAY0BAF@D$$QAI$$QAPBD@Z 10068910 f i libucrtd:dbgrpt.obj
 0001:00067930       ??$tcscpy_s@AAY0BAF@_WIPB_W@?$__crt_char_traits@_W@@SAHAAY0BAF@_W$$QAI$$QAPB_W@Z 10068930 f i libucrtd:dbgrpt.obj
 0001:00067950       ??$tcslen@AAY0BAF@D@?$__crt_char_traits@D@@SAIAAY0BAF@D@Z 10068950 f i libucrtd:dbgrpt.obj
 0001:00067970       ??$tcslen@AAY0BAF@_W@?$__crt_char_traits@_W@@SAIAAY0BAF@_W@Z 10068970 f i libucrtd:dbgrpt.obj
 0001:00067990       ??$tcslen@ABQBD@?$__crt_char_traits@D@@SAIABQBD@Z 10068990 f i libucrtd:dbgrpt.obj
 0001:000679b0       ??$tcslen@ABQB_W@?$__crt_char_traits@_W@@SAIABQB_W@Z 100689b0 f i libucrtd:dbgrpt.obj
 0001:00067ab0       ??0?$__crt_unique_heap_ptr@U?$__crt_report_hook_node@D@@U__crt_internal_free_policy@@@@QAE@QAU?$__crt_report_hook_node@D@@@Z 10068ab0 f i libucrtd:dbgrpt.obj
 0001:00067ad0       ??0?$__crt_unique_heap_ptr@U?$__crt_report_hook_node@_W@@U__crt_internal_free_policy@@@@QAE@QAU?$__crt_report_hook_node@_W@@@Z 10068ad0 f i libucrtd:dbgrpt.obj
 0001:00067af0       ??1?$__crt_unique_heap_ptr@U?$__crt_report_hook_node@D@@U__crt_internal_free_policy@@@@QAE@XZ 10068af0 f i libucrtd:dbgrpt.obj
 0001:00067b10       ??1?$__crt_unique_heap_ptr@U?$__crt_report_hook_node@_W@@U__crt_internal_free_policy@@@@QAE@XZ 10068b10 f i libucrtd:dbgrpt.obj
 0001:00067b30       ??B?$__crt_unique_heap_ptr@U?$__crt_report_hook_node@D@@U__crt_internal_free_policy@@@@QBE_NXZ 10068b30 f i libucrtd:dbgrpt.obj
 0001:00067b50       ??B?$__crt_unique_heap_ptr@U?$__crt_report_hook_node@_W@@U__crt_internal_free_policy@@@@QBE_NXZ 10068b50 f i libucrtd:dbgrpt.obj
 0001:00068090       ?detach@?$__crt_unique_heap_ptr@U?$__crt_report_hook_node@D@@U__crt_internal_free_policy@@@@QAEPAU?$__crt_report_hook_node@D@@XZ 10069090 f i libucrtd:dbgrpt.obj
 0001:000680c0       ?detach@?$__crt_unique_heap_ptr@U?$__crt_report_hook_node@_W@@U__crt_internal_free_policy@@@@QAEPAU?$__crt_report_hook_node@_W@@XZ 100690c0 f i libucrtd:dbgrpt.obj
 0001:000680f0       ?get@?$__crt_unique_heap_ptr@U?$__crt_report_hook_node@D@@U__crt_internal_free_policy@@@@QBEPAU?$__crt_report_hook_node@D@@XZ 100690f0 f i libucrtd:dbgrpt.obj
 0001:00068110       ?get@?$__crt_unique_heap_ptr@U?$__crt_report_hook_node@_W@@U__crt_internal_free_policy@@@@QBEPAU?$__crt_report_hook_node@_W@@XZ 10069110 f i libucrtd:dbgrpt.obj
 0001:00068190       ?is_valid@?$__crt_unique_heap_ptr@U?$__crt_report_hook_node@D@@U__crt_internal_free_policy@@@@QBE_NXZ 10069190 f i libucrtd:dbgrpt.obj
 0001:000681c0       ?is_valid@?$__crt_unique_heap_ptr@U?$__crt_report_hook_node@_W@@U__crt_internal_free_policy@@@@QBE_NXZ 100691c0 f i libucrtd:dbgrpt.obj
 0001:000681f0       ?release@?$__crt_unique_heap_ptr@U?$__crt_report_hook_node@D@@U__crt_internal_free_policy@@@@QAEXXZ 100691f0 f i libucrtd:dbgrpt.obj
 0001:00068220       ?release@?$__crt_unique_heap_ptr@U?$__crt_report_hook_node@_W@@U__crt_internal_free_policy@@@@QAEXXZ 10069220 f i libucrtd:dbgrpt.obj
 0001:00068250       __CrtDbgReport             10069250 f   libucrtd:dbgrpt.obj
 0001:000682a0       __CrtDbgReportW            100692a0 f   libucrtd:dbgrpt.obj
 0001:000682f0       __CrtSetReportHook2        100692f0 f   libucrtd:dbgrpt.obj
 0001:00068310       __CrtSetReportHookW2       10069310 f   libucrtd:dbgrpt.obj
 0001:00068330       ___acrt_MessageWindowA     10069330 f   libucrtd:dbgrpt.obj
 0001:00068360       ___acrt_MessageWindowW     10069360 f   libucrtd:dbgrpt.obj
 0001:00068390       __invoke_watson_if_error   10069390 f i libucrtd:dbgrpt.obj
 0001:000683c0       __invoke_watson_if_oneof   100693c0 f i libucrtd:dbgrpt.obj
 0001:00068400       __snwprintf_s              10069400 f i libucrtd:dbgrpt.obj
 0001:00068440       __vsnwprintf_s_l           10069440 f i libucrtd:dbgrpt.obj
 0001:000687c0       _wcscpy_s                  100697c0 f   libucrtd:wcscpy_s.obj
 0001:000694e0       ??1?$__crt_simd_cleanup_guard@$00@@QAE@XZ 1006a4e0 f i libucrtd:strnlen.obj
 0001:000694f0       ??1?$__crt_simd_cleanup_guard@$0A@@@QAE@XZ 1006a4f0 f i libucrtd:strnlen.obj
 0001:00069500       ?compare_equals@?$__crt_simd_traits@$00E@@SA?AT__m256i@@T2@0@Z 1006a500 f i libucrtd:strnlen.obj
 0001:00069540       ?compare_equals@?$__crt_simd_traits@$00G@@SA?AT__m256i@@T2@0@Z 1006a540 f i libucrtd:strnlen.obj
 0001:00069580       ?compare_equals@?$__crt_simd_traits@$0A@E@@SA?AT__m128i@@T2@0@Z 1006a580 f i libucrtd:strnlen.obj
 0001:000695c0       ?compare_equals@?$__crt_simd_traits@$0A@G@@SA?AT__m128i@@T2@0@Z 1006a5c0 f i libucrtd:strnlen.obj
 0001:00069600       ?compute_byte_mask@?$__crt_simd_pack_traits@$00@@SAHT__m256i@@@Z 1006a600 f i libucrtd:strnlen.obj
 0001:00069630       ?compute_byte_mask@?$__crt_simd_pack_traits@$0A@@@SAHT__m128i@@@Z 1006a630 f i libucrtd:strnlen.obj
 0001:00069660       ?get_zero_pack@?$__crt_simd_pack_traits@$00@@SA?AT__m256i@@XZ 1006a660 f i libucrtd:strnlen.obj
 0001:00069690       ?get_zero_pack@?$__crt_simd_pack_traits@$0A@@@SA?AT__m128i@@XZ 1006a690 f i libucrtd:strnlen.obj
 0001:000696c0       _strnlen                   1006a6c0 f   libucrtd:strnlen.obj
 0001:000696e0       _wcslen                    1006a6e0 f   libucrtd:strnlen.obj
 0001:00069700       _wcsnlen                   1006a700 f   libucrtd:strnlen.obj
 0001:00069720       ??$__crt_fast_decode_pointer@P6AXPB_W00II@Z@@YAP6AXPB_W00II@ZQ6AX000II@Z@Z 1006a720 f i libucrtd:invalid_parameter.obj
 0001:00069750       ??$__crt_fast_encode_pointer@P6AXPB_W00II@Z@@YAP6AXPB_W00II@ZQ6AX000II@Z@Z 1006a750 f i libucrtd:invalid_parameter.obj
 0001:00069780       ??$initialize_from_array@$$BY00Q6AXPB_W00II@Z@?$dual_state_global@P6AXPB_W00II@Z@__crt_state_management@@QAAXAAY00Q6AXPB_W00II@Z@Z 1006a780 f i libucrtd:invalid_parameter.obj
 0001:000697d0       ?__crt_rotate_pointer_value@@YAIIH@Z 1006a7d0 f i libucrtd:invalid_parameter.obj
 0001:000697e0       ?dangerous_get_state_array@?$dual_state_global@P6AXPB_W00II@Z@__crt_state_management@@QAEPAP6AXPB_W00II@ZXZ 1006a7e0 f i libucrtd:invalid_parameter.obj
 0001:000697f0       ?get_current_state_index@__crt_state_management@@YAIXZ 1006a7f0 f i libucrtd:invalid_parameter.obj
 0001:00069800       ?value@?$dual_state_global@P6AXPB_W00II@Z@__crt_state_management@@QAEAAP6AXPB_W00II@ZXZ 1006a800 f i libucrtd:invalid_parameter.obj
 0001:00069820       ___acrt_call_reportfault   1006a820 f   libucrtd:invalid_parameter.obj
 0001:00069980       ___acrt_initialize_invalid_parameter_handler 1006a980 f   libucrtd:invalid_parameter.obj
 0001:000699b0       __get_invalid_parameter_handler 1006a9b0 f   libucrtd:invalid_parameter.obj
 0001:000699d0       __get_thread_local_invalid_parameter_handler 1006a9d0 f   libucrtd:invalid_parameter.obj
 0001:00069a00       __invalid_parameter        1006aa00 f   libucrtd:invalid_parameter.obj
 0001:00069ac0       __invalid_parameter_noinfo 1006aac0 f   libucrtd:invalid_parameter.obj
 0001:00069ae0       __invalid_parameter_noinfo_noreturn 1006aae0 f   libucrtd:invalid_parameter.obj
 0001:00069b10       __invoke_watson            1006ab10 f   libucrtd:invalid_parameter.obj
 0001:00069b50       __set_invalid_parameter_handler 1006ab50 f   libucrtd:invalid_parameter.obj
 0001:00069ba0       __set_thread_local_invalid_parameter_handler 1006aba0 f   libucrtd:invalid_parameter.obj
 0001:00069bd0       ___acrt_errno_from_os_error 1006abd0 f   libucrtd:errno.obj
 0001:00069c50       ___acrt_errno_map_os_error 1006ac50 f   libucrtd:errno.obj
 0001:00069c80       ___doserrno                1006ac80 f   libucrtd:errno.obj
 0001:00069cb0       __errno                    1006acb0 f   libucrtd:errno.obj
 0001:00069ce0       __get_doserrno             1006ace0 f   libucrtd:errno.obj
 0001:00069d70       __get_errno                1006ad70 f   libucrtd:errno.obj
 0001:00069e00       __set_doserrno             1006ae00 f   libucrtd:errno.obj
 0001:00069e30       __set_errno                1006ae30 f   libucrtd:errno.obj
 0001:00069e60       _calloc                    1006ae60 f   libucrtd:calloc.obj
 0001:00069e80       __recalloc                 1006ae80 f   libucrtd:recalloc.obj
 0001:00069eb0       __recalloc_base            1006aeb0 f   libucrtd:recalloc.obj
 0001:00069f4a       __resetstkoflw             1006af4a f   libucrtd:resetstk.obj
 0001:0006a430       _wcscat_s                  1006b430 f   libucrtd:wcscat_s.obj
 0001:0006a880       _wcsncpy_s                 1006b880 f   libucrtd:wcsncpy_s.obj
 0001:0006a9c0       ___isascii                 1006b9c0 f   libucrtd:_ctype.obj
 0001:0006a9f0       ___iscsym                  1006b9f0 f   libucrtd:_ctype.obj
 0001:0006aa30       ___iscsymf                 1006ba30 f   libucrtd:_ctype.obj
 0001:0006aa70       ___toascii                 1006ba70 f   libucrtd:_ctype.obj
 0001:0006aa80       __isalnum_l                1006ba80 f   libucrtd:_ctype.obj
 0001:0006aaa0       __isalpha_l                1006baa0 f   libucrtd:_ctype.obj
 0001:0006aac0       __isblank_l                1006bac0 f   libucrtd:_ctype.obj
 0001:0006aae0       __iscntrl_l                1006bae0 f   libucrtd:_ctype.obj
 0001:0006ab00       __iscsym_l                 1006bb00 f   libucrtd:_ctype.obj
 0001:0006ab40       __iscsymf_l                1006bb40 f   libucrtd:_ctype.obj
 0001:0006ab80       __isdigit_l                1006bb80 f   libucrtd:_ctype.obj
 0001:0006aba0       __isgraph_l                1006bba0 f   libucrtd:_ctype.obj
 0001:0006abc0       __islower_l                1006bbc0 f   libucrtd:_ctype.obj
 0001:0006abe0       __isprint_l                1006bbe0 f   libucrtd:_ctype.obj
 0001:0006ac00       __ispunct_l                1006bc00 f   libucrtd:_ctype.obj
 0001:0006ac20       __isspace_l                1006bc20 f   libucrtd:_ctype.obj
 0001:0006ac40       __isupper_l                1006bc40 f   libucrtd:_ctype.obj
 0001:0006ac60       __isxdigit_l               1006bc60 f   libucrtd:_ctype.obj
 0001:0006ac80       _isalnum                   1006bc80 f   libucrtd:_ctype.obj
 0001:0006aca0       _isalpha                   1006bca0 f   libucrtd:_ctype.obj
 0001:0006acc0       _isblank                   1006bcc0 f   libucrtd:_ctype.obj
 0001:0006acf0       _iscntrl                   1006bcf0 f   libucrtd:_ctype.obj
 0001:0006ad10       _isdigit                   1006bd10 f   libucrtd:_ctype.obj
 0001:0006ad30       _isgraph                   1006bd30 f   libucrtd:_ctype.obj
 0001:0006ad50       _islower                   1006bd50 f   libucrtd:_ctype.obj
 0001:0006ad70       _isprint                   1006bd70 f   libucrtd:_ctype.obj
 0001:0006ad90       _ispunct                   1006bd90 f   libucrtd:_ctype.obj
 0001:0006adb0       _isspace                   1006bdb0 f   libucrtd:_ctype.obj
 0001:0006add0       _isupper                   1006bdd0 f   libucrtd:_ctype.obj
 0001:0006adf0       _isxdigit                  1006bdf0 f   libucrtd:_ctype.obj
 0001:0006ae10       _wcscat                    1006be10 f   libucrtd:wcscat.obj
 0001:0006ae70       _wcscpy                    1006be70 f   libucrtd:wcscpy.obj
 0001:0006b500       ??$open_file@ABQBDABQBDABHPAU_iobuf@@@?$__crt_char_traits@D@@SAPAU_iobuf@@ABQBD0ABH$$QAPAU1@@Z 1006c500 f i libucrtd:fopen.obj
 0001:0006b530       ??$open_file@ABQB_WABQB_WABHPAU_iobuf@@@?$__crt_char_traits@_W@@SAPAU_iobuf@@ABQB_W0ABH$$QAPAU1@@Z 1006c530 f i libucrtd:fopen.obj
 0001:0006b560       ?unlock@__crt_stdio_stream@@QBEXXZ 1006c560 f i libucrtd:fopen.obj
 0001:0006b580       __fsopen                   1006c580 f   libucrtd:fopen.obj
 0001:0006b5a0       __wfopen                   1006c5a0 f   libucrtd:fopen.obj
 0001:0006b5c0       __wfopen_s                 1006c5c0 f   libucrtd:fopen.obj
 0001:0006b5e0       __wfsopen                  1006c5e0 f   libucrtd:fopen.obj
 0001:0006b600       _fopen                     1006c600 f   libucrtd:fopen.obj
 0001:0006b620       _fopen_s                   1006c620 f   libucrtd:fopen.obj
 0001:0006b640       ?is_in_use@__crt_stdio_stream@@QBE_NXZ 1006c640 f i libucrtd:fclose.obj
 0001:0006b680       __fclose_nolock            1006c680 f   libucrtd:fclose.obj
 0001:0006b7c0       _fclose                    1006c7c0 f   libucrtd:fclose.obj
 0001:0006b910       __fputc_nolock             1006c910 f   libucrtd:fputc.obj
 0001:0006b9a0       __fputchar                 1006c9a0 f   libucrtd:fputc.obj
 0001:0006b9c0       __putc_nolock              1006c9c0 f   libucrtd:fputc.obj
 0001:0006b9e0       _fputc                     1006c9e0 f   libucrtd:fputc.obj
 0001:0006bc20       _putc                      1006cc20 f   libucrtd:fputc.obj
 0001:0006bc40       _putchar                   1006cc40 f   libucrtd:fputc.obj
 0001:0006bcb0       __seh_filter_dll           1006ccb0 f   libucrtd:exception_filter.obj
 0001:0006bce0       __seh_filter_exe           1006cce0 f   libucrtd:exception_filter.obj
 0001:0006bef0       ??$?B$$A6GXPAXK0@Z@__crt_fast_encoded_nullptr_t@@QBEP6GXPAXK0@ZXZ 1006cef0 f i libucrtd:exit.obj
 0001:0006bfd0       ??$__crt_fast_decode_pointer@P6GXPAXK0@Z@@YAP6GXPAXK0@ZQ6GX0K0@Z@Z 1006cfd0 f i libucrtd:exit.obj
 0001:0006c000       ??$__crt_fast_encode_pointer@P6GXPAXK0@Z@@YAP6GXPAXK0@ZQ6GX0K0@Z@Z 1006d000 f i libucrtd:exit.obj
 0001:0006c030       ??$__crt_get_proc_address@P6GXI@Z@@YAP6GXI@ZQAUHINSTANCE__@@QBD@Z 1006d030 f i libucrtd:exit.obj
 0001:0006c0c0       ??0?$__crt_unique_handle_t@U__crt_hmodule_traits@@@@QAE@QAUHINSTANCE__@@@Z 1006d0c0 f i libucrtd:exit.obj
 0001:0006c0e0       ??1?$__crt_unique_handle_t@U__crt_hmodule_traits@@@@QAE@XZ 1006d0e0 f i libucrtd:exit.obj
 0001:0006c2a0       ?__acrt_select_exit_lock@@YA?AW4__acrt_lock_id@@XZ 1006d2a0 f i libucrtd:exit.obj
 0001:0006c2b0       ?__crt_fast_encode_pointer@@YA?AU__crt_fast_encoded_nullptr_t@@$$T@Z 1006d2b0 f i libucrtd:exit.obj
 0001:0006c2e0       ?close@?$__crt_unique_handle_t@U__crt_hmodule_traits@@@@QAEXXZ 1006d2e0 f i libucrtd:exit.obj
 0001:0006c320       ?close@__crt_hmodule_traits@@SA_NPAUHINSTANCE__@@@Z 1006d320 f i libucrtd:exit.obj
 0001:0006c410       ?get@?$__crt_unique_handle_t@U__crt_hmodule_traits@@@@QBEPAUHINSTANCE__@@XZ 1006d410 f i libucrtd:exit.obj
 0001:0006c430       ?get_address_of@?$__crt_unique_handle_t@U__crt_hmodule_traits@@@@QAEPAPAUHINSTANCE__@@XZ 1006d430 f i libucrtd:exit.obj
 0001:0006c440       ?get_invalid_value@__crt_hmodule_traits@@SAPAUHINSTANCE__@@XZ 1006d440 f i libucrtd:exit.obj
 0001:0006c5c0       __Exit                     1006d5c0 f   libucrtd:exit.obj
 0001:0006c5e0       ___acrt_initialize_thread_local_exit_callback 1006d5e0 f   libucrtd:exit.obj
 0001:0006c5f0       __c_exit                   1006d5f0 f   libucrtd:exit.obj
 0001:0006c610       __cexit                    1006d610 f   libucrtd:exit.obj
 0001:0006c630       __exit                     1006d630 f   libucrtd:exit.obj
 0001:0006c650       __is_c_termination_complete 1006d650 f   libucrtd:exit.obj
 0001:0006c670       __register_thread_local_exe_atexit_callback 1006d670 f   libucrtd:exit.obj
 0001:0006c6b0       _exit                      1006d6b0 f   libucrtd:exit.obj
 0001:0006c6d0       _quick_exit                1006d6d0 f   libucrtd:exit.obj
 0001:0006c6f0       ??$?RE@__crt_internal_free_policy@@QBEXQBE@Z 1006d6f0 f i libucrtd:argv_parsing.obj
 0001:0006c710       ??$?RPAD@__crt_internal_free_policy@@QBEXQBQAD@Z 1006d710 f i libucrtd:argv_parsing.obj
 0001:0006c730       ??$?RPA_W@__crt_internal_free_policy@@QBEXQBQA_W@Z 1006d730 f i libucrtd:argv_parsing.obj
 0001:0006cc90       ??$get_module_file_name@$$TAAY0BAF@DH@?$__crt_char_traits@D@@SAK$$QA$$TAAY0BAF@D$$QAH@Z 1006dc90 f i libucrtd:argv_parsing.obj
 0001:0006ccb0       ??$get_module_file_name@$$TAAY0BAF@_WH@?$__crt_char_traits@_W@@SAK$$QA$$TAAY0BAF@_W$$QAH@Z 1006dcb0 f i libucrtd:argv_parsing.obj
 0001:0006d3d0       ??$set_program_name@PAD@?$__crt_char_traits@D@@SAX$$QAPAD@Z 1006e3d0 f i libucrtd:argv_parsing.obj
 0001:0006d3f0       ??$set_program_name@PA_W@?$__crt_char_traits@_W@@SAX$$QAPA_W@Z 1006e3f0 f i libucrtd:argv_parsing.obj
 0001:0006d450       ??0?$__crt_unique_heap_ptr@EU__crt_internal_free_policy@@@@QAE@QAE@Z 1006e450 f i libucrtd:argv_parsing.obj
 0001:0006d470       ??0?$__crt_unique_heap_ptr@PADU__crt_internal_free_policy@@@@QAE@QAPAD@Z 1006e470 f i libucrtd:argv_parsing.obj
 0001:0006d490       ??0?$__crt_unique_heap_ptr@PA_WU__crt_internal_free_policy@@@@QAE@QAPA_W@Z 1006e490 f i libucrtd:argv_parsing.obj
 0001:0006d4b0       ??1?$__crt_unique_heap_ptr@EU__crt_internal_free_policy@@@@QAE@XZ 1006e4b0 f i libucrtd:argv_parsing.obj
 0001:0006d4d0       ??1?$__crt_unique_heap_ptr@PADU__crt_internal_free_policy@@@@QAE@XZ 1006e4d0 f i libucrtd:argv_parsing.obj
 0001:0006d4f0       ??1?$__crt_unique_heap_ptr@PA_WU__crt_internal_free_policy@@@@QAE@XZ 1006e4f0 f i libucrtd:argv_parsing.obj
 0001:0006d510       ??B?$__crt_unique_heap_ptr@EU__crt_internal_free_policy@@@@QBE_NXZ 1006e510 f i libucrtd:argv_parsing.obj
 0001:0006d5d0       ?detach@?$__crt_unique_heap_ptr@EU__crt_internal_free_policy@@@@QAEPAEXZ 1006e5d0 f i libucrtd:argv_parsing.obj
 0001:0006d600       ?detach@?$__crt_unique_heap_ptr@PADU__crt_internal_free_policy@@@@QAEPAPADXZ 1006e600 f i libucrtd:argv_parsing.obj
 0001:0006d630       ?detach@?$__crt_unique_heap_ptr@PA_WU__crt_internal_free_policy@@@@QAEPAPA_WXZ 1006e630 f i libucrtd:argv_parsing.obj
 0001:0006d6c0       ?get@?$__crt_unique_heap_ptr@EU__crt_internal_free_policy@@@@QBEPAEXZ 1006e6c0 f i libucrtd:argv_parsing.obj
 0001:0006d6e0       ?get@?$__crt_unique_heap_ptr@PADU__crt_internal_free_policy@@@@QBEPAPADXZ 1006e6e0 f i libucrtd:argv_parsing.obj
 0001:0006d700       ?get@?$__crt_unique_heap_ptr@PA_WU__crt_internal_free_policy@@@@QBEPAPA_WXZ 1006e700 f i libucrtd:argv_parsing.obj
 0001:0006d720       ?get_address_of@?$__crt_unique_heap_ptr@PADU__crt_internal_free_policy@@@@QAEPAPAPADXZ 1006e720 f i libucrtd:argv_parsing.obj
 0001:0006d730       ?get_address_of@?$__crt_unique_heap_ptr@PA_WU__crt_internal_free_policy@@@@QAEPAPAPA_WXZ 1006e730 f i libucrtd:argv_parsing.obj
 0001:0006d780       ?is_valid@?$__crt_unique_heap_ptr@EU__crt_internal_free_policy@@@@QBE_NXZ 1006e780 f i libucrtd:argv_parsing.obj
 0001:0006d7b0       ?release@?$__crt_unique_heap_ptr@EU__crt_internal_free_policy@@@@QAEXXZ 1006e7b0 f i libucrtd:argv_parsing.obj
 0001:0006d7e0       ?release@?$__crt_unique_heap_ptr@PADU__crt_internal_free_policy@@@@QAEXXZ 1006e7e0 f i libucrtd:argv_parsing.obj
 0001:0006d810       ?release@?$__crt_unique_heap_ptr@PA_WU__crt_internal_free_policy@@@@QAEXXZ 1006e810 f i libucrtd:argv_parsing.obj
 0001:0006d880       ___acrt_allocate_buffer_for_argv 1006e880 f   libucrtd:argv_parsing.obj
 0001:0006d940       __configure_narrow_argv    1006e940 f   libucrtd:argv_parsing.obj
 0001:0006d960       __configure_wide_argv      1006e960 f   libucrtd:argv_parsing.obj
 0001:0006d980       __set_pgmptr               1006e980 f i libucrtd:argv_parsing.obj
 0001:0006d990       __set_wpgmptr              1006e990 f i libucrtd:argv_parsing.obj
 0001:0006d99f       ??$?R_W@__crt_internal_free_policy@@QBEXQB_W@Z 1006e99f f i libucrtd:environment_initialization.obj
 0001:0006de08       ??$get_environment_from_os@$$V@?$__crt_char_traits@D@@SAPADXZ 1006ee08 f i libucrtd:environment_initialization.obj
 0001:0006de0d       ??$get_environment_from_os@$$V@?$__crt_char_traits@_W@@SAPA_WXZ 1006ee0d f i libucrtd:environment_initialization.obj
 0001:0006df36       ??$set_variable_in_environment_nolock@PADH@?$__crt_char_traits@D@@SAH$$QAPAD$$QAH@Z 1006ef36 f i libucrtd:environment_initialization.obj
 0001:0006df4e       ??$set_variable_in_environment_nolock@PA_WH@?$__crt_char_traits@_W@@SAH$$QAPA_W$$QAH@Z 1006ef4e f i libucrtd:environment_initialization.obj
 0001:0006df66       ??$tcscpy_s@PADABIAAPAD@?$__crt_char_traits@D@@SAH$$QAPADABIAAPAD@Z 1006ef66 f i libucrtd:environment_initialization.obj
 0001:0006df84       ??$tcscpy_s@PA_WABIAAPA_W@?$__crt_char_traits@_W@@SAH$$QAPA_WABIAAPA_W@Z 1006ef84 f i libucrtd:environment_initialization.obj
 0001:0006dfa2       ??$tcslen@AAPAD@?$__crt_char_traits@D@@SAIAAPAD@Z 1006efa2 f i libucrtd:environment_initialization.obj
 0001:0006dfba       ??$tcslen@AAPA_W@?$__crt_char_traits@_W@@SAIAAPA_W@Z 1006efba f i libucrtd:environment_initialization.obj
 0001:0006dfd8       ??$uninitialize@A6AXAAPAPAD@Z@?$dual_state_global@PAPAD@__crt_state_management@@QAEXA6AXAAPAPAD@Z@Z 1006efd8 f i libucrtd:environment_initialization.obj
 0001:0006e001       ??$uninitialize@A6AXAAPAPA_W@Z@?$dual_state_global@PAPA_W@__crt_state_management@@QAEXA6AXAAPAPA_W@Z@Z 1006f001 f i libucrtd:environment_initialization.obj
 0001:0006e060       ??0?$__crt_unique_heap_ptr@_WU__crt_internal_free_policy@@@@QAE@QA_W@Z 1006f060 f i libucrtd:environment_initialization.obj
 0001:0006e070       ??1?$__crt_unique_heap_ptr@_WU__crt_internal_free_policy@@@@QAE@XZ 1006f070 f i libucrtd:environment_initialization.obj
 0001:0006e085       ??B?$__crt_unique_heap_ptr@PADU__crt_internal_free_policy@@@@QBE_NXZ 1006f085 f i libucrtd:environment_initialization.obj
 0001:0006e08c       ??B?$__crt_unique_heap_ptr@PA_WU__crt_internal_free_policy@@@@QBE_NXZ 1006f08c f i libucrtd:environment_initialization.obj
 0001:0006e093       ??B?$__crt_unique_heap_ptr@_WU__crt_internal_free_policy@@@@QBE_NXZ 1006f093 f i libucrtd:environment_initialization.obj
 0001:0006e09a       ?__crt_compute_required_transform_buffer_count@@YAIIQBD@Z 1006f09a f i libucrtd:environment_initialization.obj
 0001:0006e0b6       ?__crt_compute_required_transform_buffer_count@@YAIIQB_W@Z 1006f0b6 f i libucrtd:environment_initialization.obj
 0001:0006e0d4       ?__crt_transform_string@@YAIIQBDQA_WI@Z 1006f0d4 f i libucrtd:environment_initialization.obj
 0001:0006e0f3       ?__crt_transform_string@@YAIIQB_WQADI@Z 1006f0f3 f i libucrtd:environment_initialization.obj
 0001:0006e115       ?detach@?$__crt_unique_heap_ptr@DU__crt_internal_free_policy@@@@QAEPADXZ 1006f115 f i libucrtd:environment_initialization.obj
 0001:0006e11b       ?detach@?$__crt_unique_heap_ptr@_WU__crt_internal_free_policy@@@@QAEPA_WXZ 1006f11b f i libucrtd:environment_initialization.obj
 0001:0006e121       ?get@?$__crt_unique_heap_ptr@_WU__crt_internal_free_policy@@@@QBEPA_WXZ 1006f121 f i libucrtd:environment_initialization.obj
 0001:0006e148       ?initialize@?$dual_state_global@PAPAD@__crt_state_management@@QAEXQAPAD@Z 1006f148 f i libucrtd:environment_initialization.obj
 0001:0006e16e       ?initialize@?$dual_state_global@PAPA_W@__crt_state_management@@QAEXQAPA_W@Z 1006f16e f i libucrtd:environment_initialization.obj
 0001:0006e194       ?is_valid@?$__crt_unique_heap_ptr@PADU__crt_internal_free_policy@@@@QBE_NXZ 1006f194 f i libucrtd:environment_initialization.obj
 0001:0006e19b       ?is_valid@?$__crt_unique_heap_ptr@PA_WU__crt_internal_free_policy@@@@QBE_NXZ 1006f19b f i libucrtd:environment_initialization.obj
 0001:0006e1a2       ?is_valid@?$__crt_unique_heap_ptr@_WU__crt_internal_free_policy@@@@QBE_NXZ 1006f1a2 f i libucrtd:environment_initialization.obj
 0001:0006e1b1       ?release@?$__crt_unique_heap_ptr@_WU__crt_internal_free_policy@@@@QAEXXZ 1006f1b1 f i libucrtd:environment_initialization.obj
 0001:0006e1c6       ?value@?$dual_state_global@PAPAD@__crt_state_management@@QAEAAPAPADXZ 1006f1c6 f i libucrtd:environment_initialization.obj
 0001:0006e1c9       ?value@?$dual_state_global@PAPA_W@__crt_state_management@@QAEAAPAPA_WXZ 1006f1c9 f i libucrtd:environment_initialization.obj
 0001:0006e1cc       ___dcrt_get_or_create_narrow_environment_nolock 1006f1cc f   libucrtd:environment_initialization.obj
 0001:0006e1d1       ___dcrt_get_or_create_wide_environment_nolock 1006f1d1 f   libucrtd:environment_initialization.obj
 0001:0006e1d6       ___dcrt_uninitialize_environments_nolock 1006f1d6 f   libucrtd:environment_initialization.obj
 0001:0006e20d       ___p__environ              1006f20d f   libucrtd:environment_initialization.obj
 0001:0006e213       ___p__wenviron             1006f213 f   libucrtd:environment_initialization.obj
 0001:0006e219       __get_initial_narrow_environment 1006f219 f   libucrtd:environment_initialization.obj
 0001:0006e22d       __get_initial_wide_environment 1006f22d f   libucrtd:environment_initialization.obj
 0001:0006e241       __initialize_narrow_environment 1006f241 f   libucrtd:environment_initialization.obj
 0001:0006e246       __initialize_wide_environment 1006f246 f   libucrtd:environment_initialization.obj
 0001:0006e250       ??$?B$$A6AXXZ@__crt_fast_encoded_nullptr_t@@QBEP6AXXZXZ 1006f250 f i libucrtd:onexit.obj
 0001:0006e270       ??$?BP6AXXZ@__crt_fast_encoded_nullptr_t@@QBEPAP6AXXZXZ 1006f270 f i libucrtd:onexit.obj
 0001:0006e290       ??$?RP6AXXZ@__crt_internal_free_policy@@QBEXQBQ6AXXZ@Z 1006f290 f i libucrtd:onexit.obj
 0001:0006e450       ??$__crt_fast_decode_pointer@P6AXXZ@@YAP6AXXZQ6AXXZ@Z 1006f450 f i libucrtd:onexit.obj
 0001:0006e480       ??$__crt_fast_decode_pointer@PAP6AXXZ@@YAPAP6AXXZQAP6AXXZ@Z 1006f480 f i libucrtd:onexit.obj
 0001:0006e4b0       ??$__crt_fast_encode_pointer@P6AHXZ@@YAP6AHXZQ6AHXZ@Z 1006f4b0 f i libucrtd:onexit.obj
 0001:0006e4e0       ??$__crt_fast_encode_pointer@P6AXXZ@@YAP6AXXZQ6AXXZ@Z 1006f4e0 f i libucrtd:onexit.obj
 0001:0006e510       ??$__crt_fast_encode_pointer@PAP6AXXZ@@YAPAP6AXXZQAP6AXXZ@Z 1006f510 f i libucrtd:onexit.obj
 0001:0006e610       ??0?$__crt_unique_heap_ptr@P6AXXZU__crt_internal_free_policy@@@@QAE@QAP6AXXZ@Z 1006f610 f i libucrtd:onexit.obj
 0001:0006e630       ??1?$__crt_unique_heap_ptr@P6AXXZU__crt_internal_free_policy@@@@QAE@XZ 1006f630 f i libucrtd:onexit.obj
 0001:0006e650       ??1scoped_global_state_reset@__crt_state_management@@QAE@XZ 1006f650 f i libucrtd:onexit.obj
 0001:0006eac0       ?detach@?$__crt_unique_heap_ptr@P6AXXZU__crt_internal_free_policy@@@@QAEPAP6AXXZXZ 1006fac0 f i libucrtd:onexit.obj
 0001:0006eaf0       ?release@?$__crt_unique_heap_ptr@P6AXXZU__crt_internal_free_policy@@@@QAEXXZ 1006faf0 f i libucrtd:onexit.obj
 0001:0006eb20       __crt_at_quick_exit        1006fb20 f   libucrtd:onexit.obj
 0001:0006eb40       __crt_atexit               1006fb40 f   libucrtd:onexit.obj
 0001:0006eb60       __execute_onexit_table     1006fb60 f   libucrtd:onexit.obj
 0001:0006eb90       __initialize_onexit_table  1006fb90 f   libucrtd:onexit.obj
 0001:0006ebf0       __register_onexit_function 1006fbf0 f   libucrtd:onexit.obj
 0001:0006ee30       ??$?BX@__crt_fast_encoded_nullptr_t@@QBEPAXXZ 1006fe30 f i libucrtd:initialization.obj
 0001:0006ee50       ??$__crt_fast_encode_pointer@PAX@@YAPAXQAX@Z 1006fe50 f i libucrtd:initialization.obj
 0001:0006ef10       ?initialize@?$dual_state_global@PAU__crt_locale_data@@@__crt_state_management@@QAEXQAU__crt_locale_data@@@Z 1006ff10 f i libucrtd:initialization.obj
 0001:0006ef50       ___acrt_initialize         1006ff50 f   libucrtd:initialization.obj
 0001:0006ef70       ___acrt_thread_attach      1006ff70 f   libucrtd:initialization.obj
 0001:0006ef90       ___acrt_thread_detach      1006ff90 f   libucrtd:initialization.obj
 0001:0006efa0       ___acrt_uninitialize       1006ffa0 f   libucrtd:initialization.obj
 0001:0006efc0       ___acrt_uninitialize_critical 1006ffc0 f   libucrtd:initialization.obj
 0001:00070830       __CrtCheckMemory           10071830 f   libucrtd:debug_heap.obj
 0001:000709c0       __CrtDoForAllClientObjects 100719c0 f   libucrtd:debug_heap.obj
 0001:00070b10       __CrtDumpMemoryLeaks       10071b10 f   libucrtd:debug_heap.obj
 0001:00070bb0       __CrtGetAllocHook          10071bb0 f   libucrtd:debug_heap.obj
 0001:00070bc0       __CrtGetDumpClient         10071bc0 f   libucrtd:debug_heap.obj
 0001:00070bd0       __CrtIsMemoryBlock         10071bd0 f   libucrtd:debug_heap.obj
 0001:00070d20       __CrtIsValidHeapPointer    10071d20 f   libucrtd:debug_heap.obj
 0001:00070d50       __CrtIsValidPointer        10071d50 f   libucrtd:debug_heap.obj
 0001:00070d80       __CrtMemCheckpoint         10071d80 f   libucrtd:debug_heap.obj
 0001:00070fb0       __CrtMemDifference         10071fb0 f   libucrtd:debug_heap.obj
 0001:00071220       __CrtMemDumpAllObjectsSince 10072220 f   libucrtd:debug_heap.obj
 0001:000712c0       __CrtMemDumpStatistics     100722c0 f   libucrtd:debug_heap.obj
 0001:000713f0       __CrtReportBlockType       100723f0 f   libucrtd:debug_heap.obj
 0001:00071420       __CrtSetAllocHook          10072420 f   libucrtd:debug_heap.obj
 0001:00071440       __CrtSetBreakAlloc         10072440 f   libucrtd:debug_heap.obj
 0001:00071460       __CrtSetDbgBlockType       10072460 f   libucrtd:debug_heap.obj
 0001:00071540       __CrtSetDbgFlag            10072540 f   libucrtd:debug_heap.obj
 0001:000716b0       __CrtSetDumpClient         100726b0 f   libucrtd:debug_heap.obj
 0001:000716d0       ___acrt_get_locale_data_prefix 100726d0 f i libucrtd:debug_heap.obj
 0001:000716f0       ___p__crtBreakAlloc        100726f0 f   libucrtd:debug_heap.obj
 0001:00071700       ___p__crtDbgFlag           10072700 f   libucrtd:debug_heap.obj
 0001:00071710       __aligned_free_dbg         10072710 f   libucrtd:debug_heap.obj
 0001:000717c0       __aligned_malloc_dbg       100727c0 f   libucrtd:debug_heap.obj
 0001:000717f0       __aligned_msize_dbg        100727f0 f   libucrtd:debug_heap.obj
 0001:00071920       __aligned_offset_malloc_dbg 10072920 f   libucrtd:debug_heap.obj
 0001:00071b00       __aligned_offset_realloc_dbg 10072b00 f   libucrtd:debug_heap.obj
 0001:00071e10       __aligned_offset_recalloc_dbg 10072e10 f   libucrtd:debug_heap.obj
 0001:00071ed0       __aligned_realloc_dbg      10072ed0 f   libucrtd:debug_heap.obj
 0001:00071f00       __aligned_recalloc_dbg     10072f00 f   libucrtd:debug_heap.obj
 0001:00071f30       __calloc_dbg               10072f30 f   libucrtd:debug_heap.obj
 0001:00071fa0       __chvalidchk_l             10072fa0 f i libucrtd:debug_heap.obj
 0001:00071fc0       __expand_dbg               10072fc0 f   libucrtd:debug_heap.obj
 0001:000720f0       __free_dbg                 100730f0 f   libucrtd:debug_heap.obj
 0001:000721a0       __ischartype_l             100731a0 f i libucrtd:debug_heap.obj
 0001:00072220       __malloc_dbg               10073220 f   libucrtd:debug_heap.obj
 0001:00072240       __msize_dbg                10073240 f   libucrtd:debug_heap.obj
 0001:000723d0       __realloc_dbg              100733d0 f   libucrtd:debug_heap.obj
 0001:00072470       __recalloc_dbg             10073470 f   libucrtd:debug_heap.obj
 0001:00072520       __initterm                 10073520 f   libucrtd:initterm.obj
 0001:00072570       __initterm_e               10073570 f   libucrtd:initterm.obj
 0001:000728e0       _strcpy_s                  100738e0 f   libucrtd:strcpy_s.obj
 0001:00072d10       _strcat_s                  10073d10 f   libucrtd:strcat_s.obj
 0001:00072d30       ??$?B$$A6AHI@Z@__crt_fast_encoded_nullptr_t@@QBEP6AHI@ZXZ 10073d30 f i libucrtd:new_handler.obj
 0001:00072d50       ??$__crt_fast_decode_pointer@P6AHI@Z@@YAP6AHI@ZQ6AHI@Z@Z 10073d50 f i libucrtd:new_handler.obj
 0001:00072d80       ??$__crt_fast_encode_pointer@P6AHI@Z@@YAP6AHI@ZQ6AHI@Z@Z 10073d80 f i libucrtd:new_handler.obj
 0001:00072db0       ?_set_new_handler@@YAP6AHI@ZH@Z 10073db0 f   libucrtd:new_handler.obj
 0001:00072e10       ?initialize@?$dual_state_global@P6AHI@Z@__crt_state_management@@QAEXQ6AHI@Z@Z 10073e10 f i libucrtd:new_handler.obj
 0001:00072e50       ?value@?$dual_state_global@P6AHI@Z@__crt_state_management@@QAEAAP6AHI@ZXZ 10073e50 f i libucrtd:new_handler.obj
 0001:00072e70       ___acrt_initialize_new_handler 10073e70 f   libucrtd:new_handler.obj
 0001:00072e90       __callnewh                 10073e90 f   libucrtd:new_handler.obj
 0001:00072ed0       __query_new_handler        10073ed0 f   libucrtd:new_handler.obj
 0001:00072f60       __set_new_handler          10073f60 f   libucrtd:new_handler.obj
 0001:00073040       __get_terminate            10074040 f   libucrtd:terminate.obj
 0001:00073060       _set_terminate             10074060 f   libucrtd:terminate.obj
 0001:00073090       _terminate                 10074090 f   libucrtd:terminate.obj
 0001:00073a60       __makepath                 10074a60 f   libucrtd:makepath.obj
 0001:00073a90       __makepath_s               10074a90 f   libucrtd:makepath.obj
 0001:00073ac0       __wmakepath                10074ac0 f   libucrtd:makepath.obj
 0001:00073af0       __wmakepath_s              10074af0 f   libucrtd:makepath.obj
 0001:00075440       ??$tcsncpy_s@AAPADIAAPBDABI@?$__crt_char_traits@D@@SAHAAPAD$$QAIAAPBDABI@Z 10076440 f i libucrtd:splitpath.obj
 0001:00075470       ??$tcsncpy_s@AAPADIAAPBDH@?$__crt_char_traits@D@@SAHAAPAD$$QAIAAPBD$$QAH@Z 10076470 f i libucrtd:splitpath.obj
 0001:000754a0       ??$tcsncpy_s@AAPA_WIAAPB_WABI@?$__crt_char_traits@_W@@SAHAAPA_W$$QAIAAPB_WABI@Z 100764a0 f i libucrtd:splitpath.obj
 0001:000754d0       ??$tcsncpy_s@AAPA_WIAAPB_WH@?$__crt_char_traits@_W@@SAHAAPA_W$$QAIAAPB_W$$QAH@Z 100764d0 f i libucrtd:splitpath.obj
 0001:00075710       __splitpath                10076710 f   libucrtd:splitpath.obj
 0001:00075740       __splitpath_s              10076740 f   libucrtd:splitpath.obj
 0001:00075790       __wsplitpath               10076790 f   libucrtd:splitpath.obj
 0001:000757c0       __wsplitpath_s             100767c0 f   libucrtd:splitpath.obj
 0001:00075810       __set_abort_behavior       10076810 f   libucrtd:abort.obj
 0001:00075840       _abort                     10076840 f   libucrtd:abort.obj
 0001:000758b0       _strcmp                    100768b0 f   libucrtd:strcmp.obj
 0001:00075940       _strlen                    10076940 f   libucrtd:strlen.obj
 0001:000759d0       ??$is_overflow_condition@K@__crt_strtox@@YA_NIK@Z 100769d0 f i libucrtd:atox.obj
 0001:00075a30       ??$is_overflow_condition@_K@__crt_strtox@@YA_NI_K@Z 10076a30 f i libucrtd:atox.obj
 0001:00075ac0       ??$make_c_string_character_source@D$$T@__crt_strtox@@YA?AV?$c_string_character_source@D@0@QBD$$T@Z 10076ac0 f i libucrtd:atox.obj
 0001:00075ae0       ??$make_c_string_character_source@_W$$T@__crt_strtox@@YA?AV?$c_string_character_source@_W@0@QB_W$$T@Z 10076ae0 f i libucrtd:atox.obj
 0001:00075b00       ??$parse_integer@KV?$c_string_character_source@D@__crt_strtox@@@__crt_strtox@@YAKQAU__crt_locale_pointers@@V?$c_string_character_source@D@0@H_N@Z 10076b00 f i libucrtd:atox.obj
 0001:00075e70       ??$parse_integer@KV?$c_string_character_source@_W@__crt_strtox@@@__crt_strtox@@YAKQAU__crt_locale_pointers@@V?$c_string_character_source@_W@0@H_N@Z 10076e70 f i libucrtd:atox.obj
 0001:000761e0       ??$parse_integer@_KV?$c_string_character_source@D@__crt_strtox@@@__crt_strtox@@YA_KQAU__crt_locale_pointers@@V?$c_string_character_source@D@0@H_N@Z 100771e0 f i libucrtd:atox.obj
 0001:00076600       ??$parse_integer@_KV?$c_string_character_source@_W@__crt_strtox@@@__crt_strtox@@YA_KQAU__crt_locale_pointers@@V?$c_string_character_source@_W@0@H_N@Z 10077600 f i libucrtd:atox.obj
 0001:00076a30       ??$parse_integer_from_string@JD$$T@__crt_strtox@@YAJQBD$$THQAU__crt_locale_pointers@@@Z 10077a30 f i libucrtd:atox.obj
 0001:00076a70       ??$parse_integer_from_string@J_W$$T@__crt_strtox@@YAJQB_W$$THQAU__crt_locale_pointers@@@Z 10077a70 f i libucrtd:atox.obj
 0001:00076ab0       ??$parse_integer_from_string@_JD$$T@__crt_strtox@@YA_JQBD$$THQAU__crt_locale_pointers@@@Z 10077ab0 f i libucrtd:atox.obj
 0001:00076af0       ??$parse_integer_from_string@_J_W$$T@__crt_strtox@@YA_JQB_W$$THQAU__crt_locale_pointers@@@Z 10077af0 f i libucrtd:atox.obj
 0001:00076b30       ??0?$c_string_character_source@D@__crt_strtox@@QAE@QBDQAPBD@Z 10077b30 f i libucrtd:atox.obj
 0001:00076b70       ??0?$c_string_character_source@_W@__crt_strtox@@QAE@QB_WQAPB_W@Z 10077b70 f i libucrtd:atox.obj
 0001:00076bb0       ??1?$c_string_character_source@D@__crt_strtox@@QAE@XZ 10077bb0 f i libucrtd:atox.obj
 0001:00076be0       ??1?$c_string_character_source@_W@__crt_strtox@@QAE@XZ 10077be0 f i libucrtd:atox.obj
 0001:00076c10       ?get@?$c_string_character_source@D@__crt_strtox@@QAEDXZ 10077c10 f i libucrtd:atox.obj
 0001:00076c40       ?get@?$c_string_character_source@_W@__crt_strtox@@QAE_WXZ 10077c40 f i libucrtd:atox.obj
 0001:00076c70       ?is_space@__crt_strtox@@YA_NDQAU__crt_locale_pointers@@@Z 10077c70 f i libucrtd:atox.obj
 0001:00076cb0       ?is_space@__crt_strtox@@YA_N_WPAU__crt_locale_pointers@@@Z 10077cb0 f i libucrtd:atox.obj
 0001:00076ce0       ?maximum_signed_value@__crt_strtox@@YAJK@Z 10077ce0 f i libucrtd:atox.obj
 0001:00076cf0       ?maximum_signed_value@__crt_strtox@@YA_J_K@Z 10077cf0 f i libucrtd:atox.obj
 0001:00076d00       ?minimum_signed_value@__crt_strtox@@YAJK@Z 10077d00 f i libucrtd:atox.obj
 0001:00076d10       ?minimum_signed_value@__crt_strtox@@YA_J_K@Z 10077d10 f i libucrtd:atox.obj
 0001:00076d20       ?parse_digit@__crt_strtox@@YAID@Z 10077d20 f i libucrtd:atox.obj
 0001:00076d80       ?parse_digit@__crt_strtox@@YAI_W@Z 10077d80 f i libucrtd:atox.obj
 0001:00076dd0       ?restore_state@?$c_string_character_source@D@__crt_strtox@@QAE_NQBD@Z 10077dd0 f i libucrtd:atox.obj
 0001:00076df0       ?restore_state@?$c_string_character_source@_W@__crt_strtox@@QAE_NQB_W@Z 10077df0 f i libucrtd:atox.obj
 0001:00076e10       ?save_state@?$c_string_character_source@D@__crt_strtox@@QBEPBDXZ 10077e10 f i libucrtd:atox.obj
 0001:00076e30       ?save_state@?$c_string_character_source@_W@__crt_strtox@@QBEPB_WXZ 10077e30 f i libucrtd:atox.obj
 0001:00076e50       ?unget@?$c_string_character_source@D@__crt_strtox@@QAEXD@Z 10077e50 f i libucrtd:atox.obj
 0001:00076f00       ?unget@?$c_string_character_source@_W@__crt_strtox@@QAEX_W@Z 10077f00 f i libucrtd:atox.obj
 0001:00076fb0       ?validate@?$c_string_character_source@D@__crt_strtox@@QBE_NXZ 10077fb0 f i libucrtd:atox.obj
 0001:00077040       ?validate@?$c_string_character_source@_W@__crt_strtox@@QBE_NXZ 10078040 f i libucrtd:atox.obj
 0001:000770d0       ?wide_character_to_digit@__crt_strtox@@YAH_W@Z 100780d0 f i libucrtd:atox.obj
 0001:00077400       ___ascii_iswalpha          10078400 f i libucrtd:atox.obj
 0001:00077440       ___ascii_toupper           10078440 f i libucrtd:atox.obj
 0001:00077460       ___ascii_towupper          10078460 f i libucrtd:atox.obj
 0001:00077480       __atoi64                   10078480 f   libucrtd:atox.obj
 0001:000774a0       __atoi64_l                 100784a0 f   libucrtd:atox.obj
 0001:000774c0       __atoi_l                   100784c0 f   libucrtd:atox.obj
 0001:000774e0       __atol_l                   100784e0 f   libucrtd:atox.obj
 0001:00077500       __atoll_l                  10078500 f   libucrtd:atox.obj
 0001:00077520       __wtoi                     10078520 f   libucrtd:atox.obj
 0001:00077540       __wtoi64                   10078540 f   libucrtd:atox.obj
 0001:00077560       __wtoi64_l                 10078560 f   libucrtd:atox.obj
 0001:00077580       __wtoi_l                   10078580 f   libucrtd:atox.obj
 0001:000775a0       __wtol                     100785a0 f   libucrtd:atox.obj
 0001:000775c0       __wtol_l                   100785c0 f   libucrtd:atox.obj
 0001:000775e0       __wtoll                    100785e0 f   libucrtd:atox.obj
 0001:00077600       __wtoll_l                  10078600 f   libucrtd:atox.obj
 0001:00077620       _atoi                      10078620 f   libucrtd:atox.obj
 0001:00077640       _atol                      10078640 f   libucrtd:atox.obj
 0001:00077660       _atoll                     10078660 f   libucrtd:atox.obj
 0001:00077680       _strncmp                   10078680 f   libucrtd:strncmp.obj
 0001:00077700       _wcsncmp                   10078700 f   libucrtd:wcsncmp.obj
 0001:00077760       __CrtGetDebugFillThreshold 10078760 f   libucrtd:debug_fill_threshold.obj
 0001:00077770       __CrtSetDebugFillThreshold 10078770 f   libucrtd:debug_fill_threshold.obj
 0001:00077790       ??$make_c_string_character_source@DPAPAD@__crt_strtox@@YA?AV?$c_string_character_source@D@0@QBDQAPAD@Z 10078790 f i libucrtd:strtox.obj
 0001:000777b0       ??$make_c_string_character_source@_WPAPA_W@__crt_strtox@@YA?AV?$c_string_character_source@_W@0@QB_WQAPA_W@Z 100787b0 f i libucrtd:strtox.obj
 0001:000777d0       ??$parse_integer_from_string@JDPAPAD@__crt_strtox@@YAJQBDQAPADHQAU__crt_locale_pointers@@@Z 100787d0 f i libucrtd:strtox.obj
 0001:00077810       ??$parse_integer_from_string@J_WPAPA_W@__crt_strtox@@YAJQB_WQAPA_WHQAU__crt_locale_pointers@@@Z 10078810 f i libucrtd:strtox.obj
 0001:00077850       ??$parse_integer_from_string@KDPAPAD@__crt_strtox@@YAKQBDQAPADHQAU__crt_locale_pointers@@@Z 10078850 f i libucrtd:strtox.obj
 0001:00077890       ??$parse_integer_from_string@K_WPAPA_W@__crt_strtox@@YAKQB_WQAPA_WHQAU__crt_locale_pointers@@@Z 10078890 f i libucrtd:strtox.obj
 0001:000778d0       ??$parse_integer_from_string@_JDPAPAD@__crt_strtox@@YA_JQBDQAPADHQAU__crt_locale_pointers@@@Z 100788d0 f i libucrtd:strtox.obj
 0001:00077910       ??$parse_integer_from_string@_J_WPAPA_W@__crt_strtox@@YA_JQB_WQAPA_WHQAU__crt_locale_pointers@@@Z 10078910 f i libucrtd:strtox.obj
 0001:00077950       ??$parse_integer_from_string@_KDPAPAD@__crt_strtox@@YA_KQBDQAPADHQAU__crt_locale_pointers@@@Z 10078950 f i libucrtd:strtox.obj
 0001:00077990       ??$parse_integer_from_string@_K_WPAPA_W@__crt_strtox@@YA_KQB_WQAPA_WHQAU__crt_locale_pointers@@@Z 10078990 f i libucrtd:strtox.obj
 0001:000779d0       __strtoi64                 100789d0 f   libucrtd:strtox.obj
 0001:000779f0       __strtoi64_l               100789f0 f   libucrtd:strtox.obj
 0001:00077a10       __strtoimax_l              10078a10 f   libucrtd:strtox.obj
 0001:00077a30       __strtol_l                 10078a30 f   libucrtd:strtox.obj
 0001:00077a50       __strtoll_l                10078a50 f   libucrtd:strtox.obj
 0001:00077a70       __strtoui64                10078a70 f   libucrtd:strtox.obj
 0001:00077a90       __strtoui64_l              10078a90 f   libucrtd:strtox.obj
 0001:00077ab0       __strtoul_l                10078ab0 f   libucrtd:strtox.obj
 0001:00077ad0       __strtoull_l               10078ad0 f   libucrtd:strtox.obj
 0001:00077af0       __strtoumax_l              10078af0 f   libucrtd:strtox.obj
 0001:00077b10       __wcstoi64                 10078b10 f   libucrtd:strtox.obj
 0001:00077b30       __wcstoi64_l               10078b30 f   libucrtd:strtox.obj
 0001:00077b50       __wcstoimax_l              10078b50 f   libucrtd:strtox.obj
 0001:00077b70       __wcstol_l                 10078b70 f   libucrtd:strtox.obj
 0001:00077b90       __wcstoll_l                10078b90 f   libucrtd:strtox.obj
 0001:00077bb0       __wcstoui64                10078bb0 f   libucrtd:strtox.obj
 0001:00077bd0       __wcstoui64_l              10078bd0 f   libucrtd:strtox.obj
 0001:00077bf0       __wcstoul_l                10078bf0 f   libucrtd:strtox.obj
 0001:00077c10       __wcstoull_l               10078c10 f   libucrtd:strtox.obj
 0001:00077c30       __wcstoumax_l              10078c30 f   libucrtd:strtox.obj
 0001:00077c50       _strtoimax                 10078c50 f   libucrtd:strtox.obj
 0001:00077c70       _strtol                    10078c70 f   libucrtd:strtox.obj
 0001:00077c90       _strtoll                   10078c90 f   libucrtd:strtox.obj
 0001:00077cb0       _strtoul                   10078cb0 f   libucrtd:strtox.obj
 0001:00077cd0       _strtoull                  10078cd0 f   libucrtd:strtox.obj
 0001:00077cf0       _strtoumax                 10078cf0 f   libucrtd:strtox.obj
 0001:00077d10       _wcstoimax                 10078d10 f   libucrtd:strtox.obj
 0001:00077d30       _wcstol                    10078d30 f   libucrtd:strtox.obj
 0001:00077d50       _wcstoll                   10078d50 f   libucrtd:strtox.obj
 0001:00077d70       _wcstoul                   10078d70 f   libucrtd:strtox.obj
 0001:00077d90       _wcstoull                  10078d90 f   libucrtd:strtox.obj
 0001:00077db0       _wcstoumax                 10078db0 f   libucrtd:strtox.obj
 0001:00077dd0       __mbtowc_l                 10078dd0 f   libucrtd:mbtowc.obj
 0001:000780f0       _mbtowc                    100790f0 f   libucrtd:mbtowc.obj
 0001:00078110       __wctomb_l                 10079110 f   libucrtd:wctomb.obj
 0001:00078190       __wctomb_s_l               10079190 f   libucrtd:wctomb.obj
 0001:00078550       _wctomb                    10079550 f   libucrtd:wctomb.obj
 0001:000785a0       _wctomb_s                  100795a0 f   libucrtd:wctomb.obj
 0001:000785d0       ??$?RU__acrt_ptd@@@__crt_internal_free_policy@@QBEXQBU__acrt_ptd@@@Z 100795d0 f i libucrtd:per_thread_data.obj
 0001:00078a80       ??0?$__crt_unique_heap_ptr@U__acrt_ptd@@U__crt_internal_free_policy@@@@QAE@QAU__acrt_ptd@@@Z 10079a80 f i libucrtd:per_thread_data.obj
 0001:00078aa0       ??0__crt_scoped_get_last_error_reset@@QAE@XZ 10079aa0 f i libucrtd:per_thread_data.obj
 0001:00078ac0       ??1?$__crt_unique_heap_ptr@U__acrt_ptd@@U__crt_internal_free_policy@@@@QAE@XZ 10079ac0 f i libucrtd:per_thread_data.obj
 0001:00078ae0       ??1__crt_scoped_get_last_error_reset@@QAE@XZ 10079ae0 f i libucrtd:per_thread_data.obj
 0001:00078b00       ??B?$__crt_unique_heap_ptr@U__acrt_ptd@@U__crt_internal_free_policy@@@@QBE_NXZ 10079b00 f i libucrtd:per_thread_data.obj
 0001:00078de0       ?dangerous_get_state_array@?$dual_state_global@PAU__crt_locale_data@@@__crt_state_management@@QAEPAPAU__crt_locale_data@@XZ 10079de0 f i libucrtd:per_thread_data.obj
 0001:00078f60       ?detach@?$__crt_unique_heap_ptr@U__acrt_ptd@@U__crt_internal_free_policy@@@@QAEPAU__acrt_ptd@@XZ 10079f60 f i libucrtd:per_thread_data.obj
 0001:00078f90       ?get@?$__crt_unique_heap_ptr@U__acrt_ptd@@U__crt_internal_free_policy@@@@QBEPAU__acrt_ptd@@XZ 10079f90 f i libucrtd:per_thread_data.obj
 0001:00078fb0       ?get_current_state_index@__crt_state_management@@YAIABV__crt_scoped_get_last_error_reset@@@Z 10079fb0 f i libucrtd:per_thread_data.obj
 0001:00079120       ?is_valid@?$__crt_unique_heap_ptr@U__acrt_ptd@@U__crt_internal_free_policy@@@@QBE_NXZ 1007a120 f i libucrtd:per_thread_data.obj
 0001:00079150       ?release@?$__crt_unique_heap_ptr@U__acrt_ptd@@U__crt_internal_free_policy@@@@QAEXXZ 1007a150 f i libucrtd:per_thread_data.obj
 0001:00079240       ?value@?$dual_state_global@PAU__crt_locale_data@@@__crt_state_management@@QAEAAPAU__crt_locale_data@@XZ 1007a240 f i libucrtd:per_thread_data.obj
 0001:00079260       ___acrt_freeptd            1007a260 f   libucrtd:per_thread_data.obj
 0001:00079290       ___acrt_getptd             1007a290 f   libucrtd:per_thread_data.obj
 0001:000792b0       ___acrt_getptd_head        1007a2b0 f   libucrtd:per_thread_data.obj
 0001:000792d0       ___acrt_getptd_noexit      1007a2d0 f   libucrtd:per_thread_data.obj
 0001:000792e0       ___acrt_initialize_ptd     1007a2e0 f   libucrtd:per_thread_data.obj
 0001:00079320       ___acrt_uninitialize_ptd   1007a320 f   libucrtd:per_thread_data.obj
 0001:00079350       ___threadhandle            1007a350 f   libucrtd:per_thread_data.obj
 0001:00079360       ___threadid                1007a360 f   libucrtd:per_thread_data.obj
 0001:00079370       ?value@?$dual_state_global@PAU__crt_multibyte_data@@@__crt_state_management@@QAEAAPAU__crt_multibyte_data@@XZ 1007a370 f i libucrtd:locale_update.obj
 0001:00079390       ___acrt_should_sync_with_global_locale 1007a390 f i libucrtd:locale_update.obj
 0001:000793c0       ___acrt_update_locale_info 1007a3c0 f   libucrtd:locale_update.obj
 0001:00079400       ___acrt_update_multibyte_info 1007a400 f   libucrtd:locale_update.obj
 0001:00079440       ?__acrt_fp_classify@@YA?AW4__acrt_fp_class@@ABN@Z 1007a440 f i libucrtd:cvt.obj
 0001:00079560       ?__acrt_fp_is_negative@@YA_NABN@Z 1007a560 f i libucrtd:cvt.obj
 0001:0007a850       ?strrchr@@YAPADQADH@Z      1007b850 f i libucrtd:cvt.obj
 0001:0007a870       ___acrt_fp_format          1007b870 f   libucrtd:cvt.obj
 0001:0007ad30       __fputwc_nolock            1007bd30 f   libucrtd:fputwc.obj
 0001:0007af20       __fputwchar                1007bf20 f   libucrtd:fputwc.obj
 0001:0007af40       __putwc_nolock             1007bf40 f   libucrtd:fputwc.obj
 0001:0007af60       _fputwc                    1007bf60 f   libucrtd:fputwc.obj
 0001:0007b070       _putwc                     1007c070 f   libucrtd:fputwc.obj
 0001:0007b090       _putwchar                  1007c090 f   libucrtd:fputwc.obj
 0001:0007b0b0       ?lowio_handle@__crt_stdio_stream@@QBEHXZ 1007c0b0 f i libucrtd:fileno.obj
 0001:0007b0d0       __fileno                   1007c0d0 f   libucrtd:fileno.obj
 0001:0007b170       ??$?RPAU__crt_stdio_stream_data@@@__crt_internal_free_policy@@QBEXQBQAU__crt_stdio_stream_data@@@Z 1007c170 f i libucrtd:_file.obj
 0001:0007b190       ??0?$__crt_unique_heap_ptr@PAU__crt_stdio_stream_data@@U__crt_internal_free_policy@@@@QAE@QAPAU__crt_stdio_stream_data@@@Z 1007c190 f i libucrtd:_file.obj
 0001:0007b1b0       ??1?$__crt_unique_heap_ptr@PAU__crt_stdio_stream_data@@U__crt_internal_free_policy@@@@QAE@XZ 1007c1b0 f i libucrtd:_file.obj
 0001:0007b1d0       ?detach@?$__crt_unique_heap_ptr@PAU__crt_stdio_stream_data@@U__crt_internal_free_policy@@@@QAEPAPAU__crt_stdio_stream_data@@XZ 1007c1d0 f i libucrtd:_file.obj
 0001:0007b200       ?release@?$__crt_unique_heap_ptr@PAU__crt_stdio_stream_data@@U__crt_internal_free_policy@@@@QAEXXZ 1007c200 f i libucrtd:_file.obj
 0001:0007b230       ___acrt_initialize_stdio   1007c230 f   libucrtd:_file.obj
 0001:0007b3a0       ___acrt_iob_func           1007c3a0 f   libucrtd:_file.obj
 0001:0007b3b0       ___acrt_uninitialize_stdio 1007c3b0 f   libucrtd:_file.obj
 0001:0007b430       __get_stream_buffer_pointers 1007c430 f   libucrtd:_file.obj
 0001:0007b510       __lock_file                1007c510 f   libucrtd:_file.obj
 0001:0007b540       __unlock_file              1007c540 f   libucrtd:_file.obj
 0001:0007b570       __get_printf_count_output  1007c570 f   libucrtd:printf_count_output.obj
 0001:0007b5a0       __set_printf_count_output  1007c5a0 f   libucrtd:printf_count_output.obj
 0001:0007b600       ?has_any_buffer@__crt_stdio_stream@@QBE_NXZ 1007c600 f i libucrtd:_sftbuf.obj
 0001:0007b620       ?has_any_of@__crt_stdio_stream@@QBE_NJ@Z 1007c620 f i libucrtd:_sftbuf.obj
 0001:0007b660       ?has_temporary_buffer@__crt_stdio_stream@@QBE_NXZ 1007c660 f i libucrtd:_sftbuf.obj
 0001:0007b680       ?set_flags@__crt_stdio_stream@@QBE_NJ@Z 1007c680 f i libucrtd:_sftbuf.obj
 0001:0007b6d0       ?unset_flags@__crt_stdio_stream@@QBE_NJ@Z 1007c6d0 f i libucrtd:_sftbuf.obj
 0001:0007b720       ___acrt_should_use_temporary_buffer 1007c720 f   libucrtd:_sftbuf.obj
 0001:0007b770       ___acrt_stdio_begin_temporary_buffering_nolock 1007c770 f   libucrtd:_sftbuf.obj
 0001:0007b920       ___acrt_stdio_end_temporary_buffering_nolock 1007c920 f   libucrtd:_sftbuf.obj
 0001:0007b9b0       ??$?RU__crt_locale_data@@@__crt_internal_free_policy@@QBEXQBU__crt_locale_data@@@Z 1007c9b0 f i libucrtd:wsetlocale.obj
 0001:0007b9d0       ??$?RU__crt_locale_pointers@@@__crt_internal_free_policy@@QBEXQBU__crt_locale_pointers@@@Z 1007c9d0 f i libucrtd:wsetlocale.obj
 0001:0007b9f0       ??$?RU__crt_multibyte_data@@@__crt_internal_free_policy@@QBEXQBU__crt_multibyte_data@@@Z 1007c9f0 f i libucrtd:wsetlocale.obj
 0001:0007bfe0       ??0?$__crt_unique_heap_ptr@U__crt_locale_data@@U__crt_internal_free_policy@@@@QAE@QAU__crt_locale_data@@@Z 1007cfe0 f i libucrtd:wsetlocale.obj
 0001:0007c000       ??0?$__crt_unique_heap_ptr@U__crt_locale_pointers@@U__crt_internal_free_policy@@@@QAE@QAU__crt_locale_pointers@@@Z 1007d000 f i libucrtd:wsetlocale.obj
 0001:0007c020       ??0?$__crt_unique_heap_ptr@U__crt_multibyte_data@@U__crt_internal_free_policy@@@@QAE@QAU__crt_multibyte_data@@@Z 1007d020 f i libucrtd:wsetlocale.obj
 0001:0007c040       ??0_expandlocale_locale_name_cache@@QAE@QA_WIQAU__crt_qualified_locale_data@@@Z 1007d040 f i libucrtd:wsetlocale.obj
 0001:0007c0b0       ??1?$__crt_unique_heap_ptr@U__crt_locale_data@@U__crt_internal_free_policy@@@@QAE@XZ 1007d0b0 f i libucrtd:wsetlocale.obj
 0001:0007c0d0       ??1?$__crt_unique_heap_ptr@U__crt_locale_pointers@@U__crt_internal_free_policy@@@@QAE@XZ 1007d0d0 f i libucrtd:wsetlocale.obj
 0001:0007c0f0       ??1?$__crt_unique_heap_ptr@U__crt_multibyte_data@@U__crt_internal_free_policy@@@@QAE@XZ 1007d0f0 f i libucrtd:wsetlocale.obj
 0001:0007c110       ??1_expandlocale_locale_name_cache@@QAE@XZ 1007d110 f i libucrtd:wsetlocale.obj
 0001:0007c170       ??B?$__crt_unique_heap_ptr@U__crt_locale_data@@U__crt_internal_free_policy@@@@QBE_NXZ 1007d170 f i libucrtd:wsetlocale.obj
 0001:0007c190       ??B?$__crt_unique_heap_ptr@U__crt_locale_pointers@@U__crt_internal_free_policy@@@@QBE_NXZ 1007d190 f i libucrtd:wsetlocale.obj
 0001:0007c1b0       ??B?$__crt_unique_heap_ptr@U__crt_multibyte_data@@U__crt_internal_free_policy@@@@QBE_NXZ 1007d1b0 f i libucrtd:wsetlocale.obj
 0001:0007c590       ?commit_locale_name@_expandlocale_locale_name_cache@@QAEXQB_WI@Z 1007d590 f i libucrtd:wsetlocale.obj
 0001:0007c5f0       ?commit_locale_name_cache_already_updated@_expandlocale_locale_name_cache@@QAEXQB_WI@Z 1007d5f0 f i libucrtd:wsetlocale.obj
 0001:0007c650       ?detach@?$__crt_unique_heap_ptr@U__crt_locale_data@@U__crt_internal_free_policy@@@@QAEPAU__crt_locale_data@@XZ 1007d650 f i libucrtd:wsetlocale.obj
 0001:0007c680       ?detach@?$__crt_unique_heap_ptr@U__crt_locale_pointers@@U__crt_internal_free_policy@@@@QAEPAU__crt_locale_pointers@@XZ 1007d680 f i libucrtd:wsetlocale.obj
 0001:0007c6b0       ?detach@?$__crt_unique_heap_ptr@U__crt_multibyte_data@@U__crt_internal_free_policy@@@@QAEPAU__crt_multibyte_data@@XZ 1007d6b0 f i libucrtd:wsetlocale.obj
 0001:0007c6e0       ?get@?$__crt_unique_heap_ptr@U__crt_locale_data@@U__crt_internal_free_policy@@@@QBEPAU__crt_locale_data@@XZ 1007d6e0 f i libucrtd:wsetlocale.obj
 0001:0007c700       ?get@?$__crt_unique_heap_ptr@U__crt_locale_pointers@@U__crt_internal_free_policy@@@@QBEPAU__crt_locale_pointers@@XZ 1007d700 f i libucrtd:wsetlocale.obj
 0001:0007c720       ?get@?$__crt_unique_heap_ptr@U__crt_multibyte_data@@U__crt_internal_free_policy@@@@QBEPAU__crt_multibyte_data@@XZ 1007d720 f i libucrtd:wsetlocale.obj
 0001:0007c740       ?is_valid@?$__crt_unique_heap_ptr@U__crt_locale_data@@U__crt_internal_free_policy@@@@QBE_NXZ 1007d740 f i libucrtd:wsetlocale.obj
 0001:0007c770       ?is_valid@?$__crt_unique_heap_ptr@U__crt_locale_pointers@@U__crt_internal_free_policy@@@@QBE_NXZ 1007d770 f i libucrtd:wsetlocale.obj
 0001:0007c7a0       ?is_valid@?$__crt_unique_heap_ptr@U__crt_multibyte_data@@U__crt_internal_free_policy@@@@QBE_NXZ 1007d7a0 f i libucrtd:wsetlocale.obj
 0001:0007c7d0       ?release@?$__crt_unique_heap_ptr@U__crt_locale_data@@U__crt_internal_free_policy@@@@QAEXXZ 1007d7d0 f i libucrtd:wsetlocale.obj
 0001:0007c800       ?release@?$__crt_unique_heap_ptr@U__crt_locale_pointers@@U__crt_internal_free_policy@@@@QAEXXZ 1007d800 f i libucrtd:wsetlocale.obj
 0001:0007c830       ?release@?$__crt_unique_heap_ptr@U__crt_multibyte_data@@U__crt_internal_free_policy@@@@QAEXXZ 1007d830 f i libucrtd:wsetlocale.obj
 0001:0007c860       ___acrt_copy_locale_name   1007d860 f   libucrtd:wsetlocale.obj
 0001:0007c900       ___acrt_set_locale_changed 1007d900 f   libucrtd:wsetlocale.obj
 0001:0007c920       ___acrt_uninitialize_locale 1007d920 f   libucrtd:wsetlocale.obj
 0001:0007c940       ___ascii_tolower           1007d940 f i libucrtd:wsetlocale.obj
 0001:0007c960       ___ascii_towlower          1007d960 f i libucrtd:wsetlocale.obj
 0001:0007c980       ___lc_lctowcs              1007d980 f   libucrtd:wsetlocale.obj
 0001:0007ca30       ___lc_wcstolc              1007da30 f   libucrtd:wsetlocale.obj
 0001:0007cc60       __configthreadlocale       1007dc60 f   libucrtd:wsetlocale.obj
 0001:0007cde0       __create_locale            1007dde0 f   libucrtd:wsetlocale.obj
 0001:0007d420       __free_locale              1007e420 f   libucrtd:wsetlocale.obj
 0001:0007d550       __get_current_locale       1007e550 f   libucrtd:wsetlocale.obj
 0001:0007d620       __wcreate_locale           1007e620 f   libucrtd:wsetlocale.obj
 0001:0007d860       __wcscats                  1007e860 f   libucrtd:wsetlocale.obj
 0001:0007d8e0       __wsetlocale               1007e8e0 f   libucrtd:wsetlocale.obj
 0001:0007efd0       ___p___mb_cur_max          1007ffd0 f   libucrtd:nlsdata.obj
 0001:0007f2d0       ___acrt_initialize_lowio   100802d0 f   libucrtd:ioinit.obj
 0001:0007f370       ___acrt_uninitialize_lowio 10080370 f   libucrtd:ioinit.obj
 0001:0007f3d0       __CrtGetReportHook         100803d0 f   libucrtd:dbgrptt.obj
 0001:0007f3e0       __CrtSetReportFile         100803e0 f   libucrtd:dbgrptt.obj
 0001:0007f4e0       __CrtSetReportHook         100804e0 f   libucrtd:dbgrptt.obj
 0001:0007f500       __CrtSetReportMode         10080500 f   libucrtd:dbgrptt.obj
 0001:0007f640       __VCrtDbgReportA           10080640 f   libucrtd:dbgrptt.obj
 0001:0007fec0       __VCrtDbgReportW           10080ec0 f   libucrtd:dbgrptt.obj
 0001:00080870       __snprintf_s               10081870 f i libucrtd:dbgrptt.obj
 0001:000808b0       __vsnprintf_s              100818b0 f i libucrtd:dbgrptt.obj
 0001:000808e0       __vsnprintf_s_l            100818e0 f i libucrtd:dbgrptt.obj
 0001:00080a70       ??$__acrt_wcs_to_mbs_cp@U__crt_win32_buffer_no_resizing@@@@YAHQB_WAAV?$__crt_win32_buffer@DU__crt_win32_buffer_no_resizing@@@@I@Z 10081a70 f i libucrtd:getmodulefilenamea.obj
 0001:00080aa0       ??0?$__crt_win32_buffer@DU__crt_win32_buffer_no_resizing@@@@QAE@QADI@Z 10081aa0 f i libucrtd:getmodulefilenamea.obj
 0001:00080af0       ??1?$__crt_win32_buffer@DU__crt_win32_buffer_no_resizing@@@@QAE@XZ 10081af0 f i libucrtd:getmodulefilenamea.obj
 0001:00080b60       ?__acrt_get_utf8_acp_compatibility_codepage@@YAIXZ 10081b60 f i libucrtd:getmodulefilenamea.obj
 0001:00080bf0       ?_deallocate@?$__crt_win32_buffer@DU__crt_win32_buffer_no_resizing@@@@AAEXXZ 10081bf0 f i libucrtd:getmodulefilenamea.obj
 0001:00080c30       ?allocate@?$__crt_win32_buffer@DU__crt_win32_buffer_no_resizing@@@@QAEHI@Z 10081c30 f i libucrtd:getmodulefilenamea.obj
 0001:00080ca0       ?allocate@__crt_win32_buffer_no_resizing@@SAHQAPAXIABV__crt_win32_buffer_empty_debug_info@@@Z 10081ca0 f i libucrtd:getmodulefilenamea.obj
 0001:00080cc0       ?capacity@?$__crt_win32_buffer@DU__crt_win32_buffer_no_resizing@@@@QBEIXZ 10081cc0 f i libucrtd:getmodulefilenamea.obj
 0001:00080ce0       ?data@?$__crt_win32_buffer@DU__crt_win32_buffer_no_resizing@@@@QAEPADXZ 10081ce0 f i libucrtd:getmodulefilenamea.obj
 0001:00080d00       ?deallocate@__crt_win32_buffer_no_resizing@@SAXQAXABV__crt_win32_buffer_empty_debug_info@@@Z 10081d00 f i libucrtd:getmodulefilenamea.obj
 0001:00080d10       ?debug_info@?$__crt_win32_buffer@DU__crt_win32_buffer_no_resizing@@@@QBEABV__crt_win32_buffer_empty_debug_info@@XZ 10081d10 f i libucrtd:getmodulefilenamea.obj
 0001:00080d20       ?set_to_nullptr@?$__crt_win32_buffer@DU__crt_win32_buffer_no_resizing@@@@QAEXXZ 10081d20 f i libucrtd:getmodulefilenamea.obj
 0001:00080d60       ?size@?$__crt_win32_buffer@DU__crt_win32_buffer_no_resizing@@@@QAEXI@Z 10081d60 f i libucrtd:getmodulefilenamea.obj
 0001:00080d80       ?size@?$__crt_win32_buffer@DU__crt_win32_buffer_no_resizing@@@@QBEIXZ 10081d80 f i libucrtd:getmodulefilenamea.obj
 0001:00080da0       ___acrt_GetModuleFileNameA 10081da0 f   libucrtd:getmodulefilenamea.obj
 0001:00081080       ??$message_box@$$TABQBDABQBDK@?$__crt_char_traits@D@@SAH$$QA$$TABQBD1$$QAK@Z 10082080 f i libucrtd:crtmbox.obj
 0001:000810b0       ??$message_box@$$TABQB_WABQB_WK@?$__crt_char_traits@_W@@SAH$$QA$$TABQB_W1$$QAK@Z 100820b0 f i libucrtd:crtmbox.obj
 0001:000810e0       ??$message_box@PAUHWND__@@ABQBDABQBDABI@?$__crt_char_traits@D@@SAH$$QAPAUHWND__@@ABQBD1ABI@Z 100820e0 f i libucrtd:crtmbox.obj
 0001:00081110       ??$message_box@PAUHWND__@@ABQB_WABQB_WABI@?$__crt_char_traits@_W@@SAH$$QAPAUHWND__@@ABQB_W1ABI@Z 10082110 f i libucrtd:crtmbox.obj
 0001:00081140       ??$output_debug_string@ABQBD@?$__crt_char_traits@D@@SAXABQBD@Z 10082140 f i libucrtd:crtmbox.obj
 0001:00081160       ??$output_debug_string@ABQB_W@?$__crt_char_traits@_W@@SAXABQB_W@Z 10082160 f i libucrtd:crtmbox.obj
 0001:00081180       ___acrt_show_narrow_message_box 10082180 f   libucrtd:crtmbox.obj
 0001:000811a0       ___acrt_show_wide_message_box 100821a0 f   libucrtd:crtmbox.obj
 0001:000811c0       ___acrt_initialize_locks   100821c0 f   libucrtd:locks.obj
 0001:00081220       ___acrt_lock               10082220 f   libucrtd:locks.obj
 0001:00081240       ___acrt_uninitialize_locks 10082240 f   libucrtd:locks.obj
 0001:00081290       ___acrt_unlock             10082290 f   libucrtd:locks.obj
 0001:000812b0       __lock_locales             100822b0 f   libucrtd:locks.obj
 0001:000812d0       __unlock_locales           100822d0 f   libucrtd:locks.obj
 0001:000812f0       ??$?B$$A6AXH@Z@__crt_fast_encoded_nullptr_t@@QBEP6AXH@ZXZ 100822f0 f i libucrtd:signal.obj
 0001:000813e0       ??$__crt_fast_decode_pointer@P6AXH@Z@@YAP6AXH@ZQ6AXH@Z@Z 100823e0 f i libucrtd:signal.obj
 0001:00081410       ??$__crt_fast_encode_pointer@P6AXH@Z@@YAP6AXH@ZQ6AXH@Z@Z 10082410 f i libucrtd:signal.obj
 0001:000816c0       ?initialize@?$dual_state_global@P6AXH@Z@__crt_state_management@@QAEXQ6AXH@Z@Z 100826c0 f i libucrtd:signal.obj
 0001:00081800       ?value@?$dual_state_global@P6AXH@Z@__crt_state_management@@QAEAAP6AXH@ZXZ 10082800 f i libucrtd:signal.obj
 0001:00081820       ___acrt_get_sigabrt_handler 10082820 f   libucrtd:signal.obj
 0001:00081840       ___acrt_initialize_signal_handlers 10082840 f   libucrtd:signal.obj
 0001:00081880       ___fpecode                 10082880 f   libucrtd:signal.obj
 0001:00081890       ___pxcptinfoptrs           10082890 f   libucrtd:signal.obj
 0001:000818a0       _raise                     100828a0 f   libucrtd:signal.obj
 0001:00081c70       _signal                    10082c70 f   libucrtd:signal.obj
 0001:00081ef0       __msize                    10082ef0 f   libucrtd:msize.obj
 0001:00081f10       __msize_base               10082f10 f   libucrtd:msize.obj
 0001:00081fb0       __realloc_base             10082fb0 f   libucrtd:realloc_base.obj
 0001:00082070       ??$?B$$A6GHPA_WKJ@Z@__crt_fast_encoded_nullptr_t@@QBEP6GHPA_WKJ@ZXZ 10083070 f i libucrtd:winapi_thunks.obj
 0001:00082160       ??$__crt_fast_decode_pointer@P6GHPA_WKJ@Z@@YAP6GHPA_WKJ@ZQ6GH0KJ@Z@Z 10083160 f i libucrtd:winapi_thunks.obj
 0001:00082190       ??$__crt_fast_decode_pointer@PAX@@YAPAXQAX@Z 10083190 f i libucrtd:winapi_thunks.obj
 0001:000821c0       ??$__crt_fast_encode_pointer@P6GHPA_WKJ@Z@@YAP6GHPA_WKJ@ZQ6GH0KJ@Z@Z 100831c0 f i libucrtd:winapi_thunks.obj
 0001:00082b20       _GetCurrentThreadEffectiveToken 10083b20 f i libucrtd:winapi_thunks.obj
 0001:00082b30       ___acrt_AppPolicyGetProcessTerminationMethodInternal@4 10083b30 f   libucrtd:winapi_thunks.obj
 0001:00082b70       ___acrt_AppPolicyGetShowDeveloperDiagnosticInternal@4 10083b70 f   libucrtd:winapi_thunks.obj
 0001:00082bb0       ___acrt_AppPolicyGetThreadInitializationTypeInternal@4 10083bb0 f   libucrtd:winapi_thunks.obj
 0001:00082bf0       ___acrt_AppPolicyGetWindowingModelInternal@4 10083bf0 f   libucrtd:winapi_thunks.obj
 0001:00082c30       ___acrt_AreFileApisANSI@0  10083c30 f   libucrtd:winapi_thunks.obj
 0001:00082c70       ___acrt_CompareStringEx@36 10083c70 f   libucrtd:winapi_thunks.obj
 0001:00082cf0       ___acrt_EnumSystemLocalesEx@16 10083cf0 f   libucrtd:winapi_thunks.obj
 0001:00082d50       ___acrt_FlsAlloc@4         10083d50 f   libucrtd:winapi_thunks.obj
 0001:00082d90       ___acrt_FlsFree@4          10083d90 f   libucrtd:winapi_thunks.obj
 0001:00082dd0       ___acrt_FlsGetValue@4      10083dd0 f   libucrtd:winapi_thunks.obj
 0001:00082e10       ___acrt_FlsSetValue@8      10083e10 f   libucrtd:winapi_thunks.obj
 0001:00082e60       ___acrt_GetDateFormatEx@28 10083e60 f   libucrtd:winapi_thunks.obj
 0001:00082ee0       ___acrt_GetEnabledXStateFeatures@0 10083ee0 f   libucrtd:winapi_thunks.obj
 0001:00082f20       ___acrt_GetLocaleInfoEx@16 10083f20 f   libucrtd:winapi_thunks.obj
 0001:00082f80       ___acrt_GetSystemTimePreciseAsFileTime@4 10083f80 f   libucrtd:winapi_thunks.obj
 0001:00082fc0       ___acrt_GetTimeFormatEx@24 10083fc0 f   libucrtd:winapi_thunks.obj
 0001:00083030       ___acrt_GetUserDefaultLocaleName@8 10084030 f   libucrtd:winapi_thunks.obj
 0001:00083080       ___acrt_GetXStateFeaturesMask@8 10084080 f   libucrtd:winapi_thunks.obj
 0001:000830c0       ___acrt_InitializeCriticalSectionEx@12 100840c0 f   libucrtd:winapi_thunks.obj
 0001:00083110       ___acrt_IsValidLocaleName@4 10084110 f   libucrtd:winapi_thunks.obj
 0001:00083160       ___acrt_LCIDToLocaleName@16 10084160 f   libucrtd:winapi_thunks.obj
 0001:000831c0       ___acrt_LCMapStringEx@36   100841c0 f   libucrtd:winapi_thunks.obj
 0001:00083240       ___acrt_LocaleNameToLCID@8 10084240 f   libucrtd:winapi_thunks.obj
 0001:00083290       ___acrt_LocateXStateFeature@12 10084290 f   libucrtd:winapi_thunks.obj
 0001:000832e0       ___acrt_MessageBoxA@16     100842e0 f   libucrtd:winapi_thunks.obj
 0001:00083330       ___acrt_MessageBoxW@16     10084330 f   libucrtd:winapi_thunks.obj
 0001:00083380       ___acrt_RoInitialize@4     10084380 f   libucrtd:winapi_thunks.obj
 0001:000833c0       ___acrt_RoUninitialize@0   100843c0 f   libucrtd:winapi_thunks.obj
 0001:000833f0       ___acrt_RtlGenRandom@8     100843f0 f   libucrtd:winapi_thunks.obj
 0001:00083430       ___acrt_SetThreadStackGuarantee@4 10084430 f   libucrtd:winapi_thunks.obj
 0001:00083470       ___acrt_can_show_message_box 10084470 f   libucrtd:winapi_thunks.obj
 0001:000834b0       ___acrt_can_use_vista_locale_apis 100844b0 f   libucrtd:winapi_thunks.obj
 0001:000834e0       ___acrt_can_use_xstate_apis 100844e0 f   libucrtd:winapi_thunks.obj
 0001:00083510       ___acrt_eagerly_load_locale_apis 10084510 f   libucrtd:winapi_thunks.obj
 0001:00083550       ___acrt_get_parent_window  10084550 f   libucrtd:winapi_thunks.obj
 0001:000835c0       ___acrt_initialize_winapi_thunks 100845c0 f   libucrtd:winapi_thunks.obj
 0001:00083630       ___acrt_is_interactive     10084630 f   libucrtd:winapi_thunks.obj
 0001:000836e0       ___acrt_uninitialize_winapi_thunks 100846e0 f   libucrtd:winapi_thunks.obj
 0001:00083750       __chvalidator              10084750 f   libucrtd:isctype.obj
 0001:000837a0       __chvalidator_l            100847a0 f   libucrtd:isctype.obj
 0001:00083820       __isctype                  10084820 f   libucrtd:isctype.obj
 0001:00083860       __isctype_l                10084860 f   libucrtd:isctype.obj
 0001:000839e0       __isleadbyte_fast_internal 100849e0 f i libucrtd:isctype.obj
 0001:00083a00       ??$?RU__crt_stdio_stream_data@@@__crt_internal_free_policy@@QBEXQBU__crt_stdio_stream_data@@@Z 10084a00 f i libucrtd:stream.obj
 0001:00083a20       ??0?$__crt_unique_heap_ptr@U__crt_stdio_stream_data@@U__crt_internal_free_policy@@@@QAE@QAU__crt_stdio_stream_data@@@Z 10084a20 f i libucrtd:stream.obj
 0001:00083a40       ??0__crt_stdio_stream@@QAE@QAU__crt_stdio_stream_data@@@Z 10084a40 f i libucrtd:stream.obj
 0001:00083a60       ??0__crt_stdio_stream@@QAE@XZ 10084a60 f i libucrtd:stream.obj
 0001:00083a80       ??1?$__crt_unique_heap_ptr@U__crt_stdio_stream_data@@U__crt_internal_free_policy@@@@QAE@XZ 10084a80 f i libucrtd:stream.obj
 0001:00083aa0       ?__acrt_stdio_allocate_stream@@YA?AV__crt_stdio_stream@@XZ 10084aa0 f   libucrtd:stream.obj
 0001:00083b90       ?__acrt_stdio_free_stream@@YAXV__crt_stdio_stream@@@Z 10084b90 f   libucrtd:stream.obj
 0001:00083c10       ?deallocate@__crt_stdio_stream@@QAEXXZ 10084c10 f i libucrtd:stream.obj
 0001:00083c30       ?detach@?$__crt_unique_heap_ptr@U__crt_stdio_stream_data@@U__crt_internal_free_policy@@@@QAEPAU__crt_stdio_stream_data@@XZ 10084c30 f i libucrtd:stream.obj
 0001:00083da0       ?lock@__crt_stdio_stream@@QBEXXZ 10084da0 f i libucrtd:stream.obj
 0001:00083dc0       ?release@?$__crt_unique_heap_ptr@U__crt_stdio_stream_data@@U__crt_internal_free_policy@@@@QAEXXZ 10084dc0 f i libucrtd:stream.obj
 0001:00083df0       ?try_allocate@__crt_stdio_stream@@QAE_NXZ 10084df0 f i libucrtd:stream.obj
 0001:00083e40       ??$__acrt_stdio_parse_mode@D@@YA?AU__acrt_stdio_stream_mode@@QBD@Z 10084e40 f i libucrtd:openfile.obj
 0001:000846b0       ??$__acrt_stdio_parse_mode@_W@@YA?AU__acrt_stdio_stream_mode@@QB_W@Z 100856b0 f i libucrtd:openfile.obj
 0001:00085240       ??$tcsncmp@AAPBDAAY02$$CBDI@?$__crt_char_traits@D@@SAHAAPBDAAY02$$CBD$$QAI@Z 10086240 f i libucrtd:openfile.obj
 0001:00085260       ??$tcsncmp@AAPB_WAAY02$$CB_WI@?$__crt_char_traits@_W@@SAHAAPB_WAAY02$$CB_W$$QAI@Z 10086260 f i libucrtd:openfile.obj
 0001:00085280       ??$tcsnicmp@AAPBDAAY04$$CBDI@?$__crt_char_traits@D@@SAHAAPBDAAY04$$CBD$$QAI@Z 10086280 f i libucrtd:openfile.obj
 0001:000852a0       ??$tcsnicmp@AAPBDAAY06$$CBDI@?$__crt_char_traits@D@@SAHAAPBDAAY06$$CBD$$QAI@Z 100862a0 f i libucrtd:openfile.obj
 0001:000852c0       ??$tcsnicmp@AAPBDAAY07$$CBDI@?$__crt_char_traits@D@@SAHAAPBDAAY07$$CBD$$QAI@Z 100862c0 f i libucrtd:openfile.obj
 0001:000852e0       ??$tcsnicmp@AAPB_WAAY04$$CB_WI@?$__crt_char_traits@_W@@SAHAAPB_WAAY04$$CB_W$$QAI@Z 100862e0 f i libucrtd:openfile.obj
 0001:00085300       ??$tcsnicmp@AAPB_WAAY06$$CB_WI@?$__crt_char_traits@_W@@SAHAAPB_WAAY06$$CB_W$$QAI@Z 10086300 f i libucrtd:openfile.obj
 0001:00085320       ??$tcsnicmp@AAPB_WAAY07$$CB_WI@?$__crt_char_traits@_W@@SAHAAPB_WAAY07$$CB_W$$QAI@Z 10086320 f i libucrtd:openfile.obj
 0001:00085340       ??$tsopen_s@PAHABQBDABHABHH@?$__crt_char_traits@D@@SAH$$QAPAHABQBDABH2$$QAH@Z 10086340 f i libucrtd:openfile.obj
 0001:00085370       ??$tsopen_s@PAHABQB_WABHABHH@?$__crt_char_traits@_W@@SAH$$QAPAHABQB_WABH2$$QAH@Z 10086370 f i libucrtd:openfile.obj
 0001:000853a0       ?__acrt_stdio_parse_mode_D@@YA_NAAU__acrt_stdio_stream_mode@@@Z 100863a0 f i libucrtd:openfile.obj
 0001:000853d0       ?__acrt_stdio_parse_mode_N@@YA_NAAU__acrt_stdio_stream_mode@@@Z 100863d0 f i libucrtd:openfile.obj
 0001:000853f0       ?__acrt_stdio_parse_mode_R@@YA_NAAU__acrt_stdio_stream_mode@@AA_N@Z 100863f0 f i libucrtd:openfile.obj
 0001:00085420       ?__acrt_stdio_parse_mode_S@@YA_NAAU__acrt_stdio_stream_mode@@AA_N@Z 10086420 f i libucrtd:openfile.obj
 0001:00085450       ?__acrt_stdio_parse_mode_T@@YA_NAAU__acrt_stdio_stream_mode@@@Z 10086450 f i libucrtd:openfile.obj
 0001:00085480       ?__acrt_stdio_parse_mode_b@@YA_NAAU__acrt_stdio_stream_mode@@@Z 10086480 f i libucrtd:openfile.obj
 0001:000854b0       ?__acrt_stdio_parse_mode_c@@YA_NAAU__acrt_stdio_stream_mode@@AA_N@Z 100864b0 f i libucrtd:openfile.obj
 0001:000854e0       ?__acrt_stdio_parse_mode_n@@YA_NAAU__acrt_stdio_stream_mode@@AA_N@Z 100864e0 f i libucrtd:openfile.obj
 0001:00085510       ?__acrt_stdio_parse_mode_plus@@YA_NAAU__acrt_stdio_stream_mode@@AA_N@Z 10086510 f i libucrtd:openfile.obj
 0001:00085580       ?__acrt_stdio_parse_mode_t@@YA_NAAU__acrt_stdio_stream_mode@@@Z 10086580 f i libucrtd:openfile.obj
 0001:000855b0       ?__acrt_stdio_parse_mode_x@@YA_NAAU__acrt_stdio_stream_mode@@@Z 100865b0 f i libucrtd:openfile.obj
 0001:000855e0       __openfile                 100865e0 f   libucrtd:openfile.obj
 0001:00085610       __wopenfile                10086610 f   libucrtd:openfile.obj
 0001:000858f0       __close                    100868f0 f   libucrtd:close.obj
 0001:00085a70       __close_nolock             10086a70 f   libucrtd:close.obj
 0001:00085ad0       ?has_crt_buffer@__crt_stdio_stream@@QBE_NXZ 10086ad0 f i libucrtd:_freebuf.obj
 0001:00085af0       ___acrt_stdio_free_buffer_nolock 10086af0 f   libucrtd:_freebuf.obj
 0001:00086150       ?__acrt_stdio_reset_buffer@@YAXV__crt_stdio_stream@@@Z 10087150 f i libucrtd:fflush.obj
 0001:00086250       ?has_all_of@__crt_stdio_stream@@QBE_NJ@Z 10087250 f i libucrtd:fflush.obj
 0001:00086320       ___acrt_stdio_flush_nolock 10087320 f   libucrtd:fflush.obj
 0001:000863f0       __fflush_nolock            100873f0 f   libucrtd:fflush.obj
 0001:00086470       __flushall                 10087470 f   libucrtd:fflush.obj
 0001:00086490       _fflush                    10087490 f   libucrtd:fflush.obj
 0001:00086be0       ?has_big_buffer@__crt_stdio_stream@@QBE_NXZ 10087be0 f i libucrtd:_flsbuf.obj
 0001:00086ce0       ___acrt_stdio_flush_and_write_narrow_nolock 10087ce0 f   libucrtd:_flsbuf.obj
 0001:00086d10       ___acrt_stdio_flush_and_write_wide_nolock 10087d10 f   libucrtd:_flsbuf.obj
 0001:00087040       ___acrt_get_begin_thread_init_policy 10088040 f   libucrtd:win_policies.obj
 0001:00087060       ___acrt_get_developer_information_policy 10088060 f   libucrtd:win_policies.obj
 0001:00087080       ___acrt_get_process_end_policy 10088080 f   libucrtd:win_policies.obj
 0001:000870a0       ___acrt_get_windowing_model_policy 100880a0 f   libucrtd:win_policies.obj
 0001:00087370       ??$__acrt_mbs_to_wcs_cp@U__crt_win32_buffer_internal_dynamic_resizing@@@@YAHQBDAAV?$__crt_win32_buffer@_WU__crt_win32_buffer_internal_dynamic_resizing@@@@I@Z 10088370 f i libucrtd:argv_wildcards.obj
 0001:000873a0       ??$__acrt_wcs_to_mbs_cp@U__crt_win32_buffer_internal_dynamic_resizing@@@@YAHQB_WAAV?$__crt_win32_buffer@DU__crt_win32_buffer_internal_dynamic_resizing@@@@I@Z 100883a0 f i libucrtd:argv_wildcards.obj
 0001:000882f0       ??$tcsncpy_s@AAPADIAAPADABI@?$__crt_char_traits@D@@SAHAAPAD$$QAI0ABI@Z 100892f0 f i libucrtd:argv_wildcards.obj
 0001:00088320       ??$tcsncpy_s@AAPA_WIAAPA_WABI@?$__crt_char_traits@_W@@SAHAAPA_W$$QAI0ABI@Z 10089320 f i libucrtd:argv_wildcards.obj
 0001:00088350       ??$tcsncpy_s@PADABIABQBDABI@?$__crt_char_traits@D@@SAH$$QAPADABIABQBD1@Z 10089350 f i libucrtd:argv_wildcards.obj
 0001:00088380       ??$tcsncpy_s@PADIABQBDABI@?$__crt_char_traits@D@@SAH$$QAPAD$$QAIABQBDABI@Z 10089380 f i libucrtd:argv_wildcards.obj
 0001:000883b0       ??$tcsncpy_s@PA_WABIABQB_WABI@?$__crt_char_traits@_W@@SAH$$QAPA_WABIABQB_W1@Z 100893b0 f i libucrtd:argv_wildcards.obj
 0001:000883e0       ??$tcsncpy_s@PA_WIABQB_WABI@?$__crt_char_traits@_W@@SAH$$QAPA_W$$QAIABQB_WABI@Z 100893e0 f i libucrtd:argv_wildcards.obj
 0001:00088410       ??$tcspbrk@AAPADAAY02$$CBD@?$__crt_char_traits@D@@SAPADAAPADAAY02$$CBD@Z 10089410 f i libucrtd:argv_wildcards.obj
 0001:00088430       ??$tcspbrk@AAPA_WAAY02$$CB_W@?$__crt_char_traits@_W@@SAPA_WAAPA_WAAY02$$CB_W@Z 10089430 f i libucrtd:argv_wildcards.obj
 0001:00088450       ??0?$__crt_unique_handle_t@U__crt_findfile_traits@@@@QAE@QAX@Z 10089450 f i libucrtd:argv_wildcards.obj
 0001:00088470       ??0?$__crt_win32_buffer@DU__crt_win32_buffer_internal_dynamic_resizing@@@@QAE@XZ 10089470 f i libucrtd:argv_wildcards.obj
 0001:000884c0       ??0?$__crt_win32_buffer@_WU__crt_win32_buffer_internal_dynamic_resizing@@@@QAE@XZ 100894c0 f i libucrtd:argv_wildcards.obj
 0001:00088570       ??1?$__crt_unique_handle_t@U__crt_findfile_traits@@@@QAE@XZ 10089570 f i libucrtd:argv_wildcards.obj
 0001:00088590       ??1?$__crt_win32_buffer@DU__crt_win32_buffer_internal_dynamic_resizing@@@@QAE@XZ 10089590 f i libucrtd:argv_wildcards.obj
 0001:000885d0       ??1?$__crt_win32_buffer@_WU__crt_win32_buffer_internal_dynamic_resizing@@@@QAE@XZ 100895d0 f i libucrtd:argv_wildcards.obj
 0001:00088830       ?_deallocate@?$__crt_win32_buffer@DU__crt_win32_buffer_internal_dynamic_resizing@@@@AAEXXZ 10089830 f i libucrtd:argv_wildcards.obj
 0001:00088870       ?_deallocate@?$__crt_win32_buffer@_WU__crt_win32_buffer_internal_dynamic_resizing@@@@AAEXXZ 10089870 f i libucrtd:argv_wildcards.obj
 0001:000888b0       ?allocate@?$__crt_win32_buffer@DU__crt_win32_buffer_internal_dynamic_resizing@@@@QAEHI@Z 100898b0 f i libucrtd:argv_wildcards.obj
 0001:00088920       ?allocate@?$__crt_win32_buffer@_WU__crt_win32_buffer_internal_dynamic_resizing@@@@QAEHI@Z 10089920 f i libucrtd:argv_wildcards.obj
 0001:00088990       ?allocate@__crt_win32_buffer_internal_dynamic_resizing@@SAHQAPAXIABV__crt_win32_buffer_empty_debug_info@@@Z 10089990 f i libucrtd:argv_wildcards.obj
 0001:00088ad0       ?capacity@?$__crt_win32_buffer@DU__crt_win32_buffer_internal_dynamic_resizing@@@@QBEIXZ 10089ad0 f i libucrtd:argv_wildcards.obj
 0001:00088af0       ?capacity@?$__crt_win32_buffer@_WU__crt_win32_buffer_internal_dynamic_resizing@@@@QBEIXZ 10089af0 f i libucrtd:argv_wildcards.obj
 0001:00088b10       ?close@?$__crt_unique_handle_t@U__crt_findfile_traits@@@@QAEXXZ 10089b10 f i libucrtd:argv_wildcards.obj
 0001:00088b50       ?close@__crt_findfile_traits@@SA_NPAX@Z 10089b50 f i libucrtd:argv_wildcards.obj
 0001:00088b80       ?data@?$__crt_win32_buffer@DU__crt_win32_buffer_internal_dynamic_resizing@@@@QAEPADXZ 10089b80 f i libucrtd:argv_wildcards.obj
 0001:00088ba0       ?data@?$__crt_win32_buffer@_WU__crt_win32_buffer_internal_dynamic_resizing@@@@QAEPA_WXZ 10089ba0 f i libucrtd:argv_wildcards.obj
 0001:00088bc0       ?deallocate@__crt_win32_buffer_internal_dynamic_resizing@@SAXQAXABV__crt_win32_buffer_empty_debug_info@@@Z 10089bc0 f i libucrtd:argv_wildcards.obj
 0001:00088be0       ?debug_info@?$__crt_win32_buffer@DU__crt_win32_buffer_internal_dynamic_resizing@@@@QBEABV__crt_win32_buffer_empty_debug_info@@XZ 10089be0 f i libucrtd:argv_wildcards.obj
 0001:00088bf0       ?debug_info@?$__crt_win32_buffer@_WU__crt_win32_buffer_internal_dynamic_resizing@@@@QBEABV__crt_win32_buffer_empty_debug_info@@XZ 10089bf0 f i libucrtd:argv_wildcards.obj
 0001:00088f00       ?get@?$__crt_unique_handle_t@U__crt_findfile_traits@@@@QBEPAXXZ 10089f00 f i libucrtd:argv_wildcards.obj
 0001:00088f70       ?get_invalid_value@__crt_findfile_traits@@SAPAXXZ 10089f70 f i libucrtd:argv_wildcards.obj
 0001:00089000       ?set_to_nullptr@?$__crt_win32_buffer@DU__crt_win32_buffer_internal_dynamic_resizing@@@@QAEXXZ 1008a000 f i libucrtd:argv_wildcards.obj
 0001:00089040       ?set_to_nullptr@?$__crt_win32_buffer@_WU__crt_win32_buffer_internal_dynamic_resizing@@@@QAEXXZ 1008a040 f i libucrtd:argv_wildcards.obj
 0001:00089080       ?size@?$__crt_win32_buffer@DU__crt_win32_buffer_internal_dynamic_resizing@@@@QAEXI@Z 1008a080 f i libucrtd:argv_wildcards.obj
 0001:000890a0       ?size@?$__crt_win32_buffer@_WU__crt_win32_buffer_internal_dynamic_resizing@@@@QAEXI@Z 1008a0a0 f i libucrtd:argv_wildcards.obj
 0001:00089100       ?strpbrk@@YAPADQADQBD@Z    1008a100 f i libucrtd:argv_wildcards.obj
 0001:00089120       ?wcspbrk@@YAPA_WPA_WPB_W@Z 1008a120 f i libucrtd:argv_wildcards.obj
 0001:00089140       ___acrt_expand_narrow_argv_wildcards 1008a140 f   libucrtd:argv_wildcards.obj
 0001:00089160       ___acrt_expand_wide_argv_wildcards 1008a160 f   libucrtd:argv_wildcards.obj
 0001:00089240       ??$initialize_from_array@$$BY10BAA@E@?$dual_state_global@PAE@__crt_state_management@@QAAXAAY10BAA@E@Z 1008a240 f i libucrtd:mbctype.obj
 0001:00089290       ??$initialize_from_array@$$BY10BAB@E@?$dual_state_global@PAE@__crt_state_management@@QAAXAAY10BAB@E@Z 1008a290 f i libucrtd:mbctype.obj
 0001:00089500       ?dangerous_get_state_array@?$dual_state_global@PAE@__crt_state_management@@QAEPAPAEXZ 1008a500 f i libucrtd:mbctype.obj
 0001:00089510       ?dangerous_get_state_array@?$dual_state_global@PAU__crt_multibyte_data@@@__crt_state_management@@QAEPAPAU__crt_multibyte_data@@XZ 1008a510 f i libucrtd:mbctype.obj
 0001:000895e0       ?initialize@?$dual_state_global@PAU__crt_multibyte_data@@@__crt_state_management@@QAEXQAU__crt_multibyte_data@@@Z 1008a5e0 f i libucrtd:mbctype.obj
 0001:00089d30       ?value@?$dual_state_global@PAE@__crt_state_management@@QAEAAPAEXZ 1008ad30 f i libucrtd:mbctype.obj
 0001:00089d50       ___acrt_initialize_multibyte 1008ad50 f   libucrtd:mbctype.obj
 0001:00089e00       ___acrt_update_thread_multibyte_data 1008ae00 f   libucrtd:mbctype.obj
 0001:00089e20       ___p__mbcasemap            1008ae20 f   libucrtd:mbctype.obj
 0001:00089e40       ___p__mbctype              1008ae40 f   libucrtd:mbctype.obj
 0001:00089e60       __getmbcp                  1008ae60 f   libucrtd:mbctype.obj
 0001:00089ed0       __setmbcp                  1008aed0 f   libucrtd:mbctype.obj
 0001:00089f00       __setmbcp_nolock           1008af00 f   libucrtd:mbctype.obj
 0001:0008a471       __ismbbalnum               1008b471 f   libucrtd:ismbbyte.obj
 0001:0008a48c       __ismbbalnum_l             1008b48c f   libucrtd:ismbbyte.obj
 0001:0008a4a8       __ismbbalpha               1008b4a8 f   libucrtd:ismbbyte.obj
 0001:0008a4c3       __ismbbalpha_l             1008b4c3 f   libucrtd:ismbbyte.obj
 0001:0008a4df       __ismbbblank               1008b4df f   libucrtd:ismbbyte.obj
 0001:0008a502       __ismbbblank_l             1008b502 f   libucrtd:ismbbyte.obj
 0001:0008a526       __ismbbgraph               1008b526 f   libucrtd:ismbbyte.obj
 0001:0008a541       __ismbbgraph_l             1008b541 f   libucrtd:ismbbyte.obj
 0001:0008a55d       __ismbbkalnum              1008b55d f   libucrtd:ismbbyte.obj
 0001:0008a575       __ismbbkalnum_l            1008b575 f   libucrtd:ismbbyte.obj
 0001:0008a58e       __ismbbkana                1008b58e f   libucrtd:ismbbyte.obj
 0001:0008a5a1       __ismbbkana_l              1008b5a1 f   libucrtd:ismbbyte.obj
 0001:0008a5f0       __ismbbkprint              1008b5f0 f   libucrtd:ismbbyte.obj
 0001:0008a608       __ismbbkprint_l            1008b608 f   libucrtd:ismbbyte.obj
 0001:0008a621       __ismbbkpunct              1008b621 f   libucrtd:ismbbyte.obj
 0001:0008a639       __ismbbkpunct_l            1008b639 f   libucrtd:ismbbyte.obj
 0001:0008a652       __ismbblead                1008b652 f   libucrtd:ismbbyte.obj
 0001:0008a66a       __ismbblead_l              1008b66a f   libucrtd:ismbbyte.obj
 0001:0008a683       __ismbbprint               1008b683 f   libucrtd:ismbbyte.obj
 0001:0008a69e       __ismbbprint_l             1008b69e f   libucrtd:ismbbyte.obj
 0001:0008a6ba       __ismbbpunct               1008b6ba f   libucrtd:ismbbyte.obj
 0001:0008a6d2       __ismbbpunct_l             1008b6d2 f   libucrtd:ismbbyte.obj
 0001:0008a6eb       __ismbbtrail               1008b6eb f   libucrtd:ismbbyte.obj
 0001:0008a703       __ismbbtrail_l             1008b703 f   libucrtd:ismbbyte.obj
 0001:0008a720       ___acrt_initialize_command_line 1008b720 f   libucrtd:argv_data.obj
 0001:0008a740       ___acrt_uninitialize_command_line 1008b740 f   libucrtd:argv_data.obj
 0001:0008a750       ___p___argc                1008b750 f   libucrtd:argv_data.obj
 0001:0008a760       ___p___argv                1008b760 f   libucrtd:argv_data.obj
 0001:0008a770       ___p___wargv               1008b770 f   libucrtd:argv_data.obj
 0001:0008a780       ___p__acmdln               1008b780 f   libucrtd:argv_data.obj
 0001:0008a790       ___p__pgmptr               1008b790 f   libucrtd:argv_data.obj
 0001:0008a7a0       ___p__wcmdln               1008b7a0 f   libucrtd:argv_data.obj
 0001:0008a7b0       ___p__wpgmptr              1008b7b0 f   libucrtd:argv_data.obj
 0001:0008a7c0       __get_pgmptr               1008b7c0 f   libucrtd:argv_data.obj
 0001:0008a8d0       __get_wpgmptr              1008b8d0 f   libucrtd:argv_data.obj
 0001:0008aa90       ___acrt_MultiByteToWideChar 1008ba90 f   libucrtd:multibytetowidechar.obj
 0001:0008ab90       ___acrt_WideCharToMultiByte 1008bb90 f   libucrtd:widechartomultibyte.obj
 0001:0008ace9       ___dcrt_get_narrow_environment_from_os 1008bce9 f   libucrtd:get_environment_from_os.obj
 0001:0008ad7b       ___dcrt_get_wide_environment_from_os 1008bd7b f   libucrtd:get_environment_from_os.obj
 0001:0008b710       ??$get_or_create_environment_nolock@$$V@?$__crt_char_traits@D@@SAPAPADXZ 1008c710 f i libucrtd:setenv.obj
 0001:0008b715       ??$get_or_create_environment_nolock@$$V@?$__crt_char_traits@_W@@SAPAPA_WXZ 1008c715 f i libucrtd:setenv.obj
 0001:0008b71a       ??$set_environment_variable@ABQADQAD@?$__crt_char_traits@D@@SAHABQAD$$QBQAD@Z 1008c71a f i libucrtd:setenv.obj
 0001:0008b732       ??$set_environment_variable@ABQA_WQA_W@?$__crt_char_traits@_W@@SAHABQA_W$$QBQA_W@Z 1008c732 f i libucrtd:setenv.obj
 0001:0008b749       ??$tcschr@ABQADD@?$__crt_char_traits@D@@SAPADABQAD$$QAD@Z 1008c749 f i libucrtd:setenv.obj
 0001:0008b763       ??$tcschr@ABQA_WD@?$__crt_char_traits@_W@@SAPA_WABQA_W$$QAD@Z 1008c763 f i libucrtd:setenv.obj
 0001:0008b781       ??$tcscpy_s@AAPADABIAAPAD@?$__crt_char_traits@D@@SAHAAPADABI0@Z 1008c781 f i libucrtd:setenv.obj
 0001:0008b79f       ??$tcscpy_s@AAPA_WABIAAPA_W@?$__crt_char_traits@_W@@SAHAAPA_WABI0@Z 1008c79f f i libucrtd:setenv.obj
 0001:0008b7bd       ??$tcscpy_s@ABQADABIABQAD@?$__crt_char_traits@D@@SAHABQADABI0@Z 1008c7bd f i libucrtd:setenv.obj
 0001:0008b7db       ??$tcscpy_s@ABQA_WABIABQA_W@?$__crt_char_traits@_W@@SAHABQA_WABI0@Z 1008c7db f i libucrtd:setenv.obj
 0001:0008b7f9       ??$tcslen@ABQAD@?$__crt_char_traits@D@@SAIABQAD@Z 1008c7f9 f i libucrtd:setenv.obj
 0001:0008b811       ??$tcslen@ABQA_W@?$__crt_char_traits@_W@@SAIABQA_W@Z 1008c811 f i libucrtd:setenv.obj
 0001:0008b82f       ??$tcsnicoll@ABQBDAAPADABI@?$__crt_char_traits@D@@SAHABQBDAAPADABI@Z 1008c82f f i libucrtd:setenv.obj
 0001:0008b84d       ??$tcsnicoll@ABQB_WAAPA_WABI@?$__crt_char_traits@_W@@SAHABQB_WAAPA_WABI@Z 1008c84d f i libucrtd:setenv.obj
 0001:0008b86b       ??$tcsnlen@PADH@?$__crt_char_traits@D@@SAI$$QAPAD$$QAH@Z 1008c86b f i libucrtd:setenv.obj
 0001:0008b883       ??$tcsnlen@PA_WH@?$__crt_char_traits@_W@@SAI$$QAPA_W$$QAH@Z 1008c883 f i libucrtd:setenv.obj
 0001:0008b8bf       ?strchr@@YAPADQADH@Z       1008c8bf f i libucrtd:setenv.obj
