 OPOSRemoteOrderDisplay

 Timestamp is 600f7a40 (Tue Jan 26 11:11:12 2021)

 Preferred load address is 10000000

 Start         Length     Name                   Class
 0001:00000000 00000d90H .text$di                CODE
 0001:00000d90 000aae80H .text$mn                CODE
 0001:000abc10 000001c0H .text$x                 CODE
 0001:000abdd0 00000120H .text$yd                CODE
 0002:00000000 00000358H .idata$5                DATA
 0002:00000358 00000008H .00cfg                  DATA
 0002:00000360 00000004H .CRT$XCA                DATA
 0002:00000364 00000004H .CRT$XCL                DATA
 0002:00000368 0000006cH .CRT$XCU                DATA
 0002:000003d4 00000004H .CRT$XCZ                DATA
 0002:000003d8 00000004H .CRT$XIA                DATA
 0002:000003dc 00000014H .CRT$XIC                DATA
 0002:000003f0 00000004H .CRT$XIZ                DATA
 0002:000003f4 00000004H .CRT$XLA                DATA
 0002:000003f8 00000004H .CRT$XLZ                DATA
 0002:000003fc 00000004H .CRT$XPA                DATA
 0002:00000400 00000008H .CRT$XPX                DATA
 0002:00000408 00000004H .CRT$XPXA               DATA
 0002:0000040c 00000004H .CRT$XPZ                DATA
 0002:00000410 00000004H .CRT$XTA                DATA
 0002:00000414 0000000cH .CRT$XTZ                DATA
 0002:00000418 00000000H .gfids$y                DATA
 0002:00000420 00030420H .rdata                  DATA
 0002:00030840 00000004H .rdata$CastGuardVftablesA DATA
 0002:00030844 00000004H .rdata$CastGuardVftablesC DATA
 0002:00030848 00000018H .rdata$T                DATA
 0002:00030860 0000033cH .rdata$r                DATA
 0002:00030b9c 00000044H .rdata$sxdata           DATA
 0002:00030be0 00000454H .rdata$zzzdbg           DATA
 0002:00031034 00000004H .rtc$IAA                DATA
 0002:00031038 00000018H .rtc$IMZ                DATA
 0002:00031050 00000004H .rtc$IZZ                DATA
 0002:00031054 00000004H .rtc$TAA                DATA
 0002:00031058 00000018H .rtc$TMZ                DATA
 0002:00031070 00000004H .rtc$TZZ                DATA
 0002:00031074 00000004H .tls                    DATA
 0002:00031078 00000004H .tls$                   DATA
 0002:0003107c 00000004H .tls$ZZZ                DATA
 0002:00031080 00000e4cH .xdata$x                DATA
 0002:00031ecc 00000004H ATL$__a                 DATA
 0002:00031ed0 00000010H ATL$__z                 DATA
 0002:00031ee0 000000b4H .edata                  DATA
 0002:00031f94 00000078H .idata$2                DATA
 0002:0003200c 00000014H .idata$3                DATA
 0002:00032020 00000358H .idata$4                DATA
 0002:00032378 00000d56H .idata$6                DATA
 0003:00000000 00000c10H .data                   DATA
 0003:00000c10 00000138H .data$r                 DATA
 0003:00000d48 00003588H .bss                    DATA
 0004:00000000 00000220H .rsrc$01                DATA
 0004:00000220 000056c0H .rsrc$02                DATA

  Address         Publics by Value              Rva+Base       Lib:Object

 0000:00000000       ___AbsoluteZero            00000000     <absolute>
 0000:00000000       ___enclave_config          00000000     <absolute>
 0000:00000000       ___arm64x_redirection_metadata 00000000     <absolute>
 0000:00000000       ___hybrid_auxiliary_iat    00000000     <absolute>
 0000:00000000       ___dynamic_value_reloc_table 00000000     <absolute>
 0000:00000000       ___arm64x_extra_rfe_table  00000000     <absolute>
 0000:00000000       ___guard_iat_table         00000000     <absolute>
 0000:00000000       ___volatile_metadata       00000000     <absolute>
 0000:00000000       ___guard_eh_cont_count     00000000     <absolute>
 0000:00000000       ___x64_code_ranges_to_entry_points_count 00000000     <absolute>
 0000:00000000       ___guard_longjmp_count     00000000     <absolute>
 0000:00000000       ___guard_fids_table        00000000     <absolute>
 0000:00000000       ___guard_eh_cont_table     00000000     <absolute>
 0000:00000000       ___arm64x_native_entrypoint 00000000     <absolute>
 0000:00000000       ___hybrid_code_map_count   00000000     <absolute>
 0000:00000000       __except_list              00000000     <absolute>
 0000:00000000       ___guard_fids_count        00000000     <absolute>
 0000:00000000       ___guard_longjmp_table     00000000     <absolute>
 0000:00000000       ___arm64x_redirection_metadata_count 00000000     <absolute>
 0000:00000000       ___hybrid_code_map         00000000     <absolute>
 0000:00000000       ___arm64x_extra_rfe_table_size 00000000     <absolute>
 0000:00000000       ___x64_code_ranges_to_entry_points 00000000     <absolute>
 0000:00000000       ___guard_iat_count         00000000     <absolute>
 0000:00000011       ___safe_se_handler_count   00000011     <absolute>
 0000:0000002c       __tls_array                0000002c     <absolute>
 0000:00000100       ___guard_flags             00000100     <absolute>
 0000:00000000       ___ImageBase               10000000     <linker-defined>
 0001:00000d90       ?_assert@@YAXPB_W0I@Z      10001d90 f   Assert.obj
 0001:00000ec0       ___local_stdio_printf_options 10001ec0 f i Assert.obj
 0001:00000ed0       ___vswprintf_l             10001ed0 f i Assert.obj
 0001:00000f00       __swprintf                 10001f00 f i Assert.obj
 0001:00000f60       __vswprintf_c_l            10001f60 f i Assert.obj
 0001:00000fd0       __vswprintf_l              10001fd0 f i Assert.obj
 0001:00001000       ?cw_memcpy@@YGHPADPB_WH@Z  10002000 f   CWString.obj
 0001:00001060       ?cw_memcpy@@YGHPA_WPBDH@Z  10002060 f   CWString.obj
 0001:000010c0       ?cw_memcpy@@YGHPADPBDH@Z   100020c0 f   CWString.obj
 0001:00001110       ?cw_memcpy@@YGHPA_WPB_WH@Z 10002110 f   CWString.obj
 0001:00001150       ?cw_memset@@YAXPADDH@Z     10002150 f   CWString.obj
 0001:00001170       ?cw_memset@@YAXPA_W_WH@Z   10002170 f   CWString.obj
 0001:00001190       ?cw_strlen@@YAHPBD@Z       10002190 f   CWString.obj
 0001:000011e0       ?cw_strlen@@YAHPB_W@Z      100021e0 f   CWString.obj
 0001:00001230       ?cw_strcpy@@YAHPADPB_W@Z   10002230 f   CWString.obj
 0001:00001250       ?cw_strcpy@@YAHPA_WPBD@Z   10002250 f   CWString.obj
 0001:00001270       ?cw_strcpy@@YAHPADPBD@Z    10002270 f   CWString.obj
 0001:00001290       ?cw_strcpy@@YAHPA_WPB_W@Z  10002290 f   CWString.obj
 0001:000012b0       ?cw_strcat@@YAHPADPB_W@Z   100022b0 f   CWString.obj
 0001:000012e0       ?cw_strcat@@YAHPA_WPBD@Z   100022e0 f   CWString.obj
 0001:00001310       ?cw_strcat@@YAHPADPBD@Z    10002310 f   CWString.obj
 0001:00001340       ?cw_strcat@@YAHPA_WPB_W@Z  10002340 f   CWString.obj
 0001:00001370       ?cw_dup@@YGXPBDAAHAAPA_W1@Z 10002370 f   CWString.obj
 0001:00001430       ?cw_dup@@YGXPB_WAAHAAPAD1@Z 10002430 f   CWString.obj
 0001:000014e0       ?DupChar@_CW@@AAEXXZ       100024e0 f   CWString.obj
 0001:00001530       ?DupWide@_CW@@AAEXXZ       10002530 f   CWString.obj
 0001:00001580       ?GetCharsMbcs@_CW@@QAEHXZ  10002580 f   CWString.obj
 0001:000015e0       ?GetCharsWide@_CW@@QAEHXZ  100025e0 f   CWString.obj
 0001:00001640       ?SetVARIANT_BOOL@OposVariant@@QAEXF@Z 10002640 f   OposVariant.obj
 0001:000016a0       ?SetVARIANT_BOOL_Ptr@OposVariant@@QAEXPAFAAJ@Z 100026a0 f   OposVariant.obj
 0001:000016f0       ?GetLONG@OposVariant@@QAEJXZ 100026f0 f   OposVariant.obj
 0001:00001780       ?ChangeLONG@OposVariant@@QAEXPAJAAJ@Z 10002780 f   OposVariant.obj
 0001:00001840       ?SetLONG@OposVariant@@QAEXJ@Z 10002840 f   OposVariant.obj
 0001:00001880       ?SetLONG_Ptr@OposVariant@@QAEXPAJAAJ@Z 10002880 f   OposVariant.obj
 0001:000018d0       ?ChangeCURRENCY@OposVariant@@QAEXPATtagCY@@AAJ@Z 100028d0 f   OposVariant.obj
 0001:00001990       ?SetCURRENCY@OposVariant@@QAEXTtagCY@@@Z 10002990 f   OposVariant.obj
 0001:000019d0       ?SetCURRENCY_Ptr@OposVariant@@QAEXPATtagCY@@AAJ@Z 100029d0 f   OposVariant.obj
 0001:00001a20       ?ChangeBSTR@OposVariant@@QAEXPAPA_WAAJ@Z 10002a20 f   OposVariant.obj
 0001:00001ae0       ?SetBSTR@OposVariant@@QAEXPA_WAAJ@Z 10002ae0 f   OposVariant.obj
 0001:00001b30       ?SetBSTR_Copy@OposVariant@@QAEXPA_WAAJ@Z 10002b30 f   OposVariant.obj
 0001:00001bd0       ?SetBSTR_OutPtr@OposVariant@@QAE_NPAPA_WAAJ@Z 10002bd0 f   OposVariant.obj
 0001:00001c20       ?SetBSTR_InOutPtr@OposVariant@@QAE_NPAPA_WAAJ@Z 10002c20 f   OposVariant.obj
 0001:00001c70       ?SetVARIANT@OposVariant@@QAEXAAUtagVARIANT@@GAAJ@Z 10002c70 f   OposVariant.obj
 0001:00001cf0       ?SetVARIANT_Ptr@OposVariant@@QAEXAAPAUtagVARIANT@@GAAJ@Z 10002cf0 f   OposVariant.obj
 0001:00001d90       ?SetString@OposVariant@@QAEXPB_WAAJ@Z 10002d90 f   OposVariant.obj
 0001:00001e20       ?SetDispatch_Ptr@OposVariant@@QAEXPAUIDispatch@@AAJ@Z 10002e20 f   OposVariant.obj
 0001:00001e90       ??0OposDispParms@@QAE@PAVOposVariant@@H@Z 10002e90 f   OposVariant.obj
 0001:00001f60       ??1OposDispParms@@QAE@XZ   10002f60 f   OposVariant.obj
 0001:00001fb0       ??$AtlMultiply@I@ATL@@YAJPAIII@Z 10002fb0 f i OposVariant.obj
 0001:00002010       ??0?$CHeapPtr@_WVCCRTAllocator@ATL@@@ATL@@QAE@XZ 10003010 f i OposVariant.obj
 0001:00002040       ??0?$CHeapPtrBase@_WVCCRTAllocator@ATL@@@ATL@@IAE@XZ 10003040 f i OposVariant.obj
 0001:00002060       ??0?$CSimpleArray@GV?$CSimpleArrayEqualHelper@G@ATL@@@ATL@@QAE@XZ 10003060 f i OposVariant.obj
 0001:000020a0       ??0?$CTraceCategoryEx@$00$0A@@ATL@@QAE@PB_W@Z 100030a0 f i OposVariant.obj
 0001:000020d0       ??0?$CTraceCategoryEx@$01$0A@@ATL@@QAE@PB_W@Z 100030d0 f i OposVariant.obj
 0001:00002100       ??0?$CTraceCategoryEx@$03$0A@@ATL@@QAE@PB_W@Z 10003100 f i OposVariant.obj
 0001:00002130       ??0?$CTraceCategoryEx@$07$0A@@ATL@@QAE@PB_W@Z 10003130 f i OposVariant.obj
 0001:00002160       ??0?$CTraceCategoryEx@$0BA@$0A@@ATL@@QAE@PB_W@Z 10003160 f i OposVariant.obj
 0001:00002190       ??0?$CTraceCategoryEx@$0BAA@$0A@@ATL@@QAE@PB_W@Z 10003190 f i OposVariant.obj
 0001:000021d0       ??0?$CTraceCategoryEx@$0BAAA@$0A@@ATL@@QAE@PB_W@Z 100031d0 f i OposVariant.obj
 0001:00002210       ??0?$CTraceCategoryEx@$0BAAAA@$0A@@ATL@@QAE@PB_W@Z 10003210 f i OposVariant.obj
 0001:00002250       ??0?$CTraceCategoryEx@$0BAAAAA@$0A@@ATL@@QAE@PB_W@Z 10003250 f i OposVariant.obj
 0001:00002290       ??0?$CTraceCategoryEx@$0CA@$0A@@ATL@@QAE@PB_W@Z 10003290 f i OposVariant.obj
 0001:000022c0       ??0?$CTraceCategoryEx@$0CAA@$0A@@ATL@@QAE@PB_W@Z 100032c0 f i OposVariant.obj
 0001:00002300       ??0?$CTraceCategoryEx@$0CAAA@$0A@@ATL@@QAE@PB_W@Z 10003300 f i OposVariant.obj
 0001:00002340       ??0?$CTraceCategoryEx@$0CAAAA@$0A@@ATL@@QAE@PB_W@Z 10003340 f i OposVariant.obj
 0001:00002380       ??0?$CTraceCategoryEx@$0CAAAAA@$0A@@ATL@@QAE@PB_W@Z 10003380 f i OposVariant.obj
 0001:000023c0       ??0?$CTraceCategoryEx@$0EA@$0A@@ATL@@QAE@PB_W@Z 100033c0 f i OposVariant.obj
 0001:000023f0       ??0?$CTraceCategoryEx@$0EAA@$0A@@ATL@@QAE@PB_W@Z 100033f0 f i OposVariant.obj
 0001:00002430       ??0?$CTraceCategoryEx@$0EAAA@$0A@@ATL@@QAE@PB_W@Z 10003430 f i OposVariant.obj
 0001:00002470       ??0?$CTraceCategoryEx@$0EAAAA@$0A@@ATL@@QAE@PB_W@Z 10003470 f i OposVariant.obj
 0001:000024b0       ??0?$CTraceCategoryEx@$0EAAAAA@$0A@@ATL@@QAE@PB_W@Z 100034b0 f i OposVariant.obj
 0001:000024f0       ??0?$CTraceCategoryEx@$0IA@$0A@@ATL@@QAE@PB_W@Z 100034f0 f i OposVariant.obj
 0001:00002530       ??0?$CTraceCategoryEx@$0IAA@$0A@@ATL@@QAE@PB_W@Z 10003530 f i OposVariant.obj
 0001:00002570       ??0?$CTraceCategoryEx@$0IAAA@$0A@@ATL@@QAE@PB_W@Z 10003570 f i OposVariant.obj
 0001:000025b0       ??0?$CTraceCategoryEx@$0IAAAA@$0A@@ATL@@QAE@PB_W@Z 100035b0 f i OposVariant.obj
 0001:000025f0       ??0CAtlComModule@ATL@@QAE@XZ 100035f0 f i OposVariant.obj
 0001:000026d0       ??0CAtlWinModule@ATL@@QAE@XZ 100036d0 f i OposVariant.obj
 0001:00002760       ??0CComCriticalSection@ATL@@QAE@XZ 10003760 f i OposVariant.obj
 0001:00002790       ??0CPreserveLastError@ATL@@QAE@XZ 10003790 f i OposVariant.obj
 0001:000027d0       ??0CTraceFileAndLineInfo@ATL@@QAE@PBDH@Z 100037d0 f i OposVariant.obj
 0001:00002800       ??0_ATL_COM_MODULE70@ATL@@QAE@XZ 10003800 f i OposVariant.obj
 0001:00002830       ??0_ATL_WIN_MODULE70@ATL@@QAE@XZ 10003830 f i OposVariant.obj
 0001:00002870       ??1?$CHeapPtr@_WVCCRTAllocator@ATL@@@ATL@@QAE@XZ 10003870 f i OposVariant.obj
 0001:000028a0       ??1?$CHeapPtrBase@_WVCCRTAllocator@ATL@@@ATL@@QAE@XZ 100038a0 f i OposVariant.obj
 0001:000028d0       ??1?$CSimpleArray@GV?$CSimpleArrayEqualHelper@G@ATL@@@ATL@@QAE@XZ 100038d0 f i OposVariant.obj
 0001:00002900       ??1CAtlComModule@ATL@@QAE@XZ 10003900 f i OposVariant.obj
 0001:00002930       ??1CAtlWinModule@ATL@@QAE@XZ 10003930 f i OposVariant.obj
 0001:00002960       ??1CComBSTR@ATL@@QAE@XZ    10003960 f i OposVariant.obj
 0001:000029a0       ??1CComCriticalSection@ATL@@QAE@XZ 100039a0 f i OposVariant.obj
 0001:000029c0       ??1CPreserveLastError@ATL@@QAE@XZ 100039c0 f i OposVariant.obj
 0001:00002a00       ??1_ATL_COM_MODULE70@ATL@@QAE@XZ 10003a00 f i OposVariant.obj
 0001:00002a30       ??1_ATL_WIN_MODULE70@ATL@@QAE@XZ 10003a30 f i OposVariant.obj
 0001:00002a70       ??1stringdispid@CComTypeInfoHolder@ATL@@QAE@XZ 10003a70 f i OposVariant.obj
 0001:00002aa0       ??A?$CSimpleArray@GV?$CSimpleArrayEqualHelper@G@ATL@@@ATL@@QAEAAGH@Z 10003aa0 f i OposVariant.obj
 0001:00002b20       ??B?$CHeapPtrBase@_WVCCRTAllocator@ATL@@@ATL@@QBEPA_WXZ 10003b20 f i OposVariant.obj
 0001:00002b40       ??B?$CTraceCategoryEx@$01$0A@@ATL@@QAEIXZ 10003b40 f i OposVariant.obj
 0001:00002b60       ??B?$CTraceCategoryEx@$0CA@$0A@@ATL@@QAEIXZ 10003b60 f i OposVariant.obj
 0001:00002b80       ??RCTraceFileAndLineInfo@ATL@@QBAXHIPB_WZZ 10003b80 f i OposVariant.obj
 0001:00002c20       ??_Estringdispid@CComTypeInfoHolder@ATL@@QAEPAXI@Z 10003c20 f i OposVariant.obj
 0001:00002cb0       ??_H@YGXPAXIIP6EPAX0@Z@Z   10003cb0 f i OposVariant.obj
 0001:00002d20       ??_I@YGXPAXIIP6EX0@Z@Z     10003d20 f i OposVariant.obj
 0001:00002da0       ?Allocate@?$CHeapPtr@_WVCCRTAllocator@ATL@@@ATL@@QAE_NI@Z 10003da0 f i OposVariant.obj
 0001:00002e30       ?Allocate@CCRTAllocator@ATL@@SAPAXI@Z 10003e30 f i OposVariant.obj
 0001:00002e50       ?AllocateBytes@?$CHeapPtrBase@_WVCCRTAllocator@ATL@@@ATL@@QAE_NI@Z 10003e50 f i OposVariant.obj
 0001:00002ec0       ?AtlWinModuleInit@ATL@@YGJPAU_ATL_WIN_MODULE70@1@@Z 10003ec0 f i OposVariant.obj
 0001:00002f90       ?AtlWinModuleTerm@ATL@@YGJPAU_ATL_WIN_MODULE70@1@PAUHINSTANCE__@@@Z 10003f90 f i OposVariant.obj
 0001:00003050       ?Clear@OposVariant@@QAEJXZ 10004050 f i OposVariant.obj
 0001:00003090       ?Free@?$CHeapPtrBase@_WVCCRTAllocator@ATL@@@ATL@@QAEXXZ 10004090 f i OposVariant.obj
 0001:000030d0       ?Free@CCRTAllocator@ATL@@SAXPAX@Z 100040d0 f i OposVariant.obj
 0001:000030f0       ?GetCategoryName@CTrace@ATL@@CAPA_WI@Z 100040f0 f i OposVariant.obj
 0001:00003140       ?GetModuleInstance@CAtlBaseModule@ATL@@QAEPAUHINSTANCE__@@XZ 10004140 f i OposVariant.obj
 0001:00003160       ?GetSize@?$CSimpleArray@GV?$CSimpleArrayEqualHelper@G@ATL@@@ATL@@QBEHXZ 10004160 f i OposVariant.obj
 0001:00003180       ?Init@CComCriticalSection@ATL@@QAEJXZ 10004180 f i OposVariant.obj
 0001:000031e0       ?RegisterCategory@CTrace@ATL@@SAXPB_WI@Z 100041e0 f i OposVariant.obj
 0001:00003270       ?RemoveAll@?$CSimpleArray@GV?$CSimpleArrayEqualHelper@G@ATL@@@ATL@@QAEXXZ 10004270 f i OposVariant.obj
 0001:000032f0       ?Term@CAtlComModule@ATL@@QAEXXZ 100042f0 f i OposVariant.obj
 0001:000033b0       ?Term@CAtlWinModule@ATL@@QAEXXZ 100043b0 f i OposVariant.obj
 0001:000033e0       ?Term@CComCriticalSection@ATL@@QAEJXZ 100043e0 f i OposVariant.obj
 0001:00003420       ?TraceV@CTrace@ATL@@CAXPBDHIIPB_W@Z 10004420 f i OposVariant.obj
 0001:000036a0       ?TraceV@CTrace@ATL@@SAXPBDHIIPB_WPAD@Z 100046a0 f i OposVariant.obj
 0001:000037e0       ?_AtlInitializeCriticalSectionEx@ATL@@YAHPAU_RTL_CRITICAL_SECTION@@KK@Z 100047e0 f i OposVariant.obj
 0001:00003810       ?_AtlRaiseException@ATL@@YAXKK@Z 10004810 f i OposVariant.obj
 0001:00003840       _HRESULT_FROM_WIN32        10004840 f i OposVariant.obj
 0001:00003880       __vswprintf_s_l            10004880 f i OposVariant.obj
 0001:000038f0       _swprintf_s                100048f0 f i OposVariant.obj
 0001:00003950       ?ObjectMain@CComObjectRootBase@ATL@@SGX_N@Z 10004950 f i RemoteOrderDisplay.obj
 0001:00003960       ?GetCategoryMap@CComObjectRootBase@ATL@@SAPBU_ATL_CATMAP_ENTRY@2@XZ 10004960 f i RemoteOrderDisplay.obj
 0001:00003970       ?GetObjectDescription@?$CComCoClass@VCOPOSRemoteOrderDisplay@@$1?CLSID_OPOSRemoteOrderDisplay@@3U_GUID@@B@ATL@@SGPB_WXZ 10004970 f i RemoteOrderDisplay.obj
 0001:00003980       ?UpdateRegistry@COPOSRemoteOrderDisplay@@SGJH@Z 10004980 f i RemoteOrderDisplay.obj
 0001:000039a0       ?CreateInstance@?$CComCreator@V?$CComObjectCached@VCComClassFactory@ATL@@@ATL@@@ATL@@SGJPAXABU_GUID@@PAPAX@Z 100049a0 f i RemoteOrderDisplay.obj
 0001:00003b20       ?CreateInstance@?$CComCreator2@V?$CComCreator@V?$CComObject@VCOPOSRemoteOrderDisplay@@@ATL@@@ATL@@V?$CComCreator@V?$CComAggObject@VCOPOSRemoteOrderDisplay@@@ATL@@@2@@ATL@@SGJPAXABU_GUID@@PAPAX@Z 10004b20 f i RemoteOrderDisplay.obj
 0001:00003cd0       _DllGetClassObject@12      10004cd0 f   RemoteOrderDisplay.obj
 0001:00003d00       _DllCanUnloadNow@0         10004d00 f   RemoteOrderDisplay.obj
 0001:00003d40       _DllRegisterServer@0       10004d40 f   RemoteOrderDisplay.obj
 0001:00003d60       _DllUnregisterServer@0     10004d60 f   RemoteOrderDisplay.obj
 0001:00003ef0       _DllMain@12                10004ef0 f   RemoteOrderDisplay.obj
 0001:00003f50       ??$?2G@Wrapper@?$CSimpleArray@GV?$CSimpleArrayEqualHelper@G@ATL@@@ATL@@SAPAXIPAG@Z 10004f50 f i RemoteOrderDisplay.obj
 0001:00003f60       ??$?2PA_W@?$Wrapper@PA_W@?$CSimpleMap@PA_WPA_WVCExpansionVectorEqualHelper@ATL@@@ATL@@SAPAXIPAPA_W@Z 10004f60 f i RemoteOrderDisplay.obj
 0001:00003f70       ??$?4UITypeInfo2@@@?$CComPtr@UITypeInfo@@@ATL@@QAEPAUITypeInfo@@ABV?$CComPtr@UITypeInfo2@@@1@@Z 10004f70 f i RemoteOrderDisplay.obj
 0001:00003fd0       ??$AtlAdd@K@ATL@@YAJPAKKK@Z 10004fd0 f i RemoteOrderDisplay.obj
 0001:00004010       ??$AtlAdd@_K@ATL@@YAJPA_K_K1@Z 10005010 f i RemoteOrderDisplay.obj
 0001:00004080       ??$AtlAddThrow@K@ATL@@YAKKK@Z 10005080 f i RemoteOrderDisplay.obj
 0001:00004100       ??$AtlModuleRegisterWndClassInfoT@VAtlModuleRegisterWndClassInfoParamW@ATL@@@ATL@@YAGPAU_ATL_BASE_MODULE70@0@PAU_ATL_WIN_MODULE70@0@PAU_ATL_WNDCLASSINFOW@0@PAP6GJPAUHWND__@@IIJ@ZVAtlModuleRegisterWndClassInfoParamW@0@@Z 10005100 f i RemoteOrderDisplay.obj
 0001:00004510       ??$AtlMultiply@H@ATL@@YAJPAHHH@Z 10005510 f i RemoteOrderDisplay.obj
 0001:00004590       ??$AtlMultiply@K@ATL@@YAJPAKKK@Z 10005590 f i RemoteOrderDisplay.obj
 0001:000045f0       ??$AtlMultiplyThrow@I@ATL@@YAIII@Z 100055f0 f i RemoteOrderDisplay.obj
 0001:00004670       ??$QueryInterface@UIPersistStream@@@IUnknown@@QAGJPAPAUIPersistStream@@@Z 10005670 f i RemoteOrderDisplay.obj
 0001:000046a0       ??$QueryInterface@UITypeInfo2@@@IUnknown@@QAGJPAPAUITypeInfo2@@@Z 100056a0 f i RemoteOrderDisplay.obj
 0001:000046d0       ??0?$CAtlModuleT@VCComModule@ATL@@@ATL@@QAE@XZ 100056d0 f i RemoteOrderDisplay.obj
 0001:00004700       ??0?$CAtlSafeAllocBufferManager@VCCRTAllocator@ATL@@@_ATL_SAFE_ALLOCA_IMPL@ATL@@QAE@XZ 10005700 f i RemoteOrderDisplay.obj
 0001:00004720       ??0?$CAutoVectorPtr@_W@ATL@@QAE@XZ 10005720 f i RemoteOrderDisplay.obj
 0001:00004740       ??0?$CComAggObject@VCOPOSRemoteOrderDisplay@@@ATL@@QAE@PAX@Z 10005740 f i RemoteOrderDisplay.obj
 0001:000047b0       ??0?$CComContainedObject@VCOPOSRemoteOrderDisplay@@@ATL@@QAE@PAX@Z 100057b0 f i RemoteOrderDisplay.obj
 0001:000048c0       ??0?$CComCritSecLock@VCComCriticalSection@ATL@@@ATL@@QAE@AAVCComCriticalSection@1@_N@Z 100058c0 f i RemoteOrderDisplay.obj
 0001:00004920       ??0?$CComEnum@UIEnumConnectionPoints@@$1?_GUID_b196b285_bab4_101a_b69c_00aa00341d07@@3U__s_GUID@@BPAUIConnectionPoint@@V?$_CopyInterface@UIConnectionPoint@@@ATL@@VCComSingleThreadModel@6@@ATL@@QAE@XZ 10005920 f i RemoteOrderDisplay.obj
 0001:00004960       ??0?$CComEnum@UIEnumConnections@@$1?_GUID_b196b287_bab4_101a_b69c_00aa00341d07@@3U__s_GUID@@BUtagCONNECTDATA@@V?$_Copy@UtagCONNECTDATA@@@ATL@@VCComSingleThreadModel@6@@ATL@@QAE@XZ 10005960 f i RemoteOrderDisplay.obj
 0001:000049a0       ??0?$CComEnumImpl@UIEnumConnectionPoints@@$1?_GUID_b196b285_bab4_101a_b69c_00aa00341d07@@3U__s_GUID@@BPAUIConnectionPoint@@V?$_CopyInterface@UIConnectionPoint@@@ATL@@@ATL@@QAE@XZ 100059a0 f i RemoteOrderDisplay.obj
 0001:00004a00       ??0?$CComEnumImpl@UIEnumConnections@@$1?_GUID_b196b287_bab4_101a_b69c_00aa00341d07@@3U__s_GUID@@BUtagCONNECTDATA@@V?$_Copy@UtagCONNECTDATA@@@ATL@@@ATL@@QAE@XZ 10005a00 f i RemoteOrderDisplay.obj
 0001:00004a60       ??0?$CComObject@V?$CComEnum@UIEnumConnectionPoints@@$1?_GUID_b196b285_bab4_101a_b69c_00aa00341d07@@3U__s_GUID@@BPAUIConnectionPoint@@V?$_CopyInterface@UIConnectionPoint@@@ATL@@VCComSingleThreadModel@6@@ATL@@@ATL@@QAE@PAX@Z 10005a60 f i RemoteOrderDisplay.obj
 0001:00004ab0       ??0?$CComObject@V?$CComEnum@UIEnumConnections@@$1?_GUID_b196b287_bab4_101a_b69c_00aa00341d07@@3U__s_GUID@@BUtagCONNECTDATA@@V?$_Copy@UtagCONNECTDATA@@@ATL@@VCComSingleThreadModel@6@@ATL@@@ATL@@QAE@PAX@Z 10005ab0 f i RemoteOrderDisplay.obj
 0001:00004b00       ??0?$CComObject@VCOPOSRemoteOrderDisplay@@@ATL@@QAE@PAX@Z 10005b00 f i RemoteOrderDisplay.obj
 0001:00004c20       ??0?$CComObjectCached@VCComClassFactory@ATL@@@ATL@@QAE@PAX@Z 10005c20 f i RemoteOrderDisplay.obj
 0001:00004c60       ??0?$CComObjectRootEx@VCComMultiThreadModel@ATL@@@ATL@@QAE@XZ 10005c60 f i RemoteOrderDisplay.obj
 0001:00004ca0       ??0?$CComObjectRootEx@VCComSingleThreadModel@ATL@@@ATL@@QAE@XZ 10005ca0 f i RemoteOrderDisplay.obj
 0001:00004cd0       ??0?$CComPtr@UIAdviseSink@@@ATL@@QAE@PAUIAdviseSink@@@Z 10005cd0 f i RemoteOrderDisplay.obj
 0001:00004d00       ??0?$CComPtr@UICatRegister@@@ATL@@QAE@XZ 10005d00 f i RemoteOrderDisplay.obj
 0001:00004d30       ??0?$CComPtr@UIConnectionPoint@@@ATL@@QAE@XZ 10005d30 f i RemoteOrderDisplay.obj
 0001:00004d60       ??0?$CComPtr@UIConnectionPointContainer@@@ATL@@QAE@XZ 10005d60 f i RemoteOrderDisplay.obj
 0001:00004d90       ??0?$CComPtr@UIDataObject@@@ATL@@QAE@XZ 10005d90 f i RemoteOrderDisplay.obj
 0001:00004dc0       ??0?$CComPtr@UIDispatch@@@ATL@@QAE@XZ 10005dc0 f i RemoteOrderDisplay.obj
 0001:00004df0       ??0?$CComPtr@UIOleClientSite@@@ATL@@QAE@PAUIOleClientSite@@@Z 10005df0 f i RemoteOrderDisplay.obj
 0001:00004e20       ??0?$CComPtr@UIOleControlSite@@@ATL@@QAE@XZ 10005e20 f i RemoteOrderDisplay.obj
 0001:00004e50       ??0?$CComPtr@UIOleInPlaceActiveObject@@@ATL@@QAE@XZ 10005e50 f i RemoteOrderDisplay.obj
 0001:00004e80       ??0?$CComPtr@UIOleInPlaceFrame@@@ATL@@QAE@XZ 10005e80 f i RemoteOrderDisplay.obj
 0001:00004eb0       ??0?$CComPtr@UIOleInPlaceObject@@@ATL@@QAE@XZ 10005eb0 f i RemoteOrderDisplay.obj
 0001:00004ee0       ??0?$CComPtr@UIOleInPlaceUIWindow@@@ATL@@QAE@XZ 10005ee0 f i RemoteOrderDisplay.obj
 0001:00004f10       ??0?$CComPtr@UIOleObject@@@ATL@@QAE@XZ 10005f10 f i RemoteOrderDisplay.obj
 0001:00004f40       ??0?$CComPtr@UIPersistStream@@@ATL@@QAE@XZ 10005f40 f i RemoteOrderDisplay.obj
 0001:00004f70       ??0?$CComPtr@UIPersistStreamInit@@@ATL@@QAE@XZ 10005f70 f i RemoteOrderDisplay.obj
 0001:00004fa0       ??0?$CComPtr@UIPointerInactive@@@ATL@@QAE@XZ 10005fa0 f i RemoteOrderDisplay.obj
 0001:00004fd0       ??0?$CComPtr@UIProvideClassInfo2@@@ATL@@QAE@XZ 10005fd0 f i RemoteOrderDisplay.obj
 0001:00005000       ??0?$CComPtr@UISpecifyPropertyPages@@@ATL@@QAE@XZ 10006000 f i RemoteOrderDisplay.obj
 0001:00005030       ??0?$CComPtr@UIStream@@@ATL@@QAE@XZ 10006030 f i RemoteOrderDisplay.obj
 0001:00005060       ??0?$CComPtr@UITypeInfo2@@@ATL@@QAE@XZ 10006060 f i RemoteOrderDisplay.obj
 0001:00005090       ??0?$CComPtr@UITypeInfo@@@ATL@@QAE@ABV01@@Z 10006090 f i RemoteOrderDisplay.obj
 0001:000050c0       ??0?$CComPtr@UITypeInfo@@@ATL@@QAE@XZ 100060c0 f i RemoteOrderDisplay.obj
 0001:000050f0       ??0?$CComPtr@UITypeLib@@@ATL@@QAE@XZ 100060f0 f i RemoteOrderDisplay.obj
 0001:00005120       ??0?$CComPtr@UIUnknown@@@ATL@@QAE@ABV01@@Z 10006120 f i RemoteOrderDisplay.obj
 0001:00005150       ??0?$CComPtr@UIUnknown@@@ATL@@QAE@PAUIUnknown@@@Z 10006150 f i RemoteOrderDisplay.obj
 0001:00005180       ??0?$CComPtr@UIUnknown@@@ATL@@QAE@XZ 10006180 f i RemoteOrderDisplay.obj
 0001:000051b0       ??0?$CComPtr@UIViewObjectEx@@@ATL@@QAE@XZ 100061b0 f i RemoteOrderDisplay.obj
 0001:000051e0       ??0?$CComPtrBase@UIAdviseSink@@@ATL@@IAE@PAUIAdviseSink@@@Z 100061e0 f i RemoteOrderDisplay.obj
 0001:00005230       ??0?$CComPtrBase@UICatRegister@@@ATL@@IAE@XZ 10006230 f i RemoteOrderDisplay.obj
 0001:00005250       ??0?$CComPtrBase@UIConnectionPoint@@@ATL@@IAE@XZ 10006250 f i RemoteOrderDisplay.obj
 0001:00005270       ??0?$CComPtrBase@UIConnectionPointContainer@@@ATL@@IAE@XZ 10006270 f i RemoteOrderDisplay.obj
 0001:00005290       ??0?$CComPtrBase@UIDataObject@@@ATL@@IAE@XZ 10006290 f i RemoteOrderDisplay.obj
 0001:000052b0       ??0?$CComPtrBase@UIDispatch@@@ATL@@IAE@XZ 100062b0 f i RemoteOrderDisplay.obj
 0001:000052d0       ??0?$CComPtrBase@UIOleClientSite@@@ATL@@IAE@PAUIOleClientSite@@@Z 100062d0 f i RemoteOrderDisplay.obj
 0001:00005320       ??0?$CComPtrBase@UIOleControlSite@@@ATL@@IAE@XZ 10006320 f i RemoteOrderDisplay.obj
 0001:00005340       ??0?$CComPtrBase@UIOleInPlaceActiveObject@@@ATL@@IAE@XZ 10006340 f i RemoteOrderDisplay.obj
 0001:00005360       ??0?$CComPtrBase@UIOleInPlaceFrame@@@ATL@@IAE@XZ 10006360 f i RemoteOrderDisplay.obj
 0001:00005380       ??0?$CComPtrBase@UIOleInPlaceObject@@@ATL@@IAE@XZ 10006380 f i RemoteOrderDisplay.obj
 0001:000053a0       ??0?$CComPtrBase@UIOleInPlaceUIWindow@@@ATL@@IAE@XZ 100063a0 f i RemoteOrderDisplay.obj
 0001:000053c0       ??0?$CComPtrBase@UIOleObject@@@ATL@@IAE@XZ 100063c0 f i RemoteOrderDisplay.obj
 0001:000053e0       ??0?$CComPtrBase@UIPersistStream@@@ATL@@IAE@XZ 100063e0 f i RemoteOrderDisplay.obj
 0001:00005400       ??0?$CComPtrBase@UIPersistStreamInit@@@ATL@@IAE@XZ 10006400 f i RemoteOrderDisplay.obj
 0001:00005420       ??0?$CComPtrBase@UIPointerInactive@@@ATL@@IAE@XZ 10006420 f i RemoteOrderDisplay.obj
 0001:00005440       ??0?$CComPtrBase@UIProvideClassInfo2@@@ATL@@IAE@XZ 10006440 f i RemoteOrderDisplay.obj
 0001:00005460       ??0?$CComPtrBase@UISpecifyPropertyPages@@@ATL@@IAE@XZ 10006460 f i RemoteOrderDisplay.obj
 0001:00005480       ??0?$CComPtrBase@UIStream@@@ATL@@IAE@XZ 10006480 f i RemoteOrderDisplay.obj
 0001:000054a0       ??0?$CComPtrBase@UITypeInfo2@@@ATL@@IAE@XZ 100064a0 f i RemoteOrderDisplay.obj
 0001:000054c0       ??0?$CComPtrBase@UITypeInfo@@@ATL@@IAE@PAUITypeInfo@@@Z 100064c0 f i RemoteOrderDisplay.obj
 0001:00005510       ??0?$CComPtrBase@UITypeInfo@@@ATL@@IAE@XZ 10006510 f i RemoteOrderDisplay.obj
 0001:00005530       ??0?$CComPtrBase@UITypeLib@@@ATL@@IAE@XZ 10006530 f i RemoteOrderDisplay.obj
 0001:00005550       ??0?$CComPtrBase@UIUnknown@@@ATL@@IAE@PAUIUnknown@@@Z 10006550 f i RemoteOrderDisplay.obj
 0001:000055a0       ??0?$CComPtrBase@UIUnknown@@@ATL@@IAE@XZ 100065a0 f i RemoteOrderDisplay.obj
 0001:000055c0       ??0?$CComPtrBase@UIViewObjectEx@@@ATL@@IAE@XZ 100065c0 f i RemoteOrderDisplay.obj
 0001:000055e0       ??0?$CComQIPtr@UIOleControlSite@@$1?_GUID_b196b289_bab4_101a_b69c_00aa00341d07@@3U__s_GUID@@B@ATL@@QAE@PAUIUnknown@@@Z 100065e0 f i RemoteOrderDisplay.obj
 0001:00005640       ??0?$CComQIPtr@UIOleObject@@$1?_GUID_00000112_0000_0000_c000_000000000046@@3U__s_GUID@@B@ATL@@QAE@XZ 10006640 f i RemoteOrderDisplay.obj
 0001:00005670       ??0?$CComQIPtr@UISpecifyPropertyPages@@$1?_GUID_b196b28b_bab4_101a_b69c_00aa00341d07@@3U__s_GUID@@B@ATL@@QAE@XZ 10006670 f i RemoteOrderDisplay.obj
 0001:000056a0       ??0?$CSimpleMap@PA_WPA_WVCExpansionVectorEqualHelper@ATL@@@ATL@@QAE@XZ 100066a0 f i RemoteOrderDisplay.obj
 0001:000056e0       ??0?$CTempBuffer@E$0BAA@VCCRTAllocator@ATL@@@ATL@@QAE@XZ 100066e0 f i RemoteOrderDisplay.obj
 0001:00005700       ??0?$CTempBuffer@_W$0BAA@VCCRTAllocator@ATL@@@ATL@@QAE@XZ 10006700 f i RemoteOrderDisplay.obj
 0001:00005720       ??0?$CTempBuffer@_W$0EAA@VCCRTAllocator@ATL@@@ATL@@QAE@XZ 10006720 f i RemoteOrderDisplay.obj
 0001:00005740       ??0?$Wrapper@PA_W@?$CSimpleMap@PA_WPA_WVCExpansionVectorEqualHelper@ATL@@@ATL@@QAE@ABQA_W@Z 10006740 f i RemoteOrderDisplay.obj
 0001:00005770       ??0CAtlModule@ATL@@QAE@XZ  10006770 f i RemoteOrderDisplay.obj
 0001:00005890       ??0CComAutoDeleteCriticalSection@ATL@@QAE@XZ 10006890 f i RemoteOrderDisplay.obj
 0001:000058c0       ??0CComBSTR@ATL@@QAE@XZ    100068c0 f i RemoteOrderDisplay.obj
 0001:000058e0       ??0CComClassFactory@ATL@@QAE@XZ 100068e0 f i RemoteOrderDisplay.obj
 0001:00005920       ??0CComModule@ATL@@QAE@XZ  10006920 f i RemoteOrderDisplay.obj
 0001:00005990       ??0CComObjectRootBase@ATL@@QAE@XZ 10006990 f i RemoteOrderDisplay.obj
 0001:000059b0       ??0CComSafeDeleteCriticalSection@ATL@@QAE@XZ 100069b0 f i RemoteOrderDisplay.obj
 0001:000059e0       ??0CComVariant@ATL@@QAE@XZ 100069e0 f i RemoteOrderDisplay.obj
 0001:00005a30       ??0CExpansionVector@ATL@@QAE@XZ 10006a30 f i RemoteOrderDisplay.obj
 0001:00005a60       ??0CParseBuffer@CRegParser@ATL@@QAE@H@Z 10006a60 f i RemoteOrderDisplay.obj
 0001:00005ad0       ??0CRegKey@ATL@@QAE@PAUHKEY__@@@Z 10006ad0 f i RemoteOrderDisplay.obj
 0001:00005b10       ??0CRegKey@ATL@@QAE@PAVCAtlTransactionManager@1@@Z 10006b10 f i RemoteOrderDisplay.obj
 0001:00005b50       ??0CRegObject@ATL@@QAE@XZ  10006b50 f i RemoteOrderDisplay.obj
 0001:00005b90       ??0CRegParser@ATL@@QAE@PAVCRegObject@1@@Z 10006b90 f i RemoteOrderDisplay.obj
 0001:00005bc0       ??0IClassFactory@@QAE@XZ   10006bc0 f i RemoteOrderDisplay.obj
 0001:00005bf0       ??0IEnumConnectionPoints@@QAE@XZ 10006bf0 f i RemoteOrderDisplay.obj
 0001:00005c20       ??0IEnumConnections@@QAE@XZ 10006c20 f i RemoteOrderDisplay.obj
 0001:00005c50       ??0IRegistrarBase@@QAE@XZ  10006c50 f i RemoteOrderDisplay.obj
 0001:00005c80       ??0IUnknown@@QAE@XZ        10006c80 f i RemoteOrderDisplay.obj
 0001:00005ca0       ??0ModuleLockHelper@ATL@@QAE@XZ 10006ca0 f i RemoteOrderDisplay.obj
 0001:00005ce0       ??0OposVariant@@QAE@XZ     10006ce0 f i RemoteOrderDisplay.obj
 0001:00005d10       ??0Wrapper@?$CSimpleArray@GV?$CSimpleArrayEqualHelper@G@ATL@@@ATL@@QAE@ABG@Z 10006d10 f i RemoteOrderDisplay.obj
 0001:00005d40       ??0_ATL_MODULE70@ATL@@QAE@XZ 10006d40 f i RemoteOrderDisplay.obj
 0001:00005d70       ??0_ATL_MSG@ATL@@QAE@PAUHWND__@@IIJH@Z 10006d70 f i RemoteOrderDisplay.obj
 0001:00005de0       ??0_U_MENUorID@ATL@@QAE@I@Z 10006de0 f i RemoteOrderDisplay.obj
 0001:00005e00       ??0_U_RECT@ATL@@QAE@AAUtagRECT@@@Z 10006e00 f i RemoteOrderDisplay.obj
 0001:00005e20       ??0stringdispid@CComTypeInfoHolder@ATL@@QAE@XZ 10006e20 f i RemoteOrderDisplay.obj
 0001:00005e60       ??1?$CAtlModuleT@VCComModule@ATL@@@ATL@@UAE@XZ 10006e60 f i RemoteOrderDisplay.obj
 0001:00005e90       ??1?$CAtlSafeAllocBufferManager@VCCRTAllocator@ATL@@@_ATL_SAFE_ALLOCA_IMPL@ATL@@QAE@XZ 10006e90 f i RemoteOrderDisplay.obj
 0001:00005ee0       ??1?$CAutoVectorPtr@_W@ATL@@QAE@XZ 10006ee0 f i RemoteOrderDisplay.obj
 0001:00005f10       ??1?$CComAggObject@VCOPOSRemoteOrderDisplay@@@ATL@@UAE@XZ 10006f10 f i RemoteOrderDisplay.obj
 0001:00005f80       ??1?$CComContainedObject@VCOPOSRemoteOrderDisplay@@@ATL@@UAE@XZ 10006f80 f i RemoteOrderDisplay.obj
 0001:00005fb0       ??1?$CComCritSecLock@VCComCriticalSection@ATL@@@ATL@@QAE@XZ 10006fb0 f i RemoteOrderDisplay.obj
 0001:00005fe0       ??1?$CComEnum@UIEnumConnectionPoints@@$1?_GUID_b196b285_bab4_101a_b69c_00aa00341d07@@3U__s_GUID@@BPAUIConnectionPoint@@V?$_CopyInterface@UIConnectionPoint@@@ATL@@VCComSingleThreadModel@6@@ATL@@UAE@XZ 10006fe0 f i RemoteOrderDisplay.obj
 0001:00006010       ??1?$CComEnum@UIEnumConnections@@$1?_GUID_b196b287_bab4_101a_b69c_00aa00341d07@@3U__s_GUID@@BUtagCONNECTDATA@@V?$_Copy@UtagCONNECTDATA@@@ATL@@VCComSingleThreadModel@6@@ATL@@UAE@XZ 10007010 f i RemoteOrderDisplay.obj
 0001:00006040       ??1?$CComEnumImpl@UIEnumConnectionPoints@@$1?_GUID_b196b285_bab4_101a_b69c_00aa00341d07@@3U__s_GUID@@BPAUIConnectionPoint@@V?$_CopyInterface@UIConnectionPoint@@@ATL@@@ATL@@UAE@XZ 10007040 f i RemoteOrderDisplay.obj
 0001:000060d0       ??1?$CComEnumImpl@UIEnumConnections@@$1?_GUID_b196b287_bab4_101a_b69c_00aa00341d07@@3U__s_GUID@@BUtagCONNECTDATA@@V?$_Copy@UtagCONNECTDATA@@@ATL@@@ATL@@UAE@XZ 100070d0 f i RemoteOrderDisplay.obj
 0001:00006160       ??1?$CComObject@V?$CComEnum@UIEnumConnectionPoints@@$1?_GUID_b196b285_bab4_101a_b69c_00aa00341d07@@3U__s_GUID@@BPAUIConnectionPoint@@V?$_CopyInterface@UIConnectionPoint@@@ATL@@VCComSingleThreadModel@6@@ATL@@@ATL@@UAE@XZ 10007160 f i RemoteOrderDisplay.obj
 0001:000061c0       ??1?$CComObject@V?$CComEnum@UIEnumConnections@@$1?_GUID_b196b287_bab4_101a_b69c_00aa00341d07@@3U__s_GUID@@BUtagCONNECTDATA@@V?$_Copy@UtagCONNECTDATA@@@ATL@@VCComSingleThreadModel@6@@ATL@@@ATL@@UAE@XZ 100071c0 f i RemoteOrderDisplay.obj
 0001:00006220       ??1?$CComObject@VCOPOSRemoteOrderDisplay@@@ATL@@UAE@XZ 10007220 f i RemoteOrderDisplay.obj
 0001:00006360       ??1?$CComObjectCached@VCComClassFactory@ATL@@@ATL@@UAE@XZ 10007360 f i RemoteOrderDisplay.obj
 0001:000063b0       ??1?$CComObjectRootEx@VCComMultiThreadModel@ATL@@@ATL@@QAE@XZ 100073b0 f i RemoteOrderDisplay.obj
 0001:000063e0       ??1?$CComObjectRootEx@VCComSingleThreadModel@ATL@@@ATL@@QAE@XZ 100073e0 f i RemoteOrderDisplay.obj
 0001:00006410       ??1?$CComPtr@UIAdviseSink@@@ATL@@QAE@XZ 10007410 f i RemoteOrderDisplay.obj
 0001:00006440       ??1?$CComPtr@UICatRegister@@@ATL@@QAE@XZ 10007440 f i RemoteOrderDisplay.obj
 0001:00006470       ??1?$CComPtr@UIConnectionPoint@@@ATL@@QAE@XZ 10007470 f i RemoteOrderDisplay.obj
 0001:000064a0       ??1?$CComPtr@UIConnectionPointContainer@@@ATL@@QAE@XZ 100074a0 f i RemoteOrderDisplay.obj
 0001:000064d0       ??1?$CComPtr@UIDataObject@@@ATL@@QAE@XZ 100074d0 f i RemoteOrderDisplay.obj
 0001:00006500       ??1?$CComPtr@UIDispatch@@@ATL@@QAE@XZ 10007500 f i RemoteOrderDisplay.obj
 0001:00006530       ??1?$CComPtr@UIOleClientSite@@@ATL@@QAE@XZ 10007530 f i RemoteOrderDisplay.obj
 0001:00006560       ??1?$CComPtr@UIOleControlSite@@@ATL@@QAE@XZ 10007560 f i RemoteOrderDisplay.obj
 0001:00006590       ??1?$CComPtr@UIOleInPlaceActiveObject@@@ATL@@QAE@XZ 10007590 f i RemoteOrderDisplay.obj
 0001:000065c0       ??1?$CComPtr@UIOleInPlaceFrame@@@ATL@@QAE@XZ 100075c0 f i RemoteOrderDisplay.obj
 0001:000065f0       ??1?$CComPtr@UIOleInPlaceObject@@@ATL@@QAE@XZ 100075f0 f i RemoteOrderDisplay.obj
 0001:00006620       ??1?$CComPtr@UIOleInPlaceUIWindow@@@ATL@@QAE@XZ 10007620 f i RemoteOrderDisplay.obj
 0001:00006650       ??1?$CComPtr@UIOleObject@@@ATL@@QAE@XZ 10007650 f i RemoteOrderDisplay.obj
 0001:00006680       ??1?$CComPtr@UIPersistStream@@@ATL@@QAE@XZ 10007680 f i RemoteOrderDisplay.obj
 0001:000066b0       ??1?$CComPtr@UIPersistStreamInit@@@ATL@@QAE@XZ 100076b0 f i RemoteOrderDisplay.obj
 0001:000066e0       ??1?$CComPtr@UIPointerInactive@@@ATL@@QAE@XZ 100076e0 f i RemoteOrderDisplay.obj
 0001:00006710       ??1?$CComPtr@UIProvideClassInfo2@@@ATL@@QAE@XZ 10007710 f i RemoteOrderDisplay.obj
 0001:00006740       ??1?$CComPtr@UISpecifyPropertyPages@@@ATL@@QAE@XZ 10007740 f i RemoteOrderDisplay.obj
 0001:00006770       ??1?$CComPtr@UIStream@@@ATL@@QAE@XZ 10007770 f i RemoteOrderDisplay.obj
 0001:000067a0       ??1?$CComPtr@UITypeInfo2@@@ATL@@QAE@XZ 100077a0 f i RemoteOrderDisplay.obj
 0001:000067d0       ??1?$CComPtr@UITypeInfo@@@ATL@@QAE@XZ 100077d0 f i RemoteOrderDisplay.obj
 0001:00006800       ??1?$CComPtr@UITypeLib@@@ATL@@QAE@XZ 10007800 f i RemoteOrderDisplay.obj
 0001:00006830       ??1?$CComPtr@UIUnknown@@@ATL@@QAE@XZ 10007830 f i RemoteOrderDisplay.obj
 0001:00006860       ??1?$CComPtr@UIViewObjectEx@@@ATL@@QAE@XZ 10007860 f i RemoteOrderDisplay.obj
 0001:00006890       ??1?$CComPtrBase@UIAdviseSink@@@ATL@@QAE@XZ 10007890 f i RemoteOrderDisplay.obj
 0001:000068e0       ??1?$CComPtrBase@UICatRegister@@@ATL@@QAE@XZ 100078e0 f i RemoteOrderDisplay.obj
 0001:00006930       ??1?$CComPtrBase@UIConnectionPoint@@@ATL@@QAE@XZ 10007930 f i RemoteOrderDisplay.obj
 0001:00006980       ??1?$CComPtrBase@UIConnectionPointContainer@@@ATL@@QAE@XZ 10007980 f i RemoteOrderDisplay.obj
 0001:000069d0       ??1?$CComPtrBase@UIDataObject@@@ATL@@QAE@XZ 100079d0 f i RemoteOrderDisplay.obj
 0001:00006a20       ??1?$CComPtrBase@UIDispatch@@@ATL@@QAE@XZ 10007a20 f i RemoteOrderDisplay.obj
 0001:00006a70       ??1?$CComPtrBase@UIOleClientSite@@@ATL@@QAE@XZ 10007a70 f i RemoteOrderDisplay.obj
 0001:00006ac0       ??1?$CComPtrBase@UIOleControlSite@@@ATL@@QAE@XZ 10007ac0 f i RemoteOrderDisplay.obj
 0001:00006b10       ??1?$CComPtrBase@UIOleInPlaceActiveObject@@@ATL@@QAE@XZ 10007b10 f i RemoteOrderDisplay.obj
 0001:00006b60       ??1?$CComPtrBase@UIOleInPlaceFrame@@@ATL@@QAE@XZ 10007b60 f i RemoteOrderDisplay.obj
 0001:00006bb0       ??1?$CComPtrBase@UIOleInPlaceObject@@@ATL@@QAE@XZ 10007bb0 f i RemoteOrderDisplay.obj
 0001:00006c00       ??1?$CComPtrBase@UIOleInPlaceUIWindow@@@ATL@@QAE@XZ 10007c00 f i RemoteOrderDisplay.obj
 0001:00006c50       ??1?$CComPtrBase@UIOleObject@@@ATL@@QAE@XZ 10007c50 f i RemoteOrderDisplay.obj
 0001:00006ca0       ??1?$CComPtrBase@UIPersistStream@@@ATL@@QAE@XZ 10007ca0 f i RemoteOrderDisplay.obj
 0001:00006cf0       ??1?$CComPtrBase@UIPersistStreamInit@@@ATL@@QAE@XZ 10007cf0 f i RemoteOrderDisplay.obj
 0001:00006d40       ??1?$CComPtrBase@UIPointerInactive@@@ATL@@QAE@XZ 10007d40 f i RemoteOrderDisplay.obj
 0001:00006d90       ??1?$CComPtrBase@UIProvideClassInfo2@@@ATL@@QAE@XZ 10007d90 f i RemoteOrderDisplay.obj
 0001:00006de0       ??1?$CComPtrBase@UISpecifyPropertyPages@@@ATL@@QAE@XZ 10007de0 f i RemoteOrderDisplay.obj
 0001:00006e30       ??1?$CComPtrBase@UIStream@@@ATL@@QAE@XZ 10007e30 f i RemoteOrderDisplay.obj
 0001:00006e80       ??1?$CComPtrBase@UITypeInfo2@@@ATL@@QAE@XZ 10007e80 f i RemoteOrderDisplay.obj
 0001:00006ed0       ??1?$CComPtrBase@UITypeInfo@@@ATL@@QAE@XZ 10007ed0 f i RemoteOrderDisplay.obj
 0001:00006f20       ??1?$CComPtrBase@UITypeLib@@@ATL@@QAE@XZ 10007f20 f i RemoteOrderDisplay.obj
 0001:00006f70       ??1?$CComPtrBase@UIUnknown@@@ATL@@QAE@XZ 10007f70 f i RemoteOrderDisplay.obj
 0001:00006fc0       ??1?$CComPtrBase@UIViewObjectEx@@@ATL@@QAE@XZ 10007fc0 f i RemoteOrderDisplay.obj
 0001:00007010       ??1?$CComQIPtr@UIOleControlSite@@$1?_GUID_b196b289_bab4_101a_b69c_00aa00341d07@@3U__s_GUID@@B@ATL@@QAE@XZ 10008010 f i RemoteOrderDisplay.obj
 0001:00007040       ??1?$CComQIPtr@UIOleObject@@$1?_GUID_00000112_0000_0000_c000_000000000046@@3U__s_GUID@@B@ATL@@QAE@XZ 10008040 f i RemoteOrderDisplay.obj
 0001:00007070       ??1?$CComQIPtr@UISpecifyPropertyPages@@$1?_GUID_b196b28b_bab4_101a_b69c_00aa00341d07@@3U__s_GUID@@B@ATL@@QAE@XZ 10008070 f i RemoteOrderDisplay.obj
 0001:000070a0       ??1?$CSimpleMap@PA_WPA_WVCExpansionVectorEqualHelper@ATL@@@ATL@@QAE@XZ 100080a0 f i RemoteOrderDisplay.obj
 0001:000070d0       ??1?$CTempBuffer@E$0BAA@VCCRTAllocator@ATL@@@ATL@@QAE@XZ 100080d0 f i RemoteOrderDisplay.obj
 0001:00007110       ??1?$CTempBuffer@_W$0BAA@VCCRTAllocator@ATL@@@ATL@@QAE@XZ 10008110 f i RemoteOrderDisplay.obj
 0001:00007150       ??1?$CTempBuffer@_W$0EAA@VCCRTAllocator@ATL@@@ATL@@QAE@XZ 10008150 f i RemoteOrderDisplay.obj
 0001:00007190       ??1CAtlModule@ATL@@UAE@XZ  10008190 f i RemoteOrderDisplay.obj
 0001:000071c0       ??1CComAutoDeleteCriticalSection@ATL@@QAE@XZ 100081c0 f i RemoteOrderDisplay.obj
 0001:000071f0       ??1CComClassFactory@ATL@@UAE@XZ 100081f0 f i RemoteOrderDisplay.obj
 0001:00007220       ??1CComModule@ATL@@UAE@XZ  10008220 f i RemoteOrderDisplay.obj
 0001:00007250       ??1CComObjectRootBase@ATL@@QAE@XZ 10008250 f i RemoteOrderDisplay.obj
 0001:00007270       ??1CComSafeDeleteCriticalSection@ATL@@QAE@XZ 10008270 f i RemoteOrderDisplay.obj
 0001:000072b0       ??1CComVariant@ATL@@QAE@XZ 100082b0 f i RemoteOrderDisplay.obj
 0001:00007310       ??1CExpansionVector@ATL@@QAE@XZ 10008310 f i RemoteOrderDisplay.obj
 0001:00007340       ??1CParseBuffer@CRegParser@ATL@@QAE@XZ 10008340 f i RemoteOrderDisplay.obj
 0001:00007380       ??1CRegKey@ATL@@QAE@XZ     10008380 f i RemoteOrderDisplay.obj
 0001:000073b0       ??1CRegObject@ATL@@UAE@XZ  100083b0 f i RemoteOrderDisplay.obj
 0001:000073f0       ??1ModuleLockHelper@ATL@@QAE@XZ 100083f0 f i RemoteOrderDisplay.obj
 0001:00007430       ??1OposVariant@@QAE@XZ     10008430 f i RemoteOrderDisplay.obj
 0001:00007460       ??1_ATL_MODULE70@ATL@@QAE@XZ 10008460 f i RemoteOrderDisplay.obj
 0001:00007490       ??4?$CComPtr@UIAdviseSink@@@ATL@@QAEPAUIAdviseSink@@PAU2@@Z 10008490 f i RemoteOrderDisplay.obj
 0001:000074f0       ??4?$CComPtr@UIOleClientSite@@@ATL@@QAEPAUIOleClientSite@@PAU2@@Z 100084f0 f i RemoteOrderDisplay.obj
 0001:00007550       ??4?$CComPtr@UIUnknown@@@ATL@@QAEPAUIUnknown@@PAU2@@Z 10008550 f i RemoteOrderDisplay.obj
 0001:000075b0       ??4?$CComQIPtr@UIOleObject@@$1?_GUID_00000112_0000_0000_c000_000000000046@@3U__s_GUID@@B@ATL@@QAEPAUIOleObject@@PAUIUnknown@@@Z 100085b0 f i RemoteOrderDisplay.obj
 0001:00007600       ??4?$CComQIPtr@UISpecifyPropertyPages@@$1?_GUID_b196b28b_bab4_101a_b69c_00aa00341d07@@3U__s_GUID@@B@ATL@@QAEPAUISpecifyPropertyPages@@PAUIUnknown@@@Z 10008600 f i RemoteOrderDisplay.obj
 0001:00007650       ??7?$CComPtrBase@UIOleClientSite@@@ATL@@QBE_NXZ 10008650 f i RemoteOrderDisplay.obj
 0001:00007690       ??7?$CComPtrBase@UIOleInPlaceSiteWindowless@@@ATL@@QBE_NXZ 10008690 f i RemoteOrderDisplay.obj
 0001:000076d0       ??7CComBSTR@ATL@@QBE_NXZ   100086d0 f i RemoteOrderDisplay.obj
 0001:00007710       ??8?$CComPtrBase@UIConnectionPointContainer@@@ATL@@QBE_NPAUIConnectionPointContainer@@@Z 10008710 f i RemoteOrderDisplay.obj
 0001:00007750       ??8?$CComPtrBase@UIDataAdviseHolder@@@ATL@@QBE_NPAUIDataAdviseHolder@@@Z 10008750 f i RemoteOrderDisplay.obj
 0001:00007790       ??8?$CComPtrBase@UIOleAdviseHolder@@@ATL@@QBE_NPAUIOleAdviseHolder@@@Z 10008790 f i RemoteOrderDisplay.obj
 0001:000077d0       ??8?$CComPtrBase@UIOleClientSite@@@ATL@@QBE_NPAUIOleClientSite@@@Z 100087d0 f i RemoteOrderDisplay.obj
 0001:00007810       ??8?$CComPtrBase@UIOleControlSite@@@ATL@@QBE_NPAUIOleControlSite@@@Z 10008810 f i RemoteOrderDisplay.obj
 0001:00007850       ??8?$CComPtrBase@UIOleInPlaceObject@@@ATL@@QBE_NPAUIOleInPlaceObject@@@Z 10008850 f i RemoteOrderDisplay.obj
 0001:00007890       ??8?$CComPtrBase@UIOleInPlaceSiteWindowless@@@ATL@@QBE_NPAUIOleInPlaceSiteWindowless@@@Z 10008890 f i RemoteOrderDisplay.obj
 0001:000078d0       ??8?$CComPtrBase@UIOleObject@@@ATL@@QBE_NPAUIOleObject@@@Z 100088d0 f i RemoteOrderDisplay.obj
 0001:00007910       ??8?$CComPtrBase@UIPersistStream@@@ATL@@QBE_NPAUIPersistStream@@@Z 10008910 f i RemoteOrderDisplay.obj
 0001:00007950       ??8?$CComPtrBase@UIPersistStreamInit@@@ATL@@QBE_NPAUIPersistStreamInit@@@Z 10008950 f i RemoteOrderDisplay.obj
 0001:00007990       ??8?$CComPtrBase@UIPointerInactive@@@ATL@@QBE_NPAUIPointerInactive@@@Z 10008990 f i RemoteOrderDisplay.obj
 0001:000079d0       ??8?$CComPtrBase@UIUnknown@@@ATL@@QBE_NPAUIUnknown@@@Z 100089d0 f i RemoteOrderDisplay.obj
 0001:00007a10       ??8?$CComPtrBase@UIViewObjectEx@@@ATL@@QBE_NPAUIViewObjectEx@@@Z 10008a10 f i RemoteOrderDisplay.obj
 0001:00007a50       ??8CComBSTR@ATL@@QBE_NH@Z  10008a50 f i RemoteOrderDisplay.obj
 0001:00007ab0       ??9?$CComPtrBase@UIConnectionPointContainer@@@ATL@@QBE_NPAUIConnectionPointContainer@@@Z 10008ab0 f i RemoteOrderDisplay.obj
 0001:00007b00       ??9?$CComPtrBase@UIDataAdviseHolder@@@ATL@@QBE_NPAUIDataAdviseHolder@@@Z 10008b00 f i RemoteOrderDisplay.obj
 0001:00007b50       ??9?$CComPtrBase@UIOleAdviseHolder@@@ATL@@QBE_NPAUIOleAdviseHolder@@@Z 10008b50 f i RemoteOrderDisplay.obj
 0001:00007ba0       ??9?$CComPtrBase@UIOleClientSite@@@ATL@@QBE_NPAUIOleClientSite@@@Z 10008ba0 f i RemoteOrderDisplay.obj
 0001:00007bf0       ??9?$CComPtrBase@UIOleControlSite@@@ATL@@QBE_NPAUIOleControlSite@@@Z 10008bf0 f i RemoteOrderDisplay.obj
 0001:00007c40       ??9?$CComPtrBase@UIOleInPlaceObject@@@ATL@@QBE_NPAUIOleInPlaceObject@@@Z 10008c40 f i RemoteOrderDisplay.obj
 0001:00007c90       ??9?$CComPtrBase@UIOleInPlaceSiteWindowless@@@ATL@@QBE_NPAUIOleInPlaceSiteWindowless@@@Z 10008c90 f i RemoteOrderDisplay.obj
 0001:00007ce0       ??9?$CComPtrBase@UIOleObject@@@ATL@@QBE_NPAUIOleObject@@@Z 10008ce0 f i RemoteOrderDisplay.obj
 0001:00007d30       ??9?$CComPtrBase@UIPersistStream@@@ATL@@QBE_NPAUIPersistStream@@@Z 10008d30 f i RemoteOrderDisplay.obj
 0001:00007d80       ??9?$CComPtrBase@UIPersistStreamInit@@@ATL@@QBE_NPAUIPersistStreamInit@@@Z 10008d80 f i RemoteOrderDisplay.obj
 0001:00007dd0       ??9?$CComPtrBase@UIPointerInactive@@@ATL@@QBE_NPAUIPointerInactive@@@Z 10008dd0 f i RemoteOrderDisplay.obj
 0001:00007e20       ??9?$CComPtrBase@UIUnknown@@@ATL@@QBE_NPAUIUnknown@@@Z 10008e20 f i RemoteOrderDisplay.obj
 0001:00007e70       ??9?$CComPtrBase@UIViewObjectEx@@@ATL@@QBE_NPAUIViewObjectEx@@@Z 10008e70 f i RemoteOrderDisplay.obj
 0001:00007ec0       ??9CComBSTR@ATL@@QBE_NH@Z  10008ec0 f i RemoteOrderDisplay.obj
 0001:00007f10       ??B?$CComPtrBase@UIAdviseSink@@@ATL@@QBEPAUIAdviseSink@@XZ 10008f10 f i RemoteOrderDisplay.obj
 0001:00007f30       ??B?$CComPtrBase@UIDataAdviseHolder@@@ATL@@QBEPAUIDataAdviseHolder@@XZ 10008f30 f i RemoteOrderDisplay.obj
 0001:00007f50       ??B?$CComPtrBase@UIDataObject@@@ATL@@QBEPAUIDataObject@@XZ 10008f50 f i RemoteOrderDisplay.obj
 0001:00007f70       ??B?$CComPtrBase@UIOleAdviseHolder@@@ATL@@QBEPAUIOleAdviseHolder@@XZ 10008f70 f i RemoteOrderDisplay.obj
 0001:00007f90       ??B?$CComPtrBase@UIOleClientSite@@@ATL@@QBEPAUIOleClientSite@@XZ 10008f90 f i RemoteOrderDisplay.obj
 0001:00007fb0       ??B?$CComPtrBase@UIOleControlSite@@@ATL@@QBEPAUIOleControlSite@@XZ 10008fb0 f i RemoteOrderDisplay.obj
 0001:00007fd0       ??B?$CComPtrBase@UIOleInPlaceActiveObject@@@ATL@@QBEPAUIOleInPlaceActiveObject@@XZ 10008fd0 f i RemoteOrderDisplay.obj
 0001:00007ff0       ??B?$CComPtrBase@UIOleInPlaceFrame@@@ATL@@QBEPAUIOleInPlaceFrame@@XZ 10008ff0 f i RemoteOrderDisplay.obj
 0001:00008010       ??B?$CComPtrBase@UIOleInPlaceSiteWindowless@@@ATL@@QBEPAUIOleInPlaceSiteWindowless@@XZ 10009010 f i RemoteOrderDisplay.obj
 0001:00008030       ??B?$CComPtrBase@UIOleInPlaceUIWindow@@@ATL@@QBEPAUIOleInPlaceUIWindow@@XZ 10009030 f i RemoteOrderDisplay.obj
 0001:00008050       ??B?$CComPtrBase@UIOleObject@@@ATL@@QBEPAUIOleObject@@XZ 10009050 f i RemoteOrderDisplay.obj
 0001:00008070       ??B?$CComPtrBase@UIPersistStream@@@ATL@@QBEPAUIPersistStream@@XZ 10009070 f i RemoteOrderDisplay.obj
 0001:00008090       ??B?$CComPtrBase@UIProvideClassInfo2@@@ATL@@QBEPAUIProvideClassInfo2@@XZ 10009090 f i RemoteOrderDisplay.obj
 0001:000080b0       ??B?$CComPtrBase@UISpecifyPropertyPages@@@ATL@@QBEPAUISpecifyPropertyPages@@XZ 100090b0 f i RemoteOrderDisplay.obj
 0001:000080d0       ??B?$CComPtrBase@UIStream@@@ATL@@QBEPAUIStream@@XZ 100090d0 f i RemoteOrderDisplay.obj
 0001:000080f0       ??B?$CComPtrBase@UITypeInfo2@@@ATL@@QBEPAUITypeInfo2@@XZ 100090f0 f i RemoteOrderDisplay.obj
 0001:00008110       ??B?$CComPtrBase@UITypeInfo@@@ATL@@QBEPAUITypeInfo@@XZ 10009110 f i RemoteOrderDisplay.obj
 0001:00008130       ??B?$CComPtrBase@UITypeLib@@@ATL@@QBEPAUITypeLib@@XZ 10009130 f i RemoteOrderDisplay.obj
 0001:00008150       ??B?$CComPtrBase@UIUnknown@@@ATL@@QBEPAUIUnknown@@XZ 10009150 f i RemoteOrderDisplay.obj
 0001:00008170       ??B?$CTempBuffer@E$0BAA@VCCRTAllocator@ATL@@@ATL@@QBEPAEXZ 10009170 f i RemoteOrderDisplay.obj
 0001:00008190       ??B?$CTempBuffer@_W$0BAA@VCCRTAllocator@ATL@@@ATL@@QBEPA_WXZ 10009190 f i RemoteOrderDisplay.obj
 0001:000081b0       ??B?$CTempBuffer@_W$0EAA@VCCRTAllocator@ATL@@@ATL@@QBEPA_WXZ 100091b0 f i RemoteOrderDisplay.obj
 0001:000081d0       ??B?$CTraceCategoryEx@$00$0A@@ATL@@QAEIXZ 100091d0 f i RemoteOrderDisplay.obj
 0001:000081f0       ??B?$CTraceCategoryEx@$07$0A@@ATL@@QAEIXZ 100091f0 f i RemoteOrderDisplay.obj
 0001:00008210       ??B?$CTraceCategoryEx@$0CAAA@$0A@@ATL@@QAEIXZ 10009210 f i RemoteOrderDisplay.obj
 0001:00008230       ??B?$CTraceCategoryEx@$0EA@$0A@@ATL@@QAEIXZ 10009230 f i RemoteOrderDisplay.obj
 0001:00008250       ??B?$CTraceCategoryEx@$0IAA@$0A@@ATL@@QAEIXZ 10009250 f i RemoteOrderDisplay.obj
 0001:00008270       ??BCComBSTR@ATL@@QBEPA_WXZ 10009270 f i RemoteOrderDisplay.obj
 0001:00008290       ??BCRegKey@ATL@@QBEPAUHKEY__@@XZ 10009290 f i RemoteOrderDisplay.obj
 0001:000082b0       ??C?$CComPtrBase@UIAdviseSink@@@ATL@@QBEPAV?$_NoAddRefReleaseOnCComPtr@UIAdviseSink@@@1@XZ 100092b0 f i RemoteOrderDisplay.obj
 0001:00008300       ??C?$CComPtrBase@UICatRegister@@@ATL@@QBEPAV?$_NoAddRefReleaseOnCComPtr@UICatRegister@@@1@XZ 10009300 f i RemoteOrderDisplay.obj
 0001:00008350       ??C?$CComPtrBase@UIConnectionPoint@@@ATL@@QBEPAV?$_NoAddRefReleaseOnCComPtr@UIConnectionPoint@@@1@XZ 10009350 f i RemoteOrderDisplay.obj
 0001:000083a0       ??C?$CComPtrBase@UIConnectionPointContainer@@@ATL@@QBEPAV?$_NoAddRefReleaseOnCComPtr@UIConnectionPointContainer@@@1@XZ 100093a0 f i RemoteOrderDisplay.obj
 0001:000083f0       ??C?$CComPtrBase@UIDataAdviseHolder@@@ATL@@QBEPAV?$_NoAddRefReleaseOnCComPtr@UIDataAdviseHolder@@@1@XZ 100093f0 f i RemoteOrderDisplay.obj
 0001:00008440       ??C?$CComPtrBase@UIOleAdviseHolder@@@ATL@@QBEPAV?$_NoAddRefReleaseOnCComPtr@UIOleAdviseHolder@@@1@XZ 10009440 f i RemoteOrderDisplay.obj
 0001:00008490       ??C?$CComPtrBase@UIOleClientSite@@@ATL@@QBEPAV?$_NoAddRefReleaseOnCComPtr@UIOleClientSite@@@1@XZ 10009490 f i RemoteOrderDisplay.obj
 0001:000084e0       ??C?$CComPtrBase@UIOleControlSite@@@ATL@@QBEPAV?$_NoAddRefReleaseOnCComPtr@UIOleControlSite@@@1@XZ 100094e0 f i RemoteOrderDisplay.obj
 0001:00008530       ??C?$CComPtrBase@UIOleInPlaceFrame@@@ATL@@QBEPAV?$_NoAddRefReleaseOnCComPtr@UIOleInPlaceFrame@@@1@XZ 10009530 f i RemoteOrderDisplay.obj
 0001:00008580       ??C?$CComPtrBase@UIOleInPlaceObject@@@ATL@@QBEPAV?$_NoAddRefReleaseOnCComPtr@UIOleInPlaceObject@@@1@XZ 10009580 f i RemoteOrderDisplay.obj
 0001:000085d0       ??C?$CComPtrBase@UIOleInPlaceSiteWindowless@@@ATL@@QBEPAV?$_NoAddRefReleaseOnCComPtr@UIOleInPlaceSiteWindowless@@@1@XZ 100095d0 f i RemoteOrderDisplay.obj
 0001:00008620       ??C?$CComPtrBase@UIOleInPlaceUIWindow@@@ATL@@QBEPAV?$_NoAddRefReleaseOnCComPtr@UIOleInPlaceUIWindow@@@1@XZ 10009620 f i RemoteOrderDisplay.obj
 0001:00008670       ??C?$CComPtrBase@UIOleObject@@@ATL@@QBEPAV?$_NoAddRefReleaseOnCComPtr@UIOleObject@@@1@XZ 10009670 f i RemoteOrderDisplay.obj
 0001:000086c0       ??C?$CComPtrBase@UIPersistStream@@@ATL@@QBEPAV?$_NoAddRefReleaseOnCComPtr@UIPersistStream@@@1@XZ 100096c0 f i RemoteOrderDisplay.obj
 0001:00008710       ??C?$CComPtrBase@UIPersistStreamInit@@@ATL@@QBEPAV?$_NoAddRefReleaseOnCComPtr@UIPersistStreamInit@@@1@XZ 10009710 f i RemoteOrderDisplay.obj
 0001:00008760       ??C?$CComPtrBase@UIPointerInactive@@@ATL@@QBEPAV?$_NoAddRefReleaseOnCComPtr@UIPointerInactive@@@1@XZ 10009760 f i RemoteOrderDisplay.obj
 0001:000087b0       ??C?$CComPtrBase@UIProvideClassInfo2@@@ATL@@QBEPAV?$_NoAddRefReleaseOnCComPtr@UIProvideClassInfo2@@@1@XZ 100097b0 f i RemoteOrderDisplay.obj
 0001:00008800       ??C?$CComPtrBase@UISpecifyPropertyPages@@@ATL@@QBEPAV?$_NoAddRefReleaseOnCComPtr@UISpecifyPropertyPages@@@1@XZ 10009800 f i RemoteOrderDisplay.obj
 0001:00008850       ??C?$CComPtrBase@UITypeInfo@@@ATL@@QBEPAV?$_NoAddRefReleaseOnCComPtr@UITypeInfo@@@1@XZ 10009850 f i RemoteOrderDisplay.obj
 0001:000088a0       ??C?$CComPtrBase@UITypeLib@@@ATL@@QBEPAV?$_NoAddRefReleaseOnCComPtr@UITypeLib@@@1@XZ 100098a0 f i RemoteOrderDisplay.obj
 0001:000088f0       ??C?$CComPtrBase@UIUnknown@@@ATL@@QBEPAV?$_NoAddRefReleaseOnCComPtr@UIUnknown@@@1@XZ 100098f0 f i RemoteOrderDisplay.obj
 0001:00008940       ??C?$CComPtrBase@UIViewObjectEx@@@ATL@@QBEPAV?$_NoAddRefReleaseOnCComPtr@UIViewObjectEx@@@1@XZ 10009940 f i RemoteOrderDisplay.obj
 0001:00008990       ??I?$CComPtrBase@UICatRegister@@@ATL@@QAEPAPAUICatRegister@@XZ 10009990 f i RemoteOrderDisplay.obj
 0001:000089e0       ??I?$CComPtrBase@UIConnectionPoint@@@ATL@@QAEPAPAUIConnectionPoint@@XZ 100099e0 f i RemoteOrderDisplay.obj
 0001:00008a30       ??I?$CComPtrBase@UIConnectionPointContainer@@@ATL@@QAEPAPAUIConnectionPointContainer@@XZ 10009a30 f i RemoteOrderDisplay.obj
 0001:00008a80       ??I?$CComPtrBase@UIDataAdviseHolder@@@ATL@@QAEPAPAUIDataAdviseHolder@@XZ 10009a80 f i RemoteOrderDisplay.obj
 0001:00008ad0       ??I?$CComPtrBase@UIDataObject@@@ATL@@QAEPAPAUIDataObject@@XZ 10009ad0 f i RemoteOrderDisplay.obj
 0001:00008b20       ??I?$CComPtrBase@UIDispatch@@@ATL@@QAEPAPAUIDispatch@@XZ 10009b20 f i RemoteOrderDisplay.obj
 0001:00008b70       ??I?$CComPtrBase@UIOleAdviseHolder@@@ATL@@QAEPAPAUIOleAdviseHolder@@XZ 10009b70 f i RemoteOrderDisplay.obj
 0001:00008bc0       ??I?$CComPtrBase@UIOleControlSite@@@ATL@@QAEPAPAUIOleControlSite@@XZ 10009bc0 f i RemoteOrderDisplay.obj
 0001:00008c10       ??I?$CComPtrBase@UIOleInPlaceActiveObject@@@ATL@@QAEPAPAUIOleInPlaceActiveObject@@XZ 10009c10 f i RemoteOrderDisplay.obj
 0001:00008c60       ??I?$CComPtrBase@UIOleInPlaceFrame@@@ATL@@QAEPAPAUIOleInPlaceFrame@@XZ 10009c60 f i RemoteOrderDisplay.obj
 0001:00008cb0       ??I?$CComPtrBase@UIOleInPlaceObject@@@ATL@@QAEPAPAUIOleInPlaceObject@@XZ 10009cb0 f i RemoteOrderDisplay.obj
 0001:00008d00       ??I?$CComPtrBase@UIOleInPlaceSiteWindowless@@@ATL@@QAEPAPAUIOleInPlaceSiteWindowless@@XZ 10009d00 f i RemoteOrderDisplay.obj
 0001:00008d50       ??I?$CComPtrBase@UIOleInPlaceUIWindow@@@ATL@@QAEPAPAUIOleInPlaceUIWindow@@XZ 10009d50 f i RemoteOrderDisplay.obj
 0001:00008da0       ??I?$CComPtrBase@UIOleObject@@@ATL@@QAEPAPAUIOleObject@@XZ 10009da0 f i RemoteOrderDisplay.obj
 0001:00008df0       ??I?$CComPtrBase@UIPersistStream@@@ATL@@QAEPAPAUIPersistStream@@XZ 10009df0 f i RemoteOrderDisplay.obj
 0001:00008e40       ??I?$CComPtrBase@UIPointerInactive@@@ATL@@QAEPAPAUIPointerInactive@@XZ 10009e40 f i RemoteOrderDisplay.obj
 0001:00008e90       ??I?$CComPtrBase@UIProvideClassInfo2@@@ATL@@QAEPAPAUIProvideClassInfo2@@XZ 10009e90 f i RemoteOrderDisplay.obj
 0001:00008ee0       ??I?$CComPtrBase@UIStream@@@ATL@@QAEPAPAUIStream@@XZ 10009ee0 f i RemoteOrderDisplay.obj
 0001:00008f30       ??I?$CComPtrBase@UITypeInfo2@@@ATL@@QAEPAPAUITypeInfo2@@XZ 10009f30 f i RemoteOrderDisplay.obj
 0001:00008f80       ??I?$CComPtrBase@UITypeInfo@@@ATL@@QAEPAPAUITypeInfo@@XZ 10009f80 f i RemoteOrderDisplay.obj
 0001:00008fd0       ??I?$CComPtrBase@UITypeLib@@@ATL@@QAEPAPAUITypeLib@@XZ 10009fd0 f i RemoteOrderDisplay.obj
 0001:00009020       ??I?$CComPtrBase@UIUnknown@@@ATL@@QAEPAPAUIUnknown@@XZ 1000a020 f i RemoteOrderDisplay.obj
 0001:00009070       ??I?$CComPtrBase@UIViewObjectEx@@@ATL@@QAEPAPAUIViewObjectEx@@XZ 1000a070 f i RemoteOrderDisplay.obj
 0001:000090c0       ??ICComBSTR@ATL@@QAEPAPA_WXZ 1000a0c0 f i RemoteOrderDisplay.obj
 0001:000090d5       ??_E?$CComContainedObject@VCOPOSRemoteOrderDisplay@@@ATL@@W3AEPAXI@Z 1000a0d5 f i RemoteOrderDisplay.obj
 0001:000090dd       ??_E?$CComContainedObject@VCOPOSRemoteOrderDisplay@@@ATL@@WEM@AEPAXI@Z 1000a0dd f i RemoteOrderDisplay.obj
 0001:000090e5       ??_E?$CComObject@VCOPOSRemoteOrderDisplay@@@ATL@@W3AEPAXI@Z 1000a0e5 f i RemoteOrderDisplay.obj
 0001:000090ed       ??_E?$CComObject@VCOPOSRemoteOrderDisplay@@@ATL@@WEM@AEPAXI@Z 1000a0ed f i RemoteOrderDisplay.obj
 0001:00009100       ??_G?$CComAggObject@VCOPOSRemoteOrderDisplay@@@ATL@@UAEPAXI@Z 1000a100 f i RemoteOrderDisplay.obj
 0001:00009100       ??_E?$CComAggObject@VCOPOSRemoteOrderDisplay@@@ATL@@UAEPAXI@Z 1000a100 f i RemoteOrderDisplay.obj
 0001:00009150       ??_E?$CComContainedObject@VCOPOSRemoteOrderDisplay@@@ATL@@UAEPAXI@Z 1000a150 f i RemoteOrderDisplay.obj
 0001:00009150       ??_G?$CComContainedObject@VCOPOSRemoteOrderDisplay@@@ATL@@UAEPAXI@Z 1000a150 f i RemoteOrderDisplay.obj
 0001:000091a0       ??_G?$CComObject@V?$CComEnum@UIEnumConnectionPoints@@$1?_GUID_b196b285_bab4_101a_b69c_00aa00341d07@@3U__s_GUID@@BPAUIConnectionPoint@@V?$_CopyInterface@UIConnectionPoint@@@ATL@@VCComSingleThreadModel@6@@ATL@@@ATL@@UAEPAXI@Z 1000a1a0 f i RemoteOrderDisplay.obj
 0001:000091a0       ??_E?$CComObject@V?$CComEnum@UIEnumConnectionPoints@@$1?_GUID_b196b285_bab4_101a_b69c_00aa00341d07@@3U__s_GUID@@BPAUIConnectionPoint@@V?$_CopyInterface@UIConnectionPoint@@@ATL@@VCComSingleThreadModel@6@@ATL@@@ATL@@UAEPAXI@Z 1000a1a0 f i RemoteOrderDisplay.obj
 0001:000091e0       ??_G?$CComObject@V?$CComEnum@UIEnumConnections@@$1?_GUID_b196b287_bab4_101a_b69c_00aa00341d07@@3U__s_GUID@@BUtagCONNECTDATA@@V?$_Copy@UtagCONNECTDATA@@@ATL@@VCComSingleThreadModel@6@@ATL@@@ATL@@UAEPAXI@Z 1000a1e0 f i RemoteOrderDisplay.obj
 0001:000091e0       ??_E?$CComObject@V?$CComEnum@UIEnumConnections@@$1?_GUID_b196b287_bab4_101a_b69c_00aa00341d07@@3U__s_GUID@@BUtagCONNECTDATA@@V?$_Copy@UtagCONNECTDATA@@@ATL@@VCComSingleThreadModel@6@@ATL@@@ATL@@UAEPAXI@Z 1000a1e0 f i RemoteOrderDisplay.obj
 0001:00009220       ??_E?$CComObject@VCOPOSRemoteOrderDisplay@@@ATL@@UAEPAXI@Z 1000a220 f i RemoteOrderDisplay.obj
 0001:00009220       ??_G?$CComObject@VCOPOSRemoteOrderDisplay@@@ATL@@UAEPAXI@Z 1000a220 f i RemoteOrderDisplay.obj
 0001:00009270       ??_G?$CComObjectCached@VCComClassFactory@ATL@@@ATL@@UAEPAXI@Z 1000a270 f i RemoteOrderDisplay.obj
 0001:00009270       ??_E?$CComObjectCached@VCComClassFactory@ATL@@@ATL@@UAEPAXI@Z 1000a270 f i RemoteOrderDisplay.obj
 0001:000092b0       ??_ECComClassFactory@ATL@@UAEPAXI@Z 1000a2b0 f i RemoteOrderDisplay.obj
 0001:000092b0       ??_GCComClassFactory@ATL@@UAEPAXI@Z 1000a2b0 f i RemoteOrderDisplay.obj
 0001:000092f0       ??_GCComModule@ATL@@UAEPAXI@Z 1000a2f0 f i RemoteOrderDisplay.obj
 0001:000092f0       ??_ECComModule@ATL@@UAEPAXI@Z 1000a2f0 f i RemoteOrderDisplay.obj
 0001:00009330       ??_ECRegObject@ATL@@UAEPAXI@Z 1000a330 f i RemoteOrderDisplay.obj
 0001:00009330       ??_GCRegObject@ATL@@UAEPAXI@Z 1000a330 f i RemoteOrderDisplay.obj
 0001:00009370       ?Add@?$CSimpleArray@GV?$CSimpleArrayEqualHelper@G@ATL@@@ATL@@QAEHABG@Z 1000a370 f i RemoteOrderDisplay.obj
 0001:000094c0       ?Add@?$CSimpleMap@PA_WPA_WVCExpansionVectorEqualHelper@ATL@@@ATL@@QAEHABQA_W0@Z 1000a4c0 f i RemoteOrderDisplay.obj
 0001:00009580       ?Add@CComDynamicUnkArray@ATL@@QAEKPAUIUnknown@@@Z 1000a580 f i RemoteOrderDisplay.obj
 0001:00009720       ?Add@CExpansionVector@ATL@@QAEHPB_W0@Z 1000a720 f i RemoteOrderDisplay.obj
 0001:000099b0       ?AddChar@CParseBuffer@CRegParser@ATL@@QAEHPB_W@Z 1000a9b0 f i RemoteOrderDisplay.obj
 0001:000099f0       ?AddCommonRGSReplacements@?$CAtlModuleT@VCComModule@ATL@@@ATL@@UAEJPAUIRegistrarBase@@@Z 1000a9f0 f i RemoteOrderDisplay.obj
 0001:00009a40       ?AddCreateWndData@CAtlWinModule@ATL@@QAEXPAU_AtlCreateWndData@2@PAX@Z 1000aa40 f i RemoteOrderDisplay.obj
 0001:00009a70       ?AddRef@?$CComAggObject@VCOPOSRemoteOrderDisplay@@@ATL@@UAGKXZ 1000aa70 f i RemoteOrderDisplay.obj
 0001:00009a90       ?AddRef@?$CComContainedObject@VCOPOSRemoteOrderDisplay@@@ATL@@UAGKXZ 1000aa90 f i RemoteOrderDisplay.obj
 0001:00009aac       ?AddRef@?$CComContainedObject@VCOPOSRemoteOrderDisplay@@@ATL@@WHA@AGKXZ 1000aaac f i RemoteOrderDisplay.obj
 0001:00009ab6       ?AddRef@?$CComContainedObject@VCOPOSRemoteOrderDisplay@@@ATL@@WHE@AGKXZ 1000aab6 f i RemoteOrderDisplay.obj
 0001:00009ac0       ?AddRef@?$CComContainedObject@VCOPOSRemoteOrderDisplay@@@ATL@@WHI@AGKXZ 1000aac0 f i RemoteOrderDisplay.obj
 0001:00009aca       ?AddRef@?$CComContainedObject@VCOPOSRemoteOrderDisplay@@@ATL@@WHM@AGKXZ 1000aaca f i RemoteOrderDisplay.obj
 0001:00009ad4       ?AddRef@?$CComContainedObject@VCOPOSRemoteOrderDisplay@@@ATL@@WIA@AGKXZ 1000aad4 f i RemoteOrderDisplay.obj
 0001:00009ae1       ?AddRef@?$CComContainedObject@VCOPOSRemoteOrderDisplay@@@ATL@@WIE@AGKXZ 1000aae1 f i RemoteOrderDisplay.obj
 0001:00009aee       ?AddRef@?$CComContainedObject@VCOPOSRemoteOrderDisplay@@@ATL@@WII@AGKXZ 1000aaee f i RemoteOrderDisplay.obj
 0001:00009afb       ?AddRef@?$CComContainedObject@VCOPOSRemoteOrderDisplay@@@ATL@@WIM@AGKXZ 1000aafb f i RemoteOrderDisplay.obj
 0001:00009b08       ?AddRef@?$CComContainedObject@VCOPOSRemoteOrderDisplay@@@ATL@@WJA@AGKXZ 1000ab08 f i RemoteOrderDisplay.obj
 0001:00009b15       ?AddRef@?$CComContainedObject@VCOPOSRemoteOrderDisplay@@@ATL@@WJE@AGKXZ 1000ab15 f i RemoteOrderDisplay.obj
 0001:00009b22       ?AddRef@?$CComContainedObject@VCOPOSRemoteOrderDisplay@@@ATL@@WJI@AGKXZ 1000ab22 f i RemoteOrderDisplay.obj
 0001:00009b2f       ?AddRef@?$CComContainedObject@VCOPOSRemoteOrderDisplay@@@ATL@@WJM@AGKXZ 1000ab2f f i RemoteOrderDisplay.obj
 0001:00009b3c       ?AddRef@?$CComContainedObject@VCOPOSRemoteOrderDisplay@@@ATL@@WKA@AGKXZ 1000ab3c f i RemoteOrderDisplay.obj
 0001:00009b49       ?AddRef@?$CComContainedObject@VCOPOSRemoteOrderDisplay@@@ATL@@WKI@AGKXZ 1000ab49 f i RemoteOrderDisplay.obj
 0001:00009b56       ?AddRef@?$CComContainedObject@VCOPOSRemoteOrderDisplay@@@ATL@@WLE@AGKXZ 1000ab56 f i RemoteOrderDisplay.obj
 0001:00009b70       ?AddRef@?$CComObject@V?$CComEnum@UIEnumConnectionPoints@@$1?_GUID_b196b285_bab4_101a_b69c_00aa00341d07@@3U__s_GUID@@BPAUIConnectionPoint@@V?$_CopyInterface@UIConnectionPoint@@@ATL@@VCComSingleThreadModel@6@@ATL@@@ATL@@UAGKXZ 1000ab70 f i RemoteOrderDisplay.obj
 0001:00009b90       ?AddRef@?$CComObject@V?$CComEnum@UIEnumConnections@@$1?_GUID_b196b287_bab4_101a_b69c_00aa00341d07@@3U__s_GUID@@BUtagCONNECTDATA@@V?$_Copy@UtagCONNECTDATA@@@ATL@@VCComSingleThreadModel@6@@ATL@@@ATL@@UAGKXZ 1000ab90 f i RemoteOrderDisplay.obj
 0001:00009bb0       ?AddRef@?$CComObject@VCOPOSRemoteOrderDisplay@@@ATL@@UAGKXZ 1000abb0 f i RemoteOrderDisplay.obj
 0001:00009bcc       ?AddRef@?$CComObject@VCOPOSRemoteOrderDisplay@@@ATL@@WHA@AGKXZ 1000abcc f i RemoteOrderDisplay.obj
 0001:00009bd6       ?AddRef@?$CComObject@VCOPOSRemoteOrderDisplay@@@ATL@@WHE@AGKXZ 1000abd6 f i RemoteOrderDisplay.obj
 0001:00009be0       ?AddRef@?$CComObject@VCOPOSRemoteOrderDisplay@@@ATL@@WHI@AGKXZ 1000abe0 f i RemoteOrderDisplay.obj
 0001:00009bea       ?AddRef@?$CComObject@VCOPOSRemoteOrderDisplay@@@ATL@@WHM@AGKXZ 1000abea f i RemoteOrderDisplay.obj
 0001:00009bf4       ?AddRef@?$CComObject@VCOPOSRemoteOrderDisplay@@@ATL@@WIA@AGKXZ 1000abf4 f i RemoteOrderDisplay.obj
 0001:00009c01       ?AddRef@?$CComObject@VCOPOSRemoteOrderDisplay@@@ATL@@WIE@AGKXZ 1000ac01 f i RemoteOrderDisplay.obj
 0001:00009c0e       ?AddRef@?$CComObject@VCOPOSRemoteOrderDisplay@@@ATL@@WII@AGKXZ 1000ac0e f i RemoteOrderDisplay.obj
 0001:00009c1b       ?AddRef@?$CComObject@VCOPOSRemoteOrderDisplay@@@ATL@@WIM@AGKXZ 1000ac1b f i RemoteOrderDisplay.obj
 0001:00009c28       ?AddRef@?$CComObject@VCOPOSRemoteOrderDisplay@@@ATL@@WJA@AGKXZ 1000ac28 f i RemoteOrderDisplay.obj
 0001:00009c35       ?AddRef@?$CComObject@VCOPOSRemoteOrderDisplay@@@ATL@@WJE@AGKXZ 1000ac35 f i RemoteOrderDisplay.obj
 0001:00009c42       ?AddRef@?$CComObject@VCOPOSRemoteOrderDisplay@@@ATL@@WJI@AGKXZ 1000ac42 f i RemoteOrderDisplay.obj
 0001:00009c4f       ?AddRef@?$CComObject@VCOPOSRemoteOrderDisplay@@@ATL@@WJM@AGKXZ 1000ac4f f i RemoteOrderDisplay.obj
 0001:00009c5c       ?AddRef@?$CComObject@VCOPOSRemoteOrderDisplay@@@ATL@@WKA@AGKXZ 1000ac5c f i RemoteOrderDisplay.obj
 0001:00009c69       ?AddRef@?$CComObject@VCOPOSRemoteOrderDisplay@@@ATL@@WKI@AGKXZ 1000ac69 f i RemoteOrderDisplay.obj
 0001:00009c76       ?AddRef@?$CComObject@VCOPOSRemoteOrderDisplay@@@ATL@@WLE@AGKXZ 1000ac76 f i RemoteOrderDisplay.obj
 0001:00009c90       ?AddRef@?$CComObjectCached@VCComClassFactory@ATL@@@ATL@@UAGKXZ 1000ac90 f i RemoteOrderDisplay.obj
 0001:00009ce0       ?AddRef@CRegObject@ATL@@UAGKXZ 1000ace0 f i RemoteOrderDisplay.obj
 0001:00009d30       ?AddReplacement@CRegObject@ATL@@UAGJPB_W0@Z 1000ad30 f i RemoteOrderDisplay.obj
 0001:00009e40       ?AddString@CParseBuffer@CRegParser@ATL@@QAEHPB_W@Z 1000ae40 f i RemoteOrderDisplay.obj
 0001:00009f30       ?AddTermFunc@CAtlModule@ATL@@QAEJP6GXK@ZK@Z 1000af30 f i RemoteOrderDisplay.obj
 0001:00009f80       ?AddValue@CRegParser@ATL@@IAEJAAVCRegKey@2@PB_WPA_W@Z 1000af80 f i RemoteOrderDisplay.obj
 0001:0000a710       ?Advise@?$CProxy_IOPOSEvents@VCOPOSRemoteOrderDisplay@@@@UAGJPAUIUnknown@@PAK@Z 1000b710 f i RemoteOrderDisplay.obj
 0001:0000a760       ?Advise@?$IConnectionPointImpl@VCOPOSRemoteOrderDisplay@@$1?DIID__IOPOSRemoteOrderDisplayEvents@@3U_GUID@@BVCComDynamicUnkArray@ATL@@@ATL@@UAGJPAUIUnknown@@PAK@Z 1000b760 f i RemoteOrderDisplay.obj
 0001:0000a900       ?Advise@?$IConnectionPointImpl@VCOPOSRemoteOrderDisplay@@$1?IID_IPropertyNotifySink@@3U_GUID@@BVCComDynamicUnkArray@ATL@@@ATL@@UAGJPAUIUnknown@@PAK@Z 1000b900 f i RemoteOrderDisplay.obj
 0001:0000aaa0       ?Advise@?$IOleObjectImpl@VCOPOSRemoteOrderDisplay@@@ATL@@UAGJPAUIAdviseSink@@PAK@Z 1000baa0 f i RemoteOrderDisplay.obj
 0001:0000ab30       ?Allocate@?$CAtlSafeAllocBufferManager@VCCRTAllocator@ATL@@@_ATL_SAFE_ALLOCA_IMPL@ATL@@QAEPAXK@Z 1000bb30 f i RemoteOrderDisplay.obj
 0001:0000aba0       ?Allocate@?$CTempBuffer@E$0BAA@VCCRTAllocator@ATL@@@ATL@@QAEPAEI@Z 1000bba0 f i RemoteOrderDisplay.obj
 0001:0000abe0       ?Allocate@?$CTempBuffer@_W$0BAA@VCCRTAllocator@ATL@@@ATL@@QAEPA_WI@Z 1000bbe0 f i RemoteOrderDisplay.obj
 0001:0000ac20       ?Allocate@?$CTempBuffer@_W$0EAA@VCCRTAllocator@ATL@@@ATL@@QAEPA_WI@Z 1000bc20 f i RemoteOrderDisplay.obj
 0001:0000ac60       ?AllocateBytes@?$CTempBuffer@E$0BAA@VCCRTAllocator@ATL@@@ATL@@QAEPAEI@Z 1000bc60 f i RemoteOrderDisplay.obj
 0001:0000ace0       ?AllocateBytes@?$CTempBuffer@_W$0BAA@VCCRTAllocator@ATL@@@ATL@@QAEPA_WI@Z 1000bce0 f i RemoteOrderDisplay.obj
 0001:0000ad60       ?AllocateBytes@?$CTempBuffer@_W$0EAA@VCCRTAllocator@ATL@@@ATL@@QAEPA_WI@Z 1000bd60 f i RemoteOrderDisplay.obj
 0001:0000ade0       ?AllocateHeap@?$CTempBuffer@E$0BAA@VCCRTAllocator@ATL@@@ATL@@AAEXI@Z 1000bde0 f i RemoteOrderDisplay.obj
 0001:0000ae30       ?AllocateHeap@?$CTempBuffer@_W$0BAA@VCCRTAllocator@ATL@@@ATL@@AAEXI@Z 1000be30 f i RemoteOrderDisplay.obj
 0001:0000ae80       ?AllocateHeap@?$CTempBuffer@_W$0EAA@VCCRTAllocator@ATL@@@ATL@@AAEXI@Z 1000be80 f i RemoteOrderDisplay.obj
 0001:0000aed0       ?Append@CParseBuffer@CRegParser@ATL@@QAEHPB_WH@Z 1000bed0 f i RemoteOrderDisplay.obj
 0001:0000b070       ?AtlCallTermFunc@ATL@@YGXPAU_ATL_MODULE70@1@@Z 1000c070 f i RemoteOrderDisplay.obj
 0001:0000b110       ?AtlCoTaskMemCAlloc@ATL@@YAPAXKK@Z 1000c110 f i RemoteOrderDisplay.obj
 0001:0000b1a0       ?AtlCoTaskMemRecalloc@ATL@@YAPAXPAXKK@Z 1000c1a0 f i RemoteOrderDisplay.obj
 0001:0000b240       ?AtlComModuleGetClassObject@ATL@@YGJPAU_ATL_COM_MODULE70@1@ABU_GUID@@1PAPAX@Z 1000c240 f i RemoteOrderDisplay.obj
 0001:0000b4d0       ?AtlComModuleRegisterServer@ATL@@YGJPAU_ATL_COM_MODULE70@1@HPBU_GUID@@@Z 1000c4d0 f i RemoteOrderDisplay.obj
 0001:0000b660       ?AtlComModuleUnregisterServer@ATL@@YGJPAU_ATL_COM_MODULE70@1@HPBU_GUID@@@Z 1000c660 f i RemoteOrderDisplay.obj
 0001:0000b790       ?AtlComQIPtrAssign2@ATL@@YAXPAPAUIUnknown@@PAU2@ABU_GUID@@@Z 1000c790 f i RemoteOrderDisplay.obj
 0001:0000b810       ?AtlCreateTargetDC@ATL@@YGPAUHDC__@@PAU2@PAUtagDVTARGETDEVICE@@@Z 1000c810 f i RemoteOrderDisplay.obj
 0001:0000b9b0       ?AtlCrtErrorCheck@ATL@@YAHH@Z 1000c9b0 f i RemoteOrderDisplay.obj
 0001:0000ba80       ?AtlGetPerUserRegistration@ATL@@YGJPA_N@Z 1000ca80 f i RemoteOrderDisplay.obj
 0001:0000bab0       ?AtlHiMetricToPixel@ATL@@YGXPBUtagSIZE@@PAU2@@Z 1000cab0 f i RemoteOrderDisplay.obj
 0001:0000bc80       ?AtlHresultFromLastError@ATL@@YAJXZ 1000cc80 f i RemoteOrderDisplay.obj
 0001:0000bcc0       ?AtlHresultFromWin32@ATL@@YAJK@Z 1000ccc0 f i RemoteOrderDisplay.obj
 0001:0000bce0       ?AtlIPersistStreamInit_Load@ATL@@YGJPAUIStream@@PBUATL_PROPMAP_ENTRY@1@PAXPAUIUnknown@@@Z 1000cce0 f i RemoteOrderDisplay.obj
 0001:0000c140       ?AtlIPersistStreamInit_Save@ATL@@YGJPAUIStream@@HPBUATL_PROPMAP_ENTRY@1@PAXPAUIUnknown@@@Z 1000d140 f i RemoteOrderDisplay.obj
 0001:0000c520       ?AtlInternalOleLoadFromStream@ATL@@YAJPAUIStream@@ABU_GUID@@PAPAXTClassesAllowedInStream@1@K@Z 1000d520 f i RemoteOrderDisplay.obj
 0001:0000c7c0       ?AtlInternalQueryInterface@ATL@@YGJPAXPBU_ATL_INTMAP_ENTRY@1@ABU_GUID@@PAPAX@Z 1000d7c0 f i RemoteOrderDisplay.obj
 0001:0000c9f0       ?AtlLoadTypeLib@ATL@@YGJPAUHINSTANCE__@@PB_WPAPA_WPAPAUITypeLib@@@Z 1000d9f0 f i RemoteOrderDisplay.obj
 0001:0000ce50       ?AtlModuleAddTermFunc@ATL@@YGJPAU_ATL_MODULE70@1@P6GXK@ZK@Z 1000de50 f i RemoteOrderDisplay.obj
 0001:0000cfb0       ?AtlRegisterClassCategoriesHelper@ATL@@YGJABU_GUID@@PBU_ATL_CATMAP_ENTRY@1@H@Z 1000dfb0 f i RemoteOrderDisplay.obj
 0001:0000d690       ?AtlRegisterTypeLib@ATL@@YGJPAUHINSTANCE__@@PB_W@Z 1000e690 f i RemoteOrderDisplay.obj
 0001:0000d9d0       ?AtlThrowImpl@ATL@@YGXJ@Z  1000e9d0 f i RemoteOrderDisplay.obj
 0001:0000da80       ?AtlUnRegisterTypeLib@ATL@@YGJPAUHINSTANCE__@@PB_W@Z 1000ea80 f i RemoteOrderDisplay.obj
 0001:0000dc90       ?AtlWinModuleAddCreateWndData@ATL@@YGXPAU_ATL_WIN_MODULE70@1@PAU_AtlCreateWndData@1@PAX@Z 1000ec90 f i RemoteOrderDisplay.obj
 0001:0000de00       ?AtlWinModuleExtractCreateWndData@ATL@@YGPAXPAU_ATL_WIN_MODULE70@1@@Z 1000ee00 f i RemoteOrderDisplay.obj
 0001:0000df80       ?AtlWinModuleRegisterClassExW@ATL@@YGGPAU_ATL_WIN_MODULE70@1@PBUtagWNDCLASSEXW@@@Z 1000ef80 f i RemoteOrderDisplay.obj
 0001:0000e050       ?AtlWinModuleRegisterWndClassInfoW@ATL@@YGGPAU_ATL_WIN_MODULE70@1@PAU_ATL_BASE_MODULE70@1@PAU_ATL_WNDCLASSINFOW@1@PAP6GJPAUHWND__@@IIJ@Z@Z 1000f050 f i RemoteOrderDisplay.obj
 0001:0000e0e0       ?Attach@?$CAutoVectorPtr@_W@ATL@@QAEXPA_W@Z 1000f0e0 f i RemoteOrderDisplay.obj
 0001:0000e140       ?Attach@CComBSTR@ATL@@QAEXPA_W@Z 1000f140 f i RemoteOrderDisplay.obj
 0001:0000e190       ?Attach@CRegKey@ATL@@QAEXPAUHKEY__@@@Z 1000f190 f i RemoteOrderDisplay.obj
 0001:0000e200       ?CanForceRemoveKey@CRegParser@ATL@@IAEHPB_W@Z 1000f200 f i RemoteOrderDisplay.obj
 0001:0000e270       ?ChToByte@CRegParser@ATL@@KAE_W@Z 1000f270 f i RemoteOrderDisplay.obj
 0001:0000e390       ?ChangeType@CComVariant@ATL@@QAEJGPBUtagVARIANT@@@Z 1000f390 f i RemoteOrderDisplay.obj
 0001:0000e3f0       ?Cleanup@CComTypeInfoHolder@ATL@@SGXK@Z 1000f3f0 f i RemoteOrderDisplay.obj
 0001:0000e4c0       ?Clear@CComVariant@ATL@@QAEJXZ 1000f4c0 f i RemoteOrderDisplay.obj
 0001:0000e500       ?ClearReplacements@CExpansionVector@ATL@@QAEJXZ 1000f500 f i RemoteOrderDisplay.obj
 0001:0000e590       ?ClearReplacements@CRegObject@ATL@@UAGJXZ 1000f590 f i RemoteOrderDisplay.obj
 0001:0000e5e0       ?Clone@?$CComEnumImpl@UIEnumConnectionPoints@@$1?_GUID_b196b285_bab4_101a_b69c_00aa00341d07@@3U__s_GUID@@BPAUIConnectionPoint@@V?$_CopyInterface@UIConnectionPoint@@@ATL@@@ATL@@UAGJPAPAUIEnumConnectionPoints@@@Z 1000f5e0 f i RemoteOrderDisplay.obj
 0001:0000e750       ?Clone@?$CComEnumImpl@UIEnumConnections@@$1?_GUID_b196b287_bab4_101a_b69c_00aa00341d07@@3U__s_GUID@@BUtagCONNECTDATA@@V?$_Copy@UtagCONNECTDATA@@@ATL@@@ATL@@UAGJPAPAUIEnumConnections@@@Z 1000f750 f i RemoteOrderDisplay.obj
 0001:0000e8c0       ?Close@?$IOleObjectImpl@VCOPOSRemoteOrderDisplay@@@ATL@@UAGJK@Z 1000f8c0 f i RemoteOrderDisplay.obj
 0001:0000e950       ?Close@CRegKey@ATL@@QAEJXZ 1000f950 f i RemoteOrderDisplay.obj
 0001:0000e9c0       ?ContextSensitiveHelp@?$IOleInPlaceActiveObjectImpl@VCOPOSRemoteOrderDisplay@@@ATL@@UAGJH@Z 1000f9c0 f i RemoteOrderDisplay.obj
 0001:0000ea30       ?ContextSensitiveHelp@?$IOleInPlaceObjectWindowlessImpl@VCOPOSRemoteOrderDisplay@@@ATL@@UAGJH@Z 1000fa30 f i RemoteOrderDisplay.obj
 0001:0000eaa0       ?ControlQueryInterface@?$CComControl@VCOPOSRemoteOrderDisplay@@V?$CWindowImpl@VCOPOSRemoteOrderDisplay@@VCWindow@ATL@@V?$CWinTraits@$0FGAAAAAA@$0A@@3@@ATL@@@ATL@@UAEJABU_GUID@@PAPAX@Z 1000faa0 f i RemoteOrderDisplay.obj
 0001:0000eb20       ?CreateControlWindow@?$CComControl@VCOPOSRemoteOrderDisplay@@V?$CWindowImpl@VCOPOSRemoteOrderDisplay@@VCWindow@ATL@@V?$CWinTraits@$0FGAAAAAA@$0A@@3@@ATL@@@ATL@@UAEPAUHWND__@@PAU3@AAUtagRECT@@@Z 1000fb20 f i RemoteOrderDisplay.obj
 0001:0000eba0       ?CreateInstance@?$CComCreator@V?$CComAggObject@VCOPOSRemoteOrderDisplay@@@ATL@@@ATL@@SGJPAXABU_GUID@@PAPAX@Z 1000fba0 f i RemoteOrderDisplay.obj
 0001:0000ed20       ?CreateInstance@?$CComCreator@V?$CComObject@VCOPOSRemoteOrderDisplay@@@ATL@@@ATL@@SGJPAXABU_GUID@@PAPAX@Z 1000fd20 f i RemoteOrderDisplay.obj
 0001:0000eeb0       ?CreateInstance@?$CComObject@V?$CComEnum@UIEnumConnectionPoints@@$1?_GUID_b196b285_bab4_101a_b69c_00aa00341d07@@3U__s_GUID@@BPAUIConnectionPoint@@V?$_CopyInterface@UIConnectionPoint@@@ATL@@VCComSingleThreadModel@6@@ATL@@@ATL@@SGJPAPAV12@@Z 1000feb0 f i RemoteOrderDisplay.obj
 0001:0000f020       ?CreateInstance@?$CComObject@V?$CComEnum@UIEnumConnections@@$1?_GUID_b196b287_bab4_101a_b69c_00aa00341d07@@3U__s_GUID@@BUtagCONNECTDATA@@V?$_Copy@UtagCONNECTDATA@@@ATL@@VCComSingleThreadModel@6@@ATL@@@ATL@@SGJPAPAV12@@Z 10010020 f i RemoteOrderDisplay.obj
 0001:0000f190       ?CreateInstance@CComClassFactory@ATL@@UAGJPAUIUnknown@@ABU_GUID@@PAPAX@Z 10010190 f i RemoteOrderDisplay.obj
 0001:0000f280       ?DAdvise@?$IDataObjectImpl@VCOPOSRemoteOrderDisplay@@@ATL@@UAGJPAUtagFORMATETC@@KPAUIAdviseSink@@PAK@Z 10010280 f i RemoteOrderDisplay.obj
 0001:0000f380       ?DEVMODEOLE2T_EX@@YAPAU_devicemodeW@@PAU1@@Z 10010380 f i RemoteOrderDisplay.obj
 0001:0000f390       ?DUnadvise@?$IDataObjectImpl@VCOPOSRemoteOrderDisplay@@@ATL@@UAGJK@Z 10010390 f i RemoteOrderDisplay.obj
 0001:0000f460       ?Decrement@CComMultiThreadModel@ATL@@SGKPAJ@Z 10010460 f i RemoteOrderDisplay.obj
 0001:0000f480       ?Decrement@CComSingleThreadModel@ATL@@SGKPAJ@Z 10010480 f i RemoteOrderDisplay.obj
 0001:0000f4a0       ?DefWindowProcW@?$CWindowImplBaseT@VCWindow@ATL@@V?$CWinTraits@$0FGAAAAAA@$0A@@2@@ATL@@QAEJIIJ@Z 100104a0 f i RemoteOrderDisplay.obj
 0001:0000f4f0       ?DefaultReflectionHandler@?$CWindowImplRoot@VCWindow@ATL@@@ATL@@SAHPAUHWND__@@IIJAAJ@Z 100104f0 f i RemoteOrderDisplay.obj
 0001:0000f6e0       ?DeleteSubKey@CRegKey@ATL@@QAEJPB_W@Z 100106e0 f i RemoteOrderDisplay.obj
 0001:0000f7f0       ?DeleteValue@CRegKey@ATL@@QAEJPB_W@Z 100107f0 f i RemoteOrderDisplay.obj
 0001:0000f860       ?Detach@?$CAutoVectorPtr@_W@ATL@@QAEPA_WXZ 10010860 f i RemoteOrderDisplay.obj
 0001:0000f890       ?Detach@?$CComPtrBase@UIPersistStream@@@ATL@@QAEPAUIPersistStream@@XZ 10010890 f i RemoteOrderDisplay.obj
 0001:0000f8c0       ?Detach@?$CComPtrBase@UITypeInfo@@@ATL@@QAEPAUITypeInfo@@XZ 100108c0 f i RemoteOrderDisplay.obj
 0001:0000f8f0       ?Detach@?$CComPtrBase@UIUnknown@@@ATL@@QAEPAUIUnknown@@XZ 100108f0 f i RemoteOrderDisplay.obj
 0001:0000f920       ?Detach@CComBSTR@ATL@@QAEPA_WXZ 10010920 f i RemoteOrderDisplay.obj
 0001:0000f950       ?Detach@CParseBuffer@CRegParser@ATL@@QAEPA_WXZ 10010950 f i RemoteOrderDisplay.obj
 0001:0000f9a0       ?Detach@CRegKey@ATL@@QAEPAUHKEY__@@XZ 100109a0 f i RemoteOrderDisplay.obj
 0001:0000f9f0       ?DoEvent@COPOSRemoteOrderDisplay@@IAEXIIJ@Z 100109f0 f i RemoteOrderDisplay.obj
 0001:0000fb30       ?DoVerb@?$IOleObjectImpl@VCOPOSRemoteOrderDisplay@@@ATL@@UAGJJPAUtagMSG@@PAUIOleClientSite@@JPAUHWND__@@PBUtagRECT@@@Z 10010b30 f i RemoteOrderDisplay.obj
 0001:0000fd40       ?DoVerbDiscardUndo@?$IOleObjectImpl@VCOPOSRemoteOrderDisplay@@@ATL@@QAEJPBUtagRECT@@PAUHWND__@@@Z 10010d40 f i RemoteOrderDisplay.obj
 0001:0000fdb0       ?DoVerbHide@?$IOleObjectImpl@VCOPOSRemoteOrderDisplay@@@ATL@@QAEJPBUtagRECT@@PAUHWND__@@@Z 10010db0 f i RemoteOrderDisplay.obj
 0001:0000fe60       ?DoVerbInPlaceActivate@?$IOleObjectImpl@VCOPOSRemoteOrderDisplay@@@ATL@@QAEJPBUtagRECT@@PAUHWND__@@@Z 10010e60 f i RemoteOrderDisplay.obj
 0001:0000ff00       ?DoVerbOpen@?$IOleObjectImpl@VCOPOSRemoteOrderDisplay@@@ATL@@QAEJPBUtagRECT@@PAUHWND__@@@Z 10010f00 f i RemoteOrderDisplay.obj
 0001:0000ff70       ?DoVerbPrimary@?$IOleObjectImpl@VCOPOSRemoteOrderDisplay@@@ATL@@QAEJPBUtagRECT@@PAUHWND__@@@Z 10010f70 f i RemoteOrderDisplay.obj
 0001:00010080       ?DoVerbProperties@CComControlBase@ATL@@QAEJPBUtagRECT@@PAUHWND__@@@Z 10011080 f i RemoteOrderDisplay.obj
 0001:000103a0       ?DoVerbShow@?$IOleObjectImpl@VCOPOSRemoteOrderDisplay@@@ATL@@QAEJPBUtagRECT@@PAUHWND__@@@Z 100113a0 f i RemoteOrderDisplay.obj
 0001:00010430       ?DoVerbUIActivate@?$IOleObjectImpl@VCOPOSRemoteOrderDisplay@@@ATL@@QAEJPBUtagRECT@@PAUHWND__@@@Z 10011430 f i RemoteOrderDisplay.obj
 0001:000104d0       ?DoesVerbActivate@CComControlBase@ATL@@QAEHJ@Z 100114d0 f i RemoteOrderDisplay.obj
 0001:00010540       ?DoesVerbUIActivate@CComControlBase@ATL@@QAEHJ@Z 10011540 f i RemoteOrderDisplay.obj
 0001:000105c0       ?Draw@?$IViewObjectExImpl@VCOPOSRemoteOrderDisplay@@@ATL@@UAGJKJPAXPAUtagDVTARGETDEVICE@@PAUHDC__@@2PBU_RECTL@@3P6GHK@ZK@Z 100115c0 f i RemoteOrderDisplay.obj
 0001:00010660       ?Empty@CComBSTR@ATL@@QAEXXZ 10011660 f i RemoteOrderDisplay.obj
 0001:000106a0       ?EnableModeless@?$IOleInPlaceActiveObjectImpl@VCOPOSRemoteOrderDisplay@@@ATL@@UAGJH@Z 100116a0 f i RemoteOrderDisplay.obj
 0001:00010700       ?EndOfVar@CRegParser@ATL@@IAEHXZ 10011700 f i RemoteOrderDisplay.obj
 0001:00010770       ?EnsureTI@CComTypeInfoHolder@ATL@@QAEJK@Z 10011770 f i RemoteOrderDisplay.obj
 0001:000107d0       ?EnumAdvise@?$IOleObjectImpl@VCOPOSRemoteOrderDisplay@@@ATL@@UAGJPAPAUIEnumSTATDATA@@@Z 100117d0 f i RemoteOrderDisplay.obj
 0001:000108e0       ?EnumConnectionPoints@?$IConnectionPointContainerImpl@VCOPOSRemoteOrderDisplay@@@ATL@@UAGJPAPAUIEnumConnectionPoints@@@Z 100118e0 f i RemoteOrderDisplay.obj
 0001:00010d10       ?EnumConnections@?$IConnectionPointImpl@VCOPOSRemoteOrderDisplay@@$1?DIID__IOPOSRemoteOrderDisplayEvents@@3U_GUID@@BVCComDynamicUnkArray@ATL@@@ATL@@UAGJPAPAUIEnumConnections@@@Z 10011d10 f i RemoteOrderDisplay.obj
 0001:00010f60       ?EnumConnections@?$IConnectionPointImpl@VCOPOSRemoteOrderDisplay@@$1?IID_IPropertyNotifySink@@3U_GUID@@BVCComDynamicUnkArray@ATL@@@ATL@@UAGJPAPAUIEnumConnections@@@Z 10011f60 f i RemoteOrderDisplay.obj
 0001:000111b0       ?EnumDAdvise@?$IDataObjectImpl@VCOPOSRemoteOrderDisplay@@@ATL@@UAGJPAPAUIEnumSTATDATA@@@Z 100121b0 f i RemoteOrderDisplay.obj
 0001:000112b0       ?EnumFormatEtc@?$IDataObjectImpl@VCOPOSRemoteOrderDisplay@@@ATL@@UAGJKPAPAUIEnumFORMATETC@@@Z 100122b0 f i RemoteOrderDisplay.obj
 0001:00011320       ?EnumVerbs@?$IOleObjectImpl@VCOPOSRemoteOrderDisplay@@@ATL@@UAGJPAPAUIEnumOLEVERB@@@Z 10012320 f i RemoteOrderDisplay.obj
 0001:000113d0       ?EscapeSingleQuote@CAtlModule@ATL@@SAXPA_WIPB_W@Z 100123d0 f i RemoteOrderDisplay.obj
 0001:00011480       ?ExtractCreateWndData@CAtlWinModule@ATL@@QAEPAXXZ 10012480 f i RemoteOrderDisplay.obj
 0001:000114b0       ?FAccessAllowed@?$IObjectSafetyImpl@VCOPOSRemoteOrderDisplay@@$02@ATL@@MAEHXZ 100124b0 f i RemoteOrderDisplay.obj
 0001:000114d0       ?FinalConstruct@?$CComAggObject@VCOPOSRemoteOrderDisplay@@@ATL@@QAEJXZ 100124d0 f i RemoteOrderDisplay.obj
 0001:00011510       ?FinalConstruct@CComObjectRootBase@ATL@@QAEJXZ 10012510 f i RemoteOrderDisplay.obj
 0001:00011530       ?FinalConstruct@CRegObject@ATL@@QAEJXZ 10012530 f i RemoteOrderDisplay.obj
 0001:00011560       ?FinalRelease@?$CComAggObject@VCOPOSRemoteOrderDisplay@@@ATL@@QAEXXZ 10012560 f i RemoteOrderDisplay.obj
 0001:000115a0       ?FinalRelease@CComObjectRootBase@ATL@@QAEXXZ 100125a0 f i RemoteOrderDisplay.obj
 0001:000115c0       ?FindConnectionPoint@?$IConnectionPointContainerImpl@VCOPOSRemoteOrderDisplay@@@ATL@@UAGJABU_GUID@@PAPAUIConnectionPoint@@@Z 100125c0 f i RemoteOrderDisplay.obj
 0001:00011710       ?FindKey@?$CSimpleMap@PA_WPA_WVCExpansionVectorEqualHelper@ATL@@@ATL@@QBEHABQA_W@Z 10012710 f i RemoteOrderDisplay.obj
 0001:00011780       ?FireTheEvent@?$CProxy_IOPOSEvents@VCOPOSRemoteOrderDisplay@@@@IAEXPAUIUnknown@@PAVOposVariant@@IAAJPB_WJ@Z 10012780 f i RemoteOrderDisplay.obj
 0001:000118f0       ?FireViewChange@CComControlBase@ATL@@QAEJXZ 100128f0 f i RemoteOrderDisplay.obj
 0001:000119b0       ?Fire_DataEvent@?$CProxy_IOPOSEvents@VCOPOSRemoteOrderDisplay@@@@QAEXJ@Z 100129b0 f i RemoteOrderDisplay.obj
 0001:00011b10       ?Fire_DirectIOEvent@?$CProxy_IOPOSEvents@VCOPOSRemoteOrderDisplay@@@@QAEXJPAJPAPA_W@Z 10012b10 f i RemoteOrderDisplay.obj
 0001:00011ce0       ?Fire_ErrorEvent@?$CProxy_IOPOSEvents@VCOPOSRemoteOrderDisplay@@@@QAEXJJJPAJ@Z 10012ce0 f i RemoteOrderDisplay.obj
 0001:00011ed0       ?Fire_OutputCompleteEvent@?$CProxy_IOPOSEvents@VCOPOSRemoteOrderDisplay@@@@QAEXJ@Z 10012ed0 f i RemoteOrderDisplay.obj
 0001:00012030       ?Fire_StatusUpdateEvent@?$CProxy_IOPOSEvents@VCOPOSRemoteOrderDisplay@@@@QAEXJ@Z 10013030 f i RemoteOrderDisplay.obj
 0001:00012190       ?FormatWindowClassName@AtlModuleRegisterWndClassInfoParamW@ATL@@SAXPA_WKPAX@Z 10013190 f i RemoteOrderDisplay.obj
 0001:000121c0       ?Free@?$CAutoVectorPtr@_W@ATL@@QAEXXZ 100131c0 f i RemoteOrderDisplay.obj
 0001:00012210       ?FreeHeap@?$CTempBuffer@E$0BAA@VCCRTAllocator@ATL@@@ATL@@AAEXXZ 10013210 f i RemoteOrderDisplay.obj
 0001:00012240       ?FreeHeap@?$CTempBuffer@_W$0BAA@VCCRTAllocator@ATL@@@ATL@@AAEXXZ 10013240 f i RemoteOrderDisplay.obj
 0001:00012270       ?FreeHeap@?$CTempBuffer@_W$0EAA@VCCRTAllocator@ATL@@@ATL@@AAEXXZ 10013270 f i RemoteOrderDisplay.obj
 0001:000122a0       ?Freeze@?$IViewObjectExImpl@VCOPOSRemoteOrderDisplay@@@ATL@@UAGJKJPAXPAK@Z 100132a0 f i RemoteOrderDisplay.obj
 0001:00012310       ?GenerateError@CRegParser@ATL@@IAEJI@Z 10013310 f i RemoteOrderDisplay.obj
 0001:00012330       ?GetAdvise@?$IViewObjectExImpl@VCOPOSRemoteOrderDisplay@@@ATL@@UAGJPAK0PAPAUIAdviseSink@@@Z 10013330 f i RemoteOrderDisplay.obj
 0001:00012430       ?GetAmbientLocaleID@CComControlBase@ATL@@QAEJAAK@Z 10013430 f i RemoteOrderDisplay.obj
 0001:00012510       ?GetAmbientProperty@CComControlBase@ATL@@QAEJJAAUtagVARIANT@@@Z 10013510 f i RemoteOrderDisplay.obj
 0001:00012560       ?GetAmbientUserMode@CComControlBase@ATL@@QAEJAAH@Z 10013560 f i RemoteOrderDisplay.obj
 0001:00012660       ?GetAppId@?$CAtlModuleT@VCComModule@ATL@@@ATL@@SAPB_WXZ 10013660 f i RemoteOrderDisplay.obj
 0001:00012670       ?GetAt@CComDynamicUnkArray@ATL@@QAEPAUIUnknown@@H@Z 10013670 f i RemoteOrderDisplay.obj
 0001:000126f0       ?GetCanonicalFormatEtc@?$IDataObjectImpl@VCOPOSRemoteOrderDisplay@@@ATL@@UAGJPAUtagFORMATETC@@0@Z 100136f0 f i RemoteOrderDisplay.obj
 0001:00012760       ?GetClassID@?$IPersistStorageImpl@VCOPOSRemoteOrderDisplay@@@ATL@@UAGJPAU_GUID@@@Z 10013760 f i RemoteOrderDisplay.obj
 0001:000127e0       ?GetClassID@?$IPersistStreamInitImpl@VCOPOSRemoteOrderDisplay@@@ATL@@UAGJPAU_GUID@@@Z 100137e0 f i RemoteOrderDisplay.obj
 0001:00012860       ?GetClassInfoExW@AtlModuleRegisterWndClassInfoParamW@ATL@@SAHPAUHINSTANCE__@@PB_WPAUtagWNDCLASSEXW@@@Z 10013860 f i RemoteOrderDisplay.obj
 0001:00012890       ?GetClassInfoW@?$IProvideClassInfo2Impl@$1?CLSID_OPOSRemoteOrderDisplay@@3U_GUID@@B$1?DIID__IOPOSRemoteOrderDisplayEvents@@3U2@B$1?LIBID_OposRemoteOrderDisplay_CCO@@3U2@B$00$0A@VCComTypeInfoHolder@ATL@@@ATL@@UAGJPAPAUITypeInfo@@@Z 10013890 f i RemoteOrderDisplay.obj
 0001:000128b0       ?GetClassObject@CComModule@ATL@@QAEJABU_GUID@@0PAPAX@Z 100138b0 f i RemoteOrderDisplay.obj
 0001:00012ab0       ?GetClientSite@?$IOleObjectImpl@VCOPOSRemoteOrderDisplay@@@ATL@@UAGJPAPAUIOleClientSite@@@Z 10013ab0 f i RemoteOrderDisplay.obj
 0001:00012b40       ?GetClipboardData@?$IOleObjectImpl@VCOPOSRemoteOrderDisplay@@@ATL@@UAGJKPAPAUIDataObject@@@Z 10013b40 f i RemoteOrderDisplay.obj
 0001:00012bb0       ?GetCodeAddress@CDynamicStdCallThunk2@ATL@@QAEPAXXZ 10013bb0 f i RemoteOrderDisplay.obj
 0001:00012be0       ?GetColorSet@?$IViewObjectExImpl@VCOPOSRemoteOrderDisplay@@@ATL@@UAGJKJPAXPAUtagDVTARGETDEVICE@@PAUHDC__@@PAPAUtagLOGPALETTE@@@Z 10013be0 f i RemoteOrderDisplay.obj
 0001:00012c50       ?GetConnMap@COPOSRemoteOrderDisplay@@SAPBU_ATL_CONNMAP_ENTRY@ATL@@PAH@Z 10013c50 f i RemoteOrderDisplay.obj
 0001:00012d90       ?GetConnectionInterface@?$IConnectionPointImpl@VCOPOSRemoteOrderDisplay@@$1?DIID__IOPOSRemoteOrderDisplayEvents@@3U_GUID@@BVCComDynamicUnkArray@ATL@@@ATL@@UAGJPAU_GUID@@@Z 10013d90 f i RemoteOrderDisplay.obj
 0001:00012dd0       ?GetConnectionInterface@?$IConnectionPointImpl@VCOPOSRemoteOrderDisplay@@$1?IID_IPropertyNotifySink@@3U_GUID@@BVCComDynamicUnkArray@ATL@@@ATL@@UAGJPAU_GUID@@@Z 10013dd0 f i RemoteOrderDisplay.obj
 0001:00012e10       ?GetConnectionPointContainer@?$IConnectionPointImpl@VCOPOSRemoteOrderDisplay@@$1?DIID__IOPOSRemoteOrderDisplayEvents@@3U_GUID@@BVCComDynamicUnkArray@ATL@@@ATL@@UAGJPAPAUIConnectionPointContainer@@@Z 10013e10 f i RemoteOrderDisplay.obj
 0001:00012e80       ?GetConnectionPointContainer@?$IConnectionPointImpl@VCOPOSRemoteOrderDisplay@@$1?IID_IPropertyNotifySink@@3U_GUID@@BVCComDynamicUnkArray@ATL@@@ATL@@UAGJPAPAUIConnectionPointContainer@@@Z 10013e80 f i RemoteOrderDisplay.obj
 0001:00012ef0       ?GetContentExtent@?$IQuickActivateImpl@VCOPOSRemoteOrderDisplay@@@ATL@@UAGJPAUtagSIZE@@@Z 10013ef0 f i RemoteOrderDisplay.obj
 0001:00012f80       ?GetControlInfo@?$IOleControlImpl@VCOPOSRemoteOrderDisplay@@@ATL@@UAGJPAUtagCONTROLINFO@@@Z 10013f80 f i RemoteOrderDisplay.obj
 0001:00012ff0       ?GetCookie@CComDynamicUnkArray@ATL@@QAGKPAPAUIUnknown@@@Z 10013ff0 f i RemoteOrderDisplay.obj
 0001:000130b0       ?GetData@?$IDataObjectImpl@VCOPOSRemoteOrderDisplay@@@ATL@@UAGJPAUtagFORMATETC@@PAUtagSTGMEDIUM@@@Z 100140b0 f i RemoteOrderDisplay.obj
 0001:00013140       ?GetData@CAtlSafeAllocBufferNode@?$CAtlSafeAllocBufferManager@VCCRTAllocator@ATL@@@_ATL_SAFE_ALLOCA_IMPL@ATL@@QAEPAXXZ 10014140 f i RemoteOrderDisplay.obj
 0001:00013160       ?GetDataHere@?$IDataObjectImpl@VCOPOSRemoteOrderDisplay@@@ATL@@UAGJPAUtagFORMATETC@@PAUtagSTGMEDIUM@@@Z 10014160 f i RemoteOrderDisplay.obj
 0001:000131d0       ?GetDropTarget@?$IOleInPlaceObjectWindowlessImpl@VCOPOSRemoteOrderDisplay@@@ATL@@UAGJPAPAUIDropTarget@@@Z 100141d0 f i RemoteOrderDisplay.obj
 0001:00013240       ?GetExtent@?$IOleObjectImpl@VCOPOSRemoteOrderDisplay@@@ATL@@UAGJKPAUtagSIZE@@@Z 10014240 f i RemoteOrderDisplay.obj
 0001:000132e0       ?GetExtent@?$IViewObjectExImpl@VCOPOSRemoteOrderDisplay@@@ATL@@UAGJKJPAUtagDVTARGETDEVICE@@PAUtagSIZE@@@Z 100142e0 f i RemoteOrderDisplay.obj
 0001:000133b0       ?GetGITPtr@CAtlModule@ATL@@UAEJPAPAUIGlobalInterfaceTable@@@Z 100143b0 f i RemoteOrderDisplay.obj
 0001:000134b0       ?GetGUID@?$IProvideClassInfo2Impl@$1?CLSID_OPOSRemoteOrderDisplay@@3U_GUID@@B$1?DIID__IOPOSRemoteOrderDisplayEvents@@3U2@B$1?LIBID_OposRemoteOrderDisplay_CCO@@3U2@B$00$0A@VCComTypeInfoHolder@ATL@@@ATL@@UAGJKPAU_GUID@@@Z 100144b0 f i RemoteOrderDisplay.obj
 0001:00013530       ?GetIDsOfNames@?$IDispatchImpl@UIOPOSRemoteOrderDisplay@@$1?IID_IOPOSRemoteOrderDisplay@@3U_GUID@@B$1?LIBID_OposRemoteOrderDisplay_CCO@@3U3@B$00$0A@VCComTypeInfoHolder@ATL@@@ATL@@UAGJABU_GUID@@PAPA_WIKPAJ@Z 10014530 f i RemoteOrderDisplay.obj
 0001:00013560       ?GetIDsOfNames@CComTypeInfoHolder@ATL@@QAEJABU_GUID@@PAPA_WIKPAJ@Z 10014560 f i RemoteOrderDisplay.obj
 0001:00013710       ?GetInterfaceSafetyOptions@?$IObjectSafetyImpl@VCOPOSRemoteOrderDisplay@@$02@ATL@@UAGJABU_GUID@@PAK1@Z 10014710 f i RemoteOrderDisplay.obj
 0001:00013880       ?GetKeyAt@?$CSimpleMap@PA_WPA_WVCExpansionVectorEqualHelper@ATL@@@ATL@@QBEAAPA_WH@Z 10014880 f i RemoteOrderDisplay.obj
 0001:00013900       ?GetLockCount@CAtlModule@ATL@@UAEJXZ 10014900 f i RemoteOrderDisplay.obj
 0001:00013920       ?GetMiscStatus@?$IOleObjectImpl@VCOPOSRemoteOrderDisplay@@@ATL@@UAGJKPAK@Z 10014920 f i RemoteOrderDisplay.obj
 0001:00013990       ?GetMoniker@?$IOleObjectImpl@VCOPOSRemoteOrderDisplay@@@ATL@@UAGJKKPAPAUIMoniker@@@Z 10014990 f i RemoteOrderDisplay.obj
 0001:00013a00       ?GetNaturalExtent@?$IViewObjectExImpl@VCOPOSRemoteOrderDisplay@@@ATL@@UAGJKJPAUtagDVTARGETDEVICE@@PAUHDC__@@PAUtagExtentInfo@@PAUtagSIZE@@@Z 10014a00 f i RemoteOrderDisplay.obj
 0001:00013b20       ?GetObjectCLSID@?$CComCoClass@VCOPOSRemoteOrderDisplay@@$1?CLSID_OPOSRemoteOrderDisplay@@3U_GUID@@B@ATL@@SGABU_GUID@@XZ 10014b20 f i RemoteOrderDisplay.obj
 0001:00013b30       ?GetPages@?$ISpecifyPropertyPagesImpl@VCOPOSRemoteOrderDisplay@@@ATL@@UAGJPAUtagCAUUID@@@Z 10014b30 f i RemoteOrderDisplay.obj
 0001:00013ba0       ?GetPagesHelper@?$ISpecifyPropertyPagesImpl@VCOPOSRemoteOrderDisplay@@@ATL@@IAEJPAUtagCAUUID@@PBUATL_PROPMAP_ENTRY@2@@Z 10014ba0 f i RemoteOrderDisplay.obj
 0001:00013da0       ?GetProperty@?$CComPtr@UIDispatch@@@ATL@@QAEJJPAUtagVARIANT@@@Z 10014da0 f i RemoteOrderDisplay.obj
 0001:00013de0       ?GetProperty@?$CComPtr@UIDispatch@@@ATL@@SAJPAUIDispatch@@JPAUtagVARIANT@@@Z 10014de0 f i RemoteOrderDisplay.obj
 0001:00013f40       ?GetPropertyMap@COPOSRemoteOrderDisplay@@SAPBUATL_PROPMAP_ENTRY@ATL@@XZ 10014f40 f i RemoteOrderDisplay.obj
 0001:00013f50       ?GetRect@?$IViewObjectExImpl@VCOPOSRemoteOrderDisplay@@@ATL@@UAGJKPAU_RECTL@@@Z 10014f50 f i RemoteOrderDisplay.obj
 0001:00013fc0       ?GetSize@?$CSimpleMap@PA_WPA_WVCExpansionVectorEqualHelper@ATL@@@ATL@@QBEHXZ 10014fc0 f i RemoteOrderDisplay.obj
 0001:00013fe0       ?GetSize@CComDynamicUnkArray@ATL@@QBEHXZ 10014fe0 f i RemoteOrderDisplay.obj
 0001:00014000       ?GetSizeMax@?$IPersistStreamInitImpl@VCOPOSRemoteOrderDisplay@@@ATL@@UAGJPAT_ULARGE_INTEGER@@@Z 10015000 f i RemoteOrderDisplay.obj
 0001:00014570       ?GetSizeMax@CComVariant@ATL@@QBEJPAT_ULARGE_INTEGER@@@Z 10015570 f i RemoteOrderDisplay.obj
 0001:000148d0       ?GetStreamSize@CComBSTR@ATL@@SAKPA_W@Z 100158d0 f i RemoteOrderDisplay.obj
 0001:00014920       ?GetTI@CComTypeInfoHolder@ATL@@QAEJK@Z 10015920 f i RemoteOrderDisplay.obj
 0001:00015130       ?GetTI@CComTypeInfoHolder@ATL@@QAEJKPAPAUITypeInfo@@@Z 10016130 f i RemoteOrderDisplay.obj
 0001:000151f0       ?GetTypeInfo@?$IDispatchImpl@UIOPOSRemoteOrderDisplay@@$1?IID_IOPOSRemoteOrderDisplay@@3U_GUID@@B$1?LIBID_OposRemoteOrderDisplay_CCO@@3U3@B$00$0A@VCComTypeInfoHolder@ATL@@@ATL@@UAGJIKPAPAUITypeInfo@@@Z 100161f0 f i RemoteOrderDisplay.obj
 0001:00015220       ?GetTypeInfo@CComTypeInfoHolder@ATL@@QAEJIKPAPAUITypeInfo@@@Z 10016220 f i RemoteOrderDisplay.obj
 0001:00015260       ?GetTypeInfoCount@?$IDispatchImpl@UIOPOSRemoteOrderDisplay@@$1?IID_IOPOSRemoteOrderDisplay@@3U_GUID@@B$1?LIBID_OposRemoteOrderDisplay_CCO@@3U3@B$00$0A@VCComTypeInfoHolder@ATL@@@ATL@@UAGJPAI@Z 10016260 f i RemoteOrderDisplay.obj
 0001:00015280       ?GetUnknown@CComDynamicUnkArray@ATL@@QAGPAUIUnknown@@K@Z 10016280 f i RemoteOrderDisplay.obj
 0001:000152f0       ?GetUnknown@COPOSRemoteOrderDisplay@@QAEPAUIUnknown@@XZ 100162f0 f i RemoteOrderDisplay.obj
 0001:00015320       ?GetUserClassID@?$IOleObjectImpl@VCOPOSRemoteOrderDisplay@@@ATL@@UAGJPAU_GUID@@@Z 10016320 f i RemoteOrderDisplay.obj
 0001:000153d0       ?GetUserType@?$IOleObjectImpl@VCOPOSRemoteOrderDisplay@@@ATL@@UAGJKPAPA_W@Z 100163d0 f i RemoteOrderDisplay.obj
 0001:00015440       ?GetValueAt@?$CSimpleMap@PA_WPA_WVCExpansionVectorEqualHelper@ATL@@@ATL@@QBEAAPA_WH@Z 10016440 f i RemoteOrderDisplay.obj
 0001:000154c0       ?GetViewStatus@?$IViewObjectExImpl@VCOPOSRemoteOrderDisplay@@@ATL@@UAGJPAK@Z 100164c0 f i RemoteOrderDisplay.obj
 0001:00015580       ?GetWNDPROC@CWndProcThunk@ATL@@QAEP6GJPAUHWND__@@IIJ@ZXZ 10016580 f i RemoteOrderDisplay.obj
 0001:000155b0       ?GetWindow@?$IOleInPlaceActiveObjectImpl@VCOPOSRemoteOrderDisplay@@@ATL@@UAGJPAPAUHWND__@@@Z 100165b0 f i RemoteOrderDisplay.obj
 0001:00015680       ?GetWindow@?$IOleInPlaceObjectWindowlessImpl@VCOPOSRemoteOrderDisplay@@@ATL@@UAGJPAPAUHWND__@@@Z 10016680 f i RemoteOrderDisplay.obj
 0001:00015750       ?GetWindowLongPtrW@@YAJPAUHWND__@@H@Z 10016750 f i RemoteOrderDisplay.obj
 0001:00015780       ?GetWindowProc@?$CWindowImplBaseT@VCWindow@ATL@@V?$CWinTraits@$0FGAAAAAA@$0A@@2@@ATL@@UAEP6GJPAUHWND__@@IIJ@ZXZ 10016780 f i RemoteOrderDisplay.obj
 0001:000157a0       ?GetWndCaption@?$CWindowImpl@VCOPOSRemoteOrderDisplay@@VCWindow@ATL@@V?$CWinTraits@$0FGAAAAAA@$0A@@3@@ATL@@SAPB_WXZ 100167a0 f i RemoteOrderDisplay.obj
 0001:000157b0       ?GetWndClassInfo@?$CWindowImpl@VCOPOSRemoteOrderDisplay@@VCWindow@ATL@@V?$CWinTraits@$0FGAAAAAA@$0A@@3@@ATL@@SAAAU_ATL_WNDCLASSINFOW@2@XZ 100167b0 f i RemoteOrderDisplay.obj
 0001:000157c0       ?GetWndClassName@CWindow@ATL@@SAPB_WXZ 100167c0 f i RemoteOrderDisplay.obj
 0001:000157d0       ?GetWndExStyle@?$CWinTraits@$0FGAAAAAA@$0A@@ATL@@SAKK@Z 100167d0 f i RemoteOrderDisplay.obj
 0001:00015800       ?GetWndExStyle@?$CWindowImplBaseT@VCWindow@ATL@@V?$CWinTraits@$0FGAAAAAA@$0A@@2@@ATL@@SAKK@Z 10016800 f i RemoteOrderDisplay.obj
 0001:00015820       ?GetWndStyle@?$CWinTraits@$0FGAAAAAA@$0A@@ATL@@SAKK@Z 10016820 f i RemoteOrderDisplay.obj
 0001:00015850       ?GetWndStyle@?$CWindowImplBaseT@VCWindow@ATL@@V?$CWinTraits@$0FGAAAAAA@$0A@@2@@ATL@@SAKK@Z 10016850 f i RemoteOrderDisplay.obj
 0001:00015870       ?GetZoomInfo@CComControlBase@ATL@@QAEXAAUATL_DRAWINFO@@@Z 10016870 f i RemoteOrderDisplay.obj
 0001:000159e0       ?HKeyFromString@CRegParser@ATL@@KAPAUHKEY__@@PA_W@Z 100169e0 f i RemoteOrderDisplay.obj
 0001:00015a50       ?HandsOffStorage@?$IPersistStorageImpl@VCOPOSRemoteOrderDisplay@@@ATL@@UAGJXZ 10016a50 f i RemoteOrderDisplay.obj
 0001:00015ab0       ?HasSubKeys@CRegParser@ATL@@IAEHPAUHKEY__@@@Z 10016ab0 f i RemoteOrderDisplay.obj
 0001:00015bc0       ?IDataObject_GetData@CComControlBase@ATL@@QAEJPAUtagFORMATETC@@PAUtagSTGMEDIUM@@@Z 10016bc0 f i RemoteOrderDisplay.obj
 0001:00015fe0       ?IOleInPlaceObject_InPlaceDeactivate@CComControlBase@ATL@@QAEJXZ 10016fe0 f i RemoteOrderDisplay.obj
 0001:000161e0       ?IOleInPlaceObject_SetObjectRects@CComControlBase@ATL@@QAEJPBUtagRECT@@0@Z 100171e0 f i RemoteOrderDisplay.obj
 0001:000163a0       ?IOleInPlaceObject_UIDeactivate@CComControlBase@ATL@@QAEJXZ 100173a0 f i RemoteOrderDisplay.obj
 0001:00016610       ?IOleObject_Advise@CComControlBase@ATL@@QAEJPAUIAdviseSink@@PAK@Z 10017610 f i RemoteOrderDisplay.obj
 0001:000166c0       ?IOleObject_Close@CComControlBase@ATL@@QAEJK@Z 100176c0 f i RemoteOrderDisplay.obj
 0001:00016970       ?IOleObject_GetClientSite@CComControlBase@ATL@@QAEJPAPAUIOleClientSite@@@Z 10017970 f i RemoteOrderDisplay.obj
 0001:00016a10       ?IOleObject_SetClientSite@CComControlBase@ATL@@QAEJPAUIOleClientSite@@@Z 10017a10 f i RemoteOrderDisplay.obj
 0001:00016ae0       ?IOleObject_SetExtent@CComControlBase@ATL@@QAEJKPAUtagSIZE@@@Z 10017ae0 f i RemoteOrderDisplay.obj
 0001:00016c20       ?IPSI_GetIPersistStreamInit@?$IPersistStorageImpl@VCOPOSRemoteOrderDisplay@@@ATL@@AAEPAUIPersistStreamInit@@XZ 10017c20 f i RemoteOrderDisplay.obj
 0001:00016cf0       ?IPersistStreamInit_Load@?$IPersistStreamInitImpl@VCOPOSRemoteOrderDisplay@@@ATL@@QAEJPAUIStream@@PBUATL_PROPMAP_ENTRY@2@@Z 10017cf0 f i RemoteOrderDisplay.obj
 0001:00016d70       ?IPersistStreamInit_Save@?$IPersistStreamInitImpl@VCOPOSRemoteOrderDisplay@@@ATL@@QAEJPAUIStream@@HPBUATL_PROPMAP_ENTRY@2@@Z 10017d70 f i RemoteOrderDisplay.obj
 0001:00016e00       ?IQuickActivate_QuickActivate@CComControlBase@ATL@@QAEJPAUtagQACONTAINER@@PAUtagQACONTROL@@@Z 10017e00 f i RemoteOrderDisplay.obj
 0001:00017450       ?IViewObject_Draw@CComControlBase@ATL@@QAEJKJPAXPAUtagDVTARGETDEVICE@@PAUHDC__@@2PBU_RECTL@@3@Z 10018450 f i RemoteOrderDisplay.obj
 0001:000176f0       ?InPlaceActivate@CComControlBase@ATL@@QAEJJPBUtagRECT@@@Z 100186f0 f i RemoteOrderDisplay.obj
 0001:00018080       ?InPlaceDeactivate@?$IOleInPlaceObjectWindowlessImpl@VCOPOSRemoteOrderDisplay@@@ATL@@UAGJXZ 10019080 f i RemoteOrderDisplay.obj
 0001:00018100       ?Increment@CComMultiThreadModel@ATL@@SGKPAJ@Z 10019100 f i RemoteOrderDisplay.obj
 0001:00018120       ?Increment@CComSingleThreadModel@ATL@@SGKPAJ@Z 10019120 f i RemoteOrderDisplay.obj
 0001:00018140       ?Init@?$CComEnumImpl@UIEnumConnectionPoints@@$1?_GUID_b196b285_bab4_101a_b69c_00aa00341d07@@3U__s_GUID@@BPAUIConnectionPoint@@V?$_CopyInterface@UIConnectionPoint@@@ATL@@@ATL@@QAEJPAPAUIConnectionPoint@@0PAUIUnknown@@W4CComEnumFlags@2@@Z 10019140 f i RemoteOrderDisplay.obj
 0001:00018320       ?Init@?$CComEnumImpl@UIEnumConnections@@$1?_GUID_b196b287_bab4_101a_b69c_00aa00341d07@@3U__s_GUID@@BUtagCONNECTDATA@@V?$_Copy@UtagCONNECTDATA@@@ATL@@@ATL@@QAEJPAUtagCONNECTDATA@@0PAUIUnknown@@W4CComEnumFlags@2@@Z 10019320 f i RemoteOrderDisplay.obj
 0001:00018500       ?Init@CComFakeCriticalSection@ATL@@QAEJXZ 10019500 f i RemoteOrderDisplay.obj
 0001:00018520       ?Init@CComModule@ATL@@QAEJPAU_ATL_OBJMAP_ENTRY30@2@PAUHINSTANCE__@@PBU_GUID@@@Z 10019520 f i RemoteOrderDisplay.obj
 0001:00018610       ?Init@CComSafeDeleteCriticalSection@ATL@@QAEJXZ 10019610 f i RemoteOrderDisplay.obj
 0001:00018690       ?Init@CDynamicStdCallThunk2@ATL@@QAEHKPAX@Z 10019690 f i RemoteOrderDisplay.obj
 0001:000186f0       ?Init@CWndProcThunk@ATL@@QAEHP6GJPAUHWND__@@IIJ@ZPAX@Z 100196f0 f i RemoteOrderDisplay.obj
 0001:00018730       ?InitFromData@?$IOleObjectImpl@VCOPOSRemoteOrderDisplay@@@ATL@@UAGJPAUIDataObject@@HK@Z 10019730 f i RemoteOrderDisplay.obj
 0001:000187a0       ?InitLibId@?$CAtlModuleT@VCComModule@ATL@@@ATL@@SAXXZ 100197a0 f i RemoteOrderDisplay.obj
 0001:000187b0       ?InitNew@?$IPersistStorageImpl@VCOPOSRemoteOrderDisplay@@@ATL@@UAGJPAUIStorage@@@Z 100197b0 f i RemoteOrderDisplay.obj
 0001:000188a0       ?InitNew@?$IPersistStreamInitImpl@VCOPOSRemoteOrderDisplay@@@ATL@@UAGJXZ 100198a0 f i RemoteOrderDisplay.obj
 0001:00018930       ?InlineIsEqualUnknown@ATL@@YGHABU_GUID@@@Z 10019930 f i RemoteOrderDisplay.obj
 0001:000189a0       ?InternalAddRef@?$CComObjectRootEx@VCComMultiThreadModel@ATL@@@ATL@@QAEKXZ 100199a0 f i RemoteOrderDisplay.obj
 0001:00018a00       ?InternalAddRef@?$CComObjectRootEx@VCComSingleThreadModel@ATL@@@ATL@@QAEKXZ 10019a00 f i RemoteOrderDisplay.obj
 0001:00018a60       ?InternalFinalConstructAddRef@CComObjectRootBase@ATL@@QAEXXZ 10019a60 f i RemoteOrderDisplay.obj
 0001:00018a80       ?InternalFinalConstructAddRef@COPOSRemoteOrderDisplay@@QAEXXZ 10019a80 f i RemoteOrderDisplay.obj
 0001:00018ab0       ?InternalFinalConstructRelease@CComObjectRootBase@ATL@@QAEXXZ 10019ab0 f i RemoteOrderDisplay.obj
 0001:00018b00       ?InternalFinalConstructRelease@COPOSRemoteOrderDisplay@@QAEXXZ 10019b00 f i RemoteOrderDisplay.obj
 0001:00018b30       ?InternalGetSite@CComControlBase@ATL@@QAEJABU_GUID@@PAPAX@Z 10019b30 f i RemoteOrderDisplay.obj
 0001:00018bf0       ?InternalQueryInterface@CComObjectRootBase@ATL@@SGJPAXPBU_ATL_INTMAP_ENTRY@2@ABU_GUID@@PAPAX@Z 10019bf0 f i RemoteOrderDisplay.obj
 0001:00018cb0       ?InternalRelease@?$CComObjectRootEx@VCComMultiThreadModel@ATL@@@ATL@@QAEKXZ 10019cb0 f i RemoteOrderDisplay.obj
 0001:00018d20       ?InternalRelease@?$CComObjectRootEx@VCComSingleThreadModel@ATL@@@ATL@@QAEKXZ 10019d20 f i RemoteOrderDisplay.obj
 0001:00018d90       ?InternalSetAtIndex@?$CSimpleArray@GV?$CSimpleArrayEqualHelper@G@ATL@@@ATL@@QAEXHABG@Z 10019d90 f i RemoteOrderDisplay.obj
 0001:00018e00       ?InternalSetAtIndex@?$CSimpleMap@PA_WPA_WVCExpansionVectorEqualHelper@ATL@@@ATL@@QAEXHABQA_W0@Z 10019e00 f i RemoteOrderDisplay.obj
 0001:00018ea0       ?Invoke@?$IDispatchImpl@UIOPOSRemoteOrderDisplay@@$1?IID_IOPOSRemoteOrderDisplay@@3U_GUID@@B$1?LIBID_OposRemoteOrderDisplay_CCO@@3U3@B$00$0A@VCComTypeInfoHolder@ATL@@@ATL@@UAGJJABU_GUID@@KGPAUtagDISPPARAMS@@PAUtagVARIANT@@PAUtagEXCEPINFO@@PAI@Z 10019ea0 f i RemoteOrderDisplay.obj
 0001:00018ee0       ?Invoke@CComTypeInfoHolder@ATL@@QAEJPAUIDispatch@@JABU_GUID@@KGPAUtagDISPPARAMS@@PAUtagVARIANT@@PAUtagEXCEPINFO@@PAI@Z 10019ee0 f i RemoteOrderDisplay.obj
 0001:00018f70       ?IsDirty@?$IPersistStorageImpl@VCOPOSRemoteOrderDisplay@@@ATL@@UAGJXZ 10019f70 f i RemoteOrderDisplay.obj
 0001:00019060       ?IsDirty@?$IPersistStreamInitImpl@VCOPOSRemoteOrderDisplay@@@ATL@@UAGJXZ 1001a060 f i RemoteOrderDisplay.obj
 0001:00019100       ?IsEqualKey@CExpansionVectorEqualHelper@ATL@@SA_NQA_W0@Z 1001a100 f i RemoteOrderDisplay.obj
 0001:00019130       ?IsEqualObject@?$CComPtrBase@UIOleClientSite@@@ATL@@QAE_NPAUIUnknown@@@Z 1001a130 f i RemoteOrderDisplay.obj
 0001:00019260       ?IsEqualObject@?$CComPtrBase@UITypeInfo@@@ATL@@QAE_NPAUIUnknown@@@Z 1001a260 f i RemoteOrderDisplay.obj
 0001:00019390       ?IsSpace@CRegParser@ATL@@IAEH_W@Z 1001a390 f i RemoteOrderDisplay.obj
 0001:00019400       ?IsUpToDate@?$IOleObjectImpl@VCOPOSRemoteOrderDisplay@@@ATL@@UAGJXZ 1001a400 f i RemoteOrderDisplay.obj
 0001:00019460       ?Length@CComBSTR@ATL@@QBEIXZ 1001a460 f i RemoteOrderDisplay.obj
 0001:000194a0       ?Load@?$IPersistStorageImpl@VCOPOSRemoteOrderDisplay@@@ATL@@UAGJPAUIStorage@@@Z 1001a4a0 f i RemoteOrderDisplay.obj
 0001:00019600       ?Load@?$IPersistStreamInitImpl@VCOPOSRemoteOrderDisplay@@@ATL@@UAGJPAUIStream@@@Z 1001a600 f i RemoteOrderDisplay.obj
 0001:00019690       ?LoadCursorW@AtlModuleRegisterWndClassInfoParamW@ATL@@SAPAUHICON__@@PAUHINSTANCE__@@PB_W@Z 1001a690 f i RemoteOrderDisplay.obj
 0001:000196c0       ?LoadNameCache@CComTypeInfoHolder@ATL@@QAEJPAUITypeInfo@@@Z 1001a6c0 f i RemoteOrderDisplay.obj
 0001:00019950       ?Lock@?$CComCritSecLock@VCComCriticalSection@ATL@@@ATL@@QAEJXZ 1001a950 f i RemoteOrderDisplay.obj
 0001:00019a00       ?Lock@?$CComObjectRootEx@VCComSingleThreadModel@ATL@@@ATL@@QAEXXZ 1001aa00 f i RemoteOrderDisplay.obj
 0001:00019a20       ?Lock@CAtlModule@ATL@@UAEJXZ 1001aa20 f i RemoteOrderDisplay.obj
 0001:00019a50       ?Lock@CComCriticalSection@ATL@@QAEJXZ 1001aa50 f i RemoteOrderDisplay.obj
 0001:00019a90       ?Lock@CComFakeCriticalSection@ATL@@QAEJXZ 1001aa90 f i RemoteOrderDisplay.obj
 0001:00019ab0       ?LockServer@CComClassFactory@ATL@@UAGJH@Z 1001aab0 f i RemoteOrderDisplay.obj
 0001:00019b10       ?Lookup@?$CSimpleMap@PA_WPA_WVCExpansionVectorEqualHelper@ATL@@@ATL@@QBEPA_WABQA_W@Z 1001ab10 f i RemoteOrderDisplay.obj
 0001:00019b60       ?Next@?$CComEnumImpl@UIEnumConnectionPoints@@$1?_GUID_b196b285_bab4_101a_b69c_00aa00341d07@@3U__s_GUID@@BPAUIConnectionPoint@@V?$_CopyInterface@UIConnectionPoint@@@ATL@@@ATL@@UAGJKPAPAUIConnectionPoint@@PAK@Z 1001ab60 f i RemoteOrderDisplay.obj
 0001:00019cd0       ?Next@?$CComEnumImpl@UIEnumConnections@@$1?_GUID_b196b287_bab4_101a_b69c_00aa00341d07@@3U__s_GUID@@BUtagCONNECTDATA@@V?$_Copy@UtagCONNECTDATA@@@ATL@@@ATL@@UAGJKPAUtagCONNECTDATA@@PAK@Z 1001acd0 f i RemoteOrderDisplay.obj
 0001:00019e40       ?NextToken@CRegParser@ATL@@IAEJPA_W@Z 1001ae40 f i RemoteOrderDisplay.obj
 0001:0001a0e0       ?OLE2CT_EX@@YAPB_WPB_WI@Z  1001b0e0 f i RemoteOrderDisplay.obj
 0001:0001a0f0       ?OLE2CT_EX_DEF@@YAPB_WPB_W@Z 1001b0f0 f i RemoteOrderDisplay.obj
 0001:0001a100       ?OLE2T_EX@@YAPA_WPA_WI@Z   1001b100 f i RemoteOrderDisplay.obj
 0001:0001a110       ?OnAmbientPropertyChange@?$IOleControlImpl@VCOPOSRemoteOrderDisplay@@@ATL@@UAGJJ@Z 1001b110 f i RemoteOrderDisplay.obj
 0001:0001a1a0       ?OnDocWindowActivate@?$IOleInPlaceActiveObjectImpl@VCOPOSRemoteOrderDisplay@@@ATL@@UAGJH@Z 1001b1a0 f i RemoteOrderDisplay.obj
 0001:0001a230       ?OnDrawAdvanced@CComControlBase@ATL@@UAEJAAUATL_DRAWINFO@@@Z 1001b230 f i RemoteOrderDisplay.obj
 0001:0001a450       ?OnFinalMessage@?$CWindowImplBaseT@VCWindow@ATL@@V?$CWinTraits@$0FGAAAAAA@$0A@@2@@ATL@@UAEXPAUHWND__@@@Z 1001b450 f i RemoteOrderDisplay.obj
 0001:0001a470       ?OnFrameWindowActivate@?$IOleInPlaceActiveObjectImpl@VCOPOSRemoteOrderDisplay@@@ATL@@UAGJH@Z 1001b470 f i RemoteOrderDisplay.obj
 0001:0001a4d0       ?OnKillFocus@CComControlBase@ATL@@QAEJIIJAAH@Z 1001b4d0 f i RemoteOrderDisplay.obj
 0001:0001a5d0       ?OnMnemonic@?$IOleControlImpl@VCOPOSRemoteOrderDisplay@@@ATL@@UAGJPAUtagMSG@@@Z 1001b5d0 f i RemoteOrderDisplay.obj
 0001:0001a640       ?OnMouseActivate@CComControlBase@ATL@@QAEJIIJAAH@Z 1001b640 f i RemoteOrderDisplay.obj
 0001:0001a790       ?OnPaint@CComControlBase@ATL@@QAEJIIJAAH@Z 1001b790 f i RemoteOrderDisplay.obj
 0001:0001a910       ?OnPostVerbDiscardUndo@?$IOleObjectImpl@VCOPOSRemoteOrderDisplay@@@ATL@@QAEJXZ 1001b910 f i RemoteOrderDisplay.obj
 0001:0001a930       ?OnPostVerbHide@?$IOleObjectImpl@VCOPOSRemoteOrderDisplay@@@ATL@@QAEJXZ 1001b930 f i RemoteOrderDisplay.obj
 0001:0001a950       ?OnPostVerbInPlaceActivate@?$IOleObjectImpl@VCOPOSRemoteOrderDisplay@@@ATL@@QAEJXZ 1001b950 f i RemoteOrderDisplay.obj
 0001:0001a970       ?OnPostVerbOpen@?$IOleObjectImpl@VCOPOSRemoteOrderDisplay@@@ATL@@QAEJXZ 1001b970 f i RemoteOrderDisplay.obj
 0001:0001a990       ?OnPostVerbShow@?$IOleObjectImpl@VCOPOSRemoteOrderDisplay@@@ATL@@QAEJXZ 1001b990 f i RemoteOrderDisplay.obj
 0001:0001a9b0       ?OnPostVerbUIActivate@?$IOleObjectImpl@VCOPOSRemoteOrderDisplay@@@ATL@@QAEJXZ 1001b9b0 f i RemoteOrderDisplay.obj
 0001:0001a9d0       ?OnPreVerbDiscardUndo@?$IOleObjectImpl@VCOPOSRemoteOrderDisplay@@@ATL@@QAEJXZ 1001b9d0 f i RemoteOrderDisplay.obj
 0001:0001a9f0       ?OnPreVerbHide@?$IOleObjectImpl@VCOPOSRemoteOrderDisplay@@@ATL@@QAEJXZ 1001b9f0 f i RemoteOrderDisplay.obj
 0001:0001aa10       ?OnPreVerbInPlaceActivate@?$IOleObjectImpl@VCOPOSRemoteOrderDisplay@@@ATL@@QAEJXZ 1001ba10 f i RemoteOrderDisplay.obj
 0001:0001aa30       ?OnPreVerbOpen@?$IOleObjectImpl@VCOPOSRemoteOrderDisplay@@@ATL@@QAEJXZ 1001ba30 f i RemoteOrderDisplay.obj
 0001:0001aa50       ?OnPreVerbShow@?$IOleObjectImpl@VCOPOSRemoteOrderDisplay@@@ATL@@QAEJXZ 1001ba50 f i RemoteOrderDisplay.obj
 0001:0001aa70       ?OnPreVerbUIActivate@?$IOleObjectImpl@VCOPOSRemoteOrderDisplay@@@ATL@@QAEJXZ 1001ba70 f i RemoteOrderDisplay.obj
 0001:0001aa90       ?OnSetFocus@CComControlBase@ATL@@QAEJIIJAAH@Z 1001ba90 f i RemoteOrderDisplay.obj
 0001:0001ac20       ?OnWindowMessage@?$IOleInPlaceObjectWindowlessImpl@VCOPOSRemoteOrderDisplay@@@ATL@@UAGJIIJPAJ@Z 1001bc20 f i RemoteOrderDisplay.obj
 0001:0001ad80       ?Open@CRegKey@ATL@@QAEJPAUHKEY__@@PB_WK@Z 1001bd80 f i RemoteOrderDisplay.obj
 0001:0001aed0       ?OuterAddRef@CComObjectRootBase@ATL@@QAEKXZ 1001bed0 f i RemoteOrderDisplay.obj
 0001:0001af10       ?OuterQueryInterface@CComObjectRootBase@ATL@@QAEJABU_GUID@@PAPAX@Z 1001bf10 f i RemoteOrderDisplay.obj
 0001:0001af60       ?OuterRelease@CComObjectRootBase@ATL@@QAEKXZ 1001bf60 f i RemoteOrderDisplay.obj
 0001:0001afa0       ?PreProcessBuffer@CRegParser@ATL@@QAEJPA_WPAPA_W@Z 1001bfa0 f i RemoteOrderDisplay.obj
 0001:0001b4e0       ?PreTranslateAccelerator@CComControlBase@ATL@@QAEHPAUtagMSG@@AAJ@Z 1001c4e0 f i RemoteOrderDisplay.obj
 0001:0001b500       ?ProcessWindowMessage@?$CComControl@VCOPOSRemoteOrderDisplay@@V?$CWindowImpl@VCOPOSRemoteOrderDisplay@@VCWindow@ATL@@V?$CWinTraits@$0FGAAAAAA@$0A@@3@@ATL@@@ATL@@UAEHPAUHWND__@@IIJAAJK@Z 1001c500 f i RemoteOrderDisplay.obj
 0001:0001b6d0       ?ProcessWindowMessage@COPOSRemoteOrderDisplay@@UAEHPAUHWND__@@IIJAAJK@Z 1001c6d0 f i RemoteOrderDisplay.obj
 0001:0001b7d0       ?PutProperty@?$CComPtr@UIDispatch@@@ATL@@QAEJJPAUtagVARIANT@@@Z 1001c7d0 f i RemoteOrderDisplay.obj
 0001:0001b810       ?PutProperty@?$CComPtr@UIDispatch@@@ATL@@SAJPAUIDispatch@@JPAUtagVARIANT@@@Z 1001c810 f i RemoteOrderDisplay.obj
 0001:0001ba00       ?QueryGetData@?$IDataObjectImpl@VCOPOSRemoteOrderDisplay@@@ATL@@UAGJPAUtagFORMATETC@@@Z 1001ca00 f i RemoteOrderDisplay.obj
 0001:0001ba70       ?QueryHitPoint@?$IViewObjectExImpl@VCOPOSRemoteOrderDisplay@@@ATL@@UAGJKPBUtagRECT@@UtagPOINT@@JPAK@Z 1001ca70 f i RemoteOrderDisplay.obj
 0001:0001bb80       ?QueryHitRect@?$IViewObjectExImpl@VCOPOSRemoteOrderDisplay@@@ATL@@UAGJKPBUtagRECT@@0JPAK@Z 1001cb80 f i RemoteOrderDisplay.obj
 0001:0001bcd0       ?QueryInterface@?$CComAggObject@VCOPOSRemoteOrderDisplay@@@ATL@@UAGJABU_GUID@@PAPAX@Z 1001ccd0 f i RemoteOrderDisplay.obj
 0001:0001bd80       ?QueryInterface@?$CComContainedObject@VCOPOSRemoteOrderDisplay@@@ATL@@UAGJABU_GUID@@PAPAX@Z 1001cd80 f i RemoteOrderDisplay.obj
 0001:0001bda4       ?QueryInterface@?$CComContainedObject@VCOPOSRemoteOrderDisplay@@@ATL@@WHA@AGJABU_GUID@@PAPAX@Z 1001cda4 f i RemoteOrderDisplay.obj
 0001:0001bdae       ?QueryInterface@?$CComContainedObject@VCOPOSRemoteOrderDisplay@@@ATL@@WHE@AGJABU_GUID@@PAPAX@Z 1001cdae f i RemoteOrderDisplay.obj
 0001:0001bdb8       ?QueryInterface@?$CComContainedObject@VCOPOSRemoteOrderDisplay@@@ATL@@WHI@AGJABU_GUID@@PAPAX@Z 1001cdb8 f i RemoteOrderDisplay.obj
 0001:0001bdc2       ?QueryInterface@?$CComContainedObject@VCOPOSRemoteOrderDisplay@@@ATL@@WHM@AGJABU_GUID@@PAPAX@Z 1001cdc2 f i RemoteOrderDisplay.obj
 0001:0001bdcc       ?QueryInterface@?$CComContainedObject@VCOPOSRemoteOrderDisplay@@@ATL@@WIA@AGJABU_GUID@@PAPAX@Z 1001cdcc f i RemoteOrderDisplay.obj
 0001:0001bdd9       ?QueryInterface@?$CComContainedObject@VCOPOSRemoteOrderDisplay@@@ATL@@WIE@AGJABU_GUID@@PAPAX@Z 1001cdd9 f i RemoteOrderDisplay.obj
 0001:0001bde6       ?QueryInterface@?$CComContainedObject@VCOPOSRemoteOrderDisplay@@@ATL@@WII@AGJABU_GUID@@PAPAX@Z 1001cde6 f i RemoteOrderDisplay.obj
 0001:0001bdf3       ?QueryInterface@?$CComContainedObject@VCOPOSRemoteOrderDisplay@@@ATL@@WIM@AGJABU_GUID@@PAPAX@Z 1001cdf3 f i RemoteOrderDisplay.obj
 0001:0001be00       ?QueryInterface@?$CComContainedObject@VCOPOSRemoteOrderDisplay@@@ATL@@WJA@AGJABU_GUID@@PAPAX@Z 1001ce00 f i RemoteOrderDisplay.obj
 0001:0001be0d       ?QueryInterface@?$CComContainedObject@VCOPOSRemoteOrderDisplay@@@ATL@@WJE@AGJABU_GUID@@PAPAX@Z 1001ce0d f i RemoteOrderDisplay.obj
 0001:0001be1a       ?QueryInterface@?$CComContainedObject@VCOPOSRemoteOrderDisplay@@@ATL@@WJI@AGJABU_GUID@@PAPAX@Z 1001ce1a f i RemoteOrderDisplay.obj
 0001:0001be27       ?QueryInterface@?$CComContainedObject@VCOPOSRemoteOrderDisplay@@@ATL@@WJM@AGJABU_GUID@@PAPAX@Z 1001ce27 f i RemoteOrderDisplay.obj
 0001:0001be34       ?QueryInterface@?$CComContainedObject@VCOPOSRemoteOrderDisplay@@@ATL@@WKA@AGJABU_GUID@@PAPAX@Z 1001ce34 f i RemoteOrderDisplay.obj
 0001:0001be50       ?QueryInterface@?$CComObject@V?$CComEnum@UIEnumConnectionPoints@@$1?_GUID_b196b285_bab4_101a_b69c_00aa00341d07@@3U__s_GUID@@BPAUIConnectionPoint@@V?$_CopyInterface@UIConnectionPoint@@@ATL@@VCComSingleThreadModel@6@@ATL@@@ATL@@UAGJABU_GUID@@PAPAX@Z 1001ce50 f i RemoteOrderDisplay.obj
 0001:0001be70       ?QueryInterface@?$CComObject@V?$CComEnum@UIEnumConnections@@$1?_GUID_b196b287_bab4_101a_b69c_00aa00341d07@@3U__s_GUID@@BUtagCONNECTDATA@@V?$_Copy@UtagCONNECTDATA@@@ATL@@VCComSingleThreadModel@6@@ATL@@@ATL@@UAGJABU_GUID@@PAPAX@Z 1001ce70 f i RemoteOrderDisplay.obj
 0001:0001be90       ?QueryInterface@?$CComObject@VCOPOSRemoteOrderDisplay@@@ATL@@UAGJABU_GUID@@PAPAX@Z 1001ce90 f i RemoteOrderDisplay.obj
 0001:0001beae       ?QueryInterface@?$CComObject@VCOPOSRemoteOrderDisplay@@@ATL@@WHA@AGJABU_GUID@@PAPAX@Z 1001ceae f i RemoteOrderDisplay.obj
 0001:0001beb8       ?QueryInterface@?$CComObject@VCOPOSRemoteOrderDisplay@@@ATL@@WHE@AGJABU_GUID@@PAPAX@Z 1001ceb8 f i RemoteOrderDisplay.obj
 0001:0001bec2       ?QueryInterface@?$CComObject@VCOPOSRemoteOrderDisplay@@@ATL@@WHI@AGJABU_GUID@@PAPAX@Z 1001cec2 f i RemoteOrderDisplay.obj
 0001:0001becc       ?QueryInterface@?$CComObject@VCOPOSRemoteOrderDisplay@@@ATL@@WHM@AGJABU_GUID@@PAPAX@Z 1001cecc f i RemoteOrderDisplay.obj
 0001:0001bed6       ?QueryInterface@?$CComObject@VCOPOSRemoteOrderDisplay@@@ATL@@WIA@AGJABU_GUID@@PAPAX@Z 1001ced6 f i RemoteOrderDisplay.obj
 0001:0001bee3       ?QueryInterface@?$CComObject@VCOPOSRemoteOrderDisplay@@@ATL@@WIE@AGJABU_GUID@@PAPAX@Z 1001cee3 f i RemoteOrderDisplay.obj
 0001:0001bef0       ?QueryInterface@?$CComObject@VCOPOSRemoteOrderDisplay@@@ATL@@WII@AGJABU_GUID@@PAPAX@Z 1001cef0 f i RemoteOrderDisplay.obj
 0001:0001befd       ?QueryInterface@?$CComObject@VCOPOSRemoteOrderDisplay@@@ATL@@WIM@AGJABU_GUID@@PAPAX@Z 1001cefd f i RemoteOrderDisplay.obj
 0001:0001bf0a       ?QueryInterface@?$CComObject@VCOPOSRemoteOrderDisplay@@@ATL@@WJA@AGJABU_GUID@@PAPAX@Z 1001cf0a f i RemoteOrderDisplay.obj
 0001:0001bf17       ?QueryInterface@?$CComObject@VCOPOSRemoteOrderDisplay@@@ATL@@WJE@AGJABU_GUID@@PAPAX@Z 1001cf17 f i RemoteOrderDisplay.obj
 0001:0001bf24       ?QueryInterface@?$CComObject@VCOPOSRemoteOrderDisplay@@@ATL@@WJI@AGJABU_GUID@@PAPAX@Z 1001cf24 f i RemoteOrderDisplay.obj
 0001:0001bf31       ?QueryInterface@?$CComObject@VCOPOSRemoteOrderDisplay@@@ATL@@WJM@AGJABU_GUID@@PAPAX@Z 1001cf31 f i RemoteOrderDisplay.obj
 0001:0001bf3e       ?QueryInterface@?$CComObject@VCOPOSRemoteOrderDisplay@@@ATL@@WKA@AGJABU_GUID@@PAPAX@Z 1001cf3e f i RemoteOrderDisplay.obj
 0001:0001bf50       ?QueryInterface@?$CComObjectCached@VCComClassFactory@ATL@@@ATL@@UAGJABU_GUID@@PAPAX@Z 1001cf50 f i RemoteOrderDisplay.obj
 0001:0001bf70       ?QueryInterface@CRegObject@ATL@@UAGJABU_GUID@@PAPAX@Z 1001cf70 f i RemoteOrderDisplay.obj
 0001:0001bfc0       ?QuickActivate@?$IQuickActivateImpl@VCOPOSRemoteOrderDisplay@@@ATL@@UAGJPAUtagQACONTAINER@@PAUtagQACONTROL@@@Z 1001cfc0 f i RemoteOrderDisplay.obj
 0001:0001c050       ?ReactivateAndUndo@?$IOleInPlaceObjectWindowlessImpl@VCOPOSRemoteOrderDisplay@@@ATL@@UAGJXZ 1001d050 f i RemoteOrderDisplay.obj
 0001:0001c0c0       ?ReadFromStream@CComBSTR@ATL@@QAEJPAUIStream@@@Z 1001d0c0 f i RemoteOrderDisplay.obj
 0001:0001c4c0       ?ReadFromStream@CComVariant@ATL@@QAEJPAUIStream@@GTClassesAllowedInStream@2@K@Z 1001d4c0 f i RemoteOrderDisplay.obj
 0001:0001c820       ?RecurseDeleteKey@CRegKey@ATL@@QAEJPB_W@Z 1001d820 f i RemoteOrderDisplay.obj
 0001:0001ca00       ?RegCreateKeyExW@CAtlTransactionManager@ATL@@QAEJPAUHKEY__@@PB_WKPA_WKKQAU_SECURITY_ATTRIBUTES@@PAPAU3@PAK@Z 1001da00 f i RemoteOrderDisplay.obj
 0001:0001cb30       ?RegDeleteKeyW@CAtlTransactionManager@ATL@@QAEJPAUHKEY__@@PB_W@Z 1001db30 f i RemoteOrderDisplay.obj
 0001:0001cc30       ?RegOpenKeyExW@CAtlTransactionManager@ATL@@QAEJPAUHKEY__@@PB_WKKPAPAU3@@Z 1001dc30 f i RemoteOrderDisplay.obj
 0001:0001cd40       ?Register@_ATL_WNDCLASSINFOW@ATL@@QAEGPAP6GJPAUHWND__@@IIJ@Z@Z 1001dd40 f i RemoteOrderDisplay.obj
 0001:0001cd80       ?RegisterBuffer@CRegParser@ATL@@QAEJPA_WH@Z 1001dd80 f i RemoteOrderDisplay.obj
 0001:0001d0b0       ?RegisterClassExW@AtlModuleRegisterWndClassInfoParamW@ATL@@SAGPAU_ATL_WIN_MODULE70@2@PBUtagWNDCLASSEXW@@@Z 1001e0b0 f i RemoteOrderDisplay.obj
 0001:0001d0d0       ?RegisterFromResource@CRegObject@ATL@@IAEJPB_W00H@Z 1001e0d0 f i RemoteOrderDisplay.obj
 0001:0001d460       ?RegisterServer@?$CAtlModuleT@VCComModule@ATL@@@ATL@@QAEJHPBU_GUID@@@Z 1001e460 f i RemoteOrderDisplay.obj
 0001:0001d4e0       ?RegisterServer@CAtlComModule@ATL@@QAEJHPBU_GUID@@@Z 1001e4e0 f i RemoteOrderDisplay.obj
 0001:0001d510       ?RegisterServer@CComModule@ATL@@QAEJHPBU_GUID@@@Z 1001e510 f i RemoteOrderDisplay.obj
 0001:0001d5f0       ?RegisterSubkeys@CRegParser@ATL@@IAEJPA_WPAUHKEY__@@HH@Z 1001e5f0 f i RemoteOrderDisplay.obj
 0001:0001e110       ?Release@?$CComAggObject@VCOPOSRemoteOrderDisplay@@@ATL@@UAGKXZ 1001f110 f i RemoteOrderDisplay.obj
 0001:0001e1d0       ?Release@?$CComContainedObject@VCOPOSRemoteOrderDisplay@@@ATL@@UAGKXZ 1001f1d0 f i RemoteOrderDisplay.obj
 0001:0001e1ec       ?Release@?$CComContainedObject@VCOPOSRemoteOrderDisplay@@@ATL@@WHA@AGKXZ 1001f1ec f i RemoteOrderDisplay.obj
 0001:0001e1f6       ?Release@?$CComContainedObject@VCOPOSRemoteOrderDisplay@@@ATL@@WHE@AGKXZ 1001f1f6 f i RemoteOrderDisplay.obj
 0001:0001e200       ?Release@?$CComContainedObject@VCOPOSRemoteOrderDisplay@@@ATL@@WHI@AGKXZ 1001f200 f i RemoteOrderDisplay.obj
 0001:0001e20a       ?Release@?$CComContainedObject@VCOPOSRemoteOrderDisplay@@@ATL@@WHM@AGKXZ 1001f20a f i RemoteOrderDisplay.obj
 0001:0001e214       ?Release@?$CComContainedObject@VCOPOSRemoteOrderDisplay@@@ATL@@WIA@AGKXZ 1001f214 f i RemoteOrderDisplay.obj
 0001:0001e221       ?Release@?$CComContainedObject@VCOPOSRemoteOrderDisplay@@@ATL@@WIE@AGKXZ 1001f221 f i RemoteOrderDisplay.obj
 0001:0001e22e       ?Release@?$CComContainedObject@VCOPOSRemoteOrderDisplay@@@ATL@@WII@AGKXZ 1001f22e f i RemoteOrderDisplay.obj
 0001:0001e23b       ?Release@?$CComContainedObject@VCOPOSRemoteOrderDisplay@@@ATL@@WIM@AGKXZ 1001f23b f i RemoteOrderDisplay.obj
 0001:0001e248       ?Release@?$CComContainedObject@VCOPOSRemoteOrderDisplay@@@ATL@@WJA@AGKXZ 1001f248 f i RemoteOrderDisplay.obj
 0001:0001e255       ?Release@?$CComContainedObject@VCOPOSRemoteOrderDisplay@@@ATL@@WJE@AGKXZ 1001f255 f i RemoteOrderDisplay.obj
 0001:0001e262       ?Release@?$CComContainedObject@VCOPOSRemoteOrderDisplay@@@ATL@@WJI@AGKXZ 1001f262 f i RemoteOrderDisplay.obj
 0001:0001e26f       ?Release@?$CComContainedObject@VCOPOSRemoteOrderDisplay@@@ATL@@WJM@AGKXZ 1001f26f f i RemoteOrderDisplay.obj
 0001:0001e27c       ?Release@?$CComContainedObject@VCOPOSRemoteOrderDisplay@@@ATL@@WKA@AGKXZ 1001f27c f i RemoteOrderDisplay.obj
 0001:0001e289       ?Release@?$CComContainedObject@VCOPOSRemoteOrderDisplay@@@ATL@@WKI@AGKXZ 1001f289 f i RemoteOrderDisplay.obj
 0001:0001e296       ?Release@?$CComContainedObject@VCOPOSRemoteOrderDisplay@@@ATL@@WLE@AGKXZ 1001f296 f i RemoteOrderDisplay.obj
 0001:0001e2b0       ?Release@?$CComObject@V?$CComEnum@UIEnumConnectionPoints@@$1?_GUID_b196b285_bab4_101a_b69c_00aa00341d07@@3U__s_GUID@@BPAUIConnectionPoint@@V?$_CopyInterface@UIConnectionPoint@@@ATL@@VCComSingleThreadModel@6@@ATL@@@ATL@@UAGKXZ 1001f2b0 f i RemoteOrderDisplay.obj
 0001:0001e370       ?Release@?$CComObject@V?$CComEnum@UIEnumConnections@@$1?_GUID_b196b287_bab4_101a_b69c_00aa00341d07@@3U__s_GUID@@BUtagCONNECTDATA@@V?$_Copy@UtagCONNECTDATA@@@ATL@@VCComSingleThreadModel@6@@ATL@@@ATL@@UAGKXZ 1001f370 f i RemoteOrderDisplay.obj
 0001:0001e430       ?Release@?$CComObject@VCOPOSRemoteOrderDisplay@@@ATL@@UAGKXZ 1001f430 f i RemoteOrderDisplay.obj
 0001:0001e4e9       ?Release@?$CComObject@VCOPOSRemoteOrderDisplay@@@ATL@@WHA@AGKXZ 1001f4e9 f i RemoteOrderDisplay.obj
 0001:0001e4f3       ?Release@?$CComObject@VCOPOSRemoteOrderDisplay@@@ATL@@WHE@AGKXZ 1001f4f3 f i RemoteOrderDisplay.obj
 0001:0001e4fd       ?Release@?$CComObject@VCOPOSRemoteOrderDisplay@@@ATL@@WHI@AGKXZ 1001f4fd f i RemoteOrderDisplay.obj
 0001:0001e507       ?Release@?$CComObject@VCOPOSRemoteOrderDisplay@@@ATL@@WHM@AGKXZ 1001f507 f i RemoteOrderDisplay.obj
 0001:0001e511       ?Release@?$CComObject@VCOPOSRemoteOrderDisplay@@@ATL@@WIA@AGKXZ 1001f511 f i RemoteOrderDisplay.obj
 0001:0001e51e       ?Release@?$CComObject@VCOPOSRemoteOrderDisplay@@@ATL@@WIE@AGKXZ 1001f51e f i RemoteOrderDisplay.obj
 0001:0001e52b       ?Release@?$CComObject@VCOPOSRemoteOrderDisplay@@@ATL@@WII@AGKXZ 1001f52b f i RemoteOrderDisplay.obj
 0001:0001e538       ?Release@?$CComObject@VCOPOSRemoteOrderDisplay@@@ATL@@WIM@AGKXZ 1001f538 f i RemoteOrderDisplay.obj
 0001:0001e545       ?Release@?$CComObject@VCOPOSRemoteOrderDisplay@@@ATL@@WJA@AGKXZ 1001f545 f i RemoteOrderDisplay.obj
 0001:0001e552       ?Release@?$CComObject@VCOPOSRemoteOrderDisplay@@@ATL@@WJE@AGKXZ 1001f552 f i RemoteOrderDisplay.obj
 0001:0001e55f       ?Release@?$CComObject@VCOPOSRemoteOrderDisplay@@@ATL@@WJI@AGKXZ 1001f55f f i RemoteOrderDisplay.obj
 0001:0001e56c       ?Release@?$CComObject@VCOPOSRemoteOrderDisplay@@@ATL@@WJM@AGKXZ 1001f56c f i RemoteOrderDisplay.obj
 0001:0001e579       ?Release@?$CComObject@VCOPOSRemoteOrderDisplay@@@ATL@@WKA@AGKXZ 1001f579 f i RemoteOrderDisplay.obj
 0001:0001e586       ?Release@?$CComObject@VCOPOSRemoteOrderDisplay@@@ATL@@WKI@AGKXZ 1001f586 f i RemoteOrderDisplay.obj
 0001:0001e593       ?Release@?$CComObject@VCOPOSRemoteOrderDisplay@@@ATL@@WLE@AGKXZ 1001f593 f i RemoteOrderDisplay.obj
 0001:0001e5a0       ?Release@?$CComObjectCached@VCComClassFactory@ATL@@@ATL@@UAGKXZ 1001f5a0 f i RemoteOrderDisplay.obj
 0001:0001e640       ?Release@?$CComPtrBase@UIAdviseSink@@@ATL@@QAEXXZ 1001f640 f i RemoteOrderDisplay.obj
 0001:0001e6a0       ?Release@?$CComPtrBase@UIDispatch@@@ATL@@QAEXXZ 1001f6a0 f i RemoteOrderDisplay.obj
 0001:0001e700       ?Release@?$CComPtrBase@UIOleInPlaceSiteWindowless@@@ATL@@QAEXXZ 1001f700 f i RemoteOrderDisplay.obj
 0001:0001e760       ?Release@CRegObject@ATL@@UAGKXZ 1001f760 f i RemoteOrderDisplay.obj
 0001:0001e7a0       ?Remove@CComDynamicUnkArray@ATL@@QAEHK@Z 1001f7a0 f i RemoteOrderDisplay.obj
 0001:0001e850       ?RemoveAll@?$CSimpleMap@PA_WPA_WVCExpansionVectorEqualHelper@ATL@@@ATL@@QAEXXZ 1001f850 f i RemoteOrderDisplay.obj
 0001:0001e8e0       ?Reset@?$CComEnumImpl@UIEnumConnectionPoints@@$1?_GUID_b196b285_bab4_101a_b69c_00aa00341d07@@3U__s_GUID@@BPAUIConnectionPoint@@V?$_CopyInterface@UIConnectionPoint@@@ATL@@@ATL@@UAGJXZ 1001f8e0 f i RemoteOrderDisplay.obj
 0001:0001e900       ?Reset@?$CComEnumImpl@UIEnumConnections@@$1?_GUID_b196b287_bab4_101a_b69c_00aa00341d07@@3U__s_GUID@@BUtagCONNECTDATA@@V?$_Copy@UtagCONNECTDATA@@@ATL@@@ATL@@UAGJXZ 1001f900 f i RemoteOrderDisplay.obj
 0001:0001e920       ?ResizeBorder@?$IOleInPlaceActiveObjectImpl@VCOPOSRemoteOrderDisplay@@@ATL@@UAGJPBUtagRECT@@PAUIOleInPlaceUIWindow@@H@Z 1001f920 f i RemoteOrderDisplay.obj
 0001:0001e980       ?ResourceRegister@CRegObject@ATL@@QAGJPB_WI0@Z 1001f980 f i RemoteOrderDisplay.obj
 0001:0001ea60       ?ResourceRegisterSz@CRegObject@ATL@@QAGJPB_W00@Z 1001fa60 f i RemoteOrderDisplay.obj
 0001:0001eb60       ?ResourceUnregister@CRegObject@ATL@@QAGJPB_WI0@Z 1001fb60 f i RemoteOrderDisplay.obj
 0001:0001ec40       ?ResourceUnregisterSz@CRegObject@ATL@@QAGJPB_W00@Z 1001fc40 f i RemoteOrderDisplay.obj
 0001:0001ed40       ?SOData@COPOSRemoteOrderDisplay@@MAGJJ@Z 1001fd40 f i RemoteOrderDisplay.obj
 0001:0001edc0       ?SODirectIO@COPOSRemoteOrderDisplay@@MAGJJPAJPAPA_W@Z 1001fdc0 f i RemoteOrderDisplay.obj
 0001:0001ef80       ?SOError@COPOSRemoteOrderDisplay@@MAGJJJJPAJ@Z 1001ff80 f i RemoteOrderDisplay.obj
 0001:0001f040       ?SOOutputComplete@COPOSRemoteOrderDisplay@@MAGJJ@Z 10020040 f i RemoteOrderDisplay.obj
 0001:0001f0c0       ?SOStatusUpdate@COPOSRemoteOrderDisplay@@MAGJJ@Z 100200c0 f i RemoteOrderDisplay.obj
 0001:0001f140       ?Save@?$IPersistStorageImpl@VCOPOSRemoteOrderDisplay@@@ATL@@UAGJPAUIStorage@@H@Z 10020140 f i RemoteOrderDisplay.obj
 0001:0001f2a0       ?Save@?$IPersistStreamInitImpl@VCOPOSRemoteOrderDisplay@@@ATL@@UAGJPAUIStream@@H@Z 100202a0 f i RemoteOrderDisplay.obj
 0001:0001f330       ?SaveCompleted@?$IPersistStorageImpl@VCOPOSRemoteOrderDisplay@@@ATL@@UAGJPAUIStorage@@@Z 10020330 f i RemoteOrderDisplay.obj
 0001:0001f390       ?SendOnDataChange@CComControlBase@ATL@@QAEJK@Z 10020390 f i RemoteOrderDisplay.obj
 0001:0001f480       ?SendOnSave@CComControlBase@ATL@@QAEJXZ 10020480 f i RemoteOrderDisplay.obj
 0001:0001f4f0       ?SendOnViewChange@CComControlBase@ATL@@QAEJKJ@Z 100204f0 f i RemoteOrderDisplay.obj
 0001:0001f560       ?SetAdvise@?$IViewObjectExImpl@VCOPOSRemoteOrderDisplay@@@ATL@@UAGJKKPAUIAdviseSink@@@Z 10020560 f i RemoteOrderDisplay.obj
 0001:0001f5f0       ?SetClientSite@?$IOleObjectImpl@VCOPOSRemoteOrderDisplay@@@ATL@@UAGJPAUIOleClientSite@@@Z 100205f0 f i RemoteOrderDisplay.obj
 0001:0001f680       ?SetColorScheme@?$IOleObjectImpl@VCOPOSRemoteOrderDisplay@@@ATL@@UAGJPAUtagLOGPALETTE@@@Z 10020680 f i RemoteOrderDisplay.obj
 0001:0001f6f0       ?SetContentExtent@?$IQuickActivateImpl@VCOPOSRemoteOrderDisplay@@@ATL@@UAGJPAUtagSIZE@@@Z 100206f0 f i RemoteOrderDisplay.obj
 0001:0001f780       ?SetControlFocus@CComControlBase@ATL@@QAEHH@Z 10020780 f i RemoteOrderDisplay.obj
 0001:0001f900       ?SetDWORDValue@CRegKey@ATL@@QAEJPB_WK@Z 10020900 f i RemoteOrderDisplay.obj
 0001:0001f980       ?SetData@?$IDataObjectImpl@VCOPOSRemoteOrderDisplay@@@ATL@@UAGJPAUtagFORMATETC@@PAUtagSTGMEDIUM@@H@Z 10020980 f i RemoteOrderDisplay.obj
 0001:0001f9f0       ?SetExtent@?$IOleObjectImpl@VCOPOSRemoteOrderDisplay@@@ATL@@UAGJKPAUtagSIZE@@@Z 100209f0 f i RemoteOrderDisplay.obj
 0001:0001fa80       ?SetHostNames@?$IOleObjectImpl@VCOPOSRemoteOrderDisplay@@@ATL@@UAGJPB_W0@Z 10020a80 f i RemoteOrderDisplay.obj
 0001:0001fae0       ?SetInterfaceSafetyOptions@?$IObjectSafetyImpl@VCOPOSRemoteOrderDisplay@@$02@ATL@@UAGJABU_GUID@@KK@Z 10020ae0 f i RemoteOrderDisplay.obj
 0001:0001fc50       ?SetMoniker@?$IOleObjectImpl@VCOPOSRemoteOrderDisplay@@@ATL@@UAGJKPAUIMoniker@@@Z 10020c50 f i RemoteOrderDisplay.obj
 0001:0001fcc0       ?SetMultiStringValue@CRegKey@ATL@@QAEJPB_W0@Z 10020cc0 f i RemoteOrderDisplay.obj
 0001:0001fde0       ?SetObjectRects@?$IOleInPlaceObjectWindowlessImpl@VCOPOSRemoteOrderDisplay@@@ATL@@UAGJPBUtagRECT@@0@Z 10020de0 f i RemoteOrderDisplay.obj
 0001:0001fe70       ?SetStringValue@CRegKey@ATL@@QAEJPB_W0K@Z 10020e70 f i RemoteOrderDisplay.obj
 0001:0001ffa0       ?SetVoid@CComClassFactory@ATL@@QAEXPAX@Z 10020fa0 f i RemoteOrderDisplay.obj
 0001:0001ffc0       ?SetVoid@CComObjectRootBase@ATL@@QAEXPAX@Z 10020fc0 f i RemoteOrderDisplay.obj
 0001:0001ffe0       ?SetWindowLongPtrW@@YAJPAUHWND__@@HJ@Z 10020fe0 f i RemoteOrderDisplay.obj
 0001:00020010       ?ShowWindow@CWindow@ATL@@QAEHH@Z 10021010 f i RemoteOrderDisplay.obj
 0001:00020090       ?Skip@?$CComEnumImpl@UIEnumConnectionPoints@@$1?_GUID_b196b285_bab4_101a_b69c_00aa00341d07@@3U__s_GUID@@BPAUIConnectionPoint@@V?$_CopyInterface@UIConnectionPoint@@@ATL@@@ATL@@UAGJK@Z 10021090 f i RemoteOrderDisplay.obj
 0001:00020110       ?Skip@?$CComEnumImpl@UIEnumConnections@@$1?_GUID_b196b287_bab4_101a_b69c_00aa00341d07@@3U__s_GUID@@BUtagCONNECTDATA@@V?$_Copy@UtagCONNECTDATA@@@ATL@@@ATL@@UAGJK@Z 10021110 f i RemoteOrderDisplay.obj
 0001:00020190       ?SkipAssignment@CRegParser@ATL@@IAEJPA_W@Z 10021190 f i RemoteOrderDisplay.obj
 0001:00020270       ?SkipWhiteSpace@CRegParser@ATL@@IAEXXZ 10021270 f i RemoteOrderDisplay.obj
 0001:000202c0       ?StartWindowProc@?$CWindowImplBaseT@VCWindow@ATL@@V?$CWinTraits@$0FGAAAAAA@$0A@@2@@ATL@@SGJPAUHWND__@@IIJ@Z 100212c0 f i RemoteOrderDisplay.obj
 0001:000203e0       ?StrChrW@CRegParser@ATL@@KAPA_WPA_W_W@Z 100213e0 f i RemoteOrderDisplay.obj
 0001:00020450       ?StrFromMap@CRegObject@ATL@@QAEPB_WPA_W@Z 10021450 f i RemoteOrderDisplay.obj
 0001:000204e0       ?Swap@?$CComPtrBase@UIAdviseSink@@@ATL@@IAEXAAV12@@Z 100214e0 f i RemoteOrderDisplay.obj
 0001:00020520       ?Swap@?$CComPtrBase@UIOleClientSite@@@ATL@@IAEXAAV12@@Z 10021520 f i RemoteOrderDisplay.obj
 0001:00020560       ?Swap@?$CComPtrBase@UIUnknown@@@ATL@@IAEXAAV12@@Z 10021560 f i RemoteOrderDisplay.obj
 0001:000205a0       ?T2COLE_EX@@YAPB_WPB_WI@Z  100215a0 f i RemoteOrderDisplay.obj
 0001:000205b0       ?T2OLE_EX@@YAPA_WPA_WI@Z   100215b0 f i RemoteOrderDisplay.obj
 0001:000205c0       ?Term@CAtlModule@ATL@@QAEXXZ 100215c0 f i RemoteOrderDisplay.obj
 0001:00020670       ?Term@CComModule@ATL@@QAEXXZ 10021670 f i RemoteOrderDisplay.obj
 0001:00020760       ?TranslateAcceleratorW@?$IOleInPlaceActiveObjectImpl@VCOPOSRemoteOrderDisplay@@@ATL@@UAGJPAUtagMSG@@@Z 10021760 f i RemoteOrderDisplay.obj
 0001:00020960       ?UIDeactivate@?$IOleInPlaceObjectWindowlessImpl@VCOPOSRemoteOrderDisplay@@@ATL@@UAGJXZ 10021960 f i RemoteOrderDisplay.obj
 0001:000209e0       ?Unadvise@?$CProxy_IOPOSEvents@VCOPOSRemoteOrderDisplay@@@@UAGJK@Z 100219e0 f i RemoteOrderDisplay.obj
 0001:00020a20       ?Unadvise@?$IConnectionPointImpl@VCOPOSRemoteOrderDisplay@@$1?DIID__IOPOSRemoteOrderDisplayEvents@@3U_GUID@@BVCComDynamicUnkArray@ATL@@@ATL@@UAGJK@Z 10021a20 f i RemoteOrderDisplay.obj
 0001:00020af0       ?Unadvise@?$IConnectionPointImpl@VCOPOSRemoteOrderDisplay@@$1?IID_IPropertyNotifySink@@3U_GUID@@BVCComDynamicUnkArray@ATL@@@ATL@@UAGJK@Z 10021af0 f i RemoteOrderDisplay.obj
 0001:00020bc0       ?Unadvise@?$IOleObjectImpl@VCOPOSRemoteOrderDisplay@@@ATL@@UAGJK@Z 10021bc0 f i RemoteOrderDisplay.obj
 0001:00020c90       ?Unfreeze@?$IViewObjectExImpl@VCOPOSRemoteOrderDisplay@@@ATL@@UAGJK@Z 10021c90 f i RemoteOrderDisplay.obj
 0001:00020d00       ?Unlock@?$CComCritSecLock@VCComCriticalSection@ATL@@@ATL@@QAEXXZ 10021d00 f i RemoteOrderDisplay.obj
 0001:00020d70       ?Unlock@?$CComObjectRootEx@VCComSingleThreadModel@ATL@@@ATL@@QAEXXZ 10021d70 f i RemoteOrderDisplay.obj
 0001:00020d90       ?Unlock@CAtlModule@ATL@@UAEJXZ 10021d90 f i RemoteOrderDisplay.obj
 0001:00020dc0       ?Unlock@CComCriticalSection@ATL@@QAEJXZ 10021dc0 f i RemoteOrderDisplay.obj
 0001:00020e00       ?Unlock@CComFakeCriticalSection@ATL@@QAEJXZ 10021e00 f i RemoteOrderDisplay.obj
 0001:00020e20       ?UnregisterServer@?$CAtlModuleT@VCComModule@ATL@@@ATL@@QAEJHPBU_GUID@@@Z 10021e20 f i RemoteOrderDisplay.obj
 0001:00020e90       ?UnregisterServer@CAtlComModule@ATL@@QAEJHPBU_GUID@@@Z 10021e90 f i RemoteOrderDisplay.obj
 0001:00020ec0       ?UnregisterServer@CComModule@ATL@@QAEJHPBU_GUID@@@Z 10021ec0 f i RemoteOrderDisplay.obj
 0001:00020fa0       ?Update@?$IOleObjectImpl@VCOPOSRemoteOrderDisplay@@@ATL@@UAGJXZ 10021fa0 f i RemoteOrderDisplay.obj
 0001:00021000       ?UpdateRegistryFromResource@CAtlModule@ATL@@QAGJIHPAU_ATL_REGMAP_ENTRY@2@@Z 10022000 f i RemoteOrderDisplay.obj
 0001:000214d0       ?UpdateRegistryFromResource@CAtlModule@ATL@@QAGJPB_WHPAU_ATL_REGMAP_ENTRY@2@@Z 100224d0 f i RemoteOrderDisplay.obj
 0001:000219c0       ?UpdateRegistryFromResource@CComModule@ATL@@UAGJIHPAU_ATL_REGMAP_ENTRY@2@@Z 100229c0 f i RemoteOrderDisplay.obj
 0001:000219f0       ?UpdateRegistryFromResource@CComModule@ATL@@UAGJPB_WHPAU_ATL_REGMAP_ENTRY@2@@Z 100229f0 f i RemoteOrderDisplay.obj
 0001:00021a20       ?UpdateRegistryFromResourceD@CComModule@ATL@@UAGJIHPAU_ATL_REGMAP_ENTRY@2@@Z 10022a20 f i RemoteOrderDisplay.obj
 0001:00021a30       ?UpdateRegistryFromResourceD@CComModule@ATL@@UAGJPB_WHPAU_ATL_REGMAP_ENTRY@2@@Z 10022a30 f i RemoteOrderDisplay.obj
 0001:00021a40       ?VTFromRegType@CRegParser@ATL@@KAHPB_WAAG@Z 10022a40 f i RemoteOrderDisplay.obj
 0001:00021b20       ?WindowProc@?$CWindowImplBaseT@VCWindow@ATL@@V?$CWinTraits@$0FGAAAAAA@$0A@@2@@ATL@@SGJPAUHWND__@@IIJ@Z 10022b20 f i RemoteOrderDisplay.obj
 0001:00021d30       ?WriteToStream@CComBSTR@ATL@@QAEJPAUIStream@@@Z 10022d30 f i RemoteOrderDisplay.obj
 0001:00021e90       ?WriteToStream@CComVariant@ATL@@QAEJPAUIStream@@@Z 10022e90 f i RemoteOrderDisplay.obj
 0001:000221d0       ?WriteToStream@CComVariant@ATL@@QAEJPAUIStream@@G@Z 100231d0 f i RemoteOrderDisplay.obj
 0001:000222a0       ?_AtlFinalConstruct@CComObjectRootBase@ATL@@QAEJXZ 100232a0 f i RemoteOrderDisplay.obj
 0001:000222c0       ?_AtlGetConversionACP@ATL@@YGIXZ 100232c0 f i RemoteOrderDisplay.obj
 0001:000222d0       ?_AtlInitialConstruct@?$CComAggObject@VCOPOSRemoteOrderDisplay@@@ATL@@QAEJXZ 100232d0 f i RemoteOrderDisplay.obj
 0001:00022320       ?_AtlInitialConstruct@?$CComObjectRootEx@VCComMultiThreadModel@ATL@@@ATL@@QAEJXZ 10023320 f i RemoteOrderDisplay.obj
 0001:00022350       ?_AtlInitialConstruct@?$CComObjectRootEx@VCComSingleThreadModel@ATL@@@ATL@@QAEJXZ 10023350 f i RemoteOrderDisplay.obj
 0001:00022370       ?_AtlVerifyStackAvailable@_ATL_SAFE_ALLOCA_IMPL@ATL@@YA_NK@Z 10023370 f i RemoteOrderDisplay.obj
 0001:00022520       ?_GetEntries@?$CComEnum@UIEnumConnectionPoints@@$1?_GUID_b196b285_bab4_101a_b69c_00aa00341d07@@3U__s_GUID@@BPAUIConnectionPoint@@V?$_CopyInterface@UIConnectionPoint@@@ATL@@VCComSingleThreadModel@6@@ATL@@SGPBU_ATL_INTMAP_ENTRY@2@XZ 10023520 f i RemoteOrderDisplay.obj
 0001:00022540       ?_GetEntries@?$CComEnum@UIEnumConnections@@$1?_GUID_b196b287_bab4_101a_b69c_00aa00341d07@@3U__s_GUID@@BUtagCONNECTDATA@@V?$_Copy@UtagCONNECTDATA@@@ATL@@VCComSingleThreadModel@6@@ATL@@SGPBU_ATL_INTMAP_ENTRY@2@XZ 10023540 f i RemoteOrderDisplay.obj
 0001:00022560       ?_GetEntries@CComClassFactory@ATL@@SGPBU_ATL_INTMAP_ENTRY@2@XZ 10023560 f i RemoteOrderDisplay.obj
 0001:00022580       ?_GetEntries@COPOSRemoteOrderDisplay@@SGPBU_ATL_INTMAP_ENTRY@ATL@@XZ 10023580 f i RemoteOrderDisplay.obj
 0001:000225a0       ?_GetRawUnknown@COPOSRemoteOrderDisplay@@QAEPAUIUnknown@@XZ 100235a0 f i RemoteOrderDisplay.obj
 0001:00022610       ?_GetViewStatus@COPOSRemoteOrderDisplay@@QAEKXZ 10023610 f i RemoteOrderDisplay.obj
 0001:00022630       ?_InternalQueryInterface@?$CComEnum@UIEnumConnectionPoints@@$1?_GUID_b196b285_bab4_101a_b69c_00aa00341d07@@3U__s_GUID@@BPAUIConnectionPoint@@V?$_CopyInterface@UIConnectionPoint@@@ATL@@VCComSingleThreadModel@6@@ATL@@QAEJABU_GUID@@PAPAX@Z 10023630 f i RemoteOrderDisplay.obj
 0001:00022670       ?_InternalQueryInterface@?$CComEnum@UIEnumConnections@@$1?_GUID_b196b287_bab4_101a_b69c_00aa00341d07@@3U__s_GUID@@BUtagCONNECTDATA@@V?$_Copy@UtagCONNECTDATA@@@ATL@@VCComSingleThreadModel@6@@ATL@@QAEJABU_GUID@@PAPAX@Z 10023670 f i RemoteOrderDisplay.obj
 0001:000226b0       ?_InternalQueryInterface@CComClassFactory@ATL@@QAEJABU_GUID@@PAPAX@Z 100236b0 f i RemoteOrderDisplay.obj
 0001:000226f0       ?_InternalQueryInterface@COPOSRemoteOrderDisplay@@QAEJABU_GUID@@PAPAX@Z 100236f0 f i RemoteOrderDisplay.obj
 0001:00022730       ?_LocCPQueryInterface@?$IConnectionPointImpl@VCOPOSRemoteOrderDisplay@@$1?DIID__IOPOSRemoteOrderDisplayEvents@@3U_GUID@@BVCComDynamicUnkArray@ATL@@@ATL@@UAGJABU_GUID@@PAPAX@Z 10023730 f i RemoteOrderDisplay.obj
 0001:000227d0       ?_LocCPQueryInterface@?$IConnectionPointImpl@VCOPOSRemoteOrderDisplay@@$1?IID_IPropertyNotifySink@@3U_GUID@@BVCComDynamicUnkArray@ATL@@@ATL@@UAGJABU_GUID@@PAPAX@Z 100237d0 f i RemoteOrderDisplay.obj
 0001:00022870       ?atlCreate@?$CWindowImpl@VCOPOSRemoteOrderDisplay@@VCWindow@ATL@@V?$CWinTraits@$0FGAAAAAA@$0A@@3@@ATL@@QAEPAUHWND__@@PAU3@V_U_RECT@2@PB_WKKV_U_MENUorID@2@PAX@Z 10023870 f i RemoteOrderDisplay.obj
 0001:00022920       ?atlCreate@?$CWindowImplBaseT@VCWindow@ATL@@V?$CWinTraits@$0FGAAAAAA@$0A@@2@@ATL@@QAEPAUHWND__@@PAU3@V_U_RECT@2@PB_WKKV_U_MENUorID@2@GPAX@Z 10023920 f i RemoteOrderDisplay.obj
 0001:00022aa0       ?atlCreate@CRegKey@ATL@@QAEJPAUHKEY__@@PB_WPA_WKKPAU_SECURITY_ATTRIBUTES@@PAK@Z 10023aa0 f i RemoteOrderDisplay.obj
 0001:00022c00       ?begin@CComDynamicUnkArray@ATL@@QAEPAPAUIUnknown@@XZ 10023c00 f i RemoteOrderDisplay.obj
 0001:00022c20       ?copy@?$_Copy@UtagCONNECTDATA@@@ATL@@SAJPAUtagCONNECTDATA@@PBU3@@Z 10023c20 f i RemoteOrderDisplay.obj
 0001:00022ce0       ?copy@?$_CopyInterface@UIConnectionPoint@@@ATL@@SAJPAPAUIConnectionPoint@@PBQAU3@@Z 10023ce0 f i RemoteOrderDisplay.obj
 0001:00022da0       ?destroy@?$_Copy@UtagCONNECTDATA@@@ATL@@SAXPAUtagCONNECTDATA@@@Z 10023da0 f i RemoteOrderDisplay.obj
 0001:00022de0       ?destroy@?$_CopyInterface@UIConnectionPoint@@@ATL@@SAXPAPAUIConnectionPoint@@@Z 10023de0 f i RemoteOrderDisplay.obj
 0001:00022e20       ?end@CComDynamicUnkArray@ATL@@QAEPAPAUIUnknown@@XZ 10023e20 f i RemoteOrderDisplay.obj
 0001:00022e40       ?init@?$_Copy@UtagCONNECTDATA@@@ATL@@SAXPAUtagCONNECTDATA@@@Z 10023e40 f i RemoteOrderDisplay.obj
 0001:00022e50       ?init@?$_CopyInterface@UIConnectionPoint@@@ATL@@SAXPAPAUIConnectionPoint@@@Z 10023e50 f i RemoteOrderDisplay.obj
 0001:00022e60       ?memcpy_s@Checked@ATL@@YAXPAXIPBXI@Z 10023e60 f i RemoteOrderDisplay.obj
 0001:00022e90       ?ocscpy_s@@YA_NPA_WIPB_W@Z 10023e90 f i RemoteOrderDisplay.obj
 0001:00022ef0       ?ocslen@@YAHPB_W@Z         10023ef0 f i RemoteOrderDisplay.obj
 0001:00022f20       ?tcsncpy_s@Checked@ATL@@YAHPA_WIPB_WI@Z 10023f20 f i RemoteOrderDisplay.obj
 0001:00022f50       ?wcscat_s@Checked@ATL@@YAXPA_WIPB_W@Z 10023f50 f i RemoteOrderDisplay.obj
 0001:00022f80       ?wcscpy_s@Checked@ATL@@YAXPA_WIPB_W@Z 10023f80 f i RemoteOrderDisplay.obj
 0001:00022fb0       ?wcsncpy_s@Checked@ATL@@YAHPA_WIPB_WI@Z 10023fb0 f i RemoteOrderDisplay.obj
 0001:00022fe0       ?wcsstr@@YAPA_WPA_WPB_W@Z  10023fe0 f i RemoteOrderDisplay.obj
 0001:00023000       _InlineIsEqualGUID         10024000 f i RemoteOrderDisplay.obj
 0001:000230a0       _IsEqualGUID               100240a0 f i RemoteOrderDisplay.obj
 0001:000230f0       ??0COPOSRemoteOrderDisplay@@QAE@XZ 100240f0 f   RemoteOrderDisplayImpl.obj
 0001:00023200       ?FinalConstruct@COPOSRemoteOrderDisplay@@QAEJXZ 10024200 f   RemoteOrderDisplayImpl.obj
 0001:000232d0       ??1COPOSRemoteOrderDisplay@@UAE@XZ 100242d0 f   RemoteOrderDisplayImpl.obj
 0001:000233b0       ?WriteTrace@COPOSRemoteOrderDisplay@@QAAXPB_WZZ 100243b0 f   RemoteOrderDisplayImpl.obj
 0001:00023460       ?WriteTraceString@COPOSRemoteOrderDisplay@@QAEXPB_WPA_W@Z 10024460 f   RemoteOrderDisplayImpl.obj
 0001:000237d0       ?WriteTraceString@COPOSRemoteOrderDisplay@@QAAXPAXHHHPB_WZZ 100247d0 f   RemoteOrderDisplayImpl.obj
 0001:00023a00       ?WriteTraceError@COPOSRemoteOrderDisplay@@QAEXPB_WK@Z 10024a00 f   RemoteOrderDisplayImpl.obj
 0001:00023af0       ?WriteTraceMethods@COPOSRemoteOrderDisplay@@QAEXPAJH@Z 10024af0 f   RemoteOrderDisplayImpl.obj
 0001:00023b60       ?GetOposProp@COPOSRemoteOrderDisplay@@IAEJPBDJPAJJ@Z 10024b60 f   RemoteOrderDisplayImpl.obj
 0001:00023dd0       ?SetOposProp@COPOSRemoteOrderDisplay@@IAEJPBDJJJ@Z 10024dd0 f   RemoteOrderDisplayImpl.obj
 0001:00024060       ?GetOposProp@COPOSRemoteOrderDisplay@@IAEJPBDJPAFJ@Z 10025060 f   RemoteOrderDisplayImpl.obj
 0001:00024100       ?SetOposProp@COPOSRemoteOrderDisplay@@IAEJPBDJFJ@Z 10025100 f   RemoteOrderDisplayImpl.obj
 0001:00024160       ?GetOposProp@COPOSRemoteOrderDisplay@@IAEJPBDJPAPA_WJ@Z 10025160 f   RemoteOrderDisplayImpl.obj
 0001:000243e0       ?SetOposProp@COPOSRemoteOrderDisplay@@IAEJPBDJPA_WJ@Z 100253e0 f   RemoteOrderDisplayImpl.obj
 0001:00024720       ?DoInvoke@COPOSRemoteOrderDisplay@@IAEJPBDJPAVOposVariant@@IHPAJ_N@Z 10025720 f   RemoteOrderDisplayImpl.obj
 0001:00025050       ?SetCOFreezeEvents@COPOSRemoteOrderDisplay@@IAEXF@Z 10026050 f   RemoteOrderDisplayImpl.obj
 0001:00025190       ?FreezeEvents@COPOSRemoteOrderDisplay@@MAGJH@Z 10026190 f   RemoteOrderDisplayImpl.obj
 0001:00025270       ?OnDraw@COPOSRemoteOrderDisplay@@MAEJAAUATL_DRAWINFO@@@Z 10026270 f   RemoteOrderDisplayImpl.obj
 0001:00025410       ?SOProcessID@COPOSRemoteOrderDisplay@@UAGJPAJ@Z 10026410 f   RemoteOrderDisplayImpl.obj
 0001:00025450       ?get_OpenResult@COPOSRemoteOrderDisplay@@UAGJPAJ@Z 10026450 f   RemoteOrderDisplayImpl.obj
 0001:00025490       ?get_BinaryConversion@COPOSRemoteOrderDisplay@@UAGJPAJ@Z 10026490 f   RemoteOrderDisplayImpl.obj
 0001:000254c0       ?put_BinaryConversion@COPOSRemoteOrderDisplay@@UAGJJ@Z 100264c0 f   RemoteOrderDisplayImpl.obj
 0001:000254f0       ?get_CapPowerReporting@COPOSRemoteOrderDisplay@@UAGJPAJ@Z 100264f0 f   RemoteOrderDisplayImpl.obj
 0001:00025520       ?get_CheckHealthText@COPOSRemoteOrderDisplay@@UAGJPAPA_W@Z 10026520 f   RemoteOrderDisplayImpl.obj
 0001:00025550       ?get_Claimed@COPOSRemoteOrderDisplay@@UAGJPAF@Z 10026550 f   RemoteOrderDisplayImpl.obj
 0001:00025580       ?get_DataCount@COPOSRemoteOrderDisplay@@UAGJPAJ@Z 10026580 f   RemoteOrderDisplayImpl.obj
 0001:000255b0       ?get_DataEventEnabled@COPOSRemoteOrderDisplay@@UAGJPAF@Z 100265b0 f   RemoteOrderDisplayImpl.obj
 0001:000255e0       ?put_DataEventEnabled@COPOSRemoteOrderDisplay@@UAGJF@Z 100265e0 f   RemoteOrderDisplayImpl.obj
 0001:00025610       ?get_DeviceEnabled@COPOSRemoteOrderDisplay@@UAGJPAF@Z 10026610 f   RemoteOrderDisplayImpl.obj
 0001:00025640       ?put_DeviceEnabled@COPOSRemoteOrderDisplay@@UAGJF@Z 10026640 f   RemoteOrderDisplayImpl.obj
 0001:00025670       ?get_FreezeEvents@COPOSRemoteOrderDisplay@@UAGJPAF@Z 10026670 f   RemoteOrderDisplayImpl.obj
 0001:000256a0       ?put_FreezeEvents@COPOSRemoteOrderDisplay@@UAGJF@Z 100266a0 f   RemoteOrderDisplayImpl.obj
 0001:00025730       ?get_OutputID@COPOSRemoteOrderDisplay@@UAGJPAJ@Z 10026730 f   RemoteOrderDisplayImpl.obj
 0001:00025760       ?get_PowerNotify@COPOSRemoteOrderDisplay@@UAGJPAJ@Z 10026760 f   RemoteOrderDisplayImpl.obj
 0001:00025790       ?put_PowerNotify@COPOSRemoteOrderDisplay@@UAGJJ@Z 10026790 f   RemoteOrderDisplayImpl.obj
 0001:000257c0       ?get_PowerState@COPOSRemoteOrderDisplay@@UAGJPAJ@Z 100267c0 f   RemoteOrderDisplayImpl.obj
 0001:000257f0       ?get_ResultCode@COPOSRemoteOrderDisplay@@UAGJPAJ@Z 100267f0 f   RemoteOrderDisplayImpl.obj
 0001:00025880       ?get_ResultCodeExtended@COPOSRemoteOrderDisplay@@UAGJPAJ@Z 10026880 f   RemoteOrderDisplayImpl.obj
 0001:000258b0       ?get_State@COPOSRemoteOrderDisplay@@UAGJPAJ@Z 100268b0 f   RemoteOrderDisplayImpl.obj
 0001:00025900       ?get_ControlObjectDescription@COPOSRemoteOrderDisplay@@UAGJPAPA_W@Z 10026900 f   RemoteOrderDisplayImpl.obj
 0001:00025980       ?get_ControlObjectVersion@COPOSRemoteOrderDisplay@@UAGJPAJ@Z 10026980 f   RemoteOrderDisplayImpl.obj
 0001:000259c0       ?get_ServiceObjectDescription@COPOSRemoteOrderDisplay@@UAGJPAPA_W@Z 100269c0 f   RemoteOrderDisplayImpl.obj
 0001:000259f0       ?get_ServiceObjectVersion@COPOSRemoteOrderDisplay@@UAGJPAJ@Z 100269f0 f   RemoteOrderDisplayImpl.obj
 0001:00025a20       ?get_DeviceDescription@COPOSRemoteOrderDisplay@@UAGJPAPA_W@Z 10026a20 f   RemoteOrderDisplayImpl.obj
 0001:00025a50       ?get_DeviceName@COPOSRemoteOrderDisplay@@UAGJPAPA_W@Z 10026a50 f   RemoteOrderDisplayImpl.obj
 0001:00025a80       ?CheckHealth@COPOSRemoteOrderDisplay@@UAGJJPAJ@Z 10026a80 f   RemoteOrderDisplayImpl.obj
 0001:00025b20       ?ClaimDevice@COPOSRemoteOrderDisplay@@UAGJJPAJ@Z 10026b20 f   RemoteOrderDisplayImpl.obj
 0001:00025c00       ?ClearInput@COPOSRemoteOrderDisplay@@UAGJPAJ@Z 10026c00 f   RemoteOrderDisplayImpl.obj
 0001:00025c30       ?ClearOutput@COPOSRemoteOrderDisplay@@UAGJPAJ@Z 10026c30 f   RemoteOrderDisplayImpl.obj
 0001:00025c60       ?Close@COPOSRemoteOrderDisplay@@UAGJPAJ@Z 10026c60 f   RemoteOrderDisplayImpl.obj
 0001:00025d30       ?DirectIO@COPOSRemoteOrderDisplay@@UAGJJPAJPAPA_W0@Z 10026d30 f   RemoteOrderDisplayImpl.obj
 0001:00025e40       ?Open@COPOSRemoteOrderDisplay@@UAGJPA_WPAJ@Z 10026e40 f   RemoteOrderDisplayImpl.obj
 0001:00027030       ?ReleaseDevice@COPOSRemoteOrderDisplay@@UAGJPAJ@Z 10028030 f   RemoteOrderDisplayImpl.obj
 0001:000270a0       ?get_AsyncMode@COPOSRemoteOrderDisplay@@UAGJPAF@Z 100280a0 f   RemoteOrderDisplayImpl.obj
 0001:000270d0       ?put_AsyncMode@COPOSRemoteOrderDisplay@@UAGJF@Z 100280d0 f   RemoteOrderDisplayImpl.obj
 0001:00027100       ?get_AutoToneDuration@COPOSRemoteOrderDisplay@@UAGJPAJ@Z 10028100 f   RemoteOrderDisplayImpl.obj
 0001:00027130       ?put_AutoToneDuration@COPOSRemoteOrderDisplay@@UAGJJ@Z 10028130 f   RemoteOrderDisplayImpl.obj
 0001:00027160       ?get_AutoToneFrequency@COPOSRemoteOrderDisplay@@UAGJPAJ@Z 10028160 f   RemoteOrderDisplayImpl.obj
 0001:00027190       ?put_AutoToneFrequency@COPOSRemoteOrderDisplay@@UAGJJ@Z 10028190 f   RemoteOrderDisplayImpl.obj
 0001:000271c0       ?get_CapSelectCharacterSet@COPOSRemoteOrderDisplay@@UAGJPAF@Z 100281c0 f   RemoteOrderDisplayImpl.obj
 0001:000271f0       ?get_CapTone@COPOSRemoteOrderDisplay@@UAGJPAF@Z 100281f0 f   RemoteOrderDisplayImpl.obj
 0001:00027220       ?get_CapTouch@COPOSRemoteOrderDisplay@@UAGJPAF@Z 10028220 f   RemoteOrderDisplayImpl.obj
 0001:00027250       ?get_CapTransaction@COPOSRemoteOrderDisplay@@UAGJPAF@Z 10028250 f   RemoteOrderDisplayImpl.obj
 0001:00027280       ?get_CharacterSet@COPOSRemoteOrderDisplay@@UAGJPAJ@Z 10028280 f   RemoteOrderDisplayImpl.obj
 0001:000272b0       ?get_CharacterSetList@COPOSRemoteOrderDisplay@@UAGJPAPA_W@Z 100282b0 f   RemoteOrderDisplayImpl.obj
 0001:000272e0       ?get_Clocks@COPOSRemoteOrderDisplay@@UAGJPAJ@Z 100282e0 f   RemoteOrderDisplayImpl.obj
 0001:00027310       ?get_CurrentUnitID@COPOSRemoteOrderDisplay@@UAGJPAJ@Z 10028310 f   RemoteOrderDisplayImpl.obj
 0001:00027340       ?put_CurrentUnitID@COPOSRemoteOrderDisplay@@UAGJJ@Z 10028340 f   RemoteOrderDisplayImpl.obj
 0001:00027370       ?get_ErrorString@COPOSRemoteOrderDisplay@@UAGJPAPA_W@Z 10028370 f   RemoteOrderDisplayImpl.obj
 0001:000273a0       ?get_ErrorUnits@COPOSRemoteOrderDisplay@@UAGJPAJ@Z 100283a0 f   RemoteOrderDisplayImpl.obj
 0001:000273d0       ?get_EventString@COPOSRemoteOrderDisplay@@UAGJPAPA_W@Z 100283d0 f   RemoteOrderDisplayImpl.obj
 0001:00027400       ?get_EventType@COPOSRemoteOrderDisplay@@UAGJPAJ@Z 10028400 f   RemoteOrderDisplayImpl.obj
 0001:00027430       ?put_EventType@COPOSRemoteOrderDisplay@@UAGJJ@Z 10028430 f   RemoteOrderDisplayImpl.obj
 0001:00027460       ?get_EventUnitID@COPOSRemoteOrderDisplay@@UAGJPAJ@Z 10028460 f   RemoteOrderDisplayImpl.obj
 0001:00027490       ?get_EventUnits@COPOSRemoteOrderDisplay@@UAGJPAJ@Z 10028490 f   RemoteOrderDisplayImpl.obj
 0001:000274c0       ?get_SystemClocks@COPOSRemoteOrderDisplay@@UAGJPAJ@Z 100284c0 f   RemoteOrderDisplayImpl.obj
 0001:000274f0       ?get_SystemVideoSaveBuffers@COPOSRemoteOrderDisplay@@UAGJPAJ@Z 100284f0 f   RemoteOrderDisplayImpl.obj
 0001:00027520       ?get_Timeout@COPOSRemoteOrderDisplay@@UAGJPAJ@Z 10028520 f   RemoteOrderDisplayImpl.obj
 0001:00027550       ?put_Timeout@COPOSRemoteOrderDisplay@@UAGJJ@Z 10028550 f   RemoteOrderDisplayImpl.obj
 0001:00027580       ?get_UnitsOnline@COPOSRemoteOrderDisplay@@UAGJPAJ@Z 10028580 f   RemoteOrderDisplayImpl.obj
 0001:000275b0       ?get_VideoDataCount@COPOSRemoteOrderDisplay@@UAGJPAJ@Z 100285b0 f   RemoteOrderDisplayImpl.obj
 0001:000275e0       ?get_VideoMode@COPOSRemoteOrderDisplay@@UAGJPAJ@Z 100285e0 f   RemoteOrderDisplayImpl.obj
 0001:00027610       ?put_VideoMode@COPOSRemoteOrderDisplay@@UAGJJ@Z 10028610 f   RemoteOrderDisplayImpl.obj
 0001:00027640       ?get_VideoModesList@COPOSRemoteOrderDisplay@@UAGJPAPA_W@Z 10028640 f   RemoteOrderDisplayImpl.obj
 0001:00027670       ?get_VideoSaveBuffers@COPOSRemoteOrderDisplay@@UAGJPAJ@Z 10028670 f   RemoteOrderDisplayImpl.obj
 0001:000276a0       ?ClearVideo@COPOSRemoteOrderDisplay@@UAGJJJPAJ@Z 100286a0 f   RemoteOrderDisplayImpl.obj
 0001:00027770       ?ClearVideoRegion@COPOSRemoteOrderDisplay@@UAGJJJJJJJPAJ@Z 10028770 f   RemoteOrderDisplayImpl.obj
 0001:000278d0       ?ControlClock@COPOSRemoteOrderDisplay@@UAGJJJJJJJJJJJPAJ@Z 100288d0 f   RemoteOrderDisplayImpl.obj
 0001:00027a90       ?ControlCursor@COPOSRemoteOrderDisplay@@UAGJJJPAJ@Z 10028a90 f   RemoteOrderDisplayImpl.obj
 0001:00027b60       ?CopyVideoRegion@COPOSRemoteOrderDisplay@@UAGJJJJJJJJPAJ@Z 10028b60 f   RemoteOrderDisplayImpl.obj
 0001:00027cd0       ?DisplayData@COPOSRemoteOrderDisplay@@UAGJJJJJPA_WPAJ@Z 10028cd0 f   RemoteOrderDisplayImpl.obj
 0001:00027e20       ?DrawBox@COPOSRemoteOrderDisplay@@UAGJJJJJJJJPAJ@Z 10028e20 f   RemoteOrderDisplayImpl.obj
 0001:00027f90       ?FreeVideoRegion@COPOSRemoteOrderDisplay@@UAGJJJPAJ@Z 10028f90 f   RemoteOrderDisplayImpl.obj
 0001:00028060       ?ResetVideo@COPOSRemoteOrderDisplay@@UAGJJPAJ@Z 10029060 f   RemoteOrderDisplayImpl.obj
 0001:00028100       ?RestoreVideoRegion@COPOSRemoteOrderDisplay@@UAGJJJJJPAJ@Z 10029100 f   RemoteOrderDisplayImpl.obj
 0001:00028210       ?SaveVideoRegion@COPOSRemoteOrderDisplay@@UAGJJJJJJJPAJ@Z 10029210 f   RemoteOrderDisplayImpl.obj
 0001:00028370       ?SelectCharacterSet@COPOSRemoteOrderDisplay@@UAGJJJPAJ@Z 10029370 f   RemoteOrderDisplayImpl.obj
 0001:00028440       ?SetCursor@COPOSRemoteOrderDisplay@@UAGJJJJPAJ@Z 10029440 f   RemoteOrderDisplayImpl.obj
 0001:00028530       ?TransactionDisplay@COPOSRemoteOrderDisplay@@UAGJJJPAJ@Z 10029530 f   RemoteOrderDisplayImpl.obj
 0001:00028600       ?UpdateVideoRegionAttribute@COPOSRemoteOrderDisplay@@UAGJJJJJJJJPAJ@Z 10029600 f   RemoteOrderDisplayImpl.obj
 0001:00028770       ?VideoSound@COPOSRemoteOrderDisplay@@UAGJJJJJJPAJ@Z 10029770 f   RemoteOrderDisplayImpl.obj
 0001:000288a0       ?get_CapMapCharacterSet@COPOSRemoteOrderDisplay@@UAGJPAF@Z 100298a0 f   RemoteOrderDisplayImpl.obj
 0001:000288d0       ?get_MapCharacterSet@COPOSRemoteOrderDisplay@@UAGJPAF@Z 100298d0 f   RemoteOrderDisplayImpl.obj
 0001:00028900       ?put_MapCharacterSet@COPOSRemoteOrderDisplay@@UAGJF@Z 10029900 f   RemoteOrderDisplayImpl.obj
 0001:00028930       ?get_CapStatisticsReporting@COPOSRemoteOrderDisplay@@UAGJPAF@Z 10029930 f   RemoteOrderDisplayImpl.obj
 0001:00028960       ?get_CapUpdateStatistics@COPOSRemoteOrderDisplay@@UAGJPAF@Z 10029960 f   RemoteOrderDisplayImpl.obj
 0001:00028990       ?ResetStatistics@COPOSRemoteOrderDisplay@@UAGJPA_WPAJ@Z 10029990 f   RemoteOrderDisplayImpl.obj
 0001:00028a40       ?RetrieveStatistics@COPOSRemoteOrderDisplay@@UAGJPAPA_WPAJ@Z 10029a40 f   RemoteOrderDisplayImpl.obj
 0001:00028af0       ?UpdateStatistics@COPOSRemoteOrderDisplay@@UAGJPA_WPAJ@Z 10029af0 f   RemoteOrderDisplayImpl.obj
 0001:00028ba0       ?get_CapCompareFirmwareVersion@COPOSRemoteOrderDisplay@@UAGJPAF@Z 10029ba0 f   RemoteOrderDisplayImpl.obj
 0001:00028bd0       ?get_CapUpdateFirmware@COPOSRemoteOrderDisplay@@UAGJPAF@Z 10029bd0 f   RemoteOrderDisplayImpl.obj
 0001:00028c00       ?CompareFirmwareVersion@COPOSRemoteOrderDisplay@@UAGJPA_WPAJ1@Z 10029c00 f   RemoteOrderDisplayImpl.obj
 0001:00028cf0       ?UpdateFirmware@COPOSRemoteOrderDisplay@@UAGJPA_WPAJ@Z 10029cf0 f   RemoteOrderDisplayImpl.obj
 0001:00028da0       ??0?$CComControl@VCOPOSRemoteOrderDisplay@@V?$CWindowImpl@VCOPOSRemoteOrderDisplay@@VCWindow@ATL@@V?$CWinTraits@$0FGAAAAAA@$0A@@3@@ATL@@@ATL@@QAE@XZ 10029da0 f i RemoteOrderDisplayImpl.obj
 0001:00028de0       ??0?$CComPtr@UIAdviseSink@@@ATL@@QAE@XZ 10029de0 f i RemoteOrderDisplayImpl.obj
 0001:00028e10       ??0?$CComPtr@UIDataAdviseHolder@@@ATL@@QAE@XZ 10029e10 f i RemoteOrderDisplayImpl.obj
 0001:00028e40       ??0?$CComPtr@UIOleAdviseHolder@@@ATL@@QAE@XZ 10029e40 f i RemoteOrderDisplayImpl.obj
 0001:00028e70       ??0?$CComPtr@UIOleClientSite@@@ATL@@QAE@XZ 10029e70 f i RemoteOrderDisplayImpl.obj
 0001:00028ea0       ??0?$CComPtr@UIOleInPlaceSiteWindowless@@@ATL@@QAE@XZ 10029ea0 f i RemoteOrderDisplayImpl.obj
 0001:00028ed0       ??0?$CComPtrBase@UIAdviseSink@@@ATL@@IAE@XZ 10029ed0 f i RemoteOrderDisplayImpl.obj
 0001:00028ef0       ??0?$CComPtrBase@UIDataAdviseHolder@@@ATL@@IAE@XZ 10029ef0 f i RemoteOrderDisplayImpl.obj
 0001:00028f10       ??0?$CComPtrBase@UIOleAdviseHolder@@@ATL@@IAE@XZ 10029f10 f i RemoteOrderDisplayImpl.obj
 0001:00028f30       ??0?$CComPtrBase@UIOleClientSite@@@ATL@@IAE@XZ 10029f30 f i RemoteOrderDisplayImpl.obj
 0001:00028f50       ??0?$CComPtrBase@UIOleInPlaceSiteWindowless@@@ATL@@IAE@XZ 10029f50 f i RemoteOrderDisplayImpl.obj
 0001:00028f70       ??0?$CComQIPtr@UIDispatch@@$1?_GUID_00020400_0000_0000_c000_000000000046@@3U__s_GUID@@B@ATL@@QAE@XZ 10029f70 f i RemoteOrderDisplayImpl.obj
 0001:00028fa0       ??0?$CProxy_IOPOSEvents@VCOPOSRemoteOrderDisplay@@@@QAE@PAVCOPOSRemoteOrderDisplay@@@Z 10029fa0 f i RemoteOrderDisplayImpl.obj
 0001:00029010       ??0?$CWindowImpl@VCOPOSRemoteOrderDisplay@@VCWindow@ATL@@V?$CWinTraits@$0FGAAAAAA@$0A@@3@@ATL@@QAE@XZ 1002a010 f i RemoteOrderDisplayImpl.obj
 0001:00029040       ??0?$CWindowImplBaseT@VCWindow@ATL@@V?$CWinTraits@$0FGAAAAAA@$0A@@2@@ATL@@QAE@XZ 1002a040 f i RemoteOrderDisplayImpl.obj
 0001:00029080       ??0?$CWindowImplRoot@VCWindow@ATL@@@ATL@@QAE@XZ 1002a080 f i RemoteOrderDisplayImpl.obj
 0001:000290e0       ??0?$IConnectionPointContainerImpl@VCOPOSRemoteOrderDisplay@@@ATL@@QAE@XZ 1002a0e0 f i RemoteOrderDisplayImpl.obj
 0001:00029110       ??0?$IConnectionPointImpl@VCOPOSRemoteOrderDisplay@@$1?DIID__IOPOSRemoteOrderDisplayEvents@@3U_GUID@@BVCComDynamicUnkArray@ATL@@@ATL@@QAE@XZ 1002a110 f i RemoteOrderDisplayImpl.obj
 0001:00029150       ??0?$IConnectionPointImpl@VCOPOSRemoteOrderDisplay@@$1?IID_IPropertyNotifySink@@3U_GUID@@BVCComDynamicUnkArray@ATL@@@ATL@@QAE@XZ 1002a150 f i RemoteOrderDisplayImpl.obj
 0001:00029190       ??0?$IDataObjectImpl@VCOPOSRemoteOrderDisplay@@@ATL@@QAE@XZ 1002a190 f i RemoteOrderDisplayImpl.obj
 0001:000291c0       ??0?$IDispatchImpl@UIOPOSRemoteOrderDisplay@@$1?IID_IOPOSRemoteOrderDisplay@@3U_GUID@@B$1?LIBID_OposRemoteOrderDisplay_CCO@@3U3@B$00$0A@VCComTypeInfoHolder@ATL@@@ATL@@QAE@XZ 1002a1c0 f i RemoteOrderDisplayImpl.obj
 0001:000291f0       ??0?$IObjectSafetyImpl@VCOPOSRemoteOrderDisplay@@$02@ATL@@QAE@XZ 1002a1f0 f i RemoteOrderDisplayImpl.obj
 0001:00029230       ??0?$IOleControlImpl@VCOPOSRemoteOrderDisplay@@@ATL@@QAE@XZ 1002a230 f i RemoteOrderDisplayImpl.obj
 0001:00029260       ??0?$IOleInPlaceActiveObjectImpl@VCOPOSRemoteOrderDisplay@@@ATL@@QAE@XZ 1002a260 f i RemoteOrderDisplayImpl.obj
 0001:00029290       ??0?$IOleInPlaceObjectWindowlessImpl@VCOPOSRemoteOrderDisplay@@@ATL@@QAE@XZ 1002a290 f i RemoteOrderDisplayImpl.obj
 0001:000292c0       ??0?$IOleObjectImpl@VCOPOSRemoteOrderDisplay@@@ATL@@QAE@XZ 1002a2c0 f i RemoteOrderDisplayImpl.obj
 0001:000292f0       ??0?$IPersistStorageImpl@VCOPOSRemoteOrderDisplay@@@ATL@@QAE@XZ 1002a2f0 f i RemoteOrderDisplayImpl.obj
 0001:00029320       ??0?$IPersistStreamInitImpl@VCOPOSRemoteOrderDisplay@@@ATL@@QAE@XZ 1002a320 f i RemoteOrderDisplayImpl.obj
 0001:00029350       ??0?$IPropertyNotifySinkCP@VCOPOSRemoteOrderDisplay@@VCComDynamicUnkArray@ATL@@@ATL@@QAE@XZ 1002a350 f i RemoteOrderDisplayImpl.obj
 0001:00029380       ??0?$IProvideClassInfo2Impl@$1?CLSID_OPOSRemoteOrderDisplay@@3U_GUID@@B$1?DIID__IOPOSRemoteOrderDisplayEvents@@3U2@B$1?LIBID_OposRemoteOrderDisplay_CCO@@3U2@B$00$0A@VCComTypeInfoHolder@ATL@@@ATL@@QAE@XZ 1002a380 f i RemoteOrderDisplayImpl.obj
 0001:000293b0       ??0?$IQuickActivateImpl@VCOPOSRemoteOrderDisplay@@@ATL@@QAE@XZ 1002a3b0 f i RemoteOrderDisplayImpl.obj
 0001:000293e0       ??0?$ISpecifyPropertyPagesImpl@VCOPOSRemoteOrderDisplay@@@ATL@@QAE@XZ 1002a3e0 f i RemoteOrderDisplayImpl.obj
 0001:00029410       ??0?$IViewObjectExImpl@VCOPOSRemoteOrderDisplay@@@ATL@@QAE@XZ 1002a410 f i RemoteOrderDisplayImpl.obj
 0001:00029440       ??0?$_ICPLocator@$1?DIID__IOPOSRemoteOrderDisplayEvents@@3U_GUID@@B@ATL@@QAE@XZ 1002a440 f i RemoteOrderDisplayImpl.obj
 0001:00029460       ??0?$_ICPLocator@$1?IID_IPropertyNotifySink@@3U_GUID@@B@ATL@@QAE@XZ 1002a460 f i RemoteOrderDisplayImpl.obj
 0001:00029480       ??0CComControlBase@ATL@@QAE@AAPAUHWND__@@@Z 1002a480 f i RemoteOrderDisplayImpl.obj
 0001:00029630       ??0CComDynamicUnkArray@ATL@@QAE@XZ 1002a630 f i RemoteOrderDisplayImpl.obj
 0001:00029660       ??0CDynamicStdCallThunk2@ATL@@QAE@XZ 1002a660 f i RemoteOrderDisplayImpl.obj
 0001:00029680       ??0CMessageMap@ATL@@QAE@XZ 1002a680 f i RemoteOrderDisplayImpl.obj
 0001:000296a0       ??0CWindow@ATL@@QAE@PAUHWND__@@@Z 1002a6a0 f i RemoteOrderDisplayImpl.obj
 0001:000296c0       ??0CWndProcThunk@ATL@@QAE@XZ 1002a6c0 f i RemoteOrderDisplayImpl.obj
 0001:000296f0       ??0IConnectionPointContainer@@QAE@XZ 1002a6f0 f i RemoteOrderDisplayImpl.obj
 0001:00029720       ??0IDataObject@@QAE@XZ     1002a720 f i RemoteOrderDisplayImpl.obj
 0001:00029750       ??0IDispatch@@QAE@XZ       1002a750 f i RemoteOrderDisplayImpl.obj
 0001:00029780       ??0IOPOSRemoteOrderDisplay@@QAE@XZ 1002a780 f i RemoteOrderDisplayImpl.obj
 0001:000297b0       ??0IOPOSRemoteOrderDisplay_1_5@@QAE@XZ 1002a7b0 f i RemoteOrderDisplayImpl.obj
 0001:000297e0       ??0IOPOSRemoteOrderDisplay_1_7@@QAE@XZ 1002a7e0 f i RemoteOrderDisplayImpl.obj
 0001:00029810       ??0IOPOSRemoteOrderDisplay_1_8@@QAE@XZ 1002a810 f i RemoteOrderDisplayImpl.obj
 0001:00029840       ??0IOPOSRemoteOrderDisplay_1_9@@QAE@XZ 1002a840 f i RemoteOrderDisplayImpl.obj
 0001:00029870       ??0IObjectSafety@@QAE@XZ   1002a870 f i RemoteOrderDisplayImpl.obj
 0001:000298a0       ??0IOleControl@@QAE@XZ     1002a8a0 f i RemoteOrderDisplayImpl.obj
 0001:000298d0       ??0IOleInPlaceActiveObject@@QAE@XZ 1002a8d0 f i RemoteOrderDisplayImpl.obj
 0001:00029900       ??0IOleInPlaceObject@@QAE@XZ 1002a900 f i RemoteOrderDisplayImpl.obj
 0001:00029930       ??0IOleInPlaceObjectWindowless@@QAE@XZ 1002a930 f i RemoteOrderDisplayImpl.obj
 0001:00029960       ??0IOleObject@@QAE@XZ      1002a960 f i RemoteOrderDisplayImpl.obj
 0001:00029990       ??0IOleWindow@@QAE@XZ      1002a990 f i RemoteOrderDisplayImpl.obj
 0001:000299c0       ??0IPersist@@QAE@XZ        1002a9c0 f i RemoteOrderDisplayImpl.obj
 0001:000299f0       ??0IPersistStorage@@QAE@XZ 1002a9f0 f i RemoteOrderDisplayImpl.obj
 0001:00029a20       ??0IPersistStreamInit@@QAE@XZ 1002aa20 f i RemoteOrderDisplayImpl.obj
 0001:00029a50       ??0IProvideClassInfo2@@QAE@XZ 1002aa50 f i RemoteOrderDisplayImpl.obj
 0001:00029a80       ??0IProvideClassInfo@@QAE@XZ 1002aa80 f i RemoteOrderDisplayImpl.obj
 0001:00029ab0       ??0IQuickActivate@@QAE@XZ  1002aab0 f i RemoteOrderDisplayImpl.obj
 0001:00029ae0       ??0ISpecifyPropertyPages@@QAE@XZ 1002aae0 f i RemoteOrderDisplayImpl.obj
 0001:00029b10       ??0IViewObject2@@QAE@XZ    1002ab10 f i RemoteOrderDisplayImpl.obj
 0001:00029b40       ??0IViewObject@@QAE@XZ     1002ab40 f i RemoteOrderDisplayImpl.obj
 0001:00029b70       ??0IViewObjectEx@@QAE@XZ   1002ab70 f i RemoteOrderDisplayImpl.obj
 0001:00029ba0       ??0OposVariantResult@@QAE@XZ 1002aba0 f i RemoteOrderDisplayImpl.obj
 0001:00029bd0       ??0_CW@@QAE@PBD@Z          1002abd0 f i RemoteOrderDisplayImpl.obj
 0001:00029c10       ??0_CW@@QAE@PB_W@Z         1002ac10 f i RemoteOrderDisplayImpl.obj
 0001:00029c50       ??0_CWNCC@@QAE@PBD@Z       1002ac50 f i RemoteOrderDisplayImpl.obj
 0001:00029c80       ??1?$CComControl@VCOPOSRemoteOrderDisplay@@V?$CWindowImpl@VCOPOSRemoteOrderDisplay@@VCWindow@ATL@@V?$CWinTraits@$0FGAAAAAA@$0A@@3@@ATL@@@ATL@@UAE@XZ 1002ac80 f i RemoteOrderDisplayImpl.obj
 0001:00029cb0       ??1?$CComPtr@UIDataAdviseHolder@@@ATL@@QAE@XZ 1002acb0 f i RemoteOrderDisplayImpl.obj
 0001:00029ce0       ??1?$CComPtr@UIOleAdviseHolder@@@ATL@@QAE@XZ 1002ace0 f i RemoteOrderDisplayImpl.obj
 0001:00029d10       ??1?$CComPtr@UIOleInPlaceSiteWindowless@@@ATL@@QAE@XZ 1002ad10 f i RemoteOrderDisplayImpl.obj
 0001:00029d40       ??1?$CComPtrBase@UIDataAdviseHolder@@@ATL@@QAE@XZ 1002ad40 f i RemoteOrderDisplayImpl.obj
 0001:00029d90       ??1?$CComPtrBase@UIOleAdviseHolder@@@ATL@@QAE@XZ 1002ad90 f i RemoteOrderDisplayImpl.obj
 0001:00029de0       ??1?$CComPtrBase@UIOleInPlaceSiteWindowless@@@ATL@@QAE@XZ 1002ade0 f i RemoteOrderDisplayImpl.obj
 0001:00029e30       ??1?$CComQIPtr@UIDispatch@@$1?_GUID_00020400_0000_0000_c000_000000000046@@3U__s_GUID@@B@ATL@@QAE@XZ 1002ae30 f i RemoteOrderDisplayImpl.obj
 0001:00029e60       ??1?$CProxy_IOPOSEvents@VCOPOSRemoteOrderDisplay@@@@QAE@XZ 1002ae60 f i RemoteOrderDisplayImpl.obj
 0001:00029e90       ??1?$CWindowImpl@VCOPOSRemoteOrderDisplay@@VCWindow@ATL@@V?$CWinTraits@$0FGAAAAAA@$0A@@3@@ATL@@UAE@XZ 1002ae90 f i RemoteOrderDisplayImpl.obj
 0001:00029ec0       ??1?$CWindowImplBaseT@VCWindow@ATL@@V?$CWinTraits@$0FGAAAAAA@$0A@@2@@ATL@@UAE@XZ 1002aec0 f i RemoteOrderDisplayImpl.obj
 0001:00029ef0       ??1?$CWindowImplRoot@VCWindow@ATL@@@ATL@@UAE@XZ 1002aef0 f i RemoteOrderDisplayImpl.obj
 0001:00029f90       ??1?$IConnectionPointImpl@VCOPOSRemoteOrderDisplay@@$1?DIID__IOPOSRemoteOrderDisplayEvents@@3U_GUID@@BVCComDynamicUnkArray@ATL@@@ATL@@QAE@XZ 1002af90 f i RemoteOrderDisplayImpl.obj
 0001:0002a010       ??1?$IConnectionPointImpl@VCOPOSRemoteOrderDisplay@@$1?IID_IPropertyNotifySink@@3U_GUID@@BVCComDynamicUnkArray@ATL@@@ATL@@QAE@XZ 1002b010 f i RemoteOrderDisplayImpl.obj
 0001:0002a090       ??1?$IPropertyNotifySinkCP@VCOPOSRemoteOrderDisplay@@VCComDynamicUnkArray@ATL@@@ATL@@QAE@XZ 1002b090 f i RemoteOrderDisplayImpl.obj
 0001:0002a0c0       ??1CComControlBase@ATL@@UAE@XZ 1002b0c0 f i RemoteOrderDisplayImpl.obj
 0001:0002a180       ??1CComDynamicUnkArray@ATL@@QAE@XZ 1002b180 f i RemoteOrderDisplayImpl.obj
 0001:0002a1c0       ??1CDynamicStdCallThunk2@ATL@@QAE@XZ 1002b1c0 f i RemoteOrderDisplayImpl.obj
 0001:0002a1f0       ??1CWndProcThunk@ATL@@QAE@XZ 1002b1f0 f i RemoteOrderDisplayImpl.obj
 0001:0002a220       ??1OposVariantResult@@QAE@XZ 1002b220 f i RemoteOrderDisplayImpl.obj
 0001:0002a250       ??1_CW@@QAE@XZ             1002b250 f i RemoteOrderDisplayImpl.obj
 0001:0002a2c0       ??1_CWNCC@@QAE@XZ          1002b2c0 f i RemoteOrderDisplayImpl.obj
 0001:0002a2f0       ??B_CW@@QAEPB_WXZ          1002b2f0 f i RemoteOrderDisplayImpl.obj
 0001:0002a330       ??B_CWNCC@@QAEPA_WXZ       1002b330 f i RemoteOrderDisplayImpl.obj
 0001:0002a360       ??_EOposVariant@@QAEPAXI@Z 1002b360 f i RemoteOrderDisplayImpl.obj
 0001:0002a3f0       ?EventClaim@COPOSRemoteOrderDisplay@@IAEXXZ 1002b3f0 f i RemoteOrderDisplayImpl.obj
 0001:0002a430       ?EventClose@COPOSRemoteOrderDisplay@@IAEXXZ 1002b430 f i RemoteOrderDisplayImpl.obj
 0001:0002a4d0       ?EventInit@COPOSRemoteOrderDisplay@@IAEJXZ 1002b4d0 f i RemoteOrderDisplayImpl.obj
 0001:0002a700       ?EventOpen@COPOSRemoteOrderDisplay@@IAEXXZ 1002b700 f i RemoteOrderDisplayImpl.obj
 0001:0002a740       ?EventPreCloseRelease@COPOSRemoteOrderDisplay@@IAEXXZ 1002b740 f i RemoteOrderDisplayImpl.obj
 0001:0002a7c0       ?EventUninit@COPOSRemoteOrderDisplay@@IAEXXZ 1002b7c0 f i RemoteOrderDisplayImpl.obj
 0001:0002a8f0       ?EventWindowProc@COPOSRemoteOrderDisplay@@IAGJIIJ@Z 1002b8f0 f i RemoteOrderDisplayImpl.obj
 0001:0002aac0       ?FireEventCleanup@COPOSRemoteOrderDisplay@@IAEXXZ 1002bac0 f i RemoteOrderDisplayImpl.obj
 0001:0002ab10       ?FireEventSetup@COPOSRemoteOrderDisplay@@IAE_NXZ 1002bb10 f i RemoteOrderDisplayImpl.obj
 0001:0002ab80       ?GetModuleInstance@CComModule@ATL@@QAEPAUHINSTANCE__@@XZ 1002bb80 f i RemoteOrderDisplayImpl.obj
 0001:0002aba0       ?SetRC@COPOSRemoteOrderDisplay@@IAEJJ@Z 1002bba0 f i RemoteOrderDisplayImpl.obj
 0001:0002abd0       ?s_EventWindowProc@COPOSRemoteOrderDisplay@@KGJPAUHWND__@@IIJ@Z 1002bbd0 f i RemoteOrderDisplayImpl.obj
 0001:0002ac70       __snwprintf                1002bc70 f i RemoteOrderDisplayImpl.obj
 0001:0002acd0       __vfwprintf_l              1002bcd0 f i RemoteOrderDisplayImpl.obj
 0001:0002ad00       __vsnwprintf               1002bd00 f i RemoteOrderDisplayImpl.obj
 0001:0002ad30       __vsnwprintf_l             1002bd30 f i RemoteOrderDisplayImpl.obj
 0001:0002ada0       _vfwprintf                 1002bda0 f i RemoteOrderDisplayImpl.obj
 0001:0002adc2       _DebugBreak@0              1002bdc2 f   kernel32:KERNEL32.dll
 0001:0002adc8       _Sleep@4                   1002bdc8 f   kernel32:KERNEL32.dll
 0001:0002adce       _GetCurrentProcess@0       1002bdce f   kernel32:KERNEL32.dll
 0001:0002add4       _TerminateProcess@8        1002bdd4 f   kernel32:KERNEL32.dll
 0001:0002adda       _MultiByteToWideChar@24    1002bdda f   kernel32:KERNEL32.dll
 0001:0002ade0       _WideCharToMultiByte@32    1002bde0 f   kernel32:KERNEL32.dll
 0001:0002ade6       _DecodePointer@4           1002bde6 f   kernel32:KERNEL32.dll
 0001:0002adec       _RaiseException@16         1002bdec f   kernel32:KERNEL32.dll
 0001:0002adf2       _GetLastError@0            1002bdf2 f   kernel32:KERNEL32.dll
 0001:0002adf8       _SetLastError@4            1002bdf8 f   kernel32:KERNEL32.dll
 0001:0002adfe       _InitializeCriticalSectionEx@12 1002bdfe f   kernel32:KERNEL32.dll
 0001:0002ae04       _DeleteCriticalSection@4   1002be04 f   kernel32:KERNEL32.dll
 0001:0002ae0a       _EncodePointer@4           1002be0a f   kernel32:KERNEL32.dll
 0001:0002ae10       _EnterCriticalSection@4    1002be10 f   kernel32:KERNEL32.dll
 0001:0002ae16       _LeaveCriticalSection@4    1002be16 f   kernel32:KERNEL32.dll
 0001:0002ae1c       _ResetEvent@4              1002be1c f   kernel32:KERNEL32.dll
 0001:0002ae22       _ReleaseMutex@4            1002be22 f   kernel32:KERNEL32.dll
 0001:0002ae28       _WaitForSingleObject@8     1002be28 f   kernel32:KERNEL32.dll
 0001:0002ae2e       _GetCurrentThreadId@0      1002be2e f   kernel32:KERNEL32.dll
 0001:0002ae34       _DisableThreadLibraryCalls@4 1002be34 f   kernel32:KERNEL32.dll
 0001:0002ae3a       _FreeLibrary@4             1002be3a f   kernel32:KERNEL32.dll
 0001:0002ae40       _GetModuleFileNameW@12     1002be40 f   kernel32:KERNEL32.dll
 0001:0002ae46       _GetModuleHandleW@4        1002be46 f   kernel32:KERNEL32.dll
 0001:0002ae4c       _GetProcAddress@8          1002be4c f   kernel32:KERNEL32.dll
 0001:0002ae52       _LoadLibraryExW@12         1002be52 f   kernel32:KERNEL32.dll
 0001:0002ae58       _LoadResource@8            1002be58 f   kernel32:KERNEL32.dll
 0001:0002ae5e       _SizeofResource@8          1002be5e f   kernel32:KERNEL32.dll
 0001:0002ae64       _FindResourceW@12          1002be64 f   kernel32:KERNEL32.dll
 0001:0002ae6a       _GlobalAlloc@8             1002be6a f   kernel32:KERNEL32.dll
 0001:0002ae70       _GlobalUnlock@4            1002be70 f   kernel32:KERNEL32.dll
 0001:0002ae76       _GlobalLock@4              1002be76 f   kernel32:KERNEL32.dll
 0001:0002ae7c       _MulDiv@12                 1002be7c f   kernel32:KERNEL32.dll
 0001:0002ae82       _lstrcmpiW@8               1002be82 f   kernel32:KERNEL32.dll
 0001:0002ae88       _DeleteFileW@4             1002be88 f   kernel32:KERNEL32.dll
 0001:0002ae8e       _CloseHandle@4             1002be8e f   kernel32:KERNEL32.dll
 0001:0002ae94       _SetEvent@4                1002be94 f   kernel32:KERNEL32.dll
 0001:0002ae9a       _CreateMutexW@12           1002be9a f   kernel32:KERNEL32.dll
 0001:0002aea0       _CreateEventW@16           1002bea0 f   kernel32:KERNEL32.dll
 0001:0002aea6       _GetCurrentProcessId@0     1002bea6 f   kernel32:KERNEL32.dll
 0001:0002aeac       _LocalFree@4               1002beac f   kernel32:KERNEL32.dll
 0001:0002aeb2       _FormatMessageW@28         1002beb2 f   kernel32:KERNEL32.dll
 0001:0002aeb8       _GetActiveWindow@0         1002beb8 f   user32:USER32.dll
 0001:0002aebe       _MessageBoxW@16            1002bebe f   user32:USER32.dll
 0001:0002aec4       _UnregisterClassW@8        1002bec4 f   user32:USER32.dll
 0001:0002aeca       _PostMessageW@16           1002beca f   user32:USER32.dll
 0001:0002aed0       _DefWindowProcW@16         1002bed0 f   user32:USER32.dll
 0001:0002aed6       _CallWindowProcW@20        1002bed6 f   user32:USER32.dll
 0001:0002aedc       _RegisterClassExW@4        1002bedc f   user32:USER32.dll
 0001:0002aee2       _GetClassInfoExW@12        1002bee2 f   user32:USER32.dll
 0001:0002aee8       _CreateWindowExW@48        1002bee8 f   user32:USER32.dll
 0001:0002aeee       _IsWindow@4                1002beee f   user32:USER32.dll
 0001:0002aef4       _IsChild@8                 1002bef4 f   user32:USER32.dll
 0001:0002aefa       _DestroyWindow@4           1002befa f   user32:USER32.dll
 0001:0002af00       _ShowWindow@8              1002bf00 f   user32:USER32.dll
 0001:0002af06       _SetWindowPos@28           1002bf06 f   user32:USER32.dll
 0001:0002af0c       _CharNextW@4               1002bf0c f   user32:USER32.dll
 0001:0002af12       _SetFocus@4                1002bf12 f   user32:USER32.dll
 0001:0002af18       _GetFocus@0                1002bf18 f   user32:USER32.dll
 0001:0002af1e       _GetKeyState@4             1002bf1e f   user32:USER32.dll
 0001:0002af24       _GetDC@4                   1002bf24 f   user32:USER32.dll
 0001:0002af2a       _ReleaseDC@8               1002bf2a f   user32:USER32.dll
 0001:0002af30       _BeginPaint@8              1002bf30 f   user32:USER32.dll
 0001:0002af36       _EndPaint@8                1002bf36 f   user32:USER32.dll
 0001:0002af3c       _SetWindowRgn@12           1002bf3c f   user32:USER32.dll
 0001:0002af42       _InvalidateRect@12         1002bf42 f   user32:USER32.dll
 0001:0002af48       _GetClientRect@8           1002bf48 f   user32:USER32.dll
 0001:0002af4e       _IntersectRect@12          1002bf4e f   user32:USER32.dll
 0001:0002af54       _UnionRect@12              1002bf54 f   user32:USER32.dll
 0001:0002af5a       _OffsetRect@12             1002bf5a f   user32:USER32.dll
 0001:0002af60       _EqualRect@8               1002bf60 f   user32:USER32.dll
 0001:0002af66       _PtInRect@12               1002bf66 f   user32:USER32.dll
 0001:0002af6c       _GetWindowLongW@8          1002bf6c f   user32:USER32.dll
 0001:0002af72       _SetWindowLongW@12         1002bf72 f   user32:USER32.dll
 0001:0002af78       _GetParent@4               1002bf78 f   user32:USER32.dll
 0001:0002af7e       _LoadCursorW@8             1002bf7e f   user32:USER32.dll
 0001:0002af84       _PeekMessageW@20           1002bf84 f   user32:USER32.dll
 0001:0002af8a       _RegisterClassW@4          1002bf8a f   user32:USER32.dll
 0001:0002af90       _LoadBitmapW@8             1002bf90 f   user32:USER32.dll
 0001:0002af96       _CloseMetaFile@4           1002bf96 f   gdi32:GDI32.dll
 0001:0002af9c       _CreateDCW@16              1002bf9c f   gdi32:GDI32.dll
 0001:0002afa2       _CreateMetaFileW@4         1002bfa2 f   gdi32:GDI32.dll
 0001:0002afa8       _CreateRectRgnIndirect@4   1002bfa8 f   gdi32:GDI32.dll
 0001:0002afae       _DeleteDC@4                1002bfae f   gdi32:GDI32.dll
 0001:0002afb4       _DeleteMetaFile@4          1002bfb4 f   gdi32:GDI32.dll
 0001:0002afba       _GetDeviceCaps@8           1002bfba f   gdi32:GDI32.dll
 0001:0002afc0       _RestoreDC@8               1002bfc0 f   gdi32:GDI32.dll
 0001:0002afc6       _SaveDC@4                  1002bfc6 f   gdi32:GDI32.dll
 0001:0002afcc       _SetMapMode@8              1002bfcc f   gdi32:GDI32.dll
 0001:0002afd2       _LPtoDP@12                 1002bfd2 f   gdi32:GDI32.dll
 0001:0002afd8       _SetViewportOrgEx@16       1002bfd8 f   gdi32:GDI32.dll
 0001:0002afde       _SetWindowExtEx@16         1002bfde f   gdi32:GDI32.dll
 0001:0002afe4       _SetWindowOrgEx@16         1002bfe4 f   gdi32:GDI32.dll
 0001:0002afea       _BitBlt@36                 1002bfea f   gdi32:GDI32.dll
 0001:0002aff0       _CreateCompatibleDC@4      1002bff0 f   gdi32:GDI32.dll
 0001:0002aff6       _DeleteObject@4            1002bff6 f   gdi32:GDI32.dll
 0001:0002affc       _SelectObject@8            1002bffc f   gdi32:GDI32.dll
 0001:0002b002       _GetObjectW@12             1002c002 f   gdi32:GDI32.dll
 0001:0002b008       _RegCloseKey@4             1002c008 f   advapi32:ADVAPI32.dll
 0001:0002b00e       _RegCreateKeyExW@36        1002c00e f   advapi32:ADVAPI32.dll
 0001:0002b014       _RegDeleteKeyW@8           1002c014 f   advapi32:ADVAPI32.dll
 0001:0002b01a       _RegDeleteValueW@8         1002c01a f   advapi32:ADVAPI32.dll
 0001:0002b020       _RegEnumKeyExW@32          1002c020 f   advapi32:ADVAPI32.dll
 0001:0002b026       _RegOpenKeyExW@20          1002c026 f   advapi32:ADVAPI32.dll
 0001:0002b02c       _RegQueryInfoKeyW@48       1002c02c f   advapi32:ADVAPI32.dll
 0001:0002b032       _RegSetValueExW@24         1002c032 f   advapi32:ADVAPI32.dll
 0001:0002b038       _RegQueryValueExW@24       1002c038 f   advapi32:ADVAPI32.dll
 0001:0002b03e       _CoCreateInstance@20       1002c03e f   ole32:ole32.dll
 0001:0002b044       _StringFromGUID2@12        1002c044 f   ole32:ole32.dll
 0001:0002b04a       _CoTaskMemAlloc@4          1002c04a f   ole32:ole32.dll
 0001:0002b050       _CoTaskMemRealloc@8        1002c050 f   ole32:ole32.dll
 0001:0002b056       _CoTaskMemFree@4           1002c056 f   ole32:ole32.dll
 0001:0002b05c       _ReadClassStm@8            1002c05c f   ole32:ole32.dll
 0001:0002b062       _WriteClassStm@8           1002c062 f   ole32:ole32.dll
 0001:0002b068       _CreateDataAdviseHolder@4  1002c068 f   ole32:ole32.dll
 0001:0002b06e       _OleSaveToStream@8         1002c06e f   ole32:ole32.dll
 0001:0002b074       _CreateOleAdviseHolder@4   1002c074 f   ole32:ole32.dll
 0001:0002b07a       _OleRegGetUserType@12      1002c07a f   ole32:ole32.dll
 0001:0002b080       _OleRegGetMiscStatus@12    1002c080 f   ole32:ole32.dll
 0001:0002b086       _OleRegEnumVerbs@8         1002c086 f   ole32:ole32.dll
 0001:0002b08c       _CLSIDFromProgID@8         1002c08c f   ole32:ole32.dll
 0001:0002b092       _SysAllocString@4          1002c092 f   oleaut32:OLEAUT32.dll
 0001:0002b098       _SysAllocStringLen@8       1002c098 f   oleaut32:OLEAUT32.dll
 0001:0002b09e       _SysFreeString@4           1002c09e f   oleaut32:OLEAUT32.dll
 0001:0002b0a4       _SysStringLen@4            1002c0a4 f   oleaut32:OLEAUT32.dll
 0001:0002b0aa       _VariantClear@4            1002c0aa f   oleaut32:OLEAUT32.dll
 0001:0002b0b0       _VariantCopyInd@8          1002c0b0 f   oleaut32:OLEAUT32.dll
 0001:0002b0b6       _VariantChangeType@16      1002c0b6 f   oleaut32:OLEAUT32.dll
 0001:0002b0bc       _SysStringByteLen@4        1002c0bc f   oleaut32:OLEAUT32.dll
 0001:0002b0c2       _SysAllocStringByteLen@8   1002c0c2 f   oleaut32:OLEAUT32.dll
 0001:0002b0c8       _VariantInit@4             1002c0c8 f   oleaut32:OLEAUT32.dll
 0001:0002b0ce       _VarUI4FromStr@16          1002c0ce f   oleaut32:OLEAUT32.dll
 0001:0002b0d4       _LoadTypeLib@8             1002c0d4 f   oleaut32:OLEAUT32.dll
 0001:0002b0da       _LoadRegTypeLib@20         1002c0da f   oleaut32:OLEAUT32.dll
 0001:0002b0e0       _RegisterTypeLib@12        1002c0e0 f   oleaut32:OLEAUT32.dll
 0001:0002b0e6       _UnRegisterTypeLib@20      1002c0e6 f   oleaut32:OLEAUT32.dll
 0001:0002b0ec       _OleCreatePropertyFrame@44 1002c0ec f   oleaut32:OLEAUT32.dll
 0001:0002b100       @_RTC_AllocaHelper@12      1002c100 f   LIBCMTD:stack.obj
 0001:0002b140       @_RTC_CheckStackVars2@12   1002c140 f   LIBCMTD:stack.obj
 0001:0002b220       @_RTC_CheckStackVars@8     1002c220 f   LIBCMTD:stack.obj
 0001:0002b280       __RTC_CheckEsp             1002c280 f   LIBCMTD:stack.obj
 0001:0002b2c0       @__security_check_cookie@4 1002c2c0 f   LIBCMTD:secchk.obj
 0001:0002b2e0       __CRT_RTC_INIT             1002c2e0 f   LIBCMTD:init.obj
 0001:0002b2f0       __CRT_RTC_INITW            1002c2f0 f   LIBCMTD:init.obj
 0001:0002b300       __RTC_InitBase             1002c300 f   LIBCMTD:init.obj
 0001:0002b330       __RTC_Shutdown             1002c330 f   LIBCMTD:init.obj
 0001:0002b350       ??_U@YAPAXI@Z              1002c350 f   LIBCMTD:new_array.obj
 0001:0002b370       ??3@YAXPAXI@Z              1002c370 f   LIBCMTD:delete_scalar_size.obj
 0001:0002b390       ??_V@YAXPAX@Z              1002c390 f   LIBCMTD:delete_array.obj
 0001:0002b3b0       ??_V@YAXPAXI@Z             1002c3b0 f   LIBCMTD:delete_array_size.obj
 0001:0002b3d0       ?configure_argv@__scrt_narrow_argv_policy@@SAHXZ 1002c3d0 f i LIBCMTD:utility.obj
 0001:0002b480       ?initialize_environment@__scrt_narrow_environment_policy@@SAHXZ 1002c480 f i LIBCMTD:utility.obj
 0001:0002b500       _NtCurrentTeb              1002c500 f i LIBCMTD:utility.obj
 0001:0002b510       ___scrt_acquire_startup_lock 1002c510 f   LIBCMTD:utility.obj
 0001:0002b560       ___scrt_dllmain_after_initialize_c 1002c560 f   LIBCMTD:utility.obj
 0001:0002b590       ___scrt_dllmain_before_initialize_c 1002c590 f   LIBCMTD:utility.obj
 0001:0002b5b0       ___scrt_dllmain_crt_thread_attach 1002c5b0 f   LIBCMTD:utility.obj
 0001:0002b5e0       ___scrt_dllmain_crt_thread_detach 1002c5e0 f   LIBCMTD:utility.obj
 0001:0002b600       ___scrt_dllmain_exception_filter 1002c600 f   LIBCMTD:utility.obj
 0001:0002b650       ___scrt_dllmain_uninitialize_c 1002c650 f   LIBCMTD:utility.obj
 0001:0002b680       ___scrt_dllmain_uninitialize_critical 1002c680 f   LIBCMTD:utility.obj
 0001:0002b6a0       ___scrt_initialize_crt     1002c6a0 f   LIBCMTD:utility.obj
 0001:0002b6f0       ___scrt_initialize_onexit_tables 1002c6f0 f   LIBCMTD:utility.obj
 0001:0002b7d0       ___scrt_is_nonwritable_in_current_image 1002c7d0 f   LIBCMTD:utility.obj
 0001:0002b900       ___scrt_release_startup_lock 1002c900 f   LIBCMTD:utility.obj
 0001:0002b930       ___scrt_uninitialize_crt   1002c930 f   LIBCMTD:utility.obj
 0001:0002b970       __onexit                   1002c970 f   LIBCMTD:utility.obj
 0001:0002b9e0       _at_quick_exit             1002c9e0 f   LIBCMTD:utility.obj
 0001:0002ba20       _atexit                    1002ca20 f   LIBCMTD:utility.obj
 0001:0002ba50       ??3@YAXPAX@Z               1002ca50 f   LIBCMTD:delete_scalar.obj
 0001:0002ba70       ___raise_securityfailure   1002ca70 f   LIBCMTD:gs_report.obj
 0001:0002baa0       ___report_gsfailure        1002caa0 f   LIBCMTD:gs_report.obj
 0001:0002bbb0       ___report_rangecheckfailure 1002cbb0 f   LIBCMTD:gs_report.obj
 0001:0002bbc0       ___report_securityfailure  1002cbc0 f   LIBCMTD:gs_report.obj
 0001:0002bca0       ___report_securityfailureEx 1002cca0 f   LIBCMTD:gs_report.obj
 0001:0002bef0       __Init_thread_abort        1002cef0 f   LIBCMTD:thread_safe_statics.obj
 0001:0002bf10       __Init_thread_footer       1002cf10 f   LIBCMTD:thread_safe_statics.obj
 0001:0002bf60       __Init_thread_header       1002cf60 f   LIBCMTD:thread_safe_statics.obj
 0001:0002bfd0       __Init_thread_lock         1002cfd0 f   LIBCMTD:thread_safe_statics.obj
 0001:0002bfe0       __Init_thread_notify       1002cfe0 f   LIBCMTD:thread_safe_statics.obj
 0001:0002c030       __Init_thread_unlock       1002d030 f   LIBCMTD:thread_safe_statics.obj
 0001:0002c040       __Init_thread_wait         1002d040 f   LIBCMTD:thread_safe_statics.obj
 0001:0002c0d0       ??2@YAPAXIABUnothrow_t@std@@@Z 1002d0d0 f   LIBCMTD:new_scalar_nothrow.obj
 0001:0002c160       ??_U@YAPAXIABUnothrow_t@std@@@Z 1002d160 f   LIBCMTD:new_array_nothrow.obj
 0001:0002c180       __allmul                   1002d180 f   LIBCMTD:llmul.obj
 0001:0002c1c0       __alloca_probe_16          1002d1c0 f   LIBCMTD:alloca16.obj
 0001:0002c1d6       __alloca_probe_8           1002d1d6     LIBCMTD:alloca16.obj
 0001:0002c1f0       __alloca_probe             1002d1f0 f   LIBCMTD:chkstk.obj
 0001:0002c1f0       __chkstk                   1002d1f0 f   LIBCMTD:chkstk.obj
 0001:0002c6f0       __CRT_INIT@12              1002d6f0 f   LIBCMTD:dll_dllmain.obj
 0001:0002c710       __DllMainCRTStartup@12     1002d710 f   LIBCMTD:dll_dllmain.obj
 0001:0002c7d0       ?_RTC_AllocaFailure@@YAXPAXPAU_RTC_ALLOCA_NODE@@H@Z 1002d7d0 f   LIBCMTD:error.obj
 0001:0002c8c0       ?_RTC_Failure@@YAXPAXH@Z   1002d8c0 f   LIBCMTD:error.obj
 0001:0002c910       ?_RTC_StackFailure@@YAXPAXPBD@Z 1002d910 f   LIBCMTD:error.obj
 0001:0002ccd0       __RTC_UninitUse            1002dcd0 f   LIBCMTD:error.obj
 0001:0002cd80       __vsprintf_s_l             1002dd80 f i LIBCMTD:error.obj
 0001:0002cdb0       _sprintf_s                 1002ddb0 f i LIBCMTD:error.obj
 0001:0002cdd0       ?_RTC_GetErrorFunc@@YAP6AHHPBDH00ZZPBX@Z 1002ddd0 f   LIBCMTD:userapi.obj
 0001:0002cde0       ?_RTC_GetErrorFuncW@@YAP6AHHPB_WH00ZZPBX@Z 1002dde0 f   LIBCMTD:userapi.obj
 0001:0002cdf0       __RTC_GetErrDesc           1002ddf0 f   LIBCMTD:userapi.obj
 0001:0002ce10       __RTC_NumErrors            1002de10 f   LIBCMTD:userapi.obj
 0001:0002ce20       __RTC_SetErrorFunc         1002de20 f   LIBCMTD:userapi.obj
 0001:0002ce40       __RTC_SetErrorFuncW        1002de40 f   LIBCMTD:userapi.obj
 0001:0002ce60       __RTC_SetErrorType         1002de60 f   LIBCMTD:userapi.obj
 0001:0002ce90       ??2@YAPAXI@Z               1002de90 f   LIBCMTD:new_scalar.obj
 0001:0002cee0       ___isa_available_init      1002dee0 f   LIBCMTD:cpu_disp.obj
 0001:0002d220       __get_startup_argv_mode    1002e220 f   LIBCMTD:argv_mode.obj
 0001:0002d230       ___scrt_is_ucrt_dll_in_use 1002e230 f   LIBCMTD:ucrt_detection.obj
 0001:0002d260       ___scrt_fastfail           1002e260 f   LIBCMTD:utility_desktop.obj
 0001:0002d3a0       ___scrt_get_show_window_mode 1002e3a0 f   LIBCMTD:utility_desktop.obj
 0001:0002d3e0       ___scrt_initialize_mta     1002e3e0 f   LIBCMTD:utility_desktop.obj
 0001:0002d3f0       ___scrt_initialize_winrt   1002e3f0 f   LIBCMTD:utility_desktop.obj
 0001:0002d400       ___scrt_is_managed_app     1002e400 f   LIBCMTD:utility_desktop.obj
 0001:0002d490       ___scrt_set_unhandled_exception_filter 1002e490 f   LIBCMTD:utility_desktop.obj
 0001:0002d4a0       ___scrt_stub_for_initialize_mta 1002e4a0 f   LIBCMTD:utility_desktop.obj
 0001:0002d4a0       ___scrt_exe_initialize_mta 1002e4a0 f   LIBCMTD:utility_desktop.obj
 0001:0002d4b0       ___scrt_unhandled_exception_filter@4 1002e4b0 f   LIBCMTD:utility_desktop.obj
 0001:0002d530       __crt_debugger_hook        1002e530 f   LIBCMTD:utility_desktop.obj
 0001:0002d540       @_guard_check_icall_nop@4  1002e540 f i LIBCMTD:guard_support.obj
 0001:0002d550       _ReadNoFence               1002e550 f i LIBCMTD:guard_support.obj
 0001:0002d570       _ReadPointerNoFence        1002e570 f i LIBCMTD:guard_support.obj
 0001:0002d590       ___castguard_check_failure_debugbreak 1002e590 f i LIBCMTD:guard_support.obj
 0001:0002d5b0       ___castguard_check_failure_fastfail 1002e5b0 f i LIBCMTD:guard_support.obj
 0001:0002d5d0       ___castguard_check_failure_nop 1002e5d0 f i LIBCMTD:guard_support.obj
 0001:0002d5e0       ___castguard_check_failure_os_handled 1002e5e0 f i LIBCMTD:guard_support.obj
 0001:0002d660       ___castguard_slow_path_check_debugbreak 1002e660 f i LIBCMTD:guard_support.obj
 0001:0002d690       ___castguard_slow_path_check_fastfail 1002e690 f i LIBCMTD:guard_support.obj
 0001:0002d6d0       ___castguard_slow_path_check_nop 1002e6d0 f i LIBCMTD:guard_support.obj
 0001:0002d6e0       ___castguard_slow_path_check_os_handled 1002e6e0 f i LIBCMTD:guard_support.obj
 0001:0002d780       __guard_icall_checks_enforced 1002e780 f i LIBCMTD:guard_support.obj
 0001:0002d820       ___security_init_cookie    1002e820 f   LIBCMTD:gs_support.obj
 0001:0002d8a0       ?__scrt_initialize_type_info@@YAXXZ 1002e8a0 f   LIBCMTD:tncleanup.obj
 0001:0002d8b0       ?__scrt_uninitialize_type_info@@YAXXZ 1002e8b0 f   LIBCMTD:tncleanup.obj
 0001:0002d8d0       ___local_stdio_scanf_options 1002e8d0 f i LIBCMTD:default_local_stdio_options.obj
 0001:0002d8e0       ___scrt_initialize_default_local_stdio_options 1002e8e0 f   LIBCMTD:default_local_stdio_options.obj
 0001:0002d920       ___scrt_get_dyn_tls_init_callback 1002e920 f   LIBCMTD:dyn_tls_init.obj
 0001:0002d930       __RTC_Initialize           1002e930 f   LIBCMTD:initsect.obj
 0001:0002d960       __RTC_Terminate            1002e960 f   LIBCMTD:initsect.obj
 0001:0002de10       ?_RTC_GetSrcLine@@YAHPAEPA_WKPAH1K@Z 1002ee10 f   LIBCMTD:pdblkup.obj
 0001:0002e190       __except_handler4_noexcept 1002f190 f   LIBCMTD:chandler4_noexcept.obj
 0001:0002e1f0       ??0bad_alloc@std@@AAE@QBD@Z 1002f1f0 f i LIBCMTD:throw_bad_alloc.obj
 0001:0002e220       ??0bad_alloc@std@@QAE@ABV01@@Z 1002f220 f i LIBCMTD:throw_bad_alloc.obj
 0001:0002e250       ??0bad_alloc@std@@QAE@XZ   1002f250 f i LIBCMTD:throw_bad_alloc.obj
 0001:0002e280       ??0bad_array_new_length@std@@QAE@ABV01@@Z 1002f280 f i LIBCMTD:throw_bad_alloc.obj
 0001:0002e2b0       ??0bad_array_new_length@std@@QAE@XZ 1002f2b0 f i LIBCMTD:throw_bad_alloc.obj
 0001:0002e2e0       ??0exception@std@@QAE@ABV01@@Z 1002f2e0 f i LIBCMTD:throw_bad_alloc.obj
 0001:0002e320       ??0exception@std@@QAE@QBDH@Z 1002f320 f i LIBCMTD:throw_bad_alloc.obj
 0001:0002e350       ??1bad_alloc@std@@UAE@XZ   1002f350 f i LIBCMTD:throw_bad_alloc.obj
 0001:0002e370       ??1bad_array_new_length@std@@UAE@XZ 1002f370 f i LIBCMTD:throw_bad_alloc.obj
 0001:0002e390       ??1exception@std@@UAE@XZ   1002f390 f i LIBCMTD:throw_bad_alloc.obj
 0001:0002e3c0       ??_Gbad_alloc@std@@UAEPAXI@Z 1002f3c0 f i LIBCMTD:throw_bad_alloc.obj
 0001:0002e3c0       ??_Ebad_alloc@std@@UAEPAXI@Z 1002f3c0 f i LIBCMTD:throw_bad_alloc.obj
 0001:0002e3f0       ??_Gbad_array_new_length@std@@UAEPAXI@Z 1002f3f0 f i LIBCMTD:throw_bad_alloc.obj
 0001:0002e3f0       ??_Ebad_array_new_length@std@@UAEPAXI@Z 1002f3f0 f i LIBCMTD:throw_bad_alloc.obj
 0001:0002e420       ??_Eexception@std@@UAEPAXI@Z 1002f420 f i LIBCMTD:throw_bad_alloc.obj
 0001:0002e420       ??_Gexception@std@@UAEPAXI@Z 1002f420 f i LIBCMTD:throw_bad_alloc.obj
 0001:0002e450       ?__scrt_throw_std_bad_alloc@@YAXXZ 1002f450 f   LIBCMTD:throw_bad_alloc.obj
 0001:0002e470       ?__scrt_throw_std_bad_array_new_length@@YAXXZ 1002f470 f   LIBCMTD:throw_bad_alloc.obj
 0001:0002e490       ?what@exception@std@@UBEPBDXZ 1002f490 f i LIBCMTD:throw_bad_alloc.obj
 0001:0002e4c0       ??1type_info@@UAE@XZ       1002f4c0 f   LIBCMTD:std_type_info_static.obj
 0001:0002e4e0       ??_Gtype_info@@UAEPAXI@Z   1002f4e0 f i LIBCMTD:std_type_info_static.obj
 0001:0002e4e0       ??_Etype_info@@UAEPAXI@Z   1002f4e0 f i LIBCMTD:std_type_info_static.obj
 0001:0002e50e       ??$?2PAUHINSTANCE__@@@Wrapper@?$CSimpleArray@PAUHINSTANCE__@@V?$CSimpleArrayEqualHelper@PAUHINSTANCE__@@@ATL@@@ATL@@SAPAXIPAPAUHINSTANCE__@@@Z 1002f50e f i atls:atlbase.obj
 0001:0002e516       ??0?$CSimpleArray@PAUHINSTANCE__@@V?$CSimpleArrayEqualHelper@PAUHINSTANCE__@@@ATL@@@ATL@@QAE@XZ 1002f516 f i atls:atlbase.obj
 0001:0002e523       ??0CAtlBaseModule@ATL@@QAE@XZ 1002f523 f   atls:atlbase.obj
 0001:0002e576       ??0Wrapper@?$CSimpleArray@PAUHINSTANCE__@@V?$CSimpleArrayEqualHelper@PAUHINSTANCE__@@@ATL@@@ATL@@QAE@ABQAUHINSTANCE__@@@Z 1002f576 f i atls:atlbase.obj
 0001:0002e586       ??0_ATL_BASE_MODULE70@ATL@@QAE@XZ 1002f586 f i atls:atlbase.obj
 0001:0002e5a9       ??1?$CSimpleArray@PAUHINSTANCE__@@V?$CSimpleArrayEqualHelper@PAUHINSTANCE__@@@ATL@@@ATL@@QAE@XZ 1002f5a9 f i atls:atlbase.obj
 0001:0002e5ae       ??1CAtlBaseModule@ATL@@QAE@XZ 1002f5ae f   atls:atlbase.obj
 0001:0002e5c4       ??1_ATL_BASE_MODULE70@ATL@@QAE@XZ 1002f5c4 f i atls:atlbase.obj
 0001:0002e5cc       ??A?$CSimpleArray@PAUHINSTANCE__@@V?$CSimpleArrayEqualHelper@PAUHINSTANCE__@@@ATL@@@ATL@@QAEAAPAUHINSTANCE__@@H@Z 1002f5cc f i atls:atlbase.obj
 0001:0002e5f1       ?Add@?$CSimpleArray@PAUHINSTANCE__@@V?$CSimpleArrayEqualHelper@PAUHINSTANCE__@@@ATL@@@ATL@@QAEHABQAUHINSTANCE__@@@Z 1002f5f1 f i atls:atlbase.obj
 0001:0002e673       ?AddResourceInstance@CAtlBaseModule@ATL@@QAE_NPAUHINSTANCE__@@@Z 1002f673 f   atls:atlbase.obj
 0001:0002e6a6       ?GetHInstanceAt@CAtlBaseModule@ATL@@QAEPAUHINSTANCE__@@H@Z 1002f6a6 f   atls:atlbase.obj
 0001:0002e6eb       ?GetSize@?$CSimpleArray@PAUHINSTANCE__@@V?$CSimpleArrayEqualHelper@PAUHINSTANCE__@@@ATL@@@ATL@@QBEHXZ 1002f6eb f i atls:atlbase.obj
 0001:0002e6ef       ?InternalSetAtIndex@?$CSimpleArray@PAUHINSTANCE__@@V?$CSimpleArrayEqualHelper@PAUHINSTANCE__@@@ATL@@@ATL@@QAEXHABQAUHINSTANCE__@@@Z 1002f6ef f i atls:atlbase.obj
 0001:0002e709       ?RemoveAll@?$CSimpleArray@PAUHINSTANCE__@@V?$CSimpleArrayEqualHelper@PAUHINSTANCE__@@@ATL@@@ATL@@QAEXXZ 1002f709 f i atls:atlbase.obj
 0001:0002e726       ?RemoveAt@?$CSimpleArray@PAUHINSTANCE__@@V?$CSimpleArrayEqualHelper@PAUHINSTANCE__@@@ATL@@@ATL@@QAEHH@Z 1002f726 f i atls:atlbase.obj
 0001:0002e774       ?RemoveResourceInstance@CAtlBaseModule@ATL@@QAE_NPAUHINSTANCE__@@@Z 1002f774 f   atls:atlbase.obj
 0001:0002e7d1       ?memmove_s@Checked@ATL@@YAXPAXIPBXI@Z 1002f7d1 f i atls:atlbase.obj
 0001:0002eb2e       ?GetCodeAddress@_stdcallthunk@ATL@@QAEPAXXZ 1002fb2e f i atls:atlthunk.obj
 0001:0002eb58       ?Init@_stdcallthunk@ATL@@QAEHKPAX@Z 1002fb58 f i atls:atlthunk.obj
 0001:0002eb8d       ?__AllocStdCallThunk@@YGPAXXZ 1002fb8d f   atls:atlthunk.obj
 0001:0002eb92       ?__AllocStdCallThunk@ATL@@YGPAXXZ 1002fb92 f   atls:atlthunk.obj
 0001:0002eb97       ?__AllocStdCallThunk_cmn@@YAPAXXZ 1002fb97 f   atls:atlthunk.obj
 0001:0002ec5d       ?__FreeStdCallThunk@@YGXPAX@Z 1002fc5d f   atls:atlthunk.obj
 0001:0002ec6d       ?__FreeStdCallThunk@ATL@@YGXPAX@Z 1002fc6d f   atls:atlthunk.obj
 0001:0002ec7d       ?__FreeStdCallThunk_cmn@@YAXPAX@Z 1002fc7d f   atls:atlthunk.obj
 0001:0002ed18       _AtlThunk_AllocateData@0   1002fd18 f   atls:atlthunk.obj
 0001:0002ed7d       _AtlThunk_DataToCode@4     1002fd7d f   atls:atlthunk.obj
 0001:0002edc4       _AtlThunk_FreeData@4       1002fdc4 f   atls:atlthunk.obj
 0001:0002ee1a       _AtlThunk_InitData@12      1002fe1a f   atls:atlthunk.obj
 0001:0002ee69       _MemoryBarrier             1002fe69 f i atls:atlthunk.obj
 0001:0002ee77       __InlineInterlockedCompareExchangePointer 1002fe77 f i atls:atlthunk.obj
 0001:0002ee90       _memset                    1002fe90 f   libvcruntimed:memset.obj
 0001:0002eff0       ??$__crt_interlocked_exchange_pointer@$$A6AXXZP6AXXZ@@YAP6AXXZPDS6AXXZQ6AXXZ@Z 1002fff0 f i libvcruntimed:purevirt.obj
 0001:0002f000       ??$__crt_interlocked_read_pointer@$$A6AXXZ@@YAP6AXXZPDS6AXXZ@Z 10030000 f i libvcruntimed:purevirt.obj
 0001:0002f020       ?__crt_interlocked_read_32@@YAHPDH@Z 10030020 f i libvcruntimed:purevirt.obj
 0001:0002f040       __get_purecall_handler     10030040 f   libvcruntimed:purevirt.obj
 0001:0002f060       __purecall                 10030060 f   libvcruntimed:purevirt.obj
 0001:0002f090       __set_purecall_handler     10030090 f   libvcruntimed:purevirt.obj
 0001:0002f260       _memcmp                    10030260 f   libvcruntimed:memcmp.obj
 0001:0002fb30       _memcpy                    10030b30 f   libvcruntimed:memcpy.obj
 0001:000300b0       _wcsstr                    100310b0 f   libvcruntimed:wcsstr.obj
 0001:000305e0       __except_handler4          100315e0 f   libvcruntimed:chandler4.obj
 0001:000307d0       ___vcrt_initialize         100317d0 f   libvcruntimed:initialization.obj
 0001:00030810       ___vcrt_thread_attach      10031810 f   libvcruntimed:initialization.obj
 0001:00030830       ___vcrt_thread_detach      10031830 f   libvcruntimed:initialization.obj
 0001:00030850       ___vcrt_uninitialize       10031850 f   libvcruntimed:initialization.obj
 0001:00030870       ___vcrt_uninitialize_critical 10031870 f   libvcruntimed:initialization.obj
 0001:00030890       ??$?0AAViterator@TryBlockMap@__FrameHandler3@@AAV012@$0A@@?$pair@Viterator@TryBlockMap@__FrameHandler3@@V123@@std@@QAE@AAViterator@TryBlockMap@__FrameHandler3@@0@Z 10031890 f i libvcruntimed:trnsctrl.obj
 0001:000308e0       ??$forward@AAViterator@TryBlockMap@__FrameHandler3@@@std@@YAAAViterator@TryBlockMap@__FrameHandler3@@AAV123@@Z 100318e0 f i libvcruntimed:trnsctrl.obj
 0001:000308f0       ??0iterator@TryBlockMap@__FrameHandler3@@QAE@AAV12@I@Z 100318f0 f i libvcruntimed:trnsctrl.obj
 0001:00030920       ?GetRangeOfTrysToCheck@__FrameHandler3@@SA?AU?$pair@Viterator@TryBlockMap@__FrameHandler3@@V123@@std@@AAVTryBlockMap@1@HPAXPBU_s_FuncInfo@@H@Z 10031920 f   libvcruntimed:trnsctrl.obj
 0001:00030a00       ?_CallCatchBlock2@@YAPAXPAUEHRegistrationNode@@PBU_s_FuncInfo@@PAXHK@Z 10031a00 f   libvcruntimed:trnsctrl.obj
 0001:00030a70       ?_CallSETranslator@@YAHPAUEHExceptionRecord@@PAUEHRegistrationNode@@PAX2PBU_s_FuncInfo@@H1@Z 10031a70 f   libvcruntimed:trnsctrl.obj
 0001:00030b70       ?_JumpToContinuation@@YGXPAXPAUEHRegistrationNode@@@Z 10031b70 f   libvcruntimed:trnsctrl.obj
 0001:00030bb0       ?_UnwindNestedFrames@@YGXPAUEHRegistrationNode@@PAUEHExceptionRecord@@@Z 10031bb0 f   libvcruntimed:trnsctrl.obj
 0001:00030c10       __CatchGuardHandler        10031c10 f   libvcruntimed:trnsctrl.obj
 0001:00030c60       __CreateFrameInfo          10031c60 f   libvcruntimed:trnsctrl.obj
 0001:00030c90       __FindAndUnlinkFrame       10031c90 f   libvcruntimed:trnsctrl.obj
 0001:00030d00       __TranslatorGuardHandler   10031d00 f   libvcruntimed:trnsctrl.obj
 0001:00030db0       ___CxxFrameHandler         10031db0 f   libvcruntimed:trnsctrl.obj
 0001:00030df0       ___CxxFrameHandler2        10031df0 f   libvcruntimed:trnsctrl.obj
 0001:00030e30       ___CxxFrameHandler3        10031e30 f   libvcruntimed:trnsctrl.obj
 0001:00030e70       ___CxxLongjmpUnwind@4      10031e70 f   libvcruntimed:trnsctrl.obj
 0001:00030eb0       ___DestructExceptionObject 10031eb0 f   libvcruntimed:ehhelpers.obj
 0001:00030fd0       ?_CallMemberFunction0@@YGXQAX0@Z 10031fd0 f i libvcruntimed:ehhelpers.obj
 0001:00031070       ?raw_name@type_info@@QBEPBDXZ 10032070 f i libvcruntimed:ehhelpers.obj
 0001:00031090       __IsExceptionObjectToBeDestroyed 10032090 f   libvcruntimed:ehhelpers.obj
 0001:000310d0       __SetWinRTOutOfMemoryExceptionCallback 100320d0 f   libvcruntimed:ehhelpers.obj
 0001:000310e0       ___AdjustPointer           100320e0 f   libvcruntimed:ehhelpers.obj
 0001:00031130       ___FrameUnwindFilter       10032130 f   libvcruntimed:ehhelpers.obj
 0001:000311c0       ___GetPlatformExceptionInfo 100321c0 f   libvcruntimed:ehhelpers.obj
 0001:00031240       ___current_exception       10032240 f   libvcruntimed:ehhelpers.obj
 0001:00031250       ___current_exception_context 10032250 f   libvcruntimed:ehhelpers.obj
 0001:00031260       ___processing_throw        10032260 f   libvcruntimed:ehhelpers.obj
 0001:00031270       ___std_terminate           10032270 f   libvcruntimed:ehhelpers.obj
 0001:00031280       __is_exception_typeof      10032280 f   libvcruntimed:ehhelpers.obj
 0001:00031380       ??$?RD@__crt_internal_free_policy@@QBEXQBD@Z 10032380 f i libvcruntimed:std_type_info.obj
 0001:000313a0       ??$?RX@__crt_internal_free_policy@@QBEXQBX@Z 100323a0 f i libvcruntimed:std_type_info.obj
 0001:000313c0       ??$__crt_interlocked_compare_exchange_pointer@$$CBDPAD$$T@@YAPBDPDSBDQAD$$T@Z 100323c0 f i libvcruntimed:std_type_info.obj
 0001:000313e0       ??$__crt_interlocked_read_pointer@$$CBD@@YAPBDPDSBD@Z 100323e0 f i libvcruntimed:std_type_info.obj
 0001:00031400       ??0?$__crt_unique_heap_ptr@DU__crt_internal_free_policy@@@@QAE@QAD@Z 10032400 f i libvcruntimed:std_type_info.obj
 0001:00031420       ??0?$__crt_unique_heap_ptr@XU__crt_internal_free_policy@@@@QAE@QAX@Z 10032420 f i libvcruntimed:std_type_info.obj
 0001:00031440       ??1?$__crt_unique_heap_ptr@DU__crt_internal_free_policy@@@@QAE@XZ 10032440 f i libvcruntimed:std_type_info.obj
 0001:00031460       ??1?$__crt_unique_heap_ptr@XU__crt_internal_free_policy@@@@QAE@XZ 10032460 f i libvcruntimed:std_type_info.obj
 0001:00031480       ??B?$__crt_unique_heap_ptr@DU__crt_internal_free_policy@@@@QBE_NXZ 10032480 f i libvcruntimed:std_type_info.obj
 0001:000314a0       ??B?$__crt_unique_heap_ptr@XU__crt_internal_free_policy@@@@QBE_NXZ 100324a0 f i libvcruntimed:std_type_info.obj
 0001:00031530       ?detach@?$__crt_unique_heap_ptr@XU__crt_internal_free_policy@@@@QAEPAXXZ 10032530 f i libvcruntimed:std_type_info.obj
 0001:00031560       ?get@?$__crt_unique_heap_ptr@DU__crt_internal_free_policy@@@@QBEPADXZ 10032560 f i libvcruntimed:std_type_info.obj
 0001:00031570       ?get@?$__crt_unique_heap_ptr@XU__crt_internal_free_policy@@@@QBEPAXXZ 10032570 f i libvcruntimed:std_type_info.obj
 0001:00031580       ?is_valid@?$__crt_unique_heap_ptr@DU__crt_internal_free_policy@@@@QBE_NXZ 10032580 f i libvcruntimed:std_type_info.obj
 0001:000315b0       ?is_valid@?$__crt_unique_heap_ptr@XU__crt_internal_free_policy@@@@QBE_NXZ 100325b0 f i libvcruntimed:std_type_info.obj
 0001:000315e0       ?release@?$__crt_unique_heap_ptr@DU__crt_internal_free_policy@@@@QAEXXZ 100325e0 f i libvcruntimed:std_type_info.obj
 0001:00031610       ?release@?$__crt_unique_heap_ptr@XU__crt_internal_free_policy@@@@QAEXXZ 10032610 f i libvcruntimed:std_type_info.obj
 0001:00031640       ___std_type_info_compare   10032640 f   libvcruntimed:std_type_info.obj
 0001:00031670       ___std_type_info_destroy_list 10032670 f   libvcruntimed:std_type_info.obj
 0001:000316b0       ___std_type_info_hash      100326b0 f   libvcruntimed:std_type_info.obj
 0001:00031710       ___std_type_info_name      10032710 f   libvcruntimed:std_type_info.obj
 0001:000318f0       ___vcrt_GetModuleFileNameW 100328f0 f   libvcruntimed:winapi_thunks.obj
 0001:00031910       ___vcrt_GetModuleHandleW   10032910 f   libvcruntimed:winapi_thunks.obj
 0001:00031920       ___vcrt_LoadLibraryExW     10032920 f   libvcruntimed:winapi_thunks.obj
 0001:00031940       ??$?RD@__crt_public_free_policy@@QBEXQBD@Z 10032940 f i libvcruntimed:std_exception.obj
 0001:00031960       ??0?$__crt_unique_heap_ptr@DU__crt_public_free_policy@@@@QAE@QAD@Z 10032960 f i libvcruntimed:std_exception.obj
 0001:00031980       ??1?$__crt_unique_heap_ptr@DU__crt_public_free_policy@@@@QAE@XZ 10032980 f i libvcruntimed:std_exception.obj
 0001:000319a0       ??B?$__crt_unique_heap_ptr@DU__crt_public_free_policy@@@@QBE_NXZ 100329a0 f i libvcruntimed:std_exception.obj
 0001:000319c0       ?detach@?$__crt_unique_heap_ptr@DU__crt_public_free_policy@@@@QAEPADXZ 100329c0 f i libvcruntimed:std_exception.obj
 0001:000319f0       ?get@?$__crt_unique_heap_ptr@DU__crt_public_free_policy@@@@QBEPADXZ 100329f0 f i libvcruntimed:std_exception.obj
 0001:00031a00       ?is_valid@?$__crt_unique_heap_ptr@DU__crt_public_free_policy@@@@QBE_NXZ 10032a00 f i libvcruntimed:std_exception.obj
 0001:00031a30       ?release@?$__crt_unique_heap_ptr@DU__crt_public_free_policy@@@@QAEXXZ 10032a30 f i libvcruntimed:std_exception.obj
 0001:00031a60       ___std_exception_copy      10032a60 f   libvcruntimed:std_exception.obj
 0001:00031b50       ___std_exception_destroy   10032b50 f   libvcruntimed:std_exception.obj
 0001:00031b80       __CxxThrowException@8      10032b80 f   libvcruntimed:throw.obj
 0001:00031c30       _memmove                   10032c30 f   libvcruntimed:memmove.obj
 0001:000321b0       __local_unwind4            100331b0 f   libvcruntimed:exsup4.obj
 0001:00032284       __seh_longjmp_unwind4@4    10033284 f   libvcruntimed:exsup4.obj
 0001:000322ac       @_EH4_CallFilterFunc@8     100332ac f   libvcruntimed:exsup4.obj
 0001:000322c4       @_EH4_TransferToHandler@8  100332c4 f   libvcruntimed:exsup4.obj
 0001:000322e0       @_EH4_GlobalUnwind2@8      100332e0 f   libvcruntimed:exsup4.obj
 0001:000322fc       @_EH4_LocalUnwind@16       100332fc f   libvcruntimed:exsup4.obj
 0001:00032330       ___except_validate_context_record 10033330 f   libvcruntimed:jbcxrval.obj
 0001:00032380       ___except_validate_jump_buffer 10033380 f   libvcruntimed:jbcxrval.obj
 0001:000323a0       ___except_validate_jump_buffer_common 100333a0 f i libvcruntimed:jbcxrval.obj
 0001:00032400       ??$?RU__vcrt_ptd@@@__crt_internal_free_policy@@QBEXQBU__vcrt_ptd@@@Z 10033400 f i libvcruntimed:per_thread_data.obj
 0001:00032420       ??0?$__crt_unique_heap_ptr@U__vcrt_ptd@@U__crt_internal_free_policy@@@@QAE@QAU__vcrt_ptd@@@Z 10033420 f i libvcruntimed:per_thread_data.obj
 0001:00032460       ??1?$__crt_unique_heap_ptr@U__vcrt_ptd@@U__crt_internal_free_policy@@@@QAE@XZ 10033460 f i libvcruntimed:per_thread_data.obj
 0001:000324a0       ??B?$__crt_unique_heap_ptr@U__vcrt_ptd@@U__crt_internal_free_policy@@@@QBE_NXZ 100334a0 f i libvcruntimed:per_thread_data.obj
 0001:000324c0       ?detach@?$__crt_unique_heap_ptr@U__vcrt_ptd@@U__crt_internal_free_policy@@@@QAEPAU__vcrt_ptd@@XZ 100334c0 f i libvcruntimed:per_thread_data.obj
 0001:000324f0       ?get@?$__crt_unique_heap_ptr@U__vcrt_ptd@@U__crt_internal_free_policy@@@@QBEPAU__vcrt_ptd@@XZ 100334f0 f i libvcruntimed:per_thread_data.obj
 0001:00032500       ?is_valid@?$__crt_unique_heap_ptr@U__vcrt_ptd@@U__crt_internal_free_policy@@@@QBE_NXZ 10033500 f i libvcruntimed:per_thread_data.obj
 0001:00032530       ?release@?$__crt_unique_heap_ptr@U__vcrt_ptd@@U__crt_internal_free_policy@@@@QAEXXZ 10033530 f i libvcruntimed:per_thread_data.obj
 0001:00032590       ___vcrt_freefls@4          10033590 f   libvcruntimed:per_thread_data.obj
 0001:000325c0       ___vcrt_freeptd            100335c0 f   libvcruntimed:per_thread_data.obj
 0001:00032620       ___vcrt_getptd             10033620 f   libvcruntimed:per_thread_data.obj
 0001:00032640       ___vcrt_getptd_noexit      10033640 f   libvcruntimed:per_thread_data.obj
 0001:000327a0       ___vcrt_getptd_noinit      100337a0 f   libvcruntimed:per_thread_data.obj
 0001:00032800       ___vcrt_initialize_ptd     10033800 f   libvcruntimed:per_thread_data.obj
 0001:00032850       ___vcrt_uninitialize_ptd   10033850 f   libvcruntimed:per_thread_data.obj
 0001:00032880       ___vcrt_initialize_locks   10033880 f   libvcruntimed:locks.obj
 0001:000328e0       ___vcrt_lock               100338e0 f   libvcruntimed:locks.obj
 0001:00032900       ___vcrt_uninitialize_locks 10033900 f   libvcruntimed:locks.obj
 0001:00032950       ___vcrt_unlock             10033950 f   libvcruntimed:locks.obj
 0001:000334e0       ??$TypeMatchHelper@V__FrameHandler3@@@@YAHPBU_s_HandlerType@@PBU_s_CatchableType@@PBU_s_ThrowInfo@@@Z 100344e0 f i libvcruntimed:frame.obj
 0001:000335c0       ??$__InternalCxxFrameHandler@V__FrameHandler3@@@@YA?AW4_EXCEPTION_DISPOSITION@@PAUEHExceptionRecord@@PAUEHRegistrationNode@@PAU_CONTEXT@@PAXPBU_s_FuncInfo@@H1E@Z 100345c0 f i libvcruntimed:frame.obj
 0001:00033780       ??0HandlerMap@__FrameHandler3@@QAE@PBU_s_TryBlockMapEntry@@II@Z 10034780 f i libvcruntimed:frame.obj
 0001:000337b0       ??0TryBlockMap@__FrameHandler3@@QAE@PBU_s_FuncInfo@@I@Z 100347b0 f i libvcruntimed:frame.obj
 0001:000337e0       ??0bad_exception@std@@QAE@ABV01@@Z 100347e0 f i libvcruntimed:frame.obj
 0001:00033810       ??0bad_exception@std@@QAE@XZ 10034810 f i libvcruntimed:frame.obj
 0001:00033840       ??0iterator@HandlerMap@__FrameHandler3@@QAE@AAV12@I@Z 10034840 f i libvcruntimed:frame.obj
 0001:00033870       ??1bad_exception@std@@UAE@XZ 10034870 f i libvcruntimed:frame.obj
 0001:00033890       ??8iterator@HandlerMap@__FrameHandler3@@QBE_NABV012@@Z 10034890 f i libvcruntimed:frame.obj
 0001:000338c0       ??8type_info@@QBE_NABV0@@Z 100348c0 f i libvcruntimed:frame.obj
 0001:00033900       ??9iterator@HandlerMap@__FrameHandler3@@QBE_NABV012@@Z 10034900 f i libvcruntimed:frame.obj
 0001:00033940       ??Diterator@HandlerMap@__FrameHandler3@@QAE?BU_s_HandlerType@@XZ 10034940 f i libvcruntimed:frame.obj
 0001:00033980       ??Diterator@TryBlockMap@__FrameHandler3@@QAE?BU_s_TryBlockMapEntry@@XZ 10034980 f i libvcruntimed:frame.obj
 0001:000339d0       ??Eiterator@HandlerMap@__FrameHandler3@@QAEAAV012@XZ 100349d0 f i libvcruntimed:frame.obj
 0001:000339f0       ??Eiterator@TryBlockMap@__FrameHandler3@@QAEAAV012@XZ 100349f0 f i libvcruntimed:frame.obj
 0001:00033a10       ??Miterator@TryBlockMap@__FrameHandler3@@QBE_NABV012@@Z 10034a10 f i libvcruntimed:frame.obj
 0001:00033a40       ??_Ebad_exception@std@@UAEPAXI@Z 10034a40 f i libvcruntimed:frame.obj
 0001:00033a40       ??_Gbad_exception@std@@UAEPAXI@Z 10034a40 f i libvcruntimed:frame.obj
 0001:00033a70       ?BuildCatchObject@__FrameHandler3@@SAXPAUEHExceptionRecord@@PAXPBU_s_HandlerType@@PBU_s_CatchableType@@@Z 10034a70 f   libvcruntimed:frame.obj
 0001:00033a90       ?BuildCatchObjectHelper@__FrameHandler3@@SAHPAUEHExceptionRecord@@PAXPBU_s_HandlerType@@PBU_s_CatchableType@@@Z 10034a90 f   libvcruntimed:frame.obj
 0001:00033e30       ?FrameUnwindToEmptyState@__FrameHandler3@@SAXPAUEHRegistrationNode@@PAXPBU_s_FuncInfo@@@Z 10034e30 f   libvcruntimed:frame.obj
 0001:00033e50       ?FrameUnwindToState@__FrameHandler3@@SAXPAUEHRegistrationNode@@PAXPBU_s_FuncInfo@@H@Z 10034e50 f   libvcruntimed:frame.obj
 0001:00033fd0       ?GetMaxState@__FrameHandler3@@SAHPAXPBU_s_FuncInfo@@@Z 10034fd0 f i libvcruntimed:frame.obj
 0001:000340f0       ?TypeMatch@__FrameHandler3@@SAHPBU_s_HandlerType@@PBU_s_CatchableType@@PBU_s_ThrowInfo@@@Z 100350f0 f   libvcruntimed:frame.obj
 0001:00034110       ?_CallMemberFunction1@@YGXQAX00@Z 10035110 f i libvcruntimed:frame.obj
 0001:00034140       ?_CallMemberFunction2@@YGXQAX00H@Z 10035140 f i libvcruntimed:frame.obj
 0001:00034170       ?begin@HandlerMap@__FrameHandler3@@QAE?AViterator@12@XZ 10035170 f i libvcruntimed:frame.obj
 0001:00034190       ?end@HandlerMap@__FrameHandler3@@QAE?AViterator@12@XZ 10035190 f i libvcruntimed:frame.obj
 0001:000341c0       ?getESTypes@__FrameHandler3@@SAPBU_s_ESTypeList@@PBU_s_FuncInfo@@@Z 100351c0 f i libvcruntimed:frame.obj
 0001:000341d0       ?getLastEntry@HandlerMap@__FrameHandler3@@QAEPBU_s_HandlerType@@XZ 100351d0 f i libvcruntimed:frame.obj
 0001:000341f0       ?getMagicNum@__FrameHandler3@@SAIPBU_s_FuncInfo@@@Z 100351f0 f i libvcruntimed:frame.obj
 0001:00034200       ?getNumTryBlocks@TryBlockMap@__FrameHandler3@@QAEIXZ 10035200 f i libvcruntimed:frame.obj
 0001:00034220       ?isEHs@__FrameHandler3@@SA_NPBU_s_FuncInfo@@@Z 10035220 f i libvcruntimed:frame.obj
 0001:00034250       ?isNoExcept@__FrameHandler3@@SA_NPBU_s_FuncInfo@@@Z 10035250 f i libvcruntimed:frame.obj
 0001:00034280       ___BuildCatchObject        10035280 f   libvcruntimed:frame.obj
 0001:000342a0       ___BuildCatchObjectHelper  100352a0 f   libvcruntimed:frame.obj
 0001:000342c0       ___TypeMatch               100352c0 f   libvcruntimed:frame.obj
 0001:000342e0       ___vcrt_EncodePointer      100352e0 f i libvcruntimed:frame.obj
 0001:000342f0       __CallSettingFrame@12      100352f0 f   libvcruntimed:lowhelpr.obj
 0001:00034317       __NLG_Return               10035317     libvcruntimed:lowhelpr.obj
 0001:00034340       ??$?0$00@DName@@QAE@PBDU?$StringLifeSelector@$00@@@Z 10035340 f i libvcruntimed:undname.obj
 0001:00034390       ??$?0$00@pcharNode@@QAE@PBDHU?$StringLifeSelector@$00@@@Z 10035390 f i libvcruntimed:undname.obj
 0001:000343d0       ??$?0$01@DName@@QAE@PBDU?$StringLifeSelector@$01@@@Z 100353d0 f i libvcruntimed:undname.obj
 0001:00034420       ??$?0$01@pcharNode@@QAE@PBDHU?$StringLifeSelector@$01@@@Z 10035420 f i libvcruntimed:undname.obj
 0001:000344a0       ??$?0$0A@@DName@@QAE@PBDU?$StringLifeSelector@$0A@@@@Z 100354a0 f i libvcruntimed:undname.obj
 0001:000344f0       ??$?0$0A@@pcharNode@@QAE@PBDHU?$StringLifeSelector@$0A@@@@Z 100354f0 f i libvcruntimed:undname.obj
 0001:00034570       ??$?0_K$0A@@?$optional@_K@std@@QAE@$$QA_K@Z 10035570 f i libvcruntimed:undname.obj
 0001:000345b0       ??$?0_K@?$_Optional_construct_base@_K@std@@QAE@Uin_place_t@1@$$QA_K@Z 100355b0 f i libvcruntimed:undname.obj
 0001:000345e0       ??$?0_K@?$_Optional_destruct_base@_K$00@std@@QAE@Uin_place_t@1@$$QA_K@Z 100355e0 f i libvcruntimed:undname.obj
 0001:00034610       ??$append@VDNameNode@@@DName@@AAEXPBVDNameNode@@@Z 10035610 f i libvcruntimed:undname.obj
 0001:000346a0       ??$append@VDNameStatusNode@@@DName@@AAEXPBVDNameStatusNode@@@Z 100356a0 f i libvcruntimed:undname.obj
 0001:00034730       ??$append@VcharNode@@@DName@@AAEXPBVcharNode@@@Z 10035730 f i libvcruntimed:undname.obj
 0001:000347c0       ??$append@VpDNameNode@@@DName@@AAEXPBVpDNameNode@@@Z 100357c0 f i libvcruntimed:undname.obj
 0001:00034850       ??$append@VpcharNode@@@DName@@AAEXPBVpcharNode@@@Z 10035850 f i libvcruntimed:undname.obj
 0001:000348e0       ??$doPchar@$00@DName@@AAEXPBDH@Z 100358e0 f i libvcruntimed:undname.obj
 0001:000349f0       ??$doPchar@$01@DName@@AAEXPBDH@Z 100359f0 f i libvcruntimed:undname.obj
 0001:00034b00       ??$doPchar@$0A@@DName@@AAEXPBDH@Z 10035b00 f i libvcruntimed:undname.obj
 0001:00034c10       ??$forward@_K@std@@YA$$QA_KAA_K@Z 10035c10 f i libvcruntimed:undname.obj
 0001:00034c20       ??$size@D$04@std@@YAIAAY04$$CBD@Z 10035c20 f i libvcruntimed:undname.obj
 0001:00034c30       ??$size@D$0EB@@std@@YAIAAY0EB@$$CBD@Z 10035c30 f i libvcruntimed:undname.obj
 0001:00034c40       ??0?$_Optional_construct_base@_K@std@@QAE@XZ 10035c40 f i libvcruntimed:undname.obj
 0001:00034c60       ??0?$_Optional_destruct_base@_K$00@std@@QAE@XZ 10035c60 f i libvcruntimed:undname.obj
 0001:00034c80       ??0?$optional@_K@std@@QAE@XZ 10035c80 f i libvcruntimed:undname.obj
 0001:00034ca0       ??0Block@_HeapManager@@QAE@XZ 10035ca0 f i libvcruntimed:undname.obj
 0001:00034cc0       ??0DName@@QAE@AAPBDD@Z     10035cc0 f   libvcruntimed:undname.obj
 0001:00034e30       ??0DName@@QAE@ABUStringLiteral@@@Z 10035e30 f   libvcruntimed:undname.obj
 0001:00034e80       ??0DName@@QAE@ABV0@@Z      10035e80 f i libvcruntimed:undname.obj
 0001:00034eb0       ??0DName@@QAE@D@Z          10035eb0 f   libvcruntimed:undname.obj
 0001:00034ee0       ??0DName@@QAE@PAV0@@Z      10035ee0 f   libvcruntimed:undname.obj
 0001:00034f90       ??0DName@@QAE@W4DNameStatus@@@Z 10035f90 f   libvcruntimed:undname.obj
 0001:00035030       ??0DName@@QAE@XZ           10036030 f i libvcruntimed:undname.obj
 0001:00035060       ??0DName@@QAE@_J@Z         10036060 f   libvcruntimed:undname.obj
 0001:00035150       ??0DName@@QAE@_K@Z         10036150 f   libvcruntimed:undname.obj
 0001:00035200       ??0DNameNode@@IAE@XZ       10036200 f i libvcruntimed:undname.obj
 0001:00035220       ??0Replicator@@QAE@XZ      10036220 f i libvcruntimed:undname.obj
 0001:00035260       ??0UnDecorator@@QAE@PBDP6APADJ@ZK@Z 10036260 f i libvcruntimed:undname.obj
 0001:000352e0       ??0_Nontrivial_dummy_type@std@@QAE@XZ 100362e0 f i libvcruntimed:undname.obj
 0001:000352f0       ??0charNode@@QAE@D@Z       100362f0 f i libvcruntimed:undname.obj
 0001:00035320       ??0pDNameNode@@QAE@PAVDName@@@Z 10036320 f   libvcruntimed:undname.obj
 0001:00035380       ??0pairNode@@QAE@PBVDNameNode@@0@Z 10036380 f i libvcruntimed:undname.obj
 0001:000353e0       ??2@YAPAXIAAV_HeapManager@@H@Z 100363e0 f   libvcruntimed:undname.obj
 0001:00035420       ??4DName@@QAEAAV0@ABUStringLiteral@@@Z 10036420 f   libvcruntimed:undname.obj
 0001:00035460       ??4DName@@QAEAAV0@ABV0@@Z  10036460 f   libvcruntimed:undname.obj
 0001:00035490       ??4DName@@QAEAAV0@D@Z      10036490 f i libvcruntimed:undname.obj
 0001:000354c0       ??4DName@@QAEAAV0@PAV0@@Z  100364c0 f   libvcruntimed:undname.obj
 0001:00035560       ??4DName@@QAEAAV0@W4DNameStatus@@@Z 10036560 f   libvcruntimed:undname.obj
 0001:000355e0       ??AReplicator@@QBE?AVDName@@H@Z 100365e0 f   libvcruntimed:undname.obj
 0001:00035650       ??B?$optional@_K@std@@QBE_NXZ 10036650 f i libvcruntimed:undname.obj
 0001:00035670       ??D?$optional@_K@std@@QGAEAA_KXZ 10036670 f i libvcruntimed:undname.obj
 0001:00035680       ??H@YA?AVDName@@ABUStringLiteral@@ABV0@@Z 10036680 f i libvcruntimed:undname.obj
 0001:000356b0       ??H@YA?AVDName@@DABV0@@Z   100366b0 f i libvcruntimed:undname.obj
 0001:000356e0       ??H@YA?AVDName@@W4DNameStatus@@ABV0@@Z 100366e0 f i libvcruntimed:undname.obj
 0001:00035710       ??HDName@@QBE?AV0@ABUStringLiteral@@@Z 10036710 f   libvcruntimed:undname.obj
 0001:00035750       ??HDName@@QBE?AV0@ABV0@@Z  10036750 f   libvcruntimed:undname.obj
 0001:00035790       ??HDName@@QBE?AV0@D@Z      10036790 f   libvcruntimed:undname.obj
 0001:000357d0       ??HDName@@QBE?AV0@PAV0@@Z  100367d0 f   libvcruntimed:undname.obj
 0001:00035810       ??HDName@@QBE?AV0@W4DNameStatus@@@Z 10036810 f   libvcruntimed:undname.obj
 0001:00035850       ??HStringLiteral@@QBE?AU0@H@Z 10036850 f i libvcruntimed:undname.obj
 0001:00035880       ??YDName@@QAEAAV0@ABUStringLiteral@@@Z 10036880 f   libvcruntimed:undname.obj
 0001:00035920       ??YDName@@QAEAAV0@ABV0@@Z  10036920 f   libvcruntimed:undname.obj
 0001:000359c0       ??YDName@@QAEAAV0@D@Z      100369c0 f   libvcruntimed:undname.obj
 0001:00035a40       ??YDName@@QAEAAV0@PAV0@@Z  10036a40 f   libvcruntimed:undname.obj
 0001:00035af0       ??YDName@@QAEAAV0@W4DNameStatus@@@Z 10036af0 f   libvcruntimed:undname.obj
 0001:00035b50       ??YReplicator@@QAEAAV0@ABVDName@@@Z 10036b50 f   libvcruntimed:undname.obj
 0001:00035be0       ??_5DName@@QAEAAV0@ABV0@@Z 10036be0 f   libvcruntimed:undname.obj
 0001:00035c40       ??__K_l@@YA?AUStringLiteral@@PBDI@Z 10036c40 f i libvcruntimed:undname.obj
 0001:00035c60       ?Constructor@_HeapManager@@QAEXP6APAXI@ZP6AXPAX@Z@Z 10036c60 f i libvcruntimed:undname.obj
 0001:00035ca0       ?Destructor@_HeapManager@@QAEXXZ 10036ca0 f i libvcruntimed:undname.obj
 0001:00035d10       ?UScore@UnDecorator@@SA?AUStringLiteral@@W4Tokens@@@Z 10036d10 f   libvcruntimed:undname.obj
 0001:00035d60       ?composeDeclaration@UnDecorator@@CA?AVDName@@ABV2@@Z 10036d60 f i libvcruntimed:undname.obj
 0001:00037cd0       ?dbGetString@DName@@QBEPADXZ 10038cd0 f   libvcruntimed:undname.obj
 0001:00037cf0       ?doAccessSpecifiers@UnDecorator@@SAHXZ 10038cf0 f i libvcruntimed:undname.obj
 0001:00037d20       ?doAllocationLanguage@UnDecorator@@SAHXZ 10038d20 f i libvcruntimed:undname.obj
 0001:00037d50       ?doAllocationModel@UnDecorator@@SAHXZ 10038d50 f i libvcruntimed:undname.obj
 0001:00037d80       ?doEcsu@UnDecorator@@SAHXZ 10038d80 f i libvcruntimed:undname.obj
 0001:00037db0       ?doEllipsis@UnDecorator@@SAHXZ 10038db0 f i libvcruntimed:undname.obj
 0001:00037de0       ?doFunctionReturns@UnDecorator@@SAHXZ 10038de0 f i libvcruntimed:undname.obj
 0001:00037e10       ?doMSKeywords@UnDecorator@@SAHXZ 10038e10 f i libvcruntimed:undname.obj
 0001:00037e40       ?doMemberTypes@UnDecorator@@SAHXZ 10038e40 f i libvcruntimed:undname.obj
 0001:00037e70       ?doNameOnly@UnDecorator@@SAHXZ 10038e70 f i libvcruntimed:undname.obj
 0001:00037e80       ?doNoIdentCharCheck@UnDecorator@@SAHXZ 10038e80 f i libvcruntimed:undname.obj
 0001:00037e90       ?doPchar@DName@@AAEXD@Z    10038e90 f   libvcruntimed:undname.obj
 0001:00037f00       ?doPtr64@UnDecorator@@SAHXZ 10038f00 f i libvcruntimed:undname.obj
 0001:00037f30       ?doRestrictionSpec@UnDecorator@@SAHXZ 10038f30 f i libvcruntimed:undname.obj
 0001:00037f60       ?doThisTypes@UnDecorator@@SAHXZ 10038f60 f i libvcruntimed:undname.obj
 0001:00037f90       ?doThrowTypes@UnDecorator@@SAHXZ 10038f90 f i libvcruntimed:undname.obj
 0001:00037fc0       ?doTypeOnly@UnDecorator@@SAHXZ 10038fc0 f i libvcruntimed:undname.obj
 0001:00037fd0       ?doUnderScore@UnDecorator@@SAHXZ 10038fd0 f i libvcruntimed:undname.obj
 0001:00038000       ?getArgumentList@UnDecorator@@CA?AVDName@@XZ 10039000 f   libvcruntimed:undname.obj
 0001:00038150       ?getArgumentTypes@UnDecorator@@CA?AVDName@@XZ 10039150 f   libvcruntimed:undname.obj
 0001:00038360       ?getArrayObject@UnDecorator@@CA?AVDName@@XZ 10039360 f   libvcruntimed:undname.obj
 0001:00038440       ?getArrayType@UnDecorator@@CA?AVDName@@ABV2@@Z 10039440 f i libvcruntimed:undname.obj
 0001:000386e0       ?getBasedType@UnDecorator@@CA?AVDName@@XZ 100396e0 f   libvcruntimed:undname.obj
 0001:000387d0       ?getBasicDataType@UnDecorator@@CA?AVDName@@ABV2@@Z 100397d0 f   libvcruntimed:undname.obj
 0001:000390e0       ?getCHPEName@UnDecorator@@QAEPADPADH@Z 1003a0e0 f i libvcruntimed:undname.obj
 0001:00039240       ?getCallIndex@UnDecorator@@CA?AVDName@@XZ 1003a240 f i libvcruntimed:undname.obj
 0001:00039260       ?getCallingConvention@UnDecorator@@CA?AVDName@@XZ 1003a260 f   libvcruntimed:undname.obj
 0001:000394a0       ?getDataIndirectType@UnDecorator@@CA?AVDName@@ABV2@W4IndirectionKind@@0H@Z 1003a4a0 f   libvcruntimed:undname.obj
 0001:00039dc0       ?getDataIndirectType@UnDecorator@@CA?AVDName@@XZ 1003adc0 f i libvcruntimed:undname.obj
 0001:00039e00       ?getDataType@UnDecorator@@CA?AVDName@@PAV2@@Z 1003ae00 f   libvcruntimed:undname.obj
 0001:00039f40       ?getDecoratedName@UnDecorator@@CA?AVDName@@XZ 1003af40 f   libvcruntimed:undname.obj
 0001:0003a380       ?getDimension@UnDecorator@@CA?AVDName@@_N@Z 1003b380 f   libvcruntimed:undname.obj
 0001:0003a5e0       ?getDispatchTarget@UnDecorator@@CA?AVDName@@XZ 1003b5e0 f   libvcruntimed:undname.obj
 0001:0003a680       ?getDisplacement@UnDecorator@@CA?AVDName@@XZ 1003b680 f i libvcruntimed:undname.obj
 0001:0003a6a0       ?getECSUDataType@UnDecorator@@CA?AVDName@@XZ 1003b6a0 f   libvcruntimed:undname.obj
 0001:0003a900       ?getECSUName@UnDecorator@@CA?AVDName@@XZ 1003b900 f i libvcruntimed:undname.obj
 0001:0003a920       ?getEnumType@UnDecorator@@CA?AVDName@@XZ 1003b920 f i libvcruntimed:undname.obj
 0001:0003aad0       ?getExtendedDataIndirectType@UnDecorator@@CA?AVDName@@AAW4IndirectionKind@@AA_NH@Z 1003bad0 f   libvcruntimed:undname.obj
 0001:0003ad20       ?getExternalDataType@UnDecorator@@CA?AVDName@@ABV2@@Z 1003bd20 f i libvcruntimed:undname.obj
 0001:0003adc0       ?getFloatingPoint@UnDecorator@@CA?AVDName@@H@Z 1003bdc0 f   libvcruntimed:undname.obj
 0001:0003af70       ?getFunctionIndirectType@UnDecorator@@CA?AVDName@@ABV2@@Z 1003bf70 f   libvcruntimed:undname.obj
 0001:0003b450       ?getGuardNumber@UnDecorator@@CA?AVDName@@XZ 1003c450 f i libvcruntimed:undname.obj
 0001:0003b470       ?getLastChar@DName@@QBEDXZ 1003c470 f i libvcruntimed:undname.obj
 0001:0003b4b0       ?getLastChar@DNameStatusNode@@UBEDXZ 1003c4b0 f i libvcruntimed:undname.obj
 0001:0003b4e0       ?getLastChar@charNode@@UBEDXZ 1003c4e0 f i libvcruntimed:undname.obj
 0001:0003b500       ?getLastChar@pDNameNode@@UBEDXZ 1003c500 f i libvcruntimed:undname.obj
 0001:0003b530       ?getLastChar@pairNode@@UBEDXZ 1003c530 f i libvcruntimed:undname.obj
 0001:0003b5a0       ?getLastChar@pcharNode@@UBEDXZ 1003c5a0 f i libvcruntimed:undname.obj
 0001:0003b5e0       ?getLexicalFrame@UnDecorator@@CA?AVDName@@XZ 1003c5e0 f i libvcruntimed:undname.obj
 0001:0003b620       ?getMemoryWithBuffer@_HeapManager@@QAEPAXI@Z 1003c620 f   libvcruntimed:undname.obj
 0001:0003b710       ?getMemoryWithoutBuffer@_HeapManager@@QAEPAXI@Z 1003c710 f   libvcruntimed:undname.obj
 0001:0003b750       ?getNoexcept@UnDecorator@@CA?AVDName@@XZ 1003c750 f   libvcruntimed:undname.obj
 0001:0003b7d0       ?getNumberOfDimensions@UnDecorator@@CAHXZ 1003c7d0 f   libvcruntimed:undname.obj
 0001:0003b8d0       ?getOperatorName@UnDecorator@@CA?AVDName@@_NPA_N@Z 1003c8d0 f i libvcruntimed:undname.obj
 0001:0003c3c0       ?getPointerType@UnDecorator@@CA?AVDName@@ABV2@0@Z 1003d3c0 f i libvcruntimed:undname.obj
 0001:0003c3e0       ?getPointerTypeArray@UnDecorator@@CA?AVDName@@ABV2@0@Z 1003d3e0 f i libvcruntimed:undname.obj
 0001:0003c400       ?getPrimaryDataType@UnDecorator@@CA?AVDName@@ABV2@@Z 1003d400 f   libvcruntimed:undname.obj
 0001:0003c890       ?getPtrRefDataType@UnDecorator@@CA?AVDName@@ABV2@H@Z 1003d890 f   libvcruntimed:undname.obj
 0001:0003cb40       ?getPtrRefType@UnDecorator@@CA?AVDName@@ABV2@0W4IndirectionKind@@@Z 1003db40 f   libvcruntimed:undname.obj
 0001:0003ccc0       ?getReferenceType@UnDecorator@@CA?AVDName@@ABV2@0W4IndirectionKind@@@Z 1003dcc0 f i libvcruntimed:undname.obj
 0001:0003cce0       ?getRestrictionSpec@UnDecorator@@CA?AVDName@@XZ 1003dce0 f   libvcruntimed:undname.obj
 0001:0003cea0       ?getReturnType@UnDecorator@@CA?AVDName@@PAV2@@Z 1003dea0 f   libvcruntimed:undname.obj
 0001:0003cef0       ?getScope@UnDecorator@@CA?AVDName@@XZ 1003def0 f   libvcruntimed:undname.obj
 0001:0003d480       ?getScopedName@UnDecorator@@CA?AVDName@@XZ 1003e480 f   libvcruntimed:undname.obj
 0001:0003d5d0       ?getSignedDimension@UnDecorator@@CA?AVDName@@XZ 1003e5d0 f   libvcruntimed:undname.obj
 0001:0003d650       ?getStorageConvention@UnDecorator@@CA?AVDName@@XZ 1003e650 f i libvcruntimed:undname.obj
 0001:0003d670       ?getString@DName@@QBEPADPAD0@Z 1003e670 f i libvcruntimed:undname.obj
 0001:0003d6d0       ?getString@DName@@QBEPADPADH@Z 1003e6d0 f i libvcruntimed:undname.obj
 0001:0003d760       ?getString@DNameStatusNode@@UBEPADPAD0@Z 1003e760 f i libvcruntimed:undname.obj
 0001:0003d7a0       ?getString@charNode@@UBEPADPAD0@Z 1003e7a0 f i libvcruntimed:undname.obj
 0001:0003d7d0       ?getString@pDNameNode@@UBEPADPAD0@Z 1003e7d0 f i libvcruntimed:undname.obj
 0001:0003d810       ?getString@pairNode@@UBEPADPAD0@Z 1003e810 f i libvcruntimed:undname.obj
 0001:0003d8a0       ?getString@pcharNode@@UBEPADPAD0@Z 1003e8a0 f i libvcruntimed:undname.obj
 0001:0003d8d0       ?getStringEncoding@UnDecorator@@CA?AVDName@@W4PrefixKind@@H@Z 1003e8d0 f   libvcruntimed:undname.obj
 0001:0003d9e0       ?getStringHelper@@YAPADPADPBD1H@Z 1003e9e0 f i libvcruntimed:undname.obj
 0001:0003da20       ?getStringObject@UnDecorator@@CA?AVDName@@XZ 1003ea20 f   libvcruntimed:undname.obj
 0001:0003dad0       ?getSymbolName@UnDecorator@@CA?AVDName@@XZ 1003ead0 f i libvcruntimed:undname.obj
 0001:0003db60       ?getTemplateArgumentList@UnDecorator@@CA?AVDName@@XZ 1003eb60 f   libvcruntimed:undname.obj
 0001:0003de50       ?getTemplateName@UnDecorator@@CA?AVDName@@_N@Z 1003ee50 f   libvcruntimed:undname.obj
 0001:0003e010       ?getTemplateNonTypeArgument@UnDecorator@@CA?AVDName@@XZ 1003f010 f   libvcruntimed:undname.obj
 0001:0003e550       ?getTemplateTypeArgument@UnDecorator@@CA?AVDName@@XZ 1003f550 f   libvcruntimed:undname.obj
 0001:0003e6f0       ?getThisType@UnDecorator@@CA?AVDName@@XZ 1003f6f0 f i libvcruntimed:undname.obj
 0001:0003e730       ?getThrowTypes@UnDecorator@@CA?AVDName@@XZ 1003f730 f   libvcruntimed:undname.obj
 0001:0003e770       ?getTypeEncoding@UnDecorator@@CAHXZ 1003f770 f i libvcruntimed:undname.obj
 0001:0003f230       ?getUndecoratedName@UnDecorator@@QAEPADPADH@Z 10040230 f i libvcruntimed:undname.obj
 0001:0003f390       ?getVCallThunkType@UnDecorator@@CA?AVDName@@XZ 10040390 f i libvcruntimed:undname.obj
 0001:0003f410       ?getValue@UnDecorator@@CA?AV?$optional@_K@std@@XZ 10040410 f   libvcruntimed:undname.obj
 0001:0003f4d0       ?getValueObject@UnDecorator@@CA?AVDName@@XZ 100404d0 f   libvcruntimed:undname.obj
 0001:0003f690       ?getVbTableType@UnDecorator@@CA?AVDName@@ABV2@@Z 10040690 f i libvcruntimed:undname.obj
 0001:0003f6b0       ?getVdispMapType@UnDecorator@@CA?AVDName@@ABV2@@Z 100406b0 f i libvcruntimed:undname.obj
 0001:0003f740       ?getVfTableType@UnDecorator@@CA?AVDName@@ABV2@@Z 10040740 f i libvcruntimed:undname.obj
 0001:0003f940       ?getZName@UnDecorator@@CA?AVDName@@_N0@Z 10040940 f   libvcruntimed:undname.obj
 0001:0003fc80       ?haveTemplateParameters@UnDecorator@@SAHXZ 10040c80 f i libvcruntimed:undname.obj
 0001:0003fc90       ?isArray@DName@@QBEHXZ     10040c90 f i libvcruntimed:undname.obj
 0001:0003fcb0       ?isComArray@DName@@QBEHXZ  10040cb0 f i libvcruntimed:undname.obj
 0001:0003fcd0       ?isEmpty@DName@@QBEHXZ     10040cd0 f i libvcruntimed:undname.obj
 0001:0003fd00       ?isFull@Replicator@@QBEHXZ 10040d00 f i libvcruntimed:undname.obj
 0001:0003fd30       ?isNoTE@DName@@QBEHXZ      10040d30 f i libvcruntimed:undname.obj
 0001:0003fd50       ?isPinPtr@DName@@QBEHXZ    10040d50 f i libvcruntimed:undname.obj
 0001:0003fd70       ?isPtrRef@DName@@QBEHXZ    10040d70 f i libvcruntimed:undname.obj
 0001:0003fd90       ?isUDC@DName@@QBEHXZ       10040d90 f i libvcruntimed:undname.obj
 0001:0003fdd0       ?isUDTThunk@DName@@QBEHXZ  10040dd0 f i libvcruntimed:undname.obj
 0001:0003fe10       ?isVCallThunk@DName@@QBEHXZ 10040e10 f i libvcruntimed:undname.obj
 0001:0003fe30       ?isValid@DName@@QBEHXZ     10040e30 f i libvcruntimed:undname.obj
 0001:0003fe70       ?length@DName@@QBEHXZ      10040e70 f i libvcruntimed:undname.obj
 0001:0003feb0       ?length@DNameStatusNode@@UBEHXZ 10040eb0 f i libvcruntimed:undname.obj
 0001:0003fed0       ?length@charNode@@UBEHXZ   10040ed0 f i libvcruntimed:undname.obj
 0001:0003fee0       ?length@pDNameNode@@UBEHXZ 10040ee0 f i libvcruntimed:undname.obj
 0001:0003ff10       ?length@pairNode@@UBEHXZ   10040f10 f i libvcruntimed:undname.obj
 0001:0003ff80       ?length@pcharNode@@UBEHXZ  10040f80 f i libvcruntimed:undname.obj
 0001:0003ffa0       ?make@DNameStatusNode@@SAPBV1@W4DNameStatus@@@Z 10040fa0 f i libvcruntimed:undname.obj
 0001:0003ffd0       ?parseDecoratedName@UnDecorator@@CA?AVDName@@XZ 10040fd0 f   libvcruntimed:undname.obj
 0001:00040160       ?raw_length@DNameStatusNode@@UBEHXZ 10041160 f i libvcruntimed:undname.obj
 0001:00040180       ?raw_length@charNode@@UBEHXZ 10041180 f i libvcruntimed:undname.obj
 0001:000401a0       ?raw_length@pDNameNode@@UBEHXZ 100411a0 f i libvcruntimed:undname.obj
 0001:000401b0       ?raw_length@pairNode@@UBEHXZ 100411b0 f i libvcruntimed:undname.obj
 0001:000401d0       ?raw_length@pcharNode@@UBEHXZ 100411d0 f i libvcruntimed:undname.obj
 0001:000401f0       ?setIsArray@DName@@QAEXXZ  100411f0 f i libvcruntimed:undname.obj
 0001:00040210       ?setIsComArray@DName@@QAEXXZ 10041210 f i libvcruntimed:undname.obj
 0001:00040230       ?setIsNoTE@DName@@QAEXXZ   10041230 f i libvcruntimed:undname.obj
 0001:00040250       ?setIsPinPtr@DName@@QAEXXZ 10041250 f i libvcruntimed:undname.obj
 0001:00040270       ?setIsUDC@DName@@QAEXXZ    10041270 f i libvcruntimed:undname.obj
 0001:000402a0       ?setIsVCallThunk@DName@@QAEXXZ 100412a0 f i libvcruntimed:undname.obj
 0001:000402c0       ?setPtrRef@DName@@QAEAAV1@XZ 100412c0 f i libvcruntimed:undname.obj
 0001:000402e0       ?status@DName@@QBE?AW4DNameStatus@@XZ 100412e0 f i libvcruntimed:undname.obj
 0001:000403e0       ___unDName                 100413e0 f   libvcruntimed:undname.obj
 0001:00040410       ___unDNameEx               10041410 f   libvcruntimed:undname.obj
 0001:000404e0       _unDNameGenerateCHPE       100414e0 f   libvcruntimed:undname.obj
 0001:00040540       __global_unwind2           10041540 f   libvcruntimed:exsup.obj
 0001:000405a6       __local_unwind2            100415a6 f   libvcruntimed:exsup.obj
 0001:0004062a       __abnormal_termination     1004162a f   libvcruntimed:exsup.obj
 0001:00040650       __NLG_Notify1              10041650 f   libvcruntimed:exsup.obj
 0001:0004065c       __NLG_Notify               1004165c f   libvcruntimed:exsup.obj
 0001:00040673       __NLG_Dispatch             10041673     libvcruntimed:exsup.obj
 0001:00040673       __NLG_Dispatch2            10041673     libvcruntimed:exsup.obj
 0001:0004067b       __NLG_Call                 1004167b f   libvcruntimed:exsup.obj
 0001:0004067d       __NLG_Return2              1004167d     libvcruntimed:exsup.obj
 0001:00040680       ??$__crt_interlocked_exchange_pointer@UHINSTANCE__@@PAU1@@@YAPAUHINSTANCE__@@PDSAU0@QAU0@@Z 10041680 f i libvcruntimed:winapi_downlevel.obj
 0001:00040690       ??$__crt_interlocked_exchange_pointer@UHINSTANCE__@@PAX@@YAPAUHINSTANCE__@@PDSAU0@QAX@Z 10041690 f i libvcruntimed:winapi_downlevel.obj
 0001:000406a0       ??$__crt_interlocked_exchange_pointer@XPAX@@YAPAXPDSAXQAX@Z 100416a0 f i libvcruntimed:winapi_downlevel.obj
 0001:000406b0       ??$__crt_interlocked_read_pointer@UHINSTANCE__@@@@YAPAUHINSTANCE__@@PDSAU0@@Z 100416b0 f i libvcruntimed:winapi_downlevel.obj
 0001:000406d0       ??$__crt_interlocked_read_pointer@X@@YAPAXPDSAX@Z 100416d0 f i libvcruntimed:winapi_downlevel.obj
 0001:00040aa0       ___vcrt_FlsAlloc           10041aa0 f   libvcruntimed:winapi_downlevel.obj
 0001:00040ae0       ___vcrt_FlsFree            10041ae0 f   libvcruntimed:winapi_downlevel.obj
 0001:00040b20       ___vcrt_FlsGetValue        10041b20 f   libvcruntimed:winapi_downlevel.obj
 0001:00040b60       ___vcrt_FlsSetValue        10041b60 f   libvcruntimed:winapi_downlevel.obj
 0001:00040bb0       ___vcrt_InitializeCriticalSectionEx 10041bb0 f   libvcruntimed:winapi_downlevel.obj
 0001:00040c30       __get_unexpected           10041c30 f   libvcruntimed:unexpected.obj
 0001:00040c50       _set_unexpected            10041c50 f   libvcruntimed:unexpected.obj
 0001:00040c80       _unexpected                10041c80 f   libvcruntimed:unexpected.obj
 0001:00040cc0       ?GetCurrentState@__FrameHandler3@@SAHPAUEHRegistrationNode@@PAXPBU_s_FuncInfo@@@Z 10041cc0 f   libvcruntimed:ehstate.obj
 0001:00040cf0       ?SetState@__FrameHandler3@@SAXPAUEHRegistrationNode@@PBU_s_FuncInfo@@H@Z 10041cf0 f   libvcruntimed:ehstate.obj
 0001:00040d00       ??$?0ABV?$stream_output_adapter@D@__crt_stdio_output@@AB_KABQBDABQAU__crt_locale_pointers@@ABQAD@?$format_validation_base@DV?$stream_output_adapter@D@__crt_stdio_output@@@__crt_stdio_output@@IAE@ABV?$stream_output_adapter@D@1@AB_KABQBDABQAU__crt_locale_pointers@@ABQAD@Z 10041d00 f i libucrtd:output.obj
 0001:00040d30       ??$?0ABV?$stream_output_adapter@D@__crt_stdio_output@@AB_KABQBDABQAU__crt_locale_pointers@@ABQAD@?$positional_parameter_base@DV?$stream_output_adapter@D@__crt_stdio_output@@@__crt_stdio_output@@IAE@ABV?$stream_output_adapter@D@1@AB_KABQBDABQAU__crt_locale_pointers@@ABQAD@Z 10041d30 f i libucrtd:output.obj
 0001:00040db0       ??$?0ABV?$stream_output_adapter@D@__crt_stdio_output@@AB_KABQBDABQAU__crt_locale_pointers@@ABQAD@?$standard_base@DV?$stream_output_adapter@D@__crt_stdio_output@@@__crt_stdio_output@@IAE@ABV?$stream_output_adapter@D@1@AB_KABQBDABQAU__crt_locale_pointers@@ABQAD@Z 10041db0 f i libucrtd:output.obj
 0001:00040e00       ??$?0ABV?$stream_output_adapter@_W@__crt_stdio_output@@AB_KABQB_WABQAU__crt_locale_pointers@@ABQAD@?$format_validation_base@_WV?$stream_output_adapter@_W@__crt_stdio_output@@@__crt_stdio_output@@IAE@ABV?$stream_output_adapter@_W@1@AB_KABQB_WABQAU__crt_locale_pointers@@ABQAD@Z 10041e00 f i libucrtd:output.obj
 0001:00040e30       ??$?0ABV?$stream_output_adapter@_W@__crt_stdio_output@@AB_KABQB_WABQAU__crt_locale_pointers@@ABQAD@?$positional_parameter_base@_WV?$stream_output_adapter@_W@__crt_stdio_output@@@__crt_stdio_output@@IAE@ABV?$stream_output_adapter@_W@1@AB_KABQB_WABQAU__crt_locale_pointers@@ABQAD@Z 10041e30 f i libucrtd:output.obj
 0001:00040eb0       ??$?0ABV?$stream_output_adapter@_W@__crt_stdio_output@@AB_KABQB_WABQAU__crt_locale_pointers@@ABQAD@?$standard_base@_WV?$stream_output_adapter@_W@__crt_stdio_output@@@__crt_stdio_output@@IAE@ABV?$stream_output_adapter@_W@1@AB_KABQB_WABQAU__crt_locale_pointers@@ABQAD@Z 10041eb0 f i libucrtd:output.obj
 0001:00040f00       ??$?0ABV?$string_output_adapter@D@__crt_stdio_output@@AB_KABQBDABQAU__crt_locale_pointers@@ABQAD@?$format_validation_base@DV?$string_output_adapter@D@__crt_stdio_output@@@__crt_stdio_output@@IAE@ABV?$string_output_adapter@D@1@AB_KABQBDABQAU__crt_locale_pointers@@ABQAD@Z 10041f00 f i libucrtd:output.obj
 0001:00040f30       ??$?0ABV?$string_output_adapter@D@__crt_stdio_output@@AB_KABQBDABQAU__crt_locale_pointers@@ABQAD@?$positional_parameter_base@DV?$string_output_adapter@D@__crt_stdio_output@@@__crt_stdio_output@@IAE@ABV?$string_output_adapter@D@1@AB_KABQBDABQAU__crt_locale_pointers@@ABQAD@Z 10041f30 f i libucrtd:output.obj
 0001:00040fb0       ??$?0ABV?$string_output_adapter@D@__crt_stdio_output@@AB_KABQBDABQAU__crt_locale_pointers@@ABQAD@?$standard_base@DV?$string_output_adapter@D@__crt_stdio_output@@@__crt_stdio_output@@IAE@ABV?$string_output_adapter@D@1@AB_KABQBDABQAU__crt_locale_pointers@@ABQAD@Z 10041fb0 f i libucrtd:output.obj
 0001:00041000       ??$?0ABV?$string_output_adapter@_W@__crt_stdio_output@@AB_KABQB_WABQAU__crt_locale_pointers@@ABQAD@?$format_validation_base@_WV?$string_output_adapter@_W@__crt_stdio_output@@@__crt_stdio_output@@IAE@ABV?$string_output_adapter@_W@1@AB_KABQB_WABQAU__crt_locale_pointers@@ABQAD@Z 10042000 f i libucrtd:output.obj
 0001:00041030       ??$?0ABV?$string_output_adapter@_W@__crt_stdio_output@@AB_KABQB_WABQAU__crt_locale_pointers@@ABQAD@?$positional_parameter_base@_WV?$string_output_adapter@_W@__crt_stdio_output@@@__crt_stdio_output@@IAE@ABV?$string_output_adapter@_W@1@AB_KABQB_WABQAU__crt_locale_pointers@@ABQAD@Z 10042030 f i libucrtd:output.obj
 0001:000410b0       ??$?0ABV?$string_output_adapter@_W@__crt_stdio_output@@AB_KABQB_WABQAU__crt_locale_pointers@@ABQAD@?$standard_base@_WV?$string_output_adapter@_W@__crt_stdio_output@@@__crt_stdio_output@@IAE@ABV?$string_output_adapter@_W@1@AB_KABQB_WABQAU__crt_locale_pointers@@ABQAD@Z 100420b0 f i libucrtd:output.obj
 0001:000415e0       ??$__crt_interlocked_read@J@@YAJPDJ@Z 100425e0 f i libucrtd:output.obj
 0001:00044380       ??$count@D@formatting_buffer@__crt_stdio_output@@QBEIXZ 10045380 f i libucrtd:output.obj
 0001:000443c0       ??$count@_W@formatting_buffer@__crt_stdio_output@@QBEIXZ 100453c0 f i libucrtd:output.obj
 0001:00044400       ??$data@D@formatting_buffer@__crt_stdio_output@@QAEPADXZ 10045400 f i libucrtd:output.obj
 0001:00044440       ??$data@_W@formatting_buffer@__crt_stdio_output@@QAEPA_WXZ 10045440 f i libucrtd:output.obj
 0001:00044480       ??$ensure_buffer_is_big_enough@D@formatting_buffer@__crt_stdio_output@@QAE_NI@Z 10045480 f i libucrtd:output.obj
 0001:00044560       ??$ensure_buffer_is_big_enough@_W@formatting_buffer@__crt_stdio_output@@QAE_NI@Z 10045560 f i libucrtd:output.obj
 0001:00044650       ??$extract_argument_from_va_list@C_J@?$positional_parameter_base@DV?$stream_output_adapter@D@__crt_stdio_output@@@__crt_stdio_output@@IAE_NAA_J@Z 10045650 f i libucrtd:output.obj
 0001:00044790       ??$extract_argument_from_va_list@C_J@?$positional_parameter_base@DV?$string_output_adapter@D@__crt_stdio_output@@@__crt_stdio_output@@IAE_NAA_J@Z 10045790 f i libucrtd:output.obj
 0001:000448d0       ??$extract_argument_from_va_list@C_J@?$positional_parameter_base@_WV?$stream_output_adapter@_W@__crt_stdio_output@@@__crt_stdio_output@@IAE_NAA_J@Z 100458d0 f i libucrtd:output.obj
 0001:00044a10       ??$extract_argument_from_va_list@C_J@?$positional_parameter_base@_WV?$string_output_adapter@_W@__crt_stdio_output@@@__crt_stdio_output@@IAE_NAA_J@Z 10045a10 f i libucrtd:output.obj
 0001:00044b50       ??$extract_argument_from_va_list@C_J@?$standard_base@DV?$stream_output_adapter@D@__crt_stdio_output@@@__crt_stdio_output@@IAE_NAA_J@Z 10045b50 f i libucrtd:output.obj
 0001:00044b80       ??$extract_argument_from_va_list@C_J@?$standard_base@DV?$string_output_adapter@D@__crt_stdio_output@@@__crt_stdio_output@@IAE_NAA_J@Z 10045b80 f i libucrtd:output.obj
 0001:00044bb0       ??$extract_argument_from_va_list@C_J@?$standard_base@_WV?$stream_output_adapter@_W@__crt_stdio_output@@@__crt_stdio_output@@IAE_NAA_J@Z 10045bb0 f i libucrtd:output.obj
 0001:00044be0       ??$extract_argument_from_va_list@C_J@?$standard_base@_WV?$string_output_adapter@_W@__crt_stdio_output@@@__crt_stdio_output@@IAE_NAA_J@Z 10045be0 f i libucrtd:output.obj
 0001:00044c10       ??$extract_argument_from_va_list@E_J@?$positional_parameter_base@DV?$stream_output_adapter@D@__crt_stdio_output@@@__crt_stdio_output@@IAE_NAA_J@Z 10045c10 f i libucrtd:output.obj
 0001:00044d50       ??$extract_argument_from_va_list@E_J@?$positional_parameter_base@DV?$string_output_adapter@D@__crt_stdio_output@@@__crt_stdio_output@@IAE_NAA_J@Z 10045d50 f i libucrtd:output.obj
 0001:00044e90       ??$extract_argument_from_va_list@E_J@?$positional_parameter_base@_WV?$stream_output_adapter@_W@__crt_stdio_output@@@__crt_stdio_output@@IAE_NAA_J@Z 10045e90 f i libucrtd:output.obj
 0001:00044fd0       ??$extract_argument_from_va_list@E_J@?$positional_parameter_base@_WV?$string_output_adapter@_W@__crt_stdio_output@@@__crt_stdio_output@@IAE_NAA_J@Z 10045fd0 f i libucrtd:output.obj
 0001:00045110       ??$extract_argument_from_va_list@E_J@?$standard_base@DV?$stream_output_adapter@D@__crt_stdio_output@@@__crt_stdio_output@@IAE_NAA_J@Z 10046110 f i libucrtd:output.obj
 0001:00045140       ??$extract_argument_from_va_list@E_J@?$standard_base@DV?$string_output_adapter@D@__crt_stdio_output@@@__crt_stdio_output@@IAE_NAA_J@Z 10046140 f i libucrtd:output.obj
 0001:00045170       ??$extract_argument_from_va_list@E_J@?$standard_base@_WV?$stream_output_adapter@_W@__crt_stdio_output@@@__crt_stdio_output@@IAE_NAA_J@Z 10046170 f i libucrtd:output.obj
 0001:000451a0       ??$extract_argument_from_va_list@E_J@?$standard_base@_WV?$string_output_adapter@_W@__crt_stdio_output@@@__crt_stdio_output@@IAE_NAA_J@Z 100461a0 f i libucrtd:output.obj
 0001:000451d0       ??$extract_argument_from_va_list@F_J@?$positional_parameter_base@DV?$stream_output_adapter@D@__crt_stdio_output@@@__crt_stdio_output@@IAE_NAA_J@Z 100461d0 f i libucrtd:output.obj
 0001:00045300       ??$extract_argument_from_va_list@F_J@?$positional_parameter_base@DV?$string_output_adapter@D@__crt_stdio_output@@@__crt_stdio_output@@IAE_NAA_J@Z 10046300 f i libucrtd:output.obj
 0001:00045430       ??$extract_argument_from_va_list@F_J@?$positional_parameter_base@_WV?$stream_output_adapter@_W@__crt_stdio_output@@@__crt_stdio_output@@IAE_NAA_J@Z 10046430 f i libucrtd:output.obj
 0001:00045560       ??$extract_argument_from_va_list@F_J@?$positional_parameter_base@_WV?$string_output_adapter@_W@__crt_stdio_output@@@__crt_stdio_output@@IAE_NAA_J@Z 10046560 f i libucrtd:output.obj
 0001:00045690       ??$extract_argument_from_va_list@F_J@?$standard_base@DV?$stream_output_adapter@D@__crt_stdio_output@@@__crt_stdio_output@@IAE_NAA_J@Z 10046690 f i libucrtd:output.obj
 0001:000456c0       ??$extract_argument_from_va_list@F_J@?$standard_base@DV?$string_output_adapter@D@__crt_stdio_output@@@__crt_stdio_output@@IAE_NAA_J@Z 100466c0 f i libucrtd:output.obj
 0001:000456f0       ??$extract_argument_from_va_list@F_J@?$standard_base@_WV?$stream_output_adapter@_W@__crt_stdio_output@@@__crt_stdio_output@@IAE_NAA_J@Z 100466f0 f i libucrtd:output.obj
 0001:00045720       ??$extract_argument_from_va_list@F_J@?$standard_base@_WV?$string_output_adapter@_W@__crt_stdio_output@@@__crt_stdio_output@@IAE_NAA_J@Z 10046720 f i libucrtd:output.obj
 0001:00045750       ??$extract_argument_from_va_list@GD@?$positional_parameter_base@DV?$stream_output_adapter@D@__crt_stdio_output@@@__crt_stdio_output@@IAE_NAAD@Z 10046750 f i libucrtd:output.obj
 0001:00045880       ??$extract_argument_from_va_list@GD@?$positional_parameter_base@DV?$string_output_adapter@D@__crt_stdio_output@@@__crt_stdio_output@@IAE_NAAD@Z 10046880 f i libucrtd:output.obj
 0001:000459b0       ??$extract_argument_from_va_list@GD@?$standard_base@DV?$stream_output_adapter@D@__crt_stdio_output@@@__crt_stdio_output@@IAE_NAAD@Z 100469b0 f i libucrtd:output.obj
 0001:000459e0       ??$extract_argument_from_va_list@GD@?$standard_base@DV?$string_output_adapter@D@__crt_stdio_output@@@__crt_stdio_output@@IAE_NAAD@Z 100469e0 f i libucrtd:output.obj
 0001:00045a10       ??$extract_argument_from_va_list@G_J@?$positional_parameter_base@DV?$stream_output_adapter@D@__crt_stdio_output@@@__crt_stdio_output@@IAE_NAA_J@Z 10046a10 f i libucrtd:output.obj
 0001:00045b50       ??$extract_argument_from_va_list@G_J@?$positional_parameter_base@DV?$string_output_adapter@D@__crt_stdio_output@@@__crt_stdio_output@@IAE_NAA_J@Z 10046b50 f i libucrtd:output.obj
 0001:00045c90       ??$extract_argument_from_va_list@G_J@?$positional_parameter_base@_WV?$stream_output_adapter@_W@__crt_stdio_output@@@__crt_stdio_output@@IAE_NAA_J@Z 10046c90 f i libucrtd:output.obj
 0001:00045dd0       ??$extract_argument_from_va_list@G_J@?$positional_parameter_base@_WV?$string_output_adapter@_W@__crt_stdio_output@@@__crt_stdio_output@@IAE_NAA_J@Z 10046dd0 f i libucrtd:output.obj
 0001:00045f10       ??$extract_argument_from_va_list@G_J@?$standard_base@DV?$stream_output_adapter@D@__crt_stdio_output@@@__crt_stdio_output@@IAE_NAA_J@Z 10046f10 f i libucrtd:output.obj
 0001:00045f40       ??$extract_argument_from_va_list@G_J@?$standard_base@DV?$string_output_adapter@D@__crt_stdio_output@@@__crt_stdio_output@@IAE_NAA_J@Z 10046f40 f i libucrtd:output.obj
 0001:00045f70       ??$extract_argument_from_va_list@G_J@?$standard_base@_WV?$stream_output_adapter@_W@__crt_stdio_output@@@__crt_stdio_output@@IAE_NAA_J@Z 10046f70 f i libucrtd:output.obj
 0001:00045fa0       ??$extract_argument_from_va_list@G_J@?$standard_base@_WV?$string_output_adapter@_W@__crt_stdio_output@@@__crt_stdio_output@@IAE_NAA_J@Z 10046fa0 f i libucrtd:output.obj
 0001:00045fd0       ??$extract_argument_from_va_list@H_J@?$positional_parameter_base@DV?$stream_output_adapter@D@__crt_stdio_output@@@__crt_stdio_output@@IAE_NAA_J@Z 10046fd0 f i libucrtd:output.obj
 0001:00046100       ??$extract_argument_from_va_list@H_J@?$positional_parameter_base@DV?$string_output_adapter@D@__crt_stdio_output@@@__crt_stdio_output@@IAE_NAA_J@Z 10047100 f i libucrtd:output.obj
 0001:00046230       ??$extract_argument_from_va_list@H_J@?$positional_parameter_base@_WV?$stream_output_adapter@_W@__crt_stdio_output@@@__crt_stdio_output@@IAE_NAA_J@Z 10047230 f i libucrtd:output.obj
 0001:00046360       ??$extract_argument_from_va_list@H_J@?$positional_parameter_base@_WV?$string_output_adapter@_W@__crt_stdio_output@@@__crt_stdio_output@@IAE_NAA_J@Z 10047360 f i libucrtd:output.obj
 0001:00046490       ??$extract_argument_from_va_list@H_J@?$standard_base@DV?$stream_output_adapter@D@__crt_stdio_output@@@__crt_stdio_output@@IAE_NAA_J@Z 10047490 f i libucrtd:output.obj
 0001:000464c0       ??$extract_argument_from_va_list@H_J@?$standard_base@DV?$string_output_adapter@D@__crt_stdio_output@@@__crt_stdio_output@@IAE_NAA_J@Z 100474c0 f i libucrtd:output.obj
 0001:000464f0       ??$extract_argument_from_va_list@H_J@?$standard_base@_WV?$stream_output_adapter@_W@__crt_stdio_output@@@__crt_stdio_output@@IAE_NAA_J@Z 100474f0 f i libucrtd:output.obj
 0001:00046520       ??$extract_argument_from_va_list@H_J@?$standard_base@_WV?$string_output_adapter@_W@__crt_stdio_output@@@__crt_stdio_output@@IAE_NAA_J@Z 10047520 f i libucrtd:output.obj
 0001:00046550       ??$extract_argument_from_va_list@I_J@?$positional_parameter_base@DV?$stream_output_adapter@D@__crt_stdio_output@@@__crt_stdio_output@@IAE_NAA_J@Z 10047550 f i libucrtd:output.obj
 0001:00046680       ??$extract_argument_from_va_list@I_J@?$positional_parameter_base@DV?$string_output_adapter@D@__crt_stdio_output@@@__crt_stdio_output@@IAE_NAA_J@Z 10047680 f i libucrtd:output.obj
 0001:000467b0       ??$extract_argument_from_va_list@I_J@?$positional_parameter_base@_WV?$stream_output_adapter@_W@__crt_stdio_output@@@__crt_stdio_output@@IAE_NAA_J@Z 100477b0 f i libucrtd:output.obj
 0001:000468e0       ??$extract_argument_from_va_list@I_J@?$positional_parameter_base@_WV?$string_output_adapter@_W@__crt_stdio_output@@@__crt_stdio_output@@IAE_NAA_J@Z 100478e0 f i libucrtd:output.obj
 0001:00046a10       ??$extract_argument_from_va_list@I_J@?$standard_base@DV?$stream_output_adapter@D@__crt_stdio_output@@@__crt_stdio_output@@IAE_NAA_J@Z 10047a10 f i libucrtd:output.obj
 0001:00046a40       ??$extract_argument_from_va_list@I_J@?$standard_base@DV?$string_output_adapter@D@__crt_stdio_output@@@__crt_stdio_output@@IAE_NAA_J@Z 10047a40 f i libucrtd:output.obj
 0001:00046a70       ??$extract_argument_from_va_list@I_J@?$standard_base@_WV?$stream_output_adapter@_W@__crt_stdio_output@@@__crt_stdio_output@@IAE_NAA_J@Z 10047a70 f i libucrtd:output.obj
 0001:00046aa0       ??$extract_argument_from_va_list@I_J@?$standard_base@_WV?$string_output_adapter@_W@__crt_stdio_output@@@__crt_stdio_output@@IAE_NAA_J@Z 10047aa0 f i libucrtd:output.obj
 0001:00046ad0       ??$extract_argument_from_va_list@PADPAD@?$positional_parameter_base@DV?$stream_output_adapter@D@__crt_stdio_output@@@__crt_stdio_output@@IAE_NAAPAD@Z 10047ad0 f i libucrtd:output.obj
 0001:00046c00       ??$extract_argument_from_va_list@PADPAD@?$positional_parameter_base@DV?$string_output_adapter@D@__crt_stdio_output@@@__crt_stdio_output@@IAE_NAAPAD@Z 10047c00 f i libucrtd:output.obj
 0001:00046d30       ??$extract_argument_from_va_list@PADPAD@?$positional_parameter_base@_WV?$stream_output_adapter@_W@__crt_stdio_output@@@__crt_stdio_output@@IAE_NAAPAD@Z 10047d30 f i libucrtd:output.obj
 0001:00046e60       ??$extract_argument_from_va_list@PADPAD@?$positional_parameter_base@_WV?$string_output_adapter@_W@__crt_stdio_output@@@__crt_stdio_output@@IAE_NAAPAD@Z 10047e60 f i libucrtd:output.obj
 0001:00046f90       ??$extract_argument_from_va_list@PADPAD@?$standard_base@DV?$stream_output_adapter@D@__crt_stdio_output@@@__crt_stdio_output@@IAE_NAAPAD@Z 10047f90 f i libucrtd:output.obj
 0001:00046fc0       ??$extract_argument_from_va_list@PADPAD@?$standard_base@DV?$string_output_adapter@D@__crt_stdio_output@@@__crt_stdio_output@@IAE_NAAPAD@Z 10047fc0 f i libucrtd:output.obj
 0001:00046ff0       ??$extract_argument_from_va_list@PADPAD@?$standard_base@_WV?$stream_output_adapter@_W@__crt_stdio_output@@@__crt_stdio_output@@IAE_NAAPAD@Z 10047ff0 f i libucrtd:output.obj
 0001:00047020       ??$extract_argument_from_va_list@PADPAD@?$standard_base@_WV?$string_output_adapter@_W@__crt_stdio_output@@@__crt_stdio_output@@IAE_NAAPAD@Z 10048020 f i libucrtd:output.obj
 0001:00047050       ??$extract_argument_from_va_list@PAUansi_string@?1??type_case_Z@?$output_processor@DV?$stream_output_adapter@D@__crt_stdio_output@@V?$format_validation_base@DV?$stream_output_adapter@D@__crt_stdio_output@@@2@@__crt_stdio_output@@AAE_NXZ@PAU1?1??234@AAE_NXZ@@?$standard_base@DV?$stream_output_adapter@D@__crt_stdio_output@@@__crt_stdio_output@@IAE_NAAPAUansi_string@?1??type_case_Z@?$output_processor@DV?$stream_output_adapter@D@__crt_stdio_output@@V?$format_validation_base@DV?$stream_output_adapter@D@__crt_stdio_output@@@2@@1@AAE_NXZ@@Z 10048050 f i libucrtd:output.obj
 0001:00047080       ??$extract_argument_from_va_list@PAUansi_string@?1??type_case_Z@?$output_processor@DV?$stream_output_adapter@D@__crt_stdio_output@@V?$positional_parameter_base@DV?$stream_output_adapter@D@__crt_stdio_output@@@2@@__crt_stdio_output@@AAE_NXZ@PAU1?1??234@AAE_NXZ@@?$positional_parameter_base@DV?$stream_output_adapter@D@__crt_stdio_output@@@__crt_stdio_output@@IAE_NAAPAUansi_string@?1??type_case_Z@?$output_processor@DV?$stream_output_adapter@D@__crt_stdio_output@@V?$positional_parameter_base@DV?$stream_output_adapter@D@__crt_stdio_output@@@2@@1@AAE_NXZ@@Z 10048080 f i libucrtd:output.obj
 0001:000471b0       ??$extract_argument_from_va_list@PAUansi_string@?1??type_case_Z@?$output_processor@DV?$stream_output_adapter@D@__crt_stdio_output@@V?$positional_parameter_base@DV?$stream_output_adapter@D@__crt_stdio_output@@@2@@__crt_stdio_output@@AAE_NXZ@PAU1?1??234@AAE_NXZ@@?$standard_base@DV?$stream_output_adapter@D@__crt_stdio_output@@@__crt_stdio_output@@IAE_NAAPAUansi_string@?1??type_case_Z@?$output_processor@DV?$stream_output_adapter@D@__crt_stdio_output@@V?$positional_parameter_base@DV?$stream_output_adapter@D@__crt_stdio_output@@@2@@1@AAE_NXZ@@Z 100481b0 f i libucrtd:output.obj
 0001:000471e0       ??$extract_argument_from_va_list@PAUansi_string@?1??type_case_Z@?$output_processor@DV?$stream_output_adapter@D@__crt_stdio_output@@V?$standard_base@DV?$stream_output_adapter@D@__crt_stdio_output@@@2@@__crt_stdio_output@@AAE_NXZ@PAU1?1??234@AAE_NXZ@@?$standard_base@DV?$stream_output_adapter@D@__crt_stdio_output@@@__crt_stdio_output@@IAE_NAAPAUansi_string@?1??type_case_Z@?$output_processor@DV?$stream_output_adapter@D@__crt_stdio_output@@V?$standard_base@DV?$stream_output_adapter@D@__crt_stdio_output@@@2@@1@AAE_NXZ@@Z 100481e0 f i libucrtd:output.obj
 0001:00047210       ??$extract_argument_from_va_list@PAUansi_string@?1??type_case_Z@?$output_processor@DV?$string_output_adapter@D@__crt_stdio_output@@V?$format_validation_base@DV?$string_output_adapter@D@__crt_stdio_output@@@2@@__crt_stdio_output@@AAE_NXZ@PAU1?1??234@AAE_NXZ@@?$standard_base@DV?$string_output_adapter@D@__crt_stdio_output@@@__crt_stdio_output@@IAE_NAAPAUansi_string@?1??type_case_Z@?$output_processor@DV?$string_output_adapter@D@__crt_stdio_output@@V?$format_validation_base@DV?$string_output_adapter@D@__crt_stdio_output@@@2@@1@AAE_NXZ@@Z 10048210 f i libucrtd:output.obj
 0001:00047240       ??$extract_argument_from_va_list@PAUansi_string@?1??type_case_Z@?$output_processor@DV?$string_output_adapter@D@__crt_stdio_output@@V?$positional_parameter_base@DV?$string_output_adapter@D@__crt_stdio_output@@@2@@__crt_stdio_output@@AAE_NXZ@PAU1?1??234@AAE_NXZ@@?$positional_parameter_base@DV?$string_output_adapter@D@__crt_stdio_output@@@__crt_stdio_output@@IAE_NAAPAUansi_string@?1??type_case_Z@?$output_processor@DV?$string_output_adapter@D@__crt_stdio_output@@V?$positional_parameter_base@DV?$string_output_adapter@D@__crt_stdio_output@@@2@@1@AAE_NXZ@@Z 10048240 f i libucrtd:output.obj
 0001:00047370       ??$extract_argument_from_va_list@PAUansi_string@?1??type_case_Z@?$output_processor@DV?$string_output_adapter@D@__crt_stdio_output@@V?$positional_parameter_base@DV?$string_output_adapter@D@__crt_stdio_output@@@2@@__crt_stdio_output@@AAE_NXZ@PAU1?1??234@AAE_NXZ@@?$standard_base@DV?$string_output_adapter@D@__crt_stdio_output@@@__crt_stdio_output@@IAE_NAAPAUansi_string@?1??type_case_Z@?$output_processor@DV?$string_output_adapter@D@__crt_stdio_output@@V?$positional_parameter_base@DV?$string_output_adapter@D@__crt_stdio_output@@@2@@1@AAE_NXZ@@Z 10048370 f i libucrtd:output.obj
 0001:000473a0       ??$extract_argument_from_va_list@PAUansi_string@?1??type_case_Z@?$output_processor@DV?$string_output_adapter@D@__crt_stdio_output@@V?$standard_base@DV?$string_output_adapter@D@__crt_stdio_output@@@2@@__crt_stdio_output@@AAE_NXZ@PAU1?1??234@AAE_NXZ@@?$standard_base@DV?$string_output_adapter@D@__crt_stdio_output@@@__crt_stdio_output@@IAE_NAAPAUansi_string@?1??type_case_Z@?$output_processor@DV?$string_output_adapter@D@__crt_stdio_output@@V?$standard_base@DV?$string_output_adapter@D@__crt_stdio_output@@@2@@1@AAE_NXZ@@Z 100483a0 f i libucrtd:output.obj
 0001:000473d0       ??$extract_argument_from_va_list@PAUansi_string@?1??type_case_Z@?$output_processor@_WV?$stream_output_adapter@_W@__crt_stdio_output@@V?$format_validation_base@_WV?$stream_output_adapter@_W@__crt_stdio_output@@@2@@__crt_stdio_output@@AAE_NXZ@PAU1?1??234@AAE_NXZ@@?$standard_base@_WV?$stream_output_adapter@_W@__crt_stdio_output@@@__crt_stdio_output@@IAE_NAAPAUansi_string@?1??type_case_Z@?$output_processor@_WV?$stream_output_adapter@_W@__crt_stdio_output@@V?$format_validation_base@_WV?$stream_output_adapter@_W@__crt_stdio_output@@@2@@1@AAE_NXZ@@Z 100483d0 f i libucrtd:output.obj
 0001:00047400       ??$extract_argument_from_va_list@PAUansi_string@?1??type_case_Z@?$output_processor@_WV?$stream_output_adapter@_W@__crt_stdio_output@@V?$positional_parameter_base@_WV?$stream_output_adapter@_W@__crt_stdio_output@@@2@@__crt_stdio_output@@AAE_NXZ@PAU1?1??234@AAE_NXZ@@?$positional_parameter_base@_WV?$stream_output_adapter@_W@__crt_stdio_output@@@__crt_stdio_output@@IAE_NAAPAUansi_string@?1??type_case_Z@?$output_processor@_WV?$stream_output_adapter@_W@__crt_stdio_output@@V?$positional_parameter_base@_WV?$stream_output_adapter@_W@__crt_stdio_output@@@2@@1@AAE_NXZ@@Z 10048400 f i libucrtd:output.obj
 0001:00047530       ??$extract_argument_from_va_list@PAUansi_string@?1??type_case_Z@?$output_processor@_WV?$stream_output_adapter@_W@__crt_stdio_output@@V?$positional_parameter_base@_WV?$stream_output_adapter@_W@__crt_stdio_output@@@2@@__crt_stdio_output@@AAE_NXZ@PAU1?1??234@AAE_NXZ@@?$standard_base@_WV?$stream_output_adapter@_W@__crt_stdio_output@@@__crt_stdio_output@@IAE_NAAPAUansi_string@?1??type_case_Z@?$output_processor@_WV?$stream_output_adapter@_W@__crt_stdio_output@@V?$positional_parameter_base@_WV?$stream_output_adapter@_W@__crt_stdio_output@@@2@@1@AAE_NXZ@@Z 10048530 f i libucrtd:output.obj
 0001:00047560       ??$extract_argument_from_va_list@PAUansi_string@?1??type_case_Z@?$output_processor@_WV?$stream_output_adapter@_W@__crt_stdio_output@@V?$standard_base@_WV?$stream_output_adapter@_W@__crt_stdio_output@@@2@@__crt_stdio_output@@AAE_NXZ@PAU1?1??234@AAE_NXZ@@?$standard_base@_WV?$stream_output_adapter@_W@__crt_stdio_output@@@__crt_stdio_output@@IAE_NAAPAUansi_string@?1??type_case_Z@?$output_processor@_WV?$stream_output_adapter@_W@__crt_stdio_output@@V?$standard_base@_WV?$stream_output_adapter@_W@__crt_stdio_output@@@2@@1@AAE_NXZ@@Z 10048560 f i libucrtd:output.obj
 0001:00047590       ??$extract_argument_from_va_list@PAUansi_string@?1??type_case_Z@?$output_processor@_WV?$string_output_adapter@_W@__crt_stdio_output@@V?$format_validation_base@_WV?$string_output_adapter@_W@__crt_stdio_output@@@2@@__crt_stdio_output@@AAE_NXZ@PAU1?1??234@AAE_NXZ@@?$standard_base@_WV?$string_output_adapter@_W@__crt_stdio_output@@@__crt_stdio_output@@IAE_NAAPAUansi_string@?1??type_case_Z@?$output_processor@_WV?$string_output_adapter@_W@__crt_stdio_output@@V?$format_validation_base@_WV?$string_output_adapter@_W@__crt_stdio_output@@@2@@1@AAE_NXZ@@Z 10048590 f i libucrtd:output.obj
 0001:000475c0       ??$extract_argument_from_va_list@PAUansi_string@?1??type_case_Z@?$output_processor@_WV?$string_output_adapter@_W@__crt_stdio_output@@V?$positional_parameter_base@_WV?$string_output_adapter@_W@__crt_stdio_output@@@2@@__crt_stdio_output@@AAE_NXZ@PAU1?1??234@AAE_NXZ@@?$positional_parameter_base@_WV?$string_output_adapter@_W@__crt_stdio_output@@@__crt_stdio_output@@IAE_NAAPAUansi_string@?1??type_case_Z@?$output_processor@_WV?$string_output_adapter@_W@__crt_stdio_output@@V?$positional_parameter_base@_WV?$string_output_adapter@_W@__crt_stdio_output@@@2@@1@AAE_NXZ@@Z 100485c0 f i libucrtd:output.obj
 0001:000476f0       ??$extract_argument_from_va_list@PAUansi_string@?1??type_case_Z@?$output_processor@_WV?$string_output_adapter@_W@__crt_stdio_output@@V?$positional_parameter_base@_WV?$string_output_adapter@_W@__crt_stdio_output@@@2@@__crt_stdio_output@@AAE_NXZ@PAU1?1??234@AAE_NXZ@@?$standard_base@_WV?$string_output_adapter@_W@__crt_stdio_output@@@__crt_stdio_output@@IAE_NAAPAUansi_string@?1??type_case_Z@?$output_processor@_WV?$string_output_adapter@_W@__crt_stdio_output@@V?$positional_parameter_base@_WV?$string_output_adapter@_W@__crt_stdio_output@@@2@@1@AAE_NXZ@@Z 100486f0 f i libucrtd:output.obj
 0001:00047720       ??$extract_argument_from_va_list@PAUansi_string@?1??type_case_Z@?$output_processor@_WV?$string_output_adapter@_W@__crt_stdio_output@@V?$standard_base@_WV?$string_output_adapter@_W@__crt_stdio_output@@@2@@__crt_stdio_output@@AAE_NXZ@PAU1?1??234@AAE_NXZ@@?$standard_base@_WV?$string_output_adapter@_W@__crt_stdio_output@@@__crt_stdio_output@@IAE_NAAPAUansi_string@?1??type_case_Z@?$output_processor@_WV?$string_output_adapter@_W@__crt_stdio_output@@V?$standard_base@_WV?$string_output_adapter@_W@__crt_stdio_output@@@2@@1@AAE_NXZ@@Z 10048720 f i libucrtd:output.obj
 0001:00047750       ??$extract_argument_from_va_list@PAXPAX@?$positional_parameter_base@DV?$stream_output_adapter@D@__crt_stdio_output@@@__crt_stdio_output@@IAE_NAAPAX@Z 10048750 f i libucrtd:output.obj
 0001:00047880       ??$extract_argument_from_va_list@PAXPAX@?$positional_parameter_base@DV?$string_output_adapter@D@__crt_stdio_output@@@__crt_stdio_output@@IAE_NAAPAX@Z 10048880 f i libucrtd:output.obj
 0001:000479b0       ??$extract_argument_from_va_list@PAXPAX@?$positional_parameter_base@_WV?$stream_output_adapter@_W@__crt_stdio_output@@@__crt_stdio_output@@IAE_NAAPAX@Z 100489b0 f i libucrtd:output.obj
 0001:00047ae0       ??$extract_argument_from_va_list@PAXPAX@?$positional_parameter_base@_WV?$string_output_adapter@_W@__crt_stdio_output@@@__crt_stdio_output@@IAE_NAAPAX@Z 10048ae0 f i libucrtd:output.obj
 0001:00047c10       ??$extract_argument_from_va_list@PAXPAX@?$standard_base@DV?$stream_output_adapter@D@__crt_stdio_output@@@__crt_stdio_output@@IAE_NAAPAX@Z 10048c10 f i libucrtd:output.obj
 0001:00047c40       ??$extract_argument_from_va_list@PAXPAX@?$standard_base@DV?$string_output_adapter@D@__crt_stdio_output@@@__crt_stdio_output@@IAE_NAAPAX@Z 10048c40 f i libucrtd:output.obj
 0001:00047c70       ??$extract_argument_from_va_list@PAXPAX@?$standard_base@_WV?$stream_output_adapter@_W@__crt_stdio_output@@@__crt_stdio_output@@IAE_NAAPAX@Z 10048c70 f i libucrtd:output.obj
 0001:00047ca0       ??$extract_argument_from_va_list@PAXPAX@?$standard_base@_WV?$string_output_adapter@_W@__crt_stdio_output@@@__crt_stdio_output@@IAE_NAAPAX@Z 10048ca0 f i libucrtd:output.obj
 0001:00047cd0       ??$extract_argument_from_va_list@U_CRT_DOUBLE@@U1@@?$positional_parameter_base@DV?$stream_output_adapter@D@__crt_stdio_output@@@__crt_stdio_output@@IAE_NAAU_CRT_DOUBLE@@@Z 10048cd0 f i libucrtd:output.obj
 0001:00047e30       ??$extract_argument_from_va_list@U_CRT_DOUBLE@@U1@@?$positional_parameter_base@DV?$string_output_adapter@D@__crt_stdio_output@@@__crt_stdio_output@@IAE_NAAU_CRT_DOUBLE@@@Z 10048e30 f i libucrtd:output.obj
 0001:00047f90       ??$extract_argument_from_va_list@U_CRT_DOUBLE@@U1@@?$positional_parameter_base@_WV?$stream_output_adapter@_W@__crt_stdio_output@@@__crt_stdio_output@@IAE_NAAU_CRT_DOUBLE@@@Z 10048f90 f i libucrtd:output.obj
 0001:000480f0       ??$extract_argument_from_va_list@U_CRT_DOUBLE@@U1@@?$positional_parameter_base@_WV?$string_output_adapter@_W@__crt_stdio_output@@@__crt_stdio_output@@IAE_NAAU_CRT_DOUBLE@@@Z 100490f0 f i libucrtd:output.obj
 0001:00048250       ??$extract_argument_from_va_list@U_CRT_DOUBLE@@U1@@?$standard_base@DV?$stream_output_adapter@D@__crt_stdio_output@@@__crt_stdio_output@@IAE_NAAU_CRT_DOUBLE@@@Z 10049250 f i libucrtd:output.obj
 0001:000482a0       ??$extract_argument_from_va_list@U_CRT_DOUBLE@@U1@@?$standard_base@DV?$string_output_adapter@D@__crt_stdio_output@@@__crt_stdio_output@@IAE_NAAU_CRT_DOUBLE@@@Z 100492a0 f i libucrtd:output.obj
 0001:000482f0       ??$extract_argument_from_va_list@U_CRT_DOUBLE@@U1@@?$standard_base@_WV?$stream_output_adapter@_W@__crt_stdio_output@@@__crt_stdio_output@@IAE_NAAU_CRT_DOUBLE@@@Z 100492f0 f i libucrtd:output.obj
 0001:00048340       ??$extract_argument_from_va_list@U_CRT_DOUBLE@@U1@@?$standard_base@_WV?$string_output_adapter@_W@__crt_stdio_output@@@__crt_stdio_output@@IAE_NAAU_CRT_DOUBLE@@@Z 10049340 f i libucrtd:output.obj
 0001:00048390       ??$extract_argument_from_va_list@_J_J@?$positional_parameter_base@DV?$stream_output_adapter@D@__crt_stdio_output@@@__crt_stdio_output@@IAE_NAA_J@Z 10049390 f i libucrtd:output.obj
 0001:000484c0       ??$extract_argument_from_va_list@_J_J@?$positional_parameter_base@DV?$string_output_adapter@D@__crt_stdio_output@@@__crt_stdio_output@@IAE_NAA_J@Z 100494c0 f i libucrtd:output.obj
 0001:000485f0       ??$extract_argument_from_va_list@_J_J@?$positional_parameter_base@_WV?$stream_output_adapter@_W@__crt_stdio_output@@@__crt_stdio_output@@IAE_NAA_J@Z 100495f0 f i libucrtd:output.obj
 0001:00048720       ??$extract_argument_from_va_list@_J_J@?$positional_parameter_base@_WV?$string_output_adapter@_W@__crt_stdio_output@@@__crt_stdio_output@@IAE_NAA_J@Z 10049720 f i libucrtd:output.obj
 0001:00048850       ??$extract_argument_from_va_list@_J_J@?$standard_base@DV?$stream_output_adapter@D@__crt_stdio_output@@@__crt_stdio_output@@IAE_NAA_J@Z 10049850 f i libucrtd:output.obj
 0001:00048880       ??$extract_argument_from_va_list@_J_J@?$standard_base@DV?$string_output_adapter@D@__crt_stdio_output@@@__crt_stdio_output@@IAE_NAA_J@Z 10049880 f i libucrtd:output.obj
 0001:000488b0       ??$extract_argument_from_va_list@_J_J@?$standard_base@_WV?$stream_output_adapter@_W@__crt_stdio_output@@@__crt_stdio_output@@IAE_NAA_J@Z 100498b0 f i libucrtd:output.obj
 0001:000488e0       ??$extract_argument_from_va_list@_J_J@?$standard_base@_WV?$string_output_adapter@_W@__crt_stdio_output@@@__crt_stdio_output@@IAE_NAA_J@Z 100498e0 f i libucrtd:output.obj
 0001:00048910       ??$extract_argument_from_va_list@_K_J@?$positional_parameter_base@DV?$stream_output_adapter@D@__crt_stdio_output@@@__crt_stdio_output@@IAE_NAA_J@Z 10049910 f i libucrtd:output.obj
 0001:00048a40       ??$extract_argument_from_va_list@_K_J@?$positional_parameter_base@DV?$string_output_adapter@D@__crt_stdio_output@@@__crt_stdio_output@@IAE_NAA_J@Z 10049a40 f i libucrtd:output.obj
 0001:00048b70       ??$extract_argument_from_va_list@_K_J@?$positional_parameter_base@_WV?$stream_output_adapter@_W@__crt_stdio_output@@@__crt_stdio_output@@IAE_NAA_J@Z 10049b70 f i libucrtd:output.obj
 0001:00048ca0       ??$extract_argument_from_va_list@_K_J@?$positional_parameter_base@_WV?$string_output_adapter@_W@__crt_stdio_output@@@__crt_stdio_output@@IAE_NAA_J@Z 10049ca0 f i libucrtd:output.obj
 0001:00048dd0       ??$extract_argument_from_va_list@_K_J@?$standard_base@DV?$stream_output_adapter@D@__crt_stdio_output@@@__crt_stdio_output@@IAE_NAA_J@Z 10049dd0 f i libucrtd:output.obj
 0001:00048e00       ??$extract_argument_from_va_list@_K_J@?$standard_base@DV?$string_output_adapter@D@__crt_stdio_output@@@__crt_stdio_output@@IAE_NAA_J@Z 10049e00 f i libucrtd:output.obj
 0001:00048e30       ??$extract_argument_from_va_list@_K_J@?$standard_base@_WV?$stream_output_adapter@_W@__crt_stdio_output@@@__crt_stdio_output@@IAE_NAA_J@Z 10049e30 f i libucrtd:output.obj
 0001:00048e60       ??$extract_argument_from_va_list@_K_J@?$standard_base@_WV?$string_output_adapter@_W@__crt_stdio_output@@@__crt_stdio_output@@IAE_NAA_J@Z 10049e60 f i libucrtd:output.obj
 0001:00048e90       ??$extract_argument_from_va_list@_W_W@?$positional_parameter_base@DV?$stream_output_adapter@D@__crt_stdio_output@@@__crt_stdio_output@@IAE_NAA_W@Z 10049e90 f i libucrtd:output.obj
 0001:00048fc0       ??$extract_argument_from_va_list@_W_W@?$positional_parameter_base@DV?$string_output_adapter@D@__crt_stdio_output@@@__crt_stdio_output@@IAE_NAA_W@Z 10049fc0 f i libucrtd:output.obj
 0001:000490f0       ??$extract_argument_from_va_list@_W_W@?$positional_parameter_base@_WV?$stream_output_adapter@_W@__crt_stdio_output@@@__crt_stdio_output@@IAE_NAA_W@Z 1004a0f0 f i libucrtd:output.obj
 0001:00049220       ??$extract_argument_from_va_list@_W_W@?$positional_parameter_base@_WV?$string_output_adapter@_W@__crt_stdio_output@@@__crt_stdio_output@@IAE_NAA_W@Z 1004a220 f i libucrtd:output.obj
 0001:00049350       ??$extract_argument_from_va_list@_W_W@?$standard_base@DV?$stream_output_adapter@D@__crt_stdio_output@@@__crt_stdio_output@@IAE_NAA_W@Z 1004a350 f i libucrtd:output.obj
 0001:00049380       ??$extract_argument_from_va_list@_W_W@?$standard_base@DV?$string_output_adapter@D@__crt_stdio_output@@@__crt_stdio_output@@IAE_NAA_W@Z 1004a380 f i libucrtd:output.obj
 0001:000493b0       ??$extract_argument_from_va_list@_W_W@?$standard_base@_WV?$stream_output_adapter@_W@__crt_stdio_output@@@__crt_stdio_output@@IAE_NAA_W@Z 1004a3b0 f i libucrtd:output.obj
 0001:000493e0       ??$extract_argument_from_va_list@_W_W@?$standard_base@_WV?$string_output_adapter@_W@__crt_stdio_output@@@__crt_stdio_output@@IAE_NAA_W@Z 1004a3e0 f i libucrtd:output.obj
 0001:00049410       ??$get_parameter_type@D@?$positional_parameter_base@DV?$stream_output_adapter@D@__crt_stdio_output@@@__crt_stdio_output@@CA?AW4parameter_type@01@PAD@Z 1004a410 f i libucrtd:output.obj
 0001:00049420       ??$get_parameter_type@D@?$positional_parameter_base@DV?$string_output_adapter@D@__crt_stdio_output@@@__crt_stdio_output@@CA?AW4parameter_type@01@PAD@Z 1004a420 f i libucrtd:output.obj
 0001:00049430       ??$get_parameter_type@D@?$positional_parameter_base@_WV?$stream_output_adapter@_W@__crt_stdio_output@@@__crt_stdio_output@@CA?AW4parameter_type@01@PAD@Z 1004a430 f i libucrtd:output.obj
 0001:00049440       ??$get_parameter_type@D@?$positional_parameter_base@_WV?$string_output_adapter@_W@__crt_stdio_output@@@__crt_stdio_output@@CA?AW4parameter_type@01@PAD@Z 1004a440 f i libucrtd:output.obj
 0001:00049450       ??$get_parameter_type@Uansi_string@?1??type_case_Z@?$output_processor@DV?$stream_output_adapter@D@__crt_stdio_output@@V?$positional_parameter_base@DV?$stream_output_adapter@D@__crt_stdio_output@@@2@@__crt_stdio_output@@AAE_NXZ@@?$positional_parameter_base@DV?$stream_output_adapter@D@__crt_stdio_output@@@__crt_stdio_output@@CA?AW4parameter_type@01@PAUansi_string@?1??type_case_Z@?$output_processor@DV?$stream_output_adapter@D@__crt_stdio_output@@V?$positional_parameter_base@DV?$stream_output_adapter@D@__crt_stdio_output@@@2@@1@AAE_NXZ@@Z 1004a450 f i libucrtd:output.obj
 0001:00049460       ??$get_parameter_type@Uansi_string@?1??type_case_Z@?$output_processor@DV?$string_output_adapter@D@__crt_stdio_output@@V?$positional_parameter_base@DV?$string_output_adapter@D@__crt_stdio_output@@@2@@__crt_stdio_output@@AAE_NXZ@@?$positional_parameter_base@DV?$string_output_adapter@D@__crt_stdio_output@@@__crt_stdio_output@@CA?AW4parameter_type@01@PAUansi_string@?1??type_case_Z@?$output_processor@DV?$string_output_adapter@D@__crt_stdio_output@@V?$positional_parameter_base@DV?$string_output_adapter@D@__crt_stdio_output@@@2@@1@AAE_NXZ@@Z 1004a460 f i libucrtd:output.obj
 0001:00049470       ??$get_parameter_type@Uansi_string@?1??type_case_Z@?$output_processor@_WV?$stream_output_adapter@_W@__crt_stdio_output@@V?$positional_parameter_base@_WV?$stream_output_adapter@_W@__crt_stdio_output@@@2@@__crt_stdio_output@@AAE_NXZ@@?$positional_parameter_base@_WV?$stream_output_adapter@_W@__crt_stdio_output@@@__crt_stdio_output@@CA?AW4parameter_type@01@PAUansi_string@?1??type_case_Z@?$output_processor@_WV?$stream_output_adapter@_W@__crt_stdio_output@@V?$positional_parameter_base@_WV?$stream_output_adapter@_W@__crt_stdio_output@@@2@@1@AAE_NXZ@@Z 1004a470 f i libucrtd:output.obj
 0001:00049480       ??$get_parameter_type@Uansi_string@?1??type_case_Z@?$output_processor@_WV?$string_output_adapter@_W@__crt_stdio_output@@V?$positional_parameter_base@_WV?$string_output_adapter@_W@__crt_stdio_output@@@2@@__crt_stdio_output@@AAE_NXZ@@?$positional_parameter_base@_WV?$string_output_adapter@_W@__crt_stdio_output@@@__crt_stdio_output@@CA?AW4parameter_type@01@PAUansi_string@?1??type_case_Z@?$output_processor@_WV?$string_output_adapter@_W@__crt_stdio_output@@V?$positional_parameter_base@_WV?$string_output_adapter@_W@__crt_stdio_output@@@2@@1@AAE_NXZ@@Z 1004a480 f i libucrtd:output.obj
 0001:00049490       ??$get_parameter_type@X@?$positional_parameter_base@DV?$stream_output_adapter@D@__crt_stdio_output@@@__crt_stdio_output@@CA?AW4parameter_type@01@PAX@Z 1004a490 f i libucrtd:output.obj
 0001:000494a0       ??$get_parameter_type@X@?$positional_parameter_base@DV?$string_output_adapter@D@__crt_stdio_output@@@__crt_stdio_output@@CA?AW4parameter_type@01@PAX@Z 1004a4a0 f i libucrtd:output.obj
 0001:000494b0       ??$get_parameter_type@X@?$positional_parameter_base@_WV?$stream_output_adapter@_W@__crt_stdio_output@@@__crt_stdio_output@@CA?AW4parameter_type@01@PAX@Z 1004a4b0 f i libucrtd:output.obj
 0001:000494c0       ??$get_parameter_type@X@?$positional_parameter_base@_WV?$string_output_adapter@_W@__crt_stdio_output@@@__crt_stdio_output@@CA?AW4parameter_type@01@PAX@Z 1004a4c0 f i libucrtd:output.obj
 0001:000494d0       ??$is_character_specifier@D@?$positional_parameter_base@DV?$stream_output_adapter@D@__crt_stdio_output@@@__crt_stdio_output@@CA_ND@Z 1004a4d0 f i libucrtd:output.obj
 0001:00049500       ??$is_character_specifier@D@?$positional_parameter_base@DV?$string_output_adapter@D@__crt_stdio_output@@@__crt_stdio_output@@CA_ND@Z 1004a500 f i libucrtd:output.obj
 0001:00049530       ??$is_character_specifier@_W@?$positional_parameter_base@_WV?$stream_output_adapter@_W@__crt_stdio_output@@@__crt_stdio_output@@CA_N_W@Z 1004a530 f i libucrtd:output.obj
 0001:00049560       ??$is_character_specifier@_W@?$positional_parameter_base@_WV?$string_output_adapter@_W@__crt_stdio_output@@@__crt_stdio_output@@CA_N_W@Z 1004a560 f i libucrtd:output.obj
 0001:00049590       ??$is_integral_specifier@D@?$positional_parameter_base@DV?$stream_output_adapter@D@__crt_stdio_output@@@__crt_stdio_output@@CA_ND@Z 1004a590 f i libucrtd:output.obj
 0001:000495f0       ??$is_integral_specifier@D@?$positional_parameter_base@DV?$string_output_adapter@D@__crt_stdio_output@@@__crt_stdio_output@@CA_ND@Z 1004a5f0 f i libucrtd:output.obj
 0001:00049650       ??$is_integral_specifier@_W@?$positional_parameter_base@_WV?$stream_output_adapter@_W@__crt_stdio_output@@@__crt_stdio_output@@CA_N_W@Z 1004a650 f i libucrtd:output.obj
 0001:000496b0       ??$is_integral_specifier@_W@?$positional_parameter_base@_WV?$string_output_adapter@_W@__crt_stdio_output@@@__crt_stdio_output@@CA_N_W@Z 1004a6b0 f i libucrtd:output.obj
 0001:00049710       ??$is_pointer_specifier@D@?$positional_parameter_base@DV?$stream_output_adapter@D@__crt_stdio_output@@@__crt_stdio_output@@CA_ND@Z 1004a710 f i libucrtd:output.obj
 0001:00049740       ??$is_pointer_specifier@D@?$positional_parameter_base@DV?$string_output_adapter@D@__crt_stdio_output@@@__crt_stdio_output@@CA_ND@Z 1004a740 f i libucrtd:output.obj
 0001:00049770       ??$is_pointer_specifier@_W@?$positional_parameter_base@_WV?$stream_output_adapter@_W@__crt_stdio_output@@@__crt_stdio_output@@CA_N_W@Z 1004a770 f i libucrtd:output.obj
 0001:000497a0       ??$is_pointer_specifier@_W@?$positional_parameter_base@_WV?$string_output_adapter@_W@__crt_stdio_output@@@__crt_stdio_output@@CA_N_W@Z 1004a7a0 f i libucrtd:output.obj
 0001:000497d0       ??$is_string_specifier@D@?$positional_parameter_base@DV?$stream_output_adapter@D@__crt_stdio_output@@@__crt_stdio_output@@CA_ND@Z 1004a7d0 f i libucrtd:output.obj
 0001:00049800       ??$is_string_specifier@D@?$positional_parameter_base@DV?$string_output_adapter@D@__crt_stdio_output@@@__crt_stdio_output@@CA_ND@Z 1004a800 f i libucrtd:output.obj
 0001:00049830       ??$is_string_specifier@_W@?$positional_parameter_base@_WV?$stream_output_adapter@_W@__crt_stdio_output@@@__crt_stdio_output@@CA_N_W@Z 1004a830 f i libucrtd:output.obj
 0001:00049860       ??$is_string_specifier@_W@?$positional_parameter_base@_WV?$string_output_adapter@_W@__crt_stdio_output@@@__crt_stdio_output@@CA_N_W@Z 1004a860 f i libucrtd:output.obj
 0001:00049890       ??$is_wide_character_specifier@D@__crt_stdio_output@@YA_N_KDW4length_modifier@0@@Z 1004a890 f i libucrtd:output.obj
 0001:00049910       ??$is_wide_character_specifier@_W@__crt_stdio_output@@YA_N_K_WW4length_modifier@0@@Z 1004a910 f i libucrtd:output.obj
 0001:000499d0       ??$peek_va_arg@C@__crt_stdio_output@@YACPAD@Z 1004a9d0 f i libucrtd:output.obj
 0001:000499f0       ??$peek_va_arg@E@__crt_stdio_output@@YAEPAD@Z 1004a9f0 f i libucrtd:output.obj
 0001:00049a10       ??$peek_va_arg@F@__crt_stdio_output@@YAFPAD@Z 1004aa10 f i libucrtd:output.obj
 0001:00049a30       ??$peek_va_arg@G@__crt_stdio_output@@YAGPAD@Z 1004aa30 f i libucrtd:output.obj
 0001:00049a50       ??$peek_va_arg@H@__crt_stdio_output@@YAHPAD@Z 1004aa50 f i libucrtd:output.obj
 0001:00049a70       ??$peek_va_arg@I@__crt_stdio_output@@YAIPAD@Z 1004aa70 f i libucrtd:output.obj
 0001:00049a90       ??$peek_va_arg@PAD@__crt_stdio_output@@YAPADPAD@Z 1004aa90 f i libucrtd:output.obj
 0001:00049ab0       ??$peek_va_arg@PAUansi_string@?1??type_case_Z@?$output_processor@DV?$stream_output_adapter@D@__crt_stdio_output@@V?$positional_parameter_base@DV?$stream_output_adapter@D@__crt_stdio_output@@@2@@__crt_stdio_output@@AAE_NXZ@@__crt_stdio_output@@YAPAUansi_string@?1??type_case_Z@?$output_processor@DV?$stream_output_adapter@D@__crt_stdio_output@@V?$positional_parameter_base@DV?$stream_output_adapter@D@__crt_stdio_output@@@2@@0@AAE_NXZ@PAD@Z 1004aab0 f i libucrtd:output.obj
 0001:00049ad0       ??$peek_va_arg@PAUansi_string@?1??type_case_Z@?$output_processor@DV?$string_output_adapter@D@__crt_stdio_output@@V?$positional_parameter_base@DV?$string_output_adapter@D@__crt_stdio_output@@@2@@__crt_stdio_output@@AAE_NXZ@@__crt_stdio_output@@YAPAUansi_string@?1??type_case_Z@?$output_processor@DV?$string_output_adapter@D@__crt_stdio_output@@V?$positional_parameter_base@DV?$string_output_adapter@D@__crt_stdio_output@@@2@@0@AAE_NXZ@PAD@Z 1004aad0 f i libucrtd:output.obj
 0001:00049af0       ??$peek_va_arg@PAUansi_string@?1??type_case_Z@?$output_processor@_WV?$stream_output_adapter@_W@__crt_stdio_output@@V?$positional_parameter_base@_WV?$stream_output_adapter@_W@__crt_stdio_output@@@2@@__crt_stdio_output@@AAE_NXZ@@__crt_stdio_output@@YAPAUansi_string@?1??type_case_Z@?$output_processor@_WV?$stream_output_adapter@_W@__crt_stdio_output@@V?$positional_parameter_base@_WV?$stream_output_adapter@_W@__crt_stdio_output@@@2@@0@AAE_NXZ@PAD@Z 1004aaf0 f i libucrtd:output.obj
 0001:00049b10       ??$peek_va_arg@PAUansi_string@?1??type_case_Z@?$output_processor@_WV?$string_output_adapter@_W@__crt_stdio_output@@V?$positional_parameter_base@_WV?$string_output_adapter@_W@__crt_stdio_output@@@2@@__crt_stdio_output@@AAE_NXZ@@__crt_stdio_output@@YAPAUansi_string@?1??type_case_Z@?$output_processor@_WV?$string_output_adapter@_W@__crt_stdio_output@@V?$positional_parameter_base@_WV?$string_output_adapter@_W@__crt_stdio_output@@@2@@0@AAE_NXZ@PAD@Z 1004ab10 f i libucrtd:output.obj
 0001:00049b30       ??$peek_va_arg@PAX@__crt_stdio_output@@YAPAXPAD@Z 1004ab30 f i libucrtd:output.obj
 0001:00049b50       ??$peek_va_arg@U_CRT_DOUBLE@@@__crt_stdio_output@@YA?AU_CRT_DOUBLE@@PAD@Z 1004ab50 f i libucrtd:output.obj
 0001:00049b70       ??$peek_va_arg@_J@__crt_stdio_output@@YA_JPAD@Z 1004ab70 f i libucrtd:output.obj
 0001:00049b90       ??$peek_va_arg@_K@__crt_stdio_output@@YA_KPAD@Z 1004ab90 f i libucrtd:output.obj
 0001:00049bb0       ??$peek_va_arg@_W@__crt_stdio_output@@YA_WPAD@Z 1004abb0 f i libucrtd:output.obj
 0001:00049bd0       ??$puttc_nolock@ABDPAU_iobuf@@@?$__crt_char_traits@D@@SAHABD$$QAPAU_iobuf@@@Z 1004abd0 f i libucrtd:output.obj
 0001:00049bf0       ??$puttc_nolock@AB_WPAU_iobuf@@@?$__crt_char_traits@_W@@SAGAB_W$$QAPAU_iobuf@@@Z 1004abf0 f i libucrtd:output.obj
 0001:00049c10       ??$read_va_arg@C@__crt_stdio_output@@YACAAPAD@Z 1004ac10 f i libucrtd:output.obj
 0001:00049c30       ??$read_va_arg@E@__crt_stdio_output@@YAEAAPAD@Z 1004ac30 f i libucrtd:output.obj
 0001:00049c50       ??$read_va_arg@F@__crt_stdio_output@@YAFAAPAD@Z 1004ac50 f i libucrtd:output.obj
 0001:00049c70       ??$read_va_arg@G@__crt_stdio_output@@YAGAAPAD@Z 1004ac70 f i libucrtd:output.obj
 0001:00049c90       ??$read_va_arg@H@__crt_stdio_output@@YAHAAPAD@Z 1004ac90 f i libucrtd:output.obj
 0001:00049cb0       ??$read_va_arg@I@__crt_stdio_output@@YAIAAPAD@Z 1004acb0 f i libucrtd:output.obj
 0001:00049cd0       ??$read_va_arg@PAD@__crt_stdio_output@@YAPADAAPAD@Z 1004acd0 f i libucrtd:output.obj
 0001:00049cf0       ??$read_va_arg@PAUansi_string@?1??type_case_Z@?$output_processor@DV?$stream_output_adapter@D@__crt_stdio_output@@V?$format_validation_base@DV?$stream_output_adapter@D@__crt_stdio_output@@@2@@__crt_stdio_output@@AAE_NXZ@@__crt_stdio_output@@YAPAUansi_string@?1??type_case_Z@?$output_processor@DV?$stream_output_adapter@D@__crt_stdio_output@@V?$format_validation_base@DV?$stream_output_adapter@D@__crt_stdio_output@@@2@@0@AAE_NXZ@AAPAD@Z 1004acf0 f i libucrtd:output.obj
 0001:00049d10       ??$read_va_arg@PAUansi_string@?1??type_case_Z@?$output_processor@DV?$stream_output_adapter@D@__crt_stdio_output@@V?$positional_parameter_base@DV?$stream_output_adapter@D@__crt_stdio_output@@@2@@__crt_stdio_output@@AAE_NXZ@@__crt_stdio_output@@YAPAUansi_string@?1??type_case_Z@?$output_processor@DV?$stream_output_adapter@D@__crt_stdio_output@@V?$positional_parameter_base@DV?$stream_output_adapter@D@__crt_stdio_output@@@2@@0@AAE_NXZ@AAPAD@Z 1004ad10 f i libucrtd:output.obj
 0001:00049d30       ??$read_va_arg@PAUansi_string@?1??type_case_Z@?$output_processor@DV?$stream_output_adapter@D@__crt_stdio_output@@V?$standard_base@DV?$stream_output_adapter@D@__crt_stdio_output@@@2@@__crt_stdio_output@@AAE_NXZ@@__crt_stdio_output@@YAPAUansi_string@?1??type_case_Z@?$output_processor@DV?$stream_output_adapter@D@__crt_stdio_output@@V?$standard_base@DV?$stream_output_adapter@D@__crt_stdio_output@@@2@@0@AAE_NXZ@AAPAD@Z 1004ad30 f i libucrtd:output.obj
 0001:00049d50       ??$read_va_arg@PAUansi_string@?1??type_case_Z@?$output_processor@DV?$string_output_adapter@D@__crt_stdio_output@@V?$format_validation_base@DV?$string_output_adapter@D@__crt_stdio_output@@@2@@__crt_stdio_output@@AAE_NXZ@@__crt_stdio_output@@YAPAUansi_string@?1??type_case_Z@?$output_processor@DV?$string_output_adapter@D@__crt_stdio_output@@V?$format_validation_base@DV?$string_output_adapter@D@__crt_stdio_output@@@2@@0@AAE_NXZ@AAPAD@Z 1004ad50 f i libucrtd:output.obj
 0001:00049d70       ??$read_va_arg@PAUansi_string@?1??type_case_Z@?$output_processor@DV?$string_output_adapter@D@__crt_stdio_output@@V?$positional_parameter_base@DV?$string_output_adapter@D@__crt_stdio_output@@@2@@__crt_stdio_output@@AAE_NXZ@@__crt_stdio_output@@YAPAUansi_string@?1??type_case_Z@?$output_processor@DV?$string_output_adapter@D@__crt_stdio_output@@V?$positional_parameter_base@DV?$string_output_adapter@D@__crt_stdio_output@@@2@@0@AAE_NXZ@AAPAD@Z 1004ad70 f i libucrtd:output.obj
 0001:00049d90       ??$read_va_arg@PAUansi_string@?1??type_case_Z@?$output_processor@DV?$string_output_adapter@D@__crt_stdio_output@@V?$standard_base@DV?$string_output_adapter@D@__crt_stdio_output@@@2@@__crt_stdio_output@@AAE_NXZ@@__crt_stdio_output@@YAPAUansi_string@?1??type_case_Z@?$output_processor@DV?$string_output_adapter@D@__crt_stdio_output@@V?$standard_base@DV?$string_output_adapter@D@__crt_stdio_output@@@2@@0@AAE_NXZ@AAPAD@Z 1004ad90 f i libucrtd:output.obj
 0001:00049db0       ??$read_va_arg@PAUansi_string@?1??type_case_Z@?$output_processor@_WV?$stream_output_adapter@_W@__crt_stdio_output@@V?$format_validation_base@_WV?$stream_output_adapter@_W@__crt_stdio_output@@@2@@__crt_stdio_output@@AAE_NXZ@@__crt_stdio_output@@YAPAUansi_string@?1??type_case_Z@?$output_processor@_WV?$stream_output_adapter@_W@__crt_stdio_output@@V?$format_validation_base@_WV?$stream_output_adapter@_W@__crt_stdio_output@@@2@@0@AAE_NXZ@AAPAD@Z 1004adb0 f i libucrtd:output.obj
 0001:00049dd0       ??$read_va_arg@PAUansi_string@?1??type_case_Z@?$output_processor@_WV?$stream_output_adapter@_W@__crt_stdio_output@@V?$positional_parameter_base@_WV?$stream_output_adapter@_W@__crt_stdio_output@@@2@@__crt_stdio_output@@AAE_NXZ@@__crt_stdio_output@@YAPAUansi_string@?1??type_case_Z@?$output_processor@_WV?$stream_output_adapter@_W@__crt_stdio_output@@V?$positional_parameter_base@_WV?$stream_output_adapter@_W@__crt_stdio_output@@@2@@0@AAE_NXZ@AAPAD@Z 1004add0 f i libucrtd:output.obj
 0001:00049df0       ??$read_va_arg@PAUansi_string@?1??type_case_Z@?$output_processor@_WV?$stream_output_adapter@_W@__crt_stdio_output@@V?$standard_base@_WV?$stream_output_adapter@_W@__crt_stdio_output@@@2@@__crt_stdio_output@@AAE_NXZ@@__crt_stdio_output@@YAPAUansi_string@?1??type_case_Z@?$output_processor@_WV?$stream_output_adapter@_W@__crt_stdio_output@@V?$standard_base@_WV?$stream_output_adapter@_W@__crt_stdio_output@@@2@@0@AAE_NXZ@AAPAD@Z 1004adf0 f i libucrtd:output.obj
 0001:00049e10       ??$read_va_arg@PAUansi_string@?1??type_case_Z@?$output_processor@_WV?$string_output_adapter@_W@__crt_stdio_output@@V?$format_validation_base@_WV?$string_output_adapter@_W@__crt_stdio_output@@@2@@__crt_stdio_output@@AAE_NXZ@@__crt_stdio_output@@YAPAUansi_string@?1??type_case_Z@?$output_processor@_WV?$string_output_adapter@_W@__crt_stdio_output@@V?$format_validation_base@_WV?$string_output_adapter@_W@__crt_stdio_output@@@2@@0@AAE_NXZ@AAPAD@Z 1004ae10 f i libucrtd:output.obj
 0001:00049e30       ??$read_va_arg@PAUansi_string@?1??type_case_Z@?$output_processor@_WV?$string_output_adapter@_W@__crt_stdio_output@@V?$positional_parameter_base@_WV?$string_output_adapter@_W@__crt_stdio_output@@@2@@__crt_stdio_output@@AAE_NXZ@@__crt_stdio_output@@YAPAUansi_string@?1??type_case_Z@?$output_processor@_WV?$string_output_adapter@_W@__crt_stdio_output@@V?$positional_parameter_base@_WV?$string_output_adapter@_W@__crt_stdio_output@@@2@@0@AAE_NXZ@AAPAD@Z 1004ae30 f i libucrtd:output.obj
 0001:00049e50       ??$read_va_arg@PAUansi_string@?1??type_case_Z@?$output_processor@_WV?$string_output_adapter@_W@__crt_stdio_output@@V?$standard_base@_WV?$string_output_adapter@_W@__crt_stdio_output@@@2@@__crt_stdio_output@@AAE_NXZ@@__crt_stdio_output@@YAPAUansi_string@?1??type_case_Z@?$output_processor@_WV?$string_output_adapter@_W@__crt_stdio_output@@V?$standard_base@_WV?$string_output_adapter@_W@__crt_stdio_output@@@2@@0@AAE_NXZ@AAPAD@Z 1004ae50 f i libucrtd:output.obj
 0001:00049e70       ??$read_va_arg@PAX@__crt_stdio_output@@YAPAXAAPAD@Z 1004ae70 f i libucrtd:output.obj
 0001:00049e90       ??$read_va_arg@U_CRT_DOUBLE@@@__crt_stdio_output@@YA?AU_CRT_DOUBLE@@AAPAD@Z 1004ae90 f i libucrtd:output.obj
 0001:00049eb0       ??$read_va_arg@_J@__crt_stdio_output@@YA_JAAPAD@Z 1004aeb0 f i libucrtd:output.obj
 0001:00049ed0       ??$read_va_arg@_K@__crt_stdio_output@@YA_KAAPAD@Z 1004aed0 f i libucrtd:output.obj
 0001:00049ef0       ??$read_va_arg@_W@__crt_stdio_output@@YA_WAAPAD@Z 1004aef0 f i libucrtd:output.obj
 0001:00049f10       ??$scratch_count@D@formatting_buffer@__crt_stdio_output@@QBEIXZ 1004af10 f i libucrtd:output.obj
 0001:00049f30       ??$scratch_data@D@formatting_buffer@__crt_stdio_output@@QAEPADXZ 1004af30 f i libucrtd:output.obj
 0001:00049f80       ??$tcstol@AAPBDPAPADH@?$__crt_char_traits@D@@SAJAAPBD$$QAPAPAD$$QAH@Z 1004af80 f i libucrtd:output.obj
 0001:00049fb0       ??$tcstol@AAPB_WPAPA_WH@?$__crt_char_traits@_W@@SAJAAPB_W$$QAPAPA_W$$QAH@Z 1004afb0 f i libucrtd:output.obj
 0001:00049fe0       ??$tcstol@PBDPAPADH@?$__crt_char_traits@D@@SAJ$$QAPBD$$QAPAPAD$$QAH@Z 1004afe0 f i libucrtd:output.obj
 0001:0004a010       ??$tcstol@PB_WPAPA_WH@?$__crt_char_traits@_W@@SAJ$$QAPB_W$$QAPAPA_W$$QAH@Z 1004b010 f i libucrtd:output.obj
 0001:0004a040       ??$type_case_integer_parse_into_buffer@I@?$output_processor@DV?$stream_output_adapter@D@__crt_stdio_output@@V?$format_validation_base@DV?$stream_output_adapter@D@__crt_stdio_output@@@2@@__crt_stdio_output@@AAEXII_N@Z 1004b040 f i libucrtd:output.obj
 0001:0004a110       ??$type_case_integer_parse_into_buffer@I@?$output_processor@DV?$stream_output_adapter@D@__crt_stdio_output@@V?$positional_parameter_base@DV?$stream_output_adapter@D@__crt_stdio_output@@@2@@__crt_stdio_output@@AAEXII_N@Z 1004b110 f i libucrtd:output.obj
 0001:0004a1e0       ??$type_case_integer_parse_into_buffer@I@?$output_processor@DV?$stream_output_adapter@D@__crt_stdio_output@@V?$standard_base@DV?$stream_output_adapter@D@__crt_stdio_output@@@2@@__crt_stdio_output@@AAEXII_N@Z 1004b1e0 f i libucrtd:output.obj
 0001:0004a2b0       ??$type_case_integer_parse_into_buffer@I@?$output_processor@DV?$string_output_adapter@D@__crt_stdio_output@@V?$format_validation_base@DV?$string_output_adapter@D@__crt_stdio_output@@@2@@__crt_stdio_output@@AAEXII_N@Z 1004b2b0 f i libucrtd:output.obj
 0001:0004a380       ??$type_case_integer_parse_into_buffer@I@?$output_processor@DV?$string_output_adapter@D@__crt_stdio_output@@V?$positional_parameter_base@DV?$string_output_adapter@D@__crt_stdio_output@@@2@@__crt_stdio_output@@AAEXII_N@Z 1004b380 f i libucrtd:output.obj
 0001:0004a450       ??$type_case_integer_parse_into_buffer@I@?$output_processor@DV?$string_output_adapter@D@__crt_stdio_output@@V?$standard_base@DV?$string_output_adapter@D@__crt_stdio_output@@@2@@__crt_stdio_output@@AAEXII_N@Z 1004b450 f i libucrtd:output.obj
 0001:0004a520       ??$type_case_integer_parse_into_buffer@I@?$output_processor@_WV?$stream_output_adapter@_W@__crt_stdio_output@@V?$format_validation_base@_WV?$stream_output_adapter@_W@__crt_stdio_output@@@2@@__crt_stdio_output@@AAEXII_N@Z 1004b520 f i libucrtd:output.obj
 0001:0004a600       ??$type_case_integer_parse_into_buffer@I@?$output_processor@_WV?$stream_output_adapter@_W@__crt_stdio_output@@V?$positional_parameter_base@_WV?$stream_output_adapter@_W@__crt_stdio_output@@@2@@__crt_stdio_output@@AAEXII_N@Z 1004b600 f i libucrtd:output.obj
 0001:0004a6e0       ??$type_case_integer_parse_into_buffer@I@?$output_processor@_WV?$stream_output_adapter@_W@__crt_stdio_output@@V?$standard_base@_WV?$stream_output_adapter@_W@__crt_stdio_output@@@2@@__crt_stdio_output@@AAEXII_N@Z 1004b6e0 f i libucrtd:output.obj
 0001:0004a7c0       ??$type_case_integer_parse_into_buffer@I@?$output_processor@_WV?$string_output_adapter@_W@__crt_stdio_output@@V?$format_validation_base@_WV?$string_output_adapter@_W@__crt_stdio_output@@@2@@__crt_stdio_output@@AAEXII_N@Z 1004b7c0 f i libucrtd:output.obj
 0001:0004a8a0       ??$type_case_integer_parse_into_buffer@I@?$output_processor@_WV?$string_output_adapter@_W@__crt_stdio_output@@V?$positional_parameter_base@_WV?$string_output_adapter@_W@__crt_stdio_output@@@2@@__crt_stdio_output@@AAEXII_N@Z 1004b8a0 f i libucrtd:output.obj
 0001:0004a980       ??$type_case_integer_parse_into_buffer@I@?$output_processor@_WV?$string_output_adapter@_W@__crt_stdio_output@@V?$standard_base@_WV?$string_output_adapter@_W@__crt_stdio_output@@@2@@__crt_stdio_output@@AAEXII_N@Z 1004b980 f i libucrtd:output.obj
 0001:0004aa60       ??$type_case_integer_parse_into_buffer@_K@?$output_processor@DV?$stream_output_adapter@D@__crt_stdio_output@@V?$format_validation_base@DV?$stream_output_adapter@D@__crt_stdio_output@@@2@@__crt_stdio_output@@AAEX_KI_N@Z 1004ba60 f i libucrtd:output.obj
 0001:0004ab50       ??$type_case_integer_parse_into_buffer@_K@?$output_processor@DV?$stream_output_adapter@D@__crt_stdio_output@@V?$positional_parameter_base@DV?$stream_output_adapter@D@__crt_stdio_output@@@2@@__crt_stdio_output@@AAEX_KI_N@Z 1004bb50 f i libucrtd:output.obj
 0001:0004ac40       ??$type_case_integer_parse_into_buffer@_K@?$output_processor@DV?$stream_output_adapter@D@__crt_stdio_output@@V?$standard_base@DV?$stream_output_adapter@D@__crt_stdio_output@@@2@@__crt_stdio_output@@AAEX_KI_N@Z 1004bc40 f i libucrtd:output.obj
 0001:0004ad30       ??$type_case_integer_parse_into_buffer@_K@?$output_processor@DV?$string_output_adapter@D@__crt_stdio_output@@V?$format_validation_base@DV?$string_output_adapter@D@__crt_stdio_output@@@2@@__crt_stdio_output@@AAEX_KI_N@Z 1004bd30 f i libucrtd:output.obj
 0001:0004ae20       ??$type_case_integer_parse_into_buffer@_K@?$output_processor@DV?$string_output_adapter@D@__crt_stdio_output@@V?$positional_parameter_base@DV?$string_output_adapter@D@__crt_stdio_output@@@2@@__crt_stdio_output@@AAEX_KI_N@Z 1004be20 f i libucrtd:output.obj
 0001:0004af10       ??$type_case_integer_parse_into_buffer@_K@?$output_processor@DV?$string_output_adapter@D@__crt_stdio_output@@V?$standard_base@DV?$string_output_adapter@D@__crt_stdio_output@@@2@@__crt_stdio_output@@AAEX_KI_N@Z 1004bf10 f i libucrtd:output.obj
 0001:0004b000       ??$type_case_integer_parse_into_buffer@_K@?$output_processor@_WV?$stream_output_adapter@_W@__crt_stdio_output@@V?$format_validation_base@_WV?$stream_output_adapter@_W@__crt_stdio_output@@@2@@__crt_stdio_output@@AAEX_KI_N@Z 1004c000 f i libucrtd:output.obj
 0001:0004b100       ??$type_case_integer_parse_into_buffer@_K@?$output_processor@_WV?$stream_output_adapter@_W@__crt_stdio_output@@V?$positional_parameter_base@_WV?$stream_output_adapter@_W@__crt_stdio_output@@@2@@__crt_stdio_output@@AAEX_KI_N@Z 1004c100 f i libucrtd:output.obj
 0001:0004b200       ??$type_case_integer_parse_into_buffer@_K@?$output_processor@_WV?$stream_output_adapter@_W@__crt_stdio_output@@V?$standard_base@_WV?$stream_output_adapter@_W@__crt_stdio_output@@@2@@__crt_stdio_output@@AAEX_KI_N@Z 1004c200 f i libucrtd:output.obj
 0001:0004b300       ??$type_case_integer_parse_into_buffer@_K@?$output_processor@_WV?$string_output_adapter@_W@__crt_stdio_output@@V?$format_validation_base@_WV?$string_output_adapter@_W@__crt_stdio_output@@@2@@__crt_stdio_output@@AAEX_KI_N@Z 1004c300 f i libucrtd:output.obj
 0001:0004b400       ??$type_case_integer_parse_into_buffer@_K@?$output_processor@_WV?$string_output_adapter@_W@__crt_stdio_output@@V?$positional_parameter_base@_WV?$string_output_adapter@_W@__crt_stdio_output@@@2@@__crt_stdio_output@@AAEX_KI_N@Z 1004c400 f i libucrtd:output.obj
 0001:0004b500       ??$type_case_integer_parse_into_buffer@_K@?$output_processor@_WV?$string_output_adapter@_W@__crt_stdio_output@@V?$standard_base@_WV?$string_output_adapter@_W@__crt_stdio_output@@@2@@__crt_stdio_output@@AAEX_KI_N@Z 1004c500 f i libucrtd:output.obj
 0001:0004b600       ??$write_multiple_characters@V?$stream_output_adapter@D@__crt_stdio_output@@D@__crt_stdio_output@@YAXABV?$stream_output_adapter@D@0@DHQAH@Z 1004c600 f i libucrtd:output.obj
 0001:0004b650       ??$write_multiple_characters@V?$stream_output_adapter@_W@__crt_stdio_output@@D@__crt_stdio_output@@YAXABV?$stream_output_adapter@_W@0@DHQAH@Z 1004c650 f i libucrtd:output.obj
 0001:0004b6a0       ??$write_multiple_characters@V?$string_output_adapter@D@__crt_stdio_output@@D@__crt_stdio_output@@YAXABV?$string_output_adapter@D@0@DHQAH@Z 1004c6a0 f i libucrtd:output.obj
 0001:0004b6f0       ??$write_multiple_characters@V?$string_output_adapter@_W@__crt_stdio_output@@D@__crt_stdio_output@@YAXABV?$string_output_adapter@_W@0@DHQAH@Z 1004c6f0 f i libucrtd:output.obj
 0001:0004ba40       ??0?$common_data@D@__crt_stdio_output@@IAE@XZ 1004ca40 f i libucrtd:output.obj
 0001:0004baf0       ??0?$common_data@_W@__crt_stdio_output@@IAE@XZ 1004caf0 f i libucrtd:output.obj
 0001:0004bba0       ??0?$output_adapter_data@DV?$stream_output_adapter@D@__crt_stdio_output@@@__crt_stdio_output@@IAE@ABV?$stream_output_adapter@D@1@_KQBDQAU__crt_locale_pointers@@QAD@Z 1004cba0 f i libucrtd:output.obj
 0001:0004bc00       ??0?$output_adapter_data@DV?$string_output_adapter@D@__crt_stdio_output@@@__crt_stdio_output@@IAE@ABV?$string_output_adapter@D@1@_KQBDQAU__crt_locale_pointers@@QAD@Z 1004cc00 f i libucrtd:output.obj
 0001:0004bc60       ??0?$output_adapter_data@_WV?$stream_output_adapter@_W@__crt_stdio_output@@@__crt_stdio_output@@IAE@ABV?$stream_output_adapter@_W@1@_KQB_WQAU__crt_locale_pointers@@QAD@Z 1004cc60 f i libucrtd:output.obj
 0001:0004bcc0       ??0?$output_adapter_data@_WV?$string_output_adapter@_W@__crt_stdio_output@@@__crt_stdio_output@@IAE@ABV?$string_output_adapter@_W@1@_KQB_WQAU__crt_locale_pointers@@QAD@Z 1004ccc0 f i libucrtd:output.obj
 0001:0004bd20       ??0?$output_processor@DV?$stream_output_adapter@D@__crt_stdio_output@@V?$format_validation_base@DV?$stream_output_adapter@D@__crt_stdio_output@@@2@@__crt_stdio_output@@QAE@ABV?$stream_output_adapter@D@1@_KQBDQAU__crt_locale_pointers@@QAD@Z 1004cd20 f i libucrtd:output.obj
 0001:0004bd50       ??0?$output_processor@DV?$stream_output_adapter@D@__crt_stdio_output@@V?$positional_parameter_base@DV?$stream_output_adapter@D@__crt_stdio_output@@@2@@__crt_stdio_output@@QAE@ABV?$stream_output_adapter@D@1@_KQBDQAU__crt_locale_pointers@@QAD@Z 1004cd50 f i libucrtd:output.obj
 0001:0004bd80       ??0?$output_processor@DV?$stream_output_adapter@D@__crt_stdio_output@@V?$standard_base@DV?$stream_output_adapter@D@__crt_stdio_output@@@2@@__crt_stdio_output@@QAE@ABV?$stream_output_adapter@D@1@_KQBDQAU__crt_locale_pointers@@QAD@Z 1004cd80 f i libucrtd:output.obj
 0001:0004bdb0       ??0?$output_processor@DV?$string_output_adapter@D@__crt_stdio_output@@V?$format_validation_base@DV?$string_output_adapter@D@__crt_stdio_output@@@2@@__crt_stdio_output@@QAE@ABV?$string_output_adapter@D@1@_KQBDQAU__crt_locale_pointers@@QAD@Z 1004cdb0 f i libucrtd:output.obj
 0001:0004bde0       ??0?$output_processor@DV?$string_output_adapter@D@__crt_stdio_output@@V?$positional_parameter_base@DV?$string_output_adapter@D@__crt_stdio_output@@@2@@__crt_stdio_output@@QAE@ABV?$string_output_adapter@D@1@_KQBDQAU__crt_locale_pointers@@QAD@Z 1004cde0 f i libucrtd:output.obj
 0001:0004be10       ??0?$output_processor@DV?$string_output_adapter@D@__crt_stdio_output@@V?$standard_base@DV?$string_output_adapter@D@__crt_stdio_output@@@2@@__crt_stdio_output@@QAE@ABV?$string_output_adapter@D@1@_KQBDQAU__crt_locale_pointers@@QAD@Z 1004ce10 f i libucrtd:output.obj
 0001:0004be40       ??0?$output_processor@_WV?$stream_output_adapter@_W@__crt_stdio_output@@V?$format_validation_base@_WV?$stream_output_adapter@_W@__crt_stdio_output@@@2@@__crt_stdio_output@@QAE@ABV?$stream_output_adapter@_W@1@_KQB_WQAU__crt_locale_pointers@@QAD@Z 1004ce40 f i libucrtd:output.obj
 0001:0004be70       ??0?$output_processor@_WV?$stream_output_adapter@_W@__crt_stdio_output@@V?$positional_parameter_base@_WV?$stream_output_adapter@_W@__crt_stdio_output@@@2@@__crt_stdio_output@@QAE@ABV?$stream_output_adapter@_W@1@_KQB_WQAU__crt_locale_pointers@@QAD@Z 1004ce70 f i libucrtd:output.obj
 0001:0004bea0       ??0?$output_processor@_WV?$stream_output_adapter@_W@__crt_stdio_output@@V?$standard_base@_WV?$stream_output_adapter@_W@__crt_stdio_output@@@2@@__crt_stdio_output@@QAE@ABV?$stream_output_adapter@_W@1@_KQB_WQAU__crt_locale_pointers@@QAD@Z 1004cea0 f i libucrtd:output.obj
 0001:0004bed0       ??0?$output_processor@_WV?$string_output_adapter@_W@__crt_stdio_output@@V?$format_validation_base@_WV?$string_output_adapter@_W@__crt_stdio_output@@@2@@__crt_stdio_output@@QAE@ABV?$string_output_adapter@_W@1@_KQB_WQAU__crt_locale_pointers@@QAD@Z 1004ced0 f i libucrtd:output.obj
 0001:0004bf00       ??0?$output_processor@_WV?$string_output_adapter@_W@__crt_stdio_output@@V?$positional_parameter_base@_WV?$string_output_adapter@_W@__crt_stdio_output@@@2@@__crt_stdio_output@@QAE@ABV?$string_output_adapter@_W@1@_KQB_WQAU__crt_locale_pointers@@QAD@Z 1004cf00 f i libucrtd:output.obj
 0001:0004bf30       ??0?$output_processor@_WV?$string_output_adapter@_W@__crt_stdio_output@@V?$standard_base@_WV?$string_output_adapter@_W@__crt_stdio_output@@@2@@__crt_stdio_output@@QAE@ABV?$string_output_adapter@_W@1@_KQB_WQAU__crt_locale_pointers@@QAD@Z 1004cf30 f i libucrtd:output.obj
 0001:0004bf60       ??0?$stream_output_adapter@D@__crt_stdio_output@@QAE@QAU_iobuf@@@Z 1004cf60 f i libucrtd:output.obj
 0001:0004bf80       ??0?$stream_output_adapter@_W@__crt_stdio_output@@QAE@QAU_iobuf@@@Z 1004cf80 f i libucrtd:output.obj
 0001:0004bfa0       ??0?$string_output_adapter@D@__crt_stdio_output@@QAE@QAU?$string_output_adapter_context@D@1@@Z 1004cfa0 f i libucrtd:output.obj
 0001:0004bfc0       ??0?$string_output_adapter@_W@__crt_stdio_output@@QAE@QAU?$string_output_adapter_context@_W@1@@Z 1004cfc0 f i libucrtd:output.obj
 0001:0004bfe0       ??0_LocaleUpdate@@QAE@QAU__crt_locale_pointers@@@Z 1004cfe0 f i libucrtd:output.obj
 0001:0004c0b0       ??0__acrt_stdio_temporary_buffering_guard@@QAE@QAU_iobuf@@@Z 1004d0b0 f i libucrtd:output.obj
 0001:0004c0e0       ??0__crt_deferred_errno_cache@@QAE@XZ 1004d0e0 f i libucrtd:output.obj
 0001:0004c100       ??0__crt_errno_guard@@QAE@QAH@Z 1004d100 f i libucrtd:output.obj
 0001:0004c130       ??0__crt_stdio_stream@@QAE@QAU_iobuf@@@Z 1004d130 f i libucrtd:output.obj
 0001:0004c150       ??0formatting_buffer@__crt_stdio_output@@QAE@XZ 1004d150 f i libucrtd:output.obj
 0001:0004c180       ??1?$common_data@D@__crt_stdio_output@@QAE@XZ 1004d180 f i libucrtd:output.obj
 0001:0004c1a0       ??1?$common_data@_W@__crt_stdio_output@@QAE@XZ 1004d1a0 f i libucrtd:output.obj
 0001:0004c1c0       ??1?$format_validation_base@DV?$stream_output_adapter@D@__crt_stdio_output@@@__crt_stdio_output@@QAE@XZ 1004d1c0 f i libucrtd:output.obj
 0001:0004c1e0       ??1?$format_validation_base@DV?$string_output_adapter@D@__crt_stdio_output@@@__crt_stdio_output@@QAE@XZ 1004d1e0 f i libucrtd:output.obj
 0001:0004c200       ??1?$format_validation_base@_WV?$stream_output_adapter@_W@__crt_stdio_output@@@__crt_stdio_output@@QAE@XZ 1004d200 f i libucrtd:output.obj
 0001:0004c220       ??1?$format_validation_base@_WV?$string_output_adapter@_W@__crt_stdio_output@@@__crt_stdio_output@@QAE@XZ 1004d220 f i libucrtd:output.obj
 0001:0004c240       ??1?$output_adapter_data@DV?$stream_output_adapter@D@__crt_stdio_output@@@__crt_stdio_output@@QAE@XZ 1004d240 f i libucrtd:output.obj
 0001:0004c260       ??1?$output_adapter_data@DV?$string_output_adapter@D@__crt_stdio_output@@@__crt_stdio_output@@QAE@XZ 1004d260 f i libucrtd:output.obj
 0001:0004c280       ??1?$output_adapter_data@_WV?$stream_output_adapter@_W@__crt_stdio_output@@@__crt_stdio_output@@QAE@XZ 1004d280 f i libucrtd:output.obj
 0001:0004c2a0       ??1?$output_adapter_data@_WV?$string_output_adapter@_W@__crt_stdio_output@@@__crt_stdio_output@@QAE@XZ 1004d2a0 f i libucrtd:output.obj
 0001:0004c2c0       ??1?$output_processor@DV?$stream_output_adapter@D@__crt_stdio_output@@V?$format_validation_base@DV?$stream_output_adapter@D@__crt_stdio_output@@@2@@__crt_stdio_output@@QAE@XZ 1004d2c0 f i libucrtd:output.obj
 0001:0004c2e0       ??1?$output_processor@DV?$stream_output_adapter@D@__crt_stdio_output@@V?$positional_parameter_base@DV?$stream_output_adapter@D@__crt_stdio_output@@@2@@__crt_stdio_output@@QAE@XZ 1004d2e0 f i libucrtd:output.obj
 0001:0004c300       ??1?$output_processor@DV?$stream_output_adapter@D@__crt_stdio_output@@V?$standard_base@DV?$stream_output_adapter@D@__crt_stdio_output@@@2@@__crt_stdio_output@@QAE@XZ 1004d300 f i libucrtd:output.obj
 0001:0004c320       ??1?$output_processor@DV?$string_output_adapter@D@__crt_stdio_output@@V?$format_validation_base@DV?$string_output_adapter@D@__crt_stdio_output@@@2@@__crt_stdio_output@@QAE@XZ 1004d320 f i libucrtd:output.obj
 0001:0004c340       ??1?$output_processor@DV?$string_output_adapter@D@__crt_stdio_output@@V?$positional_parameter_base@DV?$string_output_adapter@D@__crt_stdio_output@@@2@@__crt_stdio_output@@QAE@XZ 1004d340 f i libucrtd:output.obj
 0001:0004c360       ??1?$output_processor@DV?$string_output_adapter@D@__crt_stdio_output@@V?$standard_base@DV?$string_output_adapter@D@__crt_stdio_output@@@2@@__crt_stdio_output@@QAE@XZ 1004d360 f i libucrtd:output.obj
 0001:0004c380       ??1?$output_processor@_WV?$stream_output_adapter@_W@__crt_stdio_output@@V?$format_validation_base@_WV?$stream_output_adapter@_W@__crt_stdio_output@@@2@@__crt_stdio_output@@QAE@XZ 1004d380 f i libucrtd:output.obj
 0001:0004c3a0       ??1?$output_processor@_WV?$stream_output_adapter@_W@__crt_stdio_output@@V?$positional_parameter_base@_WV?$stream_output_adapter@_W@__crt_stdio_output@@@2@@__crt_stdio_output@@QAE@XZ 1004d3a0 f i libucrtd:output.obj
 0001:0004c3c0       ??1?$output_processor@_WV?$stream_output_adapter@_W@__crt_stdio_output@@V?$standard_base@_WV?$stream_output_adapter@_W@__crt_stdio_output@@@2@@__crt_stdio_output@@QAE@XZ 1004d3c0 f i libucrtd:output.obj
 0001:0004c3e0       ??1?$output_processor@_WV?$string_output_adapter@_W@__crt_stdio_output@@V?$format_validation_base@_WV?$string_output_adapter@_W@__crt_stdio_output@@@2@@__crt_stdio_output@@QAE@XZ 1004d3e0 f i libucrtd:output.obj
 0001:0004c400       ??1?$output_processor@_WV?$string_output_adapter@_W@__crt_stdio_output@@V?$positional_parameter_base@_WV?$string_output_adapter@_W@__crt_stdio_output@@@2@@__crt_stdio_output@@QAE@XZ 1004d400 f i libucrtd:output.obj
 0001:0004c420       ??1?$output_processor@_WV?$string_output_adapter@_W@__crt_stdio_output@@V?$standard_base@_WV?$string_output_adapter@_W@__crt_stdio_output@@@2@@__crt_stdio_output@@QAE@XZ 1004d420 f i libucrtd:output.obj
 0001:0004c440       ??1?$positional_parameter_base@DV?$stream_output_adapter@D@__crt_stdio_output@@@__crt_stdio_output@@QAE@XZ 1004d440 f i libucrtd:output.obj
 0001:0004c460       ??1?$positional_parameter_base@DV?$string_output_adapter@D@__crt_stdio_output@@@__crt_stdio_output@@QAE@XZ 1004d460 f i libucrtd:output.obj
 0001:0004c480       ??1?$positional_parameter_base@_WV?$stream_output_adapter@_W@__crt_stdio_output@@@__crt_stdio_output@@QAE@XZ 1004d480 f i libucrtd:output.obj
 0001:0004c4a0       ??1?$positional_parameter_base@_WV?$string_output_adapter@_W@__crt_stdio_output@@@__crt_stdio_output@@QAE@XZ 1004d4a0 f i libucrtd:output.obj
 0001:0004c4c0       ??1?$standard_base@DV?$stream_output_adapter@D@__crt_stdio_output@@@__crt_stdio_output@@QAE@XZ 1004d4c0 f i libucrtd:output.obj
 0001:0004c4e0       ??1?$standard_base@DV?$string_output_adapter@D@__crt_stdio_output@@@__crt_stdio_output@@QAE@XZ 1004d4e0 f i libucrtd:output.obj
 0001:0004c500       ??1?$standard_base@_WV?$stream_output_adapter@_W@__crt_stdio_output@@@__crt_stdio_output@@QAE@XZ 1004d500 f i libucrtd:output.obj
 0001:0004c520       ??1?$standard_base@_WV?$string_output_adapter@_W@__crt_stdio_output@@@__crt_stdio_output@@QAE@XZ 1004d520 f i libucrtd:output.obj
 0001:0004c540       ??1_LocaleUpdate@@QAE@XZ   1004d540 f i libucrtd:output.obj
 0001:0004c570       ??1__acrt_stdio_temporary_buffering_guard@@QAE@XZ 1004d570 f i libucrtd:output.obj
 0001:0004c5a0       ??1__crt_errno_guard@@QAE@XZ 1004d5a0 f i libucrtd:output.obj
 0001:0004c5d0       ??1formatting_buffer@__crt_stdio_output@@QAE@XZ 1004d5d0 f i libucrtd:output.obj
 0001:0004c5f0       ??4?$__crt_unique_heap_ptr@DU__crt_internal_free_policy@@@@QAEAAV0@$$QAV0@@Z 1004d5f0 f i libucrtd:output.obj
 0001:0004c620       ??A?$spectre_mitigated_lookup_table@Ustate_transition_pair@__crt_stdio_output@@$0IA@@__crt_stdio_output@@QBEABUstate_transition_pair@1@I@Z 1004d620 f i libucrtd:output.obj
 0001:0004c640       ??C__crt_stdio_stream@@QBEPAU__crt_stdio_stream_data@@XZ 1004d640 f i libucrtd:output.obj
 0001:0004cd80       ?GetLocaleT@_LocaleUpdate@@QAEPAU__crt_locale_pointers@@XZ 1004dd80 f i libucrtd:output.obj
 0001:0004cda0       ?adjust_hexit@?$output_processor@DV?$stream_output_adapter@D@__crt_stdio_output@@V?$format_validation_base@DV?$stream_output_adapter@D@__crt_stdio_output@@@2@@__crt_stdio_output@@CADH_N@Z 1004dda0 f i libucrtd:output.obj
 0001:0004cde0       ?adjust_hexit@?$output_processor@DV?$stream_output_adapter@D@__crt_stdio_output@@V?$positional_parameter_base@DV?$stream_output_adapter@D@__crt_stdio_output@@@2@@__crt_stdio_output@@CADH_N@Z 1004dde0 f i libucrtd:output.obj
 0001:0004ce20       ?adjust_hexit@?$output_processor@DV?$stream_output_adapter@D@__crt_stdio_output@@V?$standard_base@DV?$stream_output_adapter@D@__crt_stdio_output@@@2@@__crt_stdio_output@@CADH_N@Z 1004de20 f i libucrtd:output.obj
 0001:0004ce60       ?adjust_hexit@?$output_processor@DV?$string_output_adapter@D@__crt_stdio_output@@V?$format_validation_base@DV?$string_output_adapter@D@__crt_stdio_output@@@2@@__crt_stdio_output@@CADH_N@Z 1004de60 f i libucrtd:output.obj
 0001:0004cea0       ?adjust_hexit@?$output_processor@DV?$string_output_adapter@D@__crt_stdio_output@@V?$positional_parameter_base@DV?$string_output_adapter@D@__crt_stdio_output@@@2@@__crt_stdio_output@@CADH_N@Z 1004dea0 f i libucrtd:output.obj
 0001:0004cee0       ?adjust_hexit@?$output_processor@DV?$string_output_adapter@D@__crt_stdio_output@@V?$standard_base@DV?$string_output_adapter@D@__crt_stdio_output@@@2@@__crt_stdio_output@@CADH_N@Z 1004dee0 f i libucrtd:output.obj
 0001:0004cf20       ?adjust_hexit@?$output_processor@_WV?$stream_output_adapter@_W@__crt_stdio_output@@V?$format_validation_base@_WV?$stream_output_adapter@_W@__crt_stdio_output@@@2@@__crt_stdio_output@@CADH_N@Z 1004df20 f i libucrtd:output.obj
 0001:0004cf60       ?adjust_hexit@?$output_processor@_WV?$stream_output_adapter@_W@__crt_stdio_output@@V?$positional_parameter_base@_WV?$stream_output_adapter@_W@__crt_stdio_output@@@2@@__crt_stdio_output@@CADH_N@Z 1004df60 f i libucrtd:output.obj
 0001:0004cfa0       ?adjust_hexit@?$output_processor@_WV?$stream_output_adapter@_W@__crt_stdio_output@@V?$standard_base@_WV?$stream_output_adapter@_W@__crt_stdio_output@@@2@@__crt_stdio_output@@CADH_N@Z 1004dfa0 f i libucrtd:output.obj
 0001:0004cfe0       ?adjust_hexit@?$output_processor@_WV?$string_output_adapter@_W@__crt_stdio_output@@V?$format_validation_base@_WV?$string_output_adapter@_W@__crt_stdio_output@@@2@@__crt_stdio_output@@CADH_N@Z 1004dfe0 f i libucrtd:output.obj
 0001:0004d020       ?adjust_hexit@?$output_processor@_WV?$string_output_adapter@_W@__crt_stdio_output@@V?$positional_parameter_base@_WV?$string_output_adapter@_W@__crt_stdio_output@@@2@@__crt_stdio_output@@CADH_N@Z 1004e020 f i libucrtd:output.obj
 0001:0004d060       ?adjust_hexit@?$output_processor@_WV?$string_output_adapter@_W@__crt_stdio_output@@V?$standard_base@_WV?$string_output_adapter@_W@__crt_stdio_output@@@2@@__crt_stdio_output@@CADH_N@Z 1004e060 f i libucrtd:output.obj
 0001:0004d0a0       ?advance_to_next_pass@?$positional_parameter_base@DV?$stream_output_adapter@D@__crt_stdio_output@@@__crt_stdio_output@@IAE_NXZ 1004e0a0 f i libucrtd:output.obj
 0001:0004d140       ?advance_to_next_pass@?$positional_parameter_base@DV?$string_output_adapter@D@__crt_stdio_output@@@__crt_stdio_output@@IAE_NXZ 1004e140 f i libucrtd:output.obj
 0001:0004d1e0       ?advance_to_next_pass@?$positional_parameter_base@_WV?$stream_output_adapter@_W@__crt_stdio_output@@@__crt_stdio_output@@IAE_NXZ 1004e1e0 f i libucrtd:output.obj
 0001:0004d280       ?advance_to_next_pass@?$positional_parameter_base@_WV?$string_output_adapter@_W@__crt_stdio_output@@@__crt_stdio_output@@IAE_NXZ 1004e280 f i libucrtd:output.obj
 0001:0004d320       ?advance_to_next_pass@?$standard_base@DV?$stream_output_adapter@D@__crt_stdio_output@@@__crt_stdio_output@@IAE_NXZ 1004e320 f i libucrtd:output.obj
 0001:0004d370       ?advance_to_next_pass@?$standard_base@DV?$string_output_adapter@D@__crt_stdio_output@@@__crt_stdio_output@@IAE_NXZ 1004e370 f i libucrtd:output.obj
 0001:0004d3c0       ?advance_to_next_pass@?$standard_base@_WV?$stream_output_adapter@_W@__crt_stdio_output@@@__crt_stdio_output@@IAE_NXZ 1004e3c0 f i libucrtd:output.obj
 0001:0004d410       ?advance_to_next_pass@?$standard_base@_WV?$string_output_adapter@_W@__crt_stdio_output@@@__crt_stdio_output@@IAE_NXZ 1004e410 f i libucrtd:output.obj
 0001:0004d460       ?crop_zeroes@__crt_stdio_output@@YAXPADQAU__crt_locale_pointers@@@Z 1004e460 f i libucrtd:output.obj
 0001:0004d560       ?find_next_state@?$output_processor@DV?$stream_output_adapter@D@__crt_stdio_output@@V?$format_validation_base@DV?$stream_output_adapter@D@__crt_stdio_output@@@2@@__crt_stdio_output@@ABE?AW4state@2@DW432@@Z 1004e560 f i libucrtd:output.obj
 0001:0004d5d0       ?find_next_state@?$output_processor@DV?$stream_output_adapter@D@__crt_stdio_output@@V?$positional_parameter_base@DV?$stream_output_adapter@D@__crt_stdio_output@@@2@@__crt_stdio_output@@ABE?AW4state@2@DW432@@Z 1004e5d0 f i libucrtd:output.obj
 0001:0004d640       ?find_next_state@?$output_processor@DV?$stream_output_adapter@D@__crt_stdio_output@@V?$standard_base@DV?$stream_output_adapter@D@__crt_stdio_output@@@2@@__crt_stdio_output@@ABE?AW4state@2@DW432@@Z 1004e640 f i libucrtd:output.obj
 0001:0004d6b0       ?find_next_state@?$output_processor@DV?$string_output_adapter@D@__crt_stdio_output@@V?$format_validation_base@DV?$string_output_adapter@D@__crt_stdio_output@@@2@@__crt_stdio_output@@ABE?AW4state@2@DW432@@Z 1004e6b0 f i libucrtd:output.obj
 0001:0004d720       ?find_next_state@?$output_processor@DV?$string_output_adapter@D@__crt_stdio_output@@V?$positional_parameter_base@DV?$string_output_adapter@D@__crt_stdio_output@@@2@@__crt_stdio_output@@ABE?AW4state@2@DW432@@Z 1004e720 f i libucrtd:output.obj
 0001:0004d790       ?find_next_state@?$output_processor@DV?$string_output_adapter@D@__crt_stdio_output@@V?$standard_base@DV?$string_output_adapter@D@__crt_stdio_output@@@2@@__crt_stdio_output@@ABE?AW4state@2@DW432@@Z 1004e790 f i libucrtd:output.obj
 0001:0004d800       ?find_next_state@?$output_processor@_WV?$stream_output_adapter@_W@__crt_stdio_output@@V?$format_validation_base@_WV?$stream_output_adapter@_W@__crt_stdio_output@@@2@@__crt_stdio_output@@ABE?AW4state@2@_WW432@@Z 1004e800 f i libucrtd:output.obj
 0001:0004d870       ?find_next_state@?$output_processor@_WV?$stream_output_adapter@_W@__crt_stdio_output@@V?$positional_parameter_base@_WV?$stream_output_adapter@_W@__crt_stdio_output@@@2@@__crt_stdio_output@@ABE?AW4state@2@_WW432@@Z 1004e870 f i libucrtd:output.obj
 0001:0004d8e0       ?find_next_state@?$output_processor@_WV?$stream_output_adapter@_W@__crt_stdio_output@@V?$standard_base@_WV?$stream_output_adapter@_W@__crt_stdio_output@@@2@@__crt_stdio_output@@ABE?AW4state@2@_WW432@@Z 1004e8e0 f i libucrtd:output.obj
 0001:0004d950       ?find_next_state@?$output_processor@_WV?$string_output_adapter@_W@__crt_stdio_output@@V?$format_validation_base@_WV?$string_output_adapter@_W@__crt_stdio_output@@@2@@__crt_stdio_output@@ABE?AW4state@2@_WW432@@Z 1004e950 f i libucrtd:output.obj
 0001:0004d9c0       ?find_next_state@?$output_processor@_WV?$string_output_adapter@_W@__crt_stdio_output@@V?$positional_parameter_base@_WV?$string_output_adapter@_W@__crt_stdio_output@@@2@@__crt_stdio_output@@ABE?AW4state@2@_WW432@@Z 1004e9c0 f i libucrtd:output.obj
 0001:0004da30       ?find_next_state@?$output_processor@_WV?$string_output_adapter@_W@__crt_stdio_output@@V?$standard_base@_WV?$string_output_adapter@_W@__crt_stdio_output@@@2@@__crt_stdio_output@@ABE?AW4state@2@_WW432@@Z 1004ea30 f i libucrtd:output.obj
 0001:0004daa0       ?force_decimal_point@__crt_stdio_output@@YAXPADQAU__crt_locale_pointers@@@Z 1004eaa0 f i libucrtd:output.obj
 0001:0004db70       ?get@__crt_deferred_errno_cache@@QAEAAHXZ 1004eb70 f i libucrtd:output.obj
 0001:0004dba0       ?get_flags@__crt_stdio_stream@@QBEJXZ 1004eba0 f i libucrtd:output.obj
 0001:0004dbc0       ?get_parameter_type@?$positional_parameter_base@DV?$stream_output_adapter@D@__crt_stdio_output@@@__crt_stdio_output@@CA?AW4parameter_type@12@F@Z 1004ebc0 f i libucrtd:output.obj
 0001:0004dbd0       ?get_parameter_type@?$positional_parameter_base@DV?$stream_output_adapter@D@__crt_stdio_output@@@__crt_stdio_output@@CA?AW4parameter_type@12@G@Z 1004ebd0 f i libucrtd:output.obj
 0001:0004dbe0       ?get_parameter_type@?$positional_parameter_base@DV?$stream_output_adapter@D@__crt_stdio_output@@@__crt_stdio_output@@CA?AW4parameter_type@12@H@Z 1004ebe0 f i libucrtd:output.obj
 0001:0004dbf0       ?get_parameter_type@?$positional_parameter_base@DV?$stream_output_adapter@D@__crt_stdio_output@@@__crt_stdio_output@@CA?AW4parameter_type@12@I@Z 1004ebf0 f i libucrtd:output.obj
 0001:0004dc00       ?get_parameter_type@?$positional_parameter_base@DV?$stream_output_adapter@D@__crt_stdio_output@@@__crt_stdio_output@@CA?AW4parameter_type@12@U_CRT_DOUBLE@@@Z 1004ec00 f i libucrtd:output.obj
 0001:0004dc10       ?get_parameter_type@?$positional_parameter_base@DV?$stream_output_adapter@D@__crt_stdio_output@@@__crt_stdio_output@@CA?AW4parameter_type@12@_J@Z 1004ec10 f i libucrtd:output.obj
 0001:0004dc20       ?get_parameter_type@?$positional_parameter_base@DV?$stream_output_adapter@D@__crt_stdio_output@@@__crt_stdio_output@@CA?AW4parameter_type@12@_K@Z 1004ec20 f i libucrtd:output.obj
 0001:0004dc30       ?get_parameter_type@?$positional_parameter_base@DV?$stream_output_adapter@D@__crt_stdio_output@@@__crt_stdio_output@@CA?AW4parameter_type@12@_W@Z 1004ec30 f i libucrtd:output.obj
 0001:0004dc40       ?get_parameter_type@?$positional_parameter_base@DV?$string_output_adapter@D@__crt_stdio_output@@@__crt_stdio_output@@CA?AW4parameter_type@12@F@Z 1004ec40 f i libucrtd:output.obj
 0001:0004dc50       ?get_parameter_type@?$positional_parameter_base@DV?$string_output_adapter@D@__crt_stdio_output@@@__crt_stdio_output@@CA?AW4parameter_type@12@G@Z 1004ec50 f i libucrtd:output.obj
 0001:0004dc60       ?get_parameter_type@?$positional_parameter_base@DV?$string_output_adapter@D@__crt_stdio_output@@@__crt_stdio_output@@CA?AW4parameter_type@12@H@Z 1004ec60 f i libucrtd:output.obj
 0001:0004dc70       ?get_parameter_type@?$positional_parameter_base@DV?$string_output_adapter@D@__crt_stdio_output@@@__crt_stdio_output@@CA?AW4parameter_type@12@I@Z 1004ec70 f i libucrtd:output.obj
 0001:0004dc80       ?get_parameter_type@?$positional_parameter_base@DV?$string_output_adapter@D@__crt_stdio_output@@@__crt_stdio_output@@CA?AW4parameter_type@12@U_CRT_DOUBLE@@@Z 1004ec80 f i libucrtd:output.obj
 0001:0004dc90       ?get_parameter_type@?$positional_parameter_base@DV?$string_output_adapter@D@__crt_stdio_output@@@__crt_stdio_output@@CA?AW4parameter_type@12@_J@Z 1004ec90 f i libucrtd:output.obj
 0001:0004dca0       ?get_parameter_type@?$positional_parameter_base@DV?$string_output_adapter@D@__crt_stdio_output@@@__crt_stdio_output@@CA?AW4parameter_type@12@_K@Z 1004eca0 f i libucrtd:output.obj
 0001:0004dcb0       ?get_parameter_type@?$positional_parameter_base@DV?$string_output_adapter@D@__crt_stdio_output@@@__crt_stdio_output@@CA?AW4parameter_type@12@_W@Z 1004ecb0 f i libucrtd:output.obj
 0001:0004dcc0       ?get_parameter_type@?$positional_parameter_base@_WV?$stream_output_adapter@_W@__crt_stdio_output@@@__crt_stdio_output@@CA?AW4parameter_type@12@F@Z 1004ecc0 f i libucrtd:output.obj
 0001:0004dcd0       ?get_parameter_type@?$positional_parameter_base@_WV?$stream_output_adapter@_W@__crt_stdio_output@@@__crt_stdio_output@@CA?AW4parameter_type@12@G@Z 1004ecd0 f i libucrtd:output.obj
 0001:0004dce0       ?get_parameter_type@?$positional_parameter_base@_WV?$stream_output_adapter@_W@__crt_stdio_output@@@__crt_stdio_output@@CA?AW4parameter_type@12@H@Z 1004ece0 f i libucrtd:output.obj
 0001:0004dcf0       ?get_parameter_type@?$positional_parameter_base@_WV?$stream_output_adapter@_W@__crt_stdio_output@@@__crt_stdio_output@@CA?AW4parameter_type@12@I@Z 1004ecf0 f i libucrtd:output.obj
 0001:0004dd00       ?get_parameter_type@?$positional_parameter_base@_WV?$stream_output_adapter@_W@__crt_stdio_output@@@__crt_stdio_output@@CA?AW4parameter_type@12@U_CRT_DOUBLE@@@Z 1004ed00 f i libucrtd:output.obj
 0001:0004dd10       ?get_parameter_type@?$positional_parameter_base@_WV?$stream_output_adapter@_W@__crt_stdio_output@@@__crt_stdio_output@@CA?AW4parameter_type@12@_J@Z 1004ed10 f i libucrtd:output.obj
 0001:0004dd20       ?get_parameter_type@?$positional_parameter_base@_WV?$stream_output_adapter@_W@__crt_stdio_output@@@__crt_stdio_output@@CA?AW4parameter_type@12@_K@Z 1004ed20 f i libucrtd:output.obj
 0001:0004dd30       ?get_parameter_type@?$positional_parameter_base@_WV?$stream_output_adapter@_W@__crt_stdio_output@@@__crt_stdio_output@@CA?AW4parameter_type@12@_W@Z 1004ed30 f i libucrtd:output.obj
 0001:0004dd40       ?get_parameter_type@?$positional_parameter_base@_WV?$string_output_adapter@_W@__crt_stdio_output@@@__crt_stdio_output@@CA?AW4parameter_type@12@F@Z 1004ed40 f i libucrtd:output.obj
 0001:0004dd50       ?get_parameter_type@?$positional_parameter_base@_WV?$string_output_adapter@_W@__crt_stdio_output@@@__crt_stdio_output@@CA?AW4parameter_type@12@G@Z 1004ed50 f i libucrtd:output.obj
 0001:0004dd60       ?get_parameter_type@?$positional_parameter_base@_WV?$string_output_adapter@_W@__crt_stdio_output@@@__crt_stdio_output@@CA?AW4parameter_type@12@H@Z 1004ed60 f i libucrtd:output.obj
 0001:0004dd70       ?get_parameter_type@?$positional_parameter_base@_WV?$string_output_adapter@_W@__crt_stdio_output@@@__crt_stdio_output@@CA?AW4parameter_type@12@I@Z 1004ed70 f i libucrtd:output.obj
 0001:0004dd80       ?get_parameter_type@?$positional_parameter_base@_WV?$string_output_adapter@_W@__crt_stdio_output@@@__crt_stdio_output@@CA?AW4parameter_type@12@U_CRT_DOUBLE@@@Z 1004ed80 f i libucrtd:output.obj
 0001:0004dd90       ?get_parameter_type@?$positional_parameter_base@_WV?$string_output_adapter@_W@__crt_stdio_output@@@__crt_stdio_output@@CA?AW4parameter_type@12@_J@Z 1004ed90 f i libucrtd:output.obj
 0001:0004dda0       ?get_parameter_type@?$positional_parameter_base@_WV?$string_output_adapter@_W@__crt_stdio_output@@@__crt_stdio_output@@CA?AW4parameter_type@12@_K@Z 1004eda0 f i libucrtd:output.obj
 0001:0004ddb0       ?get_parameter_type@?$positional_parameter_base@_WV?$string_output_adapter@_W@__crt_stdio_output@@@__crt_stdio_output@@CA?AW4parameter_type@12@_W@Z 1004edb0 f i libucrtd:output.obj
 0001:0004ddc0       ?has_flag@?$output_processor@DV?$stream_output_adapter@D@__crt_stdio_output@@V?$format_validation_base@DV?$stream_output_adapter@D@__crt_stdio_output@@@2@@__crt_stdio_output@@ABE_NI@Z 1004edc0 f i libucrtd:output.obj
 0001:0004ddf0       ?has_flag@?$output_processor@DV?$stream_output_adapter@D@__crt_stdio_output@@V?$positional_parameter_base@DV?$stream_output_adapter@D@__crt_stdio_output@@@2@@__crt_stdio_output@@ABE_NI@Z 1004edf0 f i libucrtd:output.obj
 0001:0004de20       ?has_flag@?$output_processor@DV?$stream_output_adapter@D@__crt_stdio_output@@V?$standard_base@DV?$stream_output_adapter@D@__crt_stdio_output@@@2@@__crt_stdio_output@@ABE_NI@Z 1004ee20 f i libucrtd:output.obj
 0001:0004de50       ?has_flag@?$output_processor@DV?$string_output_adapter@D@__crt_stdio_output@@V?$format_validation_base@DV?$string_output_adapter@D@__crt_stdio_output@@@2@@__crt_stdio_output@@ABE_NI@Z 1004ee50 f i libucrtd:output.obj
 0001:0004de80       ?has_flag@?$output_processor@DV?$string_output_adapter@D@__crt_stdio_output@@V?$positional_parameter_base@DV?$string_output_adapter@D@__crt_stdio_output@@@2@@__crt_stdio_output@@ABE_NI@Z 1004ee80 f i libucrtd:output.obj
 0001:0004deb0       ?has_flag@?$output_processor@DV?$string_output_adapter@D@__crt_stdio_output@@V?$standard_base@DV?$string_output_adapter@D@__crt_stdio_output@@@2@@__crt_stdio_output@@ABE_NI@Z 1004eeb0 f i libucrtd:output.obj
 0001:0004dee0       ?has_flag@?$output_processor@_WV?$stream_output_adapter@_W@__crt_stdio_output@@V?$format_validation_base@_WV?$stream_output_adapter@_W@__crt_stdio_output@@@2@@__crt_stdio_output@@ABE_NI@Z 1004eee0 f i libucrtd:output.obj
 0001:0004df10       ?has_flag@?$output_processor@_WV?$stream_output_adapter@_W@__crt_stdio_output@@V?$positional_parameter_base@_WV?$stream_output_adapter@_W@__crt_stdio_output@@@2@@__crt_stdio_output@@ABE_NI@Z 1004ef10 f i libucrtd:output.obj
 0001:0004df40       ?has_flag@?$output_processor@_WV?$stream_output_adapter@_W@__crt_stdio_output@@V?$standard_base@_WV?$stream_output_adapter@_W@__crt_stdio_output@@@2@@__crt_stdio_output@@ABE_NI@Z 1004ef40 f i libucrtd:output.obj
 0001:0004df70       ?has_flag@?$output_processor@_WV?$string_output_adapter@_W@__crt_stdio_output@@V?$format_validation_base@_WV?$string_output_adapter@_W@__crt_stdio_output@@@2@@__crt_stdio_output@@ABE_NI@Z 1004ef70 f i libucrtd:output.obj
 0001:0004dfa0       ?has_flag@?$output_processor@_WV?$string_output_adapter@_W@__crt_stdio_output@@V?$positional_parameter_base@_WV?$string_output_adapter@_W@__crt_stdio_output@@@2@@__crt_stdio_output@@ABE_NI@Z 1004efa0 f i libucrtd:output.obj
 0001:0004dfd0       ?has_flag@?$output_processor@_WV?$string_output_adapter@_W@__crt_stdio_output@@V?$standard_base@_WV?$string_output_adapter@_W@__crt_stdio_output@@@2@@__crt_stdio_output@@ABE_NI@Z 1004efd0 f i libucrtd:output.obj
 0001:0004e000       ?is_positional_parameter_reappearance_consistent@?$positional_parameter_base@DV?$stream_output_adapter@D@__crt_stdio_output@@@__crt_stdio_output@@AAE_NABUparameter_data@12@W4parameter_type@12@DW4length_modifier@2@@Z 1004f000 f i libucrtd:output.obj
 0001:0004e230       ?is_positional_parameter_reappearance_consistent@?$positional_parameter_base@DV?$string_output_adapter@D@__crt_stdio_output@@@__crt_stdio_output@@AAE_NABUparameter_data@12@W4parameter_type@12@DW4length_modifier@2@@Z 1004f230 f i libucrtd:output.obj
 0001:0004e460       ?is_positional_parameter_reappearance_consistent@?$positional_parameter_base@_WV?$stream_output_adapter@_W@__crt_stdio_output@@@__crt_stdio_output@@AAE_NABUparameter_data@12@W4parameter_type@12@_WW4length_modifier@2@@Z 1004f460 f i libucrtd:output.obj
 0001:0004e690       ?is_positional_parameter_reappearance_consistent@?$positional_parameter_base@_WV?$string_output_adapter@_W@__crt_stdio_output@@@__crt_stdio_output@@AAE_NABUparameter_data@12@W4parameter_type@12@_WW4length_modifier@2@@Z 1004f690 f i libucrtd:output.obj
 0001:0004e8c0       ?is_string_backed@__crt_stdio_stream@@QBE_NXZ 1004f8c0 f i libucrtd:output.obj
 0001:0004e900       ?narrow_null_string@?$output_processor@DV?$stream_output_adapter@D@__crt_stdio_output@@V?$format_validation_base@DV?$stream_output_adapter@D@__crt_stdio_output@@@2@@__crt_stdio_output@@CAPADXZ 1004f900 f i libucrtd:output.obj
 0001:0004e910       ?narrow_null_string@?$output_processor@DV?$stream_output_adapter@D@__crt_stdio_output@@V?$positional_parameter_base@DV?$stream_output_adapter@D@__crt_stdio_output@@@2@@__crt_stdio_output@@CAPADXZ 1004f910 f i libucrtd:output.obj
 0001:0004e920       ?narrow_null_string@?$output_processor@DV?$stream_output_adapter@D@__crt_stdio_output@@V?$standard_base@DV?$stream_output_adapter@D@__crt_stdio_output@@@2@@__crt_stdio_output@@CAPADXZ 1004f920 f i libucrtd:output.obj
 0001:0004e930       ?narrow_null_string@?$output_processor@DV?$string_output_adapter@D@__crt_stdio_output@@V?$format_validation_base@DV?$string_output_adapter@D@__crt_stdio_output@@@2@@__crt_stdio_output@@CAPADXZ 1004f930 f i libucrtd:output.obj
 0001:0004e940       ?narrow_null_string@?$output_processor@DV?$string_output_adapter@D@__crt_stdio_output@@V?$positional_parameter_base@DV?$string_output_adapter@D@__crt_stdio_output@@@2@@__crt_stdio_output@@CAPADXZ 1004f940 f i libucrtd:output.obj
 0001:0004e950       ?narrow_null_string@?$output_processor@DV?$string_output_adapter@D@__crt_stdio_output@@V?$standard_base@DV?$string_output_adapter@D@__crt_stdio_output@@@2@@__crt_stdio_output@@CAPADXZ 1004f950 f i libucrtd:output.obj
 0001:0004e960       ?narrow_null_string@?$output_processor@_WV?$stream_output_adapter@_W@__crt_stdio_output@@V?$format_validation_base@_WV?$stream_output_adapter@_W@__crt_stdio_output@@@2@@__crt_stdio_output@@CAPADXZ 1004f960 f i libucrtd:output.obj
 0001:0004e970       ?narrow_null_string@?$output_processor@_WV?$stream_output_adapter@_W@__crt_stdio_output@@V?$positional_parameter_base@_WV?$stream_output_adapter@_W@__crt_stdio_output@@@2@@__crt_stdio_output@@CAPADXZ 1004f970 f i libucrtd:output.obj
 0001:0004e980       ?narrow_null_string@?$output_processor@_WV?$stream_output_adapter@_W@__crt_stdio_output@@V?$standard_base@_WV?$stream_output_adapter@_W@__crt_stdio_output@@@2@@__crt_stdio_output@@CAPADXZ 1004f980 f i libucrtd:output.obj
 0001:0004e990       ?narrow_null_string@?$output_processor@_WV?$string_output_adapter@_W@__crt_stdio_output@@V?$format_validation_base@_WV?$string_output_adapter@_W@__crt_stdio_output@@@2@@__crt_stdio_output@@CAPADXZ 1004f990 f i libucrtd:output.obj
 0001:0004e9a0       ?narrow_null_string@?$output_processor@_WV?$string_output_adapter@_W@__crt_stdio_output@@V?$positional_parameter_base@_WV?$string_output_adapter@_W@__crt_stdio_output@@@2@@__crt_stdio_output@@CAPADXZ 1004f9a0 f i libucrtd:output.obj
 0001:0004e9b0       ?narrow_null_string@?$output_processor@_WV?$string_output_adapter@_W@__crt_stdio_output@@V?$standard_base@_WV?$string_output_adapter@_W@__crt_stdio_output@@@2@@__crt_stdio_output@@CAPADXZ 1004f9b0 f i libucrtd:output.obj
 0001:0004e9c0       ?parse_int_from_format_string@?$output_processor@DV?$stream_output_adapter@D@__crt_stdio_output@@V?$format_validation_base@DV?$stream_output_adapter@D@__crt_stdio_output@@@2@@__crt_stdio_output@@AAE_NQAH@Z 1004f9c0 f i libucrtd:output.obj
 0001:0004ea80       ?parse_int_from_format_string@?$output_processor@DV?$stream_output_adapter@D@__crt_stdio_output@@V?$positional_parameter_base@DV?$stream_output_adapter@D@__crt_stdio_output@@@2@@__crt_stdio_output@@AAE_NQAH@Z 1004fa80 f i libucrtd:output.obj
 0001:0004eb40       ?parse_int_from_format_string@?$output_processor@DV?$stream_output_adapter@D@__crt_stdio_output@@V?$standard_base@DV?$stream_output_adapter@D@__crt_stdio_output@@@2@@__crt_stdio_output@@AAE_NQAH@Z 1004fb40 f i libucrtd:output.obj
 0001:0004ec00       ?parse_int_from_format_string@?$output_processor@DV?$string_output_adapter@D@__crt_stdio_output@@V?$format_validation_base@DV?$string_output_adapter@D@__crt_stdio_output@@@2@@__crt_stdio_output@@AAE_NQAH@Z 1004fc00 f i libucrtd:output.obj
 0001:0004ecc0       ?parse_int_from_format_string@?$output_processor@DV?$string_output_adapter@D@__crt_stdio_output@@V?$positional_parameter_base@DV?$string_output_adapter@D@__crt_stdio_output@@@2@@__crt_stdio_output@@AAE_NQAH@Z 1004fcc0 f i libucrtd:output.obj
 0001:0004ed80       ?parse_int_from_format_string@?$output_processor@DV?$string_output_adapter@D@__crt_stdio_output@@V?$standard_base@DV?$string_output_adapter@D@__crt_stdio_output@@@2@@__crt_stdio_output@@AAE_NQAH@Z 1004fd80 f i libucrtd:output.obj
 0001:0004ee40       ?parse_int_from_format_string@?$output_processor@_WV?$stream_output_adapter@_W@__crt_stdio_output@@V?$format_validation_base@_WV?$stream_output_adapter@_W@__crt_stdio_output@@@2@@__crt_stdio_output@@AAE_NQAH@Z 1004fe40 f i libucrtd:output.obj
 0001:0004ef00       ?parse_int_from_format_string@?$output_processor@_WV?$stream_output_adapter@_W@__crt_stdio_output@@V?$positional_parameter_base@_WV?$stream_output_adapter@_W@__crt_stdio_output@@@2@@__crt_stdio_output@@AAE_NQAH@Z 1004ff00 f i libucrtd:output.obj
 0001:0004efc0       ?parse_int_from_format_string@?$output_processor@_WV?$stream_output_adapter@_W@__crt_stdio_output@@V?$standard_base@_WV?$stream_output_adapter@_W@__crt_stdio_output@@@2@@__crt_stdio_output@@AAE_NQAH@Z 1004ffc0 f i libucrtd:output.obj
 0001:0004f080       ?parse_int_from_format_string@?$output_processor@_WV?$string_output_adapter@_W@__crt_stdio_output@@V?$format_validation_base@_WV?$string_output_adapter@_W@__crt_stdio_output@@@2@@__crt_stdio_output@@AAE_NQAH@Z 10050080 f i libucrtd:output.obj
 0001:0004f140       ?parse_int_from_format_string@?$output_processor@_WV?$string_output_adapter@_W@__crt_stdio_output@@V?$positional_parameter_base@_WV?$string_output_adapter@_W@__crt_stdio_output@@@2@@__crt_stdio_output@@AAE_NQAH@Z 10050140 f i libucrtd:output.obj
 0001:0004f200       ?parse_int_from_format_string@?$output_processor@_WV?$string_output_adapter@_W@__crt_stdio_output@@V?$standard_base@_WV?$string_output_adapter@_W@__crt_stdio_output@@@2@@__crt_stdio_output@@AAE_NQAH@Z 10050200 f i libucrtd:output.obj
 0001:0004f2c0       ?process@?$output_processor@DV?$stream_output_adapter@D@__crt_stdio_output@@V?$format_validation_base@DV?$stream_output_adapter@D@__crt_stdio_output@@@2@@__crt_stdio_output@@QAEHXZ 100502c0 f i libucrtd:output.obj
 0001:0004f570       ?process@?$output_processor@DV?$stream_output_adapter@D@__crt_stdio_output@@V?$positional_parameter_base@DV?$stream_output_adapter@D@__crt_stdio_output@@@2@@__crt_stdio_output@@QAEHXZ 10050570 f i libucrtd:output.obj
 0001:0004f820       ?process@?$output_processor@DV?$stream_output_adapter@D@__crt_stdio_output@@V?$standard_base@DV?$stream_output_adapter@D@__crt_stdio_output@@@2@@__crt_stdio_output@@QAEHXZ 10050820 f i libucrtd:output.obj
 0001:0004fad0       ?process@?$output_processor@DV?$string_output_adapter@D@__crt_stdio_output@@V?$format_validation_base@DV?$string_output_adapter@D@__crt_stdio_output@@@2@@__crt_stdio_output@@QAEHXZ 10050ad0 f i libucrtd:output.obj
 0001:0004fd80       ?process@?$output_processor@DV?$string_output_adapter@D@__crt_stdio_output@@V?$positional_parameter_base@DV?$string_output_adapter@D@__crt_stdio_output@@@2@@__crt_stdio_output@@QAEHXZ 10050d80 f i libucrtd:output.obj
 0001:00050030       ?process@?$output_processor@DV?$string_output_adapter@D@__crt_stdio_output@@V?$standard_base@DV?$string_output_adapter@D@__crt_stdio_output@@@2@@__crt_stdio_output@@QAEHXZ 10051030 f i libucrtd:output.obj
 0001:000502e0       ?process@?$output_processor@_WV?$stream_output_adapter@_W@__crt_stdio_output@@V?$format_validation_base@_WV?$stream_output_adapter@_W@__crt_stdio_output@@@2@@__crt_stdio_output@@QAEHXZ 100512e0 f i libucrtd:output.obj
 0001:00050590       ?process@?$output_processor@_WV?$stream_output_adapter@_W@__crt_stdio_output@@V?$positional_parameter_base@_WV?$stream_output_adapter@_W@__crt_stdio_output@@@2@@__crt_stdio_output@@QAEHXZ 10051590 f i libucrtd:output.obj
 0001:00050840       ?process@?$output_processor@_WV?$stream_output_adapter@_W@__crt_stdio_output@@V?$standard_base@_WV?$stream_output_adapter@_W@__crt_stdio_output@@@2@@__crt_stdio_output@@QAEHXZ 10051840 f i libucrtd:output.obj
 0001:00050af0       ?process@?$output_processor@_WV?$string_output_adapter@_W@__crt_stdio_output@@V?$format_validation_base@_WV?$string_output_adapter@_W@__crt_stdio_output@@@2@@__crt_stdio_output@@QAEHXZ 10051af0 f i libucrtd:output.obj
 0001:00050da0       ?process@?$output_processor@_WV?$string_output_adapter@_W@__crt_stdio_output@@V?$positional_parameter_base@_WV?$string_output_adapter@_W@__crt_stdio_output@@@2@@__crt_stdio_output@@QAEHXZ 10051da0 f i libucrtd:output.obj
 0001:00051050       ?process@?$output_processor@_WV?$string_output_adapter@_W@__crt_stdio_output@@V?$standard_base@_WV?$string_output_adapter@_W@__crt_stdio_output@@@2@@__crt_stdio_output@@QAEHXZ 10052050 f i libucrtd:output.obj
 0001:00051300       ?public_stream@__crt_stdio_stream@@QBEPAU_iobuf@@XZ 10052300 f i libucrtd:output.obj
 0001:00051320       ?set_flag@?$output_processor@DV?$stream_output_adapter@D@__crt_stdio_output@@V?$format_validation_base@DV?$stream_output_adapter@D@__crt_stdio_output@@@2@@__crt_stdio_output@@AAEXI@Z 10052320 f i libucrtd:output.obj
 0001:00051340       ?set_flag@?$output_processor@DV?$stream_output_adapter@D@__crt_stdio_output@@V?$positional_parameter_base@DV?$stream_output_adapter@D@__crt_stdio_output@@@2@@__crt_stdio_output@@AAEXI@Z 10052340 f i libucrtd:output.obj
 0001:00051360       ?set_flag@?$output_processor@DV?$stream_output_adapter@D@__crt_stdio_output@@V?$standard_base@DV?$stream_output_adapter@D@__crt_stdio_output@@@2@@__crt_stdio_output@@AAEXI@Z 10052360 f i libucrtd:output.obj
 0001:00051380       ?set_flag@?$output_processor@DV?$string_output_adapter@D@__crt_stdio_output@@V?$format_validation_base@DV?$string_output_adapter@D@__crt_stdio_output@@@2@@__crt_stdio_output@@AAEXI@Z 10052380 f i libucrtd:output.obj
 0001:000513a0       ?set_flag@?$output_processor@DV?$string_output_adapter@D@__crt_stdio_output@@V?$positional_parameter_base@DV?$string_output_adapter@D@__crt_stdio_output@@@2@@__crt_stdio_output@@AAEXI@Z 100523a0 f i libucrtd:output.obj
 0001:000513c0       ?set_flag@?$output_processor@DV?$string_output_adapter@D@__crt_stdio_output@@V?$standard_base@DV?$string_output_adapter@D@__crt_stdio_output@@@2@@__crt_stdio_output@@AAEXI@Z 100523c0 f i libucrtd:output.obj
 0001:000513e0       ?set_flag@?$output_processor@_WV?$stream_output_adapter@_W@__crt_stdio_output@@V?$format_validation_base@_WV?$stream_output_adapter@_W@__crt_stdio_output@@@2@@__crt_stdio_output@@AAEXI@Z 100523e0 f i libucrtd:output.obj
 0001:00051400       ?set_flag@?$output_processor@_WV?$stream_output_adapter@_W@__crt_stdio_output@@V?$positional_parameter_base@_WV?$stream_output_adapter@_W@__crt_stdio_output@@@2@@__crt_stdio_output@@AAEXI@Z 10052400 f i libucrtd:output.obj
 0001:00051420       ?set_flag@?$output_processor@_WV?$stream_output_adapter@_W@__crt_stdio_output@@V?$standard_base@_WV?$stream_output_adapter@_W@__crt_stdio_output@@@2@@__crt_stdio_output@@AAEXI@Z 10052420 f i libucrtd:output.obj
 0001:00051440       ?set_flag@?$output_processor@_WV?$string_output_adapter@_W@__crt_stdio_output@@V?$format_validation_base@_WV?$string_output_adapter@_W@__crt_stdio_output@@@2@@__crt_stdio_output@@AAEXI@Z 10052440 f i libucrtd:output.obj
 0001:00051460       ?set_flag@?$output_processor@_WV?$string_output_adapter@_W@__crt_stdio_output@@V?$positional_parameter_base@_WV?$string_output_adapter@_W@__crt_stdio_output@@@2@@__crt_stdio_output@@AAEXI@Z 10052460 f i libucrtd:output.obj
 0001:00051480       ?set_flag@?$output_processor@_WV?$string_output_adapter@_W@__crt_stdio_output@@V?$standard_base@_WV?$string_output_adapter@_W@__crt_stdio_output@@@2@@__crt_stdio_output@@AAEXI@Z 10052480 f i libucrtd:output.obj
 0001:000514a0       ?should_format@?$positional_parameter_base@DV?$stream_output_adapter@D@__crt_stdio_output@@@__crt_stdio_output@@IAE_NXZ 100524a0 f i libucrtd:output.obj
 0001:000514e0       ?should_format@?$positional_parameter_base@DV?$string_output_adapter@D@__crt_stdio_output@@@__crt_stdio_output@@IAE_NXZ 100524e0 f i libucrtd:output.obj
 0001:00051520       ?should_format@?$positional_parameter_base@_WV?$stream_output_adapter@_W@__crt_stdio_output@@@__crt_stdio_output@@IAE_NXZ 10052520 f i libucrtd:output.obj
 0001:00051560       ?should_format@?$positional_parameter_base@_WV?$string_output_adapter@_W@__crt_stdio_output@@@__crt_stdio_output@@IAE_NXZ 10052560 f i libucrtd:output.obj
 0001:000515a0       ?should_format@?$standard_base@DV?$stream_output_adapter@D@__crt_stdio_output@@@__crt_stdio_output@@IAE_NXZ 100525a0 f i libucrtd:output.obj
 0001:000515b0       ?should_format@?$standard_base@DV?$string_output_adapter@D@__crt_stdio_output@@@__crt_stdio_output@@IAE_NXZ 100525b0 f i libucrtd:output.obj
 0001:000515c0       ?should_format@?$standard_base@_WV?$stream_output_adapter@_W@__crt_stdio_output@@@__crt_stdio_output@@IAE_NXZ 100525c0 f i libucrtd:output.obj
 0001:000515d0       ?should_format@?$standard_base@_WV?$string_output_adapter@_W@__crt_stdio_output@@@__crt_stdio_output@@IAE_NXZ 100525d0 f i libucrtd:output.obj
 0001:000515e0       ?should_skip_normal_state_processing@?$positional_parameter_base@DV?$stream_output_adapter@D@__crt_stdio_output@@@__crt_stdio_output@@IAE_NXZ 100525e0 f i libucrtd:output.obj
 0001:00051630       ?should_skip_normal_state_processing@?$positional_parameter_base@DV?$string_output_adapter@D@__crt_stdio_output@@@__crt_stdio_output@@IAE_NXZ 10052630 f i libucrtd:output.obj
 0001:00051680       ?should_skip_normal_state_processing@?$positional_parameter_base@_WV?$stream_output_adapter@_W@__crt_stdio_output@@@__crt_stdio_output@@IAE_NXZ 10052680 f i libucrtd:output.obj
 0001:000516d0       ?should_skip_normal_state_processing@?$positional_parameter_base@_WV?$string_output_adapter@_W@__crt_stdio_output@@@__crt_stdio_output@@IAE_NXZ 100526d0 f i libucrtd:output.obj
 0001:00051720       ?should_skip_normal_state_processing@?$standard_base@DV?$stream_output_adapter@D@__crt_stdio_output@@@__crt_stdio_output@@IAE_NXZ 10052720 f i libucrtd:output.obj
 0001:00051730       ?should_skip_normal_state_processing@?$standard_base@DV?$string_output_adapter@D@__crt_stdio_output@@@__crt_stdio_output@@IAE_NXZ 10052730 f i libucrtd:output.obj
 0001:00051740       ?should_skip_normal_state_processing@?$standard_base@_WV?$stream_output_adapter@_W@__crt_stdio_output@@@__crt_stdio_output@@IAE_NXZ 10052740 f i libucrtd:output.obj
 0001:00051750       ?should_skip_normal_state_processing@?$standard_base@_WV?$string_output_adapter@_W@__crt_stdio_output@@@__crt_stdio_output@@IAE_NXZ 10052750 f i libucrtd:output.obj
 0001:00051760       ?should_skip_type_state_output@?$positional_parameter_base@DV?$stream_output_adapter@D@__crt_stdio_output@@@__crt_stdio_output@@IBE_NXZ 10052760 f i libucrtd:output.obj
 0001:000517a0       ?should_skip_type_state_output@?$positional_parameter_base@DV?$string_output_adapter@D@__crt_stdio_output@@@__crt_stdio_output@@IBE_NXZ 100527a0 f i libucrtd:output.obj
 0001:000517e0       ?should_skip_type_state_output@?$positional_parameter_base@_WV?$stream_output_adapter@_W@__crt_stdio_output@@@__crt_stdio_output@@IBE_NXZ 100527e0 f i libucrtd:output.obj
 0001:00051820       ?should_skip_type_state_output@?$positional_parameter_base@_WV?$string_output_adapter@_W@__crt_stdio_output@@@__crt_stdio_output@@IBE_NXZ 10052820 f i libucrtd:output.obj
 0001:00051860       ?should_skip_type_state_output@?$standard_base@DV?$stream_output_adapter@D@__crt_stdio_output@@@__crt_stdio_output@@IBE_NXZ 10052860 f i libucrtd:output.obj
 0001:00051870       ?should_skip_type_state_output@?$standard_base@DV?$string_output_adapter@D@__crt_stdio_output@@@__crt_stdio_output@@IBE_NXZ 10052870 f i libucrtd:output.obj
 0001:00051880       ?should_skip_type_state_output@?$standard_base@_WV?$stream_output_adapter@_W@__crt_stdio_output@@@__crt_stdio_output@@IBE_NXZ 10052880 f i libucrtd:output.obj
 0001:00051890       ?should_skip_type_state_output@?$standard_base@_WV?$string_output_adapter@_W@__crt_stdio_output@@@__crt_stdio_output@@IBE_NXZ 10052890 f i libucrtd:output.obj
 0001:000518a0       ?state_case_dot@?$output_processor@DV?$stream_output_adapter@D@__crt_stdio_output@@V?$format_validation_base@DV?$stream_output_adapter@D@__crt_stdio_output@@@2@@__crt_stdio_output@@AAE_NXZ 100528a0 f i libucrtd:output.obj
 0001:000518c0       ?state_case_dot@?$output_processor@DV?$stream_output_adapter@D@__crt_stdio_output@@V?$positional_parameter_base@DV?$stream_output_adapter@D@__crt_stdio_output@@@2@@__crt_stdio_output@@AAE_NXZ 100528c0 f i libucrtd:output.obj
 0001:000518e0       ?state_case_dot@?$output_processor@DV?$stream_output_adapter@D@__crt_stdio_output@@V?$standard_base@DV?$stream_output_adapter@D@__crt_stdio_output@@@2@@__crt_stdio_output@@AAE_NXZ 100528e0 f i libucrtd:output.obj
 0001:00051900       ?state_case_dot@?$output_processor@DV?$string_output_adapter@D@__crt_stdio_output@@V?$format_validation_base@DV?$string_output_adapter@D@__crt_stdio_output@@@2@@__crt_stdio_output@@AAE_NXZ 10052900 f i libucrtd:output.obj
 0001:00051920       ?state_case_dot@?$output_processor@DV?$string_output_adapter@D@__crt_stdio_output@@V?$positional_parameter_base@DV?$string_output_adapter@D@__crt_stdio_output@@@2@@__crt_stdio_output@@AAE_NXZ 10052920 f i libucrtd:output.obj
 0001:00051940       ?state_case_dot@?$output_processor@DV?$string_output_adapter@D@__crt_stdio_output@@V?$standard_base@DV?$string_output_adapter@D@__crt_stdio_output@@@2@@__crt_stdio_output@@AAE_NXZ 10052940 f i libucrtd:output.obj
 0001:00051960       ?state_case_dot@?$output_processor@_WV?$stream_output_adapter@_W@__crt_stdio_output@@V?$format_validation_base@_WV?$stream_output_adapter@_W@__crt_stdio_output@@@2@@__crt_stdio_output@@AAE_NXZ 10052960 f i libucrtd:output.obj
 0001:00051980       ?state_case_dot@?$output_processor@_WV?$stream_output_adapter@_W@__crt_stdio_output@@V?$positional_parameter_base@_WV?$stream_output_adapter@_W@__crt_stdio_output@@@2@@__crt_stdio_output@@AAE_NXZ 10052980 f i libucrtd:output.obj
 0001:000519a0       ?state_case_dot@?$output_processor@_WV?$stream_output_adapter@_W@__crt_stdio_output@@V?$standard_base@_WV?$stream_output_adapter@_W@__crt_stdio_output@@@2@@__crt_stdio_output@@AAE_NXZ 100529a0 f i libucrtd:output.obj
 0001:000519c0       ?state_case_dot@?$output_processor@_WV?$string_output_adapter@_W@__crt_stdio_output@@V?$format_validation_base@_WV?$string_output_adapter@_W@__crt_stdio_output@@@2@@__crt_stdio_output@@AAE_NXZ 100529c0 f i libucrtd:output.obj
 0001:000519e0       ?state_case_dot@?$output_processor@_WV?$string_output_adapter@_W@__crt_stdio_output@@V?$positional_parameter_base@_WV?$string_output_adapter@_W@__crt_stdio_output@@@2@@__crt_stdio_output@@AAE_NXZ 100529e0 f i libucrtd:output.obj
 0001:00051a00       ?state_case_dot@?$output_processor@_WV?$string_output_adapter@_W@__crt_stdio_output@@V?$standard_base@_WV?$string_output_adapter@_W@__crt_stdio_output@@@2@@__crt_stdio_output@@AAE_NXZ 10052a00 f i libucrtd:output.obj
 0001:00051a20       ?state_case_flag@?$output_processor@DV?$stream_output_adapter@D@__crt_stdio_output@@V?$format_validation_base@DV?$stream_output_adapter@D@__crt_stdio_output@@@2@@__crt_stdio_output@@AAE_NXZ 10052a20 f i libucrtd:output.obj
 0001:00051ad0       ?state_case_flag@?$output_processor@DV?$stream_output_adapter@D@__crt_stdio_output@@V?$positional_parameter_base@DV?$stream_output_adapter@D@__crt_stdio_output@@@2@@__crt_stdio_output@@AAE_NXZ 10052ad0 f i libucrtd:output.obj
 0001:00051b80       ?state_case_flag@?$output_processor@DV?$stream_output_adapter@D@__crt_stdio_output@@V?$standard_base@DV?$stream_output_adapter@D@__crt_stdio_output@@@2@@__crt_stdio_output@@AAE_NXZ 10052b80 f i libucrtd:output.obj
 0001:00051c30       ?state_case_flag@?$output_processor@DV?$string_output_adapter@D@__crt_stdio_output@@V?$format_validation_base@DV?$string_output_adapter@D@__crt_stdio_output@@@2@@__crt_stdio_output@@AAE_NXZ 10052c30 f i libucrtd:output.obj
 0001:00051ce0       ?state_case_flag@?$output_processor@DV?$string_output_adapter@D@__crt_stdio_output@@V?$positional_parameter_base@DV?$string_output_adapter@D@__crt_stdio_output@@@2@@__crt_stdio_output@@AAE_NXZ 10052ce0 f i libucrtd:output.obj
 0001:00051d90       ?state_case_flag@?$output_processor@DV?$string_output_adapter@D@__crt_stdio_output@@V?$standard_base@DV?$string_output_adapter@D@__crt_stdio_output@@@2@@__crt_stdio_output@@AAE_NXZ 10052d90 f i libucrtd:output.obj
 0001:00051e40       ?state_case_flag@?$output_processor@_WV?$stream_output_adapter@_W@__crt_stdio_output@@V?$format_validation_base@_WV?$stream_output_adapter@_W@__crt_stdio_output@@@2@@__crt_stdio_output@@AAE_NXZ 10052e40 f i libucrtd:output.obj
 0001:00051ef0       ?state_case_flag@?$output_processor@_WV?$stream_output_adapter@_W@__crt_stdio_output@@V?$positional_parameter_base@_WV?$stream_output_adapter@_W@__crt_stdio_output@@@2@@__crt_stdio_output@@AAE_NXZ 10052ef0 f i libucrtd:output.obj
 0001:00051fa0       ?state_case_flag@?$output_processor@_WV?$stream_output_adapter@_W@__crt_stdio_output@@V?$standard_base@_WV?$stream_output_adapter@_W@__crt_stdio_output@@@2@@__crt_stdio_output@@AAE_NXZ 10052fa0 f i libucrtd:output.obj
 0001:00052050       ?state_case_flag@?$output_processor@_WV?$string_output_adapter@_W@__crt_stdio_output@@V?$format_validation_base@_WV?$string_output_adapter@_W@__crt_stdio_output@@@2@@__crt_stdio_output@@AAE_NXZ 10053050 f i libucrtd:output.obj
 0001:00052100       ?state_case_flag@?$output_processor@_WV?$string_output_adapter@_W@__crt_stdio_output@@V?$positional_parameter_base@_WV?$string_output_adapter@_W@__crt_stdio_output@@@2@@__crt_stdio_output@@AAE_NXZ 10053100 f i libucrtd:output.obj
 0001:000521b0       ?state_case_flag@?$output_processor@_WV?$string_output_adapter@_W@__crt_stdio_output@@V?$standard_base@_WV?$string_output_adapter@_W@__crt_stdio_output@@@2@@__crt_stdio_output@@AAE_NXZ 100531b0 f i libucrtd:output.obj
 0001:00052260       ?state_case_normal@?$output_processor@DV?$stream_output_adapter@D@__crt_stdio_output@@V?$format_validation_base@DV?$stream_output_adapter@D@__crt_stdio_output@@@2@@__crt_stdio_output@@AAE_NXZ 10053260 f i libucrtd:output.obj
 0001:00052310       ?state_case_normal@?$output_processor@DV?$stream_output_adapter@D@__crt_stdio_output@@V?$positional_parameter_base@DV?$stream_output_adapter@D@__crt_stdio_output@@@2@@__crt_stdio_output@@AAE_NXZ 10053310 f i libucrtd:output.obj
 0001:000523c0       ?state_case_normal@?$output_processor@DV?$stream_output_adapter@D@__crt_stdio_output@@V?$standard_base@DV?$stream_output_adapter@D@__crt_stdio_output@@@2@@__crt_stdio_output@@AAE_NXZ 100533c0 f i libucrtd:output.obj
 0001:00052470       ?state_case_normal@?$output_processor@DV?$string_output_adapter@D@__crt_stdio_output@@V?$format_validation_base@DV?$string_output_adapter@D@__crt_stdio_output@@@2@@__crt_stdio_output@@AAE_NXZ 10053470 f i libucrtd:output.obj
 0001:00052520       ?state_case_normal@?$output_processor@DV?$string_output_adapter@D@__crt_stdio_output@@V?$positional_parameter_base@DV?$string_output_adapter@D@__crt_stdio_output@@@2@@__crt_stdio_output@@AAE_NXZ 10053520 f i libucrtd:output.obj
 0001:000525d0       ?state_case_normal@?$output_processor@DV?$string_output_adapter@D@__crt_stdio_output@@V?$standard_base@DV?$string_output_adapter@D@__crt_stdio_output@@@2@@__crt_stdio_output@@AAE_NXZ 100535d0 f i libucrtd:output.obj
 0001:00052680       ?state_case_normal@?$output_processor@_WV?$stream_output_adapter@_W@__crt_stdio_output@@V?$format_validation_base@_WV?$stream_output_adapter@_W@__crt_stdio_output@@@2@@__crt_stdio_output@@AAE_NXZ 10053680 f i libucrtd:output.obj
 0001:00052730       ?state_case_normal@?$output_processor@_WV?$stream_output_adapter@_W@__crt_stdio_output@@V?$positional_parameter_base@_WV?$stream_output_adapter@_W@__crt_stdio_output@@@2@@__crt_stdio_output@@AAE_NXZ 10053730 f i libucrtd:output.obj
 0001:000527e0       ?state_case_normal@?$output_processor@_WV?$stream_output_adapter@_W@__crt_stdio_output@@V?$standard_base@_WV?$stream_output_adapter@_W@__crt_stdio_output@@@2@@__crt_stdio_output@@AAE_NXZ 100537e0 f i libucrtd:output.obj
 0001:00052890       ?state_case_normal@?$output_processor@_WV?$string_output_adapter@_W@__crt_stdio_output@@V?$format_validation_base@_WV?$string_output_adapter@_W@__crt_stdio_output@@@2@@__crt_stdio_output@@AAE_NXZ 10053890 f i libucrtd:output.obj
 0001:00052940       ?state_case_normal@?$output_processor@_WV?$string_output_adapter@_W@__crt_stdio_output@@V?$positional_parameter_base@_WV?$string_output_adapter@_W@__crt_stdio_output@@@2@@__crt_stdio_output@@AAE_NXZ 10053940 f i libucrtd:output.obj
 0001:000529f0       ?state_case_normal@?$output_processor@_WV?$string_output_adapter@_W@__crt_stdio_output@@V?$standard_base@_WV?$string_output_adapter@_W@__crt_stdio_output@@@2@@__crt_stdio_output@@AAE_NXZ 100539f0 f i libucrtd:output.obj
 0001:00052aa0       ?state_case_normal_common@?$output_processor@DV?$stream_output_adapter@D@__crt_stdio_output@@V?$format_validation_base@DV?$stream_output_adapter@D@__crt_stdio_output@@@2@@__crt_stdio_output@@AAE_NXZ 10053aa0 f i libucrtd:output.obj
 0001:00052af0       ?state_case_normal_common@?$output_processor@DV?$stream_output_adapter@D@__crt_stdio_output@@V?$positional_parameter_base@DV?$stream_output_adapter@D@__crt_stdio_output@@@2@@__crt_stdio_output@@AAE_NXZ 10053af0 f i libucrtd:output.obj
 0001:00052b40       ?state_case_normal_common@?$output_processor@DV?$stream_output_adapter@D@__crt_stdio_output@@V?$standard_base@DV?$stream_output_adapter@D@__crt_stdio_output@@@2@@__crt_stdio_output@@AAE_NXZ 10053b40 f i libucrtd:output.obj
 0001:00052b90       ?state_case_normal_common@?$output_processor@DV?$string_output_adapter@D@__crt_stdio_output@@V?$format_validation_base@DV?$string_output_adapter@D@__crt_stdio_output@@@2@@__crt_stdio_output@@AAE_NXZ 10053b90 f i libucrtd:output.obj
 0001:00052be0       ?state_case_normal_common@?$output_processor@DV?$string_output_adapter@D@__crt_stdio_output@@V?$positional_parameter_base@DV?$string_output_adapter@D@__crt_stdio_output@@@2@@__crt_stdio_output@@AAE_NXZ 10053be0 f i libucrtd:output.obj
 0001:00052c30       ?state_case_normal_common@?$output_processor@DV?$string_output_adapter@D@__crt_stdio_output@@V?$standard_base@DV?$string_output_adapter@D@__crt_stdio_output@@@2@@__crt_stdio_output@@AAE_NXZ 10053c30 f i libucrtd:output.obj
 0001:00052c80       ?state_case_normal_common@?$output_processor@_WV?$stream_output_adapter@_W@__crt_stdio_output@@V?$format_validation_base@_WV?$stream_output_adapter@_W@__crt_stdio_output@@@2@@__crt_stdio_output@@AAE_NXZ 10053c80 f i libucrtd:output.obj
 0001:00052cd0       ?state_case_normal_common@?$output_processor@_WV?$stream_output_adapter@_W@__crt_stdio_output@@V?$positional_parameter_base@_WV?$stream_output_adapter@_W@__crt_stdio_output@@@2@@__crt_stdio_output@@AAE_NXZ 10053cd0 f i libucrtd:output.obj
 0001:00052d20       ?state_case_normal_common@?$output_processor@_WV?$stream_output_adapter@_W@__crt_stdio_output@@V?$standard_base@_WV?$stream_output_adapter@_W@__crt_stdio_output@@@2@@__crt_stdio_output@@AAE_NXZ 10053d20 f i libucrtd:output.obj
 0001:00052d70       ?state_case_normal_common@?$output_processor@_WV?$string_output_adapter@_W@__crt_stdio_output@@V?$format_validation_base@_WV?$string_output_adapter@_W@__crt_stdio_output@@@2@@__crt_stdio_output@@AAE_NXZ 10053d70 f i libucrtd:output.obj
 0001:00052dc0       ?state_case_normal_common@?$output_processor@_WV?$string_output_adapter@_W@__crt_stdio_output@@V?$positional_parameter_base@_WV?$string_output_adapter@_W@__crt_stdio_output@@@2@@__crt_stdio_output@@AAE_NXZ 10053dc0 f i libucrtd:output.obj
 0001:00052e10       ?state_case_normal_common@?$output_processor@_WV?$string_output_adapter@_W@__crt_stdio_output@@V?$standard_base@_WV?$string_output_adapter@_W@__crt_stdio_output@@@2@@__crt_stdio_output@@AAE_NXZ 10053e10 f i libucrtd:output.obj
 0001:00052e60       ?state_case_normal_tchar@?$output_processor@DV?$stream_output_adapter@D@__crt_stdio_output@@V?$format_validation_base@DV?$stream_output_adapter@D@__crt_stdio_output@@@2@@__crt_stdio_output@@AAE_ND@Z 10053e60 f i libucrtd:output.obj
 0001:00052f60       ?state_case_normal_tchar@?$output_processor@DV?$stream_output_adapter@D@__crt_stdio_output@@V?$positional_parameter_base@DV?$stream_output_adapter@D@__crt_stdio_output@@@2@@__crt_stdio_output@@AAE_ND@Z 10053f60 f i libucrtd:output.obj
 0001:00053060       ?state_case_normal_tchar@?$output_processor@DV?$stream_output_adapter@D@__crt_stdio_output@@V?$standard_base@DV?$stream_output_adapter@D@__crt_stdio_output@@@2@@__crt_stdio_output@@AAE_ND@Z 10054060 f i libucrtd:output.obj
 0001:00053160       ?state_case_normal_tchar@?$output_processor@DV?$string_output_adapter@D@__crt_stdio_output@@V?$format_validation_base@DV?$string_output_adapter@D@__crt_stdio_output@@@2@@__crt_stdio_output@@AAE_ND@Z 10054160 f i libucrtd:output.obj
 0001:00053260       ?state_case_normal_tchar@?$output_processor@DV?$string_output_adapter@D@__crt_stdio_output@@V?$positional_parameter_base@DV?$string_output_adapter@D@__crt_stdio_output@@@2@@__crt_stdio_output@@AAE_ND@Z 10054260 f i libucrtd:output.obj
 0001:00053360       ?state_case_normal_tchar@?$output_processor@DV?$string_output_adapter@D@__crt_stdio_output@@V?$standard_base@DV?$string_output_adapter@D@__crt_stdio_output@@@2@@__crt_stdio_output@@AAE_ND@Z 10054360 f i libucrtd:output.obj
 0001:00053460       ?state_case_normal_tchar@?$output_processor@_WV?$stream_output_adapter@_W@__crt_stdio_output@@V?$format_validation_base@_WV?$stream_output_adapter@_W@__crt_stdio_output@@@2@@__crt_stdio_output@@AAE_N_W@Z 10054460 f i libucrtd:output.obj
 0001:00053480       ?state_case_normal_tchar@?$output_processor@_WV?$stream_output_adapter@_W@__crt_stdio_output@@V?$positional_parameter_base@_WV?$stream_output_adapter@_W@__crt_stdio_output@@@2@@__crt_stdio_output@@AAE_N_W@Z 10054480 f i libucrtd:output.obj
 0001:000534a0       ?state_case_normal_tchar@?$output_processor@_WV?$stream_output_adapter@_W@__crt_stdio_output@@V?$standard_base@_WV?$stream_output_adapter@_W@__crt_stdio_output@@@2@@__crt_stdio_output@@AAE_N_W@Z 100544a0 f i libucrtd:output.obj
 0001:000534c0       ?state_case_normal_tchar@?$output_processor@_WV?$string_output_adapter@_W@__crt_stdio_output@@V?$format_validation_base@_WV?$string_output_adapter@_W@__crt_stdio_output@@@2@@__crt_stdio_output@@AAE_N_W@Z 100544c0 f i libucrtd:output.obj
 0001:000534e0       ?state_case_normal_tchar@?$output_processor@_WV?$string_output_adapter@_W@__crt_stdio_output@@V?$positional_parameter_base@_WV?$string_output_adapter@_W@__crt_stdio_output@@@2@@__crt_stdio_output@@AAE_N_W@Z 100544e0 f i libucrtd:output.obj
 0001:00053500       ?state_case_normal_tchar@?$output_processor@_WV?$string_output_adapter@_W@__crt_stdio_output@@V?$standard_base@_WV?$string_output_adapter@_W@__crt_stdio_output@@@2@@__crt_stdio_output@@AAE_N_W@Z 10054500 f i libucrtd:output.obj
 0001:00053520       ?state_case_percent@?$output_processor@DV?$stream_output_adapter@D@__crt_stdio_output@@V?$format_validation_base@DV?$stream_output_adapter@D@__crt_stdio_output@@@2@@__crt_stdio_output@@AAE_NXZ 10054520 f i libucrtd:output.obj
 0001:00053570       ?state_case_percent@?$output_processor@DV?$stream_output_adapter@D@__crt_stdio_output@@V?$positional_parameter_base@DV?$stream_output_adapter@D@__crt_stdio_output@@@2@@__crt_stdio_output@@AAE_NXZ 10054570 f i libucrtd:output.obj
 0001:000535c0       ?state_case_percent@?$output_processor@DV?$stream_output_adapter@D@__crt_stdio_output@@V?$standard_base@DV?$stream_output_adapter@D@__crt_stdio_output@@@2@@__crt_stdio_output@@AAE_NXZ 100545c0 f i libucrtd:output.obj
 0001:00053610       ?state_case_percent@?$output_processor@DV?$string_output_adapter@D@__crt_stdio_output@@V?$format_validation_base@DV?$string_output_adapter@D@__crt_stdio_output@@@2@@__crt_stdio_output@@AAE_NXZ 10054610 f i libucrtd:output.obj
 0001:00053660       ?state_case_percent@?$output_processor@DV?$string_output_adapter@D@__crt_stdio_output@@V?$positional_parameter_base@DV?$string_output_adapter@D@__crt_stdio_output@@@2@@__crt_stdio_output@@AAE_NXZ 10054660 f i libucrtd:output.obj
 0001:000536b0       ?state_case_percent@?$output_processor@DV?$string_output_adapter@D@__crt_stdio_output@@V?$standard_base@DV?$string_output_adapter@D@__crt_stdio_output@@@2@@__crt_stdio_output@@AAE_NXZ 100546b0 f i libucrtd:output.obj
 0001:00053700       ?state_case_percent@?$output_processor@_WV?$stream_output_adapter@_W@__crt_stdio_output@@V?$format_validation_base@_WV?$stream_output_adapter@_W@__crt_stdio_output@@@2@@__crt_stdio_output@@AAE_NXZ 10054700 f i libucrtd:output.obj
 0001:00053750       ?state_case_percent@?$output_processor@_WV?$stream_output_adapter@_W@__crt_stdio_output@@V?$positional_parameter_base@_WV?$stream_output_adapter@_W@__crt_stdio_output@@@2@@__crt_stdio_output@@AAE_NXZ 10054750 f i libucrtd:output.obj
 0001:000537a0       ?state_case_percent@?$output_processor@_WV?$stream_output_adapter@_W@__crt_stdio_output@@V?$standard_base@_WV?$stream_output_adapter@_W@__crt_stdio_output@@@2@@__crt_stdio_output@@AAE_NXZ 100547a0 f i libucrtd:output.obj
 0001:000537f0       ?state_case_percent@?$output_processor@_WV?$string_output_adapter@_W@__crt_stdio_output@@V?$format_validation_base@_WV?$string_output_adapter@_W@__crt_stdio_output@@@2@@__crt_stdio_output@@AAE_NXZ 100547f0 f i libucrtd:output.obj
 0001:00053840       ?state_case_percent@?$output_processor@_WV?$string_output_adapter@_W@__crt_stdio_output@@V?$positional_parameter_base@_WV?$string_output_adapter@_W@__crt_stdio_output@@@2@@__crt_stdio_output@@AAE_NXZ 10054840 f i libucrtd:output.obj
 0001:00053890       ?state_case_percent@?$output_processor@_WV?$string_output_adapter@_W@__crt_stdio_output@@V?$standard_base@_WV?$string_output_adapter@_W@__crt_stdio_output@@@2@@__crt_stdio_output@@AAE_NXZ 10054890 f i libucrtd:output.obj
 0001:000538e0       ?state_case_precision@?$output_processor@DV?$stream_output_adapter@D@__crt_stdio_output@@V?$format_validation_base@DV?$stream_output_adapter@D@__crt_stdio_output@@@2@@__crt_stdio_output@@AAE_NXZ 100548e0 f i libucrtd:output.obj
 0001:00053950       ?state_case_precision@?$output_processor@DV?$stream_output_adapter@D@__crt_stdio_output@@V?$positional_parameter_base@DV?$stream_output_adapter@D@__crt_stdio_output@@@2@@__crt_stdio_output@@AAE_NXZ 10054950 f i libucrtd:output.obj
 0001:000539c0       ?state_case_precision@?$output_processor@DV?$stream_output_adapter@D@__crt_stdio_output@@V?$standard_base@DV?$stream_output_adapter@D@__crt_stdio_output@@@2@@__crt_stdio_output@@AAE_NXZ 100549c0 f i libucrtd:output.obj
 0001:00053a30       ?state_case_precision@?$output_processor@DV?$string_output_adapter@D@__crt_stdio_output@@V?$format_validation_base@DV?$string_output_adapter@D@__crt_stdio_output@@@2@@__crt_stdio_output@@AAE_NXZ 10054a30 f i libucrtd:output.obj
 0001:00053aa0       ?state_case_precision@?$output_processor@DV?$string_output_adapter@D@__crt_stdio_output@@V?$positional_parameter_base@DV?$string_output_adapter@D@__crt_stdio_output@@@2@@__crt_stdio_output@@AAE_NXZ 10054aa0 f i libucrtd:output.obj
 0001:00053b10       ?state_case_precision@?$output_processor@DV?$string_output_adapter@D@__crt_stdio_output@@V?$standard_base@DV?$string_output_adapter@D@__crt_stdio_output@@@2@@__crt_stdio_output@@AAE_NXZ 10054b10 f i libucrtd:output.obj
 0001:00053b80       ?state_case_precision@?$output_processor@_WV?$stream_output_adapter@_W@__crt_stdio_output@@V?$format_validation_base@_WV?$stream_output_adapter@_W@__crt_stdio_output@@@2@@__crt_stdio_output@@AAE_NXZ 10054b80 f i libucrtd:output.obj
 0001:00053bf0       ?state_case_precision@?$output_processor@_WV?$stream_output_adapter@_W@__crt_stdio_output@@V?$positional_parameter_base@_WV?$stream_output_adapter@_W@__crt_stdio_output@@@2@@__crt_stdio_output@@AAE_NXZ 10054bf0 f i libucrtd:output.obj
 0001:00053c60       ?state_case_precision@?$output_processor@_WV?$stream_output_adapter@_W@__crt_stdio_output@@V?$standard_base@_WV?$stream_output_adapter@_W@__crt_stdio_output@@@2@@__crt_stdio_output@@AAE_NXZ 10054c60 f i libucrtd:output.obj
 0001:00053cd0       ?state_case_precision@?$output_processor@_WV?$string_output_adapter@_W@__crt_stdio_output@@V?$format_validation_base@_WV?$string_output_adapter@_W@__crt_stdio_output@@@2@@__crt_stdio_output@@AAE_NXZ 10054cd0 f i libucrtd:output.obj
 0001:00053d40       ?state_case_precision@?$output_processor@_WV?$string_output_adapter@_W@__crt_stdio_output@@V?$positional_parameter_base@_WV?$string_output_adapter@_W@__crt_stdio_output@@@2@@__crt_stdio_output@@AAE_NXZ 10054d40 f i libucrtd:output.obj
 0001:00053db0       ?state_case_precision@?$output_processor@_WV?$string_output_adapter@_W@__crt_stdio_output@@V?$standard_base@_WV?$string_output_adapter@_W@__crt_stdio_output@@@2@@__crt_stdio_output@@AAE_NXZ 10054db0 f i libucrtd:output.obj
 0001:00053e20       ?state_case_size@?$output_processor@DV?$stream_output_adapter@D@__crt_stdio_output@@V?$format_validation_base@DV?$stream_output_adapter@D@__crt_stdio_output@@@2@@__crt_stdio_output@@AAE_NXZ 10054e20 f i libucrtd:output.obj
 0001:000541f0       ?state_case_size@?$output_processor@DV?$stream_output_adapter@D@__crt_stdio_output@@V?$positional_parameter_base@DV?$stream_output_adapter@D@__crt_stdio_output@@@2@@__crt_stdio_output@@AAE_NXZ 100551f0 f i libucrtd:output.obj
 0001:000545c0       ?state_case_size@?$output_processor@DV?$stream_output_adapter@D@__crt_stdio_output@@V?$standard_base@DV?$stream_output_adapter@D@__crt_stdio_output@@@2@@__crt_stdio_output@@AAE_NXZ 100555c0 f i libucrtd:output.obj
 0001:00054990       ?state_case_size@?$output_processor@DV?$string_output_adapter@D@__crt_stdio_output@@V?$format_validation_base@DV?$string_output_adapter@D@__crt_stdio_output@@@2@@__crt_stdio_output@@AAE_NXZ 10055990 f i libucrtd:output.obj
 0001:00054d60       ?state_case_size@?$output_processor@DV?$string_output_adapter@D@__crt_stdio_output@@V?$positional_parameter_base@DV?$string_output_adapter@D@__crt_stdio_output@@@2@@__crt_stdio_output@@AAE_NXZ 10055d60 f i libucrtd:output.obj
 0001:00055130       ?state_case_size@?$output_processor@DV?$string_output_adapter@D@__crt_stdio_output@@V?$standard_base@DV?$string_output_adapter@D@__crt_stdio_output@@@2@@__crt_stdio_output@@AAE_NXZ 10056130 f i libucrtd:output.obj
 0001:00055500       ?state_case_size@?$output_processor@_WV?$stream_output_adapter@_W@__crt_stdio_output@@V?$format_validation_base@_WV?$stream_output_adapter@_W@__crt_stdio_output@@@2@@__crt_stdio_output@@AAE_NXZ 10056500 f i libucrtd:output.obj
 0001:000558d0       ?state_case_size@?$output_processor@_WV?$stream_output_adapter@_W@__crt_stdio_output@@V?$positional_parameter_base@_WV?$stream_output_adapter@_W@__crt_stdio_output@@@2@@__crt_stdio_output@@AAE_NXZ 100568d0 f i libucrtd:output.obj
 0001:00055ca0       ?state_case_size@?$output_processor@_WV?$stream_output_adapter@_W@__crt_stdio_output@@V?$standard_base@_WV?$stream_output_adapter@_W@__crt_stdio_output@@@2@@__crt_stdio_output@@AAE_NXZ 10056ca0 f i libucrtd:output.obj
 0001:00056070       ?state_case_size@?$output_processor@_WV?$string_output_adapter@_W@__crt_stdio_output@@V?$format_validation_base@_WV?$string_output_adapter@_W@__crt_stdio_output@@@2@@__crt_stdio_output@@AAE_NXZ 10057070 f i libucrtd:output.obj
 0001:00056440       ?state_case_size@?$output_processor@_WV?$string_output_adapter@_W@__crt_stdio_output@@V?$positional_parameter_base@_WV?$string_output_adapter@_W@__crt_stdio_output@@@2@@__crt_stdio_output@@AAE_NXZ 10057440 f i libucrtd:output.obj
 0001:00056810       ?state_case_size@?$output_processor@_WV?$string_output_adapter@_W@__crt_stdio_output@@V?$standard_base@_WV?$string_output_adapter@_W@__crt_stdio_output@@@2@@__crt_stdio_output@@AAE_NXZ 10057810 f i libucrtd:output.obj
 0001:00056be0       ?state_case_type@?$output_processor@DV?$stream_output_adapter@D@__crt_stdio_output@@V?$format_validation_base@DV?$stream_output_adapter@D@__crt_stdio_output@@@2@@__crt_stdio_output@@AAE_NXZ 10057be0 f i libucrtd:output.obj
 0001:00056f90       ?state_case_type@?$output_processor@DV?$stream_output_adapter@D@__crt_stdio_output@@V?$positional_parameter_base@DV?$stream_output_adapter@D@__crt_stdio_output@@@2@@__crt_stdio_output@@AAE_NXZ 10057f90 f i libucrtd:output.obj
 0001:00057340       ?state_case_type@?$output_processor@DV?$stream_output_adapter@D@__crt_stdio_output@@V?$standard_base@DV?$stream_output_adapter@D@__crt_stdio_output@@@2@@__crt_stdio_output@@AAE_NXZ 10058340 f i libucrtd:output.obj
 0001:000576f0       ?state_case_type@?$output_processor@DV?$string_output_adapter@D@__crt_stdio_output@@V?$format_validation_base@DV?$string_output_adapter@D@__crt_stdio_output@@@2@@__crt_stdio_output@@AAE_NXZ 100586f0 f i libucrtd:output.obj
 0001:00057aa0       ?state_case_type@?$output_processor@DV?$string_output_adapter@D@__crt_stdio_output@@V?$positional_parameter_base@DV?$string_output_adapter@D@__crt_stdio_output@@@2@@__crt_stdio_output@@AAE_NXZ 10058aa0 f i libucrtd:output.obj
 0001:00057e50       ?state_case_type@?$output_processor@DV?$string_output_adapter@D@__crt_stdio_output@@V?$standard_base@DV?$string_output_adapter@D@__crt_stdio_output@@@2@@__crt_stdio_output@@AAE_NXZ 10058e50 f i libucrtd:output.obj
 0001:00058200       ?state_case_type@?$output_processor@_WV?$stream_output_adapter@_W@__crt_stdio_output@@V?$format_validation_base@_WV?$stream_output_adapter@_W@__crt_stdio_output@@@2@@__crt_stdio_output@@AAE_NXZ 10059200 f i libucrtd:output.obj
 0001:000585e0       ?state_case_type@?$output_processor@_WV?$stream_output_adapter@_W@__crt_stdio_output@@V?$positional_parameter_base@_WV?$stream_output_adapter@_W@__crt_stdio_output@@@2@@__crt_stdio_output@@AAE_NXZ 100595e0 f i libucrtd:output.obj
 0001:000589c0       ?state_case_type@?$output_processor@_WV?$stream_output_adapter@_W@__crt_stdio_output@@V?$standard_base@_WV?$stream_output_adapter@_W@__crt_stdio_output@@@2@@__crt_stdio_output@@AAE_NXZ 100599c0 f i libucrtd:output.obj
 0001:00058da0       ?state_case_type@?$output_processor@_WV?$string_output_adapter@_W@__crt_stdio_output@@V?$format_validation_base@_WV?$string_output_adapter@_W@__crt_stdio_output@@@2@@__crt_stdio_output@@AAE_NXZ 10059da0 f i libucrtd:output.obj
 0001:00059180       ?state_case_type@?$output_processor@_WV?$string_output_adapter@_W@__crt_stdio_output@@V?$positional_parameter_base@_WV?$string_output_adapter@_W@__crt_stdio_output@@@2@@__crt_stdio_output@@AAE_NXZ 1005a180 f i libucrtd:output.obj
 0001:00059560       ?state_case_type@?$output_processor@_WV?$string_output_adapter@_W@__crt_stdio_output@@V?$standard_base@_WV?$string_output_adapter@_W@__crt_stdio_output@@@2@@__crt_stdio_output@@AAE_NXZ 1005a560 f i libucrtd:output.obj
 0001:00059940       ?state_case_width@?$output_processor@DV?$stream_output_adapter@D@__crt_stdio_output@@V?$format_validation_base@DV?$stream_output_adapter@D@__crt_stdio_output@@@2@@__crt_stdio_output@@AAE_NXZ 1005a940 f i libucrtd:output.obj
 0001:000599c0       ?state_case_width@?$output_processor@DV?$stream_output_adapter@D@__crt_stdio_output@@V?$positional_parameter_base@DV?$stream_output_adapter@D@__crt_stdio_output@@@2@@__crt_stdio_output@@AAE_NXZ 1005a9c0 f i libucrtd:output.obj
 0001:00059a40       ?state_case_width@?$output_processor@DV?$stream_output_adapter@D@__crt_stdio_output@@V?$standard_base@DV?$stream_output_adapter@D@__crt_stdio_output@@@2@@__crt_stdio_output@@AAE_NXZ 1005aa40 f i libucrtd:output.obj
 0001:00059ac0       ?state_case_width@?$output_processor@DV?$string_output_adapter@D@__crt_stdio_output@@V?$format_validation_base@DV?$string_output_adapter@D@__crt_stdio_output@@@2@@__crt_stdio_output@@AAE_NXZ 1005aac0 f i libucrtd:output.obj
 0001:00059b40       ?state_case_width@?$output_processor@DV?$string_output_adapter@D@__crt_stdio_output@@V?$positional_parameter_base@DV?$string_output_adapter@D@__crt_stdio_output@@@2@@__crt_stdio_output@@AAE_NXZ 1005ab40 f i libucrtd:output.obj
 0001:00059bc0       ?state_case_width@?$output_processor@DV?$string_output_adapter@D@__crt_stdio_output@@V?$standard_base@DV?$string_output_adapter@D@__crt_stdio_output@@@2@@__crt_stdio_output@@AAE_NXZ 1005abc0 f i libucrtd:output.obj
 0001:00059c40       ?state_case_width@?$output_processor@_WV?$stream_output_adapter@_W@__crt_stdio_output@@V?$format_validation_base@_WV?$stream_output_adapter@_W@__crt_stdio_output@@@2@@__crt_stdio_output@@AAE_NXZ 1005ac40 f i libucrtd:output.obj
 0001:00059cc0       ?state_case_width@?$output_processor@_WV?$stream_output_adapter@_W@__crt_stdio_output@@V?$positional_parameter_base@_WV?$stream_output_adapter@_W@__crt_stdio_output@@@2@@__crt_stdio_output@@AAE_NXZ 1005acc0 f i libucrtd:output.obj
 0001:00059d40       ?state_case_width@?$output_processor@_WV?$stream_output_adapter@_W@__crt_stdio_output@@V?$standard_base@_WV?$stream_output_adapter@_W@__crt_stdio_output@@@2@@__crt_stdio_output@@AAE_NXZ 1005ad40 f i libucrtd:output.obj
 0001:00059dc0       ?state_case_width@?$output_processor@_WV?$string_output_adapter@_W@__crt_stdio_output@@V?$format_validation_base@_WV?$string_output_adapter@_W@__crt_stdio_output@@@2@@__crt_stdio_output@@AAE_NXZ 1005adc0 f i libucrtd:output.obj
 0001:00059e40       ?state_case_width@?$output_processor@_WV?$string_output_adapter@_W@__crt_stdio_output@@V?$positional_parameter_base@_WV?$string_output_adapter@_W@__crt_stdio_output@@@2@@__crt_stdio_output@@AAE_NXZ 1005ae40 f i libucrtd:output.obj
 0001:00059ec0       ?state_case_width@?$output_processor@_WV?$string_output_adapter@_W@__crt_stdio_output@@V?$standard_base@_WV?$string_output_adapter@_W@__crt_stdio_output@@@2@@__crt_stdio_output@@AAE_NXZ 1005aec0 f i libucrtd:output.obj
 0001:00059f40       ?state_count@?$format_validation_base@DV?$stream_output_adapter@D@__crt_stdio_output@@@__crt_stdio_output@@KAIXZ 1005af40 f i libucrtd:output.obj
 0001:00059f50       ?state_count@?$format_validation_base@DV?$string_output_adapter@D@__crt_stdio_output@@@__crt_stdio_output@@KAIXZ 1005af50 f i libucrtd:output.obj
 0001:00059f60       ?state_count@?$format_validation_base@_WV?$stream_output_adapter@_W@__crt_stdio_output@@@__crt_stdio_output@@KAIXZ 1005af60 f i libucrtd:output.obj
 0001:00059f70       ?state_count@?$format_validation_base@_WV?$string_output_adapter@_W@__crt_stdio_output@@@__crt_stdio_output@@KAIXZ 1005af70 f i libucrtd:output.obj
 0001:00059f80       ?state_count@?$standard_base@DV?$stream_output_adapter@D@__crt_stdio_output@@@__crt_stdio_output@@KAIXZ 1005af80 f i libucrtd:output.obj
 0001:00059f90       ?state_count@?$standard_base@DV?$string_output_adapter@D@__crt_stdio_output@@@__crt_stdio_output@@KAIXZ 1005af90 f i libucrtd:output.obj
 0001:00059fa0       ?state_count@?$standard_base@_WV?$stream_output_adapter@_W@__crt_stdio_output@@@__crt_stdio_output@@KAIXZ 1005afa0 f i libucrtd:output.obj
 0001:00059fb0       ?state_count@?$standard_base@_WV?$string_output_adapter@_W@__crt_stdio_output@@@__crt_stdio_output@@KAIXZ 1005afb0 f i libucrtd:output.obj
 0001:00059fc0       ?state_transition_table@?$format_validation_base@DV?$stream_output_adapter@D@__crt_stdio_output@@@__crt_stdio_output@@KAABV?$spectre_mitigated_lookup_table@Ustate_transition_pair@__crt_stdio_output@@$0IA@@2@XZ 1005afc0 f i libucrtd:output.obj
 0001:00059fd0       ?state_transition_table@?$format_validation_base@DV?$string_output_adapter@D@__crt_stdio_output@@@__crt_stdio_output@@KAABV?$spectre_mitigated_lookup_table@Ustate_transition_pair@__crt_stdio_output@@$0IA@@2@XZ 1005afd0 f i libucrtd:output.obj
 0001:00059fe0       ?state_transition_table@?$format_validation_base@_WV?$stream_output_adapter@_W@__crt_stdio_output@@@__crt_stdio_output@@KAABV?$spectre_mitigated_lookup_table@Ustate_transition_pair@__crt_stdio_output@@$0IA@@2@XZ 1005afe0 f i libucrtd:output.obj
 0001:00059ff0       ?state_transition_table@?$format_validation_base@_WV?$string_output_adapter@_W@__crt_stdio_output@@@__crt_stdio_output@@KAABV?$spectre_mitigated_lookup_table@Ustate_transition_pair@__crt_stdio_output@@$0IA@@2@XZ 1005aff0 f i libucrtd:output.obj
 0001:0005a000       ?state_transition_table@?$standard_base@DV?$stream_output_adapter@D@__crt_stdio_output@@@__crt_stdio_output@@KAABV?$spectre_mitigated_lookup_table@Ustate_transition_pair@__crt_stdio_output@@$0IA@@2@XZ 1005b000 f i libucrtd:output.obj
 0001:0005a010       ?state_transition_table@?$standard_base@DV?$string_output_adapter@D@__crt_stdio_output@@@__crt_stdio_output@@KAABV?$spectre_mitigated_lookup_table@Ustate_transition_pair@__crt_stdio_output@@$0IA@@2@XZ 1005b010 f i libucrtd:output.obj
 0001:0005a020       ?state_transition_table@?$standard_base@_WV?$stream_output_adapter@_W@__crt_stdio_output@@@__crt_stdio_output@@KAABV?$spectre_mitigated_lookup_table@Ustate_transition_pair@__crt_stdio_output@@$0IA@@2@XZ 1005b020 f i libucrtd:output.obj
 0001:0005a030       ?state_transition_table@?$standard_base@_WV?$string_output_adapter@_W@__crt_stdio_output@@@__crt_stdio_output@@KAABV?$spectre_mitigated_lookup_table@Ustate_transition_pair@__crt_stdio_output@@$0IA@@2@XZ 1005b030 f i libucrtd:output.obj
 0001:0005a040       ?tchar_string@?$common_data@D@__crt_stdio_output@@IAEAAPADD@Z 1005b040 f i libucrtd:output.obj
 0001:0005a060       ?tchar_string@?$common_data@D@__crt_stdio_output@@IAEAAPADXZ 1005b060 f i libucrtd:output.obj
 0001:0005a080       ?tchar_string@?$common_data@_W@__crt_stdio_output@@IAEAAPA_WXZ 1005b080 f i libucrtd:output.obj
 0001:0005a0a0       ?tchar_string@?$common_data@_W@__crt_stdio_output@@IAEAAPA_W_W@Z 1005b0a0 f i libucrtd:output.obj
 0001:0005a0c0       ?to_integer_size@__crt_stdio_output@@YAIW4length_modifier@1@@Z 1005b0c0 f i libucrtd:output.obj
 0001:0005a160       ?type_case_X@?$output_processor@DV?$stream_output_adapter@D@__crt_stdio_output@@V?$format_validation_base@DV?$stream_output_adapter@D@__crt_stdio_output@@@2@@__crt_stdio_output@@AAE_NXZ 1005b160 f i libucrtd:output.obj
 0001:0005a180       ?type_case_X@?$output_processor@DV?$stream_output_adapter@D@__crt_stdio_output@@V?$positional_parameter_base@DV?$stream_output_adapter@D@__crt_stdio_output@@@2@@__crt_stdio_output@@AAE_NXZ 1005b180 f i libucrtd:output.obj
 0001:0005a1a0       ?type_case_X@?$output_processor@DV?$stream_output_adapter@D@__crt_stdio_output@@V?$standard_base@DV?$stream_output_adapter@D@__crt_stdio_output@@@2@@__crt_stdio_output@@AAE_NXZ 1005b1a0 f i libucrtd:output.obj
 0001:0005a1c0       ?type_case_X@?$output_processor@DV?$string_output_adapter@D@__crt_stdio_output@@V?$format_validation_base@DV?$string_output_adapter@D@__crt_stdio_output@@@2@@__crt_stdio_output@@AAE_NXZ 1005b1c0 f i libucrtd:output.obj
 0001:0005a1e0       ?type_case_X@?$output_processor@DV?$string_output_adapter@D@__crt_stdio_output@@V?$positional_parameter_base@DV?$string_output_adapter@D@__crt_stdio_output@@@2@@__crt_stdio_output@@AAE_NXZ 1005b1e0 f i libucrtd:output.obj
 0001:0005a200       ?type_case_X@?$output_processor@DV?$string_output_adapter@D@__crt_stdio_output@@V?$standard_base@DV?$string_output_adapter@D@__crt_stdio_output@@@2@@__crt_stdio_output@@AAE_NXZ 1005b200 f i libucrtd:output.obj
 0001:0005a220       ?type_case_X@?$output_processor@_WV?$stream_output_adapter@_W@__crt_stdio_output@@V?$format_validation_base@_WV?$stream_output_adapter@_W@__crt_stdio_output@@@2@@__crt_stdio_output@@AAE_NXZ 1005b220 f i libucrtd:output.obj
 0001:0005a240       ?type_case_X@?$output_processor@_WV?$stream_output_adapter@_W@__crt_stdio_output@@V?$positional_parameter_base@_WV?$stream_output_adapter@_W@__crt_stdio_output@@@2@@__crt_stdio_output@@AAE_NXZ 1005b240 f i libucrtd:output.obj
 0001:0005a260       ?type_case_X@?$output_processor@_WV?$stream_output_adapter@_W@__crt_stdio_output@@V?$standard_base@_WV?$stream_output_adapter@_W@__crt_stdio_output@@@2@@__crt_stdio_output@@AAE_NXZ 1005b260 f i libucrtd:output.obj
 0001:0005a280       ?type_case_X@?$output_processor@_WV?$string_output_adapter@_W@__crt_stdio_output@@V?$format_validation_base@_WV?$string_output_adapter@_W@__crt_stdio_output@@@2@@__crt_stdio_output@@AAE_NXZ 1005b280 f i libucrtd:output.obj
 0001:0005a2a0       ?type_case_X@?$output_processor@_WV?$string_output_adapter@_W@__crt_stdio_output@@V?$positional_parameter_base@_WV?$string_output_adapter@_W@__crt_stdio_output@@@2@@__crt_stdio_output@@AAE_NXZ 1005b2a0 f i libucrtd:output.obj
 0001:0005a2c0       ?type_case_X@?$output_processor@_WV?$string_output_adapter@_W@__crt_stdio_output@@V?$standard_base@_WV?$string_output_adapter@_W@__crt_stdio_output@@@2@@__crt_stdio_output@@AAE_NXZ 1005b2c0 f i libucrtd:output.obj
 0001:0005a2e0       ?type_case_Z@?$output_processor@DV?$stream_output_adapter@D@__crt_stdio_output@@V?$format_validation_base@DV?$stream_output_adapter@D@__crt_stdio_output@@@2@@__crt_stdio_output@@AAE_NXZ 1005b2e0 f i libucrtd:output.obj
 0001:0005a3d0       ?type_case_Z@?$output_processor@DV?$stream_output_adapter@D@__crt_stdio_output@@V?$positional_parameter_base@DV?$stream_output_adapter@D@__crt_stdio_output@@@2@@__crt_stdio_output@@AAE_NXZ 1005b3d0 f i libucrtd:output.obj
 0001:0005a4c0       ?type_case_Z@?$output_processor@DV?$stream_output_adapter@D@__crt_stdio_output@@V?$standard_base@DV?$stream_output_adapter@D@__crt_stdio_output@@@2@@__crt_stdio_output@@AAE_NXZ 1005b4c0 f i libucrtd:output.obj
 0001:0005a5b0       ?type_case_Z@?$output_processor@DV?$string_output_adapter@D@__crt_stdio_output@@V?$format_validation_base@DV?$string_output_adapter@D@__crt_stdio_output@@@2@@__crt_stdio_output@@AAE_NXZ 1005b5b0 f i libucrtd:output.obj
 0001:0005a6a0       ?type_case_Z@?$output_processor@DV?$string_output_adapter@D@__crt_stdio_output@@V?$positional_parameter_base@DV?$string_output_adapter@D@__crt_stdio_output@@@2@@__crt_stdio_output@@AAE_NXZ 1005b6a0 f i libucrtd:output.obj
 0001:0005a790       ?type_case_Z@?$output_processor@DV?$string_output_adapter@D@__crt_stdio_output@@V?$standard_base@DV?$string_output_adapter@D@__crt_stdio_output@@@2@@__crt_stdio_output@@AAE_NXZ 1005b790 f i libucrtd:output.obj
 0001:0005a880       ?type_case_Z@?$output_processor@_WV?$stream_output_adapter@_W@__crt_stdio_output@@V?$format_validation_base@_WV?$stream_output_adapter@_W@__crt_stdio_output@@@2@@__crt_stdio_output@@AAE_NXZ 1005b880 f i libucrtd:output.obj
 0001:0005a970       ?type_case_Z@?$output_processor@_WV?$stream_output_adapter@_W@__crt_stdio_output@@V?$positional_parameter_base@_WV?$stream_output_adapter@_W@__crt_stdio_output@@@2@@__crt_stdio_output@@AAE_NXZ 1005b970 f i libucrtd:output.obj
 0001:0005aa60       ?type_case_Z@?$output_processor@_WV?$stream_output_adapter@_W@__crt_stdio_output@@V?$standard_base@_WV?$stream_output_adapter@_W@__crt_stdio_output@@@2@@__crt_stdio_output@@AAE_NXZ 1005ba60 f i libucrtd:output.obj
 0001:0005ab50       ?type_case_Z@?$output_processor@_WV?$string_output_adapter@_W@__crt_stdio_output@@V?$format_validation_base@_WV?$string_output_adapter@_W@__crt_stdio_output@@@2@@__crt_stdio_output@@AAE_NXZ 1005bb50 f i libucrtd:output.obj
 0001:0005ac40       ?type_case_Z@?$output_processor@_WV?$string_output_adapter@_W@__crt_stdio_output@@V?$positional_parameter_base@_WV?$string_output_adapter@_W@__crt_stdio_output@@@2@@__crt_stdio_output@@AAE_NXZ 1005bc40 f i libucrtd:output.obj
 0001:0005ad30       ?type_case_Z@?$output_processor@_WV?$string_output_adapter@_W@__crt_stdio_output@@V?$standard_base@_WV?$string_output_adapter@_W@__crt_stdio_output@@@2@@__crt_stdio_output@@AAE_NXZ 1005bd30 f i libucrtd:output.obj
 0001:0005ae20       ?type_case_a@?$output_processor@DV?$stream_output_adapter@D@__crt_stdio_output@@V?$format_validation_base@DV?$stream_output_adapter@D@__crt_stdio_output@@@2@@__crt_stdio_output@@AAE_NXZ 1005be20 f i libucrtd:output.obj
 0001:0005b090       ?type_case_a@?$output_processor@DV?$stream_output_adapter@D@__crt_stdio_output@@V?$positional_parameter_base@DV?$stream_output_adapter@D@__crt_stdio_output@@@2@@__crt_stdio_output@@AAE_NXZ 1005c090 f i libucrtd:output.obj
 0001:0005b300       ?type_case_a@?$output_processor@DV?$stream_output_adapter@D@__crt_stdio_output@@V?$standard_base@DV?$stream_output_adapter@D@__crt_stdio_output@@@2@@__crt_stdio_output@@AAE_NXZ 1005c300 f i libucrtd:output.obj
 0001:0005b570       ?type_case_a@?$output_processor@DV?$string_output_adapter@D@__crt_stdio_output@@V?$format_validation_base@DV?$string_output_adapter@D@__crt_stdio_output@@@2@@__crt_stdio_output@@AAE_NXZ 1005c570 f i libucrtd:output.obj
 0001:0005b7e0       ?type_case_a@?$output_processor@DV?$string_output_adapter@D@__crt_stdio_output@@V?$positional_parameter_base@DV?$string_output_adapter@D@__crt_stdio_output@@@2@@__crt_stdio_output@@AAE_NXZ 1005c7e0 f i libucrtd:output.obj
 0001:0005ba50       ?type_case_a@?$output_processor@DV?$string_output_adapter@D@__crt_stdio_output@@V?$standard_base@DV?$string_output_adapter@D@__crt_stdio_output@@@2@@__crt_stdio_output@@AAE_NXZ 1005ca50 f i libucrtd:output.obj
 0001:0005bcc0       ?type_case_a@?$output_processor@_WV?$stream_output_adapter@_W@__crt_stdio_output@@V?$format_validation_base@_WV?$stream_output_adapter@_W@__crt_stdio_output@@@2@@__crt_stdio_output@@AAE_NXZ 1005ccc0 f i libucrtd:output.obj
 0001:0005bf30       ?type_case_a@?$output_processor@_WV?$stream_output_adapter@_W@__crt_stdio_output@@V?$positional_parameter_base@_WV?$stream_output_adapter@_W@__crt_stdio_output@@@2@@__crt_stdio_output@@AAE_NXZ 1005cf30 f i libucrtd:output.obj
 0001:0005c1a0       ?type_case_a@?$output_processor@_WV?$stream_output_adapter@_W@__crt_stdio_output@@V?$standard_base@_WV?$stream_output_adapter@_W@__crt_stdio_output@@@2@@__crt_stdio_output@@AAE_NXZ 1005d1a0 f i libucrtd:output.obj
 0001:0005c410       ?type_case_a@?$output_processor@_WV?$string_output_adapter@_W@__crt_stdio_output@@V?$format_validation_base@_WV?$string_output_adapter@_W@__crt_stdio_output@@@2@@__crt_stdio_output@@AAE_NXZ 1005d410 f i libucrtd:output.obj
 0001:0005c680       ?type_case_a@?$output_processor@_WV?$string_output_adapter@_W@__crt_stdio_output@@V?$positional_parameter_base@_WV?$string_output_adapter@_W@__crt_stdio_output@@@2@@__crt_stdio_output@@AAE_NXZ 1005d680 f i libucrtd:output.obj
 0001:0005c8f0       ?type_case_a@?$output_processor@_WV?$string_output_adapter@_W@__crt_stdio_output@@V?$standard_base@_WV?$string_output_adapter@_W@__crt_stdio_output@@@2@@__crt_stdio_output@@AAE_NXZ 1005d8f0 f i libucrtd:output.obj
 0001:0005cb60       ?type_case_c@?$output_processor@DV?$stream_output_adapter@D@__crt_stdio_output@@V?$format_validation_base@DV?$stream_output_adapter@D@__crt_stdio_output@@@2@@__crt_stdio_output@@AAE_NXZ 1005db60 f i libucrtd:output.obj
 0001:0005cb80       ?type_case_c@?$output_processor@DV?$stream_output_adapter@D@__crt_stdio_output@@V?$positional_parameter_base@DV?$stream_output_adapter@D@__crt_stdio_output@@@2@@__crt_stdio_output@@AAE_NXZ 1005db80 f i libucrtd:output.obj
 0001:0005cba0       ?type_case_c@?$output_processor@DV?$stream_output_adapter@D@__crt_stdio_output@@V?$standard_base@DV?$stream_output_adapter@D@__crt_stdio_output@@@2@@__crt_stdio_output@@AAE_NXZ 1005dba0 f i libucrtd:output.obj
 0001:0005cbc0       ?type_case_c@?$output_processor@DV?$string_output_adapter@D@__crt_stdio_output@@V?$format_validation_base@DV?$string_output_adapter@D@__crt_stdio_output@@@2@@__crt_stdio_output@@AAE_NXZ 1005dbc0 f i libucrtd:output.obj
 0001:0005cbe0       ?type_case_c@?$output_processor@DV?$string_output_adapter@D@__crt_stdio_output@@V?$positional_parameter_base@DV?$string_output_adapter@D@__crt_stdio_output@@@2@@__crt_stdio_output@@AAE_NXZ 1005dbe0 f i libucrtd:output.obj
 0001:0005cc00       ?type_case_c@?$output_processor@DV?$string_output_adapter@D@__crt_stdio_output@@V?$standard_base@DV?$string_output_adapter@D@__crt_stdio_output@@@2@@__crt_stdio_output@@AAE_NXZ 1005dc00 f i libucrtd:output.obj
 0001:0005cc20       ?type_case_c@?$output_processor@_WV?$stream_output_adapter@_W@__crt_stdio_output@@V?$format_validation_base@_WV?$stream_output_adapter@_W@__crt_stdio_output@@@2@@__crt_stdio_output@@AAE_NXZ 1005dc20 f i libucrtd:output.obj
 0001:0005cc40       ?type_case_c@?$output_processor@_WV?$stream_output_adapter@_W@__crt_stdio_output@@V?$positional_parameter_base@_WV?$stream_output_adapter@_W@__crt_stdio_output@@@2@@__crt_stdio_output@@AAE_NXZ 1005dc40 f i libucrtd:output.obj
 0001:0005cc60       ?type_case_c@?$output_processor@_WV?$stream_output_adapter@_W@__crt_stdio_output@@V?$standard_base@_WV?$stream_output_adapter@_W@__crt_stdio_output@@@2@@__crt_stdio_output@@AAE_NXZ 1005dc60 f i libucrtd:output.obj
 0001:0005cc80       ?type_case_c@?$output_processor@_WV?$string_output_adapter@_W@__crt_stdio_output@@V?$format_validation_base@_WV?$string_output_adapter@_W@__crt_stdio_output@@@2@@__crt_stdio_output@@AAE_NXZ 1005dc80 f i libucrtd:output.obj
 0001:0005cca0       ?type_case_c@?$output_processor@_WV?$string_output_adapter@_W@__crt_stdio_output@@V?$positional_parameter_base@_WV?$string_output_adapter@_W@__crt_stdio_output@@@2@@__crt_stdio_output@@AAE_NXZ 1005dca0 f i libucrtd:output.obj
 0001:0005ccc0       ?type_case_c@?$output_processor@_WV?$string_output_adapter@_W@__crt_stdio_output@@V?$standard_base@_WV?$string_output_adapter@_W@__crt_stdio_output@@@2@@__crt_stdio_output@@AAE_NXZ 1005dcc0 f i libucrtd:output.obj
 0001:0005cce0       ?type_case_c_tchar@?$output_processor@DV?$stream_output_adapter@D@__crt_stdio_output@@V?$format_validation_base@DV?$stream_output_adapter@D@__crt_stdio_output@@@2@@__crt_stdio_output@@AAE_ND@Z 1005dce0 f i libucrtd:output.obj
 0001:0005cdf0       ?type_case_c_tchar@?$output_processor@DV?$stream_output_adapter@D@__crt_stdio_output@@V?$positional_parameter_base@DV?$stream_output_adapter@D@__crt_stdio_output@@@2@@__crt_stdio_output@@AAE_ND@Z 1005ddf0 f i libucrtd:output.obj
 0001:0005cf00       ?type_case_c_tchar@?$output_processor@DV?$stream_output_adapter@D@__crt_stdio_output@@V?$standard_base@DV?$stream_output_adapter@D@__crt_stdio_output@@@2@@__crt_stdio_output@@AAE_ND@Z 1005df00 f i libucrtd:output.obj
 0001:0005d010       ?type_case_c_tchar@?$output_processor@DV?$string_output_adapter@D@__crt_stdio_output@@V?$format_validation_base@DV?$string_output_adapter@D@__crt_stdio_output@@@2@@__crt_stdio_output@@AAE_ND@Z 1005e010 f i libucrtd:output.obj
 0001:0005d120       ?type_case_c_tchar@?$output_processor@DV?$string_output_adapter@D@__crt_stdio_output@@V?$positional_parameter_base@DV?$string_output_adapter@D@__crt_stdio_output@@@2@@__crt_stdio_output@@AAE_ND@Z 1005e120 f i libucrtd:output.obj
 0001:0005d230       ?type_case_c_tchar@?$output_processor@DV?$string_output_adapter@D@__crt_stdio_output@@V?$standard_base@DV?$string_output_adapter@D@__crt_stdio_output@@@2@@__crt_stdio_output@@AAE_ND@Z 1005e230 f i libucrtd:output.obj
 0001:0005d340       ?type_case_c_tchar@?$output_processor@_WV?$stream_output_adapter@_W@__crt_stdio_output@@V?$format_validation_base@_WV?$stream_output_adapter@_W@__crt_stdio_output@@@2@@__crt_stdio_output@@AAE_N_W@Z 1005e340 f i libucrtd:output.obj
 0001:0005d440       ?type_case_c_tchar@?$output_processor@_WV?$stream_output_adapter@_W@__crt_stdio_output@@V?$positional_parameter_base@_WV?$stream_output_adapter@_W@__crt_stdio_output@@@2@@__crt_stdio_output@@AAE_N_W@Z 1005e440 f i libucrtd:output.obj
 0001:0005d540       ?type_case_c_tchar@?$output_processor@_WV?$stream_output_adapter@_W@__crt_stdio_output@@V?$standard_base@_WV?$stream_output_adapter@_W@__crt_stdio_output@@@2@@__crt_stdio_output@@AAE_N_W@Z 1005e540 f i libucrtd:output.obj
 0001:0005d640       ?type_case_c_tchar@?$output_processor@_WV?$string_output_adapter@_W@__crt_stdio_output@@V?$format_validation_base@_WV?$string_output_adapter@_W@__crt_stdio_output@@@2@@__crt_stdio_output@@AAE_N_W@Z 1005e640 f i libucrtd:output.obj
 0001:0005d740       ?type_case_c_tchar@?$output_processor@_WV?$string_output_adapter@_W@__crt_stdio_output@@V?$positional_parameter_base@_WV?$string_output_adapter@_W@__crt_stdio_output@@@2@@__crt_stdio_output@@AAE_N_W@Z 1005e740 f i libucrtd:output.obj
 0001:0005d840       ?type_case_c_tchar@?$output_processor@_WV?$string_output_adapter@_W@__crt_stdio_output@@V?$standard_base@_WV?$string_output_adapter@_W@__crt_stdio_output@@@2@@__crt_stdio_output@@AAE_N_W@Z 1005e840 f i libucrtd:output.obj
 0001:0005d940       ?type_case_d@?$output_processor@DV?$stream_output_adapter@D@__crt_stdio_output@@V?$format_validation_base@DV?$stream_output_adapter@D@__crt_stdio_output@@@2@@__crt_stdio_output@@AAE_NXZ 1005e940 f i libucrtd:output.obj
 0001:0005d970       ?type_case_d@?$output_processor@DV?$stream_output_adapter@D@__crt_stdio_output@@V?$positional_parameter_base@DV?$stream_output_adapter@D@__crt_stdio_output@@@2@@__crt_stdio_output@@AAE_NXZ 1005e970 f i libucrtd:output.obj
 0001:0005d9a0       ?type_case_d@?$output_processor@DV?$stream_output_adapter@D@__crt_stdio_output@@V?$standard_base@DV?$stream_output_adapter@D@__crt_stdio_output@@@2@@__crt_stdio_output@@AAE_NXZ 1005e9a0 f i libucrtd:output.obj
 0001:0005d9d0       ?type_case_d@?$output_processor@DV?$string_output_adapter@D@__crt_stdio_output@@V?$format_validation_base@DV?$string_output_adapter@D@__crt_stdio_output@@@2@@__crt_stdio_output@@AAE_NXZ 1005e9d0 f i libucrtd:output.obj
 0001:0005da00       ?type_case_d@?$output_processor@DV?$string_output_adapter@D@__crt_stdio_output@@V?$positional_parameter_base@DV?$string_output_adapter@D@__crt_stdio_output@@@2@@__crt_stdio_output@@AAE_NXZ 1005ea00 f i libucrtd:output.obj
 0001:0005da30       ?type_case_d@?$output_processor@DV?$string_output_adapter@D@__crt_stdio_output@@V?$standard_base@DV?$string_output_adapter@D@__crt_stdio_output@@@2@@__crt_stdio_output@@AAE_NXZ 1005ea30 f i libucrtd:output.obj
 0001:0005da60       ?type_case_d@?$output_processor@_WV?$stream_output_adapter@_W@__crt_stdio_output@@V?$format_validation_base@_WV?$stream_output_adapter@_W@__crt_stdio_output@@@2@@__crt_stdio_output@@AAE_NXZ 1005ea60 f i libucrtd:output.obj
 0001:0005da90       ?type_case_d@?$output_processor@_WV?$stream_output_adapter@_W@__crt_stdio_output@@V?$positional_parameter_base@_WV?$stream_output_adapter@_W@__crt_stdio_output@@@2@@__crt_stdio_output@@AAE_NXZ 1005ea90 f i libucrtd:output.obj
 0001:0005dac0       ?type_case_d@?$output_processor@_WV?$stream_output_adapter@_W@__crt_stdio_output@@V?$standard_base@_WV?$stream_output_adapter@_W@__crt_stdio_output@@@2@@__crt_stdio_output@@AAE_NXZ 1005eac0 f i libucrtd:output.obj
 0001:0005daf0       ?type_case_d@?$output_processor@_WV?$string_output_adapter@_W@__crt_stdio_output@@V?$format_validation_base@_WV?$string_output_adapter@_W@__crt_stdio_output@@@2@@__crt_stdio_output@@AAE_NXZ 1005eaf0 f i libucrtd:output.obj
 0001:0005db20       ?type_case_d@?$output_processor@_WV?$string_output_adapter@_W@__crt_stdio_output@@V?$positional_parameter_base@_WV?$string_output_adapter@_W@__crt_stdio_output@@@2@@__crt_stdio_output@@AAE_NXZ 1005eb20 f i libucrtd:output.obj
 0001:0005db50       ?type_case_d@?$output_processor@_WV?$string_output_adapter@_W@__crt_stdio_output@@V?$standard_base@_WV?$string_output_adapter@_W@__crt_stdio_output@@@2@@__crt_stdio_output@@AAE_NXZ 1005eb50 f i libucrtd:output.obj
 0001:0005db80       ?type_case_integer@?$output_processor@DV?$stream_output_adapter@D@__crt_stdio_output@@V?$format_validation_base@DV?$stream_output_adapter@D@__crt_stdio_output@@@2@@__crt_stdio_output@@AAE_NI_N@Z 1005eb80 f i libucrtd:output.obj
 0001:0005ded0       ?type_case_integer@?$output_processor@DV?$stream_output_adapter@D@__crt_stdio_output@@V?$positional_parameter_base@DV?$stream_output_adapter@D@__crt_stdio_output@@@2@@__crt_stdio_output@@AAE_NI_N@Z 1005eed0 f i libucrtd:output.obj
 0001:0005e220       ?type_case_integer@?$output_processor@DV?$stream_output_adapter@D@__crt_stdio_output@@V?$standard_base@DV?$stream_output_adapter@D@__crt_stdio_output@@@2@@__crt_stdio_output@@AAE_NI_N@Z 1005f220 f i libucrtd:output.obj
 0001:0005e570       ?type_case_integer@?$output_processor@DV?$string_output_adapter@D@__crt_stdio_output@@V?$format_validation_base@DV?$string_output_adapter@D@__crt_stdio_output@@@2@@__crt_stdio_output@@AAE_NI_N@Z 1005f570 f i libucrtd:output.obj
 0001:0005e8c0       ?type_case_integer@?$output_processor@DV?$string_output_adapter@D@__crt_stdio_output@@V?$positional_parameter_base@DV?$string_output_adapter@D@__crt_stdio_output@@@2@@__crt_stdio_output@@AAE_NI_N@Z 1005f8c0 f i libucrtd:output.obj
 0001:0005ec10       ?type_case_integer@?$output_processor@DV?$string_output_adapter@D@__crt_stdio_output@@V?$standard_base@DV?$string_output_adapter@D@__crt_stdio_output@@@2@@__crt_stdio_output@@AAE_NI_N@Z 1005fc10 f i libucrtd:output.obj
 0001:0005ef60       ?type_case_integer@?$output_processor@_WV?$stream_output_adapter@_W@__crt_stdio_output@@V?$format_validation_base@_WV?$stream_output_adapter@_W@__crt_stdio_output@@@2@@__crt_stdio_output@@AAE_NI_N@Z 1005ff60 f i libucrtd:output.obj
 0001:0005f2b0       ?type_case_integer@?$output_processor@_WV?$stream_output_adapter@_W@__crt_stdio_output@@V?$positional_parameter_base@_WV?$stream_output_adapter@_W@__crt_stdio_output@@@2@@__crt_stdio_output@@AAE_NI_N@Z 100602b0 f i libucrtd:output.obj
 0001:0005f600       ?type_case_integer@?$output_processor@_WV?$stream_output_adapter@_W@__crt_stdio_output@@V?$standard_base@_WV?$stream_output_adapter@_W@__crt_stdio_output@@@2@@__crt_stdio_output@@AAE_NI_N@Z 10060600 f i libucrtd:output.obj
 0001:0005f950       ?type_case_integer@?$output_processor@_WV?$string_output_adapter@_W@__crt_stdio_output@@V?$format_validation_base@_WV?$string_output_adapter@_W@__crt_stdio_output@@@2@@__crt_stdio_output@@AAE_NI_N@Z 10060950 f i libucrtd:output.obj
 0001:0005fca0       ?type_case_integer@?$output_processor@_WV?$string_output_adapter@_W@__crt_stdio_output@@V?$positional_parameter_base@_WV?$string_output_adapter@_W@__crt_stdio_output@@@2@@__crt_stdio_output@@AAE_NI_N@Z 10060ca0 f i libucrtd:output.obj
 0001:0005fff0       ?type_case_integer@?$output_processor@_WV?$string_output_adapter@_W@__crt_stdio_output@@V?$standard_base@_WV?$string_output_adapter@_W@__crt_stdio_output@@@2@@__crt_stdio_output@@AAE_NI_N@Z 10060ff0 f i libucrtd:output.obj
 0001:00060340       ?type_case_n@?$output_processor@DV?$stream_output_adapter@D@__crt_stdio_output@@V?$format_validation_base@DV?$stream_output_adapter@D@__crt_stdio_output@@@2@@__crt_stdio_output@@AAE_NXZ 10061340 f i libucrtd:output.obj
 0001:00060530       ?type_case_n@?$output_processor@DV?$stream_output_adapter@D@__crt_stdio_output@@V?$positional_parameter_base@DV?$stream_output_adapter@D@__crt_stdio_output@@@2@@__crt_stdio_output@@AAE_NXZ 10061530 f i libucrtd:output.obj
 0001:00060720       ?type_case_n@?$output_processor@DV?$stream_output_adapter@D@__crt_stdio_output@@V?$standard_base@DV?$stream_output_adapter@D@__crt_stdio_output@@@2@@__crt_stdio_output@@AAE_NXZ 10061720 f i libucrtd:output.obj
 0001:00060910       ?type_case_n@?$output_processor@DV?$string_output_adapter@D@__crt_stdio_output@@V?$format_validation_base@DV?$string_output_adapter@D@__crt_stdio_output@@@2@@__crt_stdio_output@@AAE_NXZ 10061910 f i libucrtd:output.obj
 0001:00060b00       ?type_case_n@?$output_processor@DV?$string_output_adapter@D@__crt_stdio_output@@V?$positional_parameter_base@DV?$string_output_adapter@D@__crt_stdio_output@@@2@@__crt_stdio_output@@AAE_NXZ 10061b00 f i libucrtd:output.obj
 0001:00060cf0       ?type_case_n@?$output_processor@DV?$string_output_adapter@D@__crt_stdio_output@@V?$standard_base@DV?$string_output_adapter@D@__crt_stdio_output@@@2@@__crt_stdio_output@@AAE_NXZ 10061cf0 f i libucrtd:output.obj
 0001:00060ee0       ?type_case_n@?$output_processor@_WV?$stream_output_adapter@_W@__crt_stdio_output@@V?$format_validation_base@_WV?$stream_output_adapter@_W@__crt_stdio_output@@@2@@__crt_stdio_output@@AAE_NXZ 10061ee0 f i libucrtd:output.obj
 0001:000610d0       ?type_case_n@?$output_processor@_WV?$stream_output_adapter@_W@__crt_stdio_output@@V?$positional_parameter_base@_WV?$stream_output_adapter@_W@__crt_stdio_output@@@2@@__crt_stdio_output@@AAE_NXZ 100620d0 f i libucrtd:output.obj
 0001:000612c0       ?type_case_n@?$output_processor@_WV?$stream_output_adapter@_W@__crt_stdio_output@@V?$standard_base@_WV?$stream_output_adapter@_W@__crt_stdio_output@@@2@@__crt_stdio_output@@AAE_NXZ 100622c0 f i libucrtd:output.obj
 0001:000614b0       ?type_case_n@?$output_processor@_WV?$string_output_adapter@_W@__crt_stdio_output@@V?$format_validation_base@_WV?$string_output_adapter@_W@__crt_stdio_output@@@2@@__crt_stdio_output@@AAE_NXZ 100624b0 f i libucrtd:output.obj
 0001:000616a0       ?type_case_n@?$output_processor@_WV?$string_output_adapter@_W@__crt_stdio_output@@V?$positional_parameter_base@_WV?$string_output_adapter@_W@__crt_stdio_output@@@2@@__crt_stdio_output@@AAE_NXZ 100626a0 f i libucrtd:output.obj
 0001:00061890       ?type_case_n@?$output_processor@_WV?$string_output_adapter@_W@__crt_stdio_output@@V?$standard_base@_WV?$string_output_adapter@_W@__crt_stdio_output@@@2@@__crt_stdio_output@@AAE_NXZ 10062890 f i libucrtd:output.obj
 0001:00061a80       ?type_case_o@?$output_processor@DV?$stream_output_adapter@D@__crt_stdio_output@@V?$format_validation_base@DV?$stream_output_adapter@D@__crt_stdio_output@@@2@@__crt_stdio_output@@AAE_NXZ 10062a80 f i libucrtd:output.obj
 0001:00061ac0       ?type_case_o@?$output_processor@DV?$stream_output_adapter@D@__crt_stdio_output@@V?$positional_parameter_base@DV?$stream_output_adapter@D@__crt_stdio_output@@@2@@__crt_stdio_output@@AAE_NXZ 10062ac0 f i libucrtd:output.obj
 0001:00061b00       ?type_case_o@?$output_processor@DV?$stream_output_adapter@D@__crt_stdio_output@@V?$standard_base@DV?$stream_output_adapter@D@__crt_stdio_output@@@2@@__crt_stdio_output@@AAE_NXZ 10062b00 f i libucrtd:output.obj
 0001:00061b40       ?type_case_o@?$output_processor@DV?$string_output_adapter@D@__crt_stdio_output@@V?$format_validation_base@DV?$string_output_adapter@D@__crt_stdio_output@@@2@@__crt_stdio_output@@AAE_NXZ 10062b40 f i libucrtd:output.obj
 0001:00061b80       ?type_case_o@?$output_processor@DV?$string_output_adapter@D@__crt_stdio_output@@V?$positional_parameter_base@DV?$string_output_adapter@D@__crt_stdio_output@@@2@@__crt_stdio_output@@AAE_NXZ 10062b80 f i libucrtd:output.obj
 0001:00061bc0       ?type_case_o@?$output_processor@DV?$string_output_adapter@D@__crt_stdio_output@@V?$standard_base@DV?$string_output_adapter@D@__crt_stdio_output@@@2@@__crt_stdio_output@@AAE_NXZ 10062bc0 f i libucrtd:output.obj
 0001:00061c00       ?type_case_o@?$output_processor@_WV?$stream_output_adapter@_W@__crt_stdio_output@@V?$format_validation_base@_WV?$stream_output_adapter@_W@__crt_stdio_output@@@2@@__crt_stdio_output@@AAE_NXZ 10062c00 f i libucrtd:output.obj
 0001:00061c40       ?type_case_o@?$output_processor@_WV?$stream_output_adapter@_W@__crt_stdio_output@@V?$positional_parameter_base@_WV?$stream_output_adapter@_W@__crt_stdio_output@@@2@@__crt_stdio_output@@AAE_NXZ 10062c40 f i libucrtd:output.obj
 0001:00061c80       ?type_case_o@?$output_processor@_WV?$stream_output_adapter@_W@__crt_stdio_output@@V?$standard_base@_WV?$stream_output_adapter@_W@__crt_stdio_output@@@2@@__crt_stdio_output@@AAE_NXZ 10062c80 f i libucrtd:output.obj
 0001:00061cc0       ?type_case_o@?$output_processor@_WV?$string_output_adapter@_W@__crt_stdio_output@@V?$format_validation_base@_WV?$string_output_adapter@_W@__crt_stdio_output@@@2@@__crt_stdio_output@@AAE_NXZ 10062cc0 f i libucrtd:output.obj
 0001:00061d00       ?type_case_o@?$output_processor@_WV?$string_output_adapter@_W@__crt_stdio_output@@V?$positional_parameter_base@_WV?$string_output_adapter@_W@__crt_stdio_output@@@2@@__crt_stdio_output@@AAE_NXZ 10062d00 f i libucrtd:output.obj
 0001:00061d40       ?type_case_o@?$output_processor@_WV?$string_output_adapter@_W@__crt_stdio_output@@V?$standard_base@_WV?$string_output_adapter@_W@__crt_stdio_output@@@2@@__crt_stdio_output@@AAE_NXZ 10062d40 f i libucrtd:output.obj
 0001:00061d80       ?type_case_p@?$output_processor@DV?$stream_output_adapter@D@__crt_stdio_output@@V?$format_validation_base@DV?$stream_output_adapter@D@__crt_stdio_output@@@2@@__crt_stdio_output@@AAE_NXZ 10062d80 f i libucrtd:output.obj
 0001:00061db0       ?type_case_p@?$output_processor@DV?$stream_output_adapter@D@__crt_stdio_output@@V?$positional_parameter_base@DV?$stream_output_adapter@D@__crt_stdio_output@@@2@@__crt_stdio_output@@AAE_NXZ 10062db0 f i libucrtd:output.obj
 0001:00061de0       ?type_case_p@?$output_processor@DV?$stream_output_adapter@D@__crt_stdio_output@@V?$standard_base@DV?$stream_output_adapter@D@__crt_stdio_output@@@2@@__crt_stdio_output@@AAE_NXZ 10062de0 f i libucrtd:output.obj
 0001:00061e10       ?type_case_p@?$output_processor@DV?$string_output_adapter@D@__crt_stdio_output@@V?$format_validation_base@DV?$string_output_adapter@D@__crt_stdio_output@@@2@@__crt_stdio_output@@AAE_NXZ 10062e10 f i libucrtd:output.obj
 0001:00061e40       ?type_case_p@?$output_processor@DV?$string_output_adapter@D@__crt_stdio_output@@V?$positional_parameter_base@DV?$string_output_adapter@D@__crt_stdio_output@@@2@@__crt_stdio_output@@AAE_NXZ 10062e40 f i libucrtd:output.obj
 0001:00061e70       ?type_case_p@?$output_processor@DV?$string_output_adapter@D@__crt_stdio_output@@V?$standard_base@DV?$string_output_adapter@D@__crt_stdio_output@@@2@@__crt_stdio_output@@AAE_NXZ 10062e70 f i libucrtd:output.obj
 0001:00061ea0       ?type_case_p@?$output_processor@_WV?$stream_output_adapter@_W@__crt_stdio_output@@V?$format_validation_base@_WV?$stream_output_adapter@_W@__crt_stdio_output@@@2@@__crt_stdio_output@@AAE_NXZ 10062ea0 f i libucrtd:output.obj
 0001:00061ed0       ?type_case_p@?$output_processor@_WV?$stream_output_adapter@_W@__crt_stdio_output@@V?$positional_parameter_base@_WV?$stream_output_adapter@_W@__crt_stdio_output@@@2@@__crt_stdio_output@@AAE_NXZ 10062ed0 f i libucrtd:output.obj
 0001:00061f00       ?type_case_p@?$output_processor@_WV?$stream_output_adapter@_W@__crt_stdio_output@@V?$standard_base@_WV?$stream_output_adapter@_W@__crt_stdio_output@@@2@@__crt_stdio_output@@AAE_NXZ 10062f00 f i libucrtd:output.obj
 0001:00061f30       ?type_case_p@?$output_processor@_WV?$string_output_adapter@_W@__crt_stdio_output@@V?$format_validation_base@_WV?$string_output_adapter@_W@__crt_stdio_output@@@2@@__crt_stdio_output@@AAE_NXZ 10062f30 f i libucrtd:output.obj
 0001:00061f60       ?type_case_p@?$output_processor@_WV?$string_output_adapter@_W@__crt_stdio_output@@V?$positional_parameter_base@_WV?$string_output_adapter@_W@__crt_stdio_output@@@2@@__crt_stdio_output@@AAE_NXZ 10062f60 f i libucrtd:output.obj
 0001:00061f90       ?type_case_p@?$output_processor@_WV?$string_output_adapter@_W@__crt_stdio_output@@V?$standard_base@_WV?$string_output_adapter@_W@__crt_stdio_output@@@2@@__crt_stdio_output@@AAE_NXZ 10062f90 f i libucrtd:output.obj
 0001:00061fc0       ?type_case_s@?$output_processor@DV?$stream_output_adapter@D@__crt_stdio_output@@V?$format_validation_base@DV?$stream_output_adapter@D@__crt_stdio_output@@@2@@__crt_stdio_output@@AAE_NXZ 10062fc0 f i libucrtd:output.obj
 0001:000620b0       ?type_case_s@?$output_processor@DV?$stream_output_adapter@D@__crt_stdio_output@@V?$positional_parameter_base@DV?$stream_output_adapter@D@__crt_stdio_output@@@2@@__crt_stdio_output@@AAE_NXZ 100630b0 f i libucrtd:output.obj
 0001:000621a0       ?type_case_s@?$output_processor@DV?$stream_output_adapter@D@__crt_stdio_output@@V?$standard_base@DV?$stream_output_adapter@D@__crt_stdio_output@@@2@@__crt_stdio_output@@AAE_NXZ 100631a0 f i libucrtd:output.obj
 0001:00062290       ?type_case_s@?$output_processor@DV?$string_output_adapter@D@__crt_stdio_output@@V?$format_validation_base@DV?$string_output_adapter@D@__crt_stdio_output@@@2@@__crt_stdio_output@@AAE_NXZ 10063290 f i libucrtd:output.obj
 0001:00062380       ?type_case_s@?$output_processor@DV?$string_output_adapter@D@__crt_stdio_output@@V?$positional_parameter_base@DV?$string_output_adapter@D@__crt_stdio_output@@@2@@__crt_stdio_output@@AAE_NXZ 10063380 f i libucrtd:output.obj
 0001:00062470       ?type_case_s@?$output_processor@DV?$string_output_adapter@D@__crt_stdio_output@@V?$standard_base@DV?$string_output_adapter@D@__crt_stdio_output@@@2@@__crt_stdio_output@@AAE_NXZ 10063470 f i libucrtd:output.obj
 0001:00062560       ?type_case_s@?$output_processor@_WV?$stream_output_adapter@_W@__crt_stdio_output@@V?$format_validation_base@_WV?$stream_output_adapter@_W@__crt_stdio_output@@@2@@__crt_stdio_output@@AAE_NXZ 10063560 f i libucrtd:output.obj
 0001:00062650       ?type_case_s@?$output_processor@_WV?$stream_output_adapter@_W@__crt_stdio_output@@V?$positional_parameter_base@_WV?$stream_output_adapter@_W@__crt_stdio_output@@@2@@__crt_stdio_output@@AAE_NXZ 10063650 f i libucrtd:output.obj
 0001:00062740       ?type_case_s@?$output_processor@_WV?$stream_output_adapter@_W@__crt_stdio_output@@V?$standard_base@_WV?$stream_output_adapter@_W@__crt_stdio_output@@@2@@__crt_stdio_output@@AAE_NXZ 10063740 f i libucrtd:output.obj
 0001:00062830       ?type_case_s@?$output_processor@_WV?$string_output_adapter@_W@__crt_stdio_output@@V?$format_validation_base@_WV?$string_output_adapter@_W@__crt_stdio_output@@@2@@__crt_stdio_output@@AAE_NXZ 10063830 f i libucrtd:output.obj
 0001:00062920       ?type_case_s@?$output_processor@_WV?$string_output_adapter@_W@__crt_stdio_output@@V?$positional_parameter_base@_WV?$string_output_adapter@_W@__crt_stdio_output@@@2@@__crt_stdio_output@@AAE_NXZ 10063920 f i libucrtd:output.obj
 0001:00062a10       ?type_case_s@?$output_processor@_WV?$string_output_adapter@_W@__crt_stdio_output@@V?$standard_base@_WV?$string_output_adapter@_W@__crt_stdio_output@@@2@@__crt_stdio_output@@AAE_NXZ 10063a10 f i libucrtd:output.obj
 0001:00062b00       ?type_case_s_compute_narrow_string_length@?$output_processor@DV?$stream_output_adapter@D@__crt_stdio_output@@V?$format_validation_base@DV?$stream_output_adapter@D@__crt_stdio_output@@@2@@__crt_stdio_output@@ABEHHD@Z 10063b00 f i libucrtd:output.obj
 0001:00062b30       ?type_case_s_compute_narrow_string_length@?$output_processor@DV?$stream_output_adapter@D@__crt_stdio_output@@V?$positional_parameter_base@DV?$stream_output_adapter@D@__crt_stdio_output@@@2@@__crt_stdio_output@@ABEHHD@Z 10063b30 f i libucrtd:output.obj
 0001:00062b60       ?type_case_s_compute_narrow_string_length@?$output_processor@DV?$stream_output_adapter@D@__crt_stdio_output@@V?$standard_base@DV?$stream_output_adapter@D@__crt_stdio_output@@@2@@__crt_stdio_output@@ABEHHD@Z 10063b60 f i libucrtd:output.obj
 0001:00062b90       ?type_case_s_compute_narrow_string_length@?$output_processor@DV?$string_output_adapter@D@__crt_stdio_output@@V?$format_validation_base@DV?$string_output_adapter@D@__crt_stdio_output@@@2@@__crt_stdio_output@@ABEHHD@Z 10063b90 f i libucrtd:output.obj
 0001:00062bc0       ?type_case_s_compute_narrow_string_length@?$output_processor@DV?$string_output_adapter@D@__crt_stdio_output@@V?$positional_parameter_base@DV?$string_output_adapter@D@__crt_stdio_output@@@2@@__crt_stdio_output@@ABEHHD@Z 10063bc0 f i libucrtd:output.obj
 0001:00062bf0       ?type_case_s_compute_narrow_string_length@?$output_processor@DV?$string_output_adapter@D@__crt_stdio_output@@V?$standard_base@DV?$string_output_adapter@D@__crt_stdio_output@@@2@@__crt_stdio_output@@ABEHHD@Z 10063bf0 f i libucrtd:output.obj
 0001:00062c20       ?type_case_s_compute_narrow_string_length@?$output_processor@_WV?$stream_output_adapter@_W@__crt_stdio_output@@V?$format_validation_base@_WV?$stream_output_adapter@_W@__crt_stdio_output@@@2@@__crt_stdio_output@@ABEHH_W@Z 10063c20 f i libucrtd:output.obj
 0001:00062c90       ?type_case_s_compute_narrow_string_length@?$output_processor@_WV?$stream_output_adapter@_W@__crt_stdio_output@@V?$positional_parameter_base@_WV?$stream_output_adapter@_W@__crt_stdio_output@@@2@@__crt_stdio_output@@ABEHH_W@Z 10063c90 f i libucrtd:output.obj
 0001:00062d00       ?type_case_s_compute_narrow_string_length@?$output_processor@_WV?$stream_output_adapter@_W@__crt_stdio_output@@V?$standard_base@_WV?$stream_output_adapter@_W@__crt_stdio_output@@@2@@__crt_stdio_output@@ABEHH_W@Z 10063d00 f i libucrtd:output.obj
 0001:00062d70       ?type_case_s_compute_narrow_string_length@?$output_processor@_WV?$string_output_adapter@_W@__crt_stdio_output@@V?$format_validation_base@_WV?$string_output_adapter@_W@__crt_stdio_output@@@2@@__crt_stdio_output@@ABEHH_W@Z 10063d70 f i libucrtd:output.obj
 0001:00062de0       ?type_case_s_compute_narrow_string_length@?$output_processor@_WV?$string_output_adapter@_W@__crt_stdio_output@@V?$positional_parameter_base@_WV?$string_output_adapter@_W@__crt_stdio_output@@@2@@__crt_stdio_output@@ABEHH_W@Z 10063de0 f i libucrtd:output.obj
 0001:00062e50       ?type_case_s_compute_narrow_string_length@?$output_processor@_WV?$string_output_adapter@_W@__crt_stdio_output@@V?$standard_base@_WV?$string_output_adapter@_W@__crt_stdio_output@@@2@@__crt_stdio_output@@ABEHH_W@Z 10063e50 f i libucrtd:output.obj
 0001:00062ec0       ?type_case_u@?$output_processor@DV?$stream_output_adapter@D@__crt_stdio_output@@V?$format_validation_base@DV?$stream_output_adapter@D@__crt_stdio_output@@@2@@__crt_stdio_output@@AAE_NXZ 10063ec0 f i libucrtd:output.obj
 0001:00062ee0       ?type_case_u@?$output_processor@DV?$stream_output_adapter@D@__crt_stdio_output@@V?$positional_parameter_base@DV?$stream_output_adapter@D@__crt_stdio_output@@@2@@__crt_stdio_output@@AAE_NXZ 10063ee0 f i libucrtd:output.obj
 0001:00062f00       ?type_case_u@?$output_processor@DV?$stream_output_adapter@D@__crt_stdio_output@@V?$standard_base@DV?$stream_output_adapter@D@__crt_stdio_output@@@2@@__crt_stdio_output@@AAE_NXZ 10063f00 f i libucrtd:output.obj
 0001:00062f20       ?type_case_u@?$output_processor@DV?$string_output_adapter@D@__crt_stdio_output@@V?$format_validation_base@DV?$string_output_adapter@D@__crt_stdio_output@@@2@@__crt_stdio_output@@AAE_NXZ 10063f20 f i libucrtd:output.obj
 0001:00062f40       ?type_case_u@?$output_processor@DV?$string_output_adapter@D@__crt_stdio_output@@V?$positional_parameter_base@DV?$string_output_adapter@D@__crt_stdio_output@@@2@@__crt_stdio_output@@AAE_NXZ 10063f40 f i libucrtd:output.obj
 0001:00062f60       ?type_case_u@?$output_processor@DV?$string_output_adapter@D@__crt_stdio_output@@V?$standard_base@DV?$string_output_adapter@D@__crt_stdio_output@@@2@@__crt_stdio_output@@AAE_NXZ 10063f60 f i libucrtd:output.obj
 0001:00062f80       ?type_case_u@?$output_processor@_WV?$stream_output_adapter@_W@__crt_stdio_output@@V?$format_validation_base@_WV?$stream_output_adapter@_W@__crt_stdio_output@@@2@@__crt_stdio_output@@AAE_NXZ 10063f80 f i libucrtd:output.obj
 0001:00062fa0       ?type_case_u@?$output_processor@_WV?$stream_output_adapter@_W@__crt_stdio_output@@V?$positional_parameter_base@_WV?$stream_output_adapter@_W@__crt_stdio_output@@@2@@__crt_stdio_output@@AAE_NXZ 10063fa0 f i libucrtd:output.obj
 0001:00062fc0       ?type_case_u@?$output_processor@_WV?$stream_output_adapter@_W@__crt_stdio_output@@V?$standard_base@_WV?$stream_output_adapter@_W@__crt_stdio_output@@@2@@__crt_stdio_output@@AAE_NXZ 10063fc0 f i libucrtd:output.obj
 0001:00062fe0       ?type_case_u@?$output_processor@_WV?$string_output_adapter@_W@__crt_stdio_output@@V?$format_validation_base@_WV?$string_output_adapter@_W@__crt_stdio_output@@@2@@__crt_stdio_output@@AAE_NXZ 10063fe0 f i libucrtd:output.obj
 0001:00063000       ?type_case_u@?$output_processor@_WV?$string_output_adapter@_W@__crt_stdio_output@@V?$positional_parameter_base@_WV?$string_output_adapter@_W@__crt_stdio_output@@@2@@__crt_stdio_output@@AAE_NXZ 10064000 f i libucrtd:output.obj
 0001:00063020       ?type_case_u@?$output_processor@_WV?$string_output_adapter@_W@__crt_stdio_output@@V?$standard_base@_WV?$string_output_adapter@_W@__crt_stdio_output@@@2@@__crt_stdio_output@@AAE_NXZ 10064020 f i libucrtd:output.obj
 0001:00063040       ?type_case_x@?$output_processor@DV?$stream_output_adapter@D@__crt_stdio_output@@V?$format_validation_base@DV?$stream_output_adapter@D@__crt_stdio_output@@@2@@__crt_stdio_output@@AAE_NXZ 10064040 f i libucrtd:output.obj
 0001:00063060       ?type_case_x@?$output_processor@DV?$stream_output_adapter@D@__crt_stdio_output@@V?$positional_parameter_base@DV?$stream_output_adapter@D@__crt_stdio_output@@@2@@__crt_stdio_output@@AAE_NXZ 10064060 f i libucrtd:output.obj
 0001:00063080       ?type_case_x@?$output_processor@DV?$stream_output_adapter@D@__crt_stdio_output@@V?$standard_base@DV?$stream_output_adapter@D@__crt_stdio_output@@@2@@__crt_stdio_output@@AAE_NXZ 10064080 f i libucrtd:output.obj
 0001:000630a0       ?type_case_x@?$output_processor@DV?$string_output_adapter@D@__crt_stdio_output@@V?$format_validation_base@DV?$string_output_adapter@D@__crt_stdio_output@@@2@@__crt_stdio_output@@AAE_NXZ 100640a0 f i libucrtd:output.obj
 0001:000630c0       ?type_case_x@?$output_processor@DV?$string_output_adapter@D@__crt_stdio_output@@V?$positional_parameter_base@DV?$string_output_adapter@D@__crt_stdio_output@@@2@@__crt_stdio_output@@AAE_NXZ 100640c0 f i libucrtd:output.obj
 0001:000630e0       ?type_case_x@?$output_processor@DV?$string_output_adapter@D@__crt_stdio_output@@V?$standard_base@DV?$string_output_adapter@D@__crt_stdio_output@@@2@@__crt_stdio_output@@AAE_NXZ 100640e0 f i libucrtd:output.obj
 0001:00063100       ?type_case_x@?$output_processor@_WV?$stream_output_adapter@_W@__crt_stdio_output@@V?$format_validation_base@_WV?$stream_output_adapter@_W@__crt_stdio_output@@@2@@__crt_stdio_output@@AAE_NXZ 10064100 f i libucrtd:output.obj
 0001:00063120       ?type_case_x@?$output_processor@_WV?$stream_output_adapter@_W@__crt_stdio_output@@V?$positional_parameter_base@_WV?$stream_output_adapter@_W@__crt_stdio_output@@@2@@__crt_stdio_output@@AAE_NXZ 10064120 f i libucrtd:output.obj
 0001:00063140       ?type_case_x@?$output_processor@_WV?$stream_output_adapter@_W@__crt_stdio_output@@V?$standard_base@_WV?$stream_output_adapter@_W@__crt_stdio_output@@@2@@__crt_stdio_output@@AAE_NXZ 10064140 f i libucrtd:output.obj
 0001:00063160       ?type_case_x@?$output_processor@_WV?$string_output_adapter@_W@__crt_stdio_output@@V?$format_validation_base@_WV?$string_output_adapter@_W@__crt_stdio_output@@@2@@__crt_stdio_output@@AAE_NXZ 10064160 f i libucrtd:output.obj
 0001:00063180       ?type_case_x@?$output_processor@_WV?$string_output_adapter@_W@__crt_stdio_output@@V?$positional_parameter_base@_WV?$string_output_adapter@_W@__crt_stdio_output@@@2@@__crt_stdio_output@@AAE_NXZ 10064180 f i libucrtd:output.obj
 0001:000631a0       ?type_case_x@?$output_processor@_WV?$string_output_adapter@_W@__crt_stdio_output@@V?$standard_base@_WV?$string_output_adapter@_W@__crt_stdio_output@@@2@@__crt_stdio_output@@AAE_NXZ 100641a0 f i libucrtd:output.obj
 0001:000631c0       ?unset_flag@?$output_processor@DV?$stream_output_adapter@D@__crt_stdio_output@@V?$format_validation_base@DV?$stream_output_adapter@D@__crt_stdio_output@@@2@@__crt_stdio_output@@AAEXI@Z 100641c0 f i libucrtd:output.obj
 0001:000631e0       ?unset_flag@?$output_processor@DV?$stream_output_adapter@D@__crt_stdio_output@@V?$positional_parameter_base@DV?$stream_output_adapter@D@__crt_stdio_output@@@2@@__crt_stdio_output@@AAEXI@Z 100641e0 f i libucrtd:output.obj
 0001:00063200       ?unset_flag@?$output_processor@DV?$stream_output_adapter@D@__crt_stdio_output@@V?$standard_base@DV?$stream_output_adapter@D@__crt_stdio_output@@@2@@__crt_stdio_output@@AAEXI@Z 10064200 f i libucrtd:output.obj
 0001:00063220       ?unset_flag@?$output_processor@DV?$string_output_adapter@D@__crt_stdio_output@@V?$format_validation_base@DV?$string_output_adapter@D@__crt_stdio_output@@@2@@__crt_stdio_output@@AAEXI@Z 10064220 f i libucrtd:output.obj
 0001:00063240       ?unset_flag@?$output_processor@DV?$string_output_adapter@D@__crt_stdio_output@@V?$positional_parameter_base@DV?$string_output_adapter@D@__crt_stdio_output@@@2@@__crt_stdio_output@@AAEXI@Z 10064240 f i libucrtd:output.obj
 0001:00063260       ?unset_flag@?$output_processor@DV?$string_output_adapter@D@__crt_stdio_output@@V?$standard_base@DV?$string_output_adapter@D@__crt_stdio_output@@@2@@__crt_stdio_output@@AAEXI@Z 10064260 f i libucrtd:output.obj
 0001:00063280       ?unset_flag@?$output_processor@_WV?$stream_output_adapter@_W@__crt_stdio_output@@V?$format_validation_base@_WV?$stream_output_adapter@_W@__crt_stdio_output@@@2@@__crt_stdio_output@@AAEXI@Z 10064280 f i libucrtd:output.obj
 0001:000632a0       ?unset_flag@?$output_processor@_WV?$stream_output_adapter@_W@__crt_stdio_output@@V?$positional_parameter_base@_WV?$stream_output_adapter@_W@__crt_stdio_output@@@2@@__crt_stdio_output@@AAEXI@Z 100642a0 f i libucrtd:output.obj
 0001:000632c0       ?unset_flag@?$output_processor@_WV?$stream_output_adapter@_W@__crt_stdio_output@@V?$standard_base@_WV?$stream_output_adapter@_W@__crt_stdio_output@@@2@@__crt_stdio_output@@AAEXI@Z 100642c0 f i libucrtd:output.obj
 0001:000632e0       ?unset_flag@?$output_processor@_WV?$string_output_adapter@_W@__crt_stdio_output@@V?$format_validation_base@_WV?$string_output_adapter@_W@__crt_stdio_output@@@2@@__crt_stdio_output@@AAEXI@Z 100642e0 f i libucrtd:output.obj
 0001:00063300       ?unset_flag@?$output_processor@_WV?$string_output_adapter@_W@__crt_stdio_output@@V?$positional_parameter_base@_WV?$string_output_adapter@_W@__crt_stdio_output@@@2@@__crt_stdio_output@@AAEXI@Z 10064300 f i libucrtd:output.obj
 0001:00063320       ?unset_flag@?$output_processor@_WV?$string_output_adapter@_W@__crt_stdio_output@@V?$standard_base@_WV?$string_output_adapter@_W@__crt_stdio_output@@@2@@__crt_stdio_output@@AAEXI@Z 10064320 f i libucrtd:output.obj
 0001:00063340       ?update_field_width@?$positional_parameter_base@DV?$stream_output_adapter@D@__crt_stdio_output@@@__crt_stdio_output@@IAE_NXZ 10064340 f i libucrtd:output.obj
 0001:000634c0       ?update_field_width@?$positional_parameter_base@DV?$string_output_adapter@D@__crt_stdio_output@@@__crt_stdio_output@@IAE_NXZ 100644c0 f i libucrtd:output.obj
 0001:00063640       ?update_field_width@?$positional_parameter_base@_WV?$stream_output_adapter@_W@__crt_stdio_output@@@__crt_stdio_output@@IAE_NXZ 10064640 f i libucrtd:output.obj
 0001:000637c0       ?update_field_width@?$positional_parameter_base@_WV?$string_output_adapter@_W@__crt_stdio_output@@@__crt_stdio_output@@IAE_NXZ 100647c0 f i libucrtd:output.obj
 0001:00063940       ?update_field_width@?$standard_base@DV?$stream_output_adapter@D@__crt_stdio_output@@@__crt_stdio_output@@IAE_NXZ 10064940 f i libucrtd:output.obj
 0001:00063970       ?update_field_width@?$standard_base@DV?$string_output_adapter@D@__crt_stdio_output@@@__crt_stdio_output@@IAE_NXZ 10064970 f i libucrtd:output.obj
 0001:000639a0       ?update_field_width@?$standard_base@_WV?$stream_output_adapter@_W@__crt_stdio_output@@@__crt_stdio_output@@IAE_NXZ 100649a0 f i libucrtd:output.obj
 0001:000639d0       ?update_field_width@?$standard_base@_WV?$string_output_adapter@_W@__crt_stdio_output@@@__crt_stdio_output@@IAE_NXZ 100649d0 f i libucrtd:output.obj
 0001:00063a00       ?update_precision@?$positional_parameter_base@DV?$stream_output_adapter@D@__crt_stdio_output@@@__crt_stdio_output@@IAE_NXZ 10064a00 f i libucrtd:output.obj
 0001:00063b80       ?update_precision@?$positional_parameter_base@DV?$string_output_adapter@D@__crt_stdio_output@@@__crt_stdio_output@@IAE_NXZ 10064b80 f i libucrtd:output.obj
 0001:00063d00       ?update_precision@?$positional_parameter_base@_WV?$stream_output_adapter@_W@__crt_stdio_output@@@__crt_stdio_output@@IAE_NXZ 10064d00 f i libucrtd:output.obj
 0001:00063e80       ?update_precision@?$positional_parameter_base@_WV?$string_output_adapter@_W@__crt_stdio_output@@@__crt_stdio_output@@IAE_NXZ 10064e80 f i libucrtd:output.obj
 0001:00064000       ?update_precision@?$standard_base@DV?$stream_output_adapter@D@__crt_stdio_output@@@__crt_stdio_output@@IAE_NXZ 10065000 f i libucrtd:output.obj
 0001:00064030       ?update_precision@?$standard_base@DV?$string_output_adapter@D@__crt_stdio_output@@@__crt_stdio_output@@IAE_NXZ 10065030 f i libucrtd:output.obj
 0001:00064060       ?update_precision@?$standard_base@_WV?$stream_output_adapter@_W@__crt_stdio_output@@@__crt_stdio_output@@IAE_NXZ 10065060 f i libucrtd:output.obj
 0001:00064090       ?update_precision@?$standard_base@_WV?$string_output_adapter@_W@__crt_stdio_output@@@__crt_stdio_output@@IAE_NXZ 10065090 f i libucrtd:output.obj
 0001:000640c0       ?valid@__crt_stdio_stream@@QBE_NXZ 100650c0 f i libucrtd:output.obj
 0001:000640f0       ?validate@?$stream_output_adapter@D@__crt_stdio_output@@QBE_NXZ 100650f0 f i libucrtd:output.obj
 0001:000641a0       ?validate@?$stream_output_adapter@_W@__crt_stdio_output@@QBE_NXZ 100651a0 f i libucrtd:output.obj
 0001:00064250       ?validate@?$string_output_adapter@D@__crt_stdio_output@@QBE_NXZ 10065250 f i libucrtd:output.obj
 0001:000642e0       ?validate@?$string_output_adapter@_W@__crt_stdio_output@@QBE_NXZ 100652e0 f i libucrtd:output.obj
 0001:00064370       ?validate_and_store_parameter_data@?$positional_parameter_base@DV?$stream_output_adapter@D@__crt_stdio_output@@@__crt_stdio_output@@AAE_NAAUparameter_data@12@W4parameter_type@12@DW4length_modifier@2@@Z 10065370 f i libucrtd:output.obj
 0001:00064440       ?validate_and_store_parameter_data@?$positional_parameter_base@DV?$string_output_adapter@D@__crt_stdio_output@@@__crt_stdio_output@@AAE_NAAUparameter_data@12@W4parameter_type@12@DW4length_modifier@2@@Z 10065440 f i libucrtd:output.obj
 0001:00064510       ?validate_and_store_parameter_data@?$positional_parameter_base@_WV?$stream_output_adapter@_W@__crt_stdio_output@@@__crt_stdio_output@@AAE_NAAUparameter_data@12@W4parameter_type@12@_WW4length_modifier@2@@Z 10065510 f i libucrtd:output.obj
 0001:000645f0       ?validate_and_store_parameter_data@?$positional_parameter_base@_WV?$string_output_adapter@_W@__crt_stdio_output@@@__crt_stdio_output@@AAE_NAAUparameter_data@12@W4parameter_type@12@_WW4length_modifier@2@@Z 100655f0 f i libucrtd:output.obj
 0001:000646d0       ?validate_and_update_state_at_beginning_of_format_character@?$positional_parameter_base@DV?$stream_output_adapter@D@__crt_stdio_output@@@__crt_stdio_output@@IAE_NXZ 100656d0 f i libucrtd:output.obj
 0001:000648f0       ?validate_and_update_state_at_beginning_of_format_character@?$positional_parameter_base@DV?$string_output_adapter@D@__crt_stdio_output@@@__crt_stdio_output@@IAE_NXZ 100658f0 f i libucrtd:output.obj
 0001:00064b10       ?validate_and_update_state_at_beginning_of_format_character@?$positional_parameter_base@_WV?$stream_output_adapter@_W@__crt_stdio_output@@@__crt_stdio_output@@IAE_NXZ 10065b10 f i libucrtd:output.obj
 0001:00064d30       ?validate_and_update_state_at_beginning_of_format_character@?$positional_parameter_base@_WV?$string_output_adapter@_W@__crt_stdio_output@@@__crt_stdio_output@@IAE_NXZ 10065d30 f i libucrtd:output.obj
 0001:00064f50       ?validate_and_update_state_at_beginning_of_format_character@?$standard_base@DV?$stream_output_adapter@D@__crt_stdio_output@@@__crt_stdio_output@@IAE_NXZ 10065f50 f i libucrtd:output.obj
 0001:00064f60       ?validate_and_update_state_at_beginning_of_format_character@?$standard_base@DV?$string_output_adapter@D@__crt_stdio_output@@@__crt_stdio_output@@IAE_NXZ 10065f60 f i libucrtd:output.obj
 0001:00064f70       ?validate_and_update_state_at_beginning_of_format_character@?$standard_base@_WV?$stream_output_adapter@_W@__crt_stdio_output@@@__crt_stdio_output@@IAE_NXZ 10065f70 f i libucrtd:output.obj
 0001:00064f80       ?validate_and_update_state_at_beginning_of_format_character@?$standard_base@_WV?$string_output_adapter@_W@__crt_stdio_output@@@__crt_stdio_output@@IAE_NXZ 10065f80 f i libucrtd:output.obj
 0001:00064f90       ?validate_and_update_state_at_end_of_format_string@?$format_validation_base@DV?$stream_output_adapter@D@__crt_stdio_output@@@__crt_stdio_output@@IBE_NXZ 10065f90 f i libucrtd:output.obj
 0001:00065030       ?validate_and_update_state_at_end_of_format_string@?$format_validation_base@DV?$string_output_adapter@D@__crt_stdio_output@@@__crt_stdio_output@@IBE_NXZ 10066030 f i libucrtd:output.obj
 0001:000650d0       ?validate_and_update_state_at_end_of_format_string@?$format_validation_base@_WV?$stream_output_adapter@_W@__crt_stdio_output@@@__crt_stdio_output@@IBE_NXZ 100660d0 f i libucrtd:output.obj
 0001:00065170       ?validate_and_update_state_at_end_of_format_string@?$format_validation_base@_WV?$string_output_adapter@_W@__crt_stdio_output@@@__crt_stdio_output@@IBE_NXZ 10066170 f i libucrtd:output.obj
 0001:00065210       ?validate_and_update_state_at_end_of_format_string@?$positional_parameter_base@DV?$stream_output_adapter@D@__crt_stdio_output@@@__crt_stdio_output@@IAE_NXZ 10066210 f i libucrtd:output.obj
 0001:000653b0       ?validate_and_update_state_at_end_of_format_string@?$positional_parameter_base@DV?$string_output_adapter@D@__crt_stdio_output@@@__crt_stdio_output@@IAE_NXZ 100663b0 f i libucrtd:output.obj
 0001:00065550       ?validate_and_update_state_at_end_of_format_string@?$positional_parameter_base@_WV?$stream_output_adapter@_W@__crt_stdio_output@@@__crt_stdio_output@@IAE_NXZ 10066550 f i libucrtd:output.obj
 0001:000656f0       ?validate_and_update_state_at_end_of_format_string@?$positional_parameter_base@_WV?$string_output_adapter@_W@__crt_stdio_output@@@__crt_stdio_output@@IAE_NXZ 100666f0 f i libucrtd:output.obj
 0001:00065890       ?validate_and_update_state_at_end_of_format_string@?$standard_base@DV?$stream_output_adapter@D@__crt_stdio_output@@@__crt_stdio_output@@IBE_NXZ 10066890 f i libucrtd:output.obj
 0001:000658a0       ?validate_and_update_state_at_end_of_format_string@?$standard_base@DV?$string_output_adapter@D@__crt_stdio_output@@@__crt_stdio_output@@IBE_NXZ 100668a0 f i libucrtd:output.obj
 0001:000658b0       ?validate_and_update_state_at_end_of_format_string@?$standard_base@_WV?$stream_output_adapter@_W@__crt_stdio_output@@@__crt_stdio_output@@IBE_NXZ 100668b0 f i libucrtd:output.obj
 0001:000658c0       ?validate_and_update_state_at_end_of_format_string@?$standard_base@_WV?$string_output_adapter@_W@__crt_stdio_output@@@__crt_stdio_output@@IBE_NXZ 100668c0 f i libucrtd:output.obj
 0001:000658d0       ?validate_state_for_type_case_a@?$positional_parameter_base@DV?$stream_output_adapter@D@__crt_stdio_output@@@__crt_stdio_output@@IAE_NXZ 100668d0 f i libucrtd:output.obj
 0001:000659c0       ?validate_state_for_type_case_a@?$positional_parameter_base@DV?$string_output_adapter@D@__crt_stdio_output@@@__crt_stdio_output@@IAE_NXZ 100669c0 f i libucrtd:output.obj
 0001:00065ab0       ?validate_state_for_type_case_a@?$positional_parameter_base@_WV?$stream_output_adapter@_W@__crt_stdio_output@@@__crt_stdio_output@@IAE_NXZ 10066ab0 f i libucrtd:output.obj
 0001:00065ba0       ?validate_state_for_type_case_a@?$positional_parameter_base@_WV?$string_output_adapter@_W@__crt_stdio_output@@@__crt_stdio_output@@IAE_NXZ 10066ba0 f i libucrtd:output.obj
 0001:00065c90       ?validate_state_for_type_case_a@?$standard_base@DV?$stream_output_adapter@D@__crt_stdio_output@@@__crt_stdio_output@@IBE_NXZ 10066c90 f i libucrtd:output.obj
 0001:00065ca0       ?validate_state_for_type_case_a@?$standard_base@DV?$string_output_adapter@D@__crt_stdio_output@@@__crt_stdio_output@@IBE_NXZ 10066ca0 f i libucrtd:output.obj
 0001:00065cb0       ?validate_state_for_type_case_a@?$standard_base@_WV?$stream_output_adapter@_W@__crt_stdio_output@@@__crt_stdio_output@@IBE_NXZ 10066cb0 f i libucrtd:output.obj
 0001:00065cc0       ?validate_state_for_type_case_a@?$standard_base@_WV?$string_output_adapter@_W@__crt_stdio_output@@@__crt_stdio_output@@IBE_NXZ 10066cc0 f i libucrtd:output.obj
 0001:00065cd0       ?validate_stream_is_ansi_if_required@?$__acrt_stdio_char_traits@D@@SA_NQAU_iobuf@@@Z 10066cd0 f i libucrtd:output.obj
 0001:00065e00       ?validate_stream_is_ansi_if_required@?$__acrt_stdio_char_traits@_W@@SA_NQAU_iobuf@@@Z 10066e00 f i libucrtd:output.obj
 0001:00065e10       ?wide_null_string@?$output_processor@DV?$stream_output_adapter@D@__crt_stdio_output@@V?$format_validation_base@DV?$stream_output_adapter@D@__crt_stdio_output@@@2@@__crt_stdio_output@@CAPA_WXZ 10066e10 f i libucrtd:output.obj
 0001:00065e20       ?wide_null_string@?$output_processor@DV?$stream_output_adapter@D@__crt_stdio_output@@V?$positional_parameter_base@DV?$stream_output_adapter@D@__crt_stdio_output@@@2@@__crt_stdio_output@@CAPA_WXZ 10066e20 f i libucrtd:output.obj
 0001:00065e30       ?wide_null_string@?$output_processor@DV?$stream_output_adapter@D@__crt_stdio_output@@V?$standard_base@DV?$stream_output_adapter@D@__crt_stdio_output@@@2@@__crt_stdio_output@@CAPA_WXZ 10066e30 f i libucrtd:output.obj
 0001:00065e40       ?wide_null_string@?$output_processor@DV?$string_output_adapter@D@__crt_stdio_output@@V?$format_validation_base@DV?$string_output_adapter@D@__crt_stdio_output@@@2@@__crt_stdio_output@@CAPA_WXZ 10066e40 f i libucrtd:output.obj
 0001:00065e50       ?wide_null_string@?$output_processor@DV?$string_output_adapter@D@__crt_stdio_output@@V?$positional_parameter_base@DV?$string_output_adapter@D@__crt_stdio_output@@@2@@__crt_stdio_output@@CAPA_WXZ 10066e50 f i libucrtd:output.obj
 0001:00065e60       ?wide_null_string@?$output_processor@DV?$string_output_adapter@D@__crt_stdio_output@@V?$standard_base@DV?$string_output_adapter@D@__crt_stdio_output@@@2@@__crt_stdio_output@@CAPA_WXZ 10066e60 f i libucrtd:output.obj
 0001:00065e70       ?wide_null_string@?$output_processor@_WV?$stream_output_adapter@_W@__crt_stdio_output@@V?$format_validation_base@_WV?$stream_output_adapter@_W@__crt_stdio_output@@@2@@__crt_stdio_output@@CAPA_WXZ 10066e70 f i libucrtd:output.obj
 0001:00065e80       ?wide_null_string@?$output_processor@_WV?$stream_output_adapter@_W@__crt_stdio_output@@V?$positional_parameter_base@_WV?$stream_output_adapter@_W@__crt_stdio_output@@@2@@__crt_stdio_output@@CAPA_WXZ 10066e80 f i libucrtd:output.obj
 0001:00065e90       ?wide_null_string@?$output_processor@_WV?$stream_output_adapter@_W@__crt_stdio_output@@V?$standard_base@_WV?$stream_output_adapter@_W@__crt_stdio_output@@@2@@__crt_stdio_output@@CAPA_WXZ 10066e90 f i libucrtd:output.obj
 0001:00065ea0       ?wide_null_string@?$output_processor@_WV?$string_output_adapter@_W@__crt_stdio_output@@V?$format_validation_base@_WV?$string_output_adapter@_W@__crt_stdio_output@@@2@@__crt_stdio_output@@CAPA_WXZ 10066ea0 f i libucrtd:output.obj
 0001:00065eb0       ?wide_null_string@?$output_processor@_WV?$string_output_adapter@_W@__crt_stdio_output@@V?$positional_parameter_base@_WV?$string_output_adapter@_W@__crt_stdio_output@@@2@@__crt_stdio_output@@CAPA_WXZ 10066eb0 f i libucrtd:output.obj
 0001:00065ec0       ?wide_null_string@?$output_processor@_WV?$string_output_adapter@_W@__crt_stdio_output@@V?$standard_base@_WV?$string_output_adapter@_W@__crt_stdio_output@@@2@@__crt_stdio_output@@CAPA_WXZ 10066ec0 f i libucrtd:output.obj
 0001:00065ed0       ?write_character@?$output_adapter_common@DV?$stream_output_adapter@D@__crt_stdio_output@@@__crt_stdio_output@@QBEXDQAH@Z 10066ed0 f i libucrtd:output.obj
 0001:00065f10       ?write_character@?$output_adapter_common@_WV?$stream_output_adapter@_W@__crt_stdio_output@@@__crt_stdio_output@@QBEX_WQAH@Z 10066f10 f i libucrtd:output.obj
 0001:00065f50       ?write_character@?$string_output_adapter@D@__crt_stdio_output@@QBE_NDQAH@Z 10066f50 f i libucrtd:output.obj
 0001:00065fe0       ?write_character@?$string_output_adapter@_W@__crt_stdio_output@@QBE_N_WQAH@Z 10066fe0 f i libucrtd:output.obj
 0001:00066080       ?write_character_without_count_update@?$stream_output_adapter@D@__crt_stdio_output@@QBE_ND@Z 10067080 f i libucrtd:output.obj
 0001:000660f0       ?write_character_without_count_update@?$stream_output_adapter@_W@__crt_stdio_output@@QBE_N_W@Z 100670f0 f i libucrtd:output.obj
 0001:00066160       ?write_stored_string_tchar@?$output_processor@DV?$stream_output_adapter@D@__crt_stdio_output@@V?$format_validation_base@DV?$stream_output_adapter@D@__crt_stdio_output@@@2@@__crt_stdio_output@@AAE_ND@Z 10067160 f i libucrtd:output.obj
 0001:00066280       ?write_stored_string_tchar@?$output_processor@DV?$stream_output_adapter@D@__crt_stdio_output@@V?$positional_parameter_base@DV?$stream_output_adapter@D@__crt_stdio_output@@@2@@__crt_stdio_output@@AAE_ND@Z 10067280 f i libucrtd:output.obj
 0001:000663a0       ?write_stored_string_tchar@?$output_processor@DV?$stream_output_adapter@D@__crt_stdio_output@@V?$standard_base@DV?$stream_output_adapter@D@__crt_stdio_output@@@2@@__crt_stdio_output@@AAE_ND@Z 100673a0 f i libucrtd:output.obj
 0001:000664c0       ?write_stored_string_tchar@?$output_processor@DV?$string_output_adapter@D@__crt_stdio_output@@V?$format_validation_base@DV?$string_output_adapter@D@__crt_stdio_output@@@2@@__crt_stdio_output@@AAE_ND@Z 100674c0 f i libucrtd:output.obj
 0001:000665e0       ?write_stored_string_tchar@?$output_processor@DV?$string_output_adapter@D@__crt_stdio_output@@V?$positional_parameter_base@DV?$string_output_adapter@D@__crt_stdio_output@@@2@@__crt_stdio_output@@AAE_ND@Z 100675e0 f i libucrtd:output.obj
 0001:00066700       ?write_stored_string_tchar@?$output_processor@DV?$string_output_adapter@D@__crt_stdio_output@@V?$standard_base@DV?$string_output_adapter@D@__crt_stdio_output@@@2@@__crt_stdio_output@@AAE_ND@Z 10067700 f i libucrtd:output.obj
 0001:00066820       ?write_stored_string_tchar@?$output_processor@_WV?$stream_output_adapter@_W@__crt_stdio_output@@V?$format_validation_base@_WV?$stream_output_adapter@_W@__crt_stdio_output@@@2@@__crt_stdio_output@@AAE_N_W@Z 10067820 f i libucrtd:output.obj
 0001:00066910       ?write_stored_string_tchar@?$output_processor@_WV?$stream_output_adapter@_W@__crt_stdio_output@@V?$positional_parameter_base@_WV?$stream_output_adapter@_W@__crt_stdio_output@@@2@@__crt_stdio_output@@AAE_N_W@Z 10067910 f i libucrtd:output.obj
 0001:00066a00       ?write_stored_string_tchar@?$output_processor@_WV?$stream_output_adapter@_W@__crt_stdio_output@@V?$standard_base@_WV?$stream_output_adapter@_W@__crt_stdio_output@@@2@@__crt_stdio_output@@AAE_N_W@Z 10067a00 f i libucrtd:output.obj
 0001:00066af0       ?write_stored_string_tchar@?$output_processor@_WV?$string_output_adapter@_W@__crt_stdio_output@@V?$format_validation_base@_WV?$string_output_adapter@_W@__crt_stdio_output@@@2@@__crt_stdio_output@@AAE_N_W@Z 10067af0 f i libucrtd:output.obj
 0001:00066be0       ?write_stored_string_tchar@?$output_processor@_WV?$string_output_adapter@_W@__crt_stdio_output@@V?$positional_parameter_base@_WV?$string_output_adapter@_W@__crt_stdio_output@@@2@@__crt_stdio_output@@AAE_N_W@Z 10067be0 f i libucrtd:output.obj
 0001:00066cd0       ?write_stored_string_tchar@?$output_processor@_WV?$string_output_adapter@_W@__crt_stdio_output@@V?$standard_base@_WV?$string_output_adapter@_W@__crt_stdio_output@@@2@@__crt_stdio_output@@AAE_N_W@Z 10067cd0 f i libucrtd:output.obj
 0001:00066dc0       ?write_string@?$stream_output_adapter@D@__crt_stdio_output@@QBEXQBDHQAHAAV__crt_deferred_errno_cache@@@Z 10067dc0 f i libucrtd:output.obj
 0001:00066e20       ?write_string@?$stream_output_adapter@_W@__crt_stdio_output@@QBEXQB_WHQAHAAV__crt_deferred_errno_cache@@@Z 10067e20 f i libucrtd:output.obj
 0001:00066e80       ?write_string@?$string_output_adapter@D@__crt_stdio_output@@QBEXQBDHQAHAAV__crt_deferred_errno_cache@@@Z 10067e80 f i libucrtd:output.obj
 0001:00066f80       ?write_string@?$string_output_adapter@_W@__crt_stdio_output@@QBEXQB_WHQAHAAV__crt_deferred_errno_cache@@@Z 10067f80 f i libucrtd:output.obj
 0001:00067090       ?write_string_impl@?$output_adapter_common@DV?$stream_output_adapter@D@__crt_stdio_output@@@__crt_stdio_output@@IBEXQBDHQAHAAV__crt_deferred_errno_cache@@@Z 10068090 f i libucrtd:output.obj
 0001:00067130       ?write_string_impl@?$output_adapter_common@_WV?$stream_output_adapter@_W@__crt_stdio_output@@@__crt_stdio_output@@IBEXQB_WHQAHAAV__crt_deferred_errno_cache@@@Z 10068130 f i libucrtd:output.obj
 0001:000671d0       ___acrt_disable_global_locale_sync 100681d0 f i libucrtd:output.obj
 0001:000671f0       ___acrt_enable_global_locale_sync 100681f0 f i libucrtd:output.obj
 0001:00067210       ___acrt_isleadbyte_l_noupdate 10068210 f i libucrtd:output.obj
 0001:00067230       ___acrt_locale_changed     10068230 f i libucrtd:output.obj
 0001:00067260       ___acrt_locale_get_ctype_array_value 10068260 f i libucrtd:output.obj
 0001:00067290       ___stdio_common_vfprintf   10068290 f   libucrtd:output.obj
 0001:000672c0       ___stdio_common_vfprintf_p 100682c0 f   libucrtd:output.obj
 0001:000672f0       ___stdio_common_vfprintf_s 100682f0 f   libucrtd:output.obj
 0001:00067320       ___stdio_common_vfwprintf  10068320 f   libucrtd:output.obj
 0001:00067350       ___stdio_common_vfwprintf_p 10068350 f   libucrtd:output.obj
 0001:00067380       ___stdio_common_vfwprintf_s 10068380 f   libucrtd:output.obj
 0001:000673b0       ___stdio_common_vsnprintf_s 100683b0 f   libucrtd:output.obj
 0001:000673e0       ___stdio_common_vsnwprintf_s 100683e0 f   libucrtd:output.obj
 0001:00067410       ___stdio_common_vsprintf   10068410 f   libucrtd:output.obj
 0001:00067440       ___stdio_common_vsprintf_p 10068440 f   libucrtd:output.obj
 0001:00067470       ___stdio_common_vsprintf_s 10068470 f   libucrtd:output.obj
 0001:000674a0       ___stdio_common_vswprintf  100684a0 f   libucrtd:output.obj
 0001:000674d0       ___stdio_common_vswprintf_p 100684d0 f   libucrtd:output.obj
 0001:00067500       ___stdio_common_vswprintf_s 10068500 f   libucrtd:output.obj
 0001:00067530       __ctype_fast_check_internal 10068530 f i libucrtd:output.obj
 0001:00067550       __isdigit_fast_internal    10068550 f i libucrtd:output.obj
 0001:00067570       __tolower_fast_internal    10068570 f i libucrtd:output.obj
 0001:00067590       _free                      10068590 f   libucrtd:free.obj
 0001:000675c0       _malloc                    100685c0 f   libucrtd:malloc.obj
 0001:000675e0       ??$?RU?$__crt_report_hook_node@D@@@__crt_internal_free_policy@@QBEXQBU?$__crt_report_hook_node@D@@@Z 100685e0 f i libucrtd:dbgrpt.obj
 0001:00067600       ??$?RU?$__crt_report_hook_node@_W@@@__crt_internal_free_policy@@QBEXQBU?$__crt_report_hook_node@_W@@@Z 10068600 f i libucrtd:dbgrpt.obj
 0001:000683f0       ??$get_module_file_name@AAPAUHINSTANCE__@@AAY0BAF@DK@?$__crt_char_traits@D@@SAKAAPAUHINSTANCE__@@AAY0BAF@D$$QAK@Z 100693f0 f i libucrtd:dbgrpt.obj
 0001:00068410       ??$get_module_file_name@AAPAUHINSTANCE__@@AAY0BAF@_WK@?$__crt_char_traits@_W@@SAKAAPAUHINSTANCE__@@AAY0BAF@_W$$QAK@Z 10069410 f i libucrtd:dbgrpt.obj
 0001:00068430       ??$tcscpy_s@AAY0BAF@DIPBD@?$__crt_char_traits@D@@SAHAAY0BAF@D$$QAI$$QAPBD@Z 10069430 f i libucrtd:dbgrpt.obj
 0001:00068450       ??$tcscpy_s@AAY0BAF@_WIPB_W@?$__crt_char_traits@_W@@SAHAAY0BAF@_W$$QAI$$QAPB_W@Z 10069450 f i libucrtd:dbgrpt.obj
 0001:00068470       ??$tcslen@AAY0BAF@D@?$__crt_char_traits@D@@SAIAAY0BAF@D@Z 10069470 f i libucrtd:dbgrpt.obj
 0001:00068490       ??$tcslen@AAY0BAF@_W@?$__crt_char_traits@_W@@SAIAAY0BAF@_W@Z 10069490 f i libucrtd:dbgrpt.obj
 0001:000684b0       ??$tcslen@ABQBD@?$__crt_char_traits@D@@SAIABQBD@Z 100694b0 f i libucrtd:dbgrpt.obj
 0001:000684d0       ??$tcslen@ABQB_W@?$__crt_char_traits@_W@@SAIABQB_W@Z 100694d0 f i libucrtd:dbgrpt.obj
 0001:000685d0       ??0?$__crt_unique_heap_ptr@U?$__crt_report_hook_node@D@@U__crt_internal_free_policy@@@@QAE@QAU?$__crt_report_hook_node@D@@@Z 100695d0 f i libucrtd:dbgrpt.obj
 0001:000685f0       ??0?$__crt_unique_heap_ptr@U?$__crt_report_hook_node@_W@@U__crt_internal_free_policy@@@@QAE@QAU?$__crt_report_hook_node@_W@@@Z 100695f0 f i libucrtd:dbgrpt.obj
 0001:00068610       ??1?$__crt_unique_heap_ptr@U?$__crt_report_hook_node@D@@U__crt_internal_free_policy@@@@QAE@XZ 10069610 f i libucrtd:dbgrpt.obj
 0001:00068630       ??1?$__crt_unique_heap_ptr@U?$__crt_report_hook_node@_W@@U__crt_internal_free_policy@@@@QAE@XZ 10069630 f i libucrtd:dbgrpt.obj
 0001:00068650       ??B?$__crt_unique_heap_ptr@U?$__crt_report_hook_node@D@@U__crt_internal_free_policy@@@@QBE_NXZ 10069650 f i libucrtd:dbgrpt.obj
 0001:00068670       ??B?$__crt_unique_heap_ptr@U?$__crt_report_hook_node@_W@@U__crt_internal_free_policy@@@@QBE_NXZ 10069670 f i libucrtd:dbgrpt.obj
 0001:00068bb0       ?detach@?$__crt_unique_heap_ptr@U?$__crt_report_hook_node@D@@U__crt_internal_free_policy@@@@QAEPAU?$__crt_report_hook_node@D@@XZ 10069bb0 f i libucrtd:dbgrpt.obj
 0001:00068be0       ?detach@?$__crt_unique_heap_ptr@U?$__crt_report_hook_node@_W@@U__crt_internal_free_policy@@@@QAEPAU?$__crt_report_hook_node@_W@@XZ 10069be0 f i libucrtd:dbgrpt.obj
 0001:00068c10       ?get@?$__crt_unique_heap_ptr@U?$__crt_report_hook_node@D@@U__crt_internal_free_policy@@@@QBEPAU?$__crt_report_hook_node@D@@XZ 10069c10 f i libucrtd:dbgrpt.obj
 0001:00068c30       ?get@?$__crt_unique_heap_ptr@U?$__crt_report_hook_node@_W@@U__crt_internal_free_policy@@@@QBEPAU?$__crt_report_hook_node@_W@@XZ 10069c30 f i libucrtd:dbgrpt.obj
 0001:00068cb0       ?is_valid@?$__crt_unique_heap_ptr@U?$__crt_report_hook_node@D@@U__crt_internal_free_policy@@@@QBE_NXZ 10069cb0 f i libucrtd:dbgrpt.obj
 0001:00068ce0       ?is_valid@?$__crt_unique_heap_ptr@U?$__crt_report_hook_node@_W@@U__crt_internal_free_policy@@@@QBE_NXZ 10069ce0 f i libucrtd:dbgrpt.obj
 0001:00068d10       ?release@?$__crt_unique_heap_ptr@U?$__crt_report_hook_node@D@@U__crt_internal_free_policy@@@@QAEXXZ 10069d10 f i libucrtd:dbgrpt.obj
 0001:00068d40       ?release@?$__crt_unique_heap_ptr@U?$__crt_report_hook_node@_W@@U__crt_internal_free_policy@@@@QAEXXZ 10069d40 f i libucrtd:dbgrpt.obj
 0001:00068d70       __CrtDbgReport             10069d70 f   libucrtd:dbgrpt.obj
 0001:00068dc0       __CrtDbgReportW            10069dc0 f   libucrtd:dbgrpt.obj
 0001:00068e10       __CrtSetReportHook2        10069e10 f   libucrtd:dbgrpt.obj
 0001:00068e30       __CrtSetReportHookW2       10069e30 f   libucrtd:dbgrpt.obj
 0001:00068e50       ___acrt_MessageWindowA     10069e50 f   libucrtd:dbgrpt.obj
 0001:00068e80       ___acrt_MessageWindowW     10069e80 f   libucrtd:dbgrpt.obj
 0001:00068eb0       __invoke_watson_if_error   10069eb0 f i libucrtd:dbgrpt.obj
 0001:00068ee0       __invoke_watson_if_oneof   10069ee0 f i libucrtd:dbgrpt.obj
 0001:00068f20       __snwprintf_s              10069f20 f i libucrtd:dbgrpt.obj
 0001:00068f60       __vsnwprintf_s_l           10069f60 f i libucrtd:dbgrpt.obj
 0001:000692e0       _wcscpy_s                  1006a2e0 f   libucrtd:wcscpy_s.obj
 0001:0006a000       ??1?$__crt_simd_cleanup_guard@$00@@QAE@XZ 1006b000 f i libucrtd:strnlen.obj
 0001:0006a010       ??1?$__crt_simd_cleanup_guard@$0A@@@QAE@XZ 1006b010 f i libucrtd:strnlen.obj
 0001:0006a020       ?compare_equals@?$__crt_simd_traits@$00E@@SA?AT__m256i@@T2@0@Z 1006b020 f i libucrtd:strnlen.obj
 0001:0006a060       ?compare_equals@?$__crt_simd_traits@$00G@@SA?AT__m256i@@T2@0@Z 1006b060 f i libucrtd:strnlen.obj
 0001:0006a0a0       ?compare_equals@?$__crt_simd_traits@$0A@E@@SA?AT__m128i@@T2@0@Z 1006b0a0 f i libucrtd:strnlen.obj
 0001:0006a0e0       ?compare_equals@?$__crt_simd_traits@$0A@G@@SA?AT__m128i@@T2@0@Z 1006b0e0 f i libucrtd:strnlen.obj
 0001:0006a120       ?compute_byte_mask@?$__crt_simd_pack_traits@$00@@SAHT__m256i@@@Z 1006b120 f i libucrtd:strnlen.obj
 0001:0006a150       ?compute_byte_mask@?$__crt_simd_pack_traits@$0A@@@SAHT__m128i@@@Z 1006b150 f i libucrtd:strnlen.obj
 0001:0006a180       ?get_zero_pack@?$__crt_simd_pack_traits@$00@@SA?AT__m256i@@XZ 1006b180 f i libucrtd:strnlen.obj
 0001:0006a1b0       ?get_zero_pack@?$__crt_simd_pack_traits@$0A@@@SA?AT__m128i@@XZ 1006b1b0 f i libucrtd:strnlen.obj
 0001:0006a1e0       _strnlen                   1006b1e0 f   libucrtd:strnlen.obj
 0001:0006a200       _wcslen                    1006b200 f   libucrtd:strnlen.obj
 0001:0006a220       _wcsnlen                   1006b220 f   libucrtd:strnlen.obj
 0001:0006a240       ??$__crt_fast_decode_pointer@P6AXPB_W00II@Z@@YAP6AXPB_W00II@ZQ6AX000II@Z@Z 1006b240 f i libucrtd:invalid_parameter.obj
 0001:0006a270       ??$__crt_fast_encode_pointer@P6AXPB_W00II@Z@@YAP6AXPB_W00II@ZQ6AX000II@Z@Z 1006b270 f i libucrtd:invalid_parameter.obj
 0001:0006a2a0       ??$initialize_from_array@$$BY00Q6AXPB_W00II@Z@?$dual_state_global@P6AXPB_W00II@Z@__crt_state_management@@QAAXAAY00Q6AXPB_W00II@Z@Z 1006b2a0 f i libucrtd:invalid_parameter.obj
 0001:0006a2f0       ?__crt_rotate_pointer_value@@YAIIH@Z 1006b2f0 f i libucrtd:invalid_parameter.obj
 0001:0006a300       ?dangerous_get_state_array@?$dual_state_global@P6AXPB_W00II@Z@__crt_state_management@@QAEPAP6AXPB_W00II@ZXZ 1006b300 f i libucrtd:invalid_parameter.obj
 0001:0006a310       ?get_current_state_index@__crt_state_management@@YAIXZ 1006b310 f i libucrtd:invalid_parameter.obj
 0001:0006a320       ?value@?$dual_state_global@P6AXPB_W00II@Z@__crt_state_management@@QAEAAP6AXPB_W00II@ZXZ 1006b320 f i libucrtd:invalid_parameter.obj
 0001:0006a340       ___acrt_call_reportfault   1006b340 f   libucrtd:invalid_parameter.obj
 0001:0006a4a0       ___acrt_initialize_invalid_parameter_handler 1006b4a0 f   libucrtd:invalid_parameter.obj
 0001:0006a4d0       __get_invalid_parameter_handler 1006b4d0 f   libucrtd:invalid_parameter.obj
 0001:0006a4f0       __get_thread_local_invalid_parameter_handler 1006b4f0 f   libucrtd:invalid_parameter.obj
 0001:0006a520       __invalid_parameter        1006b520 f   libucrtd:invalid_parameter.obj
 0001:0006a5e0       __invalid_parameter_noinfo 1006b5e0 f   libucrtd:invalid_parameter.obj
 0001:0006a600       __invalid_parameter_noinfo_noreturn 1006b600 f   libucrtd:invalid_parameter.obj
 0001:0006a630       __invoke_watson            1006b630 f   libucrtd:invalid_parameter.obj
 0001:0006a670       __set_invalid_parameter_handler 1006b670 f   libucrtd:invalid_parameter.obj
 0001:0006a6c0       __set_thread_local_invalid_parameter_handler 1006b6c0 f   libucrtd:invalid_parameter.obj
 0001:0006a6f0       ___acrt_errno_from_os_error 1006b6f0 f   libucrtd:errno.obj
 0001:0006a770       ___acrt_errno_map_os_error 1006b770 f   libucrtd:errno.obj
 0001:0006a7a0       ___doserrno                1006b7a0 f   libucrtd:errno.obj
 0001:0006a7d0       __errno                    1006b7d0 f   libucrtd:errno.obj
 0001:0006a800       __get_doserrno             1006b800 f   libucrtd:errno.obj
 0001:0006a890       __get_errno                1006b890 f   libucrtd:errno.obj
 0001:0006a920       __set_doserrno             1006b920 f   libucrtd:errno.obj
 0001:0006a950       __set_errno                1006b950 f   libucrtd:errno.obj
 0001:0006a980       _calloc                    1006b980 f   libucrtd:calloc.obj
 0001:0006a9a0       __recalloc                 1006b9a0 f   libucrtd:recalloc.obj
 0001:0006a9d0       __recalloc_base            1006b9d0 f   libucrtd:recalloc.obj
 0001:0006aa6a       __resetstkoflw             1006ba6a f   libucrtd:resetstk.obj
 0001:0006af50       _wcscat_s                  1006bf50 f   libucrtd:wcscat_s.obj
 0001:0006b3a0       _wcsncpy_s                 1006c3a0 f   libucrtd:wcsncpy_s.obj
 0001:0006b4e0       ___isascii                 1006c4e0 f   libucrtd:_ctype.obj
 0001:0006b510       ___iscsym                  1006c510 f   libucrtd:_ctype.obj
 0001:0006b550       ___iscsymf                 1006c550 f   libucrtd:_ctype.obj
 0001:0006b590       ___toascii                 1006c590 f   libucrtd:_ctype.obj
 0001:0006b5a0       __isalnum_l                1006c5a0 f   libucrtd:_ctype.obj
 0001:0006b5c0       __isalpha_l                1006c5c0 f   libucrtd:_ctype.obj
 0001:0006b5e0       __isblank_l                1006c5e0 f   libucrtd:_ctype.obj
 0001:0006b600       __iscntrl_l                1006c600 f   libucrtd:_ctype.obj
 0001:0006b620       __iscsym_l                 1006c620 f   libucrtd:_ctype.obj
 0001:0006b660       __iscsymf_l                1006c660 f   libucrtd:_ctype.obj
 0001:0006b6a0       __isdigit_l                1006c6a0 f   libucrtd:_ctype.obj
 0001:0006b6c0       __isgraph_l                1006c6c0 f   libucrtd:_ctype.obj
 0001:0006b6e0       __islower_l                1006c6e0 f   libucrtd:_ctype.obj
 0001:0006b700       __isprint_l                1006c700 f   libucrtd:_ctype.obj
 0001:0006b720       __ispunct_l                1006c720 f   libucrtd:_ctype.obj
 0001:0006b740       __isspace_l                1006c740 f   libucrtd:_ctype.obj
 0001:0006b760       __isupper_l                1006c760 f   libucrtd:_ctype.obj
 0001:0006b780       __isxdigit_l               1006c780 f   libucrtd:_ctype.obj
 0001:0006b7a0       _isalnum                   1006c7a0 f   libucrtd:_ctype.obj
 0001:0006b7c0       _isalpha                   1006c7c0 f   libucrtd:_ctype.obj
 0001:0006b7e0       _isblank                   1006c7e0 f   libucrtd:_ctype.obj
 0001:0006b810       _iscntrl                   1006c810 f   libucrtd:_ctype.obj
 0001:0006b830       _isdigit                   1006c830 f   libucrtd:_ctype.obj
 0001:0006b850       _isgraph                   1006c850 f   libucrtd:_ctype.obj
 0001:0006b870       _islower                   1006c870 f   libucrtd:_ctype.obj
 0001:0006b890       _isprint                   1006c890 f   libucrtd:_ctype.obj
 0001:0006b8b0       _ispunct                   1006c8b0 f   libucrtd:_ctype.obj
 0001:0006b8d0       _isspace                   1006c8d0 f   libucrtd:_ctype.obj
 0001:0006b8f0       _isupper                   1006c8f0 f   libucrtd:_ctype.obj
 0001:0006b910       _isxdigit                  1006c910 f   libucrtd:_ctype.obj
 0001:0006b930       _wcscat                    1006c930 f   libucrtd:wcscat.obj
 0001:0006b990       _wcscpy                    1006c990 f   libucrtd:wcscpy.obj
 0001:0006c020       ??$open_file@ABQBDABQBDABHPAU_iobuf@@@?$__crt_char_traits@D@@SAPAU_iobuf@@ABQBD0ABH$$QAPAU1@@Z 1006d020 f i libucrtd:fopen.obj
 0001:0006c050       ??$open_file@ABQB_WABQB_WABHPAU_iobuf@@@?$__crt_char_traits@_W@@SAPAU_iobuf@@ABQB_W0ABH$$QAPAU1@@Z 1006d050 f i libucrtd:fopen.obj
 0001:0006c080       ?unlock@__crt_stdio_stream@@QBEXXZ 1006d080 f i libucrtd:fopen.obj
 0001:0006c0a0       __fsopen                   1006d0a0 f   libucrtd:fopen.obj
 0001:0006c0c0       __wfopen                   1006d0c0 f   libucrtd:fopen.obj
 0001:0006c0e0       __wfopen_s                 1006d0e0 f   libucrtd:fopen.obj
 0001:0006c100       __wfsopen                  1006d100 f   libucrtd:fopen.obj
 0001:0006c120       _fopen                     1006d120 f   libucrtd:fopen.obj
 0001:0006c140       _fopen_s                   1006d140 f   libucrtd:fopen.obj
 0001:0006c160       ?is_in_use@__crt_stdio_stream@@QBE_NXZ 1006d160 f i libucrtd:fclose.obj
 0001:0006c1a0       __fclose_nolock            1006d1a0 f   libucrtd:fclose.obj
 0001:0006c2e0       _fclose                    1006d2e0 f   libucrtd:fclose.obj
 0001:0006c430       __fputc_nolock             1006d430 f   libucrtd:fputc.obj
 0001:0006c4c0       __fputchar                 1006d4c0 f   libucrtd:fputc.obj
 0001:0006c4e0       __putc_nolock              1006d4e0 f   libucrtd:fputc.obj
 0001:0006c500       _fputc                     1006d500 f   libucrtd:fputc.obj
 0001:0006c740       _putc                      1006d740 f   libucrtd:fputc.obj
 0001:0006c760       _putchar                   1006d760 f   libucrtd:fputc.obj
 0001:0006c7d0       __seh_filter_dll           1006d7d0 f   libucrtd:exception_filter.obj
 0001:0006c800       __seh_filter_exe           1006d800 f   libucrtd:exception_filter.obj
 0001:0006ca10       ??$?B$$A6GXPAXK0@Z@__crt_fast_encoded_nullptr_t@@QBEP6GXPAXK0@ZXZ 1006da10 f i libucrtd:exit.obj
 0001:0006caf0       ??$__crt_fast_decode_pointer@P6GXPAXK0@Z@@YAP6GXPAXK0@ZQ6GX0K0@Z@Z 1006daf0 f i libucrtd:exit.obj
 0001:0006cb20       ??$__crt_fast_encode_pointer@P6GXPAXK0@Z@@YAP6GXPAXK0@ZQ6GX0K0@Z@Z 1006db20 f i libucrtd:exit.obj
 0001:0006cb50       ??$__crt_get_proc_address@P6GXI@Z@@YAP6GXI@ZQAUHINSTANCE__@@QBD@Z 1006db50 f i libucrtd:exit.obj
 0001:0006cbe0       ??0?$__crt_unique_handle_t@U__crt_hmodule_traits@@@@QAE@QAUHINSTANCE__@@@Z 1006dbe0 f i libucrtd:exit.obj
 0001:0006cc00       ??1?$__crt_unique_handle_t@U__crt_hmodule_traits@@@@QAE@XZ 1006dc00 f i libucrtd:exit.obj
 0001:0006cdc0       ?__acrt_select_exit_lock@@YA?AW4__acrt_lock_id@@XZ 1006ddc0 f i libucrtd:exit.obj
 0001:0006cdd0       ?__crt_fast_encode_pointer@@YA?AU__crt_fast_encoded_nullptr_t@@$$T@Z 1006ddd0 f i libucrtd:exit.obj
 0001:0006ce00       ?close@?$__crt_unique_handle_t@U__crt_hmodule_traits@@@@QAEXXZ 1006de00 f i libucrtd:exit.obj
 0001:0006ce40       ?close@__crt_hmodule_traits@@SA_NPAUHINSTANCE__@@@Z 1006de40 f i libucrtd:exit.obj
 0001:0006cf30       ?get@?$__crt_unique_handle_t@U__crt_hmodule_traits@@@@QBEPAUHINSTANCE__@@XZ 1006df30 f i libucrtd:exit.obj
 0001:0006cf50       ?get_address_of@?$__crt_unique_handle_t@U__crt_hmodule_traits@@@@QAEPAPAUHINSTANCE__@@XZ 1006df50 f i libucrtd:exit.obj
 0001:0006cf60       ?get_invalid_value@__crt_hmodule_traits@@SAPAUHINSTANCE__@@XZ 1006df60 f i libucrtd:exit.obj
 0001:0006d0e0       __Exit                     1006e0e0 f   libucrtd:exit.obj
 0001:0006d100       ___acrt_initialize_thread_local_exit_callback 1006e100 f   libucrtd:exit.obj
 0001:0006d110       __c_exit                   1006e110 f   libucrtd:exit.obj
 0001:0006d130       __cexit                    1006e130 f   libucrtd:exit.obj
 0001:0006d150       __exit                     1006e150 f   libucrtd:exit.obj
 0001:0006d170       __is_c_termination_complete 1006e170 f   libucrtd:exit.obj
 0001:0006d190       __register_thread_local_exe_atexit_callback 1006e190 f   libucrtd:exit.obj
 0001:0006d1d0       _exit                      1006e1d0 f   libucrtd:exit.obj
 0001:0006d1f0       _quick_exit                1006e1f0 f   libucrtd:exit.obj
 0001:0006d210       ??$?RE@__crt_internal_free_policy@@QBEXQBE@Z 1006e210 f i libucrtd:argv_parsing.obj
 0001:0006d230       ??$?RPAD@__crt_internal_free_policy@@QBEXQBQAD@Z 1006e230 f i libucrtd:argv_parsing.obj
 0001:0006d250       ??$?RPA_W@__crt_internal_free_policy@@QBEXQBQA_W@Z 1006e250 f i libucrtd:argv_parsing.obj
 0001:0006d7b0       ??$get_module_file_name@$$TAAY0BAF@DH@?$__crt_char_traits@D@@SAK$$QA$$TAAY0BAF@D$$QAH@Z 1006e7b0 f i libucrtd:argv_parsing.obj
 0001:0006d7d0       ??$get_module_file_name@$$TAAY0BAF@_WH@?$__crt_char_traits@_W@@SAK$$QA$$TAAY0BAF@_W$$QAH@Z 1006e7d0 f i libucrtd:argv_parsing.obj
 0001:0006def0       ??$set_program_name@PAD@?$__crt_char_traits@D@@SAX$$QAPAD@Z 1006eef0 f i libucrtd:argv_parsing.obj
 0001:0006df10       ??$set_program_name@PA_W@?$__crt_char_traits@_W@@SAX$$QAPA_W@Z 1006ef10 f i libucrtd:argv_parsing.obj
 0001:0006df70       ??0?$__crt_unique_heap_ptr@EU__crt_internal_free_policy@@@@QAE@QAE@Z 1006ef70 f i libucrtd:argv_parsing.obj
 0001:0006df90       ??0?$__crt_unique_heap_ptr@PADU__crt_internal_free_policy@@@@QAE@QAPAD@Z 1006ef90 f i libucrtd:argv_parsing.obj
 0001:0006dfb0       ??0?$__crt_unique_heap_ptr@PA_WU__crt_internal_free_policy@@@@QAE@QAPA_W@Z 1006efb0 f i libucrtd:argv_parsing.obj
 0001:0006dfd0       ??1?$__crt_unique_heap_ptr@EU__crt_internal_free_policy@@@@QAE@XZ 1006efd0 f i libucrtd:argv_parsing.obj
 0001:0006dff0       ??1?$__crt_unique_heap_ptr@PADU__crt_internal_free_policy@@@@QAE@XZ 1006eff0 f i libucrtd:argv_parsing.obj
 0001:0006e010       ??1?$__crt_unique_heap_ptr@PA_WU__crt_internal_free_policy@@@@QAE@XZ 1006f010 f i libucrtd:argv_parsing.obj
 0001:0006e030       ??B?$__crt_unique_heap_ptr@EU__crt_internal_free_policy@@@@QBE_NXZ 1006f030 f i libucrtd:argv_parsing.obj
 0001:0006e0f0       ?detach@?$__crt_unique_heap_ptr@EU__crt_internal_free_policy@@@@QAEPAEXZ 1006f0f0 f i libucrtd:argv_parsing.obj
 0001:0006e120       ?detach@?$__crt_unique_heap_ptr@PADU__crt_internal_free_policy@@@@QAEPAPADXZ 1006f120 f i libucrtd:argv_parsing.obj
 0001:0006e150       ?detach@?$__crt_unique_heap_ptr@PA_WU__crt_internal_free_policy@@@@QAEPAPA_WXZ 1006f150 f i libucrtd:argv_parsing.obj
 0001:0006e1e0       ?get@?$__crt_unique_heap_ptr@EU__crt_internal_free_policy@@@@QBEPAEXZ 1006f1e0 f i libucrtd:argv_parsing.obj
 0001:0006e200       ?get@?$__crt_unique_heap_ptr@PADU__crt_internal_free_policy@@@@QBEPAPADXZ 1006f200 f i libucrtd:argv_parsing.obj
 0001:0006e220       ?get@?$__crt_unique_heap_ptr@PA_WU__crt_internal_free_policy@@@@QBEPAPA_WXZ 1006f220 f i libucrtd:argv_parsing.obj
 0001:0006e240       ?get_address_of@?$__crt_unique_heap_ptr@PADU__crt_internal_free_policy@@@@QAEPAPAPADXZ 1006f240 f i libucrtd:argv_parsing.obj
 0001:0006e250       ?get_address_of@?$__crt_unique_heap_ptr@PA_WU__crt_internal_free_policy@@@@QAEPAPAPA_WXZ 1006f250 f i libucrtd:argv_parsing.obj
 0001:0006e2a0       ?is_valid@?$__crt_unique_heap_ptr@EU__crt_internal_free_policy@@@@QBE_NXZ 1006f2a0 f i libucrtd:argv_parsing.obj
 0001:0006e2d0       ?release@?$__crt_unique_heap_ptr@EU__crt_internal_free_policy@@@@QAEXXZ 1006f2d0 f i libucrtd:argv_parsing.obj
 0001:0006e300       ?release@?$__crt_unique_heap_ptr@PADU__crt_internal_free_policy@@@@QAEXXZ 1006f300 f i libucrtd:argv_parsing.obj
 0001:0006e330       ?release@?$__crt_unique_heap_ptr@PA_WU__crt_internal_free_policy@@@@QAEXXZ 1006f330 f i libucrtd:argv_parsing.obj
 0001:0006e3a0       ___acrt_allocate_buffer_for_argv 1006f3a0 f   libucrtd:argv_parsing.obj
 0001:0006e460       __configure_narrow_argv    1006f460 f   libucrtd:argv_parsing.obj
 0001:0006e480       __configure_wide_argv      1006f480 f   libucrtd:argv_parsing.obj
 0001:0006e4a0       __set_pgmptr               1006f4a0 f i libucrtd:argv_parsing.obj
 0001:0006e4b0       __set_wpgmptr              1006f4b0 f i libucrtd:argv_parsing.obj
 0001:0006e4bf       ??$?R_W@__crt_internal_free_policy@@QBEXQB_W@Z 1006f4bf f i libucrtd:environment_initialization.obj
 0001:0006e928       ??$get_environment_from_os@$$V@?$__crt_char_traits@D@@SAPADXZ 1006f928 f i libucrtd:environment_initialization.obj
 0001:0006e92d       ??$get_environment_from_os@$$V@?$__crt_char_traits@_W@@SAPA_WXZ 1006f92d f i libucrtd:environment_initialization.obj
 0001:0006ea56       ??$set_variable_in_environment_nolock@PADH@?$__crt_char_traits@D@@SAH$$QAPAD$$QAH@Z 1006fa56 f i libucrtd:environment_initialization.obj
 0001:0006ea6e       ??$set_variable_in_environment_nolock@PA_WH@?$__crt_char_traits@_W@@SAH$$QAPA_W$$QAH@Z 1006fa6e f i libucrtd:environment_initialization.obj
 0001:0006ea86       ??$tcscpy_s@PADABIAAPAD@?$__crt_char_traits@D@@SAH$$QAPADABIAAPAD@Z 1006fa86 f i libucrtd:environment_initialization.obj
 0001:0006eaa4       ??$tcscpy_s@PA_WABIAAPA_W@?$__crt_char_traits@_W@@SAH$$QAPA_WABIAAPA_W@Z 1006faa4 f i libucrtd:environment_initialization.obj
 0001:0006eac2       ??$tcslen@AAPAD@?$__crt_char_traits@D@@SAIAAPAD@Z 1006fac2 f i libucrtd:environment_initialization.obj
 0001:0006eada       ??$tcslen@AAPA_W@?$__crt_char_traits@_W@@SAIAAPA_W@Z 1006fada f i libucrtd:environment_initialization.obj
 0001:0006eaf8       ??$uninitialize@A6AXAAPAPAD@Z@?$dual_state_global@PAPAD@__crt_state_management@@QAEXA6AXAAPAPAD@Z@Z 1006faf8 f i libucrtd:environment_initialization.obj
 0001:0006eb21       ??$uninitialize@A6AXAAPAPA_W@Z@?$dual_state_global@PAPA_W@__crt_state_management@@QAEXA6AXAAPAPA_W@Z@Z 1006fb21 f i libucrtd:environment_initialization.obj
 0001:0006eb80       ??0?$__crt_unique_heap_ptr@_WU__crt_internal_free_policy@@@@QAE@QA_W@Z 1006fb80 f i libucrtd:environment_initialization.obj
 0001:0006eb90       ??1?$__crt_unique_heap_ptr@_WU__crt_internal_free_policy@@@@QAE@XZ 1006fb90 f i libucrtd:environment_initialization.obj
 0001:0006eba5       ??B?$__crt_unique_heap_ptr@PADU__crt_internal_free_policy@@@@QBE_NXZ 1006fba5 f i libucrtd:environment_initialization.obj
 0001:0006ebac       ??B?$__crt_unique_heap_ptr@PA_WU__crt_internal_free_policy@@@@QBE_NXZ 1006fbac f i libucrtd:environment_initialization.obj
 0001:0006ebb3       ??B?$__crt_unique_heap_ptr@_WU__crt_internal_free_policy@@@@QBE_NXZ 1006fbb3 f i libucrtd:environment_initialization.obj
 0001:0006ebba       ?__crt_compute_required_transform_buffer_count@@YAIIQBD@Z 1006fbba f i libucrtd:environment_initialization.obj
 0001:0006ebd6       ?__crt_compute_required_transform_buffer_count@@YAIIQB_W@Z 1006fbd6 f i libucrtd:environment_initialization.obj
 0001:0006ebf4       ?__crt_transform_string@@YAIIQBDQA_WI@Z 1006fbf4 f i libucrtd:environment_initialization.obj
 0001:0006ec13       ?__crt_transform_string@@YAIIQB_WQADI@Z 1006fc13 f i libucrtd:environment_initialization.obj
 0001:0006ec35       ?detach@?$__crt_unique_heap_ptr@DU__crt_internal_free_policy@@@@QAEPADXZ 1006fc35 f i libucrtd:environment_initialization.obj
 0001:0006ec3b       ?detach@?$__crt_unique_heap_ptr@_WU__crt_internal_free_policy@@@@QAEPA_WXZ 1006fc3b f i libucrtd:environment_initialization.obj
 0001:0006ec41       ?get@?$__crt_unique_heap_ptr@_WU__crt_internal_free_policy@@@@QBEPA_WXZ 1006fc41 f i libucrtd:environment_initialization.obj
 0001:0006ec68       ?initialize@?$dual_state_global@PAPAD@__crt_state_management@@QAEXQAPAD@Z 1006fc68 f i libucrtd:environment_initialization.obj
 0001:0006ec8e       ?initialize@?$dual_state_global@PAPA_W@__crt_state_management@@QAEXQAPA_W@Z 1006fc8e f i libucrtd:environment_initialization.obj
 0001:0006ecb4       ?is_valid@?$__crt_unique_heap_ptr@PADU__crt_internal_free_policy@@@@QBE_NXZ 1006fcb4 f i libucrtd:environment_initialization.obj
 0001:0006ecbb       ?is_valid@?$__crt_unique_heap_ptr@PA_WU__crt_internal_free_policy@@@@QBE_NXZ 1006fcbb f i libucrtd:environment_initialization.obj
 0001:0006ecc2       ?is_valid@?$__crt_unique_heap_ptr@_WU__crt_internal_free_policy@@@@QBE_NXZ 1006fcc2 f i libucrtd:environment_initialization.obj
 0001:0006ecd1       ?release@?$__crt_unique_heap_ptr@_WU__crt_internal_free_policy@@@@QAEXXZ 1006fcd1 f i libucrtd:environment_initialization.obj
 0001:0006ece6       ?value@?$dual_state_global@PAPAD@__crt_state_management@@QAEAAPAPADXZ 1006fce6 f i libucrtd:environment_initialization.obj
 0001:0006ece9       ?value@?$dual_state_global@PAPA_W@__crt_state_management@@QAEAAPAPA_WXZ 1006fce9 f i libucrtd:environment_initialization.obj
 0001:0006ecec       ___dcrt_get_or_create_narrow_environment_nolock 1006fcec f   libucrtd:environment_initialization.obj
 0001:0006ecf1       ___dcrt_get_or_create_wide_environment_nolock 1006fcf1 f   libucrtd:environment_initialization.obj
 0001:0006ecf6       ___dcrt_uninitialize_environments_nolock 1006fcf6 f   libucrtd:environment_initialization.obj
 0001:0006ed2d       ___p__environ              1006fd2d f   libucrtd:environment_initialization.obj
 0001:0006ed33       ___p__wenviron             1006fd33 f   libucrtd:environment_initialization.obj
 0001:0006ed39       __get_initial_narrow_environment 1006fd39 f   libucrtd:environment_initialization.obj
 0001:0006ed4d       __get_initial_wide_environment 1006fd4d f   libucrtd:environment_initialization.obj
 0001:0006ed61       __initialize_narrow_environment 1006fd61 f   libucrtd:environment_initialization.obj
 0001:0006ed66       __initialize_wide_environment 1006fd66 f   libucrtd:environment_initialization.obj
 0001:0006ed70       ??$?B$$A6AXXZ@__crt_fast_encoded_nullptr_t@@QBEP6AXXZXZ 1006fd70 f i libucrtd:onexit.obj
 0001:0006ed90       ??$?BP6AXXZ@__crt_fast_encoded_nullptr_t@@QBEPAP6AXXZXZ 1006fd90 f i libucrtd:onexit.obj
 0001:0006edb0       ??$?RP6AXXZ@__crt_internal_free_policy@@QBEXQBQ6AXXZ@Z 1006fdb0 f i libucrtd:onexit.obj
 0001:0006ef70       ??$__crt_fast_decode_pointer@P6AXXZ@@YAP6AXXZQ6AXXZ@Z 1006ff70 f i libucrtd:onexit.obj
 0001:0006efa0       ??$__crt_fast_decode_pointer@PAP6AXXZ@@YAPAP6AXXZQAP6AXXZ@Z 1006ffa0 f i libucrtd:onexit.obj
 0001:0006efd0       ??$__crt_fast_encode_pointer@P6AHXZ@@YAP6AHXZQ6AHXZ@Z 1006ffd0 f i libucrtd:onexit.obj
 0001:0006f000       ??$__crt_fast_encode_pointer@P6AXXZ@@YAP6AXXZQ6AXXZ@Z 10070000 f i libucrtd:onexit.obj
 0001:0006f030       ??$__crt_fast_encode_pointer@PAP6AXXZ@@YAPAP6AXXZQAP6AXXZ@Z 10070030 f i libucrtd:onexit.obj
 0001:0006f130       ??0?$__crt_unique_heap_ptr@P6AXXZU__crt_internal_free_policy@@@@QAE@QAP6AXXZ@Z 10070130 f i libucrtd:onexit.obj
 0001:0006f150       ??1?$__crt_unique_heap_ptr@P6AXXZU__crt_internal_free_policy@@@@QAE@XZ 10070150 f i libucrtd:onexit.obj
 0001:0006f170       ??1scoped_global_state_reset@__crt_state_management@@QAE@XZ 10070170 f i libucrtd:onexit.obj
 0001:0006f5e0       ?detach@?$__crt_unique_heap_ptr@P6AXXZU__crt_internal_free_policy@@@@QAEPAP6AXXZXZ 100705e0 f i libucrtd:onexit.obj
 0001:0006f610       ?release@?$__crt_unique_heap_ptr@P6AXXZU__crt_internal_free_policy@@@@QAEXXZ 10070610 f i libucrtd:onexit.obj
 0001:0006f640       __crt_at_quick_exit        10070640 f   libucrtd:onexit.obj
 0001:0006f660       __crt_atexit               10070660 f   libucrtd:onexit.obj
 0001:0006f680       __execute_onexit_table     10070680 f   libucrtd:onexit.obj
 0001:0006f6b0       __initialize_onexit_table  100706b0 f   libucrtd:onexit.obj
 0001:0006f710       __register_onexit_function 10070710 f   libucrtd:onexit.obj
 0001:0006f950       ??$?BX@__crt_fast_encoded_nullptr_t@@QBEPAXXZ 10070950 f i libucrtd:initialization.obj
 0001:0006f970       ??$__crt_fast_encode_pointer@PAX@@YAPAXQAX@Z 10070970 f i libucrtd:initialization.obj
 0001:0006fa30       ?initialize@?$dual_state_global@PAU__crt_locale_data@@@__crt_state_management@@QAEXQAU__crt_locale_data@@@Z 10070a30 f i libucrtd:initialization.obj
 0001:0006fa70       ___acrt_initialize         10070a70 f   libucrtd:initialization.obj
 0001:0006fa90       ___acrt_thread_attach      10070a90 f   libucrtd:initialization.obj
 0001:0006fab0       ___acrt_thread_detach      10070ab0 f   libucrtd:initialization.obj
 0001:0006fac0       ___acrt_uninitialize       10070ac0 f   libucrtd:initialization.obj
 0001:0006fae0       ___acrt_uninitialize_critical 10070ae0 f   libucrtd:initialization.obj
 0001:00071350       __CrtCheckMemory           10072350 f   libucrtd:debug_heap.obj
 0001:000714e0       __CrtDoForAllClientObjects 100724e0 f   libucrtd:debug_heap.obj
 0001:00071630       __CrtDumpMemoryLeaks       10072630 f   libucrtd:debug_heap.obj
 0001:000716d0       __CrtGetAllocHook          100726d0 f   libucrtd:debug_heap.obj
 0001:000716e0       __CrtGetDumpClient         100726e0 f   libucrtd:debug_heap.obj
 0001:000716f0       __CrtIsMemoryBlock         100726f0 f   libucrtd:debug_heap.obj
 0001:00071840       __CrtIsValidHeapPointer    10072840 f   libucrtd:debug_heap.obj
 0001:00071870       __CrtIsValidPointer        10072870 f   libucrtd:debug_heap.obj
 0001:000718a0       __CrtMemCheckpoint         100728a0 f   libucrtd:debug_heap.obj
 0001:00071ad0       __CrtMemDifference         10072ad0 f   libucrtd:debug_heap.obj
 0001:00071d40       __CrtMemDumpAllObjectsSince 10072d40 f   libucrtd:debug_heap.obj
 0001:00071de0       __CrtMemDumpStatistics     10072de0 f   libucrtd:debug_heap.obj
 0001:00071f10       __CrtReportBlockType       10072f10 f   libucrtd:debug_heap.obj
 0001:00071f40       __CrtSetAllocHook          10072f40 f   libucrtd:debug_heap.obj
 0001:00071f60       __CrtSetBreakAlloc         10072f60 f   libucrtd:debug_heap.obj
 0001:00071f80       __CrtSetDbgBlockType       10072f80 f   libucrtd:debug_heap.obj
 0001:00072060       __CrtSetDbgFlag            10073060 f   libucrtd:debug_heap.obj
 0001:000721d0       __CrtSetDumpClient         100731d0 f   libucrtd:debug_heap.obj
 0001:000721f0       ___acrt_get_locale_data_prefix 100731f0 f i libucrtd:debug_heap.obj
 0001:00072210       ___p__crtBreakAlloc        10073210 f   libucrtd:debug_heap.obj
 0001:00072220       ___p__crtDbgFlag           10073220 f   libucrtd:debug_heap.obj
 0001:00072230       __aligned_free_dbg         10073230 f   libucrtd:debug_heap.obj
 0001:000722e0       __aligned_malloc_dbg       100732e0 f   libucrtd:debug_heap.obj
 0001:00072310       __aligned_msize_dbg        10073310 f   libucrtd:debug_heap.obj
 0001:00072440       __aligned_offset_malloc_dbg 10073440 f   libucrtd:debug_heap.obj
 0001:00072620       __aligned_offset_realloc_dbg 10073620 f   libucrtd:debug_heap.obj
 0001:00072930       __aligned_offset_recalloc_dbg 10073930 f   libucrtd:debug_heap.obj
 0001:000729f0       __aligned_realloc_dbg      100739f0 f   libucrtd:debug_heap.obj
 0001:00072a20       __aligned_recalloc_dbg     10073a20 f   libucrtd:debug_heap.obj
 0001:00072a50       __calloc_dbg               10073a50 f   libucrtd:debug_heap.obj
 0001:00072ac0       __chvalidchk_l             10073ac0 f i libucrtd:debug_heap.obj
 0001:00072ae0       __expand_dbg               10073ae0 f   libucrtd:debug_heap.obj
 0001:00072c10       __free_dbg                 10073c10 f   libucrtd:debug_heap.obj
 0001:00072cc0       __ischartype_l             10073cc0 f i libucrtd:debug_heap.obj
 0001:00072d40       __malloc_dbg               10073d40 f   libucrtd:debug_heap.obj
 0001:00072d60       __msize_dbg                10073d60 f   libucrtd:debug_heap.obj
 0001:00072ef0       __realloc_dbg              10073ef0 f   libucrtd:debug_heap.obj
 0001:00072f90       __recalloc_dbg             10073f90 f   libucrtd:debug_heap.obj
 0001:00073040       __initterm                 10074040 f   libucrtd:initterm.obj
 0001:00073090       __initterm_e               10074090 f   libucrtd:initterm.obj
 0001:00073400       _strcpy_s                  10074400 f   libucrtd:strcpy_s.obj
 0001:00073830       _strcat_s                  10074830 f   libucrtd:strcat_s.obj
 0001:00073850       ??$?B$$A6AHI@Z@__crt_fast_encoded_nullptr_t@@QBEP6AHI@ZXZ 10074850 f i libucrtd:new_handler.obj
 0001:00073870       ??$__crt_fast_decode_pointer@P6AHI@Z@@YAP6AHI@ZQ6AHI@Z@Z 10074870 f i libucrtd:new_handler.obj
 0001:000738a0       ??$__crt_fast_encode_pointer@P6AHI@Z@@YAP6AHI@ZQ6AHI@Z@Z 100748a0 f i libucrtd:new_handler.obj
 0001:000738d0       ?_set_new_handler@@YAP6AHI@ZH@Z 100748d0 f   libucrtd:new_handler.obj
 0001:00073930       ?initialize@?$dual_state_global@P6AHI@Z@__crt_state_management@@QAEXQ6AHI@Z@Z 10074930 f i libucrtd:new_handler.obj
 0001:00073970       ?value@?$dual_state_global@P6AHI@Z@__crt_state_management@@QAEAAP6AHI@ZXZ 10074970 f i libucrtd:new_handler.obj
 0001:00073990       ___acrt_initialize_new_handler 10074990 f   libucrtd:new_handler.obj
 0001:000739b0       __callnewh                 100749b0 f   libucrtd:new_handler.obj
 0001:000739f0       __query_new_handler        100749f0 f   libucrtd:new_handler.obj
 0001:00073a80       __set_new_handler          10074a80 f   libucrtd:new_handler.obj
 0001:00073b60       __get_terminate            10074b60 f   libucrtd:terminate.obj
 0001:00073b80       _set_terminate             10074b80 f   libucrtd:terminate.obj
 0001:00073bb0       _terminate                 10074bb0 f   libucrtd:terminate.obj
 0001:00074580       __makepath                 10075580 f   libucrtd:makepath.obj
 0001:000745b0       __makepath_s               100755b0 f   libucrtd:makepath.obj
 0001:000745e0       __wmakepath                100755e0 f   libucrtd:makepath.obj
 0001:00074610       __wmakepath_s              10075610 f   libucrtd:makepath.obj
 0001:00075f60       ??$tcsncpy_s@AAPADIAAPBDABI@?$__crt_char_traits@D@@SAHAAPAD$$QAIAAPBDABI@Z 10076f60 f i libucrtd:splitpath.obj
 0001:00075f90       ??$tcsncpy_s@AAPADIAAPBDH@?$__crt_char_traits@D@@SAHAAPAD$$QAIAAPBD$$QAH@Z 10076f90 f i libucrtd:splitpath.obj
 0001:00075fc0       ??$tcsncpy_s@AAPA_WIAAPB_WABI@?$__crt_char_traits@_W@@SAHAAPA_W$$QAIAAPB_WABI@Z 10076fc0 f i libucrtd:splitpath.obj
 0001:00075ff0       ??$tcsncpy_s@AAPA_WIAAPB_WH@?$__crt_char_traits@_W@@SAHAAPA_W$$QAIAAPB_W$$QAH@Z 10076ff0 f i libucrtd:splitpath.obj
 0001:00076230       __splitpath                10077230 f   libucrtd:splitpath.obj
 0001:00076260       __splitpath_s              10077260 f   libucrtd:splitpath.obj
 0001:000762b0       __wsplitpath               100772b0 f   libucrtd:splitpath.obj
 0001:000762e0       __wsplitpath_s             100772e0 f   libucrtd:splitpath.obj
 0001:00076330       __set_abort_behavior       10077330 f   libucrtd:abort.obj
 0001:00076360       _abort                     10077360 f   libucrtd:abort.obj
 0001:000763d0       _strcmp                    100773d0 f   libucrtd:strcmp.obj
 0001:00076460       _strlen                    10077460 f   libucrtd:strlen.obj
 0001:000764f0       ??$is_overflow_condition@K@__crt_strtox@@YA_NIK@Z 100774f0 f i libucrtd:atox.obj
 0001:00076550       ??$is_overflow_condition@_K@__crt_strtox@@YA_NI_K@Z 10077550 f i libucrtd:atox.obj
 0001:000765e0       ??$make_c_string_character_source@D$$T@__crt_strtox@@YA?AV?$c_string_character_source@D@0@QBD$$T@Z 100775e0 f i libucrtd:atox.obj
 0001:00076600       ??$make_c_string_character_source@_W$$T@__crt_strtox@@YA?AV?$c_string_character_source@_W@0@QB_W$$T@Z 10077600 f i libucrtd:atox.obj
 0001:00076620       ??$parse_integer@KV?$c_string_character_source@D@__crt_strtox@@@__crt_strtox@@YAKQAU__crt_locale_pointers@@V?$c_string_character_source@D@0@H_N@Z 10077620 f i libucrtd:atox.obj
 0001:00076990       ??$parse_integer@KV?$c_string_character_source@_W@__crt_strtox@@@__crt_strtox@@YAKQAU__crt_locale_pointers@@V?$c_string_character_source@_W@0@H_N@Z 10077990 f i libucrtd:atox.obj
 0001:00076d00       ??$parse_integer@_KV?$c_string_character_source@D@__crt_strtox@@@__crt_strtox@@YA_KQAU__crt_locale_pointers@@V?$c_string_character_source@D@0@H_N@Z 10077d00 f i libucrtd:atox.obj
 0001:00077120       ??$parse_integer@_KV?$c_string_character_source@_W@__crt_strtox@@@__crt_strtox@@YA_KQAU__crt_locale_pointers@@V?$c_string_character_source@_W@0@H_N@Z 10078120 f i libucrtd:atox.obj
 0001:00077550       ??$parse_integer_from_string@JD$$T@__crt_strtox@@YAJQBD$$THQAU__crt_locale_pointers@@@Z 10078550 f i libucrtd:atox.obj
 0001:00077590       ??$parse_integer_from_string@J_W$$T@__crt_strtox@@YAJQB_W$$THQAU__crt_locale_pointers@@@Z 10078590 f i libucrtd:atox.obj
 0001:000775d0       ??$parse_integer_from_string@_JD$$T@__crt_strtox@@YA_JQBD$$THQAU__crt_locale_pointers@@@Z 100785d0 f i libucrtd:atox.obj
 0001:00077610       ??$parse_integer_from_string@_J_W$$T@__crt_strtox@@YA_JQB_W$$THQAU__crt_locale_pointers@@@Z 10078610 f i libucrtd:atox.obj
 0001:00077650       ??0?$c_string_character_source@D@__crt_strtox@@QAE@QBDQAPBD@Z 10078650 f i libucrtd:atox.obj
 0001:00077690       ??0?$c_string_character_source@_W@__crt_strtox@@QAE@QB_WQAPB_W@Z 10078690 f i libucrtd:atox.obj
 0001:000776d0       ??1?$c_string_character_source@D@__crt_strtox@@QAE@XZ 100786d0 f i libucrtd:atox.obj
 0001:00077700       ??1?$c_string_character_source@_W@__crt_strtox@@QAE@XZ 10078700 f i libucrtd:atox.obj
 0001:00077730       ?get@?$c_string_character_source@D@__crt_strtox@@QAEDXZ 10078730 f i libucrtd:atox.obj
 0001:00077760       ?get@?$c_string_character_source@_W@__crt_strtox@@QAE_WXZ 10078760 f i libucrtd:atox.obj
 0001:00077790       ?is_space@__crt_strtox@@YA_NDQAU__crt_locale_pointers@@@Z 10078790 f i libucrtd:atox.obj
 0001:000777d0       ?is_space@__crt_strtox@@YA_N_WPAU__crt_locale_pointers@@@Z 100787d0 f i libucrtd:atox.obj
 0001:00077800       ?maximum_signed_value@__crt_strtox@@YAJK@Z 10078800 f i libucrtd:atox.obj
 0001:00077810       ?maximum_signed_value@__crt_strtox@@YA_J_K@Z 10078810 f i libucrtd:atox.obj
 0001:00077820       ?minimum_signed_value@__crt_strtox@@YAJK@Z 10078820 f i libucrtd:atox.obj
 0001:00077830       ?minimum_signed_value@__crt_strtox@@YA_J_K@Z 10078830 f i libucrtd:atox.obj
 0001:00077840       ?parse_digit@__crt_strtox@@YAID@Z 10078840 f i libucrtd:atox.obj
 0001:000778a0       ?parse_digit@__crt_strtox@@YAI_W@Z 100788a0 f i libucrtd:atox.obj
 0001:000778f0       ?restore_state@?$c_string_character_source@D@__crt_strtox@@QAE_NQBD@Z 100788f0 f i libucrtd:atox.obj
 0001:00077910       ?restore_state@?$c_string_character_source@_W@__crt_strtox@@QAE_NQB_W@Z 10078910 f i libucrtd:atox.obj
 0001:00077930       ?save_state@?$c_string_character_source@D@__crt_strtox@@QBEPBDXZ 10078930 f i libucrtd:atox.obj
 0001:00077950       ?save_state@?$c_string_character_source@_W@__crt_strtox@@QBEPB_WXZ 10078950 f i libucrtd:atox.obj
 0001:00077970       ?unget@?$c_string_character_source@D@__crt_strtox@@QAEXD@Z 10078970 f i libucrtd:atox.obj
 0001:00077a20       ?unget@?$c_string_character_source@_W@__crt_strtox@@QAEX_W@Z 10078a20 f i libucrtd:atox.obj
 0001:00077ad0       ?validate@?$c_string_character_source@D@__crt_strtox@@QBE_NXZ 10078ad0 f i libucrtd:atox.obj
 0001:00077b60       ?validate@?$c_string_character_source@_W@__crt_strtox@@QBE_NXZ 10078b60 f i libucrtd:atox.obj
 0001:00077bf0       ?wide_character_to_digit@__crt_strtox@@YAH_W@Z 10078bf0 f i libucrtd:atox.obj
 0001:00077f20       ___ascii_iswalpha          10078f20 f i libucrtd:atox.obj
 0001:00077f60       ___ascii_toupper           10078f60 f i libucrtd:atox.obj
 0001:00077f80       ___ascii_towupper          10078f80 f i libucrtd:atox.obj
 0001:00077fa0       __atoi64                   10078fa0 f   libucrtd:atox.obj
 0001:00077fc0       __atoi64_l                 10078fc0 f   libucrtd:atox.obj
 0001:00077fe0       __atoi_l                   10078fe0 f   libucrtd:atox.obj
 0001:00078000       __atol_l                   10079000 f   libucrtd:atox.obj
 0001:00078020       __atoll_l                  10079020 f   libucrtd:atox.obj
 0001:00078040       __wtoi                     10079040 f   libucrtd:atox.obj
 0001:00078060       __wtoi64                   10079060 f   libucrtd:atox.obj
 0001:00078080       __wtoi64_l                 10079080 f   libucrtd:atox.obj
 0001:000780a0       __wtoi_l                   100790a0 f   libucrtd:atox.obj
 0001:000780c0       __wtol                     100790c0 f   libucrtd:atox.obj
 0001:000780e0       __wtol_l                   100790e0 f   libucrtd:atox.obj
 0001:00078100       __wtoll                    10079100 f   libucrtd:atox.obj
 0001:00078120       __wtoll_l                  10079120 f   libucrtd:atox.obj
 0001:00078140       _atoi                      10079140 f   libucrtd:atox.obj
 0001:00078160       _atol                      10079160 f   libucrtd:atox.obj
 0001:00078180       _atoll                     10079180 f   libucrtd:atox.obj
 0001:000781a0       _strncmp                   100791a0 f   libucrtd:strncmp.obj
 0001:00078220       _wcsncmp                   10079220 f   libucrtd:wcsncmp.obj
 0001:00078280       __CrtGetDebugFillThreshold 10079280 f   libucrtd:debug_fill_threshold.obj
 0001:00078290       __CrtSetDebugFillThreshold 10079290 f   libucrtd:debug_fill_threshold.obj
 0001:000782b0       ??$make_c_string_character_source@DPAPAD@__crt_strtox@@YA?AV?$c_string_character_source@D@0@QBDQAPAD@Z 100792b0 f i libucrtd:strtox.obj
 0001:000782d0       ??$make_c_string_character_source@_WPAPA_W@__crt_strtox@@YA?AV?$c_string_character_source@_W@0@QB_WQAPA_W@Z 100792d0 f i libucrtd:strtox.obj
 0001:000782f0       ??$parse_integer_from_string@JDPAPAD@__crt_strtox@@YAJQBDQAPADHQAU__crt_locale_pointers@@@Z 100792f0 f i libucrtd:strtox.obj
 0001:00078330       ??$parse_integer_from_string@J_WPAPA_W@__crt_strtox@@YAJQB_WQAPA_WHQAU__crt_locale_pointers@@@Z 10079330 f i libucrtd:strtox.obj
 0001:00078370       ??$parse_integer_from_string@KDPAPAD@__crt_strtox@@YAKQBDQAPADHQAU__crt_locale_pointers@@@Z 10079370 f i libucrtd:strtox.obj
 0001:000783b0       ??$parse_integer_from_string@K_WPAPA_W@__crt_strtox@@YAKQB_WQAPA_WHQAU__crt_locale_pointers@@@Z 100793b0 f i libucrtd:strtox.obj
 0001:000783f0       ??$parse_integer_from_string@_JDPAPAD@__crt_strtox@@YA_JQBDQAPADHQAU__crt_locale_pointers@@@Z 100793f0 f i libucrtd:strtox.obj
 0001:00078430       ??$parse_integer_from_string@_J_WPAPA_W@__crt_strtox@@YA_JQB_WQAPA_WHQAU__crt_locale_pointers@@@Z 10079430 f i libucrtd:strtox.obj
 0001:00078470       ??$parse_integer_from_string@_KDPAPAD@__crt_strtox@@YA_KQBDQAPADHQAU__crt_locale_pointers@@@Z 10079470 f i libucrtd:strtox.obj
 0001:000784b0       ??$parse_integer_from_string@_K_WPAPA_W@__crt_strtox@@YA_KQB_WQAPA_WHQAU__crt_locale_pointers@@@Z 100794b0 f i libucrtd:strtox.obj
 0001:000784f0       __strtoi64                 100794f0 f   libucrtd:strtox.obj
 0001:00078510       __strtoi64_l               10079510 f   libucrtd:strtox.obj
 0001:00078530       __strtoimax_l              10079530 f   libucrtd:strtox.obj
 0001:00078550       __strtol_l                 10079550 f   libucrtd:strtox.obj
 0001:00078570       __strtoll_l                10079570 f   libucrtd:strtox.obj
 0001:00078590       __strtoui64                10079590 f   libucrtd:strtox.obj
 0001:000785b0       __strtoui64_l              100795b0 f   libucrtd:strtox.obj
 0001:000785d0       __strtoul_l                100795d0 f   libucrtd:strtox.obj
 0001:000785f0       __strtoull_l               100795f0 f   libucrtd:strtox.obj
 0001:00078610       __strtoumax_l              10079610 f   libucrtd:strtox.obj
 0001:00078630       __wcstoi64                 10079630 f   libucrtd:strtox.obj
 0001:00078650       __wcstoi64_l               10079650 f   libucrtd:strtox.obj
 0001:00078670       __wcstoimax_l              10079670 f   libucrtd:strtox.obj
 0001:00078690       __wcstol_l                 10079690 f   libucrtd:strtox.obj
 0001:000786b0       __wcstoll_l                100796b0 f   libucrtd:strtox.obj
 0001:000786d0       __wcstoui64                100796d0 f   libucrtd:strtox.obj
 0001:000786f0       __wcstoui64_l              100796f0 f   libucrtd:strtox.obj
 0001:00078710       __wcstoul_l                10079710 f   libucrtd:strtox.obj
 0001:00078730       __wcstoull_l               10079730 f   libucrtd:strtox.obj
 0001:00078750       __wcstoumax_l              10079750 f   libucrtd:strtox.obj
 0001:00078770       _strtoimax                 10079770 f   libucrtd:strtox.obj
 0001:00078790       _strtol                    10079790 f   libucrtd:strtox.obj
 0001:000787b0       _strtoll                   100797b0 f   libucrtd:strtox.obj
 0001:000787d0       _strtoul                   100797d0 f   libucrtd:strtox.obj
 0001:000787f0       _strtoull                  100797f0 f   libucrtd:strtox.obj
 0001:00078810       _strtoumax                 10079810 f   libucrtd:strtox.obj
 0001:00078830       _wcstoimax                 10079830 f   libucrtd:strtox.obj
 0001:00078850       _wcstol                    10079850 f   libucrtd:strtox.obj
 0001:00078870       _wcstoll                   10079870 f   libucrtd:strtox.obj
 0001:00078890       _wcstoul                   10079890 f   libucrtd:strtox.obj
 0001:000788b0       _wcstoull                  100798b0 f   libucrtd:strtox.obj
 0001:000788d0       _wcstoumax                 100798d0 f   libucrtd:strtox.obj
 0001:000788f0       __mbtowc_l                 100798f0 f   libucrtd:mbtowc.obj
 0001:00078c10       _mbtowc                    10079c10 f   libucrtd:mbtowc.obj
 0001:00078c30       __wctomb_l                 10079c30 f   libucrtd:wctomb.obj
 0001:00078cb0       __wctomb_s_l               10079cb0 f   libucrtd:wctomb.obj
 0001:00079070       _wctomb                    1007a070 f   libucrtd:wctomb.obj
 0001:000790c0       _wctomb_s                  1007a0c0 f   libucrtd:wctomb.obj
 0001:000790f0       ??$?RU__acrt_ptd@@@__crt_internal_free_policy@@QBEXQBU__acrt_ptd@@@Z 1007a0f0 f i libucrtd:per_thread_data.obj
 0001:000795a0       ??0?$__crt_unique_heap_ptr@U__acrt_ptd@@U__crt_internal_free_policy@@@@QAE@QAU__acrt_ptd@@@Z 1007a5a0 f i libucrtd:per_thread_data.obj
 0001:000795c0       ??0__crt_scoped_get_last_error_reset@@QAE@XZ 1007a5c0 f i libucrtd:per_thread_data.obj
 0001:000795e0       ??1?$__crt_unique_heap_ptr@U__acrt_ptd@@U__crt_internal_free_policy@@@@QAE@XZ 1007a5e0 f i libucrtd:per_thread_data.obj
 0001:00079600       ??1__crt_scoped_get_last_error_reset@@QAE@XZ 1007a600 f i libucrtd:per_thread_data.obj
 0001:00079620       ??B?$__crt_unique_heap_ptr@U__acrt_ptd@@U__crt_internal_free_policy@@@@QBE_NXZ 1007a620 f i libucrtd:per_thread_data.obj
 0001:00079900       ?dangerous_get_state_array@?$dual_state_global@PAU__crt_locale_data@@@__crt_state_management@@QAEPAPAU__crt_locale_data@@XZ 1007a900 f i libucrtd:per_thread_data.obj
 0001:00079a80       ?detach@?$__crt_unique_heap_ptr@U__acrt_ptd@@U__crt_internal_free_policy@@@@QAEPAU__acrt_ptd@@XZ 1007aa80 f i libucrtd:per_thread_data.obj
 0001:00079ab0       ?get@?$__crt_unique_heap_ptr@U__acrt_ptd@@U__crt_internal_free_policy@@@@QBEPAU__acrt_ptd@@XZ 1007aab0 f i libucrtd:per_thread_data.obj
 0001:00079ad0       ?get_current_state_index@__crt_state_management@@YAIABV__crt_scoped_get_last_error_reset@@@Z 1007aad0 f i libucrtd:per_thread_data.obj
 0001:00079c40       ?is_valid@?$__crt_unique_heap_ptr@U__acrt_ptd@@U__crt_internal_free_policy@@@@QBE_NXZ 1007ac40 f i libucrtd:per_thread_data.obj
 0001:00079c70       ?release@?$__crt_unique_heap_ptr@U__acrt_ptd@@U__crt_internal_free_policy@@@@QAEXXZ 1007ac70 f i libucrtd:per_thread_data.obj
 0001:00079d60       ?value@?$dual_state_global@PAU__crt_locale_data@@@__crt_state_management@@QAEAAPAU__crt_locale_data@@XZ 1007ad60 f i libucrtd:per_thread_data.obj
 0001:00079d80       ___acrt_freeptd            1007ad80 f   libucrtd:per_thread_data.obj
 0001:00079db0       ___acrt_getptd             1007adb0 f   libucrtd:per_thread_data.obj
 0001:00079dd0       ___acrt_getptd_head        1007add0 f   libucrtd:per_thread_data.obj
 0001:00079df0       ___acrt_getptd_noexit      1007adf0 f   libucrtd:per_thread_data.obj
 0001:00079e00       ___acrt_initialize_ptd     1007ae00 f   libucrtd:per_thread_data.obj
 0001:00079e40       ___acrt_uninitialize_ptd   1007ae40 f   libucrtd:per_thread_data.obj
 0001:00079e70       ___threadhandle            1007ae70 f   libucrtd:per_thread_data.obj
 0001:00079e80       ___threadid                1007ae80 f   libucrtd:per_thread_data.obj
 0001:00079e90       ?value@?$dual_state_global@PAU__crt_multibyte_data@@@__crt_state_management@@QAEAAPAU__crt_multibyte_data@@XZ 1007ae90 f i libucrtd:locale_update.obj
 0001:00079eb0       ___acrt_should_sync_with_global_locale 1007aeb0 f i libucrtd:locale_update.obj
 0001:00079ee0       ___acrt_update_locale_info 1007aee0 f   libucrtd:locale_update.obj
 0001:00079f20       ___acrt_update_multibyte_info 1007af20 f   libucrtd:locale_update.obj
 0001:00079f60       ?__acrt_fp_classify@@YA?AW4__acrt_fp_class@@ABN@Z 1007af60 f i libucrtd:cvt.obj
 0001:0007a080       ?__acrt_fp_is_negative@@YA_NABN@Z 1007b080 f i libucrtd:cvt.obj
 0001:0007b370       ?strrchr@@YAPADQADH@Z      1007c370 f i libucrtd:cvt.obj
 0001:0007b390       ___acrt_fp_format          1007c390 f   libucrtd:cvt.obj
 0001:0007b850       __fputwc_nolock            1007c850 f   libucrtd:fputwc.obj
 0001:0007ba40       __fputwchar                1007ca40 f   libucrtd:fputwc.obj
 0001:0007ba60       __putwc_nolock             1007ca60 f   libucrtd:fputwc.obj
 0001:0007ba80       _fputwc                    1007ca80 f   libucrtd:fputwc.obj
 0001:0007bb90       _putwc                     1007cb90 f   libucrtd:fputwc.obj
 0001:0007bbb0       _putwchar                  1007cbb0 f   libucrtd:fputwc.obj
 0001:0007bbd0       ?lowio_handle@__crt_stdio_stream@@QBEHXZ 1007cbd0 f i libucrtd:fileno.obj
 0001:0007bbf0       __fileno                   1007cbf0 f   libucrtd:fileno.obj
 0001:0007bc90       ??$?RPAU__crt_stdio_stream_data@@@__crt_internal_free_policy@@QBEXQBQAU__crt_stdio_stream_data@@@Z 1007cc90 f i libucrtd:_file.obj
 0001:0007bcb0       ??0?$__crt_unique_heap_ptr@PAU__crt_stdio_stream_data@@U__crt_internal_free_policy@@@@QAE@QAPAU__crt_stdio_stream_data@@@Z 1007ccb0 f i libucrtd:_file.obj
 0001:0007bcd0       ??1?$__crt_unique_heap_ptr@PAU__crt_stdio_stream_data@@U__crt_internal_free_policy@@@@QAE@XZ 1007ccd0 f i libucrtd:_file.obj
 0001:0007bcf0       ?detach@?$__crt_unique_heap_ptr@PAU__crt_stdio_stream_data@@U__crt_internal_free_policy@@@@QAEPAPAU__crt_stdio_stream_data@@XZ 1007ccf0 f i libucrtd:_file.obj
 0001:0007bd20       ?release@?$__crt_unique_heap_ptr@PAU__crt_stdio_stream_data@@U__crt_internal_free_policy@@@@QAEXXZ 1007cd20 f i libucrtd:_file.obj
 0001:0007bd50       ___acrt_initialize_stdio   1007cd50 f   libucrtd:_file.obj
 0001:0007bec0       ___acrt_iob_func           1007cec0 f   libucrtd:_file.obj
 0001:0007bed0       ___acrt_uninitialize_stdio 1007ced0 f   libucrtd:_file.obj
 0001:0007bf50       __get_stream_buffer_pointers 1007cf50 f   libucrtd:_file.obj
 0001:0007c030       __lock_file                1007d030 f   libucrtd:_file.obj
 0001:0007c060       __unlock_file              1007d060 f   libucrtd:_file.obj
 0001:0007c090       __get_printf_count_output  1007d090 f   libucrtd:printf_count_output.obj
 0001:0007c0c0       __set_printf_count_output  1007d0c0 f   libucrtd:printf_count_output.obj
 0001:0007c120       ?has_any_buffer@__crt_stdio_stream@@QBE_NXZ 1007d120 f i libucrtd:_sftbuf.obj
 0001:0007c140       ?has_any_of@__crt_stdio_stream@@QBE_NJ@Z 1007d140 f i libucrtd:_sftbuf.obj
 0001:0007c180       ?has_temporary_buffer@__crt_stdio_stream@@QBE_NXZ 1007d180 f i libucrtd:_sftbuf.obj
 0001:0007c1a0       ?set_flags@__crt_stdio_stream@@QBE_NJ@Z 1007d1a0 f i libucrtd:_sftbuf.obj
 0001:0007c1f0       ?unset_flags@__crt_stdio_stream@@QBE_NJ@Z 1007d1f0 f i libucrtd:_sftbuf.obj
 0001:0007c240       ___acrt_should_use_temporary_buffer 1007d240 f   libucrtd:_sftbuf.obj
 0001:0007c290       ___acrt_stdio_begin_temporary_buffering_nolock 1007d290 f   libucrtd:_sftbuf.obj
 0001:0007c440       ___acrt_stdio_end_temporary_buffering_nolock 1007d440 f   libucrtd:_sftbuf.obj
 0001:0007c4d0       ??$?RU__crt_locale_data@@@__crt_internal_free_policy@@QBEXQBU__crt_locale_data@@@Z 1007d4d0 f i libucrtd:wsetlocale.obj
 0001:0007c4f0       ??$?RU__crt_locale_pointers@@@__crt_internal_free_policy@@QBEXQBU__crt_locale_pointers@@@Z 1007d4f0 f i libucrtd:wsetlocale.obj
 0001:0007c510       ??$?RU__crt_multibyte_data@@@__crt_internal_free_policy@@QBEXQBU__crt_multibyte_data@@@Z 1007d510 f i libucrtd:wsetlocale.obj
 0001:0007cb00       ??0?$__crt_unique_heap_ptr@U__crt_locale_data@@U__crt_internal_free_policy@@@@QAE@QAU__crt_locale_data@@@Z 1007db00 f i libucrtd:wsetlocale.obj
 0001:0007cb20       ??0?$__crt_unique_heap_ptr@U__crt_locale_pointers@@U__crt_internal_free_policy@@@@QAE@QAU__crt_locale_pointers@@@Z 1007db20 f i libucrtd:wsetlocale.obj
 0001:0007cb40       ??0?$__crt_unique_heap_ptr@U__crt_multibyte_data@@U__crt_internal_free_policy@@@@QAE@QAU__crt_multibyte_data@@@Z 1007db40 f i libucrtd:wsetlocale.obj
 0001:0007cb60       ??0_expandlocale_locale_name_cache@@QAE@QA_WIQAU__crt_qualified_locale_data@@@Z 1007db60 f i libucrtd:wsetlocale.obj
 0001:0007cbd0       ??1?$__crt_unique_heap_ptr@U__crt_locale_data@@U__crt_internal_free_policy@@@@QAE@XZ 1007dbd0 f i libucrtd:wsetlocale.obj
 0001:0007cbf0       ??1?$__crt_unique_heap_ptr@U__crt_locale_pointers@@U__crt_internal_free_policy@@@@QAE@XZ 1007dbf0 f i libucrtd:wsetlocale.obj
 0001:0007cc10       ??1?$__crt_unique_heap_ptr@U__crt_multibyte_data@@U__crt_internal_free_policy@@@@QAE@XZ 1007dc10 f i libucrtd:wsetlocale.obj
 0001:0007cc30       ??1_expandlocale_locale_name_cache@@QAE@XZ 1007dc30 f i libucrtd:wsetlocale.obj
 0001:0007cc90       ??B?$__crt_unique_heap_ptr@U__crt_locale_data@@U__crt_internal_free_policy@@@@QBE_NXZ 1007dc90 f i libucrtd:wsetlocale.obj
 0001:0007ccb0       ??B?$__crt_unique_heap_ptr@U__crt_locale_pointers@@U__crt_internal_free_policy@@@@QBE_NXZ 1007dcb0 f i libucrtd:wsetlocale.obj
 0001:0007ccd0       ??B?$__crt_unique_heap_ptr@U__crt_multibyte_data@@U__crt_internal_free_policy@@@@QBE_NXZ 1007dcd0 f i libucrtd:wsetlocale.obj
 0001:0007d0b0       ?commit_locale_name@_expandlocale_locale_name_cache@@QAEXQB_WI@Z 1007e0b0 f i libucrtd:wsetlocale.obj
 0001:0007d110       ?commit_locale_name_cache_already_updated@_expandlocale_locale_name_cache@@QAEXQB_WI@Z 1007e110 f i libucrtd:wsetlocale.obj
 0001:0007d170       ?detach@?$__crt_unique_heap_ptr@U__crt_locale_data@@U__crt_internal_free_policy@@@@QAEPAU__crt_locale_data@@XZ 1007e170 f i libucrtd:wsetlocale.obj
 0001:0007d1a0       ?detach@?$__crt_unique_heap_ptr@U__crt_locale_pointers@@U__crt_internal_free_policy@@@@QAEPAU__crt_locale_pointers@@XZ 1007e1a0 f i libucrtd:wsetlocale.obj
 0001:0007d1d0       ?detach@?$__crt_unique_heap_ptr@U__crt_multibyte_data@@U__crt_internal_free_policy@@@@QAEPAU__crt_multibyte_data@@XZ 1007e1d0 f i libucrtd:wsetlocale.obj
 0001:0007d200       ?get@?$__crt_unique_heap_ptr@U__crt_locale_data@@U__crt_internal_free_policy@@@@QBEPAU__crt_locale_data@@XZ 1007e200 f i libucrtd:wsetlocale.obj
 0001:0007d220       ?get@?$__crt_unique_heap_ptr@U__crt_locale_pointers@@U__crt_internal_free_policy@@@@QBEPAU__crt_locale_pointers@@XZ 1007e220 f i libucrtd:wsetlocale.obj
 0001:0007d240       ?get@?$__crt_unique_heap_ptr@U__crt_multibyte_data@@U__crt_internal_free_policy@@@@QBEPAU__crt_multibyte_data@@XZ 1007e240 f i libucrtd:wsetlocale.obj
 0001:0007d260       ?is_valid@?$__crt_unique_heap_ptr@U__crt_locale_data@@U__crt_internal_free_policy@@@@QBE_NXZ 1007e260 f i libucrtd:wsetlocale.obj
 0001:0007d290       ?is_valid@?$__crt_unique_heap_ptr@U__crt_locale_pointers@@U__crt_internal_free_policy@@@@QBE_NXZ 1007e290 f i libucrtd:wsetlocale.obj
 0001:0007d2c0       ?is_valid@?$__crt_unique_heap_ptr@U__crt_multibyte_data@@U__crt_internal_free_policy@@@@QBE_NXZ 1007e2c0 f i libucrtd:wsetlocale.obj
 0001:0007d2f0       ?release@?$__crt_unique_heap_ptr@U__crt_locale_data@@U__crt_internal_free_policy@@@@QAEXXZ 1007e2f0 f i libucrtd:wsetlocale.obj
 0001:0007d320       ?release@?$__crt_unique_heap_ptr@U__crt_locale_pointers@@U__crt_internal_free_policy@@@@QAEXXZ 1007e320 f i libucrtd:wsetlocale.obj
 0001:0007d350       ?release@?$__crt_unique_heap_ptr@U__crt_multibyte_data@@U__crt_internal_free_policy@@@@QAEXXZ 1007e350 f i libucrtd:wsetlocale.obj
 0001:0007d380       ___acrt_copy_locale_name   1007e380 f   libucrtd:wsetlocale.obj
 0001:0007d420       ___acrt_set_locale_changed 1007e420 f   libucrtd:wsetlocale.obj
 0001:0007d440       ___acrt_uninitialize_locale 1007e440 f   libucrtd:wsetlocale.obj
 0001:0007d460       ___ascii_tolower           1007e460 f i libucrtd:wsetlocale.obj
 0001:0007d480       ___ascii_towlower          1007e480 f i libucrtd:wsetlocale.obj
 0001:0007d4a0       ___lc_lctowcs              1007e4a0 f   libucrtd:wsetlocale.obj
 0001:0007d550       ___lc_wcstolc              1007e550 f   libucrtd:wsetlocale.obj
 0001:0007d780       __configthreadlocale       1007e780 f   libucrtd:wsetlocale.obj
 0001:0007d900       __create_locale            1007e900 f   libucrtd:wsetlocale.obj
 0001:0007df40       __free_locale              1007ef40 f   libucrtd:wsetlocale.obj
 0001:0007e070       __get_current_locale       1007f070 f   libucrtd:wsetlocale.obj
 0001:0007e140       __wcreate_locale           1007f140 f   libucrtd:wsetlocale.obj
 0001:0007e380       __wcscats                  1007f380 f   libucrtd:wsetlocale.obj
 0001:0007e400       __wsetlocale               1007f400 f   libucrtd:wsetlocale.obj
 0001:0007faf0       ___p___mb_cur_max          10080af0 f   libucrtd:nlsdata.obj
 0001:0007fdf0       ___acrt_initialize_lowio   10080df0 f   libucrtd:ioinit.obj
 0001:0007fe90       ___acrt_uninitialize_lowio 10080e90 f   libucrtd:ioinit.obj
 0001:0007fef0       __CrtGetReportHook         10080ef0 f   libucrtd:dbgrptt.obj
 0001:0007ff00       __CrtSetReportFile         10080f00 f   libucrtd:dbgrptt.obj
 0001:00080000       __CrtSetReportHook         10081000 f   libucrtd:dbgrptt.obj
 0001:00080020       __CrtSetReportMode         10081020 f   libucrtd:dbgrptt.obj
 0001:00080160       __VCrtDbgReportA           10081160 f   libucrtd:dbgrptt.obj
 0001:000809e0       __VCrtDbgReportW           100819e0 f   libucrtd:dbgrptt.obj
 0001:00081390       __snprintf_s               10082390 f i libucrtd:dbgrptt.obj
 0001:000813d0       __vsnprintf_s              100823d0 f i libucrtd:dbgrptt.obj
 0001:00081400       __vsnprintf_s_l            10082400 f i libucrtd:dbgrptt.obj
 0001:00081590       ??$__acrt_wcs_to_mbs_cp@U__crt_win32_buffer_no_resizing@@@@YAHQB_WAAV?$__crt_win32_buffer@DU__crt_win32_buffer_no_resizing@@@@I@Z 10082590 f i libucrtd:getmodulefilenamea.obj
 0001:000815c0       ??0?$__crt_win32_buffer@DU__crt_win32_buffer_no_resizing@@@@QAE@QADI@Z 100825c0 f i libucrtd:getmodulefilenamea.obj
 0001:00081610       ??1?$__crt_win32_buffer@DU__crt_win32_buffer_no_resizing@@@@QAE@XZ 10082610 f i libucrtd:getmodulefilenamea.obj
 0001:00081680       ?__acrt_get_utf8_acp_compatibility_codepage@@YAIXZ 10082680 f i libucrtd:getmodulefilenamea.obj
 0001:00081710       ?_deallocate@?$__crt_win32_buffer@DU__crt_win32_buffer_no_resizing@@@@AAEXXZ 10082710 f i libucrtd:getmodulefilenamea.obj
 0001:00081750       ?allocate@?$__crt_win32_buffer@DU__crt_win32_buffer_no_resizing@@@@QAEHI@Z 10082750 f i libucrtd:getmodulefilenamea.obj
 0001:000817c0       ?allocate@__crt_win32_buffer_no_resizing@@SAHQAPAXIABV__crt_win32_buffer_empty_debug_info@@@Z 100827c0 f i libucrtd:getmodulefilenamea.obj
 0001:000817e0       ?capacity@?$__crt_win32_buffer@DU__crt_win32_buffer_no_resizing@@@@QBEIXZ 100827e0 f i libucrtd:getmodulefilenamea.obj
 0001:00081800       ?data@?$__crt_win32_buffer@DU__crt_win32_buffer_no_resizing@@@@QAEPADXZ 10082800 f i libucrtd:getmodulefilenamea.obj
 0001:00081820       ?deallocate@__crt_win32_buffer_no_resizing@@SAXQAXABV__crt_win32_buffer_empty_debug_info@@@Z 10082820 f i libucrtd:getmodulefilenamea.obj
 0001:00081830       ?debug_info@?$__crt_win32_buffer@DU__crt_win32_buffer_no_resizing@@@@QBEABV__crt_win32_buffer_empty_debug_info@@XZ 10082830 f i libucrtd:getmodulefilenamea.obj
 0001:00081840       ?set_to_nullptr@?$__crt_win32_buffer@DU__crt_win32_buffer_no_resizing@@@@QAEXXZ 10082840 f i libucrtd:getmodulefilenamea.obj
 0001:00081880       ?size@?$__crt_win32_buffer@DU__crt_win32_buffer_no_resizing@@@@QAEXI@Z 10082880 f i libucrtd:getmodulefilenamea.obj
 0001:000818a0       ?size@?$__crt_win32_buffer@DU__crt_win32_buffer_no_resizing@@@@QBEIXZ 100828a0 f i libucrtd:getmodulefilenamea.obj
 0001:000818c0       ___acrt_GetModuleFileNameA 100828c0 f   libucrtd:getmodulefilenamea.obj
 0001:00081ba0       ??$message_box@$$TABQBDABQBDK@?$__crt_char_traits@D@@SAH$$QA$$TABQBD1$$QAK@Z 10082ba0 f i libucrtd:crtmbox.obj
 0001:00081bd0       ??$message_box@$$TABQB_WABQB_WK@?$__crt_char_traits@_W@@SAH$$QA$$TABQB_W1$$QAK@Z 10082bd0 f i libucrtd:crtmbox.obj
 0001:00081c00       ??$message_box@PAUHWND__@@ABQBDABQBDABI@?$__crt_char_traits@D@@SAH$$QAPAUHWND__@@ABQBD1ABI@Z 10082c00 f i libucrtd:crtmbox.obj
 0001:00081c30       ??$message_box@PAUHWND__@@ABQB_WABQB_WABI@?$__crt_char_traits@_W@@SAH$$QAPAUHWND__@@ABQB_W1ABI@Z 10082c30 f i libucrtd:crtmbox.obj
 0001:00081c60       ??$output_debug_string@ABQBD@?$__crt_char_traits@D@@SAXABQBD@Z 10082c60 f i libucrtd:crtmbox.obj
 0001:00081c80       ??$output_debug_string@ABQB_W@?$__crt_char_traits@_W@@SAXABQB_W@Z 10082c80 f i libucrtd:crtmbox.obj
 0001:00081ca0       ___acrt_show_narrow_message_box 10082ca0 f   libucrtd:crtmbox.obj
 0001:00081cc0       ___acrt_show_wide_message_box 10082cc0 f   libucrtd:crtmbox.obj
 0001:00081ce0       ___acrt_initialize_locks   10082ce0 f   libucrtd:locks.obj
 0001:00081d40       ___acrt_lock               10082d40 f   libucrtd:locks.obj
 0001:00081d60       ___acrt_uninitialize_locks 10082d60 f   libucrtd:locks.obj
 0001:00081db0       ___acrt_unlock             10082db0 f   libucrtd:locks.obj
 0001:00081dd0       __lock_locales             10082dd0 f   libucrtd:locks.obj
 0001:00081df0       __unlock_locales           10082df0 f   libucrtd:locks.obj
 0001:00081e10       ??$?B$$A6AXH@Z@__crt_fast_encoded_nullptr_t@@QBEP6AXH@ZXZ 10082e10 f i libucrtd:signal.obj
 0001:00081f00       ??$__crt_fast_decode_pointer@P6AXH@Z@@YAP6AXH@ZQ6AXH@Z@Z 10082f00 f i libucrtd:signal.obj
 0001:00081f30       ??$__crt_fast_encode_pointer@P6AXH@Z@@YAP6AXH@ZQ6AXH@Z@Z 10082f30 f i libucrtd:signal.obj
 0001:000821e0       ?initialize@?$dual_state_global@P6AXH@Z@__crt_state_management@@QAEXQ6AXH@Z@Z 100831e0 f i libucrtd:signal.obj
 0001:00082320       ?value@?$dual_state_global@P6AXH@Z@__crt_state_management@@QAEAAP6AXH@ZXZ 10083320 f i libucrtd:signal.obj
 0001:00082340       ___acrt_get_sigabrt_handler 10083340 f   libucrtd:signal.obj
 0001:00082360       ___acrt_initialize_signal_handlers 10083360 f   libucrtd:signal.obj
 0001:000823a0       ___fpecode                 100833a0 f   libucrtd:signal.obj
 0001:000823b0       ___pxcptinfoptrs           100833b0 f   libucrtd:signal.obj
 0001:000823c0       _raise                     100833c0 f   libucrtd:signal.obj
 0001:00082790       _signal                    10083790 f   libucrtd:signal.obj
 0001:00082a10       __msize                    10083a10 f   libucrtd:msize.obj
 0001:00082a30       __msize_base               10083a30 f   libucrtd:msize.obj
 0001:00082ad0       __realloc_base             10083ad0 f   libucrtd:realloc_base.obj
 0001:00082b90       ??$?B$$A6GHPA_WKJ@Z@__crt_fast_encoded_nullptr_t@@QBEP6GHPA_WKJ@ZXZ 10083b90 f i libucrtd:winapi_thunks.obj
 0001:00082c80       ??$__crt_fast_decode_pointer@P6GHPA_WKJ@Z@@YAP6GHPA_WKJ@ZQ6GH0KJ@Z@Z 10083c80 f i libucrtd:winapi_thunks.obj
 0001:00082cb0       ??$__crt_fast_decode_pointer@PAX@@YAPAXQAX@Z 10083cb0 f i libucrtd:winapi_thunks.obj
 0001:00082ce0       ??$__crt_fast_encode_pointer@P6GHPA_WKJ@Z@@YAP6GHPA_WKJ@ZQ6GH0KJ@Z@Z 10083ce0 f i libucrtd:winapi_thunks.obj
 0001:00083640       _GetCurrentThreadEffectiveToken 10084640 f i libucrtd:winapi_thunks.obj
 0001:00083650       ___acrt_AppPolicyGetProcessTerminationMethodInternal@4 10084650 f   libucrtd:winapi_thunks.obj
 0001:00083690       ___acrt_AppPolicyGetShowDeveloperDiagnosticInternal@4 10084690 f   libucrtd:winapi_thunks.obj
 0001:000836d0       ___acrt_AppPolicyGetThreadInitializationTypeInternal@4 100846d0 f   libucrtd:winapi_thunks.obj
 0001:00083710       ___acrt_AppPolicyGetWindowingModelInternal@4 10084710 f   libucrtd:winapi_thunks.obj
 0001:00083750       ___acrt_AreFileApisANSI@0  10084750 f   libucrtd:winapi_thunks.obj
 0001:00083790       ___acrt_CompareStringEx@36 10084790 f   libucrtd:winapi_thunks.obj
 0001:00083810       ___acrt_EnumSystemLocalesEx@16 10084810 f   libucrtd:winapi_thunks.obj
 0001:00083870       ___acrt_FlsAlloc@4         10084870 f   libucrtd:winapi_thunks.obj
 0001:000838b0       ___acrt_FlsFree@4          100848b0 f   libucrtd:winapi_thunks.obj
 0001:000838f0       ___acrt_FlsGetValue@4      100848f0 f   libucrtd:winapi_thunks.obj
 0001:00083930       ___acrt_FlsSetValue@8      10084930 f   libucrtd:winapi_thunks.obj
 0001:00083980       ___acrt_GetDateFormatEx@28 10084980 f   libucrtd:winapi_thunks.obj
 0001:00083a00       ___acrt_GetEnabledXStateFeatures@0 10084a00 f   libucrtd:winapi_thunks.obj
 0001:00083a40       ___acrt_GetLocaleInfoEx@16 10084a40 f   libucrtd:winapi_thunks.obj
 0001:00083aa0       ___acrt_GetSystemTimePreciseAsFileTime@4 10084aa0 f   libucrtd:winapi_thunks.obj
 0001:00083ae0       ___acrt_GetTimeFormatEx@24 10084ae0 f   libucrtd:winapi_thunks.obj
 0001:00083b50       ___acrt_GetUserDefaultLocaleName@8 10084b50 f   libucrtd:winapi_thunks.obj
 0001:00083ba0       ___acrt_GetXStateFeaturesMask@8 10084ba0 f   libucrtd:winapi_thunks.obj
 0001:00083be0       ___acrt_InitializeCriticalSectionEx@12 10084be0 f   libucrtd:winapi_thunks.obj
 0001:00083c30       ___acrt_IsValidLocaleName@4 10084c30 f   libucrtd:winapi_thunks.obj
 0001:00083c80       ___acrt_LCIDToLocaleName@16 10084c80 f   libucrtd:winapi_thunks.obj
 0001:00083ce0       ___acrt_LCMapStringEx@36   10084ce0 f   libucrtd:winapi_thunks.obj
 0001:00083d60       ___acrt_LocaleNameToLCID@8 10084d60 f   libucrtd:winapi_thunks.obj
 0001:00083db0       ___acrt_LocateXStateFeature@12 10084db0 f   libucrtd:winapi_thunks.obj
 0001:00083e00       ___acrt_MessageBoxA@16     10084e00 f   libucrtd:winapi_thunks.obj
 0001:00083e50       ___acrt_MessageBoxW@16     10084e50 f   libucrtd:winapi_thunks.obj
 0001:00083ea0       ___acrt_RoInitialize@4     10084ea0 f   libucrtd:winapi_thunks.obj
 0001:00083ee0       ___acrt_RoUninitialize@0   10084ee0 f   libucrtd:winapi_thunks.obj
 0001:00083f10       ___acrt_RtlGenRandom@8     10084f10 f   libucrtd:winapi_thunks.obj
 0001:00083f50       ___acrt_SetThreadStackGuarantee@4 10084f50 f   libucrtd:winapi_thunks.obj
 0001:00083f90       ___acrt_can_show_message_box 10084f90 f   libucrtd:winapi_thunks.obj
 0001:00083fd0       ___acrt_can_use_vista_locale_apis 10084fd0 f   libucrtd:winapi_thunks.obj
 0001:00084000       ___acrt_can_use_xstate_apis 10085000 f   libucrtd:winapi_thunks.obj
 0001:00084030       ___acrt_eagerly_load_locale_apis 10085030 f   libucrtd:winapi_thunks.obj
 0001:00084070       ___acrt_get_parent_window  10085070 f   libucrtd:winapi_thunks.obj
 0001:000840e0       ___acrt_initialize_winapi_thunks 100850e0 f   libucrtd:winapi_thunks.obj
 0001:00084150       ___acrt_is_interactive     10085150 f   libucrtd:winapi_thunks.obj
 0001:00084200       ___acrt_uninitialize_winapi_thunks 10085200 f   libucrtd:winapi_thunks.obj
 0001:00084270       __chvalidator              10085270 f   libucrtd:isctype.obj
 0001:000842c0       __chvalidator_l            100852c0 f   libucrtd:isctype.obj
 0001:00084340       __isctype                  10085340 f   libucrtd:isctype.obj
 0001:00084380       __isctype_l                10085380 f   libucrtd:isctype.obj
 0001:00084500       __isleadbyte_fast_internal 10085500 f i libucrtd:isctype.obj
 0001:00084520       ??$?RU__crt_stdio_stream_data@@@__crt_internal_free_policy@@QBEXQBU__crt_stdio_stream_data@@@Z 10085520 f i libucrtd:stream.obj
 0001:00084540       ??0?$__crt_unique_heap_ptr@U__crt_stdio_stream_data@@U__crt_internal_free_policy@@@@QAE@QAU__crt_stdio_stream_data@@@Z 10085540 f i libucrtd:stream.obj
 0001:00084560       ??0__crt_stdio_stream@@QAE@QAU__crt_stdio_stream_data@@@Z 10085560 f i libucrtd:stream.obj
 0001:00084580       ??0__crt_stdio_stream@@QAE@XZ 10085580 f i libucrtd:stream.obj
 0001:000845a0       ??1?$__crt_unique_heap_ptr@U__crt_stdio_stream_data@@U__crt_internal_free_policy@@@@QAE@XZ 100855a0 f i libucrtd:stream.obj
 0001:000845c0       ?__acrt_stdio_allocate_stream@@YA?AV__crt_stdio_stream@@XZ 100855c0 f   libucrtd:stream.obj
 0001:000846b0       ?__acrt_stdio_free_stream@@YAXV__crt_stdio_stream@@@Z 100856b0 f   libucrtd:stream.obj
 0001:00084730       ?deallocate@__crt_stdio_stream@@QAEXXZ 10085730 f i libucrtd:stream.obj
 0001:00084750       ?detach@?$__crt_unique_heap_ptr@U__crt_stdio_stream_data@@U__crt_internal_free_policy@@@@QAEPAU__crt_stdio_stream_data@@XZ 10085750 f i libucrtd:stream.obj
 0001:000848c0       ?lock@__crt_stdio_stream@@QBEXXZ 100858c0 f i libucrtd:stream.obj
 0001:000848e0       ?release@?$__crt_unique_heap_ptr@U__crt_stdio_stream_data@@U__crt_internal_free_policy@@@@QAEXXZ 100858e0 f i libucrtd:stream.obj
 0001:00084910       ?try_allocate@__crt_stdio_stream@@QAE_NXZ 10085910 f i libucrtd:stream.obj
 0001:00084960       ??$__acrt_stdio_parse_mode@D@@YA?AU__acrt_stdio_stream_mode@@QBD@Z 10085960 f i libucrtd:openfile.obj
 0001:000851d0       ??$__acrt_stdio_parse_mode@_W@@YA?AU__acrt_stdio_stream_mode@@QB_W@Z 100861d0 f i libucrtd:openfile.obj
 0001:00085d60       ??$tcsncmp@AAPBDAAY02$$CBDI@?$__crt_char_traits@D@@SAHAAPBDAAY02$$CBD$$QAI@Z 10086d60 f i libucrtd:openfile.obj
 0001:00085d80       ??$tcsncmp@AAPB_WAAY02$$CB_WI@?$__crt_char_traits@_W@@SAHAAPB_WAAY02$$CB_W$$QAI@Z 10086d80 f i libucrtd:openfile.obj
 0001:00085da0       ??$tcsnicmp@AAPBDAAY04$$CBDI@?$__crt_char_traits@D@@SAHAAPBDAAY04$$CBD$$QAI@Z 10086da0 f i libucrtd:openfile.obj
 0001:00085dc0       ??$tcsnicmp@AAPBDAAY06$$CBDI@?$__crt_char_traits@D@@SAHAAPBDAAY06$$CBD$$QAI@Z 10086dc0 f i libucrtd:openfile.obj
 0001:00085de0       ??$tcsnicmp@AAPBDAAY07$$CBDI@?$__crt_char_traits@D@@SAHAAPBDAAY07$$CBD$$QAI@Z 10086de0 f i libucrtd:openfile.obj
 0001:00085e00       ??$tcsnicmp@AAPB_WAAY04$$CB_WI@?$__crt_char_traits@_W@@SAHAAPB_WAAY04$$CB_W$$QAI@Z 10086e00 f i libucrtd:openfile.obj
 0001:00085e20       ??$tcsnicmp@AAPB_WAAY06$$CB_WI@?$__crt_char_traits@_W@@SAHAAPB_WAAY06$$CB_W$$QAI@Z 10086e20 f i libucrtd:openfile.obj
 0001:00085e40       ??$tcsnicmp@AAPB_WAAY07$$CB_WI@?$__crt_char_traits@_W@@SAHAAPB_WAAY07$$CB_W$$QAI@Z 10086e40 f i libucrtd:openfile.obj
 0001:00085e60       ??$tsopen_s@PAHABQBDABHABHH@?$__crt_char_traits@D@@SAH$$QAPAHABQBDABH2$$QAH@Z 10086e60 f i libucrtd:openfile.obj
