 Opos_Internals

 Timestamp is 600f7b1c (Tue Jan 26 11:14:52 2021)

 Preferred load address is 10000000

 Start         Length     Name                   Class
 0001:00000000 000006d0H .text$di                CODE
 0001:000006d0 00085900H .text$mn                CODE
 0001:00085fd0 000001c0H .text$x                 CODE
 0001:00086190 000000a0H .text$yd                CODE
 0002:00000000 000001d4H .idata$5                DATA
 0002:000001d4 00000008H .00cfg                  DATA
 0002:000001dc 00000004H .CRT$XCA                DATA
 0002:000001e0 00000004H .CRT$XCL                DATA
 0002:000001e4 00000068H .CRT$XCU                DATA
 0002:0000024c 00000004H .CRT$XCZ                DATA
 0002:00000250 00000004H .CRT$XIA                DATA
 0002:00000254 0000000cH .CRT$XIC                DATA
 0002:00000260 00000004H .CRT$XIZ                DATA
 0002:00000264 00000004H .CRT$XPA                DATA
 0002:00000268 00000008H .CRT$XPX                DATA
 0002:00000270 00000004H .CRT$XPXA               DATA
 0002:00000274 00000004H .CRT$XPZ                DATA
 0002:00000278 00000004H .CRT$XTA                DATA
 0002:0000027c 00000004H .CRT$XTZ                DATA
 0002:00000280 00000000H .gfids$y                DATA
 0002:00000280 00024740H .rdata                  DATA
 0002:000249c0 00000004H .rdata$CastGuardVftablesA DATA
 0002:000249c4 00000004H .rdata$CastGuardVftablesC DATA
 0002:000249c8 0000033cH .rdata$r                DATA
 0002:00024d04 00000044H .rdata$sxdata           DATA
 0002:00024d48 000003dcH .rdata$zzzdbg           DATA
 0002:00025124 00000004H .rtc$IAA                DATA
 0002:00025128 00000008H .rtc$IMZ                DATA
 0002:00025130 00000004H .rtc$IZZ                DATA
 0002:00025134 00000004H .rtc$TAA                DATA
 0002:00025138 00000008H .rtc$TMZ                DATA
 0002:00025140 00000008H .rtc$TZZ                DATA
 0002:00025148 00000d2cH .xdata$x                DATA
 0002:00025e74 00000004H ATL$__a                 DATA
 0002:00025e78 00000008H ATL$__z                 DATA
 0002:00025e80 000000acH .edata                  DATA
 0002:00025f2c 00000064H .idata$2                DATA
 0002:00025f90 00000014H .idata$3                DATA
 0002:00025fa4 000001d4H .idata$4                DATA
 0002:00026178 000007e2H .idata$6                DATA
 0003:00000000 00000910H .data                   DATA
 0003:00000910 00000138H .data$r                 DATA
 0003:00000a48 00003544H .bss                    DATA
 0004:00000000 00000140H .rsrc$01                DATA
 0004:00000140 000166f8H .rsrc$02                DATA

  Address         Publics by Value              Rva+Base       Lib:Object

 0000:00000000       ___enclave_config          00000000     <absolute>
 0000:00000000       ___guard_fids_count        00000000     <absolute>
 0000:00000000       ___guard_longjmp_count     00000000     <absolute>
 0000:00000000       ___guard_iat_count         00000000     <absolute>
 0000:00000000       ___arm64x_redirection_metadata_count 00000000     <absolute>
 0000:00000000       ___x64_code_ranges_to_entry_points 00000000     <absolute>
 0000:00000000       ___dynamic_value_reloc_table 00000000     <absolute>
 0000:00000000       ___arm64x_extra_rfe_table  00000000     <absolute>
 0000:00000000       ___arm64x_extra_rfe_table_size 00000000     <absolute>
 0000:00000000       ___guard_fids_table        00000000     <absolute>
 0000:00000000       ___AbsoluteZero            00000000     <absolute>
 0000:00000000       ___guard_iat_table         00000000     <absolute>
 0000:00000000       ___guard_longjmp_table     00000000     <absolute>
 0000:00000000       ___volatile_metadata       00000000     <absolute>
 0000:00000000       ___x64_code_ranges_to_entry_points_count 00000000     <absolute>
 0000:00000000       ___hybrid_code_map         00000000     <absolute>
 0000:00000000       ___arm64x_native_entrypoint 00000000     <absolute>
 0000:00000000       ___hybrid_code_map_count   00000000     <absolute>
 0000:00000000       ___arm64x_redirection_metadata 00000000     <absolute>
 0000:00000000       ___hybrid_auxiliary_iat    00000000     <absolute>
 0000:00000000       ___guard_eh_cont_count     00000000     <absolute>
 0000:00000000       __except_list              00000000     <absolute>
 0000:00000000       ___guard_eh_cont_table     00000000     <absolute>
 0000:00000011       ___safe_se_handler_count   00000011     <absolute>
 0000:00000100       ___guard_flags             00000100     <absolute>
 0000:00000000       ___ImageBase               10000000     <linker-defined>
 0001:000006d0       ??$AtlMultiply@I@ATL@@YAJPAIII@Z 100016d0 f i StdAfx.obj
 0001:00000730       ??0?$CHeapPtr@_WVCCRTAllocator@ATL@@@ATL@@QAE@XZ 10001730 f i StdAfx.obj
 0001:00000760       ??0?$CHeapPtrBase@_WVCCRTAllocator@ATL@@@ATL@@IAE@XZ 10001760 f i StdAfx.obj
 0001:00000780       ??0?$CSimpleArray@GV?$CSimpleArrayEqualHelper@G@ATL@@@ATL@@QAE@XZ 10001780 f i StdAfx.obj
 0001:000007c0       ??0?$CTraceCategoryEx@$00$0A@@ATL@@QAE@PB_W@Z 100017c0 f i StdAfx.obj
 0001:000007f0       ??0?$CTraceCategoryEx@$01$0A@@ATL@@QAE@PB_W@Z 100017f0 f i StdAfx.obj
 0001:00000820       ??0?$CTraceCategoryEx@$03$0A@@ATL@@QAE@PB_W@Z 10001820 f i StdAfx.obj
 0001:00000850       ??0?$CTraceCategoryEx@$07$0A@@ATL@@QAE@PB_W@Z 10001850 f i StdAfx.obj
 0001:00000880       ??0?$CTraceCategoryEx@$0BA@$0A@@ATL@@QAE@PB_W@Z 10001880 f i StdAfx.obj
 0001:000008b0       ??0?$CTraceCategoryEx@$0BAA@$0A@@ATL@@QAE@PB_W@Z 100018b0 f i StdAfx.obj
 0001:000008f0       ??0?$CTraceCategoryEx@$0BAAA@$0A@@ATL@@QAE@PB_W@Z 100018f0 f i StdAfx.obj
 0001:00000930       ??0?$CTraceCategoryEx@$0BAAAA@$0A@@ATL@@QAE@PB_W@Z 10001930 f i StdAfx.obj
 0001:00000970       ??0?$CTraceCategoryEx@$0BAAAAA@$0A@@ATL@@QAE@PB_W@Z 10001970 f i StdAfx.obj
 0001:000009b0       ??0?$CTraceCategoryEx@$0CA@$0A@@ATL@@QAE@PB_W@Z 100019b0 f i StdAfx.obj
 0001:000009e0       ??0?$CTraceCategoryEx@$0CAA@$0A@@ATL@@QAE@PB_W@Z 100019e0 f i StdAfx.obj
 0001:00000a20       ??0?$CTraceCategoryEx@$0CAAA@$0A@@ATL@@QAE@PB_W@Z 10001a20 f i StdAfx.obj
 0001:00000a60       ??0?$CTraceCategoryEx@$0CAAAA@$0A@@ATL@@QAE@PB_W@Z 10001a60 f i StdAfx.obj
 0001:00000aa0       ??0?$CTraceCategoryEx@$0CAAAAA@$0A@@ATL@@QAE@PB_W@Z 10001aa0 f i StdAfx.obj
 0001:00000ae0       ??0?$CTraceCategoryEx@$0EA@$0A@@ATL@@QAE@PB_W@Z 10001ae0 f i StdAfx.obj
 0001:00000b10       ??0?$CTraceCategoryEx@$0EAA@$0A@@ATL@@QAE@PB_W@Z 10001b10 f i StdAfx.obj
 0001:00000b50       ??0?$CTraceCategoryEx@$0EAAA@$0A@@ATL@@QAE@PB_W@Z 10001b50 f i StdAfx.obj
 0001:00000b90       ??0?$CTraceCategoryEx@$0EAAAA@$0A@@ATL@@QAE@PB_W@Z 10001b90 f i StdAfx.obj
 0001:00000bd0       ??0?$CTraceCategoryEx@$0EAAAAA@$0A@@ATL@@QAE@PB_W@Z 10001bd0 f i StdAfx.obj
 0001:00000c10       ??0?$CTraceCategoryEx@$0IA@$0A@@ATL@@QAE@PB_W@Z 10001c10 f i StdAfx.obj
 0001:00000c50       ??0?$CTraceCategoryEx@$0IAA@$0A@@ATL@@QAE@PB_W@Z 10001c50 f i StdAfx.obj
 0001:00000c90       ??0?$CTraceCategoryEx@$0IAAA@$0A@@ATL@@QAE@PB_W@Z 10001c90 f i StdAfx.obj
 0001:00000cd0       ??0?$CTraceCategoryEx@$0IAAAA@$0A@@ATL@@QAE@PB_W@Z 10001cd0 f i StdAfx.obj
 0001:00000d10       ??0CAtlComModule@ATL@@QAE@XZ 10001d10 f i StdAfx.obj
 0001:00000df0       ??0CAtlWinModule@ATL@@QAE@XZ 10001df0 f i StdAfx.obj
 0001:00000e80       ??0CComCriticalSection@ATL@@QAE@XZ 10001e80 f i StdAfx.obj
 0001:00000eb0       ??0CPreserveLastError@ATL@@QAE@XZ 10001eb0 f i StdAfx.obj
 0001:00000ef0       ??0CTraceFileAndLineInfo@ATL@@QAE@PBDH@Z 10001ef0 f i StdAfx.obj
 0001:00000f20       ??0_ATL_COM_MODULE70@ATL@@QAE@XZ 10001f20 f i StdAfx.obj
 0001:00000f50       ??0_ATL_WIN_MODULE70@ATL@@QAE@XZ 10001f50 f i StdAfx.obj
 0001:00000f90       ??1?$CHeapPtr@_WVCCRTAllocator@ATL@@@ATL@@QAE@XZ 10001f90 f i StdAfx.obj
 0001:00000fc0       ??1?$CHeapPtrBase@_WVCCRTAllocator@ATL@@@ATL@@QAE@XZ 10001fc0 f i StdAfx.obj
 0001:00000ff0       ??1?$CSimpleArray@GV?$CSimpleArrayEqualHelper@G@ATL@@@ATL@@QAE@XZ 10001ff0 f i StdAfx.obj
 0001:00001020       ??1CAtlComModule@ATL@@QAE@XZ 10002020 f i StdAfx.obj
 0001:00001050       ??1CAtlWinModule@ATL@@QAE@XZ 10002050 f i StdAfx.obj
 0001:00001080       ??1CComBSTR@ATL@@QAE@XZ    10002080 f i StdAfx.obj
 0001:000010c0       ??1CComCriticalSection@ATL@@QAE@XZ 100020c0 f i StdAfx.obj
 0001:000010e0       ??1CPreserveLastError@ATL@@QAE@XZ 100020e0 f i StdAfx.obj
 0001:00001120       ??1_ATL_COM_MODULE70@ATL@@QAE@XZ 10002120 f i StdAfx.obj
 0001:00001150       ??1_ATL_WIN_MODULE70@ATL@@QAE@XZ 10002150 f i StdAfx.obj
 0001:00001190       ??1stringdispid@CComTypeInfoHolder@ATL@@QAE@XZ 10002190 f i StdAfx.obj
 0001:000011c0       ??A?$CSimpleArray@GV?$CSimpleArrayEqualHelper@G@ATL@@@ATL@@QAEAAGH@Z 100021c0 f i StdAfx.obj
 0001:00001240       ??B?$CHeapPtrBase@_WVCCRTAllocator@ATL@@@ATL@@QBEPA_WXZ 10002240 f i StdAfx.obj
 0001:00001260       ??B?$CTraceCategoryEx@$01$0A@@ATL@@QAEIXZ 10002260 f i StdAfx.obj
 0001:00001280       ??B?$CTraceCategoryEx@$0CA@$0A@@ATL@@QAEIXZ 10002280 f i StdAfx.obj
 0001:000012a0       ??RCTraceFileAndLineInfo@ATL@@QBAXHIPB_WZZ 100022a0 f i StdAfx.obj
 0001:00001340       ??_Estringdispid@CComTypeInfoHolder@ATL@@QAEPAXI@Z 10002340 f i StdAfx.obj
 0001:000013d0       ??_H@YGXPAXIIP6EPAX0@Z@Z   100023d0 f i StdAfx.obj
 0001:00001440       ??_I@YGXPAXIIP6EX0@Z@Z     10002440 f i StdAfx.obj
 0001:000014c0       ?Allocate@?$CHeapPtr@_WVCCRTAllocator@ATL@@@ATL@@QAE_NI@Z 100024c0 f i StdAfx.obj
 0001:00001550       ?Allocate@CCRTAllocator@ATL@@SAPAXI@Z 10002550 f i StdAfx.obj
 0001:00001570       ?AllocateBytes@?$CHeapPtrBase@_WVCCRTAllocator@ATL@@@ATL@@QAE_NI@Z 10002570 f i StdAfx.obj
 0001:000015e0       ?AtlWinModuleInit@ATL@@YGJPAU_ATL_WIN_MODULE70@1@@Z 100025e0 f i StdAfx.obj
 0001:000016b0       ?AtlWinModuleTerm@ATL@@YGJPAU_ATL_WIN_MODULE70@1@PAUHINSTANCE__@@@Z 100026b0 f i StdAfx.obj
 0001:00001770       ?Free@?$CHeapPtrBase@_WVCCRTAllocator@ATL@@@ATL@@QAEXXZ 10002770 f i StdAfx.obj
 0001:000017b0       ?Free@CCRTAllocator@ATL@@SAXPAX@Z 100027b0 f i StdAfx.obj
 0001:000017d0       ?GetCategoryName@CTrace@ATL@@CAPA_WI@Z 100027d0 f i StdAfx.obj
 0001:00001820       ?GetModuleInstance@CAtlBaseModule@ATL@@QAEPAUHINSTANCE__@@XZ 10002820 f i StdAfx.obj
 0001:00001840       ?GetSize@?$CSimpleArray@GV?$CSimpleArrayEqualHelper@G@ATL@@@ATL@@QBEHXZ 10002840 f i StdAfx.obj
 0001:00001860       ?Init@CComCriticalSection@ATL@@QAEJXZ 10002860 f i StdAfx.obj
 0001:000018c0       ?RegisterCategory@CTrace@ATL@@SAXPB_WI@Z 100028c0 f i StdAfx.obj
 0001:00001950       ?RemoveAll@?$CSimpleArray@GV?$CSimpleArrayEqualHelper@G@ATL@@@ATL@@QAEXXZ 10002950 f i StdAfx.obj
 0001:000019d0       ?Term@CAtlComModule@ATL@@QAEXXZ 100029d0 f i StdAfx.obj
 0001:00001a90       ?Term@CAtlWinModule@ATL@@QAEXXZ 10002a90 f i StdAfx.obj
 0001:00001ac0       ?Term@CComCriticalSection@ATL@@QAEJXZ 10002ac0 f i StdAfx.obj
 0001:00001b00       ?TraceV@CTrace@ATL@@CAXPBDHIIPB_W@Z 10002b00 f i StdAfx.obj
 0001:00001d80       ?TraceV@CTrace@ATL@@SAXPBDHIIPB_WPAD@Z 10002d80 f i StdAfx.obj
 0001:00001ec0       ?_AtlInitializeCriticalSectionEx@ATL@@YAHPAU_RTL_CRITICAL_SECTION@@KK@Z 10002ec0 f i StdAfx.obj
 0001:00001ef0       ?_AtlRaiseException@ATL@@YAXKK@Z 10002ef0 f i StdAfx.obj
 0001:00001f20       _HRESULT_FROM_WIN32        10002f20 f i StdAfx.obj
 0001:00001f60       ___local_stdio_printf_options 10002f60 f i StdAfx.obj
 0001:00001f70       __vswprintf_s_l            10002f70 f i StdAfx.obj
 0001:00001fe0       _swprintf_s                10002fe0 f i StdAfx.obj
 0001:00002170       _DllGetClassObject@12      10003170 f   OposInternals.obj
 0001:000021a0       _DllCanUnloadNow@0         100031a0 f   OposInternals.obj
 0001:000021e0       _DllRegisterServer@0       100031e0 f   OposInternals.obj
 0001:00002200       _DllUnregisterServer@0     10003200 f   OposInternals.obj
 0001:00002390       _DllMain@12                10003390 f   OposInternals.obj
 0001:000023f0       ??$?2PA_W@?$Wrapper@PA_W@?$CSimpleMap@PA_WPA_WVCExpansionVectorEqualHelper@ATL@@@ATL@@SAPAXIPAPA_W@Z 100033f0 f i OposInternals.obj
 0001:00002400       ??$AtlMultiply@K@ATL@@YAJPAKKK@Z 10003400 f i OposInternals.obj
 0001:00002460       ??$AtlMultiplyThrow@I@ATL@@YAIII@Z 10003460 f i OposInternals.obj
 0001:000024e0       ??0?$CAtlModuleT@VCComModule@ATL@@@ATL@@QAE@XZ 100034e0 f i OposInternals.obj
 0001:00002510       ??0?$CAtlSafeAllocBufferManager@VCCRTAllocator@ATL@@@_ATL_SAFE_ALLOCA_IMPL@ATL@@QAE@XZ 10003510 f i OposInternals.obj
 0001:00002530       ??0?$CAutoVectorPtr@_W@ATL@@QAE@XZ 10003530 f i OposInternals.obj
 0001:00002550       ??0?$CComCritSecLock@VCComCriticalSection@ATL@@@ATL@@QAE@AAVCComCriticalSection@1@_N@Z 10003550 f i OposInternals.obj
 0001:000025b0       ??0?$CComPtr@UICatRegister@@@ATL@@QAE@XZ 100035b0 f i OposInternals.obj
 0001:000025e0       ??0?$CComPtr@UITypeLib@@@ATL@@QAE@XZ 100035e0 f i OposInternals.obj
 0001:00002610       ??0?$CComPtrBase@UICatRegister@@@ATL@@IAE@XZ 10003610 f i OposInternals.obj
 0001:00002630       ??0?$CComPtrBase@UITypeLib@@@ATL@@IAE@XZ 10003630 f i OposInternals.obj
 0001:00002650       ??0?$CSimpleMap@PA_WPA_WVCExpansionVectorEqualHelper@ATL@@@ATL@@QAE@XZ 10003650 f i OposInternals.obj
 0001:00002690       ??0?$CTempBuffer@E$0BAA@VCCRTAllocator@ATL@@@ATL@@QAE@XZ 10003690 f i OposInternals.obj
 0001:000026b0       ??0?$CTempBuffer@_W$0BAA@VCCRTAllocator@ATL@@@ATL@@QAE@XZ 100036b0 f i OposInternals.obj
 0001:000026d0       ??0?$CTempBuffer@_W$0EAA@VCCRTAllocator@ATL@@@ATL@@QAE@XZ 100036d0 f i OposInternals.obj
 0001:000026f0       ??0?$Wrapper@PA_W@?$CSimpleMap@PA_WPA_WVCExpansionVectorEqualHelper@ATL@@@ATL@@QAE@ABQA_W@Z 100036f0 f i OposInternals.obj
 0001:00002720       ??0CAtlModule@ATL@@QAE@XZ  10003720 f i OposInternals.obj
 0001:00002840       ??0CComBSTR@ATL@@QAE@XZ    10003840 f i OposInternals.obj
 0001:00002860       ??0CComModule@ATL@@QAE@XZ  10003860 f i OposInternals.obj
 0001:000028d0       ??0CExpansionVector@ATL@@QAE@XZ 100038d0 f i OposInternals.obj
 0001:00002900       ??0CParseBuffer@CRegParser@ATL@@QAE@H@Z 10003900 f i OposInternals.obj
 0001:00002970       ??0CRegKey@ATL@@QAE@PAUHKEY__@@@Z 10003970 f i OposInternals.obj
 0001:000029b0       ??0CRegKey@ATL@@QAE@PAVCAtlTransactionManager@1@@Z 100039b0 f i OposInternals.obj
 0001:000029f0       ??0CRegObject@ATL@@QAE@XZ  100039f0 f i OposInternals.obj
 0001:00002a30       ??0CRegParser@ATL@@QAE@PAVCRegObject@1@@Z 10003a30 f i OposInternals.obj
 0001:00002a60       ??0IRegistrarBase@@QAE@XZ  10003a60 f i OposInternals.obj
 0001:00002a90       ??0IUnknown@@QAE@XZ        10003a90 f i OposInternals.obj
 0001:00002ab0       ??0_ATL_MODULE70@ATL@@QAE@XZ 10003ab0 f i OposInternals.obj
 0001:00002ae0       ??1?$CAtlModuleT@VCComModule@ATL@@@ATL@@UAE@XZ 10003ae0 f i OposInternals.obj
 0001:00002b10       ??1?$CAtlSafeAllocBufferManager@VCCRTAllocator@ATL@@@_ATL_SAFE_ALLOCA_IMPL@ATL@@QAE@XZ 10003b10 f i OposInternals.obj
 0001:00002b60       ??1?$CAutoVectorPtr@_W@ATL@@QAE@XZ 10003b60 f i OposInternals.obj
 0001:00002b90       ??1?$CComCritSecLock@VCComCriticalSection@ATL@@@ATL@@QAE@XZ 10003b90 f i OposInternals.obj
 0001:00002bc0       ??1?$CComPtr@UICatRegister@@@ATL@@QAE@XZ 10003bc0 f i OposInternals.obj
 0001:00002bf0       ??1?$CComPtr@UITypeLib@@@ATL@@QAE@XZ 10003bf0 f i OposInternals.obj
 0001:00002c20       ??1?$CComPtrBase@UICatRegister@@@ATL@@QAE@XZ 10003c20 f i OposInternals.obj
 0001:00002c70       ??1?$CComPtrBase@UITypeLib@@@ATL@@QAE@XZ 10003c70 f i OposInternals.obj
 0001:00002cc0       ??1?$CSimpleMap@PA_WPA_WVCExpansionVectorEqualHelper@ATL@@@ATL@@QAE@XZ 10003cc0 f i OposInternals.obj
 0001:00002cf0       ??1?$CTempBuffer@E$0BAA@VCCRTAllocator@ATL@@@ATL@@QAE@XZ 10003cf0 f i OposInternals.obj
 0001:00002d30       ??1?$CTempBuffer@_W$0BAA@VCCRTAllocator@ATL@@@ATL@@QAE@XZ 10003d30 f i OposInternals.obj
 0001:00002d70       ??1?$CTempBuffer@_W$0EAA@VCCRTAllocator@ATL@@@ATL@@QAE@XZ 10003d70 f i OposInternals.obj
 0001:00002db0       ??1CAtlModule@ATL@@UAE@XZ  10003db0 f i OposInternals.obj
 0001:00002de0       ??1CComModule@ATL@@UAE@XZ  10003de0 f i OposInternals.obj
 0001:00002e10       ??1CExpansionVector@ATL@@QAE@XZ 10003e10 f i OposInternals.obj
 0001:00002e40       ??1CParseBuffer@CRegParser@ATL@@QAE@XZ 10003e40 f i OposInternals.obj
 0001:00002e80       ??1CRegKey@ATL@@QAE@XZ     10003e80 f i OposInternals.obj
 0001:00002eb0       ??1CRegObject@ATL@@UAE@XZ  10003eb0 f i OposInternals.obj
 0001:00002ef0       ??1_ATL_MODULE70@ATL@@QAE@XZ 10003ef0 f i OposInternals.obj
 0001:00002f20       ??7CComBSTR@ATL@@QBE_NXZ   10003f20 f i OposInternals.obj
 0001:00002f60       ??8CComBSTR@ATL@@QBE_NH@Z  10003f60 f i OposInternals.obj
 0001:00002fc0       ??9CComBSTR@ATL@@QBE_NH@Z  10003fc0 f i OposInternals.obj
 0001:00003010       ??B?$CComPtrBase@UITypeLib@@@ATL@@QBEPAUITypeLib@@XZ 10004010 f i OposInternals.obj
 0001:00003030       ??B?$CTempBuffer@E$0BAA@VCCRTAllocator@ATL@@@ATL@@QBEPAEXZ 10004030 f i OposInternals.obj
 0001:00003050       ??B?$CTempBuffer@_W$0BAA@VCCRTAllocator@ATL@@@ATL@@QBEPA_WXZ 10004050 f i OposInternals.obj
 0001:00003070       ??B?$CTempBuffer@_W$0EAA@VCCRTAllocator@ATL@@@ATL@@QBEPA_WXZ 10004070 f i OposInternals.obj
 0001:00003090       ??B?$CTraceCategoryEx@$00$0A@@ATL@@QAEIXZ 10004090 f i OposInternals.obj
 0001:000030b0       ??B?$CTraceCategoryEx@$07$0A@@ATL@@QAEIXZ 100040b0 f i OposInternals.obj
 0001:000030d0       ??B?$CTraceCategoryEx@$0CAAA@$0A@@ATL@@QAEIXZ 100040d0 f i OposInternals.obj
 0001:000030f0       ??BCComBSTR@ATL@@QBEPA_WXZ 100040f0 f i OposInternals.obj
 0001:00003110       ??BCRegKey@ATL@@QBEPAUHKEY__@@XZ 10004110 f i OposInternals.obj
 0001:00003130       ??C?$CComPtrBase@UICatRegister@@@ATL@@QBEPAV?$_NoAddRefReleaseOnCComPtr@UICatRegister@@@1@XZ 10004130 f i OposInternals.obj
 0001:00003180       ??C?$CComPtrBase@UITypeLib@@@ATL@@QBEPAV?$_NoAddRefReleaseOnCComPtr@UITypeLib@@@1@XZ 10004180 f i OposInternals.obj
 0001:000031d0       ??I?$CComPtrBase@UICatRegister@@@ATL@@QAEPAPAUICatRegister@@XZ 100041d0 f i OposInternals.obj
 0001:00003220       ??I?$CComPtrBase@UITypeLib@@@ATL@@QAEPAPAUITypeLib@@XZ 10004220 f i OposInternals.obj
 0001:00003270       ??ICComBSTR@ATL@@QAEPAPA_WXZ 10004270 f i OposInternals.obj
 0001:00003290       ??_ECComModule@ATL@@UAEPAXI@Z 10004290 f i OposInternals.obj
 0001:00003290       ??_GCComModule@ATL@@UAEPAXI@Z 10004290 f i OposInternals.obj
 0001:000032d0       ??_ECRegObject@ATL@@UAEPAXI@Z 100042d0 f i OposInternals.obj
 0001:000032d0       ??_GCRegObject@ATL@@UAEPAXI@Z 100042d0 f i OposInternals.obj
 0001:00003310       ?Add@?$CSimpleMap@PA_WPA_WVCExpansionVectorEqualHelper@ATL@@@ATL@@QAEHABQA_W0@Z 10004310 f i OposInternals.obj
 0001:000033d0       ?Add@CExpansionVector@ATL@@QAEHPB_W0@Z 100043d0 f i OposInternals.obj
 0001:00003660       ?AddChar@CParseBuffer@CRegParser@ATL@@QAEHPB_W@Z 10004660 f i OposInternals.obj
 0001:000036a0       ?AddCommonRGSReplacements@?$CAtlModuleT@VCComModule@ATL@@@ATL@@UAEJPAUIRegistrarBase@@@Z 100046a0 f i OposInternals.obj
 0001:000036f0       ?AddRef@CRegObject@ATL@@UAGKXZ 100046f0 f i OposInternals.obj
 0001:00003740       ?AddReplacement@CRegObject@ATL@@UAGJPB_W0@Z 10004740 f i OposInternals.obj
 0001:00003850       ?AddString@CParseBuffer@CRegParser@ATL@@QAEHPB_W@Z 10004850 f i OposInternals.obj
 0001:00003940       ?AddValue@CRegParser@ATL@@IAEJAAVCRegKey@2@PB_WPA_W@Z 10004940 f i OposInternals.obj
 0001:000040d0       ?Allocate@?$CTempBuffer@E$0BAA@VCCRTAllocator@ATL@@@ATL@@QAEPAEI@Z 100050d0 f i OposInternals.obj
 0001:00004110       ?Allocate@?$CTempBuffer@_W$0BAA@VCCRTAllocator@ATL@@@ATL@@QAEPA_WI@Z 10005110 f i OposInternals.obj
 0001:00004150       ?Allocate@?$CTempBuffer@_W$0EAA@VCCRTAllocator@ATL@@@ATL@@QAEPA_WI@Z 10005150 f i OposInternals.obj
 0001:00004190       ?AllocateBytes@?$CTempBuffer@E$0BAA@VCCRTAllocator@ATL@@@ATL@@QAEPAEI@Z 10005190 f i OposInternals.obj
 0001:00004210       ?AllocateBytes@?$CTempBuffer@_W$0BAA@VCCRTAllocator@ATL@@@ATL@@QAEPA_WI@Z 10005210 f i OposInternals.obj
 0001:00004290       ?AllocateBytes@?$CTempBuffer@_W$0EAA@VCCRTAllocator@ATL@@@ATL@@QAEPA_WI@Z 10005290 f i OposInternals.obj
 0001:00004310       ?AllocateHeap@?$CTempBuffer@E$0BAA@VCCRTAllocator@ATL@@@ATL@@AAEXI@Z 10005310 f i OposInternals.obj
 0001:00004360       ?AllocateHeap@?$CTempBuffer@_W$0BAA@VCCRTAllocator@ATL@@@ATL@@AAEXI@Z 10005360 f i OposInternals.obj
 0001:000043b0       ?AllocateHeap@?$CTempBuffer@_W$0EAA@VCCRTAllocator@ATL@@@ATL@@AAEXI@Z 100053b0 f i OposInternals.obj
 0001:00004400       ?Append@CParseBuffer@CRegParser@ATL@@QAEHPB_WH@Z 10005400 f i OposInternals.obj
 0001:000045a0       ?AtlCallTermFunc@ATL@@YGXPAU_ATL_MODULE70@1@@Z 100055a0 f i OposInternals.obj
 0001:00004640       ?AtlCoTaskMemCAlloc@ATL@@YAPAXKK@Z 10005640 f i OposInternals.obj
 0001:000046d0       ?AtlCoTaskMemRecalloc@ATL@@YAPAXPAXKK@Z 100056d0 f i OposInternals.obj
 0001:00004770       ?AtlComModuleGetClassObject@ATL@@YGJPAU_ATL_COM_MODULE70@1@ABU_GUID@@1PAPAX@Z 10005770 f i OposInternals.obj
 0001:00004a00       ?AtlComModuleRegisterServer@ATL@@YGJPAU_ATL_COM_MODULE70@1@HPBU_GUID@@@Z 10005a00 f i OposInternals.obj
 0001:00004b90       ?AtlComModuleUnregisterServer@ATL@@YGJPAU_ATL_COM_MODULE70@1@HPBU_GUID@@@Z 10005b90 f i OposInternals.obj
 0001:00004cc0       ?AtlCrtErrorCheck@ATL@@YAHH@Z 10005cc0 f i OposInternals.obj
 0001:00004d90       ?AtlGetPerUserRegistration@ATL@@YGJPA_N@Z 10005d90 f i OposInternals.obj
 0001:00004dc0       ?AtlHresultFromLastError@ATL@@YAJXZ 10005dc0 f i OposInternals.obj
 0001:00004e00       ?AtlHresultFromWin32@ATL@@YAJK@Z 10005e00 f i OposInternals.obj
 0001:00004e20       ?AtlLoadTypeLib@ATL@@YGJPAUHINSTANCE__@@PB_WPAPA_WPAPAUITypeLib@@@Z 10005e20 f i OposInternals.obj
 0001:00005280       ?AtlRegisterClassCategoriesHelper@ATL@@YGJABU_GUID@@PBU_ATL_CATMAP_ENTRY@1@H@Z 10006280 f i OposInternals.obj
 0001:00005960       ?AtlRegisterTypeLib@ATL@@YGJPAUHINSTANCE__@@PB_W@Z 10006960 f i OposInternals.obj
 0001:00005ca0       ?AtlThrowImpl@ATL@@YGXJ@Z  10006ca0 f i OposInternals.obj
 0001:00005d50       ?AtlUnRegisterTypeLib@ATL@@YGJPAUHINSTANCE__@@PB_W@Z 10006d50 f i OposInternals.obj
 0001:00005f60       ?Attach@?$CAutoVectorPtr@_W@ATL@@QAEXPA_W@Z 10006f60 f i OposInternals.obj
 0001:00005fc0       ?Attach@CRegKey@ATL@@QAEXPAUHKEY__@@@Z 10006fc0 f i OposInternals.obj
 0001:00006030       ?CanForceRemoveKey@CRegParser@ATL@@IAEHPB_W@Z 10007030 f i OposInternals.obj
 0001:000060a0       ?ChToByte@CRegParser@ATL@@KAE_W@Z 100070a0 f i OposInternals.obj
 0001:000061c0       ?ClearReplacements@CExpansionVector@ATL@@QAEJXZ 100071c0 f i OposInternals.obj
 0001:00006250       ?ClearReplacements@CRegObject@ATL@@UAGJXZ 10007250 f i OposInternals.obj
 0001:000062a0       ?Close@CRegKey@ATL@@QAEJXZ 100072a0 f i OposInternals.obj
 0001:00006310       ?Decrement@CComMultiThreadModel@ATL@@SGKPAJ@Z 10007310 f i OposInternals.obj
 0001:00006330       ?DeleteSubKey@CRegKey@ATL@@QAEJPB_W@Z 10007330 f i OposInternals.obj
 0001:00006440       ?DeleteValue@CRegKey@ATL@@QAEJPB_W@Z 10007440 f i OposInternals.obj
 0001:000064b0       ?Detach@?$CAutoVectorPtr@_W@ATL@@QAEPA_WXZ 100074b0 f i OposInternals.obj
 0001:000064e0       ?Detach@CParseBuffer@CRegParser@ATL@@QAEPA_WXZ 100074e0 f i OposInternals.obj
 0001:00006530       ?Detach@CRegKey@ATL@@QAEPAUHKEY__@@XZ 10007530 f i OposInternals.obj
 0001:00006580       ?EndOfVar@CRegParser@ATL@@IAEHXZ 10007580 f i OposInternals.obj
 0001:000065f0       ?EscapeSingleQuote@CAtlModule@ATL@@SAXPA_WIPB_W@Z 100075f0 f i OposInternals.obj
 0001:000066a0       ?FinalConstruct@CRegObject@ATL@@QAEJXZ 100076a0 f i OposInternals.obj
 0001:000066d0       ?FindKey@?$CSimpleMap@PA_WPA_WVCExpansionVectorEqualHelper@ATL@@@ATL@@QBEHABQA_W@Z 100076d0 f i OposInternals.obj
 0001:00006740       ?Free@?$CAutoVectorPtr@_W@ATL@@QAEXXZ 10007740 f i OposInternals.obj
 0001:00006790       ?FreeHeap@?$CTempBuffer@E$0BAA@VCCRTAllocator@ATL@@@ATL@@AAEXXZ 10007790 f i OposInternals.obj
 0001:000067c0       ?FreeHeap@?$CTempBuffer@_W$0BAA@VCCRTAllocator@ATL@@@ATL@@AAEXXZ 100077c0 f i OposInternals.obj
 0001:000067f0       ?FreeHeap@?$CTempBuffer@_W$0EAA@VCCRTAllocator@ATL@@@ATL@@AAEXXZ 100077f0 f i OposInternals.obj
 0001:00006820       ?GenerateError@CRegParser@ATL@@IAEJI@Z 10007820 f i OposInternals.obj
 0001:00006840       ?GetAppId@?$CAtlModuleT@VCComModule@ATL@@@ATL@@SAPB_WXZ 10007840 f i OposInternals.obj
 0001:00006850       ?GetClassObject@CComModule@ATL@@QAEJABU_GUID@@0PAPAX@Z 10007850 f i OposInternals.obj
 0001:00006a50       ?GetGITPtr@CAtlModule@ATL@@UAEJPAPAUIGlobalInterfaceTable@@@Z 10007a50 f i OposInternals.obj
 0001:00006b50       ?GetKeyAt@?$CSimpleMap@PA_WPA_WVCExpansionVectorEqualHelper@ATL@@@ATL@@QBEAAPA_WH@Z 10007b50 f i OposInternals.obj
 0001:00006bd0       ?GetLockCount@CAtlModule@ATL@@UAEJXZ 10007bd0 f i OposInternals.obj
 0001:00006bf0       ?GetSize@?$CSimpleMap@PA_WPA_WVCExpansionVectorEqualHelper@ATL@@@ATL@@QBEHXZ 10007bf0 f i OposInternals.obj
 0001:00006c10       ?GetValueAt@?$CSimpleMap@PA_WPA_WVCExpansionVectorEqualHelper@ATL@@@ATL@@QBEAAPA_WH@Z 10007c10 f i OposInternals.obj
 0001:00006c90       ?HKeyFromString@CRegParser@ATL@@KAPAUHKEY__@@PA_W@Z 10007c90 f i OposInternals.obj
 0001:00006d00       ?HasSubKeys@CRegParser@ATL@@IAEHPAUHKEY__@@@Z 10007d00 f i OposInternals.obj
 0001:00006e10       ?Increment@CComMultiThreadModel@ATL@@SGKPAJ@Z 10007e10 f i OposInternals.obj
 0001:00006e30       ?Init@CComFakeCriticalSection@ATL@@QAEJXZ 10007e30 f i OposInternals.obj
 0001:00006e50       ?Init@CComModule@ATL@@QAEJPAU_ATL_OBJMAP_ENTRY30@2@PAUHINSTANCE__@@PBU_GUID@@@Z 10007e50 f i OposInternals.obj
 0001:00006f40       ?InitLibId@?$CAtlModuleT@VCComModule@ATL@@@ATL@@SAXXZ 10007f40 f i OposInternals.obj
 0001:00006f50       ?InternalSetAtIndex@?$CSimpleMap@PA_WPA_WVCExpansionVectorEqualHelper@ATL@@@ATL@@QAEXHABQA_W0@Z 10007f50 f i OposInternals.obj
 0001:00006ff0       ?IsEqualKey@CExpansionVectorEqualHelper@ATL@@SA_NQA_W0@Z 10007ff0 f i OposInternals.obj
 0001:00007020       ?IsSpace@CRegParser@ATL@@IAEH_W@Z 10008020 f i OposInternals.obj
 0001:00007090       ?Length@CComBSTR@ATL@@QBEIXZ 10008090 f i OposInternals.obj
 0001:000070d0       ?Lock@?$CComCritSecLock@VCComCriticalSection@ATL@@@ATL@@QAEJXZ 100080d0 f i OposInternals.obj
 0001:00007180       ?Lock@CAtlModule@ATL@@UAEJXZ 10008180 f i OposInternals.obj
 0001:000071b0       ?Lock@CComCriticalSection@ATL@@QAEJXZ 100081b0 f i OposInternals.obj
 0001:000071f0       ?Lock@CComFakeCriticalSection@ATL@@QAEJXZ 100081f0 f i OposInternals.obj
 0001:00007210       ?Lookup@?$CSimpleMap@PA_WPA_WVCExpansionVectorEqualHelper@ATL@@@ATL@@QBEPA_WABQA_W@Z 10008210 f i OposInternals.obj
 0001:00007260       ?NextToken@CRegParser@ATL@@IAEJPA_W@Z 10008260 f i OposInternals.obj
 0001:00007500       ?OLE2CT_EX@@YAPB_WPB_WI@Z  10008500 f i OposInternals.obj
 0001:00007510       ?OLE2T_EX@@YAPA_WPA_WI@Z   10008510 f i OposInternals.obj
 0001:00007520       ?Open@CRegKey@ATL@@QAEJPAUHKEY__@@PB_WK@Z 10008520 f i OposInternals.obj
 0001:00007670       ?PreProcessBuffer@CRegParser@ATL@@QAEJPA_WPAPA_W@Z 10008670 f i OposInternals.obj
 0001:00007bb0       ?QueryInterface@CRegObject@ATL@@UAGJABU_GUID@@PAPAX@Z 10008bb0 f i OposInternals.obj
 0001:00007c00       ?RecurseDeleteKey@CRegKey@ATL@@QAEJPB_W@Z 10008c00 f i OposInternals.obj
 0001:00007de0       ?RegCreateKeyExW@CAtlTransactionManager@ATL@@QAEJPAUHKEY__@@PB_WKPA_WKKQAU_SECURITY_ATTRIBUTES@@PAPAU3@PAK@Z 10008de0 f i OposInternals.obj
 0001:00007f10       ?RegDeleteKeyW@CAtlTransactionManager@ATL@@QAEJPAUHKEY__@@PB_W@Z 10008f10 f i OposInternals.obj
 0001:00008010       ?RegOpenKeyExW@CAtlTransactionManager@ATL@@QAEJPAUHKEY__@@PB_WKKPAPAU3@@Z 10009010 f i OposInternals.obj
 0001:00008120       ?RegisterBuffer@CRegParser@ATL@@QAEJPA_WH@Z 10009120 f i OposInternals.obj
 0001:00008450       ?RegisterFromResource@CRegObject@ATL@@IAEJPB_W00H@Z 10009450 f i OposInternals.obj
 0001:000087e0       ?RegisterServer@?$CAtlModuleT@VCComModule@ATL@@@ATL@@QAEJHPBU_GUID@@@Z 100097e0 f i OposInternals.obj
 0001:00008860       ?RegisterServer@CAtlComModule@ATL@@QAEJHPBU_GUID@@@Z 10009860 f i OposInternals.obj
 0001:00008890       ?RegisterServer@CComModule@ATL@@QAEJHPBU_GUID@@@Z 10009890 f i OposInternals.obj
 0001:00008970       ?RegisterSubkeys@CRegParser@ATL@@IAEJPA_WPAUHKEY__@@HH@Z 10009970 f i OposInternals.obj
 0001:00009490       ?Release@CRegObject@ATL@@UAGKXZ 1000a490 f i OposInternals.obj
 0001:000094d0       ?RemoveAll@?$CSimpleMap@PA_WPA_WVCExpansionVectorEqualHelper@ATL@@@ATL@@QAEXXZ 1000a4d0 f i OposInternals.obj
 0001:00009560       ?ResourceRegister@CRegObject@ATL@@QAGJPB_WI0@Z 1000a560 f i OposInternals.obj
 0001:00009640       ?ResourceRegisterSz@CRegObject@ATL@@QAGJPB_W00@Z 1000a640 f i OposInternals.obj
 0001:00009740       ?ResourceUnregister@CRegObject@ATL@@QAGJPB_WI0@Z 1000a740 f i OposInternals.obj
 0001:00009820       ?ResourceUnregisterSz@CRegObject@ATL@@QAGJPB_W00@Z 1000a820 f i OposInternals.obj
 0001:00009920       ?SetDWORDValue@CRegKey@ATL@@QAEJPB_WK@Z 1000a920 f i OposInternals.obj
 0001:000099a0       ?SetMultiStringValue@CRegKey@ATL@@QAEJPB_W0@Z 1000a9a0 f i OposInternals.obj
 0001:00009ac0       ?SetStringValue@CRegKey@ATL@@QAEJPB_W0K@Z 1000aac0 f i OposInternals.obj
 0001:00009bf0       ?SkipAssignment@CRegParser@ATL@@IAEJPA_W@Z 1000abf0 f i OposInternals.obj
 0001:00009cd0       ?SkipWhiteSpace@CRegParser@ATL@@IAEXXZ 1000acd0 f i OposInternals.obj
 0001:00009d20       ?StrChrW@CRegParser@ATL@@KAPA_WPA_W_W@Z 1000ad20 f i OposInternals.obj
 0001:00009d90       ?StrFromMap@CRegObject@ATL@@QAEPB_WPA_W@Z 1000ad90 f i OposInternals.obj
 0001:00009e20       ?T2COLE_EX@@YAPB_WPB_WI@Z  1000ae20 f i OposInternals.obj
 0001:00009e30       ?T2OLE_EX@@YAPA_WPA_WI@Z   1000ae30 f i OposInternals.obj
 0001:00009e40       ?Term@CAtlModule@ATL@@QAEXXZ 1000ae40 f i OposInternals.obj
 0001:00009ef0       ?Term@CComModule@ATL@@QAEXXZ 1000aef0 f i OposInternals.obj
 0001:00009fe0       ?Unlock@?$CComCritSecLock@VCComCriticalSection@ATL@@@ATL@@QAEXXZ 1000afe0 f i OposInternals.obj
 0001:0000a050       ?Unlock@CAtlModule@ATL@@UAEJXZ 1000b050 f i OposInternals.obj
 0001:0000a080       ?Unlock@CComCriticalSection@ATL@@QAEJXZ 1000b080 f i OposInternals.obj
 0001:0000a0c0       ?Unlock@CComFakeCriticalSection@ATL@@QAEJXZ 1000b0c0 f i OposInternals.obj
 0001:0000a0e0       ?UnregisterServer@?$CAtlModuleT@VCComModule@ATL@@@ATL@@QAEJHPBU_GUID@@@Z 1000b0e0 f i OposInternals.obj
 0001:0000a150       ?UnregisterServer@CAtlComModule@ATL@@QAEJHPBU_GUID@@@Z 1000b150 f i OposInternals.obj
 0001:0000a180       ?UnregisterServer@CComModule@ATL@@QAEJHPBU_GUID@@@Z 1000b180 f i OposInternals.obj
 0001:0000a260       ?UpdateRegistryFromResource@CAtlModule@ATL@@QAGJIHPAU_ATL_REGMAP_ENTRY@2@@Z 1000b260 f i OposInternals.obj
 0001:0000a730       ?UpdateRegistryFromResource@CAtlModule@ATL@@QAGJPB_WHPAU_ATL_REGMAP_ENTRY@2@@Z 1000b730 f i OposInternals.obj
 0001:0000ac20       ?UpdateRegistryFromResource@CComModule@ATL@@UAGJIHPAU_ATL_REGMAP_ENTRY@2@@Z 1000bc20 f i OposInternals.obj
 0001:0000ac50       ?UpdateRegistryFromResource@CComModule@ATL@@UAGJPB_WHPAU_ATL_REGMAP_ENTRY@2@@Z 1000bc50 f i OposInternals.obj
 0001:0000ac80       ?UpdateRegistryFromResourceD@CComModule@ATL@@UAGJIHPAU_ATL_REGMAP_ENTRY@2@@Z 1000bc80 f i OposInternals.obj
 0001:0000ac90       ?UpdateRegistryFromResourceD@CComModule@ATL@@UAGJPB_WHPAU_ATL_REGMAP_ENTRY@2@@Z 1000bc90 f i OposInternals.obj
 0001:0000aca0       ?VTFromRegType@CRegParser@ATL@@KAHPB_WAAG@Z 1000bca0 f i OposInternals.obj
 0001:0000ad80       ?_AtlGetConversionACP@ATL@@YGIXZ 1000bd80 f i OposInternals.obj
 0001:0000ad90       ?atlCreate@CRegKey@ATL@@QAEJPAUHKEY__@@PB_WPA_WKKPAU_SECURITY_ATTRIBUTES@@PAK@Z 1000bd90 f i OposInternals.obj
 0001:0000aef0       ?memcpy_s@Checked@ATL@@YAXPAXIPBXI@Z 1000bef0 f i OposInternals.obj
 0001:0000af20       ?ocscpy_s@@YA_NPA_WIPB_W@Z 1000bf20 f i OposInternals.obj
 0001:0000af80       ?ocslen@@YAHPB_W@Z         1000bf80 f i OposInternals.obj
 0001:0000afb0       ?tcsncpy_s@Checked@ATL@@YAHPA_WIPB_WI@Z 1000bfb0 f i OposInternals.obj
 0001:0000afe0       ?wcscat_s@Checked@ATL@@YAXPA_WIPB_W@Z 1000bfe0 f i OposInternals.obj
 0001:0000b010       ?wcscpy_s@Checked@ATL@@YAXPA_WIPB_W@Z 1000c010 f i OposInternals.obj
 0001:0000b040       ?wcsncpy_s@Checked@ATL@@YAHPA_WIPB_WI@Z 1000c040 f i OposInternals.obj
 0001:0000b070       ?wcsstr@@YAPA_WPA_WPB_W@Z  1000c070 f i OposInternals.obj
 0001:0000b090       _InlineIsEqualGUID         1000c090 f i OposInternals.obj
 0001:0000b130       _IsEqualGUID               1000c130 f i OposInternals.obj
 0001:0000b172       _DecodePointer@4           1000c172 f   kernel32:KERNEL32.dll
 0001:0000b178       _RaiseException@16         1000c178 f   kernel32:KERNEL32.dll
 0001:0000b17e       _GetLastError@0            1000c17e f   kernel32:KERNEL32.dll
 0001:0000b184       _SetLastError@4            1000c184 f   kernel32:KERNEL32.dll
 0001:0000b18a       _InitializeCriticalSectionEx@12 1000c18a f   kernel32:KERNEL32.dll
 0001:0000b190       _DeleteCriticalSection@4   1000c190 f   kernel32:KERNEL32.dll
 0001:0000b196       _EncodePointer@4           1000c196 f   kernel32:KERNEL32.dll
 0001:0000b19c       _EnterCriticalSection@4    1000c19c f   kernel32:KERNEL32.dll
 0001:0000b1a2       _LeaveCriticalSection@4    1000c1a2 f   kernel32:KERNEL32.dll
 0001:0000b1a8       _DisableThreadLibraryCalls@4 1000c1a8 f   kernel32:KERNEL32.dll
 0001:0000b1ae       _FreeLibrary@4             1000c1ae f   kernel32:KERNEL32.dll
 0001:0000b1b4       _GetModuleFileNameW@12     1000c1b4 f   kernel32:KERNEL32.dll
 0001:0000b1ba       _GetModuleHandleW@4        1000c1ba f   kernel32:KERNEL32.dll
 0001:0000b1c0       _GetProcAddress@8          1000c1c0 f   kernel32:KERNEL32.dll
 0001:0000b1c6       _LoadLibraryExW@12         1000c1c6 f   kernel32:KERNEL32.dll
 0001:0000b1cc       _LoadResource@8            1000c1cc f   kernel32:KERNEL32.dll
 0001:0000b1d2       _SizeofResource@8          1000c1d2 f   kernel32:KERNEL32.dll
 0001:0000b1d8       _FindResourceW@12          1000c1d8 f   kernel32:KERNEL32.dll
 0001:0000b1de       _lstrcmpiW@8               1000c1de f   kernel32:KERNEL32.dll
 0001:0000b1e4       _MultiByteToWideChar@24    1000c1e4 f   kernel32:KERNEL32.dll
 0001:0000b1ea       _UnregisterClassW@8        1000c1ea f   user32:USER32.dll
 0001:0000b1f0       _CharNextW@4               1000c1f0 f   user32:USER32.dll
 0001:0000b1f6       _RegCloseKey@4             1000c1f6 f   advapi32:ADVAPI32.dll
 0001:0000b1fc       _RegCreateKeyExW@36        1000c1fc f   advapi32:ADVAPI32.dll
 0001:0000b202       _RegDeleteKeyW@8           1000c202 f   advapi32:ADVAPI32.dll
 0001:0000b208       _RegDeleteValueW@8         1000c208 f   advapi32:ADVAPI32.dll
 0001:0000b20e       _RegEnumKeyExW@32          1000c20e f   advapi32:ADVAPI32.dll
 0001:0000b214       _RegOpenKeyExW@20          1000c214 f   advapi32:ADVAPI32.dll
 0001:0000b21a       _RegQueryInfoKeyW@48       1000c21a f   advapi32:ADVAPI32.dll
 0001:0000b220       _RegSetValueExW@24         1000c220 f   advapi32:ADVAPI32.dll
 0001:0000b226       _CoCreateInstance@20       1000c226 f   ole32:ole32.dll
 0001:0000b22c       _StringFromGUID2@12        1000c22c f   ole32:ole32.dll
 0001:0000b232       _CoTaskMemAlloc@4          1000c232 f   ole32:ole32.dll
 0001:0000b238       _CoTaskMemRealloc@8        1000c238 f   ole32:ole32.dll
 0001:0000b23e       _CoTaskMemFree@4           1000c23e f   ole32:ole32.dll
 0001:0000b244       _SysFreeString@4           1000c244 f   oleaut32:OLEAUT32.dll
 0001:0000b24a       _SysAllocString@4          1000c24a f   oleaut32:OLEAUT32.dll
 0001:0000b250       _SysStringLen@4            1000c250 f   oleaut32:OLEAUT32.dll
 0001:0000b256       _VarUI4FromStr@16          1000c256 f   oleaut32:OLEAUT32.dll
 0001:0000b25c       _LoadTypeLib@8             1000c25c f   oleaut32:OLEAUT32.dll
 0001:0000b262       _RegisterTypeLib@12        1000c262 f   oleaut32:OLEAUT32.dll
 0001:0000b268       _UnRegisterTypeLib@20      1000c268 f   oleaut32:OLEAUT32.dll
 0001:0000b26e       ??$?2PAUHINSTANCE__@@@Wrapper@?$CSimpleArray@PAUHINSTANCE__@@V?$CSimpleArrayEqualHelper@PAUHINSTANCE__@@@ATL@@@ATL@@SAPAXIPAPAUHINSTANCE__@@@Z 1000c26e f i atls:atlbase.obj
 0001:0000b276       ??0?$CSimpleArray@PAUHINSTANCE__@@V?$CSimpleArrayEqualHelper@PAUHINSTANCE__@@@ATL@@@ATL@@QAE@XZ 1000c276 f i atls:atlbase.obj
 0001:0000b283       ??0CAtlBaseModule@ATL@@QAE@XZ 1000c283 f   atls:atlbase.obj
 0001:0000b2d6       ??0Wrapper@?$CSimpleArray@PAUHINSTANCE__@@V?$CSimpleArrayEqualHelper@PAUHINSTANCE__@@@ATL@@@ATL@@QAE@ABQAUHINSTANCE__@@@Z 1000c2d6 f i atls:atlbase.obj
 0001:0000b2e6       ??0_ATL_BASE_MODULE70@ATL@@QAE@XZ 1000c2e6 f i atls:atlbase.obj
 0001:0000b309       ??1?$CSimpleArray@PAUHINSTANCE__@@V?$CSimpleArrayEqualHelper@PAUHINSTANCE__@@@ATL@@@ATL@@QAE@XZ 1000c309 f i atls:atlbase.obj
 0001:0000b30e       ??1CAtlBaseModule@ATL@@QAE@XZ 1000c30e f   atls:atlbase.obj
 0001:0000b324       ??1_ATL_BASE_MODULE70@ATL@@QAE@XZ 1000c324 f i atls:atlbase.obj
 0001:0000b32c       ??A?$CSimpleArray@PAUHINSTANCE__@@V?$CSimpleArrayEqualHelper@PAUHINSTANCE__@@@ATL@@@ATL@@QAEAAPAUHINSTANCE__@@H@Z 1000c32c f i atls:atlbase.obj
 0001:0000b351       ?Add@?$CSimpleArray@PAUHINSTANCE__@@V?$CSimpleArrayEqualHelper@PAUHINSTANCE__@@@ATL@@@ATL@@QAEHABQAUHINSTANCE__@@@Z 1000c351 f i atls:atlbase.obj
 0001:0000b3d3       ?AddResourceInstance@CAtlBaseModule@ATL@@QAE_NPAUHINSTANCE__@@@Z 1000c3d3 f   atls:atlbase.obj
 0001:0000b406       ?GetHInstanceAt@CAtlBaseModule@ATL@@QAEPAUHINSTANCE__@@H@Z 1000c406 f   atls:atlbase.obj
 0001:0000b44b       ?GetSize@?$CSimpleArray@PAUHINSTANCE__@@V?$CSimpleArrayEqualHelper@PAUHINSTANCE__@@@ATL@@@ATL@@QBEHXZ 1000c44b f i atls:atlbase.obj
 0001:0000b44f       ?InternalSetAtIndex@?$CSimpleArray@PAUHINSTANCE__@@V?$CSimpleArrayEqualHelper@PAUHINSTANCE__@@@ATL@@@ATL@@QAEXHABQAUHINSTANCE__@@@Z 1000c44f f i atls:atlbase.obj
 0001:0000b469       ?RemoveAll@?$CSimpleArray@PAUHINSTANCE__@@V?$CSimpleArrayEqualHelper@PAUHINSTANCE__@@@ATL@@@ATL@@QAEXXZ 1000c469 f i atls:atlbase.obj
 0001:0000b486       ?RemoveAt@?$CSimpleArray@PAUHINSTANCE__@@V?$CSimpleArrayEqualHelper@PAUHINSTANCE__@@@ATL@@@ATL@@QAEHH@Z 1000c486 f i atls:atlbase.obj
 0001:0000b4d4       ?RemoveResourceInstance@CAtlBaseModule@ATL@@QAE_NPAUHINSTANCE__@@@Z 1000c4d4 f   atls:atlbase.obj
 0001:0000b531       ?memmove_s@Checked@ATL@@YAXPAXIPBXI@Z 1000c531 f i atls:atlbase.obj
 0001:0000b5d0       ??3@YAXPAXI@Z              1000c5d0 f   LIBCMTD:delete_scalar_size.obj
 0001:0000b5f0       ??_V@YAXPAXI@Z             1000c5f0 f   LIBCMTD:delete_array_size.obj
 0001:0000b610       ?configure_argv@__scrt_narrow_argv_policy@@SAHXZ 1000c610 f i LIBCMTD:utility.obj
 0001:0000b6c0       ?initialize_environment@__scrt_narrow_environment_policy@@SAHXZ 1000c6c0 f i LIBCMTD:utility.obj
 0001:0000b740       _NtCurrentTeb              1000c740 f i LIBCMTD:utility.obj
 0001:0000b750       ___scrt_acquire_startup_lock 1000c750 f   LIBCMTD:utility.obj
 0001:0000b7a0       ___scrt_dllmain_after_initialize_c 1000c7a0 f   LIBCMTD:utility.obj
 0001:0000b7d0       ___scrt_dllmain_before_initialize_c 1000c7d0 f   LIBCMTD:utility.obj
 0001:0000b7f0       ___scrt_dllmain_crt_thread_attach 1000c7f0 f   LIBCMTD:utility.obj
 0001:0000b820       ___scrt_dllmain_crt_thread_detach 1000c820 f   LIBCMTD:utility.obj
 0001:0000b840       ___scrt_dllmain_exception_filter 1000c840 f   LIBCMTD:utility.obj
 0001:0000b890       ___scrt_dllmain_uninitialize_c 1000c890 f   LIBCMTD:utility.obj
 0001:0000b8c0       ___scrt_dllmain_uninitialize_critical 1000c8c0 f   LIBCMTD:utility.obj
 0001:0000b8e0       ___scrt_initialize_crt     1000c8e0 f   LIBCMTD:utility.obj
 0001:0000b930       ___scrt_initialize_onexit_tables 1000c930 f   LIBCMTD:utility.obj
 0001:0000ba10       ___scrt_is_nonwritable_in_current_image 1000ca10 f   LIBCMTD:utility.obj
 0001:0000bb40       ___scrt_release_startup_lock 1000cb40 f   LIBCMTD:utility.obj
 0001:0000bb70       ___scrt_uninitialize_crt   1000cb70 f   LIBCMTD:utility.obj
 0001:0000bbb0       __onexit                   1000cbb0 f   LIBCMTD:utility.obj
 0001:0000bc20       _at_quick_exit             1000cc20 f   LIBCMTD:utility.obj
 0001:0000bc60       _atexit                    1000cc60 f   LIBCMTD:utility.obj
 0001:0000bc90       @_RTC_AllocaHelper@12      1000cc90 f   LIBCMTD:stack.obj
 0001:0000bcd0       @_RTC_CheckStackVars2@12   1000ccd0 f   LIBCMTD:stack.obj
 0001:0000bdb0       @_RTC_CheckStackVars@8     1000cdb0 f   LIBCMTD:stack.obj
 0001:0000be10       __RTC_CheckEsp             1000ce10 f   LIBCMTD:stack.obj
 0001:0000be50       @__security_check_cookie@4 1000ce50 f   LIBCMTD:secchk.obj
 0001:0000be70       __CRT_RTC_INIT             1000ce70 f   LIBCMTD:init.obj
 0001:0000be80       __CRT_RTC_INITW            1000ce80 f   LIBCMTD:init.obj
 0001:0000be90       __RTC_InitBase             1000ce90 f   LIBCMTD:init.obj
 0001:0000bec0       __RTC_Shutdown             1000cec0 f   LIBCMTD:init.obj
 0001:0000bee0       ??3@YAXPAX@Z               1000cee0 f   LIBCMTD:delete_scalar.obj
 0001:0000bf00       ??_V@YAXPAX@Z              1000cf00 f   LIBCMTD:delete_array.obj
 0001:0000bf20       ___raise_securityfailure   1000cf20 f   LIBCMTD:gs_report.obj
 0001:0000bf50       ___report_gsfailure        1000cf50 f   LIBCMTD:gs_report.obj
 0001:0000c060       ___report_rangecheckfailure 1000d060 f   LIBCMTD:gs_report.obj
 0001:0000c070       ___report_securityfailure  1000d070 f   LIBCMTD:gs_report.obj
 0001:0000c150       ___report_securityfailureEx 1000d150 f   LIBCMTD:gs_report.obj
 0001:0000c280       ??_U@YAPAXIABUnothrow_t@std@@@Z 1000d280 f   LIBCMTD:new_array_nothrow.obj
 0001:0000c2a0       __alloca_probe             1000d2a0 f   LIBCMTD:chkstk.obj
 0001:0000c2a0       __chkstk                   1000d2a0 f   LIBCMTD:chkstk.obj
 0001:0000c7a0       __CRT_INIT@12              1000d7a0 f   LIBCMTD:dll_dllmain.obj
 0001:0000c7c0       __DllMainCRTStartup@12     1000d7c0 f   LIBCMTD:dll_dllmain.obj
 0001:0000c7f0       @_guard_check_icall_nop@4  1000d7f0 f i LIBCMTD:guard_support.obj
 0001:0000c800       _ReadNoFence               1000d800 f i LIBCMTD:guard_support.obj
 0001:0000c820       _ReadPointerNoFence        1000d820 f i LIBCMTD:guard_support.obj
 0001:0000c840       ___castguard_check_failure_debugbreak 1000d840 f i LIBCMTD:guard_support.obj
 0001:0000c860       ___castguard_check_failure_fastfail 1000d860 f i LIBCMTD:guard_support.obj
 0001:0000c880       ___castguard_check_failure_nop 1000d880 f i LIBCMTD:guard_support.obj
 0001:0000c890       ___castguard_check_failure_os_handled 1000d890 f i LIBCMTD:guard_support.obj
 0001:0000c910       ___castguard_slow_path_check_debugbreak 1000d910 f i LIBCMTD:guard_support.obj
 0001:0000c940       ___castguard_slow_path_check_fastfail 1000d940 f i LIBCMTD:guard_support.obj
 0001:0000c980       ___castguard_slow_path_check_nop 1000d980 f i LIBCMTD:guard_support.obj
 0001:0000c990       ___castguard_slow_path_check_os_handled 1000d990 f i LIBCMTD:guard_support.obj
 0001:0000ca30       __guard_icall_checks_enforced 1000da30 f i LIBCMTD:guard_support.obj
 0001:0000ca60       ___isa_available_init      1000da60 f   LIBCMTD:cpu_disp.obj
 0001:0000cda0       __get_startup_argv_mode    1000dda0 f   LIBCMTD:argv_mode.obj
 0001:0000cdb0       ___scrt_is_ucrt_dll_in_use 1000ddb0 f   LIBCMTD:ucrt_detection.obj
 0001:0000cde0       ___scrt_fastfail           1000dde0 f   LIBCMTD:utility_desktop.obj
 0001:0000cf20       ___scrt_get_show_window_mode 1000df20 f   LIBCMTD:utility_desktop.obj
 0001:0000cf60       ___scrt_initialize_mta     1000df60 f   LIBCMTD:utility_desktop.obj
 0001:0000cf70       ___scrt_initialize_winrt   1000df70 f   LIBCMTD:utility_desktop.obj
 0001:0000cf80       ___scrt_is_managed_app     1000df80 f   LIBCMTD:utility_desktop.obj
 0001:0000d010       ___scrt_set_unhandled_exception_filter 1000e010 f   LIBCMTD:utility_desktop.obj
 0001:0000d020       ___scrt_stub_for_initialize_mta 1000e020 f   LIBCMTD:utility_desktop.obj
 0001:0000d020       ___scrt_exe_initialize_mta 1000e020 f   LIBCMTD:utility_desktop.obj
 0001:0000d030       ___scrt_unhandled_exception_filter@4 1000e030 f   LIBCMTD:utility_desktop.obj
 0001:0000d0b0       __crt_debugger_hook        1000e0b0 f   LIBCMTD:utility_desktop.obj
 0001:0000d150       ?_RTC_AllocaFailure@@YAXPAXPAU_RTC_ALLOCA_NODE@@H@Z 1000e150 f   LIBCMTD:error.obj
 0001:0000d240       ?_RTC_Failure@@YAXPAXH@Z   1000e240 f   LIBCMTD:error.obj
 0001:0000d290       ?_RTC_StackFailure@@YAXPAXPBD@Z 1000e290 f   LIBCMTD:error.obj
 0001:0000d650       __RTC_UninitUse            1000e650 f   LIBCMTD:error.obj
 0001:0000d700       __vsprintf_s_l             1000e700 f i LIBCMTD:error.obj
 0001:0000d730       _sprintf_s                 1000e730 f i LIBCMTD:error.obj
 0001:0000d750       ?_RTC_GetErrorFunc@@YAP6AHHPBDH00ZZPBX@Z 1000e750 f   LIBCMTD:userapi.obj
 0001:0000d760       ?_RTC_GetErrorFuncW@@YAP6AHHPB_WH00ZZPBX@Z 1000e760 f   LIBCMTD:userapi.obj
 0001:0000d770       __RTC_GetErrDesc           1000e770 f   LIBCMTD:userapi.obj
 0001:0000d790       __RTC_NumErrors            1000e790 f   LIBCMTD:userapi.obj
 0001:0000d7a0       __RTC_SetErrorFunc         1000e7a0 f   LIBCMTD:userapi.obj
 0001:0000d7c0       __RTC_SetErrorFuncW        1000e7c0 f   LIBCMTD:userapi.obj
 0001:0000d7e0       __RTC_SetErrorType         1000e7e0 f   LIBCMTD:userapi.obj
 0001:0000d810       ??2@YAPAXIABUnothrow_t@std@@@Z 1000e810 f   LIBCMTD:new_scalar_nothrow.obj
 0001:0000d910       ___security_init_cookie    1000e910 f   LIBCMTD:gs_support.obj
 0001:0000d990       ?__scrt_initialize_type_info@@YAXXZ 1000e990 f   LIBCMTD:tncleanup.obj
 0001:0000d9a0       ?__scrt_uninitialize_type_info@@YAXXZ 1000e9a0 f   LIBCMTD:tncleanup.obj
 0001:0000d9c0       ___local_stdio_scanf_options 1000e9c0 f i LIBCMTD:default_local_stdio_options.obj
 0001:0000d9d0       ___scrt_initialize_default_local_stdio_options 1000e9d0 f   LIBCMTD:default_local_stdio_options.obj
 0001:0000da10       ___scrt_get_dyn_tls_init_callback 1000ea10 f   LIBCMTD:dyn_tls_init.obj
 0001:0000da20       __RTC_Initialize           1000ea20 f   LIBCMTD:initsect.obj
 0001:0000da50       __RTC_Terminate            1000ea50 f   LIBCMTD:initsect.obj
 0001:0000df00       ?_RTC_GetSrcLine@@YAHPAEPA_WKPAH1K@Z 1000ef00 f   LIBCMTD:pdblkup.obj
 0001:0000e280       __except_handler4_noexcept 1000f280 f   LIBCMTD:chandler4_noexcept.obj
 0001:0000e2e0       ??2@YAPAXI@Z               1000f2e0 f   LIBCMTD:new_scalar.obj
 0001:0000e330       ??0bad_alloc@std@@AAE@QBD@Z 1000f330 f i LIBCMTD:throw_bad_alloc.obj
 0001:0000e360       ??0bad_alloc@std@@QAE@ABV01@@Z 1000f360 f i LIBCMTD:throw_bad_alloc.obj
 0001:0000e390       ??0bad_alloc@std@@QAE@XZ   1000f390 f i LIBCMTD:throw_bad_alloc.obj
 0001:0000e3c0       ??0bad_array_new_length@std@@QAE@ABV01@@Z 1000f3c0 f i LIBCMTD:throw_bad_alloc.obj
 0001:0000e3f0       ??0bad_array_new_length@std@@QAE@XZ 1000f3f0 f i LIBCMTD:throw_bad_alloc.obj
 0001:0000e420       ??0exception@std@@QAE@ABV01@@Z 1000f420 f i LIBCMTD:throw_bad_alloc.obj
 0001:0000e460       ??0exception@std@@QAE@QBDH@Z 1000f460 f i LIBCMTD:throw_bad_alloc.obj
 0001:0000e490       ??1bad_alloc@std@@UAE@XZ   1000f490 f i LIBCMTD:throw_bad_alloc.obj
 0001:0000e4b0       ??1bad_array_new_length@std@@UAE@XZ 1000f4b0 f i LIBCMTD:throw_bad_alloc.obj
 0001:0000e4d0       ??1exception@std@@UAE@XZ   1000f4d0 f i LIBCMTD:throw_bad_alloc.obj
 0001:0000e500       ??_Ebad_alloc@std@@UAEPAXI@Z 1000f500 f i LIBCMTD:throw_bad_alloc.obj
 0001:0000e500       ??_Gbad_alloc@std@@UAEPAXI@Z 1000f500 f i LIBCMTD:throw_bad_alloc.obj
 0001:0000e530       ??_Ebad_array_new_length@std@@UAEPAXI@Z 1000f530 f i LIBCMTD:throw_bad_alloc.obj
 0001:0000e530       ??_Gbad_array_new_length@std@@UAEPAXI@Z 1000f530 f i LIBCMTD:throw_bad_alloc.obj
 0001:0000e560       ??_Gexception@std@@UAEPAXI@Z 1000f560 f i LIBCMTD:throw_bad_alloc.obj
 0001:0000e560       ??_Eexception@std@@UAEPAXI@Z 1000f560 f i LIBCMTD:throw_bad_alloc.obj
 0001:0000e590       ?__scrt_throw_std_bad_alloc@@YAXXZ 1000f590 f   LIBCMTD:throw_bad_alloc.obj
 0001:0000e5b0       ?__scrt_throw_std_bad_array_new_length@@YAXXZ 1000f5b0 f   LIBCMTD:throw_bad_alloc.obj
 0001:0000e5d0       ?what@exception@std@@UBEPBDXZ 1000f5d0 f i LIBCMTD:throw_bad_alloc.obj
 0001:0000e600       ??1type_info@@UAE@XZ       1000f600 f   LIBCMTD:std_type_info_static.obj
 0001:0000e620       ??_Gtype_info@@UAEPAXI@Z   1000f620 f i LIBCMTD:std_type_info_static.obj
 0001:0000e620       ??_Etype_info@@UAEPAXI@Z   1000f620 f i LIBCMTD:std_type_info_static.obj
 0001:0000e650       _memset                    1000f650 f   libvcruntimed:memset.obj
 0001:0000e960       _memcmp                    1000f960 f   libvcruntimed:memcmp.obj
 0001:0000f230       _memcpy                    10010230 f   libvcruntimed:memcpy.obj
 0001:0000f7b0       _wcsstr                    100107b0 f   libvcruntimed:wcsstr.obj
 0001:0000fc80       _memmove                   10010c80 f   libvcruntimed:memmove.obj
 0001:00010200       ___vcrt_initialize         10011200 f   libvcruntimed:initialization.obj
 0001:00010240       ___vcrt_thread_attach      10011240 f   libvcruntimed:initialization.obj
 0001:00010260       ___vcrt_thread_detach      10011260 f   libvcruntimed:initialization.obj
 0001:00010280       ___vcrt_uninitialize       10011280 f   libvcruntimed:initialization.obj
 0001:000102a0       ___vcrt_uninitialize_critical 100112a0 f   libvcruntimed:initialization.obj
 0001:00010320       __except_handler4          10011320 f   libvcruntimed:chandler4.obj
 0001:00010510       ___DestructExceptionObject 10011510 f   libvcruntimed:ehhelpers.obj
 0001:00010630       ?_CallMemberFunction0@@YGXQAX0@Z 10011630 f i libvcruntimed:ehhelpers.obj
 0001:000106d0       ?raw_name@type_info@@QBEPBDXZ 100116d0 f i libvcruntimed:ehhelpers.obj
 0001:000106f0       __IsExceptionObjectToBeDestroyed 100116f0 f   libvcruntimed:ehhelpers.obj
 0001:00010730       __SetWinRTOutOfMemoryExceptionCallback 10011730 f   libvcruntimed:ehhelpers.obj
 0001:00010740       ___AdjustPointer           10011740 f   libvcruntimed:ehhelpers.obj
 0001:00010790       ___FrameUnwindFilter       10011790 f   libvcruntimed:ehhelpers.obj
 0001:00010820       ___GetPlatformExceptionInfo 10011820 f   libvcruntimed:ehhelpers.obj
 0001:000108a0       ___current_exception       100118a0 f   libvcruntimed:ehhelpers.obj
 0001:000108b0       ___current_exception_context 100118b0 f   libvcruntimed:ehhelpers.obj
 0001:000108c0       ___processing_throw        100118c0 f   libvcruntimed:ehhelpers.obj
 0001:000108d0       ___std_terminate           100118d0 f   libvcruntimed:ehhelpers.obj
 0001:000108e0       __is_exception_typeof      100118e0 f   libvcruntimed:ehhelpers.obj
 0001:000109c0       ??$?0AAViterator@TryBlockMap@__FrameHandler3@@AAV012@$0A@@?$pair@Viterator@TryBlockMap@__FrameHandler3@@V123@@std@@QAE@AAViterator@TryBlockMap@__FrameHandler3@@0@Z 100119c0 f i libvcruntimed:trnsctrl.obj
 0001:00010a10       ??$forward@AAViterator@TryBlockMap@__FrameHandler3@@@std@@YAAAViterator@TryBlockMap@__FrameHandler3@@AAV123@@Z 10011a10 f i libvcruntimed:trnsctrl.obj
 0001:00010a20       ??0iterator@TryBlockMap@__FrameHandler3@@QAE@AAV12@I@Z 10011a20 f i libvcruntimed:trnsctrl.obj
 0001:00010a50       ?GetRangeOfTrysToCheck@__FrameHandler3@@SA?AU?$pair@Viterator@TryBlockMap@__FrameHandler3@@V123@@std@@AAVTryBlockMap@1@HPAXPBU_s_FuncInfo@@H@Z 10011a50 f   libvcruntimed:trnsctrl.obj
 0001:00010b30       ?_CallCatchBlock2@@YAPAXPAUEHRegistrationNode@@PBU_s_FuncInfo@@PAXHK@Z 10011b30 f   libvcruntimed:trnsctrl.obj
 0001:00010ba0       ?_CallSETranslator@@YAHPAUEHExceptionRecord@@PAUEHRegistrationNode@@PAX2PBU_s_FuncInfo@@H1@Z 10011ba0 f   libvcruntimed:trnsctrl.obj
 0001:00010ca0       ?_JumpToContinuation@@YGXPAXPAUEHRegistrationNode@@@Z 10011ca0 f   libvcruntimed:trnsctrl.obj
 0001:00010ce0       ?_UnwindNestedFrames@@YGXPAUEHRegistrationNode@@PAUEHExceptionRecord@@@Z 10011ce0 f   libvcruntimed:trnsctrl.obj
 0001:00010d40       __CatchGuardHandler        10011d40 f   libvcruntimed:trnsctrl.obj
 0001:00010d90       __CreateFrameInfo          10011d90 f   libvcruntimed:trnsctrl.obj
 0001:00010dc0       __FindAndUnlinkFrame       10011dc0 f   libvcruntimed:trnsctrl.obj
 0001:00010e30       __TranslatorGuardHandler   10011e30 f   libvcruntimed:trnsctrl.obj
 0001:00010ee0       ___CxxFrameHandler         10011ee0 f   libvcruntimed:trnsctrl.obj
 0001:00010f20       ___CxxFrameHandler2        10011f20 f   libvcruntimed:trnsctrl.obj
 0001:00010f60       ___CxxFrameHandler3        10011f60 f   libvcruntimed:trnsctrl.obj
 0001:00010fa0       ___CxxLongjmpUnwind@4      10011fa0 f   libvcruntimed:trnsctrl.obj
 0001:00011000       ??$?RD@__crt_internal_free_policy@@QBEXQBD@Z 10012000 f i libvcruntimed:std_type_info.obj
 0001:00011020       ??$?RX@__crt_internal_free_policy@@QBEXQBX@Z 10012020 f i libvcruntimed:std_type_info.obj
 0001:00011040       ??$__crt_interlocked_compare_exchange_pointer@$$CBDPAD$$T@@YAPBDPDSBDQAD$$T@Z 10012040 f i libvcruntimed:std_type_info.obj
 0001:00011060       ??$__crt_interlocked_read_pointer@$$CBD@@YAPBDPDSBD@Z 10012060 f i libvcruntimed:std_type_info.obj
 0001:00011080       ??0?$__crt_unique_heap_ptr@DU__crt_internal_free_policy@@@@QAE@QAD@Z 10012080 f i libvcruntimed:std_type_info.obj
 0001:000110a0       ??0?$__crt_unique_heap_ptr@XU__crt_internal_free_policy@@@@QAE@QAX@Z 100120a0 f i libvcruntimed:std_type_info.obj
 0001:000110c0       ??1?$__crt_unique_heap_ptr@DU__crt_internal_free_policy@@@@QAE@XZ 100120c0 f i libvcruntimed:std_type_info.obj
 0001:000110e0       ??1?$__crt_unique_heap_ptr@XU__crt_internal_free_policy@@@@QAE@XZ 100120e0 f i libvcruntimed:std_type_info.obj
 0001:00011100       ??B?$__crt_unique_heap_ptr@DU__crt_internal_free_policy@@@@QBE_NXZ 10012100 f i libvcruntimed:std_type_info.obj
 0001:00011120       ??B?$__crt_unique_heap_ptr@XU__crt_internal_free_policy@@@@QBE_NXZ 10012120 f i libvcruntimed:std_type_info.obj
 0001:000111b0       ?__crt_interlocked_read_32@@YAHPDH@Z 100121b0 f i libvcruntimed:std_type_info.obj
 0001:000111d0       ?detach@?$__crt_unique_heap_ptr@XU__crt_internal_free_policy@@@@QAEPAXXZ 100121d0 f i libvcruntimed:std_type_info.obj
 0001:00011200       ?get@?$__crt_unique_heap_ptr@DU__crt_internal_free_policy@@@@QBEPADXZ 10012200 f i libvcruntimed:std_type_info.obj
 0001:00011210       ?get@?$__crt_unique_heap_ptr@XU__crt_internal_free_policy@@@@QBEPAXXZ 10012210 f i libvcruntimed:std_type_info.obj
 0001:00011220       ?is_valid@?$__crt_unique_heap_ptr@DU__crt_internal_free_policy@@@@QBE_NXZ 10012220 f i libvcruntimed:std_type_info.obj
 0001:00011250       ?is_valid@?$__crt_unique_heap_ptr@XU__crt_internal_free_policy@@@@QBE_NXZ 10012250 f i libvcruntimed:std_type_info.obj
 0001:00011280       ?release@?$__crt_unique_heap_ptr@DU__crt_internal_free_policy@@@@QAEXXZ 10012280 f i libvcruntimed:std_type_info.obj
 0001:000112b0       ?release@?$__crt_unique_heap_ptr@XU__crt_internal_free_policy@@@@QAEXXZ 100122b0 f i libvcruntimed:std_type_info.obj
 0001:000112e0       ___std_type_info_compare   100122e0 f   libvcruntimed:std_type_info.obj
 0001:00011310       ___std_type_info_destroy_list 10012310 f   libvcruntimed:std_type_info.obj
 0001:00011350       ___std_type_info_hash      10012350 f   libvcruntimed:std_type_info.obj
 0001:000113b0       ___std_type_info_name      100123b0 f   libvcruntimed:std_type_info.obj
 0001:00011590       ___vcrt_GetModuleFileNameW 10012590 f   libvcruntimed:winapi_thunks.obj
 0001:000115b0       ___vcrt_GetModuleHandleW   100125b0 f   libvcruntimed:winapi_thunks.obj
 0001:000115c0       ___vcrt_LoadLibraryExW     100125c0 f   libvcruntimed:winapi_thunks.obj
 0001:000115e0       ??$?RD@__crt_public_free_policy@@QBEXQBD@Z 100125e0 f i libvcruntimed:std_exception.obj
 0001:00011600       ??0?$__crt_unique_heap_ptr@DU__crt_public_free_policy@@@@QAE@QAD@Z 10012600 f i libvcruntimed:std_exception.obj
 0001:00011620       ??1?$__crt_unique_heap_ptr@DU__crt_public_free_policy@@@@QAE@XZ 10012620 f i libvcruntimed:std_exception.obj
 0001:00011640       ??B?$__crt_unique_heap_ptr@DU__crt_public_free_policy@@@@QBE_NXZ 10012640 f i libvcruntimed:std_exception.obj
 0001:00011660       ?detach@?$__crt_unique_heap_ptr@DU__crt_public_free_policy@@@@QAEPADXZ 10012660 f i libvcruntimed:std_exception.obj
 0001:00011690       ?get@?$__crt_unique_heap_ptr@DU__crt_public_free_policy@@@@QBEPADXZ 10012690 f i libvcruntimed:std_exception.obj
 0001:000116a0       ?is_valid@?$__crt_unique_heap_ptr@DU__crt_public_free_policy@@@@QBE_NXZ 100126a0 f i libvcruntimed:std_exception.obj
 0001:000116d0       ?release@?$__crt_unique_heap_ptr@DU__crt_public_free_policy@@@@QAEXXZ 100126d0 f i libvcruntimed:std_exception.obj
 0001:00011700       ___std_exception_copy      10012700 f   libvcruntimed:std_exception.obj
 0001:000117f0       ___std_exception_destroy   100127f0 f   libvcruntimed:std_exception.obj
 0001:00011820       __CxxThrowException@8      10012820 f   libvcruntimed:throw.obj
 0001:000118d0       ??$?RU__vcrt_ptd@@@__crt_internal_free_policy@@QBEXQBU__vcrt_ptd@@@Z 100128d0 f i libvcruntimed:per_thread_data.obj
 0001:000118f0       ??0?$__crt_unique_heap_ptr@U__vcrt_ptd@@U__crt_internal_free_policy@@@@QAE@QAU__vcrt_ptd@@@Z 100128f0 f i libvcruntimed:per_thread_data.obj
 0001:00011930       ??1?$__crt_unique_heap_ptr@U__vcrt_ptd@@U__crt_internal_free_policy@@@@QAE@XZ 10012930 f i libvcruntimed:per_thread_data.obj
 0001:00011970       ??B?$__crt_unique_heap_ptr@U__vcrt_ptd@@U__crt_internal_free_policy@@@@QBE_NXZ 10012970 f i libvcruntimed:per_thread_data.obj
 0001:00011990       ?detach@?$__crt_unique_heap_ptr@U__vcrt_ptd@@U__crt_internal_free_policy@@@@QAEPAU__vcrt_ptd@@XZ 10012990 f i libvcruntimed:per_thread_data.obj
 0001:000119c0       ?get@?$__crt_unique_heap_ptr@U__vcrt_ptd@@U__crt_internal_free_policy@@@@QBEPAU__vcrt_ptd@@XZ 100129c0 f i libvcruntimed:per_thread_data.obj
 0001:000119d0       ?is_valid@?$__crt_unique_heap_ptr@U__vcrt_ptd@@U__crt_internal_free_policy@@@@QBE_NXZ 100129d0 f i libvcruntimed:per_thread_data.obj
 0001:00011a00       ?release@?$__crt_unique_heap_ptr@U__vcrt_ptd@@U__crt_internal_free_policy@@@@QAEXXZ 10012a00 f i libvcruntimed:per_thread_data.obj
 0001:00011a60       ___vcrt_freefls@4          10012a60 f   libvcruntimed:per_thread_data.obj
 0001:00011a90       ___vcrt_freeptd            10012a90 f   libvcruntimed:per_thread_data.obj
 0001:00011af0       ___vcrt_getptd             10012af0 f   libvcruntimed:per_thread_data.obj
 0001:00011b10       ___vcrt_getptd_noexit      10012b10 f   libvcruntimed:per_thread_data.obj
 0001:00011c70       ___vcrt_getptd_noinit      10012c70 f   libvcruntimed:per_thread_data.obj
 0001:00011cd0       ___vcrt_initialize_ptd     10012cd0 f   libvcruntimed:per_thread_data.obj
 0001:00011d20       ___vcrt_uninitialize_ptd   10012d20 f   libvcruntimed:per_thread_data.obj
 0001:00011d50       ___vcrt_initialize_locks   10012d50 f   libvcruntimed:locks.obj
 0001:00011db0       ___vcrt_lock               10012db0 f   libvcruntimed:locks.obj
 0001:00011dd0       ___vcrt_uninitialize_locks 10012dd0 f   libvcruntimed:locks.obj
 0001:00011e20       ___vcrt_unlock             10012e20 f   libvcruntimed:locks.obj
 0001:00011e40       __local_unwind4            10012e40 f   libvcruntimed:exsup4.obj
 0001:00011f14       __seh_longjmp_unwind4@4    10012f14 f   libvcruntimed:exsup4.obj
 0001:00011f3c       @_EH4_CallFilterFunc@8     10012f3c f   libvcruntimed:exsup4.obj
 0001:00011f54       @_EH4_TransferToHandler@8  10012f54 f   libvcruntimed:exsup4.obj
 0001:00011f70       @_EH4_GlobalUnwind2@8      10012f70 f   libvcruntimed:exsup4.obj
 0001:00011f8c       @_EH4_LocalUnwind@16       10012f8c f   libvcruntimed:exsup4.obj
 0001:00011fc0       ___except_validate_context_record 10012fc0 f   libvcruntimed:jbcxrval.obj
 0001:00012010       ___except_validate_jump_buffer 10013010 f   libvcruntimed:jbcxrval.obj
 0001:00012030       ___except_validate_jump_buffer_common 10013030 f i libvcruntimed:jbcxrval.obj
 0001:00012c00       ??$TypeMatchHelper@V__FrameHandler3@@@@YAHPBU_s_HandlerType@@PBU_s_CatchableType@@PBU_s_ThrowInfo@@@Z 10013c00 f i libvcruntimed:frame.obj
 0001:00012ce0       ??$__InternalCxxFrameHandler@V__FrameHandler3@@@@YA?AW4_EXCEPTION_DISPOSITION@@PAUEHExceptionRecord@@PAUEHRegistrationNode@@PAU_CONTEXT@@PAXPBU_s_FuncInfo@@H1E@Z 10013ce0 f i libvcruntimed:frame.obj
 0001:00012ea0       ??0HandlerMap@__FrameHandler3@@QAE@PBU_s_TryBlockMapEntry@@II@Z 10013ea0 f i libvcruntimed:frame.obj
 0001:00012ed0       ??0TryBlockMap@__FrameHandler3@@QAE@PBU_s_FuncInfo@@I@Z 10013ed0 f i libvcruntimed:frame.obj
 0001:00012f00       ??0bad_exception@std@@QAE@ABV01@@Z 10013f00 f i libvcruntimed:frame.obj
 0001:00012f30       ??0bad_exception@std@@QAE@XZ 10013f30 f i libvcruntimed:frame.obj
 0001:00012f60       ??0iterator@HandlerMap@__FrameHandler3@@QAE@AAV12@I@Z 10013f60 f i libvcruntimed:frame.obj
 0001:00012f90       ??1bad_exception@std@@UAE@XZ 10013f90 f i libvcruntimed:frame.obj
 0001:00012fb0       ??8iterator@HandlerMap@__FrameHandler3@@QBE_NABV012@@Z 10013fb0 f i libvcruntimed:frame.obj
 0001:00012fe0       ??8type_info@@QBE_NABV0@@Z 10013fe0 f i libvcruntimed:frame.obj
 0001:00013020       ??9iterator@HandlerMap@__FrameHandler3@@QBE_NABV012@@Z 10014020 f i libvcruntimed:frame.obj
 0001:00013060       ??Diterator@HandlerMap@__FrameHandler3@@QAE?BU_s_HandlerType@@XZ 10014060 f i libvcruntimed:frame.obj
 0001:000130a0       ??Diterator@TryBlockMap@__FrameHandler3@@QAE?BU_s_TryBlockMapEntry@@XZ 100140a0 f i libvcruntimed:frame.obj
 0001:000130f0       ??Eiterator@HandlerMap@__FrameHandler3@@QAEAAV012@XZ 100140f0 f i libvcruntimed:frame.obj
 0001:00013110       ??Eiterator@TryBlockMap@__FrameHandler3@@QAEAAV012@XZ 10014110 f i libvcruntimed:frame.obj
 0001:00013130       ??Miterator@TryBlockMap@__FrameHandler3@@QBE_NABV012@@Z 10014130 f i libvcruntimed:frame.obj
 0001:00013160       ??_Gbad_exception@std@@UAEPAXI@Z 10014160 f i libvcruntimed:frame.obj
 0001:00013160       ??_Ebad_exception@std@@UAEPAXI@Z 10014160 f i libvcruntimed:frame.obj
 0001:00013190       ?BuildCatchObject@__FrameHandler3@@SAXPAUEHExceptionRecord@@PAXPBU_s_HandlerType@@PBU_s_CatchableType@@@Z 10014190 f   libvcruntimed:frame.obj
 0001:000131b0       ?BuildCatchObjectHelper@__FrameHandler3@@SAHPAUEHExceptionRecord@@PAXPBU_s_HandlerType@@PBU_s_CatchableType@@@Z 100141b0 f   libvcruntimed:frame.obj
 0001:00013550       ?FrameUnwindToEmptyState@__FrameHandler3@@SAXPAUEHRegistrationNode@@PAXPBU_s_FuncInfo@@@Z 10014550 f   libvcruntimed:frame.obj
 0001:00013570       ?FrameUnwindToState@__FrameHandler3@@SAXPAUEHRegistrationNode@@PAXPBU_s_FuncInfo@@H@Z 10014570 f   libvcruntimed:frame.obj
 0001:000136f0       ?GetMaxState@__FrameHandler3@@SAHPAXPBU_s_FuncInfo@@@Z 100146f0 f i libvcruntimed:frame.obj
 0001:00013810       ?TypeMatch@__FrameHandler3@@SAHPBU_s_HandlerType@@PBU_s_CatchableType@@PBU_s_ThrowInfo@@@Z 10014810 f   libvcruntimed:frame.obj
 0001:00013830       ?_CallMemberFunction1@@YGXQAX00@Z 10014830 f i libvcruntimed:frame.obj
 0001:00013860       ?_CallMemberFunction2@@YGXQAX00H@Z 10014860 f i libvcruntimed:frame.obj
 0001:00013890       ?begin@HandlerMap@__FrameHandler3@@QAE?AViterator@12@XZ 10014890 f i libvcruntimed:frame.obj
 0001:000138b0       ?end@HandlerMap@__FrameHandler3@@QAE?AViterator@12@XZ 100148b0 f i libvcruntimed:frame.obj
 0001:000138e0       ?getESTypes@__FrameHandler3@@SAPBU_s_ESTypeList@@PBU_s_FuncInfo@@@Z 100148e0 f i libvcruntimed:frame.obj
 0001:000138f0       ?getLastEntry@HandlerMap@__FrameHandler3@@QAEPBU_s_HandlerType@@XZ 100148f0 f i libvcruntimed:frame.obj
 0001:00013910       ?getMagicNum@__FrameHandler3@@SAIPBU_s_FuncInfo@@@Z 10014910 f i libvcruntimed:frame.obj
 0001:00013920       ?getNumTryBlocks@TryBlockMap@__FrameHandler3@@QAEIXZ 10014920 f i libvcruntimed:frame.obj
 0001:00013940       ?isEHs@__FrameHandler3@@SA_NPBU_s_FuncInfo@@@Z 10014940 f i libvcruntimed:frame.obj
 0001:00013970       ?isNoExcept@__FrameHandler3@@SA_NPBU_s_FuncInfo@@@Z 10014970 f i libvcruntimed:frame.obj
 0001:000139a0       ___BuildCatchObject        100149a0 f   libvcruntimed:frame.obj
 0001:000139c0       ___BuildCatchObjectHelper  100149c0 f   libvcruntimed:frame.obj
 0001:000139e0       ___TypeMatch               100149e0 f   libvcruntimed:frame.obj
 0001:00013a00       ___vcrt_EncodePointer      10014a00 f i libvcruntimed:frame.obj
 0001:00013a10       __CallSettingFrame@12      10014a10 f   libvcruntimed:lowhelpr.obj
 0001:00013a37       __NLG_Return               10014a37     libvcruntimed:lowhelpr.obj
 0001:00013a60       ??$?0$00@DName@@QAE@PBDU?$StringLifeSelector@$00@@@Z 10014a60 f i libvcruntimed:undname.obj
 0001:00013ab0       ??$?0$00@pcharNode@@QAE@PBDHU?$StringLifeSelector@$00@@@Z 10014ab0 f i libvcruntimed:undname.obj
 0001:00013af0       ??$?0$01@DName@@QAE@PBDU?$StringLifeSelector@$01@@@Z 10014af0 f i libvcruntimed:undname.obj
 0001:00013b40       ??$?0$01@pcharNode@@QAE@PBDHU?$StringLifeSelector@$01@@@Z 10014b40 f i libvcruntimed:undname.obj
 0001:00013bc0       ??$?0$0A@@DName@@QAE@PBDU?$StringLifeSelector@$0A@@@@Z 10014bc0 f i libvcruntimed:undname.obj
 0001:00013c10       ??$?0$0A@@pcharNode@@QAE@PBDHU?$StringLifeSelector@$0A@@@@Z 10014c10 f i libvcruntimed:undname.obj
 0001:00013c90       ??$?0_K$0A@@?$optional@_K@std@@QAE@$$QA_K@Z 10014c90 f i libvcruntimed:undname.obj
 0001:00013cd0       ??$?0_K@?$_Optional_construct_base@_K@std@@QAE@Uin_place_t@1@$$QA_K@Z 10014cd0 f i libvcruntimed:undname.obj
 0001:00013d00       ??$?0_K@?$_Optional_destruct_base@_K$00@std@@QAE@Uin_place_t@1@$$QA_K@Z 10014d00 f i libvcruntimed:undname.obj
 0001:00013d30       ??$append@VDNameNode@@@DName@@AAEXPBVDNameNode@@@Z 10014d30 f i libvcruntimed:undname.obj
 0001:00013dc0       ??$append@VDNameStatusNode@@@DName@@AAEXPBVDNameStatusNode@@@Z 10014dc0 f i libvcruntimed:undname.obj
 0001:00013e50       ??$append@VcharNode@@@DName@@AAEXPBVcharNode@@@Z 10014e50 f i libvcruntimed:undname.obj
 0001:00013ee0       ??$append@VpDNameNode@@@DName@@AAEXPBVpDNameNode@@@Z 10014ee0 f i libvcruntimed:undname.obj
 0001:00013f70       ??$append@VpcharNode@@@DName@@AAEXPBVpcharNode@@@Z 10014f70 f i libvcruntimed:undname.obj
 0001:00014000       ??$doPchar@$00@DName@@AAEXPBDH@Z 10015000 f i libvcruntimed:undname.obj
 0001:00014110       ??$doPchar@$01@DName@@AAEXPBDH@Z 10015110 f i libvcruntimed:undname.obj
 0001:00014220       ??$doPchar@$0A@@DName@@AAEXPBDH@Z 10015220 f i libvcruntimed:undname.obj
 0001:00014330       ??$forward@_K@std@@YA$$QA_KAA_K@Z 10015330 f i libvcruntimed:undname.obj
 0001:00014340       ??$size@D$04@std@@YAIAAY04$$CBD@Z 10015340 f i libvcruntimed:undname.obj
 0001:00014350       ??$size@D$0EB@@std@@YAIAAY0EB@$$CBD@Z 10015350 f i libvcruntimed:undname.obj
 0001:00014360       ??0?$_Optional_construct_base@_K@std@@QAE@XZ 10015360 f i libvcruntimed:undname.obj
 0001:00014380       ??0?$_Optional_destruct_base@_K$00@std@@QAE@XZ 10015380 f i libvcruntimed:undname.obj
 0001:000143a0       ??0?$optional@_K@std@@QAE@XZ 100153a0 f i libvcruntimed:undname.obj
 0001:000143c0       ??0Block@_HeapManager@@QAE@XZ 100153c0 f i libvcruntimed:undname.obj
 0001:000143e0       ??0DName@@QAE@AAPBDD@Z     100153e0 f   libvcruntimed:undname.obj
 0001:00014550       ??0DName@@QAE@ABUStringLiteral@@@Z 10015550 f   libvcruntimed:undname.obj
 0001:000145a0       ??0DName@@QAE@ABV0@@Z      100155a0 f i libvcruntimed:undname.obj
 0001:000145d0       ??0DName@@QAE@D@Z          100155d0 f   libvcruntimed:undname.obj
 0001:00014600       ??0DName@@QAE@PAV0@@Z      10015600 f   libvcruntimed:undname.obj
 0001:000146b0       ??0DName@@QAE@W4DNameStatus@@@Z 100156b0 f   libvcruntimed:undname.obj
 0001:00014750       ??0DName@@QAE@XZ           10015750 f i libvcruntimed:undname.obj
 0001:00014780       ??0DName@@QAE@_J@Z         10015780 f   libvcruntimed:undname.obj
 0001:00014870       ??0DName@@QAE@_K@Z         10015870 f   libvcruntimed:undname.obj
 0001:00014920       ??0DNameNode@@IAE@XZ       10015920 f i libvcruntimed:undname.obj
 0001:00014940       ??0Replicator@@QAE@XZ      10015940 f i libvcruntimed:undname.obj
 0001:00014980       ??0UnDecorator@@QAE@PBDP6APADJ@ZK@Z 10015980 f i libvcruntimed:undname.obj
 0001:00014a00       ??0_Nontrivial_dummy_type@std@@QAE@XZ 10015a00 f i libvcruntimed:undname.obj
 0001:00014a10       ??0charNode@@QAE@D@Z       10015a10 f i libvcruntimed:undname.obj
 0001:00014a40       ??0pDNameNode@@QAE@PAVDName@@@Z 10015a40 f   libvcruntimed:undname.obj
 0001:00014aa0       ??0pairNode@@QAE@PBVDNameNode@@0@Z 10015aa0 f i libvcruntimed:undname.obj
 0001:00014b00       ??2@YAPAXIAAV_HeapManager@@H@Z 10015b00 f   libvcruntimed:undname.obj
 0001:00014b40       ??4DName@@QAEAAV0@ABUStringLiteral@@@Z 10015b40 f   libvcruntimed:undname.obj
 0001:00014b80       ??4DName@@QAEAAV0@ABV0@@Z  10015b80 f   libvcruntimed:undname.obj
 0001:00014bb0       ??4DName@@QAEAAV0@D@Z      10015bb0 f i libvcruntimed:undname.obj
 0001:00014be0       ??4DName@@QAEAAV0@PAV0@@Z  10015be0 f   libvcruntimed:undname.obj
 0001:00014c80       ??4DName@@QAEAAV0@W4DNameStatus@@@Z 10015c80 f   libvcruntimed:undname.obj
 0001:00014d00       ??AReplicator@@QBE?AVDName@@H@Z 10015d00 f   libvcruntimed:undname.obj
 0001:00014d70       ??B?$optional@_K@std@@QBE_NXZ 10015d70 f i libvcruntimed:undname.obj
 0001:00014d90       ??D?$optional@_K@std@@QGAEAA_KXZ 10015d90 f i libvcruntimed:undname.obj
 0001:00014da0       ??H@YA?AVDName@@ABUStringLiteral@@ABV0@@Z 10015da0 f i libvcruntimed:undname.obj
 0001:00014dd0       ??H@YA?AVDName@@DABV0@@Z   10015dd0 f i libvcruntimed:undname.obj
 0001:00014e00       ??H@YA?AVDName@@W4DNameStatus@@ABV0@@Z 10015e00 f i libvcruntimed:undname.obj
 0001:00014e30       ??HDName@@QBE?AV0@ABUStringLiteral@@@Z 10015e30 f   libvcruntimed:undname.obj
 0001:00014e70       ??HDName@@QBE?AV0@ABV0@@Z  10015e70 f   libvcruntimed:undname.obj
 0001:00014eb0       ??HDName@@QBE?AV0@D@Z      10015eb0 f   libvcruntimed:undname.obj
 0001:00014ef0       ??HDName@@QBE?AV0@PAV0@@Z  10015ef0 f   libvcruntimed:undname.obj
 0001:00014f30       ??HDName@@QBE?AV0@W4DNameStatus@@@Z 10015f30 f   libvcruntimed:undname.obj
 0001:00014f70       ??HStringLiteral@@QBE?AU0@H@Z 10015f70 f i libvcruntimed:undname.obj
 0001:00014fa0       ??YDName@@QAEAAV0@ABUStringLiteral@@@Z 10015fa0 f   libvcruntimed:undname.obj
 0001:00015040       ??YDName@@QAEAAV0@ABV0@@Z  10016040 f   libvcruntimed:undname.obj
 0001:000150e0       ??YDName@@QAEAAV0@D@Z      100160e0 f   libvcruntimed:undname.obj
 0001:00015160       ??YDName@@QAEAAV0@PAV0@@Z  10016160 f   libvcruntimed:undname.obj
 0001:00015210       ??YDName@@QAEAAV0@W4DNameStatus@@@Z 10016210 f   libvcruntimed:undname.obj
 0001:00015270       ??YReplicator@@QAEAAV0@ABVDName@@@Z 10016270 f   libvcruntimed:undname.obj
 0001:00015300       ??_5DName@@QAEAAV0@ABV0@@Z 10016300 f   libvcruntimed:undname.obj
 0001:00015360       ??__K_l@@YA?AUStringLiteral@@PBDI@Z 10016360 f i libvcruntimed:undname.obj
 0001:00015380       ?Constructor@_HeapManager@@QAEXP6APAXI@ZP6AXPAX@Z@Z 10016380 f i libvcruntimed:undname.obj
 0001:000153c0       ?Destructor@_HeapManager@@QAEXXZ 100163c0 f i libvcruntimed:undname.obj
 0001:00015430       ?UScore@UnDecorator@@SA?AUStringLiteral@@W4Tokens@@@Z 10016430 f   libvcruntimed:undname.obj
 0001:00015480       ?composeDeclaration@UnDecorator@@CA?AVDName@@ABV2@@Z 10016480 f i libvcruntimed:undname.obj
 0001:000173f0       ?dbGetString@DName@@QBEPADXZ 100183f0 f   libvcruntimed:undname.obj
 0001:00017410       ?doAccessSpecifiers@UnDecorator@@SAHXZ 10018410 f i libvcruntimed:undname.obj
 0001:00017440       ?doAllocationLanguage@UnDecorator@@SAHXZ 10018440 f i libvcruntimed:undname.obj
 0001:00017470       ?doAllocationModel@UnDecorator@@SAHXZ 10018470 f i libvcruntimed:undname.obj
 0001:000174a0       ?doEcsu@UnDecorator@@SAHXZ 100184a0 f i libvcruntimed:undname.obj
 0001:000174d0       ?doEllipsis@UnDecorator@@SAHXZ 100184d0 f i libvcruntimed:undname.obj
 0001:00017500       ?doFunctionReturns@UnDecorator@@SAHXZ 10018500 f i libvcruntimed:undname.obj
 0001:00017530       ?doMSKeywords@UnDecorator@@SAHXZ 10018530 f i libvcruntimed:undname.obj
 0001:00017560       ?doMemberTypes@UnDecorator@@SAHXZ 10018560 f i libvcruntimed:undname.obj
 0001:00017590       ?doNameOnly@UnDecorator@@SAHXZ 10018590 f i libvcruntimed:undname.obj
 0001:000175a0       ?doNoIdentCharCheck@UnDecorator@@SAHXZ 100185a0 f i libvcruntimed:undname.obj
 0001:000175b0       ?doPchar@DName@@AAEXD@Z    100185b0 f   libvcruntimed:undname.obj
 0001:00017620       ?doPtr64@UnDecorator@@SAHXZ 10018620 f i libvcruntimed:undname.obj
 0001:00017650       ?doRestrictionSpec@UnDecorator@@SAHXZ 10018650 f i libvcruntimed:undname.obj
 0001:00017680       ?doThisTypes@UnDecorator@@SAHXZ 10018680 f i libvcruntimed:undname.obj
 0001:000176b0       ?doThrowTypes@UnDecorator@@SAHXZ 100186b0 f i libvcruntimed:undname.obj
 0001:000176e0       ?doTypeOnly@UnDecorator@@SAHXZ 100186e0 f i libvcruntimed:undname.obj
 0001:000176f0       ?doUnderScore@UnDecorator@@SAHXZ 100186f0 f i libvcruntimed:undname.obj
 0001:00017720       ?getArgumentList@UnDecorator@@CA?AVDName@@XZ 10018720 f   libvcruntimed:undname.obj
 0001:00017870       ?getArgumentTypes@UnDecorator@@CA?AVDName@@XZ 10018870 f   libvcruntimed:undname.obj
 0001:00017a80       ?getArrayObject@UnDecorator@@CA?AVDName@@XZ 10018a80 f   libvcruntimed:undname.obj
 0001:00017b60       ?getArrayType@UnDecorator@@CA?AVDName@@ABV2@@Z 10018b60 f i libvcruntimed:undname.obj
 0001:00017e00       ?getBasedType@UnDecorator@@CA?AVDName@@XZ 10018e00 f   libvcruntimed:undname.obj
 0001:00017ef0       ?getBasicDataType@UnDecorator@@CA?AVDName@@ABV2@@Z 10018ef0 f   libvcruntimed:undname.obj
 0001:00018800       ?getCHPEName@UnDecorator@@QAEPADPADH@Z 10019800 f i libvcruntimed:undname.obj
 0001:00018960       ?getCallIndex@UnDecorator@@CA?AVDName@@XZ 10019960 f i libvcruntimed:undname.obj
 0001:00018980       ?getCallingConvention@UnDecorator@@CA?AVDName@@XZ 10019980 f   libvcruntimed:undname.obj
 0001:00018bc0       ?getDataIndirectType@UnDecorator@@CA?AVDName@@ABV2@W4IndirectionKind@@0H@Z 10019bc0 f   libvcruntimed:undname.obj
 0001:000194e0       ?getDataIndirectType@UnDecorator@@CA?AVDName@@XZ 1001a4e0 f i libvcruntimed:undname.obj
 0001:00019520       ?getDataType@UnDecorator@@CA?AVDName@@PAV2@@Z 1001a520 f   libvcruntimed:undname.obj
 0001:00019660       ?getDecoratedName@UnDecorator@@CA?AVDName@@XZ 1001a660 f   libvcruntimed:undname.obj
 0001:00019aa0       ?getDimension@UnDecorator@@CA?AVDName@@_N@Z 1001aaa0 f   libvcruntimed:undname.obj
 0001:00019d00       ?getDispatchTarget@UnDecorator@@CA?AVDName@@XZ 1001ad00 f   libvcruntimed:undname.obj
 0001:00019da0       ?getDisplacement@UnDecorator@@CA?AVDName@@XZ 1001ada0 f i libvcruntimed:undname.obj
 0001:00019dc0       ?getECSUDataType@UnDecorator@@CA?AVDName@@XZ 1001adc0 f   libvcruntimed:undname.obj
 0001:0001a020       ?getECSUName@UnDecorator@@CA?AVDName@@XZ 1001b020 f i libvcruntimed:undname.obj
 0001:0001a040       ?getEnumType@UnDecorator@@CA?AVDName@@XZ 1001b040 f i libvcruntimed:undname.obj
 0001:0001a1f0       ?getExtendedDataIndirectType@UnDecorator@@CA?AVDName@@AAW4IndirectionKind@@AA_NH@Z 1001b1f0 f   libvcruntimed:undname.obj
 0001:0001a440       ?getExternalDataType@UnDecorator@@CA?AVDName@@ABV2@@Z 1001b440 f i libvcruntimed:undname.obj
 0001:0001a4e0       ?getFloatingPoint@UnDecorator@@CA?AVDName@@H@Z 1001b4e0 f   libvcruntimed:undname.obj
 0001:0001a690       ?getFunctionIndirectType@UnDecorator@@CA?AVDName@@ABV2@@Z 1001b690 f   libvcruntimed:undname.obj
 0001:0001ab70       ?getGuardNumber@UnDecorator@@CA?AVDName@@XZ 1001bb70 f i libvcruntimed:undname.obj
 0001:0001ab90       ?getLastChar@DName@@QBEDXZ 1001bb90 f i libvcruntimed:undname.obj
 0001:0001abd0       ?getLastChar@DNameStatusNode@@UBEDXZ 1001bbd0 f i libvcruntimed:undname.obj
 0001:0001ac00       ?getLastChar@charNode@@UBEDXZ 1001bc00 f i libvcruntimed:undname.obj
 0001:0001ac20       ?getLastChar@pDNameNode@@UBEDXZ 1001bc20 f i libvcruntimed:undname.obj
 0001:0001ac50       ?getLastChar@pairNode@@UBEDXZ 1001bc50 f i libvcruntimed:undname.obj
 0001:0001acc0       ?getLastChar@pcharNode@@UBEDXZ 1001bcc0 f i libvcruntimed:undname.obj
 0001:0001ad00       ?getLexicalFrame@UnDecorator@@CA?AVDName@@XZ 1001bd00 f i libvcruntimed:undname.obj
 0001:0001ad40       ?getMemoryWithBuffer@_HeapManager@@QAEPAXI@Z 1001bd40 f   libvcruntimed:undname.obj
 0001:0001ae30       ?getMemoryWithoutBuffer@_HeapManager@@QAEPAXI@Z 1001be30 f   libvcruntimed:undname.obj
 0001:0001ae70       ?getNoexcept@UnDecorator@@CA?AVDName@@XZ 1001be70 f   libvcruntimed:undname.obj
 0001:0001aef0       ?getNumberOfDimensions@UnDecorator@@CAHXZ 1001bef0 f   libvcruntimed:undname.obj
 0001:0001aff0       ?getOperatorName@UnDecorator@@CA?AVDName@@_NPA_N@Z 1001bff0 f i libvcruntimed:undname.obj
 0001:0001bae0       ?getPointerType@UnDecorator@@CA?AVDName@@ABV2@0@Z 1001cae0 f i libvcruntimed:undname.obj
 0001:0001bb00       ?getPointerTypeArray@UnDecorator@@CA?AVDName@@ABV2@0@Z 1001cb00 f i libvcruntimed:undname.obj
 0001:0001bb20       ?getPrimaryDataType@UnDecorator@@CA?AVDName@@ABV2@@Z 1001cb20 f   libvcruntimed:undname.obj
 0001:0001bfb0       ?getPtrRefDataType@UnDecorator@@CA?AVDName@@ABV2@H@Z 1001cfb0 f   libvcruntimed:undname.obj
 0001:0001c260       ?getPtrRefType@UnDecorator@@CA?AVDName@@ABV2@0W4IndirectionKind@@@Z 1001d260 f   libvcruntimed:undname.obj
 0001:0001c3e0       ?getReferenceType@UnDecorator@@CA?AVDName@@ABV2@0W4IndirectionKind@@@Z 1001d3e0 f i libvcruntimed:undname.obj
 0001:0001c400       ?getRestrictionSpec@UnDecorator@@CA?AVDName@@XZ 1001d400 f   libvcruntimed:undname.obj
 0001:0001c5c0       ?getReturnType@UnDecorator@@CA?AVDName@@PAV2@@Z 1001d5c0 f   libvcruntimed:undname.obj
 0001:0001c610       ?getScope@UnDecorator@@CA?AVDName@@XZ 1001d610 f   libvcruntimed:undname.obj
 0001:0001cba0       ?getScopedName@UnDecorator@@CA?AVDName@@XZ 1001dba0 f   libvcruntimed:undname.obj
 0001:0001ccf0       ?getSignedDimension@UnDecorator@@CA?AVDName@@XZ 1001dcf0 f   libvcruntimed:undname.obj
 0001:0001cd70       ?getStorageConvention@UnDecorator@@CA?AVDName@@XZ 1001dd70 f i libvcruntimed:undname.obj
 0001:0001cd90       ?getString@DName@@QBEPADPAD0@Z 1001dd90 f i libvcruntimed:undname.obj
 0001:0001cdf0       ?getString@DName@@QBEPADPADH@Z 1001ddf0 f i libvcruntimed:undname.obj
 0001:0001ce80       ?getString@DNameStatusNode@@UBEPADPAD0@Z 1001de80 f i libvcruntimed:undname.obj
 0001:0001cec0       ?getString@charNode@@UBEPADPAD0@Z 1001dec0 f i libvcruntimed:undname.obj
 0001:0001cef0       ?getString@pDNameNode@@UBEPADPAD0@Z 1001def0 f i libvcruntimed:undname.obj
 0001:0001cf30       ?getString@pairNode@@UBEPADPAD0@Z 1001df30 f i libvcruntimed:undname.obj
 0001:0001cfc0       ?getString@pcharNode@@UBEPADPAD0@Z 1001dfc0 f i libvcruntimed:undname.obj
 0001:0001cff0       ?getStringEncoding@UnDecorator@@CA?AVDName@@W4PrefixKind@@H@Z 1001dff0 f   libvcruntimed:undname.obj
 0001:0001d100       ?getStringHelper@@YAPADPADPBD1H@Z 1001e100 f i libvcruntimed:undname.obj
 0001:0001d140       ?getStringObject@UnDecorator@@CA?AVDName@@XZ 1001e140 f   libvcruntimed:undname.obj
 0001:0001d1f0       ?getSymbolName@UnDecorator@@CA?AVDName@@XZ 1001e1f0 f i libvcruntimed:undname.obj
 0001:0001d280       ?getTemplateArgumentList@UnDecorator@@CA?AVDName@@XZ 1001e280 f   libvcruntimed:undname.obj
 0001:0001d570       ?getTemplateName@UnDecorator@@CA?AVDName@@_N@Z 1001e570 f   libvcruntimed:undname.obj
 0001:0001d730       ?getTemplateNonTypeArgument@UnDecorator@@CA?AVDName@@XZ 1001e730 f   libvcruntimed:undname.obj
 0001:0001dc70       ?getTemplateTypeArgument@UnDecorator@@CA?AVDName@@XZ 1001ec70 f   libvcruntimed:undname.obj
 0001:0001de10       ?getThisType@UnDecorator@@CA?AVDName@@XZ 1001ee10 f i libvcruntimed:undname.obj
 0001:0001de50       ?getThrowTypes@UnDecorator@@CA?AVDName@@XZ 1001ee50 f   libvcruntimed:undname.obj
 0001:0001de90       ?getTypeEncoding@UnDecorator@@CAHXZ 1001ee90 f i libvcruntimed:undname.obj
 0001:0001e950       ?getUndecoratedName@UnDecorator@@QAEPADPADH@Z 1001f950 f i libvcruntimed:undname.obj
 0001:0001eab0       ?getVCallThunkType@UnDecorator@@CA?AVDName@@XZ 1001fab0 f i libvcruntimed:undname.obj
 0001:0001eb30       ?getValue@UnDecorator@@CA?AV?$optional@_K@std@@XZ 1001fb30 f   libvcruntimed:undname.obj
 0001:0001ebf0       ?getValueObject@UnDecorator@@CA?AVDName@@XZ 1001fbf0 f   libvcruntimed:undname.obj
 0001:0001edb0       ?getVbTableType@UnDecorator@@CA?AVDName@@ABV2@@Z 1001fdb0 f i libvcruntimed:undname.obj
 0001:0001edd0       ?getVdispMapType@UnDecorator@@CA?AVDName@@ABV2@@Z 1001fdd0 f i libvcruntimed:undname.obj
 0001:0001ee60       ?getVfTableType@UnDecorator@@CA?AVDName@@ABV2@@Z 1001fe60 f i libvcruntimed:undname.obj
 0001:0001f060       ?getZName@UnDecorator@@CA?AVDName@@_N0@Z 10020060 f   libvcruntimed:undname.obj
 0001:0001f3a0       ?haveTemplateParameters@UnDecorator@@SAHXZ 100203a0 f i libvcruntimed:undname.obj
 0001:0001f3b0       ?isArray@DName@@QBEHXZ     100203b0 f i libvcruntimed:undname.obj
 0001:0001f3d0       ?isComArray@DName@@QBEHXZ  100203d0 f i libvcruntimed:undname.obj
 0001:0001f3f0       ?isEmpty@DName@@QBEHXZ     100203f0 f i libvcruntimed:undname.obj
 0001:0001f420       ?isFull@Replicator@@QBEHXZ 10020420 f i libvcruntimed:undname.obj
 0001:0001f450       ?isNoTE@DName@@QBEHXZ      10020450 f i libvcruntimed:undname.obj
 0001:0001f470       ?isPinPtr@DName@@QBEHXZ    10020470 f i libvcruntimed:undname.obj
 0001:0001f490       ?isPtrRef@DName@@QBEHXZ    10020490 f i libvcruntimed:undname.obj
 0001:0001f4b0       ?isUDC@DName@@QBEHXZ       100204b0 f i libvcruntimed:undname.obj
 0001:0001f4f0       ?isUDTThunk@DName@@QBEHXZ  100204f0 f i libvcruntimed:undname.obj
 0001:0001f530       ?isVCallThunk@DName@@QBEHXZ 10020530 f i libvcruntimed:undname.obj
 0001:0001f550       ?isValid@DName@@QBEHXZ     10020550 f i libvcruntimed:undname.obj
 0001:0001f590       ?length@DName@@QBEHXZ      10020590 f i libvcruntimed:undname.obj
 0001:0001f5d0       ?length@DNameStatusNode@@UBEHXZ 100205d0 f i libvcruntimed:undname.obj
 0001:0001f5f0       ?length@charNode@@UBEHXZ   100205f0 f i libvcruntimed:undname.obj
 0001:0001f600       ?length@pDNameNode@@UBEHXZ 10020600 f i libvcruntimed:undname.obj
 0001:0001f630       ?length@pairNode@@UBEHXZ   10020630 f i libvcruntimed:undname.obj
 0001:0001f6a0       ?length@pcharNode@@UBEHXZ  100206a0 f i libvcruntimed:undname.obj
 0001:0001f6c0       ?make@DNameStatusNode@@SAPBV1@W4DNameStatus@@@Z 100206c0 f i libvcruntimed:undname.obj
 0001:0001f6f0       ?parseDecoratedName@UnDecorator@@CA?AVDName@@XZ 100206f0 f   libvcruntimed:undname.obj
 0001:0001f880       ?raw_length@DNameStatusNode@@UBEHXZ 10020880 f i libvcruntimed:undname.obj
 0001:0001f8a0       ?raw_length@charNode@@UBEHXZ 100208a0 f i libvcruntimed:undname.obj
 0001:0001f8c0       ?raw_length@pDNameNode@@UBEHXZ 100208c0 f i libvcruntimed:undname.obj
 0001:0001f8d0       ?raw_length@pairNode@@UBEHXZ 100208d0 f i libvcruntimed:undname.obj
 0001:0001f8f0       ?raw_length@pcharNode@@UBEHXZ 100208f0 f i libvcruntimed:undname.obj
 0001:0001f910       ?setIsArray@DName@@QAEXXZ  10020910 f i libvcruntimed:undname.obj
 0001:0001f930       ?setIsComArray@DName@@QAEXXZ 10020930 f i libvcruntimed:undname.obj
 0001:0001f950       ?setIsNoTE@DName@@QAEXXZ   10020950 f i libvcruntimed:undname.obj
 0001:0001f970       ?setIsPinPtr@DName@@QAEXXZ 10020970 f i libvcruntimed:undname.obj
 0001:0001f990       ?setIsUDC@DName@@QAEXXZ    10020990 f i libvcruntimed:undname.obj
 0001:0001f9c0       ?setIsVCallThunk@DName@@QAEXXZ 100209c0 f i libvcruntimed:undname.obj
 0001:0001f9e0       ?setPtrRef@DName@@QAEAAV1@XZ 100209e0 f i libvcruntimed:undname.obj
 0001:0001fa00       ?status@DName@@QBE?AW4DNameStatus@@XZ 10020a00 f i libvcruntimed:undname.obj
 0001:0001fb00       ___unDName                 10020b00 f   libvcruntimed:undname.obj
 0001:0001fb30       ___unDNameEx               10020b30 f   libvcruntimed:undname.obj
 0001:0001fc00       _unDNameGenerateCHPE       10020c00 f   libvcruntimed:undname.obj
 0001:0001fc60       ??$__crt_interlocked_exchange_pointer@UHINSTANCE__@@PAU1@@@YAPAUHINSTANCE__@@PDSAU0@QAU0@@Z 10020c60 f i libvcruntimed:winapi_downlevel.obj
 0001:0001fc70       ??$__crt_interlocked_exchange_pointer@UHINSTANCE__@@PAX@@YAPAUHINSTANCE__@@PDSAU0@QAX@Z 10020c70 f i libvcruntimed:winapi_downlevel.obj
 0001:0001fc80       ??$__crt_interlocked_exchange_pointer@XPAX@@YAPAXPDSAXQAX@Z 10020c80 f i libvcruntimed:winapi_downlevel.obj
 0001:0001fc90       ??$__crt_interlocked_read_pointer@UHINSTANCE__@@@@YAPAUHINSTANCE__@@PDSAU0@@Z 10020c90 f i libvcruntimed:winapi_downlevel.obj
 0001:0001fcb0       ??$__crt_interlocked_read_pointer@X@@YAPAXPDSAX@Z 10020cb0 f i libvcruntimed:winapi_downlevel.obj
 0001:00020080       ___vcrt_FlsAlloc           10021080 f   libvcruntimed:winapi_downlevel.obj
 0001:000200c0       ___vcrt_FlsFree            100210c0 f   libvcruntimed:winapi_downlevel.obj
 0001:00020100       ___vcrt_FlsGetValue        10021100 f   libvcruntimed:winapi_downlevel.obj
 0001:00020140       ___vcrt_FlsSetValue        10021140 f   libvcruntimed:winapi_downlevel.obj
 0001:00020190       ___vcrt_InitializeCriticalSectionEx 10021190 f   libvcruntimed:winapi_downlevel.obj
 0001:000201e0       __global_unwind2           100211e0 f   libvcruntimed:exsup.obj
 0001:00020246       __local_unwind2            10021246 f   libvcruntimed:exsup.obj
 0001:000202ca       __abnormal_termination     100212ca f   libvcruntimed:exsup.obj
 0001:000202f0       __NLG_Notify1              100212f0 f   libvcruntimed:exsup.obj
 0001:000202fc       __NLG_Notify               100212fc f   libvcruntimed:exsup.obj
 0001:00020313       __NLG_Dispatch2            10021313     libvcruntimed:exsup.obj
 0001:00020313       __NLG_Dispatch             10021313     libvcruntimed:exsup.obj
 0001:0002031b       __NLG_Call                 1002131b f   libvcruntimed:exsup.obj
 0001:0002031d       __NLG_Return2              1002131d     libvcruntimed:exsup.obj
 0001:00020350       __get_unexpected           10021350 f   libvcruntimed:unexpected.obj
 0001:00020370       _set_unexpected            10021370 f   libvcruntimed:unexpected.obj
 0001:000203a0       _unexpected                100213a0 f   libvcruntimed:unexpected.obj
 0001:000203e0       ?GetCurrentState@__FrameHandler3@@SAHPAUEHRegistrationNode@@PAXPBU_s_FuncInfo@@@Z 100213e0 f   libvcruntimed:ehstate.obj
 0001:00020410       ?SetState@__FrameHandler3@@SAXPAUEHRegistrationNode@@PBU_s_FuncInfo@@H@Z 10021410 f   libvcruntimed:ehstate.obj
 0001:00020420       ??$__crt_interlocked_exchange_pointer@$$A6AXXZP6AXXZ@@YAP6AXXZPDS6AXXZQ6AXXZ@Z 10021420 f i libvcruntimed:purevirt.obj
 0001:00020430       ??$__crt_interlocked_read_pointer@$$A6AXXZ@@YAP6AXXZPDS6AXXZ@Z 10021430 f i libvcruntimed:purevirt.obj
 0001:00020450       __get_purecall_handler     10021450 f   libvcruntimed:purevirt.obj
 0001:00020470       __purecall                 10021470 f   libvcruntimed:purevirt.obj
 0001:000204a0       __set_purecall_handler     100214a0 f   libvcruntimed:purevirt.obj
 0001:000204c0       _free                      100214c0 f   libucrtd:free.obj
 0001:000204f0       _malloc                    100214f0 f   libucrtd:malloc.obj
 0001:00020510       ??$?RU?$__crt_report_hook_node@D@@@__crt_internal_free_policy@@QBEXQBU?$__crt_report_hook_node@D@@@Z 10021510 f i libucrtd:dbgrpt.obj
 0001:00020530       ??$?RU?$__crt_report_hook_node@_W@@@__crt_internal_free_policy@@QBEXQBU?$__crt_report_hook_node@_W@@@Z 10021530 f i libucrtd:dbgrpt.obj
 0001:00021320       ??$get_module_file_name@AAPAUHINSTANCE__@@AAY0BAF@DK@?$__crt_char_traits@D@@SAKAAPAUHINSTANCE__@@AAY0BAF@D$$QAK@Z 10022320 f i libucrtd:dbgrpt.obj
 0001:00021340       ??$get_module_file_name@AAPAUHINSTANCE__@@AAY0BAF@_WK@?$__crt_char_traits@_W@@SAKAAPAUHINSTANCE__@@AAY0BAF@_W$$QAK@Z 10022340 f i libucrtd:dbgrpt.obj
 0001:00021360       ??$tcscpy_s@AAY0BAF@DIPBD@?$__crt_char_traits@D@@SAHAAY0BAF@D$$QAI$$QAPBD@Z 10022360 f i libucrtd:dbgrpt.obj
 0001:00021380       ??$tcscpy_s@AAY0BAF@_WIPB_W@?$__crt_char_traits@_W@@SAHAAY0BAF@_W$$QAI$$QAPB_W@Z 10022380 f i libucrtd:dbgrpt.obj
 0001:000213a0       ??$tcslen@AAY0BAF@D@?$__crt_char_traits@D@@SAIAAY0BAF@D@Z 100223a0 f i libucrtd:dbgrpt.obj
 0001:000213c0       ??$tcslen@AAY0BAF@_W@?$__crt_char_traits@_W@@SAIAAY0BAF@_W@Z 100223c0 f i libucrtd:dbgrpt.obj
 0001:000213e0       ??$tcslen@ABQBD@?$__crt_char_traits@D@@SAIABQBD@Z 100223e0 f i libucrtd:dbgrpt.obj
 0001:00021400       ??$tcslen@ABQB_W@?$__crt_char_traits@_W@@SAIABQB_W@Z 10022400 f i libucrtd:dbgrpt.obj
 0001:00021500       ??0?$__crt_unique_heap_ptr@U?$__crt_report_hook_node@D@@U__crt_internal_free_policy@@@@QAE@QAU?$__crt_report_hook_node@D@@@Z 10022500 f i libucrtd:dbgrpt.obj
 0001:00021520       ??0?$__crt_unique_heap_ptr@U?$__crt_report_hook_node@_W@@U__crt_internal_free_policy@@@@QAE@QAU?$__crt_report_hook_node@_W@@@Z 10022520 f i libucrtd:dbgrpt.obj
 0001:00021540       ??1?$__crt_unique_heap_ptr@U?$__crt_report_hook_node@D@@U__crt_internal_free_policy@@@@QAE@XZ 10022540 f i libucrtd:dbgrpt.obj
 0001:00021560       ??1?$__crt_unique_heap_ptr@U?$__crt_report_hook_node@_W@@U__crt_internal_free_policy@@@@QAE@XZ 10022560 f i libucrtd:dbgrpt.obj
 0001:00021580       ??B?$__crt_unique_heap_ptr@U?$__crt_report_hook_node@D@@U__crt_internal_free_policy@@@@QBE_NXZ 10022580 f i libucrtd:dbgrpt.obj
 0001:000215a0       ??B?$__crt_unique_heap_ptr@U?$__crt_report_hook_node@_W@@U__crt_internal_free_policy@@@@QBE_NXZ 100225a0 f i libucrtd:dbgrpt.obj
 0001:00021ae0       ?detach@?$__crt_unique_heap_ptr@U?$__crt_report_hook_node@D@@U__crt_internal_free_policy@@@@QAEPAU?$__crt_report_hook_node@D@@XZ 10022ae0 f i libucrtd:dbgrpt.obj
 0001:00021b10       ?detach@?$__crt_unique_heap_ptr@U?$__crt_report_hook_node@_W@@U__crt_internal_free_policy@@@@QAEPAU?$__crt_report_hook_node@_W@@XZ 10022b10 f i libucrtd:dbgrpt.obj
 0001:00021b40       ?get@?$__crt_unique_heap_ptr@U?$__crt_report_hook_node@D@@U__crt_internal_free_policy@@@@QBEPAU?$__crt_report_hook_node@D@@XZ 10022b40 f i libucrtd:dbgrpt.obj
 0001:00021b60       ?get@?$__crt_unique_heap_ptr@U?$__crt_report_hook_node@_W@@U__crt_internal_free_policy@@@@QBEPAU?$__crt_report_hook_node@_W@@XZ 10022b60 f i libucrtd:dbgrpt.obj
 0001:00021be0       ?is_valid@?$__crt_unique_heap_ptr@U?$__crt_report_hook_node@D@@U__crt_internal_free_policy@@@@QBE_NXZ 10022be0 f i libucrtd:dbgrpt.obj
 0001:00021c10       ?is_valid@?$__crt_unique_heap_ptr@U?$__crt_report_hook_node@_W@@U__crt_internal_free_policy@@@@QBE_NXZ 10022c10 f i libucrtd:dbgrpt.obj
 0001:00021c40       ?release@?$__crt_unique_heap_ptr@U?$__crt_report_hook_node@D@@U__crt_internal_free_policy@@@@QAEXXZ 10022c40 f i libucrtd:dbgrpt.obj
 0001:00021c70       ?release@?$__crt_unique_heap_ptr@U?$__crt_report_hook_node@_W@@U__crt_internal_free_policy@@@@QAEXXZ 10022c70 f i libucrtd:dbgrpt.obj
 0001:00021ca0       __CrtDbgReport             10022ca0 f   libucrtd:dbgrpt.obj
 0001:00021cf0       __CrtDbgReportW            10022cf0 f   libucrtd:dbgrpt.obj
 0001:00021d40       __CrtSetReportHook2        10022d40 f   libucrtd:dbgrpt.obj
 0001:00021d60       __CrtSetReportHookW2       10022d60 f   libucrtd:dbgrpt.obj
 0001:00021d80       ___acrt_MessageWindowA     10022d80 f   libucrtd:dbgrpt.obj
 0001:00021db0       ___acrt_MessageWindowW     10022db0 f   libucrtd:dbgrpt.obj
 0001:00021de0       __invoke_watson_if_error   10022de0 f i libucrtd:dbgrpt.obj
 0001:00021e10       __invoke_watson_if_oneof   10022e10 f i libucrtd:dbgrpt.obj
 0001:00021e50       __snwprintf_s              10022e50 f i libucrtd:dbgrpt.obj
 0001:00021e90       __vsnwprintf_s_l           10022e90 f i libucrtd:dbgrpt.obj
 0001:00022210       _wcscpy_s                  10023210 f   libucrtd:wcscpy_s.obj
 0001:00022f30       ??1?$__crt_simd_cleanup_guard@$00@@QAE@XZ 10023f30 f i libucrtd:strnlen.obj
 0001:00022f40       ??1?$__crt_simd_cleanup_guard@$0A@@@QAE@XZ 10023f40 f i libucrtd:strnlen.obj
 0001:00022f50       ?compare_equals@?$__crt_simd_traits@$00E@@SA?AT__m256i@@T2@0@Z 10023f50 f i libucrtd:strnlen.obj
 0001:00022f90       ?compare_equals@?$__crt_simd_traits@$00G@@SA?AT__m256i@@T2@0@Z 10023f90 f i libucrtd:strnlen.obj
 0001:00022fd0       ?compare_equals@?$__crt_simd_traits@$0A@E@@SA?AT__m128i@@T2@0@Z 10023fd0 f i libucrtd:strnlen.obj
 0001:00023010       ?compare_equals@?$__crt_simd_traits@$0A@G@@SA?AT__m128i@@T2@0@Z 10024010 f i libucrtd:strnlen.obj
 0001:00023050       ?compute_byte_mask@?$__crt_simd_pack_traits@$00@@SAHT__m256i@@@Z 10024050 f i libucrtd:strnlen.obj
 0001:00023080       ?compute_byte_mask@?$__crt_simd_pack_traits@$0A@@@SAHT__m128i@@@Z 10024080 f i libucrtd:strnlen.obj
 0001:000230b0       ?get_zero_pack@?$__crt_simd_pack_traits@$00@@SA?AT__m256i@@XZ 100240b0 f i libucrtd:strnlen.obj
 0001:000230e0       ?get_zero_pack@?$__crt_simd_pack_traits@$0A@@@SA?AT__m128i@@XZ 100240e0 f i libucrtd:strnlen.obj
 0001:00023110       _strnlen                   10024110 f   libucrtd:strnlen.obj
 0001:00023130       _wcslen                    10024130 f   libucrtd:strnlen.obj
 0001:00023150       _wcsnlen                   10024150 f   libucrtd:strnlen.obj
 0001:00023170       ??$?0ABV?$stream_output_adapter@D@__crt_stdio_output@@AB_KABQBDABQAU__crt_locale_pointers@@ABQAD@?$format_validation_base@DV?$stream_output_adapter@D@__crt_stdio_output@@@__crt_stdio_output@@IAE@ABV?$stream_output_adapter@D@1@AB_KABQBDABQAU__crt_locale_pointers@@ABQAD@Z 10024170 f i libucrtd:output.obj
 0001:000231a0       ??$?0ABV?$stream_output_adapter@D@__crt_stdio_output@@AB_KABQBDABQAU__crt_locale_pointers@@ABQAD@?$positional_parameter_base@DV?$stream_output_adapter@D@__crt_stdio_output@@@__crt_stdio_output@@IAE@ABV?$stream_output_adapter@D@1@AB_KABQBDABQAU__crt_locale_pointers@@ABQAD@Z 100241a0 f i libucrtd:output.obj
 0001:00023220       ??$?0ABV?$stream_output_adapter@D@__crt_stdio_output@@AB_KABQBDABQAU__crt_locale_pointers@@ABQAD@?$standard_base@DV?$stream_output_adapter@D@__crt_stdio_output@@@__crt_stdio_output@@IAE@ABV?$stream_output_adapter@D@1@AB_KABQBDABQAU__crt_locale_pointers@@ABQAD@Z 10024220 f i libucrtd:output.obj
 0001:00023270       ??$?0ABV?$stream_output_adapter@_W@__crt_stdio_output@@AB_KABQB_WABQAU__crt_locale_pointers@@ABQAD@?$format_validation_base@_WV?$stream_output_adapter@_W@__crt_stdio_output@@@__crt_stdio_output@@IAE@ABV?$stream_output_adapter@_W@1@AB_KABQB_WABQAU__crt_locale_pointers@@ABQAD@Z 10024270 f i libucrtd:output.obj
 0001:000232a0       ??$?0ABV?$stream_output_adapter@_W@__crt_stdio_output@@AB_KABQB_WABQAU__crt_locale_pointers@@ABQAD@?$positional_parameter_base@_WV?$stream_output_adapter@_W@__crt_stdio_output@@@__crt_stdio_output@@IAE@ABV?$stream_output_adapter@_W@1@AB_KABQB_WABQAU__crt_locale_pointers@@ABQAD@Z 100242a0 f i libucrtd:output.obj
 0001:00023320       ??$?0ABV?$stream_output_adapter@_W@__crt_stdio_output@@AB_KABQB_WABQAU__crt_locale_pointers@@ABQAD@?$standard_base@_WV?$stream_output_adapter@_W@__crt_stdio_output@@@__crt_stdio_output@@IAE@ABV?$stream_output_adapter@_W@1@AB_KABQB_WABQAU__crt_locale_pointers@@ABQAD@Z 10024320 f i libucrtd:output.obj
 0001:00023370       ??$?0ABV?$string_output_adapter@D@__crt_stdio_output@@AB_KABQBDABQAU__crt_locale_pointers@@ABQAD@?$format_validation_base@DV?$string_output_adapter@D@__crt_stdio_output@@@__crt_stdio_output@@IAE@ABV?$string_output_adapter@D@1@AB_KABQBDABQAU__crt_locale_pointers@@ABQAD@Z 10024370 f i libucrtd:output.obj
 0001:000233a0       ??$?0ABV?$string_output_adapter@D@__crt_stdio_output@@AB_KABQBDABQAU__crt_locale_pointers@@ABQAD@?$positional_parameter_base@DV?$string_output_adapter@D@__crt_stdio_output@@@__crt_stdio_output@@IAE@ABV?$string_output_adapter@D@1@AB_KABQBDABQAU__crt_locale_pointers@@ABQAD@Z 100243a0 f i libucrtd:output.obj
 0001:00023420       ??$?0ABV?$string_output_adapter@D@__crt_stdio_output@@AB_KABQBDABQAU__crt_locale_pointers@@ABQAD@?$standard_base@DV?$string_output_adapter@D@__crt_stdio_output@@@__crt_stdio_output@@IAE@ABV?$string_output_adapter@D@1@AB_KABQBDABQAU__crt_locale_pointers@@ABQAD@Z 10024420 f i libucrtd:output.obj
 0001:00023470       ??$?0ABV?$string_output_adapter@_W@__crt_stdio_output@@AB_KABQB_WABQAU__crt_locale_pointers@@ABQAD@?$format_validation_base@_WV?$string_output_adapter@_W@__crt_stdio_output@@@__crt_stdio_output@@IAE@ABV?$string_output_adapter@_W@1@AB_KABQB_WABQAU__crt_locale_pointers@@ABQAD@Z 10024470 f i libucrtd:output.obj
 0001:000234a0       ??$?0ABV?$string_output_adapter@_W@__crt_stdio_output@@AB_KABQB_WABQAU__crt_locale_pointers@@ABQAD@?$positional_parameter_base@_WV?$string_output_adapter@_W@__crt_stdio_output@@@__crt_stdio_output@@IAE@ABV?$string_output_adapter@_W@1@AB_KABQB_WABQAU__crt_locale_pointers@@ABQAD@Z 100244a0 f i libucrtd:output.obj
 0001:00023520       ??$?0ABV?$string_output_adapter@_W@__crt_stdio_output@@AB_KABQB_WABQAU__crt_locale_pointers@@ABQAD@?$standard_base@_WV?$string_output_adapter@_W@__crt_stdio_output@@@__crt_stdio_output@@IAE@ABV?$string_output_adapter@_W@1@AB_KABQB_WABQAU__crt_locale_pointers@@ABQAD@Z 10024520 f i libucrtd:output.obj
 0001:00023a50       ??$__crt_interlocked_read@J@@YAJPDJ@Z 10024a50 f i libucrtd:output.obj
 0001:000267f0       ??$count@D@formatting_buffer@__crt_stdio_output@@QBEIXZ 100277f0 f i libucrtd:output.obj
 0001:00026830       ??$count@_W@formatting_buffer@__crt_stdio_output@@QBEIXZ 10027830 f i libucrtd:output.obj
 0001:00026870       ??$data@D@formatting_buffer@__crt_stdio_output@@QAEPADXZ 10027870 f i libucrtd:output.obj
 0001:000268b0       ??$data@_W@formatting_buffer@__crt_stdio_output@@QAEPA_WXZ 100278b0 f i libucrtd:output.obj
 0001:000268f0       ??$ensure_buffer_is_big_enough@D@formatting_buffer@__crt_stdio_output@@QAE_NI@Z 100278f0 f i libucrtd:output.obj
 0001:000269d0       ??$ensure_buffer_is_big_enough@_W@formatting_buffer@__crt_stdio_output@@QAE_NI@Z 100279d0 f i libucrtd:output.obj
 0001:00026ac0       ??$extract_argument_from_va_list@C_J@?$positional_parameter_base@DV?$stream_output_adapter@D@__crt_stdio_output@@@__crt_stdio_output@@IAE_NAA_J@Z 10027ac0 f i libucrtd:output.obj
 0001:00026c00       ??$extract_argument_from_va_list@C_J@?$positional_parameter_base@DV?$string_output_adapter@D@__crt_stdio_output@@@__crt_stdio_output@@IAE_NAA_J@Z 10027c00 f i libucrtd:output.obj
 0001:00026d40       ??$extract_argument_from_va_list@C_J@?$positional_parameter_base@_WV?$stream_output_adapter@_W@__crt_stdio_output@@@__crt_stdio_output@@IAE_NAA_J@Z 10027d40 f i libucrtd:output.obj
 0001:00026e80       ??$extract_argument_from_va_list@C_J@?$positional_parameter_base@_WV?$string_output_adapter@_W@__crt_stdio_output@@@__crt_stdio_output@@IAE_NAA_J@Z 10027e80 f i libucrtd:output.obj
 0001:00026fc0       ??$extract_argument_from_va_list@C_J@?$standard_base@DV?$stream_output_adapter@D@__crt_stdio_output@@@__crt_stdio_output@@IAE_NAA_J@Z 10027fc0 f i libucrtd:output.obj
 0001:00026ff0       ??$extract_argument_from_va_list@C_J@?$standard_base@DV?$string_output_adapter@D@__crt_stdio_output@@@__crt_stdio_output@@IAE_NAA_J@Z 10027ff0 f i libucrtd:output.obj
 0001:00027020       ??$extract_argument_from_va_list@C_J@?$standard_base@_WV?$stream_output_adapter@_W@__crt_stdio_output@@@__crt_stdio_output@@IAE_NAA_J@Z 10028020 f i libucrtd:output.obj
 0001:00027050       ??$extract_argument_from_va_list@C_J@?$standard_base@_WV?$string_output_adapter@_W@__crt_stdio_output@@@__crt_stdio_output@@IAE_NAA_J@Z 10028050 f i libucrtd:output.obj
 0001:00027080       ??$extract_argument_from_va_list@E_J@?$positional_parameter_base@DV?$stream_output_adapter@D@__crt_stdio_output@@@__crt_stdio_output@@IAE_NAA_J@Z 10028080 f i libucrtd:output.obj
 0001:000271c0       ??$extract_argument_from_va_list@E_J@?$positional_parameter_base@DV?$string_output_adapter@D@__crt_stdio_output@@@__crt_stdio_output@@IAE_NAA_J@Z 100281c0 f i libucrtd:output.obj
 0001:00027300       ??$extract_argument_from_va_list@E_J@?$positional_parameter_base@_WV?$stream_output_adapter@_W@__crt_stdio_output@@@__crt_stdio_output@@IAE_NAA_J@Z 10028300 f i libucrtd:output.obj
 0001:00027440       ??$extract_argument_from_va_list@E_J@?$positional_parameter_base@_WV?$string_output_adapter@_W@__crt_stdio_output@@@__crt_stdio_output@@IAE_NAA_J@Z 10028440 f i libucrtd:output.obj
 0001:00027580       ??$extract_argument_from_va_list@E_J@?$standard_base@DV?$stream_output_adapter@D@__crt_stdio_output@@@__crt_stdio_output@@IAE_NAA_J@Z 10028580 f i libucrtd:output.obj
 0001:000275b0       ??$extract_argument_from_va_list@E_J@?$standard_base@DV?$string_output_adapter@D@__crt_stdio_output@@@__crt_stdio_output@@IAE_NAA_J@Z 100285b0 f i libucrtd:output.obj
 0001:000275e0       ??$extract_argument_from_va_list@E_J@?$standard_base@_WV?$stream_output_adapter@_W@__crt_stdio_output@@@__crt_stdio_output@@IAE_NAA_J@Z 100285e0 f i libucrtd:output.obj
 0001:00027610       ??$extract_argument_from_va_list@E_J@?$standard_base@_WV?$string_output_adapter@_W@__crt_stdio_output@@@__crt_stdio_output@@IAE_NAA_J@Z 10028610 f i libucrtd:output.obj
 0001:00027640       ??$extract_argument_from_va_list@F_J@?$positional_parameter_base@DV?$stream_output_adapter@D@__crt_stdio_output@@@__crt_stdio_output@@IAE_NAA_J@Z 10028640 f i libucrtd:output.obj
 0001:00027770       ??$extract_argument_from_va_list@F_J@?$positional_parameter_base@DV?$string_output_adapter@D@__crt_stdio_output@@@__crt_stdio_output@@IAE_NAA_J@Z 10028770 f i libucrtd:output.obj
 0001:000278a0       ??$extract_argument_from_va_list@F_J@?$positional_parameter_base@_WV?$stream_output_adapter@_W@__crt_stdio_output@@@__crt_stdio_output@@IAE_NAA_J@Z 100288a0 f i libucrtd:output.obj
 0001:000279d0       ??$extract_argument_from_va_list@F_J@?$positional_parameter_base@_WV?$string_output_adapter@_W@__crt_stdio_output@@@__crt_stdio_output@@IAE_NAA_J@Z 100289d0 f i libucrtd:output.obj
 0001:00027b00       ??$extract_argument_from_va_list@F_J@?$standard_base@DV?$stream_output_adapter@D@__crt_stdio_output@@@__crt_stdio_output@@IAE_NAA_J@Z 10028b00 f i libucrtd:output.obj
 0001:00027b30       ??$extract_argument_from_va_list@F_J@?$standard_base@DV?$string_output_adapter@D@__crt_stdio_output@@@__crt_stdio_output@@IAE_NAA_J@Z 10028b30 f i libucrtd:output.obj
 0001:00027b60       ??$extract_argument_from_va_list@F_J@?$standard_base@_WV?$stream_output_adapter@_W@__crt_stdio_output@@@__crt_stdio_output@@IAE_NAA_J@Z 10028b60 f i libucrtd:output.obj
 0001:00027b90       ??$extract_argument_from_va_list@F_J@?$standard_base@_WV?$string_output_adapter@_W@__crt_stdio_output@@@__crt_stdio_output@@IAE_NAA_J@Z 10028b90 f i libucrtd:output.obj
 0001:00027bc0       ??$extract_argument_from_va_list@GD@?$positional_parameter_base@DV?$stream_output_adapter@D@__crt_stdio_output@@@__crt_stdio_output@@IAE_NAAD@Z 10028bc0 f i libucrtd:output.obj
 0001:00027cf0       ??$extract_argument_from_va_list@GD@?$positional_parameter_base@DV?$string_output_adapter@D@__crt_stdio_output@@@__crt_stdio_output@@IAE_NAAD@Z 10028cf0 f i libucrtd:output.obj
 0001:00027e20       ??$extract_argument_from_va_list@GD@?$standard_base@DV?$stream_output_adapter@D@__crt_stdio_output@@@__crt_stdio_output@@IAE_NAAD@Z 10028e20 f i libucrtd:output.obj
 0001:00027e50       ??$extract_argument_from_va_list@GD@?$standard_base@DV?$string_output_adapter@D@__crt_stdio_output@@@__crt_stdio_output@@IAE_NAAD@Z 10028e50 f i libucrtd:output.obj
 0001:00027e80       ??$extract_argument_from_va_list@G_J@?$positional_parameter_base@DV?$stream_output_adapter@D@__crt_stdio_output@@@__crt_stdio_output@@IAE_NAA_J@Z 10028e80 f i libucrtd:output.obj
 0001:00027fc0       ??$extract_argument_from_va_list@G_J@?$positional_parameter_base@DV?$string_output_adapter@D@__crt_stdio_output@@@__crt_stdio_output@@IAE_NAA_J@Z 10028fc0 f i libucrtd:output.obj
 0001:00028100       ??$extract_argument_from_va_list@G_J@?$positional_parameter_base@_WV?$stream_output_adapter@_W@__crt_stdio_output@@@__crt_stdio_output@@IAE_NAA_J@Z 10029100 f i libucrtd:output.obj
 0001:00028240       ??$extract_argument_from_va_list@G_J@?$positional_parameter_base@_WV?$string_output_adapter@_W@__crt_stdio_output@@@__crt_stdio_output@@IAE_NAA_J@Z 10029240 f i libucrtd:output.obj
 0001:00028380       ??$extract_argument_from_va_list@G_J@?$standard_base@DV?$stream_output_adapter@D@__crt_stdio_output@@@__crt_stdio_output@@IAE_NAA_J@Z 10029380 f i libucrtd:output.obj
 0001:000283b0       ??$extract_argument_from_va_list@G_J@?$standard_base@DV?$string_output_adapter@D@__crt_stdio_output@@@__crt_stdio_output@@IAE_NAA_J@Z 100293b0 f i libucrtd:output.obj
 0001:000283e0       ??$extract_argument_from_va_list@G_J@?$standard_base@_WV?$stream_output_adapter@_W@__crt_stdio_output@@@__crt_stdio_output@@IAE_NAA_J@Z 100293e0 f i libucrtd:output.obj
 0001:00028410       ??$extract_argument_from_va_list@G_J@?$standard_base@_WV?$string_output_adapter@_W@__crt_stdio_output@@@__crt_stdio_output@@IAE_NAA_J@Z 10029410 f i libucrtd:output.obj
 0001:00028440       ??$extract_argument_from_va_list@H_J@?$positional_parameter_base@DV?$stream_output_adapter@D@__crt_stdio_output@@@__crt_stdio_output@@IAE_NAA_J@Z 10029440 f i libucrtd:output.obj
 0001:00028570       ??$extract_argument_from_va_list@H_J@?$positional_parameter_base@DV?$string_output_adapter@D@__crt_stdio_output@@@__crt_stdio_output@@IAE_NAA_J@Z 10029570 f i libucrtd:output.obj
 0001:000286a0       ??$extract_argument_from_va_list@H_J@?$positional_parameter_base@_WV?$stream_output_adapter@_W@__crt_stdio_output@@@__crt_stdio_output@@IAE_NAA_J@Z 100296a0 f i libucrtd:output.obj
 0001:000287d0       ??$extract_argument_from_va_list@H_J@?$positional_parameter_base@_WV?$string_output_adapter@_W@__crt_stdio_output@@@__crt_stdio_output@@IAE_NAA_J@Z 100297d0 f i libucrtd:output.obj
 0001:00028900       ??$extract_argument_from_va_list@H_J@?$standard_base@DV?$stream_output_adapter@D@__crt_stdio_output@@@__crt_stdio_output@@IAE_NAA_J@Z 10029900 f i libucrtd:output.obj
 0001:00028930       ??$extract_argument_from_va_list@H_J@?$standard_base@DV?$string_output_adapter@D@__crt_stdio_output@@@__crt_stdio_output@@IAE_NAA_J@Z 10029930 f i libucrtd:output.obj
 0001:00028960       ??$extract_argument_from_va_list@H_J@?$standard_base@_WV?$stream_output_adapter@_W@__crt_stdio_output@@@__crt_stdio_output@@IAE_NAA_J@Z 10029960 f i libucrtd:output.obj
 0001:00028990       ??$extract_argument_from_va_list@H_J@?$standard_base@_WV?$string_output_adapter@_W@__crt_stdio_output@@@__crt_stdio_output@@IAE_NAA_J@Z 10029990 f i libucrtd:output.obj
 0001:000289c0       ??$extract_argument_from_va_list@I_J@?$positional_parameter_base@DV?$stream_output_adapter@D@__crt_stdio_output@@@__crt_stdio_output@@IAE_NAA_J@Z 100299c0 f i libucrtd:output.obj
 0001:00028af0       ??$extract_argument_from_va_list@I_J@?$positional_parameter_base@DV?$string_output_adapter@D@__crt_stdio_output@@@__crt_stdio_output@@IAE_NAA_J@Z 10029af0 f i libucrtd:output.obj
 0001:00028c20       ??$extract_argument_from_va_list@I_J@?$positional_parameter_base@_WV?$stream_output_adapter@_W@__crt_stdio_output@@@__crt_stdio_output@@IAE_NAA_J@Z 10029c20 f i libucrtd:output.obj
 0001:00028d50       ??$extract_argument_from_va_list@I_J@?$positional_parameter_base@_WV?$string_output_adapter@_W@__crt_stdio_output@@@__crt_stdio_output@@IAE_NAA_J@Z 10029d50 f i libucrtd:output.obj
 0001:00028e80       ??$extract_argument_from_va_list@I_J@?$standard_base@DV?$stream_output_adapter@D@__crt_stdio_output@@@__crt_stdio_output@@IAE_NAA_J@Z 10029e80 f i libucrtd:output.obj
 0001:00028eb0       ??$extract_argument_from_va_list@I_J@?$standard_base@DV?$string_output_adapter@D@__crt_stdio_output@@@__crt_stdio_output@@IAE_NAA_J@Z 10029eb0 f i libucrtd:output.obj
 0001:00028ee0       ??$extract_argument_from_va_list@I_J@?$standard_base@_WV?$stream_output_adapter@_W@__crt_stdio_output@@@__crt_stdio_output@@IAE_NAA_J@Z 10029ee0 f i libucrtd:output.obj
 0001:00028f10       ??$extract_argument_from_va_list@I_J@?$standard_base@_WV?$string_output_adapter@_W@__crt_stdio_output@@@__crt_stdio_output@@IAE_NAA_J@Z 10029f10 f i libucrtd:output.obj
 0001:00028f40       ??$extract_argument_from_va_list@PADPAD@?$positional_parameter_base@DV?$stream_output_adapter@D@__crt_stdio_output@@@__crt_stdio_output@@IAE_NAAPAD@Z 10029f40 f i libucrtd:output.obj
 0001:00029070       ??$extract_argument_from_va_list@PADPAD@?$positional_parameter_base@DV?$string_output_adapter@D@__crt_stdio_output@@@__crt_stdio_output@@IAE_NAAPAD@Z 1002a070 f i libucrtd:output.obj
 0001:000291a0       ??$extract_argument_from_va_list@PADPAD@?$positional_parameter_base@_WV?$stream_output_adapter@_W@__crt_stdio_output@@@__crt_stdio_output@@IAE_NAAPAD@Z 1002a1a0 f i libucrtd:output.obj
 0001:000292d0       ??$extract_argument_from_va_list@PADPAD@?$positional_parameter_base@_WV?$string_output_adapter@_W@__crt_stdio_output@@@__crt_stdio_output@@IAE_NAAPAD@Z 1002a2d0 f i libucrtd:output.obj
 0001:00029400       ??$extract_argument_from_va_list@PADPAD@?$standard_base@DV?$stream_output_adapter@D@__crt_stdio_output@@@__crt_stdio_output@@IAE_NAAPAD@Z 1002a400 f i libucrtd:output.obj
 0001:00029430       ??$extract_argument_from_va_list@PADPAD@?$standard_base@DV?$string_output_adapter@D@__crt_stdio_output@@@__crt_stdio_output@@IAE_NAAPAD@Z 1002a430 f i libucrtd:output.obj
 0001:00029460       ??$extract_argument_from_va_list@PADPAD@?$standard_base@_WV?$stream_output_adapter@_W@__crt_stdio_output@@@__crt_stdio_output@@IAE_NAAPAD@Z 1002a460 f i libucrtd:output.obj
 0001:00029490       ??$extract_argument_from_va_list@PADPAD@?$standard_base@_WV?$string_output_adapter@_W@__crt_stdio_output@@@__crt_stdio_output@@IAE_NAAPAD@Z 1002a490 f i libucrtd:output.obj
 0001:000294c0       ??$extract_argument_from_va_list@PAUansi_string@?1??type_case_Z@?$output_processor@DV?$stream_output_adapter@D@__crt_stdio_output@@V?$format_validation_base@DV?$stream_output_adapter@D@__crt_stdio_output@@@2@@__crt_stdio_output@@AAE_NXZ@PAU1?1??234@AAE_NXZ@@?$standard_base@DV?$stream_output_adapter@D@__crt_stdio_output@@@__crt_stdio_output@@IAE_NAAPAUansi_string@?1??type_case_Z@?$output_processor@DV?$stream_output_adapter@D@__crt_stdio_output@@V?$format_validation_base@DV?$stream_output_adapter@D@__crt_stdio_output@@@2@@1@AAE_NXZ@@Z 1002a4c0 f i libucrtd:output.obj
 0001:000294f0       ??$extract_argument_from_va_list@PAUansi_string@?1??type_case_Z@?$output_processor@DV?$stream_output_adapter@D@__crt_stdio_output@@V?$positional_parameter_base@DV?$stream_output_adapter@D@__crt_stdio_output@@@2@@__crt_stdio_output@@AAE_NXZ@PAU1?1??234@AAE_NXZ@@?$positional_parameter_base@DV?$stream_output_adapter@D@__crt_stdio_output@@@__crt_stdio_output@@IAE_NAAPAUansi_string@?1??type_case_Z@?$output_processor@DV?$stream_output_adapter@D@__crt_stdio_output@@V?$positional_parameter_base@DV?$stream_output_adapter@D@__crt_stdio_output@@@2@@1@AAE_NXZ@@Z 1002a4f0 f i libucrtd:output.obj
 0001:00029620       ??$extract_argument_from_va_list@PAUansi_string@?1??type_case_Z@?$output_processor@DV?$stream_output_adapter@D@__crt_stdio_output@@V?$positional_parameter_base@DV?$stream_output_adapter@D@__crt_stdio_output@@@2@@__crt_stdio_output@@AAE_NXZ@PAU1?1??234@AAE_NXZ@@?$standard_base@DV?$stream_output_adapter@D@__crt_stdio_output@@@__crt_stdio_output@@IAE_NAAPAUansi_string@?1??type_case_Z@?$output_processor@DV?$stream_output_adapter@D@__crt_stdio_output@@V?$positional_parameter_base@DV?$stream_output_adapter@D@__crt_stdio_output@@@2@@1@AAE_NXZ@@Z 1002a620 f i libucrtd:output.obj
 0001:00029650       ??$extract_argument_from_va_list@PAUansi_string@?1??type_case_Z@?$output_processor@DV?$stream_output_adapter@D@__crt_stdio_output@@V?$standard_base@DV?$stream_output_adapter@D@__crt_stdio_output@@@2@@__crt_stdio_output@@AAE_NXZ@PAU1?1??234@AAE_NXZ@@?$standard_base@DV?$stream_output_adapter@D@__crt_stdio_output@@@__crt_stdio_output@@IAE_NAAPAUansi_string@?1??type_case_Z@?$output_processor@DV?$stream_output_adapter@D@__crt_stdio_output@@V?$standard_base@DV?$stream_output_adapter@D@__crt_stdio_output@@@2@@1@AAE_NXZ@@Z 1002a650 f i libucrtd:output.obj
 0001:00029680       ??$extract_argument_from_va_list@PAUansi_string@?1??type_case_Z@?$output_processor@DV?$string_output_adapter@D@__crt_stdio_output@@V?$format_validation_base@DV?$string_output_adapter@D@__crt_stdio_output@@@2@@__crt_stdio_output@@AAE_NXZ@PAU1?1??234@AAE_NXZ@@?$standard_base@DV?$string_output_adapter@D@__crt_stdio_output@@@__crt_stdio_output@@IAE_NAAPAUansi_string@?1??type_case_Z@?$output_processor@DV?$string_output_adapter@D@__crt_stdio_output@@V?$format_validation_base@DV?$string_output_adapter@D@__crt_stdio_output@@@2@@1@AAE_NXZ@@Z 1002a680 f i libucrtd:output.obj
 0001:000296b0       ??$extract_argument_from_va_list@PAUansi_string@?1??type_case_Z@?$output_processor@DV?$string_output_adapter@D@__crt_stdio_output@@V?$positional_parameter_base@DV?$string_output_adapter@D@__crt_stdio_output@@@2@@__crt_stdio_output@@AAE_NXZ@PAU1?1??234@AAE_NXZ@@?$positional_parameter_base@DV?$string_output_adapter@D@__crt_stdio_output@@@__crt_stdio_output@@IAE_NAAPAUansi_string@?1??type_case_Z@?$output_processor@DV?$string_output_adapter@D@__crt_stdio_output@@V?$positional_parameter_base@DV?$string_output_adapter@D@__crt_stdio_output@@@2@@1@AAE_NXZ@@Z 1002a6b0 f i libucrtd:output.obj
 0001:000297e0       ??$extract_argument_from_va_list@PAUansi_string@?1??type_case_Z@?$output_processor@DV?$string_output_adapter@D@__crt_stdio_output@@V?$positional_parameter_base@DV?$string_output_adapter@D@__crt_stdio_output@@@2@@__crt_stdio_output@@AAE_NXZ@PAU1?1??234@AAE_NXZ@@?$standard_base@DV?$string_output_adapter@D@__crt_stdio_output@@@__crt_stdio_output@@IAE_NAAPAUansi_string@?1??type_case_Z@?$output_processor@DV?$string_output_adapter@D@__crt_stdio_output@@V?$positional_parameter_base@DV?$string_output_adapter@D@__crt_stdio_output@@@2@@1@AAE_NXZ@@Z 1002a7e0 f i libucrtd:output.obj
 0001:00029810       ??$extract_argument_from_va_list@PAUansi_string@?1??type_case_Z@?$output_processor@DV?$string_output_adapter@D@__crt_stdio_output@@V?$standard_base@DV?$string_output_adapter@D@__crt_stdio_output@@@2@@__crt_stdio_output@@AAE_NXZ@PAU1?1??234@AAE_NXZ@@?$standard_base@DV?$string_output_adapter@D@__crt_stdio_output@@@__crt_stdio_output@@IAE_NAAPAUansi_string@?1??type_case_Z@?$output_processor@DV?$string_output_adapter@D@__crt_stdio_output@@V?$standard_base@DV?$string_output_adapter@D@__crt_stdio_output@@@2@@1@AAE_NXZ@@Z 1002a810 f i libucrtd:output.obj
 0001:00029840       ??$extract_argument_from_va_list@PAUansi_string@?1??type_case_Z@?$output_processor@_WV?$stream_output_adapter@_W@__crt_stdio_output@@V?$format_validation_base@_WV?$stream_output_adapter@_W@__crt_stdio_output@@@2@@__crt_stdio_output@@AAE_NXZ@PAU1?1??234@AAE_NXZ@@?$standard_base@_WV?$stream_output_adapter@_W@__crt_stdio_output@@@__crt_stdio_output@@IAE_NAAPAUansi_string@?1??type_case_Z@?$output_processor@_WV?$stream_output_adapter@_W@__crt_stdio_output@@V?$format_validation_base@_WV?$stream_output_adapter@_W@__crt_stdio_output@@@2@@1@AAE_NXZ@@Z 1002a840 f i libucrtd:output.obj
 0001:00029870       ??$extract_argument_from_va_list@PAUansi_string@?1??type_case_Z@?$output_processor@_WV?$stream_output_adapter@_W@__crt_stdio_output@@V?$positional_parameter_base@_WV?$stream_output_adapter@_W@__crt_stdio_output@@@2@@__crt_stdio_output@@AAE_NXZ@PAU1?1??234@AAE_NXZ@@?$positional_parameter_base@_WV?$stream_output_adapter@_W@__crt_stdio_output@@@__crt_stdio_output@@IAE_NAAPAUansi_string@?1??type_case_Z@?$output_processor@_WV?$stream_output_adapter@_W@__crt_stdio_output@@V?$positional_parameter_base@_WV?$stream_output_adapter@_W@__crt_stdio_output@@@2@@1@AAE_NXZ@@Z 1002a870 f i libucrtd:output.obj
 0001:000299a0       ??$extract_argument_from_va_list@PAUansi_string@?1??type_case_Z@?$output_processor@_WV?$stream_output_adapter@_W@__crt_stdio_output@@V?$positional_parameter_base@_WV?$stream_output_adapter@_W@__crt_stdio_output@@@2@@__crt_stdio_output@@AAE_NXZ@PAU1?1??234@AAE_NXZ@@?$standard_base@_WV?$stream_output_adapter@_W@__crt_stdio_output@@@__crt_stdio_output@@IAE_NAAPAUansi_string@?1??type_case_Z@?$output_processor@_WV?$stream_output_adapter@_W@__crt_stdio_output@@V?$positional_parameter_base@_WV?$stream_output_adapter@_W@__crt_stdio_output@@@2@@1@AAE_NXZ@@Z 1002a9a0 f i libucrtd:output.obj
 0001:000299d0       ??$extract_argument_from_va_list@PAUansi_string@?1??type_case_Z@?$output_processor@_WV?$stream_output_adapter@_W@__crt_stdio_output@@V?$standard_base@_WV?$stream_output_adapter@_W@__crt_stdio_output@@@2@@__crt_stdio_output@@AAE_NXZ@PAU1?1??234@AAE_NXZ@@?$standard_base@_WV?$stream_output_adapter@_W@__crt_stdio_output@@@__crt_stdio_output@@IAE_NAAPAUansi_string@?1??type_case_Z@?$output_processor@_WV?$stream_output_adapter@_W@__crt_stdio_output@@V?$standard_base@_WV?$stream_output_adapter@_W@__crt_stdio_output@@@2@@1@AAE_NXZ@@Z 1002a9d0 f i libucrtd:output.obj
 0001:00029a00       ??$extract_argument_from_va_list@PAUansi_string@?1??type_case_Z@?$output_processor@_WV?$string_output_adapter@_W@__crt_stdio_output@@V?$format_validation_base@_WV?$string_output_adapter@_W@__crt_stdio_output@@@2@@__crt_stdio_output@@AAE_NXZ@PAU1?1??234@AAE_NXZ@@?$standard_base@_WV?$string_output_adapter@_W@__crt_stdio_output@@@__crt_stdio_output@@IAE_NAAPAUansi_string@?1??type_case_Z@?$output_processor@_WV?$string_output_adapter@_W@__crt_stdio_output@@V?$format_validation_base@_WV?$string_output_adapter@_W@__crt_stdio_output@@@2@@1@AAE_NXZ@@Z 1002aa00 f i libucrtd:output.obj
 0001:00029a30       ??$extract_argument_from_va_list@PAUansi_string@?1??type_case_Z@?$output_processor@_WV?$string_output_adapter@_W@__crt_stdio_output@@V?$positional_parameter_base@_WV?$string_output_adapter@_W@__crt_stdio_output@@@2@@__crt_stdio_output@@AAE_NXZ@PAU1?1??234@AAE_NXZ@@?$positional_parameter_base@_WV?$string_output_adapter@_W@__crt_stdio_output@@@__crt_stdio_output@@IAE_NAAPAUansi_string@?1??type_case_Z@?$output_processor@_WV?$string_output_adapter@_W@__crt_stdio_output@@V?$positional_parameter_base@_WV?$string_output_adapter@_W@__crt_stdio_output@@@2@@1@AAE_NXZ@@Z 1002aa30 f i libucrtd:output.obj
 0001:00029b60       ??$extract_argument_from_va_list@PAUansi_string@?1??type_case_Z@?$output_processor@_WV?$string_output_adapter@_W@__crt_stdio_output@@V?$positional_parameter_base@_WV?$string_output_adapter@_W@__crt_stdio_output@@@2@@__crt_stdio_output@@AAE_NXZ@PAU1?1??234@AAE_NXZ@@?$standard_base@_WV?$string_output_adapter@_W@__crt_stdio_output@@@__crt_stdio_output@@IAE_NAAPAUansi_string@?1??type_case_Z@?$output_processor@_WV?$string_output_adapter@_W@__crt_stdio_output@@V?$positional_parameter_base@_WV?$string_output_adapter@_W@__crt_stdio_output@@@2@@1@AAE_NXZ@@Z 1002ab60 f i libucrtd:output.obj
 0001:00029b90       ??$extract_argument_from_va_list@PAUansi_string@?1??type_case_Z@?$output_processor@_WV?$string_output_adapter@_W@__crt_stdio_output@@V?$standard_base@_WV?$string_output_adapter@_W@__crt_stdio_output@@@2@@__crt_stdio_output@@AAE_NXZ@PAU1?1??234@AAE_NXZ@@?$standard_base@_WV?$string_output_adapter@_W@__crt_stdio_output@@@__crt_stdio_output@@IAE_NAAPAUansi_string@?1??type_case_Z@?$output_processor@_WV?$string_output_adapter@_W@__crt_stdio_output@@V?$standard_base@_WV?$string_output_adapter@_W@__crt_stdio_output@@@2@@1@AAE_NXZ@@Z 1002ab90 f i libucrtd:output.obj
 0001:00029bc0       ??$extract_argument_from_va_list@PAXPAX@?$positional_parameter_base@DV?$stream_output_adapter@D@__crt_stdio_output@@@__crt_stdio_output@@IAE_NAAPAX@Z 1002abc0 f i libucrtd:output.obj
 0001:00029cf0       ??$extract_argument_from_va_list@PAXPAX@?$positional_parameter_base@DV?$string_output_adapter@D@__crt_stdio_output@@@__crt_stdio_output@@IAE_NAAPAX@Z 1002acf0 f i libucrtd:output.obj
 0001:00029e20       ??$extract_argument_from_va_list@PAXPAX@?$positional_parameter_base@_WV?$stream_output_adapter@_W@__crt_stdio_output@@@__crt_stdio_output@@IAE_NAAPAX@Z 1002ae20 f i libucrtd:output.obj
 0001:00029f50       ??$extract_argument_from_va_list@PAXPAX@?$positional_parameter_base@_WV?$string_output_adapter@_W@__crt_stdio_output@@@__crt_stdio_output@@IAE_NAAPAX@Z 1002af50 f i libucrtd:output.obj
 0001:0002a080       ??$extract_argument_from_va_list@PAXPAX@?$standard_base@DV?$stream_output_adapter@D@__crt_stdio_output@@@__crt_stdio_output@@IAE_NAAPAX@Z 1002b080 f i libucrtd:output.obj
 0001:0002a0b0       ??$extract_argument_from_va_list@PAXPAX@?$standard_base@DV?$string_output_adapter@D@__crt_stdio_output@@@__crt_stdio_output@@IAE_NAAPAX@Z 1002b0b0 f i libucrtd:output.obj
 0001:0002a0e0       ??$extract_argument_from_va_list@PAXPAX@?$standard_base@_WV?$stream_output_adapter@_W@__crt_stdio_output@@@__crt_stdio_output@@IAE_NAAPAX@Z 1002b0e0 f i libucrtd:output.obj
 0001:0002a110       ??$extract_argument_from_va_list@PAXPAX@?$standard_base@_WV?$string_output_adapter@_W@__crt_stdio_output@@@__crt_stdio_output@@IAE_NAAPAX@Z 1002b110 f i libucrtd:output.obj
 0001:0002a140       ??$extract_argument_from_va_list@U_CRT_DOUBLE@@U1@@?$positional_parameter_base@DV?$stream_output_adapter@D@__crt_stdio_output@@@__crt_stdio_output@@IAE_NAAU_CRT_DOUBLE@@@Z 1002b140 f i libucrtd:output.obj
 0001:0002a2a0       ??$extract_argument_from_va_list@U_CRT_DOUBLE@@U1@@?$positional_parameter_base@DV?$string_output_adapter@D@__crt_stdio_output@@@__crt_stdio_output@@IAE_NAAU_CRT_DOUBLE@@@Z 1002b2a0 f i libucrtd:output.obj
 0001:0002a400       ??$extract_argument_from_va_list@U_CRT_DOUBLE@@U1@@?$positional_parameter_base@_WV?$stream_output_adapter@_W@__crt_stdio_output@@@__crt_stdio_output@@IAE_NAAU_CRT_DOUBLE@@@Z 1002b400 f i libucrtd:output.obj
 0001:0002a560       ??$extract_argument_from_va_list@U_CRT_DOUBLE@@U1@@?$positional_parameter_base@_WV?$string_output_adapter@_W@__crt_stdio_output@@@__crt_stdio_output@@IAE_NAAU_CRT_DOUBLE@@@Z 1002b560 f i libucrtd:output.obj
 0001:0002a6c0       ??$extract_argument_from_va_list@U_CRT_DOUBLE@@U1@@?$standard_base@DV?$stream_output_adapter@D@__crt_stdio_output@@@__crt_stdio_output@@IAE_NAAU_CRT_DOUBLE@@@Z 1002b6c0 f i libucrtd:output.obj
 0001:0002a710       ??$extract_argument_from_va_list@U_CRT_DOUBLE@@U1@@?$standard_base@DV?$string_output_adapter@D@__crt_stdio_output@@@__crt_stdio_output@@IAE_NAAU_CRT_DOUBLE@@@Z 1002b710 f i libucrtd:output.obj
 0001:0002a760       ??$extract_argument_from_va_list@U_CRT_DOUBLE@@U1@@?$standard_base@_WV?$stream_output_adapter@_W@__crt_stdio_output@@@__crt_stdio_output@@IAE_NAAU_CRT_DOUBLE@@@Z 1002b760 f i libucrtd:output.obj
 0001:0002a7b0       ??$extract_argument_from_va_list@U_CRT_DOUBLE@@U1@@?$standard_base@_WV?$string_output_adapter@_W@__crt_stdio_output@@@__crt_stdio_output@@IAE_NAAU_CRT_DOUBLE@@@Z 1002b7b0 f i libucrtd:output.obj
 0001:0002a800       ??$extract_argument_from_va_list@_J_J@?$positional_parameter_base@DV?$stream_output_adapter@D@__crt_stdio_output@@@__crt_stdio_output@@IAE_NAA_J@Z 1002b800 f i libucrtd:output.obj
 0001:0002a930       ??$extract_argument_from_va_list@_J_J@?$positional_parameter_base@DV?$string_output_adapter@D@__crt_stdio_output@@@__crt_stdio_output@@IAE_NAA_J@Z 1002b930 f i libucrtd:output.obj
 0001:0002aa60       ??$extract_argument_from_va_list@_J_J@?$positional_parameter_base@_WV?$stream_output_adapter@_W@__crt_stdio_output@@@__crt_stdio_output@@IAE_NAA_J@Z 1002ba60 f i libucrtd:output.obj
 0001:0002ab90       ??$extract_argument_from_va_list@_J_J@?$positional_parameter_base@_WV?$string_output_adapter@_W@__crt_stdio_output@@@__crt_stdio_output@@IAE_NAA_J@Z 1002bb90 f i libucrtd:output.obj
 0001:0002acc0       ??$extract_argument_from_va_list@_J_J@?$standard_base@DV?$stream_output_adapter@D@__crt_stdio_output@@@__crt_stdio_output@@IAE_NAA_J@Z 1002bcc0 f i libucrtd:output.obj
 0001:0002acf0       ??$extract_argument_from_va_list@_J_J@?$standard_base@DV?$string_output_adapter@D@__crt_stdio_output@@@__crt_stdio_output@@IAE_NAA_J@Z 1002bcf0 f i libucrtd:output.obj
 0001:0002ad20       ??$extract_argument_from_va_list@_J_J@?$standard_base@_WV?$stream_output_adapter@_W@__crt_stdio_output@@@__crt_stdio_output@@IAE_NAA_J@Z 1002bd20 f i libucrtd:output.obj
 0001:0002ad50       ??$extract_argument_from_va_list@_J_J@?$standard_base@_WV?$string_output_adapter@_W@__crt_stdio_output@@@__crt_stdio_output@@IAE_NAA_J@Z 1002bd50 f i libucrtd:output.obj
 0001:0002ad80       ??$extract_argument_from_va_list@_K_J@?$positional_parameter_base@DV?$stream_output_adapter@D@__crt_stdio_output@@@__crt_stdio_output@@IAE_NAA_J@Z 1002bd80 f i libucrtd:output.obj
 0001:0002aeb0       ??$extract_argument_from_va_list@_K_J@?$positional_parameter_base@DV?$string_output_adapter@D@__crt_stdio_output@@@__crt_stdio_output@@IAE_NAA_J@Z 1002beb0 f i libucrtd:output.obj
 0001:0002afe0       ??$extract_argument_from_va_list@_K_J@?$positional_parameter_base@_WV?$stream_output_adapter@_W@__crt_stdio_output@@@__crt_stdio_output@@IAE_NAA_J@Z 1002bfe0 f i libucrtd:output.obj
 0001:0002b110       ??$extract_argument_from_va_list@_K_J@?$positional_parameter_base@_WV?$string_output_adapter@_W@__crt_stdio_output@@@__crt_stdio_output@@IAE_NAA_J@Z 1002c110 f i libucrtd:output.obj
 0001:0002b240       ??$extract_argument_from_va_list@_K_J@?$standard_base@DV?$stream_output_adapter@D@__crt_stdio_output@@@__crt_stdio_output@@IAE_NAA_J@Z 1002c240 f i libucrtd:output.obj
 0001:0002b270       ??$extract_argument_from_va_list@_K_J@?$standard_base@DV?$string_output_adapter@D@__crt_stdio_output@@@__crt_stdio_output@@IAE_NAA_J@Z 1002c270 f i libucrtd:output.obj
 0001:0002b2a0       ??$extract_argument_from_va_list@_K_J@?$standard_base@_WV?$stream_output_adapter@_W@__crt_stdio_output@@@__crt_stdio_output@@IAE_NAA_J@Z 1002c2a0 f i libucrtd:output.obj
 0001:0002b2d0       ??$extract_argument_from_va_list@_K_J@?$standard_base@_WV?$string_output_adapter@_W@__crt_stdio_output@@@__crt_stdio_output@@IAE_NAA_J@Z 1002c2d0 f i libucrtd:output.obj
 0001:0002b300       ??$extract_argument_from_va_list@_W_W@?$positional_parameter_base@DV?$stream_output_adapter@D@__crt_stdio_output@@@__crt_stdio_output@@IAE_NAA_W@Z 1002c300 f i libucrtd:output.obj
 0001:0002b430       ??$extract_argument_from_va_list@_W_W@?$positional_parameter_base@DV?$string_output_adapter@D@__crt_stdio_output@@@__crt_stdio_output@@IAE_NAA_W@Z 1002c430 f i libucrtd:output.obj
 0001:0002b560       ??$extract_argument_from_va_list@_W_W@?$positional_parameter_base@_WV?$stream_output_adapter@_W@__crt_stdio_output@@@__crt_stdio_output@@IAE_NAA_W@Z 1002c560 f i libucrtd:output.obj
 0001:0002b690       ??$extract_argument_from_va_list@_W_W@?$positional_parameter_base@_WV?$string_output_adapter@_W@__crt_stdio_output@@@__crt_stdio_output@@IAE_NAA_W@Z 1002c690 f i libucrtd:output.obj
 0001:0002b7c0       ??$extract_argument_from_va_list@_W_W@?$standard_base@DV?$stream_output_adapter@D@__crt_stdio_output@@@__crt_stdio_output@@IAE_NAA_W@Z 1002c7c0 f i libucrtd:output.obj
 0001:0002b7f0       ??$extract_argument_from_va_list@_W_W@?$standard_base@DV?$string_output_adapter@D@__crt_stdio_output@@@__crt_stdio_output@@IAE_NAA_W@Z 1002c7f0 f i libucrtd:output.obj
 0001:0002b820       ??$extract_argument_from_va_list@_W_W@?$standard_base@_WV?$stream_output_adapter@_W@__crt_stdio_output@@@__crt_stdio_output@@IAE_NAA_W@Z 1002c820 f i libucrtd:output.obj
 0001:0002b850       ??$extract_argument_from_va_list@_W_W@?$standard_base@_WV?$string_output_adapter@_W@__crt_stdio_output@@@__crt_stdio_output@@IAE_NAA_W@Z 1002c850 f i libucrtd:output.obj
 0001:0002b880       ??$get_parameter_type@D@?$positional_parameter_base@DV?$stream_output_adapter@D@__crt_stdio_output@@@__crt_stdio_output@@CA?AW4parameter_type@01@PAD@Z 1002c880 f i libucrtd:output.obj
 0001:0002b890       ??$get_parameter_type@D@?$positional_parameter_base@DV?$string_output_adapter@D@__crt_stdio_output@@@__crt_stdio_output@@CA?AW4parameter_type@01@PAD@Z 1002c890 f i libucrtd:output.obj
 0001:0002b8a0       ??$get_parameter_type@D@?$positional_parameter_base@_WV?$stream_output_adapter@_W@__crt_stdio_output@@@__crt_stdio_output@@CA?AW4parameter_type@01@PAD@Z 1002c8a0 f i libucrtd:output.obj
 0001:0002b8b0       ??$get_parameter_type@D@?$positional_parameter_base@_WV?$string_output_adapter@_W@__crt_stdio_output@@@__crt_stdio_output@@CA?AW4parameter_type@01@PAD@Z 1002c8b0 f i libucrtd:output.obj
 0001:0002b8c0       ??$get_parameter_type@Uansi_string@?1??type_case_Z@?$output_processor@DV?$stream_output_adapter@D@__crt_stdio_output@@V?$positional_parameter_base@DV?$stream_output_adapter@D@__crt_stdio_output@@@2@@__crt_stdio_output@@AAE_NXZ@@?$positional_parameter_base@DV?$stream_output_adapter@D@__crt_stdio_output@@@__crt_stdio_output@@CA?AW4parameter_type@01@PAUansi_string@?1??type_case_Z@?$output_processor@DV?$stream_output_adapter@D@__crt_stdio_output@@V?$positional_parameter_base@DV?$stream_output_adapter@D@__crt_stdio_output@@@2@@1@AAE_NXZ@@Z 1002c8c0 f i libucrtd:output.obj
 0001:0002b8d0       ??$get_parameter_type@Uansi_string@?1??type_case_Z@?$output_processor@DV?$string_output_adapter@D@__crt_stdio_output@@V?$positional_parameter_base@DV?$string_output_adapter@D@__crt_stdio_output@@@2@@__crt_stdio_output@@AAE_NXZ@@?$positional_parameter_base@DV?$string_output_adapter@D@__crt_stdio_output@@@__crt_stdio_output@@CA?AW4parameter_type@01@PAUansi_string@?1??type_case_Z@?$output_processor@DV?$string_output_adapter@D@__crt_stdio_output@@V?$positional_parameter_base@DV?$string_output_adapter@D@__crt_stdio_output@@@2@@1@AAE_NXZ@@Z 1002c8d0 f i libucrtd:output.obj
 0001:0002b8e0       ??$get_parameter_type@Uansi_string@?1??type_case_Z@?$output_processor@_WV?$stream_output_adapter@_W@__crt_stdio_output@@V?$positional_parameter_base@_WV?$stream_output_adapter@_W@__crt_stdio_output@@@2@@__crt_stdio_output@@AAE_NXZ@@?$positional_parameter_base@_WV?$stream_output_adapter@_W@__crt_stdio_output@@@__crt_stdio_output@@CA?AW4parameter_type@01@PAUansi_string@?1??type_case_Z@?$output_processor@_WV?$stream_output_adapter@_W@__crt_stdio_output@@V?$positional_parameter_base@_WV?$stream_output_adapter@_W@__crt_stdio_output@@@2@@1@AAE_NXZ@@Z 1002c8e0 f i libucrtd:output.obj
 0001:0002b8f0       ??$get_parameter_type@Uansi_string@?1??type_case_Z@?$output_processor@_WV?$string_output_adapter@_W@__crt_stdio_output@@V?$positional_parameter_base@_WV?$string_output_adapter@_W@__crt_stdio_output@@@2@@__crt_stdio_output@@AAE_NXZ@@?$positional_parameter_base@_WV?$string_output_adapter@_W@__crt_stdio_output@@@__crt_stdio_output@@CA?AW4parameter_type@01@PAUansi_string@?1??type_case_Z@?$output_processor@_WV?$string_output_adapter@_W@__crt_stdio_output@@V?$positional_parameter_base@_WV?$string_output_adapter@_W@__crt_stdio_output@@@2@@1@AAE_NXZ@@Z 1002c8f0 f i libucrtd:output.obj
 0001:0002b900       ??$get_parameter_type@X@?$positional_parameter_base@DV?$stream_output_adapter@D@__crt_stdio_output@@@__crt_stdio_output@@CA?AW4parameter_type@01@PAX@Z 1002c900 f i libucrtd:output.obj
 0001:0002b910       ??$get_parameter_type@X@?$positional_parameter_base@DV?$string_output_adapter@D@__crt_stdio_output@@@__crt_stdio_output@@CA?AW4parameter_type@01@PAX@Z 1002c910 f i libucrtd:output.obj
 0001:0002b920       ??$get_parameter_type@X@?$positional_parameter_base@_WV?$stream_output_adapter@_W@__crt_stdio_output@@@__crt_stdio_output@@CA?AW4parameter_type@01@PAX@Z 1002c920 f i libucrtd:output.obj
 0001:0002b930       ??$get_parameter_type@X@?$positional_parameter_base@_WV?$string_output_adapter@_W@__crt_stdio_output@@@__crt_stdio_output@@CA?AW4parameter_type@01@PAX@Z 1002c930 f i libucrtd:output.obj
 0001:0002b940       ??$is_character_specifier@D@?$positional_parameter_base@DV?$stream_output_adapter@D@__crt_stdio_output@@@__crt_stdio_output@@CA_ND@Z 1002c940 f i libucrtd:output.obj
 0001:0002b970       ??$is_character_specifier@D@?$positional_parameter_base@DV?$string_output_adapter@D@__crt_stdio_output@@@__crt_stdio_output@@CA_ND@Z 1002c970 f i libucrtd:output.obj
 0001:0002b9a0       ??$is_character_specifier@_W@?$positional_parameter_base@_WV?$stream_output_adapter@_W@__crt_stdio_output@@@__crt_stdio_output@@CA_N_W@Z 1002c9a0 f i libucrtd:output.obj
 0001:0002b9d0       ??$is_character_specifier@_W@?$positional_parameter_base@_WV?$string_output_adapter@_W@__crt_stdio_output@@@__crt_stdio_output@@CA_N_W@Z 1002c9d0 f i libucrtd:output.obj
 0001:0002ba00       ??$is_integral_specifier@D@?$positional_parameter_base@DV?$stream_output_adapter@D@__crt_stdio_output@@@__crt_stdio_output@@CA_ND@Z 1002ca00 f i libucrtd:output.obj
 0001:0002ba60       ??$is_integral_specifier@D@?$positional_parameter_base@DV?$string_output_adapter@D@__crt_stdio_output@@@__crt_stdio_output@@CA_ND@Z 1002ca60 f i libucrtd:output.obj
 0001:0002bac0       ??$is_integral_specifier@_W@?$positional_parameter_base@_WV?$stream_output_adapter@_W@__crt_stdio_output@@@__crt_stdio_output@@CA_N_W@Z 1002cac0 f i libucrtd:output.obj
 0001:0002bb20       ??$is_integral_specifier@_W@?$positional_parameter_base@_WV?$string_output_adapter@_W@__crt_stdio_output@@@__crt_stdio_output@@CA_N_W@Z 1002cb20 f i libucrtd:output.obj
 0001:0002bb80       ??$is_pointer_specifier@D@?$positional_parameter_base@DV?$stream_output_adapter@D@__crt_stdio_output@@@__crt_stdio_output@@CA_ND@Z 1002cb80 f i libucrtd:output.obj
 0001:0002bbb0       ??$is_pointer_specifier@D@?$positional_parameter_base@DV?$string_output_adapter@D@__crt_stdio_output@@@__crt_stdio_output@@CA_ND@Z 1002cbb0 f i libucrtd:output.obj
 0001:0002bbe0       ??$is_pointer_specifier@_W@?$positional_parameter_base@_WV?$stream_output_adapter@_W@__crt_stdio_output@@@__crt_stdio_output@@CA_N_W@Z 1002cbe0 f i libucrtd:output.obj
 0001:0002bc10       ??$is_pointer_specifier@_W@?$positional_parameter_base@_WV?$string_output_adapter@_W@__crt_stdio_output@@@__crt_stdio_output@@CA_N_W@Z 1002cc10 f i libucrtd:output.obj
 0001:0002bc40       ??$is_string_specifier@D@?$positional_parameter_base@DV?$stream_output_adapter@D@__crt_stdio_output@@@__crt_stdio_output@@CA_ND@Z 1002cc40 f i libucrtd:output.obj
 0001:0002bc70       ??$is_string_specifier@D@?$positional_parameter_base@DV?$string_output_adapter@D@__crt_stdio_output@@@__crt_stdio_output@@CA_ND@Z 1002cc70 f i libucrtd:output.obj
 0001:0002bca0       ??$is_string_specifier@_W@?$positional_parameter_base@_WV?$stream_output_adapter@_W@__crt_stdio_output@@@__crt_stdio_output@@CA_N_W@Z 1002cca0 f i libucrtd:output.obj
 0001:0002bcd0       ??$is_string_specifier@_W@?$positional_parameter_base@_WV?$string_output_adapter@_W@__crt_stdio_output@@@__crt_stdio_output@@CA_N_W@Z 1002ccd0 f i libucrtd:output.obj
 0001:0002bd00       ??$is_wide_character_specifier@D@__crt_stdio_output@@YA_N_KDW4length_modifier@0@@Z 1002cd00 f i libucrtd:output.obj
 0001:0002bd80       ??$is_wide_character_specifier@_W@__crt_stdio_output@@YA_N_K_WW4length_modifier@0@@Z 1002cd80 f i libucrtd:output.obj
 0001:0002be40       ??$peek_va_arg@C@__crt_stdio_output@@YACPAD@Z 1002ce40 f i libucrtd:output.obj
 0001:0002be60       ??$peek_va_arg@E@__crt_stdio_output@@YAEPAD@Z 1002ce60 f i libucrtd:output.obj
 0001:0002be80       ??$peek_va_arg@F@__crt_stdio_output@@YAFPAD@Z 1002ce80 f i libucrtd:output.obj
 0001:0002bea0       ??$peek_va_arg@G@__crt_stdio_output@@YAGPAD@Z 1002cea0 f i libucrtd:output.obj
 0001:0002bec0       ??$peek_va_arg@H@__crt_stdio_output@@YAHPAD@Z 1002cec0 f i libucrtd:output.obj
 0001:0002bee0       ??$peek_va_arg@I@__crt_stdio_output@@YAIPAD@Z 1002cee0 f i libucrtd:output.obj
 0001:0002bf00       ??$peek_va_arg@PAD@__crt_stdio_output@@YAPADPAD@Z 1002cf00 f i libucrtd:output.obj
 0001:0002bf20       ??$peek_va_arg@PAUansi_string@?1??type_case_Z@?$output_processor@DV?$stream_output_adapter@D@__crt_stdio_output@@V?$positional_parameter_base@DV?$stream_output_adapter@D@__crt_stdio_output@@@2@@__crt_stdio_output@@AAE_NXZ@@__crt_stdio_output@@YAPAUansi_string@?1??type_case_Z@?$output_processor@DV?$stream_output_adapter@D@__crt_stdio_output@@V?$positional_parameter_base@DV?$stream_output_adapter@D@__crt_stdio_output@@@2@@0@AAE_NXZ@PAD@Z 1002cf20 f i libucrtd:output.obj
 0001:0002bf40       ??$peek_va_arg@PAUansi_string@?1??type_case_Z@?$output_processor@DV?$string_output_adapter@D@__crt_stdio_output@@V?$positional_parameter_base@DV?$string_output_adapter@D@__crt_stdio_output@@@2@@__crt_stdio_output@@AAE_NXZ@@__crt_stdio_output@@YAPAUansi_string@?1??type_case_Z@?$output_processor@DV?$string_output_adapter@D@__crt_stdio_output@@V?$positional_parameter_base@DV?$string_output_adapter@D@__crt_stdio_output@@@2@@0@AAE_NXZ@PAD@Z 1002cf40 f i libucrtd:output.obj
 0001:0002bf60       ??$peek_va_arg@PAUansi_string@?1??type_case_Z@?$output_processor@_WV?$stream_output_adapter@_W@__crt_stdio_output@@V?$positional_parameter_base@_WV?$stream_output_adapter@_W@__crt_stdio_output@@@2@@__crt_stdio_output@@AAE_NXZ@@__crt_stdio_output@@YAPAUansi_string@?1??type_case_Z@?$output_processor@_WV?$stream_output_adapter@_W@__crt_stdio_output@@V?$positional_parameter_base@_WV?$stream_output_adapter@_W@__crt_stdio_output@@@2@@0@AAE_NXZ@PAD@Z 1002cf60 f i libucrtd:output.obj
 0001:0002bf80       ??$peek_va_arg@PAUansi_string@?1??type_case_Z@?$output_processor@_WV?$string_output_adapter@_W@__crt_stdio_output@@V?$positional_parameter_base@_WV?$string_output_adapter@_W@__crt_stdio_output@@@2@@__crt_stdio_output@@AAE_NXZ@@__crt_stdio_output@@YAPAUansi_string@?1??type_case_Z@?$output_processor@_WV?$string_output_adapter@_W@__crt_stdio_output@@V?$positional_parameter_base@_WV?$string_output_adapter@_W@__crt_stdio_output@@@2@@0@AAE_NXZ@PAD@Z 1002cf80 f i libucrtd:output.obj
 0001:0002bfa0       ??$peek_va_arg@PAX@__crt_stdio_output@@YAPAXPAD@Z 1002cfa0 f i libucrtd:output.obj
 0001:0002bfc0       ??$peek_va_arg@U_CRT_DOUBLE@@@__crt_stdio_output@@YA?AU_CRT_DOUBLE@@PAD@Z 1002cfc0 f i libucrtd:output.obj
 0001:0002bfe0       ??$peek_va_arg@_J@__crt_stdio_output@@YA_JPAD@Z 1002cfe0 f i libucrtd:output.obj
 0001:0002c000       ??$peek_va_arg@_K@__crt_stdio_output@@YA_KPAD@Z 1002d000 f i libucrtd:output.obj
 0001:0002c020       ??$peek_va_arg@_W@__crt_stdio_output@@YA_WPAD@Z 1002d020 f i libucrtd:output.obj
 0001:0002c040       ??$puttc_nolock@ABDPAU_iobuf@@@?$__crt_char_traits@D@@SAHABD$$QAPAU_iobuf@@@Z 1002d040 f i libucrtd:output.obj
 0001:0002c060       ??$puttc_nolock@AB_WPAU_iobuf@@@?$__crt_char_traits@_W@@SAGAB_W$$QAPAU_iobuf@@@Z 1002d060 f i libucrtd:output.obj
 0001:0002c080       ??$read_va_arg@C@__crt_stdio_output@@YACAAPAD@Z 1002d080 f i libucrtd:output.obj
 0001:0002c0a0       ??$read_va_arg@E@__crt_stdio_output@@YAEAAPAD@Z 1002d0a0 f i libucrtd:output.obj
 0001:0002c0c0       ??$read_va_arg@F@__crt_stdio_output@@YAFAAPAD@Z 1002d0c0 f i libucrtd:output.obj
 0001:0002c0e0       ??$read_va_arg@G@__crt_stdio_output@@YAGAAPAD@Z 1002d0e0 f i libucrtd:output.obj
 0001:0002c100       ??$read_va_arg@H@__crt_stdio_output@@YAHAAPAD@Z 1002d100 f i libucrtd:output.obj
 0001:0002c120       ??$read_va_arg@I@__crt_stdio_output@@YAIAAPAD@Z 1002d120 f i libucrtd:output.obj
 0001:0002c140       ??$read_va_arg@PAD@__crt_stdio_output@@YAPADAAPAD@Z 1002d140 f i libucrtd:output.obj
 0001:0002c160       ??$read_va_arg@PAUansi_string@?1??type_case_Z@?$output_processor@DV?$stream_output_adapter@D@__crt_stdio_output@@V?$format_validation_base@DV?$stream_output_adapter@D@__crt_stdio_output@@@2@@__crt_stdio_output@@AAE_NXZ@@__crt_stdio_output@@YAPAUansi_string@?1??type_case_Z@?$output_processor@DV?$stream_output_adapter@D@__crt_stdio_output@@V?$format_validation_base@DV?$stream_output_adapter@D@__crt_stdio_output@@@2@@0@AAE_NXZ@AAPAD@Z 1002d160 f i libucrtd:output.obj
 0001:0002c180       ??$read_va_arg@PAUansi_string@?1??type_case_Z@?$output_processor@DV?$stream_output_adapter@D@__crt_stdio_output@@V?$positional_parameter_base@DV?$stream_output_adapter@D@__crt_stdio_output@@@2@@__crt_stdio_output@@AAE_NXZ@@__crt_stdio_output@@YAPAUansi_string@?1??type_case_Z@?$output_processor@DV?$stream_output_adapter@D@__crt_stdio_output@@V?$positional_parameter_base@DV?$stream_output_adapter@D@__crt_stdio_output@@@2@@0@AAE_NXZ@AAPAD@Z 1002d180 f i libucrtd:output.obj
 0001:0002c1a0       ??$read_va_arg@PAUansi_string@?1??type_case_Z@?$output_processor@DV?$stream_output_adapter@D@__crt_stdio_output@@V?$standard_base@DV?$stream_output_adapter@D@__crt_stdio_output@@@2@@__crt_stdio_output@@AAE_NXZ@@__crt_stdio_output@@YAPAUansi_string@?1??type_case_Z@?$output_processor@DV?$stream_output_adapter@D@__crt_stdio_output@@V?$standard_base@DV?$stream_output_adapter@D@__crt_stdio_output@@@2@@0@AAE_NXZ@AAPAD@Z 1002d1a0 f i libucrtd:output.obj
 0001:0002c1c0       ??$read_va_arg@PAUansi_string@?1??type_case_Z@?$output_processor@DV?$string_output_adapter@D@__crt_stdio_output@@V?$format_validation_base@DV?$string_output_adapter@D@__crt_stdio_output@@@2@@__crt_stdio_output@@AAE_NXZ@@__crt_stdio_output@@YAPAUansi_string@?1??type_case_Z@?$output_processor@DV?$string_output_adapter@D@__crt_stdio_output@@V?$format_validation_base@DV?$string_output_adapter@D@__crt_stdio_output@@@2@@0@AAE_NXZ@AAPAD@Z 1002d1c0 f i libucrtd:output.obj
 0001:0002c1e0       ??$read_va_arg@PAUansi_string@?1??type_case_Z@?$output_processor@DV?$string_output_adapter@D@__crt_stdio_output@@V?$positional_parameter_base@DV?$string_output_adapter@D@__crt_stdio_output@@@2@@__crt_stdio_output@@AAE_NXZ@@__crt_stdio_output@@YAPAUansi_string@?1??type_case_Z@?$output_processor@DV?$string_output_adapter@D@__crt_stdio_output@@V?$positional_parameter_base@DV?$string_output_adapter@D@__crt_stdio_output@@@2@@0@AAE_NXZ@AAPAD@Z 1002d1e0 f i libucrtd:output.obj
 0001:0002c200       ??$read_va_arg@PAUansi_string@?1??type_case_Z@?$output_processor@DV?$string_output_adapter@D@__crt_stdio_output@@V?$standard_base@DV?$string_output_adapter@D@__crt_stdio_output@@@2@@__crt_stdio_output@@AAE_NXZ@@__crt_stdio_output@@YAPAUansi_string@?1??type_case_Z@?$output_processor@DV?$string_output_adapter@D@__crt_stdio_output@@V?$standard_base@DV?$string_output_adapter@D@__crt_stdio_output@@@2@@0@AAE_NXZ@AAPAD@Z 1002d200 f i libucrtd:output.obj
 0001:0002c220       ??$read_va_arg@PAUansi_string@?1??type_case_Z@?$output_processor@_WV?$stream_output_adapter@_W@__crt_stdio_output@@V?$format_validation_base@_WV?$stream_output_adapter@_W@__crt_stdio_output@@@2@@__crt_stdio_output@@AAE_NXZ@@__crt_stdio_output@@YAPAUansi_string@?1??type_case_Z@?$output_processor@_WV?$stream_output_adapter@_W@__crt_stdio_output@@V?$format_validation_base@_WV?$stream_output_adapter@_W@__crt_stdio_output@@@2@@0@AAE_NXZ@AAPAD@Z 1002d220 f i libucrtd:output.obj
 0001:0002c240       ??$read_va_arg@PAUansi_string@?1??type_case_Z@?$output_processor@_WV?$stream_output_adapter@_W@__crt_stdio_output@@V?$positional_parameter_base@_WV?$stream_output_adapter@_W@__crt_stdio_output@@@2@@__crt_stdio_output@@AAE_NXZ@@__crt_stdio_output@@YAPAUansi_string@?1??type_case_Z@?$output_processor@_WV?$stream_output_adapter@_W@__crt_stdio_output@@V?$positional_parameter_base@_WV?$stream_output_adapter@_W@__crt_stdio_output@@@2@@0@AAE_NXZ@AAPAD@Z 1002d240 f i libucrtd:output.obj
 0001:0002c260       ??$read_va_arg@PAUansi_string@?1??type_case_Z@?$output_processor@_WV?$stream_output_adapter@_W@__crt_stdio_output@@V?$standard_base@_WV?$stream_output_adapter@_W@__crt_stdio_output@@@2@@__crt_stdio_output@@AAE_NXZ@@__crt_stdio_output@@YAPAUansi_string@?1??type_case_Z@?$output_processor@_WV?$stream_output_adapter@_W@__crt_stdio_output@@V?$standard_base@_WV?$stream_output_adapter@_W@__crt_stdio_output@@@2@@0@AAE_NXZ@AAPAD@Z 1002d260 f i libucrtd:output.obj
 0001:0002c280       ??$read_va_arg@PAUansi_string@?1??type_case_Z@?$output_processor@_WV?$string_output_adapter@_W@__crt_stdio_output@@V?$format_validation_base@_WV?$string_output_adapter@_W@__crt_stdio_output@@@2@@__crt_stdio_output@@AAE_NXZ@@__crt_stdio_output@@YAPAUansi_string@?1??type_case_Z@?$output_processor@_WV?$string_output_adapter@_W@__crt_stdio_output@@V?$format_validation_base@_WV?$string_output_adapter@_W@__crt_stdio_output@@@2@@0@AAE_NXZ@AAPAD@Z 1002d280 f i libucrtd:output.obj
 0001:0002c2a0       ??$read_va_arg@PAUansi_string@?1??type_case_Z@?$output_processor@_WV?$string_output_adapter@_W@__crt_stdio_output@@V?$positional_parameter_base@_WV?$string_output_adapter@_W@__crt_stdio_output@@@2@@__crt_stdio_output@@AAE_NXZ@@__crt_stdio_output@@YAPAUansi_string@?1??type_case_Z@?$output_processor@_WV?$string_output_adapter@_W@__crt_stdio_output@@V?$positional_parameter_base@_WV?$string_output_adapter@_W@__crt_stdio_output@@@2@@0@AAE_NXZ@AAPAD@Z 1002d2a0 f i libucrtd:output.obj
 0001:0002c2c0       ??$read_va_arg@PAUansi_string@?1??type_case_Z@?$output_processor@_WV?$string_output_adapter@_W@__crt_stdio_output@@V?$standard_base@_WV?$string_output_adapter@_W@__crt_stdio_output@@@2@@__crt_stdio_output@@AAE_NXZ@@__crt_stdio_output@@YAPAUansi_string@?1??type_case_Z@?$output_processor@_WV?$string_output_adapter@_W@__crt_stdio_output@@V?$standard_base@_WV?$string_output_adapter@_W@__crt_stdio_output@@@2@@0@AAE_NXZ@AAPAD@Z 1002d2c0 f i libucrtd:output.obj
 0001:0002c2e0       ??$read_va_arg@PAX@__crt_stdio_output@@YAPAXAAPAD@Z 1002d2e0 f i libucrtd:output.obj
 0001:0002c300       ??$read_va_arg@U_CRT_DOUBLE@@@__crt_stdio_output@@YA?AU_CRT_DOUBLE@@AAPAD@Z 1002d300 f i libucrtd:output.obj
 0001:0002c320       ??$read_va_arg@_J@__crt_stdio_output@@YA_JAAPAD@Z 1002d320 f i libucrtd:output.obj
 0001:0002c340       ??$read_va_arg@_K@__crt_stdio_output@@YA_KAAPAD@Z 1002d340 f i libucrtd:output.obj
 0001:0002c360       ??$read_va_arg@_W@__crt_stdio_output@@YA_WAAPAD@Z 1002d360 f i libucrtd:output.obj
 0001:0002c380       ??$scratch_count@D@formatting_buffer@__crt_stdio_output@@QBEIXZ 1002d380 f i libucrtd:output.obj
 0001:0002c3a0       ??$scratch_data@D@formatting_buffer@__crt_stdio_output@@QAEPADXZ 1002d3a0 f i libucrtd:output.obj
 0001:0002c3f0       ??$tcstol@AAPBDPAPADH@?$__crt_char_traits@D@@SAJAAPBD$$QAPAPAD$$QAH@Z 1002d3f0 f i libucrtd:output.obj
 0001:0002c420       ??$tcstol@AAPB_WPAPA_WH@?$__crt_char_traits@_W@@SAJAAPB_W$$QAPAPA_W$$QAH@Z 1002d420 f i libucrtd:output.obj
 0001:0002c450       ??$tcstol@PBDPAPADH@?$__crt_char_traits@D@@SAJ$$QAPBD$$QAPAPAD$$QAH@Z 1002d450 f i libucrtd:output.obj
 0001:0002c480       ??$tcstol@PB_WPAPA_WH@?$__crt_char_traits@_W@@SAJ$$QAPB_W$$QAPAPA_W$$QAH@Z 1002d480 f i libucrtd:output.obj
 0001:0002c4b0       ??$type_case_integer_parse_into_buffer@I@?$output_processor@DV?$stream_output_adapter@D@__crt_stdio_output@@V?$format_validation_base@DV?$stream_output_adapter@D@__crt_stdio_output@@@2@@__crt_stdio_output@@AAEXII_N@Z 1002d4b0 f i libucrtd:output.obj
 0001:0002c580       ??$type_case_integer_parse_into_buffer@I@?$output_processor@DV?$stream_output_adapter@D@__crt_stdio_output@@V?$positional_parameter_base@DV?$stream_output_adapter@D@__crt_stdio_output@@@2@@__crt_stdio_output@@AAEXII_N@Z 1002d580 f i libucrtd:output.obj
 0001:0002c650       ??$type_case_integer_parse_into_buffer@I@?$output_processor@DV?$stream_output_adapter@D@__crt_stdio_output@@V?$standard_base@DV?$stream_output_adapter@D@__crt_stdio_output@@@2@@__crt_stdio_output@@AAEXII_N@Z 1002d650 f i libucrtd:output.obj
 0001:0002c720       ??$type_case_integer_parse_into_buffer@I@?$output_processor@DV?$string_output_adapter@D@__crt_stdio_output@@V?$format_validation_base@DV?$string_output_adapter@D@__crt_stdio_output@@@2@@__crt_stdio_output@@AAEXII_N@Z 1002d720 f i libucrtd:output.obj
 0001:0002c7f0       ??$type_case_integer_parse_into_buffer@I@?$output_processor@DV?$string_output_adapter@D@__crt_stdio_output@@V?$positional_parameter_base@DV?$string_output_adapter@D@__crt_stdio_output@@@2@@__crt_stdio_output@@AAEXII_N@Z 1002d7f0 f i libucrtd:output.obj
 0001:0002c8c0       ??$type_case_integer_parse_into_buffer@I@?$output_processor@DV?$string_output_adapter@D@__crt_stdio_output@@V?$standard_base@DV?$string_output_adapter@D@__crt_stdio_output@@@2@@__crt_stdio_output@@AAEXII_N@Z 1002d8c0 f i libucrtd:output.obj
 0001:0002c990       ??$type_case_integer_parse_into_buffer@I@?$output_processor@_WV?$stream_output_adapter@_W@__crt_stdio_output@@V?$format_validation_base@_WV?$stream_output_adapter@_W@__crt_stdio_output@@@2@@__crt_stdio_output@@AAEXII_N@Z 1002d990 f i libucrtd:output.obj
 0001:0002ca70       ??$type_case_integer_parse_into_buffer@I@?$output_processor@_WV?$stream_output_adapter@_W@__crt_stdio_output@@V?$positional_parameter_base@_WV?$stream_output_adapter@_W@__crt_stdio_output@@@2@@__crt_stdio_output@@AAEXII_N@Z 1002da70 f i libucrtd:output.obj
 0001:0002cb50       ??$type_case_integer_parse_into_buffer@I@?$output_processor@_WV?$stream_output_adapter@_W@__crt_stdio_output@@V?$standard_base@_WV?$stream_output_adapter@_W@__crt_stdio_output@@@2@@__crt_stdio_output@@AAEXII_N@Z 1002db50 f i libucrtd:output.obj
 0001:0002cc30       ??$type_case_integer_parse_into_buffer@I@?$output_processor@_WV?$string_output_adapter@_W@__crt_stdio_output@@V?$format_validation_base@_WV?$string_output_adapter@_W@__crt_stdio_output@@@2@@__crt_stdio_output@@AAEXII_N@Z 1002dc30 f i libucrtd:output.obj
 0001:0002cd10       ??$type_case_integer_parse_into_buffer@I@?$output_processor@_WV?$string_output_adapter@_W@__crt_stdio_output@@V?$positional_parameter_base@_WV?$string_output_adapter@_W@__crt_stdio_output@@@2@@__crt_stdio_output@@AAEXII_N@Z 1002dd10 f i libucrtd:output.obj
 0001:0002cdf0       ??$type_case_integer_parse_into_buffer@I@?$output_processor@_WV?$string_output_adapter@_W@__crt_stdio_output@@V?$standard_base@_WV?$string_output_adapter@_W@__crt_stdio_output@@@2@@__crt_stdio_output@@AAEXII_N@Z 1002ddf0 f i libucrtd:output.obj
 0001:0002ced0       ??$type_case_integer_parse_into_buffer@_K@?$output_processor@DV?$stream_output_adapter@D@__crt_stdio_output@@V?$format_validation_base@DV?$stream_output_adapter@D@__crt_stdio_output@@@2@@__crt_stdio_output@@AAEX_KI_N@Z 1002ded0 f i libucrtd:output.obj
 0001:0002cfc0       ??$type_case_integer_parse_into_buffer@_K@?$output_processor@DV?$stream_output_adapter@D@__crt_stdio_output@@V?$positional_parameter_base@DV?$stream_output_adapter@D@__crt_stdio_output@@@2@@__crt_stdio_output@@AAEX_KI_N@Z 1002dfc0 f i libucrtd:output.obj
 0001:0002d0b0       ??$type_case_integer_parse_into_buffer@_K@?$output_processor@DV?$stream_output_adapter@D@__crt_stdio_output@@V?$standard_base@DV?$stream_output_adapter@D@__crt_stdio_output@@@2@@__crt_stdio_output@@AAEX_KI_N@Z 1002e0b0 f i libucrtd:output.obj
 0001:0002d1a0       ??$type_case_integer_parse_into_buffer@_K@?$output_processor@DV?$string_output_adapter@D@__crt_stdio_output@@V?$format_validation_base@DV?$string_output_adapter@D@__crt_stdio_output@@@2@@__crt_stdio_output@@AAEX_KI_N@Z 1002e1a0 f i libucrtd:output.obj
 0001:0002d290       ??$type_case_integer_parse_into_buffer@_K@?$output_processor@DV?$string_output_adapter@D@__crt_stdio_output@@V?$positional_parameter_base@DV?$string_output_adapter@D@__crt_stdio_output@@@2@@__crt_stdio_output@@AAEX_KI_N@Z 1002e290 f i libucrtd:output.obj
 0001:0002d380       ??$type_case_integer_parse_into_buffer@_K@?$output_processor@DV?$string_output_adapter@D@__crt_stdio_output@@V?$standard_base@DV?$string_output_adapter@D@__crt_stdio_output@@@2@@__crt_stdio_output@@AAEX_KI_N@Z 1002e380 f i libucrtd:output.obj
 0001:0002d470       ??$type_case_integer_parse_into_buffer@_K@?$output_processor@_WV?$stream_output_adapter@_W@__crt_stdio_output@@V?$format_validation_base@_WV?$stream_output_adapter@_W@__crt_stdio_output@@@2@@__crt_stdio_output@@AAEX_KI_N@Z 1002e470 f i libucrtd:output.obj
 0001:0002d570       ??$type_case_integer_parse_into_buffer@_K@?$output_processor@_WV?$stream_output_adapter@_W@__crt_stdio_output@@V?$positional_parameter_base@_WV?$stream_output_adapter@_W@__crt_stdio_output@@@2@@__crt_stdio_output@@AAEX_KI_N@Z 1002e570 f i libucrtd:output.obj
 0001:0002d670       ??$type_case_integer_parse_into_buffer@_K@?$output_processor@_WV?$stream_output_adapter@_W@__crt_stdio_output@@V?$standard_base@_WV?$stream_output_adapter@_W@__crt_stdio_output@@@2@@__crt_stdio_output@@AAEX_KI_N@Z 1002e670 f i libucrtd:output.obj
 0001:0002d770       ??$type_case_integer_parse_into_buffer@_K@?$output_processor@_WV?$string_output_adapter@_W@__crt_stdio_output@@V?$format_validation_base@_WV?$string_output_adapter@_W@__crt_stdio_output@@@2@@__crt_stdio_output@@AAEX_KI_N@Z 1002e770 f i libucrtd:output.obj
 0001:0002d870       ??$type_case_integer_parse_into_buffer@_K@?$output_processor@_WV?$string_output_adapter@_W@__crt_stdio_output@@V?$positional_parameter_base@_WV?$string_output_adapter@_W@__crt_stdio_output@@@2@@__crt_stdio_output@@AAEX_KI_N@Z 1002e870 f i libucrtd:output.obj
 0001:0002d970       ??$type_case_integer_parse_into_buffer@_K@?$output_processor@_WV?$string_output_adapter@_W@__crt_stdio_output@@V?$standard_base@_WV?$string_output_adapter@_W@__crt_stdio_output@@@2@@__crt_stdio_output@@AAEX_KI_N@Z 1002e970 f i libucrtd:output.obj
 0001:0002da70       ??$write_multiple_characters@V?$stream_output_adapter@D@__crt_stdio_output@@D@__crt_stdio_output@@YAXABV?$stream_output_adapter@D@0@DHQAH@Z 1002ea70 f i libucrtd:output.obj
 0001:0002dac0       ??$write_multiple_characters@V?$stream_output_adapter@_W@__crt_stdio_output@@D@__crt_stdio_output@@YAXABV?$stream_output_adapter@_W@0@DHQAH@Z 1002eac0 f i libucrtd:output.obj
 0001:0002db10       ??$write_multiple_characters@V?$string_output_adapter@D@__crt_stdio_output@@D@__crt_stdio_output@@YAXABV?$string_output_adapter@D@0@DHQAH@Z 1002eb10 f i libucrtd:output.obj
 0001:0002db60       ??$write_multiple_characters@V?$string_output_adapter@_W@__crt_stdio_output@@D@__crt_stdio_output@@YAXABV?$string_output_adapter@_W@0@DHQAH@Z 1002eb60 f i libucrtd:output.obj
 0001:0002deb0       ??0?$common_data@D@__crt_stdio_output@@IAE@XZ 1002eeb0 f i libucrtd:output.obj
 0001:0002df60       ??0?$common_data@_W@__crt_stdio_output@@IAE@XZ 1002ef60 f i libucrtd:output.obj
 0001:0002e010       ??0?$output_adapter_data@DV?$stream_output_adapter@D@__crt_stdio_output@@@__crt_stdio_output@@IAE@ABV?$stream_output_adapter@D@1@_KQBDQAU__crt_locale_pointers@@QAD@Z 1002f010 f i libucrtd:output.obj
 0001:0002e070       ??0?$output_adapter_data@DV?$string_output_adapter@D@__crt_stdio_output@@@__crt_stdio_output@@IAE@ABV?$string_output_adapter@D@1@_KQBDQAU__crt_locale_pointers@@QAD@Z 1002f070 f i libucrtd:output.obj
 0001:0002e0d0       ??0?$output_adapter_data@_WV?$stream_output_adapter@_W@__crt_stdio_output@@@__crt_stdio_output@@IAE@ABV?$stream_output_adapter@_W@1@_KQB_WQAU__crt_locale_pointers@@QAD@Z 1002f0d0 f i libucrtd:output.obj
 0001:0002e130       ??0?$output_adapter_data@_WV?$string_output_adapter@_W@__crt_stdio_output@@@__crt_stdio_output@@IAE@ABV?$string_output_adapter@_W@1@_KQB_WQAU__crt_locale_pointers@@QAD@Z 1002f130 f i libucrtd:output.obj
 0001:0002e190       ??0?$output_processor@DV?$stream_output_adapter@D@__crt_stdio_output@@V?$format_validation_base@DV?$stream_output_adapter@D@__crt_stdio_output@@@2@@__crt_stdio_output@@QAE@ABV?$stream_output_adapter@D@1@_KQBDQAU__crt_locale_pointers@@QAD@Z 1002f190 f i libucrtd:output.obj
 0001:0002e1c0       ??0?$output_processor@DV?$stream_output_adapter@D@__crt_stdio_output@@V?$positional_parameter_base@DV?$stream_output_adapter@D@__crt_stdio_output@@@2@@__crt_stdio_output@@QAE@ABV?$stream_output_adapter@D@1@_KQBDQAU__crt_locale_pointers@@QAD@Z 1002f1c0 f i libucrtd:output.obj
 0001:0002e1f0       ??0?$output_processor@DV?$stream_output_adapter@D@__crt_stdio_output@@V?$standard_base@DV?$stream_output_adapter@D@__crt_stdio_output@@@2@@__crt_stdio_output@@QAE@ABV?$stream_output_adapter@D@1@_KQBDQAU__crt_locale_pointers@@QAD@Z 1002f1f0 f i libucrtd:output.obj
 0001:0002e220       ??0?$output_processor@DV?$string_output_adapter@D@__crt_stdio_output@@V?$format_validation_base@DV?$string_output_adapter@D@__crt_stdio_output@@@2@@__crt_stdio_output@@QAE@ABV?$string_output_adapter@D@1@_KQBDQAU__crt_locale_pointers@@QAD@Z 1002f220 f i libucrtd:output.obj
 0001:0002e250       ??0?$output_processor@DV?$string_output_adapter@D@__crt_stdio_output@@V?$positional_parameter_base@DV?$string_output_adapter@D@__crt_stdio_output@@@2@@__crt_stdio_output@@QAE@ABV?$string_output_adapter@D@1@_KQBDQAU__crt_locale_pointers@@QAD@Z 1002f250 f i libucrtd:output.obj
 0001:0002e280       ??0?$output_processor@DV?$string_output_adapter@D@__crt_stdio_output@@V?$standard_base@DV?$string_output_adapter@D@__crt_stdio_output@@@2@@__crt_stdio_output@@QAE@ABV?$string_output_adapter@D@1@_KQBDQAU__crt_locale_pointers@@QAD@Z 1002f280 f i libucrtd:output.obj
 0001:0002e2b0       ??0?$output_processor@_WV?$stream_output_adapter@_W@__crt_stdio_output@@V?$format_validation_base@_WV?$stream_output_adapter@_W@__crt_stdio_output@@@2@@__crt_stdio_output@@QAE@ABV?$stream_output_adapter@_W@1@_KQB_WQAU__crt_locale_pointers@@QAD@Z 1002f2b0 f i libucrtd:output.obj
 0001:0002e2e0       ??0?$output_processor@_WV?$stream_output_adapter@_W@__crt_stdio_output@@V?$positional_parameter_base@_WV?$stream_output_adapter@_W@__crt_stdio_output@@@2@@__crt_stdio_output@@QAE@ABV?$stream_output_adapter@_W@1@_KQB_WQAU__crt_locale_pointers@@QAD@Z 1002f2e0 f i libucrtd:output.obj
 0001:0002e310       ??0?$output_processor@_WV?$stream_output_adapter@_W@__crt_stdio_output@@V?$standard_base@_WV?$stream_output_adapter@_W@__crt_stdio_output@@@2@@__crt_stdio_output@@QAE@ABV?$stream_output_adapter@_W@1@_KQB_WQAU__crt_locale_pointers@@QAD@Z 1002f310 f i libucrtd:output.obj
 0001:0002e340       ??0?$output_processor@_WV?$string_output_adapter@_W@__crt_stdio_output@@V?$format_validation_base@_WV?$string_output_adapter@_W@__crt_stdio_output@@@2@@__crt_stdio_output@@QAE@ABV?$string_output_adapter@_W@1@_KQB_WQAU__crt_locale_pointers@@QAD@Z 1002f340 f i libucrtd:output.obj
 0001:0002e370       ??0?$output_processor@_WV?$string_output_adapter@_W@__crt_stdio_output@@V?$positional_parameter_base@_WV?$string_output_adapter@_W@__crt_stdio_output@@@2@@__crt_stdio_output@@QAE@ABV?$string_output_adapter@_W@1@_KQB_WQAU__crt_locale_pointers@@QAD@Z 1002f370 f i libucrtd:output.obj
 0001:0002e3a0       ??0?$output_processor@_WV?$string_output_adapter@_W@__crt_stdio_output@@V?$standard_base@_WV?$string_output_adapter@_W@__crt_stdio_output@@@2@@__crt_stdio_output@@QAE@ABV?$string_output_adapter@_W@1@_KQB_WQAU__crt_locale_pointers@@QAD@Z 1002f3a0 f i libucrtd:output.obj
 0001:0002e3d0       ??0?$stream_output_adapter@D@__crt_stdio_output@@QAE@QAU_iobuf@@@Z 1002f3d0 f i libucrtd:output.obj
 0001:0002e3f0       ??0?$stream_output_adapter@_W@__crt_stdio_output@@QAE@QAU_iobuf@@@Z 1002f3f0 f i libucrtd:output.obj
 0001:0002e410       ??0?$string_output_adapter@D@__crt_stdio_output@@QAE@QAU?$string_output_adapter_context@D@1@@Z 1002f410 f i libucrtd:output.obj
 0001:0002e430       ??0?$string_output_adapter@_W@__crt_stdio_output@@QAE@QAU?$string_output_adapter_context@_W@1@@Z 1002f430 f i libucrtd:output.obj
 0001:0002e450       ??0_LocaleUpdate@@QAE@QAU__crt_locale_pointers@@@Z 1002f450 f i libucrtd:output.obj
 0001:0002e520       ??0__acrt_stdio_temporary_buffering_guard@@QAE@QAU_iobuf@@@Z 1002f520 f i libucrtd:output.obj
 0001:0002e550       ??0__crt_deferred_errno_cache@@QAE@XZ 1002f550 f i libucrtd:output.obj
 0001:0002e570       ??0__crt_errno_guard@@QAE@QAH@Z 1002f570 f i libucrtd:output.obj
 0001:0002e5a0       ??0__crt_stdio_stream@@QAE@QAU_iobuf@@@Z 1002f5a0 f i libucrtd:output.obj
 0001:0002e5c0       ??0formatting_buffer@__crt_stdio_output@@QAE@XZ 1002f5c0 f i libucrtd:output.obj
 0001:0002e5f0       ??1?$common_data@D@__crt_stdio_output@@QAE@XZ 1002f5f0 f i libucrtd:output.obj
 0001:0002e610       ??1?$common_data@_W@__crt_stdio_output@@QAE@XZ 1002f610 f i libucrtd:output.obj
 0001:0002e630       ??1?$format_validation_base@DV?$stream_output_adapter@D@__crt_stdio_output@@@__crt_stdio_output@@QAE@XZ 1002f630 f i libucrtd:output.obj
 0001:0002e650       ??1?$format_validation_base@DV?$string_output_adapter@D@__crt_stdio_output@@@__crt_stdio_output@@QAE@XZ 1002f650 f i libucrtd:output.obj
 0001:0002e670       ??1?$format_validation_base@_WV?$stream_output_adapter@_W@__crt_stdio_output@@@__crt_stdio_output@@QAE@XZ 1002f670 f i libucrtd:output.obj
 0001:0002e690       ??1?$format_validation_base@_WV?$string_output_adapter@_W@__crt_stdio_output@@@__crt_stdio_output@@QAE@XZ 1002f690 f i libucrtd:output.obj
 0001:0002e6b0       ??1?$output_adapter_data@DV?$stream_output_adapter@D@__crt_stdio_output@@@__crt_stdio_output@@QAE@XZ 1002f6b0 f i libucrtd:output.obj
 0001:0002e6d0       ??1?$output_adapter_data@DV?$string_output_adapter@D@__crt_stdio_output@@@__crt_stdio_output@@QAE@XZ 1002f6d0 f i libucrtd:output.obj
 0001:0002e6f0       ??1?$output_adapter_data@_WV?$stream_output_adapter@_W@__crt_stdio_output@@@__crt_stdio_output@@QAE@XZ 1002f6f0 f i libucrtd:output.obj
 0001:0002e710       ??1?$output_adapter_data@_WV?$string_output_adapter@_W@__crt_stdio_output@@@__crt_stdio_output@@QAE@XZ 1002f710 f i libucrtd:output.obj
 0001:0002e730       ??1?$output_processor@DV?$stream_output_adapter@D@__crt_stdio_output@@V?$format_validation_base@DV?$stream_output_adapter@D@__crt_stdio_output@@@2@@__crt_stdio_output@@QAE@XZ 1002f730 f i libucrtd:output.obj
 0001:0002e750       ??1?$output_processor@DV?$stream_output_adapter@D@__crt_stdio_output@@V?$positional_parameter_base@DV?$stream_output_adapter@D@__crt_stdio_output@@@2@@__crt_stdio_output@@QAE@XZ 1002f750 f i libucrtd:output.obj
 0001:0002e770       ??1?$output_processor@DV?$stream_output_adapter@D@__crt_stdio_output@@V?$standard_base@DV?$stream_output_adapter@D@__crt_stdio_output@@@2@@__crt_stdio_output@@QAE@XZ 1002f770 f i libucrtd:output.obj
 0001:0002e790       ??1?$output_processor@DV?$string_output_adapter@D@__crt_stdio_output@@V?$format_validation_base@DV?$string_output_adapter@D@__crt_stdio_output@@@2@@__crt_stdio_output@@QAE@XZ 1002f790 f i libucrtd:output.obj
 0001:0002e7b0       ??1?$output_processor@DV?$string_output_adapter@D@__crt_stdio_output@@V?$positional_parameter_base@DV?$string_output_adapter@D@__crt_stdio_output@@@2@@__crt_stdio_output@@QAE@XZ 1002f7b0 f i libucrtd:output.obj
 0001:0002e7d0       ??1?$output_processor@DV?$string_output_adapter@D@__crt_stdio_output@@V?$standard_base@DV?$string_output_adapter@D@__crt_stdio_output@@@2@@__crt_stdio_output@@QAE@XZ 1002f7d0 f i libucrtd:output.obj
 0001:0002e7f0       ??1?$output_processor@_WV?$stream_output_adapter@_W@__crt_stdio_output@@V?$format_validation_base@_WV?$stream_output_adapter@_W@__crt_stdio_output@@@2@@__crt_stdio_output@@QAE@XZ 1002f7f0 f i libucrtd:output.obj
 0001:0002e810       ??1?$output_processor@_WV?$stream_output_adapter@_W@__crt_stdio_output@@V?$positional_parameter_base@_WV?$stream_output_adapter@_W@__crt_stdio_output@@@2@@__crt_stdio_output@@QAE@XZ 1002f810 f i libucrtd:output.obj
 0001:0002e830       ??1?$output_processor@_WV?$stream_output_adapter@_W@__crt_stdio_output@@V?$standard_base@_WV?$stream_output_adapter@_W@__crt_stdio_output@@@2@@__crt_stdio_output@@QAE@XZ 1002f830 f i libucrtd:output.obj
 0001:0002e850       ??1?$output_processor@_WV?$string_output_adapter@_W@__crt_stdio_output@@V?$format_validation_base@_WV?$string_output_adapter@_W@__crt_stdio_output@@@2@@__crt_stdio_output@@QAE@XZ 1002f850 f i libucrtd:output.obj
 0001:0002e870       ??1?$output_processor@_WV?$string_output_adapter@_W@__crt_stdio_output@@V?$positional_parameter_base@_WV?$string_output_adapter@_W@__crt_stdio_output@@@2@@__crt_stdio_output@@QAE@XZ 1002f870 f i libucrtd:output.obj
 0001:0002e890       ??1?$output_processor@_WV?$string_output_adapter@_W@__crt_stdio_output@@V?$standard_base@_WV?$string_output_adapter@_W@__crt_stdio_output@@@2@@__crt_stdio_output@@QAE@XZ 1002f890 f i libucrtd:output.obj
 0001:0002e8b0       ??1?$positional_parameter_base@DV?$stream_output_adapter@D@__crt_stdio_output@@@__crt_stdio_output@@QAE@XZ 1002f8b0 f i libucrtd:output.obj
 0001:0002e8d0       ??1?$positional_parameter_base@DV?$string_output_adapter@D@__crt_stdio_output@@@__crt_stdio_output@@QAE@XZ 1002f8d0 f i libucrtd:output.obj
 0001:0002e8f0       ??1?$positional_parameter_base@_WV?$stream_output_adapter@_W@__crt_stdio_output@@@__crt_stdio_output@@QAE@XZ 1002f8f0 f i libucrtd:output.obj
 0001:0002e910       ??1?$positional_parameter_base@_WV?$string_output_adapter@_W@__crt_stdio_output@@@__crt_stdio_output@@QAE@XZ 1002f910 f i libucrtd:output.obj
 0001:0002e930       ??1?$standard_base@DV?$stream_output_adapter@D@__crt_stdio_output@@@__crt_stdio_output@@QAE@XZ 1002f930 f i libucrtd:output.obj
 0001:0002e950       ??1?$standard_base@DV?$string_output_adapter@D@__crt_stdio_output@@@__crt_stdio_output@@QAE@XZ 1002f950 f i libucrtd:output.obj
 0001:0002e970       ??1?$standard_base@_WV?$stream_output_adapter@_W@__crt_stdio_output@@@__crt_stdio_output@@QAE@XZ 1002f970 f i libucrtd:output.obj
 0001:0002e990       ??1?$standard_base@_WV?$string_output_adapter@_W@__crt_stdio_output@@@__crt_stdio_output@@QAE@XZ 1002f990 f i libucrtd:output.obj
 0001:0002e9b0       ??1_LocaleUpdate@@QAE@XZ   1002f9b0 f i libucrtd:output.obj
 0001:0002e9e0       ??1__acrt_stdio_temporary_buffering_guard@@QAE@XZ 1002f9e0 f i libucrtd:output.obj
 0001:0002ea10       ??1__crt_errno_guard@@QAE@XZ 1002fa10 f i libucrtd:output.obj
 0001:0002ea40       ??1formatting_buffer@__crt_stdio_output@@QAE@XZ 1002fa40 f i libucrtd:output.obj
 0001:0002ea60       ??4?$__crt_unique_heap_ptr@DU__crt_internal_free_policy@@@@QAEAAV0@$$QAV0@@Z 1002fa60 f i libucrtd:output.obj
 0001:0002ea90       ??A?$spectre_mitigated_lookup_table@Ustate_transition_pair@__crt_stdio_output@@$0IA@@__crt_stdio_output@@QBEABUstate_transition_pair@1@I@Z 1002fa90 f i libucrtd:output.obj
 0001:0002eab0       ??C__crt_stdio_stream@@QBEPAU__crt_stdio_stream_data@@XZ 1002fab0 f i libucrtd:output.obj
 0001:0002f1f0       ?GetLocaleT@_LocaleUpdate@@QAEPAU__crt_locale_pointers@@XZ 100301f0 f i libucrtd:output.obj
 0001:0002f210       ?adjust_hexit@?$output_processor@DV?$stream_output_adapter@D@__crt_stdio_output@@V?$format_validation_base@DV?$stream_output_adapter@D@__crt_stdio_output@@@2@@__crt_stdio_output@@CADH_N@Z 10030210 f i libucrtd:output.obj
 0001:0002f250       ?adjust_hexit@?$output_processor@DV?$stream_output_adapter@D@__crt_stdio_output@@V?$positional_parameter_base@DV?$stream_output_adapter@D@__crt_stdio_output@@@2@@__crt_stdio_output@@CADH_N@Z 10030250 f i libucrtd:output.obj
 0001:0002f290       ?adjust_hexit@?$output_processor@DV?$stream_output_adapter@D@__crt_stdio_output@@V?$standard_base@DV?$stream_output_adapter@D@__crt_stdio_output@@@2@@__crt_stdio_output@@CADH_N@Z 10030290 f i libucrtd:output.obj
 0001:0002f2d0       ?adjust_hexit@?$output_processor@DV?$string_output_adapter@D@__crt_stdio_output@@V?$format_validation_base@DV?$string_output_adapter@D@__crt_stdio_output@@@2@@__crt_stdio_output@@CADH_N@Z 100302d0 f i libucrtd:output.obj
 0001:0002f310       ?adjust_hexit@?$output_processor@DV?$string_output_adapter@D@__crt_stdio_output@@V?$positional_parameter_base@DV?$string_output_adapter@D@__crt_stdio_output@@@2@@__crt_stdio_output@@CADH_N@Z 10030310 f i libucrtd:output.obj
 0001:0002f350       ?adjust_hexit@?$output_processor@DV?$string_output_adapter@D@__crt_stdio_output@@V?$standard_base@DV?$string_output_adapter@D@__crt_stdio_output@@@2@@__crt_stdio_output@@CADH_N@Z 10030350 f i libucrtd:output.obj
 0001:0002f390       ?adjust_hexit@?$output_processor@_WV?$stream_output_adapter@_W@__crt_stdio_output@@V?$format_validation_base@_WV?$stream_output_adapter@_W@__crt_stdio_output@@@2@@__crt_stdio_output@@CADH_N@Z 10030390 f i libucrtd:output.obj
 0001:0002f3d0       ?adjust_hexit@?$output_processor@_WV?$stream_output_adapter@_W@__crt_stdio_output@@V?$positional_parameter_base@_WV?$stream_output_adapter@_W@__crt_stdio_output@@@2@@__crt_stdio_output@@CADH_N@Z 100303d0 f i libucrtd:output.obj
 0001:0002f410       ?adjust_hexit@?$output_processor@_WV?$stream_output_adapter@_W@__crt_stdio_output@@V?$standard_base@_WV?$stream_output_adapter@_W@__crt_stdio_output@@@2@@__crt_stdio_output@@CADH_N@Z 10030410 f i libucrtd:output.obj
 0001:0002f450       ?adjust_hexit@?$output_processor@_WV?$string_output_adapter@_W@__crt_stdio_output@@V?$format_validation_base@_WV?$string_output_adapter@_W@__crt_stdio_output@@@2@@__crt_stdio_output@@CADH_N@Z 10030450 f i libucrtd:output.obj
 0001:0002f490       ?adjust_hexit@?$output_processor@_WV?$string_output_adapter@_W@__crt_stdio_output@@V?$positional_parameter_base@_WV?$string_output_adapter@_W@__crt_stdio_output@@@2@@__crt_stdio_output@@CADH_N@Z 10030490 f i libucrtd:output.obj
 0001:0002f4d0       ?adjust_hexit@?$output_processor@_WV?$string_output_adapter@_W@__crt_stdio_output@@V?$standard_base@_WV?$string_output_adapter@_W@__crt_stdio_output@@@2@@__crt_stdio_output@@CADH_N@Z 100304d0 f i libucrtd:output.obj
 0001:0002f510       ?advance_to_next_pass@?$positional_parameter_base@DV?$stream_output_adapter@D@__crt_stdio_output@@@__crt_stdio_output@@IAE_NXZ 10030510 f i libucrtd:output.obj
 0001:0002f5b0       ?advance_to_next_pass@?$positional_parameter_base@DV?$string_output_adapter@D@__crt_stdio_output@@@__crt_stdio_output@@IAE_NXZ 100305b0 f i libucrtd:output.obj
 0001:0002f650       ?advance_to_next_pass@?$positional_parameter_base@_WV?$stream_output_adapter@_W@__crt_stdio_output@@@__crt_stdio_output@@IAE_NXZ 10030650 f i libucrtd:output.obj
 0001:0002f6f0       ?advance_to_next_pass@?$positional_parameter_base@_WV?$string_output_adapter@_W@__crt_stdio_output@@@__crt_stdio_output@@IAE_NXZ 100306f0 f i libucrtd:output.obj
 0001:0002f790       ?advance_to_next_pass@?$standard_base@DV?$stream_output_adapter@D@__crt_stdio_output@@@__crt_stdio_output@@IAE_NXZ 10030790 f i libucrtd:output.obj
 0001:0002f7e0       ?advance_to_next_pass@?$standard_base@DV?$string_output_adapter@D@__crt_stdio_output@@@__crt_stdio_output@@IAE_NXZ 100307e0 f i libucrtd:output.obj
 0001:0002f830       ?advance_to_next_pass@?$standard_base@_WV?$stream_output_adapter@_W@__crt_stdio_output@@@__crt_stdio_output@@IAE_NXZ 10030830 f i libucrtd:output.obj
 0001:0002f880       ?advance_to_next_pass@?$standard_base@_WV?$string_output_adapter@_W@__crt_stdio_output@@@__crt_stdio_output@@IAE_NXZ 10030880 f i libucrtd:output.obj
 0001:0002f8d0       ?crop_zeroes@__crt_stdio_output@@YAXPADQAU__crt_locale_pointers@@@Z 100308d0 f i libucrtd:output.obj
 0001:0002f9d0       ?find_next_state@?$output_processor@DV?$stream_output_adapter@D@__crt_stdio_output@@V?$format_validation_base@DV?$stream_output_adapter@D@__crt_stdio_output@@@2@@__crt_stdio_output@@ABE?AW4state@2@DW432@@Z 100309d0 f i libucrtd:output.obj
 0001:0002fa40       ?find_next_state@?$output_processor@DV?$stream_output_adapter@D@__crt_stdio_output@@V?$positional_parameter_base@DV?$stream_output_adapter@D@__crt_stdio_output@@@2@@__crt_stdio_output@@ABE?AW4state@2@DW432@@Z 10030a40 f i libucrtd:output.obj
 0001:0002fab0       ?find_next_state@?$output_processor@DV?$stream_output_adapter@D@__crt_stdio_output@@V?$standard_base@DV?$stream_output_adapter@D@__crt_stdio_output@@@2@@__crt_stdio_output@@ABE?AW4state@2@DW432@@Z 10030ab0 f i libucrtd:output.obj
 0001:0002fb20       ?find_next_state@?$output_processor@DV?$string_output_adapter@D@__crt_stdio_output@@V?$format_validation_base@DV?$string_output_adapter@D@__crt_stdio_output@@@2@@__crt_stdio_output@@ABE?AW4state@2@DW432@@Z 10030b20 f i libucrtd:output.obj
 0001:0002fb90       ?find_next_state@?$output_processor@DV?$string_output_adapter@D@__crt_stdio_output@@V?$positional_parameter_base@DV?$string_output_adapter@D@__crt_stdio_output@@@2@@__crt_stdio_output@@ABE?AW4state@2@DW432@@Z 10030b90 f i libucrtd:output.obj
 0001:0002fc00       ?find_next_state@?$output_processor@DV?$string_output_adapter@D@__crt_stdio_output@@V?$standard_base@DV?$string_output_adapter@D@__crt_stdio_output@@@2@@__crt_stdio_output@@ABE?AW4state@2@DW432@@Z 10030c00 f i libucrtd:output.obj
 0001:0002fc70       ?find_next_state@?$output_processor@_WV?$stream_output_adapter@_W@__crt_stdio_output@@V?$format_validation_base@_WV?$stream_output_adapter@_W@__crt_stdio_output@@@2@@__crt_stdio_output@@ABE?AW4state@2@_WW432@@Z 10030c70 f i libucrtd:output.obj
 0001:0002fce0       ?find_next_state@?$output_processor@_WV?$stream_output_adapter@_W@__crt_stdio_output@@V?$positional_parameter_base@_WV?$stream_output_adapter@_W@__crt_stdio_output@@@2@@__crt_stdio_output@@ABE?AW4state@2@_WW432@@Z 10030ce0 f i libucrtd:output.obj
 0001:0002fd50       ?find_next_state@?$output_processor@_WV?$stream_output_adapter@_W@__crt_stdio_output@@V?$standard_base@_WV?$stream_output_adapter@_W@__crt_stdio_output@@@2@@__crt_stdio_output@@ABE?AW4state@2@_WW432@@Z 10030d50 f i libucrtd:output.obj
 0001:0002fdc0       ?find_next_state@?$output_processor@_WV?$string_output_adapter@_W@__crt_stdio_output@@V?$format_validation_base@_WV?$string_output_adapter@_W@__crt_stdio_output@@@2@@__crt_stdio_output@@ABE?AW4state@2@_WW432@@Z 10030dc0 f i libucrtd:output.obj
 0001:0002fe30       ?find_next_state@?$output_processor@_WV?$string_output_adapter@_W@__crt_stdio_output@@V?$positional_parameter_base@_WV?$string_output_adapter@_W@__crt_stdio_output@@@2@@__crt_stdio_output@@ABE?AW4state@2@_WW432@@Z 10030e30 f i libucrtd:output.obj
 0001:0002fea0       ?find_next_state@?$output_processor@_WV?$string_output_adapter@_W@__crt_stdio_output@@V?$standard_base@_WV?$string_output_adapter@_W@__crt_stdio_output@@@2@@__crt_stdio_output@@ABE?AW4state@2@_WW432@@Z 10030ea0 f i libucrtd:output.obj
 0001:0002ff10       ?force_decimal_point@__crt_stdio_output@@YAXPADQAU__crt_locale_pointers@@@Z 10030f10 f i libucrtd:output.obj
 0001:0002ffe0       ?get@__crt_deferred_errno_cache@@QAEAAHXZ 10030fe0 f i libucrtd:output.obj
 0001:00030010       ?get_flags@__crt_stdio_stream@@QBEJXZ 10031010 f i libucrtd:output.obj
 0001:00030030       ?get_parameter_type@?$positional_parameter_base@DV?$stream_output_adapter@D@__crt_stdio_output@@@__crt_stdio_output@@CA?AW4parameter_type@12@F@Z 10031030 f i libucrtd:output.obj
 0001:00030040       ?get_parameter_type@?$positional_parameter_base@DV?$stream_output_adapter@D@__crt_stdio_output@@@__crt_stdio_output@@CA?AW4parameter_type@12@G@Z 10031040 f i libucrtd:output.obj
 0001:00030050       ?get_parameter_type@?$positional_parameter_base@DV?$stream_output_adapter@D@__crt_stdio_output@@@__crt_stdio_output@@CA?AW4parameter_type@12@H@Z 10031050 f i libucrtd:output.obj
 0001:00030060       ?get_parameter_type@?$positional_parameter_base@DV?$stream_output_adapter@D@__crt_stdio_output@@@__crt_stdio_output@@CA?AW4parameter_type@12@I@Z 10031060 f i libucrtd:output.obj
 0001:00030070       ?get_parameter_type@?$positional_parameter_base@DV?$stream_output_adapter@D@__crt_stdio_output@@@__crt_stdio_output@@CA?AW4parameter_type@12@U_CRT_DOUBLE@@@Z 10031070 f i libucrtd:output.obj
 0001:00030080       ?get_parameter_type@?$positional_parameter_base@DV?$stream_output_adapter@D@__crt_stdio_output@@@__crt_stdio_output@@CA?AW4parameter_type@12@_J@Z 10031080 f i libucrtd:output.obj
 0001:00030090       ?get_parameter_type@?$positional_parameter_base@DV?$stream_output_adapter@D@__crt_stdio_output@@@__crt_stdio_output@@CA?AW4parameter_type@12@_K@Z 10031090 f i libucrtd:output.obj
 0001:000300a0       ?get_parameter_type@?$positional_parameter_base@DV?$stream_output_adapter@D@__crt_stdio_output@@@__crt_stdio_output@@CA?AW4parameter_type@12@_W@Z 100310a0 f i libucrtd:output.obj
 0001:000300b0       ?get_parameter_type@?$positional_parameter_base@DV?$string_output_adapter@D@__crt_stdio_output@@@__crt_stdio_output@@CA?AW4parameter_type@12@F@Z 100310b0 f i libucrtd:output.obj
 0001:000300c0       ?get_parameter_type@?$positional_parameter_base@DV?$string_output_adapter@D@__crt_stdio_output@@@__crt_stdio_output@@CA?AW4parameter_type@12@G@Z 100310c0 f i libucrtd:output.obj
 0001:000300d0       ?get_parameter_type@?$positional_parameter_base@DV?$string_output_adapter@D@__crt_stdio_output@@@__crt_stdio_output@@CA?AW4parameter_type@12@H@Z 100310d0 f i libucrtd:output.obj
 0001:000300e0       ?get_parameter_type@?$positional_parameter_base@DV?$string_output_adapter@D@__crt_stdio_output@@@__crt_stdio_output@@CA?AW4parameter_type@12@I@Z 100310e0 f i libucrtd:output.obj
 0001:000300f0       ?get_parameter_type@?$positional_parameter_base@DV?$string_output_adapter@D@__crt_stdio_output@@@__crt_stdio_output@@CA?AW4parameter_type@12@U_CRT_DOUBLE@@@Z 100310f0 f i libucrtd:output.obj
 0001:00030100       ?get_parameter_type@?$positional_parameter_base@DV?$string_output_adapter@D@__crt_stdio_output@@@__crt_stdio_output@@CA?AW4parameter_type@12@_J@Z 10031100 f i libucrtd:output.obj
 0001:00030110       ?get_parameter_type@?$positional_parameter_base@DV?$string_output_adapter@D@__crt_stdio_output@@@__crt_stdio_output@@CA?AW4parameter_type@12@_K@Z 10031110 f i libucrtd:output.obj
 0001:00030120       ?get_parameter_type@?$positional_parameter_base@DV?$string_output_adapter@D@__crt_stdio_output@@@__crt_stdio_output@@CA?AW4parameter_type@12@_W@Z 10031120 f i libucrtd:output.obj
 0001:00030130       ?get_parameter_type@?$positional_parameter_base@_WV?$stream_output_adapter@_W@__crt_stdio_output@@@__crt_stdio_output@@CA?AW4parameter_type@12@F@Z 10031130 f i libucrtd:output.obj
 0001:00030140       ?get_parameter_type@?$positional_parameter_base@_WV?$stream_output_adapter@_W@__crt_stdio_output@@@__crt_stdio_output@@CA?AW4parameter_type@12@G@Z 10031140 f i libucrtd:output.obj
 0001:00030150       ?get_parameter_type@?$positional_parameter_base@_WV?$stream_output_adapter@_W@__crt_stdio_output@@@__crt_stdio_output@@CA?AW4parameter_type@12@H@Z 10031150 f i libucrtd:output.obj
 0001:00030160       ?get_parameter_type@?$positional_parameter_base@_WV?$stream_output_adapter@_W@__crt_stdio_output@@@__crt_stdio_output@@CA?AW4parameter_type@12@I@Z 10031160 f i libucrtd:output.obj
 0001:00030170       ?get_parameter_type@?$positional_parameter_base@_WV?$stream_output_adapter@_W@__crt_stdio_output@@@__crt_stdio_output@@CA?AW4parameter_type@12@U_CRT_DOUBLE@@@Z 10031170 f i libucrtd:output.obj
 0001:00030180       ?get_parameter_type@?$positional_parameter_base@_WV?$stream_output_adapter@_W@__crt_stdio_output@@@__crt_stdio_output@@CA?AW4parameter_type@12@_J@Z 10031180 f i libucrtd:output.obj
 0001:00030190       ?get_parameter_type@?$positional_parameter_base@_WV?$stream_output_adapter@_W@__crt_stdio_output@@@__crt_stdio_output@@CA?AW4parameter_type@12@_K@Z 10031190 f i libucrtd:output.obj
 0001:000301a0       ?get_parameter_type@?$positional_parameter_base@_WV?$stream_output_adapter@_W@__crt_stdio_output@@@__crt_stdio_output@@CA?AW4parameter_type@12@_W@Z 100311a0 f i libucrtd:output.obj
 0001:000301b0       ?get_parameter_type@?$positional_parameter_base@_WV?$string_output_adapter@_W@__crt_stdio_output@@@__crt_stdio_output@@CA?AW4parameter_type@12@F@Z 100311b0 f i libucrtd:output.obj
 0001:000301c0       ?get_parameter_type@?$positional_parameter_base@_WV?$string_output_adapter@_W@__crt_stdio_output@@@__crt_stdio_output@@CA?AW4parameter_type@12@G@Z 100311c0 f i libucrtd:output.obj
 0001:000301d0       ?get_parameter_type@?$positional_parameter_base@_WV?$string_output_adapter@_W@__crt_stdio_output@@@__crt_stdio_output@@CA?AW4parameter_type@12@H@Z 100311d0 f i libucrtd:output.obj
 0001:000301e0       ?get_parameter_type@?$positional_parameter_base@_WV?$string_output_adapter@_W@__crt_stdio_output@@@__crt_stdio_output@@CA?AW4parameter_type@12@I@Z 100311e0 f i libucrtd:output.obj
 0001:000301f0       ?get_parameter_type@?$positional_parameter_base@_WV?$string_output_adapter@_W@__crt_stdio_output@@@__crt_stdio_output@@CA?AW4parameter_type@12@U_CRT_DOUBLE@@@Z 100311f0 f i libucrtd:output.obj
 0001:00030200       ?get_parameter_type@?$positional_parameter_base@_WV?$string_output_adapter@_W@__crt_stdio_output@@@__crt_stdio_output@@CA?AW4parameter_type@12@_J@Z 10031200 f i libucrtd:output.obj
 0001:00030210       ?get_parameter_type@?$positional_parameter_base@_WV?$string_output_adapter@_W@__crt_stdio_output@@@__crt_stdio_output@@CA?AW4parameter_type@12@_K@Z 10031210 f i libucrtd:output.obj
 0001:00030220       ?get_parameter_type@?$positional_parameter_base@_WV?$string_output_adapter@_W@__crt_stdio_output@@@__crt_stdio_output@@CA?AW4parameter_type@12@_W@Z 10031220 f i libucrtd:output.obj
 0001:00030230       ?has_flag@?$output_processor@DV?$stream_output_adapter@D@__crt_stdio_output@@V?$format_validation_base@DV?$stream_output_adapter@D@__crt_stdio_output@@@2@@__crt_stdio_output@@ABE_NI@Z 10031230 f i libucrtd:output.obj
 0001:00030260       ?has_flag@?$output_processor@DV?$stream_output_adapter@D@__crt_stdio_output@@V?$positional_parameter_base@DV?$stream_output_adapter@D@__crt_stdio_output@@@2@@__crt_stdio_output@@ABE_NI@Z 10031260 f i libucrtd:output.obj
 0001:00030290       ?has_flag@?$output_processor@DV?$stream_output_adapter@D@__crt_stdio_output@@V?$standard_base@DV?$stream_output_adapter@D@__crt_stdio_output@@@2@@__crt_stdio_output@@ABE_NI@Z 10031290 f i libucrtd:output.obj
 0001:000302c0       ?has_flag@?$output_processor@DV?$string_output_adapter@D@__crt_stdio_output@@V?$format_validation_base@DV?$string_output_adapter@D@__crt_stdio_output@@@2@@__crt_stdio_output@@ABE_NI@Z 100312c0 f i libucrtd:output.obj
 0001:000302f0       ?has_flag@?$output_processor@DV?$string_output_adapter@D@__crt_stdio_output@@V?$positional_parameter_base@DV?$string_output_adapter@D@__crt_stdio_output@@@2@@__crt_stdio_output@@ABE_NI@Z 100312f0 f i libucrtd:output.obj
 0001:00030320       ?has_flag@?$output_processor@DV?$string_output_adapter@D@__crt_stdio_output@@V?$standard_base@DV?$string_output_adapter@D@__crt_stdio_output@@@2@@__crt_stdio_output@@ABE_NI@Z 10031320 f i libucrtd:output.obj
 0001:00030350       ?has_flag@?$output_processor@_WV?$stream_output_adapter@_W@__crt_stdio_output@@V?$format_validation_base@_WV?$stream_output_adapter@_W@__crt_stdio_output@@@2@@__crt_stdio_output@@ABE_NI@Z 10031350 f i libucrtd:output.obj
 0001:00030380       ?has_flag@?$output_processor@_WV?$stream_output_adapter@_W@__crt_stdio_output@@V?$positional_parameter_base@_WV?$stream_output_adapter@_W@__crt_stdio_output@@@2@@__crt_stdio_output@@ABE_NI@Z 10031380 f i libucrtd:output.obj
 0001:000303b0       ?has_flag@?$output_processor@_WV?$stream_output_adapter@_W@__crt_stdio_output@@V?$standard_base@_WV?$stream_output_adapter@_W@__crt_stdio_output@@@2@@__crt_stdio_output@@ABE_NI@Z 100313b0 f i libucrtd:output.obj
 0001:000303e0       ?has_flag@?$output_processor@_WV?$string_output_adapter@_W@__crt_stdio_output@@V?$format_validation_base@_WV?$string_output_adapter@_W@__crt_stdio_output@@@2@@__crt_stdio_output@@ABE_NI@Z 100313e0 f i libucrtd:output.obj
 0001:00030410       ?has_flag@?$output_processor@_WV?$string_output_adapter@_W@__crt_stdio_output@@V?$positional_parameter_base@_WV?$string_output_adapter@_W@__crt_stdio_output@@@2@@__crt_stdio_output@@ABE_NI@Z 10031410 f i libucrtd:output.obj
 0001:00030440       ?has_flag@?$output_processor@_WV?$string_output_adapter@_W@__crt_stdio_output@@V?$standard_base@_WV?$string_output_adapter@_W@__crt_stdio_output@@@2@@__crt_stdio_output@@ABE_NI@Z 10031440 f i libucrtd:output.obj
 0001:00030470       ?is_positional_parameter_reappearance_consistent@?$positional_parameter_base@DV?$stream_output_adapter@D@__crt_stdio_output@@@__crt_stdio_output@@AAE_NABUparameter_data@12@W4parameter_type@12@DW4length_modifier@2@@Z 10031470 f i libucrtd:output.obj
 0001:000306a0       ?is_positional_parameter_reappearance_consistent@?$positional_parameter_base@DV?$string_output_adapter@D@__crt_stdio_output@@@__crt_stdio_output@@AAE_NABUparameter_data@12@W4parameter_type@12@DW4length_modifier@2@@Z 100316a0 f i libucrtd:output.obj
 0001:000308d0       ?is_positional_parameter_reappearance_consistent@?$positional_parameter_base@_WV?$stream_output_adapter@_W@__crt_stdio_output@@@__crt_stdio_output@@AAE_NABUparameter_data@12@W4parameter_type@12@_WW4length_modifier@2@@Z 100318d0 f i libucrtd:output.obj
 0001:00030b00       ?is_positional_parameter_reappearance_consistent@?$positional_parameter_base@_WV?$string_output_adapter@_W@__crt_stdio_output@@@__crt_stdio_output@@AAE_NABUparameter_data@12@W4parameter_type@12@_WW4length_modifier@2@@Z 10031b00 f i libucrtd:output.obj
 0001:00030d30       ?is_string_backed@__crt_stdio_stream@@QBE_NXZ 10031d30 f i libucrtd:output.obj
 0001:00030d70       ?narrow_null_string@?$output_processor@DV?$stream_output_adapter@D@__crt_stdio_output@@V?$format_validation_base@DV?$stream_output_adapter@D@__crt_stdio_output@@@2@@__crt_stdio_output@@CAPADXZ 10031d70 f i libucrtd:output.obj
 0001:00030d80       ?narrow_null_string@?$output_processor@DV?$stream_output_adapter@D@__crt_stdio_output@@V?$positional_parameter_base@DV?$stream_output_adapter@D@__crt_stdio_output@@@2@@__crt_stdio_output@@CAPADXZ 10031d80 f i libucrtd:output.obj
 0001:00030d90       ?narrow_null_string@?$output_processor@DV?$stream_output_adapter@D@__crt_stdio_output@@V?$standard_base@DV?$stream_output_adapter@D@__crt_stdio_output@@@2@@__crt_stdio_output@@CAPADXZ 10031d90 f i libucrtd:output.obj
 0001:00030da0       ?narrow_null_string@?$output_processor@DV?$string_output_adapter@D@__crt_stdio_output@@V?$format_validation_base@DV?$string_output_adapter@D@__crt_stdio_output@@@2@@__crt_stdio_output@@CAPADXZ 10031da0 f i libucrtd:output.obj
 0001:00030db0       ?narrow_null_string@?$output_processor@DV?$string_output_adapter@D@__crt_stdio_output@@V?$positional_parameter_base@DV?$string_output_adapter@D@__crt_stdio_output@@@2@@__crt_stdio_output@@CAPADXZ 10031db0 f i libucrtd:output.obj
 0001:00030dc0       ?narrow_null_string@?$output_processor@DV?$string_output_adapter@D@__crt_stdio_output@@V?$standard_base@DV?$string_output_adapter@D@__crt_stdio_output@@@2@@__crt_stdio_output@@CAPADXZ 10031dc0 f i libucrtd:output.obj
 0001:00030dd0       ?narrow_null_string@?$output_processor@_WV?$stream_output_adapter@_W@__crt_stdio_output@@V?$format_validation_base@_WV?$stream_output_adapter@_W@__crt_stdio_output@@@2@@__crt_stdio_output@@CAPADXZ 10031dd0 f i libucrtd:output.obj
 0001:00030de0       ?narrow_null_string@?$output_processor@_WV?$stream_output_adapter@_W@__crt_stdio_output@@V?$positional_parameter_base@_WV?$stream_output_adapter@_W@__crt_stdio_output@@@2@@__crt_stdio_output@@CAPADXZ 10031de0 f i libucrtd:output.obj
 0001:00030df0       ?narrow_null_string@?$output_processor@_WV?$stream_output_adapter@_W@__crt_stdio_output@@V?$standard_base@_WV?$stream_output_adapter@_W@__crt_stdio_output@@@2@@__crt_stdio_output@@CAPADXZ 10031df0 f i libucrtd:output.obj
 0001:00030e00       ?narrow_null_string@?$output_processor@_WV?$string_output_adapter@_W@__crt_stdio_output@@V?$format_validation_base@_WV?$string_output_adapter@_W@__crt_stdio_output@@@2@@__crt_stdio_output@@CAPADXZ 10031e00 f i libucrtd:output.obj
 0001:00030e10       ?narrow_null_string@?$output_processor@_WV?$string_output_adapter@_W@__crt_stdio_output@@V?$positional_parameter_base@_WV?$string_output_adapter@_W@__crt_stdio_output@@@2@@__crt_stdio_output@@CAPADXZ 10031e10 f i libucrtd:output.obj
 0001:00030e20       ?narrow_null_string@?$output_processor@_WV?$string_output_adapter@_W@__crt_stdio_output@@V?$standard_base@_WV?$string_output_adapter@_W@__crt_stdio_output@@@2@@__crt_stdio_output@@CAPADXZ 10031e20 f i libucrtd:output.obj
 0001:00030e30       ?parse_int_from_format_string@?$output_processor@DV?$stream_output_adapter@D@__crt_stdio_output@@V?$format_validation_base@DV?$stream_output_adapter@D@__crt_stdio_output@@@2@@__crt_stdio_output@@AAE_NQAH@Z 10031e30 f i libucrtd:output.obj
 0001:00030ef0       ?parse_int_from_format_string@?$output_processor@DV?$stream_output_adapter@D@__crt_stdio_output@@V?$positional_parameter_base@DV?$stream_output_adapter@D@__crt_stdio_output@@@2@@__crt_stdio_output@@AAE_NQAH@Z 10031ef0 f i libucrtd:output.obj
 0001:00030fb0       ?parse_int_from_format_string@?$output_processor@DV?$stream_output_adapter@D@__crt_stdio_output@@V?$standard_base@DV?$stream_output_adapter@D@__crt_stdio_output@@@2@@__crt_stdio_output@@AAE_NQAH@Z 10031fb0 f i libucrtd:output.obj
 0001:00031070       ?parse_int_from_format_string@?$output_processor@DV?$string_output_adapter@D@__crt_stdio_output@@V?$format_validation_base@DV?$string_output_adapter@D@__crt_stdio_output@@@2@@__crt_stdio_output@@AAE_NQAH@Z 10032070 f i libucrtd:output.obj
 0001:00031130       ?parse_int_from_format_string@?$output_processor@DV?$string_output_adapter@D@__crt_stdio_output@@V?$positional_parameter_base@DV?$string_output_adapter@D@__crt_stdio_output@@@2@@__crt_stdio_output@@AAE_NQAH@Z 10032130 f i libucrtd:output.obj
 0001:000311f0       ?parse_int_from_format_string@?$output_processor@DV?$string_output_adapter@D@__crt_stdio_output@@V?$standard_base@DV?$string_output_adapter@D@__crt_stdio_output@@@2@@__crt_stdio_output@@AAE_NQAH@Z 100321f0 f i libucrtd:output.obj
 0001:000312b0       ?parse_int_from_format_string@?$output_processor@_WV?$stream_output_adapter@_W@__crt_stdio_output@@V?$format_validation_base@_WV?$stream_output_adapter@_W@__crt_stdio_output@@@2@@__crt_stdio_output@@AAE_NQAH@Z 100322b0 f i libucrtd:output.obj
 0001:00031370       ?parse_int_from_format_string@?$output_processor@_WV?$stream_output_adapter@_W@__crt_stdio_output@@V?$positional_parameter_base@_WV?$stream_output_adapter@_W@__crt_stdio_output@@@2@@__crt_stdio_output@@AAE_NQAH@Z 10032370 f i libucrtd:output.obj
 0001:00031430       ?parse_int_from_format_string@?$output_processor@_WV?$stream_output_adapter@_W@__crt_stdio_output@@V?$standard_base@_WV?$stream_output_adapter@_W@__crt_stdio_output@@@2@@__crt_stdio_output@@AAE_NQAH@Z 10032430 f i libucrtd:output.obj
 0001:000314f0       ?parse_int_from_format_string@?$output_processor@_WV?$string_output_adapter@_W@__crt_stdio_output@@V?$format_validation_base@_WV?$string_output_adapter@_W@__crt_stdio_output@@@2@@__crt_stdio_output@@AAE_NQAH@Z 100324f0 f i libucrtd:output.obj
 0001:000315b0       ?parse_int_from_format_string@?$output_processor@_WV?$string_output_adapter@_W@__crt_stdio_output@@V?$positional_parameter_base@_WV?$string_output_adapter@_W@__crt_stdio_output@@@2@@__crt_stdio_output@@AAE_NQAH@Z 100325b0 f i libucrtd:output.obj
 0001:00031670       ?parse_int_from_format_string@?$output_processor@_WV?$string_output_adapter@_W@__crt_stdio_output@@V?$standard_base@_WV?$string_output_adapter@_W@__crt_stdio_output@@@2@@__crt_stdio_output@@AAE_NQAH@Z 10032670 f i libucrtd:output.obj
 0001:00031730       ?process@?$output_processor@DV?$stream_output_adapter@D@__crt_stdio_output@@V?$format_validation_base@DV?$stream_output_adapter@D@__crt_stdio_output@@@2@@__crt_stdio_output@@QAEHXZ 10032730 f i libucrtd:output.obj
 0001:000319e0       ?process@?$output_processor@DV?$stream_output_adapter@D@__crt_stdio_output@@V?$positional_parameter_base@DV?$stream_output_adapter@D@__crt_stdio_output@@@2@@__crt_stdio_output@@QAEHXZ 100329e0 f i libucrtd:output.obj
 0001:00031c90       ?process@?$output_processor@DV?$stream_output_adapter@D@__crt_stdio_output@@V?$standard_base@DV?$stream_output_adapter@D@__crt_stdio_output@@@2@@__crt_stdio_output@@QAEHXZ 10032c90 f i libucrtd:output.obj
 0001:00031f40       ?process@?$output_processor@DV?$string_output_adapter@D@__crt_stdio_output@@V?$format_validation_base@DV?$string_output_adapter@D@__crt_stdio_output@@@2@@__crt_stdio_output@@QAEHXZ 10032f40 f i libucrtd:output.obj
 0001:000321f0       ?process@?$output_processor@DV?$string_output_adapter@D@__crt_stdio_output@@V?$positional_parameter_base@DV?$string_output_adapter@D@__crt_stdio_output@@@2@@__crt_stdio_output@@QAEHXZ 100331f0 f i libucrtd:output.obj
 0001:000324a0       ?process@?$output_processor@DV?$string_output_adapter@D@__crt_stdio_output@@V?$standard_base@DV?$string_output_adapter@D@__crt_stdio_output@@@2@@__crt_stdio_output@@QAEHXZ 100334a0 f i libucrtd:output.obj
 0001:00032750       ?process@?$output_processor@_WV?$stream_output_adapter@_W@__crt_stdio_output@@V?$format_validation_base@_WV?$stream_output_adapter@_W@__crt_stdio_output@@@2@@__crt_stdio_output@@QAEHXZ 10033750 f i libucrtd:output.obj
 0001:00032a00       ?process@?$output_processor@_WV?$stream_output_adapter@_W@__crt_stdio_output@@V?$positional_parameter_base@_WV?$stream_output_adapter@_W@__crt_stdio_output@@@2@@__crt_stdio_output@@QAEHXZ 10033a00 f i libucrtd:output.obj
 0001:00032cb0       ?process@?$output_processor@_WV?$stream_output_adapter@_W@__crt_stdio_output@@V?$standard_base@_WV?$stream_output_adapter@_W@__crt_stdio_output@@@2@@__crt_stdio_output@@QAEHXZ 10033cb0 f i libucrtd:output.obj
 0001:00032f60       ?process@?$output_processor@_WV?$string_output_adapter@_W@__crt_stdio_output@@V?$format_validation_base@_WV?$string_output_adapter@_W@__crt_stdio_output@@@2@@__crt_stdio_output@@QAEHXZ 10033f60 f i libucrtd:output.obj
 0001:00033210       ?process@?$output_processor@_WV?$string_output_adapter@_W@__crt_stdio_output@@V?$positional_parameter_base@_WV?$string_output_adapter@_W@__crt_stdio_output@@@2@@__crt_stdio_output@@QAEHXZ 10034210 f i libucrtd:output.obj
 0001:000334c0       ?process@?$output_processor@_WV?$string_output_adapter@_W@__crt_stdio_output@@V?$standard_base@_WV?$string_output_adapter@_W@__crt_stdio_output@@@2@@__crt_stdio_output@@QAEHXZ 100344c0 f i libucrtd:output.obj
 0001:00033770       ?public_stream@__crt_stdio_stream@@QBEPAU_iobuf@@XZ 10034770 f i libucrtd:output.obj
 0001:00033790       ?set_flag@?$output_processor@DV?$stream_output_adapter@D@__crt_stdio_output@@V?$format_validation_base@DV?$stream_output_adapter@D@__crt_stdio_output@@@2@@__crt_stdio_output@@AAEXI@Z 10034790 f i libucrtd:output.obj
 0001:000337b0       ?set_flag@?$output_processor@DV?$stream_output_adapter@D@__crt_stdio_output@@V?$positional_parameter_base@DV?$stream_output_adapter@D@__crt_stdio_output@@@2@@__crt_stdio_output@@AAEXI@Z 100347b0 f i libucrtd:output.obj
 0001:000337d0       ?set_flag@?$output_processor@DV?$stream_output_adapter@D@__crt_stdio_output@@V?$standard_base@DV?$stream_output_adapter@D@__crt_stdio_output@@@2@@__crt_stdio_output@@AAEXI@Z 100347d0 f i libucrtd:output.obj
 0001:000337f0       ?set_flag@?$output_processor@DV?$string_output_adapter@D@__crt_stdio_output@@V?$format_validation_base@DV?$string_output_adapter@D@__crt_stdio_output@@@2@@__crt_stdio_output@@AAEXI@Z 100347f0 f i libucrtd:output.obj
 0001:00033810       ?set_flag@?$output_processor@DV?$string_output_adapter@D@__crt_stdio_output@@V?$positional_parameter_base@DV?$string_output_adapter@D@__crt_stdio_output@@@2@@__crt_stdio_output@@AAEXI@Z 10034810 f i libucrtd:output.obj
 0001:00033830       ?set_flag@?$output_processor@DV?$string_output_adapter@D@__crt_stdio_output@@V?$standard_base@DV?$string_output_adapter@D@__crt_stdio_output@@@2@@__crt_stdio_output@@AAEXI@Z 10034830 f i libucrtd:output.obj
 0001:00033850       ?set_flag@?$output_processor@_WV?$stream_output_adapter@_W@__crt_stdio_output@@V?$format_validation_base@_WV?$stream_output_adapter@_W@__crt_stdio_output@@@2@@__crt_stdio_output@@AAEXI@Z 10034850 f i libucrtd:output.obj
 0001:00033870       ?set_flag@?$output_processor@_WV?$stream_output_adapter@_W@__crt_stdio_output@@V?$positional_parameter_base@_WV?$stream_output_adapter@_W@__crt_stdio_output@@@2@@__crt_stdio_output@@AAEXI@Z 10034870 f i libucrtd:output.obj
 0001:00033890       ?set_flag@?$output_processor@_WV?$stream_output_adapter@_W@__crt_stdio_output@@V?$standard_base@_WV?$stream_output_adapter@_W@__crt_stdio_output@@@2@@__crt_stdio_output@@AAEXI@Z 10034890 f i libucrtd:output.obj
 0001:000338b0       ?set_flag@?$output_processor@_WV?$string_output_adapter@_W@__crt_stdio_output@@V?$format_validation_base@_WV?$string_output_adapter@_W@__crt_stdio_output@@@2@@__crt_stdio_output@@AAEXI@Z 100348b0 f i libucrtd:output.obj
 0001:000338d0       ?set_flag@?$output_processor@_WV?$string_output_adapter@_W@__crt_stdio_output@@V?$positional_parameter_base@_WV?$string_output_adapter@_W@__crt_stdio_output@@@2@@__crt_stdio_output@@AAEXI@Z 100348d0 f i libucrtd:output.obj
 0001:000338f0       ?set_flag@?$output_processor@_WV?$string_output_adapter@_W@__crt_stdio_output@@V?$standard_base@_WV?$string_output_adapter@_W@__crt_stdio_output@@@2@@__crt_stdio_output@@AAEXI@Z 100348f0 f i libucrtd:output.obj
 0001:00033910       ?should_format@?$positional_parameter_base@DV?$stream_output_adapter@D@__crt_stdio_output@@@__crt_stdio_output@@IAE_NXZ 10034910 f i libucrtd:output.obj
 0001:00033950       ?should_format@?$positional_parameter_base@DV?$string_output_adapter@D@__crt_stdio_output@@@__crt_stdio_output@@IAE_NXZ 10034950 f i libucrtd:output.obj
 0001:00033990       ?should_format@?$positional_parameter_base@_WV?$stream_output_adapter@_W@__crt_stdio_output@@@__crt_stdio_output@@IAE_NXZ 10034990 f i libucrtd:output.obj
 0001:000339d0       ?should_format@?$positional_parameter_base@_WV?$string_output_adapter@_W@__crt_stdio_output@@@__crt_stdio_output@@IAE_NXZ 100349d0 f i libucrtd:output.obj
 0001:00033a10       ?should_format@?$standard_base@DV?$stream_output_adapter@D@__crt_stdio_output@@@__crt_stdio_output@@IAE_NXZ 10034a10 f i libucrtd:output.obj
 0001:00033a20       ?should_format@?$standard_base@DV?$string_output_adapter@D@__crt_stdio_output@@@__crt_stdio_output@@IAE_NXZ 10034a20 f i libucrtd:output.obj
 0001:00033a30       ?should_format@?$standard_base@_WV?$stream_output_adapter@_W@__crt_stdio_output@@@__crt_stdio_output@@IAE_NXZ 10034a30 f i libucrtd:output.obj
 0001:00033a40       ?should_format@?$standard_base@_WV?$string_output_adapter@_W@__crt_stdio_output@@@__crt_stdio_output@@IAE_NXZ 10034a40 f i libucrtd:output.obj
 0001:00033a50       ?should_skip_normal_state_processing@?$positional_parameter_base@DV?$stream_output_adapter@D@__crt_stdio_output@@@__crt_stdio_output@@IAE_NXZ 10034a50 f i libucrtd:output.obj
 0001:00033aa0       ?should_skip_normal_state_processing@?$positional_parameter_base@DV?$string_output_adapter@D@__crt_stdio_output@@@__crt_stdio_output@@IAE_NXZ 10034aa0 f i libucrtd:output.obj
 0001:00033af0       ?should_skip_normal_state_processing@?$positional_parameter_base@_WV?$stream_output_adapter@_W@__crt_stdio_output@@@__crt_stdio_output@@IAE_NXZ 10034af0 f i libucrtd:output.obj
 0001:00033b40       ?should_skip_normal_state_processing@?$positional_parameter_base@_WV?$string_output_adapter@_W@__crt_stdio_output@@@__crt_stdio_output@@IAE_NXZ 10034b40 f i libucrtd:output.obj
 0001:00033b90       ?should_skip_normal_state_processing@?$standard_base@DV?$stream_output_adapter@D@__crt_stdio_output@@@__crt_stdio_output@@IAE_NXZ 10034b90 f i libucrtd:output.obj
 0001:00033ba0       ?should_skip_normal_state_processing@?$standard_base@DV?$string_output_adapter@D@__crt_stdio_output@@@__crt_stdio_output@@IAE_NXZ 10034ba0 f i libucrtd:output.obj
 0001:00033bb0       ?should_skip_normal_state_processing@?$standard_base@_WV?$stream_output_adapter@_W@__crt_stdio_output@@@__crt_stdio_output@@IAE_NXZ 10034bb0 f i libucrtd:output.obj
 0001:00033bc0       ?should_skip_normal_state_processing@?$standard_base@_WV?$string_output_adapter@_W@__crt_stdio_output@@@__crt_stdio_output@@IAE_NXZ 10034bc0 f i libucrtd:output.obj
 0001:00033bd0       ?should_skip_type_state_output@?$positional_parameter_base@DV?$stream_output_adapter@D@__crt_stdio_output@@@__crt_stdio_output@@IBE_NXZ 10034bd0 f i libucrtd:output.obj
 0001:00033c10       ?should_skip_type_state_output@?$positional_parameter_base@DV?$string_output_adapter@D@__crt_stdio_output@@@__crt_stdio_output@@IBE_NXZ 10034c10 f i libucrtd:output.obj
 0001:00033c50       ?should_skip_type_state_output@?$positional_parameter_base@_WV?$stream_output_adapter@_W@__crt_stdio_output@@@__crt_stdio_output@@IBE_NXZ 10034c50 f i libucrtd:output.obj
 0001:00033c90       ?should_skip_type_state_output@?$positional_parameter_base@_WV?$string_output_adapter@_W@__crt_stdio_output@@@__crt_stdio_output@@IBE_NXZ 10034c90 f i libucrtd:output.obj
 0001:00033cd0       ?should_skip_type_state_output@?$standard_base@DV?$stream_output_adapter@D@__crt_stdio_output@@@__crt_stdio_output@@IBE_NXZ 10034cd0 f i libucrtd:output.obj
 0001:00033ce0       ?should_skip_type_state_output@?$standard_base@DV?$string_output_adapter@D@__crt_stdio_output@@@__crt_stdio_output@@IBE_NXZ 10034ce0 f i libucrtd:output.obj
 0001:00033cf0       ?should_skip_type_state_output@?$standard_base@_WV?$stream_output_adapter@_W@__crt_stdio_output@@@__crt_stdio_output@@IBE_NXZ 10034cf0 f i libucrtd:output.obj
 0001:00033d00       ?should_skip_type_state_output@?$standard_base@_WV?$string_output_adapter@_W@__crt_stdio_output@@@__crt_stdio_output@@IBE_NXZ 10034d00 f i libucrtd:output.obj
 0001:00033d10       ?state_case_dot@?$output_processor@DV?$stream_output_adapter@D@__crt_stdio_output@@V?$format_validation_base@DV?$stream_output_adapter@D@__crt_stdio_output@@@2@@__crt_stdio_output@@AAE_NXZ 10034d10 f i libucrtd:output.obj
 0001:00033d30       ?state_case_dot@?$output_processor@DV?$stream_output_adapter@D@__crt_stdio_output@@V?$positional_parameter_base@DV?$stream_output_adapter@D@__crt_stdio_output@@@2@@__crt_stdio_output@@AAE_NXZ 10034d30 f i libucrtd:output.obj
 0001:00033d50       ?state_case_dot@?$output_processor@DV?$stream_output_adapter@D@__crt_stdio_output@@V?$standard_base@DV?$stream_output_adapter@D@__crt_stdio_output@@@2@@__crt_stdio_output@@AAE_NXZ 10034d50 f i libucrtd:output.obj
 0001:00033d70       ?state_case_dot@?$output_processor@DV?$string_output_adapter@D@__crt_stdio_output@@V?$format_validation_base@DV?$string_output_adapter@D@__crt_stdio_output@@@2@@__crt_stdio_output@@AAE_NXZ 10034d70 f i libucrtd:output.obj
 0001:00033d90       ?state_case_dot@?$output_processor@DV?$string_output_adapter@D@__crt_stdio_output@@V?$positional_parameter_base@DV?$string_output_adapter@D@__crt_stdio_output@@@2@@__crt_stdio_output@@AAE_NXZ 10034d90 f i libucrtd:output.obj
 0001:00033db0       ?state_case_dot@?$output_processor@DV?$string_output_adapter@D@__crt_stdio_output@@V?$standard_base@DV?$string_output_adapter@D@__crt_stdio_output@@@2@@__crt_stdio_output@@AAE_NXZ 10034db0 f i libucrtd:output.obj
 0001:00033dd0       ?state_case_dot@?$output_processor@_WV?$stream_output_adapter@_W@__crt_stdio_output@@V?$format_validation_base@_WV?$stream_output_adapter@_W@__crt_stdio_output@@@2@@__crt_stdio_output@@AAE_NXZ 10034dd0 f i libucrtd:output.obj
 0001:00033df0       ?state_case_dot@?$output_processor@_WV?$stream_output_adapter@_W@__crt_stdio_output@@V?$positional_parameter_base@_WV?$stream_output_adapter@_W@__crt_stdio_output@@@2@@__crt_stdio_output@@AAE_NXZ 10034df0 f i libucrtd:output.obj
 0001:00033e10       ?state_case_dot@?$output_processor@_WV?$stream_output_adapter@_W@__crt_stdio_output@@V?$standard_base@_WV?$stream_output_adapter@_W@__crt_stdio_output@@@2@@__crt_stdio_output@@AAE_NXZ 10034e10 f i libucrtd:output.obj
 0001:00033e30       ?state_case_dot@?$output_processor@_WV?$string_output_adapter@_W@__crt_stdio_output@@V?$format_validation_base@_WV?$string_output_adapter@_W@__crt_stdio_output@@@2@@__crt_stdio_output@@AAE_NXZ 10034e30 f i libucrtd:output.obj
 0001:00033e50       ?state_case_dot@?$output_processor@_WV?$string_output_adapter@_W@__crt_stdio_output@@V?$positional_parameter_base@_WV?$string_output_adapter@_W@__crt_stdio_output@@@2@@__crt_stdio_output@@AAE_NXZ 10034e50 f i libucrtd:output.obj
 0001:00033e70       ?state_case_dot@?$output_processor@_WV?$string_output_adapter@_W@__crt_stdio_output@@V?$standard_base@_WV?$string_output_adapter@_W@__crt_stdio_output@@@2@@__crt_stdio_output@@AAE_NXZ 10034e70 f i libucrtd:output.obj
 0001:00033e90       ?state_case_flag@?$output_processor@DV?$stream_output_adapter@D@__crt_stdio_output@@V?$format_validation_base@DV?$stream_output_adapter@D@__crt_stdio_output@@@2@@__crt_stdio_output@@AAE_NXZ 10034e90 f i libucrtd:output.obj
 0001:00033f40       ?state_case_flag@?$output_processor@DV?$stream_output_adapter@D@__crt_stdio_output@@V?$positional_parameter_base@DV?$stream_output_adapter@D@__crt_stdio_output@@@2@@__crt_stdio_output@@AAE_NXZ 10034f40 f i libucrtd:output.obj
 0001:00033ff0       ?state_case_flag@?$output_processor@DV?$stream_output_adapter@D@__crt_stdio_output@@V?$standard_base@DV?$stream_output_adapter@D@__crt_stdio_output@@@2@@__crt_stdio_output@@AAE_NXZ 10034ff0 f i libucrtd:output.obj
 0001:000340a0       ?state_case_flag@?$output_processor@DV?$string_output_adapter@D@__crt_stdio_output@@V?$format_validation_base@DV?$string_output_adapter@D@__crt_stdio_output@@@2@@__crt_stdio_output@@AAE_NXZ 100350a0 f i libucrtd:output.obj
 0001:00034150       ?state_case_flag@?$output_processor@DV?$string_output_adapter@D@__crt_stdio_output@@V?$positional_parameter_base@DV?$string_output_adapter@D@__crt_stdio_output@@@2@@__crt_stdio_output@@AAE_NXZ 10035150 f i libucrtd:output.obj
 0001:00034200       ?state_case_flag@?$output_processor@DV?$string_output_adapter@D@__crt_stdio_output@@V?$standard_base@DV?$string_output_adapter@D@__crt_stdio_output@@@2@@__crt_stdio_output@@AAE_NXZ 10035200 f i libucrtd:output.obj
 0001:000342b0       ?state_case_flag@?$output_processor@_WV?$stream_output_adapter@_W@__crt_stdio_output@@V?$format_validation_base@_WV?$stream_output_adapter@_W@__crt_stdio_output@@@2@@__crt_stdio_output@@AAE_NXZ 100352b0 f i libucrtd:output.obj
 0001:00034360       ?state_case_flag@?$output_processor@_WV?$stream_output_adapter@_W@__crt_stdio_output@@V?$positional_parameter_base@_WV?$stream_output_adapter@_W@__crt_stdio_output@@@2@@__crt_stdio_output@@AAE_NXZ 10035360 f i libucrtd:output.obj
 0001:00034410       ?state_case_flag@?$output_processor@_WV?$stream_output_adapter@_W@__crt_stdio_output@@V?$standard_base@_WV?$stream_output_adapter@_W@__crt_stdio_output@@@2@@__crt_stdio_output@@AAE_NXZ 10035410 f i libucrtd:output.obj
 0001:000344c0       ?state_case_flag@?$output_processor@_WV?$string_output_adapter@_W@__crt_stdio_output@@V?$format_validation_base@_WV?$string_output_adapter@_W@__crt_stdio_output@@@2@@__crt_stdio_output@@AAE_NXZ 100354c0 f i libucrtd:output.obj
 0001:00034570       ?state_case_flag@?$output_processor@_WV?$string_output_adapter@_W@__crt_stdio_output@@V?$positional_parameter_base@_WV?$string_output_adapter@_W@__crt_stdio_output@@@2@@__crt_stdio_output@@AAE_NXZ 10035570 f i libucrtd:output.obj
 0001:00034620       ?state_case_flag@?$output_processor@_WV?$string_output_adapter@_W@__crt_stdio_output@@V?$standard_base@_WV?$string_output_adapter@_W@__crt_stdio_output@@@2@@__crt_stdio_output@@AAE_NXZ 10035620 f i libucrtd:output.obj
 0001:000346d0       ?state_case_normal@?$output_processor@DV?$stream_output_adapter@D@__crt_stdio_output@@V?$format_validation_base@DV?$stream_output_adapter@D@__crt_stdio_output@@@2@@__crt_stdio_output@@AAE_NXZ 100356d0 f i libucrtd:output.obj
 0001:00034780       ?state_case_normal@?$output_processor@DV?$stream_output_adapter@D@__crt_stdio_output@@V?$positional_parameter_base@DV?$stream_output_adapter@D@__crt_stdio_output@@@2@@__crt_stdio_output@@AAE_NXZ 10035780 f i libucrtd:output.obj
 0001:00034830       ?state_case_normal@?$output_processor@DV?$stream_output_adapter@D@__crt_stdio_output@@V?$standard_base@DV?$stream_output_adapter@D@__crt_stdio_output@@@2@@__crt_stdio_output@@AAE_NXZ 10035830 f i libucrtd:output.obj
 0001:000348e0       ?state_case_normal@?$output_processor@DV?$string_output_adapter@D@__crt_stdio_output@@V?$format_validation_base@DV?$string_output_adapter@D@__crt_stdio_output@@@2@@__crt_stdio_output@@AAE_NXZ 100358e0 f i libucrtd:output.obj
 0001:00034990       ?state_case_normal@?$output_processor@DV?$string_output_adapter@D@__crt_stdio_output@@V?$positional_parameter_base@DV?$string_output_adapter@D@__crt_stdio_output@@@2@@__crt_stdio_output@@AAE_NXZ 10035990 f i libucrtd:output.obj
 0001:00034a40       ?state_case_normal@?$output_processor@DV?$string_output_adapter@D@__crt_stdio_output@@V?$standard_base@DV?$string_output_adapter@D@__crt_stdio_output@@@2@@__crt_stdio_output@@AAE_NXZ 10035a40 f i libucrtd:output.obj
 0001:00034af0       ?state_case_normal@?$output_processor@_WV?$stream_output_adapter@_W@__crt_stdio_output@@V?$format_validation_base@_WV?$stream_output_adapter@_W@__crt_stdio_output@@@2@@__crt_stdio_output@@AAE_NXZ 10035af0 f i libucrtd:output.obj
 0001:00034ba0       ?state_case_normal@?$output_processor@_WV?$stream_output_adapter@_W@__crt_stdio_output@@V?$positional_parameter_base@_WV?$stream_output_adapter@_W@__crt_stdio_output@@@2@@__crt_stdio_output@@AAE_NXZ 10035ba0 f i libucrtd:output.obj
 0001:00034c50       ?state_case_normal@?$output_processor@_WV?$stream_output_adapter@_W@__crt_stdio_output@@V?$standard_base@_WV?$stream_output_adapter@_W@__crt_stdio_output@@@2@@__crt_stdio_output@@AAE_NXZ 10035c50 f i libucrtd:output.obj
 0001:00034d00       ?state_case_normal@?$output_processor@_WV?$string_output_adapter@_W@__crt_stdio_output@@V?$format_validation_base@_WV?$string_output_adapter@_W@__crt_stdio_output@@@2@@__crt_stdio_output@@AAE_NXZ 10035d00 f i libucrtd:output.obj
 0001:00034db0       ?state_case_normal@?$output_processor@_WV?$string_output_adapter@_W@__crt_stdio_output@@V?$positional_parameter_base@_WV?$string_output_adapter@_W@__crt_stdio_output@@@2@@__crt_stdio_output@@AAE_NXZ 10035db0 f i libucrtd:output.obj
 0001:00034e60       ?state_case_normal@?$output_processor@_WV?$string_output_adapter@_W@__crt_stdio_output@@V?$standard_base@_WV?$string_output_adapter@_W@__crt_stdio_output@@@2@@__crt_stdio_output@@AAE_NXZ 10035e60 f i libucrtd:output.obj
 0001:00034f10       ?state_case_normal_common@?$output_processor@DV?$stream_output_adapter@D@__crt_stdio_output@@V?$format_validation_base@DV?$stream_output_adapter@D@__crt_stdio_output@@@2@@__crt_stdio_output@@AAE_NXZ 10035f10 f i libucrtd:output.obj
 0001:00034f60       ?state_case_normal_common@?$output_processor@DV?$stream_output_adapter@D@__crt_stdio_output@@V?$positional_parameter_base@DV?$stream_output_adapter@D@__crt_stdio_output@@@2@@__crt_stdio_output@@AAE_NXZ 10035f60 f i libucrtd:output.obj
 0001:00034fb0       ?state_case_normal_common@?$output_processor@DV?$stream_output_adapter@D@__crt_stdio_output@@V?$standard_base@DV?$stream_output_adapter@D@__crt_stdio_output@@@2@@__crt_stdio_output@@AAE_NXZ 10035fb0 f i libucrtd:output.obj
 0001:00035000       ?state_case_normal_common@?$output_processor@DV?$string_output_adapter@D@__crt_stdio_output@@V?$format_validation_base@DV?$string_output_adapter@D@__crt_stdio_output@@@2@@__crt_stdio_output@@AAE_NXZ 10036000 f i libucrtd:output.obj
 0001:00035050       ?state_case_normal_common@?$output_processor@DV?$string_output_adapter@D@__crt_stdio_output@@V?$positional_parameter_base@DV?$string_output_adapter@D@__crt_stdio_output@@@2@@__crt_stdio_output@@AAE_NXZ 10036050 f i libucrtd:output.obj
 0001:000350a0       ?state_case_normal_common@?$output_processor@DV?$string_output_adapter@D@__crt_stdio_output@@V?$standard_base@DV?$string_output_adapter@D@__crt_stdio_output@@@2@@__crt_stdio_output@@AAE_NXZ 100360a0 f i libucrtd:output.obj
 0001:000350f0       ?state_case_normal_common@?$output_processor@_WV?$stream_output_adapter@_W@__crt_stdio_output@@V?$format_validation_base@_WV?$stream_output_adapter@_W@__crt_stdio_output@@@2@@__crt_stdio_output@@AAE_NXZ 100360f0 f i libucrtd:output.obj
 0001:00035140       ?state_case_normal_common@?$output_processor@_WV?$stream_output_adapter@_W@__crt_stdio_output@@V?$positional_parameter_base@_WV?$stream_output_adapter@_W@__crt_stdio_output@@@2@@__crt_stdio_output@@AAE_NXZ 10036140 f i libucrtd:output.obj
 0001:00035190       ?state_case_normal_common@?$output_processor@_WV?$stream_output_adapter@_W@__crt_stdio_output@@V?$standard_base@_WV?$stream_output_adapter@_W@__crt_stdio_output@@@2@@__crt_stdio_output@@AAE_NXZ 10036190 f i libucrtd:output.obj
 0001:000351e0       ?state_case_normal_common@?$output_processor@_WV?$string_output_adapter@_W@__crt_stdio_output@@V?$format_validation_base@_WV?$string_output_adapter@_W@__crt_stdio_output@@@2@@__crt_stdio_output@@AAE_NXZ 100361e0 f i libucrtd:output.obj
 0001:00035230       ?state_case_normal_common@?$output_processor@_WV?$string_output_adapter@_W@__crt_stdio_output@@V?$positional_parameter_base@_WV?$string_output_adapter@_W@__crt_stdio_output@@@2@@__crt_stdio_output@@AAE_NXZ 10036230 f i libucrtd:output.obj
 0001:00035280       ?state_case_normal_common@?$output_processor@_WV?$string_output_adapter@_W@__crt_stdio_output@@V?$standard_base@_WV?$string_output_adapter@_W@__crt_stdio_output@@@2@@__crt_stdio_output@@AAE_NXZ 10036280 f i libucrtd:output.obj
 0001:000352d0       ?state_case_normal_tchar@?$output_processor@DV?$stream_output_adapter@D@__crt_stdio_output@@V?$format_validation_base@DV?$stream_output_adapter@D@__crt_stdio_output@@@2@@__crt_stdio_output@@AAE_ND@Z 100362d0 f i libucrtd:output.obj
 0001:000353d0       ?state_case_normal_tchar@?$output_processor@DV?$stream_output_adapter@D@__crt_stdio_output@@V?$positional_parameter_base@DV?$stream_output_adapter@D@__crt_stdio_output@@@2@@__crt_stdio_output@@AAE_ND@Z 100363d0 f i libucrtd:output.obj
 0001:000354d0       ?state_case_normal_tchar@?$output_processor@DV?$stream_output_adapter@D@__crt_stdio_output@@V?$standard_base@DV?$stream_output_adapter@D@__crt_stdio_output@@@2@@__crt_stdio_output@@AAE_ND@Z 100364d0 f i libucrtd:output.obj
 0001:000355d0       ?state_case_normal_tchar@?$output_processor@DV?$string_output_adapter@D@__crt_stdio_output@@V?$format_validation_base@DV?$string_output_adapter@D@__crt_stdio_output@@@2@@__crt_stdio_output@@AAE_ND@Z 100365d0 f i libucrtd:output.obj
 0001:000356d0       ?state_case_normal_tchar@?$output_processor@DV?$string_output_adapter@D@__crt_stdio_output@@V?$positional_parameter_base@DV?$string_output_adapter@D@__crt_stdio_output@@@2@@__crt_stdio_output@@AAE_ND@Z 100366d0 f i libucrtd:output.obj
 0001:000357d0       ?state_case_normal_tchar@?$output_processor@DV?$string_output_adapter@D@__crt_stdio_output@@V?$standard_base@DV?$string_output_adapter@D@__crt_stdio_output@@@2@@__crt_stdio_output@@AAE_ND@Z 100367d0 f i libucrtd:output.obj
 0001:000358d0       ?state_case_normal_tchar@?$output_processor@_WV?$stream_output_adapter@_W@__crt_stdio_output@@V?$format_validation_base@_WV?$stream_output_adapter@_W@__crt_stdio_output@@@2@@__crt_stdio_output@@AAE_N_W@Z 100368d0 f i libucrtd:output.obj
 0001:000358f0       ?state_case_normal_tchar@?$output_processor@_WV?$stream_output_adapter@_W@__crt_stdio_output@@V?$positional_parameter_base@_WV?$stream_output_adapter@_W@__crt_stdio_output@@@2@@__crt_stdio_output@@AAE_N_W@Z 100368f0 f i libucrtd:output.obj
 0001:00035910       ?state_case_normal_tchar@?$output_processor@_WV?$stream_output_adapter@_W@__crt_stdio_output@@V?$standard_base@_WV?$stream_output_adapter@_W@__crt_stdio_output@@@2@@__crt_stdio_output@@AAE_N_W@Z 10036910 f i libucrtd:output.obj
 0001:00035930       ?state_case_normal_tchar@?$output_processor@_WV?$string_output_adapter@_W@__crt_stdio_output@@V?$format_validation_base@_WV?$string_output_adapter@_W@__crt_stdio_output@@@2@@__crt_stdio_output@@AAE_N_W@Z 10036930 f i libucrtd:output.obj
 0001:00035950       ?state_case_normal_tchar@?$output_processor@_WV?$string_output_adapter@_W@__crt_stdio_output@@V?$positional_parameter_base@_WV?$string_output_adapter@_W@__crt_stdio_output@@@2@@__crt_stdio_output@@AAE_N_W@Z 10036950 f i libucrtd:output.obj
 0001:00035970       ?state_case_normal_tchar@?$output_processor@_WV?$string_output_adapter@_W@__crt_stdio_output@@V?$standard_base@_WV?$string_output_adapter@_W@__crt_stdio_output@@@2@@__crt_stdio_output@@AAE_N_W@Z 10036970 f i libucrtd:output.obj
 0001:00035990       ?state_case_percent@?$output_processor@DV?$stream_output_adapter@D@__crt_stdio_output@@V?$format_validation_base@DV?$stream_output_adapter@D@__crt_stdio_output@@@2@@__crt_stdio_output@@AAE_NXZ 10036990 f i libucrtd:output.obj
 0001:000359e0       ?state_case_percent@?$output_processor@DV?$stream_output_adapter@D@__crt_stdio_output@@V?$positional_parameter_base@DV?$stream_output_adapter@D@__crt_stdio_output@@@2@@__crt_stdio_output@@AAE_NXZ 100369e0 f i libucrtd:output.obj
 0001:00035a30       ?state_case_percent@?$output_processor@DV?$stream_output_adapter@D@__crt_stdio_output@@V?$standard_base@DV?$stream_output_adapter@D@__crt_stdio_output@@@2@@__crt_stdio_output@@AAE_NXZ 10036a30 f i libucrtd:output.obj
 0001:00035a80       ?state_case_percent@?$output_processor@DV?$string_output_adapter@D@__crt_stdio_output@@V?$format_validation_base@DV?$string_output_adapter@D@__crt_stdio_output@@@2@@__crt_stdio_output@@AAE_NXZ 10036a80 f i libucrtd:output.obj
 0001:00035ad0       ?state_case_percent@?$output_processor@DV?$string_output_adapter@D@__crt_stdio_output@@V?$positional_parameter_base@DV?$string_output_adapter@D@__crt_stdio_output@@@2@@__crt_stdio_output@@AAE_NXZ 10036ad0 f i libucrtd:output.obj
 0001:00035b20       ?state_case_percent@?$output_processor@DV?$string_output_adapter@D@__crt_stdio_output@@V?$standard_base@DV?$string_output_adapter@D@__crt_stdio_output@@@2@@__crt_stdio_output@@AAE_NXZ 10036b20 f i libucrtd:output.obj
 0001:00035b70       ?state_case_percent@?$output_processor@_WV?$stream_output_adapter@_W@__crt_stdio_output@@V?$format_validation_base@_WV?$stream_output_adapter@_W@__crt_stdio_output@@@2@@__crt_stdio_output@@AAE_NXZ 10036b70 f i libucrtd:output.obj
 0001:00035bc0       ?state_case_percent@?$output_processor@_WV?$stream_output_adapter@_W@__crt_stdio_output@@V?$positional_parameter_base@_WV?$stream_output_adapter@_W@__crt_stdio_output@@@2@@__crt_stdio_output@@AAE_NXZ 10036bc0 f i libucrtd:output.obj
 0001:00035c10       ?state_case_percent@?$output_processor@_WV?$stream_output_adapter@_W@__crt_stdio_output@@V?$standard_base@_WV?$stream_output_adapter@_W@__crt_stdio_output@@@2@@__crt_stdio_output@@AAE_NXZ 10036c10 f i libucrtd:output.obj
 0001:00035c60       ?state_case_percent@?$output_processor@_WV?$string_output_adapter@_W@__crt_stdio_output@@V?$format_validation_base@_WV?$string_output_adapter@_W@__crt_stdio_output@@@2@@__crt_stdio_output@@AAE_NXZ 10036c60 f i libucrtd:output.obj
 0001:00035cb0       ?state_case_percent@?$output_processor@_WV?$string_output_adapter@_W@__crt_stdio_output@@V?$positional_parameter_base@_WV?$string_output_adapter@_W@__crt_stdio_output@@@2@@__crt_stdio_output@@AAE_NXZ 10036cb0 f i libucrtd:output.obj
 0001:00035d00       ?state_case_percent@?$output_processor@_WV?$string_output_adapter@_W@__crt_stdio_output@@V?$standard_base@_WV?$string_output_adapter@_W@__crt_stdio_output@@@2@@__crt_stdio_output@@AAE_NXZ 10036d00 f i libucrtd:output.obj
 0001:00035d50       ?state_case_precision@?$output_processor@DV?$stream_output_adapter@D@__crt_stdio_output@@V?$format_validation_base@DV?$stream_output_adapter@D@__crt_stdio_output@@@2@@__crt_stdio_output@@AAE_NXZ 10036d50 f i libucrtd:output.obj
 0001:00035dc0       ?state_case_precision@?$output_processor@DV?$stream_output_adapter@D@__crt_stdio_output@@V?$positional_parameter_base@DV?$stream_output_adapter@D@__crt_stdio_output@@@2@@__crt_stdio_output@@AAE_NXZ 10036dc0 f i libucrtd:output.obj
 0001:00035e30       ?state_case_precision@?$output_processor@DV?$stream_output_adapter@D@__crt_stdio_output@@V?$standard_base@DV?$stream_output_adapter@D@__crt_stdio_output@@@2@@__crt_stdio_output@@AAE_NXZ 10036e30 f i libucrtd:output.obj
 0001:00035ea0       ?state_case_precision@?$output_processor@DV?$string_output_adapter@D@__crt_stdio_output@@V?$format_validation_base@DV?$string_output_adapter@D@__crt_stdio_output@@@2@@__crt_stdio_output@@AAE_NXZ 10036ea0 f i libucrtd:output.obj
 0001:00035f10       ?state_case_precision@?$output_processor@DV?$string_output_adapter@D@__crt_stdio_output@@V?$positional_parameter_base@DV?$string_output_adapter@D@__crt_stdio_output@@@2@@__crt_stdio_output@@AAE_NXZ 10036f10 f i libucrtd:output.obj
 0001:00035f80       ?state_case_precision@?$output_processor@DV?$string_output_adapter@D@__crt_stdio_output@@V?$standard_base@DV?$string_output_adapter@D@__crt_stdio_output@@@2@@__crt_stdio_output@@AAE_NXZ 10036f80 f i libucrtd:output.obj
 0001:00035ff0       ?state_case_precision@?$output_processor@_WV?$stream_output_adapter@_W@__crt_stdio_output@@V?$format_validation_base@_WV?$stream_output_adapter@_W@__crt_stdio_output@@@2@@__crt_stdio_output@@AAE_NXZ 10036ff0 f i libucrtd:output.obj
 0001:00036060       ?state_case_precision@?$output_processor@_WV?$stream_output_adapter@_W@__crt_stdio_output@@V?$positional_parameter_base@_WV?$stream_output_adapter@_W@__crt_stdio_output@@@2@@__crt_stdio_output@@AAE_NXZ 10037060 f i libucrtd:output.obj
 0001:000360d0       ?state_case_precision@?$output_processor@_WV?$stream_output_adapter@_W@__crt_stdio_output@@V?$standard_base@_WV?$stream_output_adapter@_W@__crt_stdio_output@@@2@@__crt_stdio_output@@AAE_NXZ 100370d0 f i libucrtd:output.obj
 0001:00036140       ?state_case_precision@?$output_processor@_WV?$string_output_adapter@_W@__crt_stdio_output@@V?$format_validation_base@_WV?$string_output_adapter@_W@__crt_stdio_output@@@2@@__crt_stdio_output@@AAE_NXZ 10037140 f i libucrtd:output.obj
 0001:000361b0       ?state_case_precision@?$output_processor@_WV?$string_output_adapter@_W@__crt_stdio_output@@V?$positional_parameter_base@_WV?$string_output_adapter@_W@__crt_stdio_output@@@2@@__crt_stdio_output@@AAE_NXZ 100371b0 f i libucrtd:output.obj
 0001:00036220       ?state_case_precision@?$output_processor@_WV?$string_output_adapter@_W@__crt_stdio_output@@V?$standard_base@_WV?$string_output_adapter@_W@__crt_stdio_output@@@2@@__crt_stdio_output@@AAE_NXZ 10037220 f i libucrtd:output.obj
 0001:00036290       ?state_case_size@?$output_processor@DV?$stream_output_adapter@D@__crt_stdio_output@@V?$format_validation_base@DV?$stream_output_adapter@D@__crt_stdio_output@@@2@@__crt_stdio_output@@AAE_NXZ 10037290 f i libucrtd:output.obj
 0001:00036660       ?state_case_size@?$output_processor@DV?$stream_output_adapter@D@__crt_stdio_output@@V?$positional_parameter_base@DV?$stream_output_adapter@D@__crt_stdio_output@@@2@@__crt_stdio_output@@AAE_NXZ 10037660 f i libucrtd:output.obj
 0001:00036a30       ?state_case_size@?$output_processor@DV?$stream_output_adapter@D@__crt_stdio_output@@V?$standard_base@DV?$stream_output_adapter@D@__crt_stdio_output@@@2@@__crt_stdio_output@@AAE_NXZ 10037a30 f i libucrtd:output.obj
 0001:00036e00       ?state_case_size@?$output_processor@DV?$string_output_adapter@D@__crt_stdio_output@@V?$format_validation_base@DV?$string_output_adapter@D@__crt_stdio_output@@@2@@__crt_stdio_output@@AAE_NXZ 10037e00 f i libucrtd:output.obj
 0001:000371d0       ?state_case_size@?$output_processor@DV?$string_output_adapter@D@__crt_stdio_output@@V?$positional_parameter_base@DV?$string_output_adapter@D@__crt_stdio_output@@@2@@__crt_stdio_output@@AAE_NXZ 100381d0 f i libucrtd:output.obj
 0001:000375a0       ?state_case_size@?$output_processor@DV?$string_output_adapter@D@__crt_stdio_output@@V?$standard_base@DV?$string_output_adapter@D@__crt_stdio_output@@@2@@__crt_stdio_output@@AAE_NXZ 100385a0 f i libucrtd:output.obj
 0001:00037970       ?state_case_size@?$output_processor@_WV?$stream_output_adapter@_W@__crt_stdio_output@@V?$format_validation_base@_WV?$stream_output_adapter@_W@__crt_stdio_output@@@2@@__crt_stdio_output@@AAE_NXZ 10038970 f i libucrtd:output.obj
 0001:00037d40       ?state_case_size@?$output_processor@_WV?$stream_output_adapter@_W@__crt_stdio_output@@V?$positional_parameter_base@_WV?$stream_output_adapter@_W@__crt_stdio_output@@@2@@__crt_stdio_output@@AAE_NXZ 10038d40 f i libucrtd:output.obj
 0001:00038110       ?state_case_size@?$output_processor@_WV?$stream_output_adapter@_W@__crt_stdio_output@@V?$standard_base@_WV?$stream_output_adapter@_W@__crt_stdio_output@@@2@@__crt_stdio_output@@AAE_NXZ 10039110 f i libucrtd:output.obj
 0001:000384e0       ?state_case_size@?$output_processor@_WV?$string_output_adapter@_W@__crt_stdio_output@@V?$format_validation_base@_WV?$string_output_adapter@_W@__crt_stdio_output@@@2@@__crt_stdio_output@@AAE_NXZ 100394e0 f i libucrtd:output.obj
 0001:000388b0       ?state_case_size@?$output_processor@_WV?$string_output_adapter@_W@__crt_stdio_output@@V?$positional_parameter_base@_WV?$string_output_adapter@_W@__crt_stdio_output@@@2@@__crt_stdio_output@@AAE_NXZ 100398b0 f i libucrtd:output.obj
 0001:00038c80       ?state_case_size@?$output_processor@_WV?$string_output_adapter@_W@__crt_stdio_output@@V?$standard_base@_WV?$string_output_adapter@_W@__crt_stdio_output@@@2@@__crt_stdio_output@@AAE_NXZ 10039c80 f i libucrtd:output.obj
 0001:00039050       ?state_case_type@?$output_processor@DV?$stream_output_adapter@D@__crt_stdio_output@@V?$format_validation_base@DV?$stream_output_adapter@D@__crt_stdio_output@@@2@@__crt_stdio_output@@AAE_NXZ 1003a050 f i libucrtd:output.obj
 0001:00039400       ?state_case_type@?$output_processor@DV?$stream_output_adapter@D@__crt_stdio_output@@V?$positional_parameter_base@DV?$stream_output_adapter@D@__crt_stdio_output@@@2@@__crt_stdio_output@@AAE_NXZ 1003a400 f i libucrtd:output.obj
 0001:000397b0       ?state_case_type@?$output_processor@DV?$stream_output_adapter@D@__crt_stdio_output@@V?$standard_base@DV?$stream_output_adapter@D@__crt_stdio_output@@@2@@__crt_stdio_output@@AAE_NXZ 1003a7b0 f i libucrtd:output.obj
 0001:00039b60       ?state_case_type@?$output_processor@DV?$string_output_adapter@D@__crt_stdio_output@@V?$format_validation_base@DV?$string_output_adapter@D@__crt_stdio_output@@@2@@__crt_stdio_output@@AAE_NXZ 1003ab60 f i libucrtd:output.obj
 0001:00039f10       ?state_case_type@?$output_processor@DV?$string_output_adapter@D@__crt_stdio_output@@V?$positional_parameter_base@DV?$string_output_adapter@D@__crt_stdio_output@@@2@@__crt_stdio_output@@AAE_NXZ 1003af10 f i libucrtd:output.obj
 0001:0003a2c0       ?state_case_type@?$output_processor@DV?$string_output_adapter@D@__crt_stdio_output@@V?$standard_base@DV?$string_output_adapter@D@__crt_stdio_output@@@2@@__crt_stdio_output@@AAE_NXZ 1003b2c0 f i libucrtd:output.obj
 0001:0003a670       ?state_case_type@?$output_processor@_WV?$stream_output_adapter@_W@__crt_stdio_output@@V?$format_validation_base@_WV?$stream_output_adapter@_W@__crt_stdio_output@@@2@@__crt_stdio_output@@AAE_NXZ 1003b670 f i libucrtd:output.obj
 0001:0003aa50       ?state_case_type@?$output_processor@_WV?$stream_output_adapter@_W@__crt_stdio_output@@V?$positional_parameter_base@_WV?$stream_output_adapter@_W@__crt_stdio_output@@@2@@__crt_stdio_output@@AAE_NXZ 1003ba50 f i libucrtd:output.obj
 0001:0003ae30       ?state_case_type@?$output_processor@_WV?$stream_output_adapter@_W@__crt_stdio_output@@V?$standard_base@_WV?$stream_output_adapter@_W@__crt_stdio_output@@@2@@__crt_stdio_output@@AAE_NXZ 1003be30 f i libucrtd:output.obj
 0001:0003b210       ?state_case_type@?$output_processor@_WV?$string_output_adapter@_W@__crt_stdio_output@@V?$format_validation_base@_WV?$string_output_adapter@_W@__crt_stdio_output@@@2@@__crt_stdio_output@@AAE_NXZ 1003c210 f i libucrtd:output.obj
 0001:0003b5f0       ?state_case_type@?$output_processor@_WV?$string_output_adapter@_W@__crt_stdio_output@@V?$positional_parameter_base@_WV?$string_output_adapter@_W@__crt_stdio_output@@@2@@__crt_stdio_output@@AAE_NXZ 1003c5f0 f i libucrtd:output.obj
 0001:0003b9d0       ?state_case_type@?$output_processor@_WV?$string_output_adapter@_W@__crt_stdio_output@@V?$standard_base@_WV?$string_output_adapter@_W@__crt_stdio_output@@@2@@__crt_stdio_output@@AAE_NXZ 1003c9d0 f i libucrtd:output.obj
 0001:0003bdb0       ?state_case_width@?$output_processor@DV?$stream_output_adapter@D@__crt_stdio_output@@V?$format_validation_base@DV?$stream_output_adapter@D@__crt_stdio_output@@@2@@__crt_stdio_output@@AAE_NXZ 1003cdb0 f i libucrtd:output.obj
 0001:0003be30       ?state_case_width@?$output_processor@DV?$stream_output_adapter@D@__crt_stdio_output@@V?$positional_parameter_base@DV?$stream_output_adapter@D@__crt_stdio_output@@@2@@__crt_stdio_output@@AAE_NXZ 1003ce30 f i libucrtd:output.obj
 0001:0003beb0       ?state_case_width@?$output_processor@DV?$stream_output_adapter@D@__crt_stdio_output@@V?$standard_base@DV?$stream_output_adapter@D@__crt_stdio_output@@@2@@__crt_stdio_output@@AAE_NXZ 1003ceb0 f i libucrtd:output.obj
 0001:0003bf30       ?state_case_width@?$output_processor@DV?$string_output_adapter@D@__crt_stdio_output@@V?$format_validation_base@DV?$string_output_adapter@D@__crt_stdio_output@@@2@@__crt_stdio_output@@AAE_NXZ 1003cf30 f i libucrtd:output.obj
 0001:0003bfb0       ?state_case_width@?$output_processor@DV?$string_output_adapter@D@__crt_stdio_output@@V?$positional_parameter_base@DV?$string_output_adapter@D@__crt_stdio_output@@@2@@__crt_stdio_output@@AAE_NXZ 1003cfb0 f i libucrtd:output.obj
 0001:0003c030       ?state_case_width@?$output_processor@DV?$string_output_adapter@D@__crt_stdio_output@@V?$standard_base@DV?$string_output_adapter@D@__crt_stdio_output@@@2@@__crt_stdio_output@@AAE_NXZ 1003d030 f i libucrtd:output.obj
 0001:0003c0b0       ?state_case_width@?$output_processor@_WV?$stream_output_adapter@_W@__crt_stdio_output@@V?$format_validation_base@_WV?$stream_output_adapter@_W@__crt_stdio_output@@@2@@__crt_stdio_output@@AAE_NXZ 1003d0b0 f i libucrtd:output.obj
 0001:0003c130       ?state_case_width@?$output_processor@_WV?$stream_output_adapter@_W@__crt_stdio_output@@V?$positional_parameter_base@_WV?$stream_output_adapter@_W@__crt_stdio_output@@@2@@__crt_stdio_output@@AAE_NXZ 1003d130 f i libucrtd:output.obj
 0001:0003c1b0       ?state_case_width@?$output_processor@_WV?$stream_output_adapter@_W@__crt_stdio_output@@V?$standard_base@_WV?$stream_output_adapter@_W@__crt_stdio_output@@@2@@__crt_stdio_output@@AAE_NXZ 1003d1b0 f i libucrtd:output.obj
 0001:0003c230       ?state_case_width@?$output_processor@_WV?$string_output_adapter@_W@__crt_stdio_output@@V?$format_validation_base@_WV?$string_output_adapter@_W@__crt_stdio_output@@@2@@__crt_stdio_output@@AAE_NXZ 1003d230 f i libucrtd:output.obj
 0001:0003c2b0       ?state_case_width@?$output_processor@_WV?$string_output_adapter@_W@__crt_stdio_output@@V?$positional_parameter_base@_WV?$string_output_adapter@_W@__crt_stdio_output@@@2@@__crt_stdio_output@@AAE_NXZ 1003d2b0 f i libucrtd:output.obj
 0001:0003c330       ?state_case_width@?$output_processor@_WV?$string_output_adapter@_W@__crt_stdio_output@@V?$standard_base@_WV?$string_output_adapter@_W@__crt_stdio_output@@@2@@__crt_stdio_output@@AAE_NXZ 1003d330 f i libucrtd:output.obj
 0001:0003c3b0       ?state_count@?$format_validation_base@DV?$stream_output_adapter@D@__crt_stdio_output@@@__crt_stdio_output@@KAIXZ 1003d3b0 f i libucrtd:output.obj
 0001:0003c3c0       ?state_count@?$format_validation_base@DV?$string_output_adapter@D@__crt_stdio_output@@@__crt_stdio_output@@KAIXZ 1003d3c0 f i libucrtd:output.obj
 0001:0003c3d0       ?state_count@?$format_validation_base@_WV?$stream_output_adapter@_W@__crt_stdio_output@@@__crt_stdio_output@@KAIXZ 1003d3d0 f i libucrtd:output.obj
 0001:0003c3e0       ?state_count@?$format_validation_base@_WV?$string_output_adapter@_W@__crt_stdio_output@@@__crt_stdio_output@@KAIXZ 1003d3e0 f i libucrtd:output.obj
 0001:0003c3f0       ?state_count@?$standard_base@DV?$stream_output_adapter@D@__crt_stdio_output@@@__crt_stdio_output@@KAIXZ 1003d3f0 f i libucrtd:output.obj
 0001:0003c400       ?state_count@?$standard_base@DV?$string_output_adapter@D@__crt_stdio_output@@@__crt_stdio_output@@KAIXZ 1003d400 f i libucrtd:output.obj
 0001:0003c410       ?state_count@?$standard_base@_WV?$stream_output_adapter@_W@__crt_stdio_output@@@__crt_stdio_output@@KAIXZ 1003d410 f i libucrtd:output.obj
 0001:0003c420       ?state_count@?$standard_base@_WV?$string_output_adapter@_W@__crt_stdio_output@@@__crt_stdio_output@@KAIXZ 1003d420 f i libucrtd:output.obj
 0001:0003c430       ?state_transition_table@?$format_validation_base@DV?$stream_output_adapter@D@__crt_stdio_output@@@__crt_stdio_output@@KAABV?$spectre_mitigated_lookup_table@Ustate_transition_pair@__crt_stdio_output@@$0IA@@2@XZ 1003d430 f i libucrtd:output.obj
 0001:0003c440       ?state_transition_table@?$format_validation_base@DV?$string_output_adapter@D@__crt_stdio_output@@@__crt_stdio_output@@KAABV?$spectre_mitigated_lookup_table@Ustate_transition_pair@__crt_stdio_output@@$0IA@@2@XZ 1003d440 f i libucrtd:output.obj
 0001:0003c450       ?state_transition_table@?$format_validation_base@_WV?$stream_output_adapter@_W@__crt_stdio_output@@@__crt_stdio_output@@KAABV?$spectre_mitigated_lookup_table@Ustate_transition_pair@__crt_stdio_output@@$0IA@@2@XZ 1003d450 f i libucrtd:output.obj
 0001:0003c460       ?state_transition_table@?$format_validation_base@_WV?$string_output_adapter@_W@__crt_stdio_output@@@__crt_stdio_output@@KAABV?$spectre_mitigated_lookup_table@Ustate_transition_pair@__crt_stdio_output@@$0IA@@2@XZ 1003d460 f i libucrtd:output.obj
 0001:0003c470       ?state_transition_table@?$standard_base@DV?$stream_output_adapter@D@__crt_stdio_output@@@__crt_stdio_output@@KAABV?$spectre_mitigated_lookup_table@Ustate_transition_pair@__crt_stdio_output@@$0IA@@2@XZ 1003d470 f i libucrtd:output.obj
 0001:0003c480       ?state_transition_table@?$standard_base@DV?$string_output_adapter@D@__crt_stdio_output@@@__crt_stdio_output@@KAABV?$spectre_mitigated_lookup_table@Ustate_transition_pair@__crt_stdio_output@@$0IA@@2@XZ 1003d480 f i libucrtd:output.obj
 0001:0003c490       ?state_transition_table@?$standard_base@_WV?$stream_output_adapter@_W@__crt_stdio_output@@@__crt_stdio_output@@KAABV?$spectre_mitigated_lookup_table@Ustate_transition_pair@__crt_stdio_output@@$0IA@@2@XZ 1003d490 f i libucrtd:output.obj
 0001:0003c4a0       ?state_transition_table@?$standard_base@_WV?$string_output_adapter@_W@__crt_stdio_output@@@__crt_stdio_output@@KAABV?$spectre_mitigated_lookup_table@Ustate_transition_pair@__crt_stdio_output@@$0IA@@2@XZ 1003d4a0 f i libucrtd:output.obj
 0001:0003c4b0       ?tchar_string@?$common_data@D@__crt_stdio_output@@IAEAAPADD@Z 1003d4b0 f i libucrtd:output.obj
 0001:0003c4d0       ?tchar_string@?$common_data@D@__crt_stdio_output@@IAEAAPADXZ 1003d4d0 f i libucrtd:output.obj
 0001:0003c4f0       ?tchar_string@?$common_data@_W@__crt_stdio_output@@IAEAAPA_WXZ 1003d4f0 f i libucrtd:output.obj
 0001:0003c510       ?tchar_string@?$common_data@_W@__crt_stdio_output@@IAEAAPA_W_W@Z 1003d510 f i libucrtd:output.obj
 0001:0003c530       ?to_integer_size@__crt_stdio_output@@YAIW4length_modifier@1@@Z 1003d530 f i libucrtd:output.obj
 0001:0003c5d0       ?type_case_X@?$output_processor@DV?$stream_output_adapter@D@__crt_stdio_output@@V?$format_validation_base@DV?$stream_output_adapter@D@__crt_stdio_output@@@2@@__crt_stdio_output@@AAE_NXZ 1003d5d0 f i libucrtd:output.obj
 0001:0003c5f0       ?type_case_X@?$output_processor@DV?$stream_output_adapter@D@__crt_stdio_output@@V?$positional_parameter_base@DV?$stream_output_adapter@D@__crt_stdio_output@@@2@@__crt_stdio_output@@AAE_NXZ 1003d5f0 f i libucrtd:output.obj
 0001:0003c610       ?type_case_X@?$output_processor@DV?$stream_output_adapter@D@__crt_stdio_output@@V?$standard_base@DV?$stream_output_adapter@D@__crt_stdio_output@@@2@@__crt_stdio_output@@AAE_NXZ 1003d610 f i libucrtd:output.obj
 0001:0003c630       ?type_case_X@?$output_processor@DV?$string_output_adapter@D@__crt_stdio_output@@V?$format_validation_base@DV?$string_output_adapter@D@__crt_stdio_output@@@2@@__crt_stdio_output@@AAE_NXZ 1003d630 f i libucrtd:output.obj
 0001:0003c650       ?type_case_X@?$output_processor@DV?$string_output_adapter@D@__crt_stdio_output@@V?$positional_parameter_base@DV?$string_output_adapter@D@__crt_stdio_output@@@2@@__crt_stdio_output@@AAE_NXZ 1003d650 f i libucrtd:output.obj
 0001:0003c670       ?type_case_X@?$output_processor@DV?$string_output_adapter@D@__crt_stdio_output@@V?$standard_base@DV?$string_output_adapter@D@__crt_stdio_output@@@2@@__crt_stdio_output@@AAE_NXZ 1003d670 f i libucrtd:output.obj
 0001:0003c690       ?type_case_X@?$output_processor@_WV?$stream_output_adapter@_W@__crt_stdio_output@@V?$format_validation_base@_WV?$stream_output_adapter@_W@__crt_stdio_output@@@2@@__crt_stdio_output@@AAE_NXZ 1003d690 f i libucrtd:output.obj
 0001:0003c6b0       ?type_case_X@?$output_processor@_WV?$stream_output_adapter@_W@__crt_stdio_output@@V?$positional_parameter_base@_WV?$stream_output_adapter@_W@__crt_stdio_output@@@2@@__crt_stdio_output@@AAE_NXZ 1003d6b0 f i libucrtd:output.obj
 0001:0003c6d0       ?type_case_X@?$output_processor@_WV?$stream_output_adapter@_W@__crt_stdio_output@@V?$standard_base@_WV?$stream_output_adapter@_W@__crt_stdio_output@@@2@@__crt_stdio_output@@AAE_NXZ 1003d6d0 f i libucrtd:output.obj
 0001:0003c6f0       ?type_case_X@?$output_processor@_WV?$string_output_adapter@_W@__crt_stdio_output@@V?$format_validation_base@_WV?$string_output_adapter@_W@__crt_stdio_output@@@2@@__crt_stdio_output@@AAE_NXZ 1003d6f0 f i libucrtd:output.obj
 0001:0003c710       ?type_case_X@?$output_processor@_WV?$string_output_adapter@_W@__crt_stdio_output@@V?$positional_parameter_base@_WV?$string_output_adapter@_W@__crt_stdio_output@@@2@@__crt_stdio_output@@AAE_NXZ 1003d710 f i libucrtd:output.obj
 0001:0003c730       ?type_case_X@?$output_processor@_WV?$string_output_adapter@_W@__crt_stdio_output@@V?$standard_base@_WV?$string_output_adapter@_W@__crt_stdio_output@@@2@@__crt_stdio_output@@AAE_NXZ 1003d730 f i libucrtd:output.obj
 0001:0003c750       ?type_case_Z@?$output_processor@DV?$stream_output_adapter@D@__crt_stdio_output@@V?$format_validation_base@DV?$stream_output_adapter@D@__crt_stdio_output@@@2@@__crt_stdio_output@@AAE_NXZ 1003d750 f i libucrtd:output.obj
 0001:0003c840       ?type_case_Z@?$output_processor@DV?$stream_output_adapter@D@__crt_stdio_output@@V?$positional_parameter_base@DV?$stream_output_adapter@D@__crt_stdio_output@@@2@@__crt_stdio_output@@AAE_NXZ 1003d840 f i libucrtd:output.obj
 0001:0003c930       ?type_case_Z@?$output_processor@DV?$stream_output_adapter@D@__crt_stdio_output@@V?$standard_base@DV?$stream_output_adapter@D@__crt_stdio_output@@@2@@__crt_stdio_output@@AAE_NXZ 1003d930 f i libucrtd:output.obj
 0001:0003ca20       ?type_case_Z@?$output_processor@DV?$string_output_adapter@D@__crt_stdio_output@@V?$format_validation_base@DV?$string_output_adapter@D@__crt_stdio_output@@@2@@__crt_stdio_output@@AAE_NXZ 1003da20 f i libucrtd:output.obj
 0001:0003cb10       ?type_case_Z@?$output_processor@DV?$string_output_adapter@D@__crt_stdio_output@@V?$positional_parameter_base@DV?$string_output_adapter@D@__crt_stdio_output@@@2@@__crt_stdio_output@@AAE_NXZ 1003db10 f i libucrtd:output.obj
 0001:0003cc00       ?type_case_Z@?$output_processor@DV?$string_output_adapter@D@__crt_stdio_output@@V?$standard_base@DV?$string_output_adapter@D@__crt_stdio_output@@@2@@__crt_stdio_output@@AAE_NXZ 1003dc00 f i libucrtd:output.obj
 0001:0003ccf0       ?type_case_Z@?$output_processor@_WV?$stream_output_adapter@_W@__crt_stdio_output@@V?$format_validation_base@_WV?$stream_output_adapter@_W@__crt_stdio_output@@@2@@__crt_stdio_output@@AAE_NXZ 1003dcf0 f i libucrtd:output.obj
 0001:0003cde0       ?type_case_Z@?$output_processor@_WV?$stream_output_adapter@_W@__crt_stdio_output@@V?$positional_parameter_base@_WV?$stream_output_adapter@_W@__crt_stdio_output@@@2@@__crt_stdio_output@@AAE_NXZ 1003dde0 f i libucrtd:output.obj
 0001:0003ced0       ?type_case_Z@?$output_processor@_WV?$stream_output_adapter@_W@__crt_stdio_output@@V?$standard_base@_WV?$stream_output_adapter@_W@__crt_stdio_output@@@2@@__crt_stdio_output@@AAE_NXZ 1003ded0 f i libucrtd:output.obj
 0001:0003cfc0       ?type_case_Z@?$output_processor@_WV?$string_output_adapter@_W@__crt_stdio_output@@V?$format_validation_base@_WV?$string_output_adapter@_W@__crt_stdio_output@@@2@@__crt_stdio_output@@AAE_NXZ 1003dfc0 f i libucrtd:output.obj
 0001:0003d0b0       ?type_case_Z@?$output_processor@_WV?$string_output_adapter@_W@__crt_stdio_output@@V?$positional_parameter_base@_WV?$string_output_adapter@_W@__crt_stdio_output@@@2@@__crt_stdio_output@@AAE_NXZ 1003e0b0 f i libucrtd:output.obj
 0001:0003d1a0       ?type_case_Z@?$output_processor@_WV?$string_output_adapter@_W@__crt_stdio_output@@V?$standard_base@_WV?$string_output_adapter@_W@__crt_stdio_output@@@2@@__crt_stdio_output@@AAE_NXZ 1003e1a0 f i libucrtd:output.obj
 0001:0003d290       ?type_case_a@?$output_processor@DV?$stream_output_adapter@D@__crt_stdio_output@@V?$format_validation_base@DV?$stream_output_adapter@D@__crt_stdio_output@@@2@@__crt_stdio_output@@AAE_NXZ 1003e290 f i libucrtd:output.obj
 0001:0003d500       ?type_case_a@?$output_processor@DV?$stream_output_adapter@D@__crt_stdio_output@@V?$positional_parameter_base@DV?$stream_output_adapter@D@__crt_stdio_output@@@2@@__crt_stdio_output@@AAE_NXZ 1003e500 f i libucrtd:output.obj
 0001:0003d770       ?type_case_a@?$output_processor@DV?$stream_output_adapter@D@__crt_stdio_output@@V?$standard_base@DV?$stream_output_adapter@D@__crt_stdio_output@@@2@@__crt_stdio_output@@AAE_NXZ 1003e770 f i libucrtd:output.obj
 0001:0003d9e0       ?type_case_a@?$output_processor@DV?$string_output_adapter@D@__crt_stdio_output@@V?$format_validation_base@DV?$string_output_adapter@D@__crt_stdio_output@@@2@@__crt_stdio_output@@AAE_NXZ 1003e9e0 f i libucrtd:output.obj
 0001:0003dc50       ?type_case_a@?$output_processor@DV?$string_output_adapter@D@__crt_stdio_output@@V?$positional_parameter_base@DV?$string_output_adapter@D@__crt_stdio_output@@@2@@__crt_stdio_output@@AAE_NXZ 1003ec50 f i libucrtd:output.obj
 0001:0003dec0       ?type_case_a@?$output_processor@DV?$string_output_adapter@D@__crt_stdio_output@@V?$standard_base@DV?$string_output_adapter@D@__crt_stdio_output@@@2@@__crt_stdio_output@@AAE_NXZ 1003eec0 f i libucrtd:output.obj
 0001:0003e130       ?type_case_a@?$output_processor@_WV?$stream_output_adapter@_W@__crt_stdio_output@@V?$format_validation_base@_WV?$stream_output_adapter@_W@__crt_stdio_output@@@2@@__crt_stdio_output@@AAE_NXZ 1003f130 f i libucrtd:output.obj
 0001:0003e3a0       ?type_case_a@?$output_processor@_WV?$stream_output_adapter@_W@__crt_stdio_output@@V?$positional_parameter_base@_WV?$stream_output_adapter@_W@__crt_stdio_output@@@2@@__crt_stdio_output@@AAE_NXZ 1003f3a0 f i libucrtd:output.obj
 0001:0003e610       ?type_case_a@?$output_processor@_WV?$stream_output_adapter@_W@__crt_stdio_output@@V?$standard_base@_WV?$stream_output_adapter@_W@__crt_stdio_output@@@2@@__crt_stdio_output@@AAE_NXZ 1003f610 f i libucrtd:output.obj
 0001:0003e880       ?type_case_a@?$output_processor@_WV?$string_output_adapter@_W@__crt_stdio_output@@V?$format_validation_base@_WV?$string_output_adapter@_W@__crt_stdio_output@@@2@@__crt_stdio_output@@AAE_NXZ 1003f880 f i libucrtd:output.obj
 0001:0003eaf0       ?type_case_a@?$output_processor@_WV?$string_output_adapter@_W@__crt_stdio_output@@V?$positional_parameter_base@_WV?$string_output_adapter@_W@__crt_stdio_output@@@2@@__crt_stdio_output@@AAE_NXZ 1003faf0 f i libucrtd:output.obj
 0001:0003ed60       ?type_case_a@?$output_processor@_WV?$string_output_adapter@_W@__crt_stdio_output@@V?$standard_base@_WV?$string_output_adapter@_W@__crt_stdio_output@@@2@@__crt_stdio_output@@AAE_NXZ 1003fd60 f i libucrtd:output.obj
 0001:0003efd0       ?type_case_c@?$output_processor@DV?$stream_output_adapter@D@__crt_stdio_output@@V?$format_validation_base@DV?$stream_output_adapter@D@__crt_stdio_output@@@2@@__crt_stdio_output@@AAE_NXZ 1003ffd0 f i libucrtd:output.obj
 0001:0003eff0       ?type_case_c@?$output_processor@DV?$stream_output_adapter@D@__crt_stdio_output@@V?$positional_parameter_base@DV?$stream_output_adapter@D@__crt_stdio_output@@@2@@__crt_stdio_output@@AAE_NXZ 1003fff0 f i libucrtd:output.obj
 0001:0003f010       ?type_case_c@?$output_processor@DV?$stream_output_adapter@D@__crt_stdio_output@@V?$standard_base@DV?$stream_output_adapter@D@__crt_stdio_output@@@2@@__crt_stdio_output@@AAE_NXZ 10040010 f i libucrtd:output.obj
 0001:0003f030       ?type_case_c@?$output_processor@DV?$string_output_adapter@D@__crt_stdio_output@@V?$format_validation_base@DV?$string_output_adapter@D@__crt_stdio_output@@@2@@__crt_stdio_output@@AAE_NXZ 10040030 f i libucrtd:output.obj
 0001:0003f050       ?type_case_c@?$output_processor@DV?$string_output_adapter@D@__crt_stdio_output@@V?$positional_parameter_base@DV?$string_output_adapter@D@__crt_stdio_output@@@2@@__crt_stdio_output@@AAE_NXZ 10040050 f i libucrtd:output.obj
 0001:0003f070       ?type_case_c@?$output_processor@DV?$string_output_adapter@D@__crt_stdio_output@@V?$standard_base@DV?$string_output_adapter@D@__crt_stdio_output@@@2@@__crt_stdio_output@@AAE_NXZ 10040070 f i libucrtd:output.obj
 0001:0003f090       ?type_case_c@?$output_processor@_WV?$stream_output_adapter@_W@__crt_stdio_output@@V?$format_validation_base@_WV?$stream_output_adapter@_W@__crt_stdio_output@@@2@@__crt_stdio_output@@AAE_NXZ 10040090 f i libucrtd:output.obj
 0001:0003f0b0       ?type_case_c@?$output_processor@_WV?$stream_output_adapter@_W@__crt_stdio_output@@V?$positional_parameter_base@_WV?$stream_output_adapter@_W@__crt_stdio_output@@@2@@__crt_stdio_output@@AAE_NXZ 100400b0 f i libucrtd:output.obj
 0001:0003f0d0       ?type_case_c@?$output_processor@_WV?$stream_output_adapter@_W@__crt_stdio_output@@V?$standard_base@_WV?$stream_output_adapter@_W@__crt_stdio_output@@@2@@__crt_stdio_output@@AAE_NXZ 100400d0 f i libucrtd:output.obj
 0001:0003f0f0       ?type_case_c@?$output_processor@_WV?$string_output_adapter@_W@__crt_stdio_output@@V?$format_validation_base@_WV?$string_output_adapter@_W@__crt_stdio_output@@@2@@__crt_stdio_output@@AAE_NXZ 100400f0 f i libucrtd:output.obj
 0001:0003f110       ?type_case_c@?$output_processor@_WV?$string_output_adapter@_W@__crt_stdio_output@@V?$positional_parameter_base@_WV?$string_output_adapter@_W@__crt_stdio_output@@@2@@__crt_stdio_output@@AAE_NXZ 10040110 f i libucrtd:output.obj
 0001:0003f130       ?type_case_c@?$output_processor@_WV?$string_output_adapter@_W@__crt_stdio_output@@V?$standard_base@_WV?$string_output_adapter@_W@__crt_stdio_output@@@2@@__crt_stdio_output@@AAE_NXZ 10040130 f i libucrtd:output.obj
 0001:0003f150       ?type_case_c_tchar@?$output_processor@DV?$stream_output_adapter@D@__crt_stdio_output@@V?$format_validation_base@DV?$stream_output_adapter@D@__crt_stdio_output@@@2@@__crt_stdio_output@@AAE_ND@Z 10040150 f i libucrtd:output.obj
 0001:0003f260       ?type_case_c_tchar@?$output_processor@DV?$stream_output_adapter@D@__crt_stdio_output@@V?$positional_parameter_base@DV?$stream_output_adapter@D@__crt_stdio_output@@@2@@__crt_stdio_output@@AAE_ND@Z 10040260 f i libucrtd:output.obj
 0001:0003f370       ?type_case_c_tchar@?$output_processor@DV?$stream_output_adapter@D@__crt_stdio_output@@V?$standard_base@DV?$stream_output_adapter@D@__crt_stdio_output@@@2@@__crt_stdio_output@@AAE_ND@Z 10040370 f i libucrtd:output.obj
 0001:0003f480       ?type_case_c_tchar@?$output_processor@DV?$string_output_adapter@D@__crt_stdio_output@@V?$format_validation_base@DV?$string_output_adapter@D@__crt_stdio_output@@@2@@__crt_stdio_output@@AAE_ND@Z 10040480 f i libucrtd:output.obj
 0001:0003f590       ?type_case_c_tchar@?$output_processor@DV?$string_output_adapter@D@__crt_stdio_output@@V?$positional_parameter_base@DV?$string_output_adapter@D@__crt_stdio_output@@@2@@__crt_stdio_output@@AAE_ND@Z 10040590 f i libucrtd:output.obj
 0001:0003f6a0       ?type_case_c_tchar@?$output_processor@DV?$string_output_adapter@D@__crt_stdio_output@@V?$standard_base@DV?$string_output_adapter@D@__crt_stdio_output@@@2@@__crt_stdio_output@@AAE_ND@Z 100406a0 f i libucrtd:output.obj
 0001:0003f7b0       ?type_case_c_tchar@?$output_processor@_WV?$stream_output_adapter@_W@__crt_stdio_output@@V?$format_validation_base@_WV?$stream_output_adapter@_W@__crt_stdio_output@@@2@@__crt_stdio_output@@AAE_N_W@Z 100407b0 f i libucrtd:output.obj
 0001:0003f8b0       ?type_case_c_tchar@?$output_processor@_WV?$stream_output_adapter@_W@__crt_stdio_output@@V?$positional_parameter_base@_WV?$stream_output_adapter@_W@__crt_stdio_output@@@2@@__crt_stdio_output@@AAE_N_W@Z 100408b0 f i libucrtd:output.obj
 0001:0003f9b0       ?type_case_c_tchar@?$output_processor@_WV?$stream_output_adapter@_W@__crt_stdio_output@@V?$standard_base@_WV?$stream_output_adapter@_W@__crt_stdio_output@@@2@@__crt_stdio_output@@AAE_N_W@Z 100409b0 f i libucrtd:output.obj
 0001:0003fab0       ?type_case_c_tchar@?$output_processor@_WV?$string_output_adapter@_W@__crt_stdio_output@@V?$format_validation_base@_WV?$string_output_adapter@_W@__crt_stdio_output@@@2@@__crt_stdio_output@@AAE_N_W@Z 10040ab0 f i libucrtd:output.obj
 0001:0003fbb0       ?type_case_c_tchar@?$output_processor@_WV?$string_output_adapter@_W@__crt_stdio_output@@V?$positional_parameter_base@_WV?$string_output_adapter@_W@__crt_stdio_output@@@2@@__crt_stdio_output@@AAE_N_W@Z 10040bb0 f i libucrtd:output.obj
 0001:0003fcb0       ?type_case_c_tchar@?$output_processor@_WV?$string_output_adapter@_W@__crt_stdio_output@@V?$standard_base@_WV?$string_output_adapter@_W@__crt_stdio_output@@@2@@__crt_stdio_output@@AAE_N_W@Z 10040cb0 f i libucrtd:output.obj
 0001:0003fdb0       ?type_case_d@?$output_processor@DV?$stream_output_adapter@D@__crt_stdio_output@@V?$format_validation_base@DV?$stream_output_adapter@D@__crt_stdio_output@@@2@@__crt_stdio_output@@AAE_NXZ 10040db0 f i libucrtd:output.obj
 0001:0003fde0       ?type_case_d@?$output_processor@DV?$stream_output_adapter@D@__crt_stdio_output@@V?$positional_parameter_base@DV?$stream_output_adapter@D@__crt_stdio_output@@@2@@__crt_stdio_output@@AAE_NXZ 10040de0 f i libucrtd:output.obj
 0001:0003fe10       ?type_case_d@?$output_processor@DV?$stream_output_adapter@D@__crt_stdio_output@@V?$standard_base@DV?$stream_output_adapter@D@__crt_stdio_output@@@2@@__crt_stdio_output@@AAE_NXZ 10040e10 f i libucrtd:output.obj
 0001:0003fe40       ?type_case_d@?$output_processor@DV?$string_output_adapter@D@__crt_stdio_output@@V?$format_validation_base@DV?$string_output_adapter@D@__crt_stdio_output@@@2@@__crt_stdio_output@@AAE_NXZ 10040e40 f i libucrtd:output.obj
 0001:0003fe70       ?type_case_d@?$output_processor@DV?$string_output_adapter@D@__crt_stdio_output@@V?$positional_parameter_base@DV?$string_output_adapter@D@__crt_stdio_output@@@2@@__crt_stdio_output@@AAE_NXZ 10040e70 f i libucrtd:output.obj
 0001:0003fea0       ?type_case_d@?$output_processor@DV?$string_output_adapter@D@__crt_stdio_output@@V?$standard_base@DV?$string_output_adapter@D@__crt_stdio_output@@@2@@__crt_stdio_output@@AAE_NXZ 10040ea0 f i libucrtd:output.obj
 0001:0003fed0       ?type_case_d@?$output_processor@_WV?$stream_output_adapter@_W@__crt_stdio_output@@V?$format_validation_base@_WV?$stream_output_adapter@_W@__crt_stdio_output@@@2@@__crt_stdio_output@@AAE_NXZ 10040ed0 f i libucrtd:output.obj
 0001:0003ff00       ?type_case_d@?$output_processor@_WV?$stream_output_adapter@_W@__crt_stdio_output@@V?$positional_parameter_base@_WV?$stream_output_adapter@_W@__crt_stdio_output@@@2@@__crt_stdio_output@@AAE_NXZ 10040f00 f i libucrtd:output.obj
 0001:0003ff30       ?type_case_d@?$output_processor@_WV?$stream_output_adapter@_W@__crt_stdio_output@@V?$standard_base@_WV?$stream_output_adapter@_W@__crt_stdio_output@@@2@@__crt_stdio_output@@AAE_NXZ 10040f30 f i libucrtd:output.obj
 0001:0003ff60       ?type_case_d@?$output_processor@_WV?$string_output_adapter@_W@__crt_stdio_output@@V?$format_validation_base@_WV?$string_output_adapter@_W@__crt_stdio_output@@@2@@__crt_stdio_output@@AAE_NXZ 10040f60 f i libucrtd:output.obj
 0001:0003ff90       ?type_case_d@?$output_processor@_WV?$string_output_adapter@_W@__crt_stdio_output@@V?$positional_parameter_base@_WV?$string_output_adapter@_W@__crt_stdio_output@@@2@@__crt_stdio_output@@AAE_NXZ 10040f90 f i libucrtd:output.obj
 0001:0003ffc0       ?type_case_d@?$output_processor@_WV?$string_output_adapter@_W@__crt_stdio_output@@V?$standard_base@_WV?$string_output_adapter@_W@__crt_stdio_output@@@2@@__crt_stdio_output@@AAE_NXZ 10040fc0 f i libucrtd:output.obj
 0001:0003fff0       ?type_case_integer@?$output_processor@DV?$stream_output_adapter@D@__crt_stdio_output@@V?$format_validation_base@DV?$stream_output_adapter@D@__crt_stdio_output@@@2@@__crt_stdio_output@@AAE_NI_N@Z 10040ff0 f i libucrtd:output.obj
 0001:00040340       ?type_case_integer@?$output_processor@DV?$stream_output_adapter@D@__crt_stdio_output@@V?$positional_parameter_base@DV?$stream_output_adapter@D@__crt_stdio_output@@@2@@__crt_stdio_output@@AAE_NI_N@Z 10041340 f i libucrtd:output.obj
 0001:00040690       ?type_case_integer@?$output_processor@DV?$stream_output_adapter@D@__crt_stdio_output@@V?$standard_base@DV?$stream_output_adapter@D@__crt_stdio_output@@@2@@__crt_stdio_output@@AAE_NI_N@Z 10041690 f i libucrtd:output.obj
 0001:000409e0       ?type_case_integer@?$output_processor@DV?$string_output_adapter@D@__crt_stdio_output@@V?$format_validation_base@DV?$string_output_adapter@D@__crt_stdio_output@@@2@@__crt_stdio_output@@AAE_NI_N@Z 100419e0 f i libucrtd:output.obj
 0001:00040d30       ?type_case_integer@?$output_processor@DV?$string_output_adapter@D@__crt_stdio_output@@V?$positional_parameter_base@DV?$string_output_adapter@D@__crt_stdio_output@@@2@@__crt_stdio_output@@AAE_NI_N@Z 10041d30 f i libucrtd:output.obj
 0001:00041080       ?type_case_integer@?$output_processor@DV?$string_output_adapter@D@__crt_stdio_output@@V?$standard_base@DV?$string_output_adapter@D@__crt_stdio_output@@@2@@__crt_stdio_output@@AAE_NI_N@Z 10042080 f i libucrtd:output.obj
 0001:000413d0       ?type_case_integer@?$output_processor@_WV?$stream_output_adapter@_W@__crt_stdio_output@@V?$format_validation_base@_WV?$stream_output_adapter@_W@__crt_stdio_output@@@2@@__crt_stdio_output@@AAE_NI_N@Z 100423d0 f i libucrtd:output.obj
 0001:00041720       ?type_case_integer@?$output_processor@_WV?$stream_output_adapter@_W@__crt_stdio_output@@V?$positional_parameter_base@_WV?$stream_output_adapter@_W@__crt_stdio_output@@@2@@__crt_stdio_output@@AAE_NI_N@Z 10042720 f i libucrtd:output.obj
 0001:00041a70       ?type_case_integer@?$output_processor@_WV?$stream_output_adapter@_W@__crt_stdio_output@@V?$standard_base@_WV?$stream_output_adapter@_W@__crt_stdio_output@@@2@@__crt_stdio_output@@AAE_NI_N@Z 10042a70 f i libucrtd:output.obj
 0001:00041dc0       ?type_case_integer@?$output_processor@_WV?$string_output_adapter@_W@__crt_stdio_output@@V?$format_validation_base@_WV?$string_output_adapter@_W@__crt_stdio_output@@@2@@__crt_stdio_output@@AAE_NI_N@Z 10042dc0 f i libucrtd:output.obj
 0001:00042110       ?type_case_integer@?$output_processor@_WV?$string_output_adapter@_W@__crt_stdio_output@@V?$positional_parameter_base@_WV?$string_output_adapter@_W@__crt_stdio_output@@@2@@__crt_stdio_output@@AAE_NI_N@Z 10043110 f i libucrtd:output.obj
 0001:00042460       ?type_case_integer@?$output_processor@_WV?$string_output_adapter@_W@__crt_stdio_output@@V?$standard_base@_WV?$string_output_adapter@_W@__crt_stdio_output@@@2@@__crt_stdio_output@@AAE_NI_N@Z 10043460 f i libucrtd:output.obj
 0001:000427b0       ?type_case_n@?$output_processor@DV?$stream_output_adapter@D@__crt_stdio_output@@V?$format_validation_base@DV?$stream_output_adapter@D@__crt_stdio_output@@@2@@__crt_stdio_output@@AAE_NXZ 100437b0 f i libucrtd:output.obj
 0001:000429a0       ?type_case_n@?$output_processor@DV?$stream_output_adapter@D@__crt_stdio_output@@V?$positional_parameter_base@DV?$stream_output_adapter@D@__crt_stdio_output@@@2@@__crt_stdio_output@@AAE_NXZ 100439a0 f i libucrtd:output.obj
 0001:00042b90       ?type_case_n@?$output_processor@DV?$stream_output_adapter@D@__crt_stdio_output@@V?$standard_base@DV?$stream_output_adapter@D@__crt_stdio_output@@@2@@__crt_stdio_output@@AAE_NXZ 10043b90 f i libucrtd:output.obj
 0001:00042d80       ?type_case_n@?$output_processor@DV?$string_output_adapter@D@__crt_stdio_output@@V?$format_validation_base@DV?$string_output_adapter@D@__crt_stdio_output@@@2@@__crt_stdio_output@@AAE_NXZ 10043d80 f i libucrtd:output.obj
 0001:00042f70       ?type_case_n@?$output_processor@DV?$string_output_adapter@D@__crt_stdio_output@@V?$positional_parameter_base@DV?$string_output_adapter@D@__crt_stdio_output@@@2@@__crt_stdio_output@@AAE_NXZ 10043f70 f i libucrtd:output.obj
 0001:00043160       ?type_case_n@?$output_processor@DV?$string_output_adapter@D@__crt_stdio_output@@V?$standard_base@DV?$string_output_adapter@D@__crt_stdio_output@@@2@@__crt_stdio_output@@AAE_NXZ 10044160 f i libucrtd:output.obj
 0001:00043350       ?type_case_n@?$output_processor@_WV?$stream_output_adapter@_W@__crt_stdio_output@@V?$format_validation_base@_WV?$stream_output_adapter@_W@__crt_stdio_output@@@2@@__crt_stdio_output@@AAE_NXZ 10044350 f i libucrtd:output.obj
 0001:00043540       ?type_case_n@?$output_processor@_WV?$stream_output_adapter@_W@__crt_stdio_output@@V?$positional_parameter_base@_WV?$stream_output_adapter@_W@__crt_stdio_output@@@2@@__crt_stdio_output@@AAE_NXZ 10044540 f i libucrtd:output.obj
 0001:00043730       ?type_case_n@?$output_processor@_WV?$stream_output_adapter@_W@__crt_stdio_output@@V?$standard_base@_WV?$stream_output_adapter@_W@__crt_stdio_output@@@2@@__crt_stdio_output@@AAE_NXZ 10044730 f i libucrtd:output.obj
 0001:00043920       ?type_case_n@?$output_processor@_WV?$string_output_adapter@_W@__crt_stdio_output@@V?$format_validation_base@_WV?$string_output_adapter@_W@__crt_stdio_output@@@2@@__crt_stdio_output@@AAE_NXZ 10044920 f i libucrtd:output.obj
 0001:00043b10       ?type_case_n@?$output_processor@_WV?$string_output_adapter@_W@__crt_stdio_output@@V?$positional_parameter_base@_WV?$string_output_adapter@_W@__crt_stdio_output@@@2@@__crt_stdio_output@@AAE_NXZ 10044b10 f i libucrtd:output.obj
 0001:00043d00       ?type_case_n@?$output_processor@_WV?$string_output_adapter@_W@__crt_stdio_output@@V?$standard_base@_WV?$string_output_adapter@_W@__crt_stdio_output@@@2@@__crt_stdio_output@@AAE_NXZ 10044d00 f i libucrtd:output.obj
 0001:00043ef0       ?type_case_o@?$output_processor@DV?$stream_output_adapter@D@__crt_stdio_output@@V?$format_validation_base@DV?$stream_output_adapter@D@__crt_stdio_output@@@2@@__crt_stdio_output@@AAE_NXZ 10044ef0 f i libucrtd:output.obj
 0001:00043f30       ?type_case_o@?$output_processor@DV?$stream_output_adapter@D@__crt_stdio_output@@V?$positional_parameter_base@DV?$stream_output_adapter@D@__crt_stdio_output@@@2@@__crt_stdio_output@@AAE_NXZ 10044f30 f i libucrtd:output.obj
 0001:00043f70       ?type_case_o@?$output_processor@DV?$stream_output_adapter@D@__crt_stdio_output@@V?$standard_base@DV?$stream_output_adapter@D@__crt_stdio_output@@@2@@__crt_stdio_output@@AAE_NXZ 10044f70 f i libucrtd:output.obj
 0001:00043fb0       ?type_case_o@?$output_processor@DV?$string_output_adapter@D@__crt_stdio_output@@V?$format_validation_base@DV?$string_output_adapter@D@__crt_stdio_output@@@2@@__crt_stdio_output@@AAE_NXZ 10044fb0 f i libucrtd:output.obj
 0001:00043ff0       ?type_case_o@?$output_processor@DV?$string_output_adapter@D@__crt_stdio_output@@V?$positional_parameter_base@DV?$string_output_adapter@D@__crt_stdio_output@@@2@@__crt_stdio_output@@AAE_NXZ 10044ff0 f i libucrtd:output.obj
 0001:00044030       ?type_case_o@?$output_processor@DV?$string_output_adapter@D@__crt_stdio_output@@V?$standard_base@DV?$string_output_adapter@D@__crt_stdio_output@@@2@@__crt_stdio_output@@AAE_NXZ 10045030 f i libucrtd:output.obj
 0001:00044070       ?type_case_o@?$output_processor@_WV?$stream_output_adapter@_W@__crt_stdio_output@@V?$format_validation_base@_WV?$stream_output_adapter@_W@__crt_stdio_output@@@2@@__crt_stdio_output@@AAE_NXZ 10045070 f i libucrtd:output.obj
 0001:000440b0       ?type_case_o@?$output_processor@_WV?$stream_output_adapter@_W@__crt_stdio_output@@V?$positional_parameter_base@_WV?$stream_output_adapter@_W@__crt_stdio_output@@@2@@__crt_stdio_output@@AAE_NXZ 100450b0 f i libucrtd:output.obj
 0001:000440f0       ?type_case_o@?$output_processor@_WV?$stream_output_adapter@_W@__crt_stdio_output@@V?$standard_base@_WV?$stream_output_adapter@_W@__crt_stdio_output@@@2@@__crt_stdio_output@@AAE_NXZ 100450f0 f i libucrtd:output.obj
 0001:00044130       ?type_case_o@?$output_processor@_WV?$string_output_adapter@_W@__crt_stdio_output@@V?$format_validation_base@_WV?$string_output_adapter@_W@__crt_stdio_output@@@2@@__crt_stdio_output@@AAE_NXZ 10045130 f i libucrtd:output.obj
 0001:00044170       ?type_case_o@?$output_processor@_WV?$string_output_adapter@_W@__crt_stdio_output@@V?$positional_parameter_base@_WV?$string_output_adapter@_W@__crt_stdio_output@@@2@@__crt_stdio_output@@AAE_NXZ 10045170 f i libucrtd:output.obj
 0001:000441b0       ?type_case_o@?$output_processor@_WV?$string_output_adapter@_W@__crt_stdio_output@@V?$standard_base@_WV?$string_output_adapter@_W@__crt_stdio_output@@@2@@__crt_stdio_output@@AAE_NXZ 100451b0 f i libucrtd:output.obj
 0001:000441f0       ?type_case_p@?$output_processor@DV?$stream_output_adapter@D@__crt_stdio_output@@V?$format_validation_base@DV?$stream_output_adapter@D@__crt_stdio_output@@@2@@__crt_stdio_output@@AAE_NXZ 100451f0 f i libucrtd:output.obj
 0001:00044220       ?type_case_p@?$output_processor@DV?$stream_output_adapter@D@__crt_stdio_output@@V?$positional_parameter_base@DV?$stream_output_adapter@D@__crt_stdio_output@@@2@@__crt_stdio_output@@AAE_NXZ 10045220 f i libucrtd:output.obj
 0001:00044250       ?type_case_p@?$output_processor@DV?$stream_output_adapter@D@__crt_stdio_output@@V?$standard_base@DV?$stream_output_adapter@D@__crt_stdio_output@@@2@@__crt_stdio_output@@AAE_NXZ 10045250 f i libucrtd:output.obj
 0001:00044280       ?type_case_p@?$output_processor@DV?$string_output_adapter@D@__crt_stdio_output@@V?$format_validation_base@DV?$string_output_adapter@D@__crt_stdio_output@@@2@@__crt_stdio_output@@AAE_NXZ 10045280 f i libucrtd:output.obj
 0001:000442b0       ?type_case_p@?$output_processor@DV?$string_output_adapter@D@__crt_stdio_output@@V?$positional_parameter_base@DV?$string_output_adapter@D@__crt_stdio_output@@@2@@__crt_stdio_output@@AAE_NXZ 100452b0 f i libucrtd:output.obj
 0001:000442e0       ?type_case_p@?$output_processor@DV?$string_output_adapter@D@__crt_stdio_output@@V?$standard_base@DV?$string_output_adapter@D@__crt_stdio_output@@@2@@__crt_stdio_output@@AAE_NXZ 100452e0 f i libucrtd:output.obj
 0001:00044310       ?type_case_p@?$output_processor@_WV?$stream_output_adapter@_W@__crt_stdio_output@@V?$format_validation_base@_WV?$stream_output_adapter@_W@__crt_stdio_output@@@2@@__crt_stdio_output@@AAE_NXZ 10045310 f i libucrtd:output.obj
 0001:00044340       ?type_case_p@?$output_processor@_WV?$stream_output_adapter@_W@__crt_stdio_output@@V?$positional_parameter_base@_WV?$stream_output_adapter@_W@__crt_stdio_output@@@2@@__crt_stdio_output@@AAE_NXZ 10045340 f i libucrtd:output.obj
 0001:00044370       ?type_case_p@?$output_processor@_WV?$stream_output_adapter@_W@__crt_stdio_output@@V?$standard_base@_WV?$stream_output_adapter@_W@__crt_stdio_output@@@2@@__crt_stdio_output@@AAE_NXZ 10045370 f i libucrtd:output.obj
 0001:000443a0       ?type_case_p@?$output_processor@_WV?$string_output_adapter@_W@__crt_stdio_output@@V?$format_validation_base@_WV?$string_output_adapter@_W@__crt_stdio_output@@@2@@__crt_stdio_output@@AAE_NXZ 100453a0 f i libucrtd:output.obj
 0001:000443d0       ?type_case_p@?$output_processor@_WV?$string_output_adapter@_W@__crt_stdio_output@@V?$positional_parameter_base@_WV?$string_output_adapter@_W@__crt_stdio_output@@@2@@__crt_stdio_output@@AAE_NXZ 100453d0 f i libucrtd:output.obj
 0001:00044400       ?type_case_p@?$output_processor@_WV?$string_output_adapter@_W@__crt_stdio_output@@V?$standard_base@_WV?$string_output_adapter@_W@__crt_stdio_output@@@2@@__crt_stdio_output@@AAE_NXZ 10045400 f i libucrtd:output.obj
 0001:00044430       ?type_case_s@?$output_processor@DV?$stream_output_adapter@D@__crt_stdio_output@@V?$format_validation_base@DV?$stream_output_adapter@D@__crt_stdio_output@@@2@@__crt_stdio_output@@AAE_NXZ 10045430 f i libucrtd:output.obj
 0001:00044520       ?type_case_s@?$output_processor@DV?$stream_output_adapter@D@__crt_stdio_output@@V?$positional_parameter_base@DV?$stream_output_adapter@D@__crt_stdio_output@@@2@@__crt_stdio_output@@AAE_NXZ 10045520 f i libucrtd:output.obj
 0001:00044610       ?type_case_s@?$output_processor@DV?$stream_output_adapter@D@__crt_stdio_output@@V?$standard_base@DV?$stream_output_adapter@D@__crt_stdio_output@@@2@@__crt_stdio_output@@AAE_NXZ 10045610 f i libucrtd:output.obj
 0001:00044700       ?type_case_s@?$output_processor@DV?$string_output_adapter@D@__crt_stdio_output@@V?$format_validation_base@DV?$string_output_adapter@D@__crt_stdio_output@@@2@@__crt_stdio_output@@AAE_NXZ 10045700 f i libucrtd:output.obj
 0001:000447f0       ?type_case_s@?$output_processor@DV?$string_output_adapter@D@__crt_stdio_output@@V?$positional_parameter_base@DV?$string_output_adapter@D@__crt_stdio_output@@@2@@__crt_stdio_output@@AAE_NXZ 100457f0 f i libucrtd:output.obj
 0001:000448e0       ?type_case_s@?$output_processor@DV?$string_output_adapter@D@__crt_stdio_output@@V?$standard_base@DV?$string_output_adapter@D@__crt_stdio_output@@@2@@__crt_stdio_output@@AAE_NXZ 100458e0 f i libucrtd:output.obj
 0001:000449d0       ?type_case_s@?$output_processor@_WV?$stream_output_adapter@_W@__crt_stdio_output@@V?$format_validation_base@_WV?$stream_output_adapter@_W@__crt_stdio_output@@@2@@__crt_stdio_output@@AAE_NXZ 100459d0 f i libucrtd:output.obj
 0001:00044ac0       ?type_case_s@?$output_processor@_WV?$stream_output_adapter@_W@__crt_stdio_output@@V?$positional_parameter_base@_WV?$stream_output_adapter@_W@__crt_stdio_output@@@2@@__crt_stdio_output@@AAE_NXZ 10045ac0 f i libucrtd:output.obj
 0001:00044bb0       ?type_case_s@?$output_processor@_WV?$stream_output_adapter@_W@__crt_stdio_output@@V?$standard_base@_WV?$stream_output_adapter@_W@__crt_stdio_output@@@2@@__crt_stdio_output@@AAE_NXZ 10045bb0 f i libucrtd:output.obj
 0001:00044ca0       ?type_case_s@?$output_processor@_WV?$string_output_adapter@_W@__crt_stdio_output@@V?$format_validation_base@_WV?$string_output_adapter@_W@__crt_stdio_output@@@2@@__crt_stdio_output@@AAE_NXZ 10045ca0 f i libucrtd:output.obj
 0001:00044d90       ?type_case_s@?$output_processor@_WV?$string_output_adapter@_W@__crt_stdio_output@@V?$positional_parameter_base@_WV?$string_output_adapter@_W@__crt_stdio_output@@@2@@__crt_stdio_output@@AAE_NXZ 10045d90 f i libucrtd:output.obj
 0001:00044e80       ?type_case_s@?$output_processor@_WV?$string_output_adapter@_W@__crt_stdio_output@@V?$standard_base@_WV?$string_output_adapter@_W@__crt_stdio_output@@@2@@__crt_stdio_output@@AAE_NXZ 10045e80 f i libucrtd:output.obj
 0001:00044f70       ?type_case_s_compute_narrow_string_length@?$output_processor@DV?$stream_output_adapter@D@__crt_stdio_output@@V?$format_validation_base@DV?$stream_output_adapter@D@__crt_stdio_output@@@2@@__crt_stdio_output@@ABEHHD@Z 10045f70 f i libucrtd:output.obj
 0001:00044fa0       ?type_case_s_compute_narrow_string_length@?$output_processor@DV?$stream_output_adapter@D@__crt_stdio_output@@V?$positional_parameter_base@DV?$stream_output_adapter@D@__crt_stdio_output@@@2@@__crt_stdio_output@@ABEHHD@Z 10045fa0 f i libucrtd:output.obj
 0001:00044fd0       ?type_case_s_compute_narrow_string_length@?$output_processor@DV?$stream_output_adapter@D@__crt_stdio_output@@V?$standard_base@DV?$stream_output_adapter@D@__crt_stdio_output@@@2@@__crt_stdio_output@@ABEHHD@Z 10045fd0 f i libucrtd:output.obj
 0001:00045000       ?type_case_s_compute_narrow_string_length@?$output_processor@DV?$string_output_adapter@D@__crt_stdio_output@@V?$format_validation_base@DV?$string_output_adapter@D@__crt_stdio_output@@@2@@__crt_stdio_output@@ABEHHD@Z 10046000 f i libucrtd:output.obj
 0001:00045030       ?type_case_s_compute_narrow_string_length@?$output_processor@DV?$string_output_adapter@D@__crt_stdio_output@@V?$positional_parameter_base@DV?$string_output_adapter@D@__crt_stdio_output@@@2@@__crt_stdio_output@@ABEHHD@Z 10046030 f i libucrtd:output.obj
 0001:00045060       ?type_case_s_compute_narrow_string_length@?$output_processor@DV?$string_output_adapter@D@__crt_stdio_output@@V?$standard_base@DV?$string_output_adapter@D@__crt_stdio_output@@@2@@__crt_stdio_output@@ABEHHD@Z 10046060 f i libucrtd:output.obj
 0001:00045090       ?type_case_s_compute_narrow_string_length@?$output_processor@_WV?$stream_output_adapter@_W@__crt_stdio_output@@V?$format_validation_base@_WV?$stream_output_adapter@_W@__crt_stdio_output@@@2@@__crt_stdio_output@@ABEHH_W@Z 10046090 f i libucrtd:output.obj
 0001:00045100       ?type_case_s_compute_narrow_string_length@?$output_processor@_WV?$stream_output_adapter@_W@__crt_stdio_output@@V?$positional_parameter_base@_WV?$stream_output_adapter@_W@__crt_stdio_output@@@2@@__crt_stdio_output@@ABEHH_W@Z 10046100 f i libucrtd:output.obj
 0001:00045170       ?type_case_s_compute_narrow_string_length@?$output_processor@_WV?$stream_output_adapter@_W@__crt_stdio_output@@V?$standard_base@_WV?$stream_output_adapter@_W@__crt_stdio_output@@@2@@__crt_stdio_output@@ABEHH_W@Z 10046170 f i libucrtd:output.obj
 0001:000451e0       ?type_case_s_compute_narrow_string_length@?$output_processor@_WV?$string_output_adapter@_W@__crt_stdio_output@@V?$format_validation_base@_WV?$string_output_adapter@_W@__crt_stdio_output@@@2@@__crt_stdio_output@@ABEHH_W@Z 100461e0 f i libucrtd:output.obj
 0001:00045250       ?type_case_s_compute_narrow_string_length@?$output_processor@_WV?$string_output_adapter@_W@__crt_stdio_output@@V?$positional_parameter_base@_WV?$string_output_adapter@_W@__crt_stdio_output@@@2@@__crt_stdio_output@@ABEHH_W@Z 10046250 f i libucrtd:output.obj
 0001:000452c0       ?type_case_s_compute_narrow_string_length@?$output_processor@_WV?$string_output_adapter@_W@__crt_stdio_output@@V?$standard_base@_WV?$string_output_adapter@_W@__crt_stdio_output@@@2@@__crt_stdio_output@@ABEHH_W@Z 100462c0 f i libucrtd:output.obj
 0001:00045330       ?type_case_u@?$output_processor@DV?$stream_output_adapter@D@__crt_stdio_output@@V?$format_validation_base@DV?$stream_output_adapter@D@__crt_stdio_output@@@2@@__crt_stdio_output@@AAE_NXZ 10046330 f i libucrtd:output.obj
 0001:00045350       ?type_case_u@?$output_processor@DV?$stream_output_adapter@D@__crt_stdio_output@@V?$positional_parameter_base@DV?$stream_output_adapter@D@__crt_stdio_output@@@2@@__crt_stdio_output@@AAE_NXZ 10046350 f i libucrtd:output.obj
 0001:00045370       ?type_case_u@?$output_processor@DV?$stream_output_adapter@D@__crt_stdio_output@@V?$standard_base@DV?$stream_output_adapter@D@__crt_stdio_output@@@2@@__crt_stdio_output@@AAE_NXZ 10046370 f i libucrtd:output.obj
 0001:00045390       ?type_case_u@?$output_processor@DV?$string_output_adapter@D@__crt_stdio_output@@V?$format_validation_base@DV?$string_output_adapter@D@__crt_stdio_output@@@2@@__crt_stdio_output@@AAE_NXZ 10046390 f i libucrtd:output.obj
 0001:000453b0       ?type_case_u@?$output_processor@DV?$string_output_adapter@D@__crt_stdio_output@@V?$positional_parameter_base@DV?$string_output_adapter@D@__crt_stdio_output@@@2@@__crt_stdio_output@@AAE_NXZ 100463b0 f i libucrtd:output.obj
 0001:000453d0       ?type_case_u@?$output_processor@DV?$string_output_adapter@D@__crt_stdio_output@@V?$standard_base@DV?$string_output_adapter@D@__crt_stdio_output@@@2@@__crt_stdio_output@@AAE_NXZ 100463d0 f i libucrtd:output.obj
 0001:000453f0       ?type_case_u@?$output_processor@_WV?$stream_output_adapter@_W@__crt_stdio_output@@V?$format_validation_base@_WV?$stream_output_adapter@_W@__crt_stdio_output@@@2@@__crt_stdio_output@@AAE_NXZ 100463f0 f i libucrtd:output.obj
 0001:00045410       ?type_case_u@?$output_processor@_WV?$stream_output_adapter@_W@__crt_stdio_output@@V?$positional_parameter_base@_WV?$stream_output_adapter@_W@__crt_stdio_output@@@2@@__crt_stdio_output@@AAE_NXZ 10046410 f i libucrtd:output.obj
 0001:00045430       ?type_case_u@?$output_processor@_WV?$stream_output_adapter@_W@__crt_stdio_output@@V?$standard_base@_WV?$stream_output_adapter@_W@__crt_stdio_output@@@2@@__crt_stdio_output@@AAE_NXZ 10046430 f i libucrtd:output.obj
 0001:00045450       ?type_case_u@?$output_processor@_WV?$string_output_adapter@_W@__crt_stdio_output@@V?$format_validation_base@_WV?$string_output_adapter@_W@__crt_stdio_output@@@2@@__crt_stdio_output@@AAE_NXZ 10046450 f i libucrtd:output.obj
 0001:00045470       ?type_case_u@?$output_processor@_WV?$string_output_adapter@_W@__crt_stdio_output@@V?$positional_parameter_base@_WV?$string_output_adapter@_W@__crt_stdio_output@@@2@@__crt_stdio_output@@AAE_NXZ 10046470 f i libucrtd:output.obj
 0001:00045490       ?type_case_u@?$output_processor@_WV?$string_output_adapter@_W@__crt_stdio_output@@V?$standard_base@_WV?$string_output_adapter@_W@__crt_stdio_output@@@2@@__crt_stdio_output@@AAE_NXZ 10046490 f i libucrtd:output.obj
 0001:000454b0       ?type_case_x@?$output_processor@DV?$stream_output_adapter@D@__crt_stdio_output@@V?$format_validation_base@DV?$stream_output_adapter@D@__crt_stdio_output@@@2@@__crt_stdio_output@@AAE_NXZ 100464b0 f i libucrtd:output.obj
 0001:000454d0       ?type_case_x@?$output_processor@DV?$stream_output_adapter@D@__crt_stdio_output@@V?$positional_parameter_base@DV?$stream_output_adapter@D@__crt_stdio_output@@@2@@__crt_stdio_output@@AAE_NXZ 100464d0 f i libucrtd:output.obj
 0001:000454f0       ?type_case_x@?$output_processor@DV?$stream_output_adapter@D@__crt_stdio_output@@V?$standard_base@DV?$stream_output_adapter@D@__crt_stdio_output@@@2@@__crt_stdio_output@@AAE_NXZ 100464f0 f i libucrtd:output.obj
 0001:00045510       ?type_case_x@?$output_processor@DV?$string_output_adapter@D@__crt_stdio_output@@V?$format_validation_base@DV?$string_output_adapter@D@__crt_stdio_output@@@2@@__crt_stdio_output@@AAE_NXZ 10046510 f i libucrtd:output.obj
 0001:00045530       ?type_case_x@?$output_processor@DV?$string_output_adapter@D@__crt_stdio_output@@V?$positional_parameter_base@DV?$string_output_adapter@D@__crt_stdio_output@@@2@@__crt_stdio_output@@AAE_NXZ 10046530 f i libucrtd:output.obj
 0001:00045550       ?type_case_x@?$output_processor@DV?$string_output_adapter@D@__crt_stdio_output@@V?$standard_base@DV?$string_output_adapter@D@__crt_stdio_output@@@2@@__crt_stdio_output@@AAE_NXZ 10046550 f i libucrtd:output.obj
 0001:00045570       ?type_case_x@?$output_processor@_WV?$stream_output_adapter@_W@__crt_stdio_output@@V?$format_validation_base@_WV?$stream_output_adapter@_W@__crt_stdio_output@@@2@@__crt_stdio_output@@AAE_NXZ 10046570 f i libucrtd:output.obj
 0001:00045590       ?type_case_x@?$output_processor@_WV?$stream_output_adapter@_W@__crt_stdio_output@@V?$positional_parameter_base@_WV?$stream_output_adapter@_W@__crt_stdio_output@@@2@@__crt_stdio_output@@AAE_NXZ 10046590 f i libucrtd:output.obj
 0001:000455b0       ?type_case_x@?$output_processor@_WV?$stream_output_adapter@_W@__crt_stdio_output@@V?$standard_base@_WV?$stream_output_adapter@_W@__crt_stdio_output@@@2@@__crt_stdio_output@@AAE_NXZ 100465b0 f i libucrtd:output.obj
 0001:000455d0       ?type_case_x@?$output_processor@_WV?$string_output_adapter@_W@__crt_stdio_output@@V?$format_validation_base@_WV?$string_output_adapter@_W@__crt_stdio_output@@@2@@__crt_stdio_output@@AAE_NXZ 100465d0 f i libucrtd:output.obj
 0001:000455f0       ?type_case_x@?$output_processor@_WV?$string_output_adapter@_W@__crt_stdio_output@@V?$positional_parameter_base@_WV?$string_output_adapter@_W@__crt_stdio_output@@@2@@__crt_stdio_output@@AAE_NXZ 100465f0 f i libucrtd:output.obj
 0001:00045610       ?type_case_x@?$output_processor@_WV?$string_output_adapter@_W@__crt_stdio_output@@V?$standard_base@_WV?$string_output_adapter@_W@__crt_stdio_output@@@2@@__crt_stdio_output@@AAE_NXZ 10046610 f i libucrtd:output.obj
 0001:00045630       ?unset_flag@?$output_processor@DV?$stream_output_adapter@D@__crt_stdio_output@@V?$format_validation_base@DV?$stream_output_adapter@D@__crt_stdio_output@@@2@@__crt_stdio_output@@AAEXI@Z 10046630 f i libucrtd:output.obj
 0001:00045650       ?unset_flag@?$output_processor@DV?$stream_output_adapter@D@__crt_stdio_output@@V?$positional_parameter_base@DV?$stream_output_adapter@D@__crt_stdio_output@@@2@@__crt_stdio_output@@AAEXI@Z 10046650 f i libucrtd:output.obj
 0001:00045670       ?unset_flag@?$output_processor@DV?$stream_output_adapter@D@__crt_stdio_output@@V?$standard_base@DV?$stream_output_adapter@D@__crt_stdio_output@@@2@@__crt_stdio_output@@AAEXI@Z 10046670 f i libucrtd:output.obj
 0001:00045690       ?unset_flag@?$output_processor@DV?$string_output_adapter@D@__crt_stdio_output@@V?$format_validation_base@DV?$string_output_adapter@D@__crt_stdio_output@@@2@@__crt_stdio_output@@AAEXI@Z 10046690 f i libucrtd:output.obj
 0001:000456b0       ?unset_flag@?$output_processor@DV?$string_output_adapter@D@__crt_stdio_output@@V?$positional_parameter_base@DV?$string_output_adapter@D@__crt_stdio_output@@@2@@__crt_stdio_output@@AAEXI@Z 100466b0 f i libucrtd:output.obj
 0001:000456d0       ?unset_flag@?$output_processor@DV?$string_output_adapter@D@__crt_stdio_output@@V?$standard_base@DV?$string_output_adapter@D@__crt_stdio_output@@@2@@__crt_stdio_output@@AAEXI@Z 100466d0 f i libucrtd:output.obj
 0001:000456f0       ?unset_flag@?$output_processor@_WV?$stream_output_adapter@_W@__crt_stdio_output@@V?$format_validation_base@_WV?$stream_output_adapter@_W@__crt_stdio_output@@@2@@__crt_stdio_output@@AAEXI@Z 100466f0 f i libucrtd:output.obj
 0001:00045710       ?unset_flag@?$output_processor@_WV?$stream_output_adapter@_W@__crt_stdio_output@@V?$positional_parameter_base@_WV?$stream_output_adapter@_W@__crt_stdio_output@@@2@@__crt_stdio_output@@AAEXI@Z 10046710 f i libucrtd:output.obj
 0001:00045730       ?unset_flag@?$output_processor@_WV?$stream_output_adapter@_W@__crt_stdio_output@@V?$standard_base@_WV?$stream_output_adapter@_W@__crt_stdio_output@@@2@@__crt_stdio_output@@AAEXI@Z 10046730 f i libucrtd:output.obj
 0001:00045750       ?unset_flag@?$output_processor@_WV?$string_output_adapter@_W@__crt_stdio_output@@V?$format_validation_base@_WV?$string_output_adapter@_W@__crt_stdio_output@@@2@@__crt_stdio_output@@AAEXI@Z 10046750 f i libucrtd:output.obj
 0001:00045770       ?unset_flag@?$output_processor@_WV?$string_output_adapter@_W@__crt_stdio_output@@V?$positional_parameter_base@_WV?$string_output_adapter@_W@__crt_stdio_output@@@2@@__crt_stdio_output@@AAEXI@Z 10046770 f i libucrtd:output.obj
 0001:00045790       ?unset_flag@?$output_processor@_WV?$string_output_adapter@_W@__crt_stdio_output@@V?$standard_base@_WV?$string_output_adapter@_W@__crt_stdio_output@@@2@@__crt_stdio_output@@AAEXI@Z 10046790 f i libucrtd:output.obj
 0001:000457b0       ?update_field_width@?$positional_parameter_base@DV?$stream_output_adapter@D@__crt_stdio_output@@@__crt_stdio_output@@IAE_NXZ 100467b0 f i libucrtd:output.obj
 0001:00045930       ?update_field_width@?$positional_parameter_base@DV?$string_output_adapter@D@__crt_stdio_output@@@__crt_stdio_output@@IAE_NXZ 10046930 f i libucrtd:output.obj
 0001:00045ab0       ?update_field_width@?$positional_parameter_base@_WV?$stream_output_adapter@_W@__crt_stdio_output@@@__crt_stdio_output@@IAE_NXZ 10046ab0 f i libucrtd:output.obj
 0001:00045c30       ?update_field_width@?$positional_parameter_base@_WV?$string_output_adapter@_W@__crt_stdio_output@@@__crt_stdio_output@@IAE_NXZ 10046c30 f i libucrtd:output.obj
 0001:00045db0       ?update_field_width@?$standard_base@DV?$stream_output_adapter@D@__crt_stdio_output@@@__crt_stdio_output@@IAE_NXZ 10046db0 f i libucrtd:output.obj
 0001:00045de0       ?update_field_width@?$standard_base@DV?$string_output_adapter@D@__crt_stdio_output@@@__crt_stdio_output@@IAE_NXZ 10046de0 f i libucrtd:output.obj
 0001:00045e10       ?update_field_width@?$standard_base@_WV?$stream_output_adapter@_W@__crt_stdio_output@@@__crt_stdio_output@@IAE_NXZ 10046e10 f i libucrtd:output.obj
 0001:00045e40       ?update_field_width@?$standard_base@_WV?$string_output_adapter@_W@__crt_stdio_output@@@__crt_stdio_output@@IAE_NXZ 10046e40 f i libucrtd:output.obj
 0001:00045e70       ?update_precision@?$positional_parameter_base@DV?$stream_output_adapter@D@__crt_stdio_output@@@__crt_stdio_output@@IAE_NXZ 10046e70 f i libucrtd:output.obj
 0001:00045ff0       ?update_precision@?$positional_parameter_base@DV?$string_output_adapter@D@__crt_stdio_output@@@__crt_stdio_output@@IAE_NXZ 10046ff0 f i libucrtd:output.obj
 0001:00046170       ?update_precision@?$positional_parameter_base@_WV?$stream_output_adapter@_W@__crt_stdio_output@@@__crt_stdio_output@@IAE_NXZ 10047170 f i libucrtd:output.obj
 0001:000462f0       ?update_precision@?$positional_parameter_base@_WV?$string_output_adapter@_W@__crt_stdio_output@@@__crt_stdio_output@@IAE_NXZ 100472f0 f i libucrtd:output.obj
 0001:00046470       ?update_precision@?$standard_base@DV?$stream_output_adapter@D@__crt_stdio_output@@@__crt_stdio_output@@IAE_NXZ 10047470 f i libucrtd:output.obj
 0001:000464a0       ?update_precision@?$standard_base@DV?$string_output_adapter@D@__crt_stdio_output@@@__crt_stdio_output@@IAE_NXZ 100474a0 f i libucrtd:output.obj
 0001:000464d0       ?update_precision@?$standard_base@_WV?$stream_output_adapter@_W@__crt_stdio_output@@@__crt_stdio_output@@IAE_NXZ 100474d0 f i libucrtd:output.obj
 0001:00046500       ?update_precision@?$standard_base@_WV?$string_output_adapter@_W@__crt_stdio_output@@@__crt_stdio_output@@IAE_NXZ 10047500 f i libucrtd:output.obj
 0001:00046530       ?valid@__crt_stdio_stream@@QBE_NXZ 10047530 f i libucrtd:output.obj
 0001:00046560       ?validate@?$stream_output_adapter@D@__crt_stdio_output@@QBE_NXZ 10047560 f i libucrtd:output.obj
 0001:00046610       ?validate@?$stream_output_adapter@_W@__crt_stdio_output@@QBE_NXZ 10047610 f i libucrtd:output.obj
 0001:000466c0       ?validate@?$string_output_adapter@D@__crt_stdio_output@@QBE_NXZ 100476c0 f i libucrtd:output.obj
 0001:00046750       ?validate@?$string_output_adapter@_W@__crt_stdio_output@@QBE_NXZ 10047750 f i libucrtd:output.obj
 0001:000467e0       ?validate_and_store_parameter_data@?$positional_parameter_base@DV?$stream_output_adapter@D@__crt_stdio_output@@@__crt_stdio_output@@AAE_NAAUparameter_data@12@W4parameter_type@12@DW4length_modifier@2@@Z 100477e0 f i libucrtd:output.obj
 0001:000468b0       ?validate_and_store_parameter_data@?$positional_parameter_base@DV?$string_output_adapter@D@__crt_stdio_output@@@__crt_stdio_output@@AAE_NAAUparameter_data@12@W4parameter_type@12@DW4length_modifier@2@@Z 100478b0 f i libucrtd:output.obj
 0001:00046980       ?validate_and_store_parameter_data@?$positional_parameter_base@_WV?$stream_output_adapter@_W@__crt_stdio_output@@@__crt_stdio_output@@AAE_NAAUparameter_data@12@W4parameter_type@12@_WW4length_modifier@2@@Z 10047980 f i libucrtd:output.obj
 0001:00046a60       ?validate_and_store_parameter_data@?$positional_parameter_base@_WV?$string_output_adapter@_W@__crt_stdio_output@@@__crt_stdio_output@@AAE_NAAUparameter_data@12@W4parameter_type@12@_WW4length_modifier@2@@Z 10047a60 f i libucrtd:output.obj
 0001:00046b40       ?validate_and_update_state_at_beginning_of_format_character@?$positional_parameter_base@DV?$stream_output_adapter@D@__crt_stdio_output@@@__crt_stdio_output@@IAE_NXZ 10047b40 f i libucrtd:output.obj
 0001:00046d60       ?validate_and_update_state_at_beginning_of_format_character@?$positional_parameter_base@DV?$string_output_adapter@D@__crt_stdio_output@@@__crt_stdio_output@@IAE_NXZ 10047d60 f i libucrtd:output.obj
 0001:00046f80       ?validate_and_update_state_at_beginning_of_format_character@?$positional_parameter_base@_WV?$stream_output_adapter@_W@__crt_stdio_output@@@__crt_stdio_output@@IAE_NXZ 10047f80 f i libucrtd:output.obj
 0001:000471a0       ?validate_and_update_state_at_beginning_of_format_character@?$positional_parameter_base@_WV?$string_output_adapter@_W@__crt_stdio_output@@@__crt_stdio_output@@IAE_NXZ 100481a0 f i libucrtd:output.obj
 0001:000473c0       ?validate_and_update_state_at_beginning_of_format_character@?$standard_base@DV?$stream_output_adapter@D@__crt_stdio_output@@@__crt_stdio_output@@IAE_NXZ 100483c0 f i libucrtd:output.obj
 0001:000473d0       ?validate_and_update_state_at_beginning_of_format_character@?$standard_base@DV?$string_output_adapter@D@__crt_stdio_output@@@__crt_stdio_output@@IAE_NXZ 100483d0 f i libucrtd:output.obj
 0001:000473e0       ?validate_and_update_state_at_beginning_of_format_character@?$standard_base@_WV?$stream_output_adapter@_W@__crt_stdio_output@@@__crt_stdio_output@@IAE_NXZ 100483e0 f i libucrtd:output.obj
 0001:000473f0       ?validate_and_update_state_at_beginning_of_format_character@?$standard_base@_WV?$string_output_adapter@_W@__crt_stdio_output@@@__crt_stdio_output@@IAE_NXZ 100483f0 f i libucrtd:output.obj
 0001:00047400       ?validate_and_update_state_at_end_of_format_string@?$format_validation_base@DV?$stream_output_adapter@D@__crt_stdio_output@@@__crt_stdio_output@@IBE_NXZ 10048400 f i libucrtd:output.obj
 0001:000474a0       ?validate_and_update_state_at_end_of_format_string@?$format_validation_base@DV?$string_output_adapter@D@__crt_stdio_output@@@__crt_stdio_output@@IBE_NXZ 100484a0 f i libucrtd:output.obj
 0001:00047540       ?validate_and_update_state_at_end_of_format_string@?$format_validation_base@_WV?$stream_output_adapter@_W@__crt_stdio_output@@@__crt_stdio_output@@IBE_NXZ 10048540 f i libucrtd:output.obj
 0001:000475e0       ?validate_and_update_state_at_end_of_format_string@?$format_validation_base@_WV?$string_output_adapter@_W@__crt_stdio_output@@@__crt_stdio_output@@IBE_NXZ 100485e0 f i libucrtd:output.obj
 0001:00047680       ?validate_and_update_state_at_end_of_format_string@?$positional_parameter_base@DV?$stream_output_adapter@D@__crt_stdio_output@@@__crt_stdio_output@@IAE_NXZ 10048680 f i libucrtd:output.obj
 0001:00047820       ?validate_and_update_state_at_end_of_format_string@?$positional_parameter_base@DV?$string_output_adapter@D@__crt_stdio_output@@@__crt_stdio_output@@IAE_NXZ 10048820 f i libucrtd:output.obj
 0001:000479c0       ?validate_and_update_state_at_end_of_format_string@?$positional_parameter_base@_WV?$stream_output_adapter@_W@__crt_stdio_output@@@__crt_stdio_output@@IAE_NXZ 100489c0 f i libucrtd:output.obj
 0001:00047b60       ?validate_and_update_state_at_end_of_format_string@?$positional_parameter_base@_WV?$string_output_adapter@_W@__crt_stdio_output@@@__crt_stdio_output@@IAE_NXZ 10048b60 f i libucrtd:output.obj
 0001:00047d00       ?validate_and_update_state_at_end_of_format_string@?$standard_base@DV?$stream_output_adapter@D@__crt_stdio_output@@@__crt_stdio_output@@IBE_NXZ 10048d00 f i libucrtd:output.obj
 0001:00047d10       ?validate_and_update_state_at_end_of_format_string@?$standard_base@DV?$string_output_adapter@D@__crt_stdio_output@@@__crt_stdio_output@@IBE_NXZ 10048d10 f i libucrtd:output.obj
 0001:00047d20       ?validate_and_update_state_at_end_of_format_string@?$standard_base@_WV?$stream_output_adapter@_W@__crt_stdio_output@@@__crt_stdio_output@@IBE_NXZ 10048d20 f i libucrtd:output.obj
 0001:00047d30       ?validate_and_update_state_at_end_of_format_string@?$standard_base@_WV?$string_output_adapter@_W@__crt_stdio_output@@@__crt_stdio_output@@IBE_NXZ 10048d30 f i libucrtd:output.obj
 0001:00047d40       ?validate_state_for_type_case_a@?$positional_parameter_base@DV?$stream_output_adapter@D@__crt_stdio_output@@@__crt_stdio_output@@IAE_NXZ 10048d40 f i libucrtd:output.obj
 0001:00047e30       ?validate_state_for_type_case_a@?$positional_parameter_base@DV?$string_output_adapter@D@__crt_stdio_output@@@__crt_stdio_output@@IAE_NXZ 10048e30 f i libucrtd:output.obj
 0001:00047f20       ?validate_state_for_type_case_a@?$positional_parameter_base@_WV?$stream_output_adapter@_W@__crt_stdio_output@@@__crt_stdio_output@@IAE_NXZ 10048f20 f i libucrtd:output.obj
 0001:00048010       ?validate_state_for_type_case_a@?$positional_parameter_base@_WV?$string_output_adapter@_W@__crt_stdio_output@@@__crt_stdio_output@@IAE_NXZ 10049010 f i libucrtd:output.obj
 0001:00048100       ?validate_state_for_type_case_a@?$standard_base@DV?$stream_output_adapter@D@__crt_stdio_output@@@__crt_stdio_output@@IBE_NXZ 10049100 f i libucrtd:output.obj
 0001:00048110       ?validate_state_for_type_case_a@?$standard_base@DV?$string_output_adapter@D@__crt_stdio_output@@@__crt_stdio_output@@IBE_NXZ 10049110 f i libucrtd:output.obj
 0001:00048120       ?validate_state_for_type_case_a@?$standard_base@_WV?$stream_output_adapter@_W@__crt_stdio_output@@@__crt_stdio_output@@IBE_NXZ 10049120 f i libucrtd:output.obj
 0001:00048130       ?validate_state_for_type_case_a@?$standard_base@_WV?$string_output_adapter@_W@__crt_stdio_output@@@__crt_stdio_output@@IBE_NXZ 10049130 f i libucrtd:output.obj
 0001:00048140       ?validate_stream_is_ansi_if_required@?$__acrt_stdio_char_traits@D@@SA_NQAU_iobuf@@@Z 10049140 f i libucrtd:output.obj
 0001:00048270       ?validate_stream_is_ansi_if_required@?$__acrt_stdio_char_traits@_W@@SA_NQAU_iobuf@@@Z 10049270 f i libucrtd:output.obj
 0001:00048280       ?wide_null_string@?$output_processor@DV?$stream_output_adapter@D@__crt_stdio_output@@V?$format_validation_base@DV?$stream_output_adapter@D@__crt_stdio_output@@@2@@__crt_stdio_output@@CAPA_WXZ 10049280 f i libucrtd:output.obj
 0001:00048290       ?wide_null_string@?$output_processor@DV?$stream_output_adapter@D@__crt_stdio_output@@V?$positional_parameter_base@DV?$stream_output_adapter@D@__crt_stdio_output@@@2@@__crt_stdio_output@@CAPA_WXZ 10049290 f i libucrtd:output.obj
 0001:000482a0       ?wide_null_string@?$output_processor@DV?$stream_output_adapter@D@__crt_stdio_output@@V?$standard_base@DV?$stream_output_adapter@D@__crt_stdio_output@@@2@@__crt_stdio_output@@CAPA_WXZ 100492a0 f i libucrtd:output.obj
 0001:000482b0       ?wide_null_string@?$output_processor@DV?$string_output_adapter@D@__crt_stdio_output@@V?$format_validation_base@DV?$string_output_adapter@D@__crt_stdio_output@@@2@@__crt_stdio_output@@CAPA_WXZ 100492b0 f i libucrtd:output.obj
 0001:000482c0       ?wide_null_string@?$output_processor@DV?$string_output_adapter@D@__crt_stdio_output@@V?$positional_parameter_base@DV?$string_output_adapter@D@__crt_stdio_output@@@2@@__crt_stdio_output@@CAPA_WXZ 100492c0 f i libucrtd:output.obj
 0001:000482d0       ?wide_null_string@?$output_processor@DV?$string_output_adapter@D@__crt_stdio_output@@V?$standard_base@DV?$string_output_adapter@D@__crt_stdio_output@@@2@@__crt_stdio_output@@CAPA_WXZ 100492d0 f i libucrtd:output.obj
 0001:000482e0       ?wide_null_string@?$output_processor@_WV?$stream_output_adapter@_W@__crt_stdio_output@@V?$format_validation_base@_WV?$stream_output_adapter@_W@__crt_stdio_output@@@2@@__crt_stdio_output@@CAPA_WXZ 100492e0 f i libucrtd:output.obj
 0001:000482f0       ?wide_null_string@?$output_processor@_WV?$stream_output_adapter@_W@__crt_stdio_output@@V?$positional_parameter_base@_WV?$stream_output_adapter@_W@__crt_stdio_output@@@2@@__crt_stdio_output@@CAPA_WXZ 100492f0 f i libucrtd:output.obj
 0001:00048300       ?wide_null_string@?$output_processor@_WV?$stream_output_adapter@_W@__crt_stdio_output@@V?$standard_base@_WV?$stream_output_adapter@_W@__crt_stdio_output@@@2@@__crt_stdio_output@@CAPA_WXZ 10049300 f i libucrtd:output.obj
 0001:00048310       ?wide_null_string@?$output_processor@_WV?$string_output_adapter@_W@__crt_stdio_output@@V?$format_validation_base@_WV?$string_output_adapter@_W@__crt_stdio_output@@@2@@__crt_stdio_output@@CAPA_WXZ 10049310 f i libucrtd:output.obj
 0001:00048320       ?wide_null_string@?$output_processor@_WV?$string_output_adapter@_W@__crt_stdio_output@@V?$positional_parameter_base@_WV?$string_output_adapter@_W@__crt_stdio_output@@@2@@__crt_stdio_output@@CAPA_WXZ 10049320 f i libucrtd:output.obj
 0001:00048330       ?wide_null_string@?$output_processor@_WV?$string_output_adapter@_W@__crt_stdio_output@@V?$standard_base@_WV?$string_output_adapter@_W@__crt_stdio_output@@@2@@__crt_stdio_output@@CAPA_WXZ 10049330 f i libucrtd:output.obj
 0001:00048340       ?write_character@?$output_adapter_common@DV?$stream_output_adapter@D@__crt_stdio_output@@@__crt_stdio_output@@QBEXDQAH@Z 10049340 f i libucrtd:output.obj
 0001:00048380       ?write_character@?$output_adapter_common@_WV?$stream_output_adapter@_W@__crt_stdio_output@@@__crt_stdio_output@@QBEX_WQAH@Z 10049380 f i libucrtd:output.obj
 0001:000483c0       ?write_character@?$string_output_adapter@D@__crt_stdio_output@@QBE_NDQAH@Z 100493c0 f i libucrtd:output.obj
 0001:00048450       ?write_character@?$string_output_adapter@_W@__crt_stdio_output@@QBE_N_WQAH@Z 10049450 f i libucrtd:output.obj
 0001:000484f0       ?write_character_without_count_update@?$stream_output_adapter@D@__crt_stdio_output@@QBE_ND@Z 100494f0 f i libucrtd:output.obj
 0001:00048560       ?write_character_without_count_update@?$stream_output_adapter@_W@__crt_stdio_output@@QBE_N_W@Z 10049560 f i libucrtd:output.obj
 0001:000485d0       ?write_stored_string_tchar@?$output_processor@DV?$stream_output_adapter@D@__crt_stdio_output@@V?$format_validation_base@DV?$stream_output_adapter@D@__crt_stdio_output@@@2@@__crt_stdio_output@@AAE_ND@Z 100495d0 f i libucrtd:output.obj
 0001:000486f0       ?write_stored_string_tchar@?$output_processor@DV?$stream_output_adapter@D@__crt_stdio_output@@V?$positional_parameter_base@DV?$stream_output_adapter@D@__crt_stdio_output@@@2@@__crt_stdio_output@@AAE_ND@Z 100496f0 f i libucrtd:output.obj
 0001:00048810       ?write_stored_string_tchar@?$output_processor@DV?$stream_output_adapter@D@__crt_stdio_output@@V?$standard_base@DV?$stream_output_adapter@D@__crt_stdio_output@@@2@@__crt_stdio_output@@AAE_ND@Z 10049810 f i libucrtd:output.obj
 0001:00048930       ?write_stored_string_tchar@?$output_processor@DV?$string_output_adapter@D@__crt_stdio_output@@V?$format_validation_base@DV?$string_output_adapter@D@__crt_stdio_output@@@2@@__crt_stdio_output@@AAE_ND@Z 10049930 f i libucrtd:output.obj
 0001:00048a50       ?write_stored_string_tchar@?$output_processor@DV?$string_output_adapter@D@__crt_stdio_output@@V?$positional_parameter_base@DV?$string_output_adapter@D@__crt_stdio_output@@@2@@__crt_stdio_output@@AAE_ND@Z 10049a50 f i libucrtd:output.obj
 0001:00048b70       ?write_stored_string_tchar@?$output_processor@DV?$string_output_adapter@D@__crt_stdio_output@@V?$standard_base@DV?$string_output_adapter@D@__crt_stdio_output@@@2@@__crt_stdio_output@@AAE_ND@Z 10049b70 f i libucrtd:output.obj
 0001:00048c90       ?write_stored_string_tchar@?$output_processor@_WV?$stream_output_adapter@_W@__crt_stdio_output@@V?$format_validation_base@_WV?$stream_output_adapter@_W@__crt_stdio_output@@@2@@__crt_stdio_output@@AAE_N_W@Z 10049c90 f i libucrtd:output.obj
 0001:00048d80       ?write_stored_string_tchar@?$output_processor@_WV?$stream_output_adapter@_W@__crt_stdio_output@@V?$positional_parameter_base@_WV?$stream_output_adapter@_W@__crt_stdio_output@@@2@@__crt_stdio_output@@AAE_N_W@Z 10049d80 f i libucrtd:output.obj
 0001:00048e70       ?write_stored_string_tchar@?$output_processor@_WV?$stream_output_adapter@_W@__crt_stdio_output@@V?$standard_base@_WV?$stream_output_adapter@_W@__crt_stdio_output@@@2@@__crt_stdio_output@@AAE_N_W@Z 10049e70 f i libucrtd:output.obj
 0001:00048f60       ?write_stored_string_tchar@?$output_processor@_WV?$string_output_adapter@_W@__crt_stdio_output@@V?$format_validation_base@_WV?$string_output_adapter@_W@__crt_stdio_output@@@2@@__crt_stdio_output@@AAE_N_W@Z 10049f60 f i libucrtd:output.obj
 0001:00049050       ?write_stored_string_tchar@?$output_processor@_WV?$string_output_adapter@_W@__crt_stdio_output@@V?$positional_parameter_base@_WV?$string_output_adapter@_W@__crt_stdio_output@@@2@@__crt_stdio_output@@AAE_N_W@Z 1004a050 f i libucrtd:output.obj
 0001:00049140       ?write_stored_string_tchar@?$output_processor@_WV?$string_output_adapter@_W@__crt_stdio_output@@V?$standard_base@_WV?$string_output_adapter@_W@__crt_stdio_output@@@2@@__crt_stdio_output@@AAE_N_W@Z 1004a140 f i libucrtd:output.obj
 0001:00049230       ?write_string@?$stream_output_adapter@D@__crt_stdio_output@@QBEXQBDHQAHAAV__crt_deferred_errno_cache@@@Z 1004a230 f i libucrtd:output.obj
 0001:00049290       ?write_string@?$stream_output_adapter@_W@__crt_stdio_output@@QBEXQB_WHQAHAAV__crt_deferred_errno_cache@@@Z 1004a290 f i libucrtd:output.obj
 0001:000492f0       ?write_string@?$string_output_adapter@D@__crt_stdio_output@@QBEXQBDHQAHAAV__crt_deferred_errno_cache@@@Z 1004a2f0 f i libucrtd:output.obj
 0001:000493f0       ?write_string@?$string_output_adapter@_W@__crt_stdio_output@@QBEXQB_WHQAHAAV__crt_deferred_errno_cache@@@Z 1004a3f0 f i libucrtd:output.obj
 0001:00049500       ?write_string_impl@?$output_adapter_common@DV?$stream_output_adapter@D@__crt_stdio_output@@@__crt_stdio_output@@IBEXQBDHQAHAAV__crt_deferred_errno_cache@@@Z 1004a500 f i libucrtd:output.obj
 0001:000495a0       ?write_string_impl@?$output_adapter_common@_WV?$stream_output_adapter@_W@__crt_stdio_output@@@__crt_stdio_output@@IBEXQB_WHQAHAAV__crt_deferred_errno_cache@@@Z 1004a5a0 f i libucrtd:output.obj
 0001:00049640       ___acrt_disable_global_locale_sync 1004a640 f i libucrtd:output.obj
 0001:00049660       ___acrt_enable_global_locale_sync 1004a660 f i libucrtd:output.obj
 0001:00049680       ___acrt_isleadbyte_l_noupdate 1004a680 f i libucrtd:output.obj
 0001:000496a0       ___acrt_locale_changed     1004a6a0 f i libucrtd:output.obj
 0001:000496d0       ___acrt_locale_get_ctype_array_value 1004a6d0 f i libucrtd:output.obj
 0001:00049700       ___stdio_common_vfprintf   1004a700 f   libucrtd:output.obj
 0001:00049730       ___stdio_common_vfprintf_p 1004a730 f   libucrtd:output.obj
 0001:00049760       ___stdio_common_vfprintf_s 1004a760 f   libucrtd:output.obj
 0001:00049790       ___stdio_common_vfwprintf  1004a790 f   libucrtd:output.obj
 0001:000497c0       ___stdio_common_vfwprintf_p 1004a7c0 f   libucrtd:output.obj
 0001:000497f0       ___stdio_common_vfwprintf_s 1004a7f0 f   libucrtd:output.obj
 0001:00049820       ___stdio_common_vsnprintf_s 1004a820 f   libucrtd:output.obj
 0001:00049850       ___stdio_common_vsnwprintf_s 1004a850 f   libucrtd:output.obj
 0001:00049880       ___stdio_common_vsprintf   1004a880 f   libucrtd:output.obj
 0001:000498b0       ___stdio_common_vsprintf_p 1004a8b0 f   libucrtd:output.obj
 0001:000498e0       ___stdio_common_vsprintf_s 1004a8e0 f   libucrtd:output.obj
 0001:00049910       ___stdio_common_vswprintf  1004a910 f   libucrtd:output.obj
 0001:00049940       ___stdio_common_vswprintf_p 1004a940 f   libucrtd:output.obj
 0001:00049970       ___stdio_common_vswprintf_s 1004a970 f   libucrtd:output.obj
 0001:000499a0       __ctype_fast_check_internal 1004a9a0 f i libucrtd:output.obj
 0001:000499c0       __isdigit_fast_internal    1004a9c0 f i libucrtd:output.obj
 0001:000499e0       __tolower_fast_internal    1004a9e0 f i libucrtd:output.obj
 0001:00049a00       ??$__crt_fast_decode_pointer@P6AXPB_W00II@Z@@YAP6AXPB_W00II@ZQ6AX000II@Z@Z 1004aa00 f i libucrtd:invalid_parameter.obj
 0001:00049a30       ??$__crt_fast_encode_pointer@P6AXPB_W00II@Z@@YAP6AXPB_W00II@ZQ6AX000II@Z@Z 1004aa30 f i libucrtd:invalid_parameter.obj
 0001:00049a60       ??$initialize_from_array@$$BY00Q6AXPB_W00II@Z@?$dual_state_global@P6AXPB_W00II@Z@__crt_state_management@@QAAXAAY00Q6AXPB_W00II@Z@Z 1004aa60 f i libucrtd:invalid_parameter.obj
 0001:00049ab0       ?__crt_rotate_pointer_value@@YAIIH@Z 1004aab0 f i libucrtd:invalid_parameter.obj
 0001:00049ac0       ?dangerous_get_state_array@?$dual_state_global@P6AXPB_W00II@Z@__crt_state_management@@QAEPAP6AXPB_W00II@ZXZ 1004aac0 f i libucrtd:invalid_parameter.obj
 0001:00049ad0       ?get_current_state_index@__crt_state_management@@YAIXZ 1004aad0 f i libucrtd:invalid_parameter.obj
 0001:00049ae0       ?value@?$dual_state_global@P6AXPB_W00II@Z@__crt_state_management@@QAEAAP6AXPB_W00II@ZXZ 1004aae0 f i libucrtd:invalid_parameter.obj
 0001:00049b00       ___acrt_call_reportfault   1004ab00 f   libucrtd:invalid_parameter.obj
 0001:00049c60       ___acrt_initialize_invalid_parameter_handler 1004ac60 f   libucrtd:invalid_parameter.obj
 0001:00049c90       __get_invalid_parameter_handler 1004ac90 f   libucrtd:invalid_parameter.obj
 0001:00049cb0       __get_thread_local_invalid_parameter_handler 1004acb0 f   libucrtd:invalid_parameter.obj
 0001:00049ce0       __invalid_parameter        1004ace0 f   libucrtd:invalid_parameter.obj
 0001:00049da0       __invalid_parameter_noinfo 1004ada0 f   libucrtd:invalid_parameter.obj
 0001:00049dc0       __invalid_parameter_noinfo_noreturn 1004adc0 f   libucrtd:invalid_parameter.obj
 0001:00049df0       __invoke_watson            1004adf0 f   libucrtd:invalid_parameter.obj
 0001:00049e30       __set_invalid_parameter_handler 1004ae30 f   libucrtd:invalid_parameter.obj
 0001:00049e80       __set_thread_local_invalid_parameter_handler 1004ae80 f   libucrtd:invalid_parameter.obj
 0001:00049eb0       ___acrt_errno_from_os_error 1004aeb0 f   libucrtd:errno.obj
 0001:00049f30       ___acrt_errno_map_os_error 1004af30 f   libucrtd:errno.obj
 0001:00049f60       ___doserrno                1004af60 f   libucrtd:errno.obj
 0001:00049f90       __errno                    1004af90 f   libucrtd:errno.obj
 0001:00049fc0       __get_doserrno             1004afc0 f   libucrtd:errno.obj
 0001:0004a050       __get_errno                1004b050 f   libucrtd:errno.obj
 0001:0004a0e0       __set_doserrno             1004b0e0 f   libucrtd:errno.obj
 0001:0004a110       __set_errno                1004b110 f   libucrtd:errno.obj
 0001:0004a140       __recalloc                 1004b140 f   libucrtd:recalloc.obj
 0001:0004a170       __recalloc_base            1004b170 f   libucrtd:recalloc.obj
 0001:0004a630       _wcscat_s                  1004b630 f   libucrtd:wcscat_s.obj
 0001:0004aa80       _wcsncpy_s                 1004ba80 f   libucrtd:wcsncpy_s.obj
 0001:0004aaf0       __seh_filter_dll           1004baf0 f   libucrtd:exception_filter.obj
 0001:0004ab20       __seh_filter_exe           1004bb20 f   libucrtd:exception_filter.obj
 0001:0004ad30       ??$?B$$A6GXPAXK0@Z@__crt_fast_encoded_nullptr_t@@QBEP6GXPAXK0@ZXZ 1004bd30 f i libucrtd:exit.obj
 0001:0004ae10       ??$__crt_fast_decode_pointer@P6GXPAXK0@Z@@YAP6GXPAXK0@ZQ6GX0K0@Z@Z 1004be10 f i libucrtd:exit.obj
 0001:0004ae40       ??$__crt_fast_encode_pointer@P6GXPAXK0@Z@@YAP6GXPAXK0@ZQ6GX0K0@Z@Z 1004be40 f i libucrtd:exit.obj
 0001:0004ae70       ??$__crt_get_proc_address@P6GXI@Z@@YAP6GXI@ZQAUHINSTANCE__@@QBD@Z 1004be70 f i libucrtd:exit.obj
 0001:0004af00       ??0?$__crt_unique_handle_t@U__crt_hmodule_traits@@@@QAE@QAUHINSTANCE__@@@Z 1004bf00 f i libucrtd:exit.obj
 0001:0004af20       ??1?$__crt_unique_handle_t@U__crt_hmodule_traits@@@@QAE@XZ 1004bf20 f i libucrtd:exit.obj
 0001:0004b0e0       ?__acrt_select_exit_lock@@YA?AW4__acrt_lock_id@@XZ 1004c0e0 f i libucrtd:exit.obj
 0001:0004b0f0       ?__crt_fast_encode_pointer@@YA?AU__crt_fast_encoded_nullptr_t@@$$T@Z 1004c0f0 f i libucrtd:exit.obj
 0001:0004b120       ?close@?$__crt_unique_handle_t@U__crt_hmodule_traits@@@@QAEXXZ 1004c120 f i libucrtd:exit.obj
 0001:0004b160       ?close@__crt_hmodule_traits@@SA_NPAUHINSTANCE__@@@Z 1004c160 f i libucrtd:exit.obj
 0001:0004b250       ?get@?$__crt_unique_handle_t@U__crt_hmodule_traits@@@@QBEPAUHINSTANCE__@@XZ 1004c250 f i libucrtd:exit.obj
 0001:0004b270       ?get_address_of@?$__crt_unique_handle_t@U__crt_hmodule_traits@@@@QAEPAPAUHINSTANCE__@@XZ 1004c270 f i libucrtd:exit.obj
 0001:0004b280       ?get_invalid_value@__crt_hmodule_traits@@SAPAUHINSTANCE__@@XZ 1004c280 f i libucrtd:exit.obj
 0001:0004b400       __Exit                     1004c400 f   libucrtd:exit.obj
 0001:0004b420       ___acrt_initialize_thread_local_exit_callback 1004c420 f   libucrtd:exit.obj
 0001:0004b430       __c_exit                   1004c430 f   libucrtd:exit.obj
 0001:0004b450       __cexit                    1004c450 f   libucrtd:exit.obj
 0001:0004b470       __exit                     1004c470 f   libucrtd:exit.obj
 0001:0004b490       __is_c_termination_complete 1004c490 f   libucrtd:exit.obj
 0001:0004b4b0       __register_thread_local_exe_atexit_callback 1004c4b0 f   libucrtd:exit.obj
 0001:0004b4f0       _exit                      1004c4f0 f   libucrtd:exit.obj
 0001:0004b510       _quick_exit                1004c510 f   libucrtd:exit.obj
 0001:0004b530       ??$?RE@__crt_internal_free_policy@@QBEXQBE@Z 1004c530 f i libucrtd:argv_parsing.obj
 0001:0004b550       ??$?RPAD@__crt_internal_free_policy@@QBEXQBQAD@Z 1004c550 f i libucrtd:argv_parsing.obj
 0001:0004b570       ??$?RPA_W@__crt_internal_free_policy@@QBEXQBQA_W@Z 1004c570 f i libucrtd:argv_parsing.obj
 0001:0004bad0       ??$get_module_file_name@$$TAAY0BAF@DH@?$__crt_char_traits@D@@SAK$$QA$$TAAY0BAF@D$$QAH@Z 1004cad0 f i libucrtd:argv_parsing.obj
 0001:0004baf0       ??$get_module_file_name@$$TAAY0BAF@_WH@?$__crt_char_traits@_W@@SAK$$QA$$TAAY0BAF@_W$$QAH@Z 1004caf0 f i libucrtd:argv_parsing.obj
 0001:0004c210       ??$set_program_name@PAD@?$__crt_char_traits@D@@SAX$$QAPAD@Z 1004d210 f i libucrtd:argv_parsing.obj
 0001:0004c230       ??$set_program_name@PA_W@?$__crt_char_traits@_W@@SAX$$QAPA_W@Z 1004d230 f i libucrtd:argv_parsing.obj
 0001:0004c290       ??0?$__crt_unique_heap_ptr@EU__crt_internal_free_policy@@@@QAE@QAE@Z 1004d290 f i libucrtd:argv_parsing.obj
 0001:0004c2b0       ??0?$__crt_unique_heap_ptr@PADU__crt_internal_free_policy@@@@QAE@QAPAD@Z 1004d2b0 f i libucrtd:argv_parsing.obj
 0001:0004c2d0       ??0?$__crt_unique_heap_ptr@PA_WU__crt_internal_free_policy@@@@QAE@QAPA_W@Z 1004d2d0 f i libucrtd:argv_parsing.obj
 0001:0004c2f0       ??1?$__crt_unique_heap_ptr@EU__crt_internal_free_policy@@@@QAE@XZ 1004d2f0 f i libucrtd:argv_parsing.obj
 0001:0004c310       ??1?$__crt_unique_heap_ptr@PADU__crt_internal_free_policy@@@@QAE@XZ 1004d310 f i libucrtd:argv_parsing.obj
 0001:0004c330       ??1?$__crt_unique_heap_ptr@PA_WU__crt_internal_free_policy@@@@QAE@XZ 1004d330 f i libucrtd:argv_parsing.obj
 0001:0004c350       ??B?$__crt_unique_heap_ptr@EU__crt_internal_free_policy@@@@QBE_NXZ 1004d350 f i libucrtd:argv_parsing.obj
 0001:0004c410       ?detach@?$__crt_unique_heap_ptr@EU__crt_internal_free_policy@@@@QAEPAEXZ 1004d410 f i libucrtd:argv_parsing.obj
 0001:0004c440       ?detach@?$__crt_unique_heap_ptr@PADU__crt_internal_free_policy@@@@QAEPAPADXZ 1004d440 f i libucrtd:argv_parsing.obj
 0001:0004c470       ?detach@?$__crt_unique_heap_ptr@PA_WU__crt_internal_free_policy@@@@QAEPAPA_WXZ 1004d470 f i libucrtd:argv_parsing.obj
 0001:0004c500       ?get@?$__crt_unique_heap_ptr@EU__crt_internal_free_policy@@@@QBEPAEXZ 1004d500 f i libucrtd:argv_parsing.obj
 0001:0004c520       ?get@?$__crt_unique_heap_ptr@PADU__crt_internal_free_policy@@@@QBEPAPADXZ 1004d520 f i libucrtd:argv_parsing.obj
 0001:0004c540       ?get@?$__crt_unique_heap_ptr@PA_WU__crt_internal_free_policy@@@@QBEPAPA_WXZ 1004d540 f i libucrtd:argv_parsing.obj
 0001:0004c560       ?get_address_of@?$__crt_unique_heap_ptr@PADU__crt_internal_free_policy@@@@QAEPAPAPADXZ 1004d560 f i libucrtd:argv_parsing.obj
 0001:0004c570       ?get_address_of@?$__crt_unique_heap_ptr@PA_WU__crt_internal_free_policy@@@@QAEPAPAPA_WXZ 1004d570 f i libucrtd:argv_parsing.obj
 0001:0004c5c0       ?is_valid@?$__crt_unique_heap_ptr@EU__crt_internal_free_policy@@@@QBE_NXZ 1004d5c0 f i libucrtd:argv_parsing.obj
 0001:0004c5f0       ?release@?$__crt_unique_heap_ptr@EU__crt_internal_free_policy@@@@QAEXXZ 1004d5f0 f i libucrtd:argv_parsing.obj
 0001:0004c620       ?release@?$__crt_unique_heap_ptr@PADU__crt_internal_free_policy@@@@QAEXXZ 1004d620 f i libucrtd:argv_parsing.obj
 0001:0004c650       ?release@?$__crt_unique_heap_ptr@PA_WU__crt_internal_free_policy@@@@QAEXXZ 1004d650 f i libucrtd:argv_parsing.obj
 0001:0004c6c0       ___acrt_allocate_buffer_for_argv 1004d6c0 f   libucrtd:argv_parsing.obj
 0001:0004c780       __configure_narrow_argv    1004d780 f   libucrtd:argv_parsing.obj
 0001:0004c7a0       __configure_wide_argv      1004d7a0 f   libucrtd:argv_parsing.obj
 0001:0004c7c0       __set_pgmptr               1004d7c0 f i libucrtd:argv_parsing.obj
 0001:0004c7d0       __set_wpgmptr              1004d7d0 f i libucrtd:argv_parsing.obj
 0001:0004c7df       ??$?R_W@__crt_internal_free_policy@@QBEXQB_W@Z 1004d7df f i libucrtd:environment_initialization.obj
 0001:0004cc48       ??$get_environment_from_os@$$V@?$__crt_char_traits@D@@SAPADXZ 1004dc48 f i libucrtd:environment_initialization.obj
 0001:0004cc4d       ??$get_environment_from_os@$$V@?$__crt_char_traits@_W@@SAPA_WXZ 1004dc4d f i libucrtd:environment_initialization.obj
 0001:0004cd76       ??$set_variable_in_environment_nolock@PADH@?$__crt_char_traits@D@@SAH$$QAPAD$$QAH@Z 1004dd76 f i libucrtd:environment_initialization.obj
 0001:0004cd8e       ??$set_variable_in_environment_nolock@PA_WH@?$__crt_char_traits@_W@@SAH$$QAPA_W$$QAH@Z 1004dd8e f i libucrtd:environment_initialization.obj
 0001:0004cda6       ??$tcscpy_s@PADABIAAPAD@?$__crt_char_traits@D@@SAH$$QAPADABIAAPAD@Z 1004dda6 f i libucrtd:environment_initialization.obj
 0001:0004cdc4       ??$tcscpy_s@PA_WABIAAPA_W@?$__crt_char_traits@_W@@SAH$$QAPA_WABIAAPA_W@Z 1004ddc4 f i libucrtd:environment_initialization.obj
 0001:0004cde2       ??$tcslen@AAPAD@?$__crt_char_traits@D@@SAIAAPAD@Z 1004dde2 f i libucrtd:environment_initialization.obj
 0001:0004cdfa       ??$tcslen@AAPA_W@?$__crt_char_traits@_W@@SAIAAPA_W@Z 1004ddfa f i libucrtd:environment_initialization.obj
 0001:0004ce18       ??$uninitialize@A6AXAAPAPAD@Z@?$dual_state_global@PAPAD@__crt_state_management@@QAEXA6AXAAPAPAD@Z@Z 1004de18 f i libucrtd:environment_initialization.obj
 0001:0004ce41       ??$uninitialize@A6AXAAPAPA_W@Z@?$dual_state_global@PAPA_W@__crt_state_management@@QAEXA6AXAAPAPA_W@Z@Z 1004de41 f i libucrtd:environment_initialization.obj
 0001:0004cea0       ??0?$__crt_unique_heap_ptr@_WU__crt_internal_free_policy@@@@QAE@QA_W@Z 1004dea0 f i libucrtd:environment_initialization.obj
 0001:0004ceb0       ??1?$__crt_unique_heap_ptr@_WU__crt_internal_free_policy@@@@QAE@XZ 1004deb0 f i libucrtd:environment_initialization.obj
 0001:0004cec5       ??B?$__crt_unique_heap_ptr@PADU__crt_internal_free_policy@@@@QBE_NXZ 1004dec5 f i libucrtd:environment_initialization.obj
 0001:0004cecc       ??B?$__crt_unique_heap_ptr@PA_WU__crt_internal_free_policy@@@@QBE_NXZ 1004decc f i libucrtd:environment_initialization.obj
 0001:0004ced3       ??B?$__crt_unique_heap_ptr@_WU__crt_internal_free_policy@@@@QBE_NXZ 1004ded3 f i libucrtd:environment_initialization.obj
 0001:0004ceda       ?__crt_compute_required_transform_buffer_count@@YAIIQBD@Z 1004deda f i libucrtd:environment_initialization.obj
 0001:0004cef6       ?__crt_compute_required_transform_buffer_count@@YAIIQB_W@Z 1004def6 f i libucrtd:environment_initialization.obj
 0001:0004cf14       ?__crt_transform_string@@YAIIQBDQA_WI@Z 1004df14 f i libucrtd:environment_initialization.obj
 0001:0004cf33       ?__crt_transform_string@@YAIIQB_WQADI@Z 1004df33 f i libucrtd:environment_initialization.obj
 0001:0004cf55       ?detach@?$__crt_unique_heap_ptr@DU__crt_internal_free_policy@@@@QAEPADXZ 1004df55 f i libucrtd:environment_initialization.obj
 0001:0004cf5b       ?detach@?$__crt_unique_heap_ptr@_WU__crt_internal_free_policy@@@@QAEPA_WXZ 1004df5b f i libucrtd:environment_initialization.obj
 0001:0004cf61       ?get@?$__crt_unique_heap_ptr@_WU__crt_internal_free_policy@@@@QBEPA_WXZ 1004df61 f i libucrtd:environment_initialization.obj
 0001:0004cf88       ?initialize@?$dual_state_global@PAPAD@__crt_state_management@@QAEXQAPAD@Z 1004df88 f i libucrtd:environment_initialization.obj
 0001:0004cfae       ?initialize@?$dual_state_global@PAPA_W@__crt_state_management@@QAEXQAPA_W@Z 1004dfae f i libucrtd:environment_initialization.obj
 0001:0004cfd4       ?is_valid@?$__crt_unique_heap_ptr@PADU__crt_internal_free_policy@@@@QBE_NXZ 1004dfd4 f i libucrtd:environment_initialization.obj
 0001:0004cfdb       ?is_valid@?$__crt_unique_heap_ptr@PA_WU__crt_internal_free_policy@@@@QBE_NXZ 1004dfdb f i libucrtd:environment_initialization.obj
 0001:0004cfe2       ?is_valid@?$__crt_unique_heap_ptr@_WU__crt_internal_free_policy@@@@QBE_NXZ 1004dfe2 f i libucrtd:environment_initialization.obj
 0001:0004cff1       ?release@?$__crt_unique_heap_ptr@_WU__crt_internal_free_policy@@@@QAEXXZ 1004dff1 f i libucrtd:environment_initialization.obj
 0001:0004d006       ?value@?$dual_state_global@PAPAD@__crt_state_management@@QAEAAPAPADXZ 1004e006 f i libucrtd:environment_initialization.obj
 0001:0004d009       ?value@?$dual_state_global@PAPA_W@__crt_state_management@@QAEAAPAPA_WXZ 1004e009 f i libucrtd:environment_initialization.obj
 0001:0004d00c       ___dcrt_get_or_create_narrow_environment_nolock 1004e00c f   libucrtd:environment_initialization.obj
 0001:0004d011       ___dcrt_get_or_create_wide_environment_nolock 1004e011 f   libucrtd:environment_initialization.obj
 0001:0004d016       ___dcrt_uninitialize_environments_nolock 1004e016 f   libucrtd:environment_initialization.obj
 0001:0004d04d       ___p__environ              1004e04d f   libucrtd:environment_initialization.obj
 0001:0004d053       ___p__wenviron             1004e053 f   libucrtd:environment_initialization.obj
 0001:0004d059       __get_initial_narrow_environment 1004e059 f   libucrtd:environment_initialization.obj
 0001:0004d06d       __get_initial_wide_environment 1004e06d f   libucrtd:environment_initialization.obj
 0001:0004d081       __initialize_narrow_environment 1004e081 f   libucrtd:environment_initialization.obj
 0001:0004d086       __initialize_wide_environment 1004e086 f   libucrtd:environment_initialization.obj
 0001:0004d090       ??$?B$$A6AXXZ@__crt_fast_encoded_nullptr_t@@QBEP6AXXZXZ 1004e090 f i libucrtd:onexit.obj
 0001:0004d0b0       ??$?BP6AXXZ@__crt_fast_encoded_nullptr_t@@QBEPAP6AXXZXZ 1004e0b0 f i libucrtd:onexit.obj
 0001:0004d0d0       ??$?RP6AXXZ@__crt_internal_free_policy@@QBEXQBQ6AXXZ@Z 1004e0d0 f i libucrtd:onexit.obj
 0001:0004d290       ??$__crt_fast_decode_pointer@P6AXXZ@@YAP6AXXZQ6AXXZ@Z 1004e290 f i libucrtd:onexit.obj
 0001:0004d2c0       ??$__crt_fast_decode_pointer@PAP6AXXZ@@YAPAP6AXXZQAP6AXXZ@Z 1004e2c0 f i libucrtd:onexit.obj
 0001:0004d2f0       ??$__crt_fast_encode_pointer@P6AHXZ@@YAP6AHXZQ6AHXZ@Z 1004e2f0 f i libucrtd:onexit.obj
 0001:0004d320       ??$__crt_fast_encode_pointer@P6AXXZ@@YAP6AXXZQ6AXXZ@Z 1004e320 f i libucrtd:onexit.obj
 0001:0004d350       ??$__crt_fast_encode_pointer@PAP6AXXZ@@YAPAP6AXXZQAP6AXXZ@Z 1004e350 f i libucrtd:onexit.obj
 0001:0004d450       ??0?$__crt_unique_heap_ptr@P6AXXZU__crt_internal_free_policy@@@@QAE@QAP6AXXZ@Z 1004e450 f i libucrtd:onexit.obj
 0001:0004d470       ??1?$__crt_unique_heap_ptr@P6AXXZU__crt_internal_free_policy@@@@QAE@XZ 1004e470 f i libucrtd:onexit.obj
 0001:0004d490       ??1scoped_global_state_reset@__crt_state_management@@QAE@XZ 1004e490 f i libucrtd:onexit.obj
 0001:0004d900       ?detach@?$__crt_unique_heap_ptr@P6AXXZU__crt_internal_free_policy@@@@QAEPAP6AXXZXZ 1004e900 f i libucrtd:onexit.obj
 0001:0004d930       ?release@?$__crt_unique_heap_ptr@P6AXXZU__crt_internal_free_policy@@@@QAEXXZ 1004e930 f i libucrtd:onexit.obj
 0001:0004d960       __crt_at_quick_exit        1004e960 f   libucrtd:onexit.obj
 0001:0004d980       __crt_atexit               1004e980 f   libucrtd:onexit.obj
 0001:0004d9a0       __execute_onexit_table     1004e9a0 f   libucrtd:onexit.obj
 0001:0004d9d0       __initialize_onexit_table  1004e9d0 f   libucrtd:onexit.obj
 0001:0004da30       __register_onexit_function 1004ea30 f   libucrtd:onexit.obj
 0001:0004dc70       ??$?BX@__crt_fast_encoded_nullptr_t@@QBEPAXXZ 1004ec70 f i libucrtd:initialization.obj
 0001:0004dc90       ??$__crt_fast_encode_pointer@PAX@@YAPAXQAX@Z 1004ec90 f i libucrtd:initialization.obj
 0001:0004dd50       ?initialize@?$dual_state_global@PAU__crt_locale_data@@@__crt_state_management@@QAEXQAU__crt_locale_data@@@Z 1004ed50 f i libucrtd:initialization.obj
 0001:0004dd90       ___acrt_initialize         1004ed90 f   libucrtd:initialization.obj
 0001:0004ddb0       ___acrt_thread_attach      1004edb0 f   libucrtd:initialization.obj
 0001:0004ddd0       ___acrt_thread_detach      1004edd0 f   libucrtd:initialization.obj
 0001:0004dde0       ___acrt_uninitialize       1004ede0 f   libucrtd:initialization.obj
 0001:0004de00       ___acrt_uninitialize_critical 1004ee00 f   libucrtd:initialization.obj
 0001:0004f670       __CrtCheckMemory           10050670 f   libucrtd:debug_heap.obj
 0001:0004f800       __CrtDoForAllClientObjects 10050800 f   libucrtd:debug_heap.obj
 0001:0004f950       __CrtDumpMemoryLeaks       10050950 f   libucrtd:debug_heap.obj
 0001:0004f9f0       __CrtGetAllocHook          100509f0 f   libucrtd:debug_heap.obj
 0001:0004fa00       __CrtGetDumpClient         10050a00 f   libucrtd:debug_heap.obj
 0001:0004fa10       __CrtIsMemoryBlock         10050a10 f   libucrtd:debug_heap.obj
 0001:0004fb60       __CrtIsValidHeapPointer    10050b60 f   libucrtd:debug_heap.obj
 0001:0004fb90       __CrtIsValidPointer        10050b90 f   libucrtd:debug_heap.obj
 0001:0004fbc0       __CrtMemCheckpoint         10050bc0 f   libucrtd:debug_heap.obj
 0001:0004fdf0       __CrtMemDifference         10050df0 f   libucrtd:debug_heap.obj
 0001:00050060       __CrtMemDumpAllObjectsSince 10051060 f   libucrtd:debug_heap.obj
 0001:00050100       __CrtMemDumpStatistics     10051100 f   libucrtd:debug_heap.obj
 0001:00050230       __CrtReportBlockType       10051230 f   libucrtd:debug_heap.obj
 0001:00050260       __CrtSetAllocHook          10051260 f   libucrtd:debug_heap.obj
 0001:00050280       __CrtSetBreakAlloc         10051280 f   libucrtd:debug_heap.obj
 0001:000502a0       __CrtSetDbgBlockType       100512a0 f   libucrtd:debug_heap.obj
 0001:00050380       __CrtSetDbgFlag            10051380 f   libucrtd:debug_heap.obj
 0001:000504f0       __CrtSetDumpClient         100514f0 f   libucrtd:debug_heap.obj
 0001:00050510       ___acrt_get_locale_data_prefix 10051510 f i libucrtd:debug_heap.obj
 0001:00050530       ___p__crtBreakAlloc        10051530 f   libucrtd:debug_heap.obj
 0001:00050540       ___p__crtDbgFlag           10051540 f   libucrtd:debug_heap.obj
 0001:00050550       __aligned_free_dbg         10051550 f   libucrtd:debug_heap.obj
 0001:00050600       __aligned_malloc_dbg       10051600 f   libucrtd:debug_heap.obj
 0001:00050630       __aligned_msize_dbg        10051630 f   libucrtd:debug_heap.obj
 0001:00050760       __aligned_offset_malloc_dbg 10051760 f   libucrtd:debug_heap.obj
 0001:00050940       __aligned_offset_realloc_dbg 10051940 f   libucrtd:debug_heap.obj
 0001:00050c50       __aligned_offset_recalloc_dbg 10051c50 f   libucrtd:debug_heap.obj
 0001:00050d10       __aligned_realloc_dbg      10051d10 f   libucrtd:debug_heap.obj
 0001:00050d40       __aligned_recalloc_dbg     10051d40 f   libucrtd:debug_heap.obj
 0001:00050d70       __calloc_dbg               10051d70 f   libucrtd:debug_heap.obj
 0001:00050de0       __chvalidchk_l             10051de0 f i libucrtd:debug_heap.obj
 0001:00050e00       __expand_dbg               10051e00 f   libucrtd:debug_heap.obj
 0001:00050f30       __free_dbg                 10051f30 f   libucrtd:debug_heap.obj
 0001:00050fe0       __ischartype_l             10051fe0 f i libucrtd:debug_heap.obj
 0001:00051060       __malloc_dbg               10052060 f   libucrtd:debug_heap.obj
 0001:00051080       __msize_dbg                10052080 f   libucrtd:debug_heap.obj
 0001:00051210       __realloc_dbg              10052210 f   libucrtd:debug_heap.obj
 0001:000512b0       __recalloc_dbg             100522b0 f   libucrtd:debug_heap.obj
 0001:00051360       __initterm                 10052360 f   libucrtd:initterm.obj
 0001:000513b0       __initterm_e               100523b0 f   libucrtd:initterm.obj
 0001:00051440       __get_terminate            10052440 f   libucrtd:terminate.obj
 0001:00051460       _set_terminate             10052460 f   libucrtd:terminate.obj
 0001:00051490       _terminate                 10052490 f   libucrtd:terminate.obj
 0001:00051830       _strcpy_s                  10052830 f   libucrtd:strcpy_s.obj
 0001:00051c60       _strcat_s                  10052c60 f   libucrtd:strcat_s.obj
 0001:000525c0       __makepath                 100535c0 f   libucrtd:makepath.obj
 0001:000525f0       __makepath_s               100535f0 f   libucrtd:makepath.obj
 0001:00052620       __wmakepath                10053620 f   libucrtd:makepath.obj
 0001:00052650       __wmakepath_s              10053650 f   libucrtd:makepath.obj
 0001:00053fa0       ??$tcsncpy_s@AAPADIAAPBDABI@?$__crt_char_traits@D@@SAHAAPAD$$QAIAAPBDABI@Z 10054fa0 f i libucrtd:splitpath.obj
 0001:00053fd0       ??$tcsncpy_s@AAPADIAAPBDH@?$__crt_char_traits@D@@SAHAAPAD$$QAIAAPBD$$QAH@Z 10054fd0 f i libucrtd:splitpath.obj
 0001:00054000       ??$tcsncpy_s@AAPA_WIAAPB_WABI@?$__crt_char_traits@_W@@SAHAAPA_W$$QAIAAPB_WABI@Z 10055000 f i libucrtd:splitpath.obj
 0001:00054030       ??$tcsncpy_s@AAPA_WIAAPB_WH@?$__crt_char_traits@_W@@SAHAAPA_W$$QAIAAPB_W$$QAH@Z 10055030 f i libucrtd:splitpath.obj
 0001:00054270       __splitpath                10055270 f   libucrtd:splitpath.obj
 0001:000542a0       __splitpath_s              100552a0 f   libucrtd:splitpath.obj
 0001:000542f0       __wsplitpath               100552f0 f   libucrtd:splitpath.obj
 0001:00054320       __wsplitpath_s             10055320 f   libucrtd:splitpath.obj
 0001:00054370       ??$?B$$A6AHI@Z@__crt_fast_encoded_nullptr_t@@QBEP6AHI@ZXZ 10055370 f i libucrtd:new_handler.obj
 0001:00054390       ??$__crt_fast_decode_pointer@P6AHI@Z@@YAP6AHI@ZQ6AHI@Z@Z 10055390 f i libucrtd:new_handler.obj
 0001:000543c0       ??$__crt_fast_encode_pointer@P6AHI@Z@@YAP6AHI@ZQ6AHI@Z@Z 100553c0 f i libucrtd:new_handler.obj
 0001:000543f0       ?_set_new_handler@@YAP6AHI@ZH@Z 100553f0 f   libucrtd:new_handler.obj
 0001:00054450       ?initialize@?$dual_state_global@P6AHI@Z@__crt_state_management@@QAEXQ6AHI@Z@Z 10055450 f i libucrtd:new_handler.obj
 0001:00054490       ?value@?$dual_state_global@P6AHI@Z@__crt_state_management@@QAEAAP6AHI@ZXZ 10055490 f i libucrtd:new_handler.obj
 0001:000544b0       ___acrt_initialize_new_handler 100554b0 f   libucrtd:new_handler.obj
 0001:000544d0       __callnewh                 100554d0 f   libucrtd:new_handler.obj
 0001:00054510       __query_new_handler        10055510 f   libucrtd:new_handler.obj
 0001:000545a0       __set_new_handler          100555a0 f   libucrtd:new_handler.obj
 0001:00054650       __set_abort_behavior       10055650 f   libucrtd:abort.obj
 0001:00054680       _abort                     10055680 f   libucrtd:abort.obj
 0001:000546f0       _strcmp                    100556f0 f   libucrtd:strcmp.obj
 0001:00054780       _strlen                    10055780 f   libucrtd:strlen.obj
 0001:00054810       ??$is_overflow_condition@K@__crt_strtox@@YA_NIK@Z 10055810 f i libucrtd:atox.obj
 0001:00054870       ??$is_overflow_condition@_K@__crt_strtox@@YA_NI_K@Z 10055870 f i libucrtd:atox.obj
 0001:00054900       ??$make_c_string_character_source@D$$T@__crt_strtox@@YA?AV?$c_string_character_source@D@0@QBD$$T@Z 10055900 f i libucrtd:atox.obj
 0001:00054920       ??$make_c_string_character_source@_W$$T@__crt_strtox@@YA?AV?$c_string_character_source@_W@0@QB_W$$T@Z 10055920 f i libucrtd:atox.obj
 0001:00054940       ??$parse_integer@KV?$c_string_character_source@D@__crt_strtox@@@__crt_strtox@@YAKQAU__crt_locale_pointers@@V?$c_string_character_source@D@0@H_N@Z 10055940 f i libucrtd:atox.obj
 0001:00054cb0       ??$parse_integer@KV?$c_string_character_source@_W@__crt_strtox@@@__crt_strtox@@YAKQAU__crt_locale_pointers@@V?$c_string_character_source@_W@0@H_N@Z 10055cb0 f i libucrtd:atox.obj
 0001:00055020       ??$parse_integer@_KV?$c_string_character_source@D@__crt_strtox@@@__crt_strtox@@YA_KQAU__crt_locale_pointers@@V?$c_string_character_source@D@0@H_N@Z 10056020 f i libucrtd:atox.obj
 0001:00055440       ??$parse_integer@_KV?$c_string_character_source@_W@__crt_strtox@@@__crt_strtox@@YA_KQAU__crt_locale_pointers@@V?$c_string_character_source@_W@0@H_N@Z 10056440 f i libucrtd:atox.obj
 0001:00055870       ??$parse_integer_from_string@JD$$T@__crt_strtox@@YAJQBD$$THQAU__crt_locale_pointers@@@Z 10056870 f i libucrtd:atox.obj
 0001:000558b0       ??$parse_integer_from_string@J_W$$T@__crt_strtox@@YAJQB_W$$THQAU__crt_locale_pointers@@@Z 100568b0 f i libucrtd:atox.obj
 0001:000558f0       ??$parse_integer_from_string@_JD$$T@__crt_strtox@@YA_JQBD$$THQAU__crt_locale_pointers@@@Z 100568f0 f i libucrtd:atox.obj
 0001:00055930       ??$parse_integer_from_string@_J_W$$T@__crt_strtox@@YA_JQB_W$$THQAU__crt_locale_pointers@@@Z 10056930 f i libucrtd:atox.obj
 0001:00055970       ??0?$c_string_character_source@D@__crt_strtox@@QAE@QBDQAPBD@Z 10056970 f i libucrtd:atox.obj
 0001:000559b0       ??0?$c_string_character_source@_W@__crt_strtox@@QAE@QB_WQAPB_W@Z 100569b0 f i libucrtd:atox.obj
 0001:000559f0       ??1?$c_string_character_source@D@__crt_strtox@@QAE@XZ 100569f0 f i libucrtd:atox.obj
 0001:00055a20       ??1?$c_string_character_source@_W@__crt_strtox@@QAE@XZ 10056a20 f i libucrtd:atox.obj
 0001:00055a50       ?get@?$c_string_character_source@D@__crt_strtox@@QAEDXZ 10056a50 f i libucrtd:atox.obj
 0001:00055a80       ?get@?$c_string_character_source@_W@__crt_strtox@@QAE_WXZ 10056a80 f i libucrtd:atox.obj
 0001:00055ab0       ?is_space@__crt_strtox@@YA_NDQAU__crt_locale_pointers@@@Z 10056ab0 f i libucrtd:atox.obj
 0001:00055af0       ?is_space@__crt_strtox@@YA_N_WPAU__crt_locale_pointers@@@Z 10056af0 f i libucrtd:atox.obj
 0001:00055b20       ?maximum_signed_value@__crt_strtox@@YAJK@Z 10056b20 f i libucrtd:atox.obj
 0001:00055b30       ?maximum_signed_value@__crt_strtox@@YA_J_K@Z 10056b30 f i libucrtd:atox.obj
 0001:00055b40       ?minimum_signed_value@__crt_strtox@@YAJK@Z 10056b40 f i libucrtd:atox.obj
 0001:00055b50       ?minimum_signed_value@__crt_strtox@@YA_J_K@Z 10056b50 f i libucrtd:atox.obj
 0001:00055b60       ?parse_digit@__crt_strtox@@YAID@Z 10056b60 f i libucrtd:atox.obj
 0001:00055bc0       ?parse_digit@__crt_strtox@@YAI_W@Z 10056bc0 f i libucrtd:atox.obj
 0001:00055c10       ?restore_state@?$c_string_character_source@D@__crt_strtox@@QAE_NQBD@Z 10056c10 f i libucrtd:atox.obj
 0001:00055c30       ?restore_state@?$c_string_character_source@_W@__crt_strtox@@QAE_NQB_W@Z 10056c30 f i libucrtd:atox.obj
 0001:00055c50       ?save_state@?$c_string_character_source@D@__crt_strtox@@QBEPBDXZ 10056c50 f i libucrtd:atox.obj
 0001:00055c70       ?save_state@?$c_string_character_source@_W@__crt_strtox@@QBEPB_WXZ 10056c70 f i libucrtd:atox.obj
 0001:00055c90       ?unget@?$c_string_character_source@D@__crt_strtox@@QAEXD@Z 10056c90 f i libucrtd:atox.obj
 0001:00055d40       ?unget@?$c_string_character_source@_W@__crt_strtox@@QAEX_W@Z 10056d40 f i libucrtd:atox.obj
 0001:00055df0       ?validate@?$c_string_character_source@D@__crt_strtox@@QBE_NXZ 10056df0 f i libucrtd:atox.obj
 0001:00055e80       ?validate@?$c_string_character_source@_W@__crt_strtox@@QBE_NXZ 10056e80 f i libucrtd:atox.obj
 0001:00055f10       ?wide_character_to_digit@__crt_strtox@@YAH_W@Z 10056f10 f i libucrtd:atox.obj
 0001:00056240       ___ascii_iswalpha          10057240 f i libucrtd:atox.obj
 0001:00056280       ___ascii_toupper           10057280 f i libucrtd:atox.obj
 0001:000562a0       ___ascii_towupper          100572a0 f i libucrtd:atox.obj
 0001:000562c0       __atoi64                   100572c0 f   libucrtd:atox.obj
 0001:000562e0       __atoi64_l                 100572e0 f   libucrtd:atox.obj
 0001:00056300       __atoi_l                   10057300 f   libucrtd:atox.obj
 0001:00056320       __atol_l                   10057320 f   libucrtd:atox.obj
 0001:00056340       __atoll_l                  10057340 f   libucrtd:atox.obj
 0001:00056360       __wtoi                     10057360 f   libucrtd:atox.obj
 0001:00056380       __wtoi64                   10057380 f   libucrtd:atox.obj
 0001:000563a0       __wtoi64_l                 100573a0 f   libucrtd:atox.obj
 0001:000563c0       __wtoi_l                   100573c0 f   libucrtd:atox.obj
 0001:000563e0       __wtol                     100573e0 f   libucrtd:atox.obj
 0001:00056400       __wtol_l                   10057400 f   libucrtd:atox.obj
 0001:00056420       __wtoll                    10057420 f   libucrtd:atox.obj
 0001:00056440       __wtoll_l                  10057440 f   libucrtd:atox.obj
 0001:00056460       _atoi                      10057460 f   libucrtd:atox.obj
 0001:00056480       _atol                      10057480 f   libucrtd:atox.obj
 0001:000564a0       _atoll                     100574a0 f   libucrtd:atox.obj
 0001:000564c0       _strncmp                   100574c0 f   libucrtd:strncmp.obj
 0001:00056540       _wcsncmp                   10057540 f   libucrtd:wcsncmp.obj
 0001:000565a0       __CrtGetReportHook         100575a0 f   libucrtd:dbgrptt.obj
 0001:000565b0       __CrtSetReportFile         100575b0 f   libucrtd:dbgrptt.obj
 0001:000566b0       __CrtSetReportHook         100576b0 f   libucrtd:dbgrptt.obj
 0001:000566d0       __CrtSetReportMode         100576d0 f   libucrtd:dbgrptt.obj
 0001:00056810       __VCrtDbgReportA           10057810 f   libucrtd:dbgrptt.obj
 0001:00057090       __VCrtDbgReportW           10058090 f   libucrtd:dbgrptt.obj
 0001:00057a40       __snprintf_s               10058a40 f i libucrtd:dbgrptt.obj
 0001:00057a80       __vsnprintf_s              10058a80 f i libucrtd:dbgrptt.obj
 0001:00057ab0       __vsnprintf_s_l            10058ab0 f i libucrtd:dbgrptt.obj
 0001:00057c40       ??$__acrt_wcs_to_mbs_cp@U__crt_win32_buffer_no_resizing@@@@YAHQB_WAAV?$__crt_win32_buffer@DU__crt_win32_buffer_no_resizing@@@@I@Z 10058c40 f i libucrtd:getmodulefilenamea.obj
 0001:00057c70       ??0?$__crt_win32_buffer@DU__crt_win32_buffer_no_resizing@@@@QAE@QADI@Z 10058c70 f i libucrtd:getmodulefilenamea.obj
 0001:00057cc0       ??1?$__crt_win32_buffer@DU__crt_win32_buffer_no_resizing@@@@QAE@XZ 10058cc0 f i libucrtd:getmodulefilenamea.obj
 0001:00057d30       ?__acrt_get_utf8_acp_compatibility_codepage@@YAIXZ 10058d30 f i libucrtd:getmodulefilenamea.obj
 0001:00057dc0       ?_deallocate@?$__crt_win32_buffer@DU__crt_win32_buffer_no_resizing@@@@AAEXXZ 10058dc0 f i libucrtd:getmodulefilenamea.obj
 0001:00057e00       ?allocate@?$__crt_win32_buffer@DU__crt_win32_buffer_no_resizing@@@@QAEHI@Z 10058e00 f i libucrtd:getmodulefilenamea.obj
 0001:00057e70       ?allocate@__crt_win32_buffer_no_resizing@@SAHQAPAXIABV__crt_win32_buffer_empty_debug_info@@@Z 10058e70 f i libucrtd:getmodulefilenamea.obj
 0001:00057e90       ?capacity@?$__crt_win32_buffer@DU__crt_win32_buffer_no_resizing@@@@QBEIXZ 10058e90 f i libucrtd:getmodulefilenamea.obj
 0001:00057eb0       ?data@?$__crt_win32_buffer@DU__crt_win32_buffer_no_resizing@@@@QAEPADXZ 10058eb0 f i libucrtd:getmodulefilenamea.obj
 0001:00057ed0       ?deallocate@__crt_win32_buffer_no_resizing@@SAXQAXABV__crt_win32_buffer_empty_debug_info@@@Z 10058ed0 f i libucrtd:getmodulefilenamea.obj
 0001:00057ee0       ?debug_info@?$__crt_win32_buffer@DU__crt_win32_buffer_no_resizing@@@@QBEABV__crt_win32_buffer_empty_debug_info@@XZ 10058ee0 f i libucrtd:getmodulefilenamea.obj
 0001:00057ef0       ?set_to_nullptr@?$__crt_win32_buffer@DU__crt_win32_buffer_no_resizing@@@@QAEXXZ 10058ef0 f i libucrtd:getmodulefilenamea.obj
 0001:00057f30       ?size@?$__crt_win32_buffer@DU__crt_win32_buffer_no_resizing@@@@QAEXI@Z 10058f30 f i libucrtd:getmodulefilenamea.obj
 0001:00057f50       ?size@?$__crt_win32_buffer@DU__crt_win32_buffer_no_resizing@@@@QBEIXZ 10058f50 f i libucrtd:getmodulefilenamea.obj
 0001:00057f70       ___acrt_GetModuleFileNameA 10058f70 f   libucrtd:getmodulefilenamea.obj
 0001:00058250       ??$message_box@$$TABQBDABQBDK@?$__crt_char_traits@D@@SAH$$QA$$TABQBD1$$QAK@Z 10059250 f i libucrtd:crtmbox.obj
 0001:00058280       ??$message_box@$$TABQB_WABQB_WK@?$__crt_char_traits@_W@@SAH$$QA$$TABQB_W1$$QAK@Z 10059280 f i libucrtd:crtmbox.obj
 0001:000582b0       ??$message_box@PAUHWND__@@ABQBDABQBDABI@?$__crt_char_traits@D@@SAH$$QAPAUHWND__@@ABQBD1ABI@Z 100592b0 f i libucrtd:crtmbox.obj
 0001:000582e0       ??$message_box@PAUHWND__@@ABQB_WABQB_WABI@?$__crt_char_traits@_W@@SAH$$QAPAUHWND__@@ABQB_W1ABI@Z 100592e0 f i libucrtd:crtmbox.obj
 0001:00058310       ??$output_debug_string@ABQBD@?$__crt_char_traits@D@@SAXABQBD@Z 10059310 f i libucrtd:crtmbox.obj
 0001:00058330       ??$output_debug_string@ABQB_W@?$__crt_char_traits@_W@@SAXABQB_W@Z 10059330 f i libucrtd:crtmbox.obj
 0001:00058350       ___acrt_show_narrow_message_box 10059350 f   libucrtd:crtmbox.obj
 0001:00058370       ___acrt_show_wide_message_box 10059370 f   libucrtd:crtmbox.obj
 0001:00058390       ___acrt_initialize_locks   10059390 f   libucrtd:locks.obj
 0001:000583f0       ___acrt_lock               100593f0 f   libucrtd:locks.obj
 0001:00058410       ___acrt_uninitialize_locks 10059410 f   libucrtd:locks.obj
 0001:00058460       ___acrt_unlock             10059460 f   libucrtd:locks.obj
 0001:00058480       __lock_locales             10059480 f   libucrtd:locks.obj
 0001:000584a0       __unlock_locales           100594a0 f   libucrtd:locks.obj
 0001:000584c0       ??$?B$$A6AXH@Z@__crt_fast_encoded_nullptr_t@@QBEP6AXH@ZXZ 100594c0 f i libucrtd:signal.obj
 0001:000585b0       ??$__crt_fast_decode_pointer@P6AXH@Z@@YAP6AXH@ZQ6AXH@Z@Z 100595b0 f i libucrtd:signal.obj
 0001:000585e0       ??$__crt_fast_encode_pointer@P6AXH@Z@@YAP6AXH@ZQ6AXH@Z@Z 100595e0 f i libucrtd:signal.obj
 0001:00058890       ?initialize@?$dual_state_global@P6AXH@Z@__crt_state_management@@QAEXQ6AXH@Z@Z 10059890 f i libucrtd:signal.obj
 0001:000589d0       ?value@?$dual_state_global@P6AXH@Z@__crt_state_management@@QAEAAP6AXH@ZXZ 100599d0 f i libucrtd:signal.obj
 0001:000589f0       ___acrt_get_sigabrt_handler 100599f0 f   libucrtd:signal.obj
 0001:00058a10       ___acrt_initialize_signal_handlers 10059a10 f   libucrtd:signal.obj
 0001:00058a50       ___fpecode                 10059a50 f   libucrtd:signal.obj
 0001:00058a60       ___pxcptinfoptrs           10059a60 f   libucrtd:signal.obj
 0001:00058a70       _raise                     10059a70 f   libucrtd:signal.obj
 0001:00058e40       _signal                    10059e40 f   libucrtd:signal.obj
 0001:000590c0       __CrtGetDebugFillThreshold 1005a0c0 f   libucrtd:debug_fill_threshold.obj
 0001:000590d0       __CrtSetDebugFillThreshold 1005a0d0 f   libucrtd:debug_fill_threshold.obj
 0001:000590f0       ??$make_c_string_character_source@DPAPAD@__crt_strtox@@YA?AV?$c_string_character_source@D@0@QBDQAPAD@Z 1005a0f0 f i libucrtd:strtox.obj
 0001:00059110       ??$make_c_string_character_source@_WPAPA_W@__crt_strtox@@YA?AV?$c_string_character_source@_W@0@QB_WQAPA_W@Z 1005a110 f i libucrtd:strtox.obj
 0001:00059130       ??$parse_integer_from_string@JDPAPAD@__crt_strtox@@YAJQBDQAPADHQAU__crt_locale_pointers@@@Z 1005a130 f i libucrtd:strtox.obj
 0001:00059170       ??$parse_integer_from_string@J_WPAPA_W@__crt_strtox@@YAJQB_WQAPA_WHQAU__crt_locale_pointers@@@Z 1005a170 f i libucrtd:strtox.obj
 0001:000591b0       ??$parse_integer_from_string@KDPAPAD@__crt_strtox@@YAKQBDQAPADHQAU__crt_locale_pointers@@@Z 1005a1b0 f i libucrtd:strtox.obj
 0001:000591f0       ??$parse_integer_from_string@K_WPAPA_W@__crt_strtox@@YAKQB_WQAPA_WHQAU__crt_locale_pointers@@@Z 1005a1f0 f i libucrtd:strtox.obj
 0001:00059230       ??$parse_integer_from_string@_JDPAPAD@__crt_strtox@@YA_JQBDQAPADHQAU__crt_locale_pointers@@@Z 1005a230 f i libucrtd:strtox.obj
 0001:00059270       ??$parse_integer_from_string@_J_WPAPA_W@__crt_strtox@@YA_JQB_WQAPA_WHQAU__crt_locale_pointers@@@Z 1005a270 f i libucrtd:strtox.obj
 0001:000592b0       ??$parse_integer_from_string@_KDPAPAD@__crt_strtox@@YA_KQBDQAPADHQAU__crt_locale_pointers@@@Z 1005a2b0 f i libucrtd:strtox.obj
 0001:000592f0       ??$parse_integer_from_string@_K_WPAPA_W@__crt_strtox@@YA_KQB_WQAPA_WHQAU__crt_locale_pointers@@@Z 1005a2f0 f i libucrtd:strtox.obj
 0001:00059330       __strtoi64                 1005a330 f   libucrtd:strtox.obj
 0001:00059350       __strtoi64_l               1005a350 f   libucrtd:strtox.obj
 0001:00059370       __strtoimax_l              1005a370 f   libucrtd:strtox.obj
 0001:00059390       __strtol_l                 1005a390 f   libucrtd:strtox.obj
 0001:000593b0       __strtoll_l                1005a3b0 f   libucrtd:strtox.obj
 0001:000593d0       __strtoui64                1005a3d0 f   libucrtd:strtox.obj
 0001:000593f0       __strtoui64_l              1005a3f0 f   libucrtd:strtox.obj
 0001:00059410       __strtoul_l                1005a410 f   libucrtd:strtox.obj
 0001:00059430       __strtoull_l               1005a430 f   libucrtd:strtox.obj
 0001:00059450       __strtoumax_l              1005a450 f   libucrtd:strtox.obj
 0001:00059470       __wcstoi64                 1005a470 f   libucrtd:strtox.obj
 0001:00059490       __wcstoi64_l               1005a490 f   libucrtd:strtox.obj
 0001:000594b0       __wcstoimax_l              1005a4b0 f   libucrtd:strtox.obj
 0001:000594d0       __wcstol_l                 1005a4d0 f   libucrtd:strtox.obj
 0001:000594f0       __wcstoll_l                1005a4f0 f   libucrtd:strtox.obj
 0001:00059510       __wcstoui64                1005a510 f   libucrtd:strtox.obj
 0001:00059530       __wcstoui64_l              1005a530 f   libucrtd:strtox.obj
 0001:00059550       __wcstoul_l                1005a550 f   libucrtd:strtox.obj
 0001:00059570       __wcstoull_l               1005a570 f   libucrtd:strtox.obj
 0001:00059590       __wcstoumax_l              1005a590 f   libucrtd:strtox.obj
 0001:000595b0       _strtoimax                 1005a5b0 f   libucrtd:strtox.obj
 0001:000595d0       _strtol                    1005a5d0 f   libucrtd:strtox.obj
 0001:000595f0       _strtoll                   1005a5f0 f   libucrtd:strtox.obj
 0001:00059610       _strtoul                   1005a610 f   libucrtd:strtox.obj
 0001:00059630       _strtoull                  1005a630 f   libucrtd:strtox.obj
 0001:00059650       _strtoumax                 1005a650 f   libucrtd:strtox.obj
 0001:00059670       _wcstoimax                 1005a670 f   libucrtd:strtox.obj
 0001:00059690       _wcstol                    1005a690 f   libucrtd:strtox.obj
 0001:000596b0       _wcstoll                   1005a6b0 f   libucrtd:strtox.obj
 0001:000596d0       _wcstoul                   1005a6d0 f   libucrtd:strtox.obj
 0001:000596f0       _wcstoull                  1005a6f0 f   libucrtd:strtox.obj
 0001:00059710       _wcstoumax                 1005a710 f   libucrtd:strtox.obj
 0001:00059730       __mbtowc_l                 1005a730 f   libucrtd:mbtowc.obj
 0001:00059a50       _mbtowc                    1005aa50 f   libucrtd:mbtowc.obj
 0001:00059a70       __wctomb_l                 1005aa70 f   libucrtd:wctomb.obj
 0001:00059af0       __wctomb_s_l               1005aaf0 f   libucrtd:wctomb.obj
 0001:00059eb0       _wctomb                    1005aeb0 f   libucrtd:wctomb.obj
 0001:00059f00       _wctomb_s                  1005af00 f   libucrtd:wctomb.obj
 0001:00059f30       ??$?RU__acrt_ptd@@@__crt_internal_free_policy@@QBEXQBU__acrt_ptd@@@Z 1005af30 f i libucrtd:per_thread_data.obj
 0001:0005a3e0       ??0?$__crt_unique_heap_ptr@U__acrt_ptd@@U__crt_internal_free_policy@@@@QAE@QAU__acrt_ptd@@@Z 1005b3e0 f i libucrtd:per_thread_data.obj
 0001:0005a400       ??0__crt_scoped_get_last_error_reset@@QAE@XZ 1005b400 f i libucrtd:per_thread_data.obj
 0001:0005a420       ??1?$__crt_unique_heap_ptr@U__acrt_ptd@@U__crt_internal_free_policy@@@@QAE@XZ 1005b420 f i libucrtd:per_thread_data.obj
 0001:0005a440       ??1__crt_scoped_get_last_error_reset@@QAE@XZ 1005b440 f i libucrtd:per_thread_data.obj
 0001:0005a460       ??B?$__crt_unique_heap_ptr@U__acrt_ptd@@U__crt_internal_free_policy@@@@QBE_NXZ 1005b460 f i libucrtd:per_thread_data.obj
 0001:0005a740       ?dangerous_get_state_array@?$dual_state_global@PAU__crt_locale_data@@@__crt_state_management@@QAEPAPAU__crt_locale_data@@XZ 1005b740 f i libucrtd:per_thread_data.obj
 0001:0005a8c0       ?detach@?$__crt_unique_heap_ptr@U__acrt_ptd@@U__crt_internal_free_policy@@@@QAEPAU__acrt_ptd@@XZ 1005b8c0 f i libucrtd:per_thread_data.obj
 0001:0005a8f0       ?get@?$__crt_unique_heap_ptr@U__acrt_ptd@@U__crt_internal_free_policy@@@@QBEPAU__acrt_ptd@@XZ 1005b8f0 f i libucrtd:per_thread_data.obj
 0001:0005a910       ?get_current_state_index@__crt_state_management@@YAIABV__crt_scoped_get_last_error_reset@@@Z 1005b910 f i libucrtd:per_thread_data.obj
 0001:0005aa80       ?is_valid@?$__crt_unique_heap_ptr@U__acrt_ptd@@U__crt_internal_free_policy@@@@QBE_NXZ 1005ba80 f i libucrtd:per_thread_data.obj
 0001:0005aab0       ?release@?$__crt_unique_heap_ptr@U__acrt_ptd@@U__crt_internal_free_policy@@@@QAEXXZ 1005bab0 f i libucrtd:per_thread_data.obj
 0001:0005aba0       ?value@?$dual_state_global@PAU__crt_locale_data@@@__crt_state_management@@QAEAAPAU__crt_locale_data@@XZ 1005bba0 f i libucrtd:per_thread_data.obj
 0001:0005abc0       ___acrt_freeptd            1005bbc0 f   libucrtd:per_thread_data.obj
 0001:0005abf0       ___acrt_getptd             1005bbf0 f   libucrtd:per_thread_data.obj
 0001:0005ac10       ___acrt_getptd_head        1005bc10 f   libucrtd:per_thread_data.obj
 0001:0005ac30       ___acrt_getptd_noexit      1005bc30 f   libucrtd:per_thread_data.obj
 0001:0005ac40       ___acrt_initialize_ptd     1005bc40 f   libucrtd:per_thread_data.obj
 0001:0005ac80       ___acrt_uninitialize_ptd   1005bc80 f   libucrtd:per_thread_data.obj
 0001:0005acb0       ___threadhandle            1005bcb0 f   libucrtd:per_thread_data.obj
 0001:0005acc0       ___threadid                1005bcc0 f   libucrtd:per_thread_data.obj
 0001:0005acd0       ?value@?$dual_state_global@PAU__crt_multibyte_data@@@__crt_state_management@@QAEAAPAU__crt_multibyte_data@@XZ 1005bcd0 f i libucrtd:locale_update.obj
 0001:0005acf0       ___acrt_should_sync_with_global_locale 1005bcf0 f i libucrtd:locale_update.obj
 0001:0005ad20       ___acrt_update_locale_info 1005bd20 f   libucrtd:locale_update.obj
 0001:0005ad60       ___acrt_update_multibyte_info 1005bd60 f   libucrtd:locale_update.obj
 0001:0005ada0       ?__acrt_fp_classify@@YA?AW4__acrt_fp_class@@ABN@Z 1005bda0 f i libucrtd:cvt.obj
 0001:0005aec0       ?__acrt_fp_is_negative@@YA_NABN@Z 1005bec0 f i libucrtd:cvt.obj
 0001:0005c1b0       ?strrchr@@YAPADQADH@Z      1005d1b0 f i libucrtd:cvt.obj
 0001:0005c1d0       ___acrt_fp_format          1005d1d0 f   libucrtd:cvt.obj
 0001:0005c690       __fputwc_nolock            1005d690 f   libucrtd:fputwc.obj
 0001:0005c880       __fputwchar                1005d880 f   libucrtd:fputwc.obj
 0001:0005c8a0       __putwc_nolock             1005d8a0 f   libucrtd:fputwc.obj
 0001:0005c8c0       _fputwc                    1005d8c0 f   libucrtd:fputwc.obj
 0001:0005c9d0       _putwc                     1005d9d0 f   libucrtd:fputwc.obj
 0001:0005c9f0       _putwchar                  1005d9f0 f   libucrtd:fputwc.obj
 0001:0005ca10       ?lowio_handle@__crt_stdio_stream@@QBEHXZ 1005da10 f i libucrtd:fileno.obj
 0001:0005ca30       __fileno                   1005da30 f   libucrtd:fileno.obj
 0001:0005cad0       ??$?RPAU__crt_stdio_stream_data@@@__crt_internal_free_policy@@QBEXQBQAU__crt_stdio_stream_data@@@Z 1005dad0 f i libucrtd:_file.obj
 0001:0005caf0       ??0?$__crt_unique_heap_ptr@PAU__crt_stdio_stream_data@@U__crt_internal_free_policy@@@@QAE@QAPAU__crt_stdio_stream_data@@@Z 1005daf0 f i libucrtd:_file.obj
 0001:0005cb10       ??1?$__crt_unique_heap_ptr@PAU__crt_stdio_stream_data@@U__crt_internal_free_policy@@@@QAE@XZ 1005db10 f i libucrtd:_file.obj
 0001:0005cb30       ?detach@?$__crt_unique_heap_ptr@PAU__crt_stdio_stream_data@@U__crt_internal_free_policy@@@@QAEPAPAU__crt_stdio_stream_data@@XZ 1005db30 f i libucrtd:_file.obj
 0001:0005cb60       ?release@?$__crt_unique_heap_ptr@PAU__crt_stdio_stream_data@@U__crt_internal_free_policy@@@@QAEXXZ 1005db60 f i libucrtd:_file.obj
 0001:0005cb90       ___acrt_initialize_stdio   1005db90 f   libucrtd:_file.obj
 0001:0005cd00       ___acrt_iob_func           1005dd00 f   libucrtd:_file.obj
 0001:0005cd10       ___acrt_uninitialize_stdio 1005dd10 f   libucrtd:_file.obj
 0001:0005cd90       __get_stream_buffer_pointers 1005dd90 f   libucrtd:_file.obj
 0001:0005ce70       __lock_file                1005de70 f   libucrtd:_file.obj
 0001:0005cea0       __unlock_file              1005dea0 f   libucrtd:_file.obj
 0001:0005ced0       __fputc_nolock             1005ded0 f   libucrtd:fputc.obj
 0001:0005cf60       __fputchar                 1005df60 f   libucrtd:fputc.obj
 0001:0005cf80       __putc_nolock              1005df80 f   libucrtd:fputc.obj
 0001:0005cfa0       _fputc                     1005dfa0 f   libucrtd:fputc.obj
 0001:0005d1e0       _putc                      1005e1e0 f   libucrtd:fputc.obj
 0001:0005d200       _putchar                   1005e200 f   libucrtd:fputc.obj
 0001:0005d220       __get_printf_count_output  1005e220 f   libucrtd:printf_count_output.obj
 0001:0005d250       __set_printf_count_output  1005e250 f   libucrtd:printf_count_output.obj
 0001:0005d2b0       ?has_any_buffer@__crt_stdio_stream@@QBE_NXZ 1005e2b0 f i libucrtd:_sftbuf.obj
 0001:0005d2d0       ?has_any_of@__crt_stdio_stream@@QBE_NJ@Z 1005e2d0 f i libucrtd:_sftbuf.obj
 0001:0005d310       ?has_temporary_buffer@__crt_stdio_stream@@QBE_NXZ 1005e310 f i libucrtd:_sftbuf.obj
 0001:0005d330       ?set_flags@__crt_stdio_stream@@QBE_NJ@Z 1005e330 f i libucrtd:_sftbuf.obj
 0001:0005d380       ?unset_flags@__crt_stdio_stream@@QBE_NJ@Z 1005e380 f i libucrtd:_sftbuf.obj
 0001:0005d3d0       ___acrt_should_use_temporary_buffer 1005e3d0 f   libucrtd:_sftbuf.obj
 0001:0005d420       ___acrt_stdio_begin_temporary_buffering_nolock 1005e420 f   libucrtd:_sftbuf.obj
 0001:0005d5d0       ___acrt_stdio_end_temporary_buffering_nolock 1005e5d0 f   libucrtd:_sftbuf.obj
 0001:0005d660       ??$?RU__crt_locale_data@@@__crt_internal_free_policy@@QBEXQBU__crt_locale_data@@@Z 1005e660 f i libucrtd:wsetlocale.obj
 0001:0005d680       ??$?RU__crt_locale_pointers@@@__crt_internal_free_policy@@QBEXQBU__crt_locale_pointers@@@Z 1005e680 f i libucrtd:wsetlocale.obj
 0001:0005d6a0       ??$?RU__crt_multibyte_data@@@__crt_internal_free_policy@@QBEXQBU__crt_multibyte_data@@@Z 1005e6a0 f i libucrtd:wsetlocale.obj
 0001:0005dc90       ??0?$__crt_unique_heap_ptr@U__crt_locale_data@@U__crt_internal_free_policy@@@@QAE@QAU__crt_locale_data@@@Z 1005ec90 f i libucrtd:wsetlocale.obj
 0001:0005dcb0       ??0?$__crt_unique_heap_ptr@U__crt_locale_pointers@@U__crt_internal_free_policy@@@@QAE@QAU__crt_locale_pointers@@@Z 1005ecb0 f i libucrtd:wsetlocale.obj
 0001:0005dcd0       ??0?$__crt_unique_heap_ptr@U__crt_multibyte_data@@U__crt_internal_free_policy@@@@QAE@QAU__crt_multibyte_data@@@Z 1005ecd0 f i libucrtd:wsetlocale.obj
 0001:0005dcf0       ??0_expandlocale_locale_name_cache@@QAE@QA_WIQAU__crt_qualified_locale_data@@@Z 1005ecf0 f i libucrtd:wsetlocale.obj
 0001:0005dd60       ??1?$__crt_unique_heap_ptr@U__crt_locale_data@@U__crt_internal_free_policy@@@@QAE@XZ 1005ed60 f i libucrtd:wsetlocale.obj
 0001:0005dd80       ??1?$__crt_unique_heap_ptr@U__crt_locale_pointers@@U__crt_internal_free_policy@@@@QAE@XZ 1005ed80 f i libucrtd:wsetlocale.obj
 0001:0005dda0       ??1?$__crt_unique_heap_ptr@U__crt_multibyte_data@@U__crt_internal_free_policy@@@@QAE@XZ 1005eda0 f i libucrtd:wsetlocale.obj
 0001:0005ddc0       ??1_expandlocale_locale_name_cache@@QAE@XZ 1005edc0 f i libucrtd:wsetlocale.obj
 0001:0005de20       ??B?$__crt_unique_heap_ptr@U__crt_locale_data@@U__crt_internal_free_policy@@@@QBE_NXZ 1005ee20 f i libucrtd:wsetlocale.obj
 0001:0005de40       ??B?$__crt_unique_heap_ptr@U__crt_locale_pointers@@U__crt_internal_free_policy@@@@QBE_NXZ 1005ee40 f i libucrtd:wsetlocale.obj
 0001:0005de60       ??B?$__crt_unique_heap_ptr@U__crt_multibyte_data@@U__crt_internal_free_policy@@@@QBE_NXZ 1005ee60 f i libucrtd:wsetlocale.obj
 0001:0005e240       ?commit_locale_name@_expandlocale_locale_name_cache@@QAEXQB_WI@Z 1005f240 f i libucrtd:wsetlocale.obj
 0001:0005e2a0       ?commit_locale_name_cache_already_updated@_expandlocale_locale_name_cache@@QAEXQB_WI@Z 1005f2a0 f i libucrtd:wsetlocale.obj
 0001:0005e300       ?detach@?$__crt_unique_heap_ptr@U__crt_locale_data@@U__crt_internal_free_policy@@@@QAEPAU__crt_locale_data@@XZ 1005f300 f i libucrtd:wsetlocale.obj
 0001:0005e330       ?detach@?$__crt_unique_heap_ptr@U__crt_locale_pointers@@U__crt_internal_free_policy@@@@QAEPAU__crt_locale_pointers@@XZ 1005f330 f i libucrtd:wsetlocale.obj
 0001:0005e360       ?detach@?$__crt_unique_heap_ptr@U__crt_multibyte_data@@U__crt_internal_free_policy@@@@QAEPAU__crt_multibyte_data@@XZ 1005f360 f i libucrtd:wsetlocale.obj
 0001:0005e390       ?get@?$__crt_unique_heap_ptr@U__crt_locale_data@@U__crt_internal_free_policy@@@@QBEPAU__crt_locale_data@@XZ 1005f390 f i libucrtd:wsetlocale.obj
 0001:0005e3b0       ?get@?$__crt_unique_heap_ptr@U__crt_locale_pointers@@U__crt_internal_free_policy@@@@QBEPAU__crt_locale_pointers@@XZ 1005f3b0 f i libucrtd:wsetlocale.obj
 0001:0005e3d0       ?get@?$__crt_unique_heap_ptr@U__crt_multibyte_data@@U__crt_internal_free_policy@@@@QBEPAU__crt_multibyte_data@@XZ 1005f3d0 f i libucrtd:wsetlocale.obj
 0001:0005e3f0       ?is_valid@?$__crt_unique_heap_ptr@U__crt_locale_data@@U__crt_internal_free_policy@@@@QBE_NXZ 1005f3f0 f i libucrtd:wsetlocale.obj
 0001:0005e420       ?is_valid@?$__crt_unique_heap_ptr@U__crt_locale_pointers@@U__crt_internal_free_policy@@@@QBE_NXZ 1005f420 f i libucrtd:wsetlocale.obj
 0001:0005e450       ?is_valid@?$__crt_unique_heap_ptr@U__crt_multibyte_data@@U__crt_internal_free_policy@@@@QBE_NXZ 1005f450 f i libucrtd:wsetlocale.obj
 0001:0005e480       ?release@?$__crt_unique_heap_ptr@U__crt_locale_data@@U__crt_internal_free_policy@@@@QAEXXZ 1005f480 f i libucrtd:wsetlocale.obj
 0001:0005e4b0       ?release@?$__crt_unique_heap_ptr@U__crt_locale_pointers@@U__crt_internal_free_policy@@@@QAEXXZ 1005f4b0 f i libucrtd:wsetlocale.obj
 0001:0005e4e0       ?release@?$__crt_unique_heap_ptr@U__crt_multibyte_data@@U__crt_internal_free_policy@@@@QAEXXZ 1005f4e0 f i libucrtd:wsetlocale.obj
 0001:0005e510       ___acrt_copy_locale_name   1005f510 f   libucrtd:wsetlocale.obj
 0001:0005e5b0       ___acrt_set_locale_changed 1005f5b0 f   libucrtd:wsetlocale.obj
 0001:0005e5d0       ___acrt_uninitialize_locale 1005f5d0 f   libucrtd:wsetlocale.obj
 0001:0005e5f0       ___ascii_tolower           1005f5f0 f i libucrtd:wsetlocale.obj
 0001:0005e610       ___ascii_towlower          1005f610 f i libucrtd:wsetlocale.obj
 0001:0005e630       ___lc_lctowcs              1005f630 f   libucrtd:wsetlocale.obj
 0001:0005e6e0       ___lc_wcstolc              1005f6e0 f   libucrtd:wsetlocale.obj
 0001:0005e910       __configthreadlocale       1005f910 f   libucrtd:wsetlocale.obj
 0001:0005ea90       __create_locale            1005fa90 f   libucrtd:wsetlocale.obj
 0001:0005f0d0       __free_locale              100600d0 f   libucrtd:wsetlocale.obj
 0001:0005f200       __get_current_locale       10060200 f   libucrtd:wsetlocale.obj
 0001:0005f2d0       __wcreate_locale           100602d0 f   libucrtd:wsetlocale.obj
 0001:0005f510       __wcscats                  10060510 f   libucrtd:wsetlocale.obj
 0001:0005f590       __wsetlocale               10060590 f   libucrtd:wsetlocale.obj
 0001:00060c80       ___p___mb_cur_max          10061c80 f   libucrtd:nlsdata.obj
 0001:00060f80       ___acrt_initialize_lowio   10061f80 f   libucrtd:ioinit.obj
 0001:00061020       ___acrt_uninitialize_lowio 10062020 f   libucrtd:ioinit.obj
 0001:00061080       __msize                    10062080 f   libucrtd:msize.obj
 0001:000610a0       __msize_base               100620a0 f   libucrtd:msize.obj
 0001:00061140       __realloc_base             10062140 f   libucrtd:realloc_base.obj
 0001:000614e0       ___acrt_get_begin_thread_init_policy 100624e0 f   libucrtd:win_policies.obj
 0001:00061500       ___acrt_get_developer_information_policy 10062500 f   libucrtd:win_policies.obj
 0001:00061520       ___acrt_get_process_end_policy 10062520 f   libucrtd:win_policies.obj
 0001:00061540       ___acrt_get_windowing_model_policy 10062540 f   libucrtd:win_policies.obj
 0001:00061810       ??$__acrt_mbs_to_wcs_cp@U__crt_win32_buffer_internal_dynamic_resizing@@@@YAHQBDAAV?$__crt_win32_buffer@_WU__crt_win32_buffer_internal_dynamic_resizing@@@@I@Z 10062810 f i libucrtd:argv_wildcards.obj
 0001:00061840       ??$__acrt_wcs_to_mbs_cp@U__crt_win32_buffer_internal_dynamic_resizing@@@@YAHQB_WAAV?$__crt_win32_buffer@DU__crt_win32_buffer_internal_dynamic_resizing@@@@I@Z 10062840 f i libucrtd:argv_wildcards.obj
 0001:00062790       ??$tcsncpy_s@AAPADIAAPADABI@?$__crt_char_traits@D@@SAHAAPAD$$QAI0ABI@Z 10063790 f i libucrtd:argv_wildcards.obj
 0001:000627c0       ??$tcsncpy_s@AAPA_WIAAPA_WABI@?$__crt_char_traits@_W@@SAHAAPA_W$$QAI0ABI@Z 100637c0 f i libucrtd:argv_wildcards.obj
 0001:000627f0       ??$tcsncpy_s@PADABIABQBDABI@?$__crt_char_traits@D@@SAH$$QAPADABIABQBD1@Z 100637f0 f i libucrtd:argv_wildcards.obj
 0001:00062820       ??$tcsncpy_s@PADIABQBDABI@?$__crt_char_traits@D@@SAH$$QAPAD$$QAIABQBDABI@Z 10063820 f i libucrtd:argv_wildcards.obj
 0001:00062850       ??$tcsncpy_s@PA_WABIABQB_WABI@?$__crt_char_traits@_W@@SAH$$QAPA_WABIABQB_W1@Z 10063850 f i libucrtd:argv_wildcards.obj
 0001:00062880       ??$tcsncpy_s@PA_WIABQB_WABI@?$__crt_char_traits@_W@@SAH$$QAPA_W$$QAIABQB_WABI@Z 10063880 f i libucrtd:argv_wildcards.obj
 0001:000628b0       ??$tcspbrk@AAPADAAY02$$CBD@?$__crt_char_traits@D@@SAPADAAPADAAY02$$CBD@Z 100638b0 f i libucrtd:argv_wildcards.obj
 0001:000628d0       ??$tcspbrk@AAPA_WAAY02$$CB_W@?$__crt_char_traits@_W@@SAPA_WAAPA_WAAY02$$CB_W@Z 100638d0 f i libucrtd:argv_wildcards.obj
 0001:000628f0       ??0?$__crt_unique_handle_t@U__crt_findfile_traits@@@@QAE@QAX@Z 100638f0 f i libucrtd:argv_wildcards.obj
 0001:00062910       ??0?$__crt_win32_buffer@DU__crt_win32_buffer_internal_dynamic_resizing@@@@QAE@XZ 10063910 f i libucrtd:argv_wildcards.obj
 0001:00062960       ??0?$__crt_win32_buffer@_WU__crt_win32_buffer_internal_dynamic_resizing@@@@QAE@XZ 10063960 f i libucrtd:argv_wildcards.obj
 0001:00062a10       ??1?$__crt_unique_handle_t@U__crt_findfile_traits@@@@QAE@XZ 10063a10 f i libucrtd:argv_wildcards.obj
 0001:00062a30       ??1?$__crt_win32_buffer@DU__crt_win32_buffer_internal_dynamic_resizing@@@@QAE@XZ 10063a30 f i libucrtd:argv_wildcards.obj
 0001:00062a70       ??1?$__crt_win32_buffer@_WU__crt_win32_buffer_internal_dynamic_resizing@@@@QAE@XZ 10063a70 f i libucrtd:argv_wildcards.obj
 0001:00062cd0       ?_deallocate@?$__crt_win32_buffer@DU__crt_win32_buffer_internal_dynamic_resizing@@@@AAEXXZ 10063cd0 f i libucrtd:argv_wildcards.obj
 0001:00062d10       ?_deallocate@?$__crt_win32_buffer@_WU__crt_win32_buffer_internal_dynamic_resizing@@@@AAEXXZ 10063d10 f i libucrtd:argv_wildcards.obj
 0001:00062d50       ?allocate@?$__crt_win32_buffer@DU__crt_win32_buffer_internal_dynamic_resizing@@@@QAEHI@Z 10063d50 f i libucrtd:argv_wildcards.obj
 0001:00062dc0       ?allocate@?$__crt_win32_buffer@_WU__crt_win32_buffer_internal_dynamic_resizing@@@@QAEHI@Z 10063dc0 f i libucrtd:argv_wildcards.obj
 0001:00062e30       ?allocate@__crt_win32_buffer_internal_dynamic_resizing@@SAHQAPAXIABV__crt_win32_buffer_empty_debug_info@@@Z 10063e30 f i libucrtd:argv_wildcards.obj
 0001:00062f70       ?capacity@?$__crt_win32_buffer@DU__crt_win32_buffer_internal_dynamic_resizing@@@@QBEIXZ 10063f70 f i libucrtd:argv_wildcards.obj
 0001:00062f90       ?capacity@?$__crt_win32_buffer@_WU__crt_win32_buffer_internal_dynamic_resizing@@@@QBEIXZ 10063f90 f i libucrtd:argv_wildcards.obj
 0001:00062fb0       ?close@?$__crt_unique_handle_t@U__crt_findfile_traits@@@@QAEXXZ 10063fb0 f i libucrtd:argv_wildcards.obj
 0001:00062ff0       ?close@__crt_findfile_traits@@SA_NPAX@Z 10063ff0 f i libucrtd:argv_wildcards.obj
 0001:00063020       ?data@?$__crt_win32_buffer@DU__crt_win32_buffer_internal_dynamic_resizing@@@@QAEPADXZ 10064020 f i libucrtd:argv_wildcards.obj
 0001:00063040       ?data@?$__crt_win32_buffer@_WU__crt_win32_buffer_internal_dynamic_resizing@@@@QAEPA_WXZ 10064040 f i libucrtd:argv_wildcards.obj
 0001:00063060       ?deallocate@__crt_win32_buffer_internal_dynamic_resizing@@SAXQAXABV__crt_win32_buffer_empty_debug_info@@@Z 10064060 f i libucrtd:argv_wildcards.obj
 0001:00063080       ?debug_info@?$__crt_win32_buffer@DU__crt_win32_buffer_internal_dynamic_resizing@@@@QBEABV__crt_win32_buffer_empty_debug_info@@XZ 10064080 f i libucrtd:argv_wildcards.obj
 0001:00063090       ?debug_info@?$__crt_win32_buffer@_WU__crt_win32_buffer_internal_dynamic_resizing@@@@QBEABV__crt_win32_buffer_empty_debug_info@@XZ 10064090 f i libucrtd:argv_wildcards.obj
 0001:000633a0       ?get@?$__crt_unique_handle_t@U__crt_findfile_traits@@@@QBEPAXXZ 100643a0 f i libucrtd:argv_wildcards.obj
 0001:00063410       ?get_invalid_value@__crt_findfile_traits@@SAPAXXZ 10064410 f i libucrtd:argv_wildcards.obj
 0001:000634a0       ?set_to_nullptr@?$__crt_win32_buffer@DU__crt_win32_buffer_internal_dynamic_resizing@@@@QAEXXZ 100644a0 f i libucrtd:argv_wildcards.obj
 0001:000634e0       ?set_to_nullptr@?$__crt_win32_buffer@_WU__crt_win32_buffer_internal_dynamic_resizing@@@@QAEXXZ 100644e0 f i libucrtd:argv_wildcards.obj
 0001:00063520       ?size@?$__crt_win32_buffer@DU__crt_win32_buffer_internal_dynamic_resizing@@@@QAEXI@Z 10064520 f i libucrtd:argv_wildcards.obj
 0001:00063540       ?size@?$__crt_win32_buffer@_WU__crt_win32_buffer_internal_dynamic_resizing@@@@QAEXI@Z 10064540 f i libucrtd:argv_wildcards.obj
 0001:000635a0       ?strpbrk@@YAPADQADQBD@Z    100645a0 f i libucrtd:argv_wildcards.obj
 0001:000635c0       ?wcspbrk@@YAPA_WPA_WPB_W@Z 100645c0 f i libucrtd:argv_wildcards.obj
 0001:000635e0       ___acrt_expand_narrow_argv_wildcards 100645e0 f   libucrtd:argv_wildcards.obj
 0001:00063600       ___acrt_expand_wide_argv_wildcards 10064600 f   libucrtd:argv_wildcards.obj
 0001:000636e0       ??$initialize_from_array@$$BY10BAA@E@?$dual_state_global@PAE@__crt_state_management@@QAAXAAY10BAA@E@Z 100646e0 f i libucrtd:mbctype.obj
 0001:00063730       ??$initialize_from_array@$$BY10BAB@E@?$dual_state_global@PAE@__crt_state_management@@QAAXAAY10BAB@E@Z 10064730 f i libucrtd:mbctype.obj
 0001:000639a0       ?dangerous_get_state_array@?$dual_state_global@PAE@__crt_state_management@@QAEPAPAEXZ 100649a0 f i libucrtd:mbctype.obj
 0001:000639b0       ?dangerous_get_state_array@?$dual_state_global@PAU__crt_multibyte_data@@@__crt_state_management@@QAEPAPAU__crt_multibyte_data@@XZ 100649b0 f i libucrtd:mbctype.obj
 0001:00063a80       ?initialize@?$dual_state_global@PAU__crt_multibyte_data@@@__crt_state_management@@QAEXQAU__crt_multibyte_data@@@Z 10064a80 f i libucrtd:mbctype.obj
 0001:000641d0       ?value@?$dual_state_global@PAE@__crt_state_management@@QAEAAPAEXZ 100651d0 f i libucrtd:mbctype.obj
 0001:000641f0       ___acrt_initialize_multibyte 100651f0 f   libucrtd:mbctype.obj
 0001:000642a0       ___acrt_update_thread_multibyte_data 100652a0 f   libucrtd:mbctype.obj
 0001:000642c0       ___p__mbcasemap            100652c0 f   libucrtd:mbctype.obj
 0001:000642e0       ___p__mbctype              100652e0 f   libucrtd:mbctype.obj
 0001:00064300       __getmbcp                  10065300 f   libucrtd:mbctype.obj
 0001:00064370       __setmbcp                  10065370 f   libucrtd:mbctype.obj
 0001:000643a0       __setmbcp_nolock           100653a0 f   libucrtd:mbctype.obj
 0001:00064911       __ismbbalnum               10065911 f   libucrtd:ismbbyte.obj
 0001:0006492c       __ismbbalnum_l             1006592c f   libucrtd:ismbbyte.obj
 0001:00064948       __ismbbalpha               10065948 f   libucrtd:ismbbyte.obj
 0001:00064963       __ismbbalpha_l             10065963 f   libucrtd:ismbbyte.obj
 0001:0006497f       __ismbbblank               1006597f f   libucrtd:ismbbyte.obj
 0001:000649a2       __ismbbblank_l             100659a2 f   libucrtd:ismbbyte.obj
 0001:000649c6       __ismbbgraph               100659c6 f   libucrtd:ismbbyte.obj
 0001:000649e1       __ismbbgraph_l             100659e1 f   libucrtd:ismbbyte.obj
 0001:000649fd       __ismbbkalnum              100659fd f   libucrtd:ismbbyte.obj
 0001:00064a15       __ismbbkalnum_l            10065a15 f   libucrtd:ismbbyte.obj
 0001:00064a2e       __ismbbkana                10065a2e f   libucrtd:ismbbyte.obj
 0001:00064a41       __ismbbkana_l              10065a41 f   libucrtd:ismbbyte.obj
 0001:00064a90       __ismbbkprint              10065a90 f   libucrtd:ismbbyte.obj
 0001:00064aa8       __ismbbkprint_l            10065aa8 f   libucrtd:ismbbyte.obj
 0001:00064ac1       __ismbbkpunct              10065ac1 f   libucrtd:ismbbyte.obj
 0001:00064ad9       __ismbbkpunct_l            10065ad9 f   libucrtd:ismbbyte.obj
 0001:00064af2       __ismbblead                10065af2 f   libucrtd:ismbbyte.obj
 0001:00064b0a       __ismbblead_l              10065b0a f   libucrtd:ismbbyte.obj
 0001:00064b23       __ismbbprint               10065b23 f   libucrtd:ismbbyte.obj
 0001:00064b3e       __ismbbprint_l             10065b3e f   libucrtd:ismbbyte.obj
 0001:00064b5a       __ismbbpunct               10065b5a f   libucrtd:ismbbyte.obj
 0001:00064b72       __ismbbpunct_l             10065b72 f   libucrtd:ismbbyte.obj
 0001:00064b8b       __ismbbtrail               10065b8b f   libucrtd:ismbbyte.obj
 0001:00064ba3       __ismbbtrail_l             10065ba3 f   libucrtd:ismbbyte.obj
 0001:00064bc0       ___acrt_initialize_command_line 10065bc0 f   libucrtd:argv_data.obj
 0001:00064be0       ___acrt_uninitialize_command_line 10065be0 f   libucrtd:argv_data.obj
 0001:00064bf0       ___p___argc                10065bf0 f   libucrtd:argv_data.obj
 0001:00064c00       ___p___argv                10065c00 f   libucrtd:argv_data.obj
 0001:00064c10       ___p___wargv               10065c10 f   libucrtd:argv_data.obj
 0001:00064c20       ___p__acmdln               10065c20 f   libucrtd:argv_data.obj
 0001:00064c30       ___p__pgmptr               10065c30 f   libucrtd:argv_data.obj
 0001:00064c40       ___p__wcmdln               10065c40 f   libucrtd:argv_data.obj
 0001:00064c50       ___p__wpgmptr              10065c50 f   libucrtd:argv_data.obj
 0001:00064c60       __get_pgmptr               10065c60 f   libucrtd:argv_data.obj
 0001:00064d70       __get_wpgmptr              10065d70 f   libucrtd:argv_data.obj
 0001:00064f30       ___acrt_MultiByteToWideChar 10065f30 f   libucrtd:multibytetowidechar.obj
 0001:00065030       ___acrt_WideCharToMultiByte 10066030 f   libucrtd:widechartomultibyte.obj
 0001:00065189       ___dcrt_get_narrow_environment_from_os 10066189 f   libucrtd:get_environment_from_os.obj
 0001:0006521b       ___dcrt_get_wide_environment_from_os 1006621b f   libucrtd:get_environment_from_os.obj
 0001:00065bb0       ??$get_or_create_environment_nolock@$$V@?$__crt_char_traits@D@@SAPAPADXZ 10066bb0 f i libucrtd:setenv.obj
 0001:00065bb5       ??$get_or_create_environment_nolock@$$V@?$__crt_char_traits@_W@@SAPAPA_WXZ 10066bb5 f i libucrtd:setenv.obj
 0001:00065bba       ??$set_environment_variable@ABQADQAD@?$__crt_char_traits@D@@SAHABQAD$$QBQAD@Z 10066bba f i libucrtd:setenv.obj
 0001:00065bd2       ??$set_environment_variable@ABQA_WQA_W@?$__crt_char_traits@_W@@SAHABQA_W$$QBQA_W@Z 10066bd2 f i libucrtd:setenv.obj
 0001:00065be9       ??$tcschr@ABQADD@?$__crt_char_traits@D@@SAPADABQAD$$QAD@Z 10066be9 f i libucrtd:setenv.obj
 0001:00065c03       ??$tcschr@ABQA_WD@?$__crt_char_traits@_W@@SAPA_WABQA_W$$QAD@Z 10066c03 f i libucrtd:setenv.obj
 0001:00065c21       ??$tcscpy_s@AAPADABIAAPAD@?$__crt_char_traits@D@@SAHAAPADABI0@Z 10066c21 f i libucrtd:setenv.obj
 0001:00065c3f       ??$tcscpy_s@AAPA_WABIAAPA_W@?$__crt_char_traits@_W@@SAHAAPA_WABI0@Z 10066c3f f i libucrtd:setenv.obj
 0001:00065c5d       ??$tcscpy_s@ABQADABIABQAD@?$__crt_char_traits@D@@SAHABQADABI0@Z 10066c5d f i libucrtd:setenv.obj
 0001:00065c7b       ??$tcscpy_s@ABQA_WABIABQA_W@?$__crt_char_traits@_W@@SAHABQA_WABI0@Z 10066c7b f i libucrtd:setenv.obj
 0001:00065c99       ??$tcslen@ABQAD@?$__crt_char_traits@D@@SAIABQAD@Z 10066c99 f i libucrtd:setenv.obj
 0001:00065cb1       ??$tcslen@ABQA_W@?$__crt_char_traits@_W@@SAIABQA_W@Z 10066cb1 f i libucrtd:setenv.obj
 0001:00065ccf       ??$tcsnicoll@ABQBDAAPADABI@?$__crt_char_traits@D@@SAHABQBDAAPADABI@Z 10066ccf f i libucrtd:setenv.obj
 0001:00065ced       ??$tcsnicoll@ABQB_WAAPA_WABI@?$__crt_char_traits@_W@@SAHABQB_WAAPA_WABI@Z 10066ced f i libucrtd:setenv.obj
 0001:00065d0b       ??$tcsnlen@PADH@?$__crt_char_traits@D@@SAI$$QAPAD$$QAH@Z 10066d0b f i libucrtd:setenv.obj
 0001:00065d23       ??$tcsnlen@PA_WH@?$__crt_char_traits@_W@@SAI$$QAPA_W$$QAH@Z 10066d23 f i libucrtd:setenv.obj
 0001:00065d5f       ?strchr@@YAPADQADH@Z       10066d5f f i libucrtd:setenv.obj
 0001:00065d6a       ?wcschr@@YAPA_WPA_W_W@Z    10066d6a f i libucrtd:setenv.obj
 0001:00065d75       ___dcrt_set_variable_in_narrow_environment_nolock 10066d75 f   libucrtd:setenv.obj
 0001:00065d80       ___dcrt_set_variable_in_wide_environment_nolock 10066d80 f   libucrtd:setenv.obj
 0001:00065db0       ??$?B$$A6GHPA_WKJ@Z@__crt_fast_encoded_nullptr_t@@QBEP6GHPA_WKJ@ZXZ 10066db0 f i libucrtd:winapi_thunks.obj
 0001:00065ea0       ??$__crt_fast_decode_pointer@P6GHPA_WKJ@Z@@YAP6GHPA_WKJ@ZQ6GH0KJ@Z@Z 10066ea0 f i libucrtd:winapi_thunks.obj
 0001:00065ed0       ??$__crt_fast_decode_pointer@PAX@@YAPAXQAX@Z 10066ed0 f i libucrtd:winapi_thunks.obj
 0001:00065f00       ??$__crt_fast_encode_pointer@P6GHPA_WKJ@Z@@YAP6GHPA_WKJ@ZQ6GH0KJ@Z@Z 10066f00 f i libucrtd:winapi_thunks.obj
 0001:00066860       _GetCurrentThreadEffectiveToken 10067860 f i libucrtd:winapi_thunks.obj
 0001:00066870       ___acrt_AppPolicyGetProcessTerminationMethodInternal@4 10067870 f   libucrtd:winapi_thunks.obj
 0001:000668b0       ___acrt_AppPolicyGetShowDeveloperDiagnosticInternal@4 100678b0 f   libucrtd:winapi_thunks.obj
 0001:000668f0       ___acrt_AppPolicyGetThreadInitializationTypeInternal@4 100678f0 f   libucrtd:winapi_thunks.obj
 0001:00066930       ___acrt_AppPolicyGetWindowingModelInternal@4 10067930 f   libucrtd:winapi_thunks.obj
 0001:00066970       ___acrt_AreFileApisANSI@0  10067970 f   libucrtd:winapi_thunks.obj
 0001:000669b0       ___acrt_CompareStringEx@36 100679b0 f   libucrtd:winapi_thunks.obj
 0001:00066a30       ___acrt_EnumSystemLocalesEx@16 10067a30 f   libucrtd:winapi_thunks.obj
 0001:00066a90       ___acrt_FlsAlloc@4         10067a90 f   libucrtd:winapi_thunks.obj
 0001:00066ad0       ___acrt_FlsFree@4          10067ad0 f   libucrtd:winapi_thunks.obj
 0001:00066b10       ___acrt_FlsGetValue@4      10067b10 f   libucrtd:winapi_thunks.obj
 0001:00066b50       ___acrt_FlsSetValue@8      10067b50 f   libucrtd:winapi_thunks.obj
 0001:00066ba0       ___acrt_GetDateFormatEx@28 10067ba0 f   libucrtd:winapi_thunks.obj
 0001:00066c20       ___acrt_GetEnabledXStateFeatures@0 10067c20 f   libucrtd:winapi_thunks.obj
 0001:00066c60       ___acrt_GetLocaleInfoEx@16 10067c60 f   libucrtd:winapi_thunks.obj
 0001:00066cc0       ___acrt_GetSystemTimePreciseAsFileTime@4 10067cc0 f   libucrtd:winapi_thunks.obj
 0001:00066d00       ___acrt_GetTimeFormatEx@24 10067d00 f   libucrtd:winapi_thunks.obj
 0001:00066d70       ___acrt_GetUserDefaultLocaleName@8 10067d70 f   libucrtd:winapi_thunks.obj
 0001:00066dc0       ___acrt_GetXStateFeaturesMask@8 10067dc0 f   libucrtd:winapi_thunks.obj
 0001:00066e00       ___acrt_InitializeCriticalSectionEx@12 10067e00 f   libucrtd:winapi_thunks.obj
 0001:00066e50       ___acrt_IsValidLocaleName@4 10067e50 f   libucrtd:winapi_thunks.obj
 0001:00066ea0       ___acrt_LCIDToLocaleName@16 10067ea0 f   libucrtd:winapi_thunks.obj
 0001:00066f00       ___acrt_LCMapStringEx@36   10067f00 f   libucrtd:winapi_thunks.obj
 0001:00066f80       ___acrt_LocaleNameToLCID@8 10067f80 f   libucrtd:winapi_thunks.obj
 0001:00066fd0       ___acrt_LocateXStateFeature@12 10067fd0 f   libucrtd:winapi_thunks.obj
 0001:00067020       ___acrt_MessageBoxA@16     10068020 f   libucrtd:winapi_thunks.obj
 0001:00067070       ___acrt_MessageBoxW@16     10068070 f   libucrtd:winapi_thunks.obj
 0001:000670c0       ___acrt_RoInitialize@4     100680c0 f   libucrtd:winapi_thunks.obj
 0001:00067100       ___acrt_RoUninitialize@0   10068100 f   libucrtd:winapi_thunks.obj
 0001:00067130       ___acrt_RtlGenRandom@8     10068130 f   libucrtd:winapi_thunks.obj
 0001:00067170       ___acrt_SetThreadStackGuarantee@4 10068170 f   libucrtd:winapi_thunks.obj
 0001:000671b0       ___acrt_can_show_message_box 100681b0 f   libucrtd:winapi_thunks.obj
 0001:000671f0       ___acrt_can_use_vista_locale_apis 100681f0 f   libucrtd:winapi_thunks.obj
 0001:00067220       ___acrt_can_use_xstate_apis 10068220 f   libucrtd:winapi_thunks.obj
 0001:00067250       ___acrt_eagerly_load_locale_apis 10068250 f   libucrtd:winapi_thunks.obj
 0001:00067290       ___acrt_get_parent_window  10068290 f   libucrtd:winapi_thunks.obj
 0001:00067300       ___acrt_initialize_winapi_thunks 10068300 f   libucrtd:winapi_thunks.obj
 0001:00067370       ___acrt_is_interactive     10068370 f   libucrtd:winapi_thunks.obj
 0001:00067420       ___acrt_uninitialize_winapi_thunks 10068420 f   libucrtd:winapi_thunks.obj
 0001:00067490       ___acrt_getheap            10068490 f   libucrtd:heap_handle.obj
 0001:000674d0       ___acrt_initialize_heap    100684d0 f   libucrtd:heap_handle.obj
 0001:00067500       ___acrt_uninitialize_heap  10068500 f   libucrtd:heap_handle.obj
 0001:00067520       __get_heap_handle          10068520 f   libucrtd:heap_handle.obj
 0001:00067560       ___acrt_execute_initializers 10068560 f   libucrtd:shared_initialization.obj
 0001:00067610       ___acrt_execute_uninitializers 10068610 f   libucrtd:shared_initialization.obj
 0001:00067670       ??$__crt_fast_decode_pointer@P6AHPAU_exception@@@Z@@YAP6AHPAU_exception@@@ZQ6AH0@Z@Z 10068670 f i libucrtd:matherr.obj
 0001:000676a0       ??$__crt_fast_encode_pointer@P6AHPAU_exception@@@Z@@YAP6AHPAU_exception@@@ZQ6AH0@Z@Z 100686a0 f i libucrtd:matherr.obj
 0001:000676d0       ?initialize@?$dual_state_global@P6AHPAU_exception@@@Z@__crt_state_management@@QAEXQ6AHPAU_exception@@@Z@Z 100686d0 f i libucrtd:matherr.obj
 0001:00067710       ?value@?$dual_state_global@P6AHPAU_exception@@@Z@__crt_state_management@@QAEAAP6AHPAU_exception@@@ZXZ 10068710 f i libucrtd:matherr.obj
 0001:00067730       ___acrt_has_user_matherr   10068730 f   libucrtd:matherr.obj
 0001:00067770       ___acrt_initialize_user_matherr 10068770 f   libucrtd:matherr.obj
 0001:00067790       ___acrt_invoke_user_matherr 10068790 f   libucrtd:matherr.obj
 0001:000677e0       ___setusermatherr          100687e0 f   libucrtd:matherr.obj
 0001:00067810       __chvalidator              10068810 f   libucrtd:isctype.obj
 0001:00067860       __chvalidator_l            10068860 f   libucrtd:isctype.obj
 0001:000678e0       __isctype                  100688e0 f   libucrtd:isctype.obj
 0001:00067920       __isctype_l                10068920 f   libucrtd:isctype.obj
 0001:00067aa0       __isleadbyte_fast_internal 10068aa0 f i libucrtd:isctype.obj
 0001:00067ad0       __free_base                10068ad0 f   libucrtd:free_base.obj
 0001:00067b80       __expand                   10068b80 f   libucrtd:expand.obj
 0001:00067ba0       __expand_base              10068ba0 f   libucrtd:expand.obj
 0001:00067cd0       ?value@?$dual_state_global@J@__crt_state_management@@QAEAAJXZ 10068cd0 f i libucrtd:new_mode.obj
 0001:00067cf0       __query_new_mode           10068cf0 f   libucrtd:new_mode.obj
 0001:00067d10       __set_new_mode             10068d10 f   libucrtd:new_mode.obj
 0001:00067db0       __CrtDefaultAllocHook      10068db0 f   libucrtd:debug_heap_hook.obj
 0001:00067dbc       __mbsdec                   10068dbc f   libucrtd:mbsdec.obj
 0001:00067dd3       __mbsdec_l                 10068dd3 f   libucrtd:mbsdec.obj
 0001:000682c0       _strncpy_s                 100692c0 f   libucrtd:strncpy_s.obj
 0001:00068490       ___acrt_report_runtime_error 10069490 f   libucrtd:report_runtime_error.obj
 0001:00068680       __query_app_type           10069680 f   libucrtd:report_runtime_error.obj
 0001:00068690       __set_app_type             10069690 f   libucrtd:report_runtime_error.obj
 0001:000686a0       __iswctype_l               100696a0 f   libucrtd:iswctype.obj
 0001:000686c0       _iswctype                  100696c0 f   libucrtd:iswctype.obj
 0001:00069840       __i64toa                   1006a840 f   libucrtd:xtoa.obj
 0001:00069890       __i64toa_s                 1006a890 f   libucrtd:xtoa.obj
 0001:000698e0       __i64tow                   1006a8e0 f   libucrtd:xtoa.obj
 0001:00069930       __i64tow_s                 1006a930 f   libucrtd:xtoa.obj
 0001:00069980       __itoa                     1006a980 f   libucrtd:xtoa.obj
 0001:000699d0       __itoa_s                   1006a9d0 f   libucrtd:xtoa.obj
 0001:00069a20       __itow                     1006aa20 f   libucrtd:xtoa.obj
 0001:00069a70       __itow_s                   1006aa70 f   libucrtd:xtoa.obj
 0001:00069ac0       __ltoa                     1006aac0 f   libucrtd:xtoa.obj
 0001:00069b10       __ltoa_s                   1006ab10 f   libucrtd:xtoa.obj
 0001:00069b60       __ltow                     1006ab60 f   libucrtd:xtoa.obj
 0001:00069bb0       __ltow_s                   1006abb0 f   libucrtd:xtoa.obj
 0001:00069c00       __ui64toa                  1006ac00 f   libucrtd:xtoa.obj
 0001:00069c30       __ui64toa_s                1006ac30 f   libucrtd:xtoa.obj
 0001:00069c60       __ui64tow                  1006ac60 f   libucrtd:xtoa.obj
 0001:00069c90       __ui64tow_s                1006ac90 f   libucrtd:xtoa.obj
 0001:00069cc0       __ultoa                    1006acc0 f   libucrtd:xtoa.obj
 0001:00069cf0       __ultoa_s                  1006acf0 f   libucrtd:xtoa.obj
 0001:00069d20       __ultow                    1006ad20 f   libucrtd:xtoa.obj
 0001:00069d50       __ultow_s                  1006ad50 f   libucrtd:xtoa.obj
 0001:0006a160       __mbstowcs_l               1006b160 f   libucrtd:mbstowcs.obj
 0001:0006a180       __mbstowcs_s_l             1006b180 f   libucrtd:mbstowcs.obj
 0001:0006a540       _mbstowcs                  1006b540 f   libucrtd:mbstowcs.obj
 0001:0006a590       _mbstowcs_s                1006b590 f   libucrtd:mbstowcs.obj
 0001:0006ac80       __wcstombs_l               1006bc80 f   libucrtd:wcstombs.obj
 0001:0006aca0       __wcstombs_s_l             1006bca0 f   libucrtd:wcstombs.obj
 0001:0006b010       _wcstombs                  1006c010 f   libucrtd:wcstombs.obj
 0001:0006b030       _wcstombs_s                1006c030 f   libucrtd:wcstombs.obj
 0001:0006b060       ___acrt_OutputDebugStringA@4 1006c060 f   libucrtd:outputdebugstringa.obj
 0001:0006b0f0       ___iswcsym                 1006c0f0 f i libucrtd:_wctype.obj
 0001:0006b130       ___iswcsymf                1006c130 f i libucrtd:_wctype.obj
 0001:0006b170       __isleadbyte_l             1006c170 f i libucrtd:_wctype.obj
 0001:0006b1c0       __iswalnum_l               1006c1c0 f i libucrtd:_wctype.obj
 0001:0006b1e0       __iswalpha_l               1006c1e0 f i libucrtd:_wctype.obj
 0001:0006b200       __iswblank_l               1006c200 f i libucrtd:_wctype.obj
 0001:0006b240       __iswcntrl_l               1006c240 f i libucrtd:_wctype.obj
 0001:0006b260       __iswcsym_l                1006c260 f i libucrtd:_wctype.obj
 0001:0006b2a0       __iswcsymf_l               1006c2a0 f i libucrtd:_wctype.obj
 0001:0006b2e0       __iswdigit_l               1006c2e0 f i libucrtd:_wctype.obj
 0001:0006b300       __iswgraph_l               1006c300 f i libucrtd:_wctype.obj
 0001:0006b320       __iswlower_l               1006c320 f i libucrtd:_wctype.obj
 0001:0006b340       __iswprint_l               1006c340 f i libucrtd:_wctype.obj
 0001:0006b360       __iswpunct_l               1006c360 f i libucrtd:_wctype.obj
 0001:0006b380       __iswspace_l               1006c380 f i libucrtd:_wctype.obj
 0001:0006b3a0       __iswupper_l               1006c3a0 f i libucrtd:_wctype.obj
 0001:0006b3c0       __iswxdigit_l              1006c3c0 f i libucrtd:_wctype.obj
 0001:0006b3e0       _isleadbyte                1006c3e0 f i libucrtd:_wctype.obj
 0001:0006b400       _iswalnum                  1006c400 f i libucrtd:_wctype.obj
 0001:0006b420       _iswalpha                  1006c420 f i libucrtd:_wctype.obj
 0001:0006b440       _iswascii                  1006c440 f i libucrtd:_wctype.obj
 0001:0006b470       _iswblank                  1006c470 f i libucrtd:_wctype.obj
 0001:0006b4b0       _iswcntrl                  1006c4b0 f i libucrtd:_wctype.obj
 0001:0006b4d0       _iswdigit                  1006c4d0 f i libucrtd:_wctype.obj
 0001:0006b4f0       _iswgraph                  1006c4f0 f i libucrtd:_wctype.obj
 0001:0006b510       _iswlower                  1006c510 f i libucrtd:_wctype.obj
 0001:0006b530       _iswprint                  1006c530 f i libucrtd:_wctype.obj
 0001:0006b550       _iswpunct                  1006c550 f i libucrtd:_wctype.obj
 0001:0006b570       _iswspace                  1006c570 f i libucrtd:_wctype.obj
 0001:0006b590       _iswupper                  1006c590 f i libucrtd:_wctype.obj
 0001:0006b5b0       _iswxdigit                 1006c5b0 f i libucrtd:_wctype.obj
 0001:0006b640       ?__mbrtowc_utf8@__crt_mbstring@@YAIPA_WPBDIPAU_Mbstatet@@@Z 1006c640 f   libucrtd:mbrtowc.obj
 0001:0006b690       ?__mbsrtowcs_utf8@__crt_mbstring@@YAIPA_WPAPBDIPAU_Mbstatet@@@Z 1006c690 f   libucrtd:mbrtowc.obj
 0001:0006bf00       _btowc                     1006cf00 f   libucrtd:mbrtowc.obj
 0001:0006bf70       _mbrlen                    1006cf70 f   libucrtd:mbrtowc.obj
 0001:0006bfc0       _mbrtowc                   1006cfc0 f   libucrtd:mbrtowc.obj
 0001:0006c050       _mbsrtowcs                 1006d050 f   libucrtd:mbrtowc.obj
 0001:0006c070       _mbsrtowcs_s               1006d070 f   libucrtd:mbrtowc.obj
 0001:0006c3c0       ??$?RG@__crt_internal_free_policy@@QBEXQBG@Z 1006d3c0 f i libucrtd:initctype.obj
 0001:0006c3e0       ??$?RJ@__crt_internal_free_policy@@QBEXQBJ@Z 1006d3e0 f i libucrtd:initctype.obj
 0001:0006c400       ??0?$__crt_unique_heap_ptr@GU__crt_internal_free_policy@@@@QAE@QAG@Z 1006d400 f i libucrtd:initctype.obj
 0001:0006c420       ??0?$__crt_unique_heap_ptr@JU__crt_internal_free_policy@@@@QAE@QAJ@Z 1006d420 f i libucrtd:initctype.obj
 0001:0006c440       ??1?$__crt_unique_heap_ptr@GU__crt_internal_free_policy@@@@QAE@XZ 1006d440 f i libucrtd:initctype.obj
 0001:0006c460       ??1?$__crt_unique_heap_ptr@JU__crt_internal_free_policy@@@@QAE@XZ 1006d460 f i libucrtd:initctype.obj
 0001:0006c480       ?detach@?$__crt_unique_heap_ptr@GU__crt_internal_free_policy@@@@QAEPAGXZ 1006d480 f i libucrtd:initctype.obj
 0001:0006c4b0       ?detach@?$__crt_unique_heap_ptr@JU__crt_internal_free_policy@@@@QAEPAJXZ 1006d4b0 f i libucrtd:initctype.obj
 0001:0006c4e0       ?release@?$__crt_unique_heap_ptr@GU__crt_internal_free_policy@@@@QAEXXZ 1006d4e0 f i libucrtd:initctype.obj
 0001:0006c510       ?release@?$__crt_unique_heap_ptr@JU__crt_internal_free_policy@@@@QAEXXZ 1006d510 f i libucrtd:initctype.obj
 0001:0006c540       ____lc_codepage_func       1006d540 f   libucrtd:initctype.obj
 0001:0006c580       ____lc_collate_cp_func     1006d580 f   libucrtd:initctype.obj
 0001:0006c5c0       ____lc_locale_name_func    1006d5c0 f   libucrtd:initctype.obj
 0001:0006c600       ____mb_cur_max_func        1006d600 f   libucrtd:initctype.obj
 0001:0006c640       ____mb_cur_max_l_func      1006d640 f   libucrtd:initctype.obj
 0001:0006c670       ___acrt_locale_initialize_ctype 1006d670 f   libucrtd:initctype.obj
 0001:0006cdf0       ?__c32rtomb_utf8@__crt_mbstring@@YAIPAD_UPAU_Mbstatet@@@Z 1006ddf0 f   libucrtd:c32rtomb.obj
 0001:0006cfd0       ?reset_and_return@__crt_mbstring@@YAIIPAU_Mbstatet@@@Z 1006dfd0 f i libucrtd:c32rtomb.obj
 0001:0006d000       ?return_illegal_sequence@__crt_mbstring@@YAIPAU_Mbstatet@@@Z 1006e000 f i libucrtd:c32rtomb.obj
 0001:0006d030       _c32rtomb                  1006e030 f   libucrtd:c32rtomb.obj
 0001:0006d050       ___acrt_add_locale_ref     1006e050 f   libucrtd:locale_refcounting.obj
 0001:0006d160       ___acrt_free_locale        1006e160 f   libucrtd:locale_refcounting.obj
 0001:0006d430       ___acrt_locale_add_lc_time_reference 1006e430 f   libucrtd:locale_refcounting.obj
 0001:0006d470       ___acrt_locale_free_lc_time_if_unreferenced 1006e470 f   libucrtd:locale_refcounting.obj
 0001:0006d4c0       ___acrt_locale_release_lc_time_reference 1006e4c0 f   libucrtd:locale_refcounting.obj
 0001:0006d4f0       ___acrt_release_locale_ref 1006e4f0 f   libucrtd:locale_refcounting.obj
 0001:0006d600       ___acrt_update_thread_locale_data 1006e600 f   libucrtd:locale_refcounting.obj
 0001:0006d6e0       __updatetlocinfoEx_nolock  1006e6e0 f   libucrtd:locale_refcounting.obj
 0001:0006d860       ___acrt_fp_strflt_to_string 1006e860 f   libucrtd:_fptostr.obj
 0001:0006e220       ??0big_integer@__crt_strtox@@QAE@ABU01@@Z 1006f220 f i libucrtd:cfout.obj
 0001:0006e260       ??0big_integer@__crt_strtox@@QAE@XZ 1006f260 f i libucrtd:cfout.obj
 0001:0006e320       ??4big_integer@__crt_strtox@@QAEAAU01@ABU01@@Z 1006f320 f i libucrtd:cfout.obj
 0001:0006e360       ??8__crt_strtox@@YA_NABUbig_integer@0@0@Z 1006f360 f i libucrtd:cfout.obj
 0001:0006e3c0       ??9__crt_strtox@@YA_NABUbig_integer@0@0@Z 1006f3c0 f i libucrtd:cfout.obj
 0001:0006e400       ?add_carry@__crt_strtox@@YAIAAIII@Z 1006f400 f i libucrtd:cfout.obj
 0001:0006e440       ?add_multiply_carry@__crt_strtox@@YAIAAIIII@Z 1006f440 f i libucrtd:cfout.obj
 0001:0006e480       ?bit_scan_reverse@__crt_strtox@@YAII@Z 1006f480 f i libucrtd:cfout.obj
 0001:0006e4b0       ?count_sequential_high_zeroes@__crt_strtox@@YAII@Z 1006f4b0 f i libucrtd:cfout.obj
 0001:0006e4f0       ?divide@__crt_strtox@@YA_KAAUbig_integer@1@ABU21@@Z 1006f4f0 f i libucrtd:cfout.obj
 0001:0006ef70       ?is_zero@__crt_strtox@@YA_NABUbig_integer@1@@Z 1006ff70 f i libucrtd:cfout.obj
 0001:0006efa0       ?make_big_integer@__crt_strtox@@YA?AUbig_integer@1@_K@Z 1006ffa0 f i libucrtd:cfout.obj
 0001:0006f050       ?make_big_integer_power_of_two@__crt_strtox@@YA?AUbig_integer@1@I@Z 10070050 f i libucrtd:cfout.obj
 0001:0006f100       ?multiply@__crt_strtox@@YA_NAAUbig_integer@1@ABU21@@Z 10070100 f i libucrtd:cfout.obj
 0001:0006f480       ?multiply@__crt_strtox@@YA_NAAUbig_integer@1@I@Z 10070480 f i libucrtd:cfout.obj
 0001:0006f550       ?multiply_64_32@__crt_strtox@@YA_K_KI@Z 10070550 f i libucrtd:cfout.obj
 0001:0006f570       ?multiply_by_power_of_ten@__crt_strtox@@YA_NAAUbig_integer@1@I@Z 10070570 f i libucrtd:cfout.obj
 0001:0006f710       ?multiply_core@__crt_strtox@@YAIQAIII@Z 10070710 f i libucrtd:cfout.obj
 0001:0006f780       ?shift_left@__crt_strtox@@YA_NAAUbig_integer@1@I@Z 10070780 f i libucrtd:cfout.obj
 0001:0006fa60       ___acrt_fltout             10070a60 f   libucrtd:cfout.obj
 0001:0006fe60       ___fpe_flt_rounds          10070e60 f   libucrtd:fegetround.obj
 0001:0006fec0       _fegetround                10070ec0 f   libucrtd:fegetround.obj
 0001:000705c0       ?has_big_buffer@__crt_stdio_stream@@QBE_NXZ 100715c0 f i libucrtd:_flsbuf.obj
 0001:000706c0       ___acrt_stdio_flush_and_write_narrow_nolock 100716c0 f   libucrtd:_flsbuf.obj
 0001:000706f0       ___acrt_stdio_flush_and_write_wide_nolock 100716f0 f   libucrtd:_flsbuf.obj
 0001:00070720       ??0__crt_stdio_stream@@QAE@QAU__crt_stdio_stream_data@@@Z 10071720 f i libucrtd:closeall.obj
 0001:00070740       ?is_in_use@__crt_stdio_stream@@QBE_NXZ 10071740 f i libucrtd:closeall.obj
 0001:00070780       __fcloseall                10071780 f   libucrtd:closeall.obj
 0001:00070e60       ?__acrt_stdio_reset_buffer@@YAXV__crt_stdio_stream@@@Z 10071e60 f i libucrtd:fflush.obj
 0001:00070f60       ?has_all_of@__crt_stdio_stream@@QBE_NJ@Z 10071f60 f i libucrtd:fflush.obj
 0001:00071030       ___acrt_stdio_flush_nolock 10072030 f   libucrtd:fflush.obj
 0001:00071100       __fflush_nolock            10072100 f   libucrtd:fflush.obj
 0001:00071180       __flushall                 10072180 f   libucrtd:fflush.obj
 0001:000711a0       _fflush                    100721a0 f   libucrtd:fflush.obj
 0001:00071210       ?has_crt_buffer@__crt_stdio_stream@@QBE_NXZ 10072210 f i libucrtd:_freebuf.obj
 0001:00071230       ___acrt_stdio_free_buffer_nolock 10072230 f   libucrtd:_freebuf.obj
 0001:000712e0       __isatty                   100722e0 f   libucrtd:isatty.obj
 0001:000713b0       ??$?RUlconv@@@__crt_internal_free_policy@@QBEXQBUlconv@@@Z 100723b0 f i libucrtd:initmon.obj
 0001:000713d0       ??0?$__crt_unique_heap_ptr@Ulconv@@U__crt_internal_free_policy@@@@QAE@QAUlconv@@@Z 100723d0 f i libucrtd:initmon.obj
 0001:000713f0       ??1?$__crt_unique_heap_ptr@Ulconv@@U__crt_internal_free_policy@@@@QAE@XZ 100723f0 f i libucrtd:initmon.obj
 0001:00071410       ?detach@?$__crt_unique_heap_ptr@Ulconv@@U__crt_internal_free_policy@@@@QAEPAUlconv@@XZ 10072410 f i libucrtd:initmon.obj
 0001:00071440       ?release@?$__crt_unique_heap_ptr@Ulconv@@U__crt_internal_free_policy@@@@QAEXXZ 10072440 f i libucrtd:initmon.obj
 0001:00071470       ___acrt_locale_free_monetary 10072470 f   libucrtd:initmon.obj
 0001:00071620       ___acrt_locale_initialize_monetary 10072620 f   libucrtd:initmon.obj
 0001:00071cc0       ___acrt_locale_free_numeric 10072cc0 f   libucrtd:initnum.obj
 0001:00071d70       ___acrt_locale_initialize_numeric 10072d70 f   libucrtd:initnum.obj
 0001:000721c0       ??$?RU__crt_lc_time_data@@@__crt_internal_free_policy@@QBEXQBU__crt_lc_time_data@@@Z 100731c0 f i libucrtd:inittime.obj
 0001:000722a0       ??0?$__crt_unique_heap_ptr@U__crt_lc_time_data@@U__crt_internal_free_policy@@@@QAE@QAU__crt_lc_time_data@@@Z 100732a0 f i libucrtd:inittime.obj
 0001:000722c0       ??1?$__crt_unique_heap_ptr@U__crt_lc_time_data@@U__crt_internal_free_policy@@@@QAE@XZ 100732c0 f i libucrtd:inittime.obj
 0001:000722e0       ??B?$__crt_unique_heap_ptr@U__crt_lc_time_data@@U__crt_internal_free_policy@@@@QBE_NXZ 100732e0 f i libucrtd:inittime.obj
 0001:00072300       ?detach@?$__crt_unique_heap_ptr@U__crt_lc_time_data@@U__crt_internal_free_policy@@@@QAEPAU__crt_lc_time_data@@XZ 10073300 f i libucrtd:inittime.obj
 0001:00072370       ?get@?$__crt_unique_heap_ptr@U__crt_lc_time_data@@U__crt_internal_free_policy@@@@QBEPAU__crt_lc_time_data@@XZ 10073370 f i libucrtd:inittime.obj
 0001:00072840       ?is_valid@?$__crt_unique_heap_ptr@U__crt_lc_time_data@@U__crt_internal_free_policy@@@@QBE_NXZ 10073840 f i libucrtd:inittime.obj
 0001:00072870       ?release@?$__crt_unique_heap_ptr@U__crt_lc_time_data@@U__crt_internal_free_policy@@@@QAEXXZ 10073870 f i libucrtd:inittime.obj
 0001:000728a0       ___acrt_locale_free_time   100738a0 f   libucrtd:inittime.obj
 0001:000729f0       ___acrt_locale_initialize_time 100739f0 f   libucrtd:inittime.obj
 0001:00072a70       ___pctype_func             10073a70 f   libucrtd:ctype.obj
 0001:00072ab0       ___pwctype_func            10073ab0 f   libucrtd:ctype.obj
 0001:00072f90       _wcsncat_s                 10073f90 f   libucrtd:wcsncat_s.obj
 0001:00072fb0       _wcscmp                    10073fb0 f   libucrtd:wcscmp.obj
 0001:00073030       _wcscspn                   10074030 f   libucrtd:wcscspn.obj
 0001:000730a0       _wcspbrk                   100740a0 f   libucrtd:wcspbrk.obj
 0001:00073100       ??0?$__crt_scoped_stack_ptr@_W@@QAE@U?$__crt_scoped_stack_ptr_tag@_W@@@Z 10074100 f i libucrtd:getstringtypea.obj
 0001:00073120       ??0?$__crt_scoped_stack_ptr_tag@_W@@QAE@QA_W@Z 10074120 f i libucrtd:getstringtypea.obj
 0001:00073140       ??1?$__crt_scoped_stack_ptr@_W@@QAE@XZ 10074140 f i libucrtd:getstringtypea.obj
 0001:00073160       ?get@?$__crt_scoped_stack_ptr@_W@@QBEPA_WXZ 10074160 f i libucrtd:getstringtypea.obj
 0001:00073180       __MallocaComputeSize       10074180 f i libucrtd:getstringtypea.obj
 0001:000731b0       __MarkAllocaS              100741b0 f i libucrtd:getstringtypea.obj
 0001:000731e0       ___acrt_GetStringTypeA     100741e0 f   libucrtd:getstringtypea.obj
 0001:00073390       __freea_crt                10074390 f i libucrtd:getstringtypea.obj
 0001:00073f60       ___acrt_get_qualified_locale 10074f60 f   libucrtd:get_qualified_locale.obj
 0001:00074f70       ___acrt_get_qualified_locale_downlevel 10075f70 f   libucrtd:getqloc_downlevel.obj
 0001:00075210       _localeconv                10076210 f   libucrtd:localeconv.obj
 0001:00075250       ??$?RU__crt_lowio_handle_data@@@__crt_internal_free_policy@@QBEXQBU__crt_lowio_handle_data@@@Z 10076250 f i libucrtd:osfinfo.obj
 0001:00075270       ??0?$__crt_unique_heap_ptr@U__crt_lowio_handle_data@@U__crt_internal_free_policy@@@@QAE@QAU__crt_lowio_handle_data@@@Z 10076270 f i libucrtd:osfinfo.obj
 0001:00075290       ??1?$__crt_unique_heap_ptr@U__crt_lowio_handle_data@@U__crt_internal_free_policy@@@@QAE@XZ 10076290 f i libucrtd:osfinfo.obj
 0001:000752b0       ??B?$__crt_unique_heap_ptr@U__crt_lowio_handle_data@@U__crt_internal_free_policy@@@@QBE_NXZ 100762b0 f i libucrtd:osfinfo.obj
 0001:000752d0       ?detach@?$__crt_unique_heap_ptr@U__crt_lowio_handle_data@@U__crt_internal_free_policy@@@@QAEPAU__crt_lowio_handle_data@@XZ 100762d0 f i libucrtd:osfinfo.obj
 0001:00075300       ?get@?$__crt_unique_heap_ptr@U__crt_lowio_handle_data@@U__crt_internal_free_policy@@@@QBEPAU__crt_lowio_handle_data@@XZ 10076300 f i libucrtd:osfinfo.obj
 0001:00075320       ?is_valid@?$__crt_unique_heap_ptr@U__crt_lowio_handle_data@@U__crt_internal_free_policy@@@@QBE_NXZ 10076320 f i libucrtd:osfinfo.obj
 0001:00075350       ?release@?$__crt_unique_heap_ptr@U__crt_lowio_handle_data@@U__crt_internal_free_policy@@@@QAEXXZ 10076350 f i libucrtd:osfinfo.obj
 0001:00075380       ___acrt_lowio_create_handle_array 10076380 f   libucrtd:osfinfo.obj
 0001:000754e0       ___acrt_lowio_destroy_handle_array 100764e0 f   libucrtd:osfinfo.obj
 0001:00075540       ___acrt_lowio_ensure_fh_exists 10076540 f   libucrtd:osfinfo.obj
 0001:000756a0       ___acrt_lowio_lock_fh      100766a0 f   libucrtd:osfinfo.obj
 0001:000756d0       ___acrt_lowio_set_os_handle 100766d0 f   libucrtd:osfinfo.obj
 0001:000757a0       ___acrt_lowio_unlock_fh    100767a0 f   libucrtd:osfinfo.obj
 0001:000757d0       __alloc_osfhnd             100767d0 f   libucrtd:osfinfo.obj
 0001:000759b0       __free_osfhnd              100769b0 f   libucrtd:osfinfo.obj
 0001:00075aa0       __get_osfhandle            10076aa0 f   libucrtd:osfinfo.obj
 0001:00075c20       __open_osfhandle           10076c20 f   libucrtd:osfinfo.obj
 0001:00075e20       __malloc_base              10076e20 f   libucrtd:malloc_base.obj
 0001:00075fd0       _qsort                     10076fd0 f   libucrtd:qsort.obj
 0001:00076660       _strpbrk                   10077660 f   libucrtd:strpbrk.obj
 0001:000766a0       ??B?$__crt_scoped_stack_ptr@_W@@QBE_NXZ 100776a0 f i libucrtd:lcmapstringa.obj
 0001:00076a90       ___acrt_LCMapStringA       10077a90 f   libucrtd:lcmapstringa.obj
 0001:00076b20       __wcsnicoll                10077b20 f   libucrtd:wcsnicol.obj
 0001:00076ce0       __wcsnicoll_l              10077ce0 f   libucrtd:wcsnicol.obj
 0001:00076f30       __strnicoll                10077f30 f   libucrtd:strnicol.obj
 0001:00076f80       __strnicoll_l              10077f80 f   libucrtd:strnicol.obj
 0001:000773a0       ___acrt_SetEnvironmentVariableA 100783a0 f   libucrtd:setenvironmentvariablea.obj
 0001:00077560       ___acrt_DownlevelLCIDToLocaleName 10078560 f   libucrtd:lcidtoname_downlevel.obj
 0001:00077630       ___acrt_DownlevelLocaleNameToLCID 10078630 f   libucrtd:lcidtoname_downlevel.obj
 0001:00077670       __set_error_mode           10078670 f   libucrtd:set_error_mode.obj
 0001:00077730       ___acrt_GetStringTypeW     10078730 f   libucrtd:getstringtypew.obj
 0001:00077750       ?__wcsrtombs_utf8@__crt_mbstring@@YAIPADPAPB_WIPAU_Mbstatet@@@Z 10078750 f   libucrtd:wcrtomb.obj
 0001:00077f30       _wcrtomb                   10078f30 f   libucrtd:wcrtomb.obj
 0001:00077f80       _wcrtomb_s                 10078f80 f   libucrtd:wcrtomb.obj
 0001:000780a0       _wcsrtombs                 100790a0 f   libucrtd:wcrtomb.obj
 0001:000780c0       _wcsrtombs_s               100790c0 f   libucrtd:wcrtomb.obj
 0001:00078410       _wctob                     10079410 f   libucrtd:wcrtomb.obj
 0001:00078490       ?__mbrtoc32_utf8@__crt_mbstring@@YAIPA_UPBDIPAU_Mbstatet@@@Z 10079490 f   libucrtd:mbrtoc32.obj
 0001:00078760       _mbrtoc32                  10079760 f   libucrtd:mbrtoc32.obj
 0001:00078900       ___acrt_GetLocaleInfoA     10079900 f   libucrtd:getlocaleinfoa.obj
 0001:00078cc0       _log10                     10079cc0 f   libucrtd:log10.obj
 0001:00078d10       _ceil                      10079d10 f   libucrtd:ceil_pentium4.obj
 0001:00078d50       __ceil_pentium4            10079d50 f   libucrtd:ceil_pentium4.obj
 0001:00078e30       __controlfp_s              10079e30 f   libucrtd:contrlfp.obj
 0001:00078f20       _fegetenv                  10079f20 f   libucrtd:fegetenv.obj
 0001:00078f40       _fesetenv                  10079f40 f   libucrtd:fesetenv.obj
 0001:00078fb0       _feholdexcept              10079fb0 f   libucrtd:feholdexcept.obj
 0001:00079020       ??$__acrt_fenv_shift_bits@W4__acrt_fenv_abstract_control@@@@YA?AW4__acrt_fenv_abstract_control@@W40@0I@Z 1007a020 f i libucrtd:_fenvutils.obj
 0001:00079040       ??$__acrt_fenv_shift_bits@W4__acrt_fenv_abstract_status@@@@YA?AW4__acrt_fenv_abstract_status@@W40@0I@Z 1007a040 f i libucrtd:_fenvutils.obj
 0001:00079060       ??$__acrt_fenv_translate_bit@W4__acrt_fenv_abstract_control@@W4__acrt_fenv_machine_sse_control@@@@YA?AW4__acrt_fenv_abstract_control@@W4__acrt_fenv_machine_sse_control@@0W40@1@Z 1007a060 f i libucrtd:_fenvutils.obj
 0001:000790a0       ??$__acrt_fenv_translate_bit@W4__acrt_fenv_abstract_control@@W4__acrt_fenv_machine_x87_control@@@@YA?AW4__acrt_fenv_abstract_control@@W4__acrt_fenv_machine_x87_control@@0W40@1@Z 1007a0a0 f i libucrtd:_fenvutils.obj
 0001:000790e0       ??$__acrt_fenv_translate_bit@W4__acrt_fenv_abstract_status@@W4__acrt_fenv_machine_sse_status@@@@YA?AW4__acrt_fenv_abstract_status@@W4__acrt_fenv_machine_sse_status@@0W40@1@Z 1007a0e0 f i libucrtd:_fenvutils.obj
 0001:00079120       ??$__acrt_fenv_translate_bit@W4__acrt_fenv_abstract_status@@W4__acrt_fenv_machine_x87_status@@@@YA?AW4__acrt_fenv_abstract_status@@W4__acrt_fenv_machine_x87_status@@0W40@1@Z 1007a120 f i libucrtd:_fenvutils.obj
 0001:00079160       ??$__acrt_fenv_translate_bit@W4__acrt_fenv_machine_sse_control@@W4__acrt_fenv_abstract_control@@@@YA?AW4__acrt_fenv_machine_sse_control@@W4__acrt_fenv_abstract_control@@0W40@1@Z 1007a160 f i libucrtd:_fenvutils.obj
 0001:000791a0       ??$__acrt_fenv_translate_bit@W4__acrt_fenv_machine_sse_status@@W4__acrt_fenv_abstract_status@@@@YA?AW4__acrt_fenv_machine_sse_status@@W4__acrt_fenv_abstract_status@@0W40@1@Z 1007a1a0 f i libucrtd:_fenvutils.obj
 0001:000791e0       ??$__acrt_fenv_translate_bit@W4__acrt_fenv_machine_x87_control@@W4__acrt_fenv_abstract_control@@@@YA?AW4__acrt_fenv_machine_x87_control@@W4__acrt_fenv_abstract_control@@0W40@1@Z 1007a1e0 f i libucrtd:_fenvutils.obj
 0001:00079220       ??$__acrt_fenv_translate_bit@W4__acrt_fenv_machine_x87_status@@W4__acrt_fenv_abstract_status@@@@YA?AW4__acrt_fenv_machine_x87_status@@W4__acrt_fenv_abstract_status@@0W40@1@Z 1007a220 f i libucrtd:_fenvutils.obj
 0001:00079260       ??$__acrt_fenv_unshift_bits@W4__acrt_fenv_abstract_control@@@@YA?AW4__acrt_fenv_abstract_control@@W40@0I@Z 1007a260 f i libucrtd:_fenvutils.obj
 0001:00079280       ??$__acrt_fenv_unshift_bits@W4__acrt_fenv_abstract_status@@@@YA?AW4__acrt_fenv_abstract_status@@W40@0I@Z 1007a280 f i libucrtd:_fenvutils.obj
 0001:00079cb0       ??I@YA?AW4__acrt_fenv_abstract_control@@W40@0@Z 1007acb0 f i libucrtd:_fenvutils.obj
 0001:00079cc0       ??I@YA?AW4__acrt_fenv_abstract_status@@W40@0@Z 1007acc0 f i libucrtd:_fenvutils.obj
 0001:00079cd0       ??I@YA?AW4__acrt_fenv_machine_sse_control@@W40@0@Z 1007acd0 f i libucrtd:_fenvutils.obj
 0001:00079cf0       ??I@YA?AW4__acrt_fenv_machine_sse_status@@W40@0@Z 1007acf0 f i libucrtd:_fenvutils.obj
 0001:00079d00       ??I@YA?AW4__acrt_fenv_machine_x87_control@@W40@0@Z 1007ad00 f i libucrtd:_fenvutils.obj
 0001:00079d20       ??I@YA?AW4__acrt_fenv_machine_x87_status@@W40@0@Z 1007ad20 f i libucrtd:_fenvutils.obj
 0001:00079d30       ??U@YA?AW4__acrt_fenv_abstract_control@@W40@0@Z 1007ad30 f i libucrtd:_fenvutils.obj
 0001:00079d40       ??U@YA?AW4__acrt_fenv_abstract_status@@W40@0@Z 1007ad40 f i libucrtd:_fenvutils.obj
 0001:00079d50       ??U@YA?AW4__acrt_fenv_machine_sse_control@@W40@0@Z 1007ad50 f i libucrtd:_fenvutils.obj
 0001:00079d70       ??U@YA?AW4__acrt_fenv_machine_x87_control@@W40@0@Z 1007ad70 f i libucrtd:_fenvutils.obj
 0001:00079d90       ??_5@YAAAW4__acrt_fenv_abstract_control@@AAW40@W40@@Z 1007ad90 f i libucrtd:_fenvutils.obj
 0001:00079db0       ??_5@YAAAW4__acrt_fenv_abstract_status@@AAW40@W40@@Z 1007adb0 f i libucrtd:_fenvutils.obj
 0001:00079dd0       ??_5@YAAAW4__acrt_fenv_machine_sse_control@@AAW40@W40@@Z 1007add0 f i libucrtd:_fenvutils.obj
 0001:00079df0       ??_5@YAAAW4__acrt_fenv_machine_sse_status@@AAW40@W40@@Z 1007adf0 f i libucrtd:_fenvutils.obj
 0001:00079e10       ??_5@YAAAW4__acrt_fenv_machine_x87_control@@AAW40@W40@@Z 1007ae10 f i libucrtd:_fenvutils.obj
 0001:00079e30       ??_5@YAAAW4__acrt_fenv_machine_x87_status@@AAW40@W40@@Z 1007ae30 f i libucrtd:_fenvutils.obj
 0001:00079e50       ?__acrt_fenv_shift_abstract_sse_control@@YA?AW4__acrt_fenv_abstract_control@@W41@@Z 1007ae50 f i libucrtd:_fenvutils.obj
 0001:00079e90       ?__acrt_fenv_shift_abstract_sse_status@@YA?AW4__acrt_fenv_abstract_status@@W41@@Z 1007ae90 f i libucrtd:_fenvutils.obj
 0001:00079eb0       ?__acrt_fenv_shift_abstract_x87_control@@YA?AW4__acrt_fenv_abstract_control@@W41@@Z 1007aeb0 f i libucrtd:_fenvutils.obj
 0001:00079ef0       ?__acrt_fenv_shift_abstract_x87_status@@YA?AW4__acrt_fenv_abstract_status@@W41@@Z 1007aef0 f i libucrtd:_fenvutils.obj
 0001:00079f10       ?__acrt_fenv_unshift_abstract_sse_control@@YA?AW4__acrt_fenv_abstract_control@@W41@@Z 1007af10 f i libucrtd:_fenvutils.obj
 0001:00079f50       ?__acrt_fenv_unshift_abstract_sse_status@@YA?AW4__acrt_fenv_abstract_status@@W41@@Z 1007af50 f i libucrtd:_fenvutils.obj
 0001:00079f70       ?__acrt_fenv_unshift_abstract_x87_control@@YA?AW4__acrt_fenv_abstract_control@@W41@@Z 1007af70 f i libucrtd:_fenvutils.obj
 0001:00079fb0       ?__acrt_fenv_unshift_abstract_x87_status@@YA?AW4__acrt_fenv_abstract_status@@W41@@Z 1007afb0 f i libucrtd:_fenvutils.obj
 0001:0007a4e0       ___acrt_fenv_expand_round_control 1007b4e0 f   libucrtd:_fenvutils.obj
 0001:0007a520       ___acrt_fenv_get_common_round_control 1007b520 f   libucrtd:_fenvutils.obj
 0001:0007a580       ___acrt_fenv_get_control   1007b580 f   libucrtd:_fenvutils.obj
 0001:0007a600       ___acrt_fenv_get_fp_status_word_from_exception_mask 1007b600 f   libucrtd:_fenvutils.obj
 0001:0007a640       ___acrt_fenv_get_status    1007b640 f   libucrtd:_fenvutils.obj
 0001:0007a6b0       ___acrt_fenv_set_control   1007b6b0 f   libucrtd:_fenvutils.obj
 0001:0007a6f0       ___acrt_fenv_set_status    1007b6f0 f   libucrtd:_fenvutils.obj
 0001:0007bc90       __utf8_no_of_trailbytes    1007cc90 f i libucrtd:write.obj
 0001:0007bcb0       __write                    1007ccb0 f   libucrtd:write.obj
 0001:0007bf00       __write_nolock             1007cf00 f   libucrtd:write.obj
 0001:0007cac0       __lseek                    1007dac0 f   libucrtd:lseek.obj
 0001:0007cae0       __lseek_nolock             1007dae0 f   libucrtd:lseek.obj
 0001:0007cb00       __lseeki64                 1007db00 f   libucrtd:lseek.obj
 0001:0007cb20       __lseeki64_nolock          1007db20 f   libucrtd:lseek.obj
 0001:0007cb40       ___acrt_stdio_allocate_buffer_nolock 1007db40 f   libucrtd:_getbuf.obj
 0001:0007cc60       __fclose_nolock            1007dc60 f   libucrtd:fclose.obj
 0001:0007cda0       _fclose                    1007dda0 f   libucrtd:fclose.obj
 0001:0007d100       __commit                   1007e100 f   libucrtd:commit.obj
 0001:0007d260       ___ascii_wcsicmp           1007e260 f   libucrtd:wcsicmp.obj
 0001:0007d2d0       __towlower_fast_internal   1007e2d0 f i libucrtd:wcsicmp.obj
 0001:0007d310       __towlower_internal        1007e310 f i libucrtd:wcsicmp.obj
 0001:0007d350       __wcsicmp                  1007e350 f   libucrtd:wcsicmp.obj
 0001:0007d490       __wcsicmp_l                1007e490 f   libucrtd:wcsicmp.obj
 0001:0007d670       ___ascii_wcsnicmp          1007e670 f   libucrtd:wcsnicmp.obj
 0001:0007d700       __wcsnicmp                 1007e700 f   libucrtd:wcsnicmp.obj
 0001:0007d840       __wcsnicmp_l               1007e840 f   libucrtd:wcsnicmp.obj
 0001:0007da40       ___strncnt                 1007ea40 f   libucrtd:strncnt.obj
 0001:0007da90       ___acrt_CompareStringW     1007ea90 f   libucrtd:comparestringw.obj
 0001:0007db40       __strnicmp                 1007eb40 f   libucrtd:strnicmp.obj
 0001:0007dd00       __strnicmp_l               1007ed00 f   libucrtd:strnicmp.obj
 0001:0007e3d0       ___acrt_CompareStringA     1007f3d0 f   libucrtd:comparestringa.obj
 0001:0007e430       ?__c16rtomb_utf8@__crt_mbstring@@YAIPAD_SPAU_Mbstatet@@@Z 1007f430 f   libucrtd:c16rtomb.obj
 0001:0007e630       _c16rtomb                  1007f630 f   libucrtd:c16rtomb.obj
 0001:0007e650       ___acrt_initialize_sse2    1007f650 f   libucrtd:mathfcns.obj
 0001:0007e670       __set_SSE2_enable          1007f670 f   libucrtd:mathfcns.obj
 0001:0007e6c0       __CIlog10                  1007f6c0 f   libucrtd:log10_impl.obj
 0001:0007e6fb       __CIlog10_default          1007f6fb f   libucrtd:log10_impl.obj
 0001:0007e70f       __log10_default            1007f70f     libucrtd:log10_impl.obj
 0001:0007e7d0       __CIlog10_pentium4         1007f7d0 f   libucrtd:log10_pentium4.obj
 0001:0007e7e8       __log10_pentium4           1007f7e8     libucrtd:log10_pentium4.obj
 0001:0007ea60       ___libm_error_support      1007fa60 f   libucrtd:libm_error.obj
 0001:0007f020       ___libm_setusermatherr     10080020 f   libucrtd:libm_error.obj
 0001:0007f060       __ceil_default             10080060 f   libucrtd:ceil.obj
 0001:0007f390       ___control87_2             10080390 f   libucrtd:ieee87.obj
 0001:0007f4c0       ___fpreset_sse2            100804c0 f   libucrtd:ieee87.obj
 0001:0007f830       __clearfp                  10080830 f   libucrtd:ieee87.obj
 0001:0007f880       __control87                10080880 f   libucrtd:ieee87.obj
 0001:0007f930       __controlfp                10080930 f   libucrtd:ieee87.obj
 0001:0007f950       __fpreset                  10080950 f   libucrtd:ieee87.obj
 0001:0007fb10       __set_controlfp            10080b10 f   libucrtd:ieee87.obj
 0001:0007fba0       __statusfp                 10080ba0 f   libucrtd:ieee87.obj
 0001:0007fbf0       __statusfp2                10080bf0 f   libucrtd:ieee87.obj
 0001:0007fd07       __putwch                   10080d07 f   libucrtd:putwch.obj
 0001:0007fd34       __putwch_nolock            10080d34 f   libucrtd:putwch.obj
 0001:00080770       __read                     10081770 f   libucrtd:read.obj
 0001:00080a50       __read_nolock              10081a50 f   libucrtd:read.obj
 0001:000816a0       __close                    100826a0 f   libucrtd:close.obj
 0001:00081820       __close_nolock             10082820 f   libucrtd:close.obj
 0001:00081880       ??$?RU__crt_stdio_stream_data@@@__crt_internal_free_policy@@QBEXQBU__crt_stdio_stream_data@@@Z 10082880 f i libucrtd:stream.obj
 0001:000818a0       ??0?$__crt_unique_heap_ptr@U__crt_stdio_stream_data@@U__crt_internal_free_policy@@@@QAE@QAU__crt_stdio_stream_data@@@Z 100828a0 f i libucrtd:stream.obj
 0001:000818c0       ??0__crt_stdio_stream@@QAE@XZ 100828c0 f i libucrtd:stream.obj
 0001:000818e0       ??1?$__crt_unique_heap_ptr@U__crt_stdio_stream_data@@U__crt_internal_free_policy@@@@QAE@XZ 100828e0 f i libucrtd:stream.obj
 0001:00081900       ?__acrt_stdio_allocate_stream@@YA?AV__crt_stdio_stream@@XZ 10082900 f   libucrtd:stream.obj
 0001:000819f0       ?__acrt_stdio_free_stream@@YAXV__crt_stdio_stream@@@Z 100829f0 f   libucrtd:stream.obj
 0001:00081a70       ?deallocate@__crt_stdio_stream@@QAEXXZ 10082a70 f i libucrtd:stream.obj
 0001:00081a90       ?detach@?$__crt_unique_heap_ptr@U__crt_stdio_stream_data@@U__crt_internal_free_policy@@@@QAEPAU__crt_stdio_stream_data@@XZ 10082a90 f i libucrtd:stream.obj
 0001:00081c00       ?lock@__crt_stdio_stream@@QBEXXZ 10082c00 f i libucrtd:stream.obj
 0001:00081c20       ?release@?$__crt_unique_heap_ptr@U__crt_stdio_stream_data@@U__crt_internal_free_policy@@@@QAEXXZ 10082c20 f i libucrtd:stream.obj
 0001:00081c50       ?try_allocate@__crt_stdio_stream@@QAE_NXZ 10082c50 f i libucrtd:stream.obj
 0001:00081ca0       ?unlock@__crt_stdio_stream@@QBEXXZ 10082ca0 f i libucrtd:stream.obj
 0001:00081cc0       __towlower_l               10082cc0 f   libucrtd:towlower.obj
 0001:00081dc0       _towlower                  10082dc0 f   libucrtd:towlower.obj
 0001:00081de0       ___ascii_strnicmp          10082de0 f   libucrtd:_strnicm.obj
 0001:00081e70       __fFEXP                    10082e70 f   libucrtd:87tran.obj
 0001:00081ec7       __rtinfpopse               10082ec7     libucrtd:87tran.obj
 0001:00081ec9       __rtinfnpopse              10082ec9     libucrtd:87tran.obj
 0001:00081ed9       __fFLN                     10082ed9     libucrtd:87tran.obj
 0001:00081f8e       __rtinfpop                 10082f8e     libucrtd:87tran.obj
 0001:00081f90       __rtinfnpop                10082f90     libucrtd:87tran.obj
 0001:00081fa0       __rtforexpinf              10082fa0 f   libucrtd:87tran.obj
 0001:00081fad       __ffexpm1                  10082fad     libucrtd:87tran.obj
 0001:00082060       __trandisp1                10083060 f   libucrtd:87disp.obj
 0001:000820d5       __trandisp2                100830d5 f   libucrtd:87disp.obj
 0001:0008216f       __rttospopde               1008316f     libucrtd:87disp.obj
 0001:00082174       __rttospop                 10083174     libucrtd:87disp.obj
 0001:00082180       __rtnospop                 10083180 f   libucrtd:87disp.obj
 0001:00082190       __rttosnpop                10083190 f   libucrtd:87disp.obj
 0001:00082191       __rtnospopde               10083191     libucrtd:87disp.obj
 0001:00082198       __rtzeropop                10083198     libucrtd:87disp.obj
 0001:0008219a       __rtzeronpop               1008319a     libucrtd:87disp.obj
 0001:000821a0       __rtzerospop               100831a0 f   libucrtd:87disp.obj
 0001:000821ad       __rtonepop                 100831ad     libucrtd:87disp.obj
 0001:000821b0       __rtonenpop                100831b0 f   libucrtd:87disp.obj
 0001:000821c0       __tosnan1                  100831c0 f   libucrtd:87disp.obj
 0001:000821f0       __nosnan2                  100831f0 f   libucrtd:87disp.obj
 0001:00082200       __tosnan2                  10083200 f   libucrtd:87disp.obj
 0001:00082230       __nan2                     10083230 f   libucrtd:87disp.obj
 0001:00082270       __rtindfpop                10083270 f   libucrtd:87disp.obj
 0001:00082272       __rtindfnpop               10083272     libucrtd:87disp.obj
 0001:00082283       __rttosnpopde              10083283     libucrtd:87disp.obj
 0001:00082290       __rtatan2inf               10083290 f   libucrtd:87disp.obj
 0001:000822ad       __rtchsifneg               100832ad     libucrtd:87disp.obj
 0001:000822c0       ___setfflag                100832c0 f   libucrtd:fp_flags.obj
 0001:000822e0       __twoToTOS                 100832e0 f   libucrtd:common.obj
 0001:000822f5       __load_CW                  100832f5 f   libucrtd:common.obj
 0001:0008230c       __convertTOStoQNaN         1008330c f   libucrtd:common.obj
 0001:00082325       __fload_withFB             10083325 f   libucrtd:common.obj
 0001:00082368       __checkTOS_withFB          10083368 f   libucrtd:common.obj
 0001:0008237e       __fast_exit                1008337e f   libucrtd:common.obj
 0001:0008238b       __math_exit                1008338b f   libucrtd:common.obj
 0001:000823b5       __check_overflow_exit      100833b5 f   libucrtd:common.obj
 0001:000823c9       __check_range_exit         100833c9 f   libucrtd:common.obj
 0001:00082470       __startTwoArgErrorHandling 10083470 f   libucrtd:genexcep.obj
 0001:00082487       __startOneArgErrorHandling 10083487 f   libucrtd:genexcep.obj
 0001:000824d0       __frnd                     100834d0 f   libucrtd:frnd.obj
 0001:000824f0       __errcode                  100834f0 f   libucrtd:fpexcept.obj
 0001:00082560       __except1                  10083560 f   libucrtd:fpexcept.obj
 0001:00082660       __except2                  10083660 f   libucrtd:fpexcept.obj
 0001:000827c0       __handle_exc               100837c0 f   libucrtd:fpexcept.obj
 0001:00082ae0       __handle_qnan2             10083ae0 f   libucrtd:fpexcept.obj
 0001:00082b00       __raise_exc                10083b00 f   libucrtd:fpexcept.obj
 0001:00082b30       __raise_exc_ex             10083b30 f   libucrtd:fpexcept.obj
 0001:000830b0       __raise_excf               100840b0 f   libucrtd:fpexcept.obj
 0001:000830e0       __set_errno_from_matherr   100840e0 f   libucrtd:fpexcept.obj
 0001:00083120       __umatherr                 10084120 f   libucrtd:fpexcept.obj
 0001:000831c0       __add_exp                  100841c0 f   libucrtd:util.obj
 0001:00083200       __decomp                   10084200 f   libucrtd:util.obj
 0001:00083330       __get_exp                  10084330 f   libucrtd:util.obj
 0001:00083360       __set_bexp                 10084360 f   libucrtd:util.obj
 0001:00083390       __set_exp                  10084390 f   libucrtd:util.obj
 0001:000833d0       __sptype                   100843d0 f   libucrtd:util.obj
 0001:00083450       ___clrfp_sse2              10084450 f   libucrtd:fpctrl.obj
 0001:00083490       ___ctrlfp_sse2             10084490 f   libucrtd:fpctrl.obj
 0001:000834f0       ___fclrf_sse2              100844f0 f   libucrtd:fpctrl.obj
 0001:00083510       ___get_fpsr_sse2           10084510 f   libucrtd:fpctrl.obj
 0001:00083540       ___set_fpsr_sse2           10084540 f   libucrtd:fpctrl.obj
 0001:00083620       ___set_statfp_sse2         10084620 f   libucrtd:fpctrl.obj
 0001:00083650       ___statfp_sse2             10084650 f   libucrtd:fpctrl.obj
 0001:00083680       __clrfp                    10084680 f   libucrtd:fpctrl.obj
 0001:000836a0       __ctrlfp                   100846a0 f   libucrtd:fpctrl.obj
 0001:000836d0       __set_statfp               100846d0 f   libucrtd:fpctrl.obj
 0001:00083740       __statfp                   10084740 f   libucrtd:fpctrl.obj
 0001:00083802       ___dcrt_lowio_ensure_console_output_initialized 10084802 f   libucrtd:initcon.obj
 0001:00083821       ___dcrt_terminate_console_output 10084821 f   libucrtd:initcon.obj
 0001:00083838       ___dcrt_write_console      10084838 f   libucrtd:initcon.obj
 0001:00083890       ___acrt_LCMapStringW       10084890 f   libucrtd:lcmapstringw.obj
 0001:000838f0       __d_inttype                100848f0 f   libucrtd:powhlp.obj
 0001:00083980       __powhlp                   10084980 f   libucrtd:powhlp.obj
 0001:00083b20       __87except                 10084b20 f   libucrtd:87except.obj
 0001:00083d10       __chgsign                  10084d10 f   libucrtd:ieeemisc.obj
 0001:00083d50       __chgsignf                 10084d50 f   libucrtd:ieeemisc.obj
 0001:00083d90       __copysign                 10084d90 f   libucrtd:ieeemisc.obj
 0001:00083dd0       __copysignf                10084dd0 f   libucrtd:ieeemisc.obj
 0001:00083e20       __finite                   10084e20 f   libucrtd:ieeemisc.obj
 0001:00083e40       __fpclass                  10084e40 f   libucrtd:ieeemisc.obj
 0001:00083f40       __isnan                    10084f40 f   libucrtd:ieeemisc.obj
 0001:00083f90       __logb                     10084f90 f   libucrtd:ieeemisc.obj
 0001:000840b0       __nextafter                100850b0 f   libucrtd:ieeemisc.obj
 0001:000840e0       __scalb                    100850e0 f   libucrtd:ieeemisc.obj
 0001:00084100       _ldexp                     10085100 f   libucrtd:ldexp.obj
 0001:00084400       _nextafter                 10085400 f   libucrtd:nextafter.obj
 0001:00084430       _nexttoward                10085430 f   libucrtd:nexttoward.obj
 0001:00084860       __d_int                    10085860 f   libucrtd:_test.obj
 0001:00084b10       __dtest                    10085b10 f   libucrtd:_test.obj
 0001:00084c30       __fd_int                   10085c30 f   libucrtd:_test.obj
 0001:00084e10       __fdtest                   10085e10 f   libucrtd:_test.obj
 0001:00084ee0       __fperrraise               10085ee0 f   libucrtd:_test.obj
 0001:00084f10       __ld_int                   10085f10 f   libucrtd:_test.obj
 0001:00084f30       __ldtest                   10085f30 f   libucrtd:_test.obj
 0001:00084f50       ??_4@YAAAW4__acrt_fenv_abstract_status@@AAW40@W40@@Z 10085f50 f i libucrtd:fegetexceptflag.obj
 0001:00084f70       _fegetexceptflag           10085f70 f   libucrtd:fegetexceptflag.obj
 0001:00084fc0       ??S@YA?AW4__acrt_fenv_abstract_status@@W40@@Z 10085fc0 f i libucrtd:fesetexceptflag.obj
 0001:00084fd0       _fesetexceptflag           10085fd0 f   libucrtd:fesetexceptflag.obj
 0001:00085090       _fetestexcept              10086090 f   libucrtd:fetestexcept.obj
 0001:000850b7       _IsDebuggerPresent@0       100860b7 f   kernel32:KERNEL32.dll
 0001:000850bd       _OutputDebugStringW@4      100860bd f   kernel32:KERNEL32.dll
 0001:000850c3       _UnhandledExceptionFilter@4 100860c3 f   kernel32:KERNEL32.dll
 0001:000850c9       _SetUnhandledExceptionFilter@4 100860c9 f   kernel32:KERNEL32.dll
 0001:000850cf       _GetCurrentProcess@0       100860cf f   kernel32:KERNEL32.dll
 0001:000850d5       _TerminateProcess@8        100860d5 f   kernel32:KERNEL32.dll
 0001:000850db       _IsProcessorFeaturePresent@4 100860db f   kernel32:KERNEL32.dll
 0001:000850e1       _GetStartupInfoW@4         100860e1 f   kernel32:KERNEL32.dll
 0001:000850e7       _WideCharToMultiByte@32    100860e7 f   kernel32:KERNEL32.dll
 0001:000850ed       _QueryPerformanceCounter@4 100860ed f   kernel32:KERNEL32.dll
 0001:000850f3       _GetCurrentProcessId@0     100860f3 f   kernel32:KERNEL32.dll
 0001:000850f9       _GetCurrentThreadId@0      100860f9 f   kernel32:KERNEL32.dll
 0001:000850ff       _GetSystemTimeAsFileTime@4 100860ff f   kernel32:KERNEL32.dll
 0001:00085105       _InitializeSListHead@4     10086105 f   kernel32:KERNEL32.dll
 0001:0008510b       _HeapAlloc@12              1008610b f   kernel32:KERNEL32.dll
 0001:00085111       _HeapFree@12               10086111 f   kernel32:KERNEL32.dll
 0001:00085117       _GetProcessHeap@0          10086117 f   kernel32:KERNEL32.dll
 0001:0008511d       _VirtualQuery@12           1008611d f   kernel32:KERNEL32.dll
 0001:00085123       _RtlUnwind@16              10086123 f   kernel32:KERNEL32.dll
 0001:00085129       _InterlockedPushEntrySList@8 10086129 f   kernel32:KERNEL32.dll
 0001:0008512f       _InterlockedFlushSList@4   1008612f f   kernel32:KERNEL32.dll
 0001:00085135       _InitializeCriticalSectionAndSpinCount@8 10086135 f   kernel32:KERNEL32.dll
 0001:0008513b       _TlsAlloc@0                1008613b f   kernel32:KERNEL32.dll
 0001:00085141       _TlsGetValue@4             10086141 f   kernel32:KERNEL32.dll
 0001:00085147       _TlsSetValue@8             10086147 f   kernel32:KERNEL32.dll
 0001:0008514d       _TlsFree@4                 1008614d f   kernel32:KERNEL32.dll
 0001:00085153       _GetModuleHandleExW@12     10086153 f   kernel32:KERNEL32.dll
 0001:00085159       _ExitProcess@4             10086159 f   kernel32:KERNEL32.dll
 0001:0008515f       _HeapValidate@12           1008615f f   kernel32:KERNEL32.dll
 0001:00085165       _GetSystemInfo@4           10086165 f   kernel32:KERNEL32.dll
 0001:0008516b       _GetStdHandle@4            1008616b f   kernel32:KERNEL32.dll
 0001:00085171       _GetFileType@4             10086171 f   kernel32:KERNEL32.dll
 0001:00085177       _WriteFile@20              10086177 f   kernel32:KERNEL32.dll
 0001:0008517d       _WriteConsoleW@20          1008617d f   kernel32:KERNEL32.dll
 0001:00085183       _SetConsoleCtrlHandler@8   10086183 f   kernel32:KERNEL32.dll
 0001:00085189       _GetCurrentThread@0        10086189 f   kernel32:KERNEL32.dll
 0001:0008518f       _HeapSize@12               1008618f f   kernel32:KERNEL32.dll
 0001:00085195       _HeapReAlloc@16            10086195 f   kernel32:KERNEL32.dll
 0001:0008519b       _FindClose@4               1008619b f   kernel32:KERNEL32.dll
 0001:000851a1       _FindFirstFileExW@24       100861a1 f   kernel32:KERNEL32.dll
 0001:000851a7       _FindNextFileW@8           100861a7 f   kernel32:KERNEL32.dll
 0001:000851ad       _IsValidCodePage@4         100861ad f   kernel32:KERNEL32.dll
 0001:000851b3       _GetACP@0                  100861b3 f   kernel32:KERNEL32.dll
 0001:000851b9       _GetOEMCP@0                100861b9 f   kernel32:KERNEL32.dll
 0001:000851bf       _GetCPInfo@8               100861bf f   kernel32:KERNEL32.dll
 0001:000851c5       _GetCommandLineA@0         100861c5 f   kernel32:KERNEL32.dll
 0001:000851cb       _GetCommandLineW@0         100861cb f   kernel32:KERNEL32.dll
 0001:000851d1       _GetEnvironmentStringsW@0  100861d1 f   kernel32:KERNEL32.dll
 0001:000851d7       _FreeEnvironmentStringsW@4 100861d7 f   kernel32:KERNEL32.dll
 0001:000851dd       _SetEnvironmentVariableW@8 100861dd f   kernel32:KERNEL32.dll
 0001:000851e3       _GetDateFormatW@24         100861e3 f   kernel32:KERNEL32.dll
 0001:000851e9       _GetTimeFormatW@24         100861e9 f   kernel32:KERNEL32.dll
 0001:000851ef       _CompareStringW@24         100861ef f   kernel32:KERNEL32.dll
 0001:000851f5       _LCMapStringW@24           100861f5 f   kernel32:KERNEL32.dll
 0001:000851fb       _GetLocaleInfoW@16         100861fb f   kernel32:KERNEL32.dll
 0001:00085201       _IsValidLocale@8           10086201 f   kernel32:KERNEL32.dll
 0001:00085207       _GetUserDefaultLCID@0      10086207 f   kernel32:KERNEL32.dll
 0001:0008520d       _EnumSystemLocalesW@8      1008620d f   kernel32:KERNEL32.dll
 0001:00085213       _HeapQueryInformation@20   10086213 f   kernel32:KERNEL32.dll
 0001:00085219       _GetFileSizeEx@8           10086219 f   kernel32:KERNEL32.dll
 0001:0008521f       _SetFilePointerEx@20       1008621f f   kernel32:KERNEL32.dll
 0001:00085225       _GetStringTypeW@16         10086225 f   kernel32:KERNEL32.dll
 0001:0008522b       _SetStdHandle@8            1008622b f   kernel32:KERNEL32.dll
 0001:00085231       _GetConsoleOutputCP@0      10086231 f   kernel32:KERNEL32.dll
 0001:00085237       _GetConsoleMode@8          10086237 f   kernel32:KERNEL32.dll
 0001:0008523d       _FlushFileBuffers@4        1008623d f   kernel32:KERNEL32.dll
 0001:00085243       _ReadFile@20               10086243 f   kernel32:KERNEL32.dll
 0001:00085249       _ReadConsoleW@20           10086249 f   kernel32:KERNEL32.dll
 0001:0008524f       _CloseHandle@4             1008624f f   kernel32:KERNEL32.dll
 0001:00085255       _CreateFileW@28            10086255 f   kernel32:KERNEL32.dll
 0001:00085260       __FindPESection            10086260 f   LIBCMTD:pesect.obj
 0001:000852e0       __IsNonwritableInCurrentImage 100862e0 f   LIBCMTD:pesect.obj
 0001:00085410       __ValidateImageBase        10086410 f   LIBCMTD:pesect.obj
 0001:00085470       __allshl                   10086470 f   LIBCMTD:llshl.obj
 0001:00085490       __aulldiv                  10086490 f   LIBCMTD:ulldiv.obj
 0001:00085500       __aullrem                  10086500 f   LIBCMTD:ullrem.obj
 0001:00085580       __allmul                   10086580 f   LIBCMTD:llmul.obj
 0001:000855c0       __alldiv                   100865c0 f   LIBCMTD:lldiv.obj
 0001:00085670       __allrem                   10086670 f   LIBCMTD:llrem.obj
 0001:00085730       __aullshr                  10086730 f   LIBCMTD:ullshr.obj
 0001:00085750       __alloca_probe_16          10086750 f   LIBCMTD:alloca16.obj
 0001:00085766       __alloca_probe_8           10086766     LIBCMTD:alloca16.obj
 0001:00085780       __ftoi2                    10086780 f   LIBCMTD:ftol2.obj
 0001:00085780       __ftol2_sse_excpt          10086780     LIBCMTD:ftol2.obj
 0001:00085780       __ftol2_sse                10086780     LIBCMTD:ftol2.obj
 0001:00085800       __ftoui2                   10086800 f   LIBCMTD:ftol2.obj
 0001:000858b0       __ftol2                    100868b0 f   LIBCMTD:ftol2.obj
 0001:00085960       __ftoul2                   10086960 f   LIBCMTD:ftol2.obj
 0001:00085a20       __initialize_default_precision 10086a20 f   LIBCMTD:default_precision.obj
 0001:00085a50       __SEH_prolog4              10086a50 f   LIBCMTD:sehprolg4.obj
 0001:00085a94       __SEH_epilog4              10086a94 f   LIBCMTD:sehprolg4.obj
 0001:00085ab0       _strrchr                   10086ab0 f   libvcruntimed:strrchr.obj
 0001:00085bf0       _strchr                    10086bf0 f   libvcruntimed:strchr.obj
 0001:00085c5e       ___from_strstr_to_strchr   10086c5e     libvcruntimed:strchr.obj
 0001:00085d20       _wcschr                    10086d20 f   libvcruntimed:wcschr.obj
 0001:00085e90       __filter_x86_sse2_floating_point_exception 10086e90 f   LIBCMTD:x86_exception_filter.obj
 0001:00085e90       __filter_x86_sse2_floating_point_exception_default 10086e90 f   LIBCMTD:x86_exception_filter.obj
 0002:00000000       __imp__RegQueryInfoKeyW@48 10088000     advapi32:ADVAPI32.dll
 0002:00000004       __imp__RegOpenKeyExW@20    10088004     advapi32:ADVAPI32.dll
 0002:00000008       __imp__RegEnumKeyExW@32    10088008     advapi32:ADVAPI32.dll
 0002:0000000c       __imp__RegDeleteValueW@8   1008800c     advapi32:ADVAPI32.dll
 0002:00000010       __imp__RegDeleteKeyW@8     10088010     advapi32:ADVAPI32.dll
 0002:00000014       __imp__RegCreateKeyExW@36  10088014     advapi32:ADVAPI32.dll
 0002:00000018       __imp__RegCloseKey@4       10088018     advapi32:ADVAPI32.dll
 0002:0000001c       __imp__RegSetValueExW@24   1008801c     advapi32:ADVAPI32.dll
 0002:00000020       \177ADVAPI32_NULL_THUNK_DATA 10088020     advapi32:ADVAPI32.dll
 0002:00000024       __imp__DisableThreadLibraryCalls@4 10088024     kernel32:KERNEL32.dll
 0002:00000028       __imp__FreeLibrary@4       10088028     kernel32:KERNEL32.dll
 0002:0000002c       __imp__GetModuleFileNameW@12 1008802c     kernel32:KERNEL32.dll
 0002:00000030       __imp__GetModuleHandleW@4  10088030     kernel32:KERNEL32.dll
 0002:00000034       __imp__GetProcAddress@8    10088034     kernel32:KERNEL32.dll
 0002:00000038       __imp__LoadLibraryExW@12   10088038     kernel32:KERNEL32.dll
 0002:0000003c       __imp__LoadResource@8      1008803c     kernel32:KERNEL32.dll
 0002:00000040       __imp__LeaveCriticalSection@4 10088040     kernel32:KERNEL32.dll
 0002:00000044       __imp__FindResourceW@12    10088044     kernel32:KERNEL32.dll
 0002:00000048       __imp__lstrcmpiW@8         10088048     kernel32:KERNEL32.dll
 0002:0000004c       __imp__MultiByteToWideChar@24 1008804c     kernel32:KERNEL32.dll
 0002:00000050       __imp__CloseHandle@4       10088050     kernel32:KERNEL32.dll
 0002:00000054       __imp__ReadConsoleW@20     10088054     kernel32:KERNEL32.dll
 0002:00000058       __imp__ReadFile@20         10088058     kernel32:KERNEL32.dll
 0002:0000005c       __imp__FlushFileBuffers@4  1008805c     kernel32:KERNEL32.dll
 0002:00000060       __imp__EnterCriticalSection@4 10088060     kernel32:KERNEL32.dll
 0002:00000064       __imp__EncodePointer@4     10088064     kernel32:KERNEL32.dll
 0002:00000068       __imp__DeleteCriticalSection@4 10088068     kernel32:KERNEL32.dll
 0002:0000006c       __imp__InitializeCriticalSectionEx@12 1008806c     kernel32:KERNEL32.dll
 0002:00000070       __imp__SetLastError@4      10088070     kernel32:KERNEL32.dll
 0002:00000074       __imp__GetLastError@0      10088074     kernel32:KERNEL32.dll
 0002:00000078       __imp__RaiseException@16   10088078     kernel32:KERNEL32.dll
 0002:0000007c       __imp__SizeofResource@8    1008807c     kernel32:KERNEL32.dll
 0002:00000080       __imp__DecodePointer@4     10088080     kernel32:KERNEL32.dll
 0002:00000084       __imp__GetConsoleMode@8    10088084     kernel32:KERNEL32.dll
 0002:00000088       __imp__GetConsoleOutputCP@0 10088088     kernel32:KERNEL32.dll
 0002:0000008c       __imp__SetStdHandle@8      1008808c     kernel32:KERNEL32.dll
 0002:00000090       __imp__GetStringTypeW@16   10088090     kernel32:KERNEL32.dll
 0002:00000094       __imp__SetFilePointerEx@20 10088094     kernel32:KERNEL32.dll
 0002:00000098       __imp__GetFileSizeEx@8     10088098     kernel32:KERNEL32.dll
 0002:0000009c       __imp__HeapQueryInformation@20 1008809c     kernel32:KERNEL32.dll
 0002:000000a0       __imp__EnumSystemLocalesW@8 100880a0     kernel32:KERNEL32.dll
 0002:000000a4       __imp__GetUserDefaultLCID@0 100880a4     kernel32:KERNEL32.dll
 0002:000000a8       __imp__IsValidLocale@8     100880a8     kernel32:KERNEL32.dll
 0002:000000ac       __imp__GetLocaleInfoW@16   100880ac     kernel32:KERNEL32.dll
 0002:000000b0       __imp__LCMapStringW@24     100880b0     kernel32:KERNEL32.dll
 0002:000000b4       __imp__CompareStringW@24   100880b4     kernel32:KERNEL32.dll
 0002:000000b8       __imp__GetTimeFormatW@24   100880b8     kernel32:KERNEL32.dll
 0002:000000bc       __imp__IsDebuggerPresent@0 100880bc     kernel32:KERNEL32.dll
 0002:000000c0       __imp__OutputDebugStringW@4 100880c0     kernel32:KERNEL32.dll
 0002:000000c4       __imp__UnhandledExceptionFilter@4 100880c4     kernel32:KERNEL32.dll
 0002:000000c8       __imp__SetUnhandledExceptionFilter@4 100880c8     kernel32:KERNEL32.dll
 0002:000000cc       __imp__GetCurrentProcess@0 100880cc     kernel32:KERNEL32.dll
 0002:000000d0       __imp__TerminateProcess@8  100880d0     kernel32:KERNEL32.dll
 0002:000000d4       __imp__IsProcessorFeaturePresent@4 100880d4     kernel32:KERNEL32.dll
 0002:000000d8       __imp__GetStartupInfoW@4   100880d8     kernel32:KERNEL32.dll
 0002:000000dc       __imp__WideCharToMultiByte@32 100880dc     kernel32:KERNEL32.dll
 0002:000000e0       __imp__QueryPerformanceCounter@4 100880e0     kernel32:KERNEL32.dll
 0002:000000e4       __imp__GetCurrentProcessId@0 100880e4     kernel32:KERNEL32.dll
 0002:000000e8       __imp__GetCurrentThreadId@0 100880e8     kernel32:KERNEL32.dll
 0002:000000ec       __imp__GetSystemTimeAsFileTime@4 100880ec     kernel32:KERNEL32.dll
 0002:000000f0       __imp__InitializeSListHead@4 100880f0     kernel32:KERNEL32.dll
 0002:000000f4       __imp__HeapAlloc@12        100880f4     kernel32:KERNEL32.dll
 0002:000000f8       __imp__HeapFree@12         100880f8     kernel32:KERNEL32.dll
 0002:000000fc       __imp__GetProcessHeap@0    100880fc     kernel32:KERNEL32.dll
 0002:00000100       __imp__VirtualQuery@12     10088100     kernel32:KERNEL32.dll
 0002:00000104       __imp__RtlUnwind@16        10088104     kernel32:KERNEL32.dll
 0002:00000108       __imp__InterlockedPushEntrySList@8 10088108     kernel32:KERNEL32.dll
 0002:0000010c       __imp__InterlockedFlushSList@4 1008810c     kernel32:KERNEL32.dll
 0002:00000110       __imp__InitializeCriticalSectionAndSpinCount@8 10088110     kernel32:KERNEL32.dll
 0002:00000114       __imp__TlsAlloc@0          10088114     kernel32:KERNEL32.dll
 0002:00000118       __imp__TlsGetValue@4       10088118     kernel32:KERNEL32.dll
 0002:0000011c       __imp__TlsSetValue@8       1008811c     kernel32:KERNEL32.dll
 0002:00000120       __imp__TlsFree@4           10088120     kernel32:KERNEL32.dll
 0002:00000124       __imp__GetModuleHandleExW@12 10088124     kernel32:KERNEL32.dll
 0002:00000128       __imp__ExitProcess@4       10088128     kernel32:KERNEL32.dll
 0002:0000012c       __imp__HeapValidate@12     1008812c     kernel32:KERNEL32.dll
 0002:00000130       __imp__GetSystemInfo@4     10088130     kernel32:KERNEL32.dll
 0002:00000134       __imp__GetStdHandle@4      10088134     kernel32:KERNEL32.dll
 0002:00000138       __imp__GetFileType@4       10088138     kernel32:KERNEL32.dll
 0002:0000013c       __imp__WriteFile@20        1008813c     kernel32:KERNEL32.dll
 0002:00000140       __imp__WriteConsoleW@20    10088140     kernel32:KERNEL32.dll
 0002:00000144       __imp__SetConsoleCtrlHandler@8 10088144     kernel32:KERNEL32.dll
 0002:00000148       __imp__GetCurrentThread@0  10088148     kernel32:KERNEL32.dll
 0002:0000014c       __imp__HeapSize@12         1008814c     kernel32:KERNEL32.dll
 0002:00000150       __imp__HeapReAlloc@16      10088150     kernel32:KERNEL32.dll
 0002:00000154       __imp__FindClose@4         10088154     kernel32:KERNEL32.dll
 0002:00000158       __imp__FindFirstFileExW@24 10088158     kernel32:KERNEL32.dll
 0002:0000015c       __imp__FindNextFileW@8     1008815c     kernel32:KERNEL32.dll
 0002:00000160       __imp__IsValidCodePage@4   10088160     kernel32:KERNEL32.dll
 0002:00000164       __imp__GetACP@0            10088164     kernel32:KERNEL32.dll
 0002:00000168       __imp__GetOEMCP@0          10088168     kernel32:KERNEL32.dll
 0002:0000016c       __imp__GetCPInfo@8         1008816c     kernel32:KERNEL32.dll
 0002:00000170       __imp__GetCommandLineA@0   10088170     kernel32:KERNEL32.dll
 0002:00000174       __imp__GetCommandLineW@0   10088174     kernel32:KERNEL32.dll
 0002:00000178       __imp__GetEnvironmentStringsW@0 10088178     kernel32:KERNEL32.dll
 0002:0000017c       __imp__FreeEnvironmentStringsW@4 1008817c     kernel32:KERNEL32.dll
 0002:00000180       __imp__SetEnvironmentVariableW@8 10088180     kernel32:KERNEL32.dll
 0002:00000184       __imp__GetDateFormatW@24   10088184     kernel32:KERNEL32.dll
 0002:00000188       __imp__CreateFileW@28      10088188     kernel32:KERNEL32.dll
 0002:0000018c       \177KERNEL32_NULL_THUNK_DATA 1008818c     kernel32:KERNEL32.dll
 0002:00000190       __imp__LoadTypeLib@8       10088190     oleaut32:OLEAUT32.dll
 0002:00000194       __imp__UnRegisterTypeLib@20 10088194     oleaut32:OLEAUT32.dll
 0002:00000198       __imp__SysStringLen@4      10088198     oleaut32:OLEAUT32.dll
 0002:0000019c       __imp__SysAllocString@4    1008819c     oleaut32:OLEAUT32.dll
 0002:000001a0       __imp__SysFreeString@4     100881a0     oleaut32:OLEAUT32.dll
 0002:000001a4       __imp__VarUI4FromStr@16    100881a4     oleaut32:OLEAUT32.dll
 0002:000001a8       __imp__RegisterTypeLib@12  100881a8     oleaut32:OLEAUT32.dll
 0002:000001ac       \177OLEAUT32_NULL_THUNK_DATA 100881ac     oleaut32:OLEAUT32.dll
 0002:000001b0       __imp__UnregisterClassW@8  100881b0     user32:USER32.dll
 0002:000001b4       __imp__CharNextW@4         100881b4     user32:USER32.dll
 0002:000001b8       \177USER32_NULL_THUNK_DATA 100881b8     user32:USER32.dll
 0002:000001bc       __imp__CoTaskMemRealloc@8  100881bc     ole32:ole32.dll
 0002:000001c0       __imp__CoCreateInstance@20 100881c0     ole32:ole32.dll
 0002:000001c4       __imp__StringFromGUID2@12  100881c4     ole32:ole32.dll
 0002:000001c8       __imp__CoTaskMemAlloc@4    100881c8     ole32:ole32.dll
 0002:000001cc       __imp__CoTaskMemFree@4     100881cc     ole32:ole32.dll
 0002:000001d0       \177ole32_NULL_THUNK_DATA  100881d0     ole32:ole32.dll
 0002:000001d4       ___guard_check_icall_fptr  100881d4     LIBCMTD:guard_support.obj
 0002:000001d8       ___guard_xfg_check_icall_fptr 100881d8     LIBCMTD:guard_support.obj
 0002:000001dc       ___xc_a                    100881dc     LIBCMTD:initializers.obj
 0002:0000024c       ___xc_z                    1008824c     LIBCMTD:initializers.obj
 0002:00000250       ___xi_a                    10088250     LIBCMTD:initializers.obj
 0002:00000254       ___acrt_stdio_initializer  10088254     libucrtd:stdio_initializer.obj
 0002:00000258       ___acrt_multibyte_initializer 10088258     libucrtd:multibyte_initializer.obj
 0002:0000025c       ___acrt_tran_sse2_initializer 1008825c     libucrtd:sse2_initializer.obj
 0002:00000260       ___xi_z                    10088260     LIBCMTD:initializers.obj
 0002:00000264       ___xp_a                    10088264     LIBCMTD:initializers.obj
 0002:00000268       ___acrt_locale_terminator  10088268     libucrtd:locale_initializer.obj
 0002:0000026c       ___dcrt_console_output_terminator 1008826c     libucrtd:console_output_initializer.obj
 0002:00000270       ___acrt_stdio_terminator   10088270     libucrtd:stdio_initializer.obj
 0002:00000274       ___xp_z                    10088274     LIBCMTD:initializers.obj
 0002:00000278       ___xt_a                    10088278     LIBCMTD:initializers.obj
 0002:0000027c       ___xt_z                    1008827c     LIBCMTD:initializers.obj
 0002:00000280       _LIBID_ATLLib              10088280     StdAfx.obj
 0002:0000209c       ?chDirSep@ATL@@3_WB        1008a09c     StdAfx.obj
 0002:000020a0       ?chRightBracket@ATL@@3_WB  1008a0a0     StdAfx.obj
 0002:000020a4       ?chLeftBracket@ATL@@3_WB   1008a0a4     StdAfx.obj
 0002:000020a8       ?chQuote@ATL@@3_WB         1008a0a8     StdAfx.obj
 0002:000020ac       ?chEquals@ATL@@3_WB        1008a0ac     StdAfx.obj
 0002:000020b0       ?szStringVal@ATL@@3QB_WB   1008a0b0     StdAfx.obj
 0002:000020b4       ?multiszStringVal@ATL@@3QB_WB 1008a0b4     StdAfx.obj
 0002:000020b8       ?szDwordVal@ATL@@3QB_WB    1008a0b8     StdAfx.obj
 0002:000020bc       ?szBinaryVal@ATL@@3QB_WB   1008a0bc     StdAfx.obj
 0002:000020c0       ?szValToken@ATL@@3QB_WB    1008a0c0     StdAfx.obj
 0002:000020c4       ?szForceRemove@ATL@@3QB_WB 1008a0c4     StdAfx.obj
 0002:000020c8       ?szNoRemove@ATL@@3QB_WB    1008a0c8     StdAfx.obj
 0002:000020cc       ?szDelete@ATL@@3QB_WB      1008a0cc     StdAfx.obj
 0002:000020d0       _CLSID_Registrar           1008a0d0     StdAfx.obj
 0002:000020e0       _IID_IRegistrar            1008a0e0     StdAfx.obj
 0002:000020f0       _IID_IDocHostUIHandlerDispatch 1008a0f0     StdAfx.obj
 0002:00002100       _IID_IAxWinHostWindow      1008a100     StdAfx.obj
 0002:00002110       _IID_IAxWinHostWindowLic   1008a110     StdAfx.obj
 0002:00002120       _IID_IAxWinAmbientDispatch 1008a120     StdAfx.obj
 0002:00002130       _IID_IAxWinAmbientDispatchEx 1008a130     StdAfx.obj
 0002:00002140       _IID_IInternalConnection   1008a140     StdAfx.obj
 0002:00002150       ??_C@_13COJANIEC@?$AA0@    1008a150     StdAfx.obj
 0002:00002154       ??_C@_17CNPHIMPH@?$AA?$CF?$AAl?$AAs@ 1008a154     StdAfx.obj
 0002:00002160       ??_C@_1OE@EFJOHFCD@?$AAC?$AA?3?$AA?2?$AAP?$AAr?$AAo?$AAg?$AAr?$AAa?$AAm?$AA?5?$AAF?$AAi?$AAl?$AAe@ 1008a160     StdAfx.obj
 0002:00002244       ??_C@_1O@LFNDFEBP@?$AA?$CF?$AAl?$AAs?$AA?5?$AA?9?$AA?5@ 1008a244     StdAfx.obj
 0002:00002254       ??_C@_1M@PGKOAACE@?$AA?$CF?$AAu?$AA?5?$AA?9?$AA?5@ 1008a254     StdAfx.obj
 0002:00002260       ??_C@_1O@OAIPCDPO@?$AA?$CF?$AAl?$AAs?$AA?$CF?$AAl?$AAs@ 1008a260     StdAfx.obj
 0002:00002270       ??_C@_17LGGGMOOB@?$AA?$CF?$AAh?$AAs@ 1008a270     StdAfx.obj
 0002:00002278       ??_C@_1EO@EBPPKGOM@?$AAf?$AAa?$AAl?$AAs?$AAe?$AA?5?$AA?$CG?$AA?$CG?$AA?5?$AA?$CC?$AAT?$AAo?$AAo?$AA?5?$AAm@ 1008a278     StdAfx.obj
 0002:000022c8       ??_C@_1OE@DGDFBHKA@?$AAC?$AA?3?$AA?2?$AAP?$AAr?$AAo?$AAg?$AAr?$AAa?$AAm?$AA?5?$AAF?$AAi?$AAl?$AAe@ 1008a2c8     StdAfx.obj
 0002:000023b0       ??_C@_1OC@CIBKFAMP@?$AAC?$AA?3?$AA?2?$AAP?$AAr?$AAo?$AAg?$AAr?$AAa?$AAm?$AA?5?$AAF?$AAi?$AAl?$AAe@ 1008a3b0     StdAfx.obj
 0002:00002498       ??_C@_0HB@KEBNGHII@C?3?2Program?5Files?5?$CIx86?$CJ?2Microsof@ 1008a498     StdAfx.obj
 0002:00002510       ??_C@_1IA@KEEOONGN@?$AAE?$AAR?$AAR?$AAO?$AAR?$AA?5?$AA?3?$AA?5?$AAU?$AAn?$AAa?$AAb?$AAl?$AAe?$AA?5@ 1008a510     StdAfx.obj
 0002:00002590       ??_C@_1IG@OPJAFKJH@?$AAE?$AAR?$AAR?$AAO?$AAR?$AA?5?$AA?3?$AA?5?$AAU?$AAn?$AAa?$AAb?$AAl?$AAe?$AA?5@ 1008a590     StdAfx.obj
 0002:00002618       ??_C@_1EA@JHMKKLFC@?$AAn?$AAI?$AAn?$AAd?$AAe?$AAx?$AA?5?$AA?$DO?$AA?$DN?$AA?5?$AA0?$AA?5?$AA?$CG?$AA?$CG?$AA?5@ 1008a618     StdAfx.obj
 0002:00002658       ??_C@_1OK@FGCLCILL@?$AAC?$AA?3?$AA?2?$AAP?$AAr?$AAo?$AAg?$AAr?$AAa?$AAm?$AA?5?$AAF?$AAi?$AAl?$AAe@ 1008a658     StdAfx.obj
 0002:00002744       ??_C@_1BK@NHECDDNK@?$AAm?$AA_?$AAp?$AAD?$AAa?$AAt?$AAa?$AA?5?$AA?$DN?$AA?$DN?$AA?5?$AA0@ 1008a744     StdAfx.obj
 0002:00004574       _LIBID_OPOSINTERNALSLib    1008c574     OposInternals.obj
 0002:00004588       ??_C@_0HD@ECNMIKGK@C?3?2Program?5Files?5?$CIx86?$CJ?2Microsof@ 1008c588     OposInternals.obj
 0002:000045fc       ??_C@_1CK@DFMKPFAK@?$AAA?$AAt?$AAl?$AAT?$AAh?$AAr?$AAo?$AAw?$AA?3?$AA?5?$AAh?$AAr?$AA?5?$AA?$DN?$AA?5@ 1008c5fc     OposInternals.obj
 0002:00004628       ??_C@_1M@HLGKFCJM@?$AAf?$AAa?$AAl?$AAs?$AAe@ 1008c628     OposInternals.obj
 0002:00004638       ??_C@_1OG@DEDHKNLM@?$AAC?$AA?3?$AA?2?$AAP?$AAr?$AAo?$AAg?$AAr?$AAa?$AAm?$AA?5?$AAF?$AAi?$AAl?$AAe@ 1008c638     OposInternals.obj
 0002:00004720       ??_C@_1BM@GBBOFEAE@?$AA_?$AA_?$AAa?$AAt?$AAl?$AA_?$AAc?$AAo?$AAn?$AAd?$AAV?$AAa?$AAl@ 1008c720     OposInternals.obj
 0002:00004740       ??_C@_1OG@NPBPGCCO@?$AAC?$AA?3?$AA?2?$AAP?$AAr?$AAo?$AAg?$AAr?$AAa?$AAm?$AA?5?$AAF?$AAi?$AAl?$AAe@ 1008c740     OposInternals.obj
 0002:00004828       __GUID_00000000_0000_0000_c000_000000000046 1008c828     OposInternals.obj
 0002:00004838       ??_C@_1BG@ILBPLEEF@?$AAn?$AAN?$AAu?$AAl?$AAl?$AA?5?$AA?$DN?$AA?$DN?$AA?5?$AA0@ 1008c838     OposInternals.obj
 0002:00004850       ??_C@_1PO@GPALOAFP@?$AAC?$AA?3?$AA?2?$AAP?$AAr?$AAo?$AAg?$AAr?$AAa?$AAm?$AA?5?$AAF?$AAi?$AAl?$AAe@ 1008c850     OposInternals.obj
 0002:00004950       ??_C@_1BK@BIGILECK@?$AAA?$AAd?$AAv?$AAa?$AAp?$AAi?$AA3?$AA2?$AA?4?$AAd?$AAl?$AAl@ 1008c950     OposInternals.obj
 0002:0000496c       ??_C@_1BO@KNMGNOCJ@?$AAh?$AAA?$AAd?$AAv?$AAA?$AAP?$AAI?$AA3?$AA2?$AA?5?$AA?$CB?$AA?$DN?$AA?5?$AA0@ 1008c96c     OposInternals.obj
 0002:0000498c       ??_C@_0BG@EKFFMJIO@RegOpenKeyTransactedW@ 1008c98c     OposInternals.obj
 0002:000049a4       ??_C@_0BI@MNCFCPFK@RegCreateKeyTransactedW@ 1008c9a4     OposInternals.obj
 0002:000049bc       ??_C@_0BI@HAKLOOGP@RegDeleteKeyTransactedW@ 1008c9bc     OposInternals.obj
 0002:000049d4       ??_C@_1BG@OHCCAGNO@?$AA?$CB?$AAm?$AA_?$AAb?$AAL?$AAo?$AAc?$AAk?$AAe?$AAd@ 1008c9d4     OposInternals.obj
 0002:000049ec       ??_C@_1BE@NPGJNKLA@?$AAm?$AA_?$AAb?$AAL?$AAo?$AAc?$AAk?$AAe?$AAd@ 1008c9ec     OposInternals.obj
 0002:00004a00       ??_C@_1CC@DNHFMIHP@?$AA_?$AAp?$AAA?$AAt?$AAl?$AAM?$AAo?$AAd?$AAu?$AAl?$AAe?$AA?5?$AA?$DN?$AA?$DN?$AA?5@ 1008ca00     OposInternals.obj
 0002:00004a28       ??_C@_1HK@DFMOIGDB@?$AAE?$AAR?$AAR?$AAO?$AAR?$AA?5?$AA?3?$AA?5?$AAU?$AAn?$AAa?$AAb?$AAl?$AAe?$AA?5@ 1008ca28     OposInternals.obj
 0002:00004aa4       __GUID_00000146_0000_0000_c000_000000000046 1008caa4     OposInternals.obj
 0002:00004ab4       ??_C@_1BG@LENCCAOJ@?$AAp?$AAp?$AAG?$AAI?$AAT?$AA?5?$AA?$CB?$AA?$DN?$AA?5?$AA0@ 1008cab4     OposInternals.obj
 0002:00004acc       ??_C@_1BI@JBLBCKD@?$AAm?$AA_?$AAp?$AAG?$AAI?$AAT?$AA?5?$AA?$CB?$AA?$DN?$AA?5?$AA0@ 1008cacc     OposInternals.obj
 0002:00004ae4       ??_7CComModule@ATL@@6B@    1008cae4     OposInternals.obj
 0002:00004b0c       ??_C@_1BM@NFPICFEL@?$AA_?$AAp?$AAM?$AAo?$AAd?$AAu?$AAl?$AAe?$AA?5?$AA?$DN?$AA?$DN?$AA?5?$AA0@ 1008cb0c     OposInternals.obj
 0002:00004b28       ??_C@_1BI@JPOONHGO@?$AAm?$AA_?$AAh?$AAK?$AAe?$AAy?$AA?5?$AA?$DN?$AA?$DN?$AA?5?$AA0@ 1008cb28     OposInternals.obj
 0002:00004b40       ??_C@_1BI@KCHMLGAI@?$AAm?$AA_?$AAh?$AAK?$AAe?$AAy?$AA?5?$AA?$CB?$AA?$DN?$AA?5?$AA0@ 1008cb40     OposInternals.obj
 0002:00004b58       ??_C@_0BA@LILAPHGE@RegDeleteKeyExW@ 1008cb58     OposInternals.obj
 0002:00004b68       ??_C@_1CA@JAHJEEHI@?$AAh?$AAK?$AAe?$AAy?$AAP?$AAa?$AAr?$AAe?$AAn?$AAt?$AA?5?$AA?$CB?$AA?$DN?$AA?5?$AA0@ 1008cb68     OposInternals.obj
 0002:00004b88       ??_C@_1BG@OMKLFNDM@?$AAl?$AAR?$AAe?$AAs?$AA?5?$AA?$DN?$AA?$DN?$AA?5?$AA0?$AAL@ 1008cb88     OposInternals.obj
 0002:00004ba0       ??_C@_1FG@MAMCHIIA@?$AA?$CI?$AAd?$AAw?$AAT?$AAy?$AAp?$AAe?$AA?5?$AA?$DN?$AA?$DN?$AA?5?$AA?$CI?$AA?5?$AA1?$AAu@ 1008cba0     OposInternals.obj
 0002:00004bf8       ??_C@_1IA@CIKBLAHF@?$AAC?$AAR?$AAe?$AAg?$AAK?$AAe?$AAy?$AA?3?$AA?3?$AAR?$AAe?$AAc?$AAu?$AAr?$AAs@ 1008cbf8     OposInternals.obj
 0002:00004c78       ??_C@_1DO@EIGOLNAA@?$AAl?$AAp?$AAs?$AAz?$AAK?$AAe?$AAy?$AA?5?$AA?$CB?$AA?$DN?$AA?5?$AA0?$AA?5?$AA?$CG?$AA?$CG@ 1008cc78     OposInternals.obj
 0002:00004cb8       ??_C@_1OC@IGDLHBDL@?$AAC?$AA?3?$AA?2?$AAP?$AAr?$AAo?$AAg?$AAr?$AAa?$AAm?$AA?5?$AAF?$AAi?$AAl?$AAe@ 1008ccb8     OposInternals.obj
 0002:00004d9c       ??_C@_1BG@MMFPEKL@?$AAs?$AAz?$AAK?$AAe?$AAy?$AA?5?$AA?$CB?$AA?$DN?$AA?5?$AA0@ 1008cd9c     OposInternals.obj
 0002:00004db4       ??_C@_1BK@LDPHGFPN@?$AAs?$AAz?$AAV?$AAa?$AAl?$AAu?$AAe?$AA?5?$AA?$CB?$AA?$DN?$AA?5?$AA0@ 1008cdb4     OposInternals.obj
 0002:00004dd0       ?rgszNeverDelete@CRegParser@ATL@@1QBQB_WB 1008cdd0     OposInternals.obj
 0002:00004e00       ??_C@_1O@JFMKDNFA@?$AAp?$AA?5?$AA?$CB?$AA?$DN?$AA?5?$AA0@ 1008ce00     OposInternals.obj
 0002:00004e10       ??_7CRegObject@ATL@@6B@    1008ce10     OposInternals.obj
 0002:00004e28       ??_C@_1JM@PMKLGAKF@?$AAs?$AAt?$AAa?$AAt?$AAi?$AAc?$AAa?$AAl?$AAl?$AAy?$AA?5?$AAl?$AAi?$AAn?$AAk@ 1008ce28     OposInternals.obj
 0002:00004ec8       ??_C@_1KC@MLBIPPDL@?$AAL?$AA?$CC?$AAs?$AAt?$AAa?$AAt?$AAi?$AAc?$AAa?$AAl?$AAl?$AAy?$AA?5?$AAl?$AAi@ 1008cec8     OposInternals.obj
 0002:00004f70       ??_C@_0HB@NIKGFAOE@C?3?2Program?5Files?5?$CIx86?$CJ?2Microsof@ 1008cf70     OposInternals.obj
 0002:00004fe4       ??_C@_1DM@JBIDINMA@?$AAF?$AAa?$AAi?$AAl?$AAe?$AAd?$AA?5?$AAt?$AAo?$AA?5?$AAL?$AAo?$AAa?$AAd?$AAL@ 1008cfe4     OposInternals.obj
 0002:00005020       ??_C@_1FE@HJDAOHJE@?$AAF?$AAa?$AAi?$AAl?$AAe?$AAd?$AA?5?$AAt?$AAo?$AA?5?$AAF?$AAi?$AAn?$AAd?$AAR@ 1008d020     OposInternals.obj
 0002:00005078       ??_C@_1FG@BBJFPKL@?$AAF?$AAa?$AAi?$AAl?$AAe?$AAd?$AA?5?$AAt?$AAo?$AA?5?$AAF?$AAi?$AAn?$AAd?$AAR@ 1008d078     OposInternals.obj
 0002:000050d0       ??_C@_1DA@KJKEAFMD@?$AAF?$AAa?$AAi?$AAl?$AAe?$AAd?$AA?5?$AAt?$AAo?$AA?5?$AAL?$AAo?$AAa?$AAd?$AAR@ 1008d0d0     OposInternals.obj
 0002:00005100       ??_C@_1CK@BCPDHANH@?$AAM?$AAa?$AAp?$AA?5?$AAE?$AAn?$AAt?$AAr?$AAy?$AA?5?$AAn?$AAo?$AAt?$AA?5?$AAf@ 1008d100     OposInternals.obj
 0002:00005130       ??_C@_1FI@KMIOGKOO@?$AAB?$AAo?$AAg?$AAu?$AAs?$AA?5?$AAv?$AAa?$AAl?$AAu?$AAe?$AA?5?$AA?$CF?$AAT?$AAc@ 1008d130     OposInternals.obj
 0002:00005188       ?map@?1??HKeyFromString@CRegParser@ATL@@KAPAUHKEY__@@PA_W@Z@4QBUkeymap@?1??123@KAPAU4@0@Z@B 1008d188     OposInternals.obj
 0002:000051f8       ??_C@_19NCHLBIN@?$AAH?$AAK?$AAC?$AAR@ 1008d1f8     OposInternals.obj
 0002:00005204       ??_C@_19JAPAIJDE@?$AAH?$AAK?$AAC?$AAU@ 1008d204     OposInternals.obj
 0002:00005210       ??_C@_19PEALEEJB@?$AAH?$AAK?$AAL?$AAM@ 1008d210     OposInternals.obj
 0002:0000521c       ??_C@_17PJOJPMPB@?$AAH?$AAK?$AAU@ 1008d21c     OposInternals.obj
 0002:00005224       ??_C@_19PNBHMJPL@?$AAH?$AAK?$AAP?$AAD@ 1008d224     OposInternals.obj
 0002:00005230       ??_C@_19GFFAIJHG@?$AAH?$AAK?$AAD?$AAD@ 1008d230     OposInternals.obj
 0002:0000523c       ??_C@_19OFICIBHH@?$AAH?$AAK?$AAC?$AAC@ 1008d23c     OposInternals.obj
 0002:00005248       ??_C@_1CE@PACHPJFI@?$AAH?$AAK?$AAE?$AAY?$AA_?$AAC?$AAL?$AAA?$AAS?$AAS?$AAE?$AAS?$AA_?$AAR?$AAO@ 1008d248     OposInternals.obj
 0002:0000526c       ??_C@_1CE@HLHNCBPM@?$AAH?$AAK?$AAE?$AAY?$AA_?$AAC?$AAU?$AAR?$AAR?$AAE?$AAN?$AAT?$AA_?$AAU?$AAS@ 1008d26c     OposInternals.obj
 0002:00005290       ??_C@_1CG@GFBEANJL@?$AAH?$AAK?$AAE?$AAY?$AA_?$AAL?$AAO?$AAC?$AAA?$AAL?$AA_?$AAM?$AAA?$AAC?$AAH@ 1008d290     OposInternals.obj
 0002:000052b8       ??_C@_1BG@BGODANIO@?$AAH?$AAK?$AAE?$AAY?$AA_?$AAU?$AAS?$AAE?$AAR?$AAS@ 1008d2b8     OposInternals.obj
 0002:000052d0       ??_C@_1CM@KHNNAOIC@?$AAH?$AAK?$AAE?$AAY?$AA_?$AAP?$AAE?$AAR?$AAF?$AAO?$AAR?$AAM?$AAA?$AAN?$AAC@ 1008d2d0     OposInternals.obj
 0002:000052fc       ??_C@_1BM@HAGMMHIA@?$AAH?$AAK?$AAE?$AAY?$AA_?$AAD?$AAY?$AAN?$AA_?$AAD?$AAA?$AAT?$AAA@ 1008d2fc     OposInternals.obj
 0002:00005318       ??_C@_1CI@BBJOACGG@?$AAH?$AAK?$AAE?$AAY?$AA_?$AAC?$AAU?$AAR?$AAR?$AAE?$AAN?$AAT?$AA_?$AAC?$AAO@ 1008d318     OposInternals.obj
 0002:00005340       ??_C@_1EI@CDDJHMMA@?$AAN?$AAe?$AAx?$AAt?$AAT?$AAo?$AAk?$AAe?$AAn?$AA?5?$AA?3?$AA?5?$AAU?$AAn?$AAe@ 1008d340     OposInternals.obj
 0002:00005388       ??_C@_1DA@BDBPEMM@?$AA?$CF?$AAT?$AAs?$AA?5?$AAT?$AAy?$AAp?$AAe?$AA?5?$AAn?$AAo?$AAt?$AA?5?$AAs?$AAu@ 1008d388     OposInternals.obj
 0002:000053b8       ??_C@_1BA@HANLFFFG@?$AAd?$AAe?$AAf?$AAa?$AAu?$AAl?$AAt@ 1008d3b8     OposInternals.obj
 0002:000053c8       ??_C@_1DE@GENBDOHF@?$AAS?$AAe?$AAt?$AAt?$AAi?$AAn?$AAg?$AA?5?$AAV?$AAa?$AAl?$AAu?$AAe?$AA?5?$AA?$CF@ 1008d3c8     OposInternals.obj
 0002:000053fc       ??_C@_1DC@OPMJCKIB@?$AAS?$AAe?$AAt?$AAt?$AAi?$AAn?$AAg?$AA?5?$AAV?$AAa?$AAl?$AAu?$AAe?$AA?5?$AA?$CF@ 1008d3fc     OposInternals.obj
 0002:00005430       ??_C@_1FK@OIDGAAMP@?$AAB?$AAi?$AAn?$AAa?$AAr?$AAy?$AA?5?$AAD?$AAa?$AAt?$AAa?$AA?5?$AAd?$AAo?$AAe@ 1008d430     OposInternals.obj
 0002:0000548c       ??_C@_1CM@LNIALBHN@?$AAS?$AAh?$AAo?$AAu?$AAl?$AAd?$AA?5?$AAn?$AAo?$AAt?$AA?5?$AAb?$AAe?$AA?5?$AAh@ 1008d48c     OposInternals.obj
 0002:000054b8       ??_C@_1BK@ODFKMBGC@?$AAl?$AAp?$AAs?$AAz?$AAR?$AAe?$AAg?$AA?5?$AA?$CB?$AA?$DN?$AA?5?$AA0@ 1008d4b8     OposInternals.obj
 0002:000054d4       ??_C@_1BK@DGLFCBHI@?$AAp?$AAp?$AAs?$AAz?$AAR?$AAe?$AAg?$AA?5?$AA?$CB?$AA?$DN?$AA?5?$AA0@ 1008d4d4     OposInternals.obj
 0002:000054f0       ??_C@_1EA@NHKLICFA@?$AAH?$AAK?$AAC?$AAU?$AA?$AN?$AA?6?$AA?$HL?$AA?7?$AAS?$AAo?$AAf?$AAt?$AAw?$AAa?$AAr@ 1008d4f0     OposInternals.obj
 0002:00005530       ??_C@_1BE@LJOLIMEM@?$AA?$AN?$AA?6?$AA?7?$AA?$HN?$AA?$AN?$AA?6?$AA?$HN?$AA?$AN?$AA?6@ 1008d530     OposInternals.obj
 0002:00005544       ??_C@_1DG@KOLNJMBJ@?$AAE?$AAr?$AAr?$AAo?$AAr?$AA?5?$AAn?$AAo?$AA?5?$AAc?$AAl?$AAo?$AAs?$AAi?$AAn@ 1008d544     OposInternals.obj
 0002:0000557c       ??_C@_19IGGGDNCK@?$AA?$CF?$AAT?$AAs?$AA?6@ 1008d57c     OposInternals.obj
 0002:00005588       ??_C@_1DM@JFHAPNGI@?$AAH?$AAK?$AAe?$AAy?$AAF?$AAr?$AAo?$AAm?$AAS?$AAt?$AAr?$AAi?$AAn?$AAg?$AA?5@ 1008d588     OposInternals.obj
 0002:000055c8       ??_C@_1FE@MCPBFDLN@?$AAS?$AAy?$AAn?$AAt?$AAa?$AAx?$AA?5?$AAe?$AAr?$AAr?$AAo?$AAr?$AA?0?$AA?5?$AAe@ 1008d5c8     OposInternals.obj
 0002:00005620       ??_C@_1EE@EMAKHHOG@?$AAF?$AAa?$AAi?$AAl?$AAe?$AAd?$AA?5?$AAt?$AAo?$AA?5?$AAr?$AAe?$AAg?$AAi?$AAs@ 1008d620     OposInternals.obj
 0002:00005664       ??_C@_1BM@KJDIPNJ@?$AAN?$AAu?$AAm?$AA?5?$AAE?$AAl?$AAs?$AA?5?$AA?$DN?$AA?5?$AA?$CF?$AAd?$AA?6@ 1008d664     OposInternals.obj
 0002:00005680       ??_C@_1BM@BEOOHDFB@?$AAD?$AAe?$AAl?$AAe?$AAt?$AAi?$AAn?$AAg?$AA?5?$AA?$CF?$AAT?$AAs?$AA?6@ 1008d680     OposInternals.obj
 0002:0000569c       ??_C@_1CE@NOBELHPC@?$AAC?$AAr?$AAe?$AAa?$AAt?$AAi?$AAn?$AAg?$AA?5?$AAk?$AAe?$AAy?$AA?5?$AA?$CF?$AAT@ 1008d69c     OposInternals.obj
 0002:000056c0       ??_C@_1CA@MKECKMBH@?$AAO?$AAp?$AAe?$AAn?$AAe?$AAd?$AA?5?$AAK?$AAe?$AAy?$AA?5?$AA?$CF?$AAT?$AAs?$AA?6@ 1008d6c0     OposInternals.obj
 0002:000056e0       ??_C@_1FK@OAJHMKAA@?$AAI?$AAg?$AAn?$AAo?$AAr?$AAi?$AAn?$AAg?$AA?5?$AAO?$AAp?$AAe?$AAn?$AA?5?$AAk@ 1008d6e0     OposInternals.obj
 0002:0000573c       ??_C@_1CM@OHCCCDHD@?$AAE?$AAn?$AAd?$AAi?$AAn?$AAg?$AA?5?$AAR?$AAe?$AAc?$AAo?$AAv?$AAe?$AAr?$AAy@ 1008d73c     OposInternals.obj
 0002:00005768       ??_C@_1FA@ECAJCMBE@?$AAD?$AAe?$AAl?$AAe?$AAt?$AAi?$AAn?$AAg?$AA?5?$AAn?$AAo?$AAn?$AA?9?$AAe?$AAm@ 1008d768     OposInternals.obj
 0002:000057b8       ??_C@_1CE@OGJGDPFE@?$AAD?$AAe?$AAl?$AAe?$AAt?$AAi?$AAn?$AAg?$AA?5?$AAK?$AAe?$AAy?$AA?5?$AA?$CF?$AAT@ 1008d7b8     OposInternals.obj
 0002:000057dc       ??_C@_1DC@HEJCCJC@?$AA0?$AA?5?$AA?$CB?$AA?$DN?$AA?5?$AAp?$AAM?$AAa?$AAp?$AAE?$AAn?$AAt?$AAr?$AAi?$AAe@ 1008d7dc     OposInternals.obj
 0002:00005810       ??_C@_1O@MNLDABAF@?$AAM?$AAo?$AAd?$AAu?$AAl?$AAe@ 1008d810     OposInternals.obj
 0002:00005820       ??_C@_1BG@JBACFMF@?$AAM?$AAo?$AAd?$AAu?$AAl?$AAe?$AA_?$AAR?$AAa?$AAw@ 1008d820     OposInternals.obj
 0002:00005838       ??_C@_1BC@KAILKFFG@?$AAR?$AAE?$AAG?$AAI?$AAS?$AAT?$AAR?$AAY@ 1008d838     OposInternals.obj
 0002:0000584c       ??_C@_11LOCGONAA@@         1008d84c     OposInternals.obj
 0002:00005850       ??_C@_1EC@GOCPDDCL@?$AAp?$AAb?$AAs?$AAt?$AAr?$AAP?$AAa?$AAt?$AAh?$AA?5?$AA?$CB?$AA?$DN?$AA?5?$AA0?$AA?5@ 1008d850     OposInternals.obj
 0002:00005894       ??_C@_1CE@MNLFIKHJ@?$AAh?$AAI?$AAn?$AAs?$AAt?$AAT?$AAy?$AAp?$AAe?$AAL?$AAi?$AAb?$AA?5?$AA?$CB?$AA?$DN@ 1008d894     OposInternals.obj
 0002:000058b8       ??_C@_19ILOCMLCJ@?$AA?4?$AAt?$AAl?$AAb@ 1008d8b8     OposInternals.obj
 0002:000058c4       __GUID_0002e012_0000_0000_c000_000000000046 1008d8c4     OposInternals.obj
 0002:000058d8       ??_C@_1OK@NEECLFPA@?$AA0?$AA?5?$AA?$CG?$AA?$CG?$AA?5?$AAL?$AA?$CC?$AAU?$AAs?$AAe?$AA?5?$AAO?$AAB?$AAJ?$AAE@ 1008d8d8     OposInternals.obj
 0002:000059c4       ??_C@_1CG@IDMIONOG@?$AAp?$AAE?$AAn?$AAt?$AAr?$AAy?$AA?9?$AA?$DO?$AAi?$AAT?$AAy?$AAp?$AAe?$AA?5?$AA?$DN@ 1008d9c4     OposInternals.obj
 0002:000059ec       ??_C@_1O@FHBGLCIO@?$AAC?$AAL?$AAS?$AAI?$AAD?$AA?2@ 1008d9ec     OposInternals.obj
 0002:000059fc       ??_C@_1CK@IFBKBFAA@?$AA?2?$AAR?$AAe?$AAq?$AAu?$AAi?$AAr?$AAe?$AAd?$AA?5?$AAC?$AAa?$AAt?$AAe?$AAg@ 1008d9fc     OposInternals.obj
 0002:00005a28       ??_C@_1DA@BIHALFED@?$AA?2?$AAI?$AAm?$AAp?$AAl?$AAe?$AAm?$AAe?$AAn?$AAt?$AAe?$AAd?$AA?5?$AAC?$AAa@ 1008da28     OposInternals.obj
 0002:00005a58       ??_C@_1BK@EDKOLFBJ@?$AAO?$AAL?$AAE?$AAA?$AAU?$AAT?$AA3?$AA2?$AA?4?$AAD?$AAL?$AAL@ 1008da58     OposInternals.obj
 0002:00005a74       ??_C@_0BJ@CNLFOMHB@UnRegisterTypeLibForUser@ 1008da74     OposInternals.obj
 0002:00005a90       ??_C@_0BH@LBOMMKPJ@RegisterTypeLibForUser@ 1008da90     OposInternals.obj
 0002:00005aa8       ??_C@_1CA@GAOMIJFK@?$AAp?$AAC?$AAo?$AAm?$AAM?$AAo?$AAd?$AAu?$AAl?$AAe?$AA?5?$AA?$CB?$AA?$DN?$AA?5?$AA0@ 1008daa8     OposInternals.obj
 0002:00005ac8       ??_C@_1EA@JIHAIGJA@?$AAp?$AAC?$AAo?$AAm?$AAM?$AAo?$AAd?$AAu?$AAl?$AAe?$AA?9?$AA?$DO?$AAm?$AA_?$AAh@ 1008dac8     OposInternals.obj
 0002:00005b08       ??_C@_1IO@OONIPMJC@?$AAE?$AAR?$AAR?$AAO?$AAR?$AA?5?$AA?3?$AA?5?$AAU?$AAn?$AAa?$AAb?$AAl?$AAe?$AA?5@ 1008db08     OposInternals.obj
 0002:00005b98       ??_C@_1IO@BDEIDBOP@?$AAE?$AAR?$AAR?$AAO?$AAR?$AA?5?$AA?3?$AA?5?$AAU?$AAn?$AAa?$AAb?$AAl?$AAe?$AA?5@ 1008db98     OposInternals.obj
 0002:00005c28       ??_C@_19LMDLLIGP@?$AAp?$AA?$DN?$AA?$DN?$AA0@ 1008dc28     OposInternals.obj
 0002:00005c34       ??_C@_19JHCPJMAL@?$AAp?$AA?$CB?$AA?$DN?$AA0@ 1008dc34     OposInternals.obj
 0002:00005c40       ??_C@_1BC@EMCLECFJ@?$AAm?$AA_?$AAp?$AA?5?$AA?$DN?$AA?$DN?$AA?5?$AA0@ 1008dc40     OposInternals.obj
 0002:00005c54       ??_C@_1M@PPPPCDEP@?$AAA?$AAP?$AAP?$AAI?$AAD@ 1008dc54     OposInternals.obj
 0002:00005c60       _GUID_NULL                 1008dc60     uuid:cguid_i.obj
 0002:00005c70       _CATID_MARSHALER           1008dc70     uuid:cguid_i.obj
 0002:00005c80       _IID_IRpcChannel           1008dc80     uuid:cguid_i.obj
 0002:00005c90       _IID_IRpcStub              1008dc90     uuid:cguid_i.obj
 0002:00005ca0       _IID_IStubManager          1008dca0     uuid:cguid_i.obj
 0002:00005cb0       _IID_IRpcProxy             1008dcb0     uuid:cguid_i.obj
 0002:00005cc0       _IID_IProxyManager         1008dcc0     uuid:cguid_i.obj
 0002:00005cd0       _IID_IPSFactory            1008dcd0     uuid:cguid_i.obj
 0002:00005ce0       _IID_IInternalMoniker      1008dce0     uuid:cguid_i.obj
 0002:00005cf0       _IID_IDfReserved1          1008dcf0     uuid:cguid_i.obj
 0002:00005d00       _IID_IDfReserved2          1008dd00     uuid:cguid_i.obj
 0002:00005d10       _IID_IDfReserved3          1008dd10     uuid:cguid_i.obj
 0002:00005d20       _CLSID_StdMarshal          1008dd20     uuid:cguid_i.obj
 0002:00005d30       _IID_IStub                 1008dd30     uuid:cguid_i.obj
 0002:00005d40       _IID_IProxy                1008dd40     uuid:cguid_i.obj
 0002:00005d50       _IID_IEnumGeneric          1008dd50     uuid:cguid_i.obj
 0002:00005d60       _IID_IEnumHolder           1008dd60     uuid:cguid_i.obj
 0002:00005d70       _IID_IEnumCallback         1008dd70     uuid:cguid_i.obj
 0002:00005d80       _IID_IOleManager           1008dd80     uuid:cguid_i.obj
 0002:00005d90       _IID_IOlePresObj           1008dd90     uuid:cguid_i.obj
 0002:00005da0       _IID_IDebug                1008dda0     uuid:cguid_i.obj
 0002:00005db0       _IID_IDebugStream          1008ddb0     uuid:cguid_i.obj
 0002:00005dc0       _CLSID_PSGenObject         1008ddc0     uuid:cguid_i.obj
 0002:00005dd0       _CLSID_PSClientSite        1008ddd0     uuid:cguid_i.obj
 0002:00005de0       _CLSID_PSClassObject       1008dde0     uuid:cguid_i.obj
 0002:00005df0       _CLSID_PSInPlaceActive     1008ddf0     uuid:cguid_i.obj
 0002:00005e00       _CLSID_PSInPlaceFrame      1008de00     uuid:cguid_i.obj
 0002:00005e10       _CLSID_PSDragDrop          1008de10     uuid:cguid_i.obj
 0002:00005e20       _CLSID_PSBindCtx           1008de20     uuid:cguid_i.obj
 0002:00005e30       _CLSID_PSEnumerators       1008de30     uuid:cguid_i.obj
 0002:00005e40       _CLSID_StaticMetafile      1008de40     uuid:cguid_i.obj
 0002:00005e50       _CLSID_StaticDib           1008de50     uuid:cguid_i.obj
 0002:00005e60       _CLSID_Picture_Metafile    1008de60     uuid:cguid_i.obj
 0002:00005e70       _CLSID_Picture_EnhMetafile 1008de70     uuid:cguid_i.obj
 0002:00005e80       _CLSID_Picture_Dib         1008de80     uuid:cguid_i.obj
 0002:00005e90       _CLSID_DCOMAccessControl   1008de90     uuid:cguid_i.obj
 0002:00005ea0       _CLSID_StdGlobalInterfaceTable 1008dea0     uuid:cguid_i.obj
 0002:00005eb0       _CLSID_ManualResetEvent    1008deb0     uuid:cguid_i.obj
 0002:00005ec0       _CLSID_StdEvent            1008dec0     uuid:cguid_i.obj
 0002:00005ed0       _CLSID_SynchronizeContainer 1008ded0     uuid:cguid_i.obj
 0002:00005ee0       _CLSID_ComBinding          1008dee0     uuid:cguid_i.obj
 0002:00005ef0       _CLSID_StdAsyncActManager  1008def0     uuid:cguid_i.obj
 0002:00005f00       _CLSID_InProcFreeMarshaler 1008df00     uuid:cguid_i.obj
 0002:00005f10       _CLSID_RemoteUnknownPSFactory 1008df10     uuid:cguid_i.obj
 0002:00005f20       _IID_IRichEditOle          1008df20     uuid:cguid_i.obj
 0002:00005f30       _IID_IRichEditOleCallback  1008df30     uuid:cguid_i.obj
 0002:00005f40       _CLSID_AllClasses          1008df40     uuid:cguid_i.obj
 0002:00005f50       _CLSID_LocalMachineClasses 1008df50     uuid:cguid_i.obj
 0002:00005f60       _CLSID_CurrentUserClasses  1008df60     uuid:cguid_i.obj
 0002:00005f70       _CLSID_AddrControl         1008df70     uuid:cguid_i.obj
 0002:00005f80       _CLSID_GlobalOptions       1008df80     uuid:cguid_i.obj
 0002:00005f90       _CLSID_SurrogateManager    1008df90     uuid:cguid_i.obj
 0002:00005fa0       _CLSID_ContextSwitcher     1008dfa0     uuid:cguid_i.obj
 0002:00005fb0       _CLSID_ActivationStore     1008dfb0     uuid:cguid_i.obj
 0002:00005fc0       _IID_IPropertyFrame        1008dfc0     uuid:cguid_i.obj
 0002:00005fd0       _CLSID_CFontPropPage       1008dfd0     uuid:cguid_i.obj
 0002:00005fe0       _CLSID_CColorPropPage      1008dfe0     uuid:cguid_i.obj
 0002:00005ff0       _CLSID_CPicturePropPage    1008dff0     uuid:cguid_i.obj
 0002:00006000       _CLSID_StockFontPage       1008e000     uuid:cguid_i.obj
 0002:00006010       _CLSID_StockColorPage      1008e010     uuid:cguid_i.obj
 0002:00006020       _CLSID_StockPicturePage    1008e020     uuid:cguid_i.obj
 0002:00006030       _CLSID_PersistPropset      1008e030     uuid:cguid_i.obj
 0002:00006040       _CLSID_ConvertVBX          1008e040     uuid:cguid_i.obj
 0002:00006050       _CLSID_StdFont             1008e050     uuid:cguid_i.obj
 0002:00006060       _CLSID_StdPicture          1008e060     uuid:cguid_i.obj
 0002:00006070       _GUID_HIMETRIC             1008e070     uuid:cguid_i.obj
 0002:00006080       _GUID_COLOR                1008e080     uuid:cguid_i.obj
 0002:00006090       _GUID_XPOSPIXEL            1008e090     uuid:cguid_i.obj
 0002:000060a0       _GUID_YPOSPIXEL            1008e0a0     uuid:cguid_i.obj
 0002:000060b0       _GUID_XSIZEPIXEL           1008e0b0     uuid:cguid_i.obj
 0002:000060c0       _GUID_YSIZEPIXEL           1008e0c0     uuid:cguid_i.obj
 0002:000060d0       _GUID_XPOS                 1008e0d0     uuid:cguid_i.obj
 0002:000060e0       _GUID_YPOS                 1008e0e0     uuid:cguid_i.obj
 0002:000060f0       _GUID_XSIZE                1008e0f0     uuid:cguid_i.obj
 0002:00006100       _GUID_YSIZE                1008e100     uuid:cguid_i.obj
 0002:00006110       _GUID_TRISTATE             1008e110     uuid:cguid_i.obj
 0002:00006120       _GUID_OPTIONVALUEEXCLUSIVE 1008e120     uuid:cguid_i.obj
 0002:00006130       _GUID_CHECKVALUEEXCLUSIVE  1008e130     uuid:cguid_i.obj
 0002:00006140       _GUID_FONTNAME             1008e140     uuid:cguid_i.obj
 0002:00006150       _GUID_FONTSIZE             1008e150     uuid:cguid_i.obj
 0002:00006160       _GUID_FONTBOLD             1008e160     uuid:cguid_i.obj
 0002:00006170       _GUID_FONTITALIC           1008e170     uuid:cguid_i.obj
 0002:00006180       _GUID_FONTUNDERSCORE       1008e180     uuid:cguid_i.obj
 0002:00006190       _GUID_FONTSTRIKETHROUGH    1008e190     uuid:cguid_i.obj
 0002:000061a0       _GUID_HANDLE               1008e1a0     uuid:cguid_i.obj
 0002:000061b0       _IID_StdOle                1008e1b0     uuid:cguid_i.obj
 0002:000061c0       _IID_ICursor               1008e1c0     uuid:cguid_i.obj
 0002:000061d0       _IID_ICursorMove           1008e1d0     uuid:cguid_i.obj
 0002:000061e0       _IID_ICursorScroll         1008e1e0     uuid:cguid_i.obj
 0002:000061f0       _IID_ICursorUpdateARow     1008e1f0     uuid:cguid_i.obj
 0002:00006200       _IID_INotifyDBEvents       1008e200     uuid:cguid_i.obj
 0002:00006210       _IID_ICursorFind           1008e210     uuid:cguid_i.obj
 0002:00006220       _IID_IEntryID              1008e220     uuid:cguid_i.obj
 0002:00006230       __GUID_NAMEONLY            1008e230     uuid:cguid_i.obj
 0002:00006240       __DBBMKGUID                1008e240     uuid:cguid_i.obj
 0002:00006250       __DBCIDGUID                1008e250     uuid:cguid_i.obj
 0002:00006260       _IID_IBoundObject          1008e260     uuid:cguid_i.obj
 0002:00006270       _IID_IBoundObjectSite      1008e270     uuid:cguid_i.obj
 0002:00006280       _CLSID_GblComponentCategoriesMgr 1008e280     uuid:cguid_i.obj
 0002:00006290       _CLSID_ThumbnailFCNHandler 1008e290     uuid:cguid_i.obj
 0002:000062a0       _CLSID_ThumbnailUpdater    1008e2a0     uuid:cguid_i.obj
 0002:000062b0       _IID_ICallbackWithNoReentrancyToApplicationSTA 1008e2b0     uuid:cguid_i.obj
 0002:000062c0       _CLSID_TypeLibRegistrationReader 1008e2c0     uuid:cguid_i.obj
 0002:000062d0       _GUID_DEVCLASS_1394        1008e2d0     uuid:cguid_i.obj
 0002:000062e0       _GUID_DEVCLASS_1394DEBUG   1008e2e0     uuid:cguid_i.obj
 0002:000062f0       _GUID_DEVCLASS_61883       1008e2f0     uuid:cguid_i.obj
 0002:00006300       _GUID_DEVCLASS_ADAPTER     1008e300     uuid:cguid_i.obj
 0002:00006310       _GUID_DEVCLASS_APMSUPPORT  1008e310     uuid:cguid_i.obj
 0002:00006320       _GUID_DEVCLASS_AVC         1008e320     uuid:cguid_i.obj
 0002:00006330       _GUID_DEVCLASS_BATTERY     1008e330     uuid:cguid_i.obj
 0002:00006340       _GUID_DEVCLASS_BIOMETRIC   1008e340     uuid:cguid_i.obj
 0002:00006350       _GUID_DEVCLASS_BLUETOOTH   1008e350     uuid:cguid_i.obj
 0002:00006360       _GUID_DEVCLASS_CAMERA      1008e360     uuid:cguid_i.obj
 0002:00006370       _GUID_DEVCLASS_CDROM       1008e370     uuid:cguid_i.obj
 0002:00006380       _GUID_DEVCLASS_COMPUTEACCELERATOR 1008e380     uuid:cguid_i.obj
 0002:00006390       _GUID_DEVCLASS_COMPUTER    1008e390     uuid:cguid_i.obj
 0002:000063a0       _GUID_DEVCLASS_DECODER     1008e3a0     uuid:cguid_i.obj
 0002:000063b0       _GUID_DEVCLASS_DISKDRIVE   1008e3b0     uuid:cguid_i.obj
 0002:000063c0       _GUID_DEVCLASS_DISPLAY     1008e3c0     uuid:cguid_i.obj
 0002:000063d0       _GUID_DEVCLASS_DOT4        1008e3d0     uuid:cguid_i.obj
 0002:000063e0       _GUID_DEVCLASS_DOT4PRINT   1008e3e0     uuid:cguid_i.obj
 0002:000063f0       _GUID_DEVCLASS_EHSTORAGESILO 1008e3f0     uuid:cguid_i.obj
 0002:00006400       _GUID_DEVCLASS_ENUM1394    1008e400     uuid:cguid_i.obj
 0002:00006410       _GUID_DEVCLASS_EXTENSION   1008e410     uuid:cguid_i.obj
 0002:00006420       _GUID_DEVCLASS_FDC         1008e420     uuid:cguid_i.obj
 0002:00006430       _GUID_DEVCLASS_FIRMWARE    1008e430     uuid:cguid_i.obj
 0002:00006440       _GUID_DEVCLASS_FLOPPYDISK  1008e440     uuid:cguid_i.obj
 0002:00006450       _GUID_DEVCLASS_GPS         1008e450     uuid:cguid_i.obj
 0002:00006460       _GUID_DEVCLASS_HDC         1008e460     uuid:cguid_i.obj
 0002:00006470       _GUID_DEVCLASS_HIDCLASS    1008e470     uuid:cguid_i.obj
 0002:00006480       _GUID_DEVCLASS_HOLOGRAPHIC 1008e480     uuid:cguid_i.obj
 0002:00006490       _GUID_DEVCLASS_IMAGE       1008e490     uuid:cguid_i.obj
 0002:000064a0       _GUID_DEVCLASS_INFINIBAND  1008e4a0     uuid:cguid_i.obj
 0002:000064b0       _GUID_DEVCLASS_INFRARED    1008e4b0     uuid:cguid_i.obj
 0002:000064c0       _GUID_DEVCLASS_KEYBOARD    1008e4c0     uuid:cguid_i.obj
 0002:000064d0       _GUID_DEVCLASS_LEGACYDRIVER 1008e4d0     uuid:cguid_i.obj
 0002:000064e0       _GUID_DEVCLASS_MEDIA       1008e4e0     uuid:cguid_i.obj
 0002:000064f0       _GUID_DEVCLASS_MEDIUM_CHANGER 1008e4f0     uuid:cguid_i.obj
 0002:00006500       _GUID_DEVCLASS_MEMORY      1008e500     uuid:cguid_i.obj
 0002:00006510       _GUID_DEVCLASS_MODEM       1008e510     uuid:cguid_i.obj
 0002:00006520       _GUID_DEVCLASS_MONITOR     1008e520     uuid:cguid_i.obj
 0002:00006530       _GUID_DEVCLASS_MOUSE       1008e530     uuid:cguid_i.obj
 0002:00006540       _GUID_DEVCLASS_MTD         1008e540     uuid:cguid_i.obj
 0002:00006550       _GUID_DEVCLASS_MULTIFUNCTION 1008e550     uuid:cguid_i.obj
 0002:00006560       _GUID_DEVCLASS_MULTIPORTSERIAL 1008e560     uuid:cguid_i.obj
 0002:00006570       _GUID_DEVCLASS_NET         1008e570     uuid:cguid_i.obj
 0002:00006580       _GUID_DEVCLASS_NETCLIENT   1008e580     uuid:cguid_i.obj
 0002:00006590       _GUID_DEVCLASS_NETDRIVER   1008e590     uuid:cguid_i.obj
 0002:000065a0       _GUID_DEVCLASS_NETSERVICE  1008e5a0     uuid:cguid_i.obj
 0002:000065b0       _GUID_DEVCLASS_NETTRANS    1008e5b0     uuid:cguid_i.obj
 0002:000065c0       _GUID_DEVCLASS_NODRIVER    1008e5c0     uuid:cguid_i.obj
 0002:000065d0       _GUID_DEVCLASS_PCMCIA      1008e5d0     uuid:cguid_i.obj
 0002:000065e0       _GUID_DEVCLASS_PNPPRINTERS 1008e5e0     uuid:cguid_i.obj
 0002:000065f0       _GUID_DEVCLASS_PORTS       1008e5f0     uuid:cguid_i.obj
 0002:00006600       _GUID_DEVCLASS_PRINTER     1008e600     uuid:cguid_i.obj
 0002:00006610       _GUID_DEVCLASS_PRINTERUPGRADE 1008e610     uuid:cguid_i.obj
 0002:00006620       _GUID_DEVCLASS_PRINTQUEUE  1008e620     uuid:cguid_i.obj
 0002:00006630       _GUID_DEVCLASS_PROCESSOR   1008e630     uuid:cguid_i.obj
 0002:00006640       _GUID_DEVCLASS_SBP2        1008e640     uuid:cguid_i.obj
 0002:00006650       _GUID_DEVCLASS_SCMDISK     1008e650     uuid:cguid_i.obj
 0002:00006660       _GUID_DEVCLASS_SCMVOLUME   1008e660     uuid:cguid_i.obj
 0002:00006670       _GUID_DEVCLASS_SCSIADAPTER 1008e670     uuid:cguid_i.obj
 0002:00006680       _GUID_DEVCLASS_SECURITYACCELERATOR 1008e680     uuid:cguid_i.obj
 0002:00006690       _GUID_DEVCLASS_SENSOR      1008e690     uuid:cguid_i.obj
 0002:000066a0       _GUID_DEVCLASS_SIDESHOW    1008e6a0     uuid:cguid_i.obj
 0002:000066b0       _GUID_DEVCLASS_SMARTCARDREADER 1008e6b0     uuid:cguid_i.obj
 0002:000066c0       _GUID_DEVCLASS_SMRDISK     1008e6c0     uuid:cguid_i.obj
 0002:000066d0       _GUID_DEVCLASS_SMRVOLUME   1008e6d0     uuid:cguid_i.obj
 0002:000066e0       _GUID_DEVCLASS_SOFTWARECOMPONENT 1008e6e0     uuid:cguid_i.obj
 0002:000066f0       _GUID_DEVCLASS_SOUND       1008e6f0     uuid:cguid_i.obj
 0002:00006700       _GUID_DEVCLASS_SYSTEM      1008e700     uuid:cguid_i.obj
 0002:00006710       _GUID_DEVCLASS_TAPEDRIVE   1008e710     uuid:cguid_i.obj
 0002:00006720       _GUID_DEVCLASS_UNKNOWN     1008e720     uuid:cguid_i.obj
 0002:00006730       _GUID_DEVCLASS_UCM         1008e730     uuid:cguid_i.obj
 0002:00006740       _GUID_DEVCLASS_USB         1008e740     uuid:cguid_i.obj
 0002:00006750       _GUID_DEVCLASS_VOLUME      1008e750     uuid:cguid_i.obj
 0002:00006760       _GUID_DEVCLASS_VOLUMESNAPSHOT 1008e760     uuid:cguid_i.obj
 0002:00006770       _GUID_DEVCLASS_WCEUSBS     1008e770     uuid:cguid_i.obj
 0002:00006780       _GUID_DEVCLASS_WPD         1008e780     uuid:cguid_i.obj
 0002:00006790       _GUID_DEVCLASS_FSFILTER_TOP 1008e790     uuid:cguid_i.obj
 0002:000067a0       _GUID_DEVCLASS_FSFILTER_ACTIVITYMONITOR 1008e7a0     uuid:cguid_i.obj
 0002:000067b0       _GUID_DEVCLASS_FSFILTER_UNDELETE 1008e7b0     uuid:cguid_i.obj
 0002:000067c0       _GUID_DEVCLASS_FSFILTER_ANTIVIRUS 1008e7c0     uuid:cguid_i.obj
 0002:000067d0       _GUID_DEVCLASS_FSFILTER_REPLICATION 1008e7d0     uuid:cguid_i.obj
 0002:000067e0       _GUID_DEVCLASS_FSFILTER_CONTINUOUSBACKUP 1008e7e0     uuid:cguid_i.obj
 0002:000067f0       _GUID_DEVCLASS_FSFILTER_CONTENTSCREENER 1008e7f0     uuid:cguid_i.obj
 0002:00006800       _GUID_DEVCLASS_FSFILTER_QUOTAMANAGEMENT 1008e800     uuid:cguid_i.obj
 0002:00006810       _GUID_DEVCLASS_FSFILTER_SYSTEMRECOVERY 1008e810     uuid:cguid_i.obj
 0002:00006820       _GUID_DEVCLASS_FSFILTER_CFSMETADATASERVER 1008e820     uuid:cguid_i.obj
 0002:00006830       _GUID_DEVCLASS_FSFILTER_HSM 1008e830     uuid:cguid_i.obj
 0002:00006840       _GUID_DEVCLASS_FSFILTER_COMPRESSION 1008e840     uuid:cguid_i.obj
 0002:00006850       _GUID_DEVCLASS_FSFILTER_ENCRYPTION 1008e850     uuid:cguid_i.obj
 0002:00006860       _GUID_DEVCLASS_FSFILTER_VIRTUALIZATION 1008e860     uuid:cguid_i.obj
 0002:00006870       _GUID_DEVCLASS_FSFILTER_PHYSICALQUOTAMANAGEMENT 1008e870     uuid:cguid_i.obj
 0002:00006880       _GUID_DEVCLASS_FSFILTER_OPENFILEBACKUP 1008e880     uuid:cguid_i.obj
 0002:00006890       _GUID_DEVCLASS_FSFILTER_SECURITYENHANCER 1008e890     uuid:cguid_i.obj
 0002:000068a0       _GUID_DEVCLASS_FSFILTER_COPYPROTECTION 1008e8a0     uuid:cguid_i.obj
 0002:000068b0       _GUID_DEVCLASS_FSFILTER_BOTTOM 1008e8b0     uuid:cguid_i.obj
 0002:000068c0       _GUID_DEVCLASS_FSFILTER_SYSTEM 1008e8c0     uuid:cguid_i.obj
 0002:000068d0       _GUID_DEVCLASS_FSFILTER_INFRASTRUCTURE 1008e8d0     uuid:cguid_i.obj
 0002:000068e0       _GUID_DEVINTERFACE_DISK    1008e8e0     uuid:cguid_i.obj
 0002:000068f0       _GUID_DEVINTERFACE_CDROM   1008e8f0     uuid:cguid_i.obj
 0002:00006900       _GUID_DEVINTERFACE_PARTITION 1008e900     uuid:cguid_i.obj
 0002:00006910       _GUID_DEVINTERFACE_TAPE    1008e910     uuid:cguid_i.obj
 0002:00006920       _GUID_DEVINTERFACE_WRITEONCEDISK 1008e920     uuid:cguid_i.obj
 0002:00006930       _GUID_DEVINTERFACE_VOLUME  1008e930     uuid:cguid_i.obj
 0002:00006940       _GUID_DEVINTERFACE_MEDIUMCHANGER 1008e940     uuid:cguid_i.obj
 0002:00006950       _GUID_DEVINTERFACE_FLOPPY  1008e950     uuid:cguid_i.obj
 0002:00006960       _GUID_DEVINTERFACE_CDCHANGER 1008e960     uuid:cguid_i.obj
 0002:00006970       _GUID_DEVINTERFACE_STORAGEPORT 1008e970     uuid:cguid_i.obj
 0002:00006980       _GUID_DEVINTERFACE_VMLUN   1008e980     uuid:cguid_i.obj
 0002:00006990       _GUID_DEVINTERFACE_SES     1008e990     uuid:cguid_i.obj
 0002:000069a0       _GUID_DEVINTERFACE_SERVICE_VOLUME 1008e9a0     uuid:cguid_i.obj
 0002:000069b0       _GUID_DEVINTERFACE_HIDDEN_VOLUME 1008e9b0     uuid:cguid_i.obj
 0002:000069c0       _GUID_DEVINTERFACE_UNIFIED_ACCESS_RPMB 1008e9c0     uuid:cguid_i.obj
 0002:000069d0       _GUID_DEVINTERFACE_SCM_PHYSICAL_DEVICE 1008e9d0     uuid:cguid_i.obj
 0002:000069e0       _GUID_SCM_PD_HEALTH_NOTIFICATION 1008e9e0     uuid:cguid_i.obj
 0002:000069f0       _GUID_SCM_PD_PASSTHROUGH_INVDIMM 1008e9f0     uuid:cguid_i.obj
 0002:00006a00       _GUID_DEVINTERFACE_COMPORT 1008ea00     uuid:cguid_i.obj
 0002:00006a10       _GUID_DEVINTERFACE_SERENUM_BUS_ENUMERATOR 1008ea10     uuid:cguid_i.obj
 0002:00006a20       _CLSID_StdURLMoniker       1008ea20     uuid:ieguids.obj
 0002:00006a30       _CLSID_StdURLProtocol      1008ea30     uuid:ieguids.obj
 0002:00006a40       _CLSID_HttpProtocol        1008ea40     uuid:ieguids.obj
 0002:00006a50       _CLSID_FtpProtocol         1008ea50     uuid:ieguids.obj
 0002:00006a60       _CLSID_GopherProtocol      1008ea60     uuid:ieguids.obj
 0002:00006a70       _CLSID_HttpSProtocol       1008ea70     uuid:ieguids.obj
 0002:00006a80       _CLSID_MkProtocol          1008ea80     uuid:ieguids.obj
 0002:00006a90       _CLSID_FileProtocol        1008ea90     uuid:ieguids.obj
 0002:00006aa0       _CLSID_PSUrlMonProxy       1008eaa0     uuid:ieguids.obj
 0002:00006ab0       _CLSID_UrlMkBindCtx        1008eab0     uuid:ieguids.obj
 0002:00006ac0       _CLSID_ResProtocol         1008eac0     uuid:ieguids.obj
 0002:00006ad0       _CLSID_AboutProtocol       1008ead0     uuid:ieguids.obj
 0002:00006ae0       _CLSID_JSProtocol          1008eae0     uuid:ieguids.obj
 0002:00006af0       _CLSID_MailtoProtocol      1008eaf0     uuid:ieguids.obj
 0002:00006b00       _CLSID_TBAuthProtocol      1008eb00     uuid:ieguids.obj
 0002:00006b10       _CLSID_IE4_PROTOCOLS       1008eb10     uuid:ieguids.obj
 0002:00006b20       _IID_IAsyncMoniker         1008eb20     uuid:ieguids.obj
 0002:00006b30       _IID_IBindStatusCallbackHolder 1008eb30     uuid:ieguids.obj
 0002:00006b40       _IID_IAsyncBindCtx         1008eb40     uuid:ieguids.obj
 0002:00006b50       _IID_IBindStatusCallbackMsg 1008eb50     uuid:ieguids.obj
 0002:00006b60       _IID_IDebugRegister        1008eb60     uuid:ieguids.obj
 0002:00006b70       _IID_IDebugOut             1008eb70     uuid:ieguids.obj
 0002:00006b80       _CLSID_StdNotificationMgr  1008eb80     uuid:ieguids.obj
 0002:00006b90       _CLSID_WebCheckDefaultProcess 1008eb90     uuid:ieguids.obj
 0002:00006ba0       _IID_IEnumPropertyMap      1008eba0     uuid:ieguids.obj
 0002:00006bb0       _IID_IPropertyMap          1008ebb0     uuid:ieguids.obj
 0002:00006bc0       _IID_INotification         1008ebc0     uuid:ieguids.obj
 0002:00006bd0       _IID_INotificationMgr      1008ebd0     uuid:ieguids.obj
 0002:00006be0       _IID_INotificationSink     1008ebe0     uuid:ieguids.obj
 0002:00006bf0       _IID_IScheduleGroup        1008ebf0     uuid:ieguids.obj
 0002:00006c00       _IID_INotificationReport   1008ec00     uuid:ieguids.obj
 0002:00006c10       _IID_IEnumNotification     1008ec10     uuid:ieguids.obj
 0002:00006c20       _IID_IEnumScheduleGroup    1008ec20     uuid:ieguids.obj
 0002:00006c30       _IID_IEnumNotificationSinkItem 1008ec30     uuid:ieguids.obj
 0002:00006c40       _IID_INotificationHelper   1008ec40     uuid:ieguids.obj
 0002:00006c50       _IID_INotificationPing     1008ec50     uuid:ieguids.obj
 0002:00006c60       _IID_INotificationRunning  1008ec60     uuid:ieguids.obj
 0002:00006c70       _IID_INotificationProcessMgr0 1008ec70     uuid:ieguids.obj
 0002:00006c80       _IID_IOInet                1008ec80     uuid:ieguids.obj
 0002:00006c90       _IID_IOInetBindInfo        1008ec90     uuid:ieguids.obj
 0002:00006ca0       _IID_IOInetBindClient      1008eca0     uuid:ieguids.obj
 0002:00006cb0       _IID_IOInetProtocolRoot    1008ecb0     uuid:ieguids.obj
 0002:00006cc0       _IID_IOInetProtocol        1008ecc0     uuid:ieguids.obj
 0002:00006cd0       _IID_IOInetProtocolSink    1008ecd0     uuid:ieguids.obj
 0002:00006ce0       _IID_IOInetSession         1008ece0     uuid:ieguids.obj
 0002:00006cf0       _IID_IOInetThreadSwitch    1008ecf0     uuid:ieguids.obj
 0002:00006d00       _IID_IOInetCache           1008ed00     uuid:ieguids.obj
 0002:00006d10       _IID_IOInetPriority        1008ed10     uuid:ieguids.obj
 0002:00006d20       _IID_IOInetProtocolInfo    1008ed20     uuid:ieguids.obj
 0002:00006d30       _CLSID_GLOBAL_BROADCAST    1008ed30     uuid:ieguids.obj
 0002:00006d40       _CLSID_PROCESS_BROADCAST   1008ed40     uuid:ieguids.obj
 0002:00006d50       _CLSID_THREAD_BROADCAST    1008ed50     uuid:ieguids.obj
 0002:00006d60       _CLSID_1                   1008ed60     uuid:ieguids.obj
 0002:00006d70       _CLSID_2                   1008ed70     uuid:ieguids.obj
 0002:00006d80       _CLSID_3                   1008ed80     uuid:ieguids.obj
 0002:00006d90       _CLSID_4                   1008ed90     uuid:ieguids.obj
 0002:00006da0       _CLSID_5                   1008eda0     uuid:ieguids.obj
 0002:00006db0       _CLSID_6                   1008edb0     uuid:ieguids.obj
 0002:00006dc0       _CLSID_7                   1008edc0     uuid:ieguids.obj
 0002:00006dd0       _CLSID_8                   1008edd0     uuid:ieguids.obj
 0002:00006de0       _CLSID_9                   1008ede0     uuid:ieguids.obj
 0002:00006df0       _CLSID_a                   1008edf0     uuid:ieguids.obj
 0002:00006e00       _CLSID_b                   1008ee00     uuid:ieguids.obj
 0002:00006e10       _CLSID_c                   1008ee10     uuid:ieguids.obj
 0002:00006e20       _CLSID_d                   1008ee20     uuid:ieguids.obj
 0002:00006e30       _NOTIFICATIONTYPE_ITEM_START 1008ee30     uuid:ieguids.obj
 0002:00006e40       _NOTIFICATIONTYPE_ITEM_RESTART 1008ee40     uuid:ieguids.obj
 0002:00006e50       _NOTIFICATIONTYPE_ITEM_DONE 1008ee50     uuid:ieguids.obj
 0002:00006e60       _NOTIFICATIONTYPE_GROUP_START 1008ee60     uuid:ieguids.obj
 0002:00006e70       _NOTIFICATIONTYPE_GROUP_RESTART 1008ee70     uuid:ieguids.obj
 0002:00006e80       _NOTIFICATIONTYPE_GROUP_DONE 1008ee80     uuid:ieguids.obj
 0002:00006e90       _NOTIFICATIONTYPE_i6       1008ee90     uuid:ieguids.obj
 0002:00006ea0       _NOTIFICATIONTYPE_i7       1008eea0     uuid:ieguids.obj
 0002:00006eb0       _NOTIFICATIONTYPE_i8       1008eeb0     uuid:ieguids.obj
 0002:00006ec0       _NOTIFICATIONTYPE_i9       1008eec0     uuid:ieguids.obj
 0002:00006ed0       _NOTIFICATIONTYPE_iA       1008eed0     uuid:ieguids.obj
 0002:00006ee0       _NOTIFICATIONTYPE_iB       1008eee0     uuid:ieguids.obj
 0002:00006ef0       _NOTIFICATIONTYPE_iC       1008eef0     uuid:ieguids.obj
 0002:00006f00       _NOTIFICATIONTYPE_iD       1008ef00     uuid:ieguids.obj
 0002:00006f10       _NOTIFICATIONTYPE_iE       1008ef10     uuid:ieguids.obj
 0002:00006f20       _NOTIFICATIONTYPE_iF       1008ef20     uuid:ieguids.obj
 0002:00006f30       _NOTFCOOKIE_SCHEDULE_GROUP_DAILY 1008ef30     uuid:ieguids.obj
 0002:00006f40       _NOTFCOOKIE_SCHEDULE_GROUP_WEEKLY 1008ef40     uuid:ieguids.obj
 0002:00006f50       _NOTFCOOKIE_SCHEDULE_GROUP_MONTHLY 1008ef50     uuid:ieguids.obj
 0002:00006f60       _NOTFCOOKIE_SCHEDULE_GROUP_MANUAL 1008ef60     uuid:ieguids.obj
 0002:00006f70       _NOTIFICATIONTYPE_NULL     1008ef70     uuid:ieguids.obj
 0002:00006f80       _NOTIFICATIONTYPE_ANOUNCMENT 1008ef80     uuid:ieguids.obj
 0002:00006f90       _NOTIFICATIONTYPE_TASK     1008ef90     uuid:ieguids.obj
 0002:00006fa0       _NOTIFICATIONTYPE_ALERT    1008efa0     uuid:ieguids.obj
 0002:00006fb0       _NOTIFICATIONTYPE_INET_IDLE 1008efb0     uuid:ieguids.obj
 0002:00006fc0       _NOTIFICATIONTYPE_INET_OFFLINE 1008efc0     uuid:ieguids.obj
 0002:00006fd0       _NOTIFICATIONTYPE_INET_ONLINE 1008efd0     uuid:ieguids.obj
 0002:00006fe0       _NOTIFICATIONTYPE_TASKS_SUSPEND 1008efe0     uuid:ieguids.obj
 0002:00006ff0       _NOTIFICATIONTYPE_TASKS_RESUME 1008eff0     uuid:ieguids.obj
 0002:00007000       _NOTIFICATIONTYPE_TASKS_ABORT 1008f000     uuid:ieguids.obj
 0002:00007010       _NOTIFICATIONTYPE_TASKS_COMPLETED 1008f010     uuid:ieguids.obj
 0002:00007020       _NOTIFICATIONTYPE_TASKS_PROGRESS 1008f020     uuid:ieguids.obj
 0002:00007030       _NOTIFICATIONTYPE_AGENT_START 1008f030     uuid:ieguids.obj
 0002:00007040       _NOTIFICATIONTYPE_BEGIN_REPORT 1008f040     uuid:ieguids.obj
 0002:00007050       _NOTIFICATIONTYPE_END_REPORT 1008f050     uuid:ieguids.obj
 0002:00007060       _NOTIFICATIONTYPE_AGENT_INIT 1008f060     uuid:ieguids.obj
 0002:00007070       _NOTIFICATIONTYPE_CONNECT_TO_INTERNET 1008f070     uuid:ieguids.obj
 0002:00007080       _NOTIFICATIONTYPE_DISCONNECT_FROM_INTERNET 1008f080     uuid:ieguids.obj
 0002:00007090       _NOTIFICATIONTYPE_CONFIG_CHANGED 1008f090     uuid:ieguids.obj
 0002:000070a0       _NOTIFICATIONTYPE_PROGRESS_REPORT 1008f0a0     uuid:ieguids.obj
 0002:000070b0       _NOTIFICATIONTYPE_USER_IDLE_BEGIN 1008f0b0     uuid:ieguids.obj
 0002:000070c0       _NOTIFICATIONTYPE_USER_IDLE_END 1008f0c0     uuid:ieguids.obj
 0002:000070d0       _NOTIFICATIONTYPE_TASKS_STARTED 1008f0d0     uuid:ieguids.obj
 0002:000070e0       _NOTIFICATIONTYPE_TASKS_ERROR 1008f0e0     uuid:ieguids.obj
 0002:000070f0       _NOTIFICATIONTYPE_d        1008f0f0     uuid:ieguids.obj
 0002:00007100       _NOTIFICATIONTYPE_e        1008f100     uuid:ieguids.obj
 0002:00007110       _NOTIFICATIONTYPE_f        1008f110     uuid:ieguids.obj
 0002:00007120       _NOTIFICATIONTYPE_11       1008f120     uuid:ieguids.obj
 0002:00007130       _NOTIFICATIONTYPE_12       1008f130     uuid:ieguids.obj
 0002:00007140       _NOTIFICATIONTYPE_13       1008f140     uuid:ieguids.obj
 0002:00007150       _NOTIFICATIONTYPE_14       1008f150     uuid:ieguids.obj
 0002:00007160       _NOTIFICATIONTYPE_15       1008f160     uuid:ieguids.obj
 0002:00007170       _NOTIFICATIONTYPE_START_0  1008f170     uuid:ieguids.obj
 0002:00007180       _NOTIFICATIONTYPE_START_1  1008f180     uuid:ieguids.obj
 0002:00007190       _NOTIFICATIONTYPE_START_2  1008f190     uuid:ieguids.obj
 0002:000071a0       _NOTIFICATIONTYPE_START_3  1008f1a0     uuid:ieguids.obj
 0002:000071b0       _NOTIFICATIONTYPE_START_4  1008f1b0     uuid:ieguids.obj
 0002:000071c0       _NOTIFICATIONTYPE_START_5  1008f1c0     uuid:ieguids.obj
 0002:000071d0       _NOTIFICATIONTYPE_START_6  1008f1d0     uuid:ieguids.obj
 0002:000071e0       _NOTIFICATIONTYPE_START_7  1008f1e0     uuid:ieguids.obj
 0002:000071f0       _NOTIFICATIONTYPE_START_8  1008f1f0     uuid:ieguids.obj
 0002:00007200       _NOTIFICATIONTYPE_START_9  1008f200     uuid:ieguids.obj
 0002:00007210       _NOTIFICATIONTYPE_START_A  1008f210     uuid:ieguids.obj
 0002:00007220       _NOTIFICATIONTYPE_START_B  1008f220     uuid:ieguids.obj
 0002:00007230       _NOTIFICATIONTYPE_START_C  1008f230     uuid:ieguids.obj
 0002:00007240       _NOTIFICATIONTYPE_START_D  1008f240     uuid:ieguids.obj
 0002:00007250       _NOTIFICATIONTYPE_START_E  1008f250     uuid:ieguids.obj
 0002:00007260       _NOTIFICATIONTYPE_START_F  1008f260     uuid:ieguids.obj
 0002:00007270       _CLSID_NotificaitonTest1   1008f270     uuid:ieguids.obj
 0002:00007280       _CLSID_NotificaitonTest2   1008f280     uuid:ieguids.obj
 0002:00007290       _CLSID_NotificaitonTest3   1008f290     uuid:ieguids.obj
 0002:000072a0       _CLSID_NotificaitonTest4   1008f2a0     uuid:ieguids.obj
 0002:000072b0       _CLSID_CdlProtocol         1008f2b0     uuid:ieguids.obj
 0002:000072c0       _CLSID_ClassInstallFilter  1008f2c0     uuid:ieguids.obj
 0002:000072d0       _LIBID_Accessibility       1008f2d0     uuid:ieguids.obj
 0002:000072e0       _IID_IAccessible           1008f2e0     uuid:ieguids.obj
 0002:000072f0       _IIS_ControlAccessible     1008f2f0     uuid:ieguids.obj
 0002:00007300       _SID_SContainerDispatch    1008f300     uuid:ieguids.obj
 0002:00007310       _SID_SDataPathBrowser      1008f310     uuid:ieguids.obj
 0002:00007320       _GUID_PathProperty         1008f320     uuid:ieguids.obj
 0002:00007330       _GUID_HasPathProperties    1008f330     uuid:ieguids.obj
 0002:00007340       _CLSID_StdHlink            1008f340     uuid:ieguids.obj
 0002:00007350       _CLSID_StdHlinkBrowseContext 1008f350     uuid:ieguids.obj
 0002:00007360       _OLE_DATAPATH_BMP          1008f360     uuid:ieguids.obj
 0002:00007370       _OLE_DATAPATH_DIB          1008f370     uuid:ieguids.obj
 0002:00007380       _OLE_DATAPATH_WMF          1008f380     uuid:ieguids.obj
 0002:00007390       _OLE_DATAPATH_ENHMF        1008f390     uuid:ieguids.obj
 0002:000073a0       _OLE_DATAPATH_GIF          1008f3a0     uuid:ieguids.obj
 0002:000073b0       _OLE_DATAPATH_JPEG         1008f3b0     uuid:ieguids.obj
 0002:000073c0       _OLE_DATAPATH_TIFF         1008f3c0     uuid:ieguids.obj
 0002:000073d0       _OLE_DATAPATH_XBM          1008f3d0     uuid:ieguids.obj
 0002:000073e0       _OLE_DATAPATH_PCX          1008f3e0     uuid:ieguids.obj
 0002:000073f0       _OLE_DATAPATH_PICT         1008f3f0     uuid:ieguids.obj
 0002:00007400       _OLE_DATAPATH_CGM          1008f400     uuid:ieguids.obj
 0002:00007410       _OLE_DATAPATH_EPS          1008f410     uuid:ieguids.obj
 0002:00007420       _OLE_DATAPATH_COMMONIMAGE  1008f420     uuid:ieguids.obj
 0002:00007430       _OLE_DATAPATH_ALLIMAGE     1008f430     uuid:ieguids.obj
 0002:00007440       _OLE_DATAPATH_AVI          1008f440     uuid:ieguids.obj
 0002:00007450       _OLE_DATAPATH_MPEG         1008f450     uuid:ieguids.obj
 0002:00007460       _OLE_DATAPATH_QUICKTIME    1008f460     uuid:ieguids.obj
 0002:00007470       _OLE_DATAPATH_BASICAUDIO   1008f470     uuid:ieguids.obj
 0002:00007480       _OLE_DATAPATH_MIDI         1008f480     uuid:ieguids.obj
 0002:00007490       _OLE_DATAPATH_WAV          1008f490     uuid:ieguids.obj
 0002:000074a0       _OLE_DATAPATH_RIFF         1008f4a0     uuid:ieguids.obj
 0002:000074b0       _OLE_DATAPATH_SOUND        1008f4b0     uuid:ieguids.obj
 0002:000074c0       _OLE_DATAPATH_VIDEO        1008f4c0     uuid:ieguids.obj
 0002:000074d0       _OLE_DATAPATH_ALLMM        1008f4d0     uuid:ieguids.obj
 0002:000074e0       _OLE_DATAPATH_ANSITEXT     1008f4e0     uuid:ieguids.obj
 0002:000074f0       _OLE_DATAPATH_UNICODE      1008f4f0     uuid:ieguids.obj
 0002:00007500       _OLE_DATAPATH_RTF          1008f500     uuid:ieguids.obj
 0002:00007510       _OLE_DATAPATH_HTML         1008f510     uuid:ieguids.obj
 0002:00007520       _OLE_DATAPATH_POSTSCRIPT   1008f520     uuid:ieguids.obj
 0002:00007530       _OLE_DATAPATH_ALLTEXT      1008f530     uuid:ieguids.obj
 0002:00007540       _OLE_DATAPATH_DIF          1008f540     uuid:ieguids.obj
 0002:00007550       _OLE_DATAPATH_SYLK         1008f550     uuid:ieguids.obj
 0002:00007560       _OLE_DATAPATH_BIFF         1008f560     uuid:ieguids.obj
 0002:00007570       _OLE_DATAPATH_PALETTE      1008f570     uuid:ieguids.obj
 0002:00007580       _OLE_DATAPATH_PENDATA      1008f580     uuid:ieguids.obj
 0002:00007590       _FLAGID_Internet           1008f590     uuid:ieguids.obj
 0002:000075a0       _ARRAYID_PathProperties    1008f5a0     uuid:ieguids.obj
 0002:000075b0       _CLSID_StdComponentCategoriesMgr 1008f5b0     uuid:ieguids.obj
 0002:000075c0       _CATID_Insertable          1008f5c0     uuid:ieguids.obj
 0002:000075d0       _CATID_Control             1008f5d0     uuid:ieguids.obj
 0002:000075e0       _CATID_Programmable        1008f5e0     uuid:ieguids.obj
 0002:000075f0       _CATID_IsShortcut          1008f5f0     uuid:ieguids.obj
 0002:00007600       _CATID_NeverShowExt        1008f600     uuid:ieguids.obj
 0002:00007610       _CATID_DocObject           1008f610     uuid:ieguids.obj
 0002:00007620       _CATID_Printable           1008f620     uuid:ieguids.obj
 0002:00007630       _CATID_RequiresDataPathHost 1008f630     uuid:ieguids.obj
 0002:00007640       _CATID_PersistsToMoniker   1008f640     uuid:ieguids.obj
 0002:00007650       _CATID_PersistsToStorage   1008f650     uuid:ieguids.obj
 0002:00007660       _CATID_PersistsToStreamInit 1008f660     uuid:ieguids.obj
 0002:00007670       _CATID_PersistsToStream    1008f670     uuid:ieguids.obj
 0002:00007680       _CATID_PersistsToMemory    1008f680     uuid:ieguids.obj
 0002:00007690       _CATID_PersistsToFile      1008f690     uuid:ieguids.obj
 0002:000076a0       _CATID_PersistsToPropertyBag 1008f6a0     uuid:ieguids.obj
 0002:000076b0       _CATID_InternetAware       1008f6b0     uuid:ieguids.obj
 0002:000076c0       _CATID_SafeForScripting    1008f6c0     uuid:ieguids.obj
 0002:000076d0       _CATID_SafeForInitializing 1008f6d0     uuid:ieguids.obj
 0002:000076e0       _CATID_DesignTimeUIActivatableControl 1008f6e0     uuid:ieguids.obj
 0002:000076f0       _CATID_AppContainerCompatible 1008f6f0     uuid:ieguids.obj
 0002:00007700       _CATID_ExtensionValidation 1008f700     uuid:ieguids.obj
 0002:00007710       _CLSID_IImgCtx             1008f710     uuid:ieguids.obj
 0002:00007720       _IID_IImgCtx               1008f720     uuid:ieguids.obj
 0002:00007730       _CLSID_IImageDecodeFilter  1008f730     uuid:ieguids.obj
 0002:00007740       _CGID_MSHTML               1008f740     uuid:ieguids.obj
 0002:00007750       _CLSID_MHTMLDocument       1008f750     uuid:ieguids.obj
 0002:00007760       _CLSID_HTADocument         1008f760     uuid:ieguids.obj
 0002:00007770       _CLSID_HTMLApplication     1008f770     uuid:ieguids.obj
 0002:00007780       _CLSID_HTMLPluginDocument  1008f780     uuid:ieguids.obj
 0002:00007790       _CGID_DocHostCommandHandler 1008f790     uuid:ieguids.obj
 0002:000077a0       _SID_SHTMLEditServices     1008f7a0     uuid:ieguids.obj
 0002:000077b0       _CGID_ScriptSite           1008f7b0     uuid:ieguids.obj
 0002:000077c0       _CLSID_IEXMLDocument       1008f7c0     uuid:ieguids.obj
 0002:000077d0       _CLSID_SVGDocument         1008f7d0     uuid:ieguids.obj
 0002:000077e0       _CLSID_XHTMLDocument       1008f7e0     uuid:ieguids.obj
 0002:000077f0       _CLSID_TDC                 1008f7f0     uuid:ieguids.obj
 0002:00007800       _BFID_MONOCHROME           1008f800     uuid:ieguids.obj
 0002:00007810       _BFID_RGB_4                1008f810     uuid:ieguids.obj
 0002:00007820       _BFID_RGB_8                1008f820     uuid:ieguids.obj
 0002:00007830       _BFID_RGB_555              1008f830     uuid:ieguids.obj
 0002:00007840       _BFID_RGB_565              1008f840     uuid:ieguids.obj
 0002:00007850       _BFID_RGB_24               1008f850     uuid:ieguids.obj
 0002:00007860       _BFID_RGB_32               1008f860     uuid:ieguids.obj
 0002:00007870       _BFID_RGBA_32              1008f870     uuid:ieguids.obj
 0002:00007880       _BFID_GRAY_8               1008f880     uuid:ieguids.obj
 0002:00007890       _BFID_GRAY_16              1008f890     uuid:ieguids.obj
 0002:000078a0       _CLSID_IntDitherer         1008f8a0     uuid:ieguids.obj
 0002:000078b0       _IID_IIntDitherer          1008f8b0     uuid:ieguids.obj
 0002:000078c0       _NAMEDTIMER_DRAW           1008f8c0     uuid:ieguids.obj
 0002:000078d0       _CLSID_SoftDistExt         1008f8d0     uuid:ieguids.obj
 0002:000078e0       _CLSID_IActiveXSafetyProvider 1008f8e0     uuid:ieguids.obj
 0002:000078f0       _CLSID_InternetSecurityManager 1008f8f0     uuid:ieguids.obj
 0002:00007900       _CLSID_InternetZoneManager 1008f900     uuid:ieguids.obj
 0002:00007910       _GUID_CUSTOM_LOCALMACHINEZONEUNLOCKED 1008f910     uuid:ieguids.obj
 0002:00007920       _CLSID_PersistentZoneIdentifier 1008f920     uuid:ieguids.obj
 0002:00007930       _CLSID_HTMLLoadOptions     1008f930     uuid:ieguids.obj
 0002:00007940       _CLSID_SubscriptionThrottler 1008f940     uuid:ieguids.obj
 0002:00007950       _CGID_DownloadHost         1008f950     uuid:ieguids.obj
 0002:00007960       _CGID_InternetExplorer     1008f960     uuid:ieguids.obj
 0002:00007970       _SID_SVersionHost          1008f970     uuid:ieguids.obj
 0002:00007980       _CLSID_XFeedsManager       1008f980     uuid:ieguids.obj
 0002:00007990       _OID_INIPropStorage        1008f990     uuid:ieguids.obj
 0002:000079a0       _SID_SNewWindowManagerDown 1008f9a0     uuid:ieguids.obj
 0002:000079b0       _IID_IDocObjectService     1008f9b0     uuid:ieguids.obj
 0002:000079c0       _IID_IOpsProfileSimple     1008f9c0     uuid:ieguids.obj
 0002:000079d0       _IID_ITridentService3      1008f9d0     uuid:ieguids.obj
 0002:000079e0       _IID_ITridentService4      1008f9e0     uuid:ieguids.obj
 0002:000079f0       _IID_ITridentService5      1008f9f0     uuid:ieguids.obj
 0002:00007a00       _UUID_SharedRendertargetData 1008fa00     uuid:ieguids.obj
 0002:00007a10       _GUID_ATLVer30             1008fa10     atls:atlbase.obj
 0002:00007a20       _GUID_ATLVer70             1008fa20     atls:atlbase.obj
 0002:00007a30       _GUID_ATLVer100            1008fa30     atls:atlbase.obj
 0002:00007a40       _GUID_ATLVer110            1008fa40     atls:atlbase.obj
 0002:00007a50       ??_C@_1IC@ONKHOIDK@?$AAE?$AAR?$AAR?$AAO?$AAR?$AA?5?$AA?3?$AA?5?$AAU?$AAn?$AAa?$AAb?$AAl?$AAe?$AA?5@ 1008fa50     atls:atlbase.obj
 0002:00007ad4       ??_C@_13HADIAKP@?$AAS@     1008fad4     atls:stdafx.obj
 0002:00007ad8       ??_C@_13LHMFKAAD@?$AAM@    1008fad8     atls:stdafx.obj
 0002:00007adc       ??_C@_13MKMNOPIJ@?$AAD@    1008fadc     atls:stdafx.obj
 0002:00007ae0       ??_C@_13OPKGLAFF@?$AAB@    1008fae0     atls:stdafx.obj
 0002:00007ae4       ??_C@_17LLMMEOJD@?$AAV?$AAa?$AAl@ 1008fae4     atls:stdafx.obj
 0002:00007aec       ??_C@_1BI@JFAIJMHL@?$AAF?$AAo?$AAr?$AAc?$AAe?$AAR?$AAe?$AAm?$AAo?$AAv?$AAe@ 1008faec     atls:stdafx.obj
 0002:00007b04       ??_C@_1BC@GCKHIPE@?$AAN?$AAo?$AAR?$AAe?$AAm?$AAo?$AAv?$AAe@ 1008fb04     atls:stdafx.obj
 0002:00007b18       ??_C@_1O@JDLOHAN@?$AAD?$AAe?$AAl?$AAe?$AAt?$AAe@ 1008fb18     atls:stdafx.obj
 0002:00007b28       ??_C@_1CA@ONGMEOAB@?$AAa?$AAt?$AAl?$AAT?$AAr?$AAa?$AAc?$AAe?$AAG?$AAe?$AAn?$AAe?$AAr?$AAa?$AAl@ 1008fb28     atls:stdafx.obj
 0002:00007b48       ??_C@_1BI@MAFGHOEE@?$AAa?$AAt?$AAl?$AAT?$AAr?$AAa?$AAc?$AAe?$AAC?$AAO?$AAM@ 1008fb48     atls:stdafx.obj
 0002:00007b60       ??_C@_1BG@FPLJJEMF@?$AAa?$AAt?$AAl?$AAT?$AAr?$AAa?$AAc?$AAe?$AAQ?$AAI@ 1008fb60     atls:stdafx.obj
 0002:00007b78       ??_C@_1CE@NIAEAIDK@?$AAa?$AAt?$AAl?$AAT?$AAr?$AAa?$AAc?$AAe?$AAR?$AAe?$AAg?$AAi?$AAs?$AAt?$AAr@ 1008fb78     atls:stdafx.obj
 0002:00007b9c       ??_C@_1CC@BNHGJFNK@?$AAa?$AAt?$AAl?$AAT?$AAr?$AAa?$AAc?$AAe?$AAR?$AAe?$AAf?$AAc?$AAo?$AAu?$AAn@ 1008fb9c     atls:stdafx.obj
 0002:00007bc0       ??_C@_1CE@NAJDPMNB@?$AAa?$AAt?$AAl?$AAT?$AAr?$AAa?$AAc?$AAe?$AAW?$AAi?$AAn?$AAd?$AAo?$AAw?$AAi@ 1008fbc0     atls:stdafx.obj
 0002:00007be4       ??_C@_1CC@IMNJGBED@?$AAa?$AAt?$AAl?$AAT?$AAr?$AAa?$AAc?$AAe?$AAC?$AAo?$AAn?$AAt?$AAr?$AAo?$AAl@ 1008fbe4     atls:stdafx.obj
 0002:00007c08       ??_C@_1CA@OMOMONMN@?$AAa?$AAt?$AAl?$AAT?$AAr?$AAa?$AAc?$AAe?$AAH?$AAo?$AAs?$AAt?$AAi?$AAn?$AAg@ 1008fc08     atls:stdafx.obj
 0002:00007c28       ??_C@_1CC@JNJJDOOH@?$AAa?$AAt?$AAl?$AAT?$AAr?$AAa?$AAc?$AAe?$AAD?$AAB?$AAC?$AAl?$AAi?$AAe?$AAn@ 1008fc28     atls:stdafx.obj
 0002:00007c4c       ??_C@_1CG@MNMMIOOI@?$AAa?$AAt?$AAl?$AAT?$AAr?$AAa?$AAc?$AAe?$AAD?$AAB?$AAP?$AAr?$AAo?$AAv?$AAi@ 1008fc4c     atls:stdafx.obj
 0002:00007c74       ??_C@_1BO@EFPHNHHN@?$AAa?$AAt?$AAl?$AAT?$AAr?$AAa?$AAc?$AAe?$AAS?$AAn?$AAa?$AAp?$AAi?$AAn@ 1008fc74     atls:stdafx.obj
 0002:00007c94       ??_C@_1CA@DMHPIODO@?$AAa?$AAt?$AAl?$AAT?$AAr?$AAa?$AAc?$AAe?$AAN?$AAo?$AAt?$AAI?$AAm?$AAp?$AAl@ 1008fc94     atls:stdafx.obj
 0002:00007cb4       ??_C@_1CG@KFEEMCDH@?$AAa?$AAt?$AAl?$AAT?$AAr?$AAa?$AAc?$AAe?$AAA?$AAl?$AAl?$AAo?$AAc?$AAa?$AAt@ 1008fcb4     atls:stdafx.obj
 0002:00007cdc       ??_C@_1CE@IMMADNAP@?$AAa?$AAt?$AAl?$AAT?$AAr?$AAa?$AAc?$AAe?$AAE?$AAx?$AAc?$AAe?$AAp?$AAt?$AAi@ 1008fcdc     atls:stdafx.obj
 0002:00007d00       ??_C@_1BK@NCJHOFCL@?$AAa?$AAt?$AAl?$AAT?$AAr?$AAa?$AAc?$AAe?$AAT?$AAi?$AAm?$AAe@ 1008fd00     atls:stdafx.obj
 0002:00007d1c       ??_C@_1BM@GIKLHLFD@?$AAa?$AAt?$AAl?$AAT?$AAr?$AAa?$AAc?$AAe?$AAC?$AAa?$AAc?$AAh?$AAe@ 1008fd1c     atls:stdafx.obj
 0002:00007d38       ??_C@_1CA@PBPHANCD@?$AAa?$AAt?$AAl?$AAT?$AAr?$AAa?$AAc?$AAe?$AAS?$AAt?$AAe?$AAn?$AAc?$AAi?$AAl@ 1008fd38     atls:stdafx.obj
 0002:00007d58       ??_C@_1BO@GMLILNDJ@?$AAa?$AAt?$AAl?$AAT?$AAr?$AAa?$AAc?$AAe?$AAS?$AAt?$AAr?$AAi?$AAn?$AAg@ 1008fd58     atls:stdafx.obj
 0002:00007d78       ??_C@_1BI@OKDLCIEM@?$AAa?$AAt?$AAl?$AAT?$AAr?$AAa?$AAc?$AAe?$AAM?$AAa?$AAp@ 1008fd78     atls:stdafx.obj
 0002:00007d90       ??_C@_1BK@DMHCKHHD@?$AAa?$AAt?$AAl?$AAT?$AAr?$AAa?$AAc?$AAe?$AAU?$AAt?$AAi?$AAl@ 1008fd90     atls:stdafx.obj
 0002:00007dac       ??_C@_1CC@DMMBNCFG@?$AAa?$AAt?$AAl?$AAT?$AAr?$AAa?$AAc?$AAe?$AAS?$AAe?$AAc?$AAu?$AAr?$AAi?$AAt@ 1008fdac     atls:stdafx.obj
 0002:00007dd0       ??_C@_1BK@OPAPOCAL@?$AAa?$AAt?$AAl?$AAT?$AAr?$AAa?$AAc?$AAe?$AAS?$AAy?$AAn?$AAc@ 1008fdd0     atls:stdafx.obj
 0002:00007dec       ??_C@_1BM@FHAEDBFK@?$AAa?$AAt?$AAl?$AAT?$AAr?$AAa?$AAc?$AAe?$AAI?$AAS?$AAA?$AAP?$AAI@ 1008fdec     atls:stdafx.obj
 0002:00007e10       ?nothrow@std@@3Unothrow_t@1@B 1008fe10     LIBCMTD:std_nothrow.obj
 0002:00007e14       __pRawDllMain              1008fe14     LIBCMTD:dll_dllmain.obj
 0002:00007e14       __pDefaultRawDllMain       1008fe14     LIBCMTD:dll_dllmain.obj
 0002:00007eb8       ??_C@_0NN@JMPELKLB@The?5value?5of?5ESP?5was?5not?5proper@ 1008feb8     LIBCMTD:error.obj
 0002:00007f98       ??_C@_0BBN@ELNNILBE@A?5cast?5to?5a?5smaller?5data?5type?5h@ 1008ff98     LIBCMTD:error.obj
 0002:000080b8       ??_C@_0BN@BPOGFMJL@Stack?5memory?5was?5corrupted?$AN?6@ 100900b8     LIBCMTD:error.obj
 0002:000080d8       ??_C@_0DG@DAJCDLPN@A?5local?5variable?5was?5used?5befor@ 100900d8     LIBCMTD:error.obj
 0002:00008110       ??_C@_0CM@JMIDGKLA@Stack?5memory?5around?5_alloca?5was@ 10090110     LIBCMTD:error.obj
 0002:0000813c       ??_C@_0BO@CHIONIOI@Unknown?5Runtime?5Check?5Error?$AN?6@ 1009013c     LIBCMTD:error.obj
 0002:00008160       ??_C@_1GM@CNOOJIHC@?$AAR?$AAu?$AAn?$AAt?$AAi?$AAm?$AAe?$AA?5?$AAC?$AAh?$AAe?$AAc?$AAk?$AA?5?$AAE@ 10090160     LIBCMTD:error.obj
 0002:000081d0       ??_C@_1EA@NFKNIFJP@?$AAR?$AAu?$AAn?$AA?9?$AAT?$AAi?$AAm?$AAe?$AA?5?$AAC?$AAh?$AAe?$AAc?$AAk?$AA?5@ 100901d0     LIBCMTD:error.obj
 0002:00008210       ??_C@_0BB@PFFGGCJP@Unknown?5Filename@ 10090210     LIBCMTD:error.obj
 0002:00008224       ??_C@_0BE@GNBOBNCK@Unknown?5Module?5Name@ 10090224     LIBCMTD:error.obj
 0002:00008238       ??_C@_0CA@IODNCDPG@Run?9Time?5Check?5Failure?5?$CD?$CFd?5?9?5?$CFs@ 10090238     LIBCMTD:error.obj
 0002:00008258       ??_C@_0CG@IAFNJNEE@Stack?5corrupted?5near?5unknown?5va@ 10090258     LIBCMTD:error.obj
 0002:00008280       ??_C@_05MKKEDADM@?$CF?42X?5@ 10090280     LIBCMTD:error.obj
 0002:00008288       ??_C@_0EJ@LJKNEOLN@Stack?5area?5around?5_alloca?5memor@ 10090288     LIBCMTD:error.obj
 0002:000082d4       ??_C@_01EEMJAFIK@?6@       100902d4     LIBCMTD:error.obj
 0002:000082d8       ??_C@_02LLMPMKNF@?$DO?5@   100902d8     LIBCMTD:error.obj
 0002:000082dc       ??_C@_08OMAHNMHJ@?6Data?3?5?$DM@ 100902dc     LIBCMTD:error.obj
 0002:000082e8       ??_C@_0CK@DKGBICFE@?6Allocation?5number?5within?5this?5@ 100902e8     LIBCMTD:error.obj
 0002:00008314       ??_C@_07DFDJCKFN@?6Size?3?5@ 10090314     LIBCMTD:error.obj
 0002:0000831c       ??_C@_0N@MHFFIMFG@?6Address?3?50x@ 1009031c     LIBCMTD:error.obj
 0002:00008330       ??_C@_0EI@CLEPFNGI@Stack?5area?5around?5_alloca?5memor@ 10090330     LIBCMTD:error.obj
 0002:00008378       ??_C@_0BK@ODNDAGKB@?$CFs?$CFs?$CFp?$CFs?$CFzd?$CFs?$CFd?$CFs?$CFs?$CFs?$CFs?$CFs@ 10090378     LIBCMTD:error.obj
 0002:00008394       ??_C@_0DE@OHJBPMBP@A?5variable?5is?5being?5used?5withou@ 10090394     LIBCMTD:error.obj
 0002:000083dc       ??_C@_0BJ@HEGAHDFO@Stack?5pointer?5corruption@ 100903dc     LIBCMTD:userapi.obj
 0002:000083f8       ??_C@_0CK@FEGOIOPB@Cast?5to?5smaller?5type?5causing?5lo@ 100903f8     LIBCMTD:userapi.obj
 0002:00008424       ??_C@_0BI@CIGMDCBH@Stack?5memory?5corruption@ 10090424     LIBCMTD:userapi.obj
 0002:0000843c       ??_C@_0CK@CNLNOEPB@Local?5variable?5used?5before?5init@ 1009043c     LIBCMTD:userapi.obj
 0002:00008468       ??_C@_0BP@OGBCLIBO@Stack?5around?5_alloca?5corrupted@ 10090468     LIBCMTD:userapi.obj
 0002:000084d0       ??_C@_1EI@MLPKHBGE@?$AAa?$AAp?$AAi?$AA?9?$AAm?$AAs?$AA?9?$AAw?$AAi?$AAn?$AA?9?$AAc?$AAo?$AAr?$AAe@ 100904d0     LIBCMTD:pdblkup.obj
 0002:00008518       ??_C@_1BK@JHLNAEJL@?$AAa?$AAd?$AAv?$AAa?$AAp?$AAi?$AA3?$AA2?$AA?4?$AAd?$AAl?$AAl@ 10090518     LIBCMTD:pdblkup.obj
 0002:00008534       ??_C@_0O@COHOBMLB@RegOpenKeyExW@ 10090534     LIBCMTD:pdblkup.obj
 0002:00008544       ??_C@_0BB@GLNAEDBD@RegQueryValueExW@ 10090544     LIBCMTD:pdblkup.obj
 0002:00008558       ??_C@_0M@HLOHPNFA@RegCloseKey@ 10090558     LIBCMTD:pdblkup.obj
 0002:00008568       ??_C@_1HE@EBEAGLFB@?$AAS?$AAO?$AAF?$AAT?$AAW?$AAA?$AAR?$AAE?$AA?2?$AAW?$AAo?$AAw?$AA6?$AA4?$AA3@ 10090568     LIBCMTD:pdblkup.obj
 0002:000085dc       ??_C@_1BG@EABPBLLF@?$AAP?$AAr?$AAo?$AAd?$AAu?$AAc?$AAt?$AAD?$AAi?$AAr@ 100905dc     LIBCMTD:pdblkup.obj
 0002:00008610       ??_C@_1BC@JINFINNJ@?$AAM?$AAS?$AAP?$AAD?$AAB?$AA1?$AA4?$AA0@ 10090610     LIBCMTD:pdblkup.obj
 0002:00008624       ??_C@_0BB@KCIACLNC@PDBOpenValidate5@ 10090624     LIBCMTD:pdblkup.obj
 0002:00008638       ??_C@_01KDCPPGHE@r@        10090638     LIBCMTD:pdblkup.obj
 0002:00008640       ??_7exception@std@@6B@     10090640     LIBCMTD:throw_bad_alloc.obj
 0002:00008648       ??_C@_0BC@EOODALEL@Unknown?5exception@ 10090648     LIBCMTD:throw_bad_alloc.obj
 0002:00008660       ??_7bad_alloc@std@@6B@     10090660     LIBCMTD:throw_bad_alloc.obj
 0002:00008668       ??_C@_0P@GHFPNOJB@bad?5allocation@ 10090668     LIBCMTD:throw_bad_alloc.obj
 0002:0000867c       ??_7bad_array_new_length@std@@6B@ 1009067c     LIBCMTD:throw_bad_alloc.obj
 0002:00008684       ??_C@_0BF@KINCDENJ@bad?5array?5new?5length@ 10090684     LIBCMTD:throw_bad_alloc.obj
 0002:000086a0       ??_7type_info@@6B@         100906a0     LIBCMTD:std_type_info_static.obj
 0002:000086a4       __pDestructExceptionObject 100906a4     libvcruntimed:ehhelpers.obj
 0002:000086a8       ??_C@_0EH@HLGJAEFB@d?3?2agent?2_work?257?2s?2src?2vctools@ 100906a8     libvcruntimed:std_type_info.obj
 0002:000086f0       ??_C@_1FK@OACNEHHA@?$AAt?$AAo?$AA?9?$AA?$DO?$AA_?$AAW?$AAh?$AAa?$AAt?$AA?5?$AA?$DN?$AA?$DN?$AA?5?$AAn?$AAu@ 100906f0     libvcruntimed:std_exception.obj
 0002:00008750       ??_C@_1IO@BBDBDODK@?$AAd?$AA?3?$AA?2?$AAa?$AAg?$AAe?$AAn?$AAt?$AA?2?$AA_?$AAw?$AAo?$AAr?$AAk?$AA?2@ 10090750     libvcruntimed:std_exception.obj
 0002:000087e0       ??_C@_0EP@LNOKHKLD@d?3?2agent?2_work?257?2s?2src?2vctools@ 100907e0     libvcruntimed:per_thread_data.obj
 0002:00008834       ??_7bad_exception@std@@6B@ 10090834     libvcruntimed:frame.obj
 0002:0000883c       ??_C@_0O@DPKOEFFH@bad?5exception@ 1009083c     libvcruntimed:frame.obj
 0002:00008bd0       ??_C@_08EHJDFFNH@__based?$CI@ 10090bd0     libvcruntimed:undname.obj
 0002:00008bdc       ??_C@_07KOLFKCDI@__cdecl@  10090bdc     libvcruntimed:undname.obj
 0002:00008be4       ??_C@_08GHMPAG@__pascal@   10090be4     libvcruntimed:undname.obj
 0002:00008bf0       ??_C@_09IFJBGAPI@__stdcall@ 10090bf0     libvcruntimed:undname.obj
 0002:00008bfc       ??_C@_0L@NPHFGOKO@__thiscall@ 10090bfc     libvcruntimed:undname.obj
 0002:00008c08       ??_C@_0L@JMKHOMEK@__fastcall@ 10090c08     libvcruntimed:undname.obj
 0002:00008c14       ??_C@_0N@BCKKPABJ@__vectorcall@ 10090c14     libvcruntimed:undname.obj
 0002:00008c24       ??_C@_09HIJEGCPM@__clrcall@ 10090c24     libvcruntimed:undname.obj
 0002:00008c30       ??_C@_06GHPCKEAG@__eabi@   10090c30     libvcruntimed:undname.obj
 0002:00008c38       ??_C@_09IOPIDJLG@__swift_1@ 10090c38     libvcruntimed:undname.obj
 0002:00008c44       ??_C@_09KFNFGKHF@__swift_2@ 10090c44     libvcruntimed:undname.obj
 0002:00008c50       ??_C@_07JOMMBBKO@__ptr64@  10090c50     libvcruntimed:undname.obj
 0002:00008c58       ??_C@_0L@PILCLIHE@__restrict@ 10090c58     libvcruntimed:undname.obj
 0002:00008c64       ??_C@_0M@GFIIJFMG@__unaligned@ 10090c64     libvcruntimed:undname.obj
 0002:00008c70       ??_C@_09DHDLOLLB@restrict?$CI@ 10090c70     libvcruntimed:undname.obj
 0002:00008c7a       ??_C@_00CNPNBAHC@@         10090c7a     libvcruntimed:undname.obj
 0002:00008c7c       ??_C@_04NIHEBCM@?5new@     10090c7c     libvcruntimed:undname.obj
 0002:00008c84       ??_C@_07FPCDHGMM@?5delete@ 10090c84     libvcruntimed:undname.obj
 0002:00008c8c       ??_C@_01NEMOKFLO@?$DN@     10090c8c     libvcruntimed:undname.obj
 0002:00008c90       ??_C@_02GPIOPFAK@?$DO?$DO@ 10090c90     libvcruntimed:undname.obj
 0002:00008c94       ??_C@_02FODMEDOG@?$DM?$DM@ 10090c94     libvcruntimed:undname.obj
 0002:00008c98       ??_C@_01DCLJPIOD@?$CB@     10090c98     libvcruntimed:undname.obj
 0002:00008c9c       ??_C@_02EGOFBIJA@?$DN?$DN@ 10090c9c     libvcruntimed:undname.obj
 0002:00008ca0       ??_C@_02FDNJECIE@?$CB?$DN@ 10090ca0     libvcruntimed:undname.obj
