 OPOSIndividualRecognition

 Timestamp is 600f7ba3 (Tue Jan 26 11:17:07 2021)

 Preferred load address is 10000000

 Start         Length     Name                   Class
 0001:00000000 00000d90H .text$di                CODE
 0001:00000d90 000a9470H .text$mn                CODE
 0001:000aa200 000001c0H .text$x                 CODE
 0001:000aa3c0 00000120H .text$yd                CODE
 0002:00000000 00000358H .idata$5                DATA
 0002:00000358 00000008H .00cfg                  DATA
 0002:00000360 00000004H .CRT$XCA                DATA
 0002:00000364 00000004H .CRT$XCL                DATA
 0002:00000368 0000006cH .CRT$XCU                DATA
 0002:000003d4 00000004H .CRT$XCZ                DATA
 0002:000003d8 00000004H .CRT$XIA                DATA
 0002:000003dc 00000014H .CRT$XIC                DATA
 0002:000003f0 00000004H .CRT$XIZ                DATA
 0002:000003f4 00000004H .CRT$XLA                DATA
 0002:000003f8 00000004H .CRT$XLZ                DATA
 0002:000003fc 00000004H .CRT$XPA                DATA
 0002:00000400 00000008H .CRT$XPX                DATA
 0002:00000408 00000004H .CRT$XPXA               DATA
 0002:0000040c 00000004H .CRT$XPZ                DATA
 0002:00000410 00000004H .CRT$XTA                DATA
 0002:00000414 0000000cH .CRT$XTZ                DATA
 0002:00000418 00000000H .gfids$y                DATA
 0002:00000420 0002fe60H .rdata                  DATA
 0002:00030280 00000004H .rdata$CastGuardVftablesA DATA
 0002:00030284 00000004H .rdata$CastGuardVftablesC DATA
 0002:00030288 00000018H .rdata$T                DATA
 0002:000302a0 0000033cH .rdata$r                DATA
 0002:000305dc 00000044H .rdata$sxdata           DATA
 0002:00030620 00000458H .rdata$zzzdbg           DATA
 0002:00030a78 00000004H .rtc$IAA                DATA
 0002:00030a7c 00000018H .rtc$IMZ                DATA
 0002:00030a94 00000004H .rtc$IZZ                DATA
 0002:00030a98 00000004H .rtc$TAA                DATA
 0002:00030a9c 00000018H .rtc$TMZ                DATA
 0002:00030ab4 00000004H .rtc$TZZ                DATA
 0002:00030ab8 00000004H .tls                    DATA
 0002:00030abc 00000004H .tls$                   DATA
 0002:00030ac0 00000008H .tls$ZZZ                DATA
 0002:00030ac8 00000e4cH .xdata$x                DATA
 0002:00031914 00000004H ATL$__a                 DATA
 0002:00031918 00000008H ATL$__z                 DATA
 0002:00031920 000000b8H .edata                  DATA
 0002:000319d8 00000078H .idata$2                DATA
 0002:00031a50 00000014H .idata$3                DATA
 0002:00031a64 00000358H .idata$4                DATA
 0002:00031dbc 00000d56H .idata$6                DATA
 0003:00000000 00000bb0H .data                   DATA
 0003:00000bb0 00000138H .data$r                 DATA
 0003:00000ce8 00003588H .bss                    DATA
 0004:00000000 00000220H .rsrc$01                DATA
 0004:00000220 00003a88H .rsrc$02                DATA

  Address         Publics by Value              Rva+Base       Lib:Object

 0000:00000000       ___guard_iat_count         00000000     <absolute>
 0000:00000000       ___hybrid_auxiliary_iat    00000000     <absolute>
 0000:00000000       ___volatile_metadata       00000000     <absolute>
 0000:00000000       ___guard_longjmp_table     00000000     <absolute>
 0000:00000000       ___AbsoluteZero            00000000     <absolute>
 0000:00000000       ___arm64x_native_entrypoint 00000000     <absolute>
 0000:00000000       ___x64_code_ranges_to_entry_points_count 00000000     <absolute>
 0000:00000000       ___guard_longjmp_count     00000000     <absolute>
 0000:00000000       ___guard_eh_cont_count     00000000     <absolute>
 0000:00000000       ___hybrid_code_map         00000000     <absolute>
 0000:00000000       ___guard_fids_table        00000000     <absolute>
 0000:00000000       ___enclave_config          00000000     <absolute>
 0000:00000000       ___hybrid_code_map_count   00000000     <absolute>
 0000:00000000       ___guard_fids_count        00000000     <absolute>
 0000:00000000       ___arm64x_redirection_metadata_count 00000000     <absolute>
 0000:00000000       ___guard_iat_table         00000000     <absolute>
 0000:00000000       ___dynamic_value_reloc_table 00000000     <absolute>
 0000:00000000       ___arm64x_redirection_metadata 00000000     <absolute>
 0000:00000000       ___arm64x_extra_rfe_table_size 00000000     <absolute>
 0000:00000000       ___guard_eh_cont_table     00000000     <absolute>
 0000:00000000       ___arm64x_extra_rfe_table  00000000     <absolute>
 0000:00000000       ___x64_code_ranges_to_entry_points 00000000     <absolute>
 0000:00000000       __except_list              00000000     <absolute>
 0000:00000011       ___safe_se_handler_count   00000011     <absolute>
 0000:0000002c       __tls_array                0000002c     <absolute>
 0000:00000100       ___guard_flags             00000100     <absolute>
 0000:00000000       ___ImageBase               10000000     <linker-defined>
 0001:00000d90       ?_assert@@YAXPB_W0I@Z      10001d90 f   Assert.obj
 0001:00000ec0       ___local_stdio_printf_options 10001ec0 f i Assert.obj
 0001:00000ed0       ___vswprintf_l             10001ed0 f i Assert.obj
 0001:00000f00       __swprintf                 10001f00 f i Assert.obj
 0001:00000f60       __vswprintf_c_l            10001f60 f i Assert.obj
 0001:00000fd0       __vswprintf_l              10001fd0 f i Assert.obj
 0001:00001000       ?cw_memcpy@@YGHPADPB_WH@Z  10002000 f   CWString.obj
 0001:00001060       ?cw_memcpy@@YGHPA_WPBDH@Z  10002060 f   CWString.obj
 0001:000010c0       ?cw_memcpy@@YGHPADPBDH@Z   100020c0 f   CWString.obj
 0001:00001110       ?cw_memcpy@@YGHPA_WPB_WH@Z 10002110 f   CWString.obj
 0001:00001150       ?cw_memset@@YAXPADDH@Z     10002150 f   CWString.obj
 0001:00001170       ?cw_memset@@YAXPA_W_WH@Z   10002170 f   CWString.obj
 0001:00001190       ?cw_strlen@@YAHPBD@Z       10002190 f   CWString.obj
 0001:000011e0       ?cw_strlen@@YAHPB_W@Z      100021e0 f   CWString.obj
 0001:00001230       ?cw_strcpy@@YAHPADPB_W@Z   10002230 f   CWString.obj
 0001:00001250       ?cw_strcpy@@YAHPA_WPBD@Z   10002250 f   CWString.obj
 0001:00001270       ?cw_strcpy@@YAHPADPBD@Z    10002270 f   CWString.obj
 0001:00001290       ?cw_strcpy@@YAHPA_WPB_W@Z  10002290 f   CWString.obj
 0001:000012b0       ?cw_strcat@@YAHPADPB_W@Z   100022b0 f   CWString.obj
 0001:000012e0       ?cw_strcat@@YAHPA_WPBD@Z   100022e0 f   CWString.obj
 0001:00001310       ?cw_strcat@@YAHPADPBD@Z    10002310 f   CWString.obj
 0001:00001340       ?cw_strcat@@YAHPA_WPB_W@Z  10002340 f   CWString.obj
 0001:00001370       ?cw_dup@@YGXPBDAAHAAPA_W1@Z 10002370 f   CWString.obj
 0001:00001430       ?cw_dup@@YGXPB_WAAHAAPAD1@Z 10002430 f   CWString.obj
 0001:000014e0       ?DupChar@_CW@@AAEXXZ       100024e0 f   CWString.obj
 0001:00001530       ?DupWide@_CW@@AAEXXZ       10002530 f   CWString.obj
 0001:00001580       ?GetCharsMbcs@_CW@@QAEHXZ  10002580 f   CWString.obj
 0001:000015e0       ?GetCharsWide@_CW@@QAEHXZ  100025e0 f   CWString.obj
 0001:00001640       ?SetVARIANT_BOOL@OposVariant@@QAEXF@Z 10002640 f   OposVariant.obj
 0001:000016a0       ?SetVARIANT_BOOL_Ptr@OposVariant@@QAEXPAFAAJ@Z 100026a0 f   OposVariant.obj
 0001:000016f0       ?GetLONG@OposVariant@@QAEJXZ 100026f0 f   OposVariant.obj
 0001:00001780       ?ChangeLONG@OposVariant@@QAEXPAJAAJ@Z 10002780 f   OposVariant.obj
 0001:00001840       ?SetLONG@OposVariant@@QAEXJ@Z 10002840 f   OposVariant.obj
 0001:00001880       ?SetLONG_Ptr@OposVariant@@QAEXPAJAAJ@Z 10002880 f   OposVariant.obj
 0001:000018d0       ?ChangeCURRENCY@OposVariant@@QAEXPATtagCY@@AAJ@Z 100028d0 f   OposVariant.obj
 0001:00001990       ?SetCURRENCY@OposVariant@@QAEXTtagCY@@@Z 10002990 f   OposVariant.obj
 0001:000019d0       ?SetCURRENCY_Ptr@OposVariant@@QAEXPATtagCY@@AAJ@Z 100029d0 f   OposVariant.obj
 0001:00001a20       ?ChangeBSTR@OposVariant@@QAEXPAPA_WAAJ@Z 10002a20 f   OposVariant.obj
 0001:00001ae0       ?SetBSTR@OposVariant@@QAEXPA_WAAJ@Z 10002ae0 f   OposVariant.obj
 0001:00001b30       ?SetBSTR_Copy@OposVariant@@QAEXPA_WAAJ@Z 10002b30 f   OposVariant.obj
 0001:00001bd0       ?SetBSTR_OutPtr@OposVariant@@QAE_NPAPA_WAAJ@Z 10002bd0 f   OposVariant.obj
 0001:00001c20       ?SetBSTR_InOutPtr@OposVariant@@QAE_NPAPA_WAAJ@Z 10002c20 f   OposVariant.obj
 0001:00001c70       ?SetVARIANT@OposVariant@@QAEXAAUtagVARIANT@@GAAJ@Z 10002c70 f   OposVariant.obj
 0001:00001cf0       ?SetVARIANT_Ptr@OposVariant@@QAEXAAPAUtagVARIANT@@GAAJ@Z 10002cf0 f   OposVariant.obj
 0001:00001d90       ?SetString@OposVariant@@QAEXPB_WAAJ@Z 10002d90 f   OposVariant.obj
 0001:00001e20       ?SetDispatch_Ptr@OposVariant@@QAEXPAUIDispatch@@AAJ@Z 10002e20 f   OposVariant.obj
 0001:00001e90       ??0OposDispParms@@QAE@PAVOposVariant@@H@Z 10002e90 f   OposVariant.obj
 0001:00001f60       ??1OposDispParms@@QAE@XZ   10002f60 f   OposVariant.obj
 0001:00001fb0       ??$AtlMultiply@I@ATL@@YAJPAIII@Z 10002fb0 f i OposVariant.obj
 0001:00002010       ??0?$CHeapPtr@_WVCCRTAllocator@ATL@@@ATL@@QAE@XZ 10003010 f i OposVariant.obj
 0001:00002040       ??0?$CHeapPtrBase@_WVCCRTAllocator@ATL@@@ATL@@IAE@XZ 10003040 f i OposVariant.obj
 0001:00002060       ??0?$CSimpleArray@GV?$CSimpleArrayEqualHelper@G@ATL@@@ATL@@QAE@XZ 10003060 f i OposVariant.obj
 0001:000020a0       ??0?$CTraceCategoryEx@$00$0A@@ATL@@QAE@PB_W@Z 100030a0 f i OposVariant.obj
 0001:000020d0       ??0?$CTraceCategoryEx@$01$0A@@ATL@@QAE@PB_W@Z 100030d0 f i OposVariant.obj
 0001:00002100       ??0?$CTraceCategoryEx@$03$0A@@ATL@@QAE@PB_W@Z 10003100 f i OposVariant.obj
 0001:00002130       ??0?$CTraceCategoryEx@$07$0A@@ATL@@QAE@PB_W@Z 10003130 f i OposVariant.obj
 0001:00002160       ??0?$CTraceCategoryEx@$0BA@$0A@@ATL@@QAE@PB_W@Z 10003160 f i OposVariant.obj
 0001:00002190       ??0?$CTraceCategoryEx@$0BAA@$0A@@ATL@@QAE@PB_W@Z 10003190 f i OposVariant.obj
 0001:000021d0       ??0?$CTraceCategoryEx@$0BAAA@$0A@@ATL@@QAE@PB_W@Z 100031d0 f i OposVariant.obj
 0001:00002210       ??0?$CTraceCategoryEx@$0BAAAA@$0A@@ATL@@QAE@PB_W@Z 10003210 f i OposVariant.obj
 0001:00002250       ??0?$CTraceCategoryEx@$0BAAAAA@$0A@@ATL@@QAE@PB_W@Z 10003250 f i OposVariant.obj
 0001:00002290       ??0?$CTraceCategoryEx@$0CA@$0A@@ATL@@QAE@PB_W@Z 10003290 f i OposVariant.obj
 0001:000022c0       ??0?$CTraceCategoryEx@$0CAA@$0A@@ATL@@QAE@PB_W@Z 100032c0 f i OposVariant.obj
 0001:00002300       ??0?$CTraceCategoryEx@$0CAAA@$0A@@ATL@@QAE@PB_W@Z 10003300 f i OposVariant.obj
 0001:00002340       ??0?$CTraceCategoryEx@$0CAAAA@$0A@@ATL@@QAE@PB_W@Z 10003340 f i OposVariant.obj
 0001:00002380       ??0?$CTraceCategoryEx@$0CAAAAA@$0A@@ATL@@QAE@PB_W@Z 10003380 f i OposVariant.obj
 0001:000023c0       ??0?$CTraceCategoryEx@$0EA@$0A@@ATL@@QAE@PB_W@Z 100033c0 f i OposVariant.obj
 0001:000023f0       ??0?$CTraceCategoryEx@$0EAA@$0A@@ATL@@QAE@PB_W@Z 100033f0 f i OposVariant.obj
 0001:00002430       ??0?$CTraceCategoryEx@$0EAAA@$0A@@ATL@@QAE@PB_W@Z 10003430 f i OposVariant.obj
 0001:00002470       ??0?$CTraceCategoryEx@$0EAAAA@$0A@@ATL@@QAE@PB_W@Z 10003470 f i OposVariant.obj
 0001:000024b0       ??0?$CTraceCategoryEx@$0EAAAAA@$0A@@ATL@@QAE@PB_W@Z 100034b0 f i OposVariant.obj
 0001:000024f0       ??0?$CTraceCategoryEx@$0IA@$0A@@ATL@@QAE@PB_W@Z 100034f0 f i OposVariant.obj
 0001:00002530       ??0?$CTraceCategoryEx@$0IAA@$0A@@ATL@@QAE@PB_W@Z 10003530 f i OposVariant.obj
 0001:00002570       ??0?$CTraceCategoryEx@$0IAAA@$0A@@ATL@@QAE@PB_W@Z 10003570 f i OposVariant.obj
 0001:000025b0       ??0?$CTraceCategoryEx@$0IAAAA@$0A@@ATL@@QAE@PB_W@Z 100035b0 f i OposVariant.obj
 0001:000025f0       ??0CAtlComModule@ATL@@QAE@XZ 100035f0 f i OposVariant.obj
 0001:000026d0       ??0CAtlWinModule@ATL@@QAE@XZ 100036d0 f i OposVariant.obj
 0001:00002760       ??0CComCriticalSection@ATL@@QAE@XZ 10003760 f i OposVariant.obj
 0001:00002790       ??0CPreserveLastError@ATL@@QAE@XZ 10003790 f i OposVariant.obj
 0001:000027d0       ??0CTraceFileAndLineInfo@ATL@@QAE@PBDH@Z 100037d0 f i OposVariant.obj
 0001:00002800       ??0_ATL_COM_MODULE70@ATL@@QAE@XZ 10003800 f i OposVariant.obj
 0001:00002830       ??0_ATL_WIN_MODULE70@ATL@@QAE@XZ 10003830 f i OposVariant.obj
 0001:00002870       ??1?$CHeapPtr@_WVCCRTAllocator@ATL@@@ATL@@QAE@XZ 10003870 f i OposVariant.obj
 0001:000028a0       ??1?$CHeapPtrBase@_WVCCRTAllocator@ATL@@@ATL@@QAE@XZ 100038a0 f i OposVariant.obj
 0001:000028d0       ??1?$CSimpleArray@GV?$CSimpleArrayEqualHelper@G@ATL@@@ATL@@QAE@XZ 100038d0 f i OposVariant.obj
 0001:00002900       ??1CAtlComModule@ATL@@QAE@XZ 10003900 f i OposVariant.obj
 0001:00002930       ??1CAtlWinModule@ATL@@QAE@XZ 10003930 f i OposVariant.obj
 0001:00002960       ??1CComBSTR@ATL@@QAE@XZ    10003960 f i OposVariant.obj
 0001:000029a0       ??1CComCriticalSection@ATL@@QAE@XZ 100039a0 f i OposVariant.obj
 0001:000029c0       ??1CPreserveLastError@ATL@@QAE@XZ 100039c0 f i OposVariant.obj
 0001:00002a00       ??1_ATL_COM_MODULE70@ATL@@QAE@XZ 10003a00 f i OposVariant.obj
 0001:00002a30       ??1_ATL_WIN_MODULE70@ATL@@QAE@XZ 10003a30 f i OposVariant.obj
 0001:00002a70       ??1stringdispid@CComTypeInfoHolder@ATL@@QAE@XZ 10003a70 f i OposVariant.obj
 0001:00002aa0       ??A?$CSimpleArray@GV?$CSimpleArrayEqualHelper@G@ATL@@@ATL@@QAEAAGH@Z 10003aa0 f i OposVariant.obj
 0001:00002b20       ??B?$CHeapPtrBase@_WVCCRTAllocator@ATL@@@ATL@@QBEPA_WXZ 10003b20 f i OposVariant.obj
 0001:00002b40       ??B?$CTraceCategoryEx@$01$0A@@ATL@@QAEIXZ 10003b40 f i OposVariant.obj
 0001:00002b60       ??B?$CTraceCategoryEx@$0CA@$0A@@ATL@@QAEIXZ 10003b60 f i OposVariant.obj
 0001:00002b80       ??RCTraceFileAndLineInfo@ATL@@QBAXHIPB_WZZ 10003b80 f i OposVariant.obj
 0001:00002c20       ??_Estringdispid@CComTypeInfoHolder@ATL@@QAEPAXI@Z 10003c20 f i OposVariant.obj
 0001:00002cb0       ??_H@YGXPAXIIP6EPAX0@Z@Z   10003cb0 f i OposVariant.obj
 0001:00002d20       ??_I@YGXPAXIIP6EX0@Z@Z     10003d20 f i OposVariant.obj
 0001:00002da0       ?Allocate@?$CHeapPtr@_WVCCRTAllocator@ATL@@@ATL@@QAE_NI@Z 10003da0 f i OposVariant.obj
 0001:00002e30       ?Allocate@CCRTAllocator@ATL@@SAPAXI@Z 10003e30 f i OposVariant.obj
 0001:00002e50       ?AllocateBytes@?$CHeapPtrBase@_WVCCRTAllocator@ATL@@@ATL@@QAE_NI@Z 10003e50 f i OposVariant.obj
 0001:00002ec0       ?AtlWinModuleInit@ATL@@YGJPAU_ATL_WIN_MODULE70@1@@Z 10003ec0 f i OposVariant.obj
 0001:00002f90       ?AtlWinModuleTerm@ATL@@YGJPAU_ATL_WIN_MODULE70@1@PAUHINSTANCE__@@@Z 10003f90 f i OposVariant.obj
 0001:00003050       ?Clear@OposVariant@@QAEJXZ 10004050 f i OposVariant.obj
 0001:00003090       ?Free@?$CHeapPtrBase@_WVCCRTAllocator@ATL@@@ATL@@QAEXXZ 10004090 f i OposVariant.obj
 0001:000030d0       ?Free@CCRTAllocator@ATL@@SAXPAX@Z 100040d0 f i OposVariant.obj
 0001:000030f0       ?GetCategoryName@CTrace@ATL@@CAPA_WI@Z 100040f0 f i OposVariant.obj
 0001:00003140       ?GetModuleInstance@CAtlBaseModule@ATL@@QAEPAUHINSTANCE__@@XZ 10004140 f i OposVariant.obj
 0001:00003160       ?GetSize@?$CSimpleArray@GV?$CSimpleArrayEqualHelper@G@ATL@@@ATL@@QBEHXZ 10004160 f i OposVariant.obj
 0001:00003180       ?Init@CComCriticalSection@ATL@@QAEJXZ 10004180 f i OposVariant.obj
 0001:000031e0       ?RegisterCategory@CTrace@ATL@@SAXPB_WI@Z 100041e0 f i OposVariant.obj
 0001:00003270       ?RemoveAll@?$CSimpleArray@GV?$CSimpleArrayEqualHelper@G@ATL@@@ATL@@QAEXXZ 10004270 f i OposVariant.obj
 0001:000032f0       ?Term@CAtlComModule@ATL@@QAEXXZ 100042f0 f i OposVariant.obj
 0001:000033b0       ?Term@CAtlWinModule@ATL@@QAEXXZ 100043b0 f i OposVariant.obj
 0001:000033e0       ?Term@CComCriticalSection@ATL@@QAEJXZ 100043e0 f i OposVariant.obj
 0001:00003420       ?TraceV@CTrace@ATL@@CAXPBDHIIPB_W@Z 10004420 f i OposVariant.obj
 0001:000036a0       ?TraceV@CTrace@ATL@@SAXPBDHIIPB_WPAD@Z 100046a0 f i OposVariant.obj
 0001:000037e0       ?_AtlInitializeCriticalSectionEx@ATL@@YAHPAU_RTL_CRITICAL_SECTION@@KK@Z 100047e0 f i OposVariant.obj
 0001:00003810       ?_AtlRaiseException@ATL@@YAXKK@Z 10004810 f i OposVariant.obj
 0001:00003840       _HRESULT_FROM_WIN32        10004840 f i OposVariant.obj
 0001:00003880       __vswprintf_s_l            10004880 f i OposVariant.obj
 0001:000038f0       _swprintf_s                100048f0 f i OposVariant.obj
 0001:00003950       ?ObjectMain@CComObjectRootBase@ATL@@SGX_N@Z 10004950 f i IndividualRecognition.obj
 0001:00003960       ?GetCategoryMap@CComObjectRootBase@ATL@@SAPBU_ATL_CATMAP_ENTRY@2@XZ 10004960 f i IndividualRecognition.obj
 0001:00003970       ?GetObjectDescription@?$CComCoClass@VCOPOSIndividualRecognition@@$1?CLSID_OPOSIndividualRecognition@@3U_GUID@@B@ATL@@SGPB_WXZ 10004970 f i IndividualRecognition.obj
 0001:00003980       ?UpdateRegistry@COPOSIndividualRecognition@@SGJH@Z 10004980 f i IndividualRecognition.obj
 0001:000039a0       ?CreateInstance@?$CComCreator@V?$CComObjectCached@VCComClassFactory@ATL@@@ATL@@@ATL@@SGJPAXABU_GUID@@PAPAX@Z 100049a0 f i IndividualRecognition.obj
 0001:00003b20       ?CreateInstance@?$CComCreator2@V?$CComCreator@V?$CComObject@VCOPOSIndividualRecognition@@@ATL@@@ATL@@V?$CComCreator@V?$CComAggObject@VCOPOSIndividualRecognition@@@ATL@@@2@@ATL@@SGJPAXABU_GUID@@PAPAX@Z 10004b20 f i IndividualRecognition.obj
 0001:00003cd0       _DllGetClassObject@12      10004cd0 f   IndividualRecognition.obj
 0001:00003d00       _DllCanUnloadNow@0         10004d00 f   IndividualRecognition.obj
 0001:00003d40       _DllRegisterServer@0       10004d40 f   IndividualRecognition.obj
 0001:00003d60       _DllUnregisterServer@0     10004d60 f   IndividualRecognition.obj
 0001:00003ef0       _DllMain@12                10004ef0 f   IndividualRecognition.obj
 0001:00003f50       ??$?2G@Wrapper@?$CSimpleArray@GV?$CSimpleArrayEqualHelper@G@ATL@@@ATL@@SAPAXIPAG@Z 10004f50 f i IndividualRecognition.obj
 0001:00003f60       ??$?2PA_W@?$Wrapper@PA_W@?$CSimpleMap@PA_WPA_WVCExpansionVectorEqualHelper@ATL@@@ATL@@SAPAXIPAPA_W@Z 10004f60 f i IndividualRecognition.obj
 0001:00003f70       ??$?4UITypeInfo2@@@?$CComPtr@UITypeInfo@@@ATL@@QAEPAUITypeInfo@@ABV?$CComPtr@UITypeInfo2@@@1@@Z 10004f70 f i IndividualRecognition.obj
 0001:00003fd0       ??$AtlAdd@K@ATL@@YAJPAKKK@Z 10004fd0 f i IndividualRecognition.obj
 0001:00004010       ??$AtlAdd@_K@ATL@@YAJPA_K_K1@Z 10005010 f i IndividualRecognition.obj
 0001:00004080       ??$AtlAddThrow@K@ATL@@YAKKK@Z 10005080 f i IndividualRecognition.obj
 0001:00004100       ??$AtlModuleRegisterWndClassInfoT@VAtlModuleRegisterWndClassInfoParamW@ATL@@@ATL@@YAGPAU_ATL_BASE_MODULE70@0@PAU_ATL_WIN_MODULE70@0@PAU_ATL_WNDCLASSINFOW@0@PAP6GJPAUHWND__@@IIJ@ZVAtlModuleRegisterWndClassInfoParamW@0@@Z 10005100 f i IndividualRecognition.obj
 0001:00004510       ??$AtlMultiply@H@ATL@@YAJPAHHH@Z 10005510 f i IndividualRecognition.obj
 0001:00004590       ??$AtlMultiply@K@ATL@@YAJPAKKK@Z 10005590 f i IndividualRecognition.obj
 0001:000045f0       ??$AtlMultiplyThrow@I@ATL@@YAIII@Z 100055f0 f i IndividualRecognition.obj
 0001:00004670       ??$QueryInterface@UIPersistStream@@@IUnknown@@QAGJPAPAUIPersistStream@@@Z 10005670 f i IndividualRecognition.obj
 0001:000046a0       ??$QueryInterface@UITypeInfo2@@@IUnknown@@QAGJPAPAUITypeInfo2@@@Z 100056a0 f i IndividualRecognition.obj
 0001:000046d0       ??0?$CAtlModuleT@VCComModule@ATL@@@ATL@@QAE@XZ 100056d0 f i IndividualRecognition.obj
 0001:00004700       ??0?$CAtlSafeAllocBufferManager@VCCRTAllocator@ATL@@@_ATL_SAFE_ALLOCA_IMPL@ATL@@QAE@XZ 10005700 f i IndividualRecognition.obj
 0001:00004720       ??0?$CAutoVectorPtr@_W@ATL@@QAE@XZ 10005720 f i IndividualRecognition.obj
 0001:00004740       ??0?$CComAggObject@VCOPOSIndividualRecognition@@@ATL@@QAE@PAX@Z 10005740 f i IndividualRecognition.obj
 0001:000047b0       ??0?$CComContainedObject@VCOPOSIndividualRecognition@@@ATL@@QAE@PAX@Z 100057b0 f i IndividualRecognition.obj
 0001:000048c0       ??0?$CComCritSecLock@VCComCriticalSection@ATL@@@ATL@@QAE@AAVCComCriticalSection@1@_N@Z 100058c0 f i IndividualRecognition.obj
 0001:00004920       ??0?$CComEnum@UIEnumConnectionPoints@@$1?_GUID_b196b285_bab4_101a_b69c_00aa00341d07@@3U__s_GUID@@BPAUIConnectionPoint@@V?$_CopyInterface@UIConnectionPoint@@@ATL@@VCComSingleThreadModel@6@@ATL@@QAE@XZ 10005920 f i IndividualRecognition.obj
 0001:00004960       ??0?$CComEnum@UIEnumConnections@@$1?_GUID_b196b287_bab4_101a_b69c_00aa00341d07@@3U__s_GUID@@BUtagCONNECTDATA@@V?$_Copy@UtagCONNECTDATA@@@ATL@@VCComSingleThreadModel@6@@ATL@@QAE@XZ 10005960 f i IndividualRecognition.obj
 0001:000049a0       ??0?$CComEnumImpl@UIEnumConnectionPoints@@$1?_GUID_b196b285_bab4_101a_b69c_00aa00341d07@@3U__s_GUID@@BPAUIConnectionPoint@@V?$_CopyInterface@UIConnectionPoint@@@ATL@@@ATL@@QAE@XZ 100059a0 f i IndividualRecognition.obj
 0001:00004a00       ??0?$CComEnumImpl@UIEnumConnections@@$1?_GUID_b196b287_bab4_101a_b69c_00aa00341d07@@3U__s_GUID@@BUtagCONNECTDATA@@V?$_Copy@UtagCONNECTDATA@@@ATL@@@ATL@@QAE@XZ 10005a00 f i IndividualRecognition.obj
 0001:00004a60       ??0?$CComObject@V?$CComEnum@UIEnumConnectionPoints@@$1?_GUID_b196b285_bab4_101a_b69c_00aa00341d07@@3U__s_GUID@@BPAUIConnectionPoint@@V?$_CopyInterface@UIConnectionPoint@@@ATL@@VCComSingleThreadModel@6@@ATL@@@ATL@@QAE@PAX@Z 10005a60 f i IndividualRecognition.obj
 0001:00004ab0       ??0?$CComObject@V?$CComEnum@UIEnumConnections@@$1?_GUID_b196b287_bab4_101a_b69c_00aa00341d07@@3U__s_GUID@@BUtagCONNECTDATA@@V?$_Copy@UtagCONNECTDATA@@@ATL@@VCComSingleThreadModel@6@@ATL@@@ATL@@QAE@PAX@Z 10005ab0 f i IndividualRecognition.obj
 0001:00004b00       ??0?$CComObject@VCOPOSIndividualRecognition@@@ATL@@QAE@PAX@Z 10005b00 f i IndividualRecognition.obj
 0001:00004c20       ??0?$CComObjectCached@VCComClassFactory@ATL@@@ATL@@QAE@PAX@Z 10005c20 f i IndividualRecognition.obj
 0001:00004c60       ??0?$CComObjectRootEx@VCComMultiThreadModel@ATL@@@ATL@@QAE@XZ 10005c60 f i IndividualRecognition.obj
 0001:00004ca0       ??0?$CComObjectRootEx@VCComSingleThreadModel@ATL@@@ATL@@QAE@XZ 10005ca0 f i IndividualRecognition.obj
 0001:00004cd0       ??0?$CComPtr@UIAdviseSink@@@ATL@@QAE@PAUIAdviseSink@@@Z 10005cd0 f i IndividualRecognition.obj
 0001:00004d00       ??0?$CComPtr@UICatRegister@@@ATL@@QAE@XZ 10005d00 f i IndividualRecognition.obj
 0001:00004d30       ??0?$CComPtr@UIConnectionPoint@@@ATL@@QAE@XZ 10005d30 f i IndividualRecognition.obj
 0001:00004d60       ??0?$CComPtr@UIConnectionPointContainer@@@ATL@@QAE@XZ 10005d60 f i IndividualRecognition.obj
 0001:00004d90       ??0?$CComPtr@UIDataObject@@@ATL@@QAE@XZ 10005d90 f i IndividualRecognition.obj
 0001:00004dc0       ??0?$CComPtr@UIDispatch@@@ATL@@QAE@XZ 10005dc0 f i IndividualRecognition.obj
 0001:00004df0       ??0?$CComPtr@UIOleClientSite@@@ATL@@QAE@PAUIOleClientSite@@@Z 10005df0 f i IndividualRecognition.obj
 0001:00004e20       ??0?$CComPtr@UIOleControlSite@@@ATL@@QAE@XZ 10005e20 f i IndividualRecognition.obj
 0001:00004e50       ??0?$CComPtr@UIOleInPlaceActiveObject@@@ATL@@QAE@XZ 10005e50 f i IndividualRecognition.obj
 0001:00004e80       ??0?$CComPtr@UIOleInPlaceFrame@@@ATL@@QAE@XZ 10005e80 f i IndividualRecognition.obj
 0001:00004eb0       ??0?$CComPtr@UIOleInPlaceObject@@@ATL@@QAE@XZ 10005eb0 f i IndividualRecognition.obj
 0001:00004ee0       ??0?$CComPtr@UIOleInPlaceUIWindow@@@ATL@@QAE@XZ 10005ee0 f i IndividualRecognition.obj
 0001:00004f10       ??0?$CComPtr@UIOleObject@@@ATL@@QAE@XZ 10005f10 f i IndividualRecognition.obj
 0001:00004f40       ??0?$CComPtr@UIPersistStream@@@ATL@@QAE@XZ 10005f40 f i IndividualRecognition.obj
 0001:00004f70       ??0?$CComPtr@UIPersistStreamInit@@@ATL@@QAE@XZ 10005f70 f i IndividualRecognition.obj
 0001:00004fa0       ??0?$CComPtr@UIPointerInactive@@@ATL@@QAE@XZ 10005fa0 f i IndividualRecognition.obj
 0001:00004fd0       ??0?$CComPtr@UIProvideClassInfo2@@@ATL@@QAE@XZ 10005fd0 f i IndividualRecognition.obj
 0001:00005000       ??0?$CComPtr@UISpecifyPropertyPages@@@ATL@@QAE@XZ 10006000 f i IndividualRecognition.obj
 0001:00005030       ??0?$CComPtr@UIStream@@@ATL@@QAE@XZ 10006030 f i IndividualRecognition.obj
 0001:00005060       ??0?$CComPtr@UITypeInfo2@@@ATL@@QAE@XZ 10006060 f i IndividualRecognition.obj
 0001:00005090       ??0?$CComPtr@UITypeInfo@@@ATL@@QAE@ABV01@@Z 10006090 f i IndividualRecognition.obj
 0001:000050c0       ??0?$CComPtr@UITypeInfo@@@ATL@@QAE@XZ 100060c0 f i IndividualRecognition.obj
 0001:000050f0       ??0?$CComPtr@UITypeLib@@@ATL@@QAE@XZ 100060f0 f i IndividualRecognition.obj
 0001:00005120       ??0?$CComPtr@UIUnknown@@@ATL@@QAE@ABV01@@Z 10006120 f i IndividualRecognition.obj
 0001:00005150       ??0?$CComPtr@UIUnknown@@@ATL@@QAE@PAUIUnknown@@@Z 10006150 f i IndividualRecognition.obj
 0001:00005180       ??0?$CComPtr@UIUnknown@@@ATL@@QAE@XZ 10006180 f i IndividualRecognition.obj
 0001:000051b0       ??0?$CComPtr@UIViewObjectEx@@@ATL@@QAE@XZ 100061b0 f i IndividualRecognition.obj
 0001:000051e0       ??0?$CComPtrBase@UIAdviseSink@@@ATL@@IAE@PAUIAdviseSink@@@Z 100061e0 f i IndividualRecognition.obj
 0001:00005230       ??0?$CComPtrBase@UICatRegister@@@ATL@@IAE@XZ 10006230 f i IndividualRecognition.obj
 0001:00005250       ??0?$CComPtrBase@UIConnectionPoint@@@ATL@@IAE@XZ 10006250 f i IndividualRecognition.obj
 0001:00005270       ??0?$CComPtrBase@UIConnectionPointContainer@@@ATL@@IAE@XZ 10006270 f i IndividualRecognition.obj
 0001:00005290       ??0?$CComPtrBase@UIDataObject@@@ATL@@IAE@XZ 10006290 f i IndividualRecognition.obj
 0001:000052b0       ??0?$CComPtrBase@UIDispatch@@@ATL@@IAE@XZ 100062b0 f i IndividualRecognition.obj
 0001:000052d0       ??0?$CComPtrBase@UIOleClientSite@@@ATL@@IAE@PAUIOleClientSite@@@Z 100062d0 f i IndividualRecognition.obj
 0001:00005320       ??0?$CComPtrBase@UIOleControlSite@@@ATL@@IAE@XZ 10006320 f i IndividualRecognition.obj
 0001:00005340       ??0?$CComPtrBase@UIOleInPlaceActiveObject@@@ATL@@IAE@XZ 10006340 f i IndividualRecognition.obj
 0001:00005360       ??0?$CComPtrBase@UIOleInPlaceFrame@@@ATL@@IAE@XZ 10006360 f i IndividualRecognition.obj
 0001:00005380       ??0?$CComPtrBase@UIOleInPlaceObject@@@ATL@@IAE@XZ 10006380 f i IndividualRecognition.obj
 0001:000053a0       ??0?$CComPtrBase@UIOleInPlaceUIWindow@@@ATL@@IAE@XZ 100063a0 f i IndividualRecognition.obj
 0001:000053c0       ??0?$CComPtrBase@UIOleObject@@@ATL@@IAE@XZ 100063c0 f i IndividualRecognition.obj
 0001:000053e0       ??0?$CComPtrBase@UIPersistStream@@@ATL@@IAE@XZ 100063e0 f i IndividualRecognition.obj
 0001:00005400       ??0?$CComPtrBase@UIPersistStreamInit@@@ATL@@IAE@XZ 10006400 f i IndividualRecognition.obj
 0001:00005420       ??0?$CComPtrBase@UIPointerInactive@@@ATL@@IAE@XZ 10006420 f i IndividualRecognition.obj
 0001:00005440       ??0?$CComPtrBase@UIProvideClassInfo2@@@ATL@@IAE@XZ 10006440 f i IndividualRecognition.obj
 0001:00005460       ??0?$CComPtrBase@UISpecifyPropertyPages@@@ATL@@IAE@XZ 10006460 f i IndividualRecognition.obj
 0001:00005480       ??0?$CComPtrBase@UIStream@@@ATL@@IAE@XZ 10006480 f i IndividualRecognition.obj
 0001:000054a0       ??0?$CComPtrBase@UITypeInfo2@@@ATL@@IAE@XZ 100064a0 f i IndividualRecognition.obj
 0001:000054c0       ??0?$CComPtrBase@UITypeInfo@@@ATL@@IAE@PAUITypeInfo@@@Z 100064c0 f i IndividualRecognition.obj
 0001:00005510       ??0?$CComPtrBase@UITypeInfo@@@ATL@@IAE@XZ 10006510 f i IndividualRecognition.obj
 0001:00005530       ??0?$CComPtrBase@UITypeLib@@@ATL@@IAE@XZ 10006530 f i IndividualRecognition.obj
 0001:00005550       ??0?$CComPtrBase@UIUnknown@@@ATL@@IAE@PAUIUnknown@@@Z 10006550 f i IndividualRecognition.obj
 0001:000055a0       ??0?$CComPtrBase@UIUnknown@@@ATL@@IAE@XZ 100065a0 f i IndividualRecognition.obj
 0001:000055c0       ??0?$CComPtrBase@UIViewObjectEx@@@ATL@@IAE@XZ 100065c0 f i IndividualRecognition.obj
 0001:000055e0       ??0?$CComQIPtr@UIOleControlSite@@$1?_GUID_b196b289_bab4_101a_b69c_00aa00341d07@@3U__s_GUID@@B@ATL@@QAE@PAUIUnknown@@@Z 100065e0 f i IndividualRecognition.obj
 0001:00005640       ??0?$CComQIPtr@UIOleObject@@$1?_GUID_00000112_0000_0000_c000_000000000046@@3U__s_GUID@@B@ATL@@QAE@XZ 10006640 f i IndividualRecognition.obj
 0001:00005670       ??0?$CComQIPtr@UISpecifyPropertyPages@@$1?_GUID_b196b28b_bab4_101a_b69c_00aa00341d07@@3U__s_GUID@@B@ATL@@QAE@XZ 10006670 f i IndividualRecognition.obj
 0001:000056a0       ??0?$CSimpleMap@PA_WPA_WVCExpansionVectorEqualHelper@ATL@@@ATL@@QAE@XZ 100066a0 f i IndividualRecognition.obj
 0001:000056e0       ??0?$CTempBuffer@E$0BAA@VCCRTAllocator@ATL@@@ATL@@QAE@XZ 100066e0 f i IndividualRecognition.obj
 0001:00005700       ??0?$CTempBuffer@_W$0BAA@VCCRTAllocator@ATL@@@ATL@@QAE@XZ 10006700 f i IndividualRecognition.obj
 0001:00005720       ??0?$CTempBuffer@_W$0EAA@VCCRTAllocator@ATL@@@ATL@@QAE@XZ 10006720 f i IndividualRecognition.obj
 0001:00005740       ??0?$Wrapper@PA_W@?$CSimpleMap@PA_WPA_WVCExpansionVectorEqualHelper@ATL@@@ATL@@QAE@ABQA_W@Z 10006740 f i IndividualRecognition.obj
 0001:00005770       ??0CAtlModule@ATL@@QAE@XZ  10006770 f i IndividualRecognition.obj
 0001:00005890       ??0CComAutoDeleteCriticalSection@ATL@@QAE@XZ 10006890 f i IndividualRecognition.obj
 0001:000058c0       ??0CComBSTR@ATL@@QAE@XZ    100068c0 f i IndividualRecognition.obj
 0001:000058e0       ??0CComClassFactory@ATL@@QAE@XZ 100068e0 f i IndividualRecognition.obj
 0001:00005920       ??0CComModule@ATL@@QAE@XZ  10006920 f i IndividualRecognition.obj
 0001:00005990       ??0CComObjectRootBase@ATL@@QAE@XZ 10006990 f i IndividualRecognition.obj
 0001:000059b0       ??0CComSafeDeleteCriticalSection@ATL@@QAE@XZ 100069b0 f i IndividualRecognition.obj
 0001:000059e0       ??0CComVariant@ATL@@QAE@XZ 100069e0 f i IndividualRecognition.obj
 0001:00005a30       ??0CExpansionVector@ATL@@QAE@XZ 10006a30 f i IndividualRecognition.obj
 0001:00005a60       ??0CParseBuffer@CRegParser@ATL@@QAE@H@Z 10006a60 f i IndividualRecognition.obj
 0001:00005ad0       ??0CRegKey@ATL@@QAE@PAUHKEY__@@@Z 10006ad0 f i IndividualRecognition.obj
 0001:00005b10       ??0CRegKey@ATL@@QAE@PAVCAtlTransactionManager@1@@Z 10006b10 f i IndividualRecognition.obj
 0001:00005b50       ??0CRegObject@ATL@@QAE@XZ  10006b50 f i IndividualRecognition.obj
 0001:00005b90       ??0CRegParser@ATL@@QAE@PAVCRegObject@1@@Z 10006b90 f i IndividualRecognition.obj
 0001:00005bc0       ??0IClassFactory@@QAE@XZ   10006bc0 f i IndividualRecognition.obj
 0001:00005bf0       ??0IEnumConnectionPoints@@QAE@XZ 10006bf0 f i IndividualRecognition.obj
 0001:00005c20       ??0IEnumConnections@@QAE@XZ 10006c20 f i IndividualRecognition.obj
 0001:00005c50       ??0IRegistrarBase@@QAE@XZ  10006c50 f i IndividualRecognition.obj
 0001:00005c80       ??0IUnknown@@QAE@XZ        10006c80 f i IndividualRecognition.obj
 0001:00005ca0       ??0ModuleLockHelper@ATL@@QAE@XZ 10006ca0 f i IndividualRecognition.obj
 0001:00005ce0       ??0OposVariant@@QAE@XZ     10006ce0 f i IndividualRecognition.obj
 0001:00005d10       ??0Wrapper@?$CSimpleArray@GV?$CSimpleArrayEqualHelper@G@ATL@@@ATL@@QAE@ABG@Z 10006d10 f i IndividualRecognition.obj
 0001:00005d40       ??0_ATL_MODULE70@ATL@@QAE@XZ 10006d40 f i IndividualRecognition.obj
 0001:00005d70       ??0_ATL_MSG@ATL@@QAE@PAUHWND__@@IIJH@Z 10006d70 f i IndividualRecognition.obj
 0001:00005de0       ??0_U_MENUorID@ATL@@QAE@I@Z 10006de0 f i IndividualRecognition.obj
 0001:00005e00       ??0_U_RECT@ATL@@QAE@AAUtagRECT@@@Z 10006e00 f i IndividualRecognition.obj
 0001:00005e20       ??0stringdispid@CComTypeInfoHolder@ATL@@QAE@XZ 10006e20 f i IndividualRecognition.obj
 0001:00005e60       ??1?$CAtlModuleT@VCComModule@ATL@@@ATL@@UAE@XZ 10006e60 f i IndividualRecognition.obj
 0001:00005e90       ??1?$CAtlSafeAllocBufferManager@VCCRTAllocator@ATL@@@_ATL_SAFE_ALLOCA_IMPL@ATL@@QAE@XZ 10006e90 f i IndividualRecognition.obj
 0001:00005ee0       ??1?$CAutoVectorPtr@_W@ATL@@QAE@XZ 10006ee0 f i IndividualRecognition.obj
 0001:00005f10       ??1?$CComAggObject@VCOPOSIndividualRecognition@@@ATL@@UAE@XZ 10006f10 f i IndividualRecognition.obj
 0001:00005f80       ??1?$CComContainedObject@VCOPOSIndividualRecognition@@@ATL@@UAE@XZ 10006f80 f i IndividualRecognition.obj
 0001:00005fb0       ??1?$CComCritSecLock@VCComCriticalSection@ATL@@@ATL@@QAE@XZ 10006fb0 f i IndividualRecognition.obj
 0001:00005fe0       ??1?$CComEnum@UIEnumConnectionPoints@@$1?_GUID_b196b285_bab4_101a_b69c_00aa00341d07@@3U__s_GUID@@BPAUIConnectionPoint@@V?$_CopyInterface@UIConnectionPoint@@@ATL@@VCComSingleThreadModel@6@@ATL@@UAE@XZ 10006fe0 f i IndividualRecognition.obj
 0001:00006010       ??1?$CComEnum@UIEnumConnections@@$1?_GUID_b196b287_bab4_101a_b69c_00aa00341d07@@3U__s_GUID@@BUtagCONNECTDATA@@V?$_Copy@UtagCONNECTDATA@@@ATL@@VCComSingleThreadModel@6@@ATL@@UAE@XZ 10007010 f i IndividualRecognition.obj
 0001:00006040       ??1?$CComEnumImpl@UIEnumConnectionPoints@@$1?_GUID_b196b285_bab4_101a_b69c_00aa00341d07@@3U__s_GUID@@BPAUIConnectionPoint@@V?$_CopyInterface@UIConnectionPoint@@@ATL@@@ATL@@UAE@XZ 10007040 f i IndividualRecognition.obj
 0001:000060d0       ??1?$CComEnumImpl@UIEnumConnections@@$1?_GUID_b196b287_bab4_101a_b69c_00aa00341d07@@3U__s_GUID@@BUtagCONNECTDATA@@V?$_Copy@UtagCONNECTDATA@@@ATL@@@ATL@@UAE@XZ 100070d0 f i IndividualRecognition.obj
 0001:00006160       ??1?$CComObject@V?$CComEnum@UIEnumConnectionPoints@@$1?_GUID_b196b285_bab4_101a_b69c_00aa00341d07@@3U__s_GUID@@BPAUIConnectionPoint@@V?$_CopyInterface@UIConnectionPoint@@@ATL@@VCComSingleThreadModel@6@@ATL@@@ATL@@UAE@XZ 10007160 f i IndividualRecognition.obj
 0001:000061c0       ??1?$CComObject@V?$CComEnum@UIEnumConnections@@$1?_GUID_b196b287_bab4_101a_b69c_00aa00341d07@@3U__s_GUID@@BUtagCONNECTDATA@@V?$_Copy@UtagCONNECTDATA@@@ATL@@VCComSingleThreadModel@6@@ATL@@@ATL@@UAE@XZ 100071c0 f i IndividualRecognition.obj
 0001:00006220       ??1?$CComObject@VCOPOSIndividualRecognition@@@ATL@@UAE@XZ 10007220 f i IndividualRecognition.obj
 0001:00006360       ??1?$CComObjectCached@VCComClassFactory@ATL@@@ATL@@UAE@XZ 10007360 f i IndividualRecognition.obj
 0001:000063b0       ??1?$CComObjectRootEx@VCComMultiThreadModel@ATL@@@ATL@@QAE@XZ 100073b0 f i IndividualRecognition.obj
 0001:000063e0       ??1?$CComObjectRootEx@VCComSingleThreadModel@ATL@@@ATL@@QAE@XZ 100073e0 f i IndividualRecognition.obj
 0001:00006410       ??1?$CComPtr@UIAdviseSink@@@ATL@@QAE@XZ 10007410 f i IndividualRecognition.obj
 0001:00006440       ??1?$CComPtr@UICatRegister@@@ATL@@QAE@XZ 10007440 f i IndividualRecognition.obj
 0001:00006470       ??1?$CComPtr@UIConnectionPoint@@@ATL@@QAE@XZ 10007470 f i IndividualRecognition.obj
 0001:000064a0       ??1?$CComPtr@UIConnectionPointContainer@@@ATL@@QAE@XZ 100074a0 f i IndividualRecognition.obj
 0001:000064d0       ??1?$CComPtr@UIDataObject@@@ATL@@QAE@XZ 100074d0 f i IndividualRecognition.obj
 0001:00006500       ??1?$CComPtr@UIDispatch@@@ATL@@QAE@XZ 10007500 f i IndividualRecognition.obj
 0001:00006530       ??1?$CComPtr@UIOleClientSite@@@ATL@@QAE@XZ 10007530 f i IndividualRecognition.obj
 0001:00006560       ??1?$CComPtr@UIOleControlSite@@@ATL@@QAE@XZ 10007560 f i IndividualRecognition.obj
 0001:00006590       ??1?$CComPtr@UIOleInPlaceActiveObject@@@ATL@@QAE@XZ 10007590 f i IndividualRecognition.obj
 0001:000065c0       ??1?$CComPtr@UIOleInPlaceFrame@@@ATL@@QAE@XZ 100075c0 f i IndividualRecognition.obj
 0001:000065f0       ??1?$CComPtr@UIOleInPlaceObject@@@ATL@@QAE@XZ 100075f0 f i IndividualRecognition.obj
 0001:00006620       ??1?$CComPtr@UIOleInPlaceUIWindow@@@ATL@@QAE@XZ 10007620 f i IndividualRecognition.obj
 0001:00006650       ??1?$CComPtr@UIOleObject@@@ATL@@QAE@XZ 10007650 f i IndividualRecognition.obj
 0001:00006680       ??1?$CComPtr@UIPersistStream@@@ATL@@QAE@XZ 10007680 f i IndividualRecognition.obj
 0001:000066b0       ??1?$CComPtr@UIPersistStreamInit@@@ATL@@QAE@XZ 100076b0 f i IndividualRecognition.obj
 0001:000066e0       ??1?$CComPtr@UIPointerInactive@@@ATL@@QAE@XZ 100076e0 f i IndividualRecognition.obj
 0001:00006710       ??1?$CComPtr@UIProvideClassInfo2@@@ATL@@QAE@XZ 10007710 f i IndividualRecognition.obj
 0001:00006740       ??1?$CComPtr@UISpecifyPropertyPages@@@ATL@@QAE@XZ 10007740 f i IndividualRecognition.obj
 0001:00006770       ??1?$CComPtr@UIStream@@@ATL@@QAE@XZ 10007770 f i IndividualRecognition.obj
 0001:000067a0       ??1?$CComPtr@UITypeInfo2@@@ATL@@QAE@XZ 100077a0 f i IndividualRecognition.obj
 0001:000067d0       ??1?$CComPtr@UITypeInfo@@@ATL@@QAE@XZ 100077d0 f i IndividualRecognition.obj
 0001:00006800       ??1?$CComPtr@UITypeLib@@@ATL@@QAE@XZ 10007800 f i IndividualRecognition.obj
 0001:00006830       ??1?$CComPtr@UIUnknown@@@ATL@@QAE@XZ 10007830 f i IndividualRecognition.obj
 0001:00006860       ??1?$CComPtr@UIViewObjectEx@@@ATL@@QAE@XZ 10007860 f i IndividualRecognition.obj
 0001:00006890       ??1?$CComPtrBase@UIAdviseSink@@@ATL@@QAE@XZ 10007890 f i IndividualRecognition.obj
 0001:000068e0       ??1?$CComPtrBase@UICatRegister@@@ATL@@QAE@XZ 100078e0 f i IndividualRecognition.obj
 0001:00006930       ??1?$CComPtrBase@UIConnectionPoint@@@ATL@@QAE@XZ 10007930 f i IndividualRecognition.obj
 0001:00006980       ??1?$CComPtrBase@UIConnectionPointContainer@@@ATL@@QAE@XZ 10007980 f i IndividualRecognition.obj
 0001:000069d0       ??1?$CComPtrBase@UIDataObject@@@ATL@@QAE@XZ 100079d0 f i IndividualRecognition.obj
 0001:00006a20       ??1?$CComPtrBase@UIDispatch@@@ATL@@QAE@XZ 10007a20 f i IndividualRecognition.obj
 0001:00006a70       ??1?$CComPtrBase@UIOleClientSite@@@ATL@@QAE@XZ 10007a70 f i IndividualRecognition.obj
 0001:00006ac0       ??1?$CComPtrBase@UIOleControlSite@@@ATL@@QAE@XZ 10007ac0 f i IndividualRecognition.obj
 0001:00006b10       ??1?$CComPtrBase@UIOleInPlaceActiveObject@@@ATL@@QAE@XZ 10007b10 f i IndividualRecognition.obj
 0001:00006b60       ??1?$CComPtrBase@UIOleInPlaceFrame@@@ATL@@QAE@XZ 10007b60 f i IndividualRecognition.obj
 0001:00006bb0       ??1?$CComPtrBase@UIOleInPlaceObject@@@ATL@@QAE@XZ 10007bb0 f i IndividualRecognition.obj
 0001:00006c00       ??1?$CComPtrBase@UIOleInPlaceUIWindow@@@ATL@@QAE@XZ 10007c00 f i IndividualRecognition.obj
 0001:00006c50       ??1?$CComPtrBase@UIOleObject@@@ATL@@QAE@XZ 10007c50 f i IndividualRecognition.obj
 0001:00006ca0       ??1?$CComPtrBase@UIPersistStream@@@ATL@@QAE@XZ 10007ca0 f i IndividualRecognition.obj
 0001:00006cf0       ??1?$CComPtrBase@UIPersistStreamInit@@@ATL@@QAE@XZ 10007cf0 f i IndividualRecognition.obj
 0001:00006d40       ??1?$CComPtrBase@UIPointerInactive@@@ATL@@QAE@XZ 10007d40 f i IndividualRecognition.obj
 0001:00006d90       ??1?$CComPtrBase@UIProvideClassInfo2@@@ATL@@QAE@XZ 10007d90 f i IndividualRecognition.obj
 0001:00006de0       ??1?$CComPtrBase@UISpecifyPropertyPages@@@ATL@@QAE@XZ 10007de0 f i IndividualRecognition.obj
 0001:00006e30       ??1?$CComPtrBase@UIStream@@@ATL@@QAE@XZ 10007e30 f i IndividualRecognition.obj
 0001:00006e80       ??1?$CComPtrBase@UITypeInfo2@@@ATL@@QAE@XZ 10007e80 f i IndividualRecognition.obj
 0001:00006ed0       ??1?$CComPtrBase@UITypeInfo@@@ATL@@QAE@XZ 10007ed0 f i IndividualRecognition.obj
 0001:00006f20       ??1?$CComPtrBase@UITypeLib@@@ATL@@QAE@XZ 10007f20 f i IndividualRecognition.obj
 0001:00006f70       ??1?$CComPtrBase@UIUnknown@@@ATL@@QAE@XZ 10007f70 f i IndividualRecognition.obj
 0001:00006fc0       ??1?$CComPtrBase@UIViewObjectEx@@@ATL@@QAE@XZ 10007fc0 f i IndividualRecognition.obj
 0001:00007010       ??1?$CComQIPtr@UIOleControlSite@@$1?_GUID_b196b289_bab4_101a_b69c_00aa00341d07@@3U__s_GUID@@B@ATL@@QAE@XZ 10008010 f i IndividualRecognition.obj
 0001:00007040       ??1?$CComQIPtr@UIOleObject@@$1?_GUID_00000112_0000_0000_c000_000000000046@@3U__s_GUID@@B@ATL@@QAE@XZ 10008040 f i IndividualRecognition.obj
 0001:00007070       ??1?$CComQIPtr@UISpecifyPropertyPages@@$1?_GUID_b196b28b_bab4_101a_b69c_00aa00341d07@@3U__s_GUID@@B@ATL@@QAE@XZ 10008070 f i IndividualRecognition.obj
 0001:000070a0       ??1?$CSimpleMap@PA_WPA_WVCExpansionVectorEqualHelper@ATL@@@ATL@@QAE@XZ 100080a0 f i IndividualRecognition.obj
 0001:000070d0       ??1?$CTempBuffer@E$0BAA@VCCRTAllocator@ATL@@@ATL@@QAE@XZ 100080d0 f i IndividualRecognition.obj
 0001:00007110       ??1?$CTempBuffer@_W$0BAA@VCCRTAllocator@ATL@@@ATL@@QAE@XZ 10008110 f i IndividualRecognition.obj
 0001:00007150       ??1?$CTempBuffer@_W$0EAA@VCCRTAllocator@ATL@@@ATL@@QAE@XZ 10008150 f i IndividualRecognition.obj
 0001:00007190       ??1CAtlModule@ATL@@UAE@XZ  10008190 f i IndividualRecognition.obj
 0001:000071c0       ??1CComAutoDeleteCriticalSection@ATL@@QAE@XZ 100081c0 f i IndividualRecognition.obj
 0001:000071f0       ??1CComClassFactory@ATL@@UAE@XZ 100081f0 f i IndividualRecognition.obj
 0001:00007220       ??1CComModule@ATL@@UAE@XZ  10008220 f i IndividualRecognition.obj
 0001:00007250       ??1CComObjectRootBase@ATL@@QAE@XZ 10008250 f i IndividualRecognition.obj
 0001:00007270       ??1CComSafeDeleteCriticalSection@ATL@@QAE@XZ 10008270 f i IndividualRecognition.obj
 0001:000072b0       ??1CComVariant@ATL@@QAE@XZ 100082b0 f i IndividualRecognition.obj
 0001:00007310       ??1CExpansionVector@ATL@@QAE@XZ 10008310 f i IndividualRecognition.obj
 0001:00007340       ??1CParseBuffer@CRegParser@ATL@@QAE@XZ 10008340 f i IndividualRecognition.obj
 0001:00007380       ??1CRegKey@ATL@@QAE@XZ     10008380 f i IndividualRecognition.obj
 0001:000073b0       ??1CRegObject@ATL@@UAE@XZ  100083b0 f i IndividualRecognition.obj
 0001:000073f0       ??1ModuleLockHelper@ATL@@QAE@XZ 100083f0 f i IndividualRecognition.obj
 0001:00007430       ??1OposVariant@@QAE@XZ     10008430 f i IndividualRecognition.obj
 0001:00007460       ??1_ATL_MODULE70@ATL@@QAE@XZ 10008460 f i IndividualRecognition.obj
 0001:00007490       ??4?$CComPtr@UIAdviseSink@@@ATL@@QAEPAUIAdviseSink@@PAU2@@Z 10008490 f i IndividualRecognition.obj
 0001:000074f0       ??4?$CComPtr@UIOleClientSite@@@ATL@@QAEPAUIOleClientSite@@PAU2@@Z 100084f0 f i IndividualRecognition.obj
 0001:00007550       ??4?$CComPtr@UIUnknown@@@ATL@@QAEPAUIUnknown@@PAU2@@Z 10008550 f i IndividualRecognition.obj
 0001:000075b0       ??4?$CComQIPtr@UIOleObject@@$1?_GUID_00000112_0000_0000_c000_000000000046@@3U__s_GUID@@B@ATL@@QAEPAUIOleObject@@PAUIUnknown@@@Z 100085b0 f i IndividualRecognition.obj
 0001:00007600       ??4?$CComQIPtr@UISpecifyPropertyPages@@$1?_GUID_b196b28b_bab4_101a_b69c_00aa00341d07@@3U__s_GUID@@B@ATL@@QAEPAUISpecifyPropertyPages@@PAUIUnknown@@@Z 10008600 f i IndividualRecognition.obj
 0001:00007650       ??7?$CComPtrBase@UIOleClientSite@@@ATL@@QBE_NXZ 10008650 f i IndividualRecognition.obj
 0001:00007690       ??7?$CComPtrBase@UIOleInPlaceSiteWindowless@@@ATL@@QBE_NXZ 10008690 f i IndividualRecognition.obj
 0001:000076d0       ??7CComBSTR@ATL@@QBE_NXZ   100086d0 f i IndividualRecognition.obj
 0001:00007710       ??8?$CComPtrBase@UIConnectionPointContainer@@@ATL@@QBE_NPAUIConnectionPointContainer@@@Z 10008710 f i IndividualRecognition.obj
 0001:00007750       ??8?$CComPtrBase@UIDataAdviseHolder@@@ATL@@QBE_NPAUIDataAdviseHolder@@@Z 10008750 f i IndividualRecognition.obj
 0001:00007790       ??8?$CComPtrBase@UIOleAdviseHolder@@@ATL@@QBE_NPAUIOleAdviseHolder@@@Z 10008790 f i IndividualRecognition.obj
 0001:000077d0       ??8?$CComPtrBase@UIOleClientSite@@@ATL@@QBE_NPAUIOleClientSite@@@Z 100087d0 f i IndividualRecognition.obj
 0001:00007810       ??8?$CComPtrBase@UIOleControlSite@@@ATL@@QBE_NPAUIOleControlSite@@@Z 10008810 f i IndividualRecognition.obj
 0001:00007850       ??8?$CComPtrBase@UIOleInPlaceObject@@@ATL@@QBE_NPAUIOleInPlaceObject@@@Z 10008850 f i IndividualRecognition.obj
 0001:00007890       ??8?$CComPtrBase@UIOleInPlaceSiteWindowless@@@ATL@@QBE_NPAUIOleInPlaceSiteWindowless@@@Z 10008890 f i IndividualRecognition.obj
 0001:000078d0       ??8?$CComPtrBase@UIOleObject@@@ATL@@QBE_NPAUIOleObject@@@Z 100088d0 f i IndividualRecognition.obj
 0001:00007910       ??8?$CComPtrBase@UIPersistStream@@@ATL@@QBE_NPAUIPersistStream@@@Z 10008910 f i IndividualRecognition.obj
 0001:00007950       ??8?$CComPtrBase@UIPersistStreamInit@@@ATL@@QBE_NPAUIPersistStreamInit@@@Z 10008950 f i IndividualRecognition.obj
 0001:00007990       ??8?$CComPtrBase@UIPointerInactive@@@ATL@@QBE_NPAUIPointerInactive@@@Z 10008990 f i IndividualRecognition.obj
 0001:000079d0       ??8?$CComPtrBase@UIUnknown@@@ATL@@QBE_NPAUIUnknown@@@Z 100089d0 f i IndividualRecognition.obj
 0001:00007a10       ??8?$CComPtrBase@UIViewObjectEx@@@ATL@@QBE_NPAUIViewObjectEx@@@Z 10008a10 f i IndividualRecognition.obj
 0001:00007a50       ??8CComBSTR@ATL@@QBE_NH@Z  10008a50 f i IndividualRecognition.obj
 0001:00007ab0       ??9?$CComPtrBase@UIConnectionPointContainer@@@ATL@@QBE_NPAUIConnectionPointContainer@@@Z 10008ab0 f i IndividualRecognition.obj
 0001:00007b00       ??9?$CComPtrBase@UIDataAdviseHolder@@@ATL@@QBE_NPAUIDataAdviseHolder@@@Z 10008b00 f i IndividualRecognition.obj
 0001:00007b50       ??9?$CComPtrBase@UIOleAdviseHolder@@@ATL@@QBE_NPAUIOleAdviseHolder@@@Z 10008b50 f i IndividualRecognition.obj
 0001:00007ba0       ??9?$CComPtrBase@UIOleClientSite@@@ATL@@QBE_NPAUIOleClientSite@@@Z 10008ba0 f i IndividualRecognition.obj
 0001:00007bf0       ??9?$CComPtrBase@UIOleControlSite@@@ATL@@QBE_NPAUIOleControlSite@@@Z 10008bf0 f i IndividualRecognition.obj
 0001:00007c40       ??9?$CComPtrBase@UIOleInPlaceObject@@@ATL@@QBE_NPAUIOleInPlaceObject@@@Z 10008c40 f i IndividualRecognition.obj
 0001:00007c90       ??9?$CComPtrBase@UIOleInPlaceSiteWindowless@@@ATL@@QBE_NPAUIOleInPlaceSiteWindowless@@@Z 10008c90 f i IndividualRecognition.obj
 0001:00007ce0       ??9?$CComPtrBase@UIOleObject@@@ATL@@QBE_NPAUIOleObject@@@Z 10008ce0 f i IndividualRecognition.obj
 0001:00007d30       ??9?$CComPtrBase@UIPersistStream@@@ATL@@QBE_NPAUIPersistStream@@@Z 10008d30 f i IndividualRecognition.obj
 0001:00007d80       ??9?$CComPtrBase@UIPersistStreamInit@@@ATL@@QBE_NPAUIPersistStreamInit@@@Z 10008d80 f i IndividualRecognition.obj
 0001:00007dd0       ??9?$CComPtrBase@UIPointerInactive@@@ATL@@QBE_NPAUIPointerInactive@@@Z 10008dd0 f i IndividualRecognition.obj
 0001:00007e20       ??9?$CComPtrBase@UIUnknown@@@ATL@@QBE_NPAUIUnknown@@@Z 10008e20 f i IndividualRecognition.obj
 0001:00007e70       ??9?$CComPtrBase@UIViewObjectEx@@@ATL@@QBE_NPAUIViewObjectEx@@@Z 10008e70 f i IndividualRecognition.obj
 0001:00007ec0       ??9CComBSTR@ATL@@QBE_NH@Z  10008ec0 f i IndividualRecognition.obj
 0001:00007f10       ??B?$CComPtrBase@UIAdviseSink@@@ATL@@QBEPAUIAdviseSink@@XZ 10008f10 f i IndividualRecognition.obj
 0001:00007f30       ??B?$CComPtrBase@UIDataAdviseHolder@@@ATL@@QBEPAUIDataAdviseHolder@@XZ 10008f30 f i IndividualRecognition.obj
 0001:00007f50       ??B?$CComPtrBase@UIDataObject@@@ATL@@QBEPAUIDataObject@@XZ 10008f50 f i IndividualRecognition.obj
 0001:00007f70       ??B?$CComPtrBase@UIOleAdviseHolder@@@ATL@@QBEPAUIOleAdviseHolder@@XZ 10008f70 f i IndividualRecognition.obj
 0001:00007f90       ??B?$CComPtrBase@UIOleClientSite@@@ATL@@QBEPAUIOleClientSite@@XZ 10008f90 f i IndividualRecognition.obj
 0001:00007fb0       ??B?$CComPtrBase@UIOleControlSite@@@ATL@@QBEPAUIOleControlSite@@XZ 10008fb0 f i IndividualRecognition.obj
 0001:00007fd0       ??B?$CComPtrBase@UIOleInPlaceActiveObject@@@ATL@@QBEPAUIOleInPlaceActiveObject@@XZ 10008fd0 f i IndividualRecognition.obj
 0001:00007ff0       ??B?$CComPtrBase@UIOleInPlaceFrame@@@ATL@@QBEPAUIOleInPlaceFrame@@XZ 10008ff0 f i IndividualRecognition.obj
 0001:00008010       ??B?$CComPtrBase@UIOleInPlaceSiteWindowless@@@ATL@@QBEPAUIOleInPlaceSiteWindowless@@XZ 10009010 f i IndividualRecognition.obj
 0001:00008030       ??B?$CComPtrBase@UIOleInPlaceUIWindow@@@ATL@@QBEPAUIOleInPlaceUIWindow@@XZ 10009030 f i IndividualRecognition.obj
 0001:00008050       ??B?$CComPtrBase@UIOleObject@@@ATL@@QBEPAUIOleObject@@XZ 10009050 f i IndividualRecognition.obj
 0001:00008070       ??B?$CComPtrBase@UIPersistStream@@@ATL@@QBEPAUIPersistStream@@XZ 10009070 f i IndividualRecognition.obj
 0001:00008090       ??B?$CComPtrBase@UIProvideClassInfo2@@@ATL@@QBEPAUIProvideClassInfo2@@XZ 10009090 f i IndividualRecognition.obj
 0001:000080b0       ??B?$CComPtrBase@UISpecifyPropertyPages@@@ATL@@QBEPAUISpecifyPropertyPages@@XZ 100090b0 f i IndividualRecognition.obj
 0001:000080d0       ??B?$CComPtrBase@UIStream@@@ATL@@QBEPAUIStream@@XZ 100090d0 f i IndividualRecognition.obj
 0001:000080f0       ??B?$CComPtrBase@UITypeInfo2@@@ATL@@QBEPAUITypeInfo2@@XZ 100090f0 f i IndividualRecognition.obj
 0001:00008110       ??B?$CComPtrBase@UITypeInfo@@@ATL@@QBEPAUITypeInfo@@XZ 10009110 f i IndividualRecognition.obj
 0001:00008130       ??B?$CComPtrBase@UITypeLib@@@ATL@@QBEPAUITypeLib@@XZ 10009130 f i IndividualRecognition.obj
 0001:00008150       ??B?$CComPtrBase@UIUnknown@@@ATL@@QBEPAUIUnknown@@XZ 10009150 f i IndividualRecognition.obj
 0001:00008170       ??B?$CTempBuffer@E$0BAA@VCCRTAllocator@ATL@@@ATL@@QBEPAEXZ 10009170 f i IndividualRecognition.obj
 0001:00008190       ??B?$CTempBuffer@_W$0BAA@VCCRTAllocator@ATL@@@ATL@@QBEPA_WXZ 10009190 f i IndividualRecognition.obj
 0001:000081b0       ??B?$CTempBuffer@_W$0EAA@VCCRTAllocator@ATL@@@ATL@@QBEPA_WXZ 100091b0 f i IndividualRecognition.obj
 0001:000081d0       ??B?$CTraceCategoryEx@$00$0A@@ATL@@QAEIXZ 100091d0 f i IndividualRecognition.obj
 0001:000081f0       ??B?$CTraceCategoryEx@$07$0A@@ATL@@QAEIXZ 100091f0 f i IndividualRecognition.obj
 0001:00008210       ??B?$CTraceCategoryEx@$0CAAA@$0A@@ATL@@QAEIXZ 10009210 f i IndividualRecognition.obj
 0001:00008230       ??B?$CTraceCategoryEx@$0EA@$0A@@ATL@@QAEIXZ 10009230 f i IndividualRecognition.obj
 0001:00008250       ??B?$CTraceCategoryEx@$0IAA@$0A@@ATL@@QAEIXZ 10009250 f i IndividualRecognition.obj
 0001:00008270       ??BCComBSTR@ATL@@QBEPA_WXZ 10009270 f i IndividualRecognition.obj
 0001:00008290       ??BCRegKey@ATL@@QBEPAUHKEY__@@XZ 10009290 f i IndividualRecognition.obj
 0001:000082b0       ??C?$CComPtrBase@UIAdviseSink@@@ATL@@QBEPAV?$_NoAddRefReleaseOnCComPtr@UIAdviseSink@@@1@XZ 100092b0 f i IndividualRecognition.obj
 0001:00008300       ??C?$CComPtrBase@UICatRegister@@@ATL@@QBEPAV?$_NoAddRefReleaseOnCComPtr@UICatRegister@@@1@XZ 10009300 f i IndividualRecognition.obj
 0001:00008350       ??C?$CComPtrBase@UIConnectionPoint@@@ATL@@QBEPAV?$_NoAddRefReleaseOnCComPtr@UIConnectionPoint@@@1@XZ 10009350 f i IndividualRecognition.obj
 0001:000083a0       ??C?$CComPtrBase@UIConnectionPointContainer@@@ATL@@QBEPAV?$_NoAddRefReleaseOnCComPtr@UIConnectionPointContainer@@@1@XZ 100093a0 f i IndividualRecognition.obj
 0001:000083f0       ??C?$CComPtrBase@UIDataAdviseHolder@@@ATL@@QBEPAV?$_NoAddRefReleaseOnCComPtr@UIDataAdviseHolder@@@1@XZ 100093f0 f i IndividualRecognition.obj
 0001:00008440       ??C?$CComPtrBase@UIOleAdviseHolder@@@ATL@@QBEPAV?$_NoAddRefReleaseOnCComPtr@UIOleAdviseHolder@@@1@XZ 10009440 f i IndividualRecognition.obj
 0001:00008490       ??C?$CComPtrBase@UIOleClientSite@@@ATL@@QBEPAV?$_NoAddRefReleaseOnCComPtr@UIOleClientSite@@@1@XZ 10009490 f i IndividualRecognition.obj
 0001:000084e0       ??C?$CComPtrBase@UIOleControlSite@@@ATL@@QBEPAV?$_NoAddRefReleaseOnCComPtr@UIOleControlSite@@@1@XZ 100094e0 f i IndividualRecognition.obj
 0001:00008530       ??C?$CComPtrBase@UIOleInPlaceFrame@@@ATL@@QBEPAV?$_NoAddRefReleaseOnCComPtr@UIOleInPlaceFrame@@@1@XZ 10009530 f i IndividualRecognition.obj
 0001:00008580       ??C?$CComPtrBase@UIOleInPlaceObject@@@ATL@@QBEPAV?$_NoAddRefReleaseOnCComPtr@UIOleInPlaceObject@@@1@XZ 10009580 f i IndividualRecognition.obj
 0001:000085d0       ??C?$CComPtrBase@UIOleInPlaceSiteWindowless@@@ATL@@QBEPAV?$_NoAddRefReleaseOnCComPtr@UIOleInPlaceSiteWindowless@@@1@XZ 100095d0 f i IndividualRecognition.obj
 0001:00008620       ??C?$CComPtrBase@UIOleInPlaceUIWindow@@@ATL@@QBEPAV?$_NoAddRefReleaseOnCComPtr@UIOleInPlaceUIWindow@@@1@XZ 10009620 f i IndividualRecognition.obj
 0001:00008670       ??C?$CComPtrBase@UIOleObject@@@ATL@@QBEPAV?$_NoAddRefReleaseOnCComPtr@UIOleObject@@@1@XZ 10009670 f i IndividualRecognition.obj
 0001:000086c0       ??C?$CComPtrBase@UIPersistStream@@@ATL@@QBEPAV?$_NoAddRefReleaseOnCComPtr@UIPersistStream@@@1@XZ 100096c0 f i IndividualRecognition.obj
 0001:00008710       ??C?$CComPtrBase@UIPersistStreamInit@@@ATL@@QBEPAV?$_NoAddRefReleaseOnCComPtr@UIPersistStreamInit@@@1@XZ 10009710 f i IndividualRecognition.obj
 0001:00008760       ??C?$CComPtrBase@UIPointerInactive@@@ATL@@QBEPAV?$_NoAddRefReleaseOnCComPtr@UIPointerInactive@@@1@XZ 10009760 f i IndividualRecognition.obj
 0001:000087b0       ??C?$CComPtrBase@UIProvideClassInfo2@@@ATL@@QBEPAV?$_NoAddRefReleaseOnCComPtr@UIProvideClassInfo2@@@1@XZ 100097b0 f i IndividualRecognition.obj
 0001:00008800       ??C?$CComPtrBase@UISpecifyPropertyPages@@@ATL@@QBEPAV?$_NoAddRefReleaseOnCComPtr@UISpecifyPropertyPages@@@1@XZ 10009800 f i IndividualRecognition.obj
 0001:00008850       ??C?$CComPtrBase@UITypeInfo@@@ATL@@QBEPAV?$_NoAddRefReleaseOnCComPtr@UITypeInfo@@@1@XZ 10009850 f i IndividualRecognition.obj
 0001:000088a0       ??C?$CComPtrBase@UITypeLib@@@ATL@@QBEPAV?$_NoAddRefReleaseOnCComPtr@UITypeLib@@@1@XZ 100098a0 f i IndividualRecognition.obj
 0001:000088f0       ??C?$CComPtrBase@UIUnknown@@@ATL@@QBEPAV?$_NoAddRefReleaseOnCComPtr@UIUnknown@@@1@XZ 100098f0 f i IndividualRecognition.obj
 0001:00008940       ??C?$CComPtrBase@UIViewObjectEx@@@ATL@@QBEPAV?$_NoAddRefReleaseOnCComPtr@UIViewObjectEx@@@1@XZ 10009940 f i IndividualRecognition.obj
 0001:00008990       ??I?$CComPtrBase@UICatRegister@@@ATL@@QAEPAPAUICatRegister@@XZ 10009990 f i IndividualRecognition.obj
 0001:000089e0       ??I?$CComPtrBase@UIConnectionPoint@@@ATL@@QAEPAPAUIConnectionPoint@@XZ 100099e0 f i IndividualRecognition.obj
 0001:00008a30       ??I?$CComPtrBase@UIConnectionPointContainer@@@ATL@@QAEPAPAUIConnectionPointContainer@@XZ 10009a30 f i IndividualRecognition.obj
 0001:00008a80       ??I?$CComPtrBase@UIDataAdviseHolder@@@ATL@@QAEPAPAUIDataAdviseHolder@@XZ 10009a80 f i IndividualRecognition.obj
 0001:00008ad0       ??I?$CComPtrBase@UIDataObject@@@ATL@@QAEPAPAUIDataObject@@XZ 10009ad0 f i IndividualRecognition.obj
 0001:00008b20       ??I?$CComPtrBase@UIDispatch@@@ATL@@QAEPAPAUIDispatch@@XZ 10009b20 f i IndividualRecognition.obj
 0001:00008b70       ??I?$CComPtrBase@UIOleAdviseHolder@@@ATL@@QAEPAPAUIOleAdviseHolder@@XZ 10009b70 f i IndividualRecognition.obj
 0001:00008bc0       ??I?$CComPtrBase@UIOleControlSite@@@ATL@@QAEPAPAUIOleControlSite@@XZ 10009bc0 f i IndividualRecognition.obj
 0001:00008c10       ??I?$CComPtrBase@UIOleInPlaceActiveObject@@@ATL@@QAEPAPAUIOleInPlaceActiveObject@@XZ 10009c10 f i IndividualRecognition.obj
 0001:00008c60       ??I?$CComPtrBase@UIOleInPlaceFrame@@@ATL@@QAEPAPAUIOleInPlaceFrame@@XZ 10009c60 f i IndividualRecognition.obj
 0001:00008cb0       ??I?$CComPtrBase@UIOleInPlaceObject@@@ATL@@QAEPAPAUIOleInPlaceObject@@XZ 10009cb0 f i IndividualRecognition.obj
 0001:00008d00       ??I?$CComPtrBase@UIOleInPlaceSiteWindowless@@@ATL@@QAEPAPAUIOleInPlaceSiteWindowless@@XZ 10009d00 f i IndividualRecognition.obj
 0001:00008d50       ??I?$CComPtrBase@UIOleInPlaceUIWindow@@@ATL@@QAEPAPAUIOleInPlaceUIWindow@@XZ 10009d50 f i IndividualRecognition.obj
 0001:00008da0       ??I?$CComPtrBase@UIOleObject@@@ATL@@QAEPAPAUIOleObject@@XZ 10009da0 f i IndividualRecognition.obj
 0001:00008df0       ??I?$CComPtrBase@UIPersistStream@@@ATL@@QAEPAPAUIPersistStream@@XZ 10009df0 f i IndividualRecognition.obj
 0001:00008e40       ??I?$CComPtrBase@UIPointerInactive@@@ATL@@QAEPAPAUIPointerInactive@@XZ 10009e40 f i IndividualRecognition.obj
 0001:00008e90       ??I?$CComPtrBase@UIProvideClassInfo2@@@ATL@@QAEPAPAUIProvideClassInfo2@@XZ 10009e90 f i IndividualRecognition.obj
 0001:00008ee0       ??I?$CComPtrBase@UIStream@@@ATL@@QAEPAPAUIStream@@XZ 10009ee0 f i IndividualRecognition.obj
 0001:00008f30       ??I?$CComPtrBase@UITypeInfo2@@@ATL@@QAEPAPAUITypeInfo2@@XZ 10009f30 f i IndividualRecognition.obj
 0001:00008f80       ??I?$CComPtrBase@UITypeInfo@@@ATL@@QAEPAPAUITypeInfo@@XZ 10009f80 f i IndividualRecognition.obj
 0001:00008fd0       ??I?$CComPtrBase@UITypeLib@@@ATL@@QAEPAPAUITypeLib@@XZ 10009fd0 f i IndividualRecognition.obj
 0001:00009020       ??I?$CComPtrBase@UIUnknown@@@ATL@@QAEPAPAUIUnknown@@XZ 1000a020 f i IndividualRecognition.obj
 0001:00009070       ??I?$CComPtrBase@UIViewObjectEx@@@ATL@@QAEPAPAUIViewObjectEx@@XZ 1000a070 f i IndividualRecognition.obj
 0001:000090c0       ??ICComBSTR@ATL@@QAEPAPA_WXZ 1000a0c0 f i IndividualRecognition.obj
 0001:000090d5       ??_E?$CComContainedObject@VCOPOSIndividualRecognition@@@ATL@@W3AEPAXI@Z 1000a0d5 f i IndividualRecognition.obj
 0001:000090dd       ??_E?$CComContainedObject@VCOPOSIndividualRecognition@@@ATL@@WEM@AEPAXI@Z 1000a0dd f i IndividualRecognition.obj
 0001:000090e5       ??_E?$CComObject@VCOPOSIndividualRecognition@@@ATL@@W3AEPAXI@Z 1000a0e5 f i IndividualRecognition.obj
 0001:000090ed       ??_E?$CComObject@VCOPOSIndividualRecognition@@@ATL@@WEM@AEPAXI@Z 1000a0ed f i IndividualRecognition.obj
 0001:00009100       ??_G?$CComAggObject@VCOPOSIndividualRecognition@@@ATL@@UAEPAXI@Z 1000a100 f i IndividualRecognition.obj
 0001:00009100       ??_E?$CComAggObject@VCOPOSIndividualRecognition@@@ATL@@UAEPAXI@Z 1000a100 f i IndividualRecognition.obj
 0001:00009150       ??_E?$CComContainedObject@VCOPOSIndividualRecognition@@@ATL@@UAEPAXI@Z 1000a150 f i IndividualRecognition.obj
 0001:00009150       ??_G?$CComContainedObject@VCOPOSIndividualRecognition@@@ATL@@UAEPAXI@Z 1000a150 f i IndividualRecognition.obj
 0001:000091a0       ??_E?$CComObject@V?$CComEnum@UIEnumConnectionPoints@@$1?_GUID_b196b285_bab4_101a_b69c_00aa00341d07@@3U__s_GUID@@BPAUIConnectionPoint@@V?$_CopyInterface@UIConnectionPoint@@@ATL@@VCComSingleThreadModel@6@@ATL@@@ATL@@UAEPAXI@Z 1000a1a0 f i IndividualRecognition.obj
 0001:000091a0       ??_G?$CComObject@V?$CComEnum@UIEnumConnectionPoints@@$1?_GUID_b196b285_bab4_101a_b69c_00aa00341d07@@3U__s_GUID@@BPAUIConnectionPoint@@V?$_CopyInterface@UIConnectionPoint@@@ATL@@VCComSingleThreadModel@6@@ATL@@@ATL@@UAEPAXI@Z 1000a1a0 f i IndividualRecognition.obj
 0001:000091e0       ??_G?$CComObject@V?$CComEnum@UIEnumConnections@@$1?_GUID_b196b287_bab4_101a_b69c_00aa00341d07@@3U__s_GUID@@BUtagCONNECTDATA@@V?$_Copy@UtagCONNECTDATA@@@ATL@@VCComSingleThreadModel@6@@ATL@@@ATL@@UAEPAXI@Z 1000a1e0 f i IndividualRecognition.obj
 0001:000091e0       ??_E?$CComObject@V?$CComEnum@UIEnumConnections@@$1?_GUID_b196b287_bab4_101a_b69c_00aa00341d07@@3U__s_GUID@@BUtagCONNECTDATA@@V?$_Copy@UtagCONNECTDATA@@@ATL@@VCComSingleThreadModel@6@@ATL@@@ATL@@UAEPAXI@Z 1000a1e0 f i IndividualRecognition.obj
 0001:00009220       ??_G?$CComObject@VCOPOSIndividualRecognition@@@ATL@@UAEPAXI@Z 1000a220 f i IndividualRecognition.obj
 0001:00009220       ??_E?$CComObject@VCOPOSIndividualRecognition@@@ATL@@UAEPAXI@Z 1000a220 f i IndividualRecognition.obj
 0001:00009270       ??_G?$CComObjectCached@VCComClassFactory@ATL@@@ATL@@UAEPAXI@Z 1000a270 f i IndividualRecognition.obj
 0001:00009270       ??_E?$CComObjectCached@VCComClassFactory@ATL@@@ATL@@UAEPAXI@Z 1000a270 f i IndividualRecognition.obj
 0001:000092b0       ??_GCComClassFactory@ATL@@UAEPAXI@Z 1000a2b0 f i IndividualRecognition.obj
 0001:000092b0       ??_ECComClassFactory@ATL@@UAEPAXI@Z 1000a2b0 f i IndividualRecognition.obj
 0001:000092f0       ??_ECComModule@ATL@@UAEPAXI@Z 1000a2f0 f i IndividualRecognition.obj
 0001:000092f0       ??_GCComModule@ATL@@UAEPAXI@Z 1000a2f0 f i IndividualRecognition.obj
 0001:00009330       ??_ECRegObject@ATL@@UAEPAXI@Z 1000a330 f i IndividualRecognition.obj
 0001:00009330       ??_GCRegObject@ATL@@UAEPAXI@Z 1000a330 f i IndividualRecognition.obj
 0001:00009370       ?Add@?$CSimpleArray@GV?$CSimpleArrayEqualHelper@G@ATL@@@ATL@@QAEHABG@Z 1000a370 f i IndividualRecognition.obj
 0001:000094c0       ?Add@?$CSimpleMap@PA_WPA_WVCExpansionVectorEqualHelper@ATL@@@ATL@@QAEHABQA_W0@Z 1000a4c0 f i IndividualRecognition.obj
 0001:00009580       ?Add@CComDynamicUnkArray@ATL@@QAEKPAUIUnknown@@@Z 1000a580 f i IndividualRecognition.obj
 0001:00009720       ?Add@CExpansionVector@ATL@@QAEHPB_W0@Z 1000a720 f i IndividualRecognition.obj
 0001:000099b0       ?AddChar@CParseBuffer@CRegParser@ATL@@QAEHPB_W@Z 1000a9b0 f i IndividualRecognition.obj
 0001:000099f0       ?AddCommonRGSReplacements@?$CAtlModuleT@VCComModule@ATL@@@ATL@@UAEJPAUIRegistrarBase@@@Z 1000a9f0 f i IndividualRecognition.obj
 0001:00009a40       ?AddCreateWndData@CAtlWinModule@ATL@@QAEXPAU_AtlCreateWndData@2@PAX@Z 1000aa40 f i IndividualRecognition.obj
 0001:00009a70       ?AddRef@?$CComAggObject@VCOPOSIndividualRecognition@@@ATL@@UAGKXZ 1000aa70 f i IndividualRecognition.obj
 0001:00009a90       ?AddRef@?$CComContainedObject@VCOPOSIndividualRecognition@@@ATL@@UAGKXZ 1000aa90 f i IndividualRecognition.obj
 0001:00009aac       ?AddRef@?$CComContainedObject@VCOPOSIndividualRecognition@@@ATL@@WHA@AGKXZ 1000aaac f i IndividualRecognition.obj
 0001:00009ab6       ?AddRef@?$CComContainedObject@VCOPOSIndividualRecognition@@@ATL@@WHE@AGKXZ 1000aab6 f i IndividualRecognition.obj
 0001:00009ac0       ?AddRef@?$CComContainedObject@VCOPOSIndividualRecognition@@@ATL@@WHI@AGKXZ 1000aac0 f i IndividualRecognition.obj
 0001:00009aca       ?AddRef@?$CComContainedObject@VCOPOSIndividualRecognition@@@ATL@@WHM@AGKXZ 1000aaca f i IndividualRecognition.obj
 0001:00009ad4       ?AddRef@?$CComContainedObject@VCOPOSIndividualRecognition@@@ATL@@WIA@AGKXZ 1000aad4 f i IndividualRecognition.obj
 0001:00009ae1       ?AddRef@?$CComContainedObject@VCOPOSIndividualRecognition@@@ATL@@WIE@AGKXZ 1000aae1 f i IndividualRecognition.obj
 0001:00009aee       ?AddRef@?$CComContainedObject@VCOPOSIndividualRecognition@@@ATL@@WII@AGKXZ 1000aaee f i IndividualRecognition.obj
 0001:00009afb       ?AddRef@?$CComContainedObject@VCOPOSIndividualRecognition@@@ATL@@WIM@AGKXZ 1000aafb f i IndividualRecognition.obj
 0001:00009b08       ?AddRef@?$CComContainedObject@VCOPOSIndividualRecognition@@@ATL@@WJA@AGKXZ 1000ab08 f i IndividualRecognition.obj
 0001:00009b15       ?AddRef@?$CComContainedObject@VCOPOSIndividualRecognition@@@ATL@@WJE@AGKXZ 1000ab15 f i IndividualRecognition.obj
 0001:00009b22       ?AddRef@?$CComContainedObject@VCOPOSIndividualRecognition@@@ATL@@WJI@AGKXZ 1000ab22 f i IndividualRecognition.obj
 0001:00009b2f       ?AddRef@?$CComContainedObject@VCOPOSIndividualRecognition@@@ATL@@WJM@AGKXZ 1000ab2f f i IndividualRecognition.obj
 0001:00009b3c       ?AddRef@?$CComContainedObject@VCOPOSIndividualRecognition@@@ATL@@WKA@AGKXZ 1000ab3c f i IndividualRecognition.obj
 0001:00009b49       ?AddRef@?$CComContainedObject@VCOPOSIndividualRecognition@@@ATL@@WKI@AGKXZ 1000ab49 f i IndividualRecognition.obj
 0001:00009b56       ?AddRef@?$CComContainedObject@VCOPOSIndividualRecognition@@@ATL@@WLE@AGKXZ 1000ab56 f i IndividualRecognition.obj
 0001:00009b70       ?AddRef@?$CComObject@V?$CComEnum@UIEnumConnectionPoints@@$1?_GUID_b196b285_bab4_101a_b69c_00aa00341d07@@3U__s_GUID@@BPAUIConnectionPoint@@V?$_CopyInterface@UIConnectionPoint@@@ATL@@VCComSingleThreadModel@6@@ATL@@@ATL@@UAGKXZ 1000ab70 f i IndividualRecognition.obj
 0001:00009b90       ?AddRef@?$CComObject@V?$CComEnum@UIEnumConnections@@$1?_GUID_b196b287_bab4_101a_b69c_00aa00341d07@@3U__s_GUID@@BUtagCONNECTDATA@@V?$_Copy@UtagCONNECTDATA@@@ATL@@VCComSingleThreadModel@6@@ATL@@@ATL@@UAGKXZ 1000ab90 f i IndividualRecognition.obj
 0001:00009bb0       ?AddRef@?$CComObject@VCOPOSIndividualRecognition@@@ATL@@UAGKXZ 1000abb0 f i IndividualRecognition.obj
 0001:00009bcc       ?AddRef@?$CComObject@VCOPOSIndividualRecognition@@@ATL@@WHA@AGKXZ 1000abcc f i IndividualRecognition.obj
 0001:00009bd6       ?AddRef@?$CComObject@VCOPOSIndividualRecognition@@@ATL@@WHE@AGKXZ 1000abd6 f i IndividualRecognition.obj
 0001:00009be0       ?AddRef@?$CComObject@VCOPOSIndividualRecognition@@@ATL@@WHI@AGKXZ 1000abe0 f i IndividualRecognition.obj
 0001:00009bea       ?AddRef@?$CComObject@VCOPOSIndividualRecognition@@@ATL@@WHM@AGKXZ 1000abea f i IndividualRecognition.obj
 0001:00009bf4       ?AddRef@?$CComObject@VCOPOSIndividualRecognition@@@ATL@@WIA@AGKXZ 1000abf4 f i IndividualRecognition.obj
 0001:00009c01       ?AddRef@?$CComObject@VCOPOSIndividualRecognition@@@ATL@@WIE@AGKXZ 1000ac01 f i IndividualRecognition.obj
 0001:00009c0e       ?AddRef@?$CComObject@VCOPOSIndividualRecognition@@@ATL@@WII@AGKXZ 1000ac0e f i IndividualRecognition.obj
 0001:00009c1b       ?AddRef@?$CComObject@VCOPOSIndividualRecognition@@@ATL@@WIM@AGKXZ 1000ac1b f i IndividualRecognition.obj
 0001:00009c28       ?AddRef@?$CComObject@VCOPOSIndividualRecognition@@@ATL@@WJA@AGKXZ 1000ac28 f i IndividualRecognition.obj
 0001:00009c35       ?AddRef@?$CComObject@VCOPOSIndividualRecognition@@@ATL@@WJE@AGKXZ 1000ac35 f i IndividualRecognition.obj
 0001:00009c42       ?AddRef@?$CComObject@VCOPOSIndividualRecognition@@@ATL@@WJI@AGKXZ 1000ac42 f i IndividualRecognition.obj
 0001:00009c4f       ?AddRef@?$CComObject@VCOPOSIndividualRecognition@@@ATL@@WJM@AGKXZ 1000ac4f f i IndividualRecognition.obj
 0001:00009c5c       ?AddRef@?$CComObject@VCOPOSIndividualRecognition@@@ATL@@WKA@AGKXZ 1000ac5c f i IndividualRecognition.obj
 0001:00009c69       ?AddRef@?$CComObject@VCOPOSIndividualRecognition@@@ATL@@WKI@AGKXZ 1000ac69 f i IndividualRecognition.obj
 0001:00009c76       ?AddRef@?$CComObject@VCOPOSIndividualRecognition@@@ATL@@WLE@AGKXZ 1000ac76 f i IndividualRecognition.obj
 0001:00009c90       ?AddRef@?$CComObjectCached@VCComClassFactory@ATL@@@ATL@@UAGKXZ 1000ac90 f i IndividualRecognition.obj
 0001:00009ce0       ?AddRef@CRegObject@ATL@@UAGKXZ 1000ace0 f i IndividualRecognition.obj
 0001:00009d30       ?AddReplacement@CRegObject@ATL@@UAGJPB_W0@Z 1000ad30 f i IndividualRecognition.obj
 0001:00009e40       ?AddString@CParseBuffer@CRegParser@ATL@@QAEHPB_W@Z 1000ae40 f i IndividualRecognition.obj
 0001:00009f30       ?AddTermFunc@CAtlModule@ATL@@QAEJP6GXK@ZK@Z 1000af30 f i IndividualRecognition.obj
 0001:00009f80       ?AddValue@CRegParser@ATL@@IAEJAAVCRegKey@2@PB_WPA_W@Z 1000af80 f i IndividualRecognition.obj
 0001:0000a710       ?Advise@?$CProxy_IOPOSEvents@VCOPOSIndividualRecognition@@@@UAGJPAUIUnknown@@PAK@Z 1000b710 f i IndividualRecognition.obj
 0001:0000a760       ?Advise@?$IConnectionPointImpl@VCOPOSIndividualRecognition@@$1?DIID__IOPOSIndividualRecognitionEvents@@3U_GUID@@BVCComDynamicUnkArray@ATL@@@ATL@@UAGJPAUIUnknown@@PAK@Z 1000b760 f i IndividualRecognition.obj
 0001:0000a900       ?Advise@?$IConnectionPointImpl@VCOPOSIndividualRecognition@@$1?IID_IPropertyNotifySink@@3U_GUID@@BVCComDynamicUnkArray@ATL@@@ATL@@UAGJPAUIUnknown@@PAK@Z 1000b900 f i IndividualRecognition.obj
 0001:0000aaa0       ?Advise@?$IOleObjectImpl@VCOPOSIndividualRecognition@@@ATL@@UAGJPAUIAdviseSink@@PAK@Z 1000baa0 f i IndividualRecognition.obj
 0001:0000ab30       ?Allocate@?$CAtlSafeAllocBufferManager@VCCRTAllocator@ATL@@@_ATL_SAFE_ALLOCA_IMPL@ATL@@QAEPAXK@Z 1000bb30 f i IndividualRecognition.obj
 0001:0000aba0       ?Allocate@?$CTempBuffer@E$0BAA@VCCRTAllocator@ATL@@@ATL@@QAEPAEI@Z 1000bba0 f i IndividualRecognition.obj
 0001:0000abe0       ?Allocate@?$CTempBuffer@_W$0BAA@VCCRTAllocator@ATL@@@ATL@@QAEPA_WI@Z 1000bbe0 f i IndividualRecognition.obj
 0001:0000ac20       ?Allocate@?$CTempBuffer@_W$0EAA@VCCRTAllocator@ATL@@@ATL@@QAEPA_WI@Z 1000bc20 f i IndividualRecognition.obj
 0001:0000ac60       ?AllocateBytes@?$CTempBuffer@E$0BAA@VCCRTAllocator@ATL@@@ATL@@QAEPAEI@Z 1000bc60 f i IndividualRecognition.obj
 0001:0000ace0       ?AllocateBytes@?$CTempBuffer@_W$0BAA@VCCRTAllocator@ATL@@@ATL@@QAEPA_WI@Z 1000bce0 f i IndividualRecognition.obj
 0001:0000ad60       ?AllocateBytes@?$CTempBuffer@_W$0EAA@VCCRTAllocator@ATL@@@ATL@@QAEPA_WI@Z 1000bd60 f i IndividualRecognition.obj
 0001:0000ade0       ?AllocateHeap@?$CTempBuffer@E$0BAA@VCCRTAllocator@ATL@@@ATL@@AAEXI@Z 1000bde0 f i IndividualRecognition.obj
 0001:0000ae30       ?AllocateHeap@?$CTempBuffer@_W$0BAA@VCCRTAllocator@ATL@@@ATL@@AAEXI@Z 1000be30 f i IndividualRecognition.obj
 0001:0000ae80       ?AllocateHeap@?$CTempBuffer@_W$0EAA@VCCRTAllocator@ATL@@@ATL@@AAEXI@Z 1000be80 f i IndividualRecognition.obj
 0001:0000aed0       ?Append@CParseBuffer@CRegParser@ATL@@QAEHPB_WH@Z 1000bed0 f i IndividualRecognition.obj
 0001:0000b070       ?AtlCallTermFunc@ATL@@YGXPAU_ATL_MODULE70@1@@Z 1000c070 f i IndividualRecognition.obj
 0001:0000b110       ?AtlCoTaskMemCAlloc@ATL@@YAPAXKK@Z 1000c110 f i IndividualRecognition.obj
 0001:0000b1a0       ?AtlCoTaskMemRecalloc@ATL@@YAPAXPAXKK@Z 1000c1a0 f i IndividualRecognition.obj
 0001:0000b240       ?AtlComModuleGetClassObject@ATL@@YGJPAU_ATL_COM_MODULE70@1@ABU_GUID@@1PAPAX@Z 1000c240 f i IndividualRecognition.obj
 0001:0000b4d0       ?AtlComModuleRegisterServer@ATL@@YGJPAU_ATL_COM_MODULE70@1@HPBU_GUID@@@Z 1000c4d0 f i IndividualRecognition.obj
 0001:0000b660       ?AtlComModuleUnregisterServer@ATL@@YGJPAU_ATL_COM_MODULE70@1@HPBU_GUID@@@Z 1000c660 f i IndividualRecognition.obj
 0001:0000b790       ?AtlComQIPtrAssign2@ATL@@YAXPAPAUIUnknown@@PAU2@ABU_GUID@@@Z 1000c790 f i IndividualRecognition.obj
 0001:0000b810       ?AtlCreateTargetDC@ATL@@YGPAUHDC__@@PAU2@PAUtagDVTARGETDEVICE@@@Z 1000c810 f i IndividualRecognition.obj
 0001:0000b9b0       ?AtlCrtErrorCheck@ATL@@YAHH@Z 1000c9b0 f i IndividualRecognition.obj
 0001:0000ba80       ?AtlGetPerUserRegistration@ATL@@YGJPA_N@Z 1000ca80 f i IndividualRecognition.obj
 0001:0000bab0       ?AtlHiMetricToPixel@ATL@@YGXPBUtagSIZE@@PAU2@@Z 1000cab0 f i IndividualRecognition.obj
 0001:0000bc80       ?AtlHresultFromLastError@ATL@@YAJXZ 1000cc80 f i IndividualRecognition.obj
 0001:0000bcc0       ?AtlHresultFromWin32@ATL@@YAJK@Z 1000ccc0 f i IndividualRecognition.obj
 0001:0000bce0       ?AtlIPersistStreamInit_Load@ATL@@YGJPAUIStream@@PBUATL_PROPMAP_ENTRY@1@PAXPAUIUnknown@@@Z 1000cce0 f i IndividualRecognition.obj
 0001:0000c140       ?AtlIPersistStreamInit_Save@ATL@@YGJPAUIStream@@HPBUATL_PROPMAP_ENTRY@1@PAXPAUIUnknown@@@Z 1000d140 f i IndividualRecognition.obj
 0001:0000c520       ?AtlInternalOleLoadFromStream@ATL@@YAJPAUIStream@@ABU_GUID@@PAPAXTClassesAllowedInStream@1@K@Z 1000d520 f i IndividualRecognition.obj
 0001:0000c7c0       ?AtlInternalQueryInterface@ATL@@YGJPAXPBU_ATL_INTMAP_ENTRY@1@ABU_GUID@@PAPAX@Z 1000d7c0 f i IndividualRecognition.obj
 0001:0000c9f0       ?AtlLoadTypeLib@ATL@@YGJPAUHINSTANCE__@@PB_WPAPA_WPAPAUITypeLib@@@Z 1000d9f0 f i IndividualRecognition.obj
 0001:0000ce50       ?AtlModuleAddTermFunc@ATL@@YGJPAU_ATL_MODULE70@1@P6GXK@ZK@Z 1000de50 f i IndividualRecognition.obj
 0001:0000cfb0       ?AtlRegisterClassCategoriesHelper@ATL@@YGJABU_GUID@@PBU_ATL_CATMAP_ENTRY@1@H@Z 1000dfb0 f i IndividualRecognition.obj
 0001:0000d690       ?AtlRegisterTypeLib@ATL@@YGJPAUHINSTANCE__@@PB_W@Z 1000e690 f i IndividualRecognition.obj
 0001:0000d9d0       ?AtlThrowImpl@ATL@@YGXJ@Z  1000e9d0 f i IndividualRecognition.obj
 0001:0000da80       ?AtlUnRegisterTypeLib@ATL@@YGJPAUHINSTANCE__@@PB_W@Z 1000ea80 f i IndividualRecognition.obj
 0001:0000dc90       ?AtlWinModuleAddCreateWndData@ATL@@YGXPAU_ATL_WIN_MODULE70@1@PAU_AtlCreateWndData@1@PAX@Z 1000ec90 f i IndividualRecognition.obj
 0001:0000de00       ?AtlWinModuleExtractCreateWndData@ATL@@YGPAXPAU_ATL_WIN_MODULE70@1@@Z 1000ee00 f i IndividualRecognition.obj
 0001:0000df80       ?AtlWinModuleRegisterClassExW@ATL@@YGGPAU_ATL_WIN_MODULE70@1@PBUtagWNDCLASSEXW@@@Z 1000ef80 f i IndividualRecognition.obj
 0001:0000e050       ?AtlWinModuleRegisterWndClassInfoW@ATL@@YGGPAU_ATL_WIN_MODULE70@1@PAU_ATL_BASE_MODULE70@1@PAU_ATL_WNDCLASSINFOW@1@PAP6GJPAUHWND__@@IIJ@Z@Z 1000f050 f i IndividualRecognition.obj
 0001:0000e0e0       ?Attach@?$CAutoVectorPtr@_W@ATL@@QAEXPA_W@Z 1000f0e0 f i IndividualRecognition.obj
 0001:0000e140       ?Attach@CComBSTR@ATL@@QAEXPA_W@Z 1000f140 f i IndividualRecognition.obj
 0001:0000e190       ?Attach@CRegKey@ATL@@QAEXPAUHKEY__@@@Z 1000f190 f i IndividualRecognition.obj
 0001:0000e200       ?CanForceRemoveKey@CRegParser@ATL@@IAEHPB_W@Z 1000f200 f i IndividualRecognition.obj
 0001:0000e270       ?ChToByte@CRegParser@ATL@@KAE_W@Z 1000f270 f i IndividualRecognition.obj
 0001:0000e390       ?ChangeType@CComVariant@ATL@@QAEJGPBUtagVARIANT@@@Z 1000f390 f i IndividualRecognition.obj
 0001:0000e3f0       ?Cleanup@CComTypeInfoHolder@ATL@@SGXK@Z 1000f3f0 f i IndividualRecognition.obj
 0001:0000e4c0       ?Clear@CComVariant@ATL@@QAEJXZ 1000f4c0 f i IndividualRecognition.obj
 0001:0000e500       ?ClearReplacements@CExpansionVector@ATL@@QAEJXZ 1000f500 f i IndividualRecognition.obj
 0001:0000e590       ?ClearReplacements@CRegObject@ATL@@UAGJXZ 1000f590 f i IndividualRecognition.obj
 0001:0000e5e0       ?Clone@?$CComEnumImpl@UIEnumConnectionPoints@@$1?_GUID_b196b285_bab4_101a_b69c_00aa00341d07@@3U__s_GUID@@BPAUIConnectionPoint@@V?$_CopyInterface@UIConnectionPoint@@@ATL@@@ATL@@UAGJPAPAUIEnumConnectionPoints@@@Z 1000f5e0 f i IndividualRecognition.obj
 0001:0000e750       ?Clone@?$CComEnumImpl@UIEnumConnections@@$1?_GUID_b196b287_bab4_101a_b69c_00aa00341d07@@3U__s_GUID@@BUtagCONNECTDATA@@V?$_Copy@UtagCONNECTDATA@@@ATL@@@ATL@@UAGJPAPAUIEnumConnections@@@Z 1000f750 f i IndividualRecognition.obj
 0001:0000e8c0       ?Close@?$IOleObjectImpl@VCOPOSIndividualRecognition@@@ATL@@UAGJK@Z 1000f8c0 f i IndividualRecognition.obj
 0001:0000e950       ?Close@CRegKey@ATL@@QAEJXZ 1000f950 f i IndividualRecognition.obj
 0001:0000e9c0       ?ContextSensitiveHelp@?$IOleInPlaceActiveObjectImpl@VCOPOSIndividualRecognition@@@ATL@@UAGJH@Z 1000f9c0 f i IndividualRecognition.obj
 0001:0000ea30       ?ContextSensitiveHelp@?$IOleInPlaceObjectWindowlessImpl@VCOPOSIndividualRecognition@@@ATL@@UAGJH@Z 1000fa30 f i IndividualRecognition.obj
 0001:0000eaa0       ?ControlQueryInterface@?$CComControl@VCOPOSIndividualRecognition@@V?$CWindowImpl@VCOPOSIndividualRecognition@@VCWindow@ATL@@V?$CWinTraits@$0FGAAAAAA@$0A@@3@@ATL@@@ATL@@UAEJABU_GUID@@PAPAX@Z 1000faa0 f i IndividualRecognition.obj
 0001:0000eb20       ?CreateControlWindow@?$CComControl@VCOPOSIndividualRecognition@@V?$CWindowImpl@VCOPOSIndividualRecognition@@VCWindow@ATL@@V?$CWinTraits@$0FGAAAAAA@$0A@@3@@ATL@@@ATL@@UAEPAUHWND__@@PAU3@AAUtagRECT@@@Z 1000fb20 f i IndividualRecognition.obj
 0001:0000eba0       ?CreateInstance@?$CComCreator@V?$CComAggObject@VCOPOSIndividualRecognition@@@ATL@@@ATL@@SGJPAXABU_GUID@@PAPAX@Z 1000fba0 f i IndividualRecognition.obj
 0001:0000ed20       ?CreateInstance@?$CComCreator@V?$CComObject@VCOPOSIndividualRecognition@@@ATL@@@ATL@@SGJPAXABU_GUID@@PAPAX@Z 1000fd20 f i IndividualRecognition.obj
 0001:0000eeb0       ?CreateInstance@?$CComObject@V?$CComEnum@UIEnumConnectionPoints@@$1?_GUID_b196b285_bab4_101a_b69c_00aa00341d07@@3U__s_GUID@@BPAUIConnectionPoint@@V?$_CopyInterface@UIConnectionPoint@@@ATL@@VCComSingleThreadModel@6@@ATL@@@ATL@@SGJPAPAV12@@Z 1000feb0 f i IndividualRecognition.obj
 0001:0000f020       ?CreateInstance@?$CComObject@V?$CComEnum@UIEnumConnections@@$1?_GUID_b196b287_bab4_101a_b69c_00aa00341d07@@3U__s_GUID@@BUtagCONNECTDATA@@V?$_Copy@UtagCONNECTDATA@@@ATL@@VCComSingleThreadModel@6@@ATL@@@ATL@@SGJPAPAV12@@Z 10010020 f i IndividualRecognition.obj
 0001:0000f190       ?CreateInstance@CComClassFactory@ATL@@UAGJPAUIUnknown@@ABU_GUID@@PAPAX@Z 10010190 f i IndividualRecognition.obj
 0001:0000f280       ?DAdvise@?$IDataObjectImpl@VCOPOSIndividualRecognition@@@ATL@@UAGJPAUtagFORMATETC@@KPAUIAdviseSink@@PAK@Z 10010280 f i IndividualRecognition.obj
 0001:0000f380       ?DEVMODEOLE2T_EX@@YAPAU_devicemodeW@@PAU1@@Z 10010380 f i IndividualRecognition.obj
 0001:0000f390       ?DUnadvise@?$IDataObjectImpl@VCOPOSIndividualRecognition@@@ATL@@UAGJK@Z 10010390 f i IndividualRecognition.obj
 0001:0000f460       ?Decrement@CComMultiThreadModel@ATL@@SGKPAJ@Z 10010460 f i IndividualRecognition.obj
 0001:0000f480       ?Decrement@CComSingleThreadModel@ATL@@SGKPAJ@Z 10010480 f i IndividualRecognition.obj
 0001:0000f4a0       ?DefWindowProcW@?$CWindowImplBaseT@VCWindow@ATL@@V?$CWinTraits@$0FGAAAAAA@$0A@@2@@ATL@@QAEJIIJ@Z 100104a0 f i IndividualRecognition.obj
 0001:0000f4f0       ?DefaultReflectionHandler@?$CWindowImplRoot@VCWindow@ATL@@@ATL@@SAHPAUHWND__@@IIJAAJ@Z 100104f0 f i IndividualRecognition.obj
 0001:0000f6e0       ?DeleteSubKey@CRegKey@ATL@@QAEJPB_W@Z 100106e0 f i IndividualRecognition.obj
 0001:0000f7f0       ?DeleteValue@CRegKey@ATL@@QAEJPB_W@Z 100107f0 f i IndividualRecognition.obj
 0001:0000f860       ?Detach@?$CAutoVectorPtr@_W@ATL@@QAEPA_WXZ 10010860 f i IndividualRecognition.obj
 0001:0000f890       ?Detach@?$CComPtrBase@UIPersistStream@@@ATL@@QAEPAUIPersistStream@@XZ 10010890 f i IndividualRecognition.obj
 0001:0000f8c0       ?Detach@?$CComPtrBase@UITypeInfo@@@ATL@@QAEPAUITypeInfo@@XZ 100108c0 f i IndividualRecognition.obj
 0001:0000f8f0       ?Detach@?$CComPtrBase@UIUnknown@@@ATL@@QAEPAUIUnknown@@XZ 100108f0 f i IndividualRecognition.obj
 0001:0000f920       ?Detach@CComBSTR@ATL@@QAEPA_WXZ 10010920 f i IndividualRecognition.obj
 0001:0000f950       ?Detach@CParseBuffer@CRegParser@ATL@@QAEPA_WXZ 10010950 f i IndividualRecognition.obj
 0001:0000f9a0       ?Detach@CRegKey@ATL@@QAEPAUHKEY__@@XZ 100109a0 f i IndividualRecognition.obj
 0001:0000f9f0       ?DoEvent@COPOSIndividualRecognition@@IAEXIIJ@Z 100109f0 f i IndividualRecognition.obj
 0001:0000fb30       ?DoVerb@?$IOleObjectImpl@VCOPOSIndividualRecognition@@@ATL@@UAGJJPAUtagMSG@@PAUIOleClientSite@@JPAUHWND__@@PBUtagRECT@@@Z 10010b30 f i IndividualRecognition.obj
 0001:0000fd40       ?DoVerbDiscardUndo@?$IOleObjectImpl@VCOPOSIndividualRecognition@@@ATL@@QAEJPBUtagRECT@@PAUHWND__@@@Z 10010d40 f i IndividualRecognition.obj
 0001:0000fdb0       ?DoVerbHide@?$IOleObjectImpl@VCOPOSIndividualRecognition@@@ATL@@QAEJPBUtagRECT@@PAUHWND__@@@Z 10010db0 f i IndividualRecognition.obj
 0001:0000fe60       ?DoVerbInPlaceActivate@?$IOleObjectImpl@VCOPOSIndividualRecognition@@@ATL@@QAEJPBUtagRECT@@PAUHWND__@@@Z 10010e60 f i IndividualRecognition.obj
 0001:0000ff00       ?DoVerbOpen@?$IOleObjectImpl@VCOPOSIndividualRecognition@@@ATL@@QAEJPBUtagRECT@@PAUHWND__@@@Z 10010f00 f i IndividualRecognition.obj
 0001:0000ff70       ?DoVerbPrimary@?$IOleObjectImpl@VCOPOSIndividualRecognition@@@ATL@@QAEJPBUtagRECT@@PAUHWND__@@@Z 10010f70 f i IndividualRecognition.obj
 0001:00010080       ?DoVerbProperties@CComControlBase@ATL@@QAEJPBUtagRECT@@PAUHWND__@@@Z 10011080 f i IndividualRecognition.obj
 0001:000103a0       ?DoVerbShow@?$IOleObjectImpl@VCOPOSIndividualRecognition@@@ATL@@QAEJPBUtagRECT@@PAUHWND__@@@Z 100113a0 f i IndividualRecognition.obj
 0001:00010430       ?DoVerbUIActivate@?$IOleObjectImpl@VCOPOSIndividualRecognition@@@ATL@@QAEJPBUtagRECT@@PAUHWND__@@@Z 10011430 f i IndividualRecognition.obj
 0001:000104d0       ?DoesVerbActivate@CComControlBase@ATL@@QAEHJ@Z 100114d0 f i IndividualRecognition.obj
 0001:00010540       ?DoesVerbUIActivate@CComControlBase@ATL@@QAEHJ@Z 10011540 f i IndividualRecognition.obj
 0001:000105c0       ?Draw@?$IViewObjectExImpl@VCOPOSIndividualRecognition@@@ATL@@UAGJKJPAXPAUtagDVTARGETDEVICE@@PAUHDC__@@2PBU_RECTL@@3P6GHK@ZK@Z 100115c0 f i IndividualRecognition.obj
 0001:00010660       ?Empty@CComBSTR@ATL@@QAEXXZ 10011660 f i IndividualRecognition.obj
 0001:000106a0       ?EnableModeless@?$IOleInPlaceActiveObjectImpl@VCOPOSIndividualRecognition@@@ATL@@UAGJH@Z 100116a0 f i IndividualRecognition.obj
 0001:00010700       ?EndOfVar@CRegParser@ATL@@IAEHXZ 10011700 f i IndividualRecognition.obj
 0001:00010770       ?EnsureTI@CComTypeInfoHolder@ATL@@QAEJK@Z 10011770 f i IndividualRecognition.obj
 0001:000107d0       ?EnumAdvise@?$IOleObjectImpl@VCOPOSIndividualRecognition@@@ATL@@UAGJPAPAUIEnumSTATDATA@@@Z 100117d0 f i IndividualRecognition.obj
 0001:000108e0       ?EnumConnectionPoints@?$IConnectionPointContainerImpl@VCOPOSIndividualRecognition@@@ATL@@UAGJPAPAUIEnumConnectionPoints@@@Z 100118e0 f i IndividualRecognition.obj
 0001:00010d10       ?EnumConnections@?$IConnectionPointImpl@VCOPOSIndividualRecognition@@$1?DIID__IOPOSIndividualRecognitionEvents@@3U_GUID@@BVCComDynamicUnkArray@ATL@@@ATL@@UAGJPAPAUIEnumConnections@@@Z 10011d10 f i IndividualRecognition.obj
 0001:00010f60       ?EnumConnections@?$IConnectionPointImpl@VCOPOSIndividualRecognition@@$1?IID_IPropertyNotifySink@@3U_GUID@@BVCComDynamicUnkArray@ATL@@@ATL@@UAGJPAPAUIEnumConnections@@@Z 10011f60 f i IndividualRecognition.obj
 0001:000111b0       ?EnumDAdvise@?$IDataObjectImpl@VCOPOSIndividualRecognition@@@ATL@@UAGJPAPAUIEnumSTATDATA@@@Z 100121b0 f i IndividualRecognition.obj
 0001:000112b0       ?EnumFormatEtc@?$IDataObjectImpl@VCOPOSIndividualRecognition@@@ATL@@UAGJKPAPAUIEnumFORMATETC@@@Z 100122b0 f i IndividualRecognition.obj
 0001:00011320       ?EnumVerbs@?$IOleObjectImpl@VCOPOSIndividualRecognition@@@ATL@@UAGJPAPAUIEnumOLEVERB@@@Z 10012320 f i IndividualRecognition.obj
 0001:000113d0       ?EscapeSingleQuote@CAtlModule@ATL@@SAXPA_WIPB_W@Z 100123d0 f i IndividualRecognition.obj
 0001:00011480       ?ExtractCreateWndData@CAtlWinModule@ATL@@QAEPAXXZ 10012480 f i IndividualRecognition.obj
 0001:000114b0       ?FAccessAllowed@?$IObjectSafetyImpl@VCOPOSIndividualRecognition@@$02@ATL@@MAEHXZ 100124b0 f i IndividualRecognition.obj
 0001:000114d0       ?FinalConstruct@?$CComAggObject@VCOPOSIndividualRecognition@@@ATL@@QAEJXZ 100124d0 f i IndividualRecognition.obj
 0001:00011510       ?FinalConstruct@CComObjectRootBase@ATL@@QAEJXZ 10012510 f i IndividualRecognition.obj
 0001:00011530       ?FinalConstruct@CRegObject@ATL@@QAEJXZ 10012530 f i IndividualRecognition.obj
 0001:00011560       ?FinalRelease@?$CComAggObject@VCOPOSIndividualRecognition@@@ATL@@QAEXXZ 10012560 f i IndividualRecognition.obj
 0001:000115a0       ?FinalRelease@CComObjectRootBase@ATL@@QAEXXZ 100125a0 f i IndividualRecognition.obj
 0001:000115c0       ?FindConnectionPoint@?$IConnectionPointContainerImpl@VCOPOSIndividualRecognition@@@ATL@@UAGJABU_GUID@@PAPAUIConnectionPoint@@@Z 100125c0 f i IndividualRecognition.obj
 0001:00011710       ?FindKey@?$CSimpleMap@PA_WPA_WVCExpansionVectorEqualHelper@ATL@@@ATL@@QBEHABQA_W@Z 10012710 f i IndividualRecognition.obj
 0001:00011780       ?FireTheEvent@?$CProxy_IOPOSEvents@VCOPOSIndividualRecognition@@@@IAEXPAUIUnknown@@PAVOposVariant@@IAAJPB_WJ@Z 10012780 f i IndividualRecognition.obj
 0001:000118f0       ?FireViewChange@CComControlBase@ATL@@QAEJXZ 100128f0 f i IndividualRecognition.obj
 0001:000119b0       ?Fire_DataEvent@?$CProxy_IOPOSEvents@VCOPOSIndividualRecognition@@@@QAEXJ@Z 100129b0 f i IndividualRecognition.obj
 0001:00011b10       ?Fire_DirectIOEvent@?$CProxy_IOPOSEvents@VCOPOSIndividualRecognition@@@@QAEXJPAJPAPA_W@Z 10012b10 f i IndividualRecognition.obj
 0001:00011ce0       ?Fire_ErrorEvent@?$CProxy_IOPOSEvents@VCOPOSIndividualRecognition@@@@QAEXJJJPAJ@Z 10012ce0 f i IndividualRecognition.obj
 0001:00011ed0       ?Fire_StatusUpdateEvent@?$CProxy_IOPOSEvents@VCOPOSIndividualRecognition@@@@QAEXJ@Z 10012ed0 f i IndividualRecognition.obj
 0001:00012030       ?FormatWindowClassName@AtlModuleRegisterWndClassInfoParamW@ATL@@SAXPA_WKPAX@Z 10013030 f i IndividualRecognition.obj
 0001:00012060       ?Free@?$CAutoVectorPtr@_W@ATL@@QAEXXZ 10013060 f i IndividualRecognition.obj
 0001:000120b0       ?FreeHeap@?$CTempBuffer@E$0BAA@VCCRTAllocator@ATL@@@ATL@@AAEXXZ 100130b0 f i IndividualRecognition.obj
 0001:000120e0       ?FreeHeap@?$CTempBuffer@_W$0BAA@VCCRTAllocator@ATL@@@ATL@@AAEXXZ 100130e0 f i IndividualRecognition.obj
 0001:00012110       ?FreeHeap@?$CTempBuffer@_W$0EAA@VCCRTAllocator@ATL@@@ATL@@AAEXXZ 10013110 f i IndividualRecognition.obj
 0001:00012140       ?Freeze@?$IViewObjectExImpl@VCOPOSIndividualRecognition@@@ATL@@UAGJKJPAXPAK@Z 10013140 f i IndividualRecognition.obj
 0001:000121b0       ?GenerateError@CRegParser@ATL@@IAEJI@Z 100131b0 f i IndividualRecognition.obj
 0001:000121d0       ?GetAdvise@?$IViewObjectExImpl@VCOPOSIndividualRecognition@@@ATL@@UAGJPAK0PAPAUIAdviseSink@@@Z 100131d0 f i IndividualRecognition.obj
 0001:000122d0       ?GetAmbientLocaleID@CComControlBase@ATL@@QAEJAAK@Z 100132d0 f i IndividualRecognition.obj
 0001:000123b0       ?GetAmbientProperty@CComControlBase@ATL@@QAEJJAAUtagVARIANT@@@Z 100133b0 f i IndividualRecognition.obj
 0001:00012400       ?GetAmbientUserMode@CComControlBase@ATL@@QAEJAAH@Z 10013400 f i IndividualRecognition.obj
 0001:00012500       ?GetAppId@?$CAtlModuleT@VCComModule@ATL@@@ATL@@SAPB_WXZ 10013500 f i IndividualRecognition.obj
 0001:00012510       ?GetAt@CComDynamicUnkArray@ATL@@QAEPAUIUnknown@@H@Z 10013510 f i IndividualRecognition.obj
 0001:00012590       ?GetCanonicalFormatEtc@?$IDataObjectImpl@VCOPOSIndividualRecognition@@@ATL@@UAGJPAUtagFORMATETC@@0@Z 10013590 f i IndividualRecognition.obj
 0001:00012600       ?GetClassID@?$IPersistStorageImpl@VCOPOSIndividualRecognition@@@ATL@@UAGJPAU_GUID@@@Z 10013600 f i IndividualRecognition.obj
 0001:00012680       ?GetClassID@?$IPersistStreamInitImpl@VCOPOSIndividualRecognition@@@ATL@@UAGJPAU_GUID@@@Z 10013680 f i IndividualRecognition.obj
 0001:00012700       ?GetClassInfoExW@AtlModuleRegisterWndClassInfoParamW@ATL@@SAHPAUHINSTANCE__@@PB_WPAUtagWNDCLASSEXW@@@Z 10013700 f i IndividualRecognition.obj
 0001:00012730       ?GetClassInfoW@?$IProvideClassInfo2Impl@$1?CLSID_OPOSIndividualRecognition@@3U_GUID@@B$1?DIID__IOPOSIndividualRecognitionEvents@@3U2@B$1?LIBID_OposIndividualRecognition_CCO@@3U2@B$00$0A@VCComTypeInfoHolder@ATL@@@ATL@@UAGJPAPAUITypeInfo@@@Z 10013730 f i IndividualRecognition.obj
 0001:00012750       ?GetClassObject@CComModule@ATL@@QAEJABU_GUID@@0PAPAX@Z 10013750 f i IndividualRecognition.obj
 0001:00012950       ?GetClientSite@?$IOleObjectImpl@VCOPOSIndividualRecognition@@@ATL@@UAGJPAPAUIOleClientSite@@@Z 10013950 f i IndividualRecognition.obj
 0001:000129e0       ?GetClipboardData@?$IOleObjectImpl@VCOPOSIndividualRecognition@@@ATL@@UAGJKPAPAUIDataObject@@@Z 100139e0 f i IndividualRecognition.obj
 0001:00012a50       ?GetCodeAddress@CDynamicStdCallThunk2@ATL@@QAEPAXXZ 10013a50 f i IndividualRecognition.obj
 0001:00012a80       ?GetColorSet@?$IViewObjectExImpl@VCOPOSIndividualRecognition@@@ATL@@UAGJKJPAXPAUtagDVTARGETDEVICE@@PAUHDC__@@PAPAUtagLOGPALETTE@@@Z 10013a80 f i IndividualRecognition.obj
 0001:00012af0       ?GetConnMap@COPOSIndividualRecognition@@SAPBU_ATL_CONNMAP_ENTRY@ATL@@PAH@Z 10013af0 f i IndividualRecognition.obj
 0001:00012c30       ?GetConnectionInterface@?$IConnectionPointImpl@VCOPOSIndividualRecognition@@$1?DIID__IOPOSIndividualRecognitionEvents@@3U_GUID@@BVCComDynamicUnkArray@ATL@@@ATL@@UAGJPAU_GUID@@@Z 10013c30 f i IndividualRecognition.obj
 0001:00012c70       ?GetConnectionInterface@?$IConnectionPointImpl@VCOPOSIndividualRecognition@@$1?IID_IPropertyNotifySink@@3U_GUID@@BVCComDynamicUnkArray@ATL@@@ATL@@UAGJPAU_GUID@@@Z 10013c70 f i IndividualRecognition.obj
 0001:00012cb0       ?GetConnectionPointContainer@?$IConnectionPointImpl@VCOPOSIndividualRecognition@@$1?DIID__IOPOSIndividualRecognitionEvents@@3U_GUID@@BVCComDynamicUnkArray@ATL@@@ATL@@UAGJPAPAUIConnectionPointContainer@@@Z 10013cb0 f i IndividualRecognition.obj
 0001:00012d20       ?GetConnectionPointContainer@?$IConnectionPointImpl@VCOPOSIndividualRecognition@@$1?IID_IPropertyNotifySink@@3U_GUID@@BVCComDynamicUnkArray@ATL@@@ATL@@UAGJPAPAUIConnectionPointContainer@@@Z 10013d20 f i IndividualRecognition.obj
 0001:00012d90       ?GetContentExtent@?$IQuickActivateImpl@VCOPOSIndividualRecognition@@@ATL@@UAGJPAUtagSIZE@@@Z 10013d90 f i IndividualRecognition.obj
 0001:00012e20       ?GetControlInfo@?$IOleControlImpl@VCOPOSIndividualRecognition@@@ATL@@UAGJPAUtagCONTROLINFO@@@Z 10013e20 f i IndividualRecognition.obj
 0001:00012e90       ?GetCookie@CComDynamicUnkArray@ATL@@QAGKPAPAUIUnknown@@@Z 10013e90 f i IndividualRecognition.obj
 0001:00012f50       ?GetData@?$IDataObjectImpl@VCOPOSIndividualRecognition@@@ATL@@UAGJPAUtagFORMATETC@@PAUtagSTGMEDIUM@@@Z 10013f50 f i IndividualRecognition.obj
 0001:00012fe0       ?GetData@CAtlSafeAllocBufferNode@?$CAtlSafeAllocBufferManager@VCCRTAllocator@ATL@@@_ATL_SAFE_ALLOCA_IMPL@ATL@@QAEPAXXZ 10013fe0 f i IndividualRecognition.obj
 0001:00013000       ?GetDataHere@?$IDataObjectImpl@VCOPOSIndividualRecognition@@@ATL@@UAGJPAUtagFORMATETC@@PAUtagSTGMEDIUM@@@Z 10014000 f i IndividualRecognition.obj
 0001:00013070       ?GetDropTarget@?$IOleInPlaceObjectWindowlessImpl@VCOPOSIndividualRecognition@@@ATL@@UAGJPAPAUIDropTarget@@@Z 10014070 f i IndividualRecognition.obj
 0001:000130e0       ?GetExtent@?$IOleObjectImpl@VCOPOSIndividualRecognition@@@ATL@@UAGJKPAUtagSIZE@@@Z 100140e0 f i IndividualRecognition.obj
 0001:00013180       ?GetExtent@?$IViewObjectExImpl@VCOPOSIndividualRecognition@@@ATL@@UAGJKJPAUtagDVTARGETDEVICE@@PAUtagSIZE@@@Z 10014180 f i IndividualRecognition.obj
 0001:00013250       ?GetGITPtr@CAtlModule@ATL@@UAEJPAPAUIGlobalInterfaceTable@@@Z 10014250 f i IndividualRecognition.obj
 0001:00013350       ?GetGUID@?$IProvideClassInfo2Impl@$1?CLSID_OPOSIndividualRecognition@@3U_GUID@@B$1?DIID__IOPOSIndividualRecognitionEvents@@3U2@B$1?LIBID_OposIndividualRecognition_CCO@@3U2@B$00$0A@VCComTypeInfoHolder@ATL@@@ATL@@UAGJKPAU_GUID@@@Z 10014350 f i IndividualRecognition.obj
 0001:000133d0       ?GetIDsOfNames@?$IDispatchImpl@UIOPOSIndividualRecognition@@$1?IID_IOPOSIndividualRecognition@@3U_GUID@@B$1?LIBID_OposIndividualRecognition_CCO@@3U3@B$00$0A@VCComTypeInfoHolder@ATL@@@ATL@@UAGJABU_GUID@@PAPA_WIKPAJ@Z 100143d0 f i IndividualRecognition.obj
 0001:00013400       ?GetIDsOfNames@CComTypeInfoHolder@ATL@@QAEJABU_GUID@@PAPA_WIKPAJ@Z 10014400 f i IndividualRecognition.obj
 0001:000135b0       ?GetInterfaceSafetyOptions@?$IObjectSafetyImpl@VCOPOSIndividualRecognition@@$02@ATL@@UAGJABU_GUID@@PAK1@Z 100145b0 f i IndividualRecognition.obj
 0001:00013720       ?GetKeyAt@?$CSimpleMap@PA_WPA_WVCExpansionVectorEqualHelper@ATL@@@ATL@@QBEAAPA_WH@Z 10014720 f i IndividualRecognition.obj
 0001:000137a0       ?GetLockCount@CAtlModule@ATL@@UAEJXZ 100147a0 f i IndividualRecognition.obj
 0001:000137c0       ?GetMiscStatus@?$IOleObjectImpl@VCOPOSIndividualRecognition@@@ATL@@UAGJKPAK@Z 100147c0 f i IndividualRecognition.obj
 0001:00013830       ?GetMoniker@?$IOleObjectImpl@VCOPOSIndividualRecognition@@@ATL@@UAGJKKPAPAUIMoniker@@@Z 10014830 f i IndividualRecognition.obj
 0001:000138a0       ?GetNaturalExtent@?$IViewObjectExImpl@VCOPOSIndividualRecognition@@@ATL@@UAGJKJPAUtagDVTARGETDEVICE@@PAUHDC__@@PAUtagExtentInfo@@PAUtagSIZE@@@Z 100148a0 f i IndividualRecognition.obj
 0001:000139c0       ?GetObjectCLSID@?$CComCoClass@VCOPOSIndividualRecognition@@$1?CLSID_OPOSIndividualRecognition@@3U_GUID@@B@ATL@@SGABU_GUID@@XZ 100149c0 f i IndividualRecognition.obj
 0001:000139d0       ?GetPages@?$ISpecifyPropertyPagesImpl@VCOPOSIndividualRecognition@@@ATL@@UAGJPAUtagCAUUID@@@Z 100149d0 f i IndividualRecognition.obj
 0001:00013a40       ?GetPagesHelper@?$ISpecifyPropertyPagesImpl@VCOPOSIndividualRecognition@@@ATL@@IAEJPAUtagCAUUID@@PBUATL_PROPMAP_ENTRY@2@@Z 10014a40 f i IndividualRecognition.obj
 0001:00013c40       ?GetProperty@?$CComPtr@UIDispatch@@@ATL@@QAEJJPAUtagVARIANT@@@Z 10014c40 f i IndividualRecognition.obj
 0001:00013c80       ?GetProperty@?$CComPtr@UIDispatch@@@ATL@@SAJPAUIDispatch@@JPAUtagVARIANT@@@Z 10014c80 f i IndividualRecognition.obj
 0001:00013de0       ?GetPropertyMap@COPOSIndividualRecognition@@SAPBUATL_PROPMAP_ENTRY@ATL@@XZ 10014de0 f i IndividualRecognition.obj
 0001:00013df0       ?GetRect@?$IViewObjectExImpl@VCOPOSIndividualRecognition@@@ATL@@UAGJKPAU_RECTL@@@Z 10014df0 f i IndividualRecognition.obj
 0001:00013e60       ?GetSize@?$CSimpleMap@PA_WPA_WVCExpansionVectorEqualHelper@ATL@@@ATL@@QBEHXZ 10014e60 f i IndividualRecognition.obj
 0001:00013e80       ?GetSize@CComDynamicUnkArray@ATL@@QBEHXZ 10014e80 f i IndividualRecognition.obj
 0001:00013ea0       ?GetSizeMax@?$IPersistStreamInitImpl@VCOPOSIndividualRecognition@@@ATL@@UAGJPAT_ULARGE_INTEGER@@@Z 10014ea0 f i IndividualRecognition.obj
 0001:00014410       ?GetSizeMax@CComVariant@ATL@@QBEJPAT_ULARGE_INTEGER@@@Z 10015410 f i IndividualRecognition.obj
 0001:00014770       ?GetStreamSize@CComBSTR@ATL@@SAKPA_W@Z 10015770 f i IndividualRecognition.obj
 0001:000147c0       ?GetTI@CComTypeInfoHolder@ATL@@QAEJK@Z 100157c0 f i IndividualRecognition.obj
 0001:00014fd0       ?GetTI@CComTypeInfoHolder@ATL@@QAEJKPAPAUITypeInfo@@@Z 10015fd0 f i IndividualRecognition.obj
 0001:00015090       ?GetTypeInfo@?$IDispatchImpl@UIOPOSIndividualRecognition@@$1?IID_IOPOSIndividualRecognition@@3U_GUID@@B$1?LIBID_OposIndividualRecognition_CCO@@3U3@B$00$0A@VCComTypeInfoHolder@ATL@@@ATL@@UAGJIKPAPAUITypeInfo@@@Z 10016090 f i IndividualRecognition.obj
 0001:000150c0       ?GetTypeInfo@CComTypeInfoHolder@ATL@@QAEJIKPAPAUITypeInfo@@@Z 100160c0 f i IndividualRecognition.obj
 0001:00015100       ?GetTypeInfoCount@?$IDispatchImpl@UIOPOSIndividualRecognition@@$1?IID_IOPOSIndividualRecognition@@3U_GUID@@B$1?LIBID_OposIndividualRecognition_CCO@@3U3@B$00$0A@VCComTypeInfoHolder@ATL@@@ATL@@UAGJPAI@Z 10016100 f i IndividualRecognition.obj
 0001:00015120       ?GetUnknown@CComDynamicUnkArray@ATL@@QAGPAUIUnknown@@K@Z 10016120 f i IndividualRecognition.obj
 0001:00015190       ?GetUnknown@COPOSIndividualRecognition@@QAEPAUIUnknown@@XZ 10016190 f i IndividualRecognition.obj
 0001:000151c0       ?GetUserClassID@?$IOleObjectImpl@VCOPOSIndividualRecognition@@@ATL@@UAGJPAU_GUID@@@Z 100161c0 f i IndividualRecognition.obj
 0001:00015270       ?GetUserType@?$IOleObjectImpl@VCOPOSIndividualRecognition@@@ATL@@UAGJKPAPA_W@Z 10016270 f i IndividualRecognition.obj
 0001:000152e0       ?GetValueAt@?$CSimpleMap@PA_WPA_WVCExpansionVectorEqualHelper@ATL@@@ATL@@QBEAAPA_WH@Z 100162e0 f i IndividualRecognition.obj
 0001:00015360       ?GetViewStatus@?$IViewObjectExImpl@VCOPOSIndividualRecognition@@@ATL@@UAGJPAK@Z 10016360 f i IndividualRecognition.obj
 0001:00015420       ?GetWNDPROC@CWndProcThunk@ATL@@QAEP6GJPAUHWND__@@IIJ@ZXZ 10016420 f i IndividualRecognition.obj
 0001:00015450       ?GetWindow@?$IOleInPlaceActiveObjectImpl@VCOPOSIndividualRecognition@@@ATL@@UAGJPAPAUHWND__@@@Z 10016450 f i IndividualRecognition.obj
 0001:00015520       ?GetWindow@?$IOleInPlaceObjectWindowlessImpl@VCOPOSIndividualRecognition@@@ATL@@UAGJPAPAUHWND__@@@Z 10016520 f i IndividualRecognition.obj
 0001:000155f0       ?GetWindowLongPtrW@@YAJPAUHWND__@@H@Z 100165f0 f i IndividualRecognition.obj
 0001:00015620       ?GetWindowProc@?$CWindowImplBaseT@VCWindow@ATL@@V?$CWinTraits@$0FGAAAAAA@$0A@@2@@ATL@@UAEP6GJPAUHWND__@@IIJ@ZXZ 10016620 f i IndividualRecognition.obj
 0001:00015640       ?GetWndCaption@?$CWindowImpl@VCOPOSIndividualRecognition@@VCWindow@ATL@@V?$CWinTraits@$0FGAAAAAA@$0A@@3@@ATL@@SAPB_WXZ 10016640 f i IndividualRecognition.obj
 0001:00015650       ?GetWndClassInfo@?$CWindowImpl@VCOPOSIndividualRecognition@@VCWindow@ATL@@V?$CWinTraits@$0FGAAAAAA@$0A@@3@@ATL@@SAAAU_ATL_WNDCLASSINFOW@2@XZ 10016650 f i IndividualRecognition.obj
 0001:00015660       ?GetWndClassName@CWindow@ATL@@SAPB_WXZ 10016660 f i IndividualRecognition.obj
 0001:00015670       ?GetWndExStyle@?$CWinTraits@$0FGAAAAAA@$0A@@ATL@@SAKK@Z 10016670 f i IndividualRecognition.obj
 0001:000156a0       ?GetWndExStyle@?$CWindowImplBaseT@VCWindow@ATL@@V?$CWinTraits@$0FGAAAAAA@$0A@@2@@ATL@@SAKK@Z 100166a0 f i IndividualRecognition.obj
 0001:000156c0       ?GetWndStyle@?$CWinTraits@$0FGAAAAAA@$0A@@ATL@@SAKK@Z 100166c0 f i IndividualRecognition.obj
 0001:000156f0       ?GetWndStyle@?$CWindowImplBaseT@VCWindow@ATL@@V?$CWinTraits@$0FGAAAAAA@$0A@@2@@ATL@@SAKK@Z 100166f0 f i IndividualRecognition.obj
 0001:00015710       ?GetZoomInfo@CComControlBase@ATL@@QAEXAAUATL_DRAWINFO@@@Z 10016710 f i IndividualRecognition.obj
 0001:00015880       ?HKeyFromString@CRegParser@ATL@@KAPAUHKEY__@@PA_W@Z 10016880 f i IndividualRecognition.obj
 0001:000158f0       ?HandsOffStorage@?$IPersistStorageImpl@VCOPOSIndividualRecognition@@@ATL@@UAGJXZ 100168f0 f i IndividualRecognition.obj
 0001:00015950       ?HasSubKeys@CRegParser@ATL@@IAEHPAUHKEY__@@@Z 10016950 f i IndividualRecognition.obj
 0001:00015a60       ?IDataObject_GetData@CComControlBase@ATL@@QAEJPAUtagFORMATETC@@PAUtagSTGMEDIUM@@@Z 10016a60 f i IndividualRecognition.obj
 0001:00015e80       ?IOleInPlaceObject_InPlaceDeactivate@CComControlBase@ATL@@QAEJXZ 10016e80 f i IndividualRecognition.obj
 0001:00016080       ?IOleInPlaceObject_SetObjectRects@CComControlBase@ATL@@QAEJPBUtagRECT@@0@Z 10017080 f i IndividualRecognition.obj
 0001:00016240       ?IOleInPlaceObject_UIDeactivate@CComControlBase@ATL@@QAEJXZ 10017240 f i IndividualRecognition.obj
 0001:000164b0       ?IOleObject_Advise@CComControlBase@ATL@@QAEJPAUIAdviseSink@@PAK@Z 100174b0 f i IndividualRecognition.obj
 0001:00016560       ?IOleObject_Close@CComControlBase@ATL@@QAEJK@Z 10017560 f i IndividualRecognition.obj
 0001:00016810       ?IOleObject_GetClientSite@CComControlBase@ATL@@QAEJPAPAUIOleClientSite@@@Z 10017810 f i IndividualRecognition.obj
 0001:000168b0       ?IOleObject_SetClientSite@CComControlBase@ATL@@QAEJPAUIOleClientSite@@@Z 100178b0 f i IndividualRecognition.obj
 0001:00016980       ?IOleObject_SetExtent@CComControlBase@ATL@@QAEJKPAUtagSIZE@@@Z 10017980 f i IndividualRecognition.obj
 0001:00016ac0       ?IPSI_GetIPersistStreamInit@?$IPersistStorageImpl@VCOPOSIndividualRecognition@@@ATL@@AAEPAUIPersistStreamInit@@XZ 10017ac0 f i IndividualRecognition.obj
 0001:00016b90       ?IPersistStreamInit_Load@?$IPersistStreamInitImpl@VCOPOSIndividualRecognition@@@ATL@@QAEJPAUIStream@@PBUATL_PROPMAP_ENTRY@2@@Z 10017b90 f i IndividualRecognition.obj
 0001:00016c10       ?IPersistStreamInit_Save@?$IPersistStreamInitImpl@VCOPOSIndividualRecognition@@@ATL@@QAEJPAUIStream@@HPBUATL_PROPMAP_ENTRY@2@@Z 10017c10 f i IndividualRecognition.obj
 0001:00016ca0       ?IQuickActivate_QuickActivate@CComControlBase@ATL@@QAEJPAUtagQACONTAINER@@PAUtagQACONTROL@@@Z 10017ca0 f i IndividualRecognition.obj
 0001:000172f0       ?IViewObject_Draw@CComControlBase@ATL@@QAEJKJPAXPAUtagDVTARGETDEVICE@@PAUHDC__@@2PBU_RECTL@@3@Z 100182f0 f i IndividualRecognition.obj
 0001:00017590       ?InPlaceActivate@CComControlBase@ATL@@QAEJJPBUtagRECT@@@Z 10018590 f i IndividualRecognition.obj
 0001:00017f20       ?InPlaceDeactivate@?$IOleInPlaceObjectWindowlessImpl@VCOPOSIndividualRecognition@@@ATL@@UAGJXZ 10018f20 f i IndividualRecognition.obj
 0001:00017fa0       ?Increment@CComMultiThreadModel@ATL@@SGKPAJ@Z 10018fa0 f i IndividualRecognition.obj
 0001:00017fc0       ?Increment@CComSingleThreadModel@ATL@@SGKPAJ@Z 10018fc0 f i IndividualRecognition.obj
 0001:00017fe0       ?Init@?$CComEnumImpl@UIEnumConnectionPoints@@$1?_GUID_b196b285_bab4_101a_b69c_00aa00341d07@@3U__s_GUID@@BPAUIConnectionPoint@@V?$_CopyInterface@UIConnectionPoint@@@ATL@@@ATL@@QAEJPAPAUIConnectionPoint@@0PAUIUnknown@@W4CComEnumFlags@2@@Z 10018fe0 f i IndividualRecognition.obj
 0001:000181c0       ?Init@?$CComEnumImpl@UIEnumConnections@@$1?_GUID_b196b287_bab4_101a_b69c_00aa00341d07@@3U__s_GUID@@BUtagCONNECTDATA@@V?$_Copy@UtagCONNECTDATA@@@ATL@@@ATL@@QAEJPAUtagCONNECTDATA@@0PAUIUnknown@@W4CComEnumFlags@2@@Z 100191c0 f i IndividualRecognition.obj
 0001:000183a0       ?Init@CComFakeCriticalSection@ATL@@QAEJXZ 100193a0 f i IndividualRecognition.obj
 0001:000183c0       ?Init@CComModule@ATL@@QAEJPAU_ATL_OBJMAP_ENTRY30@2@PAUHINSTANCE__@@PBU_GUID@@@Z 100193c0 f i IndividualRecognition.obj
 0001:000184b0       ?Init@CComSafeDeleteCriticalSection@ATL@@QAEJXZ 100194b0 f i IndividualRecognition.obj
 0001:00018530       ?Init@CDynamicStdCallThunk2@ATL@@QAEHKPAX@Z 10019530 f i IndividualRecognition.obj
 0001:00018590       ?Init@CWndProcThunk@ATL@@QAEHP6GJPAUHWND__@@IIJ@ZPAX@Z 10019590 f i IndividualRecognition.obj
 0001:000185d0       ?InitFromData@?$IOleObjectImpl@VCOPOSIndividualRecognition@@@ATL@@UAGJPAUIDataObject@@HK@Z 100195d0 f i IndividualRecognition.obj
 0001:00018640       ?InitLibId@?$CAtlModuleT@VCComModule@ATL@@@ATL@@SAXXZ 10019640 f i IndividualRecognition.obj
 0001:00018650       ?InitNew@?$IPersistStorageImpl@VCOPOSIndividualRecognition@@@ATL@@UAGJPAUIStorage@@@Z 10019650 f i IndividualRecognition.obj
 0001:00018740       ?InitNew@?$IPersistStreamInitImpl@VCOPOSIndividualRecognition@@@ATL@@UAGJXZ 10019740 f i IndividualRecognition.obj
 0001:000187d0       ?InlineIsEqualUnknown@ATL@@YGHABU_GUID@@@Z 100197d0 f i IndividualRecognition.obj
 0001:00018840       ?InternalAddRef@?$CComObjectRootEx@VCComMultiThreadModel@ATL@@@ATL@@QAEKXZ 10019840 f i IndividualRecognition.obj
 0001:000188a0       ?InternalAddRef@?$CComObjectRootEx@VCComSingleThreadModel@ATL@@@ATL@@QAEKXZ 100198a0 f i IndividualRecognition.obj
 0001:00018900       ?InternalFinalConstructAddRef@CComObjectRootBase@ATL@@QAEXXZ 10019900 f i IndividualRecognition.obj
 0001:00018920       ?InternalFinalConstructAddRef@COPOSIndividualRecognition@@QAEXXZ 10019920 f i IndividualRecognition.obj
 0001:00018950       ?InternalFinalConstructRelease@CComObjectRootBase@ATL@@QAEXXZ 10019950 f i IndividualRecognition.obj
 0001:000189a0       ?InternalFinalConstructRelease@COPOSIndividualRecognition@@QAEXXZ 100199a0 f i IndividualRecognition.obj
 0001:000189d0       ?InternalGetSite@CComControlBase@ATL@@QAEJABU_GUID@@PAPAX@Z 100199d0 f i IndividualRecognition.obj
 0001:00018a90       ?InternalQueryInterface@CComObjectRootBase@ATL@@SGJPAXPBU_ATL_INTMAP_ENTRY@2@ABU_GUID@@PAPAX@Z 10019a90 f i IndividualRecognition.obj
 0001:00018b50       ?InternalRelease@?$CComObjectRootEx@VCComMultiThreadModel@ATL@@@ATL@@QAEKXZ 10019b50 f i IndividualRecognition.obj
 0001:00018bc0       ?InternalRelease@?$CComObjectRootEx@VCComSingleThreadModel@ATL@@@ATL@@QAEKXZ 10019bc0 f i IndividualRecognition.obj
 0001:00018c30       ?InternalSetAtIndex@?$CSimpleArray@GV?$CSimpleArrayEqualHelper@G@ATL@@@ATL@@QAEXHABG@Z 10019c30 f i IndividualRecognition.obj
 0001:00018ca0       ?InternalSetAtIndex@?$CSimpleMap@PA_WPA_WVCExpansionVectorEqualHelper@ATL@@@ATL@@QAEXHABQA_W0@Z 10019ca0 f i IndividualRecognition.obj
 0001:00018d40       ?Invoke@?$IDispatchImpl@UIOPOSIndividualRecognition@@$1?IID_IOPOSIndividualRecognition@@3U_GUID@@B$1?LIBID_OposIndividualRecognition_CCO@@3U3@B$00$0A@VCComTypeInfoHolder@ATL@@@ATL@@UAGJJABU_GUID@@KGPAUtagDISPPARAMS@@PAUtagVARIANT@@PAUtagEXCEPINFO@@PAI@Z 10019d40 f i IndividualRecognition.obj
 0001:00018d80       ?Invoke@CComTypeInfoHolder@ATL@@QAEJPAUIDispatch@@JABU_GUID@@KGPAUtagDISPPARAMS@@PAUtagVARIANT@@PAUtagEXCEPINFO@@PAI@Z 10019d80 f i IndividualRecognition.obj
 0001:00018e10       ?IsDirty@?$IPersistStorageImpl@VCOPOSIndividualRecognition@@@ATL@@UAGJXZ 10019e10 f i IndividualRecognition.obj
 0001:00018f00       ?IsDirty@?$IPersistStreamInitImpl@VCOPOSIndividualRecognition@@@ATL@@UAGJXZ 10019f00 f i IndividualRecognition.obj
 0001:00018fa0       ?IsEqualKey@CExpansionVectorEqualHelper@ATL@@SA_NQA_W0@Z 10019fa0 f i IndividualRecognition.obj
 0001:00018fd0       ?IsEqualObject@?$CComPtrBase@UIOleClientSite@@@ATL@@QAE_NPAUIUnknown@@@Z 10019fd0 f i IndividualRecognition.obj
 0001:00019100       ?IsEqualObject@?$CComPtrBase@UITypeInfo@@@ATL@@QAE_NPAUIUnknown@@@Z 1001a100 f i IndividualRecognition.obj
 0001:00019230       ?IsSpace@CRegParser@ATL@@IAEH_W@Z 1001a230 f i IndividualRecognition.obj
 0001:000192a0       ?IsUpToDate@?$IOleObjectImpl@VCOPOSIndividualRecognition@@@ATL@@UAGJXZ 1001a2a0 f i IndividualRecognition.obj
 0001:00019300       ?Length@CComBSTR@ATL@@QBEIXZ 1001a300 f i IndividualRecognition.obj
 0001:00019340       ?Load@?$IPersistStorageImpl@VCOPOSIndividualRecognition@@@ATL@@UAGJPAUIStorage@@@Z 1001a340 f i IndividualRecognition.obj
 0001:000194a0       ?Load@?$IPersistStreamInitImpl@VCOPOSIndividualRecognition@@@ATL@@UAGJPAUIStream@@@Z 1001a4a0 f i IndividualRecognition.obj
 0001:00019530       ?LoadCursorW@AtlModuleRegisterWndClassInfoParamW@ATL@@SAPAUHICON__@@PAUHINSTANCE__@@PB_W@Z 1001a530 f i IndividualRecognition.obj
 0001:00019560       ?LoadNameCache@CComTypeInfoHolder@ATL@@QAEJPAUITypeInfo@@@Z 1001a560 f i IndividualRecognition.obj
 0001:000197f0       ?Lock@?$CComCritSecLock@VCComCriticalSection@ATL@@@ATL@@QAEJXZ 1001a7f0 f i IndividualRecognition.obj
 0001:000198a0       ?Lock@?$CComObjectRootEx@VCComSingleThreadModel@ATL@@@ATL@@QAEXXZ 1001a8a0 f i IndividualRecognition.obj
 0001:000198c0       ?Lock@CAtlModule@ATL@@UAEJXZ 1001a8c0 f i IndividualRecognition.obj
 0001:000198f0       ?Lock@CComCriticalSection@ATL@@QAEJXZ 1001a8f0 f i IndividualRecognition.obj
 0001:00019930       ?Lock@CComFakeCriticalSection@ATL@@QAEJXZ 1001a930 f i IndividualRecognition.obj
 0001:00019950       ?LockServer@CComClassFactory@ATL@@UAGJH@Z 1001a950 f i IndividualRecognition.obj
 0001:000199b0       ?Lookup@?$CSimpleMap@PA_WPA_WVCExpansionVectorEqualHelper@ATL@@@ATL@@QBEPA_WABQA_W@Z 1001a9b0 f i IndividualRecognition.obj
 0001:00019a00       ?Next@?$CComEnumImpl@UIEnumConnectionPoints@@$1?_GUID_b196b285_bab4_101a_b69c_00aa00341d07@@3U__s_GUID@@BPAUIConnectionPoint@@V?$_CopyInterface@UIConnectionPoint@@@ATL@@@ATL@@UAGJKPAPAUIConnectionPoint@@PAK@Z 1001aa00 f i IndividualRecognition.obj
 0001:00019b70       ?Next@?$CComEnumImpl@UIEnumConnections@@$1?_GUID_b196b287_bab4_101a_b69c_00aa00341d07@@3U__s_GUID@@BUtagCONNECTDATA@@V?$_Copy@UtagCONNECTDATA@@@ATL@@@ATL@@UAGJKPAUtagCONNECTDATA@@PAK@Z 1001ab70 f i IndividualRecognition.obj
 0001:00019ce0       ?NextToken@CRegParser@ATL@@IAEJPA_W@Z 1001ace0 f i IndividualRecognition.obj
 0001:00019f80       ?OLE2CT_EX@@YAPB_WPB_WI@Z  1001af80 f i IndividualRecognition.obj
 0001:00019f90       ?OLE2CT_EX_DEF@@YAPB_WPB_W@Z 1001af90 f i IndividualRecognition.obj
 0001:00019fa0       ?OLE2T_EX@@YAPA_WPA_WI@Z   1001afa0 f i IndividualRecognition.obj
 0001:00019fb0       ?OnAmbientPropertyChange@?$IOleControlImpl@VCOPOSIndividualRecognition@@@ATL@@UAGJJ@Z 1001afb0 f i IndividualRecognition.obj
 0001:0001a040       ?OnDocWindowActivate@?$IOleInPlaceActiveObjectImpl@VCOPOSIndividualRecognition@@@ATL@@UAGJH@Z 1001b040 f i IndividualRecognition.obj
 0001:0001a0d0       ?OnDrawAdvanced@CComControlBase@ATL@@UAEJAAUATL_DRAWINFO@@@Z 1001b0d0 f i IndividualRecognition.obj
 0001:0001a2f0       ?OnFinalMessage@?$CWindowImplBaseT@VCWindow@ATL@@V?$CWinTraits@$0FGAAAAAA@$0A@@2@@ATL@@UAEXPAUHWND__@@@Z 1001b2f0 f i IndividualRecognition.obj
 0001:0001a310       ?OnFrameWindowActivate@?$IOleInPlaceActiveObjectImpl@VCOPOSIndividualRecognition@@@ATL@@UAGJH@Z 1001b310 f i IndividualRecognition.obj
 0001:0001a370       ?OnKillFocus@CComControlBase@ATL@@QAEJIIJAAH@Z 1001b370 f i IndividualRecognition.obj
 0001:0001a470       ?OnMnemonic@?$IOleControlImpl@VCOPOSIndividualRecognition@@@ATL@@UAGJPAUtagMSG@@@Z 1001b470 f i IndividualRecognition.obj
 0001:0001a4e0       ?OnMouseActivate@CComControlBase@ATL@@QAEJIIJAAH@Z 1001b4e0 f i IndividualRecognition.obj
 0001:0001a630       ?OnPaint@CComControlBase@ATL@@QAEJIIJAAH@Z 1001b630 f i IndividualRecognition.obj
 0001:0001a7b0       ?OnPostVerbDiscardUndo@?$IOleObjectImpl@VCOPOSIndividualRecognition@@@ATL@@QAEJXZ 1001b7b0 f i IndividualRecognition.obj
 0001:0001a7d0       ?OnPostVerbHide@?$IOleObjectImpl@VCOPOSIndividualRecognition@@@ATL@@QAEJXZ 1001b7d0 f i IndividualRecognition.obj
 0001:0001a7f0       ?OnPostVerbInPlaceActivate@?$IOleObjectImpl@VCOPOSIndividualRecognition@@@ATL@@QAEJXZ 1001b7f0 f i IndividualRecognition.obj
 0001:0001a810       ?OnPostVerbOpen@?$IOleObjectImpl@VCOPOSIndividualRecognition@@@ATL@@QAEJXZ 1001b810 f i IndividualRecognition.obj
 0001:0001a830       ?OnPostVerbShow@?$IOleObjectImpl@VCOPOSIndividualRecognition@@@ATL@@QAEJXZ 1001b830 f i IndividualRecognition.obj
 0001:0001a850       ?OnPostVerbUIActivate@?$IOleObjectImpl@VCOPOSIndividualRecognition@@@ATL@@QAEJXZ 1001b850 f i IndividualRecognition.obj
 0001:0001a870       ?OnPreVerbDiscardUndo@?$IOleObjectImpl@VCOPOSIndividualRecognition@@@ATL@@QAEJXZ 1001b870 f i IndividualRecognition.obj
 0001:0001a890       ?OnPreVerbHide@?$IOleObjectImpl@VCOPOSIndividualRecognition@@@ATL@@QAEJXZ 1001b890 f i IndividualRecognition.obj
 0001:0001a8b0       ?OnPreVerbInPlaceActivate@?$IOleObjectImpl@VCOPOSIndividualRecognition@@@ATL@@QAEJXZ 1001b8b0 f i IndividualRecognition.obj
 0001:0001a8d0       ?OnPreVerbOpen@?$IOleObjectImpl@VCOPOSIndividualRecognition@@@ATL@@QAEJXZ 1001b8d0 f i IndividualRecognition.obj
 0001:0001a8f0       ?OnPreVerbShow@?$IOleObjectImpl@VCOPOSIndividualRecognition@@@ATL@@QAEJXZ 1001b8f0 f i IndividualRecognition.obj
 0001:0001a910       ?OnPreVerbUIActivate@?$IOleObjectImpl@VCOPOSIndividualRecognition@@@ATL@@QAEJXZ 1001b910 f i IndividualRecognition.obj
 0001:0001a930       ?OnSetFocus@CComControlBase@ATL@@QAEJIIJAAH@Z 1001b930 f i IndividualRecognition.obj
 0001:0001aac0       ?OnWindowMessage@?$IOleInPlaceObjectWindowlessImpl@VCOPOSIndividualRecognition@@@ATL@@UAGJIIJPAJ@Z 1001bac0 f i IndividualRecognition.obj
 0001:0001ac20       ?Open@CRegKey@ATL@@QAEJPAUHKEY__@@PB_WK@Z 1001bc20 f i IndividualRecognition.obj
 0001:0001ad70       ?OuterAddRef@CComObjectRootBase@ATL@@QAEKXZ 1001bd70 f i IndividualRecognition.obj
 0001:0001adb0       ?OuterQueryInterface@CComObjectRootBase@ATL@@QAEJABU_GUID@@PAPAX@Z 1001bdb0 f i IndividualRecognition.obj
 0001:0001ae00       ?OuterRelease@CComObjectRootBase@ATL@@QAEKXZ 1001be00 f i IndividualRecognition.obj
 0001:0001ae40       ?PreProcessBuffer@CRegParser@ATL@@QAEJPA_WPAPA_W@Z 1001be40 f i IndividualRecognition.obj
 0001:0001b380       ?PreTranslateAccelerator@CComControlBase@ATL@@QAEHPAUtagMSG@@AAJ@Z 1001c380 f i IndividualRecognition.obj
 0001:0001b3a0       ?ProcessWindowMessage@?$CComControl@VCOPOSIndividualRecognition@@V?$CWindowImpl@VCOPOSIndividualRecognition@@VCWindow@ATL@@V?$CWinTraits@$0FGAAAAAA@$0A@@3@@ATL@@@ATL@@UAEHPAUHWND__@@IIJAAJK@Z 1001c3a0 f i IndividualRecognition.obj
 0001:0001b570       ?ProcessWindowMessage@COPOSIndividualRecognition@@UAEHPAUHWND__@@IIJAAJK@Z 1001c570 f i IndividualRecognition.obj
 0001:0001b670       ?PutProperty@?$CComPtr@UIDispatch@@@ATL@@QAEJJPAUtagVARIANT@@@Z 1001c670 f i IndividualRecognition.obj
 0001:0001b6b0       ?PutProperty@?$CComPtr@UIDispatch@@@ATL@@SAJPAUIDispatch@@JPAUtagVARIANT@@@Z 1001c6b0 f i IndividualRecognition.obj
 0001:0001b8a0       ?QueryGetData@?$IDataObjectImpl@VCOPOSIndividualRecognition@@@ATL@@UAGJPAUtagFORMATETC@@@Z 1001c8a0 f i IndividualRecognition.obj
 0001:0001b910       ?QueryHitPoint@?$IViewObjectExImpl@VCOPOSIndividualRecognition@@@ATL@@UAGJKPBUtagRECT@@UtagPOINT@@JPAK@Z 1001c910 f i IndividualRecognition.obj
 0001:0001ba20       ?QueryHitRect@?$IViewObjectExImpl@VCOPOSIndividualRecognition@@@ATL@@UAGJKPBUtagRECT@@0JPAK@Z 1001ca20 f i IndividualRecognition.obj
 0001:0001bb70       ?QueryInterface@?$CComAggObject@VCOPOSIndividualRecognition@@@ATL@@UAGJABU_GUID@@PAPAX@Z 1001cb70 f i IndividualRecognition.obj
 0001:0001bc20       ?QueryInterface@?$CComContainedObject@VCOPOSIndividualRecognition@@@ATL@@UAGJABU_GUID@@PAPAX@Z 1001cc20 f i IndividualRecognition.obj
 0001:0001bc44       ?QueryInterface@?$CComContainedObject@VCOPOSIndividualRecognition@@@ATL@@WHA@AGJABU_GUID@@PAPAX@Z 1001cc44 f i IndividualRecognition.obj
 0001:0001bc4e       ?QueryInterface@?$CComContainedObject@VCOPOSIndividualRecognition@@@ATL@@WHE@AGJABU_GUID@@PAPAX@Z 1001cc4e f i IndividualRecognition.obj
 0001:0001bc58       ?QueryInterface@?$CComContainedObject@VCOPOSIndividualRecognition@@@ATL@@WHI@AGJABU_GUID@@PAPAX@Z 1001cc58 f i IndividualRecognition.obj
 0001:0001bc62       ?QueryInterface@?$CComContainedObject@VCOPOSIndividualRecognition@@@ATL@@WHM@AGJABU_GUID@@PAPAX@Z 1001cc62 f i IndividualRecognition.obj
 0001:0001bc6c       ?QueryInterface@?$CComContainedObject@VCOPOSIndividualRecognition@@@ATL@@WIA@AGJABU_GUID@@PAPAX@Z 1001cc6c f i IndividualRecognition.obj
 0001:0001bc79       ?QueryInterface@?$CComContainedObject@VCOPOSIndividualRecognition@@@ATL@@WIE@AGJABU_GUID@@PAPAX@Z 1001cc79 f i IndividualRecognition.obj
 0001:0001bc86       ?QueryInterface@?$CComContainedObject@VCOPOSIndividualRecognition@@@ATL@@WII@AGJABU_GUID@@PAPAX@Z 1001cc86 f i IndividualRecognition.obj
 0001:0001bc93       ?QueryInterface@?$CComContainedObject@VCOPOSIndividualRecognition@@@ATL@@WIM@AGJABU_GUID@@PAPAX@Z 1001cc93 f i IndividualRecognition.obj
 0001:0001bca0       ?QueryInterface@?$CComContainedObject@VCOPOSIndividualRecognition@@@ATL@@WJA@AGJABU_GUID@@PAPAX@Z 1001cca0 f i IndividualRecognition.obj
 0001:0001bcad       ?QueryInterface@?$CComContainedObject@VCOPOSIndividualRecognition@@@ATL@@WJE@AGJABU_GUID@@PAPAX@Z 1001ccad f i IndividualRecognition.obj
 0001:0001bcba       ?QueryInterface@?$CComContainedObject@VCOPOSIndividualRecognition@@@ATL@@WJI@AGJABU_GUID@@PAPAX@Z 1001ccba f i IndividualRecognition.obj
 0001:0001bcc7       ?QueryInterface@?$CComContainedObject@VCOPOSIndividualRecognition@@@ATL@@WJM@AGJABU_GUID@@PAPAX@Z 1001ccc7 f i IndividualRecognition.obj
 0001:0001bcd4       ?QueryInterface@?$CComContainedObject@VCOPOSIndividualRecognition@@@ATL@@WKA@AGJABU_GUID@@PAPAX@Z 1001ccd4 f i IndividualRecognition.obj
 0001:0001bcf0       ?QueryInterface@?$CComObject@V?$CComEnum@UIEnumConnectionPoints@@$1?_GUID_b196b285_bab4_101a_b69c_00aa00341d07@@3U__s_GUID@@BPAUIConnectionPoint@@V?$_CopyInterface@UIConnectionPoint@@@ATL@@VCComSingleThreadModel@6@@ATL@@@ATL@@UAGJABU_GUID@@PAPAX@Z 1001ccf0 f i IndividualRecognition.obj
 0001:0001bd10       ?QueryInterface@?$CComObject@V?$CComEnum@UIEnumConnections@@$1?_GUID_b196b287_bab4_101a_b69c_00aa00341d07@@3U__s_GUID@@BUtagCONNECTDATA@@V?$_Copy@UtagCONNECTDATA@@@ATL@@VCComSingleThreadModel@6@@ATL@@@ATL@@UAGJABU_GUID@@PAPAX@Z 1001cd10 f i IndividualRecognition.obj
 0001:0001bd30       ?QueryInterface@?$CComObject@VCOPOSIndividualRecognition@@@ATL@@UAGJABU_GUID@@PAPAX@Z 1001cd30 f i IndividualRecognition.obj
 0001:0001bd4e       ?QueryInterface@?$CComObject@VCOPOSIndividualRecognition@@@ATL@@WHA@AGJABU_GUID@@PAPAX@Z 1001cd4e f i IndividualRecognition.obj
 0001:0001bd58       ?QueryInterface@?$CComObject@VCOPOSIndividualRecognition@@@ATL@@WHE@AGJABU_GUID@@PAPAX@Z 1001cd58 f i IndividualRecognition.obj
 0001:0001bd62       ?QueryInterface@?$CComObject@VCOPOSIndividualRecognition@@@ATL@@WHI@AGJABU_GUID@@PAPAX@Z 1001cd62 f i IndividualRecognition.obj
 0001:0001bd6c       ?QueryInterface@?$CComObject@VCOPOSIndividualRecognition@@@ATL@@WHM@AGJABU_GUID@@PAPAX@Z 1001cd6c f i IndividualRecognition.obj
 0001:0001bd76       ?QueryInterface@?$CComObject@VCOPOSIndividualRecognition@@@ATL@@WIA@AGJABU_GUID@@PAPAX@Z 1001cd76 f i IndividualRecognition.obj
 0001:0001bd83       ?QueryInterface@?$CComObject@VCOPOSIndividualRecognition@@@ATL@@WIE@AGJABU_GUID@@PAPAX@Z 1001cd83 f i IndividualRecognition.obj
 0001:0001bd90       ?QueryInterface@?$CComObject@VCOPOSIndividualRecognition@@@ATL@@WII@AGJABU_GUID@@PAPAX@Z 1001cd90 f i IndividualRecognition.obj
 0001:0001bd9d       ?QueryInterface@?$CComObject@VCOPOSIndividualRecognition@@@ATL@@WIM@AGJABU_GUID@@PAPAX@Z 1001cd9d f i IndividualRecognition.obj
 0001:0001bdaa       ?QueryInterface@?$CComObject@VCOPOSIndividualRecognition@@@ATL@@WJA@AGJABU_GUID@@PAPAX@Z 1001cdaa f i IndividualRecognition.obj
 0001:0001bdb7       ?QueryInterface@?$CComObject@VCOPOSIndividualRecognition@@@ATL@@WJE@AGJABU_GUID@@PAPAX@Z 1001cdb7 f i IndividualRecognition.obj
 0001:0001bdc4       ?QueryInterface@?$CComObject@VCOPOSIndividualRecognition@@@ATL@@WJI@AGJABU_GUID@@PAPAX@Z 1001cdc4 f i IndividualRecognition.obj
 0001:0001bdd1       ?QueryInterface@?$CComObject@VCOPOSIndividualRecognition@@@ATL@@WJM@AGJABU_GUID@@PAPAX@Z 1001cdd1 f i IndividualRecognition.obj
 0001:0001bdde       ?QueryInterface@?$CComObject@VCOPOSIndividualRecognition@@@ATL@@WKA@AGJABU_GUID@@PAPAX@Z 1001cdde f i IndividualRecognition.obj
 0001:0001bdf0       ?QueryInterface@?$CComObjectCached@VCComClassFactory@ATL@@@ATL@@UAGJABU_GUID@@PAPAX@Z 1001cdf0 f i IndividualRecognition.obj
 0001:0001be10       ?QueryInterface@CRegObject@ATL@@UAGJABU_GUID@@PAPAX@Z 1001ce10 f i IndividualRecognition.obj
 0001:0001be60       ?QuickActivate@?$IQuickActivateImpl@VCOPOSIndividualRecognition@@@ATL@@UAGJPAUtagQACONTAINER@@PAUtagQACONTROL@@@Z 1001ce60 f i IndividualRecognition.obj
 0001:0001bef0       ?ReactivateAndUndo@?$IOleInPlaceObjectWindowlessImpl@VCOPOSIndividualRecognition@@@ATL@@UAGJXZ 1001cef0 f i IndividualRecognition.obj
 0001:0001bf60       ?ReadFromStream@CComBSTR@ATL@@QAEJPAUIStream@@@Z 1001cf60 f i IndividualRecognition.obj
 0001:0001c360       ?ReadFromStream@CComVariant@ATL@@QAEJPAUIStream@@GTClassesAllowedInStream@2@K@Z 1001d360 f i IndividualRecognition.obj
 0001:0001c6c0       ?RecurseDeleteKey@CRegKey@ATL@@QAEJPB_W@Z 1001d6c0 f i IndividualRecognition.obj
 0001:0001c8a0       ?RegCreateKeyExW@CAtlTransactionManager@ATL@@QAEJPAUHKEY__@@PB_WKPA_WKKQAU_SECURITY_ATTRIBUTES@@PAPAU3@PAK@Z 1001d8a0 f i IndividualRecognition.obj
 0001:0001c9d0       ?RegDeleteKeyW@CAtlTransactionManager@ATL@@QAEJPAUHKEY__@@PB_W@Z 1001d9d0 f i IndividualRecognition.obj
 0001:0001cad0       ?RegOpenKeyExW@CAtlTransactionManager@ATL@@QAEJPAUHKEY__@@PB_WKKPAPAU3@@Z 1001dad0 f i IndividualRecognition.obj
 0001:0001cbe0       ?Register@_ATL_WNDCLASSINFOW@ATL@@QAEGPAP6GJPAUHWND__@@IIJ@Z@Z 1001dbe0 f i IndividualRecognition.obj
 0001:0001cc20       ?RegisterBuffer@CRegParser@ATL@@QAEJPA_WH@Z 1001dc20 f i IndividualRecognition.obj
 0001:0001cf50       ?RegisterClassExW@AtlModuleRegisterWndClassInfoParamW@ATL@@SAGPAU_ATL_WIN_MODULE70@2@PBUtagWNDCLASSEXW@@@Z 1001df50 f i IndividualRecognition.obj
 0001:0001cf70       ?RegisterFromResource@CRegObject@ATL@@IAEJPB_W00H@Z 1001df70 f i IndividualRecognition.obj
 0001:0001d300       ?RegisterServer@?$CAtlModuleT@VCComModule@ATL@@@ATL@@QAEJHPBU_GUID@@@Z 1001e300 f i IndividualRecognition.obj
 0001:0001d380       ?RegisterServer@CAtlComModule@ATL@@QAEJHPBU_GUID@@@Z 1001e380 f i IndividualRecognition.obj
 0001:0001d3b0       ?RegisterServer@CComModule@ATL@@QAEJHPBU_GUID@@@Z 1001e3b0 f i IndividualRecognition.obj
 0001:0001d490       ?RegisterSubkeys@CRegParser@ATL@@IAEJPA_WPAUHKEY__@@HH@Z 1001e490 f i IndividualRecognition.obj
 0001:0001dfb0       ?Release@?$CComAggObject@VCOPOSIndividualRecognition@@@ATL@@UAGKXZ 1001efb0 f i IndividualRecognition.obj
 0001:0001e070       ?Release@?$CComContainedObject@VCOPOSIndividualRecognition@@@ATL@@UAGKXZ 1001f070 f i IndividualRecognition.obj
 0001:0001e08c       ?Release@?$CComContainedObject@VCOPOSIndividualRecognition@@@ATL@@WHA@AGKXZ 1001f08c f i IndividualRecognition.obj
 0001:0001e096       ?Release@?$CComContainedObject@VCOPOSIndividualRecognition@@@ATL@@WHE@AGKXZ 1001f096 f i IndividualRecognition.obj
 0001:0001e0a0       ?Release@?$CComContainedObject@VCOPOSIndividualRecognition@@@ATL@@WHI@AGKXZ 1001f0a0 f i IndividualRecognition.obj
 0001:0001e0aa       ?Release@?$CComContainedObject@VCOPOSIndividualRecognition@@@ATL@@WHM@AGKXZ 1001f0aa f i IndividualRecognition.obj
 0001:0001e0b4       ?Release@?$CComContainedObject@VCOPOSIndividualRecognition@@@ATL@@WIA@AGKXZ 1001f0b4 f i IndividualRecognition.obj
 0001:0001e0c1       ?Release@?$CComContainedObject@VCOPOSIndividualRecognition@@@ATL@@WIE@AGKXZ 1001f0c1 f i IndividualRecognition.obj
 0001:0001e0ce       ?Release@?$CComContainedObject@VCOPOSIndividualRecognition@@@ATL@@WII@AGKXZ 1001f0ce f i IndividualRecognition.obj
 0001:0001e0db       ?Release@?$CComContainedObject@VCOPOSIndividualRecognition@@@ATL@@WIM@AGKXZ 1001f0db f i IndividualRecognition.obj
 0001:0001e0e8       ?Release@?$CComContainedObject@VCOPOSIndividualRecognition@@@ATL@@WJA@AGKXZ 1001f0e8 f i IndividualRecognition.obj
 0001:0001e0f5       ?Release@?$CComContainedObject@VCOPOSIndividualRecognition@@@ATL@@WJE@AGKXZ 1001f0f5 f i IndividualRecognition.obj
 0001:0001e102       ?Release@?$CComContainedObject@VCOPOSIndividualRecognition@@@ATL@@WJI@AGKXZ 1001f102 f i IndividualRecognition.obj
 0001:0001e10f       ?Release@?$CComContainedObject@VCOPOSIndividualRecognition@@@ATL@@WJM@AGKXZ 1001f10f f i IndividualRecognition.obj
 0001:0001e11c       ?Release@?$CComContainedObject@VCOPOSIndividualRecognition@@@ATL@@WKA@AGKXZ 1001f11c f i IndividualRecognition.obj
 0001:0001e129       ?Release@?$CComContainedObject@VCOPOSIndividualRecognition@@@ATL@@WKI@AGKXZ 1001f129 f i IndividualRecognition.obj
 0001:0001e136       ?Release@?$CComContainedObject@VCOPOSIndividualRecognition@@@ATL@@WLE@AGKXZ 1001f136 f i IndividualRecognition.obj
 0001:0001e150       ?Release@?$CComObject@V?$CComEnum@UIEnumConnectionPoints@@$1?_GUID_b196b285_bab4_101a_b69c_00aa00341d07@@3U__s_GUID@@BPAUIConnectionPoint@@V?$_CopyInterface@UIConnectionPoint@@@ATL@@VCComSingleThreadModel@6@@ATL@@@ATL@@UAGKXZ 1001f150 f i IndividualRecognition.obj
 0001:0001e210       ?Release@?$CComObject@V?$CComEnum@UIEnumConnections@@$1?_GUID_b196b287_bab4_101a_b69c_00aa00341d07@@3U__s_GUID@@BUtagCONNECTDATA@@V?$_Copy@UtagCONNECTDATA@@@ATL@@VCComSingleThreadModel@6@@ATL@@@ATL@@UAGKXZ 1001f210 f i IndividualRecognition.obj
 0001:0001e2d0       ?Release@?$CComObject@VCOPOSIndividualRecognition@@@ATL@@UAGKXZ 1001f2d0 f i IndividualRecognition.obj
 0001:0001e389       ?Release@?$CComObject@VCOPOSIndividualRecognition@@@ATL@@WHA@AGKXZ 1001f389 f i IndividualRecognition.obj
 0001:0001e393       ?Release@?$CComObject@VCOPOSIndividualRecognition@@@ATL@@WHE@AGKXZ 1001f393 f i IndividualRecognition.obj
 0001:0001e39d       ?Release@?$CComObject@VCOPOSIndividualRecognition@@@ATL@@WHI@AGKXZ 1001f39d f i IndividualRecognition.obj
 0001:0001e3a7       ?Release@?$CComObject@VCOPOSIndividualRecognition@@@ATL@@WHM@AGKXZ 1001f3a7 f i IndividualRecognition.obj
 0001:0001e3b1       ?Release@?$CComObject@VCOPOSIndividualRecognition@@@ATL@@WIA@AGKXZ 1001f3b1 f i IndividualRecognition.obj
 0001:0001e3be       ?Release@?$CComObject@VCOPOSIndividualRecognition@@@ATL@@WIE@AGKXZ 1001f3be f i IndividualRecognition.obj
 0001:0001e3cb       ?Release@?$CComObject@VCOPOSIndividualRecognition@@@ATL@@WII@AGKXZ 1001f3cb f i IndividualRecognition.obj
 0001:0001e3d8       ?Release@?$CComObject@VCOPOSIndividualRecognition@@@ATL@@WIM@AGKXZ 1001f3d8 f i IndividualRecognition.obj
 0001:0001e3e5       ?Release@?$CComObject@VCOPOSIndividualRecognition@@@ATL@@WJA@AGKXZ 1001f3e5 f i IndividualRecognition.obj
 0001:0001e3f2       ?Release@?$CComObject@VCOPOSIndividualRecognition@@@ATL@@WJE@AGKXZ 1001f3f2 f i IndividualRecognition.obj
 0001:0001e3ff       ?Release@?$CComObject@VCOPOSIndividualRecognition@@@ATL@@WJI@AGKXZ 1001f3ff f i IndividualRecognition.obj
 0001:0001e40c       ?Release@?$CComObject@VCOPOSIndividualRecognition@@@ATL@@WJM@AGKXZ 1001f40c f i IndividualRecognition.obj
 0001:0001e419       ?Release@?$CComObject@VCOPOSIndividualRecognition@@@ATL@@WKA@AGKXZ 1001f419 f i IndividualRecognition.obj
 0001:0001e426       ?Release@?$CComObject@VCOPOSIndividualRecognition@@@ATL@@WKI@AGKXZ 1001f426 f i IndividualRecognition.obj
 0001:0001e433       ?Release@?$CComObject@VCOPOSIndividualRecognition@@@ATL@@WLE@AGKXZ 1001f433 f i IndividualRecognition.obj
 0001:0001e440       ?Release@?$CComObjectCached@VCComClassFactory@ATL@@@ATL@@UAGKXZ 1001f440 f i IndividualRecognition.obj
 0001:0001e4e0       ?Release@?$CComPtrBase@UIAdviseSink@@@ATL@@QAEXXZ 1001f4e0 f i IndividualRecognition.obj
 0001:0001e540       ?Release@?$CComPtrBase@UIDispatch@@@ATL@@QAEXXZ 1001f540 f i IndividualRecognition.obj
 0001:0001e5a0       ?Release@?$CComPtrBase@UIOleInPlaceSiteWindowless@@@ATL@@QAEXXZ 1001f5a0 f i IndividualRecognition.obj
 0001:0001e600       ?Release@CRegObject@ATL@@UAGKXZ 1001f600 f i IndividualRecognition.obj
 0001:0001e640       ?Remove@CComDynamicUnkArray@ATL@@QAEHK@Z 1001f640 f i IndividualRecognition.obj
 0001:0001e6f0       ?RemoveAll@?$CSimpleMap@PA_WPA_WVCExpansionVectorEqualHelper@ATL@@@ATL@@QAEXXZ 1001f6f0 f i IndividualRecognition.obj
 0001:0001e780       ?Reset@?$CComEnumImpl@UIEnumConnectionPoints@@$1?_GUID_b196b285_bab4_101a_b69c_00aa00341d07@@3U__s_GUID@@BPAUIConnectionPoint@@V?$_CopyInterface@UIConnectionPoint@@@ATL@@@ATL@@UAGJXZ 1001f780 f i IndividualRecognition.obj
 0001:0001e7a0       ?Reset@?$CComEnumImpl@UIEnumConnections@@$1?_GUID_b196b287_bab4_101a_b69c_00aa00341d07@@3U__s_GUID@@BUtagCONNECTDATA@@V?$_Copy@UtagCONNECTDATA@@@ATL@@@ATL@@UAGJXZ 1001f7a0 f i IndividualRecognition.obj
 0001:0001e7c0       ?ResizeBorder@?$IOleInPlaceActiveObjectImpl@VCOPOSIndividualRecognition@@@ATL@@UAGJPBUtagRECT@@PAUIOleInPlaceUIWindow@@H@Z 1001f7c0 f i IndividualRecognition.obj
 0001:0001e820       ?ResourceRegister@CRegObject@ATL@@QAGJPB_WI0@Z 1001f820 f i IndividualRecognition.obj
 0001:0001e900       ?ResourceRegisterSz@CRegObject@ATL@@QAGJPB_W00@Z 1001f900 f i IndividualRecognition.obj
 0001:0001ea00       ?ResourceUnregister@CRegObject@ATL@@QAGJPB_WI0@Z 1001fa00 f i IndividualRecognition.obj
 0001:0001eae0       ?ResourceUnregisterSz@CRegObject@ATL@@QAGJPB_W00@Z 1001fae0 f i IndividualRecognition.obj
 0001:0001ebe0       ?SOData@COPOSIndividualRecognition@@MAGJJ@Z 1001fbe0 f i IndividualRecognition.obj
 0001:0001ec60       ?SODirectIO@COPOSIndividualRecognition@@MAGJJPAJPAPA_W@Z 1001fc60 f i IndividualRecognition.obj
 0001:0001ee20       ?SOError@COPOSIndividualRecognition@@MAGJJJJPAJ@Z 1001fe20 f i IndividualRecognition.obj
 0001:0001eee0       ?SOOutputCompleteDummy@COPOSIndividualRecognition@@MAGJJ@Z 1001fee0 f i IndividualRecognition.obj
 0001:0001eef0       ?SOStatusUpdate@COPOSIndividualRecognition@@MAGJJ@Z 1001fef0 f i IndividualRecognition.obj
 0001:0001ef70       ?Save@?$IPersistStorageImpl@VCOPOSIndividualRecognition@@@ATL@@UAGJPAUIStorage@@H@Z 1001ff70 f i IndividualRecognition.obj
 0001:0001f0d0       ?Save@?$IPersistStreamInitImpl@VCOPOSIndividualRecognition@@@ATL@@UAGJPAUIStream@@H@Z 100200d0 f i IndividualRecognition.obj
 0001:0001f160       ?SaveCompleted@?$IPersistStorageImpl@VCOPOSIndividualRecognition@@@ATL@@UAGJPAUIStorage@@@Z 10020160 f i IndividualRecognition.obj
 0001:0001f1c0       ?SendOnDataChange@CComControlBase@ATL@@QAEJK@Z 100201c0 f i IndividualRecognition.obj
 0001:0001f2b0       ?SendOnSave@CComControlBase@ATL@@QAEJXZ 100202b0 f i IndividualRecognition.obj
 0001:0001f320       ?SendOnViewChange@CComControlBase@ATL@@QAEJKJ@Z 10020320 f i IndividualRecognition.obj
 0001:0001f390       ?SetAdvise@?$IViewObjectExImpl@VCOPOSIndividualRecognition@@@ATL@@UAGJKKPAUIAdviseSink@@@Z 10020390 f i IndividualRecognition.obj
 0001:0001f420       ?SetClientSite@?$IOleObjectImpl@VCOPOSIndividualRecognition@@@ATL@@UAGJPAUIOleClientSite@@@Z 10020420 f i IndividualRecognition.obj
 0001:0001f4b0       ?SetColorScheme@?$IOleObjectImpl@VCOPOSIndividualRecognition@@@ATL@@UAGJPAUtagLOGPALETTE@@@Z 100204b0 f i IndividualRecognition.obj
 0001:0001f520       ?SetContentExtent@?$IQuickActivateImpl@VCOPOSIndividualRecognition@@@ATL@@UAGJPAUtagSIZE@@@Z 10020520 f i IndividualRecognition.obj
 0001:0001f5b0       ?SetControlFocus@CComControlBase@ATL@@QAEHH@Z 100205b0 f i IndividualRecognition.obj
 0001:0001f730       ?SetDWORDValue@CRegKey@ATL@@QAEJPB_WK@Z 10020730 f i IndividualRecognition.obj
 0001:0001f7b0       ?SetData@?$IDataObjectImpl@VCOPOSIndividualRecognition@@@ATL@@UAGJPAUtagFORMATETC@@PAUtagSTGMEDIUM@@H@Z 100207b0 f i IndividualRecognition.obj
 0001:0001f820       ?SetExtent@?$IOleObjectImpl@VCOPOSIndividualRecognition@@@ATL@@UAGJKPAUtagSIZE@@@Z 10020820 f i IndividualRecognition.obj
 0001:0001f8b0       ?SetHostNames@?$IOleObjectImpl@VCOPOSIndividualRecognition@@@ATL@@UAGJPB_W0@Z 100208b0 f i IndividualRecognition.obj
 0001:0001f910       ?SetInterfaceSafetyOptions@?$IObjectSafetyImpl@VCOPOSIndividualRecognition@@$02@ATL@@UAGJABU_GUID@@KK@Z 10020910 f i IndividualRecognition.obj
 0001:0001fa80       ?SetMoniker@?$IOleObjectImpl@VCOPOSIndividualRecognition@@@ATL@@UAGJKPAUIMoniker@@@Z 10020a80 f i IndividualRecognition.obj
 0001:0001faf0       ?SetMultiStringValue@CRegKey@ATL@@QAEJPB_W0@Z 10020af0 f i IndividualRecognition.obj
 0001:0001fc10       ?SetObjectRects@?$IOleInPlaceObjectWindowlessImpl@VCOPOSIndividualRecognition@@@ATL@@UAGJPBUtagRECT@@0@Z 10020c10 f i IndividualRecognition.obj
 0001:0001fca0       ?SetStringValue@CRegKey@ATL@@QAEJPB_W0K@Z 10020ca0 f i IndividualRecognition.obj
 0001:0001fdd0       ?SetVoid@CComClassFactory@ATL@@QAEXPAX@Z 10020dd0 f i IndividualRecognition.obj
 0001:0001fdf0       ?SetVoid@CComObjectRootBase@ATL@@QAEXPAX@Z 10020df0 f i IndividualRecognition.obj
 0001:0001fe10       ?SetWindowLongPtrW@@YAJPAUHWND__@@HJ@Z 10020e10 f i IndividualRecognition.obj
 0001:0001fe40       ?ShowWindow@CWindow@ATL@@QAEHH@Z 10020e40 f i IndividualRecognition.obj
 0001:0001fec0       ?Skip@?$CComEnumImpl@UIEnumConnectionPoints@@$1?_GUID_b196b285_bab4_101a_b69c_00aa00341d07@@3U__s_GUID@@BPAUIConnectionPoint@@V?$_CopyInterface@UIConnectionPoint@@@ATL@@@ATL@@UAGJK@Z 10020ec0 f i IndividualRecognition.obj
 0001:0001ff40       ?Skip@?$CComEnumImpl@UIEnumConnections@@$1?_GUID_b196b287_bab4_101a_b69c_00aa00341d07@@3U__s_GUID@@BUtagCONNECTDATA@@V?$_Copy@UtagCONNECTDATA@@@ATL@@@ATL@@UAGJK@Z 10020f40 f i IndividualRecognition.obj
 0001:0001ffc0       ?SkipAssignment@CRegParser@ATL@@IAEJPA_W@Z 10020fc0 f i IndividualRecognition.obj
 0001:000200a0       ?SkipWhiteSpace@CRegParser@ATL@@IAEXXZ 100210a0 f i IndividualRecognition.obj
 0001:000200f0       ?StartWindowProc@?$CWindowImplBaseT@VCWindow@ATL@@V?$CWinTraits@$0FGAAAAAA@$0A@@2@@ATL@@SGJPAUHWND__@@IIJ@Z 100210f0 f i IndividualRecognition.obj
 0001:00020210       ?StrChrW@CRegParser@ATL@@KAPA_WPA_W_W@Z 10021210 f i IndividualRecognition.obj
 0001:00020280       ?StrFromMap@CRegObject@ATL@@QAEPB_WPA_W@Z 10021280 f i IndividualRecognition.obj
 0001:00020310       ?Swap@?$CComPtrBase@UIAdviseSink@@@ATL@@IAEXAAV12@@Z 10021310 f i IndividualRecognition.obj
 0001:00020350       ?Swap@?$CComPtrBase@UIOleClientSite@@@ATL@@IAEXAAV12@@Z 10021350 f i IndividualRecognition.obj
 0001:00020390       ?Swap@?$CComPtrBase@UIUnknown@@@ATL@@IAEXAAV12@@Z 10021390 f i IndividualRecognition.obj
 0001:000203d0       ?T2COLE_EX@@YAPB_WPB_WI@Z  100213d0 f i IndividualRecognition.obj
 0001:000203e0       ?T2OLE_EX@@YAPA_WPA_WI@Z   100213e0 f i IndividualRecognition.obj
 0001:000203f0       ?Term@CAtlModule@ATL@@QAEXXZ 100213f0 f i IndividualRecognition.obj
 0001:000204a0       ?Term@CComModule@ATL@@QAEXXZ 100214a0 f i IndividualRecognition.obj
 0001:00020590       ?TranslateAcceleratorW@?$IOleInPlaceActiveObjectImpl@VCOPOSIndividualRecognition@@@ATL@@UAGJPAUtagMSG@@@Z 10021590 f i IndividualRecognition.obj
 0001:00020790       ?UIDeactivate@?$IOleInPlaceObjectWindowlessImpl@VCOPOSIndividualRecognition@@@ATL@@UAGJXZ 10021790 f i IndividualRecognition.obj
 0001:00020810       ?Unadvise@?$CProxy_IOPOSEvents@VCOPOSIndividualRecognition@@@@UAGJK@Z 10021810 f i IndividualRecognition.obj
 0001:00020850       ?Unadvise@?$IConnectionPointImpl@VCOPOSIndividualRecognition@@$1?DIID__IOPOSIndividualRecognitionEvents@@3U_GUID@@BVCComDynamicUnkArray@ATL@@@ATL@@UAGJK@Z 10021850 f i IndividualRecognition.obj
 0001:00020920       ?Unadvise@?$IConnectionPointImpl@VCOPOSIndividualRecognition@@$1?IID_IPropertyNotifySink@@3U_GUID@@BVCComDynamicUnkArray@ATL@@@ATL@@UAGJK@Z 10021920 f i IndividualRecognition.obj
 0001:000209f0       ?Unadvise@?$IOleObjectImpl@VCOPOSIndividualRecognition@@@ATL@@UAGJK@Z 100219f0 f i IndividualRecognition.obj
 0001:00020ac0       ?Unfreeze@?$IViewObjectExImpl@VCOPOSIndividualRecognition@@@ATL@@UAGJK@Z 10021ac0 f i IndividualRecognition.obj
 0001:00020b30       ?Unlock@?$CComCritSecLock@VCComCriticalSection@ATL@@@ATL@@QAEXXZ 10021b30 f i IndividualRecognition.obj
 0001:00020ba0       ?Unlock@?$CComObjectRootEx@VCComSingleThreadModel@ATL@@@ATL@@QAEXXZ 10021ba0 f i IndividualRecognition.obj
 0001:00020bc0       ?Unlock@CAtlModule@ATL@@UAEJXZ 10021bc0 f i IndividualRecognition.obj
 0001:00020bf0       ?Unlock@CComCriticalSection@ATL@@QAEJXZ 10021bf0 f i IndividualRecognition.obj
 0001:00020c30       ?Unlock@CComFakeCriticalSection@ATL@@QAEJXZ 10021c30 f i IndividualRecognition.obj
 0001:00020c50       ?UnregisterServer@?$CAtlModuleT@VCComModule@ATL@@@ATL@@QAEJHPBU_GUID@@@Z 10021c50 f i IndividualRecognition.obj
 0001:00020cc0       ?UnregisterServer@CAtlComModule@ATL@@QAEJHPBU_GUID@@@Z 10021cc0 f i IndividualRecognition.obj
 0001:00020cf0       ?UnregisterServer@CComModule@ATL@@QAEJHPBU_GUID@@@Z 10021cf0 f i IndividualRecognition.obj
 0001:00020dd0       ?Update@?$IOleObjectImpl@VCOPOSIndividualRecognition@@@ATL@@UAGJXZ 10021dd0 f i IndividualRecognition.obj
 0001:00020e30       ?UpdateRegistryFromResource@CAtlModule@ATL@@QAGJIHPAU_ATL_REGMAP_ENTRY@2@@Z 10021e30 f i IndividualRecognition.obj
 0001:00021300       ?UpdateRegistryFromResource@CAtlModule@ATL@@QAGJPB_WHPAU_ATL_REGMAP_ENTRY@2@@Z 10022300 f i IndividualRecognition.obj
 0001:000217f0       ?UpdateRegistryFromResource@CComModule@ATL@@UAGJIHPAU_ATL_REGMAP_ENTRY@2@@Z 100227f0 f i IndividualRecognition.obj
 0001:00021820       ?UpdateRegistryFromResource@CComModule@ATL@@UAGJPB_WHPAU_ATL_REGMAP_ENTRY@2@@Z 10022820 f i IndividualRecognition.obj
 0001:00021850       ?UpdateRegistryFromResourceD@CComModule@ATL@@UAGJIHPAU_ATL_REGMAP_ENTRY@2@@Z 10022850 f i IndividualRecognition.obj
 0001:00021860       ?UpdateRegistryFromResourceD@CComModule@ATL@@UAGJPB_WHPAU_ATL_REGMAP_ENTRY@2@@Z 10022860 f i IndividualRecognition.obj
 0001:00021870       ?VTFromRegType@CRegParser@ATL@@KAHPB_WAAG@Z 10022870 f i IndividualRecognition.obj
 0001:00021950       ?WindowProc@?$CWindowImplBaseT@VCWindow@ATL@@V?$CWinTraits@$0FGAAAAAA@$0A@@2@@ATL@@SGJPAUHWND__@@IIJ@Z 10022950 f i IndividualRecognition.obj
 0001:00021b60       ?WriteToStream@CComBSTR@ATL@@QAEJPAUIStream@@@Z 10022b60 f i IndividualRecognition.obj
 0001:00021cc0       ?WriteToStream@CComVariant@ATL@@QAEJPAUIStream@@@Z 10022cc0 f i IndividualRecognition.obj
 0001:00022000       ?WriteToStream@CComVariant@ATL@@QAEJPAUIStream@@G@Z 10023000 f i IndividualRecognition.obj
 0001:000220d0       ?_AtlFinalConstruct@CComObjectRootBase@ATL@@QAEJXZ 100230d0 f i IndividualRecognition.obj
 0001:000220f0       ?_AtlGetConversionACP@ATL@@YGIXZ 100230f0 f i IndividualRecognition.obj
 0001:00022100       ?_AtlInitialConstruct@?$CComAggObject@VCOPOSIndividualRecognition@@@ATL@@QAEJXZ 10023100 f i IndividualRecognition.obj
 0001:00022150       ?_AtlInitialConstruct@?$CComObjectRootEx@VCComMultiThreadModel@ATL@@@ATL@@QAEJXZ 10023150 f i IndividualRecognition.obj
 0001:00022180       ?_AtlInitialConstruct@?$CComObjectRootEx@VCComSingleThreadModel@ATL@@@ATL@@QAEJXZ 10023180 f i IndividualRecognition.obj
 0001:000221a0       ?_AtlVerifyStackAvailable@_ATL_SAFE_ALLOCA_IMPL@ATL@@YA_NK@Z 100231a0 f i IndividualRecognition.obj
 0001:00022350       ?_GetEntries@?$CComEnum@UIEnumConnectionPoints@@$1?_GUID_b196b285_bab4_101a_b69c_00aa00341d07@@3U__s_GUID@@BPAUIConnectionPoint@@V?$_CopyInterface@UIConnectionPoint@@@ATL@@VCComSingleThreadModel@6@@ATL@@SGPBU_ATL_INTMAP_ENTRY@2@XZ 10023350 f i IndividualRecognition.obj
 0001:00022370       ?_GetEntries@?$CComEnum@UIEnumConnections@@$1?_GUID_b196b287_bab4_101a_b69c_00aa00341d07@@3U__s_GUID@@BUtagCONNECTDATA@@V?$_Copy@UtagCONNECTDATA@@@ATL@@VCComSingleThreadModel@6@@ATL@@SGPBU_ATL_INTMAP_ENTRY@2@XZ 10023370 f i IndividualRecognition.obj
 0001:00022390       ?_GetEntries@CComClassFactory@ATL@@SGPBU_ATL_INTMAP_ENTRY@2@XZ 10023390 f i IndividualRecognition.obj
 0001:000223b0       ?_GetEntries@COPOSIndividualRecognition@@SGPBU_ATL_INTMAP_ENTRY@ATL@@XZ 100233b0 f i IndividualRecognition.obj
 0001:000223d0       ?_GetRawUnknown@COPOSIndividualRecognition@@QAEPAUIUnknown@@XZ 100233d0 f i IndividualRecognition.obj
 0001:00022440       ?_GetViewStatus@COPOSIndividualRecognition@@QAEKXZ 10023440 f i IndividualRecognition.obj
 0001:00022460       ?_InternalQueryInterface@?$CComEnum@UIEnumConnectionPoints@@$1?_GUID_b196b285_bab4_101a_b69c_00aa00341d07@@3U__s_GUID@@BPAUIConnectionPoint@@V?$_CopyInterface@UIConnectionPoint@@@ATL@@VCComSingleThreadModel@6@@ATL@@QAEJABU_GUID@@PAPAX@Z 10023460 f i IndividualRecognition.obj
 0001:000224a0       ?_InternalQueryInterface@?$CComEnum@UIEnumConnections@@$1?_GUID_b196b287_bab4_101a_b69c_00aa00341d07@@3U__s_GUID@@BUtagCONNECTDATA@@V?$_Copy@UtagCONNECTDATA@@@ATL@@VCComSingleThreadModel@6@@ATL@@QAEJABU_GUID@@PAPAX@Z 100234a0 f i IndividualRecognition.obj
 0001:000224e0       ?_InternalQueryInterface@CComClassFactory@ATL@@QAEJABU_GUID@@PAPAX@Z 100234e0 f i IndividualRecognition.obj
 0001:00022520       ?_InternalQueryInterface@COPOSIndividualRecognition@@QAEJABU_GUID@@PAPAX@Z 10023520 f i IndividualRecognition.obj
 0001:00022560       ?_LocCPQueryInterface@?$IConnectionPointImpl@VCOPOSIndividualRecognition@@$1?DIID__IOPOSIndividualRecognitionEvents@@3U_GUID@@BVCComDynamicUnkArray@ATL@@@ATL@@UAGJABU_GUID@@PAPAX@Z 10023560 f i IndividualRecognition.obj
 0001:00022600       ?_LocCPQueryInterface@?$IConnectionPointImpl@VCOPOSIndividualRecognition@@$1?IID_IPropertyNotifySink@@3U_GUID@@BVCComDynamicUnkArray@ATL@@@ATL@@UAGJABU_GUID@@PAPAX@Z 10023600 f i IndividualRecognition.obj
 0001:000226a0       ?atlCreate@?$CWindowImpl@VCOPOSIndividualRecognition@@VCWindow@ATL@@V?$CWinTraits@$0FGAAAAAA@$0A@@3@@ATL@@QAEPAUHWND__@@PAU3@V_U_RECT@2@PB_WKKV_U_MENUorID@2@PAX@Z 100236a0 f i IndividualRecognition.obj
 0001:00022750       ?atlCreate@?$CWindowImplBaseT@VCWindow@ATL@@V?$CWinTraits@$0FGAAAAAA@$0A@@2@@ATL@@QAEPAUHWND__@@PAU3@V_U_RECT@2@PB_WKKV_U_MENUorID@2@GPAX@Z 10023750 f i IndividualRecognition.obj
 0001:000228d0       ?atlCreate@CRegKey@ATL@@QAEJPAUHKEY__@@PB_WPA_WKKPAU_SECURITY_ATTRIBUTES@@PAK@Z 100238d0 f i IndividualRecognition.obj
 0001:00022a30       ?begin@CComDynamicUnkArray@ATL@@QAEPAPAUIUnknown@@XZ 10023a30 f i IndividualRecognition.obj
 0001:00022a50       ?copy@?$_Copy@UtagCONNECTDATA@@@ATL@@SAJPAUtagCONNECTDATA@@PBU3@@Z 10023a50 f i IndividualRecognition.obj
 0001:00022b10       ?copy@?$_CopyInterface@UIConnectionPoint@@@ATL@@SAJPAPAUIConnectionPoint@@PBQAU3@@Z 10023b10 f i IndividualRecognition.obj
 0001:00022bd0       ?destroy@?$_Copy@UtagCONNECTDATA@@@ATL@@SAXPAUtagCONNECTDATA@@@Z 10023bd0 f i IndividualRecognition.obj
 0001:00022c10       ?destroy@?$_CopyInterface@UIConnectionPoint@@@ATL@@SAXPAPAUIConnectionPoint@@@Z 10023c10 f i IndividualRecognition.obj
 0001:00022c50       ?end@CComDynamicUnkArray@ATL@@QAEPAPAUIUnknown@@XZ 10023c50 f i IndividualRecognition.obj
 0001:00022c70       ?init@?$_Copy@UtagCONNECTDATA@@@ATL@@SAXPAUtagCONNECTDATA@@@Z 10023c70 f i IndividualRecognition.obj
 0001:00022c80       ?init@?$_CopyInterface@UIConnectionPoint@@@ATL@@SAXPAPAUIConnectionPoint@@@Z 10023c80 f i IndividualRecognition.obj
 0001:00022c90       ?memcpy_s@Checked@ATL@@YAXPAXIPBXI@Z 10023c90 f i IndividualRecognition.obj
 0001:00022cc0       ?ocscpy_s@@YA_NPA_WIPB_W@Z 10023cc0 f i IndividualRecognition.obj
 0001:00022d20       ?ocslen@@YAHPB_W@Z         10023d20 f i IndividualRecognition.obj
 0001:00022d50       ?tcsncpy_s@Checked@ATL@@YAHPA_WIPB_WI@Z 10023d50 f i IndividualRecognition.obj
 0001:00022d80       ?wcscat_s@Checked@ATL@@YAXPA_WIPB_W@Z 10023d80 f i IndividualRecognition.obj
 0001:00022db0       ?wcscpy_s@Checked@ATL@@YAXPA_WIPB_W@Z 10023db0 f i IndividualRecognition.obj
 0001:00022de0       ?wcsncpy_s@Checked@ATL@@YAHPA_WIPB_WI@Z 10023de0 f i IndividualRecognition.obj
 0001:00022e10       ?wcsstr@@YAPA_WPA_WPB_W@Z  10023e10 f i IndividualRecognition.obj
 0001:00022e30       _InlineIsEqualGUID         10023e30 f i IndividualRecognition.obj
 0001:00022ed0       _IsEqualGUID               10023ed0 f i IndividualRecognition.obj
 0001:00022f20       ??0COPOSIndividualRecognition@@QAE@XZ 10023f20 f   IndividualRecognitionImpl.obj
 0001:00023030       ?FinalConstruct@COPOSIndividualRecognition@@QAEJXZ 10024030 f   IndividualRecognitionImpl.obj
 0001:00023100       ??1COPOSIndividualRecognition@@UAE@XZ 10024100 f   IndividualRecognitionImpl.obj
 0001:000231e0       ?WriteTrace@COPOSIndividualRecognition@@QAAXPB_WZZ 100241e0 f   IndividualRecognitionImpl.obj
 0001:00023290       ?WriteTraceString@COPOSIndividualRecognition@@QAEXPB_WPA_W@Z 10024290 f   IndividualRecognitionImpl.obj
 0001:00023600       ?WriteTraceString@COPOSIndividualRecognition@@QAAXPAXHHHPB_WZZ 10024600 f   IndividualRecognitionImpl.obj
 0001:00023830       ?WriteTraceError@COPOSIndividualRecognition@@QAEXPB_WK@Z 10024830 f   IndividualRecognitionImpl.obj
 0001:00023920       ?WriteTraceMethods@COPOSIndividualRecognition@@QAEXPAJH@Z 10024920 f   IndividualRecognitionImpl.obj
 0001:00023990       ?GetOposProp@COPOSIndividualRecognition@@IAEJPBDJPAJJ@Z 10024990 f   IndividualRecognitionImpl.obj
 0001:00023c00       ?SetOposProp@COPOSIndividualRecognition@@IAEJPBDJJJ@Z 10024c00 f   IndividualRecognitionImpl.obj
 0001:00023e90       ?GetOposProp@COPOSIndividualRecognition@@IAEJPBDJPAFJ@Z 10024e90 f   IndividualRecognitionImpl.obj
 0001:00023f30       ?SetOposProp@COPOSIndividualRecognition@@IAEJPBDJFJ@Z 10024f30 f   IndividualRecognitionImpl.obj
 0001:00023f90       ?GetOposProp@COPOSIndividualRecognition@@IAEJPBDJPAPA_WJ@Z 10024f90 f   IndividualRecognitionImpl.obj
 0001:00024210       ?SetOposProp@COPOSIndividualRecognition@@IAEJPBDJPA_WJ@Z 10025210 f   IndividualRecognitionImpl.obj
 0001:00024550       ?DoInvoke@COPOSIndividualRecognition@@IAEJPBDJPAVOposVariant@@IHPAJ_N@Z 10025550 f   IndividualRecognitionImpl.obj
 0001:00024e80       ?SetCOFreezeEvents@COPOSIndividualRecognition@@IAEXF@Z 10025e80 f   IndividualRecognitionImpl.obj
 0001:00024fc0       ?FreezeEvents@COPOSIndividualRecognition@@MAGJH@Z 10025fc0 f   IndividualRecognitionImpl.obj
 0001:000250a0       ?OnDraw@COPOSIndividualRecognition@@MAEJAAUATL_DRAWINFO@@@Z 100260a0 f   IndividualRecognitionImpl.obj
 0001:00025240       ?SOProcessID@COPOSIndividualRecognition@@UAGJPAJ@Z 10026240 f   IndividualRecognitionImpl.obj
 0001:00025280       ?get_OpenResult@COPOSIndividualRecognition@@UAGJPAJ@Z 10026280 f   IndividualRecognitionImpl.obj
 0001:000252c0       ?get_AutoDisable@COPOSIndividualRecognition@@UAGJPAF@Z 100262c0 f   IndividualRecognitionImpl.obj
 0001:000252f0       ?put_AutoDisable@COPOSIndividualRecognition@@UAGJF@Z 100262f0 f   IndividualRecognitionImpl.obj
 0001:00025320       ?get_BinaryConversion@COPOSIndividualRecognition@@UAGJPAJ@Z 10026320 f   IndividualRecognitionImpl.obj
 0001:00025350       ?put_BinaryConversion@COPOSIndividualRecognition@@UAGJJ@Z 10026350 f   IndividualRecognitionImpl.obj
 0001:00025380       ?get_CapPowerReporting@COPOSIndividualRecognition@@UAGJPAJ@Z 10026380 f   IndividualRecognitionImpl.obj
 0001:000253b0       ?get_CheckHealthText@COPOSIndividualRecognition@@UAGJPAPA_W@Z 100263b0 f   IndividualRecognitionImpl.obj
 0001:000253e0       ?get_Claimed@COPOSIndividualRecognition@@UAGJPAF@Z 100263e0 f   IndividualRecognitionImpl.obj
 0001:00025410       ?get_DataCount@COPOSIndividualRecognition@@UAGJPAJ@Z 10026410 f   IndividualRecognitionImpl.obj
 0001:00025440       ?get_DataEventEnabled@COPOSIndividualRecognition@@UAGJPAF@Z 10026440 f   IndividualRecognitionImpl.obj
 0001:00025470       ?put_DataEventEnabled@COPOSIndividualRecognition@@UAGJF@Z 10026470 f   IndividualRecognitionImpl.obj
 0001:000254a0       ?get_DeviceEnabled@COPOSIndividualRecognition@@UAGJPAF@Z 100264a0 f   IndividualRecognitionImpl.obj
 0001:000254d0       ?put_DeviceEnabled@COPOSIndividualRecognition@@UAGJF@Z 100264d0 f   IndividualRecognitionImpl.obj
 0001:00025500       ?get_FreezeEvents@COPOSIndividualRecognition@@UAGJPAF@Z 10026500 f   IndividualRecognitionImpl.obj
 0001:00025530       ?put_FreezeEvents@COPOSIndividualRecognition@@UAGJF@Z 10026530 f   IndividualRecognitionImpl.obj
 0001:000255c0       ?get_PowerNotify@COPOSIndividualRecognition@@UAGJPAJ@Z 100265c0 f   IndividualRecognitionImpl.obj
 0001:000255f0       ?put_PowerNotify@COPOSIndividualRecognition@@UAGJJ@Z 100265f0 f   IndividualRecognitionImpl.obj
 0001:00025620       ?get_PowerState@COPOSIndividualRecognition@@UAGJPAJ@Z 10026620 f   IndividualRecognitionImpl.obj
 0001:00025650       ?get_ResultCode@COPOSIndividualRecognition@@UAGJPAJ@Z 10026650 f   IndividualRecognitionImpl.obj
 0001:000256e0       ?get_ResultCodeExtended@COPOSIndividualRecognition@@UAGJPAJ@Z 100266e0 f   IndividualRecognitionImpl.obj
 0001:00025710       ?get_State@COPOSIndividualRecognition@@UAGJPAJ@Z 10026710 f   IndividualRecognitionImpl.obj
 0001:00025760       ?get_ControlObjectDescription@COPOSIndividualRecognition@@UAGJPAPA_W@Z 10026760 f   IndividualRecognitionImpl.obj
 0001:000257e0       ?get_ControlObjectVersion@COPOSIndividualRecognition@@UAGJPAJ@Z 100267e0 f   IndividualRecognitionImpl.obj
 0001:00025820       ?get_ServiceObjectDescription@COPOSIndividualRecognition@@UAGJPAPA_W@Z 10026820 f   IndividualRecognitionImpl.obj
 0001:00025850       ?get_ServiceObjectVersion@COPOSIndividualRecognition@@UAGJPAJ@Z 10026850 f   IndividualRecognitionImpl.obj
 0001:00025880       ?get_DeviceDescription@COPOSIndividualRecognition@@UAGJPAPA_W@Z 10026880 f   IndividualRecognitionImpl.obj
 0001:000258b0       ?get_DeviceName@COPOSIndividualRecognition@@UAGJPAPA_W@Z 100268b0 f   IndividualRecognitionImpl.obj
 0001:000258e0       ?get_CapStatisticsReporting@COPOSIndividualRecognition@@UAGJPAF@Z 100268e0 f   IndividualRecognitionImpl.obj
 0001:00025910       ?get_CapUpdateStatistics@COPOSIndividualRecognition@@UAGJPAF@Z 10026910 f   IndividualRecognitionImpl.obj
 0001:00025940       ?get_CapCompareFirmwareVersion@COPOSIndividualRecognition@@UAGJPAF@Z 10026940 f   IndividualRecognitionImpl.obj
 0001:00025970       ?get_CapUpdateFirmware@COPOSIndividualRecognition@@UAGJPAF@Z 10026970 f   IndividualRecognitionImpl.obj
 0001:000259a0       ?CheckHealth@COPOSIndividualRecognition@@UAGJJPAJ@Z 100269a0 f   IndividualRecognitionImpl.obj
 0001:00025a40       ?ClaimDevice@COPOSIndividualRecognition@@UAGJJPAJ@Z 10026a40 f   IndividualRecognitionImpl.obj
 0001:00025b20       ?ClearInput@COPOSIndividualRecognition@@UAGJPAJ@Z 10026b20 f   IndividualRecognitionImpl.obj
 0001:00025b50       ?Close@COPOSIndividualRecognition@@UAGJPAJ@Z 10026b50 f   IndividualRecognitionImpl.obj
 0001:00025c20       ?DirectIO@COPOSIndividualRecognition@@UAGJJPAJPAPA_W0@Z 10026c20 f   IndividualRecognitionImpl.obj
 0001:00025d30       ?Open@COPOSIndividualRecognition@@UAGJPA_WPAJ@Z 10026d30 f   IndividualRecognitionImpl.obj
 0001:00026f20       ?ReleaseDevice@COPOSIndividualRecognition@@UAGJPAJ@Z 10027f20 f   IndividualRecognitionImpl.obj
 0001:00026f90       ?ResetStatistics@COPOSIndividualRecognition@@UAGJPA_WPAJ@Z 10027f90 f   IndividualRecognitionImpl.obj
 0001:00027040       ?RetrieveStatistics@COPOSIndividualRecognition@@UAGJPAPA_WPAJ@Z 10028040 f   IndividualRecognitionImpl.obj
 0001:000270f0       ?UpdateStatistics@COPOSIndividualRecognition@@UAGJPA_WPAJ@Z 100280f0 f   IndividualRecognitionImpl.obj
 0001:000271a0       ?CompareFirmwareVersion@COPOSIndividualRecognition@@UAGJPA_WPAJ1@Z 100281a0 f   IndividualRecognitionImpl.obj
 0001:00027290       ?UpdateFirmware@COPOSIndividualRecognition@@UAGJPA_WPAJ@Z 10028290 f   IndividualRecognitionImpl.obj
 0001:00027340       ?ClearInputProperties@COPOSIndividualRecognition@@UAGJPAJ@Z 10028340 f   IndividualRecognitionImpl.obj
 0001:00027370       ?get_CapIndividualList@COPOSIndividualRecognition@@UAGJPAPA_W@Z 10028370 f   IndividualRecognitionImpl.obj
 0001:000273a0       ?get_IndividualIDs@COPOSIndividualRecognition@@UAGJPAPA_W@Z 100283a0 f   IndividualRecognitionImpl.obj
 0001:000273d0       ?get_IndividualRecognitionFilter@COPOSIndividualRecognition@@UAGJPAPA_W@Z 100283d0 f   IndividualRecognitionImpl.obj
 0001:00027400       ?put_IndividualRecognitionFilter@COPOSIndividualRecognition@@UAGJPA_W@Z 10028400 f   IndividualRecognitionImpl.obj
 0001:00027430       ?get_IndividualRecognitionInformation@COPOSIndividualRecognition@@UAGJPAPA_W@Z 10028430 f   IndividualRecognitionImpl.obj
 0001:00027460       ??0?$CComControl@VCOPOSIndividualRecognition@@V?$CWindowImpl@VCOPOSIndividualRecognition@@VCWindow@ATL@@V?$CWinTraits@$0FGAAAAAA@$0A@@3@@ATL@@@ATL@@QAE@XZ 10028460 f i IndividualRecognitionImpl.obj
 0001:000274a0       ??0?$CComPtr@UIAdviseSink@@@ATL@@QAE@XZ 100284a0 f i IndividualRecognitionImpl.obj
 0001:000274d0       ??0?$CComPtr@UIDataAdviseHolder@@@ATL@@QAE@XZ 100284d0 f i IndividualRecognitionImpl.obj
 0001:00027500       ??0?$CComPtr@UIOleAdviseHolder@@@ATL@@QAE@XZ 10028500 f i IndividualRecognitionImpl.obj
 0001:00027530       ??0?$CComPtr@UIOleClientSite@@@ATL@@QAE@XZ 10028530 f i IndividualRecognitionImpl.obj
 0001:00027560       ??0?$CComPtr@UIOleInPlaceSiteWindowless@@@ATL@@QAE@XZ 10028560 f i IndividualRecognitionImpl.obj
 0001:00027590       ??0?$CComPtrBase@UIAdviseSink@@@ATL@@IAE@XZ 10028590 f i IndividualRecognitionImpl.obj
 0001:000275b0       ??0?$CComPtrBase@UIDataAdviseHolder@@@ATL@@IAE@XZ 100285b0 f i IndividualRecognitionImpl.obj
 0001:000275d0       ??0?$CComPtrBase@UIOleAdviseHolder@@@ATL@@IAE@XZ 100285d0 f i IndividualRecognitionImpl.obj
 0001:000275f0       ??0?$CComPtrBase@UIOleClientSite@@@ATL@@IAE@XZ 100285f0 f i IndividualRecognitionImpl.obj
 0001:00027610       ??0?$CComPtrBase@UIOleInPlaceSiteWindowless@@@ATL@@IAE@XZ 10028610 f i IndividualRecognitionImpl.obj
 0001:00027630       ??0?$CComQIPtr@UIDispatch@@$1?_GUID_00020400_0000_0000_c000_000000000046@@3U__s_GUID@@B@ATL@@QAE@XZ 10028630 f i IndividualRecognitionImpl.obj
 0001:00027660       ??0?$CProxy_IOPOSEvents@VCOPOSIndividualRecognition@@@@QAE@PAVCOPOSIndividualRecognition@@@Z 10028660 f i IndividualRecognitionImpl.obj
 0001:000276d0       ??0?$CWindowImpl@VCOPOSIndividualRecognition@@VCWindow@ATL@@V?$CWinTraits@$0FGAAAAAA@$0A@@3@@ATL@@QAE@XZ 100286d0 f i IndividualRecognitionImpl.obj
 0001:00027700       ??0?$CWindowImplBaseT@VCWindow@ATL@@V?$CWinTraits@$0FGAAAAAA@$0A@@2@@ATL@@QAE@XZ 10028700 f i IndividualRecognitionImpl.obj
 0001:00027740       ??0?$CWindowImplRoot@VCWindow@ATL@@@ATL@@QAE@XZ 10028740 f i IndividualRecognitionImpl.obj
 0001:000277a0       ??0?$IConnectionPointContainerImpl@VCOPOSIndividualRecognition@@@ATL@@QAE@XZ 100287a0 f i IndividualRecognitionImpl.obj
 0001:000277d0       ??0?$IConnectionPointImpl@VCOPOSIndividualRecognition@@$1?DIID__IOPOSIndividualRecognitionEvents@@3U_GUID@@BVCComDynamicUnkArray@ATL@@@ATL@@QAE@XZ 100287d0 f i IndividualRecognitionImpl.obj
 0001:00027810       ??0?$IConnectionPointImpl@VCOPOSIndividualRecognition@@$1?IID_IPropertyNotifySink@@3U_GUID@@BVCComDynamicUnkArray@ATL@@@ATL@@QAE@XZ 10028810 f i IndividualRecognitionImpl.obj
 0001:00027850       ??0?$IDataObjectImpl@VCOPOSIndividualRecognition@@@ATL@@QAE@XZ 10028850 f i IndividualRecognitionImpl.obj
 0001:00027880       ??0?$IDispatchImpl@UIOPOSIndividualRecognition@@$1?IID_IOPOSIndividualRecognition@@3U_GUID@@B$1?LIBID_OposIndividualRecognition_CCO@@3U3@B$00$0A@VCComTypeInfoHolder@ATL@@@ATL@@QAE@XZ 10028880 f i IndividualRecognitionImpl.obj
 0001:000278b0       ??0?$IObjectSafetyImpl@VCOPOSIndividualRecognition@@$02@ATL@@QAE@XZ 100288b0 f i IndividualRecognitionImpl.obj
 0001:000278f0       ??0?$IOleControlImpl@VCOPOSIndividualRecognition@@@ATL@@QAE@XZ 100288f0 f i IndividualRecognitionImpl.obj
 0001:00027920       ??0?$IOleInPlaceActiveObjectImpl@VCOPOSIndividualRecognition@@@ATL@@QAE@XZ 10028920 f i IndividualRecognitionImpl.obj
 0001:00027950       ??0?$IOleInPlaceObjectWindowlessImpl@VCOPOSIndividualRecognition@@@ATL@@QAE@XZ 10028950 f i IndividualRecognitionImpl.obj
 0001:00027980       ??0?$IOleObjectImpl@VCOPOSIndividualRecognition@@@ATL@@QAE@XZ 10028980 f i IndividualRecognitionImpl.obj
 0001:000279b0       ??0?$IPersistStorageImpl@VCOPOSIndividualRecognition@@@ATL@@QAE@XZ 100289b0 f i IndividualRecognitionImpl.obj
 0001:000279e0       ??0?$IPersistStreamInitImpl@VCOPOSIndividualRecognition@@@ATL@@QAE@XZ 100289e0 f i IndividualRecognitionImpl.obj
 0001:00027a10       ??0?$IPropertyNotifySinkCP@VCOPOSIndividualRecognition@@VCComDynamicUnkArray@ATL@@@ATL@@QAE@XZ 10028a10 f i IndividualRecognitionImpl.obj
 0001:00027a40       ??0?$IProvideClassInfo2Impl@$1?CLSID_OPOSIndividualRecognition@@3U_GUID@@B$1?DIID__IOPOSIndividualRecognitionEvents@@3U2@B$1?LIBID_OposIndividualRecognition_CCO@@3U2@B$00$0A@VCComTypeInfoHolder@ATL@@@ATL@@QAE@XZ 10028a40 f i IndividualRecognitionImpl.obj
 0001:00027a70       ??0?$IQuickActivateImpl@VCOPOSIndividualRecognition@@@ATL@@QAE@XZ 10028a70 f i IndividualRecognitionImpl.obj
 0001:00027aa0       ??0?$ISpecifyPropertyPagesImpl@VCOPOSIndividualRecognition@@@ATL@@QAE@XZ 10028aa0 f i IndividualRecognitionImpl.obj
 0001:00027ad0       ??0?$IViewObjectExImpl@VCOPOSIndividualRecognition@@@ATL@@QAE@XZ 10028ad0 f i IndividualRecognitionImpl.obj
 0001:00027b00       ??0?$_ICPLocator@$1?DIID__IOPOSIndividualRecognitionEvents@@3U_GUID@@B@ATL@@QAE@XZ 10028b00 f i IndividualRecognitionImpl.obj
 0001:00027b20       ??0?$_ICPLocator@$1?IID_IPropertyNotifySink@@3U_GUID@@B@ATL@@QAE@XZ 10028b20 f i IndividualRecognitionImpl.obj
 0001:00027b40       ??0CComControlBase@ATL@@QAE@AAPAUHWND__@@@Z 10028b40 f i IndividualRecognitionImpl.obj
 0001:00027cf0       ??0CComDynamicUnkArray@ATL@@QAE@XZ 10028cf0 f i IndividualRecognitionImpl.obj
 0001:00027d20       ??0CDynamicStdCallThunk2@ATL@@QAE@XZ 10028d20 f i IndividualRecognitionImpl.obj
 0001:00027d40       ??0CMessageMap@ATL@@QAE@XZ 10028d40 f i IndividualRecognitionImpl.obj
 0001:00027d60       ??0CWindow@ATL@@QAE@PAUHWND__@@@Z 10028d60 f i IndividualRecognitionImpl.obj
 0001:00027d80       ??0CWndProcThunk@ATL@@QAE@XZ 10028d80 f i IndividualRecognitionImpl.obj
 0001:00027db0       ??0IConnectionPointContainer@@QAE@XZ 10028db0 f i IndividualRecognitionImpl.obj
 0001:00027de0       ??0IDataObject@@QAE@XZ     10028de0 f i IndividualRecognitionImpl.obj
 0001:00027e10       ??0IDispatch@@QAE@XZ       10028e10 f i IndividualRecognitionImpl.obj
 0001:00027e40       ??0IOPOSIndividualRecognition@@QAE@XZ 10028e40 f i IndividualRecognitionImpl.obj
 0001:00027e70       ??0IOPOSIndividualRecognition_1_16@@QAE@XZ 10028e70 f i IndividualRecognitionImpl.obj
 0001:00027ea0       ??0IObjectSafety@@QAE@XZ   10028ea0 f i IndividualRecognitionImpl.obj
 0001:00027ed0       ??0IOleControl@@QAE@XZ     10028ed0 f i IndividualRecognitionImpl.obj
 0001:00027f00       ??0IOleInPlaceActiveObject@@QAE@XZ 10028f00 f i IndividualRecognitionImpl.obj
 0001:00027f30       ??0IOleInPlaceObject@@QAE@XZ 10028f30 f i IndividualRecognitionImpl.obj
 0001:00027f60       ??0IOleInPlaceObjectWindowless@@QAE@XZ 10028f60 f i IndividualRecognitionImpl.obj
 0001:00027f90       ??0IOleObject@@QAE@XZ      10028f90 f i IndividualRecognitionImpl.obj
 0001:00027fc0       ??0IOleWindow@@QAE@XZ      10028fc0 f i IndividualRecognitionImpl.obj
 0001:00027ff0       ??0IPersist@@QAE@XZ        10028ff0 f i IndividualRecognitionImpl.obj
 0001:00028020       ??0IPersistStorage@@QAE@XZ 10029020 f i IndividualRecognitionImpl.obj
 0001:00028050       ??0IPersistStreamInit@@QAE@XZ 10029050 f i IndividualRecognitionImpl.obj
 0001:00028080       ??0IProvideClassInfo2@@QAE@XZ 10029080 f i IndividualRecognitionImpl.obj
 0001:000280b0       ??0IProvideClassInfo@@QAE@XZ 100290b0 f i IndividualRecognitionImpl.obj
 0001:000280e0       ??0IQuickActivate@@QAE@XZ  100290e0 f i IndividualRecognitionImpl.obj
 0001:00028110       ??0ISpecifyPropertyPages@@QAE@XZ 10029110 f i IndividualRecognitionImpl.obj
 0001:00028140       ??0IViewObject2@@QAE@XZ    10029140 f i IndividualRecognitionImpl.obj
 0001:00028170       ??0IViewObject@@QAE@XZ     10029170 f i IndividualRecognitionImpl.obj
 0001:000281a0       ??0IViewObjectEx@@QAE@XZ   100291a0 f i IndividualRecognitionImpl.obj
 0001:000281d0       ??0OposVariantResult@@QAE@XZ 100291d0 f i IndividualRecognitionImpl.obj
 0001:00028200       ??0_CW@@QAE@PBD@Z          10029200 f i IndividualRecognitionImpl.obj
 0001:00028240       ??0_CW@@QAE@PB_W@Z         10029240 f i IndividualRecognitionImpl.obj
 0001:00028280       ??0_CWNCC@@QAE@PBD@Z       10029280 f i IndividualRecognitionImpl.obj
 0001:000282b0       ??1?$CComControl@VCOPOSIndividualRecognition@@V?$CWindowImpl@VCOPOSIndividualRecognition@@VCWindow@ATL@@V?$CWinTraits@$0FGAAAAAA@$0A@@3@@ATL@@@ATL@@UAE@XZ 100292b0 f i IndividualRecognitionImpl.obj
 0001:000282e0       ??1?$CComPtr@UIDataAdviseHolder@@@ATL@@QAE@XZ 100292e0 f i IndividualRecognitionImpl.obj
 0001:00028310       ??1?$CComPtr@UIOleAdviseHolder@@@ATL@@QAE@XZ 10029310 f i IndividualRecognitionImpl.obj
 0001:00028340       ??1?$CComPtr@UIOleInPlaceSiteWindowless@@@ATL@@QAE@XZ 10029340 f i IndividualRecognitionImpl.obj
 0001:00028370       ??1?$CComPtrBase@UIDataAdviseHolder@@@ATL@@QAE@XZ 10029370 f i IndividualRecognitionImpl.obj
 0001:000283c0       ??1?$CComPtrBase@UIOleAdviseHolder@@@ATL@@QAE@XZ 100293c0 f i IndividualRecognitionImpl.obj
 0001:00028410       ??1?$CComPtrBase@UIOleInPlaceSiteWindowless@@@ATL@@QAE@XZ 10029410 f i IndividualRecognitionImpl.obj
 0001:00028460       ??1?$CComQIPtr@UIDispatch@@$1?_GUID_00020400_0000_0000_c000_000000000046@@3U__s_GUID@@B@ATL@@QAE@XZ 10029460 f i IndividualRecognitionImpl.obj
 0001:00028490       ??1?$CProxy_IOPOSEvents@VCOPOSIndividualRecognition@@@@QAE@XZ 10029490 f i IndividualRecognitionImpl.obj
 0001:000284c0       ??1?$CWindowImpl@VCOPOSIndividualRecognition@@VCWindow@ATL@@V?$CWinTraits@$0FGAAAAAA@$0A@@3@@ATL@@UAE@XZ 100294c0 f i IndividualRecognitionImpl.obj
 0001:000284f0       ??1?$CWindowImplBaseT@VCWindow@ATL@@V?$CWinTraits@$0FGAAAAAA@$0A@@2@@ATL@@UAE@XZ 100294f0 f i IndividualRecognitionImpl.obj
 0001:00028520       ??1?$CWindowImplRoot@VCWindow@ATL@@@ATL@@UAE@XZ 10029520 f i IndividualRecognitionImpl.obj
 0001:000285c0       ??1?$IConnectionPointImpl@VCOPOSIndividualRecognition@@$1?DIID__IOPOSIndividualRecognitionEvents@@3U_GUID@@BVCComDynamicUnkArray@ATL@@@ATL@@QAE@XZ 100295c0 f i IndividualRecognitionImpl.obj
 0001:00028640       ??1?$IConnectionPointImpl@VCOPOSIndividualRecognition@@$1?IID_IPropertyNotifySink@@3U_GUID@@BVCComDynamicUnkArray@ATL@@@ATL@@QAE@XZ 10029640 f i IndividualRecognitionImpl.obj
 0001:000286c0       ??1?$IPropertyNotifySinkCP@VCOPOSIndividualRecognition@@VCComDynamicUnkArray@ATL@@@ATL@@QAE@XZ 100296c0 f i IndividualRecognitionImpl.obj
 0001:000286f0       ??1CComControlBase@ATL@@UAE@XZ 100296f0 f i IndividualRecognitionImpl.obj
 0001:000287b0       ??1CComDynamicUnkArray@ATL@@QAE@XZ 100297b0 f i IndividualRecognitionImpl.obj
 0001:000287f0       ??1CDynamicStdCallThunk2@ATL@@QAE@XZ 100297f0 f i IndividualRecognitionImpl.obj
 0001:00028820       ??1CWndProcThunk@ATL@@QAE@XZ 10029820 f i IndividualRecognitionImpl.obj
 0001:00028850       ??1OposVariantResult@@QAE@XZ 10029850 f i IndividualRecognitionImpl.obj
 0001:00028880       ??1_CW@@QAE@XZ             10029880 f i IndividualRecognitionImpl.obj
 0001:000288f0       ??1_CWNCC@@QAE@XZ          100298f0 f i IndividualRecognitionImpl.obj
 0001:00028920       ??B_CW@@QAEPB_WXZ          10029920 f i IndividualRecognitionImpl.obj
 0001:00028960       ??B_CWNCC@@QAEPA_WXZ       10029960 f i IndividualRecognitionImpl.obj
 0001:00028990       ??_EOposVariant@@QAEPAXI@Z 10029990 f i IndividualRecognitionImpl.obj
 0001:00028a20       ?EventClaim@COPOSIndividualRecognition@@IAEXXZ 10029a20 f i IndividualRecognitionImpl.obj
 0001:00028a60       ?EventClose@COPOSIndividualRecognition@@IAEXXZ 10029a60 f i IndividualRecognitionImpl.obj
 0001:00028b00       ?EventInit@COPOSIndividualRecognition@@IAEJXZ 10029b00 f i IndividualRecognitionImpl.obj
 0001:00028d30       ?EventOpen@COPOSIndividualRecognition@@IAEXXZ 10029d30 f i IndividualRecognitionImpl.obj
 0001:00028d70       ?EventPreCloseRelease@COPOSIndividualRecognition@@IAEXXZ 10029d70 f i IndividualRecognitionImpl.obj
 0001:00028df0       ?EventUninit@COPOSIndividualRecognition@@IAEXXZ 10029df0 f i IndividualRecognitionImpl.obj
 0001:00028f20       ?EventWindowProc@COPOSIndividualRecognition@@IAGJIIJ@Z 10029f20 f i IndividualRecognitionImpl.obj
 0001:000290b0       ?FireEventCleanup@COPOSIndividualRecognition@@IAEXXZ 1002a0b0 f i IndividualRecognitionImpl.obj
 0001:00029100       ?FireEventSetup@COPOSIndividualRecognition@@IAE_NXZ 1002a100 f i IndividualRecognitionImpl.obj
 0001:00029170       ?GetModuleInstance@CComModule@ATL@@QAEPAUHINSTANCE__@@XZ 1002a170 f i IndividualRecognitionImpl.obj
 0001:00029190       ?SetRC@COPOSIndividualRecognition@@IAEJJ@Z 1002a190 f i IndividualRecognitionImpl.obj
 0001:000291c0       ?s_EventWindowProc@COPOSIndividualRecognition@@KGJPAUHWND__@@IIJ@Z 1002a1c0 f i IndividualRecognitionImpl.obj
 0001:00029260       __snwprintf                1002a260 f i IndividualRecognitionImpl.obj
 0001:000292c0       __vfwprintf_l              1002a2c0 f i IndividualRecognitionImpl.obj
 0001:000292f0       __vsnwprintf               1002a2f0 f i IndividualRecognitionImpl.obj
 0001:00029320       __vsnwprintf_l             1002a320 f i IndividualRecognitionImpl.obj
 0001:00029390       _vfwprintf                 1002a390 f i IndividualRecognitionImpl.obj
 0001:000293b2       _DebugBreak@0              1002a3b2 f   kernel32:KERNEL32.dll
 0001:000293b8       _Sleep@4                   1002a3b8 f   kernel32:KERNEL32.dll
 0001:000293be       _GetCurrentProcess@0       1002a3be f   kernel32:KERNEL32.dll
 0001:000293c4       _TerminateProcess@8        1002a3c4 f   kernel32:KERNEL32.dll
 0001:000293ca       _MultiByteToWideChar@24    1002a3ca f   kernel32:KERNEL32.dll
 0001:000293d0       _WideCharToMultiByte@32    1002a3d0 f   kernel32:KERNEL32.dll
 0001:000293d6       _DecodePointer@4           1002a3d6 f   kernel32:KERNEL32.dll
 0001:000293dc       _RaiseException@16         1002a3dc f   kernel32:KERNEL32.dll
 0001:000293e2       _GetLastError@0            1002a3e2 f   kernel32:KERNEL32.dll
 0001:000293e8       _SetLastError@4            1002a3e8 f   kernel32:KERNEL32.dll
 0001:000293ee       _InitializeCriticalSectionEx@12 1002a3ee f   kernel32:KERNEL32.dll
 0001:000293f4       _DeleteCriticalSection@4   1002a3f4 f   kernel32:KERNEL32.dll
 0001:000293fa       _EncodePointer@4           1002a3fa f   kernel32:KERNEL32.dll
 0001:00029400       _EnterCriticalSection@4    1002a400 f   kernel32:KERNEL32.dll
 0001:00029406       _LeaveCriticalSection@4    1002a406 f   kernel32:KERNEL32.dll
 0001:0002940c       _ResetEvent@4              1002a40c f   kernel32:KERNEL32.dll
 0001:00029412       _ReleaseMutex@4            1002a412 f   kernel32:KERNEL32.dll
 0001:00029418       _WaitForSingleObject@8     1002a418 f   kernel32:KERNEL32.dll
 0001:0002941e       _GetCurrentThreadId@0      1002a41e f   kernel32:KERNEL32.dll
 0001:00029424       _DisableThreadLibraryCalls@4 1002a424 f   kernel32:KERNEL32.dll
 0001:0002942a       _FreeLibrary@4             1002a42a f   kernel32:KERNEL32.dll
 0001:00029430       _GetModuleFileNameW@12     1002a430 f   kernel32:KERNEL32.dll
 0001:00029436       _GetModuleHandleW@4        1002a436 f   kernel32:KERNEL32.dll
 0001:0002943c       _GetProcAddress@8          1002a43c f   kernel32:KERNEL32.dll
 0001:00029442       _LoadLibraryExW@12         1002a442 f   kernel32:KERNEL32.dll
 0001:00029448       _LoadResource@8            1002a448 f   kernel32:KERNEL32.dll
 0001:0002944e       _SizeofResource@8          1002a44e f   kernel32:KERNEL32.dll
 0001:00029454       _FindResourceW@12          1002a454 f   kernel32:KERNEL32.dll
 0001:0002945a       _GlobalAlloc@8             1002a45a f   kernel32:KERNEL32.dll
 0001:00029460       _GlobalUnlock@4            1002a460 f   kernel32:KERNEL32.dll
 0001:00029466       _GlobalLock@4              1002a466 f   kernel32:KERNEL32.dll
 0001:0002946c       _MulDiv@12                 1002a46c f   kernel32:KERNEL32.dll
 0001:00029472       _lstrcmpiW@8               1002a472 f   kernel32:KERNEL32.dll
 0001:00029478       _DeleteFileW@4             1002a478 f   kernel32:KERNEL32.dll
 0001:0002947e       _CloseHandle@4             1002a47e f   kernel32:KERNEL32.dll
 0001:00029484       _SetEvent@4                1002a484 f   kernel32:KERNEL32.dll
 0001:0002948a       _CreateMutexW@12           1002a48a f   kernel32:KERNEL32.dll
 0001:00029490       _CreateEventW@16           1002a490 f   kernel32:KERNEL32.dll
 0001:00029496       _GetCurrentProcessId@0     1002a496 f   kernel32:KERNEL32.dll
 0001:0002949c       _LocalFree@4               1002a49c f   kernel32:KERNEL32.dll
 0001:000294a2       _FormatMessageW@28         1002a4a2 f   kernel32:KERNEL32.dll
 0001:000294a8       _GetActiveWindow@0         1002a4a8 f   user32:USER32.dll
 0001:000294ae       _MessageBoxW@16            1002a4ae f   user32:USER32.dll
 0001:000294b4       _UnregisterClassW@8        1002a4b4 f   user32:USER32.dll
 0001:000294ba       _PostMessageW@16           1002a4ba f   user32:USER32.dll
 0001:000294c0       _DefWindowProcW@16         1002a4c0 f   user32:USER32.dll
 0001:000294c6       _CallWindowProcW@20        1002a4c6 f   user32:USER32.dll
 0001:000294cc       _RegisterClassExW@4        1002a4cc f   user32:USER32.dll
 0001:000294d2       _GetClassInfoExW@12        1002a4d2 f   user32:USER32.dll
 0001:000294d8       _CreateWindowExW@48        1002a4d8 f   user32:USER32.dll
 0001:000294de       _IsWindow@4                1002a4de f   user32:USER32.dll
 0001:000294e4       _IsChild@8                 1002a4e4 f   user32:USER32.dll
 0001:000294ea       _DestroyWindow@4           1002a4ea f   user32:USER32.dll
 0001:000294f0       _ShowWindow@8              1002a4f0 f   user32:USER32.dll
 0001:000294f6       _SetWindowPos@28           1002a4f6 f   user32:USER32.dll
 0001:000294fc       _CharNextW@4               1002a4fc f   user32:USER32.dll
 0001:00029502       _SetFocus@4                1002a502 f   user32:USER32.dll
 0001:00029508       _GetFocus@0                1002a508 f   user32:USER32.dll
 0001:0002950e       _GetKeyState@4             1002a50e f   user32:USER32.dll
 0001:00029514       _GetDC@4                   1002a514 f   user32:USER32.dll
 0001:0002951a       _ReleaseDC@8               1002a51a f   user32:USER32.dll
 0001:00029520       _BeginPaint@8              1002a520 f   user32:USER32.dll
 0001:00029526       _EndPaint@8                1002a526 f   user32:USER32.dll
 0001:0002952c       _SetWindowRgn@12           1002a52c f   user32:USER32.dll
 0001:00029532       _InvalidateRect@12         1002a532 f   user32:USER32.dll
 0001:00029538       _GetClientRect@8           1002a538 f   user32:USER32.dll
 0001:0002953e       _IntersectRect@12          1002a53e f   user32:USER32.dll
 0001:00029544       _UnionRect@12              1002a544 f   user32:USER32.dll
 0001:0002954a       _OffsetRect@12             1002a54a f   user32:USER32.dll
 0001:00029550       _EqualRect@8               1002a550 f   user32:USER32.dll
 0001:00029556       _PtInRect@12               1002a556 f   user32:USER32.dll
 0001:0002955c       _GetWindowLongW@8          1002a55c f   user32:USER32.dll
 0001:00029562       _SetWindowLongW@12         1002a562 f   user32:USER32.dll
 0001:00029568       _GetParent@4               1002a568 f   user32:USER32.dll
 0001:0002956e       _LoadCursorW@8             1002a56e f   user32:USER32.dll
 0001:00029574       _PeekMessageW@20           1002a574 f   user32:USER32.dll
 0001:0002957a       _RegisterClassW@4          1002a57a f   user32:USER32.dll
 0001:00029580       _LoadBitmapW@8             1002a580 f   user32:USER32.dll
 0001:00029586       _CloseMetaFile@4           1002a586 f   gdi32:GDI32.dll
 0001:0002958c       _CreateDCW@16              1002a58c f   gdi32:GDI32.dll
 0001:00029592       _CreateMetaFileW@4         1002a592 f   gdi32:GDI32.dll
 0001:00029598       _CreateRectRgnIndirect@4   1002a598 f   gdi32:GDI32.dll
 0001:0002959e       _DeleteDC@4                1002a59e f   gdi32:GDI32.dll
 0001:000295a4       _DeleteMetaFile@4          1002a5a4 f   gdi32:GDI32.dll
 0001:000295aa       _GetDeviceCaps@8           1002a5aa f   gdi32:GDI32.dll
 0001:000295b0       _RestoreDC@8               1002a5b0 f   gdi32:GDI32.dll
 0001:000295b6       _SaveDC@4                  1002a5b6 f   gdi32:GDI32.dll
 0001:000295bc       _SetMapMode@8              1002a5bc f   gdi32:GDI32.dll
 0001:000295c2       _LPtoDP@12                 1002a5c2 f   gdi32:GDI32.dll
 0001:000295c8       _SetViewportOrgEx@16       1002a5c8 f   gdi32:GDI32.dll
 0001:000295ce       _SetWindowExtEx@16         1002a5ce f   gdi32:GDI32.dll
 0001:000295d4       _SetWindowOrgEx@16         1002a5d4 f   gdi32:GDI32.dll
 0001:000295da       _BitBlt@36                 1002a5da f   gdi32:GDI32.dll
 0001:000295e0       _CreateCompatibleDC@4      1002a5e0 f   gdi32:GDI32.dll
 0001:000295e6       _DeleteObject@4            1002a5e6 f   gdi32:GDI32.dll
 0001:000295ec       _SelectObject@8            1002a5ec f   gdi32:GDI32.dll
 0001:000295f2       _GetObjectW@12             1002a5f2 f   gdi32:GDI32.dll
 0001:000295f8       _RegCloseKey@4             1002a5f8 f   advapi32:ADVAPI32.dll
 0001:000295fe       _RegCreateKeyExW@36        1002a5fe f   advapi32:ADVAPI32.dll
 0001:00029604       _RegDeleteKeyW@8           1002a604 f   advapi32:ADVAPI32.dll
 0001:0002960a       _RegDeleteValueW@8         1002a60a f   advapi32:ADVAPI32.dll
 0001:00029610       _RegEnumKeyExW@32          1002a610 f   advapi32:ADVAPI32.dll
 0001:00029616       _RegOpenKeyExW@20          1002a616 f   advapi32:ADVAPI32.dll
 0001:0002961c       _RegQueryInfoKeyW@48       1002a61c f   advapi32:ADVAPI32.dll
 0001:00029622       _RegSetValueExW@24         1002a622 f   advapi32:ADVAPI32.dll
 0001:00029628       _RegQueryValueExW@24       1002a628 f   advapi32:ADVAPI32.dll
 0001:0002962e       _CoCreateInstance@20       1002a62e f   ole32:ole32.dll
 0001:00029634       _StringFromGUID2@12        1002a634 f   ole32:ole32.dll
 0001:0002963a       _CoTaskMemAlloc@4          1002a63a f   ole32:ole32.dll
 0001:00029640       _CoTaskMemRealloc@8        1002a640 f   ole32:ole32.dll
 0001:00029646       _CoTaskMemFree@4           1002a646 f   ole32:ole32.dll
 0001:0002964c       _ReadClassStm@8            1002a64c f   ole32:ole32.dll
 0001:00029652       _WriteClassStm@8           1002a652 f   ole32:ole32.dll
 0001:00029658       _CreateDataAdviseHolder@4  1002a658 f   ole32:ole32.dll
 0001:0002965e       _OleSaveToStream@8         1002a65e f   ole32:ole32.dll
 0001:00029664       _CreateOleAdviseHolder@4   1002a664 f   ole32:ole32.dll
 0001:0002966a       _OleRegGetUserType@12      1002a66a f   ole32:ole32.dll
 0001:00029670       _OleRegGetMiscStatus@12    1002a670 f   ole32:ole32.dll
 0001:00029676       _OleRegEnumVerbs@8         1002a676 f   ole32:ole32.dll
 0001:0002967c       _CLSIDFromProgID@8         1002a67c f   ole32:ole32.dll
 0001:00029682       _SysAllocString@4          1002a682 f   oleaut32:OLEAUT32.dll
 0001:00029688       _SysAllocStringLen@8       1002a688 f   oleaut32:OLEAUT32.dll
 0001:0002968e       _SysFreeString@4           1002a68e f   oleaut32:OLEAUT32.dll
 0001:00029694       _SysStringLen@4            1002a694 f   oleaut32:OLEAUT32.dll
 0001:0002969a       _VariantClear@4            1002a69a f   oleaut32:OLEAUT32.dll
 0001:000296a0       _VariantCopyInd@8          1002a6a0 f   oleaut32:OLEAUT32.dll
 0001:000296a6       _VariantChangeType@16      1002a6a6 f   oleaut32:OLEAUT32.dll
 0001:000296ac       _SysStringByteLen@4        1002a6ac f   oleaut32:OLEAUT32.dll
 0001:000296b2       _SysAllocStringByteLen@8   1002a6b2 f   oleaut32:OLEAUT32.dll
 0001:000296b8       _VariantInit@4             1002a6b8 f   oleaut32:OLEAUT32.dll
 0001:000296be       _VarUI4FromStr@16          1002a6be f   oleaut32:OLEAUT32.dll
 0001:000296c4       _LoadTypeLib@8             1002a6c4 f   oleaut32:OLEAUT32.dll
 0001:000296ca       _LoadRegTypeLib@20         1002a6ca f   oleaut32:OLEAUT32.dll
 0001:000296d0       _RegisterTypeLib@12        1002a6d0 f   oleaut32:OLEAUT32.dll
 0001:000296d6       _UnRegisterTypeLib@20      1002a6d6 f   oleaut32:OLEAUT32.dll
 0001:000296dc       _OleCreatePropertyFrame@44 1002a6dc f   oleaut32:OLEAUT32.dll
 0001:000296f0       @_RTC_AllocaHelper@12      1002a6f0 f   LIBCMTD:stack.obj
 0001:00029730       @_RTC_CheckStackVars2@12   1002a730 f   LIBCMTD:stack.obj
 0001:00029810       @_RTC_CheckStackVars@8     1002a810 f   LIBCMTD:stack.obj
 0001:00029870       __RTC_CheckEsp             1002a870 f   LIBCMTD:stack.obj
 0001:000298b0       @__security_check_cookie@4 1002a8b0 f   LIBCMTD:secchk.obj
 0001:000298d0       __CRT_RTC_INIT             1002a8d0 f   LIBCMTD:init.obj
 0001:000298e0       __CRT_RTC_INITW            1002a8e0 f   LIBCMTD:init.obj
 0001:000298f0       __RTC_InitBase             1002a8f0 f   LIBCMTD:init.obj
 0001:00029920       __RTC_Shutdown             1002a920 f   LIBCMTD:init.obj
 0001:00029940       ??_U@YAPAXI@Z              1002a940 f   LIBCMTD:new_array.obj
 0001:00029960       ??3@YAXPAXI@Z              1002a960 f   LIBCMTD:delete_scalar_size.obj
 0001:00029980       ??_V@YAXPAX@Z              1002a980 f   LIBCMTD:delete_array.obj
 0001:000299a0       ??_V@YAXPAXI@Z             1002a9a0 f   LIBCMTD:delete_array_size.obj
 0001:000299c0       ?configure_argv@__scrt_narrow_argv_policy@@SAHXZ 1002a9c0 f i LIBCMTD:utility.obj
 0001:00029a70       ?initialize_environment@__scrt_narrow_environment_policy@@SAHXZ 1002aa70 f i LIBCMTD:utility.obj
 0001:00029af0       _NtCurrentTeb              1002aaf0 f i LIBCMTD:utility.obj
 0001:00029b00       ___scrt_acquire_startup_lock 1002ab00 f   LIBCMTD:utility.obj
 0001:00029b50       ___scrt_dllmain_after_initialize_c 1002ab50 f   LIBCMTD:utility.obj
 0001:00029b80       ___scrt_dllmain_before_initialize_c 1002ab80 f   LIBCMTD:utility.obj
 0001:00029ba0       ___scrt_dllmain_crt_thread_attach 1002aba0 f   LIBCMTD:utility.obj
 0001:00029bd0       ___scrt_dllmain_crt_thread_detach 1002abd0 f   LIBCMTD:utility.obj
 0001:00029bf0       ___scrt_dllmain_exception_filter 1002abf0 f   LIBCMTD:utility.obj
 0001:00029c40       ___scrt_dllmain_uninitialize_c 1002ac40 f   LIBCMTD:utility.obj
 0001:00029c70       ___scrt_dllmain_uninitialize_critical 1002ac70 f   LIBCMTD:utility.obj
 0001:00029c90       ___scrt_initialize_crt     1002ac90 f   LIBCMTD:utility.obj
 0001:00029ce0       ___scrt_initialize_onexit_tables 1002ace0 f   LIBCMTD:utility.obj
 0001:00029dc0       ___scrt_is_nonwritable_in_current_image 1002adc0 f   LIBCMTD:utility.obj
 0001:00029ef0       ___scrt_release_startup_lock 1002aef0 f   LIBCMTD:utility.obj
 0001:00029f20       ___scrt_uninitialize_crt   1002af20 f   LIBCMTD:utility.obj
 0001:00029f60       __onexit                   1002af60 f   LIBCMTD:utility.obj
 0001:00029fd0       _at_quick_exit             1002afd0 f   LIBCMTD:utility.obj
 0001:0002a010       _atexit                    1002b010 f   LIBCMTD:utility.obj
 0001:0002a040       ??3@YAXPAX@Z               1002b040 f   LIBCMTD:delete_scalar.obj
 0001:0002a060       ___raise_securityfailure   1002b060 f   LIBCMTD:gs_report.obj
 0001:0002a090       ___report_gsfailure        1002b090 f   LIBCMTD:gs_report.obj
 0001:0002a1a0       ___report_rangecheckfailure 1002b1a0 f   LIBCMTD:gs_report.obj
 0001:0002a1b0       ___report_securityfailure  1002b1b0 f   LIBCMTD:gs_report.obj
 0001:0002a290       ___report_securityfailureEx 1002b290 f   LIBCMTD:gs_report.obj
 0001:0002a4e0       __Init_thread_abort        1002b4e0 f   LIBCMTD:thread_safe_statics.obj
 0001:0002a500       __Init_thread_footer       1002b500 f   LIBCMTD:thread_safe_statics.obj
 0001:0002a550       __Init_thread_header       1002b550 f   LIBCMTD:thread_safe_statics.obj
 0001:0002a5c0       __Init_thread_lock         1002b5c0 f   LIBCMTD:thread_safe_statics.obj
 0001:0002a5d0       __Init_thread_notify       1002b5d0 f   LIBCMTD:thread_safe_statics.obj
 0001:0002a620       __Init_thread_unlock       1002b620 f   LIBCMTD:thread_safe_statics.obj
 0001:0002a630       __Init_thread_wait         1002b630 f   LIBCMTD:thread_safe_statics.obj
 0001:0002a6c0       ??2@YAPAXIABUnothrow_t@std@@@Z 1002b6c0 f   LIBCMTD:new_scalar_nothrow.obj
 0001:0002a750       ??_U@YAPAXIABUnothrow_t@std@@@Z 1002b750 f   LIBCMTD:new_array_nothrow.obj
 0001:0002a770       __allmul                   1002b770 f   LIBCMTD:llmul.obj
 0001:0002a7b0       __alloca_probe_16          1002b7b0 f   LIBCMTD:alloca16.obj
 0001:0002a7c6       __alloca_probe_8           1002b7c6     LIBCMTD:alloca16.obj
 0001:0002a7e0       __alloca_probe             1002b7e0 f   LIBCMTD:chkstk.obj
 0001:0002a7e0       __chkstk                   1002b7e0 f   LIBCMTD:chkstk.obj
 0001:0002ace0       __CRT_INIT@12              1002bce0 f   LIBCMTD:dll_dllmain.obj
 0001:0002ad00       __DllMainCRTStartup@12     1002bd00 f   LIBCMTD:dll_dllmain.obj
 0001:0002adc0       ?_RTC_AllocaFailure@@YAXPAXPAU_RTC_ALLOCA_NODE@@H@Z 1002bdc0 f   LIBCMTD:error.obj
 0001:0002aeb0       ?_RTC_Failure@@YAXPAXH@Z   1002beb0 f   LIBCMTD:error.obj
 0001:0002af00       ?_RTC_StackFailure@@YAXPAXPBD@Z 1002bf00 f   LIBCMTD:error.obj
 0001:0002b2c0       __RTC_UninitUse            1002c2c0 f   LIBCMTD:error.obj
 0001:0002b370       __vsprintf_s_l             1002c370 f i LIBCMTD:error.obj
 0001:0002b3a0       _sprintf_s                 1002c3a0 f i LIBCMTD:error.obj
 0001:0002b3c0       ?_RTC_GetErrorFunc@@YAP6AHHPBDH00ZZPBX@Z 1002c3c0 f   LIBCMTD:userapi.obj
 0001:0002b3d0       ?_RTC_GetErrorFuncW@@YAP6AHHPB_WH00ZZPBX@Z 1002c3d0 f   LIBCMTD:userapi.obj
 0001:0002b3e0       __RTC_GetErrDesc           1002c3e0 f   LIBCMTD:userapi.obj
 0001:0002b400       __RTC_NumErrors            1002c400 f   LIBCMTD:userapi.obj
 0001:0002b410       __RTC_SetErrorFunc         1002c410 f   LIBCMTD:userapi.obj
 0001:0002b430       __RTC_SetErrorFuncW        1002c430 f   LIBCMTD:userapi.obj
 0001:0002b450       __RTC_SetErrorType         1002c450 f   LIBCMTD:userapi.obj
 0001:0002b480       ??2@YAPAXI@Z               1002c480 f   LIBCMTD:new_scalar.obj
 0001:0002b4d0       ___isa_available_init      1002c4d0 f   LIBCMTD:cpu_disp.obj
 0001:0002b810       __get_startup_argv_mode    1002c810 f   LIBCMTD:argv_mode.obj
 0001:0002b820       ___scrt_is_ucrt_dll_in_use 1002c820 f   LIBCMTD:ucrt_detection.obj
 0001:0002b850       ___scrt_fastfail           1002c850 f   LIBCMTD:utility_desktop.obj
 0001:0002b990       ___scrt_get_show_window_mode 1002c990 f   LIBCMTD:utility_desktop.obj
 0001:0002b9d0       ___scrt_initialize_mta     1002c9d0 f   LIBCMTD:utility_desktop.obj
 0001:0002b9e0       ___scrt_initialize_winrt   1002c9e0 f   LIBCMTD:utility_desktop.obj
 0001:0002b9f0       ___scrt_is_managed_app     1002c9f0 f   LIBCMTD:utility_desktop.obj
 0001:0002ba80       ___scrt_set_unhandled_exception_filter 1002ca80 f   LIBCMTD:utility_desktop.obj
 0001:0002ba90       ___scrt_stub_for_initialize_mta 1002ca90 f   LIBCMTD:utility_desktop.obj
 0001:0002ba90       ___scrt_exe_initialize_mta 1002ca90 f   LIBCMTD:utility_desktop.obj
 0001:0002baa0       ___scrt_unhandled_exception_filter@4 1002caa0 f   LIBCMTD:utility_desktop.obj
 0001:0002bb20       __crt_debugger_hook        1002cb20 f   LIBCMTD:utility_desktop.obj
 0001:0002bb30       @_guard_check_icall_nop@4  1002cb30 f i LIBCMTD:guard_support.obj
 0001:0002bb40       _ReadNoFence               1002cb40 f i LIBCMTD:guard_support.obj
 0001:0002bb60       _ReadPointerNoFence        1002cb60 f i LIBCMTD:guard_support.obj
 0001:0002bb80       ___castguard_check_failure_debugbreak 1002cb80 f i LIBCMTD:guard_support.obj
 0001:0002bba0       ___castguard_check_failure_fastfail 1002cba0 f i LIBCMTD:guard_support.obj
 0001:0002bbc0       ___castguard_check_failure_nop 1002cbc0 f i LIBCMTD:guard_support.obj
 0001:0002bbd0       ___castguard_check_failure_os_handled 1002cbd0 f i LIBCMTD:guard_support.obj
 0001:0002bc50       ___castguard_slow_path_check_debugbreak 1002cc50 f i LIBCMTD:guard_support.obj
 0001:0002bc80       ___castguard_slow_path_check_fastfail 1002cc80 f i LIBCMTD:guard_support.obj
 0001:0002bcc0       ___castguard_slow_path_check_nop 1002ccc0 f i LIBCMTD:guard_support.obj
 0001:0002bcd0       ___castguard_slow_path_check_os_handled 1002ccd0 f i LIBCMTD:guard_support.obj
 0001:0002bd70       __guard_icall_checks_enforced 1002cd70 f i LIBCMTD:guard_support.obj
 0001:0002be10       ___security_init_cookie    1002ce10 f   LIBCMTD:gs_support.obj
 0001:0002be90       ?__scrt_initialize_type_info@@YAXXZ 1002ce90 f   LIBCMTD:tncleanup.obj
 0001:0002bea0       ?__scrt_uninitialize_type_info@@YAXXZ 1002cea0 f   LIBCMTD:tncleanup.obj
 0001:0002bec0       ___local_stdio_scanf_options 1002cec0 f i LIBCMTD:default_local_stdio_options.obj
 0001:0002bed0       ___scrt_initialize_default_local_stdio_options 1002ced0 f   LIBCMTD:default_local_stdio_options.obj
 0001:0002bf10       ___scrt_get_dyn_tls_init_callback 1002cf10 f   LIBCMTD:dyn_tls_init.obj
 0001:0002bf20       __RTC_Initialize           1002cf20 f   LIBCMTD:initsect.obj
 0001:0002bf50       __RTC_Terminate            1002cf50 f   LIBCMTD:initsect.obj
 0001:0002c400       ?_RTC_GetSrcLine@@YAHPAEPA_WKPAH1K@Z 1002d400 f   LIBCMTD:pdblkup.obj
 0001:0002c780       __except_handler4_noexcept 1002d780 f   LIBCMTD:chandler4_noexcept.obj
 0001:0002c7e0       ??0bad_alloc@std@@AAE@QBD@Z 1002d7e0 f i LIBCMTD:throw_bad_alloc.obj
 0001:0002c810       ??0bad_alloc@std@@QAE@ABV01@@Z 1002d810 f i LIBCMTD:throw_bad_alloc.obj
 0001:0002c840       ??0bad_alloc@std@@QAE@XZ   1002d840 f i LIBCMTD:throw_bad_alloc.obj
 0001:0002c870       ??0bad_array_new_length@std@@QAE@ABV01@@Z 1002d870 f i LIBCMTD:throw_bad_alloc.obj
 0001:0002c8a0       ??0bad_array_new_length@std@@QAE@XZ 1002d8a0 f i LIBCMTD:throw_bad_alloc.obj
 0001:0002c8d0       ??0exception@std@@QAE@ABV01@@Z 1002d8d0 f i LIBCMTD:throw_bad_alloc.obj
 0001:0002c910       ??0exception@std@@QAE@QBDH@Z 1002d910 f i LIBCMTD:throw_bad_alloc.obj
 0001:0002c940       ??1bad_alloc@std@@UAE@XZ   1002d940 f i LIBCMTD:throw_bad_alloc.obj
 0001:0002c960       ??1bad_array_new_length@std@@UAE@XZ 1002d960 f i LIBCMTD:throw_bad_alloc.obj
 0001:0002c980       ??1exception@std@@UAE@XZ   1002d980 f i LIBCMTD:throw_bad_alloc.obj
 0001:0002c9b0       ??_Gbad_alloc@std@@UAEPAXI@Z 1002d9b0 f i LIBCMTD:throw_bad_alloc.obj
 0001:0002c9b0       ??_Ebad_alloc@std@@UAEPAXI@Z 1002d9b0 f i LIBCMTD:throw_bad_alloc.obj
 0001:0002c9e0       ??_Ebad_array_new_length@std@@UAEPAXI@Z 1002d9e0 f i LIBCMTD:throw_bad_alloc.obj
 0001:0002c9e0       ??_Gbad_array_new_length@std@@UAEPAXI@Z 1002d9e0 f i LIBCMTD:throw_bad_alloc.obj
 0001:0002ca10       ??_Gexception@std@@UAEPAXI@Z 1002da10 f i LIBCMTD:throw_bad_alloc.obj
 0001:0002ca10       ??_Eexception@std@@UAEPAXI@Z 1002da10 f i LIBCMTD:throw_bad_alloc.obj
 0001:0002ca40       ?__scrt_throw_std_bad_alloc@@YAXXZ 1002da40 f   LIBCMTD:throw_bad_alloc.obj
 0001:0002ca60       ?__scrt_throw_std_bad_array_new_length@@YAXXZ 1002da60 f   LIBCMTD:throw_bad_alloc.obj
 0001:0002ca80       ?what@exception@std@@UBEPBDXZ 1002da80 f i LIBCMTD:throw_bad_alloc.obj
 0001:0002cab0       ??1type_info@@UAE@XZ       1002dab0 f   LIBCMTD:std_type_info_static.obj
 0001:0002cad0       ??_Gtype_info@@UAEPAXI@Z   1002dad0 f i LIBCMTD:std_type_info_static.obj
 0001:0002cad0       ??_Etype_info@@UAEPAXI@Z   1002dad0 f i LIBCMTD:std_type_info_static.obj
 0001:0002cafe       ??$?2PAUHINSTANCE__@@@Wrapper@?$CSimpleArray@PAUHINSTANCE__@@V?$CSimpleArrayEqualHelper@PAUHINSTANCE__@@@ATL@@@ATL@@SAPAXIPAPAUHINSTANCE__@@@Z 1002dafe f i atls:atlbase.obj
 0001:0002cb06       ??0?$CSimpleArray@PAUHINSTANCE__@@V?$CSimpleArrayEqualHelper@PAUHINSTANCE__@@@ATL@@@ATL@@QAE@XZ 1002db06 f i atls:atlbase.obj
 0001:0002cb13       ??0CAtlBaseModule@ATL@@QAE@XZ 1002db13 f   atls:atlbase.obj
 0001:0002cb66       ??0Wrapper@?$CSimpleArray@PAUHINSTANCE__@@V?$CSimpleArrayEqualHelper@PAUHINSTANCE__@@@ATL@@@ATL@@QAE@ABQAUHINSTANCE__@@@Z 1002db66 f i atls:atlbase.obj
 0001:0002cb76       ??0_ATL_BASE_MODULE70@ATL@@QAE@XZ 1002db76 f i atls:atlbase.obj
 0001:0002cb99       ??1?$CSimpleArray@PAUHINSTANCE__@@V?$CSimpleArrayEqualHelper@PAUHINSTANCE__@@@ATL@@@ATL@@QAE@XZ 1002db99 f i atls:atlbase.obj
 0001:0002cb9e       ??1CAtlBaseModule@ATL@@QAE@XZ 1002db9e f   atls:atlbase.obj
 0001:0002cbb4       ??1_ATL_BASE_MODULE70@ATL@@QAE@XZ 1002dbb4 f i atls:atlbase.obj
 0001:0002cbbc       ??A?$CSimpleArray@PAUHINSTANCE__@@V?$CSimpleArrayEqualHelper@PAUHINSTANCE__@@@ATL@@@ATL@@QAEAAPAUHINSTANCE__@@H@Z 1002dbbc f i atls:atlbase.obj
 0001:0002cbe1       ?Add@?$CSimpleArray@PAUHINSTANCE__@@V?$CSimpleArrayEqualHelper@PAUHINSTANCE__@@@ATL@@@ATL@@QAEHABQAUHINSTANCE__@@@Z 1002dbe1 f i atls:atlbase.obj
 0001:0002cc63       ?AddResourceInstance@CAtlBaseModule@ATL@@QAE_NPAUHINSTANCE__@@@Z 1002dc63 f   atls:atlbase.obj
 0001:0002cc96       ?GetHInstanceAt@CAtlBaseModule@ATL@@QAEPAUHINSTANCE__@@H@Z 1002dc96 f   atls:atlbase.obj
 0001:0002ccdb       ?GetSize@?$CSimpleArray@PAUHINSTANCE__@@V?$CSimpleArrayEqualHelper@PAUHINSTANCE__@@@ATL@@@ATL@@QBEHXZ 1002dcdb f i atls:atlbase.obj
 0001:0002ccdf       ?InternalSetAtIndex@?$CSimpleArray@PAUHINSTANCE__@@V?$CSimpleArrayEqualHelper@PAUHINSTANCE__@@@ATL@@@ATL@@QAEXHABQAUHINSTANCE__@@@Z 1002dcdf f i atls:atlbase.obj
 0001:0002ccf9       ?RemoveAll@?$CSimpleArray@PAUHINSTANCE__@@V?$CSimpleArrayEqualHelper@PAUHINSTANCE__@@@ATL@@@ATL@@QAEXXZ 1002dcf9 f i atls:atlbase.obj
 0001:0002cd16       ?RemoveAt@?$CSimpleArray@PAUHINSTANCE__@@V?$CSimpleArrayEqualHelper@PAUHINSTANCE__@@@ATL@@@ATL@@QAEHH@Z 1002dd16 f i atls:atlbase.obj
 0001:0002cd64       ?RemoveResourceInstance@CAtlBaseModule@ATL@@QAE_NPAUHINSTANCE__@@@Z 1002dd64 f   atls:atlbase.obj
 0001:0002cdc1       ?memmove_s@Checked@ATL@@YAXPAXIPBXI@Z 1002ddc1 f i atls:atlbase.obj
 0001:0002d11e       ?GetCodeAddress@_stdcallthunk@ATL@@QAEPAXXZ 1002e11e f i atls:atlthunk.obj
 0001:0002d148       ?Init@_stdcallthunk@ATL@@QAEHKPAX@Z 1002e148 f i atls:atlthunk.obj
 0001:0002d17d       ?__AllocStdCallThunk@@YGPAXXZ 1002e17d f   atls:atlthunk.obj
 0001:0002d182       ?__AllocStdCallThunk@ATL@@YGPAXXZ 1002e182 f   atls:atlthunk.obj
 0001:0002d187       ?__AllocStdCallThunk_cmn@@YAPAXXZ 1002e187 f   atls:atlthunk.obj
 0001:0002d24d       ?__FreeStdCallThunk@@YGXPAX@Z 1002e24d f   atls:atlthunk.obj
 0001:0002d25d       ?__FreeStdCallThunk@ATL@@YGXPAX@Z 1002e25d f   atls:atlthunk.obj
 0001:0002d26d       ?__FreeStdCallThunk_cmn@@YAXPAX@Z 1002e26d f   atls:atlthunk.obj
 0001:0002d308       _AtlThunk_AllocateData@0   1002e308 f   atls:atlthunk.obj
 0001:0002d36d       _AtlThunk_DataToCode@4     1002e36d f   atls:atlthunk.obj
 0001:0002d3b4       _AtlThunk_FreeData@4       1002e3b4 f   atls:atlthunk.obj
 0001:0002d40a       _AtlThunk_InitData@12      1002e40a f   atls:atlthunk.obj
 0001:0002d459       _MemoryBarrier             1002e459 f i atls:atlthunk.obj
 0001:0002d467       __InlineInterlockedCompareExchangePointer 1002e467 f i atls:atlthunk.obj
 0001:0002d480       _memset                    1002e480 f   libvcruntimed:memset.obj
 0001:0002d5e0       ??$__crt_interlocked_exchange_pointer@$$A6AXXZP6AXXZ@@YAP6AXXZPDS6AXXZQ6AXXZ@Z 1002e5e0 f i libvcruntimed:purevirt.obj
 0001:0002d5f0       ??$__crt_interlocked_read_pointer@$$A6AXXZ@@YAP6AXXZPDS6AXXZ@Z 1002e5f0 f i libvcruntimed:purevirt.obj
 0001:0002d610       ?__crt_interlocked_read_32@@YAHPDH@Z 1002e610 f i libvcruntimed:purevirt.obj
 0001:0002d630       __get_purecall_handler     1002e630 f   libvcruntimed:purevirt.obj
 0001:0002d650       __purecall                 1002e650 f   libvcruntimed:purevirt.obj
 0001:0002d680       __set_purecall_handler     1002e680 f   libvcruntimed:purevirt.obj
 0001:0002d850       _memcmp                    1002e850 f   libvcruntimed:memcmp.obj
 0001:0002e120       _memcpy                    1002f120 f   libvcruntimed:memcpy.obj
 0001:0002e6a0       _wcsstr                    1002f6a0 f   libvcruntimed:wcsstr.obj
 0001:0002ebd0       __except_handler4          1002fbd0 f   libvcruntimed:chandler4.obj
 0001:0002edc0       ___vcrt_initialize         1002fdc0 f   libvcruntimed:initialization.obj
 0001:0002ee00       ___vcrt_thread_attach      1002fe00 f   libvcruntimed:initialization.obj
 0001:0002ee20       ___vcrt_thread_detach      1002fe20 f   libvcruntimed:initialization.obj
 0001:0002ee40       ___vcrt_uninitialize       1002fe40 f   libvcruntimed:initialization.obj
 0001:0002ee60       ___vcrt_uninitialize_critical 1002fe60 f   libvcruntimed:initialization.obj
 0001:0002ee80       ??$?0AAViterator@TryBlockMap@__FrameHandler3@@AAV012@$0A@@?$pair@Viterator@TryBlockMap@__FrameHandler3@@V123@@std@@QAE@AAViterator@TryBlockMap@__FrameHandler3@@0@Z 1002fe80 f i libvcruntimed:trnsctrl.obj
 0001:0002eed0       ??$forward@AAViterator@TryBlockMap@__FrameHandler3@@@std@@YAAAViterator@TryBlockMap@__FrameHandler3@@AAV123@@Z 1002fed0 f i libvcruntimed:trnsctrl.obj
 0001:0002eee0       ??0iterator@TryBlockMap@__FrameHandler3@@QAE@AAV12@I@Z 1002fee0 f i libvcruntimed:trnsctrl.obj
 0001:0002ef10       ?GetRangeOfTrysToCheck@__FrameHandler3@@SA?AU?$pair@Viterator@TryBlockMap@__FrameHandler3@@V123@@std@@AAVTryBlockMap@1@HPAXPBU_s_FuncInfo@@H@Z 1002ff10 f   libvcruntimed:trnsctrl.obj
 0001:0002eff0       ?_CallCatchBlock2@@YAPAXPAUEHRegistrationNode@@PBU_s_FuncInfo@@PAXHK@Z 1002fff0 f   libvcruntimed:trnsctrl.obj
 0001:0002f060       ?_CallSETranslator@@YAHPAUEHExceptionRecord@@PAUEHRegistrationNode@@PAX2PBU_s_FuncInfo@@H1@Z 10030060 f   libvcruntimed:trnsctrl.obj
 0001:0002f160       ?_JumpToContinuation@@YGXPAXPAUEHRegistrationNode@@@Z 10030160 f   libvcruntimed:trnsctrl.obj
 0001:0002f1a0       ?_UnwindNestedFrames@@YGXPAUEHRegistrationNode@@PAUEHExceptionRecord@@@Z 100301a0 f   libvcruntimed:trnsctrl.obj
 0001:0002f200       __CatchGuardHandler        10030200 f   libvcruntimed:trnsctrl.obj
 0001:0002f250       __CreateFrameInfo          10030250 f   libvcruntimed:trnsctrl.obj
 0001:0002f280       __FindAndUnlinkFrame       10030280 f   libvcruntimed:trnsctrl.obj
 0001:0002f2f0       __TranslatorGuardHandler   100302f0 f   libvcruntimed:trnsctrl.obj
 0001:0002f3a0       ___CxxFrameHandler         100303a0 f   libvcruntimed:trnsctrl.obj
 0001:0002f3e0       ___CxxFrameHandler2        100303e0 f   libvcruntimed:trnsctrl.obj
 0001:0002f420       ___CxxFrameHandler3        10030420 f   libvcruntimed:trnsctrl.obj
 0001:0002f460       ___CxxLongjmpUnwind@4      10030460 f   libvcruntimed:trnsctrl.obj
 0001:0002f4a0       ___DestructExceptionObject 100304a0 f   libvcruntimed:ehhelpers.obj
 0001:0002f5c0       ?_CallMemberFunction0@@YGXQAX0@Z 100305c0 f i libvcruntimed:ehhelpers.obj
 0001:0002f660       ?raw_name@type_info@@QBEPBDXZ 10030660 f i libvcruntimed:ehhelpers.obj
 0001:0002f680       __IsExceptionObjectToBeDestroyed 10030680 f   libvcruntimed:ehhelpers.obj
 0001:0002f6c0       __SetWinRTOutOfMemoryExceptionCallback 100306c0 f   libvcruntimed:ehhelpers.obj
 0001:0002f6d0       ___AdjustPointer           100306d0 f   libvcruntimed:ehhelpers.obj
 0001:0002f720       ___FrameUnwindFilter       10030720 f   libvcruntimed:ehhelpers.obj
 0001:0002f7b0       ___GetPlatformExceptionInfo 100307b0 f   libvcruntimed:ehhelpers.obj
 0001:0002f830       ___current_exception       10030830 f   libvcruntimed:ehhelpers.obj
 0001:0002f840       ___current_exception_context 10030840 f   libvcruntimed:ehhelpers.obj
 0001:0002f850       ___processing_throw        10030850 f   libvcruntimed:ehhelpers.obj
 0001:0002f860       ___std_terminate           10030860 f   libvcruntimed:ehhelpers.obj
 0001:0002f870       __is_exception_typeof      10030870 f   libvcruntimed:ehhelpers.obj
 0001:0002f970       ??$?RD@__crt_internal_free_policy@@QBEXQBD@Z 10030970 f i libvcruntimed:std_type_info.obj
 0001:0002f990       ??$?RX@__crt_internal_free_policy@@QBEXQBX@Z 10030990 f i libvcruntimed:std_type_info.obj
 0001:0002f9b0       ??$__crt_interlocked_compare_exchange_pointer@$$CBDPAD$$T@@YAPBDPDSBDQAD$$T@Z 100309b0 f i libvcruntimed:std_type_info.obj
 0001:0002f9d0       ??$__crt_interlocked_read_pointer@$$CBD@@YAPBDPDSBD@Z 100309d0 f i libvcruntimed:std_type_info.obj
 0001:0002f9f0       ??0?$__crt_unique_heap_ptr@DU__crt_internal_free_policy@@@@QAE@QAD@Z 100309f0 f i libvcruntimed:std_type_info.obj
 0001:0002fa10       ??0?$__crt_unique_heap_ptr@XU__crt_internal_free_policy@@@@QAE@QAX@Z 10030a10 f i libvcruntimed:std_type_info.obj
 0001:0002fa30       ??1?$__crt_unique_heap_ptr@DU__crt_internal_free_policy@@@@QAE@XZ 10030a30 f i libvcruntimed:std_type_info.obj
 0001:0002fa50       ??1?$__crt_unique_heap_ptr@XU__crt_internal_free_policy@@@@QAE@XZ 10030a50 f i libvcruntimed:std_type_info.obj
 0001:0002fa70       ??B?$__crt_unique_heap_ptr@DU__crt_internal_free_policy@@@@QBE_NXZ 10030a70 f i libvcruntimed:std_type_info.obj
 0001:0002fa90       ??B?$__crt_unique_heap_ptr@XU__crt_internal_free_policy@@@@QBE_NXZ 10030a90 f i libvcruntimed:std_type_info.obj
 0001:0002fb20       ?detach@?$__crt_unique_heap_ptr@XU__crt_internal_free_policy@@@@QAEPAXXZ 10030b20 f i libvcruntimed:std_type_info.obj
 0001:0002fb50       ?get@?$__crt_unique_heap_ptr@DU__crt_internal_free_policy@@@@QBEPADXZ 10030b50 f i libvcruntimed:std_type_info.obj
 0001:0002fb60       ?get@?$__crt_unique_heap_ptr@XU__crt_internal_free_policy@@@@QBEPAXXZ 10030b60 f i libvcruntimed:std_type_info.obj
 0001:0002fb70       ?is_valid@?$__crt_unique_heap_ptr@DU__crt_internal_free_policy@@@@QBE_NXZ 10030b70 f i libvcruntimed:std_type_info.obj
 0001:0002fba0       ?is_valid@?$__crt_unique_heap_ptr@XU__crt_internal_free_policy@@@@QBE_NXZ 10030ba0 f i libvcruntimed:std_type_info.obj
 0001:0002fbd0       ?release@?$__crt_unique_heap_ptr@DU__crt_internal_free_policy@@@@QAEXXZ 10030bd0 f i libvcruntimed:std_type_info.obj
 0001:0002fc00       ?release@?$__crt_unique_heap_ptr@XU__crt_internal_free_policy@@@@QAEXXZ 10030c00 f i libvcruntimed:std_type_info.obj
 0001:0002fc30       ___std_type_info_compare   10030c30 f   libvcruntimed:std_type_info.obj
 0001:0002fc60       ___std_type_info_destroy_list 10030c60 f   libvcruntimed:std_type_info.obj
 0001:0002fca0       ___std_type_info_hash      10030ca0 f   libvcruntimed:std_type_info.obj
 0001:0002fd00       ___std_type_info_name      10030d00 f   libvcruntimed:std_type_info.obj
 0001:0002fee0       ___vcrt_GetModuleFileNameW 10030ee0 f   libvcruntimed:winapi_thunks.obj
 0001:0002ff00       ___vcrt_GetModuleHandleW   10030f00 f   libvcruntimed:winapi_thunks.obj
 0001:0002ff10       ___vcrt_LoadLibraryExW     10030f10 f   libvcruntimed:winapi_thunks.obj
 0001:0002ff30       ??$?RD@__crt_public_free_policy@@QBEXQBD@Z 10030f30 f i libvcruntimed:std_exception.obj
 0001:0002ff50       ??0?$__crt_unique_heap_ptr@DU__crt_public_free_policy@@@@QAE@QAD@Z 10030f50 f i libvcruntimed:std_exception.obj
 0001:0002ff70       ??1?$__crt_unique_heap_ptr@DU__crt_public_free_policy@@@@QAE@XZ 10030f70 f i libvcruntimed:std_exception.obj
 0001:0002ff90       ??B?$__crt_unique_heap_ptr@DU__crt_public_free_policy@@@@QBE_NXZ 10030f90 f i libvcruntimed:std_exception.obj
 0001:0002ffb0       ?detach@?$__crt_unique_heap_ptr@DU__crt_public_free_policy@@@@QAEPADXZ 10030fb0 f i libvcruntimed:std_exception.obj
 0001:0002ffe0       ?get@?$__crt_unique_heap_ptr@DU__crt_public_free_policy@@@@QBEPADXZ 10030fe0 f i libvcruntimed:std_exception.obj
 0001:0002fff0       ?is_valid@?$__crt_unique_heap_ptr@DU__crt_public_free_policy@@@@QBE_NXZ 10030ff0 f i libvcruntimed:std_exception.obj
 0001:00030020       ?release@?$__crt_unique_heap_ptr@DU__crt_public_free_policy@@@@QAEXXZ 10031020 f i libvcruntimed:std_exception.obj
 0001:00030050       ___std_exception_copy      10031050 f   libvcruntimed:std_exception.obj
 0001:00030140       ___std_exception_destroy   10031140 f   libvcruntimed:std_exception.obj
 0001:00030170       __CxxThrowException@8      10031170 f   libvcruntimed:throw.obj
 0001:00030220       _memmove                   10031220 f   libvcruntimed:memmove.obj
 0001:000307a0       __local_unwind4            100317a0 f   libvcruntimed:exsup4.obj
 0001:00030874       __seh_longjmp_unwind4@4    10031874 f   libvcruntimed:exsup4.obj
 0001:0003089c       @_EH4_CallFilterFunc@8     1003189c f   libvcruntimed:exsup4.obj
 0001:000308b4       @_EH4_TransferToHandler@8  100318b4 f   libvcruntimed:exsup4.obj
 0001:000308d0       @_EH4_GlobalUnwind2@8      100318d0 f   libvcruntimed:exsup4.obj
 0001:000308ec       @_EH4_LocalUnwind@16       100318ec f   libvcruntimed:exsup4.obj
 0001:00030920       ___except_validate_context_record 10031920 f   libvcruntimed:jbcxrval.obj
 0001:00030970       ___except_validate_jump_buffer 10031970 f   libvcruntimed:jbcxrval.obj
 0001:00030990       ___except_validate_jump_buffer_common 10031990 f i libvcruntimed:jbcxrval.obj
 0001:000309f0       ??$?RU__vcrt_ptd@@@__crt_internal_free_policy@@QBEXQBU__vcrt_ptd@@@Z 100319f0 f i libvcruntimed:per_thread_data.obj
 0001:00030a10       ??0?$__crt_unique_heap_ptr@U__vcrt_ptd@@U__crt_internal_free_policy@@@@QAE@QAU__vcrt_ptd@@@Z 10031a10 f i libvcruntimed:per_thread_data.obj
 0001:00030a50       ??1?$__crt_unique_heap_ptr@U__vcrt_ptd@@U__crt_internal_free_policy@@@@QAE@XZ 10031a50 f i libvcruntimed:per_thread_data.obj
 0001:00030a90       ??B?$__crt_unique_heap_ptr@U__vcrt_ptd@@U__crt_internal_free_policy@@@@QBE_NXZ 10031a90 f i libvcruntimed:per_thread_data.obj
 0001:00030ab0       ?detach@?$__crt_unique_heap_ptr@U__vcrt_ptd@@U__crt_internal_free_policy@@@@QAEPAU__vcrt_ptd@@XZ 10031ab0 f i libvcruntimed:per_thread_data.obj
 0001:00030ae0       ?get@?$__crt_unique_heap_ptr@U__vcrt_ptd@@U__crt_internal_free_policy@@@@QBEPAU__vcrt_ptd@@XZ 10031ae0 f i libvcruntimed:per_thread_data.obj
 0001:00030af0       ?is_valid@?$__crt_unique_heap_ptr@U__vcrt_ptd@@U__crt_internal_free_policy@@@@QBE_NXZ 10031af0 f i libvcruntimed:per_thread_data.obj
 0001:00030b20       ?release@?$__crt_unique_heap_ptr@U__vcrt_ptd@@U__crt_internal_free_policy@@@@QAEXXZ 10031b20 f i libvcruntimed:per_thread_data.obj
 0001:00030b80       ___vcrt_freefls@4          10031b80 f   libvcruntimed:per_thread_data.obj
 0001:00030bb0       ___vcrt_freeptd            10031bb0 f   libvcruntimed:per_thread_data.obj
 0001:00030c10       ___vcrt_getptd             10031c10 f   libvcruntimed:per_thread_data.obj
 0001:00030c30       ___vcrt_getptd_noexit      10031c30 f   libvcruntimed:per_thread_data.obj
 0001:00030d90       ___vcrt_getptd_noinit      10031d90 f   libvcruntimed:per_thread_data.obj
 0001:00030df0       ___vcrt_initialize_ptd     10031df0 f   libvcruntimed:per_thread_data.obj
 0001:00030e40       ___vcrt_uninitialize_ptd   10031e40 f   libvcruntimed:per_thread_data.obj
 0001:00030e70       ___vcrt_initialize_locks   10031e70 f   libvcruntimed:locks.obj
 0001:00030ed0       ___vcrt_lock               10031ed0 f   libvcruntimed:locks.obj
 0001:00030ef0       ___vcrt_uninitialize_locks 10031ef0 f   libvcruntimed:locks.obj
 0001:00030f40       ___vcrt_unlock             10031f40 f   libvcruntimed:locks.obj
 0001:00031ad0       ??$TypeMatchHelper@V__FrameHandler3@@@@YAHPBU_s_HandlerType@@PBU_s_CatchableType@@PBU_s_ThrowInfo@@@Z 10032ad0 f i libvcruntimed:frame.obj
 0001:00031bb0       ??$__InternalCxxFrameHandler@V__FrameHandler3@@@@YA?AW4_EXCEPTION_DISPOSITION@@PAUEHExceptionRecord@@PAUEHRegistrationNode@@PAU_CONTEXT@@PAXPBU_s_FuncInfo@@H1E@Z 10032bb0 f i libvcruntimed:frame.obj
 0001:00031d70       ??0HandlerMap@__FrameHandler3@@QAE@PBU_s_TryBlockMapEntry@@II@Z 10032d70 f i libvcruntimed:frame.obj
 0001:00031da0       ??0TryBlockMap@__FrameHandler3@@QAE@PBU_s_FuncInfo@@I@Z 10032da0 f i libvcruntimed:frame.obj
 0001:00031dd0       ??0bad_exception@std@@QAE@ABV01@@Z 10032dd0 f i libvcruntimed:frame.obj
 0001:00031e00       ??0bad_exception@std@@QAE@XZ 10032e00 f i libvcruntimed:frame.obj
 0001:00031e30       ??0iterator@HandlerMap@__FrameHandler3@@QAE@AAV12@I@Z 10032e30 f i libvcruntimed:frame.obj
 0001:00031e60       ??1bad_exception@std@@UAE@XZ 10032e60 f i libvcruntimed:frame.obj
 0001:00031e80       ??8iterator@HandlerMap@__FrameHandler3@@QBE_NABV012@@Z 10032e80 f i libvcruntimed:frame.obj
 0001:00031eb0       ??8type_info@@QBE_NABV0@@Z 10032eb0 f i libvcruntimed:frame.obj
 0001:00031ef0       ??9iterator@HandlerMap@__FrameHandler3@@QBE_NABV012@@Z 10032ef0 f i libvcruntimed:frame.obj
 0001:00031f30       ??Diterator@HandlerMap@__FrameHandler3@@QAE?BU_s_HandlerType@@XZ 10032f30 f i libvcruntimed:frame.obj
 0001:00031f70       ??Diterator@TryBlockMap@__FrameHandler3@@QAE?BU_s_TryBlockMapEntry@@XZ 10032f70 f i libvcruntimed:frame.obj
 0001:00031fc0       ??Eiterator@HandlerMap@__FrameHandler3@@QAEAAV012@XZ 10032fc0 f i libvcruntimed:frame.obj
 0001:00031fe0       ??Eiterator@TryBlockMap@__FrameHandler3@@QAEAAV012@XZ 10032fe0 f i libvcruntimed:frame.obj
 0001:00032000       ??Miterator@TryBlockMap@__FrameHandler3@@QBE_NABV012@@Z 10033000 f i libvcruntimed:frame.obj
 0001:00032030       ??_Gbad_exception@std@@UAEPAXI@Z 10033030 f i libvcruntimed:frame.obj
 0001:00032030       ??_Ebad_exception@std@@UAEPAXI@Z 10033030 f i libvcruntimed:frame.obj
 0001:00032060       ?BuildCatchObject@__FrameHandler3@@SAXPAUEHExceptionRecord@@PAXPBU_s_HandlerType@@PBU_s_CatchableType@@@Z 10033060 f   libvcruntimed:frame.obj
 0001:00032080       ?BuildCatchObjectHelper@__FrameHandler3@@SAHPAUEHExceptionRecord@@PAXPBU_s_HandlerType@@PBU_s_CatchableType@@@Z 10033080 f   libvcruntimed:frame.obj
 0001:00032420       ?FrameUnwindToEmptyState@__FrameHandler3@@SAXPAUEHRegistrationNode@@PAXPBU_s_FuncInfo@@@Z 10033420 f   libvcruntimed:frame.obj
 0001:00032440       ?FrameUnwindToState@__FrameHandler3@@SAXPAUEHRegistrationNode@@PAXPBU_s_FuncInfo@@H@Z 10033440 f   libvcruntimed:frame.obj
 0001:000325c0       ?GetMaxState@__FrameHandler3@@SAHPAXPBU_s_FuncInfo@@@Z 100335c0 f i libvcruntimed:frame.obj
 0001:000326e0       ?TypeMatch@__FrameHandler3@@SAHPBU_s_HandlerType@@PBU_s_CatchableType@@PBU_s_ThrowInfo@@@Z 100336e0 f   libvcruntimed:frame.obj
 0001:00032700       ?_CallMemberFunction1@@YGXQAX00@Z 10033700 f i libvcruntimed:frame.obj
 0001:00032730       ?_CallMemberFunction2@@YGXQAX00H@Z 10033730 f i libvcruntimed:frame.obj
 0001:00032760       ?begin@HandlerMap@__FrameHandler3@@QAE?AViterator@12@XZ 10033760 f i libvcruntimed:frame.obj
 0001:00032780       ?end@HandlerMap@__FrameHandler3@@QAE?AViterator@12@XZ 10033780 f i libvcruntimed:frame.obj
 0001:000327b0       ?getESTypes@__FrameHandler3@@SAPBU_s_ESTypeList@@PBU_s_FuncInfo@@@Z 100337b0 f i libvcruntimed:frame.obj
 0001:000327c0       ?getLastEntry@HandlerMap@__FrameHandler3@@QAEPBU_s_HandlerType@@XZ 100337c0 f i libvcruntimed:frame.obj
 0001:000327e0       ?getMagicNum@__FrameHandler3@@SAIPBU_s_FuncInfo@@@Z 100337e0 f i libvcruntimed:frame.obj
 0001:000327f0       ?getNumTryBlocks@TryBlockMap@__FrameHandler3@@QAEIXZ 100337f0 f i libvcruntimed:frame.obj
 0001:00032810       ?isEHs@__FrameHandler3@@SA_NPBU_s_FuncInfo@@@Z 10033810 f i libvcruntimed:frame.obj
 0001:00032840       ?isNoExcept@__FrameHandler3@@SA_NPBU_s_FuncInfo@@@Z 10033840 f i libvcruntimed:frame.obj
 0001:00032870       ___BuildCatchObject        10033870 f   libvcruntimed:frame.obj
 0001:00032890       ___BuildCatchObjectHelper  10033890 f   libvcruntimed:frame.obj
 0001:000328b0       ___TypeMatch               100338b0 f   libvcruntimed:frame.obj
 0001:000328d0       ___vcrt_EncodePointer      100338d0 f i libvcruntimed:frame.obj
 0001:000328e0       __CallSettingFrame@12      100338e0 f   libvcruntimed:lowhelpr.obj
 0001:00032907       __NLG_Return               10033907     libvcruntimed:lowhelpr.obj
 0001:00032930       ??$?0$00@DName@@QAE@PBDU?$StringLifeSelector@$00@@@Z 10033930 f i libvcruntimed:undname.obj
 0001:00032980       ??$?0$00@pcharNode@@QAE@PBDHU?$StringLifeSelector@$00@@@Z 10033980 f i libvcruntimed:undname.obj
 0001:000329c0       ??$?0$01@DName@@QAE@PBDU?$StringLifeSelector@$01@@@Z 100339c0 f i libvcruntimed:undname.obj
 0001:00032a10       ??$?0$01@pcharNode@@QAE@PBDHU?$StringLifeSelector@$01@@@Z 10033a10 f i libvcruntimed:undname.obj
 0001:00032a90       ??$?0$0A@@DName@@QAE@PBDU?$StringLifeSelector@$0A@@@@Z 10033a90 f i libvcruntimed:undname.obj
 0001:00032ae0       ??$?0$0A@@pcharNode@@QAE@PBDHU?$StringLifeSelector@$0A@@@@Z 10033ae0 f i libvcruntimed:undname.obj
 0001:00032b60       ??$?0_K$0A@@?$optional@_K@std@@QAE@$$QA_K@Z 10033b60 f i libvcruntimed:undname.obj
 0001:00032ba0       ??$?0_K@?$_Optional_construct_base@_K@std@@QAE@Uin_place_t@1@$$QA_K@Z 10033ba0 f i libvcruntimed:undname.obj
 0001:00032bd0       ??$?0_K@?$_Optional_destruct_base@_K$00@std@@QAE@Uin_place_t@1@$$QA_K@Z 10033bd0 f i libvcruntimed:undname.obj
 0001:00032c00       ??$append@VDNameNode@@@DName@@AAEXPBVDNameNode@@@Z 10033c00 f i libvcruntimed:undname.obj
 0001:00032c90       ??$append@VDNameStatusNode@@@DName@@AAEXPBVDNameStatusNode@@@Z 10033c90 f i libvcruntimed:undname.obj
 0001:00032d20       ??$append@VcharNode@@@DName@@AAEXPBVcharNode@@@Z 10033d20 f i libvcruntimed:undname.obj
 0001:00032db0       ??$append@VpDNameNode@@@DName@@AAEXPBVpDNameNode@@@Z 10033db0 f i libvcruntimed:undname.obj
 0001:00032e40       ??$append@VpcharNode@@@DName@@AAEXPBVpcharNode@@@Z 10033e40 f i libvcruntimed:undname.obj
 0001:00032ed0       ??$doPchar@$00@DName@@AAEXPBDH@Z 10033ed0 f i libvcruntimed:undname.obj
 0001:00032fe0       ??$doPchar@$01@DName@@AAEXPBDH@Z 10033fe0 f i libvcruntimed:undname.obj
 0001:000330f0       ??$doPchar@$0A@@DName@@AAEXPBDH@Z 100340f0 f i libvcruntimed:undname.obj
 0001:00033200       ??$forward@_K@std@@YA$$QA_KAA_K@Z 10034200 f i libvcruntimed:undname.obj
 0001:00033210       ??$size@D$04@std@@YAIAAY04$$CBD@Z 10034210 f i libvcruntimed:undname.obj
 0001:00033220       ??$size@D$0EB@@std@@YAIAAY0EB@$$CBD@Z 10034220 f i libvcruntimed:undname.obj
 0001:00033230       ??0?$_Optional_construct_base@_K@std@@QAE@XZ 10034230 f i libvcruntimed:undname.obj
 0001:00033250       ??0?$_Optional_destruct_base@_K$00@std@@QAE@XZ 10034250 f i libvcruntimed:undname.obj
 0001:00033270       ??0?$optional@_K@std@@QAE@XZ 10034270 f i libvcruntimed:undname.obj
 0001:00033290       ??0Block@_HeapManager@@QAE@XZ 10034290 f i libvcruntimed:undname.obj
 0001:000332b0       ??0DName@@QAE@AAPBDD@Z     100342b0 f   libvcruntimed:undname.obj
 0001:00033420       ??0DName@@QAE@ABUStringLiteral@@@Z 10034420 f   libvcruntimed:undname.obj
 0001:00033470       ??0DName@@QAE@ABV0@@Z      10034470 f i libvcruntimed:undname.obj
 0001:000334a0       ??0DName@@QAE@D@Z          100344a0 f   libvcruntimed:undname.obj
 0001:000334d0       ??0DName@@QAE@PAV0@@Z      100344d0 f   libvcruntimed:undname.obj
 0001:00033580       ??0DName@@QAE@W4DNameStatus@@@Z 10034580 f   libvcruntimed:undname.obj
 0001:00033620       ??0DName@@QAE@XZ           10034620 f i libvcruntimed:undname.obj
 0001:00033650       ??0DName@@QAE@_J@Z         10034650 f   libvcruntimed:undname.obj
 0001:00033740       ??0DName@@QAE@_K@Z         10034740 f   libvcruntimed:undname.obj
 0001:000337f0       ??0DNameNode@@IAE@XZ       100347f0 f i libvcruntimed:undname.obj
 0001:00033810       ??0Replicator@@QAE@XZ      10034810 f i libvcruntimed:undname.obj
 0001:00033850       ??0UnDecorator@@QAE@PBDP6APADJ@ZK@Z 10034850 f i libvcruntimed:undname.obj
 0001:000338d0       ??0_Nontrivial_dummy_type@std@@QAE@XZ 100348d0 f i libvcruntimed:undname.obj
 0001:000338e0       ??0charNode@@QAE@D@Z       100348e0 f i libvcruntimed:undname.obj
 0001:00033910       ??0pDNameNode@@QAE@PAVDName@@@Z 10034910 f   libvcruntimed:undname.obj
 0001:00033970       ??0pairNode@@QAE@PBVDNameNode@@0@Z 10034970 f i libvcruntimed:undname.obj
 0001:000339d0       ??2@YAPAXIAAV_HeapManager@@H@Z 100349d0 f   libvcruntimed:undname.obj
 0001:00033a10       ??4DName@@QAEAAV0@ABUStringLiteral@@@Z 10034a10 f   libvcruntimed:undname.obj
 0001:00033a50       ??4DName@@QAEAAV0@ABV0@@Z  10034a50 f   libvcruntimed:undname.obj
 0001:00033a80       ??4DName@@QAEAAV0@D@Z      10034a80 f i libvcruntimed:undname.obj
 0001:00033ab0       ??4DName@@QAEAAV0@PAV0@@Z  10034ab0 f   libvcruntimed:undname.obj
 0001:00033b50       ??4DName@@QAEAAV0@W4DNameStatus@@@Z 10034b50 f   libvcruntimed:undname.obj
 0001:00033bd0       ??AReplicator@@QBE?AVDName@@H@Z 10034bd0 f   libvcruntimed:undname.obj
 0001:00033c40       ??B?$optional@_K@std@@QBE_NXZ 10034c40 f i libvcruntimed:undname.obj
 0001:00033c60       ??D?$optional@_K@std@@QGAEAA_KXZ 10034c60 f i libvcruntimed:undname.obj
 0001:00033c70       ??H@YA?AVDName@@ABUStringLiteral@@ABV0@@Z 10034c70 f i libvcruntimed:undname.obj
 0001:00033ca0       ??H@YA?AVDName@@DABV0@@Z   10034ca0 f i libvcruntimed:undname.obj
 0001:00033cd0       ??H@YA?AVDName@@W4DNameStatus@@ABV0@@Z 10034cd0 f i libvcruntimed:undname.obj
 0001:00033d00       ??HDName@@QBE?AV0@ABUStringLiteral@@@Z 10034d00 f   libvcruntimed:undname.obj
 0001:00033d40       ??HDName@@QBE?AV0@ABV0@@Z  10034d40 f   libvcruntimed:undname.obj
 0001:00033d80       ??HDName@@QBE?AV0@D@Z      10034d80 f   libvcruntimed:undname.obj
 0001:00033dc0       ??HDName@@QBE?AV0@PAV0@@Z  10034dc0 f   libvcruntimed:undname.obj
 0001:00033e00       ??HDName@@QBE?AV0@W4DNameStatus@@@Z 10034e00 f   libvcruntimed:undname.obj
 0001:00033e40       ??HStringLiteral@@QBE?AU0@H@Z 10034e40 f i libvcruntimed:undname.obj
 0001:00033e70       ??YDName@@QAEAAV0@ABUStringLiteral@@@Z 10034e70 f   libvcruntimed:undname.obj
 0001:00033f10       ??YDName@@QAEAAV0@ABV0@@Z  10034f10 f   libvcruntimed:undname.obj
 0001:00033fb0       ??YDName@@QAEAAV0@D@Z      10034fb0 f   libvcruntimed:undname.obj
 0001:00034030       ??YDName@@QAEAAV0@PAV0@@Z  10035030 f   libvcruntimed:undname.obj
 0001:000340e0       ??YDName@@QAEAAV0@W4DNameStatus@@@Z 100350e0 f   libvcruntimed:undname.obj
 0001:00034140       ??YReplicator@@QAEAAV0@ABVDName@@@Z 10035140 f   libvcruntimed:undname.obj
 0001:000341d0       ??_5DName@@QAEAAV0@ABV0@@Z 100351d0 f   libvcruntimed:undname.obj
 0001:00034230       ??__K_l@@YA?AUStringLiteral@@PBDI@Z 10035230 f i libvcruntimed:undname.obj
 0001:00034250       ?Constructor@_HeapManager@@QAEXP6APAXI@ZP6AXPAX@Z@Z 10035250 f i libvcruntimed:undname.obj
 0001:00034290       ?Destructor@_HeapManager@@QAEXXZ 10035290 f i libvcruntimed:undname.obj
 0001:00034300       ?UScore@UnDecorator@@SA?AUStringLiteral@@W4Tokens@@@Z 10035300 f   libvcruntimed:undname.obj
 0001:00034350       ?composeDeclaration@UnDecorator@@CA?AVDName@@ABV2@@Z 10035350 f i libvcruntimed:undname.obj
 0001:000362c0       ?dbGetString@DName@@QBEPADXZ 100372c0 f   libvcruntimed:undname.obj
 0001:000362e0       ?doAccessSpecifiers@UnDecorator@@SAHXZ 100372e0 f i libvcruntimed:undname.obj
 0001:00036310       ?doAllocationLanguage@UnDecorator@@SAHXZ 10037310 f i libvcruntimed:undname.obj
 0001:00036340       ?doAllocationModel@UnDecorator@@SAHXZ 10037340 f i libvcruntimed:undname.obj
 0001:00036370       ?doEcsu@UnDecorator@@SAHXZ 10037370 f i libvcruntimed:undname.obj
 0001:000363a0       ?doEllipsis@UnDecorator@@SAHXZ 100373a0 f i libvcruntimed:undname.obj
 0001:000363d0       ?doFunctionReturns@UnDecorator@@SAHXZ 100373d0 f i libvcruntimed:undname.obj
 0001:00036400       ?doMSKeywords@UnDecorator@@SAHXZ 10037400 f i libvcruntimed:undname.obj
 0001:00036430       ?doMemberTypes@UnDecorator@@SAHXZ 10037430 f i libvcruntimed:undname.obj
 0001:00036460       ?doNameOnly@UnDecorator@@SAHXZ 10037460 f i libvcruntimed:undname.obj
 0001:00036470       ?doNoIdentCharCheck@UnDecorator@@SAHXZ 10037470 f i libvcruntimed:undname.obj
 0001:00036480       ?doPchar@DName@@AAEXD@Z    10037480 f   libvcruntimed:undname.obj
 0001:000364f0       ?doPtr64@UnDecorator@@SAHXZ 100374f0 f i libvcruntimed:undname.obj
 0001:00036520       ?doRestrictionSpec@UnDecorator@@SAHXZ 10037520 f i libvcruntimed:undname.obj
 0001:00036550       ?doThisTypes@UnDecorator@@SAHXZ 10037550 f i libvcruntimed:undname.obj
 0001:00036580       ?doThrowTypes@UnDecorator@@SAHXZ 10037580 f i libvcruntimed:undname.obj
 0001:000365b0       ?doTypeOnly@UnDecorator@@SAHXZ 100375b0 f i libvcruntimed:undname.obj
 0001:000365c0       ?doUnderScore@UnDecorator@@SAHXZ 100375c0 f i libvcruntimed:undname.obj
 0001:000365f0       ?getArgumentList@UnDecorator@@CA?AVDName@@XZ 100375f0 f   libvcruntimed:undname.obj
 0001:00036740       ?getArgumentTypes@UnDecorator@@CA?AVDName@@XZ 10037740 f   libvcruntimed:undname.obj
 0001:00036950       ?getArrayObject@UnDecorator@@CA?AVDName@@XZ 10037950 f   libvcruntimed:undname.obj
 0001:00036a30       ?getArrayType@UnDecorator@@CA?AVDName@@ABV2@@Z 10037a30 f i libvcruntimed:undname.obj
 0001:00036cd0       ?getBasedType@UnDecorator@@CA?AVDName@@XZ 10037cd0 f   libvcruntimed:undname.obj
 0001:00036dc0       ?getBasicDataType@UnDecorator@@CA?AVDName@@ABV2@@Z 10037dc0 f   libvcruntimed:undname.obj
 0001:000376d0       ?getCHPEName@UnDecorator@@QAEPADPADH@Z 100386d0 f i libvcruntimed:undname.obj
 0001:00037830       ?getCallIndex@UnDecorator@@CA?AVDName@@XZ 10038830 f i libvcruntimed:undname.obj
 0001:00037850       ?getCallingConvention@UnDecorator@@CA?AVDName@@XZ 10038850 f   libvcruntimed:undname.obj
 0001:00037a90       ?getDataIndirectType@UnDecorator@@CA?AVDName@@ABV2@W4IndirectionKind@@0H@Z 10038a90 f   libvcruntimed:undname.obj
 0001:000383b0       ?getDataIndirectType@UnDecorator@@CA?AVDName@@XZ 100393b0 f i libvcruntimed:undname.obj
 0001:000383f0       ?getDataType@UnDecorator@@CA?AVDName@@PAV2@@Z 100393f0 f   libvcruntimed:undname.obj
 0001:00038530       ?getDecoratedName@UnDecorator@@CA?AVDName@@XZ 10039530 f   libvcruntimed:undname.obj
 0001:00038970       ?getDimension@UnDecorator@@CA?AVDName@@_N@Z 10039970 f   libvcruntimed:undname.obj
 0001:00038bd0       ?getDispatchTarget@UnDecorator@@CA?AVDName@@XZ 10039bd0 f   libvcruntimed:undname.obj
 0001:00038c70       ?getDisplacement@UnDecorator@@CA?AVDName@@XZ 10039c70 f i libvcruntimed:undname.obj
 0001:00038c90       ?getECSUDataType@UnDecorator@@CA?AVDName@@XZ 10039c90 f   libvcruntimed:undname.obj
 0001:00038ef0       ?getECSUName@UnDecorator@@CA?AVDName@@XZ 10039ef0 f i libvcruntimed:undname.obj
 0001:00038f10       ?getEnumType@UnDecorator@@CA?AVDName@@XZ 10039f10 f i libvcruntimed:undname.obj
 0001:000390c0       ?getExtendedDataIndirectType@UnDecorator@@CA?AVDName@@AAW4IndirectionKind@@AA_NH@Z 1003a0c0 f   libvcruntimed:undname.obj
 0001:00039310       ?getExternalDataType@UnDecorator@@CA?AVDName@@ABV2@@Z 1003a310 f i libvcruntimed:undname.obj
 0001:000393b0       ?getFloatingPoint@UnDecorator@@CA?AVDName@@H@Z 1003a3b0 f   libvcruntimed:undname.obj
 0001:00039560       ?getFunctionIndirectType@UnDecorator@@CA?AVDName@@ABV2@@Z 1003a560 f   libvcruntimed:undname.obj
 0001:00039a40       ?getGuardNumber@UnDecorator@@CA?AVDName@@XZ 1003aa40 f i libvcruntimed:undname.obj
 0001:00039a60       ?getLastChar@DName@@QBEDXZ 1003aa60 f i libvcruntimed:undname.obj
 0001:00039aa0       ?getLastChar@DNameStatusNode@@UBEDXZ 1003aaa0 f i libvcruntimed:undname.obj
 0001:00039ad0       ?getLastChar@charNode@@UBEDXZ 1003aad0 f i libvcruntimed:undname.obj
 0001:00039af0       ?getLastChar@pDNameNode@@UBEDXZ 1003aaf0 f i libvcruntimed:undname.obj
 0001:00039b20       ?getLastChar@pairNode@@UBEDXZ 1003ab20 f i libvcruntimed:undname.obj
 0001:00039b90       ?getLastChar@pcharNode@@UBEDXZ 1003ab90 f i libvcruntimed:undname.obj
 0001:00039bd0       ?getLexicalFrame@UnDecorator@@CA?AVDName@@XZ 1003abd0 f i libvcruntimed:undname.obj
 0001:00039c10       ?getMemoryWithBuffer@_HeapManager@@QAEPAXI@Z 1003ac10 f   libvcruntimed:undname.obj
 0001:00039d00       ?getMemoryWithoutBuffer@_HeapManager@@QAEPAXI@Z 1003ad00 f   libvcruntimed:undname.obj
 0001:00039d40       ?getNoexcept@UnDecorator@@CA?AVDName@@XZ 1003ad40 f   libvcruntimed:undname.obj
 0001:00039dc0       ?getNumberOfDimensions@UnDecorator@@CAHXZ 1003adc0 f   libvcruntimed:undname.obj
 0001:00039ec0       ?getOperatorName@UnDecorator@@CA?AVDName@@_NPA_N@Z 1003aec0 f i libvcruntimed:undname.obj
 0001:0003a9b0       ?getPointerType@UnDecorator@@CA?AVDName@@ABV2@0@Z 1003b9b0 f i libvcruntimed:undname.obj
 0001:0003a9d0       ?getPointerTypeArray@UnDecorator@@CA?AVDName@@ABV2@0@Z 1003b9d0 f i libvcruntimed:undname.obj
 0001:0003a9f0       ?getPrimaryDataType@UnDecorator@@CA?AVDName@@ABV2@@Z 1003b9f0 f   libvcruntimed:undname.obj
 0001:0003ae80       ?getPtrRefDataType@UnDecorator@@CA?AVDName@@ABV2@H@Z 1003be80 f   libvcruntimed:undname.obj
 0001:0003b130       ?getPtrRefType@UnDecorator@@CA?AVDName@@ABV2@0W4IndirectionKind@@@Z 1003c130 f   libvcruntimed:undname.obj
 0001:0003b2b0       ?getReferenceType@UnDecorator@@CA?AVDName@@ABV2@0W4IndirectionKind@@@Z 1003c2b0 f i libvcruntimed:undname.obj
 0001:0003b2d0       ?getRestrictionSpec@UnDecorator@@CA?AVDName@@XZ 1003c2d0 f   libvcruntimed:undname.obj
 0001:0003b490       ?getReturnType@UnDecorator@@CA?AVDName@@PAV2@@Z 1003c490 f   libvcruntimed:undname.obj
 0001:0003b4e0       ?getScope@UnDecorator@@CA?AVDName@@XZ 1003c4e0 f   libvcruntimed:undname.obj
 0001:0003ba70       ?getScopedName@UnDecorator@@CA?AVDName@@XZ 1003ca70 f   libvcruntimed:undname.obj
 0001:0003bbc0       ?getSignedDimension@UnDecorator@@CA?AVDName@@XZ 1003cbc0 f   libvcruntimed:undname.obj
 0001:0003bc40       ?getStorageConvention@UnDecorator@@CA?AVDName@@XZ 1003cc40 f i libvcruntimed:undname.obj
 0001:0003bc60       ?getString@DName@@QBEPADPAD0@Z 1003cc60 f i libvcruntimed:undname.obj
 0001:0003bcc0       ?getString@DName@@QBEPADPADH@Z 1003ccc0 f i libvcruntimed:undname.obj
 0001:0003bd50       ?getString@DNameStatusNode@@UBEPADPAD0@Z 1003cd50 f i libvcruntimed:undname.obj
 0001:0003bd90       ?getString@charNode@@UBEPADPAD0@Z 1003cd90 f i libvcruntimed:undname.obj
 0001:0003bdc0       ?getString@pDNameNode@@UBEPADPAD0@Z 1003cdc0 f i libvcruntimed:undname.obj
 0001:0003be00       ?getString@pairNode@@UBEPADPAD0@Z 1003ce00 f i libvcruntimed:undname.obj
 0001:0003be90       ?getString@pcharNode@@UBEPADPAD0@Z 1003ce90 f i libvcruntimed:undname.obj
 0001:0003bec0       ?getStringEncoding@UnDecorator@@CA?AVDName@@W4PrefixKind@@H@Z 1003cec0 f   libvcruntimed:undname.obj
 0001:0003bfd0       ?getStringHelper@@YAPADPADPBD1H@Z 1003cfd0 f i libvcruntimed:undname.obj
 0001:0003c010       ?getStringObject@UnDecorator@@CA?AVDName@@XZ 1003d010 f   libvcruntimed:undname.obj
 0001:0003c0c0       ?getSymbolName@UnDecorator@@CA?AVDName@@XZ 1003d0c0 f i libvcruntimed:undname.obj
 0001:0003c150       ?getTemplateArgumentList@UnDecorator@@CA?AVDName@@XZ 1003d150 f   libvcruntimed:undname.obj
 0001:0003c440       ?getTemplateName@UnDecorator@@CA?AVDName@@_N@Z 1003d440 f   libvcruntimed:undname.obj
 0001:0003c600       ?getTemplateNonTypeArgument@UnDecorator@@CA?AVDName@@XZ 1003d600 f   libvcruntimed:undname.obj
 0001:0003cb40       ?getTemplateTypeArgument@UnDecorator@@CA?AVDName@@XZ 1003db40 f   libvcruntimed:undname.obj
 0001:0003cce0       ?getThisType@UnDecorator@@CA?AVDName@@XZ 1003dce0 f i libvcruntimed:undname.obj
 0001:0003cd20       ?getThrowTypes@UnDecorator@@CA?AVDName@@XZ 1003dd20 f   libvcruntimed:undname.obj
 0001:0003cd60       ?getTypeEncoding@UnDecorator@@CAHXZ 1003dd60 f i libvcruntimed:undname.obj
 0001:0003d820       ?getUndecoratedName@UnDecorator@@QAEPADPADH@Z 1003e820 f i libvcruntimed:undname.obj
 0001:0003d980       ?getVCallThunkType@UnDecorator@@CA?AVDName@@XZ 1003e980 f i libvcruntimed:undname.obj
 0001:0003da00       ?getValue@UnDecorator@@CA?AV?$optional@_K@std@@XZ 1003ea00 f   libvcruntimed:undname.obj
 0001:0003dac0       ?getValueObject@UnDecorator@@CA?AVDName@@XZ 1003eac0 f   libvcruntimed:undname.obj
 0001:0003dc80       ?getVbTableType@UnDecorator@@CA?AVDName@@ABV2@@Z 1003ec80 f i libvcruntimed:undname.obj
 0001:0003dca0       ?getVdispMapType@UnDecorator@@CA?AVDName@@ABV2@@Z 1003eca0 f i libvcruntimed:undname.obj
 0001:0003dd30       ?getVfTableType@UnDecorator@@CA?AVDName@@ABV2@@Z 1003ed30 f i libvcruntimed:undname.obj
 0001:0003df30       ?getZName@UnDecorator@@CA?AVDName@@_N0@Z 1003ef30 f   libvcruntimed:undname.obj
 0001:0003e270       ?haveTemplateParameters@UnDecorator@@SAHXZ 1003f270 f i libvcruntimed:undname.obj
 0001:0003e280       ?isArray@DName@@QBEHXZ     1003f280 f i libvcruntimed:undname.obj
 0001:0003e2a0       ?isComArray@DName@@QBEHXZ  1003f2a0 f i libvcruntimed:undname.obj
 0001:0003e2c0       ?isEmpty@DName@@QBEHXZ     1003f2c0 f i libvcruntimed:undname.obj
 0001:0003e2f0       ?isFull@Replicator@@QBEHXZ 1003f2f0 f i libvcruntimed:undname.obj
 0001:0003e320       ?isNoTE@DName@@QBEHXZ      1003f320 f i libvcruntimed:undname.obj
 0001:0003e340       ?isPinPtr@DName@@QBEHXZ    1003f340 f i libvcruntimed:undname.obj
 0001:0003e360       ?isPtrRef@DName@@QBEHXZ    1003f360 f i libvcruntimed:undname.obj
 0001:0003e380       ?isUDC@DName@@QBEHXZ       1003f380 f i libvcruntimed:undname.obj
 0001:0003e3c0       ?isUDTThunk@DName@@QBEHXZ  1003f3c0 f i libvcruntimed:undname.obj
 0001:0003e400       ?isVCallThunk@DName@@QBEHXZ 1003f400 f i libvcruntimed:undname.obj
 0001:0003e420       ?isValid@DName@@QBEHXZ     1003f420 f i libvcruntimed:undname.obj
 0001:0003e460       ?length@DName@@QBEHXZ      1003f460 f i libvcruntimed:undname.obj
 0001:0003e4a0       ?length@DNameStatusNode@@UBEHXZ 1003f4a0 f i libvcruntimed:undname.obj
 0001:0003e4c0       ?length@charNode@@UBEHXZ   1003f4c0 f i libvcruntimed:undname.obj
 0001:0003e4d0       ?length@pDNameNode@@UBEHXZ 1003f4d0 f i libvcruntimed:undname.obj
 0001:0003e500       ?length@pairNode@@UBEHXZ   1003f500 f i libvcruntimed:undname.obj
 0001:0003e570       ?length@pcharNode@@UBEHXZ  1003f570 f i libvcruntimed:undname.obj
 0001:0003e590       ?make@DNameStatusNode@@SAPBV1@W4DNameStatus@@@Z 1003f590 f i libvcruntimed:undname.obj
 0001:0003e5c0       ?parseDecoratedName@UnDecorator@@CA?AVDName@@XZ 1003f5c0 f   libvcruntimed:undname.obj
 0001:0003e750       ?raw_length@DNameStatusNode@@UBEHXZ 1003f750 f i libvcruntimed:undname.obj
 0001:0003e770       ?raw_length@charNode@@UBEHXZ 1003f770 f i libvcruntimed:undname.obj
 0001:0003e790       ?raw_length@pDNameNode@@UBEHXZ 1003f790 f i libvcruntimed:undname.obj
 0001:0003e7a0       ?raw_length@pairNode@@UBEHXZ 1003f7a0 f i libvcruntimed:undname.obj
 0001:0003e7c0       ?raw_length@pcharNode@@UBEHXZ 1003f7c0 f i libvcruntimed:undname.obj
 0001:0003e7e0       ?setIsArray@DName@@QAEXXZ  1003f7e0 f i libvcruntimed:undname.obj
 0001:0003e800       ?setIsComArray@DName@@QAEXXZ 1003f800 f i libvcruntimed:undname.obj
 0001:0003e820       ?setIsNoTE@DName@@QAEXXZ   1003f820 f i libvcruntimed:undname.obj
 0001:0003e840       ?setIsPinPtr@DName@@QAEXXZ 1003f840 f i libvcruntimed:undname.obj
 0001:0003e860       ?setIsUDC@DName@@QAEXXZ    1003f860 f i libvcruntimed:undname.obj
 0001:0003e890       ?setIsVCallThunk@DName@@QAEXXZ 1003f890 f i libvcruntimed:undname.obj
 0001:0003e8b0       ?setPtrRef@DName@@QAEAAV1@XZ 1003f8b0 f i libvcruntimed:undname.obj
 0001:0003e8d0       ?status@DName@@QBE?AW4DNameStatus@@XZ 1003f8d0 f i libvcruntimed:undname.obj
 0001:0003e9d0       ___unDName                 1003f9d0 f   libvcruntimed:undname.obj
 0001:0003ea00       ___unDNameEx               1003fa00 f   libvcruntimed:undname.obj
 0001:0003ead0       _unDNameGenerateCHPE       1003fad0 f   libvcruntimed:undname.obj
 0001:0003eb30       __global_unwind2           1003fb30 f   libvcruntimed:exsup.obj
 0001:0003eb96       __local_unwind2            1003fb96 f   libvcruntimed:exsup.obj
 0001:0003ec1a       __abnormal_termination     1003fc1a f   libvcruntimed:exsup.obj
 0001:0003ec40       __NLG_Notify1              1003fc40 f   libvcruntimed:exsup.obj
 0001:0003ec4c       __NLG_Notify               1003fc4c f   libvcruntimed:exsup.obj
 0001:0003ec63       __NLG_Dispatch             1003fc63     libvcruntimed:exsup.obj
 0001:0003ec63       __NLG_Dispatch2            1003fc63     libvcruntimed:exsup.obj
 0001:0003ec6b       __NLG_Call                 1003fc6b f   libvcruntimed:exsup.obj
 0001:0003ec6d       __NLG_Return2              1003fc6d     libvcruntimed:exsup.obj
 0001:0003ec70       ??$__crt_interlocked_exchange_pointer@UHINSTANCE__@@PAU1@@@YAPAUHINSTANCE__@@PDSAU0@QAU0@@Z 1003fc70 f i libvcruntimed:winapi_downlevel.obj
 0001:0003ec80       ??$__crt_interlocked_exchange_pointer@UHINSTANCE__@@PAX@@YAPAUHINSTANCE__@@PDSAU0@QAX@Z 1003fc80 f i libvcruntimed:winapi_downlevel.obj
 0001:0003ec90       ??$__crt_interlocked_exchange_pointer@XPAX@@YAPAXPDSAXQAX@Z 1003fc90 f i libvcruntimed:winapi_downlevel.obj
 0001:0003eca0       ??$__crt_interlocked_read_pointer@UHINSTANCE__@@@@YAPAUHINSTANCE__@@PDSAU0@@Z 1003fca0 f i libvcruntimed:winapi_downlevel.obj
 0001:0003ecc0       ??$__crt_interlocked_read_pointer@X@@YAPAXPDSAX@Z 1003fcc0 f i libvcruntimed:winapi_downlevel.obj
 0001:0003f090       ___vcrt_FlsAlloc           10040090 f   libvcruntimed:winapi_downlevel.obj
 0001:0003f0d0       ___vcrt_FlsFree            100400d0 f   libvcruntimed:winapi_downlevel.obj
 0001:0003f110       ___vcrt_FlsGetValue        10040110 f   libvcruntimed:winapi_downlevel.obj
 0001:0003f150       ___vcrt_FlsSetValue        10040150 f   libvcruntimed:winapi_downlevel.obj
 0001:0003f1a0       ___vcrt_InitializeCriticalSectionEx 100401a0 f   libvcruntimed:winapi_downlevel.obj
 0001:0003f220       __get_unexpected           10040220 f   libvcruntimed:unexpected.obj
 0001:0003f240       _set_unexpected            10040240 f   libvcruntimed:unexpected.obj
 0001:0003f270       _unexpected                10040270 f   libvcruntimed:unexpected.obj
 0001:0003f2b0       ?GetCurrentState@__FrameHandler3@@SAHPAUEHRegistrationNode@@PAXPBU_s_FuncInfo@@@Z 100402b0 f   libvcruntimed:ehstate.obj
 0001:0003f2e0       ?SetState@__FrameHandler3@@SAXPAUEHRegistrationNode@@PBU_s_FuncInfo@@H@Z 100402e0 f   libvcruntimed:ehstate.obj
 0001:0003f2f0       ??$?0ABV?$stream_output_adapter@D@__crt_stdio_output@@AB_KABQBDABQAU__crt_locale_pointers@@ABQAD@?$format_validation_base@DV?$stream_output_adapter@D@__crt_stdio_output@@@__crt_stdio_output@@IAE@ABV?$stream_output_adapter@D@1@AB_KABQBDABQAU__crt_locale_pointers@@ABQAD@Z 100402f0 f i libucrtd:output.obj
 0001:0003f320       ??$?0ABV?$stream_output_adapter@D@__crt_stdio_output@@AB_KABQBDABQAU__crt_locale_pointers@@ABQAD@?$positional_parameter_base@DV?$stream_output_adapter@D@__crt_stdio_output@@@__crt_stdio_output@@IAE@ABV?$stream_output_adapter@D@1@AB_KABQBDABQAU__crt_locale_pointers@@ABQAD@Z 10040320 f i libucrtd:output.obj
 0001:0003f3a0       ??$?0ABV?$stream_output_adapter@D@__crt_stdio_output@@AB_KABQBDABQAU__crt_locale_pointers@@ABQAD@?$standard_base@DV?$stream_output_adapter@D@__crt_stdio_output@@@__crt_stdio_output@@IAE@ABV?$stream_output_adapter@D@1@AB_KABQBDABQAU__crt_locale_pointers@@ABQAD@Z 100403a0 f i libucrtd:output.obj
 0001:0003f3f0       ??$?0ABV?$stream_output_adapter@_W@__crt_stdio_output@@AB_KABQB_WABQAU__crt_locale_pointers@@ABQAD@?$format_validation_base@_WV?$stream_output_adapter@_W@__crt_stdio_output@@@__crt_stdio_output@@IAE@ABV?$stream_output_adapter@_W@1@AB_KABQB_WABQAU__crt_locale_pointers@@ABQAD@Z 100403f0 f i libucrtd:output.obj
 0001:0003f420       ??$?0ABV?$stream_output_adapter@_W@__crt_stdio_output@@AB_KABQB_WABQAU__crt_locale_pointers@@ABQAD@?$positional_parameter_base@_WV?$stream_output_adapter@_W@__crt_stdio_output@@@__crt_stdio_output@@IAE@ABV?$stream_output_adapter@_W@1@AB_KABQB_WABQAU__crt_locale_pointers@@ABQAD@Z 10040420 f i libucrtd:output.obj
 0001:0003f4a0       ??$?0ABV?$stream_output_adapter@_W@__crt_stdio_output@@AB_KABQB_WABQAU__crt_locale_pointers@@ABQAD@?$standard_base@_WV?$stream_output_adapter@_W@__crt_stdio_output@@@__crt_stdio_output@@IAE@ABV?$stream_output_adapter@_W@1@AB_KABQB_WABQAU__crt_locale_pointers@@ABQAD@Z 100404a0 f i libucrtd:output.obj
 0001:0003f4f0       ??$?0ABV?$string_output_adapter@D@__crt_stdio_output@@AB_KABQBDABQAU__crt_locale_pointers@@ABQAD@?$format_validation_base@DV?$string_output_adapter@D@__crt_stdio_output@@@__crt_stdio_output@@IAE@ABV?$string_output_adapter@D@1@AB_KABQBDABQAU__crt_locale_pointers@@ABQAD@Z 100404f0 f i libucrtd:output.obj
 0001:0003f520       ??$?0ABV?$string_output_adapter@D@__crt_stdio_output@@AB_KABQBDABQAU__crt_locale_pointers@@ABQAD@?$positional_parameter_base@DV?$string_output_adapter@D@__crt_stdio_output@@@__crt_stdio_output@@IAE@ABV?$string_output_adapter@D@1@AB_KABQBDABQAU__crt_locale_pointers@@ABQAD@Z 10040520 f i libucrtd:output.obj
 0001:0003f5a0       ??$?0ABV?$string_output_adapter@D@__crt_stdio_output@@AB_KABQBDABQAU__crt_locale_pointers@@ABQAD@?$standard_base@DV?$string_output_adapter@D@__crt_stdio_output@@@__crt_stdio_output@@IAE@ABV?$string_output_adapter@D@1@AB_KABQBDABQAU__crt_locale_pointers@@ABQAD@Z 100405a0 f i libucrtd:output.obj
 0001:0003f5f0       ??$?0ABV?$string_output_adapter@_W@__crt_stdio_output@@AB_KABQB_WABQAU__crt_locale_pointers@@ABQAD@?$format_validation_base@_WV?$string_output_adapter@_W@__crt_stdio_output@@@__crt_stdio_output@@IAE@ABV?$string_output_adapter@_W@1@AB_KABQB_WABQAU__crt_locale_pointers@@ABQAD@Z 100405f0 f i libucrtd:output.obj
 0001:0003f620       ??$?0ABV?$string_output_adapter@_W@__crt_stdio_output@@AB_KABQB_WABQAU__crt_locale_pointers@@ABQAD@?$positional_parameter_base@_WV?$string_output_adapter@_W@__crt_stdio_output@@@__crt_stdio_output@@IAE@ABV?$string_output_adapter@_W@1@AB_KABQB_WABQAU__crt_locale_pointers@@ABQAD@Z 10040620 f i libucrtd:output.obj
 0001:0003f6a0       ??$?0ABV?$string_output_adapter@_W@__crt_stdio_output@@AB_KABQB_WABQAU__crt_locale_pointers@@ABQAD@?$standard_base@_WV?$string_output_adapter@_W@__crt_stdio_output@@@__crt_stdio_output@@IAE@ABV?$string_output_adapter@_W@1@AB_KABQB_WABQAU__crt_locale_pointers@@ABQAD@Z 100406a0 f i libucrtd:output.obj
 0001:0003fbd0       ??$__crt_interlocked_read@J@@YAJPDJ@Z 10040bd0 f i libucrtd:output.obj
 0001:00042970       ??$count@D@formatting_buffer@__crt_stdio_output@@QBEIXZ 10043970 f i libucrtd:output.obj
 0001:000429b0       ??$count@_W@formatting_buffer@__crt_stdio_output@@QBEIXZ 100439b0 f i libucrtd:output.obj
 0001:000429f0       ??$data@D@formatting_buffer@__crt_stdio_output@@QAEPADXZ 100439f0 f i libucrtd:output.obj
 0001:00042a30       ??$data@_W@formatting_buffer@__crt_stdio_output@@QAEPA_WXZ 10043a30 f i libucrtd:output.obj
 0001:00042a70       ??$ensure_buffer_is_big_enough@D@formatting_buffer@__crt_stdio_output@@QAE_NI@Z 10043a70 f i libucrtd:output.obj
 0001:00042b50       ??$ensure_buffer_is_big_enough@_W@formatting_buffer@__crt_stdio_output@@QAE_NI@Z 10043b50 f i libucrtd:output.obj
 0001:00042c40       ??$extract_argument_from_va_list@C_J@?$positional_parameter_base@DV?$stream_output_adapter@D@__crt_stdio_output@@@__crt_stdio_output@@IAE_NAA_J@Z 10043c40 f i libucrtd:output.obj
 0001:00042d80       ??$extract_argument_from_va_list@C_J@?$positional_parameter_base@DV?$string_output_adapter@D@__crt_stdio_output@@@__crt_stdio_output@@IAE_NAA_J@Z 10043d80 f i libucrtd:output.obj
 0001:00042ec0       ??$extract_argument_from_va_list@C_J@?$positional_parameter_base@_WV?$stream_output_adapter@_W@__crt_stdio_output@@@__crt_stdio_output@@IAE_NAA_J@Z 10043ec0 f i libucrtd:output.obj
 0001:00043000       ??$extract_argument_from_va_list@C_J@?$positional_parameter_base@_WV?$string_output_adapter@_W@__crt_stdio_output@@@__crt_stdio_output@@IAE_NAA_J@Z 10044000 f i libucrtd:output.obj
 0001:00043140       ??$extract_argument_from_va_list@C_J@?$standard_base@DV?$stream_output_adapter@D@__crt_stdio_output@@@__crt_stdio_output@@IAE_NAA_J@Z 10044140 f i libucrtd:output.obj
 0001:00043170       ??$extract_argument_from_va_list@C_J@?$standard_base@DV?$string_output_adapter@D@__crt_stdio_output@@@__crt_stdio_output@@IAE_NAA_J@Z 10044170 f i libucrtd:output.obj
 0001:000431a0       ??$extract_argument_from_va_list@C_J@?$standard_base@_WV?$stream_output_adapter@_W@__crt_stdio_output@@@__crt_stdio_output@@IAE_NAA_J@Z 100441a0 f i libucrtd:output.obj
 0001:000431d0       ??$extract_argument_from_va_list@C_J@?$standard_base@_WV?$string_output_adapter@_W@__crt_stdio_output@@@__crt_stdio_output@@IAE_NAA_J@Z 100441d0 f i libucrtd:output.obj
 0001:00043200       ??$extract_argument_from_va_list@E_J@?$positional_parameter_base@DV?$stream_output_adapter@D@__crt_stdio_output@@@__crt_stdio_output@@IAE_NAA_J@Z 10044200 f i libucrtd:output.obj
 0001:00043340       ??$extract_argument_from_va_list@E_J@?$positional_parameter_base@DV?$string_output_adapter@D@__crt_stdio_output@@@__crt_stdio_output@@IAE_NAA_J@Z 10044340 f i libucrtd:output.obj
 0001:00043480       ??$extract_argument_from_va_list@E_J@?$positional_parameter_base@_WV?$stream_output_adapter@_W@__crt_stdio_output@@@__crt_stdio_output@@IAE_NAA_J@Z 10044480 f i libucrtd:output.obj
 0001:000435c0       ??$extract_argument_from_va_list@E_J@?$positional_parameter_base@_WV?$string_output_adapter@_W@__crt_stdio_output@@@__crt_stdio_output@@IAE_NAA_J@Z 100445c0 f i libucrtd:output.obj
 0001:00043700       ??$extract_argument_from_va_list@E_J@?$standard_base@DV?$stream_output_adapter@D@__crt_stdio_output@@@__crt_stdio_output@@IAE_NAA_J@Z 10044700 f i libucrtd:output.obj
 0001:00043730       ??$extract_argument_from_va_list@E_J@?$standard_base@DV?$string_output_adapter@D@__crt_stdio_output@@@__crt_stdio_output@@IAE_NAA_J@Z 10044730 f i libucrtd:output.obj
 0001:00043760       ??$extract_argument_from_va_list@E_J@?$standard_base@_WV?$stream_output_adapter@_W@__crt_stdio_output@@@__crt_stdio_output@@IAE_NAA_J@Z 10044760 f i libucrtd:output.obj
 0001:00043790       ??$extract_argument_from_va_list@E_J@?$standard_base@_WV?$string_output_adapter@_W@__crt_stdio_output@@@__crt_stdio_output@@IAE_NAA_J@Z 10044790 f i libucrtd:output.obj
 0001:000437c0       ??$extract_argument_from_va_list@F_J@?$positional_parameter_base@DV?$stream_output_adapter@D@__crt_stdio_output@@@__crt_stdio_output@@IAE_NAA_J@Z 100447c0 f i libucrtd:output.obj
 0001:000438f0       ??$extract_argument_from_va_list@F_J@?$positional_parameter_base@DV?$string_output_adapter@D@__crt_stdio_output@@@__crt_stdio_output@@IAE_NAA_J@Z 100448f0 f i libucrtd:output.obj
 0001:00043a20       ??$extract_argument_from_va_list@F_J@?$positional_parameter_base@_WV?$stream_output_adapter@_W@__crt_stdio_output@@@__crt_stdio_output@@IAE_NAA_J@Z 10044a20 f i libucrtd:output.obj
 0001:00043b50       ??$extract_argument_from_va_list@F_J@?$positional_parameter_base@_WV?$string_output_adapter@_W@__crt_stdio_output@@@__crt_stdio_output@@IAE_NAA_J@Z 10044b50 f i libucrtd:output.obj
 0001:00043c80       ??$extract_argument_from_va_list@F_J@?$standard_base@DV?$stream_output_adapter@D@__crt_stdio_output@@@__crt_stdio_output@@IAE_NAA_J@Z 10044c80 f i libucrtd:output.obj
 0001:00043cb0       ??$extract_argument_from_va_list@F_J@?$standard_base@DV?$string_output_adapter@D@__crt_stdio_output@@@__crt_stdio_output@@IAE_NAA_J@Z 10044cb0 f i libucrtd:output.obj
 0001:00043ce0       ??$extract_argument_from_va_list@F_J@?$standard_base@_WV?$stream_output_adapter@_W@__crt_stdio_output@@@__crt_stdio_output@@IAE_NAA_J@Z 10044ce0 f i libucrtd:output.obj
 0001:00043d10       ??$extract_argument_from_va_list@F_J@?$standard_base@_WV?$string_output_adapter@_W@__crt_stdio_output@@@__crt_stdio_output@@IAE_NAA_J@Z 10044d10 f i libucrtd:output.obj
 0001:00043d40       ??$extract_argument_from_va_list@GD@?$positional_parameter_base@DV?$stream_output_adapter@D@__crt_stdio_output@@@__crt_stdio_output@@IAE_NAAD@Z 10044d40 f i libucrtd:output.obj
 0001:00043e70       ??$extract_argument_from_va_list@GD@?$positional_parameter_base@DV?$string_output_adapter@D@__crt_stdio_output@@@__crt_stdio_output@@IAE_NAAD@Z 10044e70 f i libucrtd:output.obj
 0001:00043fa0       ??$extract_argument_from_va_list@GD@?$standard_base@DV?$stream_output_adapter@D@__crt_stdio_output@@@__crt_stdio_output@@IAE_NAAD@Z 10044fa0 f i libucrtd:output.obj
 0001:00043fd0       ??$extract_argument_from_va_list@GD@?$standard_base@DV?$string_output_adapter@D@__crt_stdio_output@@@__crt_stdio_output@@IAE_NAAD@Z 10044fd0 f i libucrtd:output.obj
 0001:00044000       ??$extract_argument_from_va_list@G_J@?$positional_parameter_base@DV?$stream_output_adapter@D@__crt_stdio_output@@@__crt_stdio_output@@IAE_NAA_J@Z 10045000 f i libucrtd:output.obj
 0001:00044140       ??$extract_argument_from_va_list@G_J@?$positional_parameter_base@DV?$string_output_adapter@D@__crt_stdio_output@@@__crt_stdio_output@@IAE_NAA_J@Z 10045140 f i libucrtd:output.obj
 0001:00044280       ??$extract_argument_from_va_list@G_J@?$positional_parameter_base@_WV?$stream_output_adapter@_W@__crt_stdio_output@@@__crt_stdio_output@@IAE_NAA_J@Z 10045280 f i libucrtd:output.obj
 0001:000443c0       ??$extract_argument_from_va_list@G_J@?$positional_parameter_base@_WV?$string_output_adapter@_W@__crt_stdio_output@@@__crt_stdio_output@@IAE_NAA_J@Z 100453c0 f i libucrtd:output.obj
 0001:00044500       ??$extract_argument_from_va_list@G_J@?$standard_base@DV?$stream_output_adapter@D@__crt_stdio_output@@@__crt_stdio_output@@IAE_NAA_J@Z 10045500 f i libucrtd:output.obj
 0001:00044530       ??$extract_argument_from_va_list@G_J@?$standard_base@DV?$string_output_adapter@D@__crt_stdio_output@@@__crt_stdio_output@@IAE_NAA_J@Z 10045530 f i libucrtd:output.obj
 0001:00044560       ??$extract_argument_from_va_list@G_J@?$standard_base@_WV?$stream_output_adapter@_W@__crt_stdio_output@@@__crt_stdio_output@@IAE_NAA_J@Z 10045560 f i libucrtd:output.obj
 0001:00044590       ??$extract_argument_from_va_list@G_J@?$standard_base@_WV?$string_output_adapter@_W@__crt_stdio_output@@@__crt_stdio_output@@IAE_NAA_J@Z 10045590 f i libucrtd:output.obj
 0001:000445c0       ??$extract_argument_from_va_list@H_J@?$positional_parameter_base@DV?$stream_output_adapter@D@__crt_stdio_output@@@__crt_stdio_output@@IAE_NAA_J@Z 100455c0 f i libucrtd:output.obj
 0001:000446f0       ??$extract_argument_from_va_list@H_J@?$positional_parameter_base@DV?$string_output_adapter@D@__crt_stdio_output@@@__crt_stdio_output@@IAE_NAA_J@Z 100456f0 f i libucrtd:output.obj
 0001:00044820       ??$extract_argument_from_va_list@H_J@?$positional_parameter_base@_WV?$stream_output_adapter@_W@__crt_stdio_output@@@__crt_stdio_output@@IAE_NAA_J@Z 10045820 f i libucrtd:output.obj
 0001:00044950       ??$extract_argument_from_va_list@H_J@?$positional_parameter_base@_WV?$string_output_adapter@_W@__crt_stdio_output@@@__crt_stdio_output@@IAE_NAA_J@Z 10045950 f i libucrtd:output.obj
 0001:00044a80       ??$extract_argument_from_va_list@H_J@?$standard_base@DV?$stream_output_adapter@D@__crt_stdio_output@@@__crt_stdio_output@@IAE_NAA_J@Z 10045a80 f i libucrtd:output.obj
 0001:00044ab0       ??$extract_argument_from_va_list@H_J@?$standard_base@DV?$string_output_adapter@D@__crt_stdio_output@@@__crt_stdio_output@@IAE_NAA_J@Z 10045ab0 f i libucrtd:output.obj
 0001:00044ae0       ??$extract_argument_from_va_list@H_J@?$standard_base@_WV?$stream_output_adapter@_W@__crt_stdio_output@@@__crt_stdio_output@@IAE_NAA_J@Z 10045ae0 f i libucrtd:output.obj
 0001:00044b10       ??$extract_argument_from_va_list@H_J@?$standard_base@_WV?$string_output_adapter@_W@__crt_stdio_output@@@__crt_stdio_output@@IAE_NAA_J@Z 10045b10 f i libucrtd:output.obj
 0001:00044b40       ??$extract_argument_from_va_list@I_J@?$positional_parameter_base@DV?$stream_output_adapter@D@__crt_stdio_output@@@__crt_stdio_output@@IAE_NAA_J@Z 10045b40 f i libucrtd:output.obj
 0001:00044c70       ??$extract_argument_from_va_list@I_J@?$positional_parameter_base@DV?$string_output_adapter@D@__crt_stdio_output@@@__crt_stdio_output@@IAE_NAA_J@Z 10045c70 f i libucrtd:output.obj
 0001:00044da0       ??$extract_argument_from_va_list@I_J@?$positional_parameter_base@_WV?$stream_output_adapter@_W@__crt_stdio_output@@@__crt_stdio_output@@IAE_NAA_J@Z 10045da0 f i libucrtd:output.obj
 0001:00044ed0       ??$extract_argument_from_va_list@I_J@?$positional_parameter_base@_WV?$string_output_adapter@_W@__crt_stdio_output@@@__crt_stdio_output@@IAE_NAA_J@Z 10045ed0 f i libucrtd:output.obj
 0001:00045000       ??$extract_argument_from_va_list@I_J@?$standard_base@DV?$stream_output_adapter@D@__crt_stdio_output@@@__crt_stdio_output@@IAE_NAA_J@Z 10046000 f i libucrtd:output.obj
 0001:00045030       ??$extract_argument_from_va_list@I_J@?$standard_base@DV?$string_output_adapter@D@__crt_stdio_output@@@__crt_stdio_output@@IAE_NAA_J@Z 10046030 f i libucrtd:output.obj
 0001:00045060       ??$extract_argument_from_va_list@I_J@?$standard_base@_WV?$stream_output_adapter@_W@__crt_stdio_output@@@__crt_stdio_output@@IAE_NAA_J@Z 10046060 f i libucrtd:output.obj
 0001:00045090       ??$extract_argument_from_va_list@I_J@?$standard_base@_WV?$string_output_adapter@_W@__crt_stdio_output@@@__crt_stdio_output@@IAE_NAA_J@Z 10046090 f i libucrtd:output.obj
 0001:000450c0       ??$extract_argument_from_va_list@PADPAD@?$positional_parameter_base@DV?$stream_output_adapter@D@__crt_stdio_output@@@__crt_stdio_output@@IAE_NAAPAD@Z 100460c0 f i libucrtd:output.obj
 0001:000451f0       ??$extract_argument_from_va_list@PADPAD@?$positional_parameter_base@DV?$string_output_adapter@D@__crt_stdio_output@@@__crt_stdio_output@@IAE_NAAPAD@Z 100461f0 f i libucrtd:output.obj
 0001:00045320       ??$extract_argument_from_va_list@PADPAD@?$positional_parameter_base@_WV?$stream_output_adapter@_W@__crt_stdio_output@@@__crt_stdio_output@@IAE_NAAPAD@Z 10046320 f i libucrtd:output.obj
 0001:00045450       ??$extract_argument_from_va_list@PADPAD@?$positional_parameter_base@_WV?$string_output_adapter@_W@__crt_stdio_output@@@__crt_stdio_output@@IAE_NAAPAD@Z 10046450 f i libucrtd:output.obj
 0001:00045580       ??$extract_argument_from_va_list@PADPAD@?$standard_base@DV?$stream_output_adapter@D@__crt_stdio_output@@@__crt_stdio_output@@IAE_NAAPAD@Z 10046580 f i libucrtd:output.obj
 0001:000455b0       ??$extract_argument_from_va_list@PADPAD@?$standard_base@DV?$string_output_adapter@D@__crt_stdio_output@@@__crt_stdio_output@@IAE_NAAPAD@Z 100465b0 f i libucrtd:output.obj
 0001:000455e0       ??$extract_argument_from_va_list@PADPAD@?$standard_base@_WV?$stream_output_adapter@_W@__crt_stdio_output@@@__crt_stdio_output@@IAE_NAAPAD@Z 100465e0 f i libucrtd:output.obj
 0001:00045610       ??$extract_argument_from_va_list@PADPAD@?$standard_base@_WV?$string_output_adapter@_W@__crt_stdio_output@@@__crt_stdio_output@@IAE_NAAPAD@Z 10046610 f i libucrtd:output.obj
 0001:00045640       ??$extract_argument_from_va_list@PAUansi_string@?1??type_case_Z@?$output_processor@DV?$stream_output_adapter@D@__crt_stdio_output@@V?$format_validation_base@DV?$stream_output_adapter@D@__crt_stdio_output@@@2@@__crt_stdio_output@@AAE_NXZ@PAU1?1??234@AAE_NXZ@@?$standard_base@DV?$stream_output_adapter@D@__crt_stdio_output@@@__crt_stdio_output@@IAE_NAAPAUansi_string@?1??type_case_Z@?$output_processor@DV?$stream_output_adapter@D@__crt_stdio_output@@V?$format_validation_base@DV?$stream_output_adapter@D@__crt_stdio_output@@@2@@1@AAE_NXZ@@Z 10046640 f i libucrtd:output.obj
 0001:00045670       ??$extract_argument_from_va_list@PAUansi_string@?1??type_case_Z@?$output_processor@DV?$stream_output_adapter@D@__crt_stdio_output@@V?$positional_parameter_base@DV?$stream_output_adapter@D@__crt_stdio_output@@@2@@__crt_stdio_output@@AAE_NXZ@PAU1?1??234@AAE_NXZ@@?$positional_parameter_base@DV?$stream_output_adapter@D@__crt_stdio_output@@@__crt_stdio_output@@IAE_NAAPAUansi_string@?1??type_case_Z@?$output_processor@DV?$stream_output_adapter@D@__crt_stdio_output@@V?$positional_parameter_base@DV?$stream_output_adapter@D@__crt_stdio_output@@@2@@1@AAE_NXZ@@Z 10046670 f i libucrtd:output.obj
 0001:000457a0       ??$extract_argument_from_va_list@PAUansi_string@?1??type_case_Z@?$output_processor@DV?$stream_output_adapter@D@__crt_stdio_output@@V?$positional_parameter_base@DV?$stream_output_adapter@D@__crt_stdio_output@@@2@@__crt_stdio_output@@AAE_NXZ@PAU1?1??234@AAE_NXZ@@?$standard_base@DV?$stream_output_adapter@D@__crt_stdio_output@@@__crt_stdio_output@@IAE_NAAPAUansi_string@?1??type_case_Z@?$output_processor@DV?$stream_output_adapter@D@__crt_stdio_output@@V?$positional_parameter_base@DV?$stream_output_adapter@D@__crt_stdio_output@@@2@@1@AAE_NXZ@@Z 100467a0 f i libucrtd:output.obj
 0001:000457d0       ??$extract_argument_from_va_list@PAUansi_string@?1??type_case_Z@?$output_processor@DV?$stream_output_adapter@D@__crt_stdio_output@@V?$standard_base@DV?$stream_output_adapter@D@__crt_stdio_output@@@2@@__crt_stdio_output@@AAE_NXZ@PAU1?1??234@AAE_NXZ@@?$standard_base@DV?$stream_output_adapter@D@__crt_stdio_output@@@__crt_stdio_output@@IAE_NAAPAUansi_string@?1??type_case_Z@?$output_processor@DV?$stream_output_adapter@D@__crt_stdio_output@@V?$standard_base@DV?$stream_output_adapter@D@__crt_stdio_output@@@2@@1@AAE_NXZ@@Z 100467d0 f i libucrtd:output.obj
 0001:00045800       ??$extract_argument_from_va_list@PAUansi_string@?1??type_case_Z@?$output_processor@DV?$string_output_adapter@D@__crt_stdio_output@@V?$format_validation_base@DV?$string_output_adapter@D@__crt_stdio_output@@@2@@__crt_stdio_output@@AAE_NXZ@PAU1?1??234@AAE_NXZ@@?$standard_base@DV?$string_output_adapter@D@__crt_stdio_output@@@__crt_stdio_output@@IAE_NAAPAUansi_string@?1??type_case_Z@?$output_processor@DV?$string_output_adapter@D@__crt_stdio_output@@V?$format_validation_base@DV?$string_output_adapter@D@__crt_stdio_output@@@2@@1@AAE_NXZ@@Z 10046800 f i libucrtd:output.obj
 0001:00045830       ??$extract_argument_from_va_list@PAUansi_string@?1??type_case_Z@?$output_processor@DV?$string_output_adapter@D@__crt_stdio_output@@V?$positional_parameter_base@DV?$string_output_adapter@D@__crt_stdio_output@@@2@@__crt_stdio_output@@AAE_NXZ@PAU1?1??234@AAE_NXZ@@?$positional_parameter_base@DV?$string_output_adapter@D@__crt_stdio_output@@@__crt_stdio_output@@IAE_NAAPAUansi_string@?1??type_case_Z@?$output_processor@DV?$string_output_adapter@D@__crt_stdio_output@@V?$positional_parameter_base@DV?$string_output_adapter@D@__crt_stdio_output@@@2@@1@AAE_NXZ@@Z 10046830 f i libucrtd:output.obj
 0001:00045960       ??$extract_argument_from_va_list@PAUansi_string@?1??type_case_Z@?$output_processor@DV?$string_output_adapter@D@__crt_stdio_output@@V?$positional_parameter_base@DV?$string_output_adapter@D@__crt_stdio_output@@@2@@__crt_stdio_output@@AAE_NXZ@PAU1?1??234@AAE_NXZ@@?$standard_base@DV?$string_output_adapter@D@__crt_stdio_output@@@__crt_stdio_output@@IAE_NAAPAUansi_string@?1??type_case_Z@?$output_processor@DV?$string_output_adapter@D@__crt_stdio_output@@V?$positional_parameter_base@DV?$string_output_adapter@D@__crt_stdio_output@@@2@@1@AAE_NXZ@@Z 10046960 f i libucrtd:output.obj
 0001:00045990       ??$extract_argument_from_va_list@PAUansi_string@?1??type_case_Z@?$output_processor@DV?$string_output_adapter@D@__crt_stdio_output@@V?$standard_base@DV?$string_output_adapter@D@__crt_stdio_output@@@2@@__crt_stdio_output@@AAE_NXZ@PAU1?1??234@AAE_NXZ@@?$standard_base@DV?$string_output_adapter@D@__crt_stdio_output@@@__crt_stdio_output@@IAE_NAAPAUansi_string@?1??type_case_Z@?$output_processor@DV?$string_output_adapter@D@__crt_stdio_output@@V?$standard_base@DV?$string_output_adapter@D@__crt_stdio_output@@@2@@1@AAE_NXZ@@Z 10046990 f i libucrtd:output.obj
 0001:000459c0       ??$extract_argument_from_va_list@PAUansi_string@?1??type_case_Z@?$output_processor@_WV?$stream_output_adapter@_W@__crt_stdio_output@@V?$format_validation_base@_WV?$stream_output_adapter@_W@__crt_stdio_output@@@2@@__crt_stdio_output@@AAE_NXZ@PAU1?1??234@AAE_NXZ@@?$standard_base@_WV?$stream_output_adapter@_W@__crt_stdio_output@@@__crt_stdio_output@@IAE_NAAPAUansi_string@?1??type_case_Z@?$output_processor@_WV?$stream_output_adapter@_W@__crt_stdio_output@@V?$format_validation_base@_WV?$stream_output_adapter@_W@__crt_stdio_output@@@2@@1@AAE_NXZ@@Z 100469c0 f i libucrtd:output.obj
 0001:000459f0       ??$extract_argument_from_va_list@PAUansi_string@?1??type_case_Z@?$output_processor@_WV?$stream_output_adapter@_W@__crt_stdio_output@@V?$positional_parameter_base@_WV?$stream_output_adapter@_W@__crt_stdio_output@@@2@@__crt_stdio_output@@AAE_NXZ@PAU1?1??234@AAE_NXZ@@?$positional_parameter_base@_WV?$stream_output_adapter@_W@__crt_stdio_output@@@__crt_stdio_output@@IAE_NAAPAUansi_string@?1??type_case_Z@?$output_processor@_WV?$stream_output_adapter@_W@__crt_stdio_output@@V?$positional_parameter_base@_WV?$stream_output_adapter@_W@__crt_stdio_output@@@2@@1@AAE_NXZ@@Z 100469f0 f i libucrtd:output.obj
 0001:00045b20       ??$extract_argument_from_va_list@PAUansi_string@?1??type_case_Z@?$output_processor@_WV?$stream_output_adapter@_W@__crt_stdio_output@@V?$positional_parameter_base@_WV?$stream_output_adapter@_W@__crt_stdio_output@@@2@@__crt_stdio_output@@AAE_NXZ@PAU1?1??234@AAE_NXZ@@?$standard_base@_WV?$stream_output_adapter@_W@__crt_stdio_output@@@__crt_stdio_output@@IAE_NAAPAUansi_string@?1??type_case_Z@?$output_processor@_WV?$stream_output_adapter@_W@__crt_stdio_output@@V?$positional_parameter_base@_WV?$stream_output_adapter@_W@__crt_stdio_output@@@2@@1@AAE_NXZ@@Z 10046b20 f i libucrtd:output.obj
 0001:00045b50       ??$extract_argument_from_va_list@PAUansi_string@?1??type_case_Z@?$output_processor@_WV?$stream_output_adapter@_W@__crt_stdio_output@@V?$standard_base@_WV?$stream_output_adapter@_W@__crt_stdio_output@@@2@@__crt_stdio_output@@AAE_NXZ@PAU1?1??234@AAE_NXZ@@?$standard_base@_WV?$stream_output_adapter@_W@__crt_stdio_output@@@__crt_stdio_output@@IAE_NAAPAUansi_string@?1??type_case_Z@?$output_processor@_WV?$stream_output_adapter@_W@__crt_stdio_output@@V?$standard_base@_WV?$stream_output_adapter@_W@__crt_stdio_output@@@2@@1@AAE_NXZ@@Z 10046b50 f i libucrtd:output.obj
 0001:00045b80       ??$extract_argument_from_va_list@PAUansi_string@?1??type_case_Z@?$output_processor@_WV?$string_output_adapter@_W@__crt_stdio_output@@V?$format_validation_base@_WV?$string_output_adapter@_W@__crt_stdio_output@@@2@@__crt_stdio_output@@AAE_NXZ@PAU1?1??234@AAE_NXZ@@?$standard_base@_WV?$string_output_adapter@_W@__crt_stdio_output@@@__crt_stdio_output@@IAE_NAAPAUansi_string@?1??type_case_Z@?$output_processor@_WV?$string_output_adapter@_W@__crt_stdio_output@@V?$format_validation_base@_WV?$string_output_adapter@_W@__crt_stdio_output@@@2@@1@AAE_NXZ@@Z 10046b80 f i libucrtd:output.obj
 0001:00045bb0       ??$extract_argument_from_va_list@PAUansi_string@?1??type_case_Z@?$output_processor@_WV?$string_output_adapter@_W@__crt_stdio_output@@V?$positional_parameter_base@_WV?$string_output_adapter@_W@__crt_stdio_output@@@2@@__crt_stdio_output@@AAE_NXZ@PAU1?1??234@AAE_NXZ@@?$positional_parameter_base@_WV?$string_output_adapter@_W@__crt_stdio_output@@@__crt_stdio_output@@IAE_NAAPAUansi_string@?1??type_case_Z@?$output_processor@_WV?$string_output_adapter@_W@__crt_stdio_output@@V?$positional_parameter_base@_WV?$string_output_adapter@_W@__crt_stdio_output@@@2@@1@AAE_NXZ@@Z 10046bb0 f i libucrtd:output.obj
 0001:00045ce0       ??$extract_argument_from_va_list@PAUansi_string@?1??type_case_Z@?$output_processor@_WV?$string_output_adapter@_W@__crt_stdio_output@@V?$positional_parameter_base@_WV?$string_output_adapter@_W@__crt_stdio_output@@@2@@__crt_stdio_output@@AAE_NXZ@PAU1?1??234@AAE_NXZ@@?$standard_base@_WV?$string_output_adapter@_W@__crt_stdio_output@@@__crt_stdio_output@@IAE_NAAPAUansi_string@?1??type_case_Z@?$output_processor@_WV?$string_output_adapter@_W@__crt_stdio_output@@V?$positional_parameter_base@_WV?$string_output_adapter@_W@__crt_stdio_output@@@2@@1@AAE_NXZ@@Z 10046ce0 f i libucrtd:output.obj
 0001:00045d10       ??$extract_argument_from_va_list@PAUansi_string@?1??type_case_Z@?$output_processor@_WV?$string_output_adapter@_W@__crt_stdio_output@@V?$standard_base@_WV?$string_output_adapter@_W@__crt_stdio_output@@@2@@__crt_stdio_output@@AAE_NXZ@PAU1?1??234@AAE_NXZ@@?$standard_base@_WV?$string_output_adapter@_W@__crt_stdio_output@@@__crt_stdio_output@@IAE_NAAPAUansi_string@?1??type_case_Z@?$output_processor@_WV?$string_output_adapter@_W@__crt_stdio_output@@V?$standard_base@_WV?$string_output_adapter@_W@__crt_stdio_output@@@2@@1@AAE_NXZ@@Z 10046d10 f i libucrtd:output.obj
 0001:00045d40       ??$extract_argument_from_va_list@PAXPAX@?$positional_parameter_base@DV?$stream_output_adapter@D@__crt_stdio_output@@@__crt_stdio_output@@IAE_NAAPAX@Z 10046d40 f i libucrtd:output.obj
 0001:00045e70       ??$extract_argument_from_va_list@PAXPAX@?$positional_parameter_base@DV?$string_output_adapter@D@__crt_stdio_output@@@__crt_stdio_output@@IAE_NAAPAX@Z 10046e70 f i libucrtd:output.obj
 0001:00045fa0       ??$extract_argument_from_va_list@PAXPAX@?$positional_parameter_base@_WV?$stream_output_adapter@_W@__crt_stdio_output@@@__crt_stdio_output@@IAE_NAAPAX@Z 10046fa0 f i libucrtd:output.obj
 0001:000460d0       ??$extract_argument_from_va_list@PAXPAX@?$positional_parameter_base@_WV?$string_output_adapter@_W@__crt_stdio_output@@@__crt_stdio_output@@IAE_NAAPAX@Z 100470d0 f i libucrtd:output.obj
 0001:00046200       ??$extract_argument_from_va_list@PAXPAX@?$standard_base@DV?$stream_output_adapter@D@__crt_stdio_output@@@__crt_stdio_output@@IAE_NAAPAX@Z 10047200 f i libucrtd:output.obj
 0001:00046230       ??$extract_argument_from_va_list@PAXPAX@?$standard_base@DV?$string_output_adapter@D@__crt_stdio_output@@@__crt_stdio_output@@IAE_NAAPAX@Z 10047230 f i libucrtd:output.obj
 0001:00046260       ??$extract_argument_from_va_list@PAXPAX@?$standard_base@_WV?$stream_output_adapter@_W@__crt_stdio_output@@@__crt_stdio_output@@IAE_NAAPAX@Z 10047260 f i libucrtd:output.obj
 0001:00046290       ??$extract_argument_from_va_list@PAXPAX@?$standard_base@_WV?$string_output_adapter@_W@__crt_stdio_output@@@__crt_stdio_output@@IAE_NAAPAX@Z 10047290 f i libucrtd:output.obj
 0001:000462c0       ??$extract_argument_from_va_list@U_CRT_DOUBLE@@U1@@?$positional_parameter_base@DV?$stream_output_adapter@D@__crt_stdio_output@@@__crt_stdio_output@@IAE_NAAU_CRT_DOUBLE@@@Z 100472c0 f i libucrtd:output.obj
 0001:00046420       ??$extract_argument_from_va_list@U_CRT_DOUBLE@@U1@@?$positional_parameter_base@DV?$string_output_adapter@D@__crt_stdio_output@@@__crt_stdio_output@@IAE_NAAU_CRT_DOUBLE@@@Z 10047420 f i libucrtd:output.obj
 0001:00046580       ??$extract_argument_from_va_list@U_CRT_DOUBLE@@U1@@?$positional_parameter_base@_WV?$stream_output_adapter@_W@__crt_stdio_output@@@__crt_stdio_output@@IAE_NAAU_CRT_DOUBLE@@@Z 10047580 f i libucrtd:output.obj
 0001:000466e0       ??$extract_argument_from_va_list@U_CRT_DOUBLE@@U1@@?$positional_parameter_base@_WV?$string_output_adapter@_W@__crt_stdio_output@@@__crt_stdio_output@@IAE_NAAU_CRT_DOUBLE@@@Z 100476e0 f i libucrtd:output.obj
 0001:00046840       ??$extract_argument_from_va_list@U_CRT_DOUBLE@@U1@@?$standard_base@DV?$stream_output_adapter@D@__crt_stdio_output@@@__crt_stdio_output@@IAE_NAAU_CRT_DOUBLE@@@Z 10047840 f i libucrtd:output.obj
 0001:00046890       ??$extract_argument_from_va_list@U_CRT_DOUBLE@@U1@@?$standard_base@DV?$string_output_adapter@D@__crt_stdio_output@@@__crt_stdio_output@@IAE_NAAU_CRT_DOUBLE@@@Z 10047890 f i libucrtd:output.obj
 0001:000468e0       ??$extract_argument_from_va_list@U_CRT_DOUBLE@@U1@@?$standard_base@_WV?$stream_output_adapter@_W@__crt_stdio_output@@@__crt_stdio_output@@IAE_NAAU_CRT_DOUBLE@@@Z 100478e0 f i libucrtd:output.obj
 0001:00046930       ??$extract_argument_from_va_list@U_CRT_DOUBLE@@U1@@?$standard_base@_WV?$string_output_adapter@_W@__crt_stdio_output@@@__crt_stdio_output@@IAE_NAAU_CRT_DOUBLE@@@Z 10047930 f i libucrtd:output.obj
 0001:00046980       ??$extract_argument_from_va_list@_J_J@?$positional_parameter_base@DV?$stream_output_adapter@D@__crt_stdio_output@@@__crt_stdio_output@@IAE_NAA_J@Z 10047980 f i libucrtd:output.obj
 0001:00046ab0       ??$extract_argument_from_va_list@_J_J@?$positional_parameter_base@DV?$string_output_adapter@D@__crt_stdio_output@@@__crt_stdio_output@@IAE_NAA_J@Z 10047ab0 f i libucrtd:output.obj
 0001:00046be0       ??$extract_argument_from_va_list@_J_J@?$positional_parameter_base@_WV?$stream_output_adapter@_W@__crt_stdio_output@@@__crt_stdio_output@@IAE_NAA_J@Z 10047be0 f i libucrtd:output.obj
 0001:00046d10       ??$extract_argument_from_va_list@_J_J@?$positional_parameter_base@_WV?$string_output_adapter@_W@__crt_stdio_output@@@__crt_stdio_output@@IAE_NAA_J@Z 10047d10 f i libucrtd:output.obj
 0001:00046e40       ??$extract_argument_from_va_list@_J_J@?$standard_base@DV?$stream_output_adapter@D@__crt_stdio_output@@@__crt_stdio_output@@IAE_NAA_J@Z 10047e40 f i libucrtd:output.obj
 0001:00046e70       ??$extract_argument_from_va_list@_J_J@?$standard_base@DV?$string_output_adapter@D@__crt_stdio_output@@@__crt_stdio_output@@IAE_NAA_J@Z 10047e70 f i libucrtd:output.obj
 0001:00046ea0       ??$extract_argument_from_va_list@_J_J@?$standard_base@_WV?$stream_output_adapter@_W@__crt_stdio_output@@@__crt_stdio_output@@IAE_NAA_J@Z 10047ea0 f i libucrtd:output.obj
 0001:00046ed0       ??$extract_argument_from_va_list@_J_J@?$standard_base@_WV?$string_output_adapter@_W@__crt_stdio_output@@@__crt_stdio_output@@IAE_NAA_J@Z 10047ed0 f i libucrtd:output.obj
 0001:00046f00       ??$extract_argument_from_va_list@_K_J@?$positional_parameter_base@DV?$stream_output_adapter@D@__crt_stdio_output@@@__crt_stdio_output@@IAE_NAA_J@Z 10047f00 f i libucrtd:output.obj
 0001:00047030       ??$extract_argument_from_va_list@_K_J@?$positional_parameter_base@DV?$string_output_adapter@D@__crt_stdio_output@@@__crt_stdio_output@@IAE_NAA_J@Z 10048030 f i libucrtd:output.obj
 0001:00047160       ??$extract_argument_from_va_list@_K_J@?$positional_parameter_base@_WV?$stream_output_adapter@_W@__crt_stdio_output@@@__crt_stdio_output@@IAE_NAA_J@Z 10048160 f i libucrtd:output.obj
 0001:00047290       ??$extract_argument_from_va_list@_K_J@?$positional_parameter_base@_WV?$string_output_adapter@_W@__crt_stdio_output@@@__crt_stdio_output@@IAE_NAA_J@Z 10048290 f i libucrtd:output.obj
 0001:000473c0       ??$extract_argument_from_va_list@_K_J@?$standard_base@DV?$stream_output_adapter@D@__crt_stdio_output@@@__crt_stdio_output@@IAE_NAA_J@Z 100483c0 f i libucrtd:output.obj
 0001:000473f0       ??$extract_argument_from_va_list@_K_J@?$standard_base@DV?$string_output_adapter@D@__crt_stdio_output@@@__crt_stdio_output@@IAE_NAA_J@Z 100483f0 f i libucrtd:output.obj
 0001:00047420       ??$extract_argument_from_va_list@_K_J@?$standard_base@_WV?$stream_output_adapter@_W@__crt_stdio_output@@@__crt_stdio_output@@IAE_NAA_J@Z 10048420 f i libucrtd:output.obj
 0001:00047450       ??$extract_argument_from_va_list@_K_J@?$standard_base@_WV?$string_output_adapter@_W@__crt_stdio_output@@@__crt_stdio_output@@IAE_NAA_J@Z 10048450 f i libucrtd:output.obj
 0001:00047480       ??$extract_argument_from_va_list@_W_W@?$positional_parameter_base@DV?$stream_output_adapter@D@__crt_stdio_output@@@__crt_stdio_output@@IAE_NAA_W@Z 10048480 f i libucrtd:output.obj
 0001:000475b0       ??$extract_argument_from_va_list@_W_W@?$positional_parameter_base@DV?$string_output_adapter@D@__crt_stdio_output@@@__crt_stdio_output@@IAE_NAA_W@Z 100485b0 f i libucrtd:output.obj
 0001:000476e0       ??$extract_argument_from_va_list@_W_W@?$positional_parameter_base@_WV?$stream_output_adapter@_W@__crt_stdio_output@@@__crt_stdio_output@@IAE_NAA_W@Z 100486e0 f i libucrtd:output.obj
 0001:00047810       ??$extract_argument_from_va_list@_W_W@?$positional_parameter_base@_WV?$string_output_adapter@_W@__crt_stdio_output@@@__crt_stdio_output@@IAE_NAA_W@Z 10048810 f i libucrtd:output.obj
 0001:00047940       ??$extract_argument_from_va_list@_W_W@?$standard_base@DV?$stream_output_adapter@D@__crt_stdio_output@@@__crt_stdio_output@@IAE_NAA_W@Z 10048940 f i libucrtd:output.obj
 0001:00047970       ??$extract_argument_from_va_list@_W_W@?$standard_base@DV?$string_output_adapter@D@__crt_stdio_output@@@__crt_stdio_output@@IAE_NAA_W@Z 10048970 f i libucrtd:output.obj
 0001:000479a0       ??$extract_argument_from_va_list@_W_W@?$standard_base@_WV?$stream_output_adapter@_W@__crt_stdio_output@@@__crt_stdio_output@@IAE_NAA_W@Z 100489a0 f i libucrtd:output.obj
 0001:000479d0       ??$extract_argument_from_va_list@_W_W@?$standard_base@_WV?$string_output_adapter@_W@__crt_stdio_output@@@__crt_stdio_output@@IAE_NAA_W@Z 100489d0 f i libucrtd:output.obj
 0001:00047a00       ??$get_parameter_type@D@?$positional_parameter_base@DV?$stream_output_adapter@D@__crt_stdio_output@@@__crt_stdio_output@@CA?AW4parameter_type@01@PAD@Z 10048a00 f i libucrtd:output.obj
 0001:00047a10       ??$get_parameter_type@D@?$positional_parameter_base@DV?$string_output_adapter@D@__crt_stdio_output@@@__crt_stdio_output@@CA?AW4parameter_type@01@PAD@Z 10048a10 f i libucrtd:output.obj
 0001:00047a20       ??$get_parameter_type@D@?$positional_parameter_base@_WV?$stream_output_adapter@_W@__crt_stdio_output@@@__crt_stdio_output@@CA?AW4parameter_type@01@PAD@Z 10048a20 f i libucrtd:output.obj
 0001:00047a30       ??$get_parameter_type@D@?$positional_parameter_base@_WV?$string_output_adapter@_W@__crt_stdio_output@@@__crt_stdio_output@@CA?AW4parameter_type@01@PAD@Z 10048a30 f i libucrtd:output.obj
 0001:00047a40       ??$get_parameter_type@Uansi_string@?1??type_case_Z@?$output_processor@DV?$stream_output_adapter@D@__crt_stdio_output@@V?$positional_parameter_base@DV?$stream_output_adapter@D@__crt_stdio_output@@@2@@__crt_stdio_output@@AAE_NXZ@@?$positional_parameter_base@DV?$stream_output_adapter@D@__crt_stdio_output@@@__crt_stdio_output@@CA?AW4parameter_type@01@PAUansi_string@?1??type_case_Z@?$output_processor@DV?$stream_output_adapter@D@__crt_stdio_output@@V?$positional_parameter_base@DV?$stream_output_adapter@D@__crt_stdio_output@@@2@@1@AAE_NXZ@@Z 10048a40 f i libucrtd:output.obj
 0001:00047a50       ??$get_parameter_type@Uansi_string@?1??type_case_Z@?$output_processor@DV?$string_output_adapter@D@__crt_stdio_output@@V?$positional_parameter_base@DV?$string_output_adapter@D@__crt_stdio_output@@@2@@__crt_stdio_output@@AAE_NXZ@@?$positional_parameter_base@DV?$string_output_adapter@D@__crt_stdio_output@@@__crt_stdio_output@@CA?AW4parameter_type@01@PAUansi_string@?1??type_case_Z@?$output_processor@DV?$string_output_adapter@D@__crt_stdio_output@@V?$positional_parameter_base@DV?$string_output_adapter@D@__crt_stdio_output@@@2@@1@AAE_NXZ@@Z 10048a50 f i libucrtd:output.obj
 0001:00047a60       ??$get_parameter_type@Uansi_string@?1??type_case_Z@?$output_processor@_WV?$stream_output_adapter@_W@__crt_stdio_output@@V?$positional_parameter_base@_WV?$stream_output_adapter@_W@__crt_stdio_output@@@2@@__crt_stdio_output@@AAE_NXZ@@?$positional_parameter_base@_WV?$stream_output_adapter@_W@__crt_stdio_output@@@__crt_stdio_output@@CA?AW4parameter_type@01@PAUansi_string@?1??type_case_Z@?$output_processor@_WV?$stream_output_adapter@_W@__crt_stdio_output@@V?$positional_parameter_base@_WV?$stream_output_adapter@_W@__crt_stdio_output@@@2@@1@AAE_NXZ@@Z 10048a60 f i libucrtd:output.obj
 0001:00047a70       ??$get_parameter_type@Uansi_string@?1??type_case_Z@?$output_processor@_WV?$string_output_adapter@_W@__crt_stdio_output@@V?$positional_parameter_base@_WV?$string_output_adapter@_W@__crt_stdio_output@@@2@@__crt_stdio_output@@AAE_NXZ@@?$positional_parameter_base@_WV?$string_output_adapter@_W@__crt_stdio_output@@@__crt_stdio_output@@CA?AW4parameter_type@01@PAUansi_string@?1??type_case_Z@?$output_processor@_WV?$string_output_adapter@_W@__crt_stdio_output@@V?$positional_parameter_base@_WV?$string_output_adapter@_W@__crt_stdio_output@@@2@@1@AAE_NXZ@@Z 10048a70 f i libucrtd:output.obj
 0001:00047a80       ??$get_parameter_type@X@?$positional_parameter_base@DV?$stream_output_adapter@D@__crt_stdio_output@@@__crt_stdio_output@@CA?AW4parameter_type@01@PAX@Z 10048a80 f i libucrtd:output.obj
 0001:00047a90       ??$get_parameter_type@X@?$positional_parameter_base@DV?$string_output_adapter@D@__crt_stdio_output@@@__crt_stdio_output@@CA?AW4parameter_type@01@PAX@Z 10048a90 f i libucrtd:output.obj
 0001:00047aa0       ??$get_parameter_type@X@?$positional_parameter_base@_WV?$stream_output_adapter@_W@__crt_stdio_output@@@__crt_stdio_output@@CA?AW4parameter_type@01@PAX@Z 10048aa0 f i libucrtd:output.obj
 0001:00047ab0       ??$get_parameter_type@X@?$positional_parameter_base@_WV?$string_output_adapter@_W@__crt_stdio_output@@@__crt_stdio_output@@CA?AW4parameter_type@01@PAX@Z 10048ab0 f i libucrtd:output.obj
 0001:00047ac0       ??$is_character_specifier@D@?$positional_parameter_base@DV?$stream_output_adapter@D@__crt_stdio_output@@@__crt_stdio_output@@CA_ND@Z 10048ac0 f i libucrtd:output.obj
 0001:00047af0       ??$is_character_specifier@D@?$positional_parameter_base@DV?$string_output_adapter@D@__crt_stdio_output@@@__crt_stdio_output@@CA_ND@Z 10048af0 f i libucrtd:output.obj
 0001:00047b20       ??$is_character_specifier@_W@?$positional_parameter_base@_WV?$stream_output_adapter@_W@__crt_stdio_output@@@__crt_stdio_output@@CA_N_W@Z 10048b20 f i libucrtd:output.obj
 0001:00047b50       ??$is_character_specifier@_W@?$positional_parameter_base@_WV?$string_output_adapter@_W@__crt_stdio_output@@@__crt_stdio_output@@CA_N_W@Z 10048b50 f i libucrtd:output.obj
 0001:00047b80       ??$is_integral_specifier@D@?$positional_parameter_base@DV?$stream_output_adapter@D@__crt_stdio_output@@@__crt_stdio_output@@CA_ND@Z 10048b80 f i libucrtd:output.obj
 0001:00047be0       ??$is_integral_specifier@D@?$positional_parameter_base@DV?$string_output_adapter@D@__crt_stdio_output@@@__crt_stdio_output@@CA_ND@Z 10048be0 f i libucrtd:output.obj
 0001:00047c40       ??$is_integral_specifier@_W@?$positional_parameter_base@_WV?$stream_output_adapter@_W@__crt_stdio_output@@@__crt_stdio_output@@CA_N_W@Z 10048c40 f i libucrtd:output.obj
 0001:00047ca0       ??$is_integral_specifier@_W@?$positional_parameter_base@_WV?$string_output_adapter@_W@__crt_stdio_output@@@__crt_stdio_output@@CA_N_W@Z 10048ca0 f i libucrtd:output.obj
 0001:00047d00       ??$is_pointer_specifier@D@?$positional_parameter_base@DV?$stream_output_adapter@D@__crt_stdio_output@@@__crt_stdio_output@@CA_ND@Z 10048d00 f i libucrtd:output.obj
 0001:00047d30       ??$is_pointer_specifier@D@?$positional_parameter_base@DV?$string_output_adapter@D@__crt_stdio_output@@@__crt_stdio_output@@CA_ND@Z 10048d30 f i libucrtd:output.obj
 0001:00047d60       ??$is_pointer_specifier@_W@?$positional_parameter_base@_WV?$stream_output_adapter@_W@__crt_stdio_output@@@__crt_stdio_output@@CA_N_W@Z 10048d60 f i libucrtd:output.obj
 0001:00047d90       ??$is_pointer_specifier@_W@?$positional_parameter_base@_WV?$string_output_adapter@_W@__crt_stdio_output@@@__crt_stdio_output@@CA_N_W@Z 10048d90 f i libucrtd:output.obj
 0001:00047dc0       ??$is_string_specifier@D@?$positional_parameter_base@DV?$stream_output_adapter@D@__crt_stdio_output@@@__crt_stdio_output@@CA_ND@Z 10048dc0 f i libucrtd:output.obj
 0001:00047df0       ??$is_string_specifier@D@?$positional_parameter_base@DV?$string_output_adapter@D@__crt_stdio_output@@@__crt_stdio_output@@CA_ND@Z 10048df0 f i libucrtd:output.obj
 0001:00047e20       ??$is_string_specifier@_W@?$positional_parameter_base@_WV?$stream_output_adapter@_W@__crt_stdio_output@@@__crt_stdio_output@@CA_N_W@Z 10048e20 f i libucrtd:output.obj
 0001:00047e50       ??$is_string_specifier@_W@?$positional_parameter_base@_WV?$string_output_adapter@_W@__crt_stdio_output@@@__crt_stdio_output@@CA_N_W@Z 10048e50 f i libucrtd:output.obj
 0001:00047e80       ??$is_wide_character_specifier@D@__crt_stdio_output@@YA_N_KDW4length_modifier@0@@Z 10048e80 f i libucrtd:output.obj
 0001:00047f00       ??$is_wide_character_specifier@_W@__crt_stdio_output@@YA_N_K_WW4length_modifier@0@@Z 10048f00 f i libucrtd:output.obj
 0001:00047fc0       ??$peek_va_arg@C@__crt_stdio_output@@YACPAD@Z 10048fc0 f i libucrtd:output.obj
 0001:00047fe0       ??$peek_va_arg@E@__crt_stdio_output@@YAEPAD@Z 10048fe0 f i libucrtd:output.obj
 0001:00048000       ??$peek_va_arg@F@__crt_stdio_output@@YAFPAD@Z 10049000 f i libucrtd:output.obj
 0001:00048020       ??$peek_va_arg@G@__crt_stdio_output@@YAGPAD@Z 10049020 f i libucrtd:output.obj
 0001:00048040       ??$peek_va_arg@H@__crt_stdio_output@@YAHPAD@Z 10049040 f i libucrtd:output.obj
 0001:00048060       ??$peek_va_arg@I@__crt_stdio_output@@YAIPAD@Z 10049060 f i libucrtd:output.obj
 0001:00048080       ??$peek_va_arg@PAD@__crt_stdio_output@@YAPADPAD@Z 10049080 f i libucrtd:output.obj
 0001:000480a0       ??$peek_va_arg@PAUansi_string@?1??type_case_Z@?$output_processor@DV?$stream_output_adapter@D@__crt_stdio_output@@V?$positional_parameter_base@DV?$stream_output_adapter@D@__crt_stdio_output@@@2@@__crt_stdio_output@@AAE_NXZ@@__crt_stdio_output@@YAPAUansi_string@?1??type_case_Z@?$output_processor@DV?$stream_output_adapter@D@__crt_stdio_output@@V?$positional_parameter_base@DV?$stream_output_adapter@D@__crt_stdio_output@@@2@@0@AAE_NXZ@PAD@Z 100490a0 f i libucrtd:output.obj
 0001:000480c0       ??$peek_va_arg@PAUansi_string@?1??type_case_Z@?$output_processor@DV?$string_output_adapter@D@__crt_stdio_output@@V?$positional_parameter_base@DV?$string_output_adapter@D@__crt_stdio_output@@@2@@__crt_stdio_output@@AAE_NXZ@@__crt_stdio_output@@YAPAUansi_string@?1??type_case_Z@?$output_processor@DV?$string_output_adapter@D@__crt_stdio_output@@V?$positional_parameter_base@DV?$string_output_adapter@D@__crt_stdio_output@@@2@@0@AAE_NXZ@PAD@Z 100490c0 f i libucrtd:output.obj
 0001:000480e0       ??$peek_va_arg@PAUansi_string@?1??type_case_Z@?$output_processor@_WV?$stream_output_adapter@_W@__crt_stdio_output@@V?$positional_parameter_base@_WV?$stream_output_adapter@_W@__crt_stdio_output@@@2@@__crt_stdio_output@@AAE_NXZ@@__crt_stdio_output@@YAPAUansi_string@?1??type_case_Z@?$output_processor@_WV?$stream_output_adapter@_W@__crt_stdio_output@@V?$positional_parameter_base@_WV?$stream_output_adapter@_W@__crt_stdio_output@@@2@@0@AAE_NXZ@PAD@Z 100490e0 f i libucrtd:output.obj
 0001:00048100       ??$peek_va_arg@PAUansi_string@?1??type_case_Z@?$output_processor@_WV?$string_output_adapter@_W@__crt_stdio_output@@V?$positional_parameter_base@_WV?$string_output_adapter@_W@__crt_stdio_output@@@2@@__crt_stdio_output@@AAE_NXZ@@__crt_stdio_output@@YAPAUansi_string@?1??type_case_Z@?$output_processor@_WV?$string_output_adapter@_W@__crt_stdio_output@@V?$positional_parameter_base@_WV?$string_output_adapter@_W@__crt_stdio_output@@@2@@0@AAE_NXZ@PAD@Z 10049100 f i libucrtd:output.obj
 0001:00048120       ??$peek_va_arg@PAX@__crt_stdio_output@@YAPAXPAD@Z 10049120 f i libucrtd:output.obj
 0001:00048140       ??$peek_va_arg@U_CRT_DOUBLE@@@__crt_stdio_output@@YA?AU_CRT_DOUBLE@@PAD@Z 10049140 f i libucrtd:output.obj
 0001:00048160       ??$peek_va_arg@_J@__crt_stdio_output@@YA_JPAD@Z 10049160 f i libucrtd:output.obj
 0001:00048180       ??$peek_va_arg@_K@__crt_stdio_output@@YA_KPAD@Z 10049180 f i libucrtd:output.obj
 0001:000481a0       ??$peek_va_arg@_W@__crt_stdio_output@@YA_WPAD@Z 100491a0 f i libucrtd:output.obj
 0001:000481c0       ??$puttc_nolock@ABDPAU_iobuf@@@?$__crt_char_traits@D@@SAHABD$$QAPAU_iobuf@@@Z 100491c0 f i libucrtd:output.obj
 0001:000481e0       ??$puttc_nolock@AB_WPAU_iobuf@@@?$__crt_char_traits@_W@@SAGAB_W$$QAPAU_iobuf@@@Z 100491e0 f i libucrtd:output.obj
 0001:00048200       ??$read_va_arg@C@__crt_stdio_output@@YACAAPAD@Z 10049200 f i libucrtd:output.obj
 0001:00048220       ??$read_va_arg@E@__crt_stdio_output@@YAEAAPAD@Z 10049220 f i libucrtd:output.obj
 0001:00048240       ??$read_va_arg@F@__crt_stdio_output@@YAFAAPAD@Z 10049240 f i libucrtd:output.obj
 0001:00048260       ??$read_va_arg@G@__crt_stdio_output@@YAGAAPAD@Z 10049260 f i libucrtd:output.obj
 0001:00048280       ??$read_va_arg@H@__crt_stdio_output@@YAHAAPAD@Z 10049280 f i libucrtd:output.obj
 0001:000482a0       ??$read_va_arg@I@__crt_stdio_output@@YAIAAPAD@Z 100492a0 f i libucrtd:output.obj
 0001:000482c0       ??$read_va_arg@PAD@__crt_stdio_output@@YAPADAAPAD@Z 100492c0 f i libucrtd:output.obj
 0001:000482e0       ??$read_va_arg@PAUansi_string@?1??type_case_Z@?$output_processor@DV?$stream_output_adapter@D@__crt_stdio_output@@V?$format_validation_base@DV?$stream_output_adapter@D@__crt_stdio_output@@@2@@__crt_stdio_output@@AAE_NXZ@@__crt_stdio_output@@YAPAUansi_string@?1??type_case_Z@?$output_processor@DV?$stream_output_adapter@D@__crt_stdio_output@@V?$format_validation_base@DV?$stream_output_adapter@D@__crt_stdio_output@@@2@@0@AAE_NXZ@AAPAD@Z 100492e0 f i libucrtd:output.obj
 0001:00048300       ??$read_va_arg@PAUansi_string@?1??type_case_Z@?$output_processor@DV?$stream_output_adapter@D@__crt_stdio_output@@V?$positional_parameter_base@DV?$stream_output_adapter@D@__crt_stdio_output@@@2@@__crt_stdio_output@@AAE_NXZ@@__crt_stdio_output@@YAPAUansi_string@?1??type_case_Z@?$output_processor@DV?$stream_output_adapter@D@__crt_stdio_output@@V?$positional_parameter_base@DV?$stream_output_adapter@D@__crt_stdio_output@@@2@@0@AAE_NXZ@AAPAD@Z 10049300 f i libucrtd:output.obj
 0001:00048320       ??$read_va_arg@PAUansi_string@?1??type_case_Z@?$output_processor@DV?$stream_output_adapter@D@__crt_stdio_output@@V?$standard_base@DV?$stream_output_adapter@D@__crt_stdio_output@@@2@@__crt_stdio_output@@AAE_NXZ@@__crt_stdio_output@@YAPAUansi_string@?1??type_case_Z@?$output_processor@DV?$stream_output_adapter@D@__crt_stdio_output@@V?$standard_base@DV?$stream_output_adapter@D@__crt_stdio_output@@@2@@0@AAE_NXZ@AAPAD@Z 10049320 f i libucrtd:output.obj
 0001:00048340       ??$read_va_arg@PAUansi_string@?1??type_case_Z@?$output_processor@DV?$string_output_adapter@D@__crt_stdio_output@@V?$format_validation_base@DV?$string_output_adapter@D@__crt_stdio_output@@@2@@__crt_stdio_output@@AAE_NXZ@@__crt_stdio_output@@YAPAUansi_string@?1??type_case_Z@?$output_processor@DV?$string_output_adapter@D@__crt_stdio_output@@V?$format_validation_base@DV?$string_output_adapter@D@__crt_stdio_output@@@2@@0@AAE_NXZ@AAPAD@Z 10049340 f i libucrtd:output.obj
 0001:00048360       ??$read_va_arg@PAUansi_string@?1??type_case_Z@?$output_processor@DV?$string_output_adapter@D@__crt_stdio_output@@V?$positional_parameter_base@DV?$string_output_adapter@D@__crt_stdio_output@@@2@@__crt_stdio_output@@AAE_NXZ@@__crt_stdio_output@@YAPAUansi_string@?1??type_case_Z@?$output_processor@DV?$string_output_adapter@D@__crt_stdio_output@@V?$positional_parameter_base@DV?$string_output_adapter@D@__crt_stdio_output@@@2@@0@AAE_NXZ@AAPAD@Z 10049360 f i libucrtd:output.obj
 0001:00048380       ??$read_va_arg@PAUansi_string@?1??type_case_Z@?$output_processor@DV?$string_output_adapter@D@__crt_stdio_output@@V?$standard_base@DV?$string_output_adapter@D@__crt_stdio_output@@@2@@__crt_stdio_output@@AAE_NXZ@@__crt_stdio_output@@YAPAUansi_string@?1??type_case_Z@?$output_processor@DV?$string_output_adapter@D@__crt_stdio_output@@V?$standard_base@DV?$string_output_adapter@D@__crt_stdio_output@@@2@@0@AAE_NXZ@AAPAD@Z 10049380 f i libucrtd:output.obj
 0001:000483a0       ??$read_va_arg@PAUansi_string@?1??type_case_Z@?$output_processor@_WV?$stream_output_adapter@_W@__crt_stdio_output@@V?$format_validation_base@_WV?$stream_output_adapter@_W@__crt_stdio_output@@@2@@__crt_stdio_output@@AAE_NXZ@@__crt_stdio_output@@YAPAUansi_string@?1??type_case_Z@?$output_processor@_WV?$stream_output_adapter@_W@__crt_stdio_output@@V?$format_validation_base@_WV?$stream_output_adapter@_W@__crt_stdio_output@@@2@@0@AAE_NXZ@AAPAD@Z 100493a0 f i libucrtd:output.obj
 0001:000483c0       ??$read_va_arg@PAUansi_string@?1??type_case_Z@?$output_processor@_WV?$stream_output_adapter@_W@__crt_stdio_output@@V?$positional_parameter_base@_WV?$stream_output_adapter@_W@__crt_stdio_output@@@2@@__crt_stdio_output@@AAE_NXZ@@__crt_stdio_output@@YAPAUansi_string@?1??type_case_Z@?$output_processor@_WV?$stream_output_adapter@_W@__crt_stdio_output@@V?$positional_parameter_base@_WV?$stream_output_adapter@_W@__crt_stdio_output@@@2@@0@AAE_NXZ@AAPAD@Z 100493c0 f i libucrtd:output.obj
 0001:000483e0       ??$read_va_arg@PAUansi_string@?1??type_case_Z@?$output_processor@_WV?$stream_output_adapter@_W@__crt_stdio_output@@V?$standard_base@_WV?$stream_output_adapter@_W@__crt_stdio_output@@@2@@__crt_stdio_output@@AAE_NXZ@@__crt_stdio_output@@YAPAUansi_string@?1??type_case_Z@?$output_processor@_WV?$stream_output_adapter@_W@__crt_stdio_output@@V?$standard_base@_WV?$stream_output_adapter@_W@__crt_stdio_output@@@2@@0@AAE_NXZ@AAPAD@Z 100493e0 f i libucrtd:output.obj
 0001:00048400       ??$read_va_arg@PAUansi_string@?1??type_case_Z@?$output_processor@_WV?$string_output_adapter@_W@__crt_stdio_output@@V?$format_validation_base@_WV?$string_output_adapter@_W@__crt_stdio_output@@@2@@__crt_stdio_output@@AAE_NXZ@@__crt_stdio_output@@YAPAUansi_string@?1??type_case_Z@?$output_processor@_WV?$string_output_adapter@_W@__crt_stdio_output@@V?$format_validation_base@_WV?$string_output_adapter@_W@__crt_stdio_output@@@2@@0@AAE_NXZ@AAPAD@Z 10049400 f i libucrtd:output.obj
 0001:00048420       ??$read_va_arg@PAUansi_string@?1??type_case_Z@?$output_processor@_WV?$string_output_adapter@_W@__crt_stdio_output@@V?$positional_parameter_base@_WV?$string_output_adapter@_W@__crt_stdio_output@@@2@@__crt_stdio_output@@AAE_NXZ@@__crt_stdio_output@@YAPAUansi_string@?1??type_case_Z@?$output_processor@_WV?$string_output_adapter@_W@__crt_stdio_output@@V?$positional_parameter_base@_WV?$string_output_adapter@_W@__crt_stdio_output@@@2@@0@AAE_NXZ@AAPAD@Z 10049420 f i libucrtd:output.obj
 0001:00048440       ??$read_va_arg@PAUansi_string@?1??type_case_Z@?$output_processor@_WV?$string_output_adapter@_W@__crt_stdio_output@@V?$standard_base@_WV?$string_output_adapter@_W@__crt_stdio_output@@@2@@__crt_stdio_output@@AAE_NXZ@@__crt_stdio_output@@YAPAUansi_string@?1??type_case_Z@?$output_processor@_WV?$string_output_adapter@_W@__crt_stdio_output@@V?$standard_base@_WV?$string_output_adapter@_W@__crt_stdio_output@@@2@@0@AAE_NXZ@AAPAD@Z 10049440 f i libucrtd:output.obj
 0001:00048460       ??$read_va_arg@PAX@__crt_stdio_output@@YAPAXAAPAD@Z 10049460 f i libucrtd:output.obj
 0001:00048480       ??$read_va_arg@U_CRT_DOUBLE@@@__crt_stdio_output@@YA?AU_CRT_DOUBLE@@AAPAD@Z 10049480 f i libucrtd:output.obj
 0001:000484a0       ??$read_va_arg@_J@__crt_stdio_output@@YA_JAAPAD@Z 100494a0 f i libucrtd:output.obj
 0001:000484c0       ??$read_va_arg@_K@__crt_stdio_output@@YA_KAAPAD@Z 100494c0 f i libucrtd:output.obj
 0001:000484e0       ??$read_va_arg@_W@__crt_stdio_output@@YA_WAAPAD@Z 100494e0 f i libucrtd:output.obj
 0001:00048500       ??$scratch_count@D@formatting_buffer@__crt_stdio_output@@QBEIXZ 10049500 f i libucrtd:output.obj
 0001:00048520       ??$scratch_data@D@formatting_buffer@__crt_stdio_output@@QAEPADXZ 10049520 f i libucrtd:output.obj
 0001:00048570       ??$tcstol@AAPBDPAPADH@?$__crt_char_traits@D@@SAJAAPBD$$QAPAPAD$$QAH@Z 10049570 f i libucrtd:output.obj
 0001:000485a0       ??$tcstol@AAPB_WPAPA_WH@?$__crt_char_traits@_W@@SAJAAPB_W$$QAPAPA_W$$QAH@Z 100495a0 f i libucrtd:output.obj
 0001:000485d0       ??$tcstol@PBDPAPADH@?$__crt_char_traits@D@@SAJ$$QAPBD$$QAPAPAD$$QAH@Z 100495d0 f i libucrtd:output.obj
 0001:00048600       ??$tcstol@PB_WPAPA_WH@?$__crt_char_traits@_W@@SAJ$$QAPB_W$$QAPAPA_W$$QAH@Z 10049600 f i libucrtd:output.obj
 0001:00048630       ??$type_case_integer_parse_into_buffer@I@?$output_processor@DV?$stream_output_adapter@D@__crt_stdio_output@@V?$format_validation_base@DV?$stream_output_adapter@D@__crt_stdio_output@@@2@@__crt_stdio_output@@AAEXII_N@Z 10049630 f i libucrtd:output.obj
 0001:00048700       ??$type_case_integer_parse_into_buffer@I@?$output_processor@DV?$stream_output_adapter@D@__crt_stdio_output@@V?$positional_parameter_base@DV?$stream_output_adapter@D@__crt_stdio_output@@@2@@__crt_stdio_output@@AAEXII_N@Z 10049700 f i libucrtd:output.obj
 0001:000487d0       ??$type_case_integer_parse_into_buffer@I@?$output_processor@DV?$stream_output_adapter@D@__crt_stdio_output@@V?$standard_base@DV?$stream_output_adapter@D@__crt_stdio_output@@@2@@__crt_stdio_output@@AAEXII_N@Z 100497d0 f i libucrtd:output.obj
 0001:000488a0       ??$type_case_integer_parse_into_buffer@I@?$output_processor@DV?$string_output_adapter@D@__crt_stdio_output@@V?$format_validation_base@DV?$string_output_adapter@D@__crt_stdio_output@@@2@@__crt_stdio_output@@AAEXII_N@Z 100498a0 f i libucrtd:output.obj
 0001:00048970       ??$type_case_integer_parse_into_buffer@I@?$output_processor@DV?$string_output_adapter@D@__crt_stdio_output@@V?$positional_parameter_base@DV?$string_output_adapter@D@__crt_stdio_output@@@2@@__crt_stdio_output@@AAEXII_N@Z 10049970 f i libucrtd:output.obj
 0001:00048a40       ??$type_case_integer_parse_into_buffer@I@?$output_processor@DV?$string_output_adapter@D@__crt_stdio_output@@V?$standard_base@DV?$string_output_adapter@D@__crt_stdio_output@@@2@@__crt_stdio_output@@AAEXII_N@Z 10049a40 f i libucrtd:output.obj
 0001:00048b10       ??$type_case_integer_parse_into_buffer@I@?$output_processor@_WV?$stream_output_adapter@_W@__crt_stdio_output@@V?$format_validation_base@_WV?$stream_output_adapter@_W@__crt_stdio_output@@@2@@__crt_stdio_output@@AAEXII_N@Z 10049b10 f i libucrtd:output.obj
 0001:00048bf0       ??$type_case_integer_parse_into_buffer@I@?$output_processor@_WV?$stream_output_adapter@_W@__crt_stdio_output@@V?$positional_parameter_base@_WV?$stream_output_adapter@_W@__crt_stdio_output@@@2@@__crt_stdio_output@@AAEXII_N@Z 10049bf0 f i libucrtd:output.obj
 0001:00048cd0       ??$type_case_integer_parse_into_buffer@I@?$output_processor@_WV?$stream_output_adapter@_W@__crt_stdio_output@@V?$standard_base@_WV?$stream_output_adapter@_W@__crt_stdio_output@@@2@@__crt_stdio_output@@AAEXII_N@Z 10049cd0 f i libucrtd:output.obj
 0001:00048db0       ??$type_case_integer_parse_into_buffer@I@?$output_processor@_WV?$string_output_adapter@_W@__crt_stdio_output@@V?$format_validation_base@_WV?$string_output_adapter@_W@__crt_stdio_output@@@2@@__crt_stdio_output@@AAEXII_N@Z 10049db0 f i libucrtd:output.obj
 0001:00048e90       ??$type_case_integer_parse_into_buffer@I@?$output_processor@_WV?$string_output_adapter@_W@__crt_stdio_output@@V?$positional_parameter_base@_WV?$string_output_adapter@_W@__crt_stdio_output@@@2@@__crt_stdio_output@@AAEXII_N@Z 10049e90 f i libucrtd:output.obj
 0001:00048f70       ??$type_case_integer_parse_into_buffer@I@?$output_processor@_WV?$string_output_adapter@_W@__crt_stdio_output@@V?$standard_base@_WV?$string_output_adapter@_W@__crt_stdio_output@@@2@@__crt_stdio_output@@AAEXII_N@Z 10049f70 f i libucrtd:output.obj
 0001:00049050       ??$type_case_integer_parse_into_buffer@_K@?$output_processor@DV?$stream_output_adapter@D@__crt_stdio_output@@V?$format_validation_base@DV?$stream_output_adapter@D@__crt_stdio_output@@@2@@__crt_stdio_output@@AAEX_KI_N@Z 1004a050 f i libucrtd:output.obj
 0001:00049140       ??$type_case_integer_parse_into_buffer@_K@?$output_processor@DV?$stream_output_adapter@D@__crt_stdio_output@@V?$positional_parameter_base@DV?$stream_output_adapter@D@__crt_stdio_output@@@2@@__crt_stdio_output@@AAEX_KI_N@Z 1004a140 f i libucrtd:output.obj
 0001:00049230       ??$type_case_integer_parse_into_buffer@_K@?$output_processor@DV?$stream_output_adapter@D@__crt_stdio_output@@V?$standard_base@DV?$stream_output_adapter@D@__crt_stdio_output@@@2@@__crt_stdio_output@@AAEX_KI_N@Z 1004a230 f i libucrtd:output.obj
 0001:00049320       ??$type_case_integer_parse_into_buffer@_K@?$output_processor@DV?$string_output_adapter@D@__crt_stdio_output@@V?$format_validation_base@DV?$string_output_adapter@D@__crt_stdio_output@@@2@@__crt_stdio_output@@AAEX_KI_N@Z 1004a320 f i libucrtd:output.obj
 0001:00049410       ??$type_case_integer_parse_into_buffer@_K@?$output_processor@DV?$string_output_adapter@D@__crt_stdio_output@@V?$positional_parameter_base@DV?$string_output_adapter@D@__crt_stdio_output@@@2@@__crt_stdio_output@@AAEX_KI_N@Z 1004a410 f i libucrtd:output.obj
 0001:00049500       ??$type_case_integer_parse_into_buffer@_K@?$output_processor@DV?$string_output_adapter@D@__crt_stdio_output@@V?$standard_base@DV?$string_output_adapter@D@__crt_stdio_output@@@2@@__crt_stdio_output@@AAEX_KI_N@Z 1004a500 f i libucrtd:output.obj
 0001:000495f0       ??$type_case_integer_parse_into_buffer@_K@?$output_processor@_WV?$stream_output_adapter@_W@__crt_stdio_output@@V?$format_validation_base@_WV?$stream_output_adapter@_W@__crt_stdio_output@@@2@@__crt_stdio_output@@AAEX_KI_N@Z 1004a5f0 f i libucrtd:output.obj
 0001:000496f0       ??$type_case_integer_parse_into_buffer@_K@?$output_processor@_WV?$stream_output_adapter@_W@__crt_stdio_output@@V?$positional_parameter_base@_WV?$stream_output_adapter@_W@__crt_stdio_output@@@2@@__crt_stdio_output@@AAEX_KI_N@Z 1004a6f0 f i libucrtd:output.obj
 0001:000497f0       ??$type_case_integer_parse_into_buffer@_K@?$output_processor@_WV?$stream_output_adapter@_W@__crt_stdio_output@@V?$standard_base@_WV?$stream_output_adapter@_W@__crt_stdio_output@@@2@@__crt_stdio_output@@AAEX_KI_N@Z 1004a7f0 f i libucrtd:output.obj
 0001:000498f0       ??$type_case_integer_parse_into_buffer@_K@?$output_processor@_WV?$string_output_adapter@_W@__crt_stdio_output@@V?$format_validation_base@_WV?$string_output_adapter@_W@__crt_stdio_output@@@2@@__crt_stdio_output@@AAEX_KI_N@Z 1004a8f0 f i libucrtd:output.obj
 0001:000499f0       ??$type_case_integer_parse_into_buffer@_K@?$output_processor@_WV?$string_output_adapter@_W@__crt_stdio_output@@V?$positional_parameter_base@_WV?$string_output_adapter@_W@__crt_stdio_output@@@2@@__crt_stdio_output@@AAEX_KI_N@Z 1004a9f0 f i libucrtd:output.obj
 0001:00049af0       ??$type_case_integer_parse_into_buffer@_K@?$output_processor@_WV?$string_output_adapter@_W@__crt_stdio_output@@V?$standard_base@_WV?$string_output_adapter@_W@__crt_stdio_output@@@2@@__crt_stdio_output@@AAEX_KI_N@Z 1004aaf0 f i libucrtd:output.obj
 0001:00049bf0       ??$write_multiple_characters@V?$stream_output_adapter@D@__crt_stdio_output@@D@__crt_stdio_output@@YAXABV?$stream_output_adapter@D@0@DHQAH@Z 1004abf0 f i libucrtd:output.obj
 0001:00049c40       ??$write_multiple_characters@V?$stream_output_adapter@_W@__crt_stdio_output@@D@__crt_stdio_output@@YAXABV?$stream_output_adapter@_W@0@DHQAH@Z 1004ac40 f i libucrtd:output.obj
 0001:00049c90       ??$write_multiple_characters@V?$string_output_adapter@D@__crt_stdio_output@@D@__crt_stdio_output@@YAXABV?$string_output_adapter@D@0@DHQAH@Z 1004ac90 f i libucrtd:output.obj
 0001:00049ce0       ??$write_multiple_characters@V?$string_output_adapter@_W@__crt_stdio_output@@D@__crt_stdio_output@@YAXABV?$string_output_adapter@_W@0@DHQAH@Z 1004ace0 f i libucrtd:output.obj
 0001:0004a030       ??0?$common_data@D@__crt_stdio_output@@IAE@XZ 1004b030 f i libucrtd:output.obj
 0001:0004a0e0       ??0?$common_data@_W@__crt_stdio_output@@IAE@XZ 1004b0e0 f i libucrtd:output.obj
 0001:0004a190       ??0?$output_adapter_data@DV?$stream_output_adapter@D@__crt_stdio_output@@@__crt_stdio_output@@IAE@ABV?$stream_output_adapter@D@1@_KQBDQAU__crt_locale_pointers@@QAD@Z 1004b190 f i libucrtd:output.obj
 0001:0004a1f0       ??0?$output_adapter_data@DV?$string_output_adapter@D@__crt_stdio_output@@@__crt_stdio_output@@IAE@ABV?$string_output_adapter@D@1@_KQBDQAU__crt_locale_pointers@@QAD@Z 1004b1f0 f i libucrtd:output.obj
 0001:0004a250       ??0?$output_adapter_data@_WV?$stream_output_adapter@_W@__crt_stdio_output@@@__crt_stdio_output@@IAE@ABV?$stream_output_adapter@_W@1@_KQB_WQAU__crt_locale_pointers@@QAD@Z 1004b250 f i libucrtd:output.obj
 0001:0004a2b0       ??0?$output_adapter_data@_WV?$string_output_adapter@_W@__crt_stdio_output@@@__crt_stdio_output@@IAE@ABV?$string_output_adapter@_W@1@_KQB_WQAU__crt_locale_pointers@@QAD@Z 1004b2b0 f i libucrtd:output.obj
 0001:0004a310       ??0?$output_processor@DV?$stream_output_adapter@D@__crt_stdio_output@@V?$format_validation_base@DV?$stream_output_adapter@D@__crt_stdio_output@@@2@@__crt_stdio_output@@QAE@ABV?$stream_output_adapter@D@1@_KQBDQAU__crt_locale_pointers@@QAD@Z 1004b310 f i libucrtd:output.obj
 0001:0004a340       ??0?$output_processor@DV?$stream_output_adapter@D@__crt_stdio_output@@V?$positional_parameter_base@DV?$stream_output_adapter@D@__crt_stdio_output@@@2@@__crt_stdio_output@@QAE@ABV?$stream_output_adapter@D@1@_KQBDQAU__crt_locale_pointers@@QAD@Z 1004b340 f i libucrtd:output.obj
 0001:0004a370       ??0?$output_processor@DV?$stream_output_adapter@D@__crt_stdio_output@@V?$standard_base@DV?$stream_output_adapter@D@__crt_stdio_output@@@2@@__crt_stdio_output@@QAE@ABV?$stream_output_adapter@D@1@_KQBDQAU__crt_locale_pointers@@QAD@Z 1004b370 f i libucrtd:output.obj
 0001:0004a3a0       ??0?$output_processor@DV?$string_output_adapter@D@__crt_stdio_output@@V?$format_validation_base@DV?$string_output_adapter@D@__crt_stdio_output@@@2@@__crt_stdio_output@@QAE@ABV?$string_output_adapter@D@1@_KQBDQAU__crt_locale_pointers@@QAD@Z 1004b3a0 f i libucrtd:output.obj
 0001:0004a3d0       ??0?$output_processor@DV?$string_output_adapter@D@__crt_stdio_output@@V?$positional_parameter_base@DV?$string_output_adapter@D@__crt_stdio_output@@@2@@__crt_stdio_output@@QAE@ABV?$string_output_adapter@D@1@_KQBDQAU__crt_locale_pointers@@QAD@Z 1004b3d0 f i libucrtd:output.obj
 0001:0004a400       ??0?$output_processor@DV?$string_output_adapter@D@__crt_stdio_output@@V?$standard_base@DV?$string_output_adapter@D@__crt_stdio_output@@@2@@__crt_stdio_output@@QAE@ABV?$string_output_adapter@D@1@_KQBDQAU__crt_locale_pointers@@QAD@Z 1004b400 f i libucrtd:output.obj
 0001:0004a430       ??0?$output_processor@_WV?$stream_output_adapter@_W@__crt_stdio_output@@V?$format_validation_base@_WV?$stream_output_adapter@_W@__crt_stdio_output@@@2@@__crt_stdio_output@@QAE@ABV?$stream_output_adapter@_W@1@_KQB_WQAU__crt_locale_pointers@@QAD@Z 1004b430 f i libucrtd:output.obj
 0001:0004a460       ??0?$output_processor@_WV?$stream_output_adapter@_W@__crt_stdio_output@@V?$positional_parameter_base@_WV?$stream_output_adapter@_W@__crt_stdio_output@@@2@@__crt_stdio_output@@QAE@ABV?$stream_output_adapter@_W@1@_KQB_WQAU__crt_locale_pointers@@QAD@Z 1004b460 f i libucrtd:output.obj
 0001:0004a490       ??0?$output_processor@_WV?$stream_output_adapter@_W@__crt_stdio_output@@V?$standard_base@_WV?$stream_output_adapter@_W@__crt_stdio_output@@@2@@__crt_stdio_output@@QAE@ABV?$stream_output_adapter@_W@1@_KQB_WQAU__crt_locale_pointers@@QAD@Z 1004b490 f i libucrtd:output.obj
 0001:0004a4c0       ??0?$output_processor@_WV?$string_output_adapter@_W@__crt_stdio_output@@V?$format_validation_base@_WV?$string_output_adapter@_W@__crt_stdio_output@@@2@@__crt_stdio_output@@QAE@ABV?$string_output_adapter@_W@1@_KQB_WQAU__crt_locale_pointers@@QAD@Z 1004b4c0 f i libucrtd:output.obj
 0001:0004a4f0       ??0?$output_processor@_WV?$string_output_adapter@_W@__crt_stdio_output@@V?$positional_parameter_base@_WV?$string_output_adapter@_W@__crt_stdio_output@@@2@@__crt_stdio_output@@QAE@ABV?$string_output_adapter@_W@1@_KQB_WQAU__crt_locale_pointers@@QAD@Z 1004b4f0 f i libucrtd:output.obj
 0001:0004a520       ??0?$output_processor@_WV?$string_output_adapter@_W@__crt_stdio_output@@V?$standard_base@_WV?$string_output_adapter@_W@__crt_stdio_output@@@2@@__crt_stdio_output@@QAE@ABV?$string_output_adapter@_W@1@_KQB_WQAU__crt_locale_pointers@@QAD@Z 1004b520 f i libucrtd:output.obj
 0001:0004a550       ??0?$stream_output_adapter@D@__crt_stdio_output@@QAE@QAU_iobuf@@@Z 1004b550 f i libucrtd:output.obj
 0001:0004a570       ??0?$stream_output_adapter@_W@__crt_stdio_output@@QAE@QAU_iobuf@@@Z 1004b570 f i libucrtd:output.obj
 0001:0004a590       ??0?$string_output_adapter@D@__crt_stdio_output@@QAE@QAU?$string_output_adapter_context@D@1@@Z 1004b590 f i libucrtd:output.obj
 0001:0004a5b0       ??0?$string_output_adapter@_W@__crt_stdio_output@@QAE@QAU?$string_output_adapter_context@_W@1@@Z 1004b5b0 f i libucrtd:output.obj
 0001:0004a5d0       ??0_LocaleUpdate@@QAE@QAU__crt_locale_pointers@@@Z 1004b5d0 f i libucrtd:output.obj
 0001:0004a6a0       ??0__acrt_stdio_temporary_buffering_guard@@QAE@QAU_iobuf@@@Z 1004b6a0 f i libucrtd:output.obj
 0001:0004a6d0       ??0__crt_deferred_errno_cache@@QAE@XZ 1004b6d0 f i libucrtd:output.obj
 0001:0004a6f0       ??0__crt_errno_guard@@QAE@QAH@Z 1004b6f0 f i libucrtd:output.obj
 0001:0004a720       ??0__crt_stdio_stream@@QAE@QAU_iobuf@@@Z 1004b720 f i libucrtd:output.obj
 0001:0004a740       ??0formatting_buffer@__crt_stdio_output@@QAE@XZ 1004b740 f i libucrtd:output.obj
 0001:0004a770       ??1?$common_data@D@__crt_stdio_output@@QAE@XZ 1004b770 f i libucrtd:output.obj
 0001:0004a790       ??1?$common_data@_W@__crt_stdio_output@@QAE@XZ 1004b790 f i libucrtd:output.obj
 0001:0004a7b0       ??1?$format_validation_base@DV?$stream_output_adapter@D@__crt_stdio_output@@@__crt_stdio_output@@QAE@XZ 1004b7b0 f i libucrtd:output.obj
 0001:0004a7d0       ??1?$format_validation_base@DV?$string_output_adapter@D@__crt_stdio_output@@@__crt_stdio_output@@QAE@XZ 1004b7d0 f i libucrtd:output.obj
 0001:0004a7f0       ??1?$format_validation_base@_WV?$stream_output_adapter@_W@__crt_stdio_output@@@__crt_stdio_output@@QAE@XZ 1004b7f0 f i libucrtd:output.obj
 0001:0004a810       ??1?$format_validation_base@_WV?$string_output_adapter@_W@__crt_stdio_output@@@__crt_stdio_output@@QAE@XZ 1004b810 f i libucrtd:output.obj
 0001:0004a830       ??1?$output_adapter_data@DV?$stream_output_adapter@D@__crt_stdio_output@@@__crt_stdio_output@@QAE@XZ 1004b830 f i libucrtd:output.obj
 0001:0004a850       ??1?$output_adapter_data@DV?$string_output_adapter@D@__crt_stdio_output@@@__crt_stdio_output@@QAE@XZ 1004b850 f i libucrtd:output.obj
 0001:0004a870       ??1?$output_adapter_data@_WV?$stream_output_adapter@_W@__crt_stdio_output@@@__crt_stdio_output@@QAE@XZ 1004b870 f i libucrtd:output.obj
 0001:0004a890       ??1?$output_adapter_data@_WV?$string_output_adapter@_W@__crt_stdio_output@@@__crt_stdio_output@@QAE@XZ 1004b890 f i libucrtd:output.obj
 0001:0004a8b0       ??1?$output_processor@DV?$stream_output_adapter@D@__crt_stdio_output@@V?$format_validation_base@DV?$stream_output_adapter@D@__crt_stdio_output@@@2@@__crt_stdio_output@@QAE@XZ 1004b8b0 f i libucrtd:output.obj
 0001:0004a8d0       ??1?$output_processor@DV?$stream_output_adapter@D@__crt_stdio_output@@V?$positional_parameter_base@DV?$stream_output_adapter@D@__crt_stdio_output@@@2@@__crt_stdio_output@@QAE@XZ 1004b8d0 f i libucrtd:output.obj
 0001:0004a8f0       ??1?$output_processor@DV?$stream_output_adapter@D@__crt_stdio_output@@V?$standard_base@DV?$stream_output_adapter@D@__crt_stdio_output@@@2@@__crt_stdio_output@@QAE@XZ 1004b8f0 f i libucrtd:output.obj
 0001:0004a910       ??1?$output_processor@DV?$string_output_adapter@D@__crt_stdio_output@@V?$format_validation_base@DV?$string_output_adapter@D@__crt_stdio_output@@@2@@__crt_stdio_output@@QAE@XZ 1004b910 f i libucrtd:output.obj
 0001:0004a930       ??1?$output_processor@DV?$string_output_adapter@D@__crt_stdio_output@@V?$positional_parameter_base@DV?$string_output_adapter@D@__crt_stdio_output@@@2@@__crt_stdio_output@@QAE@XZ 1004b930 f i libucrtd:output.obj
 0001:0004a950       ??1?$output_processor@DV?$string_output_adapter@D@__crt_stdio_output@@V?$standard_base@DV?$string_output_adapter@D@__crt_stdio_output@@@2@@__crt_stdio_output@@QAE@XZ 1004b950 f i libucrtd:output.obj
 0001:0004a970       ??1?$output_processor@_WV?$stream_output_adapter@_W@__crt_stdio_output@@V?$format_validation_base@_WV?$stream_output_adapter@_W@__crt_stdio_output@@@2@@__crt_stdio_output@@QAE@XZ 1004b970 f i libucrtd:output.obj
 0001:0004a990       ??1?$output_processor@_WV?$stream_output_adapter@_W@__crt_stdio_output@@V?$positional_parameter_base@_WV?$stream_output_adapter@_W@__crt_stdio_output@@@2@@__crt_stdio_output@@QAE@XZ 1004b990 f i libucrtd:output.obj
 0001:0004a9b0       ??1?$output_processor@_WV?$stream_output_adapter@_W@__crt_stdio_output@@V?$standard_base@_WV?$stream_output_adapter@_W@__crt_stdio_output@@@2@@__crt_stdio_output@@QAE@XZ 1004b9b0 f i libucrtd:output.obj
 0001:0004a9d0       ??1?$output_processor@_WV?$string_output_adapter@_W@__crt_stdio_output@@V?$format_validation_base@_WV?$string_output_adapter@_W@__crt_stdio_output@@@2@@__crt_stdio_output@@QAE@XZ 1004b9d0 f i libucrtd:output.obj
 0001:0004a9f0       ??1?$output_processor@_WV?$string_output_adapter@_W@__crt_stdio_output@@V?$positional_parameter_base@_WV?$string_output_adapter@_W@__crt_stdio_output@@@2@@__crt_stdio_output@@QAE@XZ 1004b9f0 f i libucrtd:output.obj
 0001:0004aa10       ??1?$output_processor@_WV?$string_output_adapter@_W@__crt_stdio_output@@V?$standard_base@_WV?$string_output_adapter@_W@__crt_stdio_output@@@2@@__crt_stdio_output@@QAE@XZ 1004ba10 f i libucrtd:output.obj
 0001:0004aa30       ??1?$positional_parameter_base@DV?$stream_output_adapter@D@__crt_stdio_output@@@__crt_stdio_output@@QAE@XZ 1004ba30 f i libucrtd:output.obj
 0001:0004aa50       ??1?$positional_parameter_base@DV?$string_output_adapter@D@__crt_stdio_output@@@__crt_stdio_output@@QAE@XZ 1004ba50 f i libucrtd:output.obj
 0001:0004aa70       ??1?$positional_parameter_base@_WV?$stream_output_adapter@_W@__crt_stdio_output@@@__crt_stdio_output@@QAE@XZ 1004ba70 f i libucrtd:output.obj
 0001:0004aa90       ??1?$positional_parameter_base@_WV?$string_output_adapter@_W@__crt_stdio_output@@@__crt_stdio_output@@QAE@XZ 1004ba90 f i libucrtd:output.obj
 0001:0004aab0       ??1?$standard_base@DV?$stream_output_adapter@D@__crt_stdio_output@@@__crt_stdio_output@@QAE@XZ 1004bab0 f i libucrtd:output.obj
 0001:0004aad0       ??1?$standard_base@DV?$string_output_adapter@D@__crt_stdio_output@@@__crt_stdio_output@@QAE@XZ 1004bad0 f i libucrtd:output.obj
 0001:0004aaf0       ??1?$standard_base@_WV?$stream_output_adapter@_W@__crt_stdio_output@@@__crt_stdio_output@@QAE@XZ 1004baf0 f i libucrtd:output.obj
 0001:0004ab10       ??1?$standard_base@_WV?$string_output_adapter@_W@__crt_stdio_output@@@__crt_stdio_output@@QAE@XZ 1004bb10 f i libucrtd:output.obj
 0001:0004ab30       ??1_LocaleUpdate@@QAE@XZ   1004bb30 f i libucrtd:output.obj
 0001:0004ab60       ??1__acrt_stdio_temporary_buffering_guard@@QAE@XZ 1004bb60 f i libucrtd:output.obj
 0001:0004ab90       ??1__crt_errno_guard@@QAE@XZ 1004bb90 f i libucrtd:output.obj
 0001:0004abc0       ??1formatting_buffer@__crt_stdio_output@@QAE@XZ 1004bbc0 f i libucrtd:output.obj
 0001:0004abe0       ??4?$__crt_unique_heap_ptr@DU__crt_internal_free_policy@@@@QAEAAV0@$$QAV0@@Z 1004bbe0 f i libucrtd:output.obj
 0001:0004ac10       ??A?$spectre_mitigated_lookup_table@Ustate_transition_pair@__crt_stdio_output@@$0IA@@__crt_stdio_output@@QBEABUstate_transition_pair@1@I@Z 1004bc10 f i libucrtd:output.obj
 0001:0004ac30       ??C__crt_stdio_stream@@QBEPAU__crt_stdio_stream_data@@XZ 1004bc30 f i libucrtd:output.obj
 0001:0004b370       ?GetLocaleT@_LocaleUpdate@@QAEPAU__crt_locale_pointers@@XZ 1004c370 f i libucrtd:output.obj
 0001:0004b390       ?adjust_hexit@?$output_processor@DV?$stream_output_adapter@D@__crt_stdio_output@@V?$format_validation_base@DV?$stream_output_adapter@D@__crt_stdio_output@@@2@@__crt_stdio_output@@CADH_N@Z 1004c390 f i libucrtd:output.obj
 0001:0004b3d0       ?adjust_hexit@?$output_processor@DV?$stream_output_adapter@D@__crt_stdio_output@@V?$positional_parameter_base@DV?$stream_output_adapter@D@__crt_stdio_output@@@2@@__crt_stdio_output@@CADH_N@Z 1004c3d0 f i libucrtd:output.obj
 0001:0004b410       ?adjust_hexit@?$output_processor@DV?$stream_output_adapter@D@__crt_stdio_output@@V?$standard_base@DV?$stream_output_adapter@D@__crt_stdio_output@@@2@@__crt_stdio_output@@CADH_N@Z 1004c410 f i libucrtd:output.obj
 0001:0004b450       ?adjust_hexit@?$output_processor@DV?$string_output_adapter@D@__crt_stdio_output@@V?$format_validation_base@DV?$string_output_adapter@D@__crt_stdio_output@@@2@@__crt_stdio_output@@CADH_N@Z 1004c450 f i libucrtd:output.obj
 0001:0004b490       ?adjust_hexit@?$output_processor@DV?$string_output_adapter@D@__crt_stdio_output@@V?$positional_parameter_base@DV?$string_output_adapter@D@__crt_stdio_output@@@2@@__crt_stdio_output@@CADH_N@Z 1004c490 f i libucrtd:output.obj
 0001:0004b4d0       ?adjust_hexit@?$output_processor@DV?$string_output_adapter@D@__crt_stdio_output@@V?$standard_base@DV?$string_output_adapter@D@__crt_stdio_output@@@2@@__crt_stdio_output@@CADH_N@Z 1004c4d0 f i libucrtd:output.obj
 0001:0004b510       ?adjust_hexit@?$output_processor@_WV?$stream_output_adapter@_W@__crt_stdio_output@@V?$format_validation_base@_WV?$stream_output_adapter@_W@__crt_stdio_output@@@2@@__crt_stdio_output@@CADH_N@Z 1004c510 f i libucrtd:output.obj
 0001:0004b550       ?adjust_hexit@?$output_processor@_WV?$stream_output_adapter@_W@__crt_stdio_output@@V?$positional_parameter_base@_WV?$stream_output_adapter@_W@__crt_stdio_output@@@2@@__crt_stdio_output@@CADH_N@Z 1004c550 f i libucrtd:output.obj
 0001:0004b590       ?adjust_hexit@?$output_processor@_WV?$stream_output_adapter@_W@__crt_stdio_output@@V?$standard_base@_WV?$stream_output_adapter@_W@__crt_stdio_output@@@2@@__crt_stdio_output@@CADH_N@Z 1004c590 f i libucrtd:output.obj
 0001:0004b5d0       ?adjust_hexit@?$output_processor@_WV?$string_output_adapter@_W@__crt_stdio_output@@V?$format_validation_base@_WV?$string_output_adapter@_W@__crt_stdio_output@@@2@@__crt_stdio_output@@CADH_N@Z 1004c5d0 f i libucrtd:output.obj
 0001:0004b610       ?adjust_hexit@?$output_processor@_WV?$string_output_adapter@_W@__crt_stdio_output@@V?$positional_parameter_base@_WV?$string_output_adapter@_W@__crt_stdio_output@@@2@@__crt_stdio_output@@CADH_N@Z 1004c610 f i libucrtd:output.obj
 0001:0004b650       ?adjust_hexit@?$output_processor@_WV?$string_output_adapter@_W@__crt_stdio_output@@V?$standard_base@_WV?$string_output_adapter@_W@__crt_stdio_output@@@2@@__crt_stdio_output@@CADH_N@Z 1004c650 f i libucrtd:output.obj
 0001:0004b690       ?advance_to_next_pass@?$positional_parameter_base@DV?$stream_output_adapter@D@__crt_stdio_output@@@__crt_stdio_output@@IAE_NXZ 1004c690 f i libucrtd:output.obj
 0001:0004b730       ?advance_to_next_pass@?$positional_parameter_base@DV?$string_output_adapter@D@__crt_stdio_output@@@__crt_stdio_output@@IAE_NXZ 1004c730 f i libucrtd:output.obj
 0001:0004b7d0       ?advance_to_next_pass@?$positional_parameter_base@_WV?$stream_output_adapter@_W@__crt_stdio_output@@@__crt_stdio_output@@IAE_NXZ 1004c7d0 f i libucrtd:output.obj
 0001:0004b870       ?advance_to_next_pass@?$positional_parameter_base@_WV?$string_output_adapter@_W@__crt_stdio_output@@@__crt_stdio_output@@IAE_NXZ 1004c870 f i libucrtd:output.obj
 0001:0004b910       ?advance_to_next_pass@?$standard_base@DV?$stream_output_adapter@D@__crt_stdio_output@@@__crt_stdio_output@@IAE_NXZ 1004c910 f i libucrtd:output.obj
 0001:0004b960       ?advance_to_next_pass@?$standard_base@DV?$string_output_adapter@D@__crt_stdio_output@@@__crt_stdio_output@@IAE_NXZ 1004c960 f i libucrtd:output.obj
 0001:0004b9b0       ?advance_to_next_pass@?$standard_base@_WV?$stream_output_adapter@_W@__crt_stdio_output@@@__crt_stdio_output@@IAE_NXZ 1004c9b0 f i libucrtd:output.obj
 0001:0004ba00       ?advance_to_next_pass@?$standard_base@_WV?$string_output_adapter@_W@__crt_stdio_output@@@__crt_stdio_output@@IAE_NXZ 1004ca00 f i libucrtd:output.obj
 0001:0004ba50       ?crop_zeroes@__crt_stdio_output@@YAXPADQAU__crt_locale_pointers@@@Z 1004ca50 f i libucrtd:output.obj
 0001:0004bb50       ?find_next_state@?$output_processor@DV?$stream_output_adapter@D@__crt_stdio_output@@V?$format_validation_base@DV?$stream_output_adapter@D@__crt_stdio_output@@@2@@__crt_stdio_output@@ABE?AW4state@2@DW432@@Z 1004cb50 f i libucrtd:output.obj
 0001:0004bbc0       ?find_next_state@?$output_processor@DV?$stream_output_adapter@D@__crt_stdio_output@@V?$positional_parameter_base@DV?$stream_output_adapter@D@__crt_stdio_output@@@2@@__crt_stdio_output@@ABE?AW4state@2@DW432@@Z 1004cbc0 f i libucrtd:output.obj
 0001:0004bc30       ?find_next_state@?$output_processor@DV?$stream_output_adapter@D@__crt_stdio_output@@V?$standard_base@DV?$stream_output_adapter@D@__crt_stdio_output@@@2@@__crt_stdio_output@@ABE?AW4state@2@DW432@@Z 1004cc30 f i libucrtd:output.obj
 0001:0004bca0       ?find_next_state@?$output_processor@DV?$string_output_adapter@D@__crt_stdio_output@@V?$format_validation_base@DV?$string_output_adapter@D@__crt_stdio_output@@@2@@__crt_stdio_output@@ABE?AW4state@2@DW432@@Z 1004cca0 f i libucrtd:output.obj
 0001:0004bd10       ?find_next_state@?$output_processor@DV?$string_output_adapter@D@__crt_stdio_output@@V?$positional_parameter_base@DV?$string_output_adapter@D@__crt_stdio_output@@@2@@__crt_stdio_output@@ABE?AW4state@2@DW432@@Z 1004cd10 f i libucrtd:output.obj
 0001:0004bd80       ?find_next_state@?$output_processor@DV?$string_output_adapter@D@__crt_stdio_output@@V?$standard_base@DV?$string_output_adapter@D@__crt_stdio_output@@@2@@__crt_stdio_output@@ABE?AW4state@2@DW432@@Z 1004cd80 f i libucrtd:output.obj
 0001:0004bdf0       ?find_next_state@?$output_processor@_WV?$stream_output_adapter@_W@__crt_stdio_output@@V?$format_validation_base@_WV?$stream_output_adapter@_W@__crt_stdio_output@@@2@@__crt_stdio_output@@ABE?AW4state@2@_WW432@@Z 1004cdf0 f i libucrtd:output.obj
 0001:0004be60       ?find_next_state@?$output_processor@_WV?$stream_output_adapter@_W@__crt_stdio_output@@V?$positional_parameter_base@_WV?$stream_output_adapter@_W@__crt_stdio_output@@@2@@__crt_stdio_output@@ABE?AW4state@2@_WW432@@Z 1004ce60 f i libucrtd:output.obj
 0001:0004bed0       ?find_next_state@?$output_processor@_WV?$stream_output_adapter@_W@__crt_stdio_output@@V?$standard_base@_WV?$stream_output_adapter@_W@__crt_stdio_output@@@2@@__crt_stdio_output@@ABE?AW4state@2@_WW432@@Z 1004ced0 f i libucrtd:output.obj
 0001:0004bf40       ?find_next_state@?$output_processor@_WV?$string_output_adapter@_W@__crt_stdio_output@@V?$format_validation_base@_WV?$string_output_adapter@_W@__crt_stdio_output@@@2@@__crt_stdio_output@@ABE?AW4state@2@_WW432@@Z 1004cf40 f i libucrtd:output.obj
 0001:0004bfb0       ?find_next_state@?$output_processor@_WV?$string_output_adapter@_W@__crt_stdio_output@@V?$positional_parameter_base@_WV?$string_output_adapter@_W@__crt_stdio_output@@@2@@__crt_stdio_output@@ABE?AW4state@2@_WW432@@Z 1004cfb0 f i libucrtd:output.obj
 0001:0004c020       ?find_next_state@?$output_processor@_WV?$string_output_adapter@_W@__crt_stdio_output@@V?$standard_base@_WV?$string_output_adapter@_W@__crt_stdio_output@@@2@@__crt_stdio_output@@ABE?AW4state@2@_WW432@@Z 1004d020 f i libucrtd:output.obj
 0001:0004c090       ?force_decimal_point@__crt_stdio_output@@YAXPADQAU__crt_locale_pointers@@@Z 1004d090 f i libucrtd:output.obj
 0001:0004c160       ?get@__crt_deferred_errno_cache@@QAEAAHXZ 1004d160 f i libucrtd:output.obj
 0001:0004c190       ?get_flags@__crt_stdio_stream@@QBEJXZ 1004d190 f i libucrtd:output.obj
 0001:0004c1b0       ?get_parameter_type@?$positional_parameter_base@DV?$stream_output_adapter@D@__crt_stdio_output@@@__crt_stdio_output@@CA?AW4parameter_type@12@F@Z 1004d1b0 f i libucrtd:output.obj
 0001:0004c1c0       ?get_parameter_type@?$positional_parameter_base@DV?$stream_output_adapter@D@__crt_stdio_output@@@__crt_stdio_output@@CA?AW4parameter_type@12@G@Z 1004d1c0 f i libucrtd:output.obj
 0001:0004c1d0       ?get_parameter_type@?$positional_parameter_base@DV?$stream_output_adapter@D@__crt_stdio_output@@@__crt_stdio_output@@CA?AW4parameter_type@12@H@Z 1004d1d0 f i libucrtd:output.obj
 0001:0004c1e0       ?get_parameter_type@?$positional_parameter_base@DV?$stream_output_adapter@D@__crt_stdio_output@@@__crt_stdio_output@@CA?AW4parameter_type@12@I@Z 1004d1e0 f i libucrtd:output.obj
 0001:0004c1f0       ?get_parameter_type@?$positional_parameter_base@DV?$stream_output_adapter@D@__crt_stdio_output@@@__crt_stdio_output@@CA?AW4parameter_type@12@U_CRT_DOUBLE@@@Z 1004d1f0 f i libucrtd:output.obj
 0001:0004c200       ?get_parameter_type@?$positional_parameter_base@DV?$stream_output_adapter@D@__crt_stdio_output@@@__crt_stdio_output@@CA?AW4parameter_type@12@_J@Z 1004d200 f i libucrtd:output.obj
 0001:0004c210       ?get_parameter_type@?$positional_parameter_base@DV?$stream_output_adapter@D@__crt_stdio_output@@@__crt_stdio_output@@CA?AW4parameter_type@12@_K@Z 1004d210 f i libucrtd:output.obj
 0001:0004c220       ?get_parameter_type@?$positional_parameter_base@DV?$stream_output_adapter@D@__crt_stdio_output@@@__crt_stdio_output@@CA?AW4parameter_type@12@_W@Z 1004d220 f i libucrtd:output.obj
 0001:0004c230       ?get_parameter_type@?$positional_parameter_base@DV?$string_output_adapter@D@__crt_stdio_output@@@__crt_stdio_output@@CA?AW4parameter_type@12@F@Z 1004d230 f i libucrtd:output.obj
 0001:0004c240       ?get_parameter_type@?$positional_parameter_base@DV?$string_output_adapter@D@__crt_stdio_output@@@__crt_stdio_output@@CA?AW4parameter_type@12@G@Z 1004d240 f i libucrtd:output.obj
 0001:0004c250       ?get_parameter_type@?$positional_parameter_base@DV?$string_output_adapter@D@__crt_stdio_output@@@__crt_stdio_output@@CA?AW4parameter_type@12@H@Z 1004d250 f i libucrtd:output.obj
 0001:0004c260       ?get_parameter_type@?$positional_parameter_base@DV?$string_output_adapter@D@__crt_stdio_output@@@__crt_stdio_output@@CA?AW4parameter_type@12@I@Z 1004d260 f i libucrtd:output.obj
 0001:0004c270       ?get_parameter_type@?$positional_parameter_base@DV?$string_output_adapter@D@__crt_stdio_output@@@__crt_stdio_output@@CA?AW4parameter_type@12@U_CRT_DOUBLE@@@Z 1004d270 f i libucrtd:output.obj
 0001:0004c280       ?get_parameter_type@?$positional_parameter_base@DV?$string_output_adapter@D@__crt_stdio_output@@@__crt_stdio_output@@CA?AW4parameter_type@12@_J@Z 1004d280 f i libucrtd:output.obj
 0001:0004c290       ?get_parameter_type@?$positional_parameter_base@DV?$string_output_adapter@D@__crt_stdio_output@@@__crt_stdio_output@@CA?AW4parameter_type@12@_K@Z 1004d290 f i libucrtd:output.obj
 0001:0004c2a0       ?get_parameter_type@?$positional_parameter_base@DV?$string_output_adapter@D@__crt_stdio_output@@@__crt_stdio_output@@CA?AW4parameter_type@12@_W@Z 1004d2a0 f i libucrtd:output.obj
 0001:0004c2b0       ?get_parameter_type@?$positional_parameter_base@_WV?$stream_output_adapter@_W@__crt_stdio_output@@@__crt_stdio_output@@CA?AW4parameter_type@12@F@Z 1004d2b0 f i libucrtd:output.obj
 0001:0004c2c0       ?get_parameter_type@?$positional_parameter_base@_WV?$stream_output_adapter@_W@__crt_stdio_output@@@__crt_stdio_output@@CA?AW4parameter_type@12@G@Z 1004d2c0 f i libucrtd:output.obj
 0001:0004c2d0       ?get_parameter_type@?$positional_parameter_base@_WV?$stream_output_adapter@_W@__crt_stdio_output@@@__crt_stdio_output@@CA?AW4parameter_type@12@H@Z 1004d2d0 f i libucrtd:output.obj
 0001:0004c2e0       ?get_parameter_type@?$positional_parameter_base@_WV?$stream_output_adapter@_W@__crt_stdio_output@@@__crt_stdio_output@@CA?AW4parameter_type@12@I@Z 1004d2e0 f i libucrtd:output.obj
 0001:0004c2f0       ?get_parameter_type@?$positional_parameter_base@_WV?$stream_output_adapter@_W@__crt_stdio_output@@@__crt_stdio_output@@CA?AW4parameter_type@12@U_CRT_DOUBLE@@@Z 1004d2f0 f i libucrtd:output.obj
 0001:0004c300       ?get_parameter_type@?$positional_parameter_base@_WV?$stream_output_adapter@_W@__crt_stdio_output@@@__crt_stdio_output@@CA?AW4parameter_type@12@_J@Z 1004d300 f i libucrtd:output.obj
 0001:0004c310       ?get_parameter_type@?$positional_parameter_base@_WV?$stream_output_adapter@_W@__crt_stdio_output@@@__crt_stdio_output@@CA?AW4parameter_type@12@_K@Z 1004d310 f i libucrtd:output.obj
 0001:0004c320       ?get_parameter_type@?$positional_parameter_base@_WV?$stream_output_adapter@_W@__crt_stdio_output@@@__crt_stdio_output@@CA?AW4parameter_type@12@_W@Z 1004d320 f i libucrtd:output.obj
 0001:0004c330       ?get_parameter_type@?$positional_parameter_base@_WV?$string_output_adapter@_W@__crt_stdio_output@@@__crt_stdio_output@@CA?AW4parameter_type@12@F@Z 1004d330 f i libucrtd:output.obj
 0001:0004c340       ?get_parameter_type@?$positional_parameter_base@_WV?$string_output_adapter@_W@__crt_stdio_output@@@__crt_stdio_output@@CA?AW4parameter_type@12@G@Z 1004d340 f i libucrtd:output.obj
 0001:0004c350       ?get_parameter_type@?$positional_parameter_base@_WV?$string_output_adapter@_W@__crt_stdio_output@@@__crt_stdio_output@@CA?AW4parameter_type@12@H@Z 1004d350 f i libucrtd:output.obj
 0001:0004c360       ?get_parameter_type@?$positional_parameter_base@_WV?$string_output_adapter@_W@__crt_stdio_output@@@__crt_stdio_output@@CA?AW4parameter_type@12@I@Z 1004d360 f i libucrtd:output.obj
 0001:0004c370       ?get_parameter_type@?$positional_parameter_base@_WV?$string_output_adapter@_W@__crt_stdio_output@@@__crt_stdio_output@@CA?AW4parameter_type@12@U_CRT_DOUBLE@@@Z 1004d370 f i libucrtd:output.obj
 0001:0004c380       ?get_parameter_type@?$positional_parameter_base@_WV?$string_output_adapter@_W@__crt_stdio_output@@@__crt_stdio_output@@CA?AW4parameter_type@12@_J@Z 1004d380 f i libucrtd:output.obj
 0001:0004c390       ?get_parameter_type@?$positional_parameter_base@_WV?$string_output_adapter@_W@__crt_stdio_output@@@__crt_stdio_output@@CA?AW4parameter_type@12@_K@Z 1004d390 f i libucrtd:output.obj
 0001:0004c3a0       ?get_parameter_type@?$positional_parameter_base@_WV?$string_output_adapter@_W@__crt_stdio_output@@@__crt_stdio_output@@CA?AW4parameter_type@12@_W@Z 1004d3a0 f i libucrtd:output.obj
 0001:0004c3b0       ?has_flag@?$output_processor@DV?$stream_output_adapter@D@__crt_stdio_output@@V?$format_validation_base@DV?$stream_output_adapter@D@__crt_stdio_output@@@2@@__crt_stdio_output@@ABE_NI@Z 1004d3b0 f i libucrtd:output.obj
 0001:0004c3e0       ?has_flag@?$output_processor@DV?$stream_output_adapter@D@__crt_stdio_output@@V?$positional_parameter_base@DV?$stream_output_adapter@D@__crt_stdio_output@@@2@@__crt_stdio_output@@ABE_NI@Z 1004d3e0 f i libucrtd:output.obj
 0001:0004c410       ?has_flag@?$output_processor@DV?$stream_output_adapter@D@__crt_stdio_output@@V?$standard_base@DV?$stream_output_adapter@D@__crt_stdio_output@@@2@@__crt_stdio_output@@ABE_NI@Z 1004d410 f i libucrtd:output.obj
 0001:0004c440       ?has_flag@?$output_processor@DV?$string_output_adapter@D@__crt_stdio_output@@V?$format_validation_base@DV?$string_output_adapter@D@__crt_stdio_output@@@2@@__crt_stdio_output@@ABE_NI@Z 1004d440 f i libucrtd:output.obj
 0001:0004c470       ?has_flag@?$output_processor@DV?$string_output_adapter@D@__crt_stdio_output@@V?$positional_parameter_base@DV?$string_output_adapter@D@__crt_stdio_output@@@2@@__crt_stdio_output@@ABE_NI@Z 1004d470 f i libucrtd:output.obj
 0001:0004c4a0       ?has_flag@?$output_processor@DV?$string_output_adapter@D@__crt_stdio_output@@V?$standard_base@DV?$string_output_adapter@D@__crt_stdio_output@@@2@@__crt_stdio_output@@ABE_NI@Z 1004d4a0 f i libucrtd:output.obj
 0001:0004c4d0       ?has_flag@?$output_processor@_WV?$stream_output_adapter@_W@__crt_stdio_output@@V?$format_validation_base@_WV?$stream_output_adapter@_W@__crt_stdio_output@@@2@@__crt_stdio_output@@ABE_NI@Z 1004d4d0 f i libucrtd:output.obj
 0001:0004c500       ?has_flag@?$output_processor@_WV?$stream_output_adapter@_W@__crt_stdio_output@@V?$positional_parameter_base@_WV?$stream_output_adapter@_W@__crt_stdio_output@@@2@@__crt_stdio_output@@ABE_NI@Z 1004d500 f i libucrtd:output.obj
 0001:0004c530       ?has_flag@?$output_processor@_WV?$stream_output_adapter@_W@__crt_stdio_output@@V?$standard_base@_WV?$stream_output_adapter@_W@__crt_stdio_output@@@2@@__crt_stdio_output@@ABE_NI@Z 1004d530 f i libucrtd:output.obj
 0001:0004c560       ?has_flag@?$output_processor@_WV?$string_output_adapter@_W@__crt_stdio_output@@V?$format_validation_base@_WV?$string_output_adapter@_W@__crt_stdio_output@@@2@@__crt_stdio_output@@ABE_NI@Z 1004d560 f i libucrtd:output.obj
 0001:0004c590       ?has_flag@?$output_processor@_WV?$string_output_adapter@_W@__crt_stdio_output@@V?$positional_parameter_base@_WV?$string_output_adapter@_W@__crt_stdio_output@@@2@@__crt_stdio_output@@ABE_NI@Z 1004d590 f i libucrtd:output.obj
 0001:0004c5c0       ?has_flag@?$output_processor@_WV?$string_output_adapter@_W@__crt_stdio_output@@V?$standard_base@_WV?$string_output_adapter@_W@__crt_stdio_output@@@2@@__crt_stdio_output@@ABE_NI@Z 1004d5c0 f i libucrtd:output.obj
 0001:0004c5f0       ?is_positional_parameter_reappearance_consistent@?$positional_parameter_base@DV?$stream_output_adapter@D@__crt_stdio_output@@@__crt_stdio_output@@AAE_NABUparameter_data@12@W4parameter_type@12@DW4length_modifier@2@@Z 1004d5f0 f i libucrtd:output.obj
 0001:0004c820       ?is_positional_parameter_reappearance_consistent@?$positional_parameter_base@DV?$string_output_adapter@D@__crt_stdio_output@@@__crt_stdio_output@@AAE_NABUparameter_data@12@W4parameter_type@12@DW4length_modifier@2@@Z 1004d820 f i libucrtd:output.obj
 0001:0004ca50       ?is_positional_parameter_reappearance_consistent@?$positional_parameter_base@_WV?$stream_output_adapter@_W@__crt_stdio_output@@@__crt_stdio_output@@AAE_NABUparameter_data@12@W4parameter_type@12@_WW4length_modifier@2@@Z 1004da50 f i libucrtd:output.obj
 0001:0004cc80       ?is_positional_parameter_reappearance_consistent@?$positional_parameter_base@_WV?$string_output_adapter@_W@__crt_stdio_output@@@__crt_stdio_output@@AAE_NABUparameter_data@12@W4parameter_type@12@_WW4length_modifier@2@@Z 1004dc80 f i libucrtd:output.obj
 0001:0004ceb0       ?is_string_backed@__crt_stdio_stream@@QBE_NXZ 1004deb0 f i libucrtd:output.obj
 0001:0004cef0       ?narrow_null_string@?$output_processor@DV?$stream_output_adapter@D@__crt_stdio_output@@V?$format_validation_base@DV?$stream_output_adapter@D@__crt_stdio_output@@@2@@__crt_stdio_output@@CAPADXZ 1004def0 f i libucrtd:output.obj
 0001:0004cf00       ?narrow_null_string@?$output_processor@DV?$stream_output_adapter@D@__crt_stdio_output@@V?$positional_parameter_base@DV?$stream_output_adapter@D@__crt_stdio_output@@@2@@__crt_stdio_output@@CAPADXZ 1004df00 f i libucrtd:output.obj
 0001:0004cf10       ?narrow_null_string@?$output_processor@DV?$stream_output_adapter@D@__crt_stdio_output@@V?$standard_base@DV?$stream_output_adapter@D@__crt_stdio_output@@@2@@__crt_stdio_output@@CAPADXZ 1004df10 f i libucrtd:output.obj
 0001:0004cf20       ?narrow_null_string@?$output_processor@DV?$string_output_adapter@D@__crt_stdio_output@@V?$format_validation_base@DV?$string_output_adapter@D@__crt_stdio_output@@@2@@__crt_stdio_output@@CAPADXZ 1004df20 f i libucrtd:output.obj
 0001:0004cf30       ?narrow_null_string@?$output_processor@DV?$string_output_adapter@D@__crt_stdio_output@@V?$positional_parameter_base@DV?$string_output_adapter@D@__crt_stdio_output@@@2@@__crt_stdio_output@@CAPADXZ 1004df30 f i libucrtd:output.obj
 0001:0004cf40       ?narrow_null_string@?$output_processor@DV?$string_output_adapter@D@__crt_stdio_output@@V?$standard_base@DV?$string_output_adapter@D@__crt_stdio_output@@@2@@__crt_stdio_output@@CAPADXZ 1004df40 f i libucrtd:output.obj
 0001:0004cf50       ?narrow_null_string@?$output_processor@_WV?$stream_output_adapter@_W@__crt_stdio_output@@V?$format_validation_base@_WV?$stream_output_adapter@_W@__crt_stdio_output@@@2@@__crt_stdio_output@@CAPADXZ 1004df50 f i libucrtd:output.obj
 0001:0004cf60       ?narrow_null_string@?$output_processor@_WV?$stream_output_adapter@_W@__crt_stdio_output@@V?$positional_parameter_base@_WV?$stream_output_adapter@_W@__crt_stdio_output@@@2@@__crt_stdio_output@@CAPADXZ 1004df60 f i libucrtd:output.obj
 0001:0004cf70       ?narrow_null_string@?$output_processor@_WV?$stream_output_adapter@_W@__crt_stdio_output@@V?$standard_base@_WV?$stream_output_adapter@_W@__crt_stdio_output@@@2@@__crt_stdio_output@@CAPADXZ 1004df70 f i libucrtd:output.obj
 0001:0004cf80       ?narrow_null_string@?$output_processor@_WV?$string_output_adapter@_W@__crt_stdio_output@@V?$format_validation_base@_WV?$string_output_adapter@_W@__crt_stdio_output@@@2@@__crt_stdio_output@@CAPADXZ 1004df80 f i libucrtd:output.obj
 0001:0004cf90       ?narrow_null_string@?$output_processor@_WV?$string_output_adapter@_W@__crt_stdio_output@@V?$positional_parameter_base@_WV?$string_output_adapter@_W@__crt_stdio_output@@@2@@__crt_stdio_output@@CAPADXZ 1004df90 f i libucrtd:output.obj
 0001:0004cfa0       ?narrow_null_string@?$output_processor@_WV?$string_output_adapter@_W@__crt_stdio_output@@V?$standard_base@_WV?$string_output_adapter@_W@__crt_stdio_output@@@2@@__crt_stdio_output@@CAPADXZ 1004dfa0 f i libucrtd:output.obj
 0001:0004cfb0       ?parse_int_from_format_string@?$output_processor@DV?$stream_output_adapter@D@__crt_stdio_output@@V?$format_validation_base@DV?$stream_output_adapter@D@__crt_stdio_output@@@2@@__crt_stdio_output@@AAE_NQAH@Z 1004dfb0 f i libucrtd:output.obj
 0001:0004d070       ?parse_int_from_format_string@?$output_processor@DV?$stream_output_adapter@D@__crt_stdio_output@@V?$positional_parameter_base@DV?$stream_output_adapter@D@__crt_stdio_output@@@2@@__crt_stdio_output@@AAE_NQAH@Z 1004e070 f i libucrtd:output.obj
 0001:0004d130       ?parse_int_from_format_string@?$output_processor@DV?$stream_output_adapter@D@__crt_stdio_output@@V?$standard_base@DV?$stream_output_adapter@D@__crt_stdio_output@@@2@@__crt_stdio_output@@AAE_NQAH@Z 1004e130 f i libucrtd:output.obj
 0001:0004d1f0       ?parse_int_from_format_string@?$output_processor@DV?$string_output_adapter@D@__crt_stdio_output@@V?$format_validation_base@DV?$string_output_adapter@D@__crt_stdio_output@@@2@@__crt_stdio_output@@AAE_NQAH@Z 1004e1f0 f i libucrtd:output.obj
 0001:0004d2b0       ?parse_int_from_format_string@?$output_processor@DV?$string_output_adapter@D@__crt_stdio_output@@V?$positional_parameter_base@DV?$string_output_adapter@D@__crt_stdio_output@@@2@@__crt_stdio_output@@AAE_NQAH@Z 1004e2b0 f i libucrtd:output.obj
 0001:0004d370       ?parse_int_from_format_string@?$output_processor@DV?$string_output_adapter@D@__crt_stdio_output@@V?$standard_base@DV?$string_output_adapter@D@__crt_stdio_output@@@2@@__crt_stdio_output@@AAE_NQAH@Z 1004e370 f i libucrtd:output.obj
 0001:0004d430       ?parse_int_from_format_string@?$output_processor@_WV?$stream_output_adapter@_W@__crt_stdio_output@@V?$format_validation_base@_WV?$stream_output_adapter@_W@__crt_stdio_output@@@2@@__crt_stdio_output@@AAE_NQAH@Z 1004e430 f i libucrtd:output.obj
 0001:0004d4f0       ?parse_int_from_format_string@?$output_processor@_WV?$stream_output_adapter@_W@__crt_stdio_output@@V?$positional_parameter_base@_WV?$stream_output_adapter@_W@__crt_stdio_output@@@2@@__crt_stdio_output@@AAE_NQAH@Z 1004e4f0 f i libucrtd:output.obj
 0001:0004d5b0       ?parse_int_from_format_string@?$output_processor@_WV?$stream_output_adapter@_W@__crt_stdio_output@@V?$standard_base@_WV?$stream_output_adapter@_W@__crt_stdio_output@@@2@@__crt_stdio_output@@AAE_NQAH@Z 1004e5b0 f i libucrtd:output.obj
 0001:0004d670       ?parse_int_from_format_string@?$output_processor@_WV?$string_output_adapter@_W@__crt_stdio_output@@V?$format_validation_base@_WV?$string_output_adapter@_W@__crt_stdio_output@@@2@@__crt_stdio_output@@AAE_NQAH@Z 1004e670 f i libucrtd:output.obj
 0001:0004d730       ?parse_int_from_format_string@?$output_processor@_WV?$string_output_adapter@_W@__crt_stdio_output@@V?$positional_parameter_base@_WV?$string_output_adapter@_W@__crt_stdio_output@@@2@@__crt_stdio_output@@AAE_NQAH@Z 1004e730 f i libucrtd:output.obj
 0001:0004d7f0       ?parse_int_from_format_string@?$output_processor@_WV?$string_output_adapter@_W@__crt_stdio_output@@V?$standard_base@_WV?$string_output_adapter@_W@__crt_stdio_output@@@2@@__crt_stdio_output@@AAE_NQAH@Z 1004e7f0 f i libucrtd:output.obj
 0001:0004d8b0       ?process@?$output_processor@DV?$stream_output_adapter@D@__crt_stdio_output@@V?$format_validation_base@DV?$stream_output_adapter@D@__crt_stdio_output@@@2@@__crt_stdio_output@@QAEHXZ 1004e8b0 f i libucrtd:output.obj
 0001:0004db60       ?process@?$output_processor@DV?$stream_output_adapter@D@__crt_stdio_output@@V?$positional_parameter_base@DV?$stream_output_adapter@D@__crt_stdio_output@@@2@@__crt_stdio_output@@QAEHXZ 1004eb60 f i libucrtd:output.obj
 0001:0004de10       ?process@?$output_processor@DV?$stream_output_adapter@D@__crt_stdio_output@@V?$standard_base@DV?$stream_output_adapter@D@__crt_stdio_output@@@2@@__crt_stdio_output@@QAEHXZ 1004ee10 f i libucrtd:output.obj
 0001:0004e0c0       ?process@?$output_processor@DV?$string_output_adapter@D@__crt_stdio_output@@V?$format_validation_base@DV?$string_output_adapter@D@__crt_stdio_output@@@2@@__crt_stdio_output@@QAEHXZ 1004f0c0 f i libucrtd:output.obj
 0001:0004e370       ?process@?$output_processor@DV?$string_output_adapter@D@__crt_stdio_output@@V?$positional_parameter_base@DV?$string_output_adapter@D@__crt_stdio_output@@@2@@__crt_stdio_output@@QAEHXZ 1004f370 f i libucrtd:output.obj
 0001:0004e620       ?process@?$output_processor@DV?$string_output_adapter@D@__crt_stdio_output@@V?$standard_base@DV?$string_output_adapter@D@__crt_stdio_output@@@2@@__crt_stdio_output@@QAEHXZ 1004f620 f i libucrtd:output.obj
 0001:0004e8d0       ?process@?$output_processor@_WV?$stream_output_adapter@_W@__crt_stdio_output@@V?$format_validation_base@_WV?$stream_output_adapter@_W@__crt_stdio_output@@@2@@__crt_stdio_output@@QAEHXZ 1004f8d0 f i libucrtd:output.obj
 0001:0004eb80       ?process@?$output_processor@_WV?$stream_output_adapter@_W@__crt_stdio_output@@V?$positional_parameter_base@_WV?$stream_output_adapter@_W@__crt_stdio_output@@@2@@__crt_stdio_output@@QAEHXZ 1004fb80 f i libucrtd:output.obj
 0001:0004ee30       ?process@?$output_processor@_WV?$stream_output_adapter@_W@__crt_stdio_output@@V?$standard_base@_WV?$stream_output_adapter@_W@__crt_stdio_output@@@2@@__crt_stdio_output@@QAEHXZ 1004fe30 f i libucrtd:output.obj
 0001:0004f0e0       ?process@?$output_processor@_WV?$string_output_adapter@_W@__crt_stdio_output@@V?$format_validation_base@_WV?$string_output_adapter@_W@__crt_stdio_output@@@2@@__crt_stdio_output@@QAEHXZ 100500e0 f i libucrtd:output.obj
 0001:0004f390       ?process@?$output_processor@_WV?$string_output_adapter@_W@__crt_stdio_output@@V?$positional_parameter_base@_WV?$string_output_adapter@_W@__crt_stdio_output@@@2@@__crt_stdio_output@@QAEHXZ 10050390 f i libucrtd:output.obj
 0001:0004f640       ?process@?$output_processor@_WV?$string_output_adapter@_W@__crt_stdio_output@@V?$standard_base@_WV?$string_output_adapter@_W@__crt_stdio_output@@@2@@__crt_stdio_output@@QAEHXZ 10050640 f i libucrtd:output.obj
 0001:0004f8f0       ?public_stream@__crt_stdio_stream@@QBEPAU_iobuf@@XZ 100508f0 f i libucrtd:output.obj
 0001:0004f910       ?set_flag@?$output_processor@DV?$stream_output_adapter@D@__crt_stdio_output@@V?$format_validation_base@DV?$stream_output_adapter@D@__crt_stdio_output@@@2@@__crt_stdio_output@@AAEXI@Z 10050910 f i libucrtd:output.obj
 0001:0004f930       ?set_flag@?$output_processor@DV?$stream_output_adapter@D@__crt_stdio_output@@V?$positional_parameter_base@DV?$stream_output_adapter@D@__crt_stdio_output@@@2@@__crt_stdio_output@@AAEXI@Z 10050930 f i libucrtd:output.obj
 0001:0004f950       ?set_flag@?$output_processor@DV?$stream_output_adapter@D@__crt_stdio_output@@V?$standard_base@DV?$stream_output_adapter@D@__crt_stdio_output@@@2@@__crt_stdio_output@@AAEXI@Z 10050950 f i libucrtd:output.obj
 0001:0004f970       ?set_flag@?$output_processor@DV?$string_output_adapter@D@__crt_stdio_output@@V?$format_validation_base@DV?$string_output_adapter@D@__crt_stdio_output@@@2@@__crt_stdio_output@@AAEXI@Z 10050970 f i libucrtd:output.obj
 0001:0004f990       ?set_flag@?$output_processor@DV?$string_output_adapter@D@__crt_stdio_output@@V?$positional_parameter_base@DV?$string_output_adapter@D@__crt_stdio_output@@@2@@__crt_stdio_output@@AAEXI@Z 10050990 f i libucrtd:output.obj
 0001:0004f9b0       ?set_flag@?$output_processor@DV?$string_output_adapter@D@__crt_stdio_output@@V?$standard_base@DV?$string_output_adapter@D@__crt_stdio_output@@@2@@__crt_stdio_output@@AAEXI@Z 100509b0 f i libucrtd:output.obj
 0001:0004f9d0       ?set_flag@?$output_processor@_WV?$stream_output_adapter@_W@__crt_stdio_output@@V?$format_validation_base@_WV?$stream_output_adapter@_W@__crt_stdio_output@@@2@@__crt_stdio_output@@AAEXI@Z 100509d0 f i libucrtd:output.obj
 0001:0004f9f0       ?set_flag@?$output_processor@_WV?$stream_output_adapter@_W@__crt_stdio_output@@V?$positional_parameter_base@_WV?$stream_output_adapter@_W@__crt_stdio_output@@@2@@__crt_stdio_output@@AAEXI@Z 100509f0 f i libucrtd:output.obj
 0001:0004fa10       ?set_flag@?$output_processor@_WV?$stream_output_adapter@_W@__crt_stdio_output@@V?$standard_base@_WV?$stream_output_adapter@_W@__crt_stdio_output@@@2@@__crt_stdio_output@@AAEXI@Z 10050a10 f i libucrtd:output.obj
 0001:0004fa30       ?set_flag@?$output_processor@_WV?$string_output_adapter@_W@__crt_stdio_output@@V?$format_validation_base@_WV?$string_output_adapter@_W@__crt_stdio_output@@@2@@__crt_stdio_output@@AAEXI@Z 10050a30 f i libucrtd:output.obj
 0001:0004fa50       ?set_flag@?$output_processor@_WV?$string_output_adapter@_W@__crt_stdio_output@@V?$positional_parameter_base@_WV?$string_output_adapter@_W@__crt_stdio_output@@@2@@__crt_stdio_output@@AAEXI@Z 10050a50 f i libucrtd:output.obj
 0001:0004fa70       ?set_flag@?$output_processor@_WV?$string_output_adapter@_W@__crt_stdio_output@@V?$standard_base@_WV?$string_output_adapter@_W@__crt_stdio_output@@@2@@__crt_stdio_output@@AAEXI@Z 10050a70 f i libucrtd:output.obj
 0001:0004fa90       ?should_format@?$positional_parameter_base@DV?$stream_output_adapter@D@__crt_stdio_output@@@__crt_stdio_output@@IAE_NXZ 10050a90 f i libucrtd:output.obj
 0001:0004fad0       ?should_format@?$positional_parameter_base@DV?$string_output_adapter@D@__crt_stdio_output@@@__crt_stdio_output@@IAE_NXZ 10050ad0 f i libucrtd:output.obj
 0001:0004fb10       ?should_format@?$positional_parameter_base@_WV?$stream_output_adapter@_W@__crt_stdio_output@@@__crt_stdio_output@@IAE_NXZ 10050b10 f i libucrtd:output.obj
 0001:0004fb50       ?should_format@?$positional_parameter_base@_WV?$string_output_adapter@_W@__crt_stdio_output@@@__crt_stdio_output@@IAE_NXZ 10050b50 f i libucrtd:output.obj
 0001:0004fb90       ?should_format@?$standard_base@DV?$stream_output_adapter@D@__crt_stdio_output@@@__crt_stdio_output@@IAE_NXZ 10050b90 f i libucrtd:output.obj
 0001:0004fba0       ?should_format@?$standard_base@DV?$string_output_adapter@D@__crt_stdio_output@@@__crt_stdio_output@@IAE_NXZ 10050ba0 f i libucrtd:output.obj
 0001:0004fbb0       ?should_format@?$standard_base@_WV?$stream_output_adapter@_W@__crt_stdio_output@@@__crt_stdio_output@@IAE_NXZ 10050bb0 f i libucrtd:output.obj
 0001:0004fbc0       ?should_format@?$standard_base@_WV?$string_output_adapter@_W@__crt_stdio_output@@@__crt_stdio_output@@IAE_NXZ 10050bc0 f i libucrtd:output.obj
 0001:0004fbd0       ?should_skip_normal_state_processing@?$positional_parameter_base@DV?$stream_output_adapter@D@__crt_stdio_output@@@__crt_stdio_output@@IAE_NXZ 10050bd0 f i libucrtd:output.obj
 0001:0004fc20       ?should_skip_normal_state_processing@?$positional_parameter_base@DV?$string_output_adapter@D@__crt_stdio_output@@@__crt_stdio_output@@IAE_NXZ 10050c20 f i libucrtd:output.obj
 0001:0004fc70       ?should_skip_normal_state_processing@?$positional_parameter_base@_WV?$stream_output_adapter@_W@__crt_stdio_output@@@__crt_stdio_output@@IAE_NXZ 10050c70 f i libucrtd:output.obj
 0001:0004fcc0       ?should_skip_normal_state_processing@?$positional_parameter_base@_WV?$string_output_adapter@_W@__crt_stdio_output@@@__crt_stdio_output@@IAE_NXZ 10050cc0 f i libucrtd:output.obj
 0001:0004fd10       ?should_skip_normal_state_processing@?$standard_base@DV?$stream_output_adapter@D@__crt_stdio_output@@@__crt_stdio_output@@IAE_NXZ 10050d10 f i libucrtd:output.obj
 0001:0004fd20       ?should_skip_normal_state_processing@?$standard_base@DV?$string_output_adapter@D@__crt_stdio_output@@@__crt_stdio_output@@IAE_NXZ 10050d20 f i libucrtd:output.obj
 0001:0004fd30       ?should_skip_normal_state_processing@?$standard_base@_WV?$stream_output_adapter@_W@__crt_stdio_output@@@__crt_stdio_output@@IAE_NXZ 10050d30 f i libucrtd:output.obj
 0001:0004fd40       ?should_skip_normal_state_processing@?$standard_base@_WV?$string_output_adapter@_W@__crt_stdio_output@@@__crt_stdio_output@@IAE_NXZ 10050d40 f i libucrtd:output.obj
 0001:0004fd50       ?should_skip_type_state_output@?$positional_parameter_base@DV?$stream_output_adapter@D@__crt_stdio_output@@@__crt_stdio_output@@IBE_NXZ 10050d50 f i libucrtd:output.obj
 0001:0004fd90       ?should_skip_type_state_output@?$positional_parameter_base@DV?$string_output_adapter@D@__crt_stdio_output@@@__crt_stdio_output@@IBE_NXZ 10050d90 f i libucrtd:output.obj
 0001:0004fdd0       ?should_skip_type_state_output@?$positional_parameter_base@_WV?$stream_output_adapter@_W@__crt_stdio_output@@@__crt_stdio_output@@IBE_NXZ 10050dd0 f i libucrtd:output.obj
 0001:0004fe10       ?should_skip_type_state_output@?$positional_parameter_base@_WV?$string_output_adapter@_W@__crt_stdio_output@@@__crt_stdio_output@@IBE_NXZ 10050e10 f i libucrtd:output.obj
 0001:0004fe50       ?should_skip_type_state_output@?$standard_base@DV?$stream_output_adapter@D@__crt_stdio_output@@@__crt_stdio_output@@IBE_NXZ 10050e50 f i libucrtd:output.obj
 0001:0004fe60       ?should_skip_type_state_output@?$standard_base@DV?$string_output_adapter@D@__crt_stdio_output@@@__crt_stdio_output@@IBE_NXZ 10050e60 f i libucrtd:output.obj
 0001:0004fe70       ?should_skip_type_state_output@?$standard_base@_WV?$stream_output_adapter@_W@__crt_stdio_output@@@__crt_stdio_output@@IBE_NXZ 10050e70 f i libucrtd:output.obj
 0001:0004fe80       ?should_skip_type_state_output@?$standard_base@_WV?$string_output_adapter@_W@__crt_stdio_output@@@__crt_stdio_output@@IBE_NXZ 10050e80 f i libucrtd:output.obj
 0001:0004fe90       ?state_case_dot@?$output_processor@DV?$stream_output_adapter@D@__crt_stdio_output@@V?$format_validation_base@DV?$stream_output_adapter@D@__crt_stdio_output@@@2@@__crt_stdio_output@@AAE_NXZ 10050e90 f i libucrtd:output.obj
 0001:0004feb0       ?state_case_dot@?$output_processor@DV?$stream_output_adapter@D@__crt_stdio_output@@V?$positional_parameter_base@DV?$stream_output_adapter@D@__crt_stdio_output@@@2@@__crt_stdio_output@@AAE_NXZ 10050eb0 f i libucrtd:output.obj
 0001:0004fed0       ?state_case_dot@?$output_processor@DV?$stream_output_adapter@D@__crt_stdio_output@@V?$standard_base@DV?$stream_output_adapter@D@__crt_stdio_output@@@2@@__crt_stdio_output@@AAE_NXZ 10050ed0 f i libucrtd:output.obj
 0001:0004fef0       ?state_case_dot@?$output_processor@DV?$string_output_adapter@D@__crt_stdio_output@@V?$format_validation_base@DV?$string_output_adapter@D@__crt_stdio_output@@@2@@__crt_stdio_output@@AAE_NXZ 10050ef0 f i libucrtd:output.obj
 0001:0004ff10       ?state_case_dot@?$output_processor@DV?$string_output_adapter@D@__crt_stdio_output@@V?$positional_parameter_base@DV?$string_output_adapter@D@__crt_stdio_output@@@2@@__crt_stdio_output@@AAE_NXZ 10050f10 f i libucrtd:output.obj
 0001:0004ff30       ?state_case_dot@?$output_processor@DV?$string_output_adapter@D@__crt_stdio_output@@V?$standard_base@DV?$string_output_adapter@D@__crt_stdio_output@@@2@@__crt_stdio_output@@AAE_NXZ 10050f30 f i libucrtd:output.obj
 0001:0004ff50       ?state_case_dot@?$output_processor@_WV?$stream_output_adapter@_W@__crt_stdio_output@@V?$format_validation_base@_WV?$stream_output_adapter@_W@__crt_stdio_output@@@2@@__crt_stdio_output@@AAE_NXZ 10050f50 f i libucrtd:output.obj
 0001:0004ff70       ?state_case_dot@?$output_processor@_WV?$stream_output_adapter@_W@__crt_stdio_output@@V?$positional_parameter_base@_WV?$stream_output_adapter@_W@__crt_stdio_output@@@2@@__crt_stdio_output@@AAE_NXZ 10050f70 f i libucrtd:output.obj
 0001:0004ff90       ?state_case_dot@?$output_processor@_WV?$stream_output_adapter@_W@__crt_stdio_output@@V?$standard_base@_WV?$stream_output_adapter@_W@__crt_stdio_output@@@2@@__crt_stdio_output@@AAE_NXZ 10050f90 f i libucrtd:output.obj
 0001:0004ffb0       ?state_case_dot@?$output_processor@_WV?$string_output_adapter@_W@__crt_stdio_output@@V?$format_validation_base@_WV?$string_output_adapter@_W@__crt_stdio_output@@@2@@__crt_stdio_output@@AAE_NXZ 10050fb0 f i libucrtd:output.obj
 0001:0004ffd0       ?state_case_dot@?$output_processor@_WV?$string_output_adapter@_W@__crt_stdio_output@@V?$positional_parameter_base@_WV?$string_output_adapter@_W@__crt_stdio_output@@@2@@__crt_stdio_output@@AAE_NXZ 10050fd0 f i libucrtd:output.obj
 0001:0004fff0       ?state_case_dot@?$output_processor@_WV?$string_output_adapter@_W@__crt_stdio_output@@V?$standard_base@_WV?$string_output_adapter@_W@__crt_stdio_output@@@2@@__crt_stdio_output@@AAE_NXZ 10050ff0 f i libucrtd:output.obj
 0001:00050010       ?state_case_flag@?$output_processor@DV?$stream_output_adapter@D@__crt_stdio_output@@V?$format_validation_base@DV?$stream_output_adapter@D@__crt_stdio_output@@@2@@__crt_stdio_output@@AAE_NXZ 10051010 f i libucrtd:output.obj
 0001:000500c0       ?state_case_flag@?$output_processor@DV?$stream_output_adapter@D@__crt_stdio_output@@V?$positional_parameter_base@DV?$stream_output_adapter@D@__crt_stdio_output@@@2@@__crt_stdio_output@@AAE_NXZ 100510c0 f i libucrtd:output.obj
 0001:00050170       ?state_case_flag@?$output_processor@DV?$stream_output_adapter@D@__crt_stdio_output@@V?$standard_base@DV?$stream_output_adapter@D@__crt_stdio_output@@@2@@__crt_stdio_output@@AAE_NXZ 10051170 f i libucrtd:output.obj
 0001:00050220       ?state_case_flag@?$output_processor@DV?$string_output_adapter@D@__crt_stdio_output@@V?$format_validation_base@DV?$string_output_adapter@D@__crt_stdio_output@@@2@@__crt_stdio_output@@AAE_NXZ 10051220 f i libucrtd:output.obj
 0001:000502d0       ?state_case_flag@?$output_processor@DV?$string_output_adapter@D@__crt_stdio_output@@V?$positional_parameter_base@DV?$string_output_adapter@D@__crt_stdio_output@@@2@@__crt_stdio_output@@AAE_NXZ 100512d0 f i libucrtd:output.obj
 0001:00050380       ?state_case_flag@?$output_processor@DV?$string_output_adapter@D@__crt_stdio_output@@V?$standard_base@DV?$string_output_adapter@D@__crt_stdio_output@@@2@@__crt_stdio_output@@AAE_NXZ 10051380 f i libucrtd:output.obj
 0001:00050430       ?state_case_flag@?$output_processor@_WV?$stream_output_adapter@_W@__crt_stdio_output@@V?$format_validation_base@_WV?$stream_output_adapter@_W@__crt_stdio_output@@@2@@__crt_stdio_output@@AAE_NXZ 10051430 f i libucrtd:output.obj
 0001:000504e0       ?state_case_flag@?$output_processor@_WV?$stream_output_adapter@_W@__crt_stdio_output@@V?$positional_parameter_base@_WV?$stream_output_adapter@_W@__crt_stdio_output@@@2@@__crt_stdio_output@@AAE_NXZ 100514e0 f i libucrtd:output.obj
 0001:00050590       ?state_case_flag@?$output_processor@_WV?$stream_output_adapter@_W@__crt_stdio_output@@V?$standard_base@_WV?$stream_output_adapter@_W@__crt_stdio_output@@@2@@__crt_stdio_output@@AAE_NXZ 10051590 f i libucrtd:output.obj
 0001:00050640       ?state_case_flag@?$output_processor@_WV?$string_output_adapter@_W@__crt_stdio_output@@V?$format_validation_base@_WV?$string_output_adapter@_W@__crt_stdio_output@@@2@@__crt_stdio_output@@AAE_NXZ 10051640 f i libucrtd:output.obj
 0001:000506f0       ?state_case_flag@?$output_processor@_WV?$string_output_adapter@_W@__crt_stdio_output@@V?$positional_parameter_base@_WV?$string_output_adapter@_W@__crt_stdio_output@@@2@@__crt_stdio_output@@AAE_NXZ 100516f0 f i libucrtd:output.obj
 0001:000507a0       ?state_case_flag@?$output_processor@_WV?$string_output_adapter@_W@__crt_stdio_output@@V?$standard_base@_WV?$string_output_adapter@_W@__crt_stdio_output@@@2@@__crt_stdio_output@@AAE_NXZ 100517a0 f i libucrtd:output.obj
 0001:00050850       ?state_case_normal@?$output_processor@DV?$stream_output_adapter@D@__crt_stdio_output@@V?$format_validation_base@DV?$stream_output_adapter@D@__crt_stdio_output@@@2@@__crt_stdio_output@@AAE_NXZ 10051850 f i libucrtd:output.obj
 0001:00050900       ?state_case_normal@?$output_processor@DV?$stream_output_adapter@D@__crt_stdio_output@@V?$positional_parameter_base@DV?$stream_output_adapter@D@__crt_stdio_output@@@2@@__crt_stdio_output@@AAE_NXZ 10051900 f i libucrtd:output.obj
 0001:000509b0       ?state_case_normal@?$output_processor@DV?$stream_output_adapter@D@__crt_stdio_output@@V?$standard_base@DV?$stream_output_adapter@D@__crt_stdio_output@@@2@@__crt_stdio_output@@AAE_NXZ 100519b0 f i libucrtd:output.obj
 0001:00050a60       ?state_case_normal@?$output_processor@DV?$string_output_adapter@D@__crt_stdio_output@@V?$format_validation_base@DV?$string_output_adapter@D@__crt_stdio_output@@@2@@__crt_stdio_output@@AAE_NXZ 10051a60 f i libucrtd:output.obj
 0001:00050b10       ?state_case_normal@?$output_processor@DV?$string_output_adapter@D@__crt_stdio_output@@V?$positional_parameter_base@DV?$string_output_adapter@D@__crt_stdio_output@@@2@@__crt_stdio_output@@AAE_NXZ 10051b10 f i libucrtd:output.obj
 0001:00050bc0       ?state_case_normal@?$output_processor@DV?$string_output_adapter@D@__crt_stdio_output@@V?$standard_base@DV?$string_output_adapter@D@__crt_stdio_output@@@2@@__crt_stdio_output@@AAE_NXZ 10051bc0 f i libucrtd:output.obj
 0001:00050c70       ?state_case_normal@?$output_processor@_WV?$stream_output_adapter@_W@__crt_stdio_output@@V?$format_validation_base@_WV?$stream_output_adapter@_W@__crt_stdio_output@@@2@@__crt_stdio_output@@AAE_NXZ 10051c70 f i libucrtd:output.obj
 0001:00050d20       ?state_case_normal@?$output_processor@_WV?$stream_output_adapter@_W@__crt_stdio_output@@V?$positional_parameter_base@_WV?$stream_output_adapter@_W@__crt_stdio_output@@@2@@__crt_stdio_output@@AAE_NXZ 10051d20 f i libucrtd:output.obj
 0001:00050dd0       ?state_case_normal@?$output_processor@_WV?$stream_output_adapter@_W@__crt_stdio_output@@V?$standard_base@_WV?$stream_output_adapter@_W@__crt_stdio_output@@@2@@__crt_stdio_output@@AAE_NXZ 10051dd0 f i libucrtd:output.obj
 0001:00050e80       ?state_case_normal@?$output_processor@_WV?$string_output_adapter@_W@__crt_stdio_output@@V?$format_validation_base@_WV?$string_output_adapter@_W@__crt_stdio_output@@@2@@__crt_stdio_output@@AAE_NXZ 10051e80 f i libucrtd:output.obj
 0001:00050f30       ?state_case_normal@?$output_processor@_WV?$string_output_adapter@_W@__crt_stdio_output@@V?$positional_parameter_base@_WV?$string_output_adapter@_W@__crt_stdio_output@@@2@@__crt_stdio_output@@AAE_NXZ 10051f30 f i libucrtd:output.obj
 0001:00050fe0       ?state_case_normal@?$output_processor@_WV?$string_output_adapter@_W@__crt_stdio_output@@V?$standard_base@_WV?$string_output_adapter@_W@__crt_stdio_output@@@2@@__crt_stdio_output@@AAE_NXZ 10051fe0 f i libucrtd:output.obj
 0001:00051090       ?state_case_normal_common@?$output_processor@DV?$stream_output_adapter@D@__crt_stdio_output@@V?$format_validation_base@DV?$stream_output_adapter@D@__crt_stdio_output@@@2@@__crt_stdio_output@@AAE_NXZ 10052090 f i libucrtd:output.obj
 0001:000510e0       ?state_case_normal_common@?$output_processor@DV?$stream_output_adapter@D@__crt_stdio_output@@V?$positional_parameter_base@DV?$stream_output_adapter@D@__crt_stdio_output@@@2@@__crt_stdio_output@@AAE_NXZ 100520e0 f i libucrtd:output.obj
 0001:00051130       ?state_case_normal_common@?$output_processor@DV?$stream_output_adapter@D@__crt_stdio_output@@V?$standard_base@DV?$stream_output_adapter@D@__crt_stdio_output@@@2@@__crt_stdio_output@@AAE_NXZ 10052130 f i libucrtd:output.obj
 0001:00051180       ?state_case_normal_common@?$output_processor@DV?$string_output_adapter@D@__crt_stdio_output@@V?$format_validation_base@DV?$string_output_adapter@D@__crt_stdio_output@@@2@@__crt_stdio_output@@AAE_NXZ 10052180 f i libucrtd:output.obj
 0001:000511d0       ?state_case_normal_common@?$output_processor@DV?$string_output_adapter@D@__crt_stdio_output@@V?$positional_parameter_base@DV?$string_output_adapter@D@__crt_stdio_output@@@2@@__crt_stdio_output@@AAE_NXZ 100521d0 f i libucrtd:output.obj
 0001:00051220       ?state_case_normal_common@?$output_processor@DV?$string_output_adapter@D@__crt_stdio_output@@V?$standard_base@DV?$string_output_adapter@D@__crt_stdio_output@@@2@@__crt_stdio_output@@AAE_NXZ 10052220 f i libucrtd:output.obj
 0001:00051270       ?state_case_normal_common@?$output_processor@_WV?$stream_output_adapter@_W@__crt_stdio_output@@V?$format_validation_base@_WV?$stream_output_adapter@_W@__crt_stdio_output@@@2@@__crt_stdio_output@@AAE_NXZ 10052270 f i libucrtd:output.obj
 0001:000512c0       ?state_case_normal_common@?$output_processor@_WV?$stream_output_adapter@_W@__crt_stdio_output@@V?$positional_parameter_base@_WV?$stream_output_adapter@_W@__crt_stdio_output@@@2@@__crt_stdio_output@@AAE_NXZ 100522c0 f i libucrtd:output.obj
 0001:00051310       ?state_case_normal_common@?$output_processor@_WV?$stream_output_adapter@_W@__crt_stdio_output@@V?$standard_base@_WV?$stream_output_adapter@_W@__crt_stdio_output@@@2@@__crt_stdio_output@@AAE_NXZ 10052310 f i libucrtd:output.obj
 0001:00051360       ?state_case_normal_common@?$output_processor@_WV?$string_output_adapter@_W@__crt_stdio_output@@V?$format_validation_base@_WV?$string_output_adapter@_W@__crt_stdio_output@@@2@@__crt_stdio_output@@AAE_NXZ 10052360 f i libucrtd:output.obj
 0001:000513b0       ?state_case_normal_common@?$output_processor@_WV?$string_output_adapter@_W@__crt_stdio_output@@V?$positional_parameter_base@_WV?$string_output_adapter@_W@__crt_stdio_output@@@2@@__crt_stdio_output@@AAE_NXZ 100523b0 f i libucrtd:output.obj
 0001:00051400       ?state_case_normal_common@?$output_processor@_WV?$string_output_adapter@_W@__crt_stdio_output@@V?$standard_base@_WV?$string_output_adapter@_W@__crt_stdio_output@@@2@@__crt_stdio_output@@AAE_NXZ 10052400 f i libucrtd:output.obj
 0001:00051450       ?state_case_normal_tchar@?$output_processor@DV?$stream_output_adapter@D@__crt_stdio_output@@V?$format_validation_base@DV?$stream_output_adapter@D@__crt_stdio_output@@@2@@__crt_stdio_output@@AAE_ND@Z 10052450 f i libucrtd:output.obj
 0001:00051550       ?state_case_normal_tchar@?$output_processor@DV?$stream_output_adapter@D@__crt_stdio_output@@V?$positional_parameter_base@DV?$stream_output_adapter@D@__crt_stdio_output@@@2@@__crt_stdio_output@@AAE_ND@Z 10052550 f i libucrtd:output.obj
 0001:00051650       ?state_case_normal_tchar@?$output_processor@DV?$stream_output_adapter@D@__crt_stdio_output@@V?$standard_base@DV?$stream_output_adapter@D@__crt_stdio_output@@@2@@__crt_stdio_output@@AAE_ND@Z 10052650 f i libucrtd:output.obj
 0001:00051750       ?state_case_normal_tchar@?$output_processor@DV?$string_output_adapter@D@__crt_stdio_output@@V?$format_validation_base@DV?$string_output_adapter@D@__crt_stdio_output@@@2@@__crt_stdio_output@@AAE_ND@Z 10052750 f i libucrtd:output.obj
 0001:00051850       ?state_case_normal_tchar@?$output_processor@DV?$string_output_adapter@D@__crt_stdio_output@@V?$positional_parameter_base@DV?$string_output_adapter@D@__crt_stdio_output@@@2@@__crt_stdio_output@@AAE_ND@Z 10052850 f i libucrtd:output.obj
 0001:00051950       ?state_case_normal_tchar@?$output_processor@DV?$string_output_adapter@D@__crt_stdio_output@@V?$standard_base@DV?$string_output_adapter@D@__crt_stdio_output@@@2@@__crt_stdio_output@@AAE_ND@Z 10052950 f i libucrtd:output.obj
 0001:00051a50       ?state_case_normal_tchar@?$output_processor@_WV?$stream_output_adapter@_W@__crt_stdio_output@@V?$format_validation_base@_WV?$stream_output_adapter@_W@__crt_stdio_output@@@2@@__crt_stdio_output@@AAE_N_W@Z 10052a50 f i libucrtd:output.obj
 0001:00051a70       ?state_case_normal_tchar@?$output_processor@_WV?$stream_output_adapter@_W@__crt_stdio_output@@V?$positional_parameter_base@_WV?$stream_output_adapter@_W@__crt_stdio_output@@@2@@__crt_stdio_output@@AAE_N_W@Z 10052a70 f i libucrtd:output.obj
 0001:00051a90       ?state_case_normal_tchar@?$output_processor@_WV?$stream_output_adapter@_W@__crt_stdio_output@@V?$standard_base@_WV?$stream_output_adapter@_W@__crt_stdio_output@@@2@@__crt_stdio_output@@AAE_N_W@Z 10052a90 f i libucrtd:output.obj
 0001:00051ab0       ?state_case_normal_tchar@?$output_processor@_WV?$string_output_adapter@_W@__crt_stdio_output@@V?$format_validation_base@_WV?$string_output_adapter@_W@__crt_stdio_output@@@2@@__crt_stdio_output@@AAE_N_W@Z 10052ab0 f i libucrtd:output.obj
 0001:00051ad0       ?state_case_normal_tchar@?$output_processor@_WV?$string_output_adapter@_W@__crt_stdio_output@@V?$positional_parameter_base@_WV?$string_output_adapter@_W@__crt_stdio_output@@@2@@__crt_stdio_output@@AAE_N_W@Z 10052ad0 f i libucrtd:output.obj
 0001:00051af0       ?state_case_normal_tchar@?$output_processor@_WV?$string_output_adapter@_W@__crt_stdio_output@@V?$standard_base@_WV?$string_output_adapter@_W@__crt_stdio_output@@@2@@__crt_stdio_output@@AAE_N_W@Z 10052af0 f i libucrtd:output.obj
 0001:00051b10       ?state_case_percent@?$output_processor@DV?$stream_output_adapter@D@__crt_stdio_output@@V?$format_validation_base@DV?$stream_output_adapter@D@__crt_stdio_output@@@2@@__crt_stdio_output@@AAE_NXZ 10052b10 f i libucrtd:output.obj
 0001:00051b60       ?state_case_percent@?$output_processor@DV?$stream_output_adapter@D@__crt_stdio_output@@V?$positional_parameter_base@DV?$stream_output_adapter@D@__crt_stdio_output@@@2@@__crt_stdio_output@@AAE_NXZ 10052b60 f i libucrtd:output.obj
 0001:00051bb0       ?state_case_percent@?$output_processor@DV?$stream_output_adapter@D@__crt_stdio_output@@V?$standard_base@DV?$stream_output_adapter@D@__crt_stdio_output@@@2@@__crt_stdio_output@@AAE_NXZ 10052bb0 f i libucrtd:output.obj
 0001:00051c00       ?state_case_percent@?$output_processor@DV?$string_output_adapter@D@__crt_stdio_output@@V?$format_validation_base@DV?$string_output_adapter@D@__crt_stdio_output@@@2@@__crt_stdio_output@@AAE_NXZ 10052c00 f i libucrtd:output.obj
 0001:00051c50       ?state_case_percent@?$output_processor@DV?$string_output_adapter@D@__crt_stdio_output@@V?$positional_parameter_base@DV?$string_output_adapter@D@__crt_stdio_output@@@2@@__crt_stdio_output@@AAE_NXZ 10052c50 f i libucrtd:output.obj
 0001:00051ca0       ?state_case_percent@?$output_processor@DV?$string_output_adapter@D@__crt_stdio_output@@V?$standard_base@DV?$string_output_adapter@D@__crt_stdio_output@@@2@@__crt_stdio_output@@AAE_NXZ 10052ca0 f i libucrtd:output.obj
 0001:00051cf0       ?state_case_percent@?$output_processor@_WV?$stream_output_adapter@_W@__crt_stdio_output@@V?$format_validation_base@_WV?$stream_output_adapter@_W@__crt_stdio_output@@@2@@__crt_stdio_output@@AAE_NXZ 10052cf0 f i libucrtd:output.obj
 0001:00051d40       ?state_case_percent@?$output_processor@_WV?$stream_output_adapter@_W@__crt_stdio_output@@V?$positional_parameter_base@_WV?$stream_output_adapter@_W@__crt_stdio_output@@@2@@__crt_stdio_output@@AAE_NXZ 10052d40 f i libucrtd:output.obj
 0001:00051d90       ?state_case_percent@?$output_processor@_WV?$stream_output_adapter@_W@__crt_stdio_output@@V?$standard_base@_WV?$stream_output_adapter@_W@__crt_stdio_output@@@2@@__crt_stdio_output@@AAE_NXZ 10052d90 f i libucrtd:output.obj
 0001:00051de0       ?state_case_percent@?$output_processor@_WV?$string_output_adapter@_W@__crt_stdio_output@@V?$format_validation_base@_WV?$string_output_adapter@_W@__crt_stdio_output@@@2@@__crt_stdio_output@@AAE_NXZ 10052de0 f i libucrtd:output.obj
 0001:00051e30       ?state_case_percent@?$output_processor@_WV?$string_output_adapter@_W@__crt_stdio_output@@V?$positional_parameter_base@_WV?$string_output_adapter@_W@__crt_stdio_output@@@2@@__crt_stdio_output@@AAE_NXZ 10052e30 f i libucrtd:output.obj
 0001:00051e80       ?state_case_percent@?$output_processor@_WV?$string_output_adapter@_W@__crt_stdio_output@@V?$standard_base@_WV?$string_output_adapter@_W@__crt_stdio_output@@@2@@__crt_stdio_output@@AAE_NXZ 10052e80 f i libucrtd:output.obj
 0001:00051ed0       ?state_case_precision@?$output_processor@DV?$stream_output_adapter@D@__crt_stdio_output@@V?$format_validation_base@DV?$stream_output_adapter@D@__crt_stdio_output@@@2@@__crt_stdio_output@@AAE_NXZ 10052ed0 f i libucrtd:output.obj
 0001:00051f40       ?state_case_precision@?$output_processor@DV?$stream_output_adapter@D@__crt_stdio_output@@V?$positional_parameter_base@DV?$stream_output_adapter@D@__crt_stdio_output@@@2@@__crt_stdio_output@@AAE_NXZ 10052f40 f i libucrtd:output.obj
 0001:00051fb0       ?state_case_precision@?$output_processor@DV?$stream_output_adapter@D@__crt_stdio_output@@V?$standard_base@DV?$stream_output_adapter@D@__crt_stdio_output@@@2@@__crt_stdio_output@@AAE_NXZ 10052fb0 f i libucrtd:output.obj
 0001:00052020       ?state_case_precision@?$output_processor@DV?$string_output_adapter@D@__crt_stdio_output@@V?$format_validation_base@DV?$string_output_adapter@D@__crt_stdio_output@@@2@@__crt_stdio_output@@AAE_NXZ 10053020 f i libucrtd:output.obj
 0001:00052090       ?state_case_precision@?$output_processor@DV?$string_output_adapter@D@__crt_stdio_output@@V?$positional_parameter_base@DV?$string_output_adapter@D@__crt_stdio_output@@@2@@__crt_stdio_output@@AAE_NXZ 10053090 f i libucrtd:output.obj
 0001:00052100       ?state_case_precision@?$output_processor@DV?$string_output_adapter@D@__crt_stdio_output@@V?$standard_base@DV?$string_output_adapter@D@__crt_stdio_output@@@2@@__crt_stdio_output@@AAE_NXZ 10053100 f i libucrtd:output.obj
 0001:00052170       ?state_case_precision@?$output_processor@_WV?$stream_output_adapter@_W@__crt_stdio_output@@V?$format_validation_base@_WV?$stream_output_adapter@_W@__crt_stdio_output@@@2@@__crt_stdio_output@@AAE_NXZ 10053170 f i libucrtd:output.obj
 0001:000521e0       ?state_case_precision@?$output_processor@_WV?$stream_output_adapter@_W@__crt_stdio_output@@V?$positional_parameter_base@_WV?$stream_output_adapter@_W@__crt_stdio_output@@@2@@__crt_stdio_output@@AAE_NXZ 100531e0 f i libucrtd:output.obj
 0001:00052250       ?state_case_precision@?$output_processor@_WV?$stream_output_adapter@_W@__crt_stdio_output@@V?$standard_base@_WV?$stream_output_adapter@_W@__crt_stdio_output@@@2@@__crt_stdio_output@@AAE_NXZ 10053250 f i libucrtd:output.obj
 0001:000522c0       ?state_case_precision@?$output_processor@_WV?$string_output_adapter@_W@__crt_stdio_output@@V?$format_validation_base@_WV?$string_output_adapter@_W@__crt_stdio_output@@@2@@__crt_stdio_output@@AAE_NXZ 100532c0 f i libucrtd:output.obj
 0001:00052330       ?state_case_precision@?$output_processor@_WV?$string_output_adapter@_W@__crt_stdio_output@@V?$positional_parameter_base@_WV?$string_output_adapter@_W@__crt_stdio_output@@@2@@__crt_stdio_output@@AAE_NXZ 10053330 f i libucrtd:output.obj
 0001:000523a0       ?state_case_precision@?$output_processor@_WV?$string_output_adapter@_W@__crt_stdio_output@@V?$standard_base@_WV?$string_output_adapter@_W@__crt_stdio_output@@@2@@__crt_stdio_output@@AAE_NXZ 100533a0 f i libucrtd:output.obj
 0001:00052410       ?state_case_size@?$output_processor@DV?$stream_output_adapter@D@__crt_stdio_output@@V?$format_validation_base@DV?$stream_output_adapter@D@__crt_stdio_output@@@2@@__crt_stdio_output@@AAE_NXZ 10053410 f i libucrtd:output.obj
 0001:000527e0       ?state_case_size@?$output_processor@DV?$stream_output_adapter@D@__crt_stdio_output@@V?$positional_parameter_base@DV?$stream_output_adapter@D@__crt_stdio_output@@@2@@__crt_stdio_output@@AAE_NXZ 100537e0 f i libucrtd:output.obj
 0001:00052bb0       ?state_case_size@?$output_processor@DV?$stream_output_adapter@D@__crt_stdio_output@@V?$standard_base@DV?$stream_output_adapter@D@__crt_stdio_output@@@2@@__crt_stdio_output@@AAE_NXZ 10053bb0 f i libucrtd:output.obj
 0001:00052f80       ?state_case_size@?$output_processor@DV?$string_output_adapter@D@__crt_stdio_output@@V?$format_validation_base@DV?$string_output_adapter@D@__crt_stdio_output@@@2@@__crt_stdio_output@@AAE_NXZ 10053f80 f i libucrtd:output.obj
 0001:00053350       ?state_case_size@?$output_processor@DV?$string_output_adapter@D@__crt_stdio_output@@V?$positional_parameter_base@DV?$string_output_adapter@D@__crt_stdio_output@@@2@@__crt_stdio_output@@AAE_NXZ 10054350 f i libucrtd:output.obj
 0001:00053720       ?state_case_size@?$output_processor@DV?$string_output_adapter@D@__crt_stdio_output@@V?$standard_base@DV?$string_output_adapter@D@__crt_stdio_output@@@2@@__crt_stdio_output@@AAE_NXZ 10054720 f i libucrtd:output.obj
 0001:00053af0       ?state_case_size@?$output_processor@_WV?$stream_output_adapter@_W@__crt_stdio_output@@V?$format_validation_base@_WV?$stream_output_adapter@_W@__crt_stdio_output@@@2@@__crt_stdio_output@@AAE_NXZ 10054af0 f i libucrtd:output.obj
 0001:00053ec0       ?state_case_size@?$output_processor@_WV?$stream_output_adapter@_W@__crt_stdio_output@@V?$positional_parameter_base@_WV?$stream_output_adapter@_W@__crt_stdio_output@@@2@@__crt_stdio_output@@AAE_NXZ 10054ec0 f i libucrtd:output.obj
 0001:00054290       ?state_case_size@?$output_processor@_WV?$stream_output_adapter@_W@__crt_stdio_output@@V?$standard_base@_WV?$stream_output_adapter@_W@__crt_stdio_output@@@2@@__crt_stdio_output@@AAE_NXZ 10055290 f i libucrtd:output.obj
 0001:00054660       ?state_case_size@?$output_processor@_WV?$string_output_adapter@_W@__crt_stdio_output@@V?$format_validation_base@_WV?$string_output_adapter@_W@__crt_stdio_output@@@2@@__crt_stdio_output@@AAE_NXZ 10055660 f i libucrtd:output.obj
 0001:00054a30       ?state_case_size@?$output_processor@_WV?$string_output_adapter@_W@__crt_stdio_output@@V?$positional_parameter_base@_WV?$string_output_adapter@_W@__crt_stdio_output@@@2@@__crt_stdio_output@@AAE_NXZ 10055a30 f i libucrtd:output.obj
 0001:00054e00       ?state_case_size@?$output_processor@_WV?$string_output_adapter@_W@__crt_stdio_output@@V?$standard_base@_WV?$string_output_adapter@_W@__crt_stdio_output@@@2@@__crt_stdio_output@@AAE_NXZ 10055e00 f i libucrtd:output.obj
 0001:000551d0       ?state_case_type@?$output_processor@DV?$stream_output_adapter@D@__crt_stdio_output@@V?$format_validation_base@DV?$stream_output_adapter@D@__crt_stdio_output@@@2@@__crt_stdio_output@@AAE_NXZ 100561d0 f i libucrtd:output.obj
 0001:00055580       ?state_case_type@?$output_processor@DV?$stream_output_adapter@D@__crt_stdio_output@@V?$positional_parameter_base@DV?$stream_output_adapter@D@__crt_stdio_output@@@2@@__crt_stdio_output@@AAE_NXZ 10056580 f i libucrtd:output.obj
 0001:00055930       ?state_case_type@?$output_processor@DV?$stream_output_adapter@D@__crt_stdio_output@@V?$standard_base@DV?$stream_output_adapter@D@__crt_stdio_output@@@2@@__crt_stdio_output@@AAE_NXZ 10056930 f i libucrtd:output.obj
 0001:00055ce0       ?state_case_type@?$output_processor@DV?$string_output_adapter@D@__crt_stdio_output@@V?$format_validation_base@DV?$string_output_adapter@D@__crt_stdio_output@@@2@@__crt_stdio_output@@AAE_NXZ 10056ce0 f i libucrtd:output.obj
 0001:00056090       ?state_case_type@?$output_processor@DV?$string_output_adapter@D@__crt_stdio_output@@V?$positional_parameter_base@DV?$string_output_adapter@D@__crt_stdio_output@@@2@@__crt_stdio_output@@AAE_NXZ 10057090 f i libucrtd:output.obj
 0001:00056440       ?state_case_type@?$output_processor@DV?$string_output_adapter@D@__crt_stdio_output@@V?$standard_base@DV?$string_output_adapter@D@__crt_stdio_output@@@2@@__crt_stdio_output@@AAE_NXZ 10057440 f i libucrtd:output.obj
 0001:000567f0       ?state_case_type@?$output_processor@_WV?$stream_output_adapter@_W@__crt_stdio_output@@V?$format_validation_base@_WV?$stream_output_adapter@_W@__crt_stdio_output@@@2@@__crt_stdio_output@@AAE_NXZ 100577f0 f i libucrtd:output.obj
 0001:00056bd0       ?state_case_type@?$output_processor@_WV?$stream_output_adapter@_W@__crt_stdio_output@@V?$positional_parameter_base@_WV?$stream_output_adapter@_W@__crt_stdio_output@@@2@@__crt_stdio_output@@AAE_NXZ 10057bd0 f i libucrtd:output.obj
 0001:00056fb0       ?state_case_type@?$output_processor@_WV?$stream_output_adapter@_W@__crt_stdio_output@@V?$standard_base@_WV?$stream_output_adapter@_W@__crt_stdio_output@@@2@@__crt_stdio_output@@AAE_NXZ 10057fb0 f i libucrtd:output.obj
 0001:00057390       ?state_case_type@?$output_processor@_WV?$string_output_adapter@_W@__crt_stdio_output@@V?$format_validation_base@_WV?$string_output_adapter@_W@__crt_stdio_output@@@2@@__crt_stdio_output@@AAE_NXZ 10058390 f i libucrtd:output.obj
 0001:00057770       ?state_case_type@?$output_processor@_WV?$string_output_adapter@_W@__crt_stdio_output@@V?$positional_parameter_base@_WV?$string_output_adapter@_W@__crt_stdio_output@@@2@@__crt_stdio_output@@AAE_NXZ 10058770 f i libucrtd:output.obj
 0001:00057b50       ?state_case_type@?$output_processor@_WV?$string_output_adapter@_W@__crt_stdio_output@@V?$standard_base@_WV?$string_output_adapter@_W@__crt_stdio_output@@@2@@__crt_stdio_output@@AAE_NXZ 10058b50 f i libucrtd:output.obj
 0001:00057f30       ?state_case_width@?$output_processor@DV?$stream_output_adapter@D@__crt_stdio_output@@V?$format_validation_base@DV?$stream_output_adapter@D@__crt_stdio_output@@@2@@__crt_stdio_output@@AAE_NXZ 10058f30 f i libucrtd:output.obj
 0001:00057fb0       ?state_case_width@?$output_processor@DV?$stream_output_adapter@D@__crt_stdio_output@@V?$positional_parameter_base@DV?$stream_output_adapter@D@__crt_stdio_output@@@2@@__crt_stdio_output@@AAE_NXZ 10058fb0 f i libucrtd:output.obj
 0001:00058030       ?state_case_width@?$output_processor@DV?$stream_output_adapter@D@__crt_stdio_output@@V?$standard_base@DV?$stream_output_adapter@D@__crt_stdio_output@@@2@@__crt_stdio_output@@AAE_NXZ 10059030 f i libucrtd:output.obj
 0001:000580b0       ?state_case_width@?$output_processor@DV?$string_output_adapter@D@__crt_stdio_output@@V?$format_validation_base@DV?$string_output_adapter@D@__crt_stdio_output@@@2@@__crt_stdio_output@@AAE_NXZ 100590b0 f i libucrtd:output.obj
 0001:00058130       ?state_case_width@?$output_processor@DV?$string_output_adapter@D@__crt_stdio_output@@V?$positional_parameter_base@DV?$string_output_adapter@D@__crt_stdio_output@@@2@@__crt_stdio_output@@AAE_NXZ 10059130 f i libucrtd:output.obj
 0001:000581b0       ?state_case_width@?$output_processor@DV?$string_output_adapter@D@__crt_stdio_output@@V?$standard_base@DV?$string_output_adapter@D@__crt_stdio_output@@@2@@__crt_stdio_output@@AAE_NXZ 100591b0 f i libucrtd:output.obj
 0001:00058230       ?state_case_width@?$output_processor@_WV?$stream_output_adapter@_W@__crt_stdio_output@@V?$format_validation_base@_WV?$stream_output_adapter@_W@__crt_stdio_output@@@2@@__crt_stdio_output@@AAE_NXZ 10059230 f i libucrtd:output.obj
 0001:000582b0       ?state_case_width@?$output_processor@_WV?$stream_output_adapter@_W@__crt_stdio_output@@V?$positional_parameter_base@_WV?$stream_output_adapter@_W@__crt_stdio_output@@@2@@__crt_stdio_output@@AAE_NXZ 100592b0 f i libucrtd:output.obj
 0001:00058330       ?state_case_width@?$output_processor@_WV?$stream_output_adapter@_W@__crt_stdio_output@@V?$standard_base@_WV?$stream_output_adapter@_W@__crt_stdio_output@@@2@@__crt_stdio_output@@AAE_NXZ 10059330 f i libucrtd:output.obj
 0001:000583b0       ?state_case_width@?$output_processor@_WV?$string_output_adapter@_W@__crt_stdio_output@@V?$format_validation_base@_WV?$string_output_adapter@_W@__crt_stdio_output@@@2@@__crt_stdio_output@@AAE_NXZ 100593b0 f i libucrtd:output.obj
 0001:00058430       ?state_case_width@?$output_processor@_WV?$string_output_adapter@_W@__crt_stdio_output@@V?$positional_parameter_base@_WV?$string_output_adapter@_W@__crt_stdio_output@@@2@@__crt_stdio_output@@AAE_NXZ 10059430 f i libucrtd:output.obj
 0001:000584b0       ?state_case_width@?$output_processor@_WV?$string_output_adapter@_W@__crt_stdio_output@@V?$standard_base@_WV?$string_output_adapter@_W@__crt_stdio_output@@@2@@__crt_stdio_output@@AAE_NXZ 100594b0 f i libucrtd:output.obj
 0001:00058530       ?state_count@?$format_validation_base@DV?$stream_output_adapter@D@__crt_stdio_output@@@__crt_stdio_output@@KAIXZ 10059530 f i libucrtd:output.obj
 0001:00058540       ?state_count@?$format_validation_base@DV?$string_output_adapter@D@__crt_stdio_output@@@__crt_stdio_output@@KAIXZ 10059540 f i libucrtd:output.obj
 0001:00058550       ?state_count@?$format_validation_base@_WV?$stream_output_adapter@_W@__crt_stdio_output@@@__crt_stdio_output@@KAIXZ 10059550 f i libucrtd:output.obj
 0001:00058560       ?state_count@?$format_validation_base@_WV?$string_output_adapter@_W@__crt_stdio_output@@@__crt_stdio_output@@KAIXZ 10059560 f i libucrtd:output.obj
 0001:00058570       ?state_count@?$standard_base@DV?$stream_output_adapter@D@__crt_stdio_output@@@__crt_stdio_output@@KAIXZ 10059570 f i libucrtd:output.obj
 0001:00058580       ?state_count@?$standard_base@DV?$string_output_adapter@D@__crt_stdio_output@@@__crt_stdio_output@@KAIXZ 10059580 f i libucrtd:output.obj
 0001:00058590       ?state_count@?$standard_base@_WV?$stream_output_adapter@_W@__crt_stdio_output@@@__crt_stdio_output@@KAIXZ 10059590 f i libucrtd:output.obj
 0001:000585a0       ?state_count@?$standard_base@_WV?$string_output_adapter@_W@__crt_stdio_output@@@__crt_stdio_output@@KAIXZ 100595a0 f i libucrtd:output.obj
 0001:000585b0       ?state_transition_table@?$format_validation_base@DV?$stream_output_adapter@D@__crt_stdio_output@@@__crt_stdio_output@@KAABV?$spectre_mitigated_lookup_table@Ustate_transition_pair@__crt_stdio_output@@$0IA@@2@XZ 100595b0 f i libucrtd:output.obj
 0001:000585c0       ?state_transition_table@?$format_validation_base@DV?$string_output_adapter@D@__crt_stdio_output@@@__crt_stdio_output@@KAABV?$spectre_mitigated_lookup_table@Ustate_transition_pair@__crt_stdio_output@@$0IA@@2@XZ 100595c0 f i libucrtd:output.obj
 0001:000585d0       ?state_transition_table@?$format_validation_base@_WV?$stream_output_adapter@_W@__crt_stdio_output@@@__crt_stdio_output@@KAABV?$spectre_mitigated_lookup_table@Ustate_transition_pair@__crt_stdio_output@@$0IA@@2@XZ 100595d0 f i libucrtd:output.obj
 0001:000585e0       ?state_transition_table@?$format_validation_base@_WV?$string_output_adapter@_W@__crt_stdio_output@@@__crt_stdio_output@@KAABV?$spectre_mitigated_lookup_table@Ustate_transition_pair@__crt_stdio_output@@$0IA@@2@XZ 100595e0 f i libucrtd:output.obj
 0001:000585f0       ?state_transition_table@?$standard_base@DV?$stream_output_adapter@D@__crt_stdio_output@@@__crt_stdio_output@@KAABV?$spectre_mitigated_lookup_table@Ustate_transition_pair@__crt_stdio_output@@$0IA@@2@XZ 100595f0 f i libucrtd:output.obj
 0001:00058600       ?state_transition_table@?$standard_base@DV?$string_output_adapter@D@__crt_stdio_output@@@__crt_stdio_output@@KAABV?$spectre_mitigated_lookup_table@Ustate_transition_pair@__crt_stdio_output@@$0IA@@2@XZ 10059600 f i libucrtd:output.obj
 0001:00058610       ?state_transition_table@?$standard_base@_WV?$stream_output_adapter@_W@__crt_stdio_output@@@__crt_stdio_output@@KAABV?$spectre_mitigated_lookup_table@Ustate_transition_pair@__crt_stdio_output@@$0IA@@2@XZ 10059610 f i libucrtd:output.obj
 0001:00058620       ?state_transition_table@?$standard_base@_WV?$string_output_adapter@_W@__crt_stdio_output@@@__crt_stdio_output@@KAABV?$spectre_mitigated_lookup_table@Ustate_transition_pair@__crt_stdio_output@@$0IA@@2@XZ 10059620 f i libucrtd:output.obj
 0001:00058630       ?tchar_string@?$common_data@D@__crt_stdio_output@@IAEAAPADD@Z 10059630 f i libucrtd:output.obj
 0001:00058650       ?tchar_string@?$common_data@D@__crt_stdio_output@@IAEAAPADXZ 10059650 f i libucrtd:output.obj
 0001:00058670       ?tchar_string@?$common_data@_W@__crt_stdio_output@@IAEAAPA_WXZ 10059670 f i libucrtd:output.obj
 0001:00058690       ?tchar_string@?$common_data@_W@__crt_stdio_output@@IAEAAPA_W_W@Z 10059690 f i libucrtd:output.obj
 0001:000586b0       ?to_integer_size@__crt_stdio_output@@YAIW4length_modifier@1@@Z 100596b0 f i libucrtd:output.obj
 0001:00058750       ?type_case_X@?$output_processor@DV?$stream_output_adapter@D@__crt_stdio_output@@V?$format_validation_base@DV?$stream_output_adapter@D@__crt_stdio_output@@@2@@__crt_stdio_output@@AAE_NXZ 10059750 f i libucrtd:output.obj
 0001:00058770       ?type_case_X@?$output_processor@DV?$stream_output_adapter@D@__crt_stdio_output@@V?$positional_parameter_base@DV?$stream_output_adapter@D@__crt_stdio_output@@@2@@__crt_stdio_output@@AAE_NXZ 10059770 f i libucrtd:output.obj
 0001:00058790       ?type_case_X@?$output_processor@DV?$stream_output_adapter@D@__crt_stdio_output@@V?$standard_base@DV?$stream_output_adapter@D@__crt_stdio_output@@@2@@__crt_stdio_output@@AAE_NXZ 10059790 f i libucrtd:output.obj
 0001:000587b0       ?type_case_X@?$output_processor@DV?$string_output_adapter@D@__crt_stdio_output@@V?$format_validation_base@DV?$string_output_adapter@D@__crt_stdio_output@@@2@@__crt_stdio_output@@AAE_NXZ 100597b0 f i libucrtd:output.obj
 0001:000587d0       ?type_case_X@?$output_processor@DV?$string_output_adapter@D@__crt_stdio_output@@V?$positional_parameter_base@DV?$string_output_adapter@D@__crt_stdio_output@@@2@@__crt_stdio_output@@AAE_NXZ 100597d0 f i libucrtd:output.obj
 0001:000587f0       ?type_case_X@?$output_processor@DV?$string_output_adapter@D@__crt_stdio_output@@V?$standard_base@DV?$string_output_adapter@D@__crt_stdio_output@@@2@@__crt_stdio_output@@AAE_NXZ 100597f0 f i libucrtd:output.obj
 0001:00058810       ?type_case_X@?$output_processor@_WV?$stream_output_adapter@_W@__crt_stdio_output@@V?$format_validation_base@_WV?$stream_output_adapter@_W@__crt_stdio_output@@@2@@__crt_stdio_output@@AAE_NXZ 10059810 f i libucrtd:output.obj
 0001:00058830       ?type_case_X@?$output_processor@_WV?$stream_output_adapter@_W@__crt_stdio_output@@V?$positional_parameter_base@_WV?$stream_output_adapter@_W@__crt_stdio_output@@@2@@__crt_stdio_output@@AAE_NXZ 10059830 f i libucrtd:output.obj
 0001:00058850       ?type_case_X@?$output_processor@_WV?$stream_output_adapter@_W@__crt_stdio_output@@V?$standard_base@_WV?$stream_output_adapter@_W@__crt_stdio_output@@@2@@__crt_stdio_output@@AAE_NXZ 10059850 f i libucrtd:output.obj
 0001:00058870       ?type_case_X@?$output_processor@_WV?$string_output_adapter@_W@__crt_stdio_output@@V?$format_validation_base@_WV?$string_output_adapter@_W@__crt_stdio_output@@@2@@__crt_stdio_output@@AAE_NXZ 10059870 f i libucrtd:output.obj
 0001:00058890       ?type_case_X@?$output_processor@_WV?$string_output_adapter@_W@__crt_stdio_output@@V?$positional_parameter_base@_WV?$string_output_adapter@_W@__crt_stdio_output@@@2@@__crt_stdio_output@@AAE_NXZ 10059890 f i libucrtd:output.obj
 0001:000588b0       ?type_case_X@?$output_processor@_WV?$string_output_adapter@_W@__crt_stdio_output@@V?$standard_base@_WV?$string_output_adapter@_W@__crt_stdio_output@@@2@@__crt_stdio_output@@AAE_NXZ 100598b0 f i libucrtd:output.obj
 0001:000588d0       ?type_case_Z@?$output_processor@DV?$stream_output_adapter@D@__crt_stdio_output@@V?$format_validation_base@DV?$stream_output_adapter@D@__crt_stdio_output@@@2@@__crt_stdio_output@@AAE_NXZ 100598d0 f i libucrtd:output.obj
 0001:000589c0       ?type_case_Z@?$output_processor@DV?$stream_output_adapter@D@__crt_stdio_output@@V?$positional_parameter_base@DV?$stream_output_adapter@D@__crt_stdio_output@@@2@@__crt_stdio_output@@AAE_NXZ 100599c0 f i libucrtd:output.obj
 0001:00058ab0       ?type_case_Z@?$output_processor@DV?$stream_output_adapter@D@__crt_stdio_output@@V?$standard_base@DV?$stream_output_adapter@D@__crt_stdio_output@@@2@@__crt_stdio_output@@AAE_NXZ 10059ab0 f i libucrtd:output.obj
 0001:00058ba0       ?type_case_Z@?$output_processor@DV?$string_output_adapter@D@__crt_stdio_output@@V?$format_validation_base@DV?$string_output_adapter@D@__crt_stdio_output@@@2@@__crt_stdio_output@@AAE_NXZ 10059ba0 f i libucrtd:output.obj
 0001:00058c90       ?type_case_Z@?$output_processor@DV?$string_output_adapter@D@__crt_stdio_output@@V?$positional_parameter_base@DV?$string_output_adapter@D@__crt_stdio_output@@@2@@__crt_stdio_output@@AAE_NXZ 10059c90 f i libucrtd:output.obj
 0001:00058d80       ?type_case_Z@?$output_processor@DV?$string_output_adapter@D@__crt_stdio_output@@V?$standard_base@DV?$string_output_adapter@D@__crt_stdio_output@@@2@@__crt_stdio_output@@AAE_NXZ 10059d80 f i libucrtd:output.obj
 0001:00058e70       ?type_case_Z@?$output_processor@_WV?$stream_output_adapter@_W@__crt_stdio_output@@V?$format_validation_base@_WV?$stream_output_adapter@_W@__crt_stdio_output@@@2@@__crt_stdio_output@@AAE_NXZ 10059e70 f i libucrtd:output.obj
 0001:00058f60       ?type_case_Z@?$output_processor@_WV?$stream_output_adapter@_W@__crt_stdio_output@@V?$positional_parameter_base@_WV?$stream_output_adapter@_W@__crt_stdio_output@@@2@@__crt_stdio_output@@AAE_NXZ 10059f60 f i libucrtd:output.obj
 0001:00059050       ?type_case_Z@?$output_processor@_WV?$stream_output_adapter@_W@__crt_stdio_output@@V?$standard_base@_WV?$stream_output_adapter@_W@__crt_stdio_output@@@2@@__crt_stdio_output@@AAE_NXZ 1005a050 f i libucrtd:output.obj
 0001:00059140       ?type_case_Z@?$output_processor@_WV?$string_output_adapter@_W@__crt_stdio_output@@V?$format_validation_base@_WV?$string_output_adapter@_W@__crt_stdio_output@@@2@@__crt_stdio_output@@AAE_NXZ 1005a140 f i libucrtd:output.obj
 0001:00059230       ?type_case_Z@?$output_processor@_WV?$string_output_adapter@_W@__crt_stdio_output@@V?$positional_parameter_base@_WV?$string_output_adapter@_W@__crt_stdio_output@@@2@@__crt_stdio_output@@AAE_NXZ 1005a230 f i libucrtd:output.obj
 0001:00059320       ?type_case_Z@?$output_processor@_WV?$string_output_adapter@_W@__crt_stdio_output@@V?$standard_base@_WV?$string_output_adapter@_W@__crt_stdio_output@@@2@@__crt_stdio_output@@AAE_NXZ 1005a320 f i libucrtd:output.obj
 0001:00059410       ?type_case_a@?$output_processor@DV?$stream_output_adapter@D@__crt_stdio_output@@V?$format_validation_base@DV?$stream_output_adapter@D@__crt_stdio_output@@@2@@__crt_stdio_output@@AAE_NXZ 1005a410 f i libucrtd:output.obj
 0001:00059680       ?type_case_a@?$output_processor@DV?$stream_output_adapter@D@__crt_stdio_output@@V?$positional_parameter_base@DV?$stream_output_adapter@D@__crt_stdio_output@@@2@@__crt_stdio_output@@AAE_NXZ 1005a680 f i libucrtd:output.obj
 0001:000598f0       ?type_case_a@?$output_processor@DV?$stream_output_adapter@D@__crt_stdio_output@@V?$standard_base@DV?$stream_output_adapter@D@__crt_stdio_output@@@2@@__crt_stdio_output@@AAE_NXZ 1005a8f0 f i libucrtd:output.obj
 0001:00059b60       ?type_case_a@?$output_processor@DV?$string_output_adapter@D@__crt_stdio_output@@V?$format_validation_base@DV?$string_output_adapter@D@__crt_stdio_output@@@2@@__crt_stdio_output@@AAE_NXZ 1005ab60 f i libucrtd:output.obj
 0001:00059dd0       ?type_case_a@?$output_processor@DV?$string_output_adapter@D@__crt_stdio_output@@V?$positional_parameter_base@DV?$string_output_adapter@D@__crt_stdio_output@@@2@@__crt_stdio_output@@AAE_NXZ 1005add0 f i libucrtd:output.obj
 0001:0005a040       ?type_case_a@?$output_processor@DV?$string_output_adapter@D@__crt_stdio_output@@V?$standard_base@DV?$string_output_adapter@D@__crt_stdio_output@@@2@@__crt_stdio_output@@AAE_NXZ 1005b040 f i libucrtd:output.obj
 0001:0005a2b0       ?type_case_a@?$output_processor@_WV?$stream_output_adapter@_W@__crt_stdio_output@@V?$format_validation_base@_WV?$stream_output_adapter@_W@__crt_stdio_output@@@2@@__crt_stdio_output@@AAE_NXZ 1005b2b0 f i libucrtd:output.obj
 0001:0005a520       ?type_case_a@?$output_processor@_WV?$stream_output_adapter@_W@__crt_stdio_output@@V?$positional_parameter_base@_WV?$stream_output_adapter@_W@__crt_stdio_output@@@2@@__crt_stdio_output@@AAE_NXZ 1005b520 f i libucrtd:output.obj
 0001:0005a790       ?type_case_a@?$output_processor@_WV?$stream_output_adapter@_W@__crt_stdio_output@@V?$standard_base@_WV?$stream_output_adapter@_W@__crt_stdio_output@@@2@@__crt_stdio_output@@AAE_NXZ 1005b790 f i libucrtd:output.obj
 0001:0005aa00       ?type_case_a@?$output_processor@_WV?$string_output_adapter@_W@__crt_stdio_output@@V?$format_validation_base@_WV?$string_output_adapter@_W@__crt_stdio_output@@@2@@__crt_stdio_output@@AAE_NXZ 1005ba00 f i libucrtd:output.obj
 0001:0005ac70       ?type_case_a@?$output_processor@_WV?$string_output_adapter@_W@__crt_stdio_output@@V?$positional_parameter_base@_WV?$string_output_adapter@_W@__crt_stdio_output@@@2@@__crt_stdio_output@@AAE_NXZ 1005bc70 f i libucrtd:output.obj
 0001:0005aee0       ?type_case_a@?$output_processor@_WV?$string_output_adapter@_W@__crt_stdio_output@@V?$standard_base@_WV?$string_output_adapter@_W@__crt_stdio_output@@@2@@__crt_stdio_output@@AAE_NXZ 1005bee0 f i libucrtd:output.obj
 0001:0005b150       ?type_case_c@?$output_processor@DV?$stream_output_adapter@D@__crt_stdio_output@@V?$format_validation_base@DV?$stream_output_adapter@D@__crt_stdio_output@@@2@@__crt_stdio_output@@AAE_NXZ 1005c150 f i libucrtd:output.obj
 0001:0005b170       ?type_case_c@?$output_processor@DV?$stream_output_adapter@D@__crt_stdio_output@@V?$positional_parameter_base@DV?$stream_output_adapter@D@__crt_stdio_output@@@2@@__crt_stdio_output@@AAE_NXZ 1005c170 f i libucrtd:output.obj
 0001:0005b190       ?type_case_c@?$output_processor@DV?$stream_output_adapter@D@__crt_stdio_output@@V?$standard_base@DV?$stream_output_adapter@D@__crt_stdio_output@@@2@@__crt_stdio_output@@AAE_NXZ 1005c190 f i libucrtd:output.obj
 0001:0005b1b0       ?type_case_c@?$output_processor@DV?$string_output_adapter@D@__crt_stdio_output@@V?$format_validation_base@DV?$string_output_adapter@D@__crt_stdio_output@@@2@@__crt_stdio_output@@AAE_NXZ 1005c1b0 f i libucrtd:output.obj
 0001:0005b1d0       ?type_case_c@?$output_processor@DV?$string_output_adapter@D@__crt_stdio_output@@V?$positional_parameter_base@DV?$string_output_adapter@D@__crt_stdio_output@@@2@@__crt_stdio_output@@AAE_NXZ 1005c1d0 f i libucrtd:output.obj
 0001:0005b1f0       ?type_case_c@?$output_processor@DV?$string_output_adapter@D@__crt_stdio_output@@V?$standard_base@DV?$string_output_adapter@D@__crt_stdio_output@@@2@@__crt_stdio_output@@AAE_NXZ 1005c1f0 f i libucrtd:output.obj
 0001:0005b210       ?type_case_c@?$output_processor@_WV?$stream_output_adapter@_W@__crt_stdio_output@@V?$format_validation_base@_WV?$stream_output_adapter@_W@__crt_stdio_output@@@2@@__crt_stdio_output@@AAE_NXZ 1005c210 f i libucrtd:output.obj
 0001:0005b230       ?type_case_c@?$output_processor@_WV?$stream_output_adapter@_W@__crt_stdio_output@@V?$positional_parameter_base@_WV?$stream_output_adapter@_W@__crt_stdio_output@@@2@@__crt_stdio_output@@AAE_NXZ 1005c230 f i libucrtd:output.obj
 0001:0005b250       ?type_case_c@?$output_processor@_WV?$stream_output_adapter@_W@__crt_stdio_output@@V?$standard_base@_WV?$stream_output_adapter@_W@__crt_stdio_output@@@2@@__crt_stdio_output@@AAE_NXZ 1005c250 f i libucrtd:output.obj
 0001:0005b270       ?type_case_c@?$output_processor@_WV?$string_output_adapter@_W@__crt_stdio_output@@V?$format_validation_base@_WV?$string_output_adapter@_W@__crt_stdio_output@@@2@@__crt_stdio_output@@AAE_NXZ 1005c270 f i libucrtd:output.obj
 0001:0005b290       ?type_case_c@?$output_processor@_WV?$string_output_adapter@_W@__crt_stdio_output@@V?$positional_parameter_base@_WV?$string_output_adapter@_W@__crt_stdio_output@@@2@@__crt_stdio_output@@AAE_NXZ 1005c290 f i libucrtd:output.obj
 0001:0005b2b0       ?type_case_c@?$output_processor@_WV?$string_output_adapter@_W@__crt_stdio_output@@V?$standard_base@_WV?$string_output_adapter@_W@__crt_stdio_output@@@2@@__crt_stdio_output@@AAE_NXZ 1005c2b0 f i libucrtd:output.obj
 0001:0005b2d0       ?type_case_c_tchar@?$output_processor@DV?$stream_output_adapter@D@__crt_stdio_output@@V?$format_validation_base@DV?$stream_output_adapter@D@__crt_stdio_output@@@2@@__crt_stdio_output@@AAE_ND@Z 1005c2d0 f i libucrtd:output.obj
 0001:0005b3e0       ?type_case_c_tchar@?$output_processor@DV?$stream_output_adapter@D@__crt_stdio_output@@V?$positional_parameter_base@DV?$stream_output_adapter@D@__crt_stdio_output@@@2@@__crt_stdio_output@@AAE_ND@Z 1005c3e0 f i libucrtd:output.obj
 0001:0005b4f0       ?type_case_c_tchar@?$output_processor@DV?$stream_output_adapter@D@__crt_stdio_output@@V?$standard_base@DV?$stream_output_adapter@D@__crt_stdio_output@@@2@@__crt_stdio_output@@AAE_ND@Z 1005c4f0 f i libucrtd:output.obj
 0001:0005b600       ?type_case_c_tchar@?$output_processor@DV?$string_output_adapter@D@__crt_stdio_output@@V?$format_validation_base@DV?$string_output_adapter@D@__crt_stdio_output@@@2@@__crt_stdio_output@@AAE_ND@Z 1005c600 f i libucrtd:output.obj
 0001:0005b710       ?type_case_c_tchar@?$output_processor@DV?$string_output_adapter@D@__crt_stdio_output@@V?$positional_parameter_base@DV?$string_output_adapter@D@__crt_stdio_output@@@2@@__crt_stdio_output@@AAE_ND@Z 1005c710 f i libucrtd:output.obj
 0001:0005b820       ?type_case_c_tchar@?$output_processor@DV?$string_output_adapter@D@__crt_stdio_output@@V?$standard_base@DV?$string_output_adapter@D@__crt_stdio_output@@@2@@__crt_stdio_output@@AAE_ND@Z 1005c820 f i libucrtd:output.obj
 0001:0005b930       ?type_case_c_tchar@?$output_processor@_WV?$stream_output_adapter@_W@__crt_stdio_output@@V?$format_validation_base@_WV?$stream_output_adapter@_W@__crt_stdio_output@@@2@@__crt_stdio_output@@AAE_N_W@Z 1005c930 f i libucrtd:output.obj
 0001:0005ba30       ?type_case_c_tchar@?$output_processor@_WV?$stream_output_adapter@_W@__crt_stdio_output@@V?$positional_parameter_base@_WV?$stream_output_adapter@_W@__crt_stdio_output@@@2@@__crt_stdio_output@@AAE_N_W@Z 1005ca30 f i libucrtd:output.obj
 0001:0005bb30       ?type_case_c_tchar@?$output_processor@_WV?$stream_output_adapter@_W@__crt_stdio_output@@V?$standard_base@_WV?$stream_output_adapter@_W@__crt_stdio_output@@@2@@__crt_stdio_output@@AAE_N_W@Z 1005cb30 f i libucrtd:output.obj
 0001:0005bc30       ?type_case_c_tchar@?$output_processor@_WV?$string_output_adapter@_W@__crt_stdio_output@@V?$format_validation_base@_WV?$string_output_adapter@_W@__crt_stdio_output@@@2@@__crt_stdio_output@@AAE_N_W@Z 1005cc30 f i libucrtd:output.obj
 0001:0005bd30       ?type_case_c_tchar@?$output_processor@_WV?$string_output_adapter@_W@__crt_stdio_output@@V?$positional_parameter_base@_WV?$string_output_adapter@_W@__crt_stdio_output@@@2@@__crt_stdio_output@@AAE_N_W@Z 1005cd30 f i libucrtd:output.obj
 0001:0005be30       ?type_case_c_tchar@?$output_processor@_WV?$string_output_adapter@_W@__crt_stdio_output@@V?$standard_base@_WV?$string_output_adapter@_W@__crt_stdio_output@@@2@@__crt_stdio_output@@AAE_N_W@Z 1005ce30 f i libucrtd:output.obj
 0001:0005bf30       ?type_case_d@?$output_processor@DV?$stream_output_adapter@D@__crt_stdio_output@@V?$format_validation_base@DV?$stream_output_adapter@D@__crt_stdio_output@@@2@@__crt_stdio_output@@AAE_NXZ 1005cf30 f i libucrtd:output.obj
 0001:0005bf60       ?type_case_d@?$output_processor@DV?$stream_output_adapter@D@__crt_stdio_output@@V?$positional_parameter_base@DV?$stream_output_adapter@D@__crt_stdio_output@@@2@@__crt_stdio_output@@AAE_NXZ 1005cf60 f i libucrtd:output.obj
 0001:0005bf90       ?type_case_d@?$output_processor@DV?$stream_output_adapter@D@__crt_stdio_output@@V?$standard_base@DV?$stream_output_adapter@D@__crt_stdio_output@@@2@@__crt_stdio_output@@AAE_NXZ 1005cf90 f i libucrtd:output.obj
 0001:0005bfc0       ?type_case_d@?$output_processor@DV?$string_output_adapter@D@__crt_stdio_output@@V?$format_validation_base@DV?$string_output_adapter@D@__crt_stdio_output@@@2@@__crt_stdio_output@@AAE_NXZ 1005cfc0 f i libucrtd:output.obj
 0001:0005bff0       ?type_case_d@?$output_processor@DV?$string_output_adapter@D@__crt_stdio_output@@V?$positional_parameter_base@DV?$string_output_adapter@D@__crt_stdio_output@@@2@@__crt_stdio_output@@AAE_NXZ 1005cff0 f i libucrtd:output.obj
 0001:0005c020       ?type_case_d@?$output_processor@DV?$string_output_adapter@D@__crt_stdio_output@@V?$standard_base@DV?$string_output_adapter@D@__crt_stdio_output@@@2@@__crt_stdio_output@@AAE_NXZ 1005d020 f i libucrtd:output.obj
 0001:0005c050       ?type_case_d@?$output_processor@_WV?$stream_output_adapter@_W@__crt_stdio_output@@V?$format_validation_base@_WV?$stream_output_adapter@_W@__crt_stdio_output@@@2@@__crt_stdio_output@@AAE_NXZ 1005d050 f i libucrtd:output.obj
 0001:0005c080       ?type_case_d@?$output_processor@_WV?$stream_output_adapter@_W@__crt_stdio_output@@V?$positional_parameter_base@_WV?$stream_output_adapter@_W@__crt_stdio_output@@@2@@__crt_stdio_output@@AAE_NXZ 1005d080 f i libucrtd:output.obj
 0001:0005c0b0       ?type_case_d@?$output_processor@_WV?$stream_output_adapter@_W@__crt_stdio_output@@V?$standard_base@_WV?$stream_output_adapter@_W@__crt_stdio_output@@@2@@__crt_stdio_output@@AAE_NXZ 1005d0b0 f i libucrtd:output.obj
 0001:0005c0e0       ?type_case_d@?$output_processor@_WV?$string_output_adapter@_W@__crt_stdio_output@@V?$format_validation_base@_WV?$string_output_adapter@_W@__crt_stdio_output@@@2@@__crt_stdio_output@@AAE_NXZ 1005d0e0 f i libucrtd:output.obj
 0001:0005c110       ?type_case_d@?$output_processor@_WV?$string_output_adapter@_W@__crt_stdio_output@@V?$positional_parameter_base@_WV?$string_output_adapter@_W@__crt_stdio_output@@@2@@__crt_stdio_output@@AAE_NXZ 1005d110 f i libucrtd:output.obj
 0001:0005c140       ?type_case_d@?$output_processor@_WV?$string_output_adapter@_W@__crt_stdio_output@@V?$standard_base@_WV?$string_output_adapter@_W@__crt_stdio_output@@@2@@__crt_stdio_output@@AAE_NXZ 1005d140 f i libucrtd:output.obj
 0001:0005c170       ?type_case_integer@?$output_processor@DV?$stream_output_adapter@D@__crt_stdio_output@@V?$format_validation_base@DV?$stream_output_adapter@D@__crt_stdio_output@@@2@@__crt_stdio_output@@AAE_NI_N@Z 1005d170 f i libucrtd:output.obj
 0001:0005c4c0       ?type_case_integer@?$output_processor@DV?$stream_output_adapter@D@__crt_stdio_output@@V?$positional_parameter_base@DV?$stream_output_adapter@D@__crt_stdio_output@@@2@@__crt_stdio_output@@AAE_NI_N@Z 1005d4c0 f i libucrtd:output.obj
 0001:0005c810       ?type_case_integer@?$output_processor@DV?$stream_output_adapter@D@__crt_stdio_output@@V?$standard_base@DV?$stream_output_adapter@D@__crt_stdio_output@@@2@@__crt_stdio_output@@AAE_NI_N@Z 1005d810 f i libucrtd:output.obj
 0001:0005cb60       ?type_case_integer@?$output_processor@DV?$string_output_adapter@D@__crt_stdio_output@@V?$format_validation_base@DV?$string_output_adapter@D@__crt_stdio_output@@@2@@__crt_stdio_output@@AAE_NI_N@Z 1005db60 f i libucrtd:output.obj
 0001:0005ceb0       ?type_case_integer@?$output_processor@DV?$string_output_adapter@D@__crt_stdio_output@@V?$positional_parameter_base@DV?$string_output_adapter@D@__crt_stdio_output@@@2@@__crt_stdio_output@@AAE_NI_N@Z 1005deb0 f i libucrtd:output.obj
 0001:0005d200       ?type_case_integer@?$output_processor@DV?$string_output_adapter@D@__crt_stdio_output@@V?$standard_base@DV?$string_output_adapter@D@__crt_stdio_output@@@2@@__crt_stdio_output@@AAE_NI_N@Z 1005e200 f i libucrtd:output.obj
 0001:0005d550       ?type_case_integer@?$output_processor@_WV?$stream_output_adapter@_W@__crt_stdio_output@@V?$format_validation_base@_WV?$stream_output_adapter@_W@__crt_stdio_output@@@2@@__crt_stdio_output@@AAE_NI_N@Z 1005e550 f i libucrtd:output.obj
 0001:0005d8a0       ?type_case_integer@?$output_processor@_WV?$stream_output_adapter@_W@__crt_stdio_output@@V?$positional_parameter_base@_WV?$stream_output_adapter@_W@__crt_stdio_output@@@2@@__crt_stdio_output@@AAE_NI_N@Z 1005e8a0 f i libucrtd:output.obj
 0001:0005dbf0       ?type_case_integer@?$output_processor@_WV?$stream_output_adapter@_W@__crt_stdio_output@@V?$standard_base@_WV?$stream_output_adapter@_W@__crt_stdio_output@@@2@@__crt_stdio_output@@AAE_NI_N@Z 1005ebf0 f i libucrtd:output.obj
 0001:0005df40       ?type_case_integer@?$output_processor@_WV?$string_output_adapter@_W@__crt_stdio_output@@V?$format_validation_base@_WV?$string_output_adapter@_W@__crt_stdio_output@@@2@@__crt_stdio_output@@AAE_NI_N@Z 1005ef40 f i libucrtd:output.obj
 0001:0005e290       ?type_case_integer@?$output_processor@_WV?$string_output_adapter@_W@__crt_stdio_output@@V?$positional_parameter_base@_WV?$string_output_adapter@_W@__crt_stdio_output@@@2@@__crt_stdio_output@@AAE_NI_N@Z 1005f290 f i libucrtd:output.obj
 0001:0005e5e0       ?type_case_integer@?$output_processor@_WV?$string_output_adapter@_W@__crt_stdio_output@@V?$standard_base@_WV?$string_output_adapter@_W@__crt_stdio_output@@@2@@__crt_stdio_output@@AAE_NI_N@Z 1005f5e0 f i libucrtd:output.obj
 0001:0005e930       ?type_case_n@?$output_processor@DV?$stream_output_adapter@D@__crt_stdio_output@@V?$format_validation_base@DV?$stream_output_adapter@D@__crt_stdio_output@@@2@@__crt_stdio_output@@AAE_NXZ 1005f930 f i libucrtd:output.obj
 0001:0005eb20       ?type_case_n@?$output_processor@DV?$stream_output_adapter@D@__crt_stdio_output@@V?$positional_parameter_base@DV?$stream_output_adapter@D@__crt_stdio_output@@@2@@__crt_stdio_output@@AAE_NXZ 1005fb20 f i libucrtd:output.obj
 0001:0005ed10       ?type_case_n@?$output_processor@DV?$stream_output_adapter@D@__crt_stdio_output@@V?$standard_base@DV?$stream_output_adapter@D@__crt_stdio_output@@@2@@__crt_stdio_output@@AAE_NXZ 1005fd10 f i libucrtd:output.obj
 0001:0005ef00       ?type_case_n@?$output_processor@DV?$string_output_adapter@D@__crt_stdio_output@@V?$format_validation_base@DV?$string_output_adapter@D@__crt_stdio_output@@@2@@__crt_stdio_output@@AAE_NXZ 1005ff00 f i libucrtd:output.obj
 0001:0005f0f0       ?type_case_n@?$output_processor@DV?$string_output_adapter@D@__crt_stdio_output@@V?$positional_parameter_base@DV?$string_output_adapter@D@__crt_stdio_output@@@2@@__crt_stdio_output@@AAE_NXZ 100600f0 f i libucrtd:output.obj
 0001:0005f2e0       ?type_case_n@?$output_processor@DV?$string_output_adapter@D@__crt_stdio_output@@V?$standard_base@DV?$string_output_adapter@D@__crt_stdio_output@@@2@@__crt_stdio_output@@AAE_NXZ 100602e0 f i libucrtd:output.obj
 0001:0005f4d0       ?type_case_n@?$output_processor@_WV?$stream_output_adapter@_W@__crt_stdio_output@@V?$format_validation_base@_WV?$stream_output_adapter@_W@__crt_stdio_output@@@2@@__crt_stdio_output@@AAE_NXZ 100604d0 f i libucrtd:output.obj
 0001:0005f6c0       ?type_case_n@?$output_processor@_WV?$stream_output_adapter@_W@__crt_stdio_output@@V?$positional_parameter_base@_WV?$stream_output_adapter@_W@__crt_stdio_output@@@2@@__crt_stdio_output@@AAE_NXZ 100606c0 f i libucrtd:output.obj
 0001:0005f8b0       ?type_case_n@?$output_processor@_WV?$stream_output_adapter@_W@__crt_stdio_output@@V?$standard_base@_WV?$stream_output_adapter@_W@__crt_stdio_output@@@2@@__crt_stdio_output@@AAE_NXZ 100608b0 f i libucrtd:output.obj
 0001:0005faa0       ?type_case_n@?$output_processor@_WV?$string_output_adapter@_W@__crt_stdio_output@@V?$format_validation_base@_WV?$string_output_adapter@_W@__crt_stdio_output@@@2@@__crt_stdio_output@@AAE_NXZ 10060aa0 f i libucrtd:output.obj
 0001:0005fc90       ?type_case_n@?$output_processor@_WV?$string_output_adapter@_W@__crt_stdio_output@@V?$positional_parameter_base@_WV?$string_output_adapter@_W@__crt_stdio_output@@@2@@__crt_stdio_output@@AAE_NXZ 10060c90 f i libucrtd:output.obj
 0001:0005fe80       ?type_case_n@?$output_processor@_WV?$string_output_adapter@_W@__crt_stdio_output@@V?$standard_base@_WV?$string_output_adapter@_W@__crt_stdio_output@@@2@@__crt_stdio_output@@AAE_NXZ 10060e80 f i libucrtd:output.obj
 0001:00060070       ?type_case_o@?$output_processor@DV?$stream_output_adapter@D@__crt_stdio_output@@V?$format_validation_base@DV?$stream_output_adapter@D@__crt_stdio_output@@@2@@__crt_stdio_output@@AAE_NXZ 10061070 f i libucrtd:output.obj
 0001:000600b0       ?type_case_o@?$output_processor@DV?$stream_output_adapter@D@__crt_stdio_output@@V?$positional_parameter_base@DV?$stream_output_adapter@D@__crt_stdio_output@@@2@@__crt_stdio_output@@AAE_NXZ 100610b0 f i libucrtd:output.obj
 0001:000600f0       ?type_case_o@?$output_processor@DV?$stream_output_adapter@D@__crt_stdio_output@@V?$standard_base@DV?$stream_output_adapter@D@__crt_stdio_output@@@2@@__crt_stdio_output@@AAE_NXZ 100610f0 f i libucrtd:output.obj
 0001:00060130       ?type_case_o@?$output_processor@DV?$string_output_adapter@D@__crt_stdio_output@@V?$format_validation_base@DV?$string_output_adapter@D@__crt_stdio_output@@@2@@__crt_stdio_output@@AAE_NXZ 10061130 f i libucrtd:output.obj
 0001:00060170       ?type_case_o@?$output_processor@DV?$string_output_adapter@D@__crt_stdio_output@@V?$positional_parameter_base@DV?$string_output_adapter@D@__crt_stdio_output@@@2@@__crt_stdio_output@@AAE_NXZ 10061170 f i libucrtd:output.obj
 0001:000601b0       ?type_case_o@?$output_processor@DV?$string_output_adapter@D@__crt_stdio_output@@V?$standard_base@DV?$string_output_adapter@D@__crt_stdio_output@@@2@@__crt_stdio_output@@AAE_NXZ 100611b0 f i libucrtd:output.obj
 0001:000601f0       ?type_case_o@?$output_processor@_WV?$stream_output_adapter@_W@__crt_stdio_output@@V?$format_validation_base@_WV?$stream_output_adapter@_W@__crt_stdio_output@@@2@@__crt_stdio_output@@AAE_NXZ 100611f0 f i libucrtd:output.obj
 0001:00060230       ?type_case_o@?$output_processor@_WV?$stream_output_adapter@_W@__crt_stdio_output@@V?$positional_parameter_base@_WV?$stream_output_adapter@_W@__crt_stdio_output@@@2@@__crt_stdio_output@@AAE_NXZ 10061230 f i libucrtd:output.obj
 0001:00060270       ?type_case_o@?$output_processor@_WV?$stream_output_adapter@_W@__crt_stdio_output@@V?$standard_base@_WV?$stream_output_adapter@_W@__crt_stdio_output@@@2@@__crt_stdio_output@@AAE_NXZ 10061270 f i libucrtd:output.obj
 0001:000602b0       ?type_case_o@?$output_processor@_WV?$string_output_adapter@_W@__crt_stdio_output@@V?$format_validation_base@_WV?$string_output_adapter@_W@__crt_stdio_output@@@2@@__crt_stdio_output@@AAE_NXZ 100612b0 f i libucrtd:output.obj
 0001:000602f0       ?type_case_o@?$output_processor@_WV?$string_output_adapter@_W@__crt_stdio_output@@V?$positional_parameter_base@_WV?$string_output_adapter@_W@__crt_stdio_output@@@2@@__crt_stdio_output@@AAE_NXZ 100612f0 f i libucrtd:output.obj
 0001:00060330       ?type_case_o@?$output_processor@_WV?$string_output_adapter@_W@__crt_stdio_output@@V?$standard_base@_WV?$string_output_adapter@_W@__crt_stdio_output@@@2@@__crt_stdio_output@@AAE_NXZ 10061330 f i libucrtd:output.obj
 0001:00060370       ?type_case_p@?$output_processor@DV?$stream_output_adapter@D@__crt_stdio_output@@V?$format_validation_base@DV?$stream_output_adapter@D@__crt_stdio_output@@@2@@__crt_stdio_output@@AAE_NXZ 10061370 f i libucrtd:output.obj
 0001:000603a0       ?type_case_p@?$output_processor@DV?$stream_output_adapter@D@__crt_stdio_output@@V?$positional_parameter_base@DV?$stream_output_adapter@D@__crt_stdio_output@@@2@@__crt_stdio_output@@AAE_NXZ 100613a0 f i libucrtd:output.obj
 0001:000603d0       ?type_case_p@?$output_processor@DV?$stream_output_adapter@D@__crt_stdio_output@@V?$standard_base@DV?$stream_output_adapter@D@__crt_stdio_output@@@2@@__crt_stdio_output@@AAE_NXZ 100613d0 f i libucrtd:output.obj
 0001:00060400       ?type_case_p@?$output_processor@DV?$string_output_adapter@D@__crt_stdio_output@@V?$format_validation_base@DV?$string_output_adapter@D@__crt_stdio_output@@@2@@__crt_stdio_output@@AAE_NXZ 10061400 f i libucrtd:output.obj
 0001:00060430       ?type_case_p@?$output_processor@DV?$string_output_adapter@D@__crt_stdio_output@@V?$positional_parameter_base@DV?$string_output_adapter@D@__crt_stdio_output@@@2@@__crt_stdio_output@@AAE_NXZ 10061430 f i libucrtd:output.obj
 0001:00060460       ?type_case_p@?$output_processor@DV?$string_output_adapter@D@__crt_stdio_output@@V?$standard_base@DV?$string_output_adapter@D@__crt_stdio_output@@@2@@__crt_stdio_output@@AAE_NXZ 10061460 f i libucrtd:output.obj
 0001:00060490       ?type_case_p@?$output_processor@_WV?$stream_output_adapter@_W@__crt_stdio_output@@V?$format_validation_base@_WV?$stream_output_adapter@_W@__crt_stdio_output@@@2@@__crt_stdio_output@@AAE_NXZ 10061490 f i libucrtd:output.obj
 0001:000604c0       ?type_case_p@?$output_processor@_WV?$stream_output_adapter@_W@__crt_stdio_output@@V?$positional_parameter_base@_WV?$stream_output_adapter@_W@__crt_stdio_output@@@2@@__crt_stdio_output@@AAE_NXZ 100614c0 f i libucrtd:output.obj
 0001:000604f0       ?type_case_p@?$output_processor@_WV?$stream_output_adapter@_W@__crt_stdio_output@@V?$standard_base@_WV?$stream_output_adapter@_W@__crt_stdio_output@@@2@@__crt_stdio_output@@AAE_NXZ 100614f0 f i libucrtd:output.obj
 0001:00060520       ?type_case_p@?$output_processor@_WV?$string_output_adapter@_W@__crt_stdio_output@@V?$format_validation_base@_WV?$string_output_adapter@_W@__crt_stdio_output@@@2@@__crt_stdio_output@@AAE_NXZ 10061520 f i libucrtd:output.obj
 0001:00060550       ?type_case_p@?$output_processor@_WV?$string_output_adapter@_W@__crt_stdio_output@@V?$positional_parameter_base@_WV?$string_output_adapter@_W@__crt_stdio_output@@@2@@__crt_stdio_output@@AAE_NXZ 10061550 f i libucrtd:output.obj
 0001:00060580       ?type_case_p@?$output_processor@_WV?$string_output_adapter@_W@__crt_stdio_output@@V?$standard_base@_WV?$string_output_adapter@_W@__crt_stdio_output@@@2@@__crt_stdio_output@@AAE_NXZ 10061580 f i libucrtd:output.obj
 0001:000605b0       ?type_case_s@?$output_processor@DV?$stream_output_adapter@D@__crt_stdio_output@@V?$format_validation_base@DV?$stream_output_adapter@D@__crt_stdio_output@@@2@@__crt_stdio_output@@AAE_NXZ 100615b0 f i libucrtd:output.obj
 0001:000606a0       ?type_case_s@?$output_processor@DV?$stream_output_adapter@D@__crt_stdio_output@@V?$positional_parameter_base@DV?$stream_output_adapter@D@__crt_stdio_output@@@2@@__crt_stdio_output@@AAE_NXZ 100616a0 f i libucrtd:output.obj
 0001:00060790       ?type_case_s@?$output_processor@DV?$stream_output_adapter@D@__crt_stdio_output@@V?$standard_base@DV?$stream_output_adapter@D@__crt_stdio_output@@@2@@__crt_stdio_output@@AAE_NXZ 10061790 f i libucrtd:output.obj
 0001:00060880       ?type_case_s@?$output_processor@DV?$string_output_adapter@D@__crt_stdio_output@@V?$format_validation_base@DV?$string_output_adapter@D@__crt_stdio_output@@@2@@__crt_stdio_output@@AAE_NXZ 10061880 f i libucrtd:output.obj
 0001:00060970       ?type_case_s@?$output_processor@DV?$string_output_adapter@D@__crt_stdio_output@@V?$positional_parameter_base@DV?$string_output_adapter@D@__crt_stdio_output@@@2@@__crt_stdio_output@@AAE_NXZ 10061970 f i libucrtd:output.obj
 0001:00060a60       ?type_case_s@?$output_processor@DV?$string_output_adapter@D@__crt_stdio_output@@V?$standard_base@DV?$string_output_adapter@D@__crt_stdio_output@@@2@@__crt_stdio_output@@AAE_NXZ 10061a60 f i libucrtd:output.obj
 0001:00060b50       ?type_case_s@?$output_processor@_WV?$stream_output_adapter@_W@__crt_stdio_output@@V?$format_validation_base@_WV?$stream_output_adapter@_W@__crt_stdio_output@@@2@@__crt_stdio_output@@AAE_NXZ 10061b50 f i libucrtd:output.obj
 0001:00060c40       ?type_case_s@?$output_processor@_WV?$stream_output_adapter@_W@__crt_stdio_output@@V?$positional_parameter_base@_WV?$stream_output_adapter@_W@__crt_stdio_output@@@2@@__crt_stdio_output@@AAE_NXZ 10061c40 f i libucrtd:output.obj
 0001:00060d30       ?type_case_s@?$output_processor@_WV?$stream_output_adapter@_W@__crt_stdio_output@@V?$standard_base@_WV?$stream_output_adapter@_W@__crt_stdio_output@@@2@@__crt_stdio_output@@AAE_NXZ 10061d30 f i libucrtd:output.obj
 0001:00060e20       ?type_case_s@?$output_processor@_WV?$string_output_adapter@_W@__crt_stdio_output@@V?$format_validation_base@_WV?$string_output_adapter@_W@__crt_stdio_output@@@2@@__crt_stdio_output@@AAE_NXZ 10061e20 f i libucrtd:output.obj
 0001:00060f10       ?type_case_s@?$output_processor@_WV?$string_output_adapter@_W@__crt_stdio_output@@V?$positional_parameter_base@_WV?$string_output_adapter@_W@__crt_stdio_output@@@2@@__crt_stdio_output@@AAE_NXZ 10061f10 f i libucrtd:output.obj
 0001:00061000       ?type_case_s@?$output_processor@_WV?$string_output_adapter@_W@__crt_stdio_output@@V?$standard_base@_WV?$string_output_adapter@_W@__crt_stdio_output@@@2@@__crt_stdio_output@@AAE_NXZ 10062000 f i libucrtd:output.obj
 0001:000610f0       ?type_case_s_compute_narrow_string_length@?$output_processor@DV?$stream_output_adapter@D@__crt_stdio_output@@V?$format_validation_base@DV?$stream_output_adapter@D@__crt_stdio_output@@@2@@__crt_stdio_output@@ABEHHD@Z 100620f0 f i libucrtd:output.obj
 0001:00061120       ?type_case_s_compute_narrow_string_length@?$output_processor@DV?$stream_output_adapter@D@__crt_stdio_output@@V?$positional_parameter_base@DV?$stream_output_adapter@D@__crt_stdio_output@@@2@@__crt_stdio_output@@ABEHHD@Z 10062120 f i libucrtd:output.obj
 0001:00061150       ?type_case_s_compute_narrow_string_length@?$output_processor@DV?$stream_output_adapter@D@__crt_stdio_output@@V?$standard_base@DV?$stream_output_adapter@D@__crt_stdio_output@@@2@@__crt_stdio_output@@ABEHHD@Z 10062150 f i libucrtd:output.obj
 0001:00061180       ?type_case_s_compute_narrow_string_length@?$output_processor@DV?$string_output_adapter@D@__crt_stdio_output@@V?$format_validation_base@DV?$string_output_adapter@D@__crt_stdio_output@@@2@@__crt_stdio_output@@ABEHHD@Z 10062180 f i libucrtd:output.obj
 0001:000611b0       ?type_case_s_compute_narrow_string_length@?$output_processor@DV?$string_output_adapter@D@__crt_stdio_output@@V?$positional_parameter_base@DV?$string_output_adapter@D@__crt_stdio_output@@@2@@__crt_stdio_output@@ABEHHD@Z 100621b0 f i libucrtd:output.obj
 0001:000611e0       ?type_case_s_compute_narrow_string_length@?$output_processor@DV?$string_output_adapter@D@__crt_stdio_output@@V?$standard_base@DV?$string_output_adapter@D@__crt_stdio_output@@@2@@__crt_stdio_output@@ABEHHD@Z 100621e0 f i libucrtd:output.obj
 0001:00061210       ?type_case_s_compute_narrow_string_length@?$output_processor@_WV?$stream_output_adapter@_W@__crt_stdio_output@@V?$format_validation_base@_WV?$stream_output_adapter@_W@__crt_stdio_output@@@2@@__crt_stdio_output@@ABEHH_W@Z 10062210 f i libucrtd:output.obj
 0001:00061280       ?type_case_s_compute_narrow_string_length@?$output_processor@_WV?$stream_output_adapter@_W@__crt_stdio_output@@V?$positional_parameter_base@_WV?$stream_output_adapter@_W@__crt_stdio_output@@@2@@__crt_stdio_output@@ABEHH_W@Z 10062280 f i libucrtd:output.obj
 0001:000612f0       ?type_case_s_compute_narrow_string_length@?$output_processor@_WV?$stream_output_adapter@_W@__crt_stdio_output@@V?$standard_base@_WV?$stream_output_adapter@_W@__crt_stdio_output@@@2@@__crt_stdio_output@@ABEHH_W@Z 100622f0 f i libucrtd:output.obj
 0001:00061360       ?type_case_s_compute_narrow_string_length@?$output_processor@_WV?$string_output_adapter@_W@__crt_stdio_output@@V?$format_validation_base@_WV?$string_output_adapter@_W@__crt_stdio_output@@@2@@__crt_stdio_output@@ABEHH_W@Z 10062360 f i libucrtd:output.obj
 0001:000613d0       ?type_case_s_compute_narrow_string_length@?$output_processor@_WV?$string_output_adapter@_W@__crt_stdio_output@@V?$positional_parameter_base@_WV?$string_output_adapter@_W@__crt_stdio_output@@@2@@__crt_stdio_output@@ABEHH_W@Z 100623d0 f i libucrtd:output.obj
 0001:00061440       ?type_case_s_compute_narrow_string_length@?$output_processor@_WV?$string_output_adapter@_W@__crt_stdio_output@@V?$standard_base@_WV?$string_output_adapter@_W@__crt_stdio_output@@@2@@__crt_stdio_output@@ABEHH_W@Z 10062440 f i libucrtd:output.obj
 0001:000614b0       ?type_case_u@?$output_processor@DV?$stream_output_adapter@D@__crt_stdio_output@@V?$format_validation_base@DV?$stream_output_adapter@D@__crt_stdio_output@@@2@@__crt_stdio_output@@AAE_NXZ 100624b0 f i libucrtd:output.obj
 0001:000614d0       ?type_case_u@?$output_processor@DV?$stream_output_adapter@D@__crt_stdio_output@@V?$positional_parameter_base@DV?$stream_output_adapter@D@__crt_stdio_output@@@2@@__crt_stdio_output@@AAE_NXZ 100624d0 f i libucrtd:output.obj
 0001:000614f0       ?type_case_u@?$output_processor@DV?$stream_output_adapter@D@__crt_stdio_output@@V?$standard_base@DV?$stream_output_adapter@D@__crt_stdio_output@@@2@@__crt_stdio_output@@AAE_NXZ 100624f0 f i libucrtd:output.obj
 0001:00061510       ?type_case_u@?$output_processor@DV?$string_output_adapter@D@__crt_stdio_output@@V?$format_validation_base@DV?$string_output_adapter@D@__crt_stdio_output@@@2@@__crt_stdio_output@@AAE_NXZ 10062510 f i libucrtd:output.obj
 0001:00061530       ?type_case_u@?$output_processor@DV?$string_output_adapter@D@__crt_stdio_output@@V?$positional_parameter_base@DV?$string_output_adapter@D@__crt_stdio_output@@@2@@__crt_stdio_output@@AAE_NXZ 10062530 f i libucrtd:output.obj
 0001:00061550       ?type_case_u@?$output_processor@DV?$string_output_adapter@D@__crt_stdio_output@@V?$standard_base@DV?$string_output_adapter@D@__crt_stdio_output@@@2@@__crt_stdio_output@@AAE_NXZ 10062550 f i libucrtd:output.obj
 0001:00061570       ?type_case_u@?$output_processor@_WV?$stream_output_adapter@_W@__crt_stdio_output@@V?$format_validation_base@_WV?$stream_output_adapter@_W@__crt_stdio_output@@@2@@__crt_stdio_output@@AAE_NXZ 10062570 f i libucrtd:output.obj
 0001:00061590       ?type_case_u@?$output_processor@_WV?$stream_output_adapter@_W@__crt_stdio_output@@V?$positional_parameter_base@_WV?$stream_output_adapter@_W@__crt_stdio_output@@@2@@__crt_stdio_output@@AAE_NXZ 10062590 f i libucrtd:output.obj
 0001:000615b0       ?type_case_u@?$output_processor@_WV?$stream_output_adapter@_W@__crt_stdio_output@@V?$standard_base@_WV?$stream_output_adapter@_W@__crt_stdio_output@@@2@@__crt_stdio_output@@AAE_NXZ 100625b0 f i libucrtd:output.obj
 0001:000615d0       ?type_case_u@?$output_processor@_WV?$string_output_adapter@_W@__crt_stdio_output@@V?$format_validation_base@_WV?$string_output_adapter@_W@__crt_stdio_output@@@2@@__crt_stdio_output@@AAE_NXZ 100625d0 f i libucrtd:output.obj
 0001:000615f0       ?type_case_u@?$output_processor@_WV?$string_output_adapter@_W@__crt_stdio_output@@V?$positional_parameter_base@_WV?$string_output_adapter@_W@__crt_stdio_output@@@2@@__crt_stdio_output@@AAE_NXZ 100625f0 f i libucrtd:output.obj
 0001:00061610       ?type_case_u@?$output_processor@_WV?$string_output_adapter@_W@__crt_stdio_output@@V?$standard_base@_WV?$string_output_adapter@_W@__crt_stdio_output@@@2@@__crt_stdio_output@@AAE_NXZ 10062610 f i libucrtd:output.obj
 0001:00061630       ?type_case_x@?$output_processor@DV?$stream_output_adapter@D@__crt_stdio_output@@V?$format_validation_base@DV?$stream_output_adapter@D@__crt_stdio_output@@@2@@__crt_stdio_output@@AAE_NXZ 10062630 f i libucrtd:output.obj
 0001:00061650       ?type_case_x@?$output_processor@DV?$stream_output_adapter@D@__crt_stdio_output@@V?$positional_parameter_base@DV?$stream_output_adapter@D@__crt_stdio_output@@@2@@__crt_stdio_output@@AAE_NXZ 10062650 f i libucrtd:output.obj
 0001:00061670       ?type_case_x@?$output_processor@DV?$stream_output_adapter@D@__crt_stdio_output@@V?$standard_base@DV?$stream_output_adapter@D@__crt_stdio_output@@@2@@__crt_stdio_output@@AAE_NXZ 10062670 f i libucrtd:output.obj
 0001:00061690       ?type_case_x@?$output_processor@DV?$string_output_adapter@D@__crt_stdio_output@@V?$format_validation_base@DV?$string_output_adapter@D@__crt_stdio_output@@@2@@__crt_stdio_output@@AAE_NXZ 10062690 f i libucrtd:output.obj
 0001:000616b0       ?type_case_x@?$output_processor@DV?$string_output_adapter@D@__crt_stdio_output@@V?$positional_parameter_base@DV?$string_output_adapter@D@__crt_stdio_output@@@2@@__crt_stdio_output@@AAE_NXZ 100626b0 f i libucrtd:output.obj
 0001:000616d0       ?type_case_x@?$output_processor@DV?$string_output_adapter@D@__crt_stdio_output@@V?$standard_base@DV?$string_output_adapter@D@__crt_stdio_output@@@2@@__crt_stdio_output@@AAE_NXZ 100626d0 f i libucrtd:output.obj
 0001:000616f0       ?type_case_x@?$output_processor@_WV?$stream_output_adapter@_W@__crt_stdio_output@@V?$format_validation_base@_WV?$stream_output_adapter@_W@__crt_stdio_output@@@2@@__crt_stdio_output@@AAE_NXZ 100626f0 f i libucrtd:output.obj
 0001:00061710       ?type_case_x@?$output_processor@_WV?$stream_output_adapter@_W@__crt_stdio_output@@V?$positional_parameter_base@_WV?$stream_output_adapter@_W@__crt_stdio_output@@@2@@__crt_stdio_output@@AAE_NXZ 10062710 f i libucrtd:output.obj
 0001:00061730       ?type_case_x@?$output_processor@_WV?$stream_output_adapter@_W@__crt_stdio_output@@V?$standard_base@_WV?$stream_output_adapter@_W@__crt_stdio_output@@@2@@__crt_stdio_output@@AAE_NXZ 10062730 f i libucrtd:output.obj
 0001:00061750       ?type_case_x@?$output_processor@_WV?$string_output_adapter@_W@__crt_stdio_output@@V?$format_validation_base@_WV?$string_output_adapter@_W@__crt_stdio_output@@@2@@__crt_stdio_output@@AAE_NXZ 10062750 f i libucrtd:output.obj
 0001:00061770       ?type_case_x@?$output_processor@_WV?$string_output_adapter@_W@__crt_stdio_output@@V?$positional_parameter_base@_WV?$string_output_adapter@_W@__crt_stdio_output@@@2@@__crt_stdio_output@@AAE_NXZ 10062770 f i libucrtd:output.obj
 0001:00061790       ?type_case_x@?$output_processor@_WV?$string_output_adapter@_W@__crt_stdio_output@@V?$standard_base@_WV?$string_output_adapter@_W@__crt_stdio_output@@@2@@__crt_stdio_output@@AAE_NXZ 10062790 f i libucrtd:output.obj
 0001:000617b0       ?unset_flag@?$output_processor@DV?$stream_output_adapter@D@__crt_stdio_output@@V?$format_validation_base@DV?$stream_output_adapter@D@__crt_stdio_output@@@2@@__crt_stdio_output@@AAEXI@Z 100627b0 f i libucrtd:output.obj
 0001:000617d0       ?unset_flag@?$output_processor@DV?$stream_output_adapter@D@__crt_stdio_output@@V?$positional_parameter_base@DV?$stream_output_adapter@D@__crt_stdio_output@@@2@@__crt_stdio_output@@AAEXI@Z 100627d0 f i libucrtd:output.obj
 0001:000617f0       ?unset_flag@?$output_processor@DV?$stream_output_adapter@D@__crt_stdio_output@@V?$standard_base@DV?$stream_output_adapter@D@__crt_stdio_output@@@2@@__crt_stdio_output@@AAEXI@Z 100627f0 f i libucrtd:output.obj
 0001:00061810       ?unset_flag@?$output_processor@DV?$string_output_adapter@D@__crt_stdio_output@@V?$format_validation_base@DV?$string_output_adapter@D@__crt_stdio_output@@@2@@__crt_stdio_output@@AAEXI@Z 10062810 f i libucrtd:output.obj
 0001:00061830       ?unset_flag@?$output_processor@DV?$string_output_adapter@D@__crt_stdio_output@@V?$positional_parameter_base@DV?$string_output_adapter@D@__crt_stdio_output@@@2@@__crt_stdio_output@@AAEXI@Z 10062830 f i libucrtd:output.obj
 0001:00061850       ?unset_flag@?$output_processor@DV?$string_output_adapter@D@__crt_stdio_output@@V?$standard_base@DV?$string_output_adapter@D@__crt_stdio_output@@@2@@__crt_stdio_output@@AAEXI@Z 10062850 f i libucrtd:output.obj
 0001:00061870       ?unset_flag@?$output_processor@_WV?$stream_output_adapter@_W@__crt_stdio_output@@V?$format_validation_base@_WV?$stream_output_adapter@_W@__crt_stdio_output@@@2@@__crt_stdio_output@@AAEXI@Z 10062870 f i libucrtd:output.obj
 0001:00061890       ?unset_flag@?$output_processor@_WV?$stream_output_adapter@_W@__crt_stdio_output@@V?$positional_parameter_base@_WV?$stream_output_adapter@_W@__crt_stdio_output@@@2@@__crt_stdio_output@@AAEXI@Z 10062890 f i libucrtd:output.obj
 0001:000618b0       ?unset_flag@?$output_processor@_WV?$stream_output_adapter@_W@__crt_stdio_output@@V?$standard_base@_WV?$stream_output_adapter@_W@__crt_stdio_output@@@2@@__crt_stdio_output@@AAEXI@Z 100628b0 f i libucrtd:output.obj
 0001:000618d0       ?unset_flag@?$output_processor@_WV?$string_output_adapter@_W@__crt_stdio_output@@V?$format_validation_base@_WV?$string_output_adapter@_W@__crt_stdio_output@@@2@@__crt_stdio_output@@AAEXI@Z 100628d0 f i libucrtd:output.obj
 0001:000618f0       ?unset_flag@?$output_processor@_WV?$string_output_adapter@_W@__crt_stdio_output@@V?$positional_parameter_base@_WV?$string_output_adapter@_W@__crt_stdio_output@@@2@@__crt_stdio_output@@AAEXI@Z 100628f0 f i libucrtd:output.obj
 0001:00061910       ?unset_flag@?$output_processor@_WV?$string_output_adapter@_W@__crt_stdio_output@@V?$standard_base@_WV?$string_output_adapter@_W@__crt_stdio_output@@@2@@__crt_stdio_output@@AAEXI@Z 10062910 f i libucrtd:output.obj
 0001:00061930       ?update_field_width@?$positional_parameter_base@DV?$stream_output_adapter@D@__crt_stdio_output@@@__crt_stdio_output@@IAE_NXZ 10062930 f i libucrtd:output.obj
 0001:00061ab0       ?update_field_width@?$positional_parameter_base@DV?$string_output_adapter@D@__crt_stdio_output@@@__crt_stdio_output@@IAE_NXZ 10062ab0 f i libucrtd:output.obj
 0001:00061c30       ?update_field_width@?$positional_parameter_base@_WV?$stream_output_adapter@_W@__crt_stdio_output@@@__crt_stdio_output@@IAE_NXZ 10062c30 f i libucrtd:output.obj
 0001:00061db0       ?update_field_width@?$positional_parameter_base@_WV?$string_output_adapter@_W@__crt_stdio_output@@@__crt_stdio_output@@IAE_NXZ 10062db0 f i libucrtd:output.obj
 0001:00061f30       ?update_field_width@?$standard_base@DV?$stream_output_adapter@D@__crt_stdio_output@@@__crt_stdio_output@@IAE_NXZ 10062f30 f i libucrtd:output.obj
 0001:00061f60       ?update_field_width@?$standard_base@DV?$string_output_adapter@D@__crt_stdio_output@@@__crt_stdio_output@@IAE_NXZ 10062f60 f i libucrtd:output.obj
 0001:00061f90       ?update_field_width@?$standard_base@_WV?$stream_output_adapter@_W@__crt_stdio_output@@@__crt_stdio_output@@IAE_NXZ 10062f90 f i libucrtd:output.obj
 0001:00061fc0       ?update_field_width@?$standard_base@_WV?$string_output_adapter@_W@__crt_stdio_output@@@__crt_stdio_output@@IAE_NXZ 10062fc0 f i libucrtd:output.obj
 0001:00061ff0       ?update_precision@?$positional_parameter_base@DV?$stream_output_adapter@D@__crt_stdio_output@@@__crt_stdio_output@@IAE_NXZ 10062ff0 f i libucrtd:output.obj
 0001:00062170       ?update_precision@?$positional_parameter_base@DV?$string_output_adapter@D@__crt_stdio_output@@@__crt_stdio_output@@IAE_NXZ 10063170 f i libucrtd:output.obj
 0001:000622f0       ?update_precision@?$positional_parameter_base@_WV?$stream_output_adapter@_W@__crt_stdio_output@@@__crt_stdio_output@@IAE_NXZ 100632f0 f i libucrtd:output.obj
 0001:00062470       ?update_precision@?$positional_parameter_base@_WV?$string_output_adapter@_W@__crt_stdio_output@@@__crt_stdio_output@@IAE_NXZ 10063470 f i libucrtd:output.obj
 0001:000625f0       ?update_precision@?$standard_base@DV?$stream_output_adapter@D@__crt_stdio_output@@@__crt_stdio_output@@IAE_NXZ 100635f0 f i libucrtd:output.obj
 0001:00062620       ?update_precision@?$standard_base@DV?$string_output_adapter@D@__crt_stdio_output@@@__crt_stdio_output@@IAE_NXZ 10063620 f i libucrtd:output.obj
 0001:00062650       ?update_precision@?$standard_base@_WV?$stream_output_adapter@_W@__crt_stdio_output@@@__crt_stdio_output@@IAE_NXZ 10063650 f i libucrtd:output.obj
 0001:00062680       ?update_precision@?$standard_base@_WV?$string_output_adapter@_W@__crt_stdio_output@@@__crt_stdio_output@@IAE_NXZ 10063680 f i libucrtd:output.obj
 0001:000626b0       ?valid@__crt_stdio_stream@@QBE_NXZ 100636b0 f i libucrtd:output.obj
 0001:000626e0       ?validate@?$stream_output_adapter@D@__crt_stdio_output@@QBE_NXZ 100636e0 f i libucrtd:output.obj
 0001:00062790       ?validate@?$stream_output_adapter@_W@__crt_stdio_output@@QBE_NXZ 10063790 f i libucrtd:output.obj
 0001:00062840       ?validate@?$string_output_adapter@D@__crt_stdio_output@@QBE_NXZ 10063840 f i libucrtd:output.obj
 0001:000628d0       ?validate@?$string_output_adapter@_W@__crt_stdio_output@@QBE_NXZ 100638d0 f i libucrtd:output.obj
 0001:00062960       ?validate_and_store_parameter_data@?$positional_parameter_base@DV?$stream_output_adapter@D@__crt_stdio_output@@@__crt_stdio_output@@AAE_NAAUparameter_data@12@W4parameter_type@12@DW4length_modifier@2@@Z 10063960 f i libucrtd:output.obj
 0001:00062a30       ?validate_and_store_parameter_data@?$positional_parameter_base@DV?$string_output_adapter@D@__crt_stdio_output@@@__crt_stdio_output@@AAE_NAAUparameter_data@12@W4parameter_type@12@DW4length_modifier@2@@Z 10063a30 f i libucrtd:output.obj
 0001:00062b00       ?validate_and_store_parameter_data@?$positional_parameter_base@_WV?$stream_output_adapter@_W@__crt_stdio_output@@@__crt_stdio_output@@AAE_NAAUparameter_data@12@W4parameter_type@12@_WW4length_modifier@2@@Z 10063b00 f i libucrtd:output.obj
 0001:00062be0       ?validate_and_store_parameter_data@?$positional_parameter_base@_WV?$string_output_adapter@_W@__crt_stdio_output@@@__crt_stdio_output@@AAE_NAAUparameter_data@12@W4parameter_type@12@_WW4length_modifier@2@@Z 10063be0 f i libucrtd:output.obj
 0001:00062cc0       ?validate_and_update_state_at_beginning_of_format_character@?$positional_parameter_base@DV?$stream_output_adapter@D@__crt_stdio_output@@@__crt_stdio_output@@IAE_NXZ 10063cc0 f i libucrtd:output.obj
 0001:00062ee0       ?validate_and_update_state_at_beginning_of_format_character@?$positional_parameter_base@DV?$string_output_adapter@D@__crt_stdio_output@@@__crt_stdio_output@@IAE_NXZ 10063ee0 f i libucrtd:output.obj
 0001:00063100       ?validate_and_update_state_at_beginning_of_format_character@?$positional_parameter_base@_WV?$stream_output_adapter@_W@__crt_stdio_output@@@__crt_stdio_output@@IAE_NXZ 10064100 f i libucrtd:output.obj
 0001:00063320       ?validate_and_update_state_at_beginning_of_format_character@?$positional_parameter_base@_WV?$string_output_adapter@_W@__crt_stdio_output@@@__crt_stdio_output@@IAE_NXZ 10064320 f i libucrtd:output.obj
 0001:00063540       ?validate_and_update_state_at_beginning_of_format_character@?$standard_base@DV?$stream_output_adapter@D@__crt_stdio_output@@@__crt_stdio_output@@IAE_NXZ 10064540 f i libucrtd:output.obj
 0001:00063550       ?validate_and_update_state_at_beginning_of_format_character@?$standard_base@DV?$string_output_adapter@D@__crt_stdio_output@@@__crt_stdio_output@@IAE_NXZ 10064550 f i libucrtd:output.obj
 0001:00063560       ?validate_and_update_state_at_beginning_of_format_character@?$standard_base@_WV?$stream_output_adapter@_W@__crt_stdio_output@@@__crt_stdio_output@@IAE_NXZ 10064560 f i libucrtd:output.obj
 0001:00063570       ?validate_and_update_state_at_beginning_of_format_character@?$standard_base@_WV?$string_output_adapter@_W@__crt_stdio_output@@@__crt_stdio_output@@IAE_NXZ 10064570 f i libucrtd:output.obj
 0001:00063580       ?validate_and_update_state_at_end_of_format_string@?$format_validation_base@DV?$stream_output_adapter@D@__crt_stdio_output@@@__crt_stdio_output@@IBE_NXZ 10064580 f i libucrtd:output.obj
 0001:00063620       ?validate_and_update_state_at_end_of_format_string@?$format_validation_base@DV?$string_output_adapter@D@__crt_stdio_output@@@__crt_stdio_output@@IBE_NXZ 10064620 f i libucrtd:output.obj
 0001:000636c0       ?validate_and_update_state_at_end_of_format_string@?$format_validation_base@_WV?$stream_output_adapter@_W@__crt_stdio_output@@@__crt_stdio_output@@IBE_NXZ 100646c0 f i libucrtd:output.obj
 0001:00063760       ?validate_and_update_state_at_end_of_format_string@?$format_validation_base@_WV?$string_output_adapter@_W@__crt_stdio_output@@@__crt_stdio_output@@IBE_NXZ 10064760 f i libucrtd:output.obj
 0001:00063800       ?validate_and_update_state_at_end_of_format_string@?$positional_parameter_base@DV?$stream_output_adapter@D@__crt_stdio_output@@@__crt_stdio_output@@IAE_NXZ 10064800 f i libucrtd:output.obj
 0001:000639a0       ?validate_and_update_state_at_end_of_format_string@?$positional_parameter_base@DV?$string_output_adapter@D@__crt_stdio_output@@@__crt_stdio_output@@IAE_NXZ 100649a0 f i libucrtd:output.obj
 0001:00063b40       ?validate_and_update_state_at_end_of_format_string@?$positional_parameter_base@_WV?$stream_output_adapter@_W@__crt_stdio_output@@@__crt_stdio_output@@IAE_NXZ 10064b40 f i libucrtd:output.obj
 0001:00063ce0       ?validate_and_update_state_at_end_of_format_string@?$positional_parameter_base@_WV?$string_output_adapter@_W@__crt_stdio_output@@@__crt_stdio_output@@IAE_NXZ 10064ce0 f i libucrtd:output.obj
 0001:00063e80       ?validate_and_update_state_at_end_of_format_string@?$standard_base@DV?$stream_output_adapter@D@__crt_stdio_output@@@__crt_stdio_output@@IBE_NXZ 10064e80 f i libucrtd:output.obj
 0001:00063e90       ?validate_and_update_state_at_end_of_format_string@?$standard_base@DV?$string_output_adapter@D@__crt_stdio_output@@@__crt_stdio_output@@IBE_NXZ 10064e90 f i libucrtd:output.obj
 0001:00063ea0       ?validate_and_update_state_at_end_of_format_string@?$standard_base@_WV?$stream_output_adapter@_W@__crt_stdio_output@@@__crt_stdio_output@@IBE_NXZ 10064ea0 f i libucrtd:output.obj
 0001:00063eb0       ?validate_and_update_state_at_end_of_format_string@?$standard_base@_WV?$string_output_adapter@_W@__crt_stdio_output@@@__crt_stdio_output@@IBE_NXZ 10064eb0 f i libucrtd:output.obj
 0001:00063ec0       ?validate_state_for_type_case_a@?$positional_parameter_base@DV?$stream_output_adapter@D@__crt_stdio_output@@@__crt_stdio_output@@IAE_NXZ 10064ec0 f i libucrtd:output.obj
 0001:00063fb0       ?validate_state_for_type_case_a@?$positional_parameter_base@DV?$string_output_adapter@D@__crt_stdio_output@@@__crt_stdio_output@@IAE_NXZ 10064fb0 f i libucrtd:output.obj
 0001:000640a0       ?validate_state_for_type_case_a@?$positional_parameter_base@_WV?$stream_output_adapter@_W@__crt_stdio_output@@@__crt_stdio_output@@IAE_NXZ 100650a0 f i libucrtd:output.obj
 0001:00064190       ?validate_state_for_type_case_a@?$positional_parameter_base@_WV?$string_output_adapter@_W@__crt_stdio_output@@@__crt_stdio_output@@IAE_NXZ 10065190 f i libucrtd:output.obj
 0001:00064280       ?validate_state_for_type_case_a@?$standard_base@DV?$stream_output_adapter@D@__crt_stdio_output@@@__crt_stdio_output@@IBE_NXZ 10065280 f i libucrtd:output.obj
 0001:00064290       ?validate_state_for_type_case_a@?$standard_base@DV?$string_output_adapter@D@__crt_stdio_output@@@__crt_stdio_output@@IBE_NXZ 10065290 f i libucrtd:output.obj
 0001:000642a0       ?validate_state_for_type_case_a@?$standard_base@_WV?$stream_output_adapter@_W@__crt_stdio_output@@@__crt_stdio_output@@IBE_NXZ 100652a0 f i libucrtd:output.obj
 0001:000642b0       ?validate_state_for_type_case_a@?$standard_base@_WV?$string_output_adapter@_W@__crt_stdio_output@@@__crt_stdio_output@@IBE_NXZ 100652b0 f i libucrtd:output.obj
 0001:000642c0       ?validate_stream_is_ansi_if_required@?$__acrt_stdio_char_traits@D@@SA_NQAU_iobuf@@@Z 100652c0 f i libucrtd:output.obj
 0001:000643f0       ?validate_stream_is_ansi_if_required@?$__acrt_stdio_char_traits@_W@@SA_NQAU_iobuf@@@Z 100653f0 f i libucrtd:output.obj
 0001:00064400       ?wide_null_string@?$output_processor@DV?$stream_output_adapter@D@__crt_stdio_output@@V?$format_validation_base@DV?$stream_output_adapter@D@__crt_stdio_output@@@2@@__crt_stdio_output@@CAPA_WXZ 10065400 f i libucrtd:output.obj
 0001:00064410       ?wide_null_string@?$output_processor@DV?$stream_output_adapter@D@__crt_stdio_output@@V?$positional_parameter_base@DV?$stream_output_adapter@D@__crt_stdio_output@@@2@@__crt_stdio_output@@CAPA_WXZ 10065410 f i libucrtd:output.obj
 0001:00064420       ?wide_null_string@?$output_processor@DV?$stream_output_adapter@D@__crt_stdio_output@@V?$standard_base@DV?$stream_output_adapter@D@__crt_stdio_output@@@2@@__crt_stdio_output@@CAPA_WXZ 10065420 f i libucrtd:output.obj
 0001:00064430       ?wide_null_string@?$output_processor@DV?$string_output_adapter@D@__crt_stdio_output@@V?$format_validation_base@DV?$string_output_adapter@D@__crt_stdio_output@@@2@@__crt_stdio_output@@CAPA_WXZ 10065430 f i libucrtd:output.obj
 0001:00064440       ?wide_null_string@?$output_processor@DV?$string_output_adapter@D@__crt_stdio_output@@V?$positional_parameter_base@DV?$string_output_adapter@D@__crt_stdio_output@@@2@@__crt_stdio_output@@CAPA_WXZ 10065440 f i libucrtd:output.obj
 0001:00064450       ?wide_null_string@?$output_processor@DV?$string_output_adapter@D@__crt_stdio_output@@V?$standard_base@DV?$string_output_adapter@D@__crt_stdio_output@@@2@@__crt_stdio_output@@CAPA_WXZ 10065450 f i libucrtd:output.obj
 0001:00064460       ?wide_null_string@?$output_processor@_WV?$stream_output_adapter@_W@__crt_stdio_output@@V?$format_validation_base@_WV?$stream_output_adapter@_W@__crt_stdio_output@@@2@@__crt_stdio_output@@CAPA_WXZ 10065460 f i libucrtd:output.obj
 0001:00064470       ?wide_null_string@?$output_processor@_WV?$stream_output_adapter@_W@__crt_stdio_output@@V?$positional_parameter_base@_WV?$stream_output_adapter@_W@__crt_stdio_output@@@2@@__crt_stdio_output@@CAPA_WXZ 10065470 f i libucrtd:output.obj
 0001:00064480       ?wide_null_string@?$output_processor@_WV?$stream_output_adapter@_W@__crt_stdio_output@@V?$standard_base@_WV?$stream_output_adapter@_W@__crt_stdio_output@@@2@@__crt_stdio_output@@CAPA_WXZ 10065480 f i libucrtd:output.obj
 0001:00064490       ?wide_null_string@?$output_processor@_WV?$string_output_adapter@_W@__crt_stdio_output@@V?$format_validation_base@_WV?$string_output_adapter@_W@__crt_stdio_output@@@2@@__crt_stdio_output@@CAPA_WXZ 10065490 f i libucrtd:output.obj
 0001:000644a0       ?wide_null_string@?$output_processor@_WV?$string_output_adapter@_W@__crt_stdio_output@@V?$positional_parameter_base@_WV?$string_output_adapter@_W@__crt_stdio_output@@@2@@__crt_stdio_output@@CAPA_WXZ 100654a0 f i libucrtd:output.obj
 0001:000644b0       ?wide_null_string@?$output_processor@_WV?$string_output_adapter@_W@__crt_stdio_output@@V?$standard_base@_WV?$string_output_adapter@_W@__crt_stdio_output@@@2@@__crt_stdio_output@@CAPA_WXZ 100654b0 f i libucrtd:output.obj
 0001:000644c0       ?write_character@?$output_adapter_common@DV?$stream_output_adapter@D@__crt_stdio_output@@@__crt_stdio_output@@QBEXDQAH@Z 100654c0 f i libucrtd:output.obj
 0001:00064500       ?write_character@?$output_adapter_common@_WV?$stream_output_adapter@_W@__crt_stdio_output@@@__crt_stdio_output@@QBEX_WQAH@Z 10065500 f i libucrtd:output.obj
 0001:00064540       ?write_character@?$string_output_adapter@D@__crt_stdio_output@@QBE_NDQAH@Z 10065540 f i libucrtd:output.obj
 0001:000645d0       ?write_character@?$string_output_adapter@_W@__crt_stdio_output@@QBE_N_WQAH@Z 100655d0 f i libucrtd:output.obj
 0001:00064670       ?write_character_without_count_update@?$stream_output_adapter@D@__crt_stdio_output@@QBE_ND@Z 10065670 f i libucrtd:output.obj
 0001:000646e0       ?write_character_without_count_update@?$stream_output_adapter@_W@__crt_stdio_output@@QBE_N_W@Z 100656e0 f i libucrtd:output.obj
 0001:00064750       ?write_stored_string_tchar@?$output_processor@DV?$stream_output_adapter@D@__crt_stdio_output@@V?$format_validation_base@DV?$stream_output_adapter@D@__crt_stdio_output@@@2@@__crt_stdio_output@@AAE_ND@Z 10065750 f i libucrtd:output.obj
 0001:00064870       ?write_stored_string_tchar@?$output_processor@DV?$stream_output_adapter@D@__crt_stdio_output@@V?$positional_parameter_base@DV?$stream_output_adapter@D@__crt_stdio_output@@@2@@__crt_stdio_output@@AAE_ND@Z 10065870 f i libucrtd:output.obj
 0001:00064990       ?write_stored_string_tchar@?$output_processor@DV?$stream_output_adapter@D@__crt_stdio_output@@V?$standard_base@DV?$stream_output_adapter@D@__crt_stdio_output@@@2@@__crt_stdio_output@@AAE_ND@Z 10065990 f i libucrtd:output.obj
 0001:00064ab0       ?write_stored_string_tchar@?$output_processor@DV?$string_output_adapter@D@__crt_stdio_output@@V?$format_validation_base@DV?$string_output_adapter@D@__crt_stdio_output@@@2@@__crt_stdio_output@@AAE_ND@Z 10065ab0 f i libucrtd:output.obj
 0001:00064bd0       ?write_stored_string_tchar@?$output_processor@DV?$string_output_adapter@D@__crt_stdio_output@@V?$positional_parameter_base@DV?$string_output_adapter@D@__crt_stdio_output@@@2@@__crt_stdio_output@@AAE_ND@Z 10065bd0 f i libucrtd:output.obj
 0001:00064cf0       ?write_stored_string_tchar@?$output_processor@DV?$string_output_adapter@D@__crt_stdio_output@@V?$standard_base@DV?$string_output_adapter@D@__crt_stdio_output@@@2@@__crt_stdio_output@@AAE_ND@Z 10065cf0 f i libucrtd:output.obj
 0001:00064e10       ?write_stored_string_tchar@?$output_processor@_WV?$stream_output_adapter@_W@__crt_stdio_output@@V?$format_validation_base@_WV?$stream_output_adapter@_W@__crt_stdio_output@@@2@@__crt_stdio_output@@AAE_N_W@Z 10065e10 f i libucrtd:output.obj
 0001:00064f00       ?write_stored_string_tchar@?$output_processor@_WV?$stream_output_adapter@_W@__crt_stdio_output@@V?$positional_parameter_base@_WV?$stream_output_adapter@_W@__crt_stdio_output@@@2@@__crt_stdio_output@@AAE_N_W@Z 10065f00 f i libucrtd:output.obj
 0001:00064ff0       ?write_stored_string_tchar@?$output_processor@_WV?$stream_output_adapter@_W@__crt_stdio_output@@V?$standard_base@_WV?$stream_output_adapter@_W@__crt_stdio_output@@@2@@__crt_stdio_output@@AAE_N_W@Z 10065ff0 f i libucrtd:output.obj
 0001:000650e0       ?write_stored_string_tchar@?$output_processor@_WV?$string_output_adapter@_W@__crt_stdio_output@@V?$format_validation_base@_WV?$string_output_adapter@_W@__crt_stdio_output@@@2@@__crt_stdio_output@@AAE_N_W@Z 100660e0 f i libucrtd:output.obj
 0001:000651d0       ?write_stored_string_tchar@?$output_processor@_WV?$string_output_adapter@_W@__crt_stdio_output@@V?$positional_parameter_base@_WV?$string_output_adapter@_W@__crt_stdio_output@@@2@@__crt_stdio_output@@AAE_N_W@Z 100661d0 f i libucrtd:output.obj
 0001:000652c0       ?write_stored_string_tchar@?$output_processor@_WV?$string_output_adapter@_W@__crt_stdio_output@@V?$standard_base@_WV?$string_output_adapter@_W@__crt_stdio_output@@@2@@__crt_stdio_output@@AAE_N_W@Z 100662c0 f i libucrtd:output.obj
 0001:000653b0       ?write_string@?$stream_output_adapter@D@__crt_stdio_output@@QBEXQBDHQAHAAV__crt_deferred_errno_cache@@@Z 100663b0 f i libucrtd:output.obj
 0001:00065410       ?write_string@?$stream_output_adapter@_W@__crt_stdio_output@@QBEXQB_WHQAHAAV__crt_deferred_errno_cache@@@Z 10066410 f i libucrtd:output.obj
 0001:00065470       ?write_string@?$string_output_adapter@D@__crt_stdio_output@@QBEXQBDHQAHAAV__crt_deferred_errno_cache@@@Z 10066470 f i libucrtd:output.obj
 0001:00065570       ?write_string@?$string_output_adapter@_W@__crt_stdio_output@@QBEXQB_WHQAHAAV__crt_deferred_errno_cache@@@Z 10066570 f i libucrtd:output.obj
 0001:00065680       ?write_string_impl@?$output_adapter_common@DV?$stream_output_adapter@D@__crt_stdio_output@@@__crt_stdio_output@@IBEXQBDHQAHAAV__crt_deferred_errno_cache@@@Z 10066680 f i libucrtd:output.obj
 0001:00065720       ?write_string_impl@?$output_adapter_common@_WV?$stream_output_adapter@_W@__crt_stdio_output@@@__crt_stdio_output@@IBEXQB_WHQAHAAV__crt_deferred_errno_cache@@@Z 10066720 f i libucrtd:output.obj
 0001:000657c0       ___acrt_disable_global_locale_sync 100667c0 f i libucrtd:output.obj
 0001:000657e0       ___acrt_enable_global_locale_sync 100667e0 f i libucrtd:output.obj
 0001:00065800       ___acrt_isleadbyte_l_noupdate 10066800 f i libucrtd:output.obj
 0001:00065820       ___acrt_locale_changed     10066820 f i libucrtd:output.obj
 0001:00065850       ___acrt_locale_get_ctype_array_value 10066850 f i libucrtd:output.obj
 0001:00065880       ___stdio_common_vfprintf   10066880 f   libucrtd:output.obj
 0001:000658b0       ___stdio_common_vfprintf_p 100668b0 f   libucrtd:output.obj
 0001:000658e0       ___stdio_common_vfprintf_s 100668e0 f   libucrtd:output.obj
 0001:00065910       ___stdio_common_vfwprintf  10066910 f   libucrtd:output.obj
 0001:00065940       ___stdio_common_vfwprintf_p 10066940 f   libucrtd:output.obj
 0001:00065970       ___stdio_common_vfwprintf_s 10066970 f   libucrtd:output.obj
 0001:000659a0       ___stdio_common_vsnprintf_s 100669a0 f   libucrtd:output.obj
 0001:000659d0       ___stdio_common_vsnwprintf_s 100669d0 f   libucrtd:output.obj
 0001:00065a00       ___stdio_common_vsprintf   10066a00 f   libucrtd:output.obj
 0001:00065a30       ___stdio_common_vsprintf_p 10066a30 f   libucrtd:output.obj
 0001:00065a60       ___stdio_common_vsprintf_s 10066a60 f   libucrtd:output.obj
 0001:00065a90       ___stdio_common_vswprintf  10066a90 f   libucrtd:output.obj
 0001:00065ac0       ___stdio_common_vswprintf_p 10066ac0 f   libucrtd:output.obj
 0001:00065af0       ___stdio_common_vswprintf_s 10066af0 f   libucrtd:output.obj
 0001:00065b20       __ctype_fast_check_internal 10066b20 f i libucrtd:output.obj
 0001:00065b40       __isdigit_fast_internal    10066b40 f i libucrtd:output.obj
 0001:00065b60       __tolower_fast_internal    10066b60 f i libucrtd:output.obj
 0001:00065b80       _free                      10066b80 f   libucrtd:free.obj
 0001:00065bb0       _malloc                    10066bb0 f   libucrtd:malloc.obj
 0001:00065bd0       ??$?RU?$__crt_report_hook_node@D@@@__crt_internal_free_policy@@QBEXQBU?$__crt_report_hook_node@D@@@Z 10066bd0 f i libucrtd:dbgrpt.obj
 0001:00065bf0       ??$?RU?$__crt_report_hook_node@_W@@@__crt_internal_free_policy@@QBEXQBU?$__crt_report_hook_node@_W@@@Z 10066bf0 f i libucrtd:dbgrpt.obj
 0001:000669e0       ??$get_module_file_name@AAPAUHINSTANCE__@@AAY0BAF@DK@?$__crt_char_traits@D@@SAKAAPAUHINSTANCE__@@AAY0BAF@D$$QAK@Z 100679e0 f i libucrtd:dbgrpt.obj
 0001:00066a00       ??$get_module_file_name@AAPAUHINSTANCE__@@AAY0BAF@_WK@?$__crt_char_traits@_W@@SAKAAPAUHINSTANCE__@@AAY0BAF@_W$$QAK@Z 10067a00 f i libucrtd:dbgrpt.obj
 0001:00066a20       ??$tcscpy_s@AAY0BAF@DIPBD@?$__crt_char_traits@D@@SAHAAY0BAF@D$$QAI$$QAPBD@Z 10067a20 f i libucrtd:dbgrpt.obj
 0001:00066a40       ??$tcscpy_s@AAY0BAF@_WIPB_W@?$__crt_char_traits@_W@@SAHAAY0BAF@_W$$QAI$$QAPB_W@Z 10067a40 f i libucrtd:dbgrpt.obj
 0001:00066a60       ??$tcslen@AAY0BAF@D@?$__crt_char_traits@D@@SAIAAY0BAF@D@Z 10067a60 f i libucrtd:dbgrpt.obj
 0001:00066a80       ??$tcslen@AAY0BAF@_W@?$__crt_char_traits@_W@@SAIAAY0BAF@_W@Z 10067a80 f i libucrtd:dbgrpt.obj
 0001:00066aa0       ??$tcslen@ABQBD@?$__crt_char_traits@D@@SAIABQBD@Z 10067aa0 f i libucrtd:dbgrpt.obj
 0001:00066ac0       ??$tcslen@ABQB_W@?$__crt_char_traits@_W@@SAIABQB_W@Z 10067ac0 f i libucrtd:dbgrpt.obj
 0001:00066bc0       ??0?$__crt_unique_heap_ptr@U?$__crt_report_hook_node@D@@U__crt_internal_free_policy@@@@QAE@QAU?$__crt_report_hook_node@D@@@Z 10067bc0 f i libucrtd:dbgrpt.obj
 0001:00066be0       ??0?$__crt_unique_heap_ptr@U?$__crt_report_hook_node@_W@@U__crt_internal_free_policy@@@@QAE@QAU?$__crt_report_hook_node@_W@@@Z 10067be0 f i libucrtd:dbgrpt.obj
 0001:00066c00       ??1?$__crt_unique_heap_ptr@U?$__crt_report_hook_node@D@@U__crt_internal_free_policy@@@@QAE@XZ 10067c00 f i libucrtd:dbgrpt.obj
 0001:00066c20       ??1?$__crt_unique_heap_ptr@U?$__crt_report_hook_node@_W@@U__crt_internal_free_policy@@@@QAE@XZ 10067c20 f i libucrtd:dbgrpt.obj
 0001:00066c40       ??B?$__crt_unique_heap_ptr@U?$__crt_report_hook_node@D@@U__crt_internal_free_policy@@@@QBE_NXZ 10067c40 f i libucrtd:dbgrpt.obj
 0001:00066c60       ??B?$__crt_unique_heap_ptr@U?$__crt_report_hook_node@_W@@U__crt_internal_free_policy@@@@QBE_NXZ 10067c60 f i libucrtd:dbgrpt.obj
 0001:000671a0       ?detach@?$__crt_unique_heap_ptr@U?$__crt_report_hook_node@D@@U__crt_internal_free_policy@@@@QAEPAU?$__crt_report_hook_node@D@@XZ 100681a0 f i libucrtd:dbgrpt.obj
 0001:000671d0       ?detach@?$__crt_unique_heap_ptr@U?$__crt_report_hook_node@_W@@U__crt_internal_free_policy@@@@QAEPAU?$__crt_report_hook_node@_W@@XZ 100681d0 f i libucrtd:dbgrpt.obj
 0001:00067200       ?get@?$__crt_unique_heap_ptr@U?$__crt_report_hook_node@D@@U__crt_internal_free_policy@@@@QBEPAU?$__crt_report_hook_node@D@@XZ 10068200 f i libucrtd:dbgrpt.obj
 0001:00067220       ?get@?$__crt_unique_heap_ptr@U?$__crt_report_hook_node@_W@@U__crt_internal_free_policy@@@@QBEPAU?$__crt_report_hook_node@_W@@XZ 10068220 f i libucrtd:dbgrpt.obj
 0001:000672a0       ?is_valid@?$__crt_unique_heap_ptr@U?$__crt_report_hook_node@D@@U__crt_internal_free_policy@@@@QBE_NXZ 100682a0 f i libucrtd:dbgrpt.obj
 0001:000672d0       ?is_valid@?$__crt_unique_heap_ptr@U?$__crt_report_hook_node@_W@@U__crt_internal_free_policy@@@@QBE_NXZ 100682d0 f i libucrtd:dbgrpt.obj
 0001:00067300       ?release@?$__crt_unique_heap_ptr@U?$__crt_report_hook_node@D@@U__crt_internal_free_policy@@@@QAEXXZ 10068300 f i libucrtd:dbgrpt.obj
 0001:00067330       ?release@?$__crt_unique_heap_ptr@U?$__crt_report_hook_node@_W@@U__crt_internal_free_policy@@@@QAEXXZ 10068330 f i libucrtd:dbgrpt.obj
 0001:00067360       __CrtDbgReport             10068360 f   libucrtd:dbgrpt.obj
 0001:000673b0       __CrtDbgReportW            100683b0 f   libucrtd:dbgrpt.obj
 0001:00067400       __CrtSetReportHook2        10068400 f   libucrtd:dbgrpt.obj
 0001:00067420       __CrtSetReportHookW2       10068420 f   libucrtd:dbgrpt.obj
 0001:00067440       ___acrt_MessageWindowA     10068440 f   libucrtd:dbgrpt.obj
 0001:00067470       ___acrt_MessageWindowW     10068470 f   libucrtd:dbgrpt.obj
 0001:000674a0       __invoke_watson_if_error   100684a0 f i libucrtd:dbgrpt.obj
 0001:000674d0       __invoke_watson_if_oneof   100684d0 f i libucrtd:dbgrpt.obj
 0001:00067510       __snwprintf_s              10068510 f i libucrtd:dbgrpt.obj
 0001:00067550       __vsnwprintf_s_l           10068550 f i libucrtd:dbgrpt.obj
 0001:000678d0       _wcscpy_s                  100688d0 f   libucrtd:wcscpy_s.obj
 0001:000685f0       ??1?$__crt_simd_cleanup_guard@$00@@QAE@XZ 100695f0 f i libucrtd:strnlen.obj
 0001:00068600       ??1?$__crt_simd_cleanup_guard@$0A@@@QAE@XZ 10069600 f i libucrtd:strnlen.obj
 0001:00068610       ?compare_equals@?$__crt_simd_traits@$00E@@SA?AT__m256i@@T2@0@Z 10069610 f i libucrtd:strnlen.obj
 0001:00068650       ?compare_equals@?$__crt_simd_traits@$00G@@SA?AT__m256i@@T2@0@Z 10069650 f i libucrtd:strnlen.obj
 0001:00068690       ?compare_equals@?$__crt_simd_traits@$0A@E@@SA?AT__m128i@@T2@0@Z 10069690 f i libucrtd:strnlen.obj
 0001:000686d0       ?compare_equals@?$__crt_simd_traits@$0A@G@@SA?AT__m128i@@T2@0@Z 100696d0 f i libucrtd:strnlen.obj
 0001:00068710       ?compute_byte_mask@?$__crt_simd_pack_traits@$00@@SAHT__m256i@@@Z 10069710 f i libucrtd:strnlen.obj
 0001:00068740       ?compute_byte_mask@?$__crt_simd_pack_traits@$0A@@@SAHT__m128i@@@Z 10069740 f i libucrtd:strnlen.obj
 0001:00068770       ?get_zero_pack@?$__crt_simd_pack_traits@$00@@SA?AT__m256i@@XZ 10069770 f i libucrtd:strnlen.obj
 0001:000687a0       ?get_zero_pack@?$__crt_simd_pack_traits@$0A@@@SA?AT__m128i@@XZ 100697a0 f i libucrtd:strnlen.obj
 0001:000687d0       _strnlen                   100697d0 f   libucrtd:strnlen.obj
 0001:000687f0       _wcslen                    100697f0 f   libucrtd:strnlen.obj
 0001:00068810       _wcsnlen                   10069810 f   libucrtd:strnlen.obj
 0001:00068830       ??$__crt_fast_decode_pointer@P6AXPB_W00II@Z@@YAP6AXPB_W00II@ZQ6AX000II@Z@Z 10069830 f i libucrtd:invalid_parameter.obj
 0001:00068860       ??$__crt_fast_encode_pointer@P6AXPB_W00II@Z@@YAP6AXPB_W00II@ZQ6AX000II@Z@Z 10069860 f i libucrtd:invalid_parameter.obj
 0001:00068890       ??$initialize_from_array@$$BY00Q6AXPB_W00II@Z@?$dual_state_global@P6AXPB_W00II@Z@__crt_state_management@@QAAXAAY00Q6AXPB_W00II@Z@Z 10069890 f i libucrtd:invalid_parameter.obj
 0001:000688e0       ?__crt_rotate_pointer_value@@YAIIH@Z 100698e0 f i libucrtd:invalid_parameter.obj
 0001:000688f0       ?dangerous_get_state_array@?$dual_state_global@P6AXPB_W00II@Z@__crt_state_management@@QAEPAP6AXPB_W00II@ZXZ 100698f0 f i libucrtd:invalid_parameter.obj
 0001:00068900       ?get_current_state_index@__crt_state_management@@YAIXZ 10069900 f i libucrtd:invalid_parameter.obj
 0001:00068910       ?value@?$dual_state_global@P6AXPB_W00II@Z@__crt_state_management@@QAEAAP6AXPB_W00II@ZXZ 10069910 f i libucrtd:invalid_parameter.obj
 0001:00068930       ___acrt_call_reportfault   10069930 f   libucrtd:invalid_parameter.obj
 0001:00068a90       ___acrt_initialize_invalid_parameter_handler 10069a90 f   libucrtd:invalid_parameter.obj
 0001:00068ac0       __get_invalid_parameter_handler 10069ac0 f   libucrtd:invalid_parameter.obj
 0001:00068ae0       __get_thread_local_invalid_parameter_handler 10069ae0 f   libucrtd:invalid_parameter.obj
 0001:00068b10       __invalid_parameter        10069b10 f   libucrtd:invalid_parameter.obj
 0001:00068bd0       __invalid_parameter_noinfo 10069bd0 f   libucrtd:invalid_parameter.obj
 0001:00068bf0       __invalid_parameter_noinfo_noreturn 10069bf0 f   libucrtd:invalid_parameter.obj
 0001:00068c20       __invoke_watson            10069c20 f   libucrtd:invalid_parameter.obj
 0001:00068c60       __set_invalid_parameter_handler 10069c60 f   libucrtd:invalid_parameter.obj
 0001:00068cb0       __set_thread_local_invalid_parameter_handler 10069cb0 f   libucrtd:invalid_parameter.obj
 0001:00068ce0       ___acrt_errno_from_os_error 10069ce0 f   libucrtd:errno.obj
 0001:00068d60       ___acrt_errno_map_os_error 10069d60 f   libucrtd:errno.obj
 0001:00068d90       ___doserrno                10069d90 f   libucrtd:errno.obj
 0001:00068dc0       __errno                    10069dc0 f   libucrtd:errno.obj
 0001:00068df0       __get_doserrno             10069df0 f   libucrtd:errno.obj
 0001:00068e80       __get_errno                10069e80 f   libucrtd:errno.obj
 0001:00068f10       __set_doserrno             10069f10 f   libucrtd:errno.obj
 0001:00068f40       __set_errno                10069f40 f   libucrtd:errno.obj
 0001:00068f70       _calloc                    10069f70 f   libucrtd:calloc.obj
 0001:00068f90       __recalloc                 10069f90 f   libucrtd:recalloc.obj
 0001:00068fc0       __recalloc_base            10069fc0 f   libucrtd:recalloc.obj
 0001:0006905a       __resetstkoflw             1006a05a f   libucrtd:resetstk.obj
 0001:00069540       _wcscat_s                  1006a540 f   libucrtd:wcscat_s.obj
 0001:00069990       _wcsncpy_s                 1006a990 f   libucrtd:wcsncpy_s.obj
 0001:00069ad0       ___isascii                 1006aad0 f   libucrtd:_ctype.obj
 0001:00069b00       ___iscsym                  1006ab00 f   libucrtd:_ctype.obj
 0001:00069b40       ___iscsymf                 1006ab40 f   libucrtd:_ctype.obj
 0001:00069b80       ___toascii                 1006ab80 f   libucrtd:_ctype.obj
 0001:00069b90       __isalnum_l                1006ab90 f   libucrtd:_ctype.obj
 0001:00069bb0       __isalpha_l                1006abb0 f   libucrtd:_ctype.obj
 0001:00069bd0       __isblank_l                1006abd0 f   libucrtd:_ctype.obj
 0001:00069bf0       __iscntrl_l                1006abf0 f   libucrtd:_ctype.obj
 0001:00069c10       __iscsym_l                 1006ac10 f   libucrtd:_ctype.obj
 0001:00069c50       __iscsymf_l                1006ac50 f   libucrtd:_ctype.obj
 0001:00069c90       __isdigit_l                1006ac90 f   libucrtd:_ctype.obj
 0001:00069cb0       __isgraph_l                1006acb0 f   libucrtd:_ctype.obj
 0001:00069cd0       __islower_l                1006acd0 f   libucrtd:_ctype.obj
 0001:00069cf0       __isprint_l                1006acf0 f   libucrtd:_ctype.obj
 0001:00069d10       __ispunct_l                1006ad10 f   libucrtd:_ctype.obj
 0001:00069d30       __isspace_l                1006ad30 f   libucrtd:_ctype.obj
 0001:00069d50       __isupper_l                1006ad50 f   libucrtd:_ctype.obj
 0001:00069d70       __isxdigit_l               1006ad70 f   libucrtd:_ctype.obj
 0001:00069d90       _isalnum                   1006ad90 f   libucrtd:_ctype.obj
 0001:00069db0       _isalpha                   1006adb0 f   libucrtd:_ctype.obj
 0001:00069dd0       _isblank                   1006add0 f   libucrtd:_ctype.obj
 0001:00069e00       _iscntrl                   1006ae00 f   libucrtd:_ctype.obj
 0001:00069e20       _isdigit                   1006ae20 f   libucrtd:_ctype.obj
 0001:00069e40       _isgraph                   1006ae40 f   libucrtd:_ctype.obj
 0001:00069e60       _islower                   1006ae60 f   libucrtd:_ctype.obj
 0001:00069e80       _isprint                   1006ae80 f   libucrtd:_ctype.obj
 0001:00069ea0       _ispunct                   1006aea0 f   libucrtd:_ctype.obj
 0001:00069ec0       _isspace                   1006aec0 f   libucrtd:_ctype.obj
 0001:00069ee0       _isupper                   1006aee0 f   libucrtd:_ctype.obj
 0001:00069f00       _isxdigit                  1006af00 f   libucrtd:_ctype.obj
 0001:00069f20       _wcscat                    1006af20 f   libucrtd:wcscat.obj
 0001:00069f80       _wcscpy                    1006af80 f   libucrtd:wcscpy.obj
 0001:0006a610       ??$open_file@ABQBDABQBDABHPAU_iobuf@@@?$__crt_char_traits@D@@SAPAU_iobuf@@ABQBD0ABH$$QAPAU1@@Z 1006b610 f i libucrtd:fopen.obj
 0001:0006a640       ??$open_file@ABQB_WABQB_WABHPAU_iobuf@@@?$__crt_char_traits@_W@@SAPAU_iobuf@@ABQB_W0ABH$$QAPAU1@@Z 1006b640 f i libucrtd:fopen.obj
 0001:0006a670       ?unlock@__crt_stdio_stream@@QBEXXZ 1006b670 f i libucrtd:fopen.obj
 0001:0006a690       __fsopen                   1006b690 f   libucrtd:fopen.obj
 0001:0006a6b0       __wfopen                   1006b6b0 f   libucrtd:fopen.obj
 0001:0006a6d0       __wfopen_s                 1006b6d0 f   libucrtd:fopen.obj
 0001:0006a6f0       __wfsopen                  1006b6f0 f   libucrtd:fopen.obj
 0001:0006a710       _fopen                     1006b710 f   libucrtd:fopen.obj
 0001:0006a730       _fopen_s                   1006b730 f   libucrtd:fopen.obj
 0001:0006a750       ?is_in_use@__crt_stdio_stream@@QBE_NXZ 1006b750 f i libucrtd:fclose.obj
 0001:0006a790       __fclose_nolock            1006b790 f   libucrtd:fclose.obj
 0001:0006a8d0       _fclose                    1006b8d0 f   libucrtd:fclose.obj
 0001:0006aa20       __fputc_nolock             1006ba20 f   libucrtd:fputc.obj
 0001:0006aab0       __fputchar                 1006bab0 f   libucrtd:fputc.obj
 0001:0006aad0       __putc_nolock              1006bad0 f   libucrtd:fputc.obj
 0001:0006aaf0       _fputc                     1006baf0 f   libucrtd:fputc.obj
 0001:0006ad30       _putc                      1006bd30 f   libucrtd:fputc.obj
 0001:0006ad50       _putchar                   1006bd50 f   libucrtd:fputc.obj
 0001:0006adc0       __seh_filter_dll           1006bdc0 f   libucrtd:exception_filter.obj
 0001:0006adf0       __seh_filter_exe           1006bdf0 f   libucrtd:exception_filter.obj
 0001:0006b000       ??$?B$$A6GXPAXK0@Z@__crt_fast_encoded_nullptr_t@@QBEP6GXPAXK0@ZXZ 1006c000 f i libucrtd:exit.obj
 0001:0006b0e0       ??$__crt_fast_decode_pointer@P6GXPAXK0@Z@@YAP6GXPAXK0@ZQ6GX0K0@Z@Z 1006c0e0 f i libucrtd:exit.obj
 0001:0006b110       ??$__crt_fast_encode_pointer@P6GXPAXK0@Z@@YAP6GXPAXK0@ZQ6GX0K0@Z@Z 1006c110 f i libucrtd:exit.obj
 0001:0006b140       ??$__crt_get_proc_address@P6GXI@Z@@YAP6GXI@ZQAUHINSTANCE__@@QBD@Z 1006c140 f i libucrtd:exit.obj
 0001:0006b1d0       ??0?$__crt_unique_handle_t@U__crt_hmodule_traits@@@@QAE@QAUHINSTANCE__@@@Z 1006c1d0 f i libucrtd:exit.obj
 0001:0006b1f0       ??1?$__crt_unique_handle_t@U__crt_hmodule_traits@@@@QAE@XZ 1006c1f0 f i libucrtd:exit.obj
 0001:0006b3b0       ?__acrt_select_exit_lock@@YA?AW4__acrt_lock_id@@XZ 1006c3b0 f i libucrtd:exit.obj
 0001:0006b3c0       ?__crt_fast_encode_pointer@@YA?AU__crt_fast_encoded_nullptr_t@@$$T@Z 1006c3c0 f i libucrtd:exit.obj
 0001:0006b3f0       ?close@?$__crt_unique_handle_t@U__crt_hmodule_traits@@@@QAEXXZ 1006c3f0 f i libucrtd:exit.obj
 0001:0006b430       ?close@__crt_hmodule_traits@@SA_NPAUHINSTANCE__@@@Z 1006c430 f i libucrtd:exit.obj
 0001:0006b520       ?get@?$__crt_unique_handle_t@U__crt_hmodule_traits@@@@QBEPAUHINSTANCE__@@XZ 1006c520 f i libucrtd:exit.obj
 0001:0006b540       ?get_address_of@?$__crt_unique_handle_t@U__crt_hmodule_traits@@@@QAEPAPAUHINSTANCE__@@XZ 1006c540 f i libucrtd:exit.obj
 0001:0006b550       ?get_invalid_value@__crt_hmodule_traits@@SAPAUHINSTANCE__@@XZ 1006c550 f i libucrtd:exit.obj
 0001:0006b6d0       __Exit                     1006c6d0 f   libucrtd:exit.obj
 0001:0006b6f0       ___acrt_initialize_thread_local_exit_callback 1006c6f0 f   libucrtd:exit.obj
 0001:0006b700       __c_exit                   1006c700 f   libucrtd:exit.obj
 0001:0006b720       __cexit                    1006c720 f   libucrtd:exit.obj
 0001:0006b740       __exit                     1006c740 f   libucrtd:exit.obj
 0001:0006b760       __is_c_termination_complete 1006c760 f   libucrtd:exit.obj
 0001:0006b780       __register_thread_local_exe_atexit_callback 1006c780 f   libucrtd:exit.obj
 0001:0006b7c0       _exit                      1006c7c0 f   libucrtd:exit.obj
 0001:0006b7e0       _quick_exit                1006c7e0 f   libucrtd:exit.obj
 0001:0006b800       ??$?RE@__crt_internal_free_policy@@QBEXQBE@Z 1006c800 f i libucrtd:argv_parsing.obj
 0001:0006b820       ??$?RPAD@__crt_internal_free_policy@@QBEXQBQAD@Z 1006c820 f i libucrtd:argv_parsing.obj
 0001:0006b840       ??$?RPA_W@__crt_internal_free_policy@@QBEXQBQA_W@Z 1006c840 f i libucrtd:argv_parsing.obj
 0001:0006bda0       ??$get_module_file_name@$$TAAY0BAF@DH@?$__crt_char_traits@D@@SAK$$QA$$TAAY0BAF@D$$QAH@Z 1006cda0 f i libucrtd:argv_parsing.obj
 0001:0006bdc0       ??$get_module_file_name@$$TAAY0BAF@_WH@?$__crt_char_traits@_W@@SAK$$QA$$TAAY0BAF@_W$$QAH@Z 1006cdc0 f i libucrtd:argv_parsing.obj
 0001:0006c4e0       ??$set_program_name@PAD@?$__crt_char_traits@D@@SAX$$QAPAD@Z 1006d4e0 f i libucrtd:argv_parsing.obj
 0001:0006c500       ??$set_program_name@PA_W@?$__crt_char_traits@_W@@SAX$$QAPA_W@Z 1006d500 f i libucrtd:argv_parsing.obj
 0001:0006c560       ??0?$__crt_unique_heap_ptr@EU__crt_internal_free_policy@@@@QAE@QAE@Z 1006d560 f i libucrtd:argv_parsing.obj
 0001:0006c580       ??0?$__crt_unique_heap_ptr@PADU__crt_internal_free_policy@@@@QAE@QAPAD@Z 1006d580 f i libucrtd:argv_parsing.obj
 0001:0006c5a0       ??0?$__crt_unique_heap_ptr@PA_WU__crt_internal_free_policy@@@@QAE@QAPA_W@Z 1006d5a0 f i libucrtd:argv_parsing.obj
 0001:0006c5c0       ??1?$__crt_unique_heap_ptr@EU__crt_internal_free_policy@@@@QAE@XZ 1006d5c0 f i libucrtd:argv_parsing.obj
 0001:0006c5e0       ??1?$__crt_unique_heap_ptr@PADU__crt_internal_free_policy@@@@QAE@XZ 1006d5e0 f i libucrtd:argv_parsing.obj
 0001:0006c600       ??1?$__crt_unique_heap_ptr@PA_WU__crt_internal_free_policy@@@@QAE@XZ 1006d600 f i libucrtd:argv_parsing.obj
 0001:0006c620       ??B?$__crt_unique_heap_ptr@EU__crt_internal_free_policy@@@@QBE_NXZ 1006d620 f i libucrtd:argv_parsing.obj
 0001:0006c6e0       ?detach@?$__crt_unique_heap_ptr@EU__crt_internal_free_policy@@@@QAEPAEXZ 1006d6e0 f i libucrtd:argv_parsing.obj
 0001:0006c710       ?detach@?$__crt_unique_heap_ptr@PADU__crt_internal_free_policy@@@@QAEPAPADXZ 1006d710 f i libucrtd:argv_parsing.obj
 0001:0006c740       ?detach@?$__crt_unique_heap_ptr@PA_WU__crt_internal_free_policy@@@@QAEPAPA_WXZ 1006d740 f i libucrtd:argv_parsing.obj
 0001:0006c7d0       ?get@?$__crt_unique_heap_ptr@EU__crt_internal_free_policy@@@@QBEPAEXZ 1006d7d0 f i libucrtd:argv_parsing.obj
 0001:0006c7f0       ?get@?$__crt_unique_heap_ptr@PADU__crt_internal_free_policy@@@@QBEPAPADXZ 1006d7f0 f i libucrtd:argv_parsing.obj
 0001:0006c810       ?get@?$__crt_unique_heap_ptr@PA_WU__crt_internal_free_policy@@@@QBEPAPA_WXZ 1006d810 f i libucrtd:argv_parsing.obj
 0001:0006c830       ?get_address_of@?$__crt_unique_heap_ptr@PADU__crt_internal_free_policy@@@@QAEPAPAPADXZ 1006d830 f i libucrtd:argv_parsing.obj
 0001:0006c840       ?get_address_of@?$__crt_unique_heap_ptr@PA_WU__crt_internal_free_policy@@@@QAEPAPAPA_WXZ 1006d840 f i libucrtd:argv_parsing.obj
 0001:0006c890       ?is_valid@?$__crt_unique_heap_ptr@EU__crt_internal_free_policy@@@@QBE_NXZ 1006d890 f i libucrtd:argv_parsing.obj
 0001:0006c8c0       ?release@?$__crt_unique_heap_ptr@EU__crt_internal_free_policy@@@@QAEXXZ 1006d8c0 f i libucrtd:argv_parsing.obj
 0001:0006c8f0       ?release@?$__crt_unique_heap_ptr@PADU__crt_internal_free_policy@@@@QAEXXZ 1006d8f0 f i libucrtd:argv_parsing.obj
 0001:0006c920       ?release@?$__crt_unique_heap_ptr@PA_WU__crt_internal_free_policy@@@@QAEXXZ 1006d920 f i libucrtd:argv_parsing.obj
 0001:0006c990       ___acrt_allocate_buffer_for_argv 1006d990 f   libucrtd:argv_parsing.obj
 0001:0006ca50       __configure_narrow_argv    1006da50 f   libucrtd:argv_parsing.obj
 0001:0006ca70       __configure_wide_argv      1006da70 f   libucrtd:argv_parsing.obj
 0001:0006ca90       __set_pgmptr               1006da90 f i libucrtd:argv_parsing.obj
 0001:0006caa0       __set_wpgmptr              1006daa0 f i libucrtd:argv_parsing.obj
 0001:0006caaf       ??$?R_W@__crt_internal_free_policy@@QBEXQB_W@Z 1006daaf f i libucrtd:environment_initialization.obj
 0001:0006cf18       ??$get_environment_from_os@$$V@?$__crt_char_traits@D@@SAPADXZ 1006df18 f i libucrtd:environment_initialization.obj
 0001:0006cf1d       ??$get_environment_from_os@$$V@?$__crt_char_traits@_W@@SAPA_WXZ 1006df1d f i libucrtd:environment_initialization.obj
 0001:0006d046       ??$set_variable_in_environment_nolock@PADH@?$__crt_char_traits@D@@SAH$$QAPAD$$QAH@Z 1006e046 f i libucrtd:environment_initialization.obj
 0001:0006d05e       ??$set_variable_in_environment_nolock@PA_WH@?$__crt_char_traits@_W@@SAH$$QAPA_W$$QAH@Z 1006e05e f i libucrtd:environment_initialization.obj
 0001:0006d076       ??$tcscpy_s@PADABIAAPAD@?$__crt_char_traits@D@@SAH$$QAPADABIAAPAD@Z 1006e076 f i libucrtd:environment_initialization.obj
 0001:0006d094       ??$tcscpy_s@PA_WABIAAPA_W@?$__crt_char_traits@_W@@SAH$$QAPA_WABIAAPA_W@Z 1006e094 f i libucrtd:environment_initialization.obj
 0001:0006d0b2       ??$tcslen@AAPAD@?$__crt_char_traits@D@@SAIAAPAD@Z 1006e0b2 f i libucrtd:environment_initialization.obj
 0001:0006d0ca       ??$tcslen@AAPA_W@?$__crt_char_traits@_W@@SAIAAPA_W@Z 1006e0ca f i libucrtd:environment_initialization.obj
 0001:0006d0e8       ??$uninitialize@A6AXAAPAPAD@Z@?$dual_state_global@PAPAD@__crt_state_management@@QAEXA6AXAAPAPAD@Z@Z 1006e0e8 f i libucrtd:environment_initialization.obj
 0001:0006d111       ??$uninitialize@A6AXAAPAPA_W@Z@?$dual_state_global@PAPA_W@__crt_state_management@@QAEXA6AXAAPAPA_W@Z@Z 1006e111 f i libucrtd:environment_initialization.obj
 0001:0006d170       ??0?$__crt_unique_heap_ptr@_WU__crt_internal_free_policy@@@@QAE@QA_W@Z 1006e170 f i libucrtd:environment_initialization.obj
 0001:0006d180       ??1?$__crt_unique_heap_ptr@_WU__crt_internal_free_policy@@@@QAE@XZ 1006e180 f i libucrtd:environment_initialization.obj
 0001:0006d195       ??B?$__crt_unique_heap_ptr@PADU__crt_internal_free_policy@@@@QBE_NXZ 1006e195 f i libucrtd:environment_initialization.obj
 0001:0006d19c       ??B?$__crt_unique_heap_ptr@PA_WU__crt_internal_free_policy@@@@QBE_NXZ 1006e19c f i libucrtd:environment_initialization.obj
 0001:0006d1a3       ??B?$__crt_unique_heap_ptr@_WU__crt_internal_free_policy@@@@QBE_NXZ 1006e1a3 f i libucrtd:environment_initialization.obj
 0001:0006d1aa       ?__crt_compute_required_transform_buffer_count@@YAIIQBD@Z 1006e1aa f i libucrtd:environment_initialization.obj
 0001:0006d1c6       ?__crt_compute_required_transform_buffer_count@@YAIIQB_W@Z 1006e1c6 f i libucrtd:environment_initialization.obj
 0001:0006d1e4       ?__crt_transform_string@@YAIIQBDQA_WI@Z 1006e1e4 f i libucrtd:environment_initialization.obj
 0001:0006d203       ?__crt_transform_string@@YAIIQB_WQADI@Z 1006e203 f i libucrtd:environment_initialization.obj
 0001:0006d225       ?detach@?$__crt_unique_heap_ptr@DU__crt_internal_free_policy@@@@QAEPADXZ 1006e225 f i libucrtd:environment_initialization.obj
 0001:0006d22b       ?detach@?$__crt_unique_heap_ptr@_WU__crt_internal_free_policy@@@@QAEPA_WXZ 1006e22b f i libucrtd:environment_initialization.obj
 0001:0006d231       ?get@?$__crt_unique_heap_ptr@_WU__crt_internal_free_policy@@@@QBEPA_WXZ 1006e231 f i libucrtd:environment_initialization.obj
 0001:0006d258       ?initialize@?$dual_state_global@PAPAD@__crt_state_management@@QAEXQAPAD@Z 1006e258 f i libucrtd:environment_initialization.obj
 0001:0006d27e       ?initialize@?$dual_state_global@PAPA_W@__crt_state_management@@QAEXQAPA_W@Z 1006e27e f i libucrtd:environment_initialization.obj
 0001:0006d2a4       ?is_valid@?$__crt_unique_heap_ptr@PADU__crt_internal_free_policy@@@@QBE_NXZ 1006e2a4 f i libucrtd:environment_initialization.obj
 0001:0006d2ab       ?is_valid@?$__crt_unique_heap_ptr@PA_WU__crt_internal_free_policy@@@@QBE_NXZ 1006e2ab f i libucrtd:environment_initialization.obj
 0001:0006d2b2       ?is_valid@?$__crt_unique_heap_ptr@_WU__crt_internal_free_policy@@@@QBE_NXZ 1006e2b2 f i libucrtd:environment_initialization.obj
 0001:0006d2c1       ?release@?$__crt_unique_heap_ptr@_WU__crt_internal_free_policy@@@@QAEXXZ 1006e2c1 f i libucrtd:environment_initialization.obj
 0001:0006d2d6       ?value@?$dual_state_global@PAPAD@__crt_state_management@@QAEAAPAPADXZ 1006e2d6 f i libucrtd:environment_initialization.obj
 0001:0006d2d9       ?value@?$dual_state_global@PAPA_W@__crt_state_management@@QAEAAPAPA_WXZ 1006e2d9 f i libucrtd:environment_initialization.obj
 0001:0006d2dc       ___dcrt_get_or_create_narrow_environment_nolock 1006e2dc f   libucrtd:environment_initialization.obj
 0001:0006d2e1       ___dcrt_get_or_create_wide_environment_nolock 1006e2e1 f   libucrtd:environment_initialization.obj
 0001:0006d2e6       ___dcrt_uninitialize_environments_nolock 1006e2e6 f   libucrtd:environment_initialization.obj
 0001:0006d31d       ___p__environ              1006e31d f   libucrtd:environment_initialization.obj
 0001:0006d323       ___p__wenviron             1006e323 f   libucrtd:environment_initialization.obj
 0001:0006d329       __get_initial_narrow_environment 1006e329 f   libucrtd:environment_initialization.obj
 0001:0006d33d       __get_initial_wide_environment 1006e33d f   libucrtd:environment_initialization.obj
 0001:0006d351       __initialize_narrow_environment 1006e351 f   libucrtd:environment_initialization.obj
 0001:0006d356       __initialize_wide_environment 1006e356 f   libucrtd:environment_initialization.obj
 0001:0006d360       ??$?B$$A6AXXZ@__crt_fast_encoded_nullptr_t@@QBEP6AXXZXZ 1006e360 f i libucrtd:onexit.obj
 0001:0006d380       ??$?BP6AXXZ@__crt_fast_encoded_nullptr_t@@QBEPAP6AXXZXZ 1006e380 f i libucrtd:onexit.obj
 0001:0006d3a0       ??$?RP6AXXZ@__crt_internal_free_policy@@QBEXQBQ6AXXZ@Z 1006e3a0 f i libucrtd:onexit.obj
 0001:0006d560       ??$__crt_fast_decode_pointer@P6AXXZ@@YAP6AXXZQ6AXXZ@Z 1006e560 f i libucrtd:onexit.obj
 0001:0006d590       ??$__crt_fast_decode_pointer@PAP6AXXZ@@YAPAP6AXXZQAP6AXXZ@Z 1006e590 f i libucrtd:onexit.obj
 0001:0006d5c0       ??$__crt_fast_encode_pointer@P6AHXZ@@YAP6AHXZQ6AHXZ@Z 1006e5c0 f i libucrtd:onexit.obj
 0001:0006d5f0       ??$__crt_fast_encode_pointer@P6AXXZ@@YAP6AXXZQ6AXXZ@Z 1006e5f0 f i libucrtd:onexit.obj
 0001:0006d620       ??$__crt_fast_encode_pointer@PAP6AXXZ@@YAPAP6AXXZQAP6AXXZ@Z 1006e620 f i libucrtd:onexit.obj
 0001:0006d720       ??0?$__crt_unique_heap_ptr@P6AXXZU__crt_internal_free_policy@@@@QAE@QAP6AXXZ@Z 1006e720 f i libucrtd:onexit.obj
 0001:0006d740       ??1?$__crt_unique_heap_ptr@P6AXXZU__crt_internal_free_policy@@@@QAE@XZ 1006e740 f i libucrtd:onexit.obj
 0001:0006d760       ??1scoped_global_state_reset@__crt_state_management@@QAE@XZ 1006e760 f i libucrtd:onexit.obj
 0001:0006dbd0       ?detach@?$__crt_unique_heap_ptr@P6AXXZU__crt_internal_free_policy@@@@QAEPAP6AXXZXZ 1006ebd0 f i libucrtd:onexit.obj
 0001:0006dc00       ?release@?$__crt_unique_heap_ptr@P6AXXZU__crt_internal_free_policy@@@@QAEXXZ 1006ec00 f i libucrtd:onexit.obj
 0001:0006dc30       __crt_at_quick_exit        1006ec30 f   libucrtd:onexit.obj
 0001:0006dc50       __crt_atexit               1006ec50 f   libucrtd:onexit.obj
 0001:0006dc70       __execute_onexit_table     1006ec70 f   libucrtd:onexit.obj
 0001:0006dca0       __initialize_onexit_table  1006eca0 f   libucrtd:onexit.obj
 0001:0006dd00       __register_onexit_function 1006ed00 f   libucrtd:onexit.obj
 0001:0006df40       ??$?BX@__crt_fast_encoded_nullptr_t@@QBEPAXXZ 1006ef40 f i libucrtd:initialization.obj
 0001:0006df60       ??$__crt_fast_encode_pointer@PAX@@YAPAXQAX@Z 1006ef60 f i libucrtd:initialization.obj
 0001:0006e020       ?initialize@?$dual_state_global@PAU__crt_locale_data@@@__crt_state_management@@QAEXQAU__crt_locale_data@@@Z 1006f020 f i libucrtd:initialization.obj
 0001:0006e060       ___acrt_initialize         1006f060 f   libucrtd:initialization.obj
 0001:0006e080       ___acrt_thread_attach      1006f080 f   libucrtd:initialization.obj
 0001:0006e0a0       ___acrt_thread_detach      1006f0a0 f   libucrtd:initialization.obj
 0001:0006e0b0       ___acrt_uninitialize       1006f0b0 f   libucrtd:initialization.obj
 0001:0006e0d0       ___acrt_uninitialize_critical 1006f0d0 f   libucrtd:initialization.obj
 0001:0006f940       __CrtCheckMemory           10070940 f   libucrtd:debug_heap.obj
 0001:0006fad0       __CrtDoForAllClientObjects 10070ad0 f   libucrtd:debug_heap.obj
 0001:0006fc20       __CrtDumpMemoryLeaks       10070c20 f   libucrtd:debug_heap.obj
 0001:0006fcc0       __CrtGetAllocHook          10070cc0 f   libucrtd:debug_heap.obj
 0001:0006fcd0       __CrtGetDumpClient         10070cd0 f   libucrtd:debug_heap.obj
 0001:0006fce0       __CrtIsMemoryBlock         10070ce0 f   libucrtd:debug_heap.obj
 0001:0006fe30       __CrtIsValidHeapPointer    10070e30 f   libucrtd:debug_heap.obj
 0001:0006fe60       __CrtIsValidPointer        10070e60 f   libucrtd:debug_heap.obj
 0001:0006fe90       __CrtMemCheckpoint         10070e90 f   libucrtd:debug_heap.obj
 0001:000700c0       __CrtMemDifference         100710c0 f   libucrtd:debug_heap.obj
 0001:00070330       __CrtMemDumpAllObjectsSince 10071330 f   libucrtd:debug_heap.obj
 0001:000703d0       __CrtMemDumpStatistics     100713d0 f   libucrtd:debug_heap.obj
 0001:00070500       __CrtReportBlockType       10071500 f   libucrtd:debug_heap.obj
 0001:00070530       __CrtSetAllocHook          10071530 f   libucrtd:debug_heap.obj
 0001:00070550       __CrtSetBreakAlloc         10071550 f   libucrtd:debug_heap.obj
 0001:00070570       __CrtSetDbgBlockType       10071570 f   libucrtd:debug_heap.obj
 0001:00070650       __CrtSetDbgFlag            10071650 f   libucrtd:debug_heap.obj
 0001:000707c0       __CrtSetDumpClient         100717c0 f   libucrtd:debug_heap.obj
 0001:000707e0       ___acrt_get_locale_data_prefix 100717e0 f i libucrtd:debug_heap.obj
 0001:00070800       ___p__crtBreakAlloc        10071800 f   libucrtd:debug_heap.obj
 0001:00070810       ___p__crtDbgFlag           10071810 f   libucrtd:debug_heap.obj
 0001:00070820       __aligned_free_dbg         10071820 f   libucrtd:debug_heap.obj
 0001:000708d0       __aligned_malloc_dbg       100718d0 f   libucrtd:debug_heap.obj
 0001:00070900       __aligned_msize_dbg        10071900 f   libucrtd:debug_heap.obj
 0001:00070a30       __aligned_offset_malloc_dbg 10071a30 f   libucrtd:debug_heap.obj
 0001:00070c10       __aligned_offset_realloc_dbg 10071c10 f   libucrtd:debug_heap.obj
 0001:00070f20       __aligned_offset_recalloc_dbg 10071f20 f   libucrtd:debug_heap.obj
 0001:00070fe0       __aligned_realloc_dbg      10071fe0 f   libucrtd:debug_heap.obj
 0001:00071010       __aligned_recalloc_dbg     10072010 f   libucrtd:debug_heap.obj
 0001:00071040       __calloc_dbg               10072040 f   libucrtd:debug_heap.obj
 0001:000710b0       __chvalidchk_l             100720b0 f i libucrtd:debug_heap.obj
 0001:000710d0       __expand_dbg               100720d0 f   libucrtd:debug_heap.obj
 0001:00071200       __free_dbg                 10072200 f   libucrtd:debug_heap.obj
 0001:000712b0       __ischartype_l             100722b0 f i libucrtd:debug_heap.obj
 0001:00071330       __malloc_dbg               10072330 f   libucrtd:debug_heap.obj
 0001:00071350       __msize_dbg                10072350 f   libucrtd:debug_heap.obj
 0001:000714e0       __realloc_dbg              100724e0 f   libucrtd:debug_heap.obj
 0001:00071580       __recalloc_dbg             10072580 f   libucrtd:debug_heap.obj
 0001:00071630       __initterm                 10072630 f   libucrtd:initterm.obj
 0001:00071680       __initterm_e               10072680 f   libucrtd:initterm.obj
 0001:000719f0       _strcpy_s                  100729f0 f   libucrtd:strcpy_s.obj
 0001:00071e20       _strcat_s                  10072e20 f   libucrtd:strcat_s.obj
 0001:00071e40       ??$?B$$A6AHI@Z@__crt_fast_encoded_nullptr_t@@QBEP6AHI@ZXZ 10072e40 f i libucrtd:new_handler.obj
 0001:00071e60       ??$__crt_fast_decode_pointer@P6AHI@Z@@YAP6AHI@ZQ6AHI@Z@Z 10072e60 f i libucrtd:new_handler.obj
 0001:00071e90       ??$__crt_fast_encode_pointer@P6AHI@Z@@YAP6AHI@ZQ6AHI@Z@Z 10072e90 f i libucrtd:new_handler.obj
 0001:00071ec0       ?_set_new_handler@@YAP6AHI@ZH@Z 10072ec0 f   libucrtd:new_handler.obj
 0001:00071f20       ?initialize@?$dual_state_global@P6AHI@Z@__crt_state_management@@QAEXQ6AHI@Z@Z 10072f20 f i libucrtd:new_handler.obj
 0001:00071f60       ?value@?$dual_state_global@P6AHI@Z@__crt_state_management@@QAEAAP6AHI@ZXZ 10072f60 f i libucrtd:new_handler.obj
 0001:00071f80       ___acrt_initialize_new_handler 10072f80 f   libucrtd:new_handler.obj
 0001:00071fa0       __callnewh                 10072fa0 f   libucrtd:new_handler.obj
 0001:00071fe0       __query_new_handler        10072fe0 f   libucrtd:new_handler.obj
 0001:00072070       __set_new_handler          10073070 f   libucrtd:new_handler.obj
 0001:00072150       __get_terminate            10073150 f   libucrtd:terminate.obj
 0001:00072170       _set_terminate             10073170 f   libucrtd:terminate.obj
 0001:000721a0       _terminate                 100731a0 f   libucrtd:terminate.obj
 0001:00072b70       __makepath                 10073b70 f   libucrtd:makepath.obj
 0001:00072ba0       __makepath_s               10073ba0 f   libucrtd:makepath.obj
 0001:00072bd0       __wmakepath                10073bd0 f   libucrtd:makepath.obj
 0001:00072c00       __wmakepath_s              10073c00 f   libucrtd:makepath.obj
 0001:00074550       ??$tcsncpy_s@AAPADIAAPBDABI@?$__crt_char_traits@D@@SAHAAPAD$$QAIAAPBDABI@Z 10075550 f i libucrtd:splitpath.obj
 0001:00074580       ??$tcsncpy_s@AAPADIAAPBDH@?$__crt_char_traits@D@@SAHAAPAD$$QAIAAPBD$$QAH@Z 10075580 f i libucrtd:splitpath.obj
 0001:000745b0       ??$tcsncpy_s@AAPA_WIAAPB_WABI@?$__crt_char_traits@_W@@SAHAAPA_W$$QAIAAPB_WABI@Z 100755b0 f i libucrtd:splitpath.obj
 0001:000745e0       ??$tcsncpy_s@AAPA_WIAAPB_WH@?$__crt_char_traits@_W@@SAHAAPA_W$$QAIAAPB_W$$QAH@Z 100755e0 f i libucrtd:splitpath.obj
 0001:00074820       __splitpath                10075820 f   libucrtd:splitpath.obj
 0001:00074850       __splitpath_s              10075850 f   libucrtd:splitpath.obj
 0001:000748a0       __wsplitpath               100758a0 f   libucrtd:splitpath.obj
 0001:000748d0       __wsplitpath_s             100758d0 f   libucrtd:splitpath.obj
 0001:00074920       __set_abort_behavior       10075920 f   libucrtd:abort.obj
 0001:00074950       _abort                     10075950 f   libucrtd:abort.obj
 0001:000749c0       _strcmp                    100759c0 f   libucrtd:strcmp.obj
 0001:00074a50       _strlen                    10075a50 f   libucrtd:strlen.obj
 0001:00074ae0       ??$is_overflow_condition@K@__crt_strtox@@YA_NIK@Z 10075ae0 f i libucrtd:atox.obj
 0001:00074b40       ??$is_overflow_condition@_K@__crt_strtox@@YA_NI_K@Z 10075b40 f i libucrtd:atox.obj
 0001:00074bd0       ??$make_c_string_character_source@D$$T@__crt_strtox@@YA?AV?$c_string_character_source@D@0@QBD$$T@Z 10075bd0 f i libucrtd:atox.obj
 0001:00074bf0       ??$make_c_string_character_source@_W$$T@__crt_strtox@@YA?AV?$c_string_character_source@_W@0@QB_W$$T@Z 10075bf0 f i libucrtd:atox.obj
 0001:00074c10       ??$parse_integer@KV?$c_string_character_source@D@__crt_strtox@@@__crt_strtox@@YAKQAU__crt_locale_pointers@@V?$c_string_character_source@D@0@H_N@Z 10075c10 f i libucrtd:atox.obj
 0001:00074f80       ??$parse_integer@KV?$c_string_character_source@_W@__crt_strtox@@@__crt_strtox@@YAKQAU__crt_locale_pointers@@V?$c_string_character_source@_W@0@H_N@Z 10075f80 f i libucrtd:atox.obj
 0001:000752f0       ??$parse_integer@_KV?$c_string_character_source@D@__crt_strtox@@@__crt_strtox@@YA_KQAU__crt_locale_pointers@@V?$c_string_character_source@D@0@H_N@Z 100762f0 f i libucrtd:atox.obj
 0001:00075710       ??$parse_integer@_KV?$c_string_character_source@_W@__crt_strtox@@@__crt_strtox@@YA_KQAU__crt_locale_pointers@@V?$c_string_character_source@_W@0@H_N@Z 10076710 f i libucrtd:atox.obj
 0001:00075b40       ??$parse_integer_from_string@JD$$T@__crt_strtox@@YAJQBD$$THQAU__crt_locale_pointers@@@Z 10076b40 f i libucrtd:atox.obj
 0001:00075b80       ??$parse_integer_from_string@J_W$$T@__crt_strtox@@YAJQB_W$$THQAU__crt_locale_pointers@@@Z 10076b80 f i libucrtd:atox.obj
 0001:00075bc0       ??$parse_integer_from_string@_JD$$T@__crt_strtox@@YA_JQBD$$THQAU__crt_locale_pointers@@@Z 10076bc0 f i libucrtd:atox.obj
 0001:00075c00       ??$parse_integer_from_string@_J_W$$T@__crt_strtox@@YA_JQB_W$$THQAU__crt_locale_pointers@@@Z 10076c00 f i libucrtd:atox.obj
 0001:00075c40       ??0?$c_string_character_source@D@__crt_strtox@@QAE@QBDQAPBD@Z 10076c40 f i libucrtd:atox.obj
 0001:00075c80       ??0?$c_string_character_source@_W@__crt_strtox@@QAE@QB_WQAPB_W@Z 10076c80 f i libucrtd:atox.obj
 0001:00075cc0       ??1?$c_string_character_source@D@__crt_strtox@@QAE@XZ 10076cc0 f i libucrtd:atox.obj
 0001:00075cf0       ??1?$c_string_character_source@_W@__crt_strtox@@QAE@XZ 10076cf0 f i libucrtd:atox.obj
 0001:00075d20       ?get@?$c_string_character_source@D@__crt_strtox@@QAEDXZ 10076d20 f i libucrtd:atox.obj
 0001:00075d50       ?get@?$c_string_character_source@_W@__crt_strtox@@QAE_WXZ 10076d50 f i libucrtd:atox.obj
 0001:00075d80       ?is_space@__crt_strtox@@YA_NDQAU__crt_locale_pointers@@@Z 10076d80 f i libucrtd:atox.obj
 0001:00075dc0       ?is_space@__crt_strtox@@YA_N_WPAU__crt_locale_pointers@@@Z 10076dc0 f i libucrtd:atox.obj
 0001:00075df0       ?maximum_signed_value@__crt_strtox@@YAJK@Z 10076df0 f i libucrtd:atox.obj
 0001:00075e00       ?maximum_signed_value@__crt_strtox@@YA_J_K@Z 10076e00 f i libucrtd:atox.obj
 0001:00075e10       ?minimum_signed_value@__crt_strtox@@YAJK@Z 10076e10 f i libucrtd:atox.obj
 0001:00075e20       ?minimum_signed_value@__crt_strtox@@YA_J_K@Z 10076e20 f i libucrtd:atox.obj
 0001:00075e30       ?parse_digit@__crt_strtox@@YAID@Z 10076e30 f i libucrtd:atox.obj
 0001:00075e90       ?parse_digit@__crt_strtox@@YAI_W@Z 10076e90 f i libucrtd:atox.obj
 0001:00075ee0       ?restore_state@?$c_string_character_source@D@__crt_strtox@@QAE_NQBD@Z 10076ee0 f i libucrtd:atox.obj
 0001:00075f00       ?restore_state@?$c_string_character_source@_W@__crt_strtox@@QAE_NQB_W@Z 10076f00 f i libucrtd:atox.obj
 0001:00075f20       ?save_state@?$c_string_character_source@D@__crt_strtox@@QBEPBDXZ 10076f20 f i libucrtd:atox.obj
 0001:00075f40       ?save_state@?$c_string_character_source@_W@__crt_strtox@@QBEPB_WXZ 10076f40 f i libucrtd:atox.obj
 0001:00075f60       ?unget@?$c_string_character_source@D@__crt_strtox@@QAEXD@Z 10076f60 f i libucrtd:atox.obj
 0001:00076010       ?unget@?$c_string_character_source@_W@__crt_strtox@@QAEX_W@Z 10077010 f i libucrtd:atox.obj
 0001:000760c0       ?validate@?$c_string_character_source@D@__crt_strtox@@QBE_NXZ 100770c0 f i libucrtd:atox.obj
 0001:00076150       ?validate@?$c_string_character_source@_W@__crt_strtox@@QBE_NXZ 10077150 f i libucrtd:atox.obj
 0001:000761e0       ?wide_character_to_digit@__crt_strtox@@YAH_W@Z 100771e0 f i libucrtd:atox.obj
 0001:00076510       ___ascii_iswalpha          10077510 f i libucrtd:atox.obj
 0001:00076550       ___ascii_toupper           10077550 f i libucrtd:atox.obj
 0001:00076570       ___ascii_towupper          10077570 f i libucrtd:atox.obj
 0001:00076590       __atoi64                   10077590 f   libucrtd:atox.obj
 0001:000765b0       __atoi64_l                 100775b0 f   libucrtd:atox.obj
 0001:000765d0       __atoi_l                   100775d0 f   libucrtd:atox.obj
 0001:000765f0       __atol_l                   100775f0 f   libucrtd:atox.obj
 0001:00076610       __atoll_l                  10077610 f   libucrtd:atox.obj
 0001:00076630       __wtoi                     10077630 f   libucrtd:atox.obj
 0001:00076650       __wtoi64                   10077650 f   libucrtd:atox.obj
 0001:00076670       __wtoi64_l                 10077670 f   libucrtd:atox.obj
 0001:00076690       __wtoi_l                   10077690 f   libucrtd:atox.obj
 0001:000766b0       __wtol                     100776b0 f   libucrtd:atox.obj
 0001:000766d0       __wtol_l                   100776d0 f   libucrtd:atox.obj
 0001:000766f0       __wtoll                    100776f0 f   libucrtd:atox.obj
 0001:00076710       __wtoll_l                  10077710 f   libucrtd:atox.obj
 0001:00076730       _atoi                      10077730 f   libucrtd:atox.obj
 0001:00076750       _atol                      10077750 f   libucrtd:atox.obj
 0001:00076770       _atoll                     10077770 f   libucrtd:atox.obj
 0001:00076790       _strncmp                   10077790 f   libucrtd:strncmp.obj
 0001:00076810       _wcsncmp                   10077810 f   libucrtd:wcsncmp.obj
 0001:00076870       __CrtGetDebugFillThreshold 10077870 f   libucrtd:debug_fill_threshold.obj
 0001:00076880       __CrtSetDebugFillThreshold 10077880 f   libucrtd:debug_fill_threshold.obj
 0001:000768a0       ??$make_c_string_character_source@DPAPAD@__crt_strtox@@YA?AV?$c_string_character_source@D@0@QBDQAPAD@Z 100778a0 f i libucrtd:strtox.obj
 0001:000768c0       ??$make_c_string_character_source@_WPAPA_W@__crt_strtox@@YA?AV?$c_string_character_source@_W@0@QB_WQAPA_W@Z 100778c0 f i libucrtd:strtox.obj
 0001:000768e0       ??$parse_integer_from_string@JDPAPAD@__crt_strtox@@YAJQBDQAPADHQAU__crt_locale_pointers@@@Z 100778e0 f i libucrtd:strtox.obj
 0001:00076920       ??$parse_integer_from_string@J_WPAPA_W@__crt_strtox@@YAJQB_WQAPA_WHQAU__crt_locale_pointers@@@Z 10077920 f i libucrtd:strtox.obj
 0001:00076960       ??$parse_integer_from_string@KDPAPAD@__crt_strtox@@YAKQBDQAPADHQAU__crt_locale_pointers@@@Z 10077960 f i libucrtd:strtox.obj
 0001:000769a0       ??$parse_integer_from_string@K_WPAPA_W@__crt_strtox@@YAKQB_WQAPA_WHQAU__crt_locale_pointers@@@Z 100779a0 f i libucrtd:strtox.obj
 0001:000769e0       ??$parse_integer_from_string@_JDPAPAD@__crt_strtox@@YA_JQBDQAPADHQAU__crt_locale_pointers@@@Z 100779e0 f i libucrtd:strtox.obj
 0001:00076a20       ??$parse_integer_from_string@_J_WPAPA_W@__crt_strtox@@YA_JQB_WQAPA_WHQAU__crt_locale_pointers@@@Z 10077a20 f i libucrtd:strtox.obj
 0001:00076a60       ??$parse_integer_from_string@_KDPAPAD@__crt_strtox@@YA_KQBDQAPADHQAU__crt_locale_pointers@@@Z 10077a60 f i libucrtd:strtox.obj
 0001:00076aa0       ??$parse_integer_from_string@_K_WPAPA_W@__crt_strtox@@YA_KQB_WQAPA_WHQAU__crt_locale_pointers@@@Z 10077aa0 f i libucrtd:strtox.obj
 0001:00076ae0       __strtoi64                 10077ae0 f   libucrtd:strtox.obj
 0001:00076b00       __strtoi64_l               10077b00 f   libucrtd:strtox.obj
 0001:00076b20       __strtoimax_l              10077b20 f   libucrtd:strtox.obj
 0001:00076b40       __strtol_l                 10077b40 f   libucrtd:strtox.obj
 0001:00076b60       __strtoll_l                10077b60 f   libucrtd:strtox.obj
 0001:00076b80       __strtoui64                10077b80 f   libucrtd:strtox.obj
 0001:00076ba0       __strtoui64_l              10077ba0 f   libucrtd:strtox.obj
 0001:00076bc0       __strtoul_l                10077bc0 f   libucrtd:strtox.obj
 0001:00076be0       __strtoull_l               10077be0 f   libucrtd:strtox.obj
 0001:00076c00       __strtoumax_l              10077c00 f   libucrtd:strtox.obj
 0001:00076c20       __wcstoi64                 10077c20 f   libucrtd:strtox.obj
 0001:00076c40       __wcstoi64_l               10077c40 f   libucrtd:strtox.obj
 0001:00076c60       __wcstoimax_l              10077c60 f   libucrtd:strtox.obj
 0001:00076c80       __wcstol_l                 10077c80 f   libucrtd:strtox.obj
 0001:00076ca0       __wcstoll_l                10077ca0 f   libucrtd:strtox.obj
 0001:00076cc0       __wcstoui64                10077cc0 f   libucrtd:strtox.obj
 0001:00076ce0       __wcstoui64_l              10077ce0 f   libucrtd:strtox.obj
 0001:00076d00       __wcstoul_l                10077d00 f   libucrtd:strtox.obj
 0001:00076d20       __wcstoull_l               10077d20 f   libucrtd:strtox.obj
 0001:00076d40       __wcstoumax_l              10077d40 f   libucrtd:strtox.obj
 0001:00076d60       _strtoimax                 10077d60 f   libucrtd:strtox.obj
 0001:00076d80       _strtol                    10077d80 f   libucrtd:strtox.obj
 0001:00076da0       _strtoll                   10077da0 f   libucrtd:strtox.obj
 0001:00076dc0       _strtoul                   10077dc0 f   libucrtd:strtox.obj
 0001:00076de0       _strtoull                  10077de0 f   libucrtd:strtox.obj
 0001:00076e00       _strtoumax                 10077e00 f   libucrtd:strtox.obj
 0001:00076e20       _wcstoimax                 10077e20 f   libucrtd:strtox.obj
 0001:00076e40       _wcstol                    10077e40 f   libucrtd:strtox.obj
 0001:00076e60       _wcstoll                   10077e60 f   libucrtd:strtox.obj
 0001:00076e80       _wcstoul                   10077e80 f   libucrtd:strtox.obj
 0001:00076ea0       _wcstoull                  10077ea0 f   libucrtd:strtox.obj
 0001:00076ec0       _wcstoumax                 10077ec0 f   libucrtd:strtox.obj
 0001:00076ee0       __mbtowc_l                 10077ee0 f   libucrtd:mbtowc.obj
 0001:00077200       _mbtowc                    10078200 f   libucrtd:mbtowc.obj
 0001:00077220       __wctomb_l                 10078220 f   libucrtd:wctomb.obj
 0001:000772a0       __wctomb_s_l               100782a0 f   libucrtd:wctomb.obj
 0001:00077660       _wctomb                    10078660 f   libucrtd:wctomb.obj
 0001:000776b0       _wctomb_s                  100786b0 f   libucrtd:wctomb.obj
 0001:000776e0       ??$?RU__acrt_ptd@@@__crt_internal_free_policy@@QBEXQBU__acrt_ptd@@@Z 100786e0 f i libucrtd:per_thread_data.obj
 0001:00077b90       ??0?$__crt_unique_heap_ptr@U__acrt_ptd@@U__crt_internal_free_policy@@@@QAE@QAU__acrt_ptd@@@Z 10078b90 f i libucrtd:per_thread_data.obj
 0001:00077bb0       ??0__crt_scoped_get_last_error_reset@@QAE@XZ 10078bb0 f i libucrtd:per_thread_data.obj
 0001:00077bd0       ??1?$__crt_unique_heap_ptr@U__acrt_ptd@@U__crt_internal_free_policy@@@@QAE@XZ 10078bd0 f i libucrtd:per_thread_data.obj
 0001:00077bf0       ??1__crt_scoped_get_last_error_reset@@QAE@XZ 10078bf0 f i libucrtd:per_thread_data.obj
 0001:00077c10       ??B?$__crt_unique_heap_ptr@U__acrt_ptd@@U__crt_internal_free_policy@@@@QBE_NXZ 10078c10 f i libucrtd:per_thread_data.obj
 0001:00077ef0       ?dangerous_get_state_array@?$dual_state_global@PAU__crt_locale_data@@@__crt_state_management@@QAEPAPAU__crt_locale_data@@XZ 10078ef0 f i libucrtd:per_thread_data.obj
 0001:00078070       ?detach@?$__crt_unique_heap_ptr@U__acrt_ptd@@U__crt_internal_free_policy@@@@QAEPAU__acrt_ptd@@XZ 10079070 f i libucrtd:per_thread_data.obj
 0001:000780a0       ?get@?$__crt_unique_heap_ptr@U__acrt_ptd@@U__crt_internal_free_policy@@@@QBEPAU__acrt_ptd@@XZ 100790a0 f i libucrtd:per_thread_data.obj
 0001:000780c0       ?get_current_state_index@__crt_state_management@@YAIABV__crt_scoped_get_last_error_reset@@@Z 100790c0 f i libucrtd:per_thread_data.obj
 0001:00078230       ?is_valid@?$__crt_unique_heap_ptr@U__acrt_ptd@@U__crt_internal_free_policy@@@@QBE_NXZ 10079230 f i libucrtd:per_thread_data.obj
 0001:00078260       ?release@?$__crt_unique_heap_ptr@U__acrt_ptd@@U__crt_internal_free_policy@@@@QAEXXZ 10079260 f i libucrtd:per_thread_data.obj
 0001:00078350       ?value@?$dual_state_global@PAU__crt_locale_data@@@__crt_state_management@@QAEAAPAU__crt_locale_data@@XZ 10079350 f i libucrtd:per_thread_data.obj
 0001:00078370       ___acrt_freeptd            10079370 f   libucrtd:per_thread_data.obj
 0001:000783a0       ___acrt_getptd             100793a0 f   libucrtd:per_thread_data.obj
 0001:000783c0       ___acrt_getptd_head        100793c0 f   libucrtd:per_thread_data.obj
 0001:000783e0       ___acrt_getptd_noexit      100793e0 f   libucrtd:per_thread_data.obj
 0001:000783f0       ___acrt_initialize_ptd     100793f0 f   libucrtd:per_thread_data.obj
 0001:00078430       ___acrt_uninitialize_ptd   10079430 f   libucrtd:per_thread_data.obj
 0001:00078460       ___threadhandle            10079460 f   libucrtd:per_thread_data.obj
 0001:00078470       ___threadid                10079470 f   libucrtd:per_thread_data.obj
 0001:00078480       ?value@?$dual_state_global@PAU__crt_multibyte_data@@@__crt_state_management@@QAEAAPAU__crt_multibyte_data@@XZ 10079480 f i libucrtd:locale_update.obj
 0001:000784a0       ___acrt_should_sync_with_global_locale 100794a0 f i libucrtd:locale_update.obj
 0001:000784d0       ___acrt_update_locale_info 100794d0 f   libucrtd:locale_update.obj
 0001:00078510       ___acrt_update_multibyte_info 10079510 f   libucrtd:locale_update.obj
 0001:00078550       ?__acrt_fp_classify@@YA?AW4__acrt_fp_class@@ABN@Z 10079550 f i libucrtd:cvt.obj
 0001:00078670       ?__acrt_fp_is_negative@@YA_NABN@Z 10079670 f i libucrtd:cvt.obj
 0001:00079960       ?strrchr@@YAPADQADH@Z      1007a960 f i libucrtd:cvt.obj
 0001:00079980       ___acrt_fp_format          1007a980 f   libucrtd:cvt.obj
 0001:00079e40       __fputwc_nolock            1007ae40 f   libucrtd:fputwc.obj
 0001:0007a030       __fputwchar                1007b030 f   libucrtd:fputwc.obj
 0001:0007a050       __putwc_nolock             1007b050 f   libucrtd:fputwc.obj
 0001:0007a070       _fputwc                    1007b070 f   libucrtd:fputwc.obj
 0001:0007a180       _putwc                     1007b180 f   libucrtd:fputwc.obj
 0001:0007a1a0       _putwchar                  1007b1a0 f   libucrtd:fputwc.obj
 0001:0007a1c0       ?lowio_handle@__crt_stdio_stream@@QBEHXZ 1007b1c0 f i libucrtd:fileno.obj
 0001:0007a1e0       __fileno                   1007b1e0 f   libucrtd:fileno.obj
 0001:0007a280       ??$?RPAU__crt_stdio_stream_data@@@__crt_internal_free_policy@@QBEXQBQAU__crt_stdio_stream_data@@@Z 1007b280 f i libucrtd:_file.obj
 0001:0007a2a0       ??0?$__crt_unique_heap_ptr@PAU__crt_stdio_stream_data@@U__crt_internal_free_policy@@@@QAE@QAPAU__crt_stdio_stream_data@@@Z 1007b2a0 f i libucrtd:_file.obj
 0001:0007a2c0       ??1?$__crt_unique_heap_ptr@PAU__crt_stdio_stream_data@@U__crt_internal_free_policy@@@@QAE@XZ 1007b2c0 f i libucrtd:_file.obj
 0001:0007a2e0       ?detach@?$__crt_unique_heap_ptr@PAU__crt_stdio_stream_data@@U__crt_internal_free_policy@@@@QAEPAPAU__crt_stdio_stream_data@@XZ 1007b2e0 f i libucrtd:_file.obj
 0001:0007a310       ?release@?$__crt_unique_heap_ptr@PAU__crt_stdio_stream_data@@U__crt_internal_free_policy@@@@QAEXXZ 1007b310 f i libucrtd:_file.obj
 0001:0007a340       ___acrt_initialize_stdio   1007b340 f   libucrtd:_file.obj
 0001:0007a4b0       ___acrt_iob_func           1007b4b0 f   libucrtd:_file.obj
 0001:0007a4c0       ___acrt_uninitialize_stdio 1007b4c0 f   libucrtd:_file.obj
 0001:0007a540       __get_stream_buffer_pointers 1007b540 f   libucrtd:_file.obj
 0001:0007a620       __lock_file                1007b620 f   libucrtd:_file.obj
 0001:0007a650       __unlock_file              1007b650 f   libucrtd:_file.obj
 0001:0007a680       __get_printf_count_output  1007b680 f   libucrtd:printf_count_output.obj
 0001:0007a6b0       __set_printf_count_output  1007b6b0 f   libucrtd:printf_count_output.obj
 0001:0007a710       ?has_any_buffer@__crt_stdio_stream@@QBE_NXZ 1007b710 f i libucrtd:_sftbuf.obj
 0001:0007a730       ?has_any_of@__crt_stdio_stream@@QBE_NJ@Z 1007b730 f i libucrtd:_sftbuf.obj
 0001:0007a770       ?has_temporary_buffer@__crt_stdio_stream@@QBE_NXZ 1007b770 f i libucrtd:_sftbuf.obj
 0001:0007a790       ?set_flags@__crt_stdio_stream@@QBE_NJ@Z 1007b790 f i libucrtd:_sftbuf.obj
 0001:0007a7e0       ?unset_flags@__crt_stdio_stream@@QBE_NJ@Z 1007b7e0 f i libucrtd:_sftbuf.obj
 0001:0007a830       ___acrt_should_use_temporary_buffer 1007b830 f   libucrtd:_sftbuf.obj
 0001:0007a880       ___acrt_stdio_begin_temporary_buffering_nolock 1007b880 f   libucrtd:_sftbuf.obj
 0001:0007aa30       ___acrt_stdio_end_temporary_buffering_nolock 1007ba30 f   libucrtd:_sftbuf.obj
 0001:0007aac0       ??$?RU__crt_locale_data@@@__crt_internal_free_policy@@QBEXQBU__crt_locale_data@@@Z 1007bac0 f i libucrtd:wsetlocale.obj
 0001:0007aae0       ??$?RU__crt_locale_pointers@@@__crt_internal_free_policy@@QBEXQBU__crt_locale_pointers@@@Z 1007bae0 f i libucrtd:wsetlocale.obj
 0001:0007ab00       ??$?RU__crt_multibyte_data@@@__crt_internal_free_policy@@QBEXQBU__crt_multibyte_data@@@Z 1007bb00 f i libucrtd:wsetlocale.obj
 0001:0007b0f0       ??0?$__crt_unique_heap_ptr@U__crt_locale_data@@U__crt_internal_free_policy@@@@QAE@QAU__crt_locale_data@@@Z 1007c0f0 f i libucrtd:wsetlocale.obj
 0001:0007b110       ??0?$__crt_unique_heap_ptr@U__crt_locale_pointers@@U__crt_internal_free_policy@@@@QAE@QAU__crt_locale_pointers@@@Z 1007c110 f i libucrtd:wsetlocale.obj
 0001:0007b130       ??0?$__crt_unique_heap_ptr@U__crt_multibyte_data@@U__crt_internal_free_policy@@@@QAE@QAU__crt_multibyte_data@@@Z 1007c130 f i libucrtd:wsetlocale.obj
 0001:0007b150       ??0_expandlocale_locale_name_cache@@QAE@QA_WIQAU__crt_qualified_locale_data@@@Z 1007c150 f i libucrtd:wsetlocale.obj
 0001:0007b1c0       ??1?$__crt_unique_heap_ptr@U__crt_locale_data@@U__crt_internal_free_policy@@@@QAE@XZ 1007c1c0 f i libucrtd:wsetlocale.obj
 0001:0007b1e0       ??1?$__crt_unique_heap_ptr@U__crt_locale_pointers@@U__crt_internal_free_policy@@@@QAE@XZ 1007c1e0 f i libucrtd:wsetlocale.obj
 0001:0007b200       ??1?$__crt_unique_heap_ptr@U__crt_multibyte_data@@U__crt_internal_free_policy@@@@QAE@XZ 1007c200 f i libucrtd:wsetlocale.obj
 0001:0007b220       ??1_expandlocale_locale_name_cache@@QAE@XZ 1007c220 f i libucrtd:wsetlocale.obj
 0001:0007b280       ??B?$__crt_unique_heap_ptr@U__crt_locale_data@@U__crt_internal_free_policy@@@@QBE_NXZ 1007c280 f i libucrtd:wsetlocale.obj
 0001:0007b2a0       ??B?$__crt_unique_heap_ptr@U__crt_locale_pointers@@U__crt_internal_free_policy@@@@QBE_NXZ 1007c2a0 f i libucrtd:wsetlocale.obj
 0001:0007b2c0       ??B?$__crt_unique_heap_ptr@U__crt_multibyte_data@@U__crt_internal_free_policy@@@@QBE_NXZ 1007c2c0 f i libucrtd:wsetlocale.obj
 0001:0007b6a0       ?commit_locale_name@_expandlocale_locale_name_cache@@QAEXQB_WI@Z 1007c6a0 f i libucrtd:wsetlocale.obj
 0001:0007b700       ?commit_locale_name_cache_already_updated@_expandlocale_locale_name_cache@@QAEXQB_WI@Z 1007c700 f i libucrtd:wsetlocale.obj
 0001:0007b760       ?detach@?$__crt_unique_heap_ptr@U__crt_locale_data@@U__crt_internal_free_policy@@@@QAEPAU__crt_locale_data@@XZ 1007c760 f i libucrtd:wsetlocale.obj
 0001:0007b790       ?detach@?$__crt_unique_heap_ptr@U__crt_locale_pointers@@U__crt_internal_free_policy@@@@QAEPAU__crt_locale_pointers@@XZ 1007c790 f i libucrtd:wsetlocale.obj
 0001:0007b7c0       ?detach@?$__crt_unique_heap_ptr@U__crt_multibyte_data@@U__crt_internal_free_policy@@@@QAEPAU__crt_multibyte_data@@XZ 1007c7c0 f i libucrtd:wsetlocale.obj
 0001:0007b7f0       ?get@?$__crt_unique_heap_ptr@U__crt_locale_data@@U__crt_internal_free_policy@@@@QBEPAU__crt_locale_data@@XZ 1007c7f0 f i libucrtd:wsetlocale.obj
 0001:0007b810       ?get@?$__crt_unique_heap_ptr@U__crt_locale_pointers@@U__crt_internal_free_policy@@@@QBEPAU__crt_locale_pointers@@XZ 1007c810 f i libucrtd:wsetlocale.obj
 0001:0007b830       ?get@?$__crt_unique_heap_ptr@U__crt_multibyte_data@@U__crt_internal_free_policy@@@@QBEPAU__crt_multibyte_data@@XZ 1007c830 f i libucrtd:wsetlocale.obj
 0001:0007b850       ?is_valid@?$__crt_unique_heap_ptr@U__crt_locale_data@@U__crt_internal_free_policy@@@@QBE_NXZ 1007c850 f i libucrtd:wsetlocale.obj
 0001:0007b880       ?is_valid@?$__crt_unique_heap_ptr@U__crt_locale_pointers@@U__crt_internal_free_policy@@@@QBE_NXZ 1007c880 f i libucrtd:wsetlocale.obj
 0001:0007b8b0       ?is_valid@?$__crt_unique_heap_ptr@U__crt_multibyte_data@@U__crt_internal_free_policy@@@@QBE_NXZ 1007c8b0 f i libucrtd:wsetlocale.obj
 0001:0007b8e0       ?release@?$__crt_unique_heap_ptr@U__crt_locale_data@@U__crt_internal_free_policy@@@@QAEXXZ 1007c8e0 f i libucrtd:wsetlocale.obj
 0001:0007b910       ?release@?$__crt_unique_heap_ptr@U__crt_locale_pointers@@U__crt_internal_free_policy@@@@QAEXXZ 1007c910 f i libucrtd:wsetlocale.obj
 0001:0007b940       ?release@?$__crt_unique_heap_ptr@U__crt_multibyte_data@@U__crt_internal_free_policy@@@@QAEXXZ 1007c940 f i libucrtd:wsetlocale.obj
 0001:0007b970       ___acrt_copy_locale_name   1007c970 f   libucrtd:wsetlocale.obj
 0001:0007ba10       ___acrt_set_locale_changed 1007ca10 f   libucrtd:wsetlocale.obj
 0001:0007ba30       ___acrt_uninitialize_locale 1007ca30 f   libucrtd:wsetlocale.obj
 0001:0007ba50       ___ascii_tolower           1007ca50 f i libucrtd:wsetlocale.obj
 0001:0007ba70       ___ascii_towlower          1007ca70 f i libucrtd:wsetlocale.obj
 0001:0007ba90       ___lc_lctowcs              1007ca90 f   libucrtd:wsetlocale.obj
 0001:0007bb40       ___lc_wcstolc              1007cb40 f   libucrtd:wsetlocale.obj
 0001:0007bd70       __configthreadlocale       1007cd70 f   libucrtd:wsetlocale.obj
 0001:0007bef0       __create_locale            1007cef0 f   libucrtd:wsetlocale.obj
 0001:0007c530       __free_locale              1007d530 f   libucrtd:wsetlocale.obj
 0001:0007c660       __get_current_locale       1007d660 f   libucrtd:wsetlocale.obj
 0001:0007c730       __wcreate_locale           1007d730 f   libucrtd:wsetlocale.obj
 0001:0007c970       __wcscats                  1007d970 f   libucrtd:wsetlocale.obj
 0001:0007c9f0       __wsetlocale               1007d9f0 f   libucrtd:wsetlocale.obj
 0001:0007e0e0       ___p___mb_cur_max          1007f0e0 f   libucrtd:nlsdata.obj
 0001:0007e3e0       ___acrt_initialize_lowio   1007f3e0 f   libucrtd:ioinit.obj
 0001:0007e480       ___acrt_uninitialize_lowio 1007f480 f   libucrtd:ioinit.obj
 0001:0007e4e0       __CrtGetReportHook         1007f4e0 f   libucrtd:dbgrptt.obj
 0001:0007e4f0       __CrtSetReportFile         1007f4f0 f   libucrtd:dbgrptt.obj
 0001:0007e5f0       __CrtSetReportHook         1007f5f0 f   libucrtd:dbgrptt.obj
 0001:0007e610       __CrtSetReportMode         1007f610 f   libucrtd:dbgrptt.obj
 0001:0007e750       __VCrtDbgReportA           1007f750 f   libucrtd:dbgrptt.obj
 0001:0007efd0       __VCrtDbgReportW           1007ffd0 f   libucrtd:dbgrptt.obj
 0001:0007f980       __snprintf_s               10080980 f i libucrtd:dbgrptt.obj
 0001:0007f9c0       __vsnprintf_s              100809c0 f i libucrtd:dbgrptt.obj
 0001:0007f9f0       __vsnprintf_s_l            100809f0 f i libucrtd:dbgrptt.obj
 0001:0007fb80       ??$__acrt_wcs_to_mbs_cp@U__crt_win32_buffer_no_resizing@@@@YAHQB_WAAV?$__crt_win32_buffer@DU__crt_win32_buffer_no_resizing@@@@I@Z 10080b80 f i libucrtd:getmodulefilenamea.obj
 0001:0007fbb0       ??0?$__crt_win32_buffer@DU__crt_win32_buffer_no_resizing@@@@QAE@QADI@Z 10080bb0 f i libucrtd:getmodulefilenamea.obj
 0001:0007fc00       ??1?$__crt_win32_buffer@DU__crt_win32_buffer_no_resizing@@@@QAE@XZ 10080c00 f i libucrtd:getmodulefilenamea.obj
 0001:0007fc70       ?__acrt_get_utf8_acp_compatibility_codepage@@YAIXZ 10080c70 f i libucrtd:getmodulefilenamea.obj
 0001:0007fd00       ?_deallocate@?$__crt_win32_buffer@DU__crt_win32_buffer_no_resizing@@@@AAEXXZ 10080d00 f i libucrtd:getmodulefilenamea.obj
 0001:0007fd40       ?allocate@?$__crt_win32_buffer@DU__crt_win32_buffer_no_resizing@@@@QAEHI@Z 10080d40 f i libucrtd:getmodulefilenamea.obj
 0001:0007fdb0       ?allocate@__crt_win32_buffer_no_resizing@@SAHQAPAXIABV__crt_win32_buffer_empty_debug_info@@@Z 10080db0 f i libucrtd:getmodulefilenamea.obj
 0001:0007fdd0       ?capacity@?$__crt_win32_buffer@DU__crt_win32_buffer_no_resizing@@@@QBEIXZ 10080dd0 f i libucrtd:getmodulefilenamea.obj
 0001:0007fdf0       ?data@?$__crt_win32_buffer@DU__crt_win32_buffer_no_resizing@@@@QAEPADXZ 10080df0 f i libucrtd:getmodulefilenamea.obj
 0001:0007fe10       ?deallocate@__crt_win32_buffer_no_resizing@@SAXQAXABV__crt_win32_buffer_empty_debug_info@@@Z 10080e10 f i libucrtd:getmodulefilenamea.obj
 0001:0007fe20       ?debug_info@?$__crt_win32_buffer@DU__crt_win32_buffer_no_resizing@@@@QBEABV__crt_win32_buffer_empty_debug_info@@XZ 10080e20 f i libucrtd:getmodulefilenamea.obj
 0001:0007fe30       ?set_to_nullptr@?$__crt_win32_buffer@DU__crt_win32_buffer_no_resizing@@@@QAEXXZ 10080e30 f i libucrtd:getmodulefilenamea.obj
 0001:0007fe70       ?size@?$__crt_win32_buffer@DU__crt_win32_buffer_no_resizing@@@@QAEXI@Z 10080e70 f i libucrtd:getmodulefilenamea.obj
 0001:0007fe90       ?size@?$__crt_win32_buffer@DU__crt_win32_buffer_no_resizing@@@@QBEIXZ 10080e90 f i libucrtd:getmodulefilenamea.obj
 0001:0007feb0       ___acrt_GetModuleFileNameA 10080eb0 f   libucrtd:getmodulefilenamea.obj
 0001:00080190       ??$message_box@$$TABQBDABQBDK@?$__crt_char_traits@D@@SAH$$QA$$TABQBD1$$QAK@Z 10081190 f i libucrtd:crtmbox.obj
 0001:000801c0       ??$message_box@$$TABQB_WABQB_WK@?$__crt_char_traits@_W@@SAH$$QA$$TABQB_W1$$QAK@Z 100811c0 f i libucrtd:crtmbox.obj
 0001:000801f0       ??$message_box@PAUHWND__@@ABQBDABQBDABI@?$__crt_char_traits@D@@SAH$$QAPAUHWND__@@ABQBD1ABI@Z 100811f0 f i libucrtd:crtmbox.obj
 0001:00080220       ??$message_box@PAUHWND__@@ABQB_WABQB_WABI@?$__crt_char_traits@_W@@SAH$$QAPAUHWND__@@ABQB_W1ABI@Z 10081220 f i libucrtd:crtmbox.obj
 0001:00080250       ??$output_debug_string@ABQBD@?$__crt_char_traits@D@@SAXABQBD@Z 10081250 f i libucrtd:crtmbox.obj
 0001:00080270       ??$output_debug_string@ABQB_W@?$__crt_char_traits@_W@@SAXABQB_W@Z 10081270 f i libucrtd:crtmbox.obj
 0001:00080290       ___acrt_show_narrow_message_box 10081290 f   libucrtd:crtmbox.obj
 0001:000802b0       ___acrt_show_wide_message_box 100812b0 f   libucrtd:crtmbox.obj
 0001:000802d0       ___acrt_initialize_locks   100812d0 f   libucrtd:locks.obj
 0001:00080330       ___acrt_lock               10081330 f   libucrtd:locks.obj
 0001:00080350       ___acrt_uninitialize_locks 10081350 f   libucrtd:locks.obj
 0001:000803a0       ___acrt_unlock             100813a0 f   libucrtd:locks.obj
 0001:000803c0       __lock_locales             100813c0 f   libucrtd:locks.obj
 0001:000803e0       __unlock_locales           100813e0 f   libucrtd:locks.obj
 0001:00080400       ??$?B$$A6AXH@Z@__crt_fast_encoded_nullptr_t@@QBEP6AXH@ZXZ 10081400 f i libucrtd:signal.obj
 0001:000804f0       ??$__crt_fast_decode_pointer@P6AXH@Z@@YAP6AXH@ZQ6AXH@Z@Z 100814f0 f i libucrtd:signal.obj
 0001:00080520       ??$__crt_fast_encode_pointer@P6AXH@Z@@YAP6AXH@ZQ6AXH@Z@Z 10081520 f i libucrtd:signal.obj
 0001:000807d0       ?initialize@?$dual_state_global@P6AXH@Z@__crt_state_management@@QAEXQ6AXH@Z@Z 100817d0 f i libucrtd:signal.obj
 0001:00080910       ?value@?$dual_state_global@P6AXH@Z@__crt_state_management@@QAEAAP6AXH@ZXZ 10081910 f i libucrtd:signal.obj
 0001:00080930       ___acrt_get_sigabrt_handler 10081930 f   libucrtd:signal.obj
 0001:00080950       ___acrt_initialize_signal_handlers 10081950 f   libucrtd:signal.obj
 0001:00080990       ___fpecode                 10081990 f   libucrtd:signal.obj
 0001:000809a0       ___pxcptinfoptrs           100819a0 f   libucrtd:signal.obj
 0001:000809b0       _raise                     100819b0 f   libucrtd:signal.obj
 0001:00080d80       _signal                    10081d80 f   libucrtd:signal.obj
 0001:00081000       __msize                    10082000 f   libucrtd:msize.obj
 0001:00081020       __msize_base               10082020 f   libucrtd:msize.obj
 0001:000810c0       __realloc_base             100820c0 f   libucrtd:realloc_base.obj
 0001:00081180       ??$?B$$A6GHPA_WKJ@Z@__crt_fast_encoded_nullptr_t@@QBEP6GHPA_WKJ@ZXZ 10082180 f i libucrtd:winapi_thunks.obj
 0001:00081270       ??$__crt_fast_decode_pointer@P6GHPA_WKJ@Z@@YAP6GHPA_WKJ@ZQ6GH0KJ@Z@Z 10082270 f i libucrtd:winapi_thunks.obj
 0001:000812a0       ??$__crt_fast_decode_pointer@PAX@@YAPAXQAX@Z 100822a0 f i libucrtd:winapi_thunks.obj
 0001:000812d0       ??$__crt_fast_encode_pointer@P6GHPA_WKJ@Z@@YAP6GHPA_WKJ@ZQ6GH0KJ@Z@Z 100822d0 f i libucrtd:winapi_thunks.obj
 0001:00081c30       _GetCurrentThreadEffectiveToken 10082c30 f i libucrtd:winapi_thunks.obj
 0001:00081c40       ___acrt_AppPolicyGetProcessTerminationMethodInternal@4 10082c40 f   libucrtd:winapi_thunks.obj
 0001:00081c80       ___acrt_AppPolicyGetShowDeveloperDiagnosticInternal@4 10082c80 f   libucrtd:winapi_thunks.obj
 0001:00081cc0       ___acrt_AppPolicyGetThreadInitializationTypeInternal@4 10082cc0 f   libucrtd:winapi_thunks.obj
 0001:00081d00       ___acrt_AppPolicyGetWindowingModelInternal@4 10082d00 f   libucrtd:winapi_thunks.obj
 0001:00081d40       ___acrt_AreFileApisANSI@0  10082d40 f   libucrtd:winapi_thunks.obj
 0001:00081d80       ___acrt_CompareStringEx@36 10082d80 f   libucrtd:winapi_thunks.obj
 0001:00081e00       ___acrt_EnumSystemLocalesEx@16 10082e00 f   libucrtd:winapi_thunks.obj
 0001:00081e60       ___acrt_FlsAlloc@4         10082e60 f   libucrtd:winapi_thunks.obj
 0001:00081ea0       ___acrt_FlsFree@4          10082ea0 f   libucrtd:winapi_thunks.obj
 0001:00081ee0       ___acrt_FlsGetValue@4      10082ee0 f   libucrtd:winapi_thunks.obj
 0001:00081f20       ___acrt_FlsSetValue@8      10082f20 f   libucrtd:winapi_thunks.obj
 0001:00081f70       ___acrt_GetDateFormatEx@28 10082f70 f   libucrtd:winapi_thunks.obj
 0001:00081ff0       ___acrt_GetEnabledXStateFeatures@0 10082ff0 f   libucrtd:winapi_thunks.obj
 0001:00082030       ___acrt_GetLocaleInfoEx@16 10083030 f   libucrtd:winapi_thunks.obj
 0001:00082090       ___acrt_GetSystemTimePreciseAsFileTime@4 10083090 f   libucrtd:winapi_thunks.obj
 0001:000820d0       ___acrt_GetTimeFormatEx@24 100830d0 f   libucrtd:winapi_thunks.obj
 0001:00082140       ___acrt_GetUserDefaultLocaleName@8 10083140 f   libucrtd:winapi_thunks.obj
 0001:00082190       ___acrt_GetXStateFeaturesMask@8 10083190 f   libucrtd:winapi_thunks.obj
 0001:000821d0       ___acrt_InitializeCriticalSectionEx@12 100831d0 f   libucrtd:winapi_thunks.obj
 0001:00082220       ___acrt_IsValidLocaleName@4 10083220 f   libucrtd:winapi_thunks.obj
 0001:00082270       ___acrt_LCIDToLocaleName@16 10083270 f   libucrtd:winapi_thunks.obj
 0001:000822d0       ___acrt_LCMapStringEx@36   100832d0 f   libucrtd:winapi_thunks.obj
 0001:00082350       ___acrt_LocaleNameToLCID@8 10083350 f   libucrtd:winapi_thunks.obj
 0001:000823a0       ___acrt_LocateXStateFeature@12 100833a0 f   libucrtd:winapi_thunks.obj
 0001:000823f0       ___acrt_MessageBoxA@16     100833f0 f   libucrtd:winapi_thunks.obj
 0001:00082440       ___acrt_MessageBoxW@16     10083440 f   libucrtd:winapi_thunks.obj
 0001:00082490       ___acrt_RoInitialize@4     10083490 f   libucrtd:winapi_thunks.obj
 0001:000824d0       ___acrt_RoUninitialize@0   100834d0 f   libucrtd:winapi_thunks.obj
 0001:00082500       ___acrt_RtlGenRandom@8     10083500 f   libucrtd:winapi_thunks.obj
 0001:00082540       ___acrt_SetThreadStackGuarantee@4 10083540 f   libucrtd:winapi_thunks.obj
 0001:00082580       ___acrt_can_show_message_box 10083580 f   libucrtd:winapi_thunks.obj
 0001:000825c0       ___acrt_can_use_vista_locale_apis 100835c0 f   libucrtd:winapi_thunks.obj
 0001:000825f0       ___acrt_can_use_xstate_apis 100835f0 f   libucrtd:winapi_thunks.obj
 0001:00082620       ___acrt_eagerly_load_locale_apis 10083620 f   libucrtd:winapi_thunks.obj
 0001:00082660       ___acrt_get_parent_window  10083660 f   libucrtd:winapi_thunks.obj
 0001:000826d0       ___acrt_initialize_winapi_thunks 100836d0 f   libucrtd:winapi_thunks.obj
 0001:00082740       ___acrt_is_interactive     10083740 f   libucrtd:winapi_thunks.obj
 0001:000827f0       ___acrt_uninitialize_winapi_thunks 100837f0 f   libucrtd:winapi_thunks.obj
 0001:00082860       __chvalidator              10083860 f   libucrtd:isctype.obj
 0001:000828b0       __chvalidator_l            100838b0 f   libucrtd:isctype.obj
 0001:00082930       __isctype                  10083930 f   libucrtd:isctype.obj
 0001:00082970       __isctype_l                10083970 f   libucrtd:isctype.obj
 0001:00082af0       __isleadbyte_fast_internal 10083af0 f i libucrtd:isctype.obj
 0001:00082b10       ??$?RU__crt_stdio_stream_data@@@__crt_internal_free_policy@@QBEXQBU__crt_stdio_stream_data@@@Z 10083b10 f i libucrtd:stream.obj
 0001:00082b30       ??0?$__crt_unique_heap_ptr@U__crt_stdio_stream_data@@U__crt_internal_free_policy@@@@QAE@QAU__crt_stdio_stream_data@@@Z 10083b30 f i libucrtd:stream.obj
 0001:00082b50       ??0__crt_stdio_stream@@QAE@QAU__crt_stdio_stream_data@@@Z 10083b50 f i libucrtd:stream.obj
 0001:00082b70       ??0__crt_stdio_stream@@QAE@XZ 10083b70 f i libucrtd:stream.obj
 0001:00082b90       ??1?$__crt_unique_heap_ptr@U__crt_stdio_stream_data@@U__crt_internal_free_policy@@@@QAE@XZ 10083b90 f i libucrtd:stream.obj
 0001:00082bb0       ?__acrt_stdio_allocate_stream@@YA?AV__crt_stdio_stream@@XZ 10083bb0 f   libucrtd:stream.obj
 0001:00082ca0       ?__acrt_stdio_free_stream@@YAXV__crt_stdio_stream@@@Z 10083ca0 f   libucrtd:stream.obj
 0001:00082d20       ?deallocate@__crt_stdio_stream@@QAEXXZ 10083d20 f i libucrtd:stream.obj
 0001:00082d40       ?detach@?$__crt_unique_heap_ptr@U__crt_stdio_stream_data@@U__crt_internal_free_policy@@@@QAEPAU__crt_stdio_stream_data@@XZ 10083d40 f i libucrtd:stream.obj
 0001:00082eb0       ?lock@__crt_stdio_stream@@QBEXXZ 10083eb0 f i libucrtd:stream.obj
 0001:00082ed0       ?release@?$__crt_unique_heap_ptr@U__crt_stdio_stream_data@@U__crt_internal_free_policy@@@@QAEXXZ 10083ed0 f i libucrtd:stream.obj
 0001:00082f00       ?try_allocate@__crt_stdio_stream@@QAE_NXZ 10083f00 f i libucrtd:stream.obj
 0001:00082f50       ??$__acrt_stdio_parse_mode@D@@YA?AU__acrt_stdio_stream_mode@@QBD@Z 10083f50 f i libucrtd:openfile.obj
 0001:000837c0       ??$__acrt_stdio_parse_mode@_W@@YA?AU__acrt_stdio_stream_mode@@QB_W@Z 100847c0 f i libucrtd:openfile.obj
 0001:00084350       ??$tcsncmp@AAPBDAAY02$$CBDI@?$__crt_char_traits@D@@SAHAAPBDAAY02$$CBD$$QAI@Z 10085350 f i libucrtd:openfile.obj
 0001:00084370       ??$tcsncmp@AAPB_WAAY02$$CB_WI@?$__crt_char_traits@_W@@SAHAAPB_WAAY02$$CB_W$$QAI@Z 10085370 f i libucrtd:openfile.obj
 0001:00084390       ??$tcsnicmp@AAPBDAAY04$$CBDI@?$__crt_char_traits@D@@SAHAAPBDAAY04$$CBD$$QAI@Z 10085390 f i libucrtd:openfile.obj
 0001:000843b0       ??$tcsnicmp@AAPBDAAY06$$CBDI@?$__crt_char_traits@D@@SAHAAPBDAAY06$$CBD$$QAI@Z 100853b0 f i libucrtd:openfile.obj
 0001:000843d0       ??$tcsnicmp@AAPBDAAY07$$CBDI@?$__crt_char_traits@D@@SAHAAPBDAAY07$$CBD$$QAI@Z 100853d0 f i libucrtd:openfile.obj
 0001:000843f0       ??$tcsnicmp@AAPB_WAAY04$$CB_WI@?$__crt_char_traits@_W@@SAHAAPB_WAAY04$$CB_W$$QAI@Z 100853f0 f i libucrtd:openfile.obj
 0001:00084410       ??$tcsnicmp@AAPB_WAAY06$$CB_WI@?$__crt_char_traits@_W@@SAHAAPB_WAAY06$$CB_W$$QAI@Z 10085410 f i libucrtd:openfile.obj
 0001:00084430       ??$tcsnicmp@AAPB_WAAY07$$CB_WI@?$__crt_char_traits@_W@@SAHAAPB_WAAY07$$CB_W$$QAI@Z 10085430 f i libucrtd:openfile.obj
 0001:00084450       ??$tsopen_s@PAHABQBDABHABHH@?$__crt_char_traits@D@@SAH$$QAPAHABQBDABH2$$QAH@Z 10085450 f i libucrtd:openfile.obj
 0001:00084480       ??$tsopen_s@PAHABQB_WABHABHH@?$__crt_char_traits@_W@@SAH$$QAPAHABQB_WABH2$$QAH@Z 10085480 f i libucrtd:openfile.obj
 0001:000844b0       ?__acrt_stdio_parse_mode_D@@YA_NAAU__acrt_stdio_stream_mode@@@Z 100854b0 f i libucrtd:openfile.obj
 0001:000844e0       ?__acrt_stdio_parse_mode_N@@YA_NAAU__acrt_stdio_stream_mode@@@Z 100854e0 f i libucrtd:openfile.obj
 0001:00084500       ?__acrt_stdio_parse_mode_R@@YA_NAAU__acrt_stdio_stream_mode@@AA_N@Z 10085500 f i libucrtd:openfile.obj
 0001:00084530       ?__acrt_stdio_parse_mode_S@@YA_NAAU__acrt_stdio_stream_mode@@AA_N@Z 10085530 f i libucrtd:openfile.obj
 0001:00084560       ?__acrt_stdio_parse_mode_T@@YA_NAAU__acrt_stdio_stream_mode@@@Z 10085560 f i libucrtd:openfile.obj
 0001:00084590       ?__acrt_stdio_parse_mode_b@@YA_NAAU__acrt_stdio_stream_mode@@@Z 10085590 f i libucrtd:openfile.obj
 0001:000845c0       ?__acrt_stdio_parse_mode_c@@YA_NAAU__acrt_stdio_stream_mode@@AA_N@Z 100855c0 f i libucrtd:openfile.obj
