 OPOSTotals

 Timestamp is 600f7b0a (Tue Jan 26 11:14:34 2021)

 Preferred load address is 10000000

 Start         Length     Name                   Class
 0001:00000000 00000d90H .text$di                CODE
 0001:00000d90 000a9950H .text$mn                CODE
 0001:000aa6e0 000001c0H .text$x                 CODE
 0001:000aa8a0 00000120H .text$yd                CODE
 0002:00000000 00000358H .idata$5                DATA
 0002:00000358 00000008H .00cfg                  DATA
 0002:00000360 00000004H .CRT$XCA                DATA
 0002:00000364 00000004H .CRT$XCL                DATA
 0002:00000368 0000006cH .CRT$XCU                DATA
 0002:000003d4 00000004H .CRT$XCZ                DATA
 0002:000003d8 00000004H .CRT$XIA                DATA
 0002:000003dc 00000014H .CRT$XIC                DATA
 0002:000003f0 00000004H .CRT$XIZ                DATA
 0002:000003f4 00000004H .CRT$XLA                DATA
 0002:000003f8 00000004H .CRT$XLZ                DATA
 0002:000003fc 00000004H .CRT$XPA                DATA
 0002:00000400 00000008H .CRT$XPX                DATA
 0002:00000408 00000004H .CRT$XPXA               DATA
 0002:0000040c 00000004H .CRT$XPZ                DATA
 0002:00000410 00000004H .CRT$XTA                DATA
 0002:00000414 0000000cH .CRT$XTZ                DATA
 0002:00000418 00000000H .gfids$y                DATA
 0002:00000420 0002fca0H .rdata                  DATA
 0002:000300c0 00000004H .rdata$CastGuardVftablesA DATA
 0002:000300c4 00000004H .rdata$CastGuardVftablesC DATA
 0002:000300c8 00000018H .rdata$T                DATA
 0002:000300e0 0000033cH .rdata$r                DATA
 0002:0003041c 00000044H .rdata$sxdata           DATA
 0002:00030460 00000448H .rdata$zzzdbg           DATA
 0002:000308a8 00000004H .rtc$IAA                DATA
 0002:000308ac 00000018H .rtc$IMZ                DATA
 0002:000308c4 00000004H .rtc$IZZ                DATA
 0002:000308c8 00000004H .rtc$TAA                DATA
 0002:000308cc 00000018H .rtc$TMZ                DATA
 0002:000308e4 00000004H .rtc$TZZ                DATA
 0002:000308e8 00000004H .tls                    DATA
 0002:000308ec 00000004H .tls$                   DATA
 0002:000308f0 00000008H .tls$ZZZ                DATA
 0002:000308f8 00000e4cH .xdata$x                DATA
 0002:00031744 00000004H ATL$__a                 DATA
 0002:00031748 00000008H ATL$__z                 DATA
 0002:00031750 000000a8H .edata                  DATA
 0002:000317f8 00000078H .idata$2                DATA
 0002:00031870 00000014H .idata$3                DATA
 0002:00031884 00000358H .idata$4                DATA
 0002:00031bdc 00000d56H .idata$6                DATA
 0003:00000000 00000bd0H .data                   DATA
 0003:00000bd0 00000138H .data$r                 DATA
 0003:00000d08 00003588H .bss                    DATA
 0004:00000000 00000220H .rsrc$01                DATA
 0004:00000220 00004100H .rsrc$02                DATA

  Address         Publics by Value              Rva+Base       Lib:Object

 0000:00000000       ___arm64x_extra_rfe_table_size 00000000     <absolute>
 0000:00000000       ___arm64x_redirection_metadata 00000000     <absolute>
 0000:00000000       ___guard_fids_table        00000000     <absolute>
 0000:00000000       ___guard_longjmp_table     00000000     <absolute>
 0000:00000000       ___guard_iat_table         00000000     <absolute>
 0000:00000000       ___arm64x_native_entrypoint 00000000     <absolute>
 0000:00000000       ___AbsoluteZero            00000000     <absolute>
 0000:00000000       ___hybrid_code_map         00000000     <absolute>
 0000:00000000       ___guard_longjmp_count     00000000     <absolute>
 0000:00000000       ___guard_eh_cont_count     00000000     <absolute>
 0000:00000000       ___hybrid_auxiliary_iat    00000000     <absolute>
 0000:00000000       ___x64_code_ranges_to_entry_points 00000000     <absolute>
 0000:00000000       ___arm64x_extra_rfe_table  00000000     <absolute>
 0000:00000000       ___guard_iat_count         00000000     <absolute>
 0000:00000000       ___volatile_metadata       00000000     <absolute>
 0000:00000000       ___guard_fids_count        00000000     <absolute>
 0000:00000000       ___x64_code_ranges_to_entry_points_count 00000000     <absolute>
 0000:00000000       ___guard_eh_cont_table     00000000     <absolute>
 0000:00000000       ___arm64x_redirection_metadata_count 00000000     <absolute>
 0000:00000000       __except_list              00000000     <absolute>
 0000:00000000       ___dynamic_value_reloc_table 00000000     <absolute>
 0000:00000000       ___enclave_config          00000000     <absolute>
 0000:00000000       ___hybrid_code_map_count   00000000     <absolute>
 0000:00000011       ___safe_se_handler_count   00000011     <absolute>
 0000:0000002c       __tls_array                0000002c     <absolute>
 0000:00000100       ___guard_flags             00000100     <absolute>
 0000:00000000       ___ImageBase               10000000     <linker-defined>
 0001:00000d90       ?_assert@@YAXPB_W0I@Z      10001d90 f   Assert.obj
 0001:00000ec0       ___local_stdio_printf_options 10001ec0 f i Assert.obj
 0001:00000ed0       ___vswprintf_l             10001ed0 f i Assert.obj
 0001:00000f00       __swprintf                 10001f00 f i Assert.obj
 0001:00000f60       __vswprintf_c_l            10001f60 f i Assert.obj
 0001:00000fd0       __vswprintf_l              10001fd0 f i Assert.obj
 0001:00001000       ?cw_memcpy@@YGHPADPB_WH@Z  10002000 f   CWString.obj
 0001:00001060       ?cw_memcpy@@YGHPA_WPBDH@Z  10002060 f   CWString.obj
 0001:000010c0       ?cw_memcpy@@YGHPADPBDH@Z   100020c0 f   CWString.obj
 0001:00001110       ?cw_memcpy@@YGHPA_WPB_WH@Z 10002110 f   CWString.obj
 0001:00001150       ?cw_memset@@YAXPADDH@Z     10002150 f   CWString.obj
 0001:00001170       ?cw_memset@@YAXPA_W_WH@Z   10002170 f   CWString.obj
 0001:00001190       ?cw_strlen@@YAHPBD@Z       10002190 f   CWString.obj
 0001:000011e0       ?cw_strlen@@YAHPB_W@Z      100021e0 f   CWString.obj
 0001:00001230       ?cw_strcpy@@YAHPADPB_W@Z   10002230 f   CWString.obj
 0001:00001250       ?cw_strcpy@@YAHPA_WPBD@Z   10002250 f   CWString.obj
 0001:00001270       ?cw_strcpy@@YAHPADPBD@Z    10002270 f   CWString.obj
 0001:00001290       ?cw_strcpy@@YAHPA_WPB_W@Z  10002290 f   CWString.obj
 0001:000012b0       ?cw_strcat@@YAHPADPB_W@Z   100022b0 f   CWString.obj
 0001:000012e0       ?cw_strcat@@YAHPA_WPBD@Z   100022e0 f   CWString.obj
 0001:00001310       ?cw_strcat@@YAHPADPBD@Z    10002310 f   CWString.obj
 0001:00001340       ?cw_strcat@@YAHPA_WPB_W@Z  10002340 f   CWString.obj
 0001:00001370       ?cw_dup@@YGXPBDAAHAAPA_W1@Z 10002370 f   CWString.obj
 0001:00001430       ?cw_dup@@YGXPB_WAAHAAPAD1@Z 10002430 f   CWString.obj
 0001:000014e0       ?DupChar@_CW@@AAEXXZ       100024e0 f   CWString.obj
 0001:00001530       ?DupWide@_CW@@AAEXXZ       10002530 f   CWString.obj
 0001:00001580       ?GetCharsMbcs@_CW@@QAEHXZ  10002580 f   CWString.obj
 0001:000015e0       ?GetCharsWide@_CW@@QAEHXZ  100025e0 f   CWString.obj
 0001:00001640       ?SetVARIANT_BOOL@OposVariant@@QAEXF@Z 10002640 f   OposVariant.obj
 0001:000016a0       ?SetVARIANT_BOOL_Ptr@OposVariant@@QAEXPAFAAJ@Z 100026a0 f   OposVariant.obj
 0001:000016f0       ?GetLONG@OposVariant@@QAEJXZ 100026f0 f   OposVariant.obj
 0001:00001780       ?ChangeLONG@OposVariant@@QAEXPAJAAJ@Z 10002780 f   OposVariant.obj
 0001:00001840       ?SetLONG@OposVariant@@QAEXJ@Z 10002840 f   OposVariant.obj
 0001:00001880       ?SetLONG_Ptr@OposVariant@@QAEXPAJAAJ@Z 10002880 f   OposVariant.obj
 0001:000018d0       ?ChangeCURRENCY@OposVariant@@QAEXPATtagCY@@AAJ@Z 100028d0 f   OposVariant.obj
 0001:00001990       ?SetCURRENCY@OposVariant@@QAEXTtagCY@@@Z 10002990 f   OposVariant.obj
 0001:000019d0       ?SetCURRENCY_Ptr@OposVariant@@QAEXPATtagCY@@AAJ@Z 100029d0 f   OposVariant.obj
 0001:00001a20       ?ChangeBSTR@OposVariant@@QAEXPAPA_WAAJ@Z 10002a20 f   OposVariant.obj
 0001:00001ae0       ?SetBSTR@OposVariant@@QAEXPA_WAAJ@Z 10002ae0 f   OposVariant.obj
 0001:00001b30       ?SetBSTR_Copy@OposVariant@@QAEXPA_WAAJ@Z 10002b30 f   OposVariant.obj
 0001:00001bd0       ?SetBSTR_OutPtr@OposVariant@@QAE_NPAPA_WAAJ@Z 10002bd0 f   OposVariant.obj
 0001:00001c20       ?SetBSTR_InOutPtr@OposVariant@@QAE_NPAPA_WAAJ@Z 10002c20 f   OposVariant.obj
 0001:00001c70       ?SetVARIANT@OposVariant@@QAEXAAUtagVARIANT@@GAAJ@Z 10002c70 f   OposVariant.obj
 0001:00001cf0       ?SetVARIANT_Ptr@OposVariant@@QAEXAAPAUtagVARIANT@@GAAJ@Z 10002cf0 f   OposVariant.obj
 0001:00001d90       ?SetString@OposVariant@@QAEXPB_WAAJ@Z 10002d90 f   OposVariant.obj
 0001:00001e20       ?SetDispatch_Ptr@OposVariant@@QAEXPAUIDispatch@@AAJ@Z 10002e20 f   OposVariant.obj
 0001:00001e90       ??0OposDispParms@@QAE@PAVOposVariant@@H@Z 10002e90 f   OposVariant.obj
 0001:00001f60       ??1OposDispParms@@QAE@XZ   10002f60 f   OposVariant.obj
 0001:00001fb0       ??$AtlMultiply@I@ATL@@YAJPAIII@Z 10002fb0 f i OposVariant.obj
 0001:00002010       ??0?$CHeapPtr@_WVCCRTAllocator@ATL@@@ATL@@QAE@XZ 10003010 f i OposVariant.obj
 0001:00002040       ??0?$CHeapPtrBase@_WVCCRTAllocator@ATL@@@ATL@@IAE@XZ 10003040 f i OposVariant.obj
 0001:00002060       ??0?$CSimpleArray@GV?$CSimpleArrayEqualHelper@G@ATL@@@ATL@@QAE@XZ 10003060 f i OposVariant.obj
 0001:000020a0       ??0?$CTraceCategoryEx@$00$0A@@ATL@@QAE@PB_W@Z 100030a0 f i OposVariant.obj
 0001:000020d0       ??0?$CTraceCategoryEx@$01$0A@@ATL@@QAE@PB_W@Z 100030d0 f i OposVariant.obj
 0001:00002100       ??0?$CTraceCategoryEx@$03$0A@@ATL@@QAE@PB_W@Z 10003100 f i OposVariant.obj
 0001:00002130       ??0?$CTraceCategoryEx@$07$0A@@ATL@@QAE@PB_W@Z 10003130 f i OposVariant.obj
 0001:00002160       ??0?$CTraceCategoryEx@$0BA@$0A@@ATL@@QAE@PB_W@Z 10003160 f i OposVariant.obj
 0001:00002190       ??0?$CTraceCategoryEx@$0BAA@$0A@@ATL@@QAE@PB_W@Z 10003190 f i OposVariant.obj
 0001:000021d0       ??0?$CTraceCategoryEx@$0BAAA@$0A@@ATL@@QAE@PB_W@Z 100031d0 f i OposVariant.obj
 0001:00002210       ??0?$CTraceCategoryEx@$0BAAAA@$0A@@ATL@@QAE@PB_W@Z 10003210 f i OposVariant.obj
 0001:00002250       ??0?$CTraceCategoryEx@$0BAAAAA@$0A@@ATL@@QAE@PB_W@Z 10003250 f i OposVariant.obj
 0001:00002290       ??0?$CTraceCategoryEx@$0CA@$0A@@ATL@@QAE@PB_W@Z 10003290 f i OposVariant.obj
 0001:000022c0       ??0?$CTraceCategoryEx@$0CAA@$0A@@ATL@@QAE@PB_W@Z 100032c0 f i OposVariant.obj
 0001:00002300       ??0?$CTraceCategoryEx@$0CAAA@$0A@@ATL@@QAE@PB_W@Z 10003300 f i OposVariant.obj
 0001:00002340       ??0?$CTraceCategoryEx@$0CAAAA@$0A@@ATL@@QAE@PB_W@Z 10003340 f i OposVariant.obj
 0001:00002380       ??0?$CTraceCategoryEx@$0CAAAAA@$0A@@ATL@@QAE@PB_W@Z 10003380 f i OposVariant.obj
 0001:000023c0       ??0?$CTraceCategoryEx@$0EA@$0A@@ATL@@QAE@PB_W@Z 100033c0 f i OposVariant.obj
 0001:000023f0       ??0?$CTraceCategoryEx@$0EAA@$0A@@ATL@@QAE@PB_W@Z 100033f0 f i OposVariant.obj
 0001:00002430       ??0?$CTraceCategoryEx@$0EAAA@$0A@@ATL@@QAE@PB_W@Z 10003430 f i OposVariant.obj
 0001:00002470       ??0?$CTraceCategoryEx@$0EAAAA@$0A@@ATL@@QAE@PB_W@Z 10003470 f i OposVariant.obj
 0001:000024b0       ??0?$CTraceCategoryEx@$0EAAAAA@$0A@@ATL@@QAE@PB_W@Z 100034b0 f i OposVariant.obj
 0001:000024f0       ??0?$CTraceCategoryEx@$0IA@$0A@@ATL@@QAE@PB_W@Z 100034f0 f i OposVariant.obj
 0001:00002530       ??0?$CTraceCategoryEx@$0IAA@$0A@@ATL@@QAE@PB_W@Z 10003530 f i OposVariant.obj
 0001:00002570       ??0?$CTraceCategoryEx@$0IAAA@$0A@@ATL@@QAE@PB_W@Z 10003570 f i OposVariant.obj
 0001:000025b0       ??0?$CTraceCategoryEx@$0IAAAA@$0A@@ATL@@QAE@PB_W@Z 100035b0 f i OposVariant.obj
 0001:000025f0       ??0CAtlComModule@ATL@@QAE@XZ 100035f0 f i OposVariant.obj
 0001:000026d0       ??0CAtlWinModule@ATL@@QAE@XZ 100036d0 f i OposVariant.obj
 0001:00002760       ??0CComCriticalSection@ATL@@QAE@XZ 10003760 f i OposVariant.obj
 0001:00002790       ??0CPreserveLastError@ATL@@QAE@XZ 10003790 f i OposVariant.obj
 0001:000027d0       ??0CTraceFileAndLineInfo@ATL@@QAE@PBDH@Z 100037d0 f i OposVariant.obj
 0001:00002800       ??0_ATL_COM_MODULE70@ATL@@QAE@XZ 10003800 f i OposVariant.obj
 0001:00002830       ??0_ATL_WIN_MODULE70@ATL@@QAE@XZ 10003830 f i OposVariant.obj
 0001:00002870       ??1?$CHeapPtr@_WVCCRTAllocator@ATL@@@ATL@@QAE@XZ 10003870 f i OposVariant.obj
 0001:000028a0       ??1?$CHeapPtrBase@_WVCCRTAllocator@ATL@@@ATL@@QAE@XZ 100038a0 f i OposVariant.obj
 0001:000028d0       ??1?$CSimpleArray@GV?$CSimpleArrayEqualHelper@G@ATL@@@ATL@@QAE@XZ 100038d0 f i OposVariant.obj
 0001:00002900       ??1CAtlComModule@ATL@@QAE@XZ 10003900 f i OposVariant.obj
 0001:00002930       ??1CAtlWinModule@ATL@@QAE@XZ 10003930 f i OposVariant.obj
 0001:00002960       ??1CComBSTR@ATL@@QAE@XZ    10003960 f i OposVariant.obj
 0001:000029a0       ??1CComCriticalSection@ATL@@QAE@XZ 100039a0 f i OposVariant.obj
 0001:000029c0       ??1CPreserveLastError@ATL@@QAE@XZ 100039c0 f i OposVariant.obj
 0001:00002a00       ??1_ATL_COM_MODULE70@ATL@@QAE@XZ 10003a00 f i OposVariant.obj
 0001:00002a30       ??1_ATL_WIN_MODULE70@ATL@@QAE@XZ 10003a30 f i OposVariant.obj
 0001:00002a70       ??1stringdispid@CComTypeInfoHolder@ATL@@QAE@XZ 10003a70 f i OposVariant.obj
 0001:00002aa0       ??A?$CSimpleArray@GV?$CSimpleArrayEqualHelper@G@ATL@@@ATL@@QAEAAGH@Z 10003aa0 f i OposVariant.obj
 0001:00002b20       ??B?$CHeapPtrBase@_WVCCRTAllocator@ATL@@@ATL@@QBEPA_WXZ 10003b20 f i OposVariant.obj
 0001:00002b40       ??B?$CTraceCategoryEx@$01$0A@@ATL@@QAEIXZ 10003b40 f i OposVariant.obj
 0001:00002b60       ??B?$CTraceCategoryEx@$0CA@$0A@@ATL@@QAEIXZ 10003b60 f i OposVariant.obj
 0001:00002b80       ??RCTraceFileAndLineInfo@ATL@@QBAXHIPB_WZZ 10003b80 f i OposVariant.obj
 0001:00002c20       ??_Estringdispid@CComTypeInfoHolder@ATL@@QAEPAXI@Z 10003c20 f i OposVariant.obj
 0001:00002cb0       ??_H@YGXPAXIIP6EPAX0@Z@Z   10003cb0 f i OposVariant.obj
 0001:00002d20       ??_I@YGXPAXIIP6EX0@Z@Z     10003d20 f i OposVariant.obj
 0001:00002da0       ?Allocate@?$CHeapPtr@_WVCCRTAllocator@ATL@@@ATL@@QAE_NI@Z 10003da0 f i OposVariant.obj
 0001:00002e30       ?Allocate@CCRTAllocator@ATL@@SAPAXI@Z 10003e30 f i OposVariant.obj
 0001:00002e50       ?AllocateBytes@?$CHeapPtrBase@_WVCCRTAllocator@ATL@@@ATL@@QAE_NI@Z 10003e50 f i OposVariant.obj
 0001:00002ec0       ?AtlWinModuleInit@ATL@@YGJPAU_ATL_WIN_MODULE70@1@@Z 10003ec0 f i OposVariant.obj
 0001:00002f90       ?AtlWinModuleTerm@ATL@@YGJPAU_ATL_WIN_MODULE70@1@PAUHINSTANCE__@@@Z 10003f90 f i OposVariant.obj
 0001:00003050       ?Clear@OposVariant@@QAEJXZ 10004050 f i OposVariant.obj
 0001:00003090       ?Free@?$CHeapPtrBase@_WVCCRTAllocator@ATL@@@ATL@@QAEXXZ 10004090 f i OposVariant.obj
 0001:000030d0       ?Free@CCRTAllocator@ATL@@SAXPAX@Z 100040d0 f i OposVariant.obj
 0001:000030f0       ?GetCategoryName@CTrace@ATL@@CAPA_WI@Z 100040f0 f i OposVariant.obj
 0001:00003140       ?GetModuleInstance@CAtlBaseModule@ATL@@QAEPAUHINSTANCE__@@XZ 10004140 f i OposVariant.obj
 0001:00003160       ?GetSize@?$CSimpleArray@GV?$CSimpleArrayEqualHelper@G@ATL@@@ATL@@QBEHXZ 10004160 f i OposVariant.obj
 0001:00003180       ?Init@CComCriticalSection@ATL@@QAEJXZ 10004180 f i OposVariant.obj
 0001:000031e0       ?RegisterCategory@CTrace@ATL@@SAXPB_WI@Z 100041e0 f i OposVariant.obj
 0001:00003270       ?RemoveAll@?$CSimpleArray@GV?$CSimpleArrayEqualHelper@G@ATL@@@ATL@@QAEXXZ 10004270 f i OposVariant.obj
 0001:000032f0       ?Term@CAtlComModule@ATL@@QAEXXZ 100042f0 f i OposVariant.obj
 0001:000033b0       ?Term@CAtlWinModule@ATL@@QAEXXZ 100043b0 f i OposVariant.obj
 0001:000033e0       ?Term@CComCriticalSection@ATL@@QAEJXZ 100043e0 f i OposVariant.obj
 0001:00003420       ?TraceV@CTrace@ATL@@CAXPBDHIIPB_W@Z 10004420 f i OposVariant.obj
 0001:000036a0       ?TraceV@CTrace@ATL@@SAXPBDHIIPB_WPAD@Z 100046a0 f i OposVariant.obj
 0001:000037e0       ?_AtlInitializeCriticalSectionEx@ATL@@YAHPAU_RTL_CRITICAL_SECTION@@KK@Z 100047e0 f i OposVariant.obj
 0001:00003810       ?_AtlRaiseException@ATL@@YAXKK@Z 10004810 f i OposVariant.obj
 0001:00003840       _HRESULT_FROM_WIN32        10004840 f i OposVariant.obj
 0001:00003880       __vswprintf_s_l            10004880 f i OposVariant.obj
 0001:000038f0       _swprintf_s                100048f0 f i OposVariant.obj
 0001:00003950       ?ObjectMain@CComObjectRootBase@ATL@@SGX_N@Z 10004950 f i Totals.obj
 0001:00003960       ?GetCategoryMap@CComObjectRootBase@ATL@@SAPBU_ATL_CATMAP_ENTRY@2@XZ 10004960 f i Totals.obj
 0001:00003970       ?GetObjectDescription@?$CComCoClass@VCOPOSTotals@@$1?CLSID_OPOSTotals@@3U_GUID@@B@ATL@@SGPB_WXZ 10004970 f i Totals.obj
 0001:00003980       ?UpdateRegistry@COPOSTotals@@SGJH@Z 10004980 f i Totals.obj
 0001:000039a0       ?CreateInstance@?$CComCreator@V?$CComObjectCached@VCComClassFactory@ATL@@@ATL@@@ATL@@SGJPAXABU_GUID@@PAPAX@Z 100049a0 f i Totals.obj
 0001:00003b20       ?CreateInstance@?$CComCreator2@V?$CComCreator@V?$CComObject@VCOPOSTotals@@@ATL@@@ATL@@V?$CComCreator@V?$CComAggObject@VCOPOSTotals@@@ATL@@@2@@ATL@@SGJPAXABU_GUID@@PAPAX@Z 10004b20 f i Totals.obj
 0001:00003cd0       _DllGetClassObject@12      10004cd0 f   Totals.obj
 0001:00003d00       _DllCanUnloadNow@0         10004d00 f   Totals.obj
 0001:00003d40       _DllRegisterServer@0       10004d40 f   Totals.obj
 0001:00003d60       _DllUnregisterServer@0     10004d60 f   Totals.obj
 0001:00003ef0       _DllMain@12                10004ef0 f   Totals.obj
 0001:00003f50       ??$?2G@Wrapper@?$CSimpleArray@GV?$CSimpleArrayEqualHelper@G@ATL@@@ATL@@SAPAXIPAG@Z 10004f50 f i Totals.obj
 0001:00003f60       ??$?2PA_W@?$Wrapper@PA_W@?$CSimpleMap@PA_WPA_WVCExpansionVectorEqualHelper@ATL@@@ATL@@SAPAXIPAPA_W@Z 10004f60 f i Totals.obj
 0001:00003f70       ??$?4UITypeInfo2@@@?$CComPtr@UITypeInfo@@@ATL@@QAEPAUITypeInfo@@ABV?$CComPtr@UITypeInfo2@@@1@@Z 10004f70 f i Totals.obj
 0001:00003fd0       ??$AtlAdd@K@ATL@@YAJPAKKK@Z 10004fd0 f i Totals.obj
 0001:00004010       ??$AtlAdd@_K@ATL@@YAJPA_K_K1@Z 10005010 f i Totals.obj
 0001:00004080       ??$AtlAddThrow@K@ATL@@YAKKK@Z 10005080 f i Totals.obj
 0001:00004100       ??$AtlModuleRegisterWndClassInfoT@VAtlModuleRegisterWndClassInfoParamW@ATL@@@ATL@@YAGPAU_ATL_BASE_MODULE70@0@PAU_ATL_WIN_MODULE70@0@PAU_ATL_WNDCLASSINFOW@0@PAP6GJPAUHWND__@@IIJ@ZVAtlModuleRegisterWndClassInfoParamW@0@@Z 10005100 f i Totals.obj
 0001:00004510       ??$AtlMultiply@H@ATL@@YAJPAHHH@Z 10005510 f i Totals.obj
 0001:00004590       ??$AtlMultiply@K@ATL@@YAJPAKKK@Z 10005590 f i Totals.obj
 0001:000045f0       ??$AtlMultiplyThrow@I@ATL@@YAIII@Z 100055f0 f i Totals.obj
 0001:00004670       ??$QueryInterface@UIPersistStream@@@IUnknown@@QAGJPAPAUIPersistStream@@@Z 10005670 f i Totals.obj
 0001:000046a0       ??$QueryInterface@UITypeInfo2@@@IUnknown@@QAGJPAPAUITypeInfo2@@@Z 100056a0 f i Totals.obj
 0001:000046d0       ??0?$CAtlModuleT@VCComModule@ATL@@@ATL@@QAE@XZ 100056d0 f i Totals.obj
 0001:00004700       ??0?$CAtlSafeAllocBufferManager@VCCRTAllocator@ATL@@@_ATL_SAFE_ALLOCA_IMPL@ATL@@QAE@XZ 10005700 f i Totals.obj
 0001:00004720       ??0?$CAutoVectorPtr@_W@ATL@@QAE@XZ 10005720 f i Totals.obj
 0001:00004740       ??0?$CComAggObject@VCOPOSTotals@@@ATL@@QAE@PAX@Z 10005740 f i Totals.obj
 0001:000047b0       ??0?$CComContainedObject@VCOPOSTotals@@@ATL@@QAE@PAX@Z 100057b0 f i Totals.obj
 0001:000048c0       ??0?$CComCritSecLock@VCComCriticalSection@ATL@@@ATL@@QAE@AAVCComCriticalSection@1@_N@Z 100058c0 f i Totals.obj
 0001:00004920       ??0?$CComEnum@UIEnumConnectionPoints@@$1?_GUID_b196b285_bab4_101a_b69c_00aa00341d07@@3U__s_GUID@@BPAUIConnectionPoint@@V?$_CopyInterface@UIConnectionPoint@@@ATL@@VCComSingleThreadModel@6@@ATL@@QAE@XZ 10005920 f i Totals.obj
 0001:00004960       ??0?$CComEnum@UIEnumConnections@@$1?_GUID_b196b287_bab4_101a_b69c_00aa00341d07@@3U__s_GUID@@BUtagCONNECTDATA@@V?$_Copy@UtagCONNECTDATA@@@ATL@@VCComSingleThreadModel@6@@ATL@@QAE@XZ 10005960 f i Totals.obj
 0001:000049a0       ??0?$CComEnumImpl@UIEnumConnectionPoints@@$1?_GUID_b196b285_bab4_101a_b69c_00aa00341d07@@3U__s_GUID@@BPAUIConnectionPoint@@V?$_CopyInterface@UIConnectionPoint@@@ATL@@@ATL@@QAE@XZ 100059a0 f i Totals.obj
 0001:00004a00       ??0?$CComEnumImpl@UIEnumConnections@@$1?_GUID_b196b287_bab4_101a_b69c_00aa00341d07@@3U__s_GUID@@BUtagCONNECTDATA@@V?$_Copy@UtagCONNECTDATA@@@ATL@@@ATL@@QAE@XZ 10005a00 f i Totals.obj
 0001:00004a60       ??0?$CComObject@V?$CComEnum@UIEnumConnectionPoints@@$1?_GUID_b196b285_bab4_101a_b69c_00aa00341d07@@3U__s_GUID@@BPAUIConnectionPoint@@V?$_CopyInterface@UIConnectionPoint@@@ATL@@VCComSingleThreadModel@6@@ATL@@@ATL@@QAE@PAX@Z 10005a60 f i Totals.obj
 0001:00004ab0       ??0?$CComObject@V?$CComEnum@UIEnumConnections@@$1?_GUID_b196b287_bab4_101a_b69c_00aa00341d07@@3U__s_GUID@@BUtagCONNECTDATA@@V?$_Copy@UtagCONNECTDATA@@@ATL@@VCComSingleThreadModel@6@@ATL@@@ATL@@QAE@PAX@Z 10005ab0 f i Totals.obj
 0001:00004b00       ??0?$CComObject@VCOPOSTotals@@@ATL@@QAE@PAX@Z 10005b00 f i Totals.obj
 0001:00004c20       ??0?$CComObjectCached@VCComClassFactory@ATL@@@ATL@@QAE@PAX@Z 10005c20 f i Totals.obj
 0001:00004c60       ??0?$CComObjectRootEx@VCComMultiThreadModel@ATL@@@ATL@@QAE@XZ 10005c60 f i Totals.obj
 0001:00004ca0       ??0?$CComObjectRootEx@VCComSingleThreadModel@ATL@@@ATL@@QAE@XZ 10005ca0 f i Totals.obj
 0001:00004cd0       ??0?$CComPtr@UIAdviseSink@@@ATL@@QAE@PAUIAdviseSink@@@Z 10005cd0 f i Totals.obj
 0001:00004d00       ??0?$CComPtr@UICatRegister@@@ATL@@QAE@XZ 10005d00 f i Totals.obj
 0001:00004d30       ??0?$CComPtr@UIConnectionPoint@@@ATL@@QAE@XZ 10005d30 f i Totals.obj
 0001:00004d60       ??0?$CComPtr@UIConnectionPointContainer@@@ATL@@QAE@XZ 10005d60 f i Totals.obj
 0001:00004d90       ??0?$CComPtr@UIDataObject@@@ATL@@QAE@XZ 10005d90 f i Totals.obj
 0001:00004dc0       ??0?$CComPtr@UIDispatch@@@ATL@@QAE@XZ 10005dc0 f i Totals.obj
 0001:00004df0       ??0?$CComPtr@UIOleClientSite@@@ATL@@QAE@PAUIOleClientSite@@@Z 10005df0 f i Totals.obj
 0001:00004e20       ??0?$CComPtr@UIOleControlSite@@@ATL@@QAE@XZ 10005e20 f i Totals.obj
 0001:00004e50       ??0?$CComPtr@UIOleInPlaceActiveObject@@@ATL@@QAE@XZ 10005e50 f i Totals.obj
 0001:00004e80       ??0?$CComPtr@UIOleInPlaceFrame@@@ATL@@QAE@XZ 10005e80 f i Totals.obj
 0001:00004eb0       ??0?$CComPtr@UIOleInPlaceObject@@@ATL@@QAE@XZ 10005eb0 f i Totals.obj
 0001:00004ee0       ??0?$CComPtr@UIOleInPlaceUIWindow@@@ATL@@QAE@XZ 10005ee0 f i Totals.obj
 0001:00004f10       ??0?$CComPtr@UIOleObject@@@ATL@@QAE@XZ 10005f10 f i Totals.obj
 0001:00004f40       ??0?$CComPtr@UIPersistStream@@@ATL@@QAE@XZ 10005f40 f i Totals.obj
 0001:00004f70       ??0?$CComPtr@UIPersistStreamInit@@@ATL@@QAE@XZ 10005f70 f i Totals.obj
 0001:00004fa0       ??0?$CComPtr@UIPointerInactive@@@ATL@@QAE@XZ 10005fa0 f i Totals.obj
 0001:00004fd0       ??0?$CComPtr@UIProvideClassInfo2@@@ATL@@QAE@XZ 10005fd0 f i Totals.obj
 0001:00005000       ??0?$CComPtr@UISpecifyPropertyPages@@@ATL@@QAE@XZ 10006000 f i Totals.obj
 0001:00005030       ??0?$CComPtr@UIStream@@@ATL@@QAE@XZ 10006030 f i Totals.obj
 0001:00005060       ??0?$CComPtr@UITypeInfo2@@@ATL@@QAE@XZ 10006060 f i Totals.obj
 0001:00005090       ??0?$CComPtr@UITypeInfo@@@ATL@@QAE@ABV01@@Z 10006090 f i Totals.obj
 0001:000050c0       ??0?$CComPtr@UITypeInfo@@@ATL@@QAE@XZ 100060c0 f i Totals.obj
 0001:000050f0       ??0?$CComPtr@UITypeLib@@@ATL@@QAE@XZ 100060f0 f i Totals.obj
 0001:00005120       ??0?$CComPtr@UIUnknown@@@ATL@@QAE@ABV01@@Z 10006120 f i Totals.obj
 0001:00005150       ??0?$CComPtr@UIUnknown@@@ATL@@QAE@PAUIUnknown@@@Z 10006150 f i Totals.obj
 0001:00005180       ??0?$CComPtr@UIUnknown@@@ATL@@QAE@XZ 10006180 f i Totals.obj
 0001:000051b0       ??0?$CComPtr@UIViewObjectEx@@@ATL@@QAE@XZ 100061b0 f i Totals.obj
 0001:000051e0       ??0?$CComPtrBase@UIAdviseSink@@@ATL@@IAE@PAUIAdviseSink@@@Z 100061e0 f i Totals.obj
 0001:00005230       ??0?$CComPtrBase@UICatRegister@@@ATL@@IAE@XZ 10006230 f i Totals.obj
 0001:00005250       ??0?$CComPtrBase@UIConnectionPoint@@@ATL@@IAE@XZ 10006250 f i Totals.obj
 0001:00005270       ??0?$CComPtrBase@UIConnectionPointContainer@@@ATL@@IAE@XZ 10006270 f i Totals.obj
 0001:00005290       ??0?$CComPtrBase@UIDataObject@@@ATL@@IAE@XZ 10006290 f i Totals.obj
 0001:000052b0       ??0?$CComPtrBase@UIDispatch@@@ATL@@IAE@XZ 100062b0 f i Totals.obj
 0001:000052d0       ??0?$CComPtrBase@UIOleClientSite@@@ATL@@IAE@PAUIOleClientSite@@@Z 100062d0 f i Totals.obj
 0001:00005320       ??0?$CComPtrBase@UIOleControlSite@@@ATL@@IAE@XZ 10006320 f i Totals.obj
 0001:00005340       ??0?$CComPtrBase@UIOleInPlaceActiveObject@@@ATL@@IAE@XZ 10006340 f i Totals.obj
 0001:00005360       ??0?$CComPtrBase@UIOleInPlaceFrame@@@ATL@@IAE@XZ 10006360 f i Totals.obj
 0001:00005380       ??0?$CComPtrBase@UIOleInPlaceObject@@@ATL@@IAE@XZ 10006380 f i Totals.obj
 0001:000053a0       ??0?$CComPtrBase@UIOleInPlaceUIWindow@@@ATL@@IAE@XZ 100063a0 f i Totals.obj
 0001:000053c0       ??0?$CComPtrBase@UIOleObject@@@ATL@@IAE@XZ 100063c0 f i Totals.obj
 0001:000053e0       ??0?$CComPtrBase@UIPersistStream@@@ATL@@IAE@XZ 100063e0 f i Totals.obj
 0001:00005400       ??0?$CComPtrBase@UIPersistStreamInit@@@ATL@@IAE@XZ 10006400 f i Totals.obj
 0001:00005420       ??0?$CComPtrBase@UIPointerInactive@@@ATL@@IAE@XZ 10006420 f i Totals.obj
 0001:00005440       ??0?$CComPtrBase@UIProvideClassInfo2@@@ATL@@IAE@XZ 10006440 f i Totals.obj
 0001:00005460       ??0?$CComPtrBase@UISpecifyPropertyPages@@@ATL@@IAE@XZ 10006460 f i Totals.obj
 0001:00005480       ??0?$CComPtrBase@UIStream@@@ATL@@IAE@XZ 10006480 f i Totals.obj
 0001:000054a0       ??0?$CComPtrBase@UITypeInfo2@@@ATL@@IAE@XZ 100064a0 f i Totals.obj
 0001:000054c0       ??0?$CComPtrBase@UITypeInfo@@@ATL@@IAE@PAUITypeInfo@@@Z 100064c0 f i Totals.obj
 0001:00005510       ??0?$CComPtrBase@UITypeInfo@@@ATL@@IAE@XZ 10006510 f i Totals.obj
 0001:00005530       ??0?$CComPtrBase@UITypeLib@@@ATL@@IAE@XZ 10006530 f i Totals.obj
 0001:00005550       ??0?$CComPtrBase@UIUnknown@@@ATL@@IAE@PAUIUnknown@@@Z 10006550 f i Totals.obj
 0001:000055a0       ??0?$CComPtrBase@UIUnknown@@@ATL@@IAE@XZ 100065a0 f i Totals.obj
 0001:000055c0       ??0?$CComPtrBase@UIViewObjectEx@@@ATL@@IAE@XZ 100065c0 f i Totals.obj
 0001:000055e0       ??0?$CComQIPtr@UIOleControlSite@@$1?_GUID_b196b289_bab4_101a_b69c_00aa00341d07@@3U__s_GUID@@B@ATL@@QAE@PAUIUnknown@@@Z 100065e0 f i Totals.obj
 0001:00005640       ??0?$CComQIPtr@UIOleObject@@$1?_GUID_00000112_0000_0000_c000_000000000046@@3U__s_GUID@@B@ATL@@QAE@XZ 10006640 f i Totals.obj
 0001:00005670       ??0?$CComQIPtr@UISpecifyPropertyPages@@$1?_GUID_b196b28b_bab4_101a_b69c_00aa00341d07@@3U__s_GUID@@B@ATL@@QAE@XZ 10006670 f i Totals.obj
 0001:000056a0       ??0?$CSimpleMap@PA_WPA_WVCExpansionVectorEqualHelper@ATL@@@ATL@@QAE@XZ 100066a0 f i Totals.obj
 0001:000056e0       ??0?$CTempBuffer@E$0BAA@VCCRTAllocator@ATL@@@ATL@@QAE@XZ 100066e0 f i Totals.obj
 0001:00005700       ??0?$CTempBuffer@_W$0BAA@VCCRTAllocator@ATL@@@ATL@@QAE@XZ 10006700 f i Totals.obj
 0001:00005720       ??0?$CTempBuffer@_W$0EAA@VCCRTAllocator@ATL@@@ATL@@QAE@XZ 10006720 f i Totals.obj
 0001:00005740       ??0?$Wrapper@PA_W@?$CSimpleMap@PA_WPA_WVCExpansionVectorEqualHelper@ATL@@@ATL@@QAE@ABQA_W@Z 10006740 f i Totals.obj
 0001:00005770       ??0CAtlModule@ATL@@QAE@XZ  10006770 f i Totals.obj
 0001:00005890       ??0CComAutoDeleteCriticalSection@ATL@@QAE@XZ 10006890 f i Totals.obj
 0001:000058c0       ??0CComBSTR@ATL@@QAE@XZ    100068c0 f i Totals.obj
 0001:000058e0       ??0CComClassFactory@ATL@@QAE@XZ 100068e0 f i Totals.obj
 0001:00005920       ??0CComModule@ATL@@QAE@XZ  10006920 f i Totals.obj
 0001:00005990       ??0CComObjectRootBase@ATL@@QAE@XZ 10006990 f i Totals.obj
 0001:000059b0       ??0CComSafeDeleteCriticalSection@ATL@@QAE@XZ 100069b0 f i Totals.obj
 0001:000059e0       ??0CComVariant@ATL@@QAE@XZ 100069e0 f i Totals.obj
 0001:00005a30       ??0CExpansionVector@ATL@@QAE@XZ 10006a30 f i Totals.obj
 0001:00005a60       ??0CParseBuffer@CRegParser@ATL@@QAE@H@Z 10006a60 f i Totals.obj
 0001:00005ad0       ??0CRegKey@ATL@@QAE@PAUHKEY__@@@Z 10006ad0 f i Totals.obj
 0001:00005b10       ??0CRegKey@ATL@@QAE@PAVCAtlTransactionManager@1@@Z 10006b10 f i Totals.obj
 0001:00005b50       ??0CRegObject@ATL@@QAE@XZ  10006b50 f i Totals.obj
 0001:00005b90       ??0CRegParser@ATL@@QAE@PAVCRegObject@1@@Z 10006b90 f i Totals.obj
 0001:00005bc0       ??0IClassFactory@@QAE@XZ   10006bc0 f i Totals.obj
 0001:00005bf0       ??0IEnumConnectionPoints@@QAE@XZ 10006bf0 f i Totals.obj
 0001:00005c20       ??0IEnumConnections@@QAE@XZ 10006c20 f i Totals.obj
 0001:00005c50       ??0IRegistrarBase@@QAE@XZ  10006c50 f i Totals.obj
 0001:00005c80       ??0IUnknown@@QAE@XZ        10006c80 f i Totals.obj
 0001:00005ca0       ??0ModuleLockHelper@ATL@@QAE@XZ 10006ca0 f i Totals.obj
 0001:00005ce0       ??0OposVariant@@QAE@XZ     10006ce0 f i Totals.obj
 0001:00005d10       ??0Wrapper@?$CSimpleArray@GV?$CSimpleArrayEqualHelper@G@ATL@@@ATL@@QAE@ABG@Z 10006d10 f i Totals.obj
 0001:00005d40       ??0_ATL_MODULE70@ATL@@QAE@XZ 10006d40 f i Totals.obj
 0001:00005d70       ??0_ATL_MSG@ATL@@QAE@PAUHWND__@@IIJH@Z 10006d70 f i Totals.obj
 0001:00005de0       ??0_U_MENUorID@ATL@@QAE@I@Z 10006de0 f i Totals.obj
 0001:00005e00       ??0_U_RECT@ATL@@QAE@AAUtagRECT@@@Z 10006e00 f i Totals.obj
 0001:00005e20       ??0stringdispid@CComTypeInfoHolder@ATL@@QAE@XZ 10006e20 f i Totals.obj
 0001:00005e60       ??1?$CAtlModuleT@VCComModule@ATL@@@ATL@@UAE@XZ 10006e60 f i Totals.obj
 0001:00005e90       ??1?$CAtlSafeAllocBufferManager@VCCRTAllocator@ATL@@@_ATL_SAFE_ALLOCA_IMPL@ATL@@QAE@XZ 10006e90 f i Totals.obj
 0001:00005ee0       ??1?$CAutoVectorPtr@_W@ATL@@QAE@XZ 10006ee0 f i Totals.obj
 0001:00005f10       ??1?$CComAggObject@VCOPOSTotals@@@ATL@@UAE@XZ 10006f10 f i Totals.obj
 0001:00005f80       ??1?$CComContainedObject@VCOPOSTotals@@@ATL@@UAE@XZ 10006f80 f i Totals.obj
 0001:00005fb0       ??1?$CComCritSecLock@VCComCriticalSection@ATL@@@ATL@@QAE@XZ 10006fb0 f i Totals.obj
 0001:00005fe0       ??1?$CComEnum@UIEnumConnectionPoints@@$1?_GUID_b196b285_bab4_101a_b69c_00aa00341d07@@3U__s_GUID@@BPAUIConnectionPoint@@V?$_CopyInterface@UIConnectionPoint@@@ATL@@VCComSingleThreadModel@6@@ATL@@UAE@XZ 10006fe0 f i Totals.obj
 0001:00006010       ??1?$CComEnum@UIEnumConnections@@$1?_GUID_b196b287_bab4_101a_b69c_00aa00341d07@@3U__s_GUID@@BUtagCONNECTDATA@@V?$_Copy@UtagCONNECTDATA@@@ATL@@VCComSingleThreadModel@6@@ATL@@UAE@XZ 10007010 f i Totals.obj
 0001:00006040       ??1?$CComEnumImpl@UIEnumConnectionPoints@@$1?_GUID_b196b285_bab4_101a_b69c_00aa00341d07@@3U__s_GUID@@BPAUIConnectionPoint@@V?$_CopyInterface@UIConnectionPoint@@@ATL@@@ATL@@UAE@XZ 10007040 f i Totals.obj
 0001:000060d0       ??1?$CComEnumImpl@UIEnumConnections@@$1?_GUID_b196b287_bab4_101a_b69c_00aa00341d07@@3U__s_GUID@@BUtagCONNECTDATA@@V?$_Copy@UtagCONNECTDATA@@@ATL@@@ATL@@UAE@XZ 100070d0 f i Totals.obj
 0001:00006160       ??1?$CComObject@V?$CComEnum@UIEnumConnectionPoints@@$1?_GUID_b196b285_bab4_101a_b69c_00aa00341d07@@3U__s_GUID@@BPAUIConnectionPoint@@V?$_CopyInterface@UIConnectionPoint@@@ATL@@VCComSingleThreadModel@6@@ATL@@@ATL@@UAE@XZ 10007160 f i Totals.obj
 0001:000061c0       ??1?$CComObject@V?$CComEnum@UIEnumConnections@@$1?_GUID_b196b287_bab4_101a_b69c_00aa00341d07@@3U__s_GUID@@BUtagCONNECTDATA@@V?$_Copy@UtagCONNECTDATA@@@ATL@@VCComSingleThreadModel@6@@ATL@@@ATL@@UAE@XZ 100071c0 f i Totals.obj
 0001:00006220       ??1?$CComObject@VCOPOSTotals@@@ATL@@UAE@XZ 10007220 f i Totals.obj
 0001:00006360       ??1?$CComObjectCached@VCComClassFactory@ATL@@@ATL@@UAE@XZ 10007360 f i Totals.obj
 0001:000063b0       ??1?$CComObjectRootEx@VCComMultiThreadModel@ATL@@@ATL@@QAE@XZ 100073b0 f i Totals.obj
 0001:000063e0       ??1?$CComObjectRootEx@VCComSingleThreadModel@ATL@@@ATL@@QAE@XZ 100073e0 f i Totals.obj
 0001:00006410       ??1?$CComPtr@UIAdviseSink@@@ATL@@QAE@XZ 10007410 f i Totals.obj
 0001:00006440       ??1?$CComPtr@UICatRegister@@@ATL@@QAE@XZ 10007440 f i Totals.obj
 0001:00006470       ??1?$CComPtr@UIConnectionPoint@@@ATL@@QAE@XZ 10007470 f i Totals.obj
 0001:000064a0       ??1?$CComPtr@UIConnectionPointContainer@@@ATL@@QAE@XZ 100074a0 f i Totals.obj
 0001:000064d0       ??1?$CComPtr@UIDataObject@@@ATL@@QAE@XZ 100074d0 f i Totals.obj
 0001:00006500       ??1?$CComPtr@UIDispatch@@@ATL@@QAE@XZ 10007500 f i Totals.obj
 0001:00006530       ??1?$CComPtr@UIOleClientSite@@@ATL@@QAE@XZ 10007530 f i Totals.obj
 0001:00006560       ??1?$CComPtr@UIOleControlSite@@@ATL@@QAE@XZ 10007560 f i Totals.obj
 0001:00006590       ??1?$CComPtr@UIOleInPlaceActiveObject@@@ATL@@QAE@XZ 10007590 f i Totals.obj
 0001:000065c0       ??1?$CComPtr@UIOleInPlaceFrame@@@ATL@@QAE@XZ 100075c0 f i Totals.obj
 0001:000065f0       ??1?$CComPtr@UIOleInPlaceObject@@@ATL@@QAE@XZ 100075f0 f i Totals.obj
 0001:00006620       ??1?$CComPtr@UIOleInPlaceUIWindow@@@ATL@@QAE@XZ 10007620 f i Totals.obj
 0001:00006650       ??1?$CComPtr@UIOleObject@@@ATL@@QAE@XZ 10007650 f i Totals.obj
 0001:00006680       ??1?$CComPtr@UIPersistStream@@@ATL@@QAE@XZ 10007680 f i Totals.obj
 0001:000066b0       ??1?$CComPtr@UIPersistStreamInit@@@ATL@@QAE@XZ 100076b0 f i Totals.obj
 0001:000066e0       ??1?$CComPtr@UIPointerInactive@@@ATL@@QAE@XZ 100076e0 f i Totals.obj
 0001:00006710       ??1?$CComPtr@UIProvideClassInfo2@@@ATL@@QAE@XZ 10007710 f i Totals.obj
 0001:00006740       ??1?$CComPtr@UISpecifyPropertyPages@@@ATL@@QAE@XZ 10007740 f i Totals.obj
 0001:00006770       ??1?$CComPtr@UIStream@@@ATL@@QAE@XZ 10007770 f i Totals.obj
 0001:000067a0       ??1?$CComPtr@UITypeInfo2@@@ATL@@QAE@XZ 100077a0 f i Totals.obj
 0001:000067d0       ??1?$CComPtr@UITypeInfo@@@ATL@@QAE@XZ 100077d0 f i Totals.obj
 0001:00006800       ??1?$CComPtr@UITypeLib@@@ATL@@QAE@XZ 10007800 f i Totals.obj
 0001:00006830       ??1?$CComPtr@UIUnknown@@@ATL@@QAE@XZ 10007830 f i Totals.obj
 0001:00006860       ??1?$CComPtr@UIViewObjectEx@@@ATL@@QAE@XZ 10007860 f i Totals.obj
 0001:00006890       ??1?$CComPtrBase@UIAdviseSink@@@ATL@@QAE@XZ 10007890 f i Totals.obj
 0001:000068e0       ??1?$CComPtrBase@UICatRegister@@@ATL@@QAE@XZ 100078e0 f i Totals.obj
 0001:00006930       ??1?$CComPtrBase@UIConnectionPoint@@@ATL@@QAE@XZ 10007930 f i Totals.obj
 0001:00006980       ??1?$CComPtrBase@UIConnectionPointContainer@@@ATL@@QAE@XZ 10007980 f i Totals.obj
 0001:000069d0       ??1?$CComPtrBase@UIDataObject@@@ATL@@QAE@XZ 100079d0 f i Totals.obj
 0001:00006a20       ??1?$CComPtrBase@UIDispatch@@@ATL@@QAE@XZ 10007a20 f i Totals.obj
 0001:00006a70       ??1?$CComPtrBase@UIOleClientSite@@@ATL@@QAE@XZ 10007a70 f i Totals.obj
 0001:00006ac0       ??1?$CComPtrBase@UIOleControlSite@@@ATL@@QAE@XZ 10007ac0 f i Totals.obj
 0001:00006b10       ??1?$CComPtrBase@UIOleInPlaceActiveObject@@@ATL@@QAE@XZ 10007b10 f i Totals.obj
 0001:00006b60       ??1?$CComPtrBase@UIOleInPlaceFrame@@@ATL@@QAE@XZ 10007b60 f i Totals.obj
 0001:00006bb0       ??1?$CComPtrBase@UIOleInPlaceObject@@@ATL@@QAE@XZ 10007bb0 f i Totals.obj
 0001:00006c00       ??1?$CComPtrBase@UIOleInPlaceUIWindow@@@ATL@@QAE@XZ 10007c00 f i Totals.obj
 0001:00006c50       ??1?$CComPtrBase@UIOleObject@@@ATL@@QAE@XZ 10007c50 f i Totals.obj
 0001:00006ca0       ??1?$CComPtrBase@UIPersistStream@@@ATL@@QAE@XZ 10007ca0 f i Totals.obj
 0001:00006cf0       ??1?$CComPtrBase@UIPersistStreamInit@@@ATL@@QAE@XZ 10007cf0 f i Totals.obj
 0001:00006d40       ??1?$CComPtrBase@UIPointerInactive@@@ATL@@QAE@XZ 10007d40 f i Totals.obj
 0001:00006d90       ??1?$CComPtrBase@UIProvideClassInfo2@@@ATL@@QAE@XZ 10007d90 f i Totals.obj
 0001:00006de0       ??1?$CComPtrBase@UISpecifyPropertyPages@@@ATL@@QAE@XZ 10007de0 f i Totals.obj
 0001:00006e30       ??1?$CComPtrBase@UIStream@@@ATL@@QAE@XZ 10007e30 f i Totals.obj
 0001:00006e80       ??1?$CComPtrBase@UITypeInfo2@@@ATL@@QAE@XZ 10007e80 f i Totals.obj
 0001:00006ed0       ??1?$CComPtrBase@UITypeInfo@@@ATL@@QAE@XZ 10007ed0 f i Totals.obj
 0001:00006f20       ??1?$CComPtrBase@UITypeLib@@@ATL@@QAE@XZ 10007f20 f i Totals.obj
 0001:00006f70       ??1?$CComPtrBase@UIUnknown@@@ATL@@QAE@XZ 10007f70 f i Totals.obj
 0001:00006fc0       ??1?$CComPtrBase@UIViewObjectEx@@@ATL@@QAE@XZ 10007fc0 f i Totals.obj
 0001:00007010       ??1?$CComQIPtr@UIOleControlSite@@$1?_GUID_b196b289_bab4_101a_b69c_00aa00341d07@@3U__s_GUID@@B@ATL@@QAE@XZ 10008010 f i Totals.obj
 0001:00007040       ??1?$CComQIPtr@UIOleObject@@$1?_GUID_00000112_0000_0000_c000_000000000046@@3U__s_GUID@@B@ATL@@QAE@XZ 10008040 f i Totals.obj
 0001:00007070       ??1?$CComQIPtr@UISpecifyPropertyPages@@$1?_GUID_b196b28b_bab4_101a_b69c_00aa00341d07@@3U__s_GUID@@B@ATL@@QAE@XZ 10008070 f i Totals.obj
 0001:000070a0       ??1?$CSimpleMap@PA_WPA_WVCExpansionVectorEqualHelper@ATL@@@ATL@@QAE@XZ 100080a0 f i Totals.obj
 0001:000070d0       ??1?$CTempBuffer@E$0BAA@VCCRTAllocator@ATL@@@ATL@@QAE@XZ 100080d0 f i Totals.obj
 0001:00007110       ??1?$CTempBuffer@_W$0BAA@VCCRTAllocator@ATL@@@ATL@@QAE@XZ 10008110 f i Totals.obj
 0001:00007150       ??1?$CTempBuffer@_W$0EAA@VCCRTAllocator@ATL@@@ATL@@QAE@XZ 10008150 f i Totals.obj
 0001:00007190       ??1CAtlModule@ATL@@UAE@XZ  10008190 f i Totals.obj
 0001:000071c0       ??1CComAutoDeleteCriticalSection@ATL@@QAE@XZ 100081c0 f i Totals.obj
 0001:000071f0       ??1CComClassFactory@ATL@@UAE@XZ 100081f0 f i Totals.obj
 0001:00007220       ??1CComModule@ATL@@UAE@XZ  10008220 f i Totals.obj
 0001:00007250       ??1CComObjectRootBase@ATL@@QAE@XZ 10008250 f i Totals.obj
 0001:00007270       ??1CComSafeDeleteCriticalSection@ATL@@QAE@XZ 10008270 f i Totals.obj
 0001:000072b0       ??1CComVariant@ATL@@QAE@XZ 100082b0 f i Totals.obj
 0001:00007310       ??1CExpansionVector@ATL@@QAE@XZ 10008310 f i Totals.obj
 0001:00007340       ??1CParseBuffer@CRegParser@ATL@@QAE@XZ 10008340 f i Totals.obj
 0001:00007380       ??1CRegKey@ATL@@QAE@XZ     10008380 f i Totals.obj
 0001:000073b0       ??1CRegObject@ATL@@UAE@XZ  100083b0 f i Totals.obj
 0001:000073f0       ??1ModuleLockHelper@ATL@@QAE@XZ 100083f0 f i Totals.obj
 0001:00007430       ??1OposVariant@@QAE@XZ     10008430 f i Totals.obj
 0001:00007460       ??1_ATL_MODULE70@ATL@@QAE@XZ 10008460 f i Totals.obj
 0001:00007490       ??4?$CComPtr@UIAdviseSink@@@ATL@@QAEPAUIAdviseSink@@PAU2@@Z 10008490 f i Totals.obj
 0001:000074f0       ??4?$CComPtr@UIOleClientSite@@@ATL@@QAEPAUIOleClientSite@@PAU2@@Z 100084f0 f i Totals.obj
 0001:00007550       ??4?$CComPtr@UIUnknown@@@ATL@@QAEPAUIUnknown@@PAU2@@Z 10008550 f i Totals.obj
 0001:000075b0       ??4?$CComQIPtr@UIOleObject@@$1?_GUID_00000112_0000_0000_c000_000000000046@@3U__s_GUID@@B@ATL@@QAEPAUIOleObject@@PAUIUnknown@@@Z 100085b0 f i Totals.obj
 0001:00007600       ??4?$CComQIPtr@UISpecifyPropertyPages@@$1?_GUID_b196b28b_bab4_101a_b69c_00aa00341d07@@3U__s_GUID@@B@ATL@@QAEPAUISpecifyPropertyPages@@PAUIUnknown@@@Z 10008600 f i Totals.obj
 0001:00007650       ??7?$CComPtrBase@UIOleClientSite@@@ATL@@QBE_NXZ 10008650 f i Totals.obj
 0001:00007690       ??7?$CComPtrBase@UIOleInPlaceSiteWindowless@@@ATL@@QBE_NXZ 10008690 f i Totals.obj
 0001:000076d0       ??7CComBSTR@ATL@@QBE_NXZ   100086d0 f i Totals.obj
 0001:00007710       ??8?$CComPtrBase@UIConnectionPointContainer@@@ATL@@QBE_NPAUIConnectionPointContainer@@@Z 10008710 f i Totals.obj
 0001:00007750       ??8?$CComPtrBase@UIDataAdviseHolder@@@ATL@@QBE_NPAUIDataAdviseHolder@@@Z 10008750 f i Totals.obj
 0001:00007790       ??8?$CComPtrBase@UIOleAdviseHolder@@@ATL@@QBE_NPAUIOleAdviseHolder@@@Z 10008790 f i Totals.obj
 0001:000077d0       ??8?$CComPtrBase@UIOleClientSite@@@ATL@@QBE_NPAUIOleClientSite@@@Z 100087d0 f i Totals.obj
 0001:00007810       ??8?$CComPtrBase@UIOleControlSite@@@ATL@@QBE_NPAUIOleControlSite@@@Z 10008810 f i Totals.obj
 0001:00007850       ??8?$CComPtrBase@UIOleInPlaceObject@@@ATL@@QBE_NPAUIOleInPlaceObject@@@Z 10008850 f i Totals.obj
 0001:00007890       ??8?$CComPtrBase@UIOleInPlaceSiteWindowless@@@ATL@@QBE_NPAUIOleInPlaceSiteWindowless@@@Z 10008890 f i Totals.obj
 0001:000078d0       ??8?$CComPtrBase@UIOleObject@@@ATL@@QBE_NPAUIOleObject@@@Z 100088d0 f i Totals.obj
 0001:00007910       ??8?$CComPtrBase@UIPersistStream@@@ATL@@QBE_NPAUIPersistStream@@@Z 10008910 f i Totals.obj
 0001:00007950       ??8?$CComPtrBase@UIPersistStreamInit@@@ATL@@QBE_NPAUIPersistStreamInit@@@Z 10008950 f i Totals.obj
 0001:00007990       ??8?$CComPtrBase@UIPointerInactive@@@ATL@@QBE_NPAUIPointerInactive@@@Z 10008990 f i Totals.obj
 0001:000079d0       ??8?$CComPtrBase@UIUnknown@@@ATL@@QBE_NPAUIUnknown@@@Z 100089d0 f i Totals.obj
 0001:00007a10       ??8?$CComPtrBase@UIViewObjectEx@@@ATL@@QBE_NPAUIViewObjectEx@@@Z 10008a10 f i Totals.obj
 0001:00007a50       ??8CComBSTR@ATL@@QBE_NH@Z  10008a50 f i Totals.obj
 0001:00007ab0       ??9?$CComPtrBase@UIConnectionPointContainer@@@ATL@@QBE_NPAUIConnectionPointContainer@@@Z 10008ab0 f i Totals.obj
 0001:00007b00       ??9?$CComPtrBase@UIDataAdviseHolder@@@ATL@@QBE_NPAUIDataAdviseHolder@@@Z 10008b00 f i Totals.obj
 0001:00007b50       ??9?$CComPtrBase@UIOleAdviseHolder@@@ATL@@QBE_NPAUIOleAdviseHolder@@@Z 10008b50 f i Totals.obj
 0001:00007ba0       ??9?$CComPtrBase@UIOleClientSite@@@ATL@@QBE_NPAUIOleClientSite@@@Z 10008ba0 f i Totals.obj
 0001:00007bf0       ??9?$CComPtrBase@UIOleControlSite@@@ATL@@QBE_NPAUIOleControlSite@@@Z 10008bf0 f i Totals.obj
 0001:00007c40       ??9?$CComPtrBase@UIOleInPlaceObject@@@ATL@@QBE_NPAUIOleInPlaceObject@@@Z 10008c40 f i Totals.obj
 0001:00007c90       ??9?$CComPtrBase@UIOleInPlaceSiteWindowless@@@ATL@@QBE_NPAUIOleInPlaceSiteWindowless@@@Z 10008c90 f i Totals.obj
 0001:00007ce0       ??9?$CComPtrBase@UIOleObject@@@ATL@@QBE_NPAUIOleObject@@@Z 10008ce0 f i Totals.obj
 0001:00007d30       ??9?$CComPtrBase@UIPersistStream@@@ATL@@QBE_NPAUIPersistStream@@@Z 10008d30 f i Totals.obj
 0001:00007d80       ??9?$CComPtrBase@UIPersistStreamInit@@@ATL@@QBE_NPAUIPersistStreamInit@@@Z 10008d80 f i Totals.obj
 0001:00007dd0       ??9?$CComPtrBase@UIPointerInactive@@@ATL@@QBE_NPAUIPointerInactive@@@Z 10008dd0 f i Totals.obj
 0001:00007e20       ??9?$CComPtrBase@UIUnknown@@@ATL@@QBE_NPAUIUnknown@@@Z 10008e20 f i Totals.obj
 0001:00007e70       ??9?$CComPtrBase@UIViewObjectEx@@@ATL@@QBE_NPAUIViewObjectEx@@@Z 10008e70 f i Totals.obj
 0001:00007ec0       ??9CComBSTR@ATL@@QBE_NH@Z  10008ec0 f i Totals.obj
 0001:00007f10       ??B?$CComPtrBase@UIAdviseSink@@@ATL@@QBEPAUIAdviseSink@@XZ 10008f10 f i Totals.obj
 0001:00007f30       ??B?$CComPtrBase@UIDataAdviseHolder@@@ATL@@QBEPAUIDataAdviseHolder@@XZ 10008f30 f i Totals.obj
 0001:00007f50       ??B?$CComPtrBase@UIDataObject@@@ATL@@QBEPAUIDataObject@@XZ 10008f50 f i Totals.obj
 0001:00007f70       ??B?$CComPtrBase@UIOleAdviseHolder@@@ATL@@QBEPAUIOleAdviseHolder@@XZ 10008f70 f i Totals.obj
 0001:00007f90       ??B?$CComPtrBase@UIOleClientSite@@@ATL@@QBEPAUIOleClientSite@@XZ 10008f90 f i Totals.obj
 0001:00007fb0       ??B?$CComPtrBase@UIOleControlSite@@@ATL@@QBEPAUIOleControlSite@@XZ 10008fb0 f i Totals.obj
 0001:00007fd0       ??B?$CComPtrBase@UIOleInPlaceActiveObject@@@ATL@@QBEPAUIOleInPlaceActiveObject@@XZ 10008fd0 f i Totals.obj
 0001:00007ff0       ??B?$CComPtrBase@UIOleInPlaceFrame@@@ATL@@QBEPAUIOleInPlaceFrame@@XZ 10008ff0 f i Totals.obj
 0001:00008010       ??B?$CComPtrBase@UIOleInPlaceSiteWindowless@@@ATL@@QBEPAUIOleInPlaceSiteWindowless@@XZ 10009010 f i Totals.obj
 0001:00008030       ??B?$CComPtrBase@UIOleInPlaceUIWindow@@@ATL@@QBEPAUIOleInPlaceUIWindow@@XZ 10009030 f i Totals.obj
 0001:00008050       ??B?$CComPtrBase@UIOleObject@@@ATL@@QBEPAUIOleObject@@XZ 10009050 f i Totals.obj
 0001:00008070       ??B?$CComPtrBase@UIPersistStream@@@ATL@@QBEPAUIPersistStream@@XZ 10009070 f i Totals.obj
 0001:00008090       ??B?$CComPtrBase@UIProvideClassInfo2@@@ATL@@QBEPAUIProvideClassInfo2@@XZ 10009090 f i Totals.obj
 0001:000080b0       ??B?$CComPtrBase@UISpecifyPropertyPages@@@ATL@@QBEPAUISpecifyPropertyPages@@XZ 100090b0 f i Totals.obj
 0001:000080d0       ??B?$CComPtrBase@UIStream@@@ATL@@QBEPAUIStream@@XZ 100090d0 f i Totals.obj
 0001:000080f0       ??B?$CComPtrBase@UITypeInfo2@@@ATL@@QBEPAUITypeInfo2@@XZ 100090f0 f i Totals.obj
 0001:00008110       ??B?$CComPtrBase@UITypeInfo@@@ATL@@QBEPAUITypeInfo@@XZ 10009110 f i Totals.obj
 0001:00008130       ??B?$CComPtrBase@UITypeLib@@@ATL@@QBEPAUITypeLib@@XZ 10009130 f i Totals.obj
 0001:00008150       ??B?$CComPtrBase@UIUnknown@@@ATL@@QBEPAUIUnknown@@XZ 10009150 f i Totals.obj
 0001:00008170       ??B?$CTempBuffer@E$0BAA@VCCRTAllocator@ATL@@@ATL@@QBEPAEXZ 10009170 f i Totals.obj
 0001:00008190       ??B?$CTempBuffer@_W$0BAA@VCCRTAllocator@ATL@@@ATL@@QBEPA_WXZ 10009190 f i Totals.obj
 0001:000081b0       ??B?$CTempBuffer@_W$0EAA@VCCRTAllocator@ATL@@@ATL@@QBEPA_WXZ 100091b0 f i Totals.obj
 0001:000081d0       ??B?$CTraceCategoryEx@$00$0A@@ATL@@QAEIXZ 100091d0 f i Totals.obj
 0001:000081f0       ??B?$CTraceCategoryEx@$07$0A@@ATL@@QAEIXZ 100091f0 f i Totals.obj
 0001:00008210       ??B?$CTraceCategoryEx@$0CAAA@$0A@@ATL@@QAEIXZ 10009210 f i Totals.obj
 0001:00008230       ??B?$CTraceCategoryEx@$0EA@$0A@@ATL@@QAEIXZ 10009230 f i Totals.obj
 0001:00008250       ??B?$CTraceCategoryEx@$0IAA@$0A@@ATL@@QAEIXZ 10009250 f i Totals.obj
 0001:00008270       ??BCComBSTR@ATL@@QBEPA_WXZ 10009270 f i Totals.obj
 0001:00008290       ??BCRegKey@ATL@@QBEPAUHKEY__@@XZ 10009290 f i Totals.obj
 0001:000082b0       ??C?$CComPtrBase@UIAdviseSink@@@ATL@@QBEPAV?$_NoAddRefReleaseOnCComPtr@UIAdviseSink@@@1@XZ 100092b0 f i Totals.obj
 0001:00008300       ??C?$CComPtrBase@UICatRegister@@@ATL@@QBEPAV?$_NoAddRefReleaseOnCComPtr@UICatRegister@@@1@XZ 10009300 f i Totals.obj
 0001:00008350       ??C?$CComPtrBase@UIConnectionPoint@@@ATL@@QBEPAV?$_NoAddRefReleaseOnCComPtr@UIConnectionPoint@@@1@XZ 10009350 f i Totals.obj
 0001:000083a0       ??C?$CComPtrBase@UIConnectionPointContainer@@@ATL@@QBEPAV?$_NoAddRefReleaseOnCComPtr@UIConnectionPointContainer@@@1@XZ 100093a0 f i Totals.obj
 0001:000083f0       ??C?$CComPtrBase@UIDataAdviseHolder@@@ATL@@QBEPAV?$_NoAddRefReleaseOnCComPtr@UIDataAdviseHolder@@@1@XZ 100093f0 f i Totals.obj
 0001:00008440       ??C?$CComPtrBase@UIOleAdviseHolder@@@ATL@@QBEPAV?$_NoAddRefReleaseOnCComPtr@UIOleAdviseHolder@@@1@XZ 10009440 f i Totals.obj
 0001:00008490       ??C?$CComPtrBase@UIOleClientSite@@@ATL@@QBEPAV?$_NoAddRefReleaseOnCComPtr@UIOleClientSite@@@1@XZ 10009490 f i Totals.obj
 0001:000084e0       ??C?$CComPtrBase@UIOleControlSite@@@ATL@@QBEPAV?$_NoAddRefReleaseOnCComPtr@UIOleControlSite@@@1@XZ 100094e0 f i Totals.obj
 0001:00008530       ??C?$CComPtrBase@UIOleInPlaceFrame@@@ATL@@QBEPAV?$_NoAddRefReleaseOnCComPtr@UIOleInPlaceFrame@@@1@XZ 10009530 f i Totals.obj
 0001:00008580       ??C?$CComPtrBase@UIOleInPlaceObject@@@ATL@@QBEPAV?$_NoAddRefReleaseOnCComPtr@UIOleInPlaceObject@@@1@XZ 10009580 f i Totals.obj
 0001:000085d0       ??C?$CComPtrBase@UIOleInPlaceSiteWindowless@@@ATL@@QBEPAV?$_NoAddRefReleaseOnCComPtr@UIOleInPlaceSiteWindowless@@@1@XZ 100095d0 f i Totals.obj
 0001:00008620       ??C?$CComPtrBase@UIOleInPlaceUIWindow@@@ATL@@QBEPAV?$_NoAddRefReleaseOnCComPtr@UIOleInPlaceUIWindow@@@1@XZ 10009620 f i Totals.obj
 0001:00008670       ??C?$CComPtrBase@UIOleObject@@@ATL@@QBEPAV?$_NoAddRefReleaseOnCComPtr@UIOleObject@@@1@XZ 10009670 f i Totals.obj
 0001:000086c0       ??C?$CComPtrBase@UIPersistStream@@@ATL@@QBEPAV?$_NoAddRefReleaseOnCComPtr@UIPersistStream@@@1@XZ 100096c0 f i Totals.obj
 0001:00008710       ??C?$CComPtrBase@UIPersistStreamInit@@@ATL@@QBEPAV?$_NoAddRefReleaseOnCComPtr@UIPersistStreamInit@@@1@XZ 10009710 f i Totals.obj
 0001:00008760       ??C?$CComPtrBase@UIPointerInactive@@@ATL@@QBEPAV?$_NoAddRefReleaseOnCComPtr@UIPointerInactive@@@1@XZ 10009760 f i Totals.obj
 0001:000087b0       ??C?$CComPtrBase@UIProvideClassInfo2@@@ATL@@QBEPAV?$_NoAddRefReleaseOnCComPtr@UIProvideClassInfo2@@@1@XZ 100097b0 f i Totals.obj
 0001:00008800       ??C?$CComPtrBase@UISpecifyPropertyPages@@@ATL@@QBEPAV?$_NoAddRefReleaseOnCComPtr@UISpecifyPropertyPages@@@1@XZ 10009800 f i Totals.obj
 0001:00008850       ??C?$CComPtrBase@UITypeInfo@@@ATL@@QBEPAV?$_NoAddRefReleaseOnCComPtr@UITypeInfo@@@1@XZ 10009850 f i Totals.obj
 0001:000088a0       ??C?$CComPtrBase@UITypeLib@@@ATL@@QBEPAV?$_NoAddRefReleaseOnCComPtr@UITypeLib@@@1@XZ 100098a0 f i Totals.obj
 0001:000088f0       ??C?$CComPtrBase@UIUnknown@@@ATL@@QBEPAV?$_NoAddRefReleaseOnCComPtr@UIUnknown@@@1@XZ 100098f0 f i Totals.obj
 0001:00008940       ??C?$CComPtrBase@UIViewObjectEx@@@ATL@@QBEPAV?$_NoAddRefReleaseOnCComPtr@UIViewObjectEx@@@1@XZ 10009940 f i Totals.obj
 0001:00008990       ??I?$CComPtrBase@UICatRegister@@@ATL@@QAEPAPAUICatRegister@@XZ 10009990 f i Totals.obj
 0001:000089e0       ??I?$CComPtrBase@UIConnectionPoint@@@ATL@@QAEPAPAUIConnectionPoint@@XZ 100099e0 f i Totals.obj
 0001:00008a30       ??I?$CComPtrBase@UIConnectionPointContainer@@@ATL@@QAEPAPAUIConnectionPointContainer@@XZ 10009a30 f i Totals.obj
 0001:00008a80       ??I?$CComPtrBase@UIDataAdviseHolder@@@ATL@@QAEPAPAUIDataAdviseHolder@@XZ 10009a80 f i Totals.obj
 0001:00008ad0       ??I?$CComPtrBase@UIDataObject@@@ATL@@QAEPAPAUIDataObject@@XZ 10009ad0 f i Totals.obj
 0001:00008b20       ??I?$CComPtrBase@UIDispatch@@@ATL@@QAEPAPAUIDispatch@@XZ 10009b20 f i Totals.obj
 0001:00008b70       ??I?$CComPtrBase@UIOleAdviseHolder@@@ATL@@QAEPAPAUIOleAdviseHolder@@XZ 10009b70 f i Totals.obj
 0001:00008bc0       ??I?$CComPtrBase@UIOleControlSite@@@ATL@@QAEPAPAUIOleControlSite@@XZ 10009bc0 f i Totals.obj
 0001:00008c10       ??I?$CComPtrBase@UIOleInPlaceActiveObject@@@ATL@@QAEPAPAUIOleInPlaceActiveObject@@XZ 10009c10 f i Totals.obj
 0001:00008c60       ??I?$CComPtrBase@UIOleInPlaceFrame@@@ATL@@QAEPAPAUIOleInPlaceFrame@@XZ 10009c60 f i Totals.obj
 0001:00008cb0       ??I?$CComPtrBase@UIOleInPlaceObject@@@ATL@@QAEPAPAUIOleInPlaceObject@@XZ 10009cb0 f i Totals.obj
 0001:00008d00       ??I?$CComPtrBase@UIOleInPlaceSiteWindowless@@@ATL@@QAEPAPAUIOleInPlaceSiteWindowless@@XZ 10009d00 f i Totals.obj
 0001:00008d50       ??I?$CComPtrBase@UIOleInPlaceUIWindow@@@ATL@@QAEPAPAUIOleInPlaceUIWindow@@XZ 10009d50 f i Totals.obj
 0001:00008da0       ??I?$CComPtrBase@UIOleObject@@@ATL@@QAEPAPAUIOleObject@@XZ 10009da0 f i Totals.obj
 0001:00008df0       ??I?$CComPtrBase@UIPersistStream@@@ATL@@QAEPAPAUIPersistStream@@XZ 10009df0 f i Totals.obj
 0001:00008e40       ??I?$CComPtrBase@UIPointerInactive@@@ATL@@QAEPAPAUIPointerInactive@@XZ 10009e40 f i Totals.obj
 0001:00008e90       ??I?$CComPtrBase@UIProvideClassInfo2@@@ATL@@QAEPAPAUIProvideClassInfo2@@XZ 10009e90 f i Totals.obj
 0001:00008ee0       ??I?$CComPtrBase@UIStream@@@ATL@@QAEPAPAUIStream@@XZ 10009ee0 f i Totals.obj
 0001:00008f30       ??I?$CComPtrBase@UITypeInfo2@@@ATL@@QAEPAPAUITypeInfo2@@XZ 10009f30 f i Totals.obj
 0001:00008f80       ??I?$CComPtrBase@UITypeInfo@@@ATL@@QAEPAPAUITypeInfo@@XZ 10009f80 f i Totals.obj
 0001:00008fd0       ??I?$CComPtrBase@UITypeLib@@@ATL@@QAEPAPAUITypeLib@@XZ 10009fd0 f i Totals.obj
 0001:00009020       ??I?$CComPtrBase@UIUnknown@@@ATL@@QAEPAPAUIUnknown@@XZ 1000a020 f i Totals.obj
 0001:00009070       ??I?$CComPtrBase@UIViewObjectEx@@@ATL@@QAEPAPAUIViewObjectEx@@XZ 1000a070 f i Totals.obj
 0001:000090c0       ??ICComBSTR@ATL@@QAEPAPA_WXZ 1000a0c0 f i Totals.obj
 0001:000090d5       ??_E?$CComContainedObject@VCOPOSTotals@@@ATL@@W3AEPAXI@Z 1000a0d5 f i Totals.obj
 0001:000090dd       ??_E?$CComContainedObject@VCOPOSTotals@@@ATL@@WEM@AEPAXI@Z 1000a0dd f i Totals.obj
 0001:000090e5       ??_E?$CComObject@VCOPOSTotals@@@ATL@@W3AEPAXI@Z 1000a0e5 f i Totals.obj
 0001:000090ed       ??_E?$CComObject@VCOPOSTotals@@@ATL@@WEM@AEPAXI@Z 1000a0ed f i Totals.obj
 0001:00009100       ??_G?$CComAggObject@VCOPOSTotals@@@ATL@@UAEPAXI@Z 1000a100 f i Totals.obj
 0001:00009100       ??_E?$CComAggObject@VCOPOSTotals@@@ATL@@UAEPAXI@Z 1000a100 f i Totals.obj
 0001:00009150       ??_E?$CComContainedObject@VCOPOSTotals@@@ATL@@UAEPAXI@Z 1000a150 f i Totals.obj
 0001:00009150       ??_G?$CComContainedObject@VCOPOSTotals@@@ATL@@UAEPAXI@Z 1000a150 f i Totals.obj
 0001:000091a0       ??_E?$CComObject@V?$CComEnum@UIEnumConnectionPoints@@$1?_GUID_b196b285_bab4_101a_b69c_00aa00341d07@@3U__s_GUID@@BPAUIConnectionPoint@@V?$_CopyInterface@UIConnectionPoint@@@ATL@@VCComSingleThreadModel@6@@ATL@@@ATL@@UAEPAXI@Z 1000a1a0 f i Totals.obj
 0001:000091a0       ??_G?$CComObject@V?$CComEnum@UIEnumConnectionPoints@@$1?_GUID_b196b285_bab4_101a_b69c_00aa00341d07@@3U__s_GUID@@BPAUIConnectionPoint@@V?$_CopyInterface@UIConnectionPoint@@@ATL@@VCComSingleThreadModel@6@@ATL@@@ATL@@UAEPAXI@Z 1000a1a0 f i Totals.obj
 0001:000091e0       ??_E?$CComObject@V?$CComEnum@UIEnumConnections@@$1?_GUID_b196b287_bab4_101a_b69c_00aa00341d07@@3U__s_GUID@@BUtagCONNECTDATA@@V?$_Copy@UtagCONNECTDATA@@@ATL@@VCComSingleThreadModel@6@@ATL@@@ATL@@UAEPAXI@Z 1000a1e0 f i Totals.obj
 0001:000091e0       ??_G?$CComObject@V?$CComEnum@UIEnumConnections@@$1?_GUID_b196b287_bab4_101a_b69c_00aa00341d07@@3U__s_GUID@@BUtagCONNECTDATA@@V?$_Copy@UtagCONNECTDATA@@@ATL@@VCComSingleThreadModel@6@@ATL@@@ATL@@UAEPAXI@Z 1000a1e0 f i Totals.obj
 0001:00009220       ??_E?$CComObject@VCOPOSTotals@@@ATL@@UAEPAXI@Z 1000a220 f i Totals.obj
 0001:00009220       ??_G?$CComObject@VCOPOSTotals@@@ATL@@UAEPAXI@Z 1000a220 f i Totals.obj
 0001:00009270       ??_E?$CComObjectCached@VCComClassFactory@ATL@@@ATL@@UAEPAXI@Z 1000a270 f i Totals.obj
 0001:00009270       ??_G?$CComObjectCached@VCComClassFactory@ATL@@@ATL@@UAEPAXI@Z 1000a270 f i Totals.obj
 0001:000092b0       ??_ECComClassFactory@ATL@@UAEPAXI@Z 1000a2b0 f i Totals.obj
 0001:000092b0       ??_GCComClassFactory@ATL@@UAEPAXI@Z 1000a2b0 f i Totals.obj
 0001:000092f0       ??_ECComModule@ATL@@UAEPAXI@Z 1000a2f0 f i Totals.obj
 0001:000092f0       ??_GCComModule@ATL@@UAEPAXI@Z 1000a2f0 f i Totals.obj
 0001:00009330       ??_GCRegObject@ATL@@UAEPAXI@Z 1000a330 f i Totals.obj
 0001:00009330       ??_ECRegObject@ATL@@UAEPAXI@Z 1000a330 f i Totals.obj
 0001:00009370       ?Add@?$CSimpleArray@GV?$CSimpleArrayEqualHelper@G@ATL@@@ATL@@QAEHABG@Z 1000a370 f i Totals.obj
 0001:000094c0       ?Add@?$CSimpleMap@PA_WPA_WVCExpansionVectorEqualHelper@ATL@@@ATL@@QAEHABQA_W0@Z 1000a4c0 f i Totals.obj
 0001:00009580       ?Add@CComDynamicUnkArray@ATL@@QAEKPAUIUnknown@@@Z 1000a580 f i Totals.obj
 0001:00009720       ?Add@CExpansionVector@ATL@@QAEHPB_W0@Z 1000a720 f i Totals.obj
 0001:000099b0       ?AddChar@CParseBuffer@CRegParser@ATL@@QAEHPB_W@Z 1000a9b0 f i Totals.obj
 0001:000099f0       ?AddCommonRGSReplacements@?$CAtlModuleT@VCComModule@ATL@@@ATL@@UAEJPAUIRegistrarBase@@@Z 1000a9f0 f i Totals.obj
 0001:00009a40       ?AddCreateWndData@CAtlWinModule@ATL@@QAEXPAU_AtlCreateWndData@2@PAX@Z 1000aa40 f i Totals.obj
 0001:00009a70       ?AddRef@?$CComAggObject@VCOPOSTotals@@@ATL@@UAGKXZ 1000aa70 f i Totals.obj
 0001:00009a90       ?AddRef@?$CComContainedObject@VCOPOSTotals@@@ATL@@UAGKXZ 1000aa90 f i Totals.obj
 0001:00009aac       ?AddRef@?$CComContainedObject@VCOPOSTotals@@@ATL@@WHA@AGKXZ 1000aaac f i Totals.obj
 0001:00009ab6       ?AddRef@?$CComContainedObject@VCOPOSTotals@@@ATL@@WHE@AGKXZ 1000aab6 f i Totals.obj
 0001:00009ac0       ?AddRef@?$CComContainedObject@VCOPOSTotals@@@ATL@@WHI@AGKXZ 1000aac0 f i Totals.obj
 0001:00009aca       ?AddRef@?$CComContainedObject@VCOPOSTotals@@@ATL@@WHM@AGKXZ 1000aaca f i Totals.obj
 0001:00009ad4       ?AddRef@?$CComContainedObject@VCOPOSTotals@@@ATL@@WIA@AGKXZ 1000aad4 f i Totals.obj
 0001:00009ae1       ?AddRef@?$CComContainedObject@VCOPOSTotals@@@ATL@@WIE@AGKXZ 1000aae1 f i Totals.obj
 0001:00009aee       ?AddRef@?$CComContainedObject@VCOPOSTotals@@@ATL@@WII@AGKXZ 1000aaee f i Totals.obj
 0001:00009afb       ?AddRef@?$CComContainedObject@VCOPOSTotals@@@ATL@@WIM@AGKXZ 1000aafb f i Totals.obj
 0001:00009b08       ?AddRef@?$CComContainedObject@VCOPOSTotals@@@ATL@@WJA@AGKXZ 1000ab08 f i Totals.obj
 0001:00009b15       ?AddRef@?$CComContainedObject@VCOPOSTotals@@@ATL@@WJE@AGKXZ 1000ab15 f i Totals.obj
 0001:00009b22       ?AddRef@?$CComContainedObject@VCOPOSTotals@@@ATL@@WJI@AGKXZ 1000ab22 f i Totals.obj
 0001:00009b2f       ?AddRef@?$CComContainedObject@VCOPOSTotals@@@ATL@@WJM@AGKXZ 1000ab2f f i Totals.obj
 0001:00009b3c       ?AddRef@?$CComContainedObject@VCOPOSTotals@@@ATL@@WKA@AGKXZ 1000ab3c f i Totals.obj
 0001:00009b49       ?AddRef@?$CComContainedObject@VCOPOSTotals@@@ATL@@WKI@AGKXZ 1000ab49 f i Totals.obj
 0001:00009b56       ?AddRef@?$CComContainedObject@VCOPOSTotals@@@ATL@@WLE@AGKXZ 1000ab56 f i Totals.obj
 0001:00009b70       ?AddRef@?$CComObject@V?$CComEnum@UIEnumConnectionPoints@@$1?_GUID_b196b285_bab4_101a_b69c_00aa00341d07@@3U__s_GUID@@BPAUIConnectionPoint@@V?$_CopyInterface@UIConnectionPoint@@@ATL@@VCComSingleThreadModel@6@@ATL@@@ATL@@UAGKXZ 1000ab70 f i Totals.obj
 0001:00009b90       ?AddRef@?$CComObject@V?$CComEnum@UIEnumConnections@@$1?_GUID_b196b287_bab4_101a_b69c_00aa00341d07@@3U__s_GUID@@BUtagCONNECTDATA@@V?$_Copy@UtagCONNECTDATA@@@ATL@@VCComSingleThreadModel@6@@ATL@@@ATL@@UAGKXZ 1000ab90 f i Totals.obj
 0001:00009bb0       ?AddRef@?$CComObject@VCOPOSTotals@@@ATL@@UAGKXZ 1000abb0 f i Totals.obj
 0001:00009bcc       ?AddRef@?$CComObject@VCOPOSTotals@@@ATL@@WHA@AGKXZ 1000abcc f i Totals.obj
 0001:00009bd6       ?AddRef@?$CComObject@VCOPOSTotals@@@ATL@@WHE@AGKXZ 1000abd6 f i Totals.obj
 0001:00009be0       ?AddRef@?$CComObject@VCOPOSTotals@@@ATL@@WHI@AGKXZ 1000abe0 f i Totals.obj
 0001:00009bea       ?AddRef@?$CComObject@VCOPOSTotals@@@ATL@@WHM@AGKXZ 1000abea f i Totals.obj
 0001:00009bf4       ?AddRef@?$CComObject@VCOPOSTotals@@@ATL@@WIA@AGKXZ 1000abf4 f i Totals.obj
 0001:00009c01       ?AddRef@?$CComObject@VCOPOSTotals@@@ATL@@WIE@AGKXZ 1000ac01 f i Totals.obj
 0001:00009c0e       ?AddRef@?$CComObject@VCOPOSTotals@@@ATL@@WII@AGKXZ 1000ac0e f i Totals.obj
 0001:00009c1b       ?AddRef@?$CComObject@VCOPOSTotals@@@ATL@@WIM@AGKXZ 1000ac1b f i Totals.obj
 0001:00009c28       ?AddRef@?$CComObject@VCOPOSTotals@@@ATL@@WJA@AGKXZ 1000ac28 f i Totals.obj
 0001:00009c35       ?AddRef@?$CComObject@VCOPOSTotals@@@ATL@@WJE@AGKXZ 1000ac35 f i Totals.obj
 0001:00009c42       ?AddRef@?$CComObject@VCOPOSTotals@@@ATL@@WJI@AGKXZ 1000ac42 f i Totals.obj
 0001:00009c4f       ?AddRef@?$CComObject@VCOPOSTotals@@@ATL@@WJM@AGKXZ 1000ac4f f i Totals.obj
 0001:00009c5c       ?AddRef@?$CComObject@VCOPOSTotals@@@ATL@@WKA@AGKXZ 1000ac5c f i Totals.obj
 0001:00009c69       ?AddRef@?$CComObject@VCOPOSTotals@@@ATL@@WKI@AGKXZ 1000ac69 f i Totals.obj
 0001:00009c76       ?AddRef@?$CComObject@VCOPOSTotals@@@ATL@@WLE@AGKXZ 1000ac76 f i Totals.obj
 0001:00009c90       ?AddRef@?$CComObjectCached@VCComClassFactory@ATL@@@ATL@@UAGKXZ 1000ac90 f i Totals.obj
 0001:00009ce0       ?AddRef@CRegObject@ATL@@UAGKXZ 1000ace0 f i Totals.obj
 0001:00009d30       ?AddReplacement@CRegObject@ATL@@UAGJPB_W0@Z 1000ad30 f i Totals.obj
 0001:00009e40       ?AddString@CParseBuffer@CRegParser@ATL@@QAEHPB_W@Z 1000ae40 f i Totals.obj
 0001:00009f30       ?AddTermFunc@CAtlModule@ATL@@QAEJP6GXK@ZK@Z 1000af30 f i Totals.obj
 0001:00009f80       ?AddValue@CRegParser@ATL@@IAEJAAVCRegKey@2@PB_WPA_W@Z 1000af80 f i Totals.obj
 0001:0000a710       ?Advise@?$CProxy_IOPOSEvents@VCOPOSTotals@@@@UAGJPAUIUnknown@@PAK@Z 1000b710 f i Totals.obj
 0001:0000a760       ?Advise@?$IConnectionPointImpl@VCOPOSTotals@@$1?DIID__IOPOSTotalsEvents@@3U_GUID@@BVCComDynamicUnkArray@ATL@@@ATL@@UAGJPAUIUnknown@@PAK@Z 1000b760 f i Totals.obj
 0001:0000a900       ?Advise@?$IConnectionPointImpl@VCOPOSTotals@@$1?IID_IPropertyNotifySink@@3U_GUID@@BVCComDynamicUnkArray@ATL@@@ATL@@UAGJPAUIUnknown@@PAK@Z 1000b900 f i Totals.obj
 0001:0000aaa0       ?Advise@?$IOleObjectImpl@VCOPOSTotals@@@ATL@@UAGJPAUIAdviseSink@@PAK@Z 1000baa0 f i Totals.obj
 0001:0000ab30       ?Allocate@?$CAtlSafeAllocBufferManager@VCCRTAllocator@ATL@@@_ATL_SAFE_ALLOCA_IMPL@ATL@@QAEPAXK@Z 1000bb30 f i Totals.obj
 0001:0000aba0       ?Allocate@?$CTempBuffer@E$0BAA@VCCRTAllocator@ATL@@@ATL@@QAEPAEI@Z 1000bba0 f i Totals.obj
 0001:0000abe0       ?Allocate@?$CTempBuffer@_W$0BAA@VCCRTAllocator@ATL@@@ATL@@QAEPA_WI@Z 1000bbe0 f i Totals.obj
 0001:0000ac20       ?Allocate@?$CTempBuffer@_W$0EAA@VCCRTAllocator@ATL@@@ATL@@QAEPA_WI@Z 1000bc20 f i Totals.obj
 0001:0000ac60       ?AllocateBytes@?$CTempBuffer@E$0BAA@VCCRTAllocator@ATL@@@ATL@@QAEPAEI@Z 1000bc60 f i Totals.obj
 0001:0000ace0       ?AllocateBytes@?$CTempBuffer@_W$0BAA@VCCRTAllocator@ATL@@@ATL@@QAEPA_WI@Z 1000bce0 f i Totals.obj
 0001:0000ad60       ?AllocateBytes@?$CTempBuffer@_W$0EAA@VCCRTAllocator@ATL@@@ATL@@QAEPA_WI@Z 1000bd60 f i Totals.obj
 0001:0000ade0       ?AllocateHeap@?$CTempBuffer@E$0BAA@VCCRTAllocator@ATL@@@ATL@@AAEXI@Z 1000bde0 f i Totals.obj
 0001:0000ae30       ?AllocateHeap@?$CTempBuffer@_W$0BAA@VCCRTAllocator@ATL@@@ATL@@AAEXI@Z 1000be30 f i Totals.obj
 0001:0000ae80       ?AllocateHeap@?$CTempBuffer@_W$0EAA@VCCRTAllocator@ATL@@@ATL@@AAEXI@Z 1000be80 f i Totals.obj
 0001:0000aed0       ?Append@CParseBuffer@CRegParser@ATL@@QAEHPB_WH@Z 1000bed0 f i Totals.obj
 0001:0000b070       ?AtlCallTermFunc@ATL@@YGXPAU_ATL_MODULE70@1@@Z 1000c070 f i Totals.obj
 0001:0000b110       ?AtlCoTaskMemCAlloc@ATL@@YAPAXKK@Z 1000c110 f i Totals.obj
 0001:0000b1a0       ?AtlCoTaskMemRecalloc@ATL@@YAPAXPAXKK@Z 1000c1a0 f i Totals.obj
 0001:0000b240       ?AtlComModuleGetClassObject@ATL@@YGJPAU_ATL_COM_MODULE70@1@ABU_GUID@@1PAPAX@Z 1000c240 f i Totals.obj
 0001:0000b4d0       ?AtlComModuleRegisterServer@ATL@@YGJPAU_ATL_COM_MODULE70@1@HPBU_GUID@@@Z 1000c4d0 f i Totals.obj
 0001:0000b660       ?AtlComModuleUnregisterServer@ATL@@YGJPAU_ATL_COM_MODULE70@1@HPBU_GUID@@@Z 1000c660 f i Totals.obj
 0001:0000b790       ?AtlComQIPtrAssign2@ATL@@YAXPAPAUIUnknown@@PAU2@ABU_GUID@@@Z 1000c790 f i Totals.obj
 0001:0000b810       ?AtlCreateTargetDC@ATL@@YGPAUHDC__@@PAU2@PAUtagDVTARGETDEVICE@@@Z 1000c810 f i Totals.obj
 0001:0000b9b0       ?AtlCrtErrorCheck@ATL@@YAHH@Z 1000c9b0 f i Totals.obj
 0001:0000ba80       ?AtlGetPerUserRegistration@ATL@@YGJPA_N@Z 1000ca80 f i Totals.obj
 0001:0000bab0       ?AtlHiMetricToPixel@ATL@@YGXPBUtagSIZE@@PAU2@@Z 1000cab0 f i Totals.obj
 0001:0000bc80       ?AtlHresultFromLastError@ATL@@YAJXZ 1000cc80 f i Totals.obj
 0001:0000bcc0       ?AtlHresultFromWin32@ATL@@YAJK@Z 1000ccc0 f i Totals.obj
 0001:0000bce0       ?AtlIPersistStreamInit_Load@ATL@@YGJPAUIStream@@PBUATL_PROPMAP_ENTRY@1@PAXPAUIUnknown@@@Z 1000cce0 f i Totals.obj
 0001:0000c140       ?AtlIPersistStreamInit_Save@ATL@@YGJPAUIStream@@HPBUATL_PROPMAP_ENTRY@1@PAXPAUIUnknown@@@Z 1000d140 f i Totals.obj
 0001:0000c520       ?AtlInternalOleLoadFromStream@ATL@@YAJPAUIStream@@ABU_GUID@@PAPAXTClassesAllowedInStream@1@K@Z 1000d520 f i Totals.obj
 0001:0000c7c0       ?AtlInternalQueryInterface@ATL@@YGJPAXPBU_ATL_INTMAP_ENTRY@1@ABU_GUID@@PAPAX@Z 1000d7c0 f i Totals.obj
 0001:0000c9f0       ?AtlLoadTypeLib@ATL@@YGJPAUHINSTANCE__@@PB_WPAPA_WPAPAUITypeLib@@@Z 1000d9f0 f i Totals.obj
 0001:0000ce50       ?AtlModuleAddTermFunc@ATL@@YGJPAU_ATL_MODULE70@1@P6GXK@ZK@Z 1000de50 f i Totals.obj
 0001:0000cfb0       ?AtlRegisterClassCategoriesHelper@ATL@@YGJABU_GUID@@PBU_ATL_CATMAP_ENTRY@1@H@Z 1000dfb0 f i Totals.obj
 0001:0000d690       ?AtlRegisterTypeLib@ATL@@YGJPAUHINSTANCE__@@PB_W@Z 1000e690 f i Totals.obj
 0001:0000d9d0       ?AtlThrowImpl@ATL@@YGXJ@Z  1000e9d0 f i Totals.obj
 0001:0000da80       ?AtlUnRegisterTypeLib@ATL@@YGJPAUHINSTANCE__@@PB_W@Z 1000ea80 f i Totals.obj
 0001:0000dc90       ?AtlWinModuleAddCreateWndData@ATL@@YGXPAU_ATL_WIN_MODULE70@1@PAU_AtlCreateWndData@1@PAX@Z 1000ec90 f i Totals.obj
 0001:0000de00       ?AtlWinModuleExtractCreateWndData@ATL@@YGPAXPAU_ATL_WIN_MODULE70@1@@Z 1000ee00 f i Totals.obj
 0001:0000df80       ?AtlWinModuleRegisterClassExW@ATL@@YGGPAU_ATL_WIN_MODULE70@1@PBUtagWNDCLASSEXW@@@Z 1000ef80 f i Totals.obj
 0001:0000e050       ?AtlWinModuleRegisterWndClassInfoW@ATL@@YGGPAU_ATL_WIN_MODULE70@1@PAU_ATL_BASE_MODULE70@1@PAU_ATL_WNDCLASSINFOW@1@PAP6GJPAUHWND__@@IIJ@Z@Z 1000f050 f i Totals.obj
 0001:0000e0e0       ?Attach@?$CAutoVectorPtr@_W@ATL@@QAEXPA_W@Z 1000f0e0 f i Totals.obj
 0001:0000e140       ?Attach@CComBSTR@ATL@@QAEXPA_W@Z 1000f140 f i Totals.obj
 0001:0000e190       ?Attach@CRegKey@ATL@@QAEXPAUHKEY__@@@Z 1000f190 f i Totals.obj
 0001:0000e200       ?CanForceRemoveKey@CRegParser@ATL@@IAEHPB_W@Z 1000f200 f i Totals.obj
 0001:0000e270       ?ChToByte@CRegParser@ATL@@KAE_W@Z 1000f270 f i Totals.obj
 0001:0000e390       ?ChangeType@CComVariant@ATL@@QAEJGPBUtagVARIANT@@@Z 1000f390 f i Totals.obj
 0001:0000e3f0       ?Cleanup@CComTypeInfoHolder@ATL@@SGXK@Z 1000f3f0 f i Totals.obj
 0001:0000e4c0       ?Clear@CComVariant@ATL@@QAEJXZ 1000f4c0 f i Totals.obj
 0001:0000e500       ?ClearReplacements@CExpansionVector@ATL@@QAEJXZ 1000f500 f i Totals.obj
 0001:0000e590       ?ClearReplacements@CRegObject@ATL@@UAGJXZ 1000f590 f i Totals.obj
 0001:0000e5e0       ?Clone@?$CComEnumImpl@UIEnumConnectionPoints@@$1?_GUID_b196b285_bab4_101a_b69c_00aa00341d07@@3U__s_GUID@@BPAUIConnectionPoint@@V?$_CopyInterface@UIConnectionPoint@@@ATL@@@ATL@@UAGJPAPAUIEnumConnectionPoints@@@Z 1000f5e0 f i Totals.obj
 0001:0000e750       ?Clone@?$CComEnumImpl@UIEnumConnections@@$1?_GUID_b196b287_bab4_101a_b69c_00aa00341d07@@3U__s_GUID@@BUtagCONNECTDATA@@V?$_Copy@UtagCONNECTDATA@@@ATL@@@ATL@@UAGJPAPAUIEnumConnections@@@Z 1000f750 f i Totals.obj
 0001:0000e8c0       ?Close@?$IOleObjectImpl@VCOPOSTotals@@@ATL@@UAGJK@Z 1000f8c0 f i Totals.obj
 0001:0000e950       ?Close@CRegKey@ATL@@QAEJXZ 1000f950 f i Totals.obj
 0001:0000e9c0       ?ContextSensitiveHelp@?$IOleInPlaceActiveObjectImpl@VCOPOSTotals@@@ATL@@UAGJH@Z 1000f9c0 f i Totals.obj
 0001:0000ea30       ?ContextSensitiveHelp@?$IOleInPlaceObjectWindowlessImpl@VCOPOSTotals@@@ATL@@UAGJH@Z 1000fa30 f i Totals.obj
 0001:0000eaa0       ?ControlQueryInterface@?$CComControl@VCOPOSTotals@@V?$CWindowImpl@VCOPOSTotals@@VCWindow@ATL@@V?$CWinTraits@$0FGAAAAAA@$0A@@3@@ATL@@@ATL@@UAEJABU_GUID@@PAPAX@Z 1000faa0 f i Totals.obj
 0001:0000eb20       ?CreateControlWindow@?$CComControl@VCOPOSTotals@@V?$CWindowImpl@VCOPOSTotals@@VCWindow@ATL@@V?$CWinTraits@$0FGAAAAAA@$0A@@3@@ATL@@@ATL@@UAEPAUHWND__@@PAU3@AAUtagRECT@@@Z 1000fb20 f i Totals.obj
 0001:0000eba0       ?CreateInstance@?$CComCreator@V?$CComAggObject@VCOPOSTotals@@@ATL@@@ATL@@SGJPAXABU_GUID@@PAPAX@Z 1000fba0 f i Totals.obj
 0001:0000ed20       ?CreateInstance@?$CComCreator@V?$CComObject@VCOPOSTotals@@@ATL@@@ATL@@SGJPAXABU_GUID@@PAPAX@Z 1000fd20 f i Totals.obj
 0001:0000eeb0       ?CreateInstance@?$CComObject@V?$CComEnum@UIEnumConnectionPoints@@$1?_GUID_b196b285_bab4_101a_b69c_00aa00341d07@@3U__s_GUID@@BPAUIConnectionPoint@@V?$_CopyInterface@UIConnectionPoint@@@ATL@@VCComSingleThreadModel@6@@ATL@@@ATL@@SGJPAPAV12@@Z 1000feb0 f i Totals.obj
 0001:0000f020       ?CreateInstance@?$CComObject@V?$CComEnum@UIEnumConnections@@$1?_GUID_b196b287_bab4_101a_b69c_00aa00341d07@@3U__s_GUID@@BUtagCONNECTDATA@@V?$_Copy@UtagCONNECTDATA@@@ATL@@VCComSingleThreadModel@6@@ATL@@@ATL@@SGJPAPAV12@@Z 10010020 f i Totals.obj
 0001:0000f190       ?CreateInstance@CComClassFactory@ATL@@UAGJPAUIUnknown@@ABU_GUID@@PAPAX@Z 10010190 f i Totals.obj
 0001:0000f280       ?DAdvise@?$IDataObjectImpl@VCOPOSTotals@@@ATL@@UAGJPAUtagFORMATETC@@KPAUIAdviseSink@@PAK@Z 10010280 f i Totals.obj
 0001:0000f380       ?DEVMODEOLE2T_EX@@YAPAU_devicemodeW@@PAU1@@Z 10010380 f i Totals.obj
 0001:0000f390       ?DUnadvise@?$IDataObjectImpl@VCOPOSTotals@@@ATL@@UAGJK@Z 10010390 f i Totals.obj
 0001:0000f460       ?Decrement@CComMultiThreadModel@ATL@@SGKPAJ@Z 10010460 f i Totals.obj
 0001:0000f480       ?Decrement@CComSingleThreadModel@ATL@@SGKPAJ@Z 10010480 f i Totals.obj
 0001:0000f4a0       ?DefWindowProcW@?$CWindowImplBaseT@VCWindow@ATL@@V?$CWinTraits@$0FGAAAAAA@$0A@@2@@ATL@@QAEJIIJ@Z 100104a0 f i Totals.obj
 0001:0000f4f0       ?DefaultReflectionHandler@?$CWindowImplRoot@VCWindow@ATL@@@ATL@@SAHPAUHWND__@@IIJAAJ@Z 100104f0 f i Totals.obj
 0001:0000f6e0       ?DeleteSubKey@CRegKey@ATL@@QAEJPB_W@Z 100106e0 f i Totals.obj
 0001:0000f7f0       ?DeleteValue@CRegKey@ATL@@QAEJPB_W@Z 100107f0 f i Totals.obj
 0001:0000f860       ?Detach@?$CAutoVectorPtr@_W@ATL@@QAEPA_WXZ 10010860 f i Totals.obj
 0001:0000f890       ?Detach@?$CComPtrBase@UIPersistStream@@@ATL@@QAEPAUIPersistStream@@XZ 10010890 f i Totals.obj
 0001:0000f8c0       ?Detach@?$CComPtrBase@UITypeInfo@@@ATL@@QAEPAUITypeInfo@@XZ 100108c0 f i Totals.obj
 0001:0000f8f0       ?Detach@?$CComPtrBase@UIUnknown@@@ATL@@QAEPAUIUnknown@@XZ 100108f0 f i Totals.obj
 0001:0000f920       ?Detach@CComBSTR@ATL@@QAEPA_WXZ 10010920 f i Totals.obj
 0001:0000f950       ?Detach@CParseBuffer@CRegParser@ATL@@QAEPA_WXZ 10010950 f i Totals.obj
 0001:0000f9a0       ?Detach@CRegKey@ATL@@QAEPAUHKEY__@@XZ 100109a0 f i Totals.obj
 0001:0000f9f0       ?DoEvent@COPOSTotals@@IAEXIIJ@Z 100109f0 f i Totals.obj
 0001:0000fb30       ?DoVerb@?$IOleObjectImpl@VCOPOSTotals@@@ATL@@UAGJJPAUtagMSG@@PAUIOleClientSite@@JPAUHWND__@@PBUtagRECT@@@Z 10010b30 f i Totals.obj
 0001:0000fd40       ?DoVerbDiscardUndo@?$IOleObjectImpl@VCOPOSTotals@@@ATL@@QAEJPBUtagRECT@@PAUHWND__@@@Z 10010d40 f i Totals.obj
 0001:0000fdb0       ?DoVerbHide@?$IOleObjectImpl@VCOPOSTotals@@@ATL@@QAEJPBUtagRECT@@PAUHWND__@@@Z 10010db0 f i Totals.obj
 0001:0000fe60       ?DoVerbInPlaceActivate@?$IOleObjectImpl@VCOPOSTotals@@@ATL@@QAEJPBUtagRECT@@PAUHWND__@@@Z 10010e60 f i Totals.obj
 0001:0000ff00       ?DoVerbOpen@?$IOleObjectImpl@VCOPOSTotals@@@ATL@@QAEJPBUtagRECT@@PAUHWND__@@@Z 10010f00 f i Totals.obj
 0001:0000ff70       ?DoVerbPrimary@?$IOleObjectImpl@VCOPOSTotals@@@ATL@@QAEJPBUtagRECT@@PAUHWND__@@@Z 10010f70 f i Totals.obj
 0001:00010080       ?DoVerbProperties@CComControlBase@ATL@@QAEJPBUtagRECT@@PAUHWND__@@@Z 10011080 f i Totals.obj
 0001:000103a0       ?DoVerbShow@?$IOleObjectImpl@VCOPOSTotals@@@ATL@@QAEJPBUtagRECT@@PAUHWND__@@@Z 100113a0 f i Totals.obj
 0001:00010430       ?DoVerbUIActivate@?$IOleObjectImpl@VCOPOSTotals@@@ATL@@QAEJPBUtagRECT@@PAUHWND__@@@Z 10011430 f i Totals.obj
 0001:000104d0       ?DoesVerbActivate@CComControlBase@ATL@@QAEHJ@Z 100114d0 f i Totals.obj
 0001:00010540       ?DoesVerbUIActivate@CComControlBase@ATL@@QAEHJ@Z 10011540 f i Totals.obj
 0001:000105c0       ?Draw@?$IViewObjectExImpl@VCOPOSTotals@@@ATL@@UAGJKJPAXPAUtagDVTARGETDEVICE@@PAUHDC__@@2PBU_RECTL@@3P6GHK@ZK@Z 100115c0 f i Totals.obj
 0001:00010660       ?Empty@CComBSTR@ATL@@QAEXXZ 10011660 f i Totals.obj
 0001:000106a0       ?EnableModeless@?$IOleInPlaceActiveObjectImpl@VCOPOSTotals@@@ATL@@UAGJH@Z 100116a0 f i Totals.obj
 0001:00010700       ?EndOfVar@CRegParser@ATL@@IAEHXZ 10011700 f i Totals.obj
 0001:00010770       ?EnsureTI@CComTypeInfoHolder@ATL@@QAEJK@Z 10011770 f i Totals.obj
 0001:000107d0       ?EnumAdvise@?$IOleObjectImpl@VCOPOSTotals@@@ATL@@UAGJPAPAUIEnumSTATDATA@@@Z 100117d0 f i Totals.obj
 0001:000108e0       ?EnumConnectionPoints@?$IConnectionPointContainerImpl@VCOPOSTotals@@@ATL@@UAGJPAPAUIEnumConnectionPoints@@@Z 100118e0 f i Totals.obj
 0001:00010d10       ?EnumConnections@?$IConnectionPointImpl@VCOPOSTotals@@$1?DIID__IOPOSTotalsEvents@@3U_GUID@@BVCComDynamicUnkArray@ATL@@@ATL@@UAGJPAPAUIEnumConnections@@@Z 10011d10 f i Totals.obj
 0001:00010f60       ?EnumConnections@?$IConnectionPointImpl@VCOPOSTotals@@$1?IID_IPropertyNotifySink@@3U_GUID@@BVCComDynamicUnkArray@ATL@@@ATL@@UAGJPAPAUIEnumConnections@@@Z 10011f60 f i Totals.obj
 0001:000111b0       ?EnumDAdvise@?$IDataObjectImpl@VCOPOSTotals@@@ATL@@UAGJPAPAUIEnumSTATDATA@@@Z 100121b0 f i Totals.obj
 0001:000112b0       ?EnumFormatEtc@?$IDataObjectImpl@VCOPOSTotals@@@ATL@@UAGJKPAPAUIEnumFORMATETC@@@Z 100122b0 f i Totals.obj
 0001:00011320       ?EnumVerbs@?$IOleObjectImpl@VCOPOSTotals@@@ATL@@UAGJPAPAUIEnumOLEVERB@@@Z 10012320 f i Totals.obj
 0001:000113d0       ?EscapeSingleQuote@CAtlModule@ATL@@SAXPA_WIPB_W@Z 100123d0 f i Totals.obj
 0001:00011480       ?ExtractCreateWndData@CAtlWinModule@ATL@@QAEPAXXZ 10012480 f i Totals.obj
 0001:000114b0       ?FAccessAllowed@?$IObjectSafetyImpl@VCOPOSTotals@@$02@ATL@@MAEHXZ 100124b0 f i Totals.obj
 0001:000114d0       ?FinalConstruct@?$CComAggObject@VCOPOSTotals@@@ATL@@QAEJXZ 100124d0 f i Totals.obj
 0001:00011510       ?FinalConstruct@CComObjectRootBase@ATL@@QAEJXZ 10012510 f i Totals.obj
 0001:00011530       ?FinalConstruct@CRegObject@ATL@@QAEJXZ 10012530 f i Totals.obj
 0001:00011560       ?FinalRelease@?$CComAggObject@VCOPOSTotals@@@ATL@@QAEXXZ 10012560 f i Totals.obj
 0001:000115a0       ?FinalRelease@CComObjectRootBase@ATL@@QAEXXZ 100125a0 f i Totals.obj
 0001:000115c0       ?FindConnectionPoint@?$IConnectionPointContainerImpl@VCOPOSTotals@@@ATL@@UAGJABU_GUID@@PAPAUIConnectionPoint@@@Z 100125c0 f i Totals.obj
 0001:00011710       ?FindKey@?$CSimpleMap@PA_WPA_WVCExpansionVectorEqualHelper@ATL@@@ATL@@QBEHABQA_W@Z 10012710 f i Totals.obj
 0001:00011780       ?FireTheEvent@?$CProxy_IOPOSEvents@VCOPOSTotals@@@@IAEXPAUIUnknown@@PAVOposVariant@@IAAJPB_WJ@Z 10012780 f i Totals.obj
 0001:000118f0       ?FireViewChange@CComControlBase@ATL@@QAEJXZ 100128f0 f i Totals.obj
 0001:000119b0       ?Fire_DirectIOEvent@?$CProxy_IOPOSEvents@VCOPOSTotals@@@@QAEXJPAJPAPA_W@Z 100129b0 f i Totals.obj
 0001:00011b80       ?Fire_StatusUpdateEvent@?$CProxy_IOPOSEvents@VCOPOSTotals@@@@QAEXJ@Z 10012b80 f i Totals.obj
 0001:00011ce0       ?FormatWindowClassName@AtlModuleRegisterWndClassInfoParamW@ATL@@SAXPA_WKPAX@Z 10012ce0 f i Totals.obj
 0001:00011d10       ?Free@?$CAutoVectorPtr@_W@ATL@@QAEXXZ 10012d10 f i Totals.obj
 0001:00011d60       ?FreeHeap@?$CTempBuffer@E$0BAA@VCCRTAllocator@ATL@@@ATL@@AAEXXZ 10012d60 f i Totals.obj
 0001:00011d90       ?FreeHeap@?$CTempBuffer@_W$0BAA@VCCRTAllocator@ATL@@@ATL@@AAEXXZ 10012d90 f i Totals.obj
 0001:00011dc0       ?FreeHeap@?$CTempBuffer@_W$0EAA@VCCRTAllocator@ATL@@@ATL@@AAEXXZ 10012dc0 f i Totals.obj
 0001:00011df0       ?Freeze@?$IViewObjectExImpl@VCOPOSTotals@@@ATL@@UAGJKJPAXPAK@Z 10012df0 f i Totals.obj
 0001:00011e60       ?GenerateError@CRegParser@ATL@@IAEJI@Z 10012e60 f i Totals.obj
 0001:00011e80       ?GetAdvise@?$IViewObjectExImpl@VCOPOSTotals@@@ATL@@UAGJPAK0PAPAUIAdviseSink@@@Z 10012e80 f i Totals.obj
 0001:00011f80       ?GetAmbientLocaleID@CComControlBase@ATL@@QAEJAAK@Z 10012f80 f i Totals.obj
 0001:00012060       ?GetAmbientProperty@CComControlBase@ATL@@QAEJJAAUtagVARIANT@@@Z 10013060 f i Totals.obj
 0001:000120b0       ?GetAmbientUserMode@CComControlBase@ATL@@QAEJAAH@Z 100130b0 f i Totals.obj
 0001:000121b0       ?GetAppId@?$CAtlModuleT@VCComModule@ATL@@@ATL@@SAPB_WXZ 100131b0 f i Totals.obj
 0001:000121c0       ?GetAt@CComDynamicUnkArray@ATL@@QAEPAUIUnknown@@H@Z 100131c0 f i Totals.obj
 0001:00012240       ?GetCanonicalFormatEtc@?$IDataObjectImpl@VCOPOSTotals@@@ATL@@UAGJPAUtagFORMATETC@@0@Z 10013240 f i Totals.obj
 0001:000122b0       ?GetClassID@?$IPersistStorageImpl@VCOPOSTotals@@@ATL@@UAGJPAU_GUID@@@Z 100132b0 f i Totals.obj
 0001:00012330       ?GetClassID@?$IPersistStreamInitImpl@VCOPOSTotals@@@ATL@@UAGJPAU_GUID@@@Z 10013330 f i Totals.obj
 0001:000123b0       ?GetClassInfoExW@AtlModuleRegisterWndClassInfoParamW@ATL@@SAHPAUHINSTANCE__@@PB_WPAUtagWNDCLASSEXW@@@Z 100133b0 f i Totals.obj
 0001:000123e0       ?GetClassInfoW@?$IProvideClassInfo2Impl@$1?CLSID_OPOSTotals@@3U_GUID@@B$1?DIID__IOPOSTotalsEvents@@3U2@B$1?LIBID_OposTotals_CCO@@3U2@B$00$0A@VCComTypeInfoHolder@ATL@@@ATL@@UAGJPAPAUITypeInfo@@@Z 100133e0 f i Totals.obj
 0001:00012400       ?GetClassObject@CComModule@ATL@@QAEJABU_GUID@@0PAPAX@Z 10013400 f i Totals.obj
 0001:00012600       ?GetClientSite@?$IOleObjectImpl@VCOPOSTotals@@@ATL@@UAGJPAPAUIOleClientSite@@@Z 10013600 f i Totals.obj
 0001:00012690       ?GetClipboardData@?$IOleObjectImpl@VCOPOSTotals@@@ATL@@UAGJKPAPAUIDataObject@@@Z 10013690 f i Totals.obj
 0001:00012700       ?GetCodeAddress@CDynamicStdCallThunk2@ATL@@QAEPAXXZ 10013700 f i Totals.obj
 0001:00012730       ?GetColorSet@?$IViewObjectExImpl@VCOPOSTotals@@@ATL@@UAGJKJPAXPAUtagDVTARGETDEVICE@@PAUHDC__@@PAPAUtagLOGPALETTE@@@Z 10013730 f i Totals.obj
 0001:000127a0       ?GetConnMap@COPOSTotals@@SAPBU_ATL_CONNMAP_ENTRY@ATL@@PAH@Z 100137a0 f i Totals.obj
 0001:000128e0       ?GetConnectionInterface@?$IConnectionPointImpl@VCOPOSTotals@@$1?DIID__IOPOSTotalsEvents@@3U_GUID@@BVCComDynamicUnkArray@ATL@@@ATL@@UAGJPAU_GUID@@@Z 100138e0 f i Totals.obj
 0001:00012920       ?GetConnectionInterface@?$IConnectionPointImpl@VCOPOSTotals@@$1?IID_IPropertyNotifySink@@3U_GUID@@BVCComDynamicUnkArray@ATL@@@ATL@@UAGJPAU_GUID@@@Z 10013920 f i Totals.obj
 0001:00012960       ?GetConnectionPointContainer@?$IConnectionPointImpl@VCOPOSTotals@@$1?DIID__IOPOSTotalsEvents@@3U_GUID@@BVCComDynamicUnkArray@ATL@@@ATL@@UAGJPAPAUIConnectionPointContainer@@@Z 10013960 f i Totals.obj
 0001:000129d0       ?GetConnectionPointContainer@?$IConnectionPointImpl@VCOPOSTotals@@$1?IID_IPropertyNotifySink@@3U_GUID@@BVCComDynamicUnkArray@ATL@@@ATL@@UAGJPAPAUIConnectionPointContainer@@@Z 100139d0 f i Totals.obj
 0001:00012a40       ?GetContentExtent@?$IQuickActivateImpl@VCOPOSTotals@@@ATL@@UAGJPAUtagSIZE@@@Z 10013a40 f i Totals.obj
 0001:00012ad0       ?GetControlInfo@?$IOleControlImpl@VCOPOSTotals@@@ATL@@UAGJPAUtagCONTROLINFO@@@Z 10013ad0 f i Totals.obj
 0001:00012b40       ?GetCookie@CComDynamicUnkArray@ATL@@QAGKPAPAUIUnknown@@@Z 10013b40 f i Totals.obj
 0001:00012c00       ?GetData@?$IDataObjectImpl@VCOPOSTotals@@@ATL@@UAGJPAUtagFORMATETC@@PAUtagSTGMEDIUM@@@Z 10013c00 f i Totals.obj
 0001:00012c90       ?GetData@CAtlSafeAllocBufferNode@?$CAtlSafeAllocBufferManager@VCCRTAllocator@ATL@@@_ATL_SAFE_ALLOCA_IMPL@ATL@@QAEPAXXZ 10013c90 f i Totals.obj
 0001:00012cb0       ?GetDataHere@?$IDataObjectImpl@VCOPOSTotals@@@ATL@@UAGJPAUtagFORMATETC@@PAUtagSTGMEDIUM@@@Z 10013cb0 f i Totals.obj
 0001:00012d20       ?GetDropTarget@?$IOleInPlaceObjectWindowlessImpl@VCOPOSTotals@@@ATL@@UAGJPAPAUIDropTarget@@@Z 10013d20 f i Totals.obj
 0001:00012d90       ?GetExtent@?$IOleObjectImpl@VCOPOSTotals@@@ATL@@UAGJKPAUtagSIZE@@@Z 10013d90 f i Totals.obj
 0001:00012e30       ?GetExtent@?$IViewObjectExImpl@VCOPOSTotals@@@ATL@@UAGJKJPAUtagDVTARGETDEVICE@@PAUtagSIZE@@@Z 10013e30 f i Totals.obj
 0001:00012f00       ?GetGITPtr@CAtlModule@ATL@@UAEJPAPAUIGlobalInterfaceTable@@@Z 10013f00 f i Totals.obj
 0001:00013000       ?GetGUID@?$IProvideClassInfo2Impl@$1?CLSID_OPOSTotals@@3U_GUID@@B$1?DIID__IOPOSTotalsEvents@@3U2@B$1?LIBID_OposTotals_CCO@@3U2@B$00$0A@VCComTypeInfoHolder@ATL@@@ATL@@UAGJKPAU_GUID@@@Z 10014000 f i Totals.obj
 0001:00013080       ?GetIDsOfNames@?$IDispatchImpl@UIOPOSTotals@@$1?IID_IOPOSTotals@@3U_GUID@@B$1?LIBID_OposTotals_CCO@@3U3@B$00$0A@VCComTypeInfoHolder@ATL@@@ATL@@UAGJABU_GUID@@PAPA_WIKPAJ@Z 10014080 f i Totals.obj
 0001:000130b0       ?GetIDsOfNames@CComTypeInfoHolder@ATL@@QAEJABU_GUID@@PAPA_WIKPAJ@Z 100140b0 f i Totals.obj
 0001:00013260       ?GetInterfaceSafetyOptions@?$IObjectSafetyImpl@VCOPOSTotals@@$02@ATL@@UAGJABU_GUID@@PAK1@Z 10014260 f i Totals.obj
 0001:000133d0       ?GetKeyAt@?$CSimpleMap@PA_WPA_WVCExpansionVectorEqualHelper@ATL@@@ATL@@QBEAAPA_WH@Z 100143d0 f i Totals.obj
 0001:00013450       ?GetLockCount@CAtlModule@ATL@@UAEJXZ 10014450 f i Totals.obj
 0001:00013470       ?GetMiscStatus@?$IOleObjectImpl@VCOPOSTotals@@@ATL@@UAGJKPAK@Z 10014470 f i Totals.obj
 0001:000134e0       ?GetMoniker@?$IOleObjectImpl@VCOPOSTotals@@@ATL@@UAGJKKPAPAUIMoniker@@@Z 100144e0 f i Totals.obj
 0001:00013550       ?GetNaturalExtent@?$IViewObjectExImpl@VCOPOSTotals@@@ATL@@UAGJKJPAUtagDVTARGETDEVICE@@PAUHDC__@@PAUtagExtentInfo@@PAUtagSIZE@@@Z 10014550 f i Totals.obj
 0001:00013670       ?GetObjectCLSID@?$CComCoClass@VCOPOSTotals@@$1?CLSID_OPOSTotals@@3U_GUID@@B@ATL@@SGABU_GUID@@XZ 10014670 f i Totals.obj
 0001:00013680       ?GetPages@?$ISpecifyPropertyPagesImpl@VCOPOSTotals@@@ATL@@UAGJPAUtagCAUUID@@@Z 10014680 f i Totals.obj
 0001:000136f0       ?GetPagesHelper@?$ISpecifyPropertyPagesImpl@VCOPOSTotals@@@ATL@@IAEJPAUtagCAUUID@@PBUATL_PROPMAP_ENTRY@2@@Z 100146f0 f i Totals.obj
 0001:000138f0       ?GetProperty@?$CComPtr@UIDispatch@@@ATL@@QAEJJPAUtagVARIANT@@@Z 100148f0 f i Totals.obj
 0001:00013930       ?GetProperty@?$CComPtr@UIDispatch@@@ATL@@SAJPAUIDispatch@@JPAUtagVARIANT@@@Z 10014930 f i Totals.obj
 0001:00013a90       ?GetPropertyMap@COPOSTotals@@SAPBUATL_PROPMAP_ENTRY@ATL@@XZ 10014a90 f i Totals.obj
 0001:00013aa0       ?GetRect@?$IViewObjectExImpl@VCOPOSTotals@@@ATL@@UAGJKPAU_RECTL@@@Z 10014aa0 f i Totals.obj
 0001:00013b10       ?GetSize@?$CSimpleMap@PA_WPA_WVCExpansionVectorEqualHelper@ATL@@@ATL@@QBEHXZ 10014b10 f i Totals.obj
 0001:00013b30       ?GetSize@CComDynamicUnkArray@ATL@@QBEHXZ 10014b30 f i Totals.obj
 0001:00013b50       ?GetSizeMax@?$IPersistStreamInitImpl@VCOPOSTotals@@@ATL@@UAGJPAT_ULARGE_INTEGER@@@Z 10014b50 f i Totals.obj
 0001:000140c0       ?GetSizeMax@CComVariant@ATL@@QBEJPAT_ULARGE_INTEGER@@@Z 100150c0 f i Totals.obj
 0001:00014420       ?GetStreamSize@CComBSTR@ATL@@SAKPA_W@Z 10015420 f i Totals.obj
 0001:00014470       ?GetTI@CComTypeInfoHolder@ATL@@QAEJK@Z 10015470 f i Totals.obj
 0001:00014c80       ?GetTI@CComTypeInfoHolder@ATL@@QAEJKPAPAUITypeInfo@@@Z 10015c80 f i Totals.obj
 0001:00014d40       ?GetTypeInfo@?$IDispatchImpl@UIOPOSTotals@@$1?IID_IOPOSTotals@@3U_GUID@@B$1?LIBID_OposTotals_CCO@@3U3@B$00$0A@VCComTypeInfoHolder@ATL@@@ATL@@UAGJIKPAPAUITypeInfo@@@Z 10015d40 f i Totals.obj
 0001:00014d70       ?GetTypeInfo@CComTypeInfoHolder@ATL@@QAEJIKPAPAUITypeInfo@@@Z 10015d70 f i Totals.obj
 0001:00014db0       ?GetTypeInfoCount@?$IDispatchImpl@UIOPOSTotals@@$1?IID_IOPOSTotals@@3U_GUID@@B$1?LIBID_OposTotals_CCO@@3U3@B$00$0A@VCComTypeInfoHolder@ATL@@@ATL@@UAGJPAI@Z 10015db0 f i Totals.obj
 0001:00014dd0       ?GetUnknown@CComDynamicUnkArray@ATL@@QAGPAUIUnknown@@K@Z 10015dd0 f i Totals.obj
 0001:00014e40       ?GetUnknown@COPOSTotals@@QAEPAUIUnknown@@XZ 10015e40 f i Totals.obj
 0001:00014e70       ?GetUserClassID@?$IOleObjectImpl@VCOPOSTotals@@@ATL@@UAGJPAU_GUID@@@Z 10015e70 f i Totals.obj
 0001:00014f20       ?GetUserType@?$IOleObjectImpl@VCOPOSTotals@@@ATL@@UAGJKPAPA_W@Z 10015f20 f i Totals.obj
 0001:00014f90       ?GetValueAt@?$CSimpleMap@PA_WPA_WVCExpansionVectorEqualHelper@ATL@@@ATL@@QBEAAPA_WH@Z 10015f90 f i Totals.obj
 0001:00015010       ?GetViewStatus@?$IViewObjectExImpl@VCOPOSTotals@@@ATL@@UAGJPAK@Z 10016010 f i Totals.obj
 0001:000150d0       ?GetWNDPROC@CWndProcThunk@ATL@@QAEP6GJPAUHWND__@@IIJ@ZXZ 100160d0 f i Totals.obj
 0001:00015100       ?GetWindow@?$IOleInPlaceActiveObjectImpl@VCOPOSTotals@@@ATL@@UAGJPAPAUHWND__@@@Z 10016100 f i Totals.obj
 0001:000151d0       ?GetWindow@?$IOleInPlaceObjectWindowlessImpl@VCOPOSTotals@@@ATL@@UAGJPAPAUHWND__@@@Z 100161d0 f i Totals.obj
 0001:000152a0       ?GetWindowLongPtrW@@YAJPAUHWND__@@H@Z 100162a0 f i Totals.obj
 0001:000152d0       ?GetWindowProc@?$CWindowImplBaseT@VCWindow@ATL@@V?$CWinTraits@$0FGAAAAAA@$0A@@2@@ATL@@UAEP6GJPAUHWND__@@IIJ@ZXZ 100162d0 f i Totals.obj
 0001:000152f0       ?GetWndCaption@?$CWindowImpl@VCOPOSTotals@@VCWindow@ATL@@V?$CWinTraits@$0FGAAAAAA@$0A@@3@@ATL@@SAPB_WXZ 100162f0 f i Totals.obj
 0001:00015300       ?GetWndClassInfo@?$CWindowImpl@VCOPOSTotals@@VCWindow@ATL@@V?$CWinTraits@$0FGAAAAAA@$0A@@3@@ATL@@SAAAU_ATL_WNDCLASSINFOW@2@XZ 10016300 f i Totals.obj
 0001:00015310       ?GetWndClassName@CWindow@ATL@@SAPB_WXZ 10016310 f i Totals.obj
 0001:00015320       ?GetWndExStyle@?$CWinTraits@$0FGAAAAAA@$0A@@ATL@@SAKK@Z 10016320 f i Totals.obj
 0001:00015350       ?GetWndExStyle@?$CWindowImplBaseT@VCWindow@ATL@@V?$CWinTraits@$0FGAAAAAA@$0A@@2@@ATL@@SAKK@Z 10016350 f i Totals.obj
 0001:00015370       ?GetWndStyle@?$CWinTraits@$0FGAAAAAA@$0A@@ATL@@SAKK@Z 10016370 f i Totals.obj
 0001:000153a0       ?GetWndStyle@?$CWindowImplBaseT@VCWindow@ATL@@V?$CWinTraits@$0FGAAAAAA@$0A@@2@@ATL@@SAKK@Z 100163a0 f i Totals.obj
 0001:000153c0       ?GetZoomInfo@CComControlBase@ATL@@QAEXAAUATL_DRAWINFO@@@Z 100163c0 f i Totals.obj
 0001:00015530       ?HKeyFromString@CRegParser@ATL@@KAPAUHKEY__@@PA_W@Z 10016530 f i Totals.obj
 0001:000155a0       ?HandsOffStorage@?$IPersistStorageImpl@VCOPOSTotals@@@ATL@@UAGJXZ 100165a0 f i Totals.obj
 0001:00015600       ?HasSubKeys@CRegParser@ATL@@IAEHPAUHKEY__@@@Z 10016600 f i Totals.obj
 0001:00015710       ?IDataObject_GetData@CComControlBase@ATL@@QAEJPAUtagFORMATETC@@PAUtagSTGMEDIUM@@@Z 10016710 f i Totals.obj
 0001:00015b30       ?IOleInPlaceObject_InPlaceDeactivate@CComControlBase@ATL@@QAEJXZ 10016b30 f i Totals.obj
 0001:00015d30       ?IOleInPlaceObject_SetObjectRects@CComControlBase@ATL@@QAEJPBUtagRECT@@0@Z 10016d30 f i Totals.obj
 0001:00015ef0       ?IOleInPlaceObject_UIDeactivate@CComControlBase@ATL@@QAEJXZ 10016ef0 f i Totals.obj
 0001:00016160       ?IOleObject_Advise@CComControlBase@ATL@@QAEJPAUIAdviseSink@@PAK@Z 10017160 f i Totals.obj
 0001:00016210       ?IOleObject_Close@CComControlBase@ATL@@QAEJK@Z 10017210 f i Totals.obj
 0001:000164c0       ?IOleObject_GetClientSite@CComControlBase@ATL@@QAEJPAPAUIOleClientSite@@@Z 100174c0 f i Totals.obj
 0001:00016560       ?IOleObject_SetClientSite@CComControlBase@ATL@@QAEJPAUIOleClientSite@@@Z 10017560 f i Totals.obj
 0001:00016630       ?IOleObject_SetExtent@CComControlBase@ATL@@QAEJKPAUtagSIZE@@@Z 10017630 f i Totals.obj
 0001:00016770       ?IPSI_GetIPersistStreamInit@?$IPersistStorageImpl@VCOPOSTotals@@@ATL@@AAEPAUIPersistStreamInit@@XZ 10017770 f i Totals.obj
 0001:00016840       ?IPersistStreamInit_Load@?$IPersistStreamInitImpl@VCOPOSTotals@@@ATL@@QAEJPAUIStream@@PBUATL_PROPMAP_ENTRY@2@@Z 10017840 f i Totals.obj
 0001:000168c0       ?IPersistStreamInit_Save@?$IPersistStreamInitImpl@VCOPOSTotals@@@ATL@@QAEJPAUIStream@@HPBUATL_PROPMAP_ENTRY@2@@Z 100178c0 f i Totals.obj
 0001:00016950       ?IQuickActivate_QuickActivate@CComControlBase@ATL@@QAEJPAUtagQACONTAINER@@PAUtagQACONTROL@@@Z 10017950 f i Totals.obj
 0001:00016fa0       ?IViewObject_Draw@CComControlBase@ATL@@QAEJKJPAXPAUtagDVTARGETDEVICE@@PAUHDC__@@2PBU_RECTL@@3@Z 10017fa0 f i Totals.obj
 0001:00017240       ?InPlaceActivate@CComControlBase@ATL@@QAEJJPBUtagRECT@@@Z 10018240 f i Totals.obj
 0001:00017bd0       ?InPlaceDeactivate@?$IOleInPlaceObjectWindowlessImpl@VCOPOSTotals@@@ATL@@UAGJXZ 10018bd0 f i Totals.obj
 0001:00017c50       ?Increment@CComMultiThreadModel@ATL@@SGKPAJ@Z 10018c50 f i Totals.obj
 0001:00017c70       ?Increment@CComSingleThreadModel@ATL@@SGKPAJ@Z 10018c70 f i Totals.obj
 0001:00017c90       ?Init@?$CComEnumImpl@UIEnumConnectionPoints@@$1?_GUID_b196b285_bab4_101a_b69c_00aa00341d07@@3U__s_GUID@@BPAUIConnectionPoint@@V?$_CopyInterface@UIConnectionPoint@@@ATL@@@ATL@@QAEJPAPAUIConnectionPoint@@0PAUIUnknown@@W4CComEnumFlags@2@@Z 10018c90 f i Totals.obj
 0001:00017e70       ?Init@?$CComEnumImpl@UIEnumConnections@@$1?_GUID_b196b287_bab4_101a_b69c_00aa00341d07@@3U__s_GUID@@BUtagCONNECTDATA@@V?$_Copy@UtagCONNECTDATA@@@ATL@@@ATL@@QAEJPAUtagCONNECTDATA@@0PAUIUnknown@@W4CComEnumFlags@2@@Z 10018e70 f i Totals.obj
 0001:00018050       ?Init@CComFakeCriticalSection@ATL@@QAEJXZ 10019050 f i Totals.obj
 0001:00018070       ?Init@CComModule@ATL@@QAEJPAU_ATL_OBJMAP_ENTRY30@2@PAUHINSTANCE__@@PBU_GUID@@@Z 10019070 f i Totals.obj
 0001:00018160       ?Init@CComSafeDeleteCriticalSection@ATL@@QAEJXZ 10019160 f i Totals.obj
 0001:000181e0       ?Init@CDynamicStdCallThunk2@ATL@@QAEHKPAX@Z 100191e0 f i Totals.obj
 0001:00018240       ?Init@CWndProcThunk@ATL@@QAEHP6GJPAUHWND__@@IIJ@ZPAX@Z 10019240 f i Totals.obj
 0001:00018280       ?InitFromData@?$IOleObjectImpl@VCOPOSTotals@@@ATL@@UAGJPAUIDataObject@@HK@Z 10019280 f i Totals.obj
 0001:000182f0       ?InitLibId@?$CAtlModuleT@VCComModule@ATL@@@ATL@@SAXXZ 100192f0 f i Totals.obj
 0001:00018300       ?InitNew@?$IPersistStorageImpl@VCOPOSTotals@@@ATL@@UAGJPAUIStorage@@@Z 10019300 f i Totals.obj
 0001:000183f0       ?InitNew@?$IPersistStreamInitImpl@VCOPOSTotals@@@ATL@@UAGJXZ 100193f0 f i Totals.obj
 0001:00018480       ?InlineIsEqualUnknown@ATL@@YGHABU_GUID@@@Z 10019480 f i Totals.obj
 0001:000184f0       ?InternalAddRef@?$CComObjectRootEx@VCComMultiThreadModel@ATL@@@ATL@@QAEKXZ 100194f0 f i Totals.obj
 0001:00018550       ?InternalAddRef@?$CComObjectRootEx@VCComSingleThreadModel@ATL@@@ATL@@QAEKXZ 10019550 f i Totals.obj
 0001:000185b0       ?InternalFinalConstructAddRef@CComObjectRootBase@ATL@@QAEXXZ 100195b0 f i Totals.obj
 0001:000185d0       ?InternalFinalConstructAddRef@COPOSTotals@@QAEXXZ 100195d0 f i Totals.obj
 0001:00018600       ?InternalFinalConstructRelease@CComObjectRootBase@ATL@@QAEXXZ 10019600 f i Totals.obj
 0001:00018650       ?InternalFinalConstructRelease@COPOSTotals@@QAEXXZ 10019650 f i Totals.obj
 0001:00018680       ?InternalGetSite@CComControlBase@ATL@@QAEJABU_GUID@@PAPAX@Z 10019680 f i Totals.obj
 0001:00018740       ?InternalQueryInterface@CComObjectRootBase@ATL@@SGJPAXPBU_ATL_INTMAP_ENTRY@2@ABU_GUID@@PAPAX@Z 10019740 f i Totals.obj
 0001:00018800       ?InternalRelease@?$CComObjectRootEx@VCComMultiThreadModel@ATL@@@ATL@@QAEKXZ 10019800 f i Totals.obj
 0001:00018870       ?InternalRelease@?$CComObjectRootEx@VCComSingleThreadModel@ATL@@@ATL@@QAEKXZ 10019870 f i Totals.obj
 0001:000188e0       ?InternalSetAtIndex@?$CSimpleArray@GV?$CSimpleArrayEqualHelper@G@ATL@@@ATL@@QAEXHABG@Z 100198e0 f i Totals.obj
 0001:00018950       ?InternalSetAtIndex@?$CSimpleMap@PA_WPA_WVCExpansionVectorEqualHelper@ATL@@@ATL@@QAEXHABQA_W0@Z 10019950 f i Totals.obj
 0001:000189f0       ?Invoke@?$IDispatchImpl@UIOPOSTotals@@$1?IID_IOPOSTotals@@3U_GUID@@B$1?LIBID_OposTotals_CCO@@3U3@B$00$0A@VCComTypeInfoHolder@ATL@@@ATL@@UAGJJABU_GUID@@KGPAUtagDISPPARAMS@@PAUtagVARIANT@@PAUtagEXCEPINFO@@PAI@Z 100199f0 f i Totals.obj
 0001:00018a30       ?Invoke@CComTypeInfoHolder@ATL@@QAEJPAUIDispatch@@JABU_GUID@@KGPAUtagDISPPARAMS@@PAUtagVARIANT@@PAUtagEXCEPINFO@@PAI@Z 10019a30 f i Totals.obj
 0001:00018ac0       ?IsDirty@?$IPersistStorageImpl@VCOPOSTotals@@@ATL@@UAGJXZ 10019ac0 f i Totals.obj
 0001:00018bb0       ?IsDirty@?$IPersistStreamInitImpl@VCOPOSTotals@@@ATL@@UAGJXZ 10019bb0 f i Totals.obj
 0001:00018c50       ?IsEqualKey@CExpansionVectorEqualHelper@ATL@@SA_NQA_W0@Z 10019c50 f i Totals.obj
 0001:00018c80       ?IsEqualObject@?$CComPtrBase@UIOleClientSite@@@ATL@@QAE_NPAUIUnknown@@@Z 10019c80 f i Totals.obj
 0001:00018db0       ?IsEqualObject@?$CComPtrBase@UITypeInfo@@@ATL@@QAE_NPAUIUnknown@@@Z 10019db0 f i Totals.obj
 0001:00018ee0       ?IsSpace@CRegParser@ATL@@IAEH_W@Z 10019ee0 f i Totals.obj
 0001:00018f50       ?IsUpToDate@?$IOleObjectImpl@VCOPOSTotals@@@ATL@@UAGJXZ 10019f50 f i Totals.obj
 0001:00018fb0       ?Length@CComBSTR@ATL@@QBEIXZ 10019fb0 f i Totals.obj
 0001:00018ff0       ?Load@?$IPersistStorageImpl@VCOPOSTotals@@@ATL@@UAGJPAUIStorage@@@Z 10019ff0 f i Totals.obj
 0001:00019150       ?Load@?$IPersistStreamInitImpl@VCOPOSTotals@@@ATL@@UAGJPAUIStream@@@Z 1001a150 f i Totals.obj
 0001:000191e0       ?LoadCursorW@AtlModuleRegisterWndClassInfoParamW@ATL@@SAPAUHICON__@@PAUHINSTANCE__@@PB_W@Z 1001a1e0 f i Totals.obj
 0001:00019210       ?LoadNameCache@CComTypeInfoHolder@ATL@@QAEJPAUITypeInfo@@@Z 1001a210 f i Totals.obj
 0001:000194a0       ?Lock@?$CComCritSecLock@VCComCriticalSection@ATL@@@ATL@@QAEJXZ 1001a4a0 f i Totals.obj
 0001:00019550       ?Lock@?$CComObjectRootEx@VCComSingleThreadModel@ATL@@@ATL@@QAEXXZ 1001a550 f i Totals.obj
 0001:00019570       ?Lock@CAtlModule@ATL@@UAEJXZ 1001a570 f i Totals.obj
 0001:000195a0       ?Lock@CComCriticalSection@ATL@@QAEJXZ 1001a5a0 f i Totals.obj
 0001:000195e0       ?Lock@CComFakeCriticalSection@ATL@@QAEJXZ 1001a5e0 f i Totals.obj
 0001:00019600       ?LockServer@CComClassFactory@ATL@@UAGJH@Z 1001a600 f i Totals.obj
 0001:00019660       ?Lookup@?$CSimpleMap@PA_WPA_WVCExpansionVectorEqualHelper@ATL@@@ATL@@QBEPA_WABQA_W@Z 1001a660 f i Totals.obj
 0001:000196b0       ?Next@?$CComEnumImpl@UIEnumConnectionPoints@@$1?_GUID_b196b285_bab4_101a_b69c_00aa00341d07@@3U__s_GUID@@BPAUIConnectionPoint@@V?$_CopyInterface@UIConnectionPoint@@@ATL@@@ATL@@UAGJKPAPAUIConnectionPoint@@PAK@Z 1001a6b0 f i Totals.obj
 0001:00019820       ?Next@?$CComEnumImpl@UIEnumConnections@@$1?_GUID_b196b287_bab4_101a_b69c_00aa00341d07@@3U__s_GUID@@BUtagCONNECTDATA@@V?$_Copy@UtagCONNECTDATA@@@ATL@@@ATL@@UAGJKPAUtagCONNECTDATA@@PAK@Z 1001a820 f i Totals.obj
 0001:00019990       ?NextToken@CRegParser@ATL@@IAEJPA_W@Z 1001a990 f i Totals.obj
 0001:00019c30       ?OLE2CT_EX@@YAPB_WPB_WI@Z  1001ac30 f i Totals.obj
 0001:00019c40       ?OLE2CT_EX_DEF@@YAPB_WPB_W@Z 1001ac40 f i Totals.obj
 0001:00019c50       ?OLE2T_EX@@YAPA_WPA_WI@Z   1001ac50 f i Totals.obj
 0001:00019c60       ?OnAmbientPropertyChange@?$IOleControlImpl@VCOPOSTotals@@@ATL@@UAGJJ@Z 1001ac60 f i Totals.obj
 0001:00019cf0       ?OnDocWindowActivate@?$IOleInPlaceActiveObjectImpl@VCOPOSTotals@@@ATL@@UAGJH@Z 1001acf0 f i Totals.obj
 0001:00019d80       ?OnDrawAdvanced@CComControlBase@ATL@@UAEJAAUATL_DRAWINFO@@@Z 1001ad80 f i Totals.obj
 0001:00019fa0       ?OnFinalMessage@?$CWindowImplBaseT@VCWindow@ATL@@V?$CWinTraits@$0FGAAAAAA@$0A@@2@@ATL@@UAEXPAUHWND__@@@Z 1001afa0 f i Totals.obj
 0001:00019fc0       ?OnFrameWindowActivate@?$IOleInPlaceActiveObjectImpl@VCOPOSTotals@@@ATL@@UAGJH@Z 1001afc0 f i Totals.obj
 0001:0001a020       ?OnKillFocus@CComControlBase@ATL@@QAEJIIJAAH@Z 1001b020 f i Totals.obj
 0001:0001a120       ?OnMnemonic@?$IOleControlImpl@VCOPOSTotals@@@ATL@@UAGJPAUtagMSG@@@Z 1001b120 f i Totals.obj
 0001:0001a190       ?OnMouseActivate@CComControlBase@ATL@@QAEJIIJAAH@Z 1001b190 f i Totals.obj
 0001:0001a2e0       ?OnPaint@CComControlBase@ATL@@QAEJIIJAAH@Z 1001b2e0 f i Totals.obj
 0001:0001a460       ?OnPostVerbDiscardUndo@?$IOleObjectImpl@VCOPOSTotals@@@ATL@@QAEJXZ 1001b460 f i Totals.obj
 0001:0001a480       ?OnPostVerbHide@?$IOleObjectImpl@VCOPOSTotals@@@ATL@@QAEJXZ 1001b480 f i Totals.obj
 0001:0001a4a0       ?OnPostVerbInPlaceActivate@?$IOleObjectImpl@VCOPOSTotals@@@ATL@@QAEJXZ 1001b4a0 f i Totals.obj
 0001:0001a4c0       ?OnPostVerbOpen@?$IOleObjectImpl@VCOPOSTotals@@@ATL@@QAEJXZ 1001b4c0 f i Totals.obj
 0001:0001a4e0       ?OnPostVerbShow@?$IOleObjectImpl@VCOPOSTotals@@@ATL@@QAEJXZ 1001b4e0 f i Totals.obj
 0001:0001a500       ?OnPostVerbUIActivate@?$IOleObjectImpl@VCOPOSTotals@@@ATL@@QAEJXZ 1001b500 f i Totals.obj
 0001:0001a520       ?OnPreVerbDiscardUndo@?$IOleObjectImpl@VCOPOSTotals@@@ATL@@QAEJXZ 1001b520 f i Totals.obj
 0001:0001a540       ?OnPreVerbHide@?$IOleObjectImpl@VCOPOSTotals@@@ATL@@QAEJXZ 1001b540 f i Totals.obj
 0001:0001a560       ?OnPreVerbInPlaceActivate@?$IOleObjectImpl@VCOPOSTotals@@@ATL@@QAEJXZ 1001b560 f i Totals.obj
 0001:0001a580       ?OnPreVerbOpen@?$IOleObjectImpl@VCOPOSTotals@@@ATL@@QAEJXZ 1001b580 f i Totals.obj
 0001:0001a5a0       ?OnPreVerbShow@?$IOleObjectImpl@VCOPOSTotals@@@ATL@@QAEJXZ 1001b5a0 f i Totals.obj
 0001:0001a5c0       ?OnPreVerbUIActivate@?$IOleObjectImpl@VCOPOSTotals@@@ATL@@QAEJXZ 1001b5c0 f i Totals.obj
 0001:0001a5e0       ?OnSetFocus@CComControlBase@ATL@@QAEJIIJAAH@Z 1001b5e0 f i Totals.obj
 0001:0001a770       ?OnWindowMessage@?$IOleInPlaceObjectWindowlessImpl@VCOPOSTotals@@@ATL@@UAGJIIJPAJ@Z 1001b770 f i Totals.obj
 0001:0001a8d0       ?Open@CRegKey@ATL@@QAEJPAUHKEY__@@PB_WK@Z 1001b8d0 f i Totals.obj
 0001:0001aa20       ?OuterAddRef@CComObjectRootBase@ATL@@QAEKXZ 1001ba20 f i Totals.obj
 0001:0001aa60       ?OuterQueryInterface@CComObjectRootBase@ATL@@QAEJABU_GUID@@PAPAX@Z 1001ba60 f i Totals.obj
 0001:0001aab0       ?OuterRelease@CComObjectRootBase@ATL@@QAEKXZ 1001bab0 f i Totals.obj
 0001:0001aaf0       ?PreProcessBuffer@CRegParser@ATL@@QAEJPA_WPAPA_W@Z 1001baf0 f i Totals.obj
 0001:0001b030       ?PreTranslateAccelerator@CComControlBase@ATL@@QAEHPAUtagMSG@@AAJ@Z 1001c030 f i Totals.obj
 0001:0001b050       ?ProcessWindowMessage@?$CComControl@VCOPOSTotals@@V?$CWindowImpl@VCOPOSTotals@@VCWindow@ATL@@V?$CWinTraits@$0FGAAAAAA@$0A@@3@@ATL@@@ATL@@UAEHPAUHWND__@@IIJAAJK@Z 1001c050 f i Totals.obj
 0001:0001b220       ?ProcessWindowMessage@COPOSTotals@@UAEHPAUHWND__@@IIJAAJK@Z 1001c220 f i Totals.obj
 0001:0001b320       ?PutProperty@?$CComPtr@UIDispatch@@@ATL@@QAEJJPAUtagVARIANT@@@Z 1001c320 f i Totals.obj
 0001:0001b360       ?PutProperty@?$CComPtr@UIDispatch@@@ATL@@SAJPAUIDispatch@@JPAUtagVARIANT@@@Z 1001c360 f i Totals.obj
 0001:0001b550       ?QueryGetData@?$IDataObjectImpl@VCOPOSTotals@@@ATL@@UAGJPAUtagFORMATETC@@@Z 1001c550 f i Totals.obj
 0001:0001b5c0       ?QueryHitPoint@?$IViewObjectExImpl@VCOPOSTotals@@@ATL@@UAGJKPBUtagRECT@@UtagPOINT@@JPAK@Z 1001c5c0 f i Totals.obj
 0001:0001b6d0       ?QueryHitRect@?$IViewObjectExImpl@VCOPOSTotals@@@ATL@@UAGJKPBUtagRECT@@0JPAK@Z 1001c6d0 f i Totals.obj
 0001:0001b820       ?QueryInterface@?$CComAggObject@VCOPOSTotals@@@ATL@@UAGJABU_GUID@@PAPAX@Z 1001c820 f i Totals.obj
 0001:0001b8d0       ?QueryInterface@?$CComContainedObject@VCOPOSTotals@@@ATL@@UAGJABU_GUID@@PAPAX@Z 1001c8d0 f i Totals.obj
 0001:0001b8f4       ?QueryInterface@?$CComContainedObject@VCOPOSTotals@@@ATL@@WHA@AGJABU_GUID@@PAPAX@Z 1001c8f4 f i Totals.obj
 0001:0001b8fe       ?QueryInterface@?$CComContainedObject@VCOPOSTotals@@@ATL@@WHE@AGJABU_GUID@@PAPAX@Z 1001c8fe f i Totals.obj
 0001:0001b908       ?QueryInterface@?$CComContainedObject@VCOPOSTotals@@@ATL@@WHI@AGJABU_GUID@@PAPAX@Z 1001c908 f i Totals.obj
 0001:0001b912       ?QueryInterface@?$CComContainedObject@VCOPOSTotals@@@ATL@@WHM@AGJABU_GUID@@PAPAX@Z 1001c912 f i Totals.obj
 0001:0001b91c       ?QueryInterface@?$CComContainedObject@VCOPOSTotals@@@ATL@@WIA@AGJABU_GUID@@PAPAX@Z 1001c91c f i Totals.obj
 0001:0001b929       ?QueryInterface@?$CComContainedObject@VCOPOSTotals@@@ATL@@WIE@AGJABU_GUID@@PAPAX@Z 1001c929 f i Totals.obj
 0001:0001b936       ?QueryInterface@?$CComContainedObject@VCOPOSTotals@@@ATL@@WII@AGJABU_GUID@@PAPAX@Z 1001c936 f i Totals.obj
 0001:0001b943       ?QueryInterface@?$CComContainedObject@VCOPOSTotals@@@ATL@@WIM@AGJABU_GUID@@PAPAX@Z 1001c943 f i Totals.obj
 0001:0001b950       ?QueryInterface@?$CComContainedObject@VCOPOSTotals@@@ATL@@WJA@AGJABU_GUID@@PAPAX@Z 1001c950 f i Totals.obj
 0001:0001b95d       ?QueryInterface@?$CComContainedObject@VCOPOSTotals@@@ATL@@WJE@AGJABU_GUID@@PAPAX@Z 1001c95d f i Totals.obj
 0001:0001b96a       ?QueryInterface@?$CComContainedObject@VCOPOSTotals@@@ATL@@WJI@AGJABU_GUID@@PAPAX@Z 1001c96a f i Totals.obj
 0001:0001b977       ?QueryInterface@?$CComContainedObject@VCOPOSTotals@@@ATL@@WJM@AGJABU_GUID@@PAPAX@Z 1001c977 f i Totals.obj
 0001:0001b984       ?QueryInterface@?$CComContainedObject@VCOPOSTotals@@@ATL@@WKA@AGJABU_GUID@@PAPAX@Z 1001c984 f i Totals.obj
 0001:0001b9a0       ?QueryInterface@?$CComObject@V?$CComEnum@UIEnumConnectionPoints@@$1?_GUID_b196b285_bab4_101a_b69c_00aa00341d07@@3U__s_GUID@@BPAUIConnectionPoint@@V?$_CopyInterface@UIConnectionPoint@@@ATL@@VCComSingleThreadModel@6@@ATL@@@ATL@@UAGJABU_GUID@@PAPAX@Z 1001c9a0 f i Totals.obj
 0001:0001b9c0       ?QueryInterface@?$CComObject@V?$CComEnum@UIEnumConnections@@$1?_GUID_b196b287_bab4_101a_b69c_00aa00341d07@@3U__s_GUID@@BUtagCONNECTDATA@@V?$_Copy@UtagCONNECTDATA@@@ATL@@VCComSingleThreadModel@6@@ATL@@@ATL@@UAGJABU_GUID@@PAPAX@Z 1001c9c0 f i Totals.obj
 0001:0001b9e0       ?QueryInterface@?$CComObject@VCOPOSTotals@@@ATL@@UAGJABU_GUID@@PAPAX@Z 1001c9e0 f i Totals.obj
 0001:0001b9fe       ?QueryInterface@?$CComObject@VCOPOSTotals@@@ATL@@WHA@AGJABU_GUID@@PAPAX@Z 1001c9fe f i Totals.obj
 0001:0001ba08       ?QueryInterface@?$CComObject@VCOPOSTotals@@@ATL@@WHE@AGJABU_GUID@@PAPAX@Z 1001ca08 f i Totals.obj
 0001:0001ba12       ?QueryInterface@?$CComObject@VCOPOSTotals@@@ATL@@WHI@AGJABU_GUID@@PAPAX@Z 1001ca12 f i Totals.obj
 0001:0001ba1c       ?QueryInterface@?$CComObject@VCOPOSTotals@@@ATL@@WHM@AGJABU_GUID@@PAPAX@Z 1001ca1c f i Totals.obj
 0001:0001ba26       ?QueryInterface@?$CComObject@VCOPOSTotals@@@ATL@@WIA@AGJABU_GUID@@PAPAX@Z 1001ca26 f i Totals.obj
 0001:0001ba33       ?QueryInterface@?$CComObject@VCOPOSTotals@@@ATL@@WIE@AGJABU_GUID@@PAPAX@Z 1001ca33 f i Totals.obj
 0001:0001ba40       ?QueryInterface@?$CComObject@VCOPOSTotals@@@ATL@@WII@AGJABU_GUID@@PAPAX@Z 1001ca40 f i Totals.obj
 0001:0001ba4d       ?QueryInterface@?$CComObject@VCOPOSTotals@@@ATL@@WIM@AGJABU_GUID@@PAPAX@Z 1001ca4d f i Totals.obj
 0001:0001ba5a       ?QueryInterface@?$CComObject@VCOPOSTotals@@@ATL@@WJA@AGJABU_GUID@@PAPAX@Z 1001ca5a f i Totals.obj
 0001:0001ba67       ?QueryInterface@?$CComObject@VCOPOSTotals@@@ATL@@WJE@AGJABU_GUID@@PAPAX@Z 1001ca67 f i Totals.obj
 0001:0001ba74       ?QueryInterface@?$CComObject@VCOPOSTotals@@@ATL@@WJI@AGJABU_GUID@@PAPAX@Z 1001ca74 f i Totals.obj
 0001:0001ba81       ?QueryInterface@?$CComObject@VCOPOSTotals@@@ATL@@WJM@AGJABU_GUID@@PAPAX@Z 1001ca81 f i Totals.obj
 0001:0001ba8e       ?QueryInterface@?$CComObject@VCOPOSTotals@@@ATL@@WKA@AGJABU_GUID@@PAPAX@Z 1001ca8e f i Totals.obj
 0001:0001baa0       ?QueryInterface@?$CComObjectCached@VCComClassFactory@ATL@@@ATL@@UAGJABU_GUID@@PAPAX@Z 1001caa0 f i Totals.obj
 0001:0001bac0       ?QueryInterface@CRegObject@ATL@@UAGJABU_GUID@@PAPAX@Z 1001cac0 f i Totals.obj
 0001:0001bb10       ?QuickActivate@?$IQuickActivateImpl@VCOPOSTotals@@@ATL@@UAGJPAUtagQACONTAINER@@PAUtagQACONTROL@@@Z 1001cb10 f i Totals.obj
 0001:0001bba0       ?ReactivateAndUndo@?$IOleInPlaceObjectWindowlessImpl@VCOPOSTotals@@@ATL@@UAGJXZ 1001cba0 f i Totals.obj
 0001:0001bc10       ?ReadFromStream@CComBSTR@ATL@@QAEJPAUIStream@@@Z 1001cc10 f i Totals.obj
 0001:0001c010       ?ReadFromStream@CComVariant@ATL@@QAEJPAUIStream@@GTClassesAllowedInStream@2@K@Z 1001d010 f i Totals.obj
 0001:0001c370       ?RecurseDeleteKey@CRegKey@ATL@@QAEJPB_W@Z 1001d370 f i Totals.obj
 0001:0001c550       ?RegCreateKeyExW@CAtlTransactionManager@ATL@@QAEJPAUHKEY__@@PB_WKPA_WKKQAU_SECURITY_ATTRIBUTES@@PAPAU3@PAK@Z 1001d550 f i Totals.obj
 0001:0001c680       ?RegDeleteKeyW@CAtlTransactionManager@ATL@@QAEJPAUHKEY__@@PB_W@Z 1001d680 f i Totals.obj
 0001:0001c780       ?RegOpenKeyExW@CAtlTransactionManager@ATL@@QAEJPAUHKEY__@@PB_WKKPAPAU3@@Z 1001d780 f i Totals.obj
 0001:0001c890       ?Register@_ATL_WNDCLASSINFOW@ATL@@QAEGPAP6GJPAUHWND__@@IIJ@Z@Z 1001d890 f i Totals.obj
 0001:0001c8d0       ?RegisterBuffer@CRegParser@ATL@@QAEJPA_WH@Z 1001d8d0 f i Totals.obj
 0001:0001cc00       ?RegisterClassExW@AtlModuleRegisterWndClassInfoParamW@ATL@@SAGPAU_ATL_WIN_MODULE70@2@PBUtagWNDCLASSEXW@@@Z 1001dc00 f i Totals.obj
 0001:0001cc20       ?RegisterFromResource@CRegObject@ATL@@IAEJPB_W00H@Z 1001dc20 f i Totals.obj
 0001:0001cfb0       ?RegisterServer@?$CAtlModuleT@VCComModule@ATL@@@ATL@@QAEJHPBU_GUID@@@Z 1001dfb0 f i Totals.obj
 0001:0001d030       ?RegisterServer@CAtlComModule@ATL@@QAEJHPBU_GUID@@@Z 1001e030 f i Totals.obj
 0001:0001d060       ?RegisterServer@CComModule@ATL@@QAEJHPBU_GUID@@@Z 1001e060 f i Totals.obj
 0001:0001d140       ?RegisterSubkeys@CRegParser@ATL@@IAEJPA_WPAUHKEY__@@HH@Z 1001e140 f i Totals.obj
 0001:0001dc60       ?Release@?$CComAggObject@VCOPOSTotals@@@ATL@@UAGKXZ 1001ec60 f i Totals.obj
 0001:0001dd20       ?Release@?$CComContainedObject@VCOPOSTotals@@@ATL@@UAGKXZ 1001ed20 f i Totals.obj
 0001:0001dd3c       ?Release@?$CComContainedObject@VCOPOSTotals@@@ATL@@WHA@AGKXZ 1001ed3c f i Totals.obj
 0001:0001dd46       ?Release@?$CComContainedObject@VCOPOSTotals@@@ATL@@WHE@AGKXZ 1001ed46 f i Totals.obj
 0001:0001dd50       ?Release@?$CComContainedObject@VCOPOSTotals@@@ATL@@WHI@AGKXZ 1001ed50 f i Totals.obj
 0001:0001dd5a       ?Release@?$CComContainedObject@VCOPOSTotals@@@ATL@@WHM@AGKXZ 1001ed5a f i Totals.obj
 0001:0001dd64       ?Release@?$CComContainedObject@VCOPOSTotals@@@ATL@@WIA@AGKXZ 1001ed64 f i Totals.obj
 0001:0001dd71       ?Release@?$CComContainedObject@VCOPOSTotals@@@ATL@@WIE@AGKXZ 1001ed71 f i Totals.obj
 0001:0001dd7e       ?Release@?$CComContainedObject@VCOPOSTotals@@@ATL@@WII@AGKXZ 1001ed7e f i Totals.obj
 0001:0001dd8b       ?Release@?$CComContainedObject@VCOPOSTotals@@@ATL@@WIM@AGKXZ 1001ed8b f i Totals.obj
 0001:0001dd98       ?Release@?$CComContainedObject@VCOPOSTotals@@@ATL@@WJA@AGKXZ 1001ed98 f i Totals.obj
 0001:0001dda5       ?Release@?$CComContainedObject@VCOPOSTotals@@@ATL@@WJE@AGKXZ 1001eda5 f i Totals.obj
 0001:0001ddb2       ?Release@?$CComContainedObject@VCOPOSTotals@@@ATL@@WJI@AGKXZ 1001edb2 f i Totals.obj
 0001:0001ddbf       ?Release@?$CComContainedObject@VCOPOSTotals@@@ATL@@WJM@AGKXZ 1001edbf f i Totals.obj
 0001:0001ddcc       ?Release@?$CComContainedObject@VCOPOSTotals@@@ATL@@WKA@AGKXZ 1001edcc f i Totals.obj
 0001:0001ddd9       ?Release@?$CComContainedObject@VCOPOSTotals@@@ATL@@WKI@AGKXZ 1001edd9 f i Totals.obj
 0001:0001dde6       ?Release@?$CComContainedObject@VCOPOSTotals@@@ATL@@WLE@AGKXZ 1001ede6 f i Totals.obj
 0001:0001de00       ?Release@?$CComObject@V?$CComEnum@UIEnumConnectionPoints@@$1?_GUID_b196b285_bab4_101a_b69c_00aa00341d07@@3U__s_GUID@@BPAUIConnectionPoint@@V?$_CopyInterface@UIConnectionPoint@@@ATL@@VCComSingleThreadModel@6@@ATL@@@ATL@@UAGKXZ 1001ee00 f i Totals.obj
 0001:0001dec0       ?Release@?$CComObject@V?$CComEnum@UIEnumConnections@@$1?_GUID_b196b287_bab4_101a_b69c_00aa00341d07@@3U__s_GUID@@BUtagCONNECTDATA@@V?$_Copy@UtagCONNECTDATA@@@ATL@@VCComSingleThreadModel@6@@ATL@@@ATL@@UAGKXZ 1001eec0 f i Totals.obj
 0001:0001df80       ?Release@?$CComObject@VCOPOSTotals@@@ATL@@UAGKXZ 1001ef80 f i Totals.obj
 0001:0001e039       ?Release@?$CComObject@VCOPOSTotals@@@ATL@@WHA@AGKXZ 1001f039 f i Totals.obj
 0001:0001e043       ?Release@?$CComObject@VCOPOSTotals@@@ATL@@WHE@AGKXZ 1001f043 f i Totals.obj
 0001:0001e04d       ?Release@?$CComObject@VCOPOSTotals@@@ATL@@WHI@AGKXZ 1001f04d f i Totals.obj
 0001:0001e057       ?Release@?$CComObject@VCOPOSTotals@@@ATL@@WHM@AGKXZ 1001f057 f i Totals.obj
 0001:0001e061       ?Release@?$CComObject@VCOPOSTotals@@@ATL@@WIA@AGKXZ 1001f061 f i Totals.obj
 0001:0001e06e       ?Release@?$CComObject@VCOPOSTotals@@@ATL@@WIE@AGKXZ 1001f06e f i Totals.obj
 0001:0001e07b       ?Release@?$CComObject@VCOPOSTotals@@@ATL@@WII@AGKXZ 1001f07b f i Totals.obj
 0001:0001e088       ?Release@?$CComObject@VCOPOSTotals@@@ATL@@WIM@AGKXZ 1001f088 f i Totals.obj
 0001:0001e095       ?Release@?$CComObject@VCOPOSTotals@@@ATL@@WJA@AGKXZ 1001f095 f i Totals.obj
 0001:0001e0a2       ?Release@?$CComObject@VCOPOSTotals@@@ATL@@WJE@AGKXZ 1001f0a2 f i Totals.obj
 0001:0001e0af       ?Release@?$CComObject@VCOPOSTotals@@@ATL@@WJI@AGKXZ 1001f0af f i Totals.obj
 0001:0001e0bc       ?Release@?$CComObject@VCOPOSTotals@@@ATL@@WJM@AGKXZ 1001f0bc f i Totals.obj
 0001:0001e0c9       ?Release@?$CComObject@VCOPOSTotals@@@ATL@@WKA@AGKXZ 1001f0c9 f i Totals.obj
 0001:0001e0d6       ?Release@?$CComObject@VCOPOSTotals@@@ATL@@WKI@AGKXZ 1001f0d6 f i Totals.obj
 0001:0001e0e3       ?Release@?$CComObject@VCOPOSTotals@@@ATL@@WLE@AGKXZ 1001f0e3 f i Totals.obj
 0001:0001e0f0       ?Release@?$CComObjectCached@VCComClassFactory@ATL@@@ATL@@UAGKXZ 1001f0f0 f i Totals.obj
 0001:0001e190       ?Release@?$CComPtrBase@UIAdviseSink@@@ATL@@QAEXXZ 1001f190 f i Totals.obj
 0001:0001e1f0       ?Release@?$CComPtrBase@UIDispatch@@@ATL@@QAEXXZ 1001f1f0 f i Totals.obj
 0001:0001e250       ?Release@?$CComPtrBase@UIOleInPlaceSiteWindowless@@@ATL@@QAEXXZ 1001f250 f i Totals.obj
 0001:0001e2b0       ?Release@CRegObject@ATL@@UAGKXZ 1001f2b0 f i Totals.obj
 0001:0001e2f0       ?Remove@CComDynamicUnkArray@ATL@@QAEHK@Z 1001f2f0 f i Totals.obj
 0001:0001e3a0       ?RemoveAll@?$CSimpleMap@PA_WPA_WVCExpansionVectorEqualHelper@ATL@@@ATL@@QAEXXZ 1001f3a0 f i Totals.obj
 0001:0001e430       ?Reset@?$CComEnumImpl@UIEnumConnectionPoints@@$1?_GUID_b196b285_bab4_101a_b69c_00aa00341d07@@3U__s_GUID@@BPAUIConnectionPoint@@V?$_CopyInterface@UIConnectionPoint@@@ATL@@@ATL@@UAGJXZ 1001f430 f i Totals.obj
 0001:0001e450       ?Reset@?$CComEnumImpl@UIEnumConnections@@$1?_GUID_b196b287_bab4_101a_b69c_00aa00341d07@@3U__s_GUID@@BUtagCONNECTDATA@@V?$_Copy@UtagCONNECTDATA@@@ATL@@@ATL@@UAGJXZ 1001f450 f i Totals.obj
 0001:0001e470       ?ResizeBorder@?$IOleInPlaceActiveObjectImpl@VCOPOSTotals@@@ATL@@UAGJPBUtagRECT@@PAUIOleInPlaceUIWindow@@H@Z 1001f470 f i Totals.obj
 0001:0001e4d0       ?ResourceRegister@CRegObject@ATL@@QAGJPB_WI0@Z 1001f4d0 f i Totals.obj
 0001:0001e5b0       ?ResourceRegisterSz@CRegObject@ATL@@QAGJPB_W00@Z 1001f5b0 f i Totals.obj
 0001:0001e6b0       ?ResourceUnregister@CRegObject@ATL@@QAGJPB_WI0@Z 1001f6b0 f i Totals.obj
 0001:0001e790       ?ResourceUnregisterSz@CRegObject@ATL@@QAGJPB_W00@Z 1001f790 f i Totals.obj
 0001:0001e890       ?SODataDummy@COPOSTotals@@MAGJJ@Z 1001f890 f i Totals.obj
 0001:0001e8a0       ?SODirectIO@COPOSTotals@@MAGJJPAJPAPA_W@Z 1001f8a0 f i Totals.obj
 0001:0001ea60       ?SOErrorDummy@COPOSTotals@@MAGJJJJPAJ@Z 1001fa60 f i Totals.obj
 0001:0001ea70       ?SOOutputCompleteDummy@COPOSTotals@@MAGJJ@Z 1001fa70 f i Totals.obj
 0001:0001ea80       ?SOStatusUpdate@COPOSTotals@@MAGJJ@Z 1001fa80 f i Totals.obj
 0001:0001eb00       ?Save@?$IPersistStorageImpl@VCOPOSTotals@@@ATL@@UAGJPAUIStorage@@H@Z 1001fb00 f i Totals.obj
 0001:0001ec60       ?Save@?$IPersistStreamInitImpl@VCOPOSTotals@@@ATL@@UAGJPAUIStream@@H@Z 1001fc60 f i Totals.obj
 0001:0001ecf0       ?SaveCompleted@?$IPersistStorageImpl@VCOPOSTotals@@@ATL@@UAGJPAUIStorage@@@Z 1001fcf0 f i Totals.obj
 0001:0001ed50       ?SendOnDataChange@CComControlBase@ATL@@QAEJK@Z 1001fd50 f i Totals.obj
 0001:0001ee40       ?SendOnSave@CComControlBase@ATL@@QAEJXZ 1001fe40 f i Totals.obj
 0001:0001eeb0       ?SendOnViewChange@CComControlBase@ATL@@QAEJKJ@Z 1001feb0 f i Totals.obj
 0001:0001ef20       ?SetAdvise@?$IViewObjectExImpl@VCOPOSTotals@@@ATL@@UAGJKKPAUIAdviseSink@@@Z 1001ff20 f i Totals.obj
 0001:0001efb0       ?SetClientSite@?$IOleObjectImpl@VCOPOSTotals@@@ATL@@UAGJPAUIOleClientSite@@@Z 1001ffb0 f i Totals.obj
 0001:0001f040       ?SetColorScheme@?$IOleObjectImpl@VCOPOSTotals@@@ATL@@UAGJPAUtagLOGPALETTE@@@Z 10020040 f i Totals.obj
 0001:0001f0b0       ?SetContentExtent@?$IQuickActivateImpl@VCOPOSTotals@@@ATL@@UAGJPAUtagSIZE@@@Z 100200b0 f i Totals.obj
 0001:0001f140       ?SetControlFocus@CComControlBase@ATL@@QAEHH@Z 10020140 f i Totals.obj
 0001:0001f2c0       ?SetDWORDValue@CRegKey@ATL@@QAEJPB_WK@Z 100202c0 f i Totals.obj
 0001:0001f340       ?SetData@?$IDataObjectImpl@VCOPOSTotals@@@ATL@@UAGJPAUtagFORMATETC@@PAUtagSTGMEDIUM@@H@Z 10020340 f i Totals.obj
 0001:0001f3b0       ?SetExtent@?$IOleObjectImpl@VCOPOSTotals@@@ATL@@UAGJKPAUtagSIZE@@@Z 100203b0 f i Totals.obj
 0001:0001f440       ?SetHostNames@?$IOleObjectImpl@VCOPOSTotals@@@ATL@@UAGJPB_W0@Z 10020440 f i Totals.obj
 0001:0001f4a0       ?SetInterfaceSafetyOptions@?$IObjectSafetyImpl@VCOPOSTotals@@$02@ATL@@UAGJABU_GUID@@KK@Z 100204a0 f i Totals.obj
 0001:0001f610       ?SetMoniker@?$IOleObjectImpl@VCOPOSTotals@@@ATL@@UAGJKPAUIMoniker@@@Z 10020610 f i Totals.obj
 0001:0001f680       ?SetMultiStringValue@CRegKey@ATL@@QAEJPB_W0@Z 10020680 f i Totals.obj
 0001:0001f7a0       ?SetObjectRects@?$IOleInPlaceObjectWindowlessImpl@VCOPOSTotals@@@ATL@@UAGJPBUtagRECT@@0@Z 100207a0 f i Totals.obj
 0001:0001f830       ?SetStringValue@CRegKey@ATL@@QAEJPB_W0K@Z 10020830 f i Totals.obj
 0001:0001f960       ?SetVoid@CComClassFactory@ATL@@QAEXPAX@Z 10020960 f i Totals.obj
 0001:0001f980       ?SetVoid@CComObjectRootBase@ATL@@QAEXPAX@Z 10020980 f i Totals.obj
 0001:0001f9a0       ?SetWindowLongPtrW@@YAJPAUHWND__@@HJ@Z 100209a0 f i Totals.obj
 0001:0001f9d0       ?ShowWindow@CWindow@ATL@@QAEHH@Z 100209d0 f i Totals.obj
 0001:0001fa50       ?Skip@?$CComEnumImpl@UIEnumConnectionPoints@@$1?_GUID_b196b285_bab4_101a_b69c_00aa00341d07@@3U__s_GUID@@BPAUIConnectionPoint@@V?$_CopyInterface@UIConnectionPoint@@@ATL@@@ATL@@UAGJK@Z 10020a50 f i Totals.obj
 0001:0001fad0       ?Skip@?$CComEnumImpl@UIEnumConnections@@$1?_GUID_b196b287_bab4_101a_b69c_00aa00341d07@@3U__s_GUID@@BUtagCONNECTDATA@@V?$_Copy@UtagCONNECTDATA@@@ATL@@@ATL@@UAGJK@Z 10020ad0 f i Totals.obj
 0001:0001fb50       ?SkipAssignment@CRegParser@ATL@@IAEJPA_W@Z 10020b50 f i Totals.obj
 0001:0001fc30       ?SkipWhiteSpace@CRegParser@ATL@@IAEXXZ 10020c30 f i Totals.obj
 0001:0001fc80       ?StartWindowProc@?$CWindowImplBaseT@VCWindow@ATL@@V?$CWinTraits@$0FGAAAAAA@$0A@@2@@ATL@@SGJPAUHWND__@@IIJ@Z 10020c80 f i Totals.obj
 0001:0001fda0       ?StrChrW@CRegParser@ATL@@KAPA_WPA_W_W@Z 10020da0 f i Totals.obj
 0001:0001fe10       ?StrFromMap@CRegObject@ATL@@QAEPB_WPA_W@Z 10020e10 f i Totals.obj
 0001:0001fea0       ?Swap@?$CComPtrBase@UIAdviseSink@@@ATL@@IAEXAAV12@@Z 10020ea0 f i Totals.obj
 0001:0001fee0       ?Swap@?$CComPtrBase@UIOleClientSite@@@ATL@@IAEXAAV12@@Z 10020ee0 f i Totals.obj
 0001:0001ff20       ?Swap@?$CComPtrBase@UIUnknown@@@ATL@@IAEXAAV12@@Z 10020f20 f i Totals.obj
 0001:0001ff60       ?T2COLE_EX@@YAPB_WPB_WI@Z  10020f60 f i Totals.obj
 0001:0001ff70       ?T2OLE_EX@@YAPA_WPA_WI@Z   10020f70 f i Totals.obj
 0001:0001ff80       ?Term@CAtlModule@ATL@@QAEXXZ 10020f80 f i Totals.obj
 0001:00020030       ?Term@CComModule@ATL@@QAEXXZ 10021030 f i Totals.obj
 0001:00020120       ?TranslateAcceleratorW@?$IOleInPlaceActiveObjectImpl@VCOPOSTotals@@@ATL@@UAGJPAUtagMSG@@@Z 10021120 f i Totals.obj
 0001:00020320       ?UIDeactivate@?$IOleInPlaceObjectWindowlessImpl@VCOPOSTotals@@@ATL@@UAGJXZ 10021320 f i Totals.obj
 0001:000203a0       ?Unadvise@?$CProxy_IOPOSEvents@VCOPOSTotals@@@@UAGJK@Z 100213a0 f i Totals.obj
 0001:000203e0       ?Unadvise@?$IConnectionPointImpl@VCOPOSTotals@@$1?DIID__IOPOSTotalsEvents@@3U_GUID@@BVCComDynamicUnkArray@ATL@@@ATL@@UAGJK@Z 100213e0 f i Totals.obj
 0001:000204b0       ?Unadvise@?$IConnectionPointImpl@VCOPOSTotals@@$1?IID_IPropertyNotifySink@@3U_GUID@@BVCComDynamicUnkArray@ATL@@@ATL@@UAGJK@Z 100214b0 f i Totals.obj
 0001:00020580       ?Unadvise@?$IOleObjectImpl@VCOPOSTotals@@@ATL@@UAGJK@Z 10021580 f i Totals.obj
 0001:00020650       ?Unfreeze@?$IViewObjectExImpl@VCOPOSTotals@@@ATL@@UAGJK@Z 10021650 f i Totals.obj
 0001:000206c0       ?Unlock@?$CComCritSecLock@VCComCriticalSection@ATL@@@ATL@@QAEXXZ 100216c0 f i Totals.obj
 0001:00020730       ?Unlock@?$CComObjectRootEx@VCComSingleThreadModel@ATL@@@ATL@@QAEXXZ 10021730 f i Totals.obj
 0001:00020750       ?Unlock@CAtlModule@ATL@@UAEJXZ 10021750 f i Totals.obj
 0001:00020780       ?Unlock@CComCriticalSection@ATL@@QAEJXZ 10021780 f i Totals.obj
 0001:000207c0       ?Unlock@CComFakeCriticalSection@ATL@@QAEJXZ 100217c0 f i Totals.obj
 0001:000207e0       ?UnregisterServer@?$CAtlModuleT@VCComModule@ATL@@@ATL@@QAEJHPBU_GUID@@@Z 100217e0 f i Totals.obj
 0001:00020850       ?UnregisterServer@CAtlComModule@ATL@@QAEJHPBU_GUID@@@Z 10021850 f i Totals.obj
 0001:00020880       ?UnregisterServer@CComModule@ATL@@QAEJHPBU_GUID@@@Z 10021880 f i Totals.obj
 0001:00020960       ?Update@?$IOleObjectImpl@VCOPOSTotals@@@ATL@@UAGJXZ 10021960 f i Totals.obj
 0001:000209c0       ?UpdateRegistryFromResource@CAtlModule@ATL@@QAGJIHPAU_ATL_REGMAP_ENTRY@2@@Z 100219c0 f i Totals.obj
 0001:00020e90       ?UpdateRegistryFromResource@CAtlModule@ATL@@QAGJPB_WHPAU_ATL_REGMAP_ENTRY@2@@Z 10021e90 f i Totals.obj
 0001:00021380       ?UpdateRegistryFromResource@CComModule@ATL@@UAGJIHPAU_ATL_REGMAP_ENTRY@2@@Z 10022380 f i Totals.obj
 0001:000213b0       ?UpdateRegistryFromResource@CComModule@ATL@@UAGJPB_WHPAU_ATL_REGMAP_ENTRY@2@@Z 100223b0 f i Totals.obj
 0001:000213e0       ?UpdateRegistryFromResourceD@CComModule@ATL@@UAGJIHPAU_ATL_REGMAP_ENTRY@2@@Z 100223e0 f i Totals.obj
 0001:000213f0       ?UpdateRegistryFromResourceD@CComModule@ATL@@UAGJPB_WHPAU_ATL_REGMAP_ENTRY@2@@Z 100223f0 f i Totals.obj
 0001:00021400       ?VTFromRegType@CRegParser@ATL@@KAHPB_WAAG@Z 10022400 f i Totals.obj
 0001:000214e0       ?WindowProc@?$CWindowImplBaseT@VCWindow@ATL@@V?$CWinTraits@$0FGAAAAAA@$0A@@2@@ATL@@SGJPAUHWND__@@IIJ@Z 100224e0 f i Totals.obj
 0001:000216f0       ?WriteToStream@CComBSTR@ATL@@QAEJPAUIStream@@@Z 100226f0 f i Totals.obj
 0001:00021850       ?WriteToStream@CComVariant@ATL@@QAEJPAUIStream@@@Z 10022850 f i Totals.obj
 0001:00021b90       ?WriteToStream@CComVariant@ATL@@QAEJPAUIStream@@G@Z 10022b90 f i Totals.obj
 0001:00021c60       ?_AtlFinalConstruct@CComObjectRootBase@ATL@@QAEJXZ 10022c60 f i Totals.obj
 0001:00021c80       ?_AtlGetConversionACP@ATL@@YGIXZ 10022c80 f i Totals.obj
 0001:00021c90       ?_AtlInitialConstruct@?$CComAggObject@VCOPOSTotals@@@ATL@@QAEJXZ 10022c90 f i Totals.obj
 0001:00021ce0       ?_AtlInitialConstruct@?$CComObjectRootEx@VCComMultiThreadModel@ATL@@@ATL@@QAEJXZ 10022ce0 f i Totals.obj
 0001:00021d10       ?_AtlInitialConstruct@?$CComObjectRootEx@VCComSingleThreadModel@ATL@@@ATL@@QAEJXZ 10022d10 f i Totals.obj
 0001:00021d30       ?_AtlVerifyStackAvailable@_ATL_SAFE_ALLOCA_IMPL@ATL@@YA_NK@Z 10022d30 f i Totals.obj
 0001:00021ee0       ?_GetEntries@?$CComEnum@UIEnumConnectionPoints@@$1?_GUID_b196b285_bab4_101a_b69c_00aa00341d07@@3U__s_GUID@@BPAUIConnectionPoint@@V?$_CopyInterface@UIConnectionPoint@@@ATL@@VCComSingleThreadModel@6@@ATL@@SGPBU_ATL_INTMAP_ENTRY@2@XZ 10022ee0 f i Totals.obj
 0001:00021f00       ?_GetEntries@?$CComEnum@UIEnumConnections@@$1?_GUID_b196b287_bab4_101a_b69c_00aa00341d07@@3U__s_GUID@@BUtagCONNECTDATA@@V?$_Copy@UtagCONNECTDATA@@@ATL@@VCComSingleThreadModel@6@@ATL@@SGPBU_ATL_INTMAP_ENTRY@2@XZ 10022f00 f i Totals.obj
 0001:00021f20       ?_GetEntries@CComClassFactory@ATL@@SGPBU_ATL_INTMAP_ENTRY@2@XZ 10022f20 f i Totals.obj
 0001:00021f40       ?_GetEntries@COPOSTotals@@SGPBU_ATL_INTMAP_ENTRY@ATL@@XZ 10022f40 f i Totals.obj
 0001:00021f60       ?_GetRawUnknown@COPOSTotals@@QAEPAUIUnknown@@XZ 10022f60 f i Totals.obj
 0001:00021fd0       ?_GetViewStatus@COPOSTotals@@QAEKXZ 10022fd0 f i Totals.obj
 0001:00021ff0       ?_InternalQueryInterface@?$CComEnum@UIEnumConnectionPoints@@$1?_GUID_b196b285_bab4_101a_b69c_00aa00341d07@@3U__s_GUID@@BPAUIConnectionPoint@@V?$_CopyInterface@UIConnectionPoint@@@ATL@@VCComSingleThreadModel@6@@ATL@@QAEJABU_GUID@@PAPAX@Z 10022ff0 f i Totals.obj
 0001:00022030       ?_InternalQueryInterface@?$CComEnum@UIEnumConnections@@$1?_GUID_b196b287_bab4_101a_b69c_00aa00341d07@@3U__s_GUID@@BUtagCONNECTDATA@@V?$_Copy@UtagCONNECTDATA@@@ATL@@VCComSingleThreadModel@6@@ATL@@QAEJABU_GUID@@PAPAX@Z 10023030 f i Totals.obj
 0001:00022070       ?_InternalQueryInterface@CComClassFactory@ATL@@QAEJABU_GUID@@PAPAX@Z 10023070 f i Totals.obj
 0001:000220b0       ?_InternalQueryInterface@COPOSTotals@@QAEJABU_GUID@@PAPAX@Z 100230b0 f i Totals.obj
 0001:000220f0       ?_LocCPQueryInterface@?$IConnectionPointImpl@VCOPOSTotals@@$1?DIID__IOPOSTotalsEvents@@3U_GUID@@BVCComDynamicUnkArray@ATL@@@ATL@@UAGJABU_GUID@@PAPAX@Z 100230f0 f i Totals.obj
 0001:00022190       ?_LocCPQueryInterface@?$IConnectionPointImpl@VCOPOSTotals@@$1?IID_IPropertyNotifySink@@3U_GUID@@BVCComDynamicUnkArray@ATL@@@ATL@@UAGJABU_GUID@@PAPAX@Z 10023190 f i Totals.obj
 0001:00022230       ?atlCreate@?$CWindowImpl@VCOPOSTotals@@VCWindow@ATL@@V?$CWinTraits@$0FGAAAAAA@$0A@@3@@ATL@@QAEPAUHWND__@@PAU3@V_U_RECT@2@PB_WKKV_U_MENUorID@2@PAX@Z 10023230 f i Totals.obj
 0001:000222e0       ?atlCreate@?$CWindowImplBaseT@VCWindow@ATL@@V?$CWinTraits@$0FGAAAAAA@$0A@@2@@ATL@@QAEPAUHWND__@@PAU3@V_U_RECT@2@PB_WKKV_U_MENUorID@2@GPAX@Z 100232e0 f i Totals.obj
 0001:00022460       ?atlCreate@CRegKey@ATL@@QAEJPAUHKEY__@@PB_WPA_WKKPAU_SECURITY_ATTRIBUTES@@PAK@Z 10023460 f i Totals.obj
 0001:000225c0       ?begin@CComDynamicUnkArray@ATL@@QAEPAPAUIUnknown@@XZ 100235c0 f i Totals.obj
 0001:000225e0       ?copy@?$_Copy@UtagCONNECTDATA@@@ATL@@SAJPAUtagCONNECTDATA@@PBU3@@Z 100235e0 f i Totals.obj
 0001:000226a0       ?copy@?$_CopyInterface@UIConnectionPoint@@@ATL@@SAJPAPAUIConnectionPoint@@PBQAU3@@Z 100236a0 f i Totals.obj
 0001:00022760       ?destroy@?$_Copy@UtagCONNECTDATA@@@ATL@@SAXPAUtagCONNECTDATA@@@Z 10023760 f i Totals.obj
 0001:000227a0       ?destroy@?$_CopyInterface@UIConnectionPoint@@@ATL@@SAXPAPAUIConnectionPoint@@@Z 100237a0 f i Totals.obj
 0001:000227e0       ?end@CComDynamicUnkArray@ATL@@QAEPAPAUIUnknown@@XZ 100237e0 f i Totals.obj
 0001:00022800       ?init@?$_Copy@UtagCONNECTDATA@@@ATL@@SAXPAUtagCONNECTDATA@@@Z 10023800 f i Totals.obj
 0001:00022810       ?init@?$_CopyInterface@UIConnectionPoint@@@ATL@@SAXPAPAUIConnectionPoint@@@Z 10023810 f i Totals.obj
 0001:00022820       ?memcpy_s@Checked@ATL@@YAXPAXIPBXI@Z 10023820 f i Totals.obj
 0001:00022850       ?ocscpy_s@@YA_NPA_WIPB_W@Z 10023850 f i Totals.obj
 0001:000228b0       ?ocslen@@YAHPB_W@Z         100238b0 f i Totals.obj
 0001:000228e0       ?tcsncpy_s@Checked@ATL@@YAHPA_WIPB_WI@Z 100238e0 f i Totals.obj
 0001:00022910       ?wcscat_s@Checked@ATL@@YAXPA_WIPB_W@Z 10023910 f i Totals.obj
 0001:00022940       ?wcscpy_s@Checked@ATL@@YAXPA_WIPB_W@Z 10023940 f i Totals.obj
 0001:00022970       ?wcsncpy_s@Checked@ATL@@YAHPA_WIPB_WI@Z 10023970 f i Totals.obj
 0001:000229a0       ?wcsstr@@YAPA_WPA_WPB_W@Z  100239a0 f i Totals.obj
 0001:000229c0       _InlineIsEqualGUID         100239c0 f i Totals.obj
 0001:00022a60       _IsEqualGUID               10023a60 f i Totals.obj
 0001:00022ab0       ??0COPOSTotals@@QAE@XZ     10023ab0 f   TotalsImpl.obj
 0001:00022bc0       ?FinalConstruct@COPOSTotals@@QAEJXZ 10023bc0 f   TotalsImpl.obj
 0001:00022c90       ??1COPOSTotals@@UAE@XZ     10023c90 f   TotalsImpl.obj
 0001:00022d70       ?WriteTrace@COPOSTotals@@QAAXPB_WZZ 10023d70 f   TotalsImpl.obj
 0001:00022e20       ?WriteTraceString@COPOSTotals@@QAEXPB_WPA_W@Z 10023e20 f   TotalsImpl.obj
 0001:00023190       ?WriteTraceString@COPOSTotals@@QAAXPAXHHHPB_WZZ 10024190 f   TotalsImpl.obj
 0001:000233c0       ?WriteTraceError@COPOSTotals@@QAEXPB_WK@Z 100243c0 f   TotalsImpl.obj
 0001:000234b0       ?WriteTraceMethods@COPOSTotals@@QAEXPAJH@Z 100244b0 f   TotalsImpl.obj
 0001:00023520       ?GetOposProp@COPOSTotals@@IAEJPBDJPAJJ@Z 10024520 f   TotalsImpl.obj
 0001:00023790       ?SetOposProp@COPOSTotals@@IAEJPBDJJJ@Z 10024790 f   TotalsImpl.obj
 0001:00023a20       ?GetOposProp@COPOSTotals@@IAEJPBDJPAFJ@Z 10024a20 f   TotalsImpl.obj
 0001:00023ac0       ?SetOposProp@COPOSTotals@@IAEJPBDJFJ@Z 10024ac0 f   TotalsImpl.obj
 0001:00023b20       ?GetOposProp@COPOSTotals@@IAEJPBDJPAPA_WJ@Z 10024b20 f   TotalsImpl.obj
 0001:00023da0       ?SetOposProp@COPOSTotals@@IAEJPBDJPA_WJ@Z 10024da0 f   TotalsImpl.obj
 0001:000240e0       ?DoInvoke@COPOSTotals@@IAEJPBDJPAVOposVariant@@IHPAJ_N@Z 100250e0 f   TotalsImpl.obj
 0001:00024a10       ?SetCOFreezeEvents@COPOSTotals@@IAEXF@Z 10025a10 f   TotalsImpl.obj
 0001:00024b50       ?FreezeEvents@COPOSTotals@@MAGJH@Z 10025b50 f   TotalsImpl.obj
 0001:00024c10       ?OnDraw@COPOSTotals@@MAEJAAUATL_DRAWINFO@@@Z 10025c10 f   TotalsImpl.obj
 0001:00024db0       ?SOProcessID@COPOSTotals@@UAGJPAJ@Z 10025db0 f   TotalsImpl.obj
 0001:00024df0       ?get_OpenResult@COPOSTotals@@UAGJPAJ@Z 10025df0 f   TotalsImpl.obj
 0001:00024e30       ?get_CheckHealthText@COPOSTotals@@UAGJPAPA_W@Z 10025e30 f   TotalsImpl.obj
 0001:00024e60       ?get_Claimed@COPOSTotals@@UAGJPAF@Z 10025e60 f   TotalsImpl.obj
 0001:00024e90       ?get_DeviceEnabled@COPOSTotals@@UAGJPAF@Z 10025e90 f   TotalsImpl.obj
 0001:00024ec0       ?put_DeviceEnabled@COPOSTotals@@UAGJF@Z 10025ec0 f   TotalsImpl.obj
 0001:00024ef0       ?get_FreezeEvents@COPOSTotals@@UAGJPAF@Z 10025ef0 f   TotalsImpl.obj
 0001:00024f20       ?put_FreezeEvents@COPOSTotals@@UAGJF@Z 10025f20 f   TotalsImpl.obj
 0001:00024fb0       ?get_ResultCode@COPOSTotals@@UAGJPAJ@Z 10025fb0 f   TotalsImpl.obj
 0001:00025040       ?get_ResultCodeExtended@COPOSTotals@@UAGJPAJ@Z 10026040 f   TotalsImpl.obj
 0001:00025070       ?get_State@COPOSTotals@@UAGJPAJ@Z 10026070 f   TotalsImpl.obj
 0001:000250c0       ?get_ControlObjectDescription@COPOSTotals@@UAGJPAPA_W@Z 100260c0 f   TotalsImpl.obj
 0001:00025140       ?get_ControlObjectVersion@COPOSTotals@@UAGJPAJ@Z 10026140 f   TotalsImpl.obj
 0001:00025180       ?get_ServiceObjectDescription@COPOSTotals@@UAGJPAPA_W@Z 10026180 f   TotalsImpl.obj
 0001:000251b0       ?get_ServiceObjectVersion@COPOSTotals@@UAGJPAJ@Z 100261b0 f   TotalsImpl.obj
 0001:000251e0       ?get_DeviceDescription@COPOSTotals@@UAGJPAPA_W@Z 100261e0 f   TotalsImpl.obj
 0001:00025210       ?get_DeviceName@COPOSTotals@@UAGJPAPA_W@Z 10026210 f   TotalsImpl.obj
 0001:00025240       ?CheckHealth@COPOSTotals@@UAGJJPAJ@Z 10026240 f   TotalsImpl.obj
 0001:000252e0       ?ClaimDevice@COPOSTotals@@UAGJJPAJ@Z 100262e0 f   TotalsImpl.obj
 0001:000253c0       ?Close@COPOSTotals@@UAGJPAJ@Z 100263c0 f   TotalsImpl.obj
 0001:00025490       ?DirectIO@COPOSTotals@@UAGJJPAJPAPA_W0@Z 10026490 f   TotalsImpl.obj
 0001:000255a0       ?Open@COPOSTotals@@UAGJPA_WPAJ@Z 100265a0 f   TotalsImpl.obj
 0001:00026780       ?ReleaseDevice@COPOSTotals@@UAGJPAJ@Z 10027780 f   TotalsImpl.obj
 0001:000267e0       ?get_CapErrorDetection@COPOSTotals@@UAGJPAF@Z 100277e0 f   TotalsImpl.obj
 0001:00026810       ?get_CapSingleFile@COPOSTotals@@UAGJPAF@Z 10027810 f   TotalsImpl.obj
 0001:00026840       ?get_CapTransactions@COPOSTotals@@UAGJPAF@Z 10027840 f   TotalsImpl.obj
 0001:00026870       ?get_FreeData@COPOSTotals@@UAGJPAJ@Z 10027870 f   TotalsImpl.obj
 0001:000268a0       ?get_NumberOfFiles@COPOSTotals@@UAGJPAJ@Z 100278a0 f   TotalsImpl.obj
 0001:000268d0       ?get_TotalsSize@COPOSTotals@@UAGJPAJ@Z 100278d0 f   TotalsImpl.obj
 0001:00026900       ?get_TransactionInProgress@COPOSTotals@@UAGJPAF@Z 10027900 f   TotalsImpl.obj
 0001:00026930       ?BeginTrans@COPOSTotals@@UAGJPAJ@Z 10027930 f   TotalsImpl.obj
 0001:00026960       ?ClaimFile@COPOSTotals@@UAGJJJPAJ@Z 10027960 f   TotalsImpl.obj
 0001:00026a30       ?CommitTrans@COPOSTotals@@UAGJPAJ@Z 10027a30 f   TotalsImpl.obj
 0001:00026a60       ?Create@COPOSTotals@@UAGJPA_WPAJJF1@Z 10027a60 f   TotalsImpl.obj
 0001:00026b90       ?Delete@COPOSTotals@@UAGJPA_WPAJ@Z 10027b90 f   TotalsImpl.obj
 0001:00026c40       ?Find@COPOSTotals@@UAGJPA_WPAJ11@Z 10027c40 f   TotalsImpl.obj
 0001:00026d60       ?FindByIndex@COPOSTotals@@UAGJJPAPA_WPAJ@Z 10027d60 f   TotalsImpl.obj
 0001:00026e50       ?Read@COPOSTotals@@UAGJJPAPA_WJJPAJ@Z 10027e50 f   TotalsImpl.obj
 0001:00026f70       ?RecalculateValidationData@COPOSTotals@@UAGJJPAJ@Z 10027f70 f   TotalsImpl.obj
 0001:00027010       ?ReleaseFile@COPOSTotals@@UAGJJPAJ@Z 10028010 f   TotalsImpl.obj
 0001:000270b0       ?Rename@COPOSTotals@@UAGJJPA_WPAJ@Z 100280b0 f   TotalsImpl.obj
 0001:000271a0       ?Rollback@COPOSTotals@@UAGJPAJ@Z 100281a0 f   TotalsImpl.obj
 0001:000271d0       ?SetAll@COPOSTotals@@UAGJJJPAJ@Z 100281d0 f   TotalsImpl.obj
 0001:000272a0       ?ValidateData@COPOSTotals@@UAGJJPAJ@Z 100282a0 f   TotalsImpl.obj
 0001:00027340       ?Write@COPOSTotals@@UAGJJPA_WJJPAJ@Z 10028340 f   TotalsImpl.obj
 0001:00027460       ?get_BinaryConversion@COPOSTotals@@UAGJPAJ@Z 10028460 f   TotalsImpl.obj
 0001:00027490       ?put_BinaryConversion@COPOSTotals@@UAGJJ@Z 10028490 f   TotalsImpl.obj
 0001:000274c0       ?get_CapPowerReporting@COPOSTotals@@UAGJPAJ@Z 100284c0 f   TotalsImpl.obj
 0001:000274f0       ?get_PowerNotify@COPOSTotals@@UAGJPAJ@Z 100284f0 f   TotalsImpl.obj
 0001:00027520       ?put_PowerNotify@COPOSTotals@@UAGJJ@Z 10028520 f   TotalsImpl.obj
 0001:00027550       ?get_PowerState@COPOSTotals@@UAGJPAJ@Z 10028550 f   TotalsImpl.obj
 0001:00027580       ?get_CapStatisticsReporting@COPOSTotals@@UAGJPAF@Z 10028580 f   TotalsImpl.obj
 0001:000275b0       ?get_CapUpdateStatistics@COPOSTotals@@UAGJPAF@Z 100285b0 f   TotalsImpl.obj
 0001:000275e0       ?ResetStatistics@COPOSTotals@@UAGJPA_WPAJ@Z 100285e0 f   TotalsImpl.obj
 0001:00027690       ?RetrieveStatistics@COPOSTotals@@UAGJPAPA_WPAJ@Z 10028690 f   TotalsImpl.obj
 0001:00027740       ?UpdateStatistics@COPOSTotals@@UAGJPA_WPAJ@Z 10028740 f   TotalsImpl.obj
 0001:000277f0       ?get_CapCompareFirmwareVersion@COPOSTotals@@UAGJPAF@Z 100287f0 f   TotalsImpl.obj
 0001:00027820       ?get_CapUpdateFirmware@COPOSTotals@@UAGJPAF@Z 10028820 f   TotalsImpl.obj
 0001:00027850       ?CompareFirmwareVersion@COPOSTotals@@UAGJPA_WPAJ1@Z 10028850 f   TotalsImpl.obj
 0001:00027940       ?UpdateFirmware@COPOSTotals@@UAGJPA_WPAJ@Z 10028940 f   TotalsImpl.obj
 0001:000279f0       ??0?$CComControl@VCOPOSTotals@@V?$CWindowImpl@VCOPOSTotals@@VCWindow@ATL@@V?$CWinTraits@$0FGAAAAAA@$0A@@3@@ATL@@@ATL@@QAE@XZ 100289f0 f i TotalsImpl.obj
 0001:00027a30       ??0?$CComPtr@UIAdviseSink@@@ATL@@QAE@XZ 10028a30 f i TotalsImpl.obj
 0001:00027a60       ??0?$CComPtr@UIDataAdviseHolder@@@ATL@@QAE@XZ 10028a60 f i TotalsImpl.obj
 0001:00027a90       ??0?$CComPtr@UIOleAdviseHolder@@@ATL@@QAE@XZ 10028a90 f i TotalsImpl.obj
 0001:00027ac0       ??0?$CComPtr@UIOleClientSite@@@ATL@@QAE@XZ 10028ac0 f i TotalsImpl.obj
 0001:00027af0       ??0?$CComPtr@UIOleInPlaceSiteWindowless@@@ATL@@QAE@XZ 10028af0 f i TotalsImpl.obj
 0001:00027b20       ??0?$CComPtrBase@UIAdviseSink@@@ATL@@IAE@XZ 10028b20 f i TotalsImpl.obj
 0001:00027b40       ??0?$CComPtrBase@UIDataAdviseHolder@@@ATL@@IAE@XZ 10028b40 f i TotalsImpl.obj
 0001:00027b60       ??0?$CComPtrBase@UIOleAdviseHolder@@@ATL@@IAE@XZ 10028b60 f i TotalsImpl.obj
 0001:00027b80       ??0?$CComPtrBase@UIOleClientSite@@@ATL@@IAE@XZ 10028b80 f i TotalsImpl.obj
 0001:00027ba0       ??0?$CComPtrBase@UIOleInPlaceSiteWindowless@@@ATL@@IAE@XZ 10028ba0 f i TotalsImpl.obj
 0001:00027bc0       ??0?$CComQIPtr@UIDispatch@@$1?_GUID_00020400_0000_0000_c000_000000000046@@3U__s_GUID@@B@ATL@@QAE@XZ 10028bc0 f i TotalsImpl.obj
 0001:00027bf0       ??0?$CProxy_IOPOSEvents@VCOPOSTotals@@@@QAE@PAVCOPOSTotals@@@Z 10028bf0 f i TotalsImpl.obj
 0001:00027c40       ??0?$CWindowImpl@VCOPOSTotals@@VCWindow@ATL@@V?$CWinTraits@$0FGAAAAAA@$0A@@3@@ATL@@QAE@XZ 10028c40 f i TotalsImpl.obj
 0001:00027c70       ??0?$CWindowImplBaseT@VCWindow@ATL@@V?$CWinTraits@$0FGAAAAAA@$0A@@2@@ATL@@QAE@XZ 10028c70 f i TotalsImpl.obj
 0001:00027cb0       ??0?$CWindowImplRoot@VCWindow@ATL@@@ATL@@QAE@XZ 10028cb0 f i TotalsImpl.obj
 0001:00027d10       ??0?$IConnectionPointContainerImpl@VCOPOSTotals@@@ATL@@QAE@XZ 10028d10 f i TotalsImpl.obj
 0001:00027d40       ??0?$IConnectionPointImpl@VCOPOSTotals@@$1?DIID__IOPOSTotalsEvents@@3U_GUID@@BVCComDynamicUnkArray@ATL@@@ATL@@QAE@XZ 10028d40 f i TotalsImpl.obj
 0001:00027d80       ??0?$IConnectionPointImpl@VCOPOSTotals@@$1?IID_IPropertyNotifySink@@3U_GUID@@BVCComDynamicUnkArray@ATL@@@ATL@@QAE@XZ 10028d80 f i TotalsImpl.obj
 0001:00027dc0       ??0?$IDataObjectImpl@VCOPOSTotals@@@ATL@@QAE@XZ 10028dc0 f i TotalsImpl.obj
 0001:00027df0       ??0?$IDispatchImpl@UIOPOSTotals@@$1?IID_IOPOSTotals@@3U_GUID@@B$1?LIBID_OposTotals_CCO@@3U3@B$00$0A@VCComTypeInfoHolder@ATL@@@ATL@@QAE@XZ 10028df0 f i TotalsImpl.obj
 0001:00027e20       ??0?$IObjectSafetyImpl@VCOPOSTotals@@$02@ATL@@QAE@XZ 10028e20 f i TotalsImpl.obj
 0001:00027e60       ??0?$IOleControlImpl@VCOPOSTotals@@@ATL@@QAE@XZ 10028e60 f i TotalsImpl.obj
 0001:00027e90       ??0?$IOleInPlaceActiveObjectImpl@VCOPOSTotals@@@ATL@@QAE@XZ 10028e90 f i TotalsImpl.obj
 0001:00027ec0       ??0?$IOleInPlaceObjectWindowlessImpl@VCOPOSTotals@@@ATL@@QAE@XZ 10028ec0 f i TotalsImpl.obj
 0001:00027ef0       ??0?$IOleObjectImpl@VCOPOSTotals@@@ATL@@QAE@XZ 10028ef0 f i TotalsImpl.obj
 0001:00027f20       ??0?$IPersistStorageImpl@VCOPOSTotals@@@ATL@@QAE@XZ 10028f20 f i TotalsImpl.obj
 0001:00027f50       ??0?$IPersistStreamInitImpl@VCOPOSTotals@@@ATL@@QAE@XZ 10028f50 f i TotalsImpl.obj
 0001:00027f80       ??0?$IPropertyNotifySinkCP@VCOPOSTotals@@VCComDynamicUnkArray@ATL@@@ATL@@QAE@XZ 10028f80 f i TotalsImpl.obj
 0001:00027fb0       ??0?$IProvideClassInfo2Impl@$1?CLSID_OPOSTotals@@3U_GUID@@B$1?DIID__IOPOSTotalsEvents@@3U2@B$1?LIBID_OposTotals_CCO@@3U2@B$00$0A@VCComTypeInfoHolder@ATL@@@ATL@@QAE@XZ 10028fb0 f i TotalsImpl.obj
 0001:00027fe0       ??0?$IQuickActivateImpl@VCOPOSTotals@@@ATL@@QAE@XZ 10028fe0 f i TotalsImpl.obj
 0001:00028010       ??0?$ISpecifyPropertyPagesImpl@VCOPOSTotals@@@ATL@@QAE@XZ 10029010 f i TotalsImpl.obj
 0001:00028040       ??0?$IViewObjectExImpl@VCOPOSTotals@@@ATL@@QAE@XZ 10029040 f i TotalsImpl.obj
 0001:00028070       ??0?$_ICPLocator@$1?DIID__IOPOSTotalsEvents@@3U_GUID@@B@ATL@@QAE@XZ 10029070 f i TotalsImpl.obj
 0001:00028090       ??0?$_ICPLocator@$1?IID_IPropertyNotifySink@@3U_GUID@@B@ATL@@QAE@XZ 10029090 f i TotalsImpl.obj
 0001:000280b0       ??0CComControlBase@ATL@@QAE@AAPAUHWND__@@@Z 100290b0 f i TotalsImpl.obj
 0001:00028260       ??0CComDynamicUnkArray@ATL@@QAE@XZ 10029260 f i TotalsImpl.obj
 0001:00028290       ??0CDynamicStdCallThunk2@ATL@@QAE@XZ 10029290 f i TotalsImpl.obj
 0001:000282b0       ??0CMessageMap@ATL@@QAE@XZ 100292b0 f i TotalsImpl.obj
 0001:000282d0       ??0CWindow@ATL@@QAE@PAUHWND__@@@Z 100292d0 f i TotalsImpl.obj
 0001:000282f0       ??0CWndProcThunk@ATL@@QAE@XZ 100292f0 f i TotalsImpl.obj
 0001:00028320       ??0IConnectionPointContainer@@QAE@XZ 10029320 f i TotalsImpl.obj
 0001:00028350       ??0IDataObject@@QAE@XZ     10029350 f i TotalsImpl.obj
 0001:00028380       ??0IDispatch@@QAE@XZ       10029380 f i TotalsImpl.obj
 0001:000283b0       ??0IOPOSTotals@@QAE@XZ     100293b0 f i TotalsImpl.obj
 0001:000283e0       ??0IOPOSTotals_1_5@@QAE@XZ 100293e0 f i TotalsImpl.obj
 0001:00028410       ??0IOPOSTotals_1_8@@QAE@XZ 10029410 f i TotalsImpl.obj
 0001:00028440       ??0IOPOSTotals_1_9@@QAE@XZ 10029440 f i TotalsImpl.obj
 0001:00028470       ??0IObjectSafety@@QAE@XZ   10029470 f i TotalsImpl.obj
 0001:000284a0       ??0IOleControl@@QAE@XZ     100294a0 f i TotalsImpl.obj
 0001:000284d0       ??0IOleInPlaceActiveObject@@QAE@XZ 100294d0 f i TotalsImpl.obj
 0001:00028500       ??0IOleInPlaceObject@@QAE@XZ 10029500 f i TotalsImpl.obj
 0001:00028530       ??0IOleInPlaceObjectWindowless@@QAE@XZ 10029530 f i TotalsImpl.obj
 0001:00028560       ??0IOleObject@@QAE@XZ      10029560 f i TotalsImpl.obj
 0001:00028590       ??0IOleWindow@@QAE@XZ      10029590 f i TotalsImpl.obj
 0001:000285c0       ??0IPersist@@QAE@XZ        100295c0 f i TotalsImpl.obj
 0001:000285f0       ??0IPersistStorage@@QAE@XZ 100295f0 f i TotalsImpl.obj
 0001:00028620       ??0IPersistStreamInit@@QAE@XZ 10029620 f i TotalsImpl.obj
 0001:00028650       ??0IProvideClassInfo2@@QAE@XZ 10029650 f i TotalsImpl.obj
 0001:00028680       ??0IProvideClassInfo@@QAE@XZ 10029680 f i TotalsImpl.obj
 0001:000286b0       ??0IQuickActivate@@QAE@XZ  100296b0 f i TotalsImpl.obj
 0001:000286e0       ??0ISpecifyPropertyPages@@QAE@XZ 100296e0 f i TotalsImpl.obj
 0001:00028710       ??0IViewObject2@@QAE@XZ    10029710 f i TotalsImpl.obj
 0001:00028740       ??0IViewObject@@QAE@XZ     10029740 f i TotalsImpl.obj
 0001:00028770       ??0IViewObjectEx@@QAE@XZ   10029770 f i TotalsImpl.obj
 0001:000287a0       ??0OposVariantResult@@QAE@XZ 100297a0 f i TotalsImpl.obj
 0001:000287d0       ??0_CW@@QAE@PBD@Z          100297d0 f i TotalsImpl.obj
 0001:00028810       ??0_CW@@QAE@PB_W@Z         10029810 f i TotalsImpl.obj
 0001:00028850       ??0_CWNCC@@QAE@PBD@Z       10029850 f i TotalsImpl.obj
 0001:00028880       ??1?$CComControl@VCOPOSTotals@@V?$CWindowImpl@VCOPOSTotals@@VCWindow@ATL@@V?$CWinTraits@$0FGAAAAAA@$0A@@3@@ATL@@@ATL@@UAE@XZ 10029880 f i TotalsImpl.obj
 0001:000288b0       ??1?$CComPtr@UIDataAdviseHolder@@@ATL@@QAE@XZ 100298b0 f i TotalsImpl.obj
 0001:000288e0       ??1?$CComPtr@UIOleAdviseHolder@@@ATL@@QAE@XZ 100298e0 f i TotalsImpl.obj
 0001:00028910       ??1?$CComPtr@UIOleInPlaceSiteWindowless@@@ATL@@QAE@XZ 10029910 f i TotalsImpl.obj
 0001:00028940       ??1?$CComPtrBase@UIDataAdviseHolder@@@ATL@@QAE@XZ 10029940 f i TotalsImpl.obj
 0001:00028990       ??1?$CComPtrBase@UIOleAdviseHolder@@@ATL@@QAE@XZ 10029990 f i TotalsImpl.obj
 0001:000289e0       ??1?$CComPtrBase@UIOleInPlaceSiteWindowless@@@ATL@@QAE@XZ 100299e0 f i TotalsImpl.obj
 0001:00028a30       ??1?$CComQIPtr@UIDispatch@@$1?_GUID_00020400_0000_0000_c000_000000000046@@3U__s_GUID@@B@ATL@@QAE@XZ 10029a30 f i TotalsImpl.obj
 0001:00028a60       ??1?$CProxy_IOPOSEvents@VCOPOSTotals@@@@QAE@XZ 10029a60 f i TotalsImpl.obj
 0001:00028a90       ??1?$CWindowImpl@VCOPOSTotals@@VCWindow@ATL@@V?$CWinTraits@$0FGAAAAAA@$0A@@3@@ATL@@UAE@XZ 10029a90 f i TotalsImpl.obj
 0001:00028ac0       ??1?$CWindowImplBaseT@VCWindow@ATL@@V?$CWinTraits@$0FGAAAAAA@$0A@@2@@ATL@@UAE@XZ 10029ac0 f i TotalsImpl.obj
 0001:00028af0       ??1?$CWindowImplRoot@VCWindow@ATL@@@ATL@@UAE@XZ 10029af0 f i TotalsImpl.obj
 0001:00028b90       ??1?$IConnectionPointImpl@VCOPOSTotals@@$1?DIID__IOPOSTotalsEvents@@3U_GUID@@BVCComDynamicUnkArray@ATL@@@ATL@@QAE@XZ 10029b90 f i TotalsImpl.obj
 0001:00028c10       ??1?$IConnectionPointImpl@VCOPOSTotals@@$1?IID_IPropertyNotifySink@@3U_GUID@@BVCComDynamicUnkArray@ATL@@@ATL@@QAE@XZ 10029c10 f i TotalsImpl.obj
 0001:00028c90       ??1?$IPropertyNotifySinkCP@VCOPOSTotals@@VCComDynamicUnkArray@ATL@@@ATL@@QAE@XZ 10029c90 f i TotalsImpl.obj
 0001:00028cc0       ??1CComControlBase@ATL@@UAE@XZ 10029cc0 f i TotalsImpl.obj
 0001:00028d80       ??1CComDynamicUnkArray@ATL@@QAE@XZ 10029d80 f i TotalsImpl.obj
 0001:00028dc0       ??1CDynamicStdCallThunk2@ATL@@QAE@XZ 10029dc0 f i TotalsImpl.obj
 0001:00028df0       ??1CWndProcThunk@ATL@@QAE@XZ 10029df0 f i TotalsImpl.obj
 0001:00028e20       ??1OposVariantResult@@QAE@XZ 10029e20 f i TotalsImpl.obj
 0001:00028e50       ??1_CW@@QAE@XZ             10029e50 f i TotalsImpl.obj
 0001:00028ec0       ??1_CWNCC@@QAE@XZ          10029ec0 f i TotalsImpl.obj
 0001:00028ef0       ??B_CW@@QAEPB_WXZ          10029ef0 f i TotalsImpl.obj
 0001:00028f30       ??B_CWNCC@@QAEPA_WXZ       10029f30 f i TotalsImpl.obj
 0001:00028f60       ??_EOposVariant@@QAEPAXI@Z 10029f60 f i TotalsImpl.obj
 0001:00028ff0       ?EventClose@COPOSTotals@@IAEXXZ 10029ff0 f i TotalsImpl.obj
 0001:00029090       ?EventInit@COPOSTotals@@IAEJXZ 1002a090 f i TotalsImpl.obj
 0001:000292c0       ?EventOpen@COPOSTotals@@IAEXXZ 1002a2c0 f i TotalsImpl.obj
 0001:00029300       ?EventPreClose@COPOSTotals@@IAEXXZ 1002a300 f i TotalsImpl.obj
 0001:00029380       ?EventUninit@COPOSTotals@@IAEXXZ 1002a380 f i TotalsImpl.obj
 0001:000294b0       ?EventWindowProc@COPOSTotals@@IAGJIIJ@Z 1002a4b0 f i TotalsImpl.obj
 0001:00029590       ?FireEventCleanup@COPOSTotals@@IAEXXZ 1002a590 f i TotalsImpl.obj
 0001:000295e0       ?FireEventSetup@COPOSTotals@@IAE_NXZ 1002a5e0 f i TotalsImpl.obj
 0001:00029650       ?GetModuleInstance@CComModule@ATL@@QAEPAUHINSTANCE__@@XZ 1002a650 f i TotalsImpl.obj
 0001:00029670       ?SetRC@COPOSTotals@@IAEJJ@Z 1002a670 f i TotalsImpl.obj
 0001:000296a0       ?s_EventWindowProc@COPOSTotals@@KGJPAUHWND__@@IIJ@Z 1002a6a0 f i TotalsImpl.obj
 0001:00029740       __snwprintf                1002a740 f i TotalsImpl.obj
 0001:000297a0       __vfwprintf_l              1002a7a0 f i TotalsImpl.obj
 0001:000297d0       __vsnwprintf               1002a7d0 f i TotalsImpl.obj
 0001:00029800       __vsnwprintf_l             1002a800 f i TotalsImpl.obj
 0001:00029870       _vfwprintf                 1002a870 f i TotalsImpl.obj
 0001:00029892       _DebugBreak@0              1002a892 f   kernel32:KERNEL32.dll
 0001:00029898       _Sleep@4                   1002a898 f   kernel32:KERNEL32.dll
 0001:0002989e       _GetCurrentProcess@0       1002a89e f   kernel32:KERNEL32.dll
 0001:000298a4       _TerminateProcess@8        1002a8a4 f   kernel32:KERNEL32.dll
 0001:000298aa       _MultiByteToWideChar@24    1002a8aa f   kernel32:KERNEL32.dll
 0001:000298b0       _WideCharToMultiByte@32    1002a8b0 f   kernel32:KERNEL32.dll
 0001:000298b6       _DecodePointer@4           1002a8b6 f   kernel32:KERNEL32.dll
 0001:000298bc       _RaiseException@16         1002a8bc f   kernel32:KERNEL32.dll
 0001:000298c2       _GetLastError@0            1002a8c2 f   kernel32:KERNEL32.dll
 0001:000298c8       _SetLastError@4            1002a8c8 f   kernel32:KERNEL32.dll
 0001:000298ce       _InitializeCriticalSectionEx@12 1002a8ce f   kernel32:KERNEL32.dll
 0001:000298d4       _DeleteCriticalSection@4   1002a8d4 f   kernel32:KERNEL32.dll
 0001:000298da       _EncodePointer@4           1002a8da f   kernel32:KERNEL32.dll
 0001:000298e0       _EnterCriticalSection@4    1002a8e0 f   kernel32:KERNEL32.dll
 0001:000298e6       _LeaveCriticalSection@4    1002a8e6 f   kernel32:KERNEL32.dll
 0001:000298ec       _ResetEvent@4              1002a8ec f   kernel32:KERNEL32.dll
 0001:000298f2       _ReleaseMutex@4            1002a8f2 f   kernel32:KERNEL32.dll
 0001:000298f8       _WaitForSingleObject@8     1002a8f8 f   kernel32:KERNEL32.dll
 0001:000298fe       _GetCurrentThreadId@0      1002a8fe f   kernel32:KERNEL32.dll
 0001:00029904       _DisableThreadLibraryCalls@4 1002a904 f   kernel32:KERNEL32.dll
 0001:0002990a       _FreeLibrary@4             1002a90a f   kernel32:KERNEL32.dll
 0001:00029910       _GetModuleFileNameW@12     1002a910 f   kernel32:KERNEL32.dll
 0001:00029916       _GetModuleHandleW@4        1002a916 f   kernel32:KERNEL32.dll
 0001:0002991c       _GetProcAddress@8          1002a91c f   kernel32:KERNEL32.dll
 0001:00029922       _LoadLibraryExW@12         1002a922 f   kernel32:KERNEL32.dll
 0001:00029928       _LoadResource@8            1002a928 f   kernel32:KERNEL32.dll
 0001:0002992e       _SizeofResource@8          1002a92e f   kernel32:KERNEL32.dll
 0001:00029934       _FindResourceW@12          1002a934 f   kernel32:KERNEL32.dll
 0001:0002993a       _GlobalAlloc@8             1002a93a f   kernel32:KERNEL32.dll
 0001:00029940       _GlobalUnlock@4            1002a940 f   kernel32:KERNEL32.dll
 0001:00029946       _GlobalLock@4              1002a946 f   kernel32:KERNEL32.dll
 0001:0002994c       _MulDiv@12                 1002a94c f   kernel32:KERNEL32.dll
 0001:00029952       _lstrcmpiW@8               1002a952 f   kernel32:KERNEL32.dll
 0001:00029958       _DeleteFileW@4             1002a958 f   kernel32:KERNEL32.dll
 0001:0002995e       _CloseHandle@4             1002a95e f   kernel32:KERNEL32.dll
 0001:00029964       _SetEvent@4                1002a964 f   kernel32:KERNEL32.dll
 0001:0002996a       _CreateMutexW@12           1002a96a f   kernel32:KERNEL32.dll
 0001:00029970       _CreateEventW@16           1002a970 f   kernel32:KERNEL32.dll
 0001:00029976       _GetCurrentProcessId@0     1002a976 f   kernel32:KERNEL32.dll
 0001:0002997c       _LocalFree@4               1002a97c f   kernel32:KERNEL32.dll
 0001:00029982       _FormatMessageW@28         1002a982 f   kernel32:KERNEL32.dll
 0001:00029988       _GetActiveWindow@0         1002a988 f   user32:USER32.dll
 0001:0002998e       _MessageBoxW@16            1002a98e f   user32:USER32.dll
 0001:00029994       _UnregisterClassW@8        1002a994 f   user32:USER32.dll
 0001:0002999a       _PostMessageW@16           1002a99a f   user32:USER32.dll
 0001:000299a0       _DefWindowProcW@16         1002a9a0 f   user32:USER32.dll
 0001:000299a6       _CallWindowProcW@20        1002a9a6 f   user32:USER32.dll
 0001:000299ac       _RegisterClassExW@4        1002a9ac f   user32:USER32.dll
 0001:000299b2       _GetClassInfoExW@12        1002a9b2 f   user32:USER32.dll
 0001:000299b8       _CreateWindowExW@48        1002a9b8 f   user32:USER32.dll
 0001:000299be       _IsWindow@4                1002a9be f   user32:USER32.dll
 0001:000299c4       _IsChild@8                 1002a9c4 f   user32:USER32.dll
 0001:000299ca       _DestroyWindow@4           1002a9ca f   user32:USER32.dll
 0001:000299d0       _ShowWindow@8              1002a9d0 f   user32:USER32.dll
 0001:000299d6       _SetWindowPos@28           1002a9d6 f   user32:USER32.dll
 0001:000299dc       _CharNextW@4               1002a9dc f   user32:USER32.dll
 0001:000299e2       _SetFocus@4                1002a9e2 f   user32:USER32.dll
 0001:000299e8       _GetFocus@0                1002a9e8 f   user32:USER32.dll
 0001:000299ee       _GetKeyState@4             1002a9ee f   user32:USER32.dll
 0001:000299f4       _GetDC@4                   1002a9f4 f   user32:USER32.dll
 0001:000299fa       _ReleaseDC@8               1002a9fa f   user32:USER32.dll
 0001:00029a00       _BeginPaint@8              1002aa00 f   user32:USER32.dll
 0001:00029a06       _EndPaint@8                1002aa06 f   user32:USER32.dll
 0001:00029a0c       _SetWindowRgn@12           1002aa0c f   user32:USER32.dll
 0001:00029a12       _InvalidateRect@12         1002aa12 f   user32:USER32.dll
 0001:00029a18       _GetClientRect@8           1002aa18 f   user32:USER32.dll
 0001:00029a1e       _IntersectRect@12          1002aa1e f   user32:USER32.dll
 0001:00029a24       _UnionRect@12              1002aa24 f   user32:USER32.dll
 0001:00029a2a       _OffsetRect@12             1002aa2a f   user32:USER32.dll
 0001:00029a30       _EqualRect@8               1002aa30 f   user32:USER32.dll
 0001:00029a36       _PtInRect@12               1002aa36 f   user32:USER32.dll
 0001:00029a3c       _GetWindowLongW@8          1002aa3c f   user32:USER32.dll
 0001:00029a42       _SetWindowLongW@12         1002aa42 f   user32:USER32.dll
 0001:00029a48       _GetParent@4               1002aa48 f   user32:USER32.dll
 0001:00029a4e       _LoadCursorW@8             1002aa4e f   user32:USER32.dll
 0001:00029a54       _PeekMessageW@20           1002aa54 f   user32:USER32.dll
 0001:00029a5a       _RegisterClassW@4          1002aa5a f   user32:USER32.dll
 0001:00029a60       _LoadBitmapW@8             1002aa60 f   user32:USER32.dll
 0001:00029a66       _CloseMetaFile@4           1002aa66 f   gdi32:GDI32.dll
 0001:00029a6c       _CreateDCW@16              1002aa6c f   gdi32:GDI32.dll
 0001:00029a72       _CreateMetaFileW@4         1002aa72 f   gdi32:GDI32.dll
 0001:00029a78       _CreateRectRgnIndirect@4   1002aa78 f   gdi32:GDI32.dll
 0001:00029a7e       _DeleteDC@4                1002aa7e f   gdi32:GDI32.dll
 0001:00029a84       _DeleteMetaFile@4          1002aa84 f   gdi32:GDI32.dll
 0001:00029a8a       _GetDeviceCaps@8           1002aa8a f   gdi32:GDI32.dll
 0001:00029a90       _RestoreDC@8               1002aa90 f   gdi32:GDI32.dll
 0001:00029a96       _SaveDC@4                  1002aa96 f   gdi32:GDI32.dll
 0001:00029a9c       _SetMapMode@8              1002aa9c f   gdi32:GDI32.dll
 0001:00029aa2       _LPtoDP@12                 1002aaa2 f   gdi32:GDI32.dll
 0001:00029aa8       _SetViewportOrgEx@16       1002aaa8 f   gdi32:GDI32.dll
 0001:00029aae       _SetWindowExtEx@16         1002aaae f   gdi32:GDI32.dll
 0001:00029ab4       _SetWindowOrgEx@16         1002aab4 f   gdi32:GDI32.dll
 0001:00029aba       _BitBlt@36                 1002aaba f   gdi32:GDI32.dll
 0001:00029ac0       _CreateCompatibleDC@4      1002aac0 f   gdi32:GDI32.dll
 0001:00029ac6       _DeleteObject@4            1002aac6 f   gdi32:GDI32.dll
 0001:00029acc       _SelectObject@8            1002aacc f   gdi32:GDI32.dll
 0001:00029ad2       _GetObjectW@12             1002aad2 f   gdi32:GDI32.dll
 0001:00029ad8       _RegCloseKey@4             1002aad8 f   advapi32:ADVAPI32.dll
 0001:00029ade       _RegCreateKeyExW@36        1002aade f   advapi32:ADVAPI32.dll
 0001:00029ae4       _RegDeleteKeyW@8           1002aae4 f   advapi32:ADVAPI32.dll
 0001:00029aea       _RegDeleteValueW@8         1002aaea f   advapi32:ADVAPI32.dll
 0001:00029af0       _RegEnumKeyExW@32          1002aaf0 f   advapi32:ADVAPI32.dll
 0001:00029af6       _RegOpenKeyExW@20          1002aaf6 f   advapi32:ADVAPI32.dll
 0001:00029afc       _RegQueryInfoKeyW@48       1002aafc f   advapi32:ADVAPI32.dll
 0001:00029b02       _RegSetValueExW@24         1002ab02 f   advapi32:ADVAPI32.dll
 0001:00029b08       _RegQueryValueExW@24       1002ab08 f   advapi32:ADVAPI32.dll
 0001:00029b0e       _CoCreateInstance@20       1002ab0e f   ole32:ole32.dll
 0001:00029b14       _StringFromGUID2@12        1002ab14 f   ole32:ole32.dll
 0001:00029b1a       _CoTaskMemAlloc@4          1002ab1a f   ole32:ole32.dll
 0001:00029b20       _CoTaskMemRealloc@8        1002ab20 f   ole32:ole32.dll
 0001:00029b26       _CoTaskMemFree@4           1002ab26 f   ole32:ole32.dll
 0001:00029b2c       _ReadClassStm@8            1002ab2c f   ole32:ole32.dll
 0001:00029b32       _WriteClassStm@8           1002ab32 f   ole32:ole32.dll
 0001:00029b38       _CreateDataAdviseHolder@4  1002ab38 f   ole32:ole32.dll
 0001:00029b3e       _OleSaveToStream@8         1002ab3e f   ole32:ole32.dll
 0001:00029b44       _CreateOleAdviseHolder@4   1002ab44 f   ole32:ole32.dll
 0001:00029b4a       _OleRegGetUserType@12      1002ab4a f   ole32:ole32.dll
 0001:00029b50       _OleRegGetMiscStatus@12    1002ab50 f   ole32:ole32.dll
 0001:00029b56       _OleRegEnumVerbs@8         1002ab56 f   ole32:ole32.dll
 0001:00029b5c       _CLSIDFromProgID@8         1002ab5c f   ole32:ole32.dll
 0001:00029b62       _SysAllocString@4          1002ab62 f   oleaut32:OLEAUT32.dll
 0001:00029b68       _SysAllocStringLen@8       1002ab68 f   oleaut32:OLEAUT32.dll
 0001:00029b6e       _SysFreeString@4           1002ab6e f   oleaut32:OLEAUT32.dll
 0001:00029b74       _SysStringLen@4            1002ab74 f   oleaut32:OLEAUT32.dll
 0001:00029b7a       _VariantClear@4            1002ab7a f   oleaut32:OLEAUT32.dll
 0001:00029b80       _VariantCopyInd@8          1002ab80 f   oleaut32:OLEAUT32.dll
 0001:00029b86       _VariantChangeType@16      1002ab86 f   oleaut32:OLEAUT32.dll
 0001:00029b8c       _SysStringByteLen@4        1002ab8c f   oleaut32:OLEAUT32.dll
 0001:00029b92       _SysAllocStringByteLen@8   1002ab92 f   oleaut32:OLEAUT32.dll
 0001:00029b98       _VariantInit@4             1002ab98 f   oleaut32:OLEAUT32.dll
 0001:00029b9e       _VarUI4FromStr@16          1002ab9e f   oleaut32:OLEAUT32.dll
 0001:00029ba4       _LoadTypeLib@8             1002aba4 f   oleaut32:OLEAUT32.dll
 0001:00029baa       _LoadRegTypeLib@20         1002abaa f   oleaut32:OLEAUT32.dll
 0001:00029bb0       _RegisterTypeLib@12        1002abb0 f   oleaut32:OLEAUT32.dll
 0001:00029bb6       _UnRegisterTypeLib@20      1002abb6 f   oleaut32:OLEAUT32.dll
 0001:00029bbc       _OleCreatePropertyFrame@44 1002abbc f   oleaut32:OLEAUT32.dll
 0001:00029bd0       @_RTC_AllocaHelper@12      1002abd0 f   LIBCMTD:stack.obj
 0001:00029c10       @_RTC_CheckStackVars2@12   1002ac10 f   LIBCMTD:stack.obj
 0001:00029cf0       @_RTC_CheckStackVars@8     1002acf0 f   LIBCMTD:stack.obj
 0001:00029d50       __RTC_CheckEsp             1002ad50 f   LIBCMTD:stack.obj
 0001:00029d90       @__security_check_cookie@4 1002ad90 f   LIBCMTD:secchk.obj
 0001:00029db0       __CRT_RTC_INIT             1002adb0 f   LIBCMTD:init.obj
 0001:00029dc0       __CRT_RTC_INITW            1002adc0 f   LIBCMTD:init.obj
 0001:00029dd0       __RTC_InitBase             1002add0 f   LIBCMTD:init.obj
 0001:00029e00       __RTC_Shutdown             1002ae00 f   LIBCMTD:init.obj
 0001:00029e20       ??_U@YAPAXI@Z              1002ae20 f   LIBCMTD:new_array.obj
 0001:00029e40       ??3@YAXPAXI@Z              1002ae40 f   LIBCMTD:delete_scalar_size.obj
 0001:00029e60       ??_V@YAXPAX@Z              1002ae60 f   LIBCMTD:delete_array.obj
 0001:00029e80       ??_V@YAXPAXI@Z             1002ae80 f   LIBCMTD:delete_array_size.obj
 0001:00029ea0       ?configure_argv@__scrt_narrow_argv_policy@@SAHXZ 1002aea0 f i LIBCMTD:utility.obj
 0001:00029f50       ?initialize_environment@__scrt_narrow_environment_policy@@SAHXZ 1002af50 f i LIBCMTD:utility.obj
 0001:00029fd0       _NtCurrentTeb              1002afd0 f i LIBCMTD:utility.obj
 0001:00029fe0       ___scrt_acquire_startup_lock 1002afe0 f   LIBCMTD:utility.obj
 0001:0002a030       ___scrt_dllmain_after_initialize_c 1002b030 f   LIBCMTD:utility.obj
 0001:0002a060       ___scrt_dllmain_before_initialize_c 1002b060 f   LIBCMTD:utility.obj
 0001:0002a080       ___scrt_dllmain_crt_thread_attach 1002b080 f   LIBCMTD:utility.obj
 0001:0002a0b0       ___scrt_dllmain_crt_thread_detach 1002b0b0 f   LIBCMTD:utility.obj
 0001:0002a0d0       ___scrt_dllmain_exception_filter 1002b0d0 f   LIBCMTD:utility.obj
 0001:0002a120       ___scrt_dllmain_uninitialize_c 1002b120 f   LIBCMTD:utility.obj
 0001:0002a150       ___scrt_dllmain_uninitialize_critical 1002b150 f   LIBCMTD:utility.obj
 0001:0002a170       ___scrt_initialize_crt     1002b170 f   LIBCMTD:utility.obj
 0001:0002a1c0       ___scrt_initialize_onexit_tables 1002b1c0 f   LIBCMTD:utility.obj
 0001:0002a2a0       ___scrt_is_nonwritable_in_current_image 1002b2a0 f   LIBCMTD:utility.obj
 0001:0002a3d0       ___scrt_release_startup_lock 1002b3d0 f   LIBCMTD:utility.obj
 0001:0002a400       ___scrt_uninitialize_crt   1002b400 f   LIBCMTD:utility.obj
 0001:0002a440       __onexit                   1002b440 f   LIBCMTD:utility.obj
 0001:0002a4b0       _at_quick_exit             1002b4b0 f   LIBCMTD:utility.obj
 0001:0002a4f0       _atexit                    1002b4f0 f   LIBCMTD:utility.obj
 0001:0002a520       ??3@YAXPAX@Z               1002b520 f   LIBCMTD:delete_scalar.obj
 0001:0002a540       ___raise_securityfailure   1002b540 f   LIBCMTD:gs_report.obj
 0001:0002a570       ___report_gsfailure        1002b570 f   LIBCMTD:gs_report.obj
 0001:0002a680       ___report_rangecheckfailure 1002b680 f   LIBCMTD:gs_report.obj
 0001:0002a690       ___report_securityfailure  1002b690 f   LIBCMTD:gs_report.obj
 0001:0002a770       ___report_securityfailureEx 1002b770 f   LIBCMTD:gs_report.obj
 0001:0002a9c0       __Init_thread_abort        1002b9c0 f   LIBCMTD:thread_safe_statics.obj
 0001:0002a9e0       __Init_thread_footer       1002b9e0 f   LIBCMTD:thread_safe_statics.obj
 0001:0002aa30       __Init_thread_header       1002ba30 f   LIBCMTD:thread_safe_statics.obj
 0001:0002aaa0       __Init_thread_lock         1002baa0 f   LIBCMTD:thread_safe_statics.obj
 0001:0002aab0       __Init_thread_notify       1002bab0 f   LIBCMTD:thread_safe_statics.obj
 0001:0002ab00       __Init_thread_unlock       1002bb00 f   LIBCMTD:thread_safe_statics.obj
 0001:0002ab10       __Init_thread_wait         1002bb10 f   LIBCMTD:thread_safe_statics.obj
 0001:0002aba0       ??2@YAPAXIABUnothrow_t@std@@@Z 1002bba0 f   LIBCMTD:new_scalar_nothrow.obj
 0001:0002ac30       ??_U@YAPAXIABUnothrow_t@std@@@Z 1002bc30 f   LIBCMTD:new_array_nothrow.obj
 0001:0002ac50       __allmul                   1002bc50 f   LIBCMTD:llmul.obj
 0001:0002ac90       __alloca_probe_16          1002bc90 f   LIBCMTD:alloca16.obj
 0001:0002aca6       __alloca_probe_8           1002bca6     LIBCMTD:alloca16.obj
 0001:0002acc0       __alloca_probe             1002bcc0 f   LIBCMTD:chkstk.obj
 0001:0002acc0       __chkstk                   1002bcc0 f   LIBCMTD:chkstk.obj
 0001:0002b1c0       __CRT_INIT@12              1002c1c0 f   LIBCMTD:dll_dllmain.obj
 0001:0002b1e0       __DllMainCRTStartup@12     1002c1e0 f   LIBCMTD:dll_dllmain.obj
 0001:0002b2a0       ?_RTC_AllocaFailure@@YAXPAXPAU_RTC_ALLOCA_NODE@@H@Z 1002c2a0 f   LIBCMTD:error.obj
 0001:0002b390       ?_RTC_Failure@@YAXPAXH@Z   1002c390 f   LIBCMTD:error.obj
 0001:0002b3e0       ?_RTC_StackFailure@@YAXPAXPBD@Z 1002c3e0 f   LIBCMTD:error.obj
 0001:0002b7a0       __RTC_UninitUse            1002c7a0 f   LIBCMTD:error.obj
 0001:0002b850       __vsprintf_s_l             1002c850 f i LIBCMTD:error.obj
 0001:0002b880       _sprintf_s                 1002c880 f i LIBCMTD:error.obj
 0001:0002b8a0       ?_RTC_GetErrorFunc@@YAP6AHHPBDH00ZZPBX@Z 1002c8a0 f   LIBCMTD:userapi.obj
 0001:0002b8b0       ?_RTC_GetErrorFuncW@@YAP6AHHPB_WH00ZZPBX@Z 1002c8b0 f   LIBCMTD:userapi.obj
 0001:0002b8c0       __RTC_GetErrDesc           1002c8c0 f   LIBCMTD:userapi.obj
 0001:0002b8e0       __RTC_NumErrors            1002c8e0 f   LIBCMTD:userapi.obj
 0001:0002b8f0       __RTC_SetErrorFunc         1002c8f0 f   LIBCMTD:userapi.obj
 0001:0002b910       __RTC_SetErrorFuncW        1002c910 f   LIBCMTD:userapi.obj
 0001:0002b930       __RTC_SetErrorType         1002c930 f   LIBCMTD:userapi.obj
 0001:0002b960       ??2@YAPAXI@Z               1002c960 f   LIBCMTD:new_scalar.obj
 0001:0002b9b0       ___isa_available_init      1002c9b0 f   LIBCMTD:cpu_disp.obj
 0001:0002bcf0       __get_startup_argv_mode    1002ccf0 f   LIBCMTD:argv_mode.obj
 0001:0002bd00       ___scrt_is_ucrt_dll_in_use 1002cd00 f   LIBCMTD:ucrt_detection.obj
 0001:0002bd30       ___scrt_fastfail           1002cd30 f   LIBCMTD:utility_desktop.obj
 0001:0002be70       ___scrt_get_show_window_mode 1002ce70 f   LIBCMTD:utility_desktop.obj
 0001:0002beb0       ___scrt_initialize_mta     1002ceb0 f   LIBCMTD:utility_desktop.obj
 0001:0002bec0       ___scrt_initialize_winrt   1002cec0 f   LIBCMTD:utility_desktop.obj
 0001:0002bed0       ___scrt_is_managed_app     1002ced0 f   LIBCMTD:utility_desktop.obj
 0001:0002bf60       ___scrt_set_unhandled_exception_filter 1002cf60 f   LIBCMTD:utility_desktop.obj
 0001:0002bf70       ___scrt_stub_for_initialize_mta 1002cf70 f   LIBCMTD:utility_desktop.obj
 0001:0002bf70       ___scrt_exe_initialize_mta 1002cf70 f   LIBCMTD:utility_desktop.obj
 0001:0002bf80       ___scrt_unhandled_exception_filter@4 1002cf80 f   LIBCMTD:utility_desktop.obj
 0001:0002c000       __crt_debugger_hook        1002d000 f   LIBCMTD:utility_desktop.obj
 0001:0002c010       @_guard_check_icall_nop@4  1002d010 f i LIBCMTD:guard_support.obj
 0001:0002c020       _ReadNoFence               1002d020 f i LIBCMTD:guard_support.obj
 0001:0002c040       _ReadPointerNoFence        1002d040 f i LIBCMTD:guard_support.obj
 0001:0002c060       ___castguard_check_failure_debugbreak 1002d060 f i LIBCMTD:guard_support.obj
 0001:0002c080       ___castguard_check_failure_fastfail 1002d080 f i LIBCMTD:guard_support.obj
 0001:0002c0a0       ___castguard_check_failure_nop 1002d0a0 f i LIBCMTD:guard_support.obj
 0001:0002c0b0       ___castguard_check_failure_os_handled 1002d0b0 f i LIBCMTD:guard_support.obj
 0001:0002c130       ___castguard_slow_path_check_debugbreak 1002d130 f i LIBCMTD:guard_support.obj
 0001:0002c160       ___castguard_slow_path_check_fastfail 1002d160 f i LIBCMTD:guard_support.obj
 0001:0002c1a0       ___castguard_slow_path_check_nop 1002d1a0 f i LIBCMTD:guard_support.obj
 0001:0002c1b0       ___castguard_slow_path_check_os_handled 1002d1b0 f i LIBCMTD:guard_support.obj
 0001:0002c250       __guard_icall_checks_enforced 1002d250 f i LIBCMTD:guard_support.obj
 0001:0002c2f0       ___security_init_cookie    1002d2f0 f   LIBCMTD:gs_support.obj
 0001:0002c370       ?__scrt_initialize_type_info@@YAXXZ 1002d370 f   LIBCMTD:tncleanup.obj
 0001:0002c380       ?__scrt_uninitialize_type_info@@YAXXZ 1002d380 f   LIBCMTD:tncleanup.obj
 0001:0002c3a0       ___local_stdio_scanf_options 1002d3a0 f i LIBCMTD:default_local_stdio_options.obj
 0001:0002c3b0       ___scrt_initialize_default_local_stdio_options 1002d3b0 f   LIBCMTD:default_local_stdio_options.obj
 0001:0002c3f0       ___scrt_get_dyn_tls_init_callback 1002d3f0 f   LIBCMTD:dyn_tls_init.obj
 0001:0002c400       __RTC_Initialize           1002d400 f   LIBCMTD:initsect.obj
 0001:0002c430       __RTC_Terminate            1002d430 f   LIBCMTD:initsect.obj
 0001:0002c8e0       ?_RTC_GetSrcLine@@YAHPAEPA_WKPAH1K@Z 1002d8e0 f   LIBCMTD:pdblkup.obj
 0001:0002cc60       __except_handler4_noexcept 1002dc60 f   LIBCMTD:chandler4_noexcept.obj
 0001:0002ccc0       ??0bad_alloc@std@@AAE@QBD@Z 1002dcc0 f i LIBCMTD:throw_bad_alloc.obj
 0001:0002ccf0       ??0bad_alloc@std@@QAE@ABV01@@Z 1002dcf0 f i LIBCMTD:throw_bad_alloc.obj
 0001:0002cd20       ??0bad_alloc@std@@QAE@XZ   1002dd20 f i LIBCMTD:throw_bad_alloc.obj
 0001:0002cd50       ??0bad_array_new_length@std@@QAE@ABV01@@Z 1002dd50 f i LIBCMTD:throw_bad_alloc.obj
 0001:0002cd80       ??0bad_array_new_length@std@@QAE@XZ 1002dd80 f i LIBCMTD:throw_bad_alloc.obj
 0001:0002cdb0       ??0exception@std@@QAE@ABV01@@Z 1002ddb0 f i LIBCMTD:throw_bad_alloc.obj
 0001:0002cdf0       ??0exception@std@@QAE@QBDH@Z 1002ddf0 f i LIBCMTD:throw_bad_alloc.obj
 0001:0002ce20       ??1bad_alloc@std@@UAE@XZ   1002de20 f i LIBCMTD:throw_bad_alloc.obj
 0001:0002ce40       ??1bad_array_new_length@std@@UAE@XZ 1002de40 f i LIBCMTD:throw_bad_alloc.obj
 0001:0002ce60       ??1exception@std@@UAE@XZ   1002de60 f i LIBCMTD:throw_bad_alloc.obj
 0001:0002ce90       ??_Ebad_alloc@std@@UAEPAXI@Z 1002de90 f i LIBCMTD:throw_bad_alloc.obj
 0001:0002ce90       ??_Gbad_alloc@std@@UAEPAXI@Z 1002de90 f i LIBCMTD:throw_bad_alloc.obj
 0001:0002cec0       ??_Gbad_array_new_length@std@@UAEPAXI@Z 1002dec0 f i LIBCMTD:throw_bad_alloc.obj
 0001:0002cec0       ??_Ebad_array_new_length@std@@UAEPAXI@Z 1002dec0 f i LIBCMTD:throw_bad_alloc.obj
 0001:0002cef0       ??_Gexception@std@@UAEPAXI@Z 1002def0 f i LIBCMTD:throw_bad_alloc.obj
 0001:0002cef0       ??_Eexception@std@@UAEPAXI@Z 1002def0 f i LIBCMTD:throw_bad_alloc.obj
 0001:0002cf20       ?__scrt_throw_std_bad_alloc@@YAXXZ 1002df20 f   LIBCMTD:throw_bad_alloc.obj
 0001:0002cf40       ?__scrt_throw_std_bad_array_new_length@@YAXXZ 1002df40 f   LIBCMTD:throw_bad_alloc.obj
 0001:0002cf60       ?what@exception@std@@UBEPBDXZ 1002df60 f i LIBCMTD:throw_bad_alloc.obj
 0001:0002cf90       ??1type_info@@UAE@XZ       1002df90 f   LIBCMTD:std_type_info_static.obj
 0001:0002cfb0       ??_Etype_info@@UAEPAXI@Z   1002dfb0 f i LIBCMTD:std_type_info_static.obj
 0001:0002cfb0       ??_Gtype_info@@UAEPAXI@Z   1002dfb0 f i LIBCMTD:std_type_info_static.obj
 0001:0002cfde       ??$?2PAUHINSTANCE__@@@Wrapper@?$CSimpleArray@PAUHINSTANCE__@@V?$CSimpleArrayEqualHelper@PAUHINSTANCE__@@@ATL@@@ATL@@SAPAXIPAPAUHINSTANCE__@@@Z 1002dfde f i atls:atlbase.obj
 0001:0002cfe6       ??0?$CSimpleArray@PAUHINSTANCE__@@V?$CSimpleArrayEqualHelper@PAUHINSTANCE__@@@ATL@@@ATL@@QAE@XZ 1002dfe6 f i atls:atlbase.obj
 0001:0002cff3       ??0CAtlBaseModule@ATL@@QAE@XZ 1002dff3 f   atls:atlbase.obj
 0001:0002d046       ??0Wrapper@?$CSimpleArray@PAUHINSTANCE__@@V?$CSimpleArrayEqualHelper@PAUHINSTANCE__@@@ATL@@@ATL@@QAE@ABQAUHINSTANCE__@@@Z 1002e046 f i atls:atlbase.obj
 0001:0002d056       ??0_ATL_BASE_MODULE70@ATL@@QAE@XZ 1002e056 f i atls:atlbase.obj
 0001:0002d079       ??1?$CSimpleArray@PAUHINSTANCE__@@V?$CSimpleArrayEqualHelper@PAUHINSTANCE__@@@ATL@@@ATL@@QAE@XZ 1002e079 f i atls:atlbase.obj
 0001:0002d07e       ??1CAtlBaseModule@ATL@@QAE@XZ 1002e07e f   atls:atlbase.obj
 0001:0002d094       ??1_ATL_BASE_MODULE70@ATL@@QAE@XZ 1002e094 f i atls:atlbase.obj
 0001:0002d09c       ??A?$CSimpleArray@PAUHINSTANCE__@@V?$CSimpleArrayEqualHelper@PAUHINSTANCE__@@@ATL@@@ATL@@QAEAAPAUHINSTANCE__@@H@Z 1002e09c f i atls:atlbase.obj
 0001:0002d0c1       ?Add@?$CSimpleArray@PAUHINSTANCE__@@V?$CSimpleArrayEqualHelper@PAUHINSTANCE__@@@ATL@@@ATL@@QAEHABQAUHINSTANCE__@@@Z 1002e0c1 f i atls:atlbase.obj
 0001:0002d143       ?AddResourceInstance@CAtlBaseModule@ATL@@QAE_NPAUHINSTANCE__@@@Z 1002e143 f   atls:atlbase.obj
 0001:0002d176       ?GetHInstanceAt@CAtlBaseModule@ATL@@QAEPAUHINSTANCE__@@H@Z 1002e176 f   atls:atlbase.obj
 0001:0002d1bb       ?GetSize@?$CSimpleArray@PAUHINSTANCE__@@V?$CSimpleArrayEqualHelper@PAUHINSTANCE__@@@ATL@@@ATL@@QBEHXZ 1002e1bb f i atls:atlbase.obj
 0001:0002d1bf       ?InternalSetAtIndex@?$CSimpleArray@PAUHINSTANCE__@@V?$CSimpleArrayEqualHelper@PAUHINSTANCE__@@@ATL@@@ATL@@QAEXHABQAUHINSTANCE__@@@Z 1002e1bf f i atls:atlbase.obj
 0001:0002d1d9       ?RemoveAll@?$CSimpleArray@PAUHINSTANCE__@@V?$CSimpleArrayEqualHelper@PAUHINSTANCE__@@@ATL@@@ATL@@QAEXXZ 1002e1d9 f i atls:atlbase.obj
 0001:0002d1f6       ?RemoveAt@?$CSimpleArray@PAUHINSTANCE__@@V?$CSimpleArrayEqualHelper@PAUHINSTANCE__@@@ATL@@@ATL@@QAEHH@Z 1002e1f6 f i atls:atlbase.obj
 0001:0002d244       ?RemoveResourceInstance@CAtlBaseModule@ATL@@QAE_NPAUHINSTANCE__@@@Z 1002e244 f   atls:atlbase.obj
 0001:0002d2a1       ?memmove_s@Checked@ATL@@YAXPAXIPBXI@Z 1002e2a1 f i atls:atlbase.obj
 0001:0002d5fe       ?GetCodeAddress@_stdcallthunk@ATL@@QAEPAXXZ 1002e5fe f i atls:atlthunk.obj
 0001:0002d628       ?Init@_stdcallthunk@ATL@@QAEHKPAX@Z 1002e628 f i atls:atlthunk.obj
 0001:0002d65d       ?__AllocStdCallThunk@@YGPAXXZ 1002e65d f   atls:atlthunk.obj
 0001:0002d662       ?__AllocStdCallThunk@ATL@@YGPAXXZ 1002e662 f   atls:atlthunk.obj
 0001:0002d667       ?__AllocStdCallThunk_cmn@@YAPAXXZ 1002e667 f   atls:atlthunk.obj
 0001:0002d72d       ?__FreeStdCallThunk@@YGXPAX@Z 1002e72d f   atls:atlthunk.obj
 0001:0002d73d       ?__FreeStdCallThunk@ATL@@YGXPAX@Z 1002e73d f   atls:atlthunk.obj
 0001:0002d74d       ?__FreeStdCallThunk_cmn@@YAXPAX@Z 1002e74d f   atls:atlthunk.obj
 0001:0002d7e8       _AtlThunk_AllocateData@0   1002e7e8 f   atls:atlthunk.obj
 0001:0002d84d       _AtlThunk_DataToCode@4     1002e84d f   atls:atlthunk.obj
 0001:0002d894       _AtlThunk_FreeData@4       1002e894 f   atls:atlthunk.obj
 0001:0002d8ea       _AtlThunk_InitData@12      1002e8ea f   atls:atlthunk.obj
 0001:0002d939       _MemoryBarrier             1002e939 f i atls:atlthunk.obj
 0001:0002d947       __InlineInterlockedCompareExchangePointer 1002e947 f i atls:atlthunk.obj
 0001:0002d960       _memset                    1002e960 f   libvcruntimed:memset.obj
 0001:0002dac0       ??$__crt_interlocked_exchange_pointer@$$A6AXXZP6AXXZ@@YAP6AXXZPDS6AXXZQ6AXXZ@Z 1002eac0 f i libvcruntimed:purevirt.obj
 0001:0002dad0       ??$__crt_interlocked_read_pointer@$$A6AXXZ@@YAP6AXXZPDS6AXXZ@Z 1002ead0 f i libvcruntimed:purevirt.obj
 0001:0002daf0       ?__crt_interlocked_read_32@@YAHPDH@Z 1002eaf0 f i libvcruntimed:purevirt.obj
 0001:0002db10       __get_purecall_handler     1002eb10 f   libvcruntimed:purevirt.obj
 0001:0002db30       __purecall                 1002eb30 f   libvcruntimed:purevirt.obj
 0001:0002db60       __set_purecall_handler     1002eb60 f   libvcruntimed:purevirt.obj
 0001:0002dd30       _memcmp                    1002ed30 f   libvcruntimed:memcmp.obj
 0001:0002e600       _memcpy                    1002f600 f   libvcruntimed:memcpy.obj
 0001:0002eb80       _wcsstr                    1002fb80 f   libvcruntimed:wcsstr.obj
 0001:0002f0b0       __except_handler4          100300b0 f   libvcruntimed:chandler4.obj
 0001:0002f2a0       ___vcrt_initialize         100302a0 f   libvcruntimed:initialization.obj
 0001:0002f2e0       ___vcrt_thread_attach      100302e0 f   libvcruntimed:initialization.obj
 0001:0002f300       ___vcrt_thread_detach      10030300 f   libvcruntimed:initialization.obj
 0001:0002f320       ___vcrt_uninitialize       10030320 f   libvcruntimed:initialization.obj
 0001:0002f340       ___vcrt_uninitialize_critical 10030340 f   libvcruntimed:initialization.obj
 0001:0002f360       ??$?0AAViterator@TryBlockMap@__FrameHandler3@@AAV012@$0A@@?$pair@Viterator@TryBlockMap@__FrameHandler3@@V123@@std@@QAE@AAViterator@TryBlockMap@__FrameHandler3@@0@Z 10030360 f i libvcruntimed:trnsctrl.obj
 0001:0002f3b0       ??$forward@AAViterator@TryBlockMap@__FrameHandler3@@@std@@YAAAViterator@TryBlockMap@__FrameHandler3@@AAV123@@Z 100303b0 f i libvcruntimed:trnsctrl.obj
 0001:0002f3c0       ??0iterator@TryBlockMap@__FrameHandler3@@QAE@AAV12@I@Z 100303c0 f i libvcruntimed:trnsctrl.obj
 0001:0002f3f0       ?GetRangeOfTrysToCheck@__FrameHandler3@@SA?AU?$pair@Viterator@TryBlockMap@__FrameHandler3@@V123@@std@@AAVTryBlockMap@1@HPAXPBU_s_FuncInfo@@H@Z 100303f0 f   libvcruntimed:trnsctrl.obj
 0001:0002f4d0       ?_CallCatchBlock2@@YAPAXPAUEHRegistrationNode@@PBU_s_FuncInfo@@PAXHK@Z 100304d0 f   libvcruntimed:trnsctrl.obj
 0001:0002f540       ?_CallSETranslator@@YAHPAUEHExceptionRecord@@PAUEHRegistrationNode@@PAX2PBU_s_FuncInfo@@H1@Z 10030540 f   libvcruntimed:trnsctrl.obj
 0001:0002f640       ?_JumpToContinuation@@YGXPAXPAUEHRegistrationNode@@@Z 10030640 f   libvcruntimed:trnsctrl.obj
 0001:0002f680       ?_UnwindNestedFrames@@YGXPAUEHRegistrationNode@@PAUEHExceptionRecord@@@Z 10030680 f   libvcruntimed:trnsctrl.obj
 0001:0002f6e0       __CatchGuardHandler        100306e0 f   libvcruntimed:trnsctrl.obj
 0001:0002f730       __CreateFrameInfo          10030730 f   libvcruntimed:trnsctrl.obj
 0001:0002f760       __FindAndUnlinkFrame       10030760 f   libvcruntimed:trnsctrl.obj
 0001:0002f7d0       __TranslatorGuardHandler   100307d0 f   libvcruntimed:trnsctrl.obj
 0001:0002f880       ___CxxFrameHandler         10030880 f   libvcruntimed:trnsctrl.obj
 0001:0002f8c0       ___CxxFrameHandler2        100308c0 f   libvcruntimed:trnsctrl.obj
 0001:0002f900       ___CxxFrameHandler3        10030900 f   libvcruntimed:trnsctrl.obj
 0001:0002f940       ___CxxLongjmpUnwind@4      10030940 f   libvcruntimed:trnsctrl.obj
 0001:0002f980       ___DestructExceptionObject 10030980 f   libvcruntimed:ehhelpers.obj
 0001:0002faa0       ?_CallMemberFunction0@@YGXQAX0@Z 10030aa0 f i libvcruntimed:ehhelpers.obj
 0001:0002fb40       ?raw_name@type_info@@QBEPBDXZ 10030b40 f i libvcruntimed:ehhelpers.obj
 0001:0002fb60       __IsExceptionObjectToBeDestroyed 10030b60 f   libvcruntimed:ehhelpers.obj
 0001:0002fba0       __SetWinRTOutOfMemoryExceptionCallback 10030ba0 f   libvcruntimed:ehhelpers.obj
 0001:0002fbb0       ___AdjustPointer           10030bb0 f   libvcruntimed:ehhelpers.obj
 0001:0002fc00       ___FrameUnwindFilter       10030c00 f   libvcruntimed:ehhelpers.obj
 0001:0002fc90       ___GetPlatformExceptionInfo 10030c90 f   libvcruntimed:ehhelpers.obj
 0001:0002fd10       ___current_exception       10030d10 f   libvcruntimed:ehhelpers.obj
 0001:0002fd20       ___current_exception_context 10030d20 f   libvcruntimed:ehhelpers.obj
 0001:0002fd30       ___processing_throw        10030d30 f   libvcruntimed:ehhelpers.obj
 0001:0002fd40       ___std_terminate           10030d40 f   libvcruntimed:ehhelpers.obj
 0001:0002fd50       __is_exception_typeof      10030d50 f   libvcruntimed:ehhelpers.obj
 0001:0002fe50       ??$?RD@__crt_internal_free_policy@@QBEXQBD@Z 10030e50 f i libvcruntimed:std_type_info.obj
 0001:0002fe70       ??$?RX@__crt_internal_free_policy@@QBEXQBX@Z 10030e70 f i libvcruntimed:std_type_info.obj
 0001:0002fe90       ??$__crt_interlocked_compare_exchange_pointer@$$CBDPAD$$T@@YAPBDPDSBDQAD$$T@Z 10030e90 f i libvcruntimed:std_type_info.obj
 0001:0002feb0       ??$__crt_interlocked_read_pointer@$$CBD@@YAPBDPDSBD@Z 10030eb0 f i libvcruntimed:std_type_info.obj
 0001:0002fed0       ??0?$__crt_unique_heap_ptr@DU__crt_internal_free_policy@@@@QAE@QAD@Z 10030ed0 f i libvcruntimed:std_type_info.obj
 0001:0002fef0       ??0?$__crt_unique_heap_ptr@XU__crt_internal_free_policy@@@@QAE@QAX@Z 10030ef0 f i libvcruntimed:std_type_info.obj
 0001:0002ff10       ??1?$__crt_unique_heap_ptr@DU__crt_internal_free_policy@@@@QAE@XZ 10030f10 f i libvcruntimed:std_type_info.obj
 0001:0002ff30       ??1?$__crt_unique_heap_ptr@XU__crt_internal_free_policy@@@@QAE@XZ 10030f30 f i libvcruntimed:std_type_info.obj
 0001:0002ff50       ??B?$__crt_unique_heap_ptr@DU__crt_internal_free_policy@@@@QBE_NXZ 10030f50 f i libvcruntimed:std_type_info.obj
 0001:0002ff70       ??B?$__crt_unique_heap_ptr@XU__crt_internal_free_policy@@@@QBE_NXZ 10030f70 f i libvcruntimed:std_type_info.obj
 0001:00030000       ?detach@?$__crt_unique_heap_ptr@XU__crt_internal_free_policy@@@@QAEPAXXZ 10031000 f i libvcruntimed:std_type_info.obj
 0001:00030030       ?get@?$__crt_unique_heap_ptr@DU__crt_internal_free_policy@@@@QBEPADXZ 10031030 f i libvcruntimed:std_type_info.obj
 0001:00030040       ?get@?$__crt_unique_heap_ptr@XU__crt_internal_free_policy@@@@QBEPAXXZ 10031040 f i libvcruntimed:std_type_info.obj
 0001:00030050       ?is_valid@?$__crt_unique_heap_ptr@DU__crt_internal_free_policy@@@@QBE_NXZ 10031050 f i libvcruntimed:std_type_info.obj
 0001:00030080       ?is_valid@?$__crt_unique_heap_ptr@XU__crt_internal_free_policy@@@@QBE_NXZ 10031080 f i libvcruntimed:std_type_info.obj
 0001:000300b0       ?release@?$__crt_unique_heap_ptr@DU__crt_internal_free_policy@@@@QAEXXZ 100310b0 f i libvcruntimed:std_type_info.obj
 0001:000300e0       ?release@?$__crt_unique_heap_ptr@XU__crt_internal_free_policy@@@@QAEXXZ 100310e0 f i libvcruntimed:std_type_info.obj
 0001:00030110       ___std_type_info_compare   10031110 f   libvcruntimed:std_type_info.obj
 0001:00030140       ___std_type_info_destroy_list 10031140 f   libvcruntimed:std_type_info.obj
 0001:00030180       ___std_type_info_hash      10031180 f   libvcruntimed:std_type_info.obj
 0001:000301e0       ___std_type_info_name      100311e0 f   libvcruntimed:std_type_info.obj
 0001:000303c0       ___vcrt_GetModuleFileNameW 100313c0 f   libvcruntimed:winapi_thunks.obj
 0001:000303e0       ___vcrt_GetModuleHandleW   100313e0 f   libvcruntimed:winapi_thunks.obj
 0001:000303f0       ___vcrt_LoadLibraryExW     100313f0 f   libvcruntimed:winapi_thunks.obj
 0001:00030410       ??$?RD@__crt_public_free_policy@@QBEXQBD@Z 10031410 f i libvcruntimed:std_exception.obj
 0001:00030430       ??0?$__crt_unique_heap_ptr@DU__crt_public_free_policy@@@@QAE@QAD@Z 10031430 f i libvcruntimed:std_exception.obj
 0001:00030450       ??1?$__crt_unique_heap_ptr@DU__crt_public_free_policy@@@@QAE@XZ 10031450 f i libvcruntimed:std_exception.obj
 0001:00030470       ??B?$__crt_unique_heap_ptr@DU__crt_public_free_policy@@@@QBE_NXZ 10031470 f i libvcruntimed:std_exception.obj
 0001:00030490       ?detach@?$__crt_unique_heap_ptr@DU__crt_public_free_policy@@@@QAEPADXZ 10031490 f i libvcruntimed:std_exception.obj
 0001:000304c0       ?get@?$__crt_unique_heap_ptr@DU__crt_public_free_policy@@@@QBEPADXZ 100314c0 f i libvcruntimed:std_exception.obj
 0001:000304d0       ?is_valid@?$__crt_unique_heap_ptr@DU__crt_public_free_policy@@@@QBE_NXZ 100314d0 f i libvcruntimed:std_exception.obj
 0001:00030500       ?release@?$__crt_unique_heap_ptr@DU__crt_public_free_policy@@@@QAEXXZ 10031500 f i libvcruntimed:std_exception.obj
 0001:00030530       ___std_exception_copy      10031530 f   libvcruntimed:std_exception.obj
 0001:00030620       ___std_exception_destroy   10031620 f   libvcruntimed:std_exception.obj
 0001:00030650       __CxxThrowException@8      10031650 f   libvcruntimed:throw.obj
 0001:00030700       _memmove                   10031700 f   libvcruntimed:memmove.obj
 0001:00030c80       __local_unwind4            10031c80 f   libvcruntimed:exsup4.obj
 0001:00030d54       __seh_longjmp_unwind4@4    10031d54 f   libvcruntimed:exsup4.obj
 0001:00030d7c       @_EH4_CallFilterFunc@8     10031d7c f   libvcruntimed:exsup4.obj
 0001:00030d94       @_EH4_TransferToHandler@8  10031d94 f   libvcruntimed:exsup4.obj
 0001:00030db0       @_EH4_GlobalUnwind2@8      10031db0 f   libvcruntimed:exsup4.obj
 0001:00030dcc       @_EH4_LocalUnwind@16       10031dcc f   libvcruntimed:exsup4.obj
 0001:00030e00       ___except_validate_context_record 10031e00 f   libvcruntimed:jbcxrval.obj
 0001:00030e50       ___except_validate_jump_buffer 10031e50 f   libvcruntimed:jbcxrval.obj
 0001:00030e70       ___except_validate_jump_buffer_common 10031e70 f i libvcruntimed:jbcxrval.obj
 0001:00030ed0       ??$?RU__vcrt_ptd@@@__crt_internal_free_policy@@QBEXQBU__vcrt_ptd@@@Z 10031ed0 f i libvcruntimed:per_thread_data.obj
 0001:00030ef0       ??0?$__crt_unique_heap_ptr@U__vcrt_ptd@@U__crt_internal_free_policy@@@@QAE@QAU__vcrt_ptd@@@Z 10031ef0 f i libvcruntimed:per_thread_data.obj
 0001:00030f30       ??1?$__crt_unique_heap_ptr@U__vcrt_ptd@@U__crt_internal_free_policy@@@@QAE@XZ 10031f30 f i libvcruntimed:per_thread_data.obj
 0001:00030f70       ??B?$__crt_unique_heap_ptr@U__vcrt_ptd@@U__crt_internal_free_policy@@@@QBE_NXZ 10031f70 f i libvcruntimed:per_thread_data.obj
 0001:00030f90       ?detach@?$__crt_unique_heap_ptr@U__vcrt_ptd@@U__crt_internal_free_policy@@@@QAEPAU__vcrt_ptd@@XZ 10031f90 f i libvcruntimed:per_thread_data.obj
 0001:00030fc0       ?get@?$__crt_unique_heap_ptr@U__vcrt_ptd@@U__crt_internal_free_policy@@@@QBEPAU__vcrt_ptd@@XZ 10031fc0 f i libvcruntimed:per_thread_data.obj
 0001:00030fd0       ?is_valid@?$__crt_unique_heap_ptr@U__vcrt_ptd@@U__crt_internal_free_policy@@@@QBE_NXZ 10031fd0 f i libvcruntimed:per_thread_data.obj
 0001:00031000       ?release@?$__crt_unique_heap_ptr@U__vcrt_ptd@@U__crt_internal_free_policy@@@@QAEXXZ 10032000 f i libvcruntimed:per_thread_data.obj
 0001:00031060       ___vcrt_freefls@4          10032060 f   libvcruntimed:per_thread_data.obj
 0001:00031090       ___vcrt_freeptd            10032090 f   libvcruntimed:per_thread_data.obj
 0001:000310f0       ___vcrt_getptd             100320f0 f   libvcruntimed:per_thread_data.obj
 0001:00031110       ___vcrt_getptd_noexit      10032110 f   libvcruntimed:per_thread_data.obj
 0001:00031270       ___vcrt_getptd_noinit      10032270 f   libvcruntimed:per_thread_data.obj
 0001:000312d0       ___vcrt_initialize_ptd     100322d0 f   libvcruntimed:per_thread_data.obj
 0001:00031320       ___vcrt_uninitialize_ptd   10032320 f   libvcruntimed:per_thread_data.obj
 0001:00031350       ___vcrt_initialize_locks   10032350 f   libvcruntimed:locks.obj
 0001:000313b0       ___vcrt_lock               100323b0 f   libvcruntimed:locks.obj
 0001:000313d0       ___vcrt_uninitialize_locks 100323d0 f   libvcruntimed:locks.obj
 0001:00031420       ___vcrt_unlock             10032420 f   libvcruntimed:locks.obj
 0001:00031fb0       ??$TypeMatchHelper@V__FrameHandler3@@@@YAHPBU_s_HandlerType@@PBU_s_CatchableType@@PBU_s_ThrowInfo@@@Z 10032fb0 f i libvcruntimed:frame.obj
 0001:00032090       ??$__InternalCxxFrameHandler@V__FrameHandler3@@@@YA?AW4_EXCEPTION_DISPOSITION@@PAUEHExceptionRecord@@PAUEHRegistrationNode@@PAU_CONTEXT@@PAXPBU_s_FuncInfo@@H1E@Z 10033090 f i libvcruntimed:frame.obj
 0001:00032250       ??0HandlerMap@__FrameHandler3@@QAE@PBU_s_TryBlockMapEntry@@II@Z 10033250 f i libvcruntimed:frame.obj
 0001:00032280       ??0TryBlockMap@__FrameHandler3@@QAE@PBU_s_FuncInfo@@I@Z 10033280 f i libvcruntimed:frame.obj
 0001:000322b0       ??0bad_exception@std@@QAE@ABV01@@Z 100332b0 f i libvcruntimed:frame.obj
 0001:000322e0       ??0bad_exception@std@@QAE@XZ 100332e0 f i libvcruntimed:frame.obj
 0001:00032310       ??0iterator@HandlerMap@__FrameHandler3@@QAE@AAV12@I@Z 10033310 f i libvcruntimed:frame.obj
 0001:00032340       ??1bad_exception@std@@UAE@XZ 10033340 f i libvcruntimed:frame.obj
 0001:00032360       ??8iterator@HandlerMap@__FrameHandler3@@QBE_NABV012@@Z 10033360 f i libvcruntimed:frame.obj
 0001:00032390       ??8type_info@@QBE_NABV0@@Z 10033390 f i libvcruntimed:frame.obj
 0001:000323d0       ??9iterator@HandlerMap@__FrameHandler3@@QBE_NABV012@@Z 100333d0 f i libvcruntimed:frame.obj
 0001:00032410       ??Diterator@HandlerMap@__FrameHandler3@@QAE?BU_s_HandlerType@@XZ 10033410 f i libvcruntimed:frame.obj
 0001:00032450       ??Diterator@TryBlockMap@__FrameHandler3@@QAE?BU_s_TryBlockMapEntry@@XZ 10033450 f i libvcruntimed:frame.obj
 0001:000324a0       ??Eiterator@HandlerMap@__FrameHandler3@@QAEAAV012@XZ 100334a0 f i libvcruntimed:frame.obj
 0001:000324c0       ??Eiterator@TryBlockMap@__FrameHandler3@@QAEAAV012@XZ 100334c0 f i libvcruntimed:frame.obj
 0001:000324e0       ??Miterator@TryBlockMap@__FrameHandler3@@QBE_NABV012@@Z 100334e0 f i libvcruntimed:frame.obj
 0001:00032510       ??_Gbad_exception@std@@UAEPAXI@Z 10033510 f i libvcruntimed:frame.obj
 0001:00032510       ??_Ebad_exception@std@@UAEPAXI@Z 10033510 f i libvcruntimed:frame.obj
 0001:00032540       ?BuildCatchObject@__FrameHandler3@@SAXPAUEHExceptionRecord@@PAXPBU_s_HandlerType@@PBU_s_CatchableType@@@Z 10033540 f   libvcruntimed:frame.obj
 0001:00032560       ?BuildCatchObjectHelper@__FrameHandler3@@SAHPAUEHExceptionRecord@@PAXPBU_s_HandlerType@@PBU_s_CatchableType@@@Z 10033560 f   libvcruntimed:frame.obj
 0001:00032900       ?FrameUnwindToEmptyState@__FrameHandler3@@SAXPAUEHRegistrationNode@@PAXPBU_s_FuncInfo@@@Z 10033900 f   libvcruntimed:frame.obj
 0001:00032920       ?FrameUnwindToState@__FrameHandler3@@SAXPAUEHRegistrationNode@@PAXPBU_s_FuncInfo@@H@Z 10033920 f   libvcruntimed:frame.obj
 0001:00032aa0       ?GetMaxState@__FrameHandler3@@SAHPAXPBU_s_FuncInfo@@@Z 10033aa0 f i libvcruntimed:frame.obj
 0001:00032bc0       ?TypeMatch@__FrameHandler3@@SAHPBU_s_HandlerType@@PBU_s_CatchableType@@PBU_s_ThrowInfo@@@Z 10033bc0 f   libvcruntimed:frame.obj
 0001:00032be0       ?_CallMemberFunction1@@YGXQAX00@Z 10033be0 f i libvcruntimed:frame.obj
 0001:00032c10       ?_CallMemberFunction2@@YGXQAX00H@Z 10033c10 f i libvcruntimed:frame.obj
 0001:00032c40       ?begin@HandlerMap@__FrameHandler3@@QAE?AViterator@12@XZ 10033c40 f i libvcruntimed:frame.obj
 0001:00032c60       ?end@HandlerMap@__FrameHandler3@@QAE?AViterator@12@XZ 10033c60 f i libvcruntimed:frame.obj
 0001:00032c90       ?getESTypes@__FrameHandler3@@SAPBU_s_ESTypeList@@PBU_s_FuncInfo@@@Z 10033c90 f i libvcruntimed:frame.obj
 0001:00032ca0       ?getLastEntry@HandlerMap@__FrameHandler3@@QAEPBU_s_HandlerType@@XZ 10033ca0 f i libvcruntimed:frame.obj
 0001:00032cc0       ?getMagicNum@__FrameHandler3@@SAIPBU_s_FuncInfo@@@Z 10033cc0 f i libvcruntimed:frame.obj
 0001:00032cd0       ?getNumTryBlocks@TryBlockMap@__FrameHandler3@@QAEIXZ 10033cd0 f i libvcruntimed:frame.obj
 0001:00032cf0       ?isEHs@__FrameHandler3@@SA_NPBU_s_FuncInfo@@@Z 10033cf0 f i libvcruntimed:frame.obj
 0001:00032d20       ?isNoExcept@__FrameHandler3@@SA_NPBU_s_FuncInfo@@@Z 10033d20 f i libvcruntimed:frame.obj
 0001:00032d50       ___BuildCatchObject        10033d50 f   libvcruntimed:frame.obj
 0001:00032d70       ___BuildCatchObjectHelper  10033d70 f   libvcruntimed:frame.obj
 0001:00032d90       ___TypeMatch               10033d90 f   libvcruntimed:frame.obj
 0001:00032db0       ___vcrt_EncodePointer      10033db0 f i libvcruntimed:frame.obj
 0001:00032dc0       __CallSettingFrame@12      10033dc0 f   libvcruntimed:lowhelpr.obj
 0001:00032de7       __NLG_Return               10033de7     libvcruntimed:lowhelpr.obj
 0001:00032e10       ??$?0$00@DName@@QAE@PBDU?$StringLifeSelector@$00@@@Z 10033e10 f i libvcruntimed:undname.obj
 0001:00032e60       ??$?0$00@pcharNode@@QAE@PBDHU?$StringLifeSelector@$00@@@Z 10033e60 f i libvcruntimed:undname.obj
 0001:00032ea0       ??$?0$01@DName@@QAE@PBDU?$StringLifeSelector@$01@@@Z 10033ea0 f i libvcruntimed:undname.obj
 0001:00032ef0       ??$?0$01@pcharNode@@QAE@PBDHU?$StringLifeSelector@$01@@@Z 10033ef0 f i libvcruntimed:undname.obj
 0001:00032f70       ??$?0$0A@@DName@@QAE@PBDU?$StringLifeSelector@$0A@@@@Z 10033f70 f i libvcruntimed:undname.obj
 0001:00032fc0       ??$?0$0A@@pcharNode@@QAE@PBDHU?$StringLifeSelector@$0A@@@@Z 10033fc0 f i libvcruntimed:undname.obj
 0001:00033040       ??$?0_K$0A@@?$optional@_K@std@@QAE@$$QA_K@Z 10034040 f i libvcruntimed:undname.obj
 0001:00033080       ??$?0_K@?$_Optional_construct_base@_K@std@@QAE@Uin_place_t@1@$$QA_K@Z 10034080 f i libvcruntimed:undname.obj
 0001:000330b0       ??$?0_K@?$_Optional_destruct_base@_K$00@std@@QAE@Uin_place_t@1@$$QA_K@Z 100340b0 f i libvcruntimed:undname.obj
 0001:000330e0       ??$append@VDNameNode@@@DName@@AAEXPBVDNameNode@@@Z 100340e0 f i libvcruntimed:undname.obj
 0001:00033170       ??$append@VDNameStatusNode@@@DName@@AAEXPBVDNameStatusNode@@@Z 10034170 f i libvcruntimed:undname.obj
 0001:00033200       ??$append@VcharNode@@@DName@@AAEXPBVcharNode@@@Z 10034200 f i libvcruntimed:undname.obj
 0001:00033290       ??$append@VpDNameNode@@@DName@@AAEXPBVpDNameNode@@@Z 10034290 f i libvcruntimed:undname.obj
 0001:00033320       ??$append@VpcharNode@@@DName@@AAEXPBVpcharNode@@@Z 10034320 f i libvcruntimed:undname.obj
 0001:000333b0       ??$doPchar@$00@DName@@AAEXPBDH@Z 100343b0 f i libvcruntimed:undname.obj
 0001:000334c0       ??$doPchar@$01@DName@@AAEXPBDH@Z 100344c0 f i libvcruntimed:undname.obj
 0001:000335d0       ??$doPchar@$0A@@DName@@AAEXPBDH@Z 100345d0 f i libvcruntimed:undname.obj
 0001:000336e0       ??$forward@_K@std@@YA$$QA_KAA_K@Z 100346e0 f i libvcruntimed:undname.obj
 0001:000336f0       ??$size@D$04@std@@YAIAAY04$$CBD@Z 100346f0 f i libvcruntimed:undname.obj
 0001:00033700       ??$size@D$0EB@@std@@YAIAAY0EB@$$CBD@Z 10034700 f i libvcruntimed:undname.obj
 0001:00033710       ??0?$_Optional_construct_base@_K@std@@QAE@XZ 10034710 f i libvcruntimed:undname.obj
 0001:00033730       ??0?$_Optional_destruct_base@_K$00@std@@QAE@XZ 10034730 f i libvcruntimed:undname.obj
 0001:00033750       ??0?$optional@_K@std@@QAE@XZ 10034750 f i libvcruntimed:undname.obj
 0001:00033770       ??0Block@_HeapManager@@QAE@XZ 10034770 f i libvcruntimed:undname.obj
 0001:00033790       ??0DName@@QAE@AAPBDD@Z     10034790 f   libvcruntimed:undname.obj
 0001:00033900       ??0DName@@QAE@ABUStringLiteral@@@Z 10034900 f   libvcruntimed:undname.obj
 0001:00033950       ??0DName@@QAE@ABV0@@Z      10034950 f i libvcruntimed:undname.obj
 0001:00033980       ??0DName@@QAE@D@Z          10034980 f   libvcruntimed:undname.obj
 0001:000339b0       ??0DName@@QAE@PAV0@@Z      100349b0 f   libvcruntimed:undname.obj
 0001:00033a60       ??0DName@@QAE@W4DNameStatus@@@Z 10034a60 f   libvcruntimed:undname.obj
 0001:00033b00       ??0DName@@QAE@XZ           10034b00 f i libvcruntimed:undname.obj
 0001:00033b30       ??0DName@@QAE@_J@Z         10034b30 f   libvcruntimed:undname.obj
 0001:00033c20       ??0DName@@QAE@_K@Z         10034c20 f   libvcruntimed:undname.obj
 0001:00033cd0       ??0DNameNode@@IAE@XZ       10034cd0 f i libvcruntimed:undname.obj
 0001:00033cf0       ??0Replicator@@QAE@XZ      10034cf0 f i libvcruntimed:undname.obj
 0001:00033d30       ??0UnDecorator@@QAE@PBDP6APADJ@ZK@Z 10034d30 f i libvcruntimed:undname.obj
 0001:00033db0       ??0_Nontrivial_dummy_type@std@@QAE@XZ 10034db0 f i libvcruntimed:undname.obj
 0001:00033dc0       ??0charNode@@QAE@D@Z       10034dc0 f i libvcruntimed:undname.obj
 0001:00033df0       ??0pDNameNode@@QAE@PAVDName@@@Z 10034df0 f   libvcruntimed:undname.obj
 0001:00033e50       ??0pairNode@@QAE@PBVDNameNode@@0@Z 10034e50 f i libvcruntimed:undname.obj
 0001:00033eb0       ??2@YAPAXIAAV_HeapManager@@H@Z 10034eb0 f   libvcruntimed:undname.obj
 0001:00033ef0       ??4DName@@QAEAAV0@ABUStringLiteral@@@Z 10034ef0 f   libvcruntimed:undname.obj
 0001:00033f30       ??4DName@@QAEAAV0@ABV0@@Z  10034f30 f   libvcruntimed:undname.obj
 0001:00033f60       ??4DName@@QAEAAV0@D@Z      10034f60 f i libvcruntimed:undname.obj
 0001:00033f90       ??4DName@@QAEAAV0@PAV0@@Z  10034f90 f   libvcruntimed:undname.obj
 0001:00034030       ??4DName@@QAEAAV0@W4DNameStatus@@@Z 10035030 f   libvcruntimed:undname.obj
 0001:000340b0       ??AReplicator@@QBE?AVDName@@H@Z 100350b0 f   libvcruntimed:undname.obj
 0001:00034120       ??B?$optional@_K@std@@QBE_NXZ 10035120 f i libvcruntimed:undname.obj
 0001:00034140       ??D?$optional@_K@std@@QGAEAA_KXZ 10035140 f i libvcruntimed:undname.obj
 0001:00034150       ??H@YA?AVDName@@ABUStringLiteral@@ABV0@@Z 10035150 f i libvcruntimed:undname.obj
 0001:00034180       ??H@YA?AVDName@@DABV0@@Z   10035180 f i libvcruntimed:undname.obj
 0001:000341b0       ??H@YA?AVDName@@W4DNameStatus@@ABV0@@Z 100351b0 f i libvcruntimed:undname.obj
 0001:000341e0       ??HDName@@QBE?AV0@ABUStringLiteral@@@Z 100351e0 f   libvcruntimed:undname.obj
 0001:00034220       ??HDName@@QBE?AV0@ABV0@@Z  10035220 f   libvcruntimed:undname.obj
 0001:00034260       ??HDName@@QBE?AV0@D@Z      10035260 f   libvcruntimed:undname.obj
 0001:000342a0       ??HDName@@QBE?AV0@PAV0@@Z  100352a0 f   libvcruntimed:undname.obj
 0001:000342e0       ??HDName@@QBE?AV0@W4DNameStatus@@@Z 100352e0 f   libvcruntimed:undname.obj
 0001:00034320       ??HStringLiteral@@QBE?AU0@H@Z 10035320 f i libvcruntimed:undname.obj
 0001:00034350       ??YDName@@QAEAAV0@ABUStringLiteral@@@Z 10035350 f   libvcruntimed:undname.obj
 0001:000343f0       ??YDName@@QAEAAV0@ABV0@@Z  100353f0 f   libvcruntimed:undname.obj
 0001:00034490       ??YDName@@QAEAAV0@D@Z      10035490 f   libvcruntimed:undname.obj
 0001:00034510       ??YDName@@QAEAAV0@PAV0@@Z  10035510 f   libvcruntimed:undname.obj
 0001:000345c0       ??YDName@@QAEAAV0@W4DNameStatus@@@Z 100355c0 f   libvcruntimed:undname.obj
 0001:00034620       ??YReplicator@@QAEAAV0@ABVDName@@@Z 10035620 f   libvcruntimed:undname.obj
 0001:000346b0       ??_5DName@@QAEAAV0@ABV0@@Z 100356b0 f   libvcruntimed:undname.obj
 0001:00034710       ??__K_l@@YA?AUStringLiteral@@PBDI@Z 10035710 f i libvcruntimed:undname.obj
 0001:00034730       ?Constructor@_HeapManager@@QAEXP6APAXI@ZP6AXPAX@Z@Z 10035730 f i libvcruntimed:undname.obj
 0001:00034770       ?Destructor@_HeapManager@@QAEXXZ 10035770 f i libvcruntimed:undname.obj
 0001:000347e0       ?UScore@UnDecorator@@SA?AUStringLiteral@@W4Tokens@@@Z 100357e0 f   libvcruntimed:undname.obj
 0001:00034830       ?composeDeclaration@UnDecorator@@CA?AVDName@@ABV2@@Z 10035830 f i libvcruntimed:undname.obj
 0001:000367a0       ?dbGetString@DName@@QBEPADXZ 100377a0 f   libvcruntimed:undname.obj
 0001:000367c0       ?doAccessSpecifiers@UnDecorator@@SAHXZ 100377c0 f i libvcruntimed:undname.obj
 0001:000367f0       ?doAllocationLanguage@UnDecorator@@SAHXZ 100377f0 f i libvcruntimed:undname.obj
 0001:00036820       ?doAllocationModel@UnDecorator@@SAHXZ 10037820 f i libvcruntimed:undname.obj
 0001:00036850       ?doEcsu@UnDecorator@@SAHXZ 10037850 f i libvcruntimed:undname.obj
 0001:00036880       ?doEllipsis@UnDecorator@@SAHXZ 10037880 f i libvcruntimed:undname.obj
 0001:000368b0       ?doFunctionReturns@UnDecorator@@SAHXZ 100378b0 f i libvcruntimed:undname.obj
 0001:000368e0       ?doMSKeywords@UnDecorator@@SAHXZ 100378e0 f i libvcruntimed:undname.obj
 0001:00036910       ?doMemberTypes@UnDecorator@@SAHXZ 10037910 f i libvcruntimed:undname.obj
 0001:00036940       ?doNameOnly@UnDecorator@@SAHXZ 10037940 f i libvcruntimed:undname.obj
 0001:00036950       ?doNoIdentCharCheck@UnDecorator@@SAHXZ 10037950 f i libvcruntimed:undname.obj
 0001:00036960       ?doPchar@DName@@AAEXD@Z    10037960 f   libvcruntimed:undname.obj
 0001:000369d0       ?doPtr64@UnDecorator@@SAHXZ 100379d0 f i libvcruntimed:undname.obj
 0001:00036a00       ?doRestrictionSpec@UnDecorator@@SAHXZ 10037a00 f i libvcruntimed:undname.obj
 0001:00036a30       ?doThisTypes@UnDecorator@@SAHXZ 10037a30 f i libvcruntimed:undname.obj
 0001:00036a60       ?doThrowTypes@UnDecorator@@SAHXZ 10037a60 f i libvcruntimed:undname.obj
 0001:00036a90       ?doTypeOnly@UnDecorator@@SAHXZ 10037a90 f i libvcruntimed:undname.obj
 0001:00036aa0       ?doUnderScore@UnDecorator@@SAHXZ 10037aa0 f i libvcruntimed:undname.obj
 0001:00036ad0       ?getArgumentList@UnDecorator@@CA?AVDName@@XZ 10037ad0 f   libvcruntimed:undname.obj
 0001:00036c20       ?getArgumentTypes@UnDecorator@@CA?AVDName@@XZ 10037c20 f   libvcruntimed:undname.obj
 0001:00036e30       ?getArrayObject@UnDecorator@@CA?AVDName@@XZ 10037e30 f   libvcruntimed:undname.obj
 0001:00036f10       ?getArrayType@UnDecorator@@CA?AVDName@@ABV2@@Z 10037f10 f i libvcruntimed:undname.obj
 0001:000371b0       ?getBasedType@UnDecorator@@CA?AVDName@@XZ 100381b0 f   libvcruntimed:undname.obj
 0001:000372a0       ?getBasicDataType@UnDecorator@@CA?AVDName@@ABV2@@Z 100382a0 f   libvcruntimed:undname.obj
 0001:00037bb0       ?getCHPEName@UnDecorator@@QAEPADPADH@Z 10038bb0 f i libvcruntimed:undname.obj
 0001:00037d10       ?getCallIndex@UnDecorator@@CA?AVDName@@XZ 10038d10 f i libvcruntimed:undname.obj
 0001:00037d30       ?getCallingConvention@UnDecorator@@CA?AVDName@@XZ 10038d30 f   libvcruntimed:undname.obj
 0001:00037f70       ?getDataIndirectType@UnDecorator@@CA?AVDName@@ABV2@W4IndirectionKind@@0H@Z 10038f70 f   libvcruntimed:undname.obj
 0001:00038890       ?getDataIndirectType@UnDecorator@@CA?AVDName@@XZ 10039890 f i libvcruntimed:undname.obj
 0001:000388d0       ?getDataType@UnDecorator@@CA?AVDName@@PAV2@@Z 100398d0 f   libvcruntimed:undname.obj
 0001:00038a10       ?getDecoratedName@UnDecorator@@CA?AVDName@@XZ 10039a10 f   libvcruntimed:undname.obj
 0001:00038e50       ?getDimension@UnDecorator@@CA?AVDName@@_N@Z 10039e50 f   libvcruntimed:undname.obj
 0001:000390b0       ?getDispatchTarget@UnDecorator@@CA?AVDName@@XZ 1003a0b0 f   libvcruntimed:undname.obj
 0001:00039150       ?getDisplacement@UnDecorator@@CA?AVDName@@XZ 1003a150 f i libvcruntimed:undname.obj
 0001:00039170       ?getECSUDataType@UnDecorator@@CA?AVDName@@XZ 1003a170 f   libvcruntimed:undname.obj
 0001:000393d0       ?getECSUName@UnDecorator@@CA?AVDName@@XZ 1003a3d0 f i libvcruntimed:undname.obj
 0001:000393f0       ?getEnumType@UnDecorator@@CA?AVDName@@XZ 1003a3f0 f i libvcruntimed:undname.obj
 0001:000395a0       ?getExtendedDataIndirectType@UnDecorator@@CA?AVDName@@AAW4IndirectionKind@@AA_NH@Z 1003a5a0 f   libvcruntimed:undname.obj
 0001:000397f0       ?getExternalDataType@UnDecorator@@CA?AVDName@@ABV2@@Z 1003a7f0 f i libvcruntimed:undname.obj
 0001:00039890       ?getFloatingPoint@UnDecorator@@CA?AVDName@@H@Z 1003a890 f   libvcruntimed:undname.obj
 0001:00039a40       ?getFunctionIndirectType@UnDecorator@@CA?AVDName@@ABV2@@Z 1003aa40 f   libvcruntimed:undname.obj
 0001:00039f20       ?getGuardNumber@UnDecorator@@CA?AVDName@@XZ 1003af20 f i libvcruntimed:undname.obj
 0001:00039f40       ?getLastChar@DName@@QBEDXZ 1003af40 f i libvcruntimed:undname.obj
 0001:00039f80       ?getLastChar@DNameStatusNode@@UBEDXZ 1003af80 f i libvcruntimed:undname.obj
 0001:00039fb0       ?getLastChar@charNode@@UBEDXZ 1003afb0 f i libvcruntimed:undname.obj
 0001:00039fd0       ?getLastChar@pDNameNode@@UBEDXZ 1003afd0 f i libvcruntimed:undname.obj
 0001:0003a000       ?getLastChar@pairNode@@UBEDXZ 1003b000 f i libvcruntimed:undname.obj
 0001:0003a070       ?getLastChar@pcharNode@@UBEDXZ 1003b070 f i libvcruntimed:undname.obj
 0001:0003a0b0       ?getLexicalFrame@UnDecorator@@CA?AVDName@@XZ 1003b0b0 f i libvcruntimed:undname.obj
 0001:0003a0f0       ?getMemoryWithBuffer@_HeapManager@@QAEPAXI@Z 1003b0f0 f   libvcruntimed:undname.obj
 0001:0003a1e0       ?getMemoryWithoutBuffer@_HeapManager@@QAEPAXI@Z 1003b1e0 f   libvcruntimed:undname.obj
 0001:0003a220       ?getNoexcept@UnDecorator@@CA?AVDName@@XZ 1003b220 f   libvcruntimed:undname.obj
 0001:0003a2a0       ?getNumberOfDimensions@UnDecorator@@CAHXZ 1003b2a0 f   libvcruntimed:undname.obj
 0001:0003a3a0       ?getOperatorName@UnDecorator@@CA?AVDName@@_NPA_N@Z 1003b3a0 f i libvcruntimed:undname.obj
 0001:0003ae90       ?getPointerType@UnDecorator@@CA?AVDName@@ABV2@0@Z 1003be90 f i libvcruntimed:undname.obj
 0001:0003aeb0       ?getPointerTypeArray@UnDecorator@@CA?AVDName@@ABV2@0@Z 1003beb0 f i libvcruntimed:undname.obj
 0001:0003aed0       ?getPrimaryDataType@UnDecorator@@CA?AVDName@@ABV2@@Z 1003bed0 f   libvcruntimed:undname.obj
 0001:0003b360       ?getPtrRefDataType@UnDecorator@@CA?AVDName@@ABV2@H@Z 1003c360 f   libvcruntimed:undname.obj
 0001:0003b610       ?getPtrRefType@UnDecorator@@CA?AVDName@@ABV2@0W4IndirectionKind@@@Z 1003c610 f   libvcruntimed:undname.obj
 0001:0003b790       ?getReferenceType@UnDecorator@@CA?AVDName@@ABV2@0W4IndirectionKind@@@Z 1003c790 f i libvcruntimed:undname.obj
 0001:0003b7b0       ?getRestrictionSpec@UnDecorator@@CA?AVDName@@XZ 1003c7b0 f   libvcruntimed:undname.obj
 0001:0003b970       ?getReturnType@UnDecorator@@CA?AVDName@@PAV2@@Z 1003c970 f   libvcruntimed:undname.obj
 0001:0003b9c0       ?getScope@UnDecorator@@CA?AVDName@@XZ 1003c9c0 f   libvcruntimed:undname.obj
 0001:0003bf50       ?getScopedName@UnDecorator@@CA?AVDName@@XZ 1003cf50 f   libvcruntimed:undname.obj
 0001:0003c0a0       ?getSignedDimension@UnDecorator@@CA?AVDName@@XZ 1003d0a0 f   libvcruntimed:undname.obj
 0001:0003c120       ?getStorageConvention@UnDecorator@@CA?AVDName@@XZ 1003d120 f i libvcruntimed:undname.obj
 0001:0003c140       ?getString@DName@@QBEPADPAD0@Z 1003d140 f i libvcruntimed:undname.obj
 0001:0003c1a0       ?getString@DName@@QBEPADPADH@Z 1003d1a0 f i libvcruntimed:undname.obj
 0001:0003c230       ?getString@DNameStatusNode@@UBEPADPAD0@Z 1003d230 f i libvcruntimed:undname.obj
 0001:0003c270       ?getString@charNode@@UBEPADPAD0@Z 1003d270 f i libvcruntimed:undname.obj
 0001:0003c2a0       ?getString@pDNameNode@@UBEPADPAD0@Z 1003d2a0 f i libvcruntimed:undname.obj
 0001:0003c2e0       ?getString@pairNode@@UBEPADPAD0@Z 1003d2e0 f i libvcruntimed:undname.obj
 0001:0003c370       ?getString@pcharNode@@UBEPADPAD0@Z 1003d370 f i libvcruntimed:undname.obj
 0001:0003c3a0       ?getStringEncoding@UnDecorator@@CA?AVDName@@W4PrefixKind@@H@Z 1003d3a0 f   libvcruntimed:undname.obj
 0001:0003c4b0       ?getStringHelper@@YAPADPADPBD1H@Z 1003d4b0 f i libvcruntimed:undname.obj
 0001:0003c4f0       ?getStringObject@UnDecorator@@CA?AVDName@@XZ 1003d4f0 f   libvcruntimed:undname.obj
 0001:0003c5a0       ?getSymbolName@UnDecorator@@CA?AVDName@@XZ 1003d5a0 f i libvcruntimed:undname.obj
 0001:0003c630       ?getTemplateArgumentList@UnDecorator@@CA?AVDName@@XZ 1003d630 f   libvcruntimed:undname.obj
 0001:0003c920       ?getTemplateName@UnDecorator@@CA?AVDName@@_N@Z 1003d920 f   libvcruntimed:undname.obj
 0001:0003cae0       ?getTemplateNonTypeArgument@UnDecorator@@CA?AVDName@@XZ 1003dae0 f   libvcruntimed:undname.obj
 0001:0003d020       ?getTemplateTypeArgument@UnDecorator@@CA?AVDName@@XZ 1003e020 f   libvcruntimed:undname.obj
 0001:0003d1c0       ?getThisType@UnDecorator@@CA?AVDName@@XZ 1003e1c0 f i libvcruntimed:undname.obj
 0001:0003d200       ?getThrowTypes@UnDecorator@@CA?AVDName@@XZ 1003e200 f   libvcruntimed:undname.obj
 0001:0003d240       ?getTypeEncoding@UnDecorator@@CAHXZ 1003e240 f i libvcruntimed:undname.obj
 0001:0003dd00       ?getUndecoratedName@UnDecorator@@QAEPADPADH@Z 1003ed00 f i libvcruntimed:undname.obj
 0001:0003de60       ?getVCallThunkType@UnDecorator@@CA?AVDName@@XZ 1003ee60 f i libvcruntimed:undname.obj
 0001:0003dee0       ?getValue@UnDecorator@@CA?AV?$optional@_K@std@@XZ 1003eee0 f   libvcruntimed:undname.obj
 0001:0003dfa0       ?getValueObject@UnDecorator@@CA?AVDName@@XZ 1003efa0 f   libvcruntimed:undname.obj
 0001:0003e160       ?getVbTableType@UnDecorator@@CA?AVDName@@ABV2@@Z 1003f160 f i libvcruntimed:undname.obj
 0001:0003e180       ?getVdispMapType@UnDecorator@@CA?AVDName@@ABV2@@Z 1003f180 f i libvcruntimed:undname.obj
 0001:0003e210       ?getVfTableType@UnDecorator@@CA?AVDName@@ABV2@@Z 1003f210 f i libvcruntimed:undname.obj
 0001:0003e410       ?getZName@UnDecorator@@CA?AVDName@@_N0@Z 1003f410 f   libvcruntimed:undname.obj
 0001:0003e750       ?haveTemplateParameters@UnDecorator@@SAHXZ 1003f750 f i libvcruntimed:undname.obj
 0001:0003e760       ?isArray@DName@@QBEHXZ     1003f760 f i libvcruntimed:undname.obj
 0001:0003e780       ?isComArray@DName@@QBEHXZ  1003f780 f i libvcruntimed:undname.obj
 0001:0003e7a0       ?isEmpty@DName@@QBEHXZ     1003f7a0 f i libvcruntimed:undname.obj
 0001:0003e7d0       ?isFull@Replicator@@QBEHXZ 1003f7d0 f i libvcruntimed:undname.obj
 0001:0003e800       ?isNoTE@DName@@QBEHXZ      1003f800 f i libvcruntimed:undname.obj
 0001:0003e820       ?isPinPtr@DName@@QBEHXZ    1003f820 f i libvcruntimed:undname.obj
 0001:0003e840       ?isPtrRef@DName@@QBEHXZ    1003f840 f i libvcruntimed:undname.obj
 0001:0003e860       ?isUDC@DName@@QBEHXZ       1003f860 f i libvcruntimed:undname.obj
 0001:0003e8a0       ?isUDTThunk@DName@@QBEHXZ  1003f8a0 f i libvcruntimed:undname.obj
 0001:0003e8e0       ?isVCallThunk@DName@@QBEHXZ 1003f8e0 f i libvcruntimed:undname.obj
 0001:0003e900       ?isValid@DName@@QBEHXZ     1003f900 f i libvcruntimed:undname.obj
 0001:0003e940       ?length@DName@@QBEHXZ      1003f940 f i libvcruntimed:undname.obj
 0001:0003e980       ?length@DNameStatusNode@@UBEHXZ 1003f980 f i libvcruntimed:undname.obj
 0001:0003e9a0       ?length@charNode@@UBEHXZ   1003f9a0 f i libvcruntimed:undname.obj
 0001:0003e9b0       ?length@pDNameNode@@UBEHXZ 1003f9b0 f i libvcruntimed:undname.obj
 0001:0003e9e0       ?length@pairNode@@UBEHXZ   1003f9e0 f i libvcruntimed:undname.obj
 0001:0003ea50       ?length@pcharNode@@UBEHXZ  1003fa50 f i libvcruntimed:undname.obj
 0001:0003ea70       ?make@DNameStatusNode@@SAPBV1@W4DNameStatus@@@Z 1003fa70 f i libvcruntimed:undname.obj
 0001:0003eaa0       ?parseDecoratedName@UnDecorator@@CA?AVDName@@XZ 1003faa0 f   libvcruntimed:undname.obj
 0001:0003ec30       ?raw_length@DNameStatusNode@@UBEHXZ 1003fc30 f i libvcruntimed:undname.obj
 0001:0003ec50       ?raw_length@charNode@@UBEHXZ 1003fc50 f i libvcruntimed:undname.obj
 0001:0003ec70       ?raw_length@pDNameNode@@UBEHXZ 1003fc70 f i libvcruntimed:undname.obj
 0001:0003ec80       ?raw_length@pairNode@@UBEHXZ 1003fc80 f i libvcruntimed:undname.obj
 0001:0003eca0       ?raw_length@pcharNode@@UBEHXZ 1003fca0 f i libvcruntimed:undname.obj
 0001:0003ecc0       ?setIsArray@DName@@QAEXXZ  1003fcc0 f i libvcruntimed:undname.obj
 0001:0003ece0       ?setIsComArray@DName@@QAEXXZ 1003fce0 f i libvcruntimed:undname.obj
 0001:0003ed00       ?setIsNoTE@DName@@QAEXXZ   1003fd00 f i libvcruntimed:undname.obj
 0001:0003ed20       ?setIsPinPtr@DName@@QAEXXZ 1003fd20 f i libvcruntimed:undname.obj
 0001:0003ed40       ?setIsUDC@DName@@QAEXXZ    1003fd40 f i libvcruntimed:undname.obj
 0001:0003ed70       ?setIsVCallThunk@DName@@QAEXXZ 1003fd70 f i libvcruntimed:undname.obj
 0001:0003ed90       ?setPtrRef@DName@@QAEAAV1@XZ 1003fd90 f i libvcruntimed:undname.obj
 0001:0003edb0       ?status@DName@@QBE?AW4DNameStatus@@XZ 1003fdb0 f i libvcruntimed:undname.obj
 0001:0003eeb0       ___unDName                 1003feb0 f   libvcruntimed:undname.obj
 0001:0003eee0       ___unDNameEx               1003fee0 f   libvcruntimed:undname.obj
 0001:0003efb0       _unDNameGenerateCHPE       1003ffb0 f   libvcruntimed:undname.obj
 0001:0003f010       __global_unwind2           10040010 f   libvcruntimed:exsup.obj
 0001:0003f076       __local_unwind2            10040076 f   libvcruntimed:exsup.obj
 0001:0003f0fa       __abnormal_termination     100400fa f   libvcruntimed:exsup.obj
 0001:0003f120       __NLG_Notify1              10040120 f   libvcruntimed:exsup.obj
 0001:0003f12c       __NLG_Notify               1004012c f   libvcruntimed:exsup.obj
 0001:0003f143       __NLG_Dispatch             10040143     libvcruntimed:exsup.obj
 0001:0003f143       __NLG_Dispatch2            10040143     libvcruntimed:exsup.obj
 0001:0003f14b       __NLG_Call                 1004014b f   libvcruntimed:exsup.obj
 0001:0003f14d       __NLG_Return2              1004014d     libvcruntimed:exsup.obj
 0001:0003f150       ??$__crt_interlocked_exchange_pointer@UHINSTANCE__@@PAU1@@@YAPAUHINSTANCE__@@PDSAU0@QAU0@@Z 10040150 f i libvcruntimed:winapi_downlevel.obj
 0001:0003f160       ??$__crt_interlocked_exchange_pointer@UHINSTANCE__@@PAX@@YAPAUHINSTANCE__@@PDSAU0@QAX@Z 10040160 f i libvcruntimed:winapi_downlevel.obj
 0001:0003f170       ??$__crt_interlocked_exchange_pointer@XPAX@@YAPAXPDSAXQAX@Z 10040170 f i libvcruntimed:winapi_downlevel.obj
 0001:0003f180       ??$__crt_interlocked_read_pointer@UHINSTANCE__@@@@YAPAUHINSTANCE__@@PDSAU0@@Z 10040180 f i libvcruntimed:winapi_downlevel.obj
 0001:0003f1a0       ??$__crt_interlocked_read_pointer@X@@YAPAXPDSAX@Z 100401a0 f i libvcruntimed:winapi_downlevel.obj
 0001:0003f570       ___vcrt_FlsAlloc           10040570 f   libvcruntimed:winapi_downlevel.obj
 0001:0003f5b0       ___vcrt_FlsFree            100405b0 f   libvcruntimed:winapi_downlevel.obj
 0001:0003f5f0       ___vcrt_FlsGetValue        100405f0 f   libvcruntimed:winapi_downlevel.obj
 0001:0003f630       ___vcrt_FlsSetValue        10040630 f   libvcruntimed:winapi_downlevel.obj
 0001:0003f680       ___vcrt_InitializeCriticalSectionEx 10040680 f   libvcruntimed:winapi_downlevel.obj
 0001:0003f700       __get_unexpected           10040700 f   libvcruntimed:unexpected.obj
 0001:0003f720       _set_unexpected            10040720 f   libvcruntimed:unexpected.obj
 0001:0003f750       _unexpected                10040750 f   libvcruntimed:unexpected.obj
 0001:0003f790       ?GetCurrentState@__FrameHandler3@@SAHPAUEHRegistrationNode@@PAXPBU_s_FuncInfo@@@Z 10040790 f   libvcruntimed:ehstate.obj
 0001:0003f7c0       ?SetState@__FrameHandler3@@SAXPAUEHRegistrationNode@@PBU_s_FuncInfo@@H@Z 100407c0 f   libvcruntimed:ehstate.obj
 0001:0003f7d0       ??$?0ABV?$stream_output_adapter@D@__crt_stdio_output@@AB_KABQBDABQAU__crt_locale_pointers@@ABQAD@?$format_validation_base@DV?$stream_output_adapter@D@__crt_stdio_output@@@__crt_stdio_output@@IAE@ABV?$stream_output_adapter@D@1@AB_KABQBDABQAU__crt_locale_pointers@@ABQAD@Z 100407d0 f i libucrtd:output.obj
 0001:0003f800       ??$?0ABV?$stream_output_adapter@D@__crt_stdio_output@@AB_KABQBDABQAU__crt_locale_pointers@@ABQAD@?$positional_parameter_base@DV?$stream_output_adapter@D@__crt_stdio_output@@@__crt_stdio_output@@IAE@ABV?$stream_output_adapter@D@1@AB_KABQBDABQAU__crt_locale_pointers@@ABQAD@Z 10040800 f i libucrtd:output.obj
 0001:0003f880       ??$?0ABV?$stream_output_adapter@D@__crt_stdio_output@@AB_KABQBDABQAU__crt_locale_pointers@@ABQAD@?$standard_base@DV?$stream_output_adapter@D@__crt_stdio_output@@@__crt_stdio_output@@IAE@ABV?$stream_output_adapter@D@1@AB_KABQBDABQAU__crt_locale_pointers@@ABQAD@Z 10040880 f i libucrtd:output.obj
 0001:0003f8d0       ??$?0ABV?$stream_output_adapter@_W@__crt_stdio_output@@AB_KABQB_WABQAU__crt_locale_pointers@@ABQAD@?$format_validation_base@_WV?$stream_output_adapter@_W@__crt_stdio_output@@@__crt_stdio_output@@IAE@ABV?$stream_output_adapter@_W@1@AB_KABQB_WABQAU__crt_locale_pointers@@ABQAD@Z 100408d0 f i libucrtd:output.obj
 0001:0003f900       ??$?0ABV?$stream_output_adapter@_W@__crt_stdio_output@@AB_KABQB_WABQAU__crt_locale_pointers@@ABQAD@?$positional_parameter_base@_WV?$stream_output_adapter@_W@__crt_stdio_output@@@__crt_stdio_output@@IAE@ABV?$stream_output_adapter@_W@1@AB_KABQB_WABQAU__crt_locale_pointers@@ABQAD@Z 10040900 f i libucrtd:output.obj
 0001:0003f980       ??$?0ABV?$stream_output_adapter@_W@__crt_stdio_output@@AB_KABQB_WABQAU__crt_locale_pointers@@ABQAD@?$standard_base@_WV?$stream_output_adapter@_W@__crt_stdio_output@@@__crt_stdio_output@@IAE@ABV?$stream_output_adapter@_W@1@AB_KABQB_WABQAU__crt_locale_pointers@@ABQAD@Z 10040980 f i libucrtd:output.obj
 0001:0003f9d0       ??$?0ABV?$string_output_adapter@D@__crt_stdio_output@@AB_KABQBDABQAU__crt_locale_pointers@@ABQAD@?$format_validation_base@DV?$string_output_adapter@D@__crt_stdio_output@@@__crt_stdio_output@@IAE@ABV?$string_output_adapter@D@1@AB_KABQBDABQAU__crt_locale_pointers@@ABQAD@Z 100409d0 f i libucrtd:output.obj
 0001:0003fa00       ??$?0ABV?$string_output_adapter@D@__crt_stdio_output@@AB_KABQBDABQAU__crt_locale_pointers@@ABQAD@?$positional_parameter_base@DV?$string_output_adapter@D@__crt_stdio_output@@@__crt_stdio_output@@IAE@ABV?$string_output_adapter@D@1@AB_KABQBDABQAU__crt_locale_pointers@@ABQAD@Z 10040a00 f i libucrtd:output.obj
 0001:0003fa80       ??$?0ABV?$string_output_adapter@D@__crt_stdio_output@@AB_KABQBDABQAU__crt_locale_pointers@@ABQAD@?$standard_base@DV?$string_output_adapter@D@__crt_stdio_output@@@__crt_stdio_output@@IAE@ABV?$string_output_adapter@D@1@AB_KABQBDABQAU__crt_locale_pointers@@ABQAD@Z 10040a80 f i libucrtd:output.obj
 0001:0003fad0       ??$?0ABV?$string_output_adapter@_W@__crt_stdio_output@@AB_KABQB_WABQAU__crt_locale_pointers@@ABQAD@?$format_validation_base@_WV?$string_output_adapter@_W@__crt_stdio_output@@@__crt_stdio_output@@IAE@ABV?$string_output_adapter@_W@1@AB_KABQB_WABQAU__crt_locale_pointers@@ABQAD@Z 10040ad0 f i libucrtd:output.obj
 0001:0003fb00       ??$?0ABV?$string_output_adapter@_W@__crt_stdio_output@@AB_KABQB_WABQAU__crt_locale_pointers@@ABQAD@?$positional_parameter_base@_WV?$string_output_adapter@_W@__crt_stdio_output@@@__crt_stdio_output@@IAE@ABV?$string_output_adapter@_W@1@AB_KABQB_WABQAU__crt_locale_pointers@@ABQAD@Z 10040b00 f i libucrtd:output.obj
 0001:0003fb80       ??$?0ABV?$string_output_adapter@_W@__crt_stdio_output@@AB_KABQB_WABQAU__crt_locale_pointers@@ABQAD@?$standard_base@_WV?$string_output_adapter@_W@__crt_stdio_output@@@__crt_stdio_output@@IAE@ABV?$string_output_adapter@_W@1@AB_KABQB_WABQAU__crt_locale_pointers@@ABQAD@Z 10040b80 f i libucrtd:output.obj
 0001:000400b0       ??$__crt_interlocked_read@J@@YAJPDJ@Z 100410b0 f i libucrtd:output.obj
 0001:00042e50       ??$count@D@formatting_buffer@__crt_stdio_output@@QBEIXZ 10043e50 f i libucrtd:output.obj
 0001:00042e90       ??$count@_W@formatting_buffer@__crt_stdio_output@@QBEIXZ 10043e90 f i libucrtd:output.obj
 0001:00042ed0       ??$data@D@formatting_buffer@__crt_stdio_output@@QAEPADXZ 10043ed0 f i libucrtd:output.obj
 0001:00042f10       ??$data@_W@formatting_buffer@__crt_stdio_output@@QAEPA_WXZ 10043f10 f i libucrtd:output.obj
 0001:00042f50       ??$ensure_buffer_is_big_enough@D@formatting_buffer@__crt_stdio_output@@QAE_NI@Z 10043f50 f i libucrtd:output.obj
 0001:00043030       ??$ensure_buffer_is_big_enough@_W@formatting_buffer@__crt_stdio_output@@QAE_NI@Z 10044030 f i libucrtd:output.obj
 0001:00043120       ??$extract_argument_from_va_list@C_J@?$positional_parameter_base@DV?$stream_output_adapter@D@__crt_stdio_output@@@__crt_stdio_output@@IAE_NAA_J@Z 10044120 f i libucrtd:output.obj
 0001:00043260       ??$extract_argument_from_va_list@C_J@?$positional_parameter_base@DV?$string_output_adapter@D@__crt_stdio_output@@@__crt_stdio_output@@IAE_NAA_J@Z 10044260 f i libucrtd:output.obj
 0001:000433a0       ??$extract_argument_from_va_list@C_J@?$positional_parameter_base@_WV?$stream_output_adapter@_W@__crt_stdio_output@@@__crt_stdio_output@@IAE_NAA_J@Z 100443a0 f i libucrtd:output.obj
 0001:000434e0       ??$extract_argument_from_va_list@C_J@?$positional_parameter_base@_WV?$string_output_adapter@_W@__crt_stdio_output@@@__crt_stdio_output@@IAE_NAA_J@Z 100444e0 f i libucrtd:output.obj
 0001:00043620       ??$extract_argument_from_va_list@C_J@?$standard_base@DV?$stream_output_adapter@D@__crt_stdio_output@@@__crt_stdio_output@@IAE_NAA_J@Z 10044620 f i libucrtd:output.obj
 0001:00043650       ??$extract_argument_from_va_list@C_J@?$standard_base@DV?$string_output_adapter@D@__crt_stdio_output@@@__crt_stdio_output@@IAE_NAA_J@Z 10044650 f i libucrtd:output.obj
 0001:00043680       ??$extract_argument_from_va_list@C_J@?$standard_base@_WV?$stream_output_adapter@_W@__crt_stdio_output@@@__crt_stdio_output@@IAE_NAA_J@Z 10044680 f i libucrtd:output.obj
 0001:000436b0       ??$extract_argument_from_va_list@C_J@?$standard_base@_WV?$string_output_adapter@_W@__crt_stdio_output@@@__crt_stdio_output@@IAE_NAA_J@Z 100446b0 f i libucrtd:output.obj
 0001:000436e0       ??$extract_argument_from_va_list@E_J@?$positional_parameter_base@DV?$stream_output_adapter@D@__crt_stdio_output@@@__crt_stdio_output@@IAE_NAA_J@Z 100446e0 f i libucrtd:output.obj
 0001:00043820       ??$extract_argument_from_va_list@E_J@?$positional_parameter_base@DV?$string_output_adapter@D@__crt_stdio_output@@@__crt_stdio_output@@IAE_NAA_J@Z 10044820 f i libucrtd:output.obj
 0001:00043960       ??$extract_argument_from_va_list@E_J@?$positional_parameter_base@_WV?$stream_output_adapter@_W@__crt_stdio_output@@@__crt_stdio_output@@IAE_NAA_J@Z 10044960 f i libucrtd:output.obj
 0001:00043aa0       ??$extract_argument_from_va_list@E_J@?$positional_parameter_base@_WV?$string_output_adapter@_W@__crt_stdio_output@@@__crt_stdio_output@@IAE_NAA_J@Z 10044aa0 f i libucrtd:output.obj
 0001:00043be0       ??$extract_argument_from_va_list@E_J@?$standard_base@DV?$stream_output_adapter@D@__crt_stdio_output@@@__crt_stdio_output@@IAE_NAA_J@Z 10044be0 f i libucrtd:output.obj
 0001:00043c10       ??$extract_argument_from_va_list@E_J@?$standard_base@DV?$string_output_adapter@D@__crt_stdio_output@@@__crt_stdio_output@@IAE_NAA_J@Z 10044c10 f i libucrtd:output.obj
 0001:00043c40       ??$extract_argument_from_va_list@E_J@?$standard_base@_WV?$stream_output_adapter@_W@__crt_stdio_output@@@__crt_stdio_output@@IAE_NAA_J@Z 10044c40 f i libucrtd:output.obj
 0001:00043c70       ??$extract_argument_from_va_list@E_J@?$standard_base@_WV?$string_output_adapter@_W@__crt_stdio_output@@@__crt_stdio_output@@IAE_NAA_J@Z 10044c70 f i libucrtd:output.obj
 0001:00043ca0       ??$extract_argument_from_va_list@F_J@?$positional_parameter_base@DV?$stream_output_adapter@D@__crt_stdio_output@@@__crt_stdio_output@@IAE_NAA_J@Z 10044ca0 f i libucrtd:output.obj
 0001:00043dd0       ??$extract_argument_from_va_list@F_J@?$positional_parameter_base@DV?$string_output_adapter@D@__crt_stdio_output@@@__crt_stdio_output@@IAE_NAA_J@Z 10044dd0 f i libucrtd:output.obj
 0001:00043f00       ??$extract_argument_from_va_list@F_J@?$positional_parameter_base@_WV?$stream_output_adapter@_W@__crt_stdio_output@@@__crt_stdio_output@@IAE_NAA_J@Z 10044f00 f i libucrtd:output.obj
 0001:00044030       ??$extract_argument_from_va_list@F_J@?$positional_parameter_base@_WV?$string_output_adapter@_W@__crt_stdio_output@@@__crt_stdio_output@@IAE_NAA_J@Z 10045030 f i libucrtd:output.obj
 0001:00044160       ??$extract_argument_from_va_list@F_J@?$standard_base@DV?$stream_output_adapter@D@__crt_stdio_output@@@__crt_stdio_output@@IAE_NAA_J@Z 10045160 f i libucrtd:output.obj
 0001:00044190       ??$extract_argument_from_va_list@F_J@?$standard_base@DV?$string_output_adapter@D@__crt_stdio_output@@@__crt_stdio_output@@IAE_NAA_J@Z 10045190 f i libucrtd:output.obj
 0001:000441c0       ??$extract_argument_from_va_list@F_J@?$standard_base@_WV?$stream_output_adapter@_W@__crt_stdio_output@@@__crt_stdio_output@@IAE_NAA_J@Z 100451c0 f i libucrtd:output.obj
 0001:000441f0       ??$extract_argument_from_va_list@F_J@?$standard_base@_WV?$string_output_adapter@_W@__crt_stdio_output@@@__crt_stdio_output@@IAE_NAA_J@Z 100451f0 f i libucrtd:output.obj
 0001:00044220       ??$extract_argument_from_va_list@GD@?$positional_parameter_base@DV?$stream_output_adapter@D@__crt_stdio_output@@@__crt_stdio_output@@IAE_NAAD@Z 10045220 f i libucrtd:output.obj
 0001:00044350       ??$extract_argument_from_va_list@GD@?$positional_parameter_base@DV?$string_output_adapter@D@__crt_stdio_output@@@__crt_stdio_output@@IAE_NAAD@Z 10045350 f i libucrtd:output.obj
 0001:00044480       ??$extract_argument_from_va_list@GD@?$standard_base@DV?$stream_output_adapter@D@__crt_stdio_output@@@__crt_stdio_output@@IAE_NAAD@Z 10045480 f i libucrtd:output.obj
 0001:000444b0       ??$extract_argument_from_va_list@GD@?$standard_base@DV?$string_output_adapter@D@__crt_stdio_output@@@__crt_stdio_output@@IAE_NAAD@Z 100454b0 f i libucrtd:output.obj
 0001:000444e0       ??$extract_argument_from_va_list@G_J@?$positional_parameter_base@DV?$stream_output_adapter@D@__crt_stdio_output@@@__crt_stdio_output@@IAE_NAA_J@Z 100454e0 f i libucrtd:output.obj
 0001:00044620       ??$extract_argument_from_va_list@G_J@?$positional_parameter_base@DV?$string_output_adapter@D@__crt_stdio_output@@@__crt_stdio_output@@IAE_NAA_J@Z 10045620 f i libucrtd:output.obj
 0001:00044760       ??$extract_argument_from_va_list@G_J@?$positional_parameter_base@_WV?$stream_output_adapter@_W@__crt_stdio_output@@@__crt_stdio_output@@IAE_NAA_J@Z 10045760 f i libucrtd:output.obj
 0001:000448a0       ??$extract_argument_from_va_list@G_J@?$positional_parameter_base@_WV?$string_output_adapter@_W@__crt_stdio_output@@@__crt_stdio_output@@IAE_NAA_J@Z 100458a0 f i libucrtd:output.obj
 0001:000449e0       ??$extract_argument_from_va_list@G_J@?$standard_base@DV?$stream_output_adapter@D@__crt_stdio_output@@@__crt_stdio_output@@IAE_NAA_J@Z 100459e0 f i libucrtd:output.obj
 0001:00044a10       ??$extract_argument_from_va_list@G_J@?$standard_base@DV?$string_output_adapter@D@__crt_stdio_output@@@__crt_stdio_output@@IAE_NAA_J@Z 10045a10 f i libucrtd:output.obj
 0001:00044a40       ??$extract_argument_from_va_list@G_J@?$standard_base@_WV?$stream_output_adapter@_W@__crt_stdio_output@@@__crt_stdio_output@@IAE_NAA_J@Z 10045a40 f i libucrtd:output.obj
 0001:00044a70       ??$extract_argument_from_va_list@G_J@?$standard_base@_WV?$string_output_adapter@_W@__crt_stdio_output@@@__crt_stdio_output@@IAE_NAA_J@Z 10045a70 f i libucrtd:output.obj
 0001:00044aa0       ??$extract_argument_from_va_list@H_J@?$positional_parameter_base@DV?$stream_output_adapter@D@__crt_stdio_output@@@__crt_stdio_output@@IAE_NAA_J@Z 10045aa0 f i libucrtd:output.obj
 0001:00044bd0       ??$extract_argument_from_va_list@H_J@?$positional_parameter_base@DV?$string_output_adapter@D@__crt_stdio_output@@@__crt_stdio_output@@IAE_NAA_J@Z 10045bd0 f i libucrtd:output.obj
 0001:00044d00       ??$extract_argument_from_va_list@H_J@?$positional_parameter_base@_WV?$stream_output_adapter@_W@__crt_stdio_output@@@__crt_stdio_output@@IAE_NAA_J@Z 10045d00 f i libucrtd:output.obj
 0001:00044e30       ??$extract_argument_from_va_list@H_J@?$positional_parameter_base@_WV?$string_output_adapter@_W@__crt_stdio_output@@@__crt_stdio_output@@IAE_NAA_J@Z 10045e30 f i libucrtd:output.obj
 0001:00044f60       ??$extract_argument_from_va_list@H_J@?$standard_base@DV?$stream_output_adapter@D@__crt_stdio_output@@@__crt_stdio_output@@IAE_NAA_J@Z 10045f60 f i libucrtd:output.obj
 0001:00044f90       ??$extract_argument_from_va_list@H_J@?$standard_base@DV?$string_output_adapter@D@__crt_stdio_output@@@__crt_stdio_output@@IAE_NAA_J@Z 10045f90 f i libucrtd:output.obj
 0001:00044fc0       ??$extract_argument_from_va_list@H_J@?$standard_base@_WV?$stream_output_adapter@_W@__crt_stdio_output@@@__crt_stdio_output@@IAE_NAA_J@Z 10045fc0 f i libucrtd:output.obj
 0001:00044ff0       ??$extract_argument_from_va_list@H_J@?$standard_base@_WV?$string_output_adapter@_W@__crt_stdio_output@@@__crt_stdio_output@@IAE_NAA_J@Z 10045ff0 f i libucrtd:output.obj
 0001:00045020       ??$extract_argument_from_va_list@I_J@?$positional_parameter_base@DV?$stream_output_adapter@D@__crt_stdio_output@@@__crt_stdio_output@@IAE_NAA_J@Z 10046020 f i libucrtd:output.obj
 0001:00045150       ??$extract_argument_from_va_list@I_J@?$positional_parameter_base@DV?$string_output_adapter@D@__crt_stdio_output@@@__crt_stdio_output@@IAE_NAA_J@Z 10046150 f i libucrtd:output.obj
 0001:00045280       ??$extract_argument_from_va_list@I_J@?$positional_parameter_base@_WV?$stream_output_adapter@_W@__crt_stdio_output@@@__crt_stdio_output@@IAE_NAA_J@Z 10046280 f i libucrtd:output.obj
 0001:000453b0       ??$extract_argument_from_va_list@I_J@?$positional_parameter_base@_WV?$string_output_adapter@_W@__crt_stdio_output@@@__crt_stdio_output@@IAE_NAA_J@Z 100463b0 f i libucrtd:output.obj
 0001:000454e0       ??$extract_argument_from_va_list@I_J@?$standard_base@DV?$stream_output_adapter@D@__crt_stdio_output@@@__crt_stdio_output@@IAE_NAA_J@Z 100464e0 f i libucrtd:output.obj
 0001:00045510       ??$extract_argument_from_va_list@I_J@?$standard_base@DV?$string_output_adapter@D@__crt_stdio_output@@@__crt_stdio_output@@IAE_NAA_J@Z 10046510 f i libucrtd:output.obj
 0001:00045540       ??$extract_argument_from_va_list@I_J@?$standard_base@_WV?$stream_output_adapter@_W@__crt_stdio_output@@@__crt_stdio_output@@IAE_NAA_J@Z 10046540 f i libucrtd:output.obj
 0001:00045570       ??$extract_argument_from_va_list@I_J@?$standard_base@_WV?$string_output_adapter@_W@__crt_stdio_output@@@__crt_stdio_output@@IAE_NAA_J@Z 10046570 f i libucrtd:output.obj
 0001:000455a0       ??$extract_argument_from_va_list@PADPAD@?$positional_parameter_base@DV?$stream_output_adapter@D@__crt_stdio_output@@@__crt_stdio_output@@IAE_NAAPAD@Z 100465a0 f i libucrtd:output.obj
 0001:000456d0       ??$extract_argument_from_va_list@PADPAD@?$positional_parameter_base@DV?$string_output_adapter@D@__crt_stdio_output@@@__crt_stdio_output@@IAE_NAAPAD@Z 100466d0 f i libucrtd:output.obj
 0001:00045800       ??$extract_argument_from_va_list@PADPAD@?$positional_parameter_base@_WV?$stream_output_adapter@_W@__crt_stdio_output@@@__crt_stdio_output@@IAE_NAAPAD@Z 10046800 f i libucrtd:output.obj
 0001:00045930       ??$extract_argument_from_va_list@PADPAD@?$positional_parameter_base@_WV?$string_output_adapter@_W@__crt_stdio_output@@@__crt_stdio_output@@IAE_NAAPAD@Z 10046930 f i libucrtd:output.obj
 0001:00045a60       ??$extract_argument_from_va_list@PADPAD@?$standard_base@DV?$stream_output_adapter@D@__crt_stdio_output@@@__crt_stdio_output@@IAE_NAAPAD@Z 10046a60 f i libucrtd:output.obj
 0001:00045a90       ??$extract_argument_from_va_list@PADPAD@?$standard_base@DV?$string_output_adapter@D@__crt_stdio_output@@@__crt_stdio_output@@IAE_NAAPAD@Z 10046a90 f i libucrtd:output.obj
 0001:00045ac0       ??$extract_argument_from_va_list@PADPAD@?$standard_base@_WV?$stream_output_adapter@_W@__crt_stdio_output@@@__crt_stdio_output@@IAE_NAAPAD@Z 10046ac0 f i libucrtd:output.obj
 0001:00045af0       ??$extract_argument_from_va_list@PADPAD@?$standard_base@_WV?$string_output_adapter@_W@__crt_stdio_output@@@__crt_stdio_output@@IAE_NAAPAD@Z 10046af0 f i libucrtd:output.obj
 0001:00045b20       ??$extract_argument_from_va_list@PAUansi_string@?1??type_case_Z@?$output_processor@DV?$stream_output_adapter@D@__crt_stdio_output@@V?$format_validation_base@DV?$stream_output_adapter@D@__crt_stdio_output@@@2@@__crt_stdio_output@@AAE_NXZ@PAU1?1??234@AAE_NXZ@@?$standard_base@DV?$stream_output_adapter@D@__crt_stdio_output@@@__crt_stdio_output@@IAE_NAAPAUansi_string@?1??type_case_Z@?$output_processor@DV?$stream_output_adapter@D@__crt_stdio_output@@V?$format_validation_base@DV?$stream_output_adapter@D@__crt_stdio_output@@@2@@1@AAE_NXZ@@Z 10046b20 f i libucrtd:output.obj
 0001:00045b50       ??$extract_argument_from_va_list@PAUansi_string@?1??type_case_Z@?$output_processor@DV?$stream_output_adapter@D@__crt_stdio_output@@V?$positional_parameter_base@DV?$stream_output_adapter@D@__crt_stdio_output@@@2@@__crt_stdio_output@@AAE_NXZ@PAU1?1??234@AAE_NXZ@@?$positional_parameter_base@DV?$stream_output_adapter@D@__crt_stdio_output@@@__crt_stdio_output@@IAE_NAAPAUansi_string@?1??type_case_Z@?$output_processor@DV?$stream_output_adapter@D@__crt_stdio_output@@V?$positional_parameter_base@DV?$stream_output_adapter@D@__crt_stdio_output@@@2@@1@AAE_NXZ@@Z 10046b50 f i libucrtd:output.obj
 0001:00045c80       ??$extract_argument_from_va_list@PAUansi_string@?1??type_case_Z@?$output_processor@DV?$stream_output_adapter@D@__crt_stdio_output@@V?$positional_parameter_base@DV?$stream_output_adapter@D@__crt_stdio_output@@@2@@__crt_stdio_output@@AAE_NXZ@PAU1?1??234@AAE_NXZ@@?$standard_base@DV?$stream_output_adapter@D@__crt_stdio_output@@@__crt_stdio_output@@IAE_NAAPAUansi_string@?1??type_case_Z@?$output_processor@DV?$stream_output_adapter@D@__crt_stdio_output@@V?$positional_parameter_base@DV?$stream_output_adapter@D@__crt_stdio_output@@@2@@1@AAE_NXZ@@Z 10046c80 f i libucrtd:output.obj
 0001:00045cb0       ??$extract_argument_from_va_list@PAUansi_string@?1??type_case_Z@?$output_processor@DV?$stream_output_adapter@D@__crt_stdio_output@@V?$standard_base@DV?$stream_output_adapter@D@__crt_stdio_output@@@2@@__crt_stdio_output@@AAE_NXZ@PAU1?1??234@AAE_NXZ@@?$standard_base@DV?$stream_output_adapter@D@__crt_stdio_output@@@__crt_stdio_output@@IAE_NAAPAUansi_string@?1??type_case_Z@?$output_processor@DV?$stream_output_adapter@D@__crt_stdio_output@@V?$standard_base@DV?$stream_output_adapter@D@__crt_stdio_output@@@2@@1@AAE_NXZ@@Z 10046cb0 f i libucrtd:output.obj
 0001:00045ce0       ??$extract_argument_from_va_list@PAUansi_string@?1??type_case_Z@?$output_processor@DV?$string_output_adapter@D@__crt_stdio_output@@V?$format_validation_base@DV?$string_output_adapter@D@__crt_stdio_output@@@2@@__crt_stdio_output@@AAE_NXZ@PAU1?1??234@AAE_NXZ@@?$standard_base@DV?$string_output_adapter@D@__crt_stdio_output@@@__crt_stdio_output@@IAE_NAAPAUansi_string@?1??type_case_Z@?$output_processor@DV?$string_output_adapter@D@__crt_stdio_output@@V?$format_validation_base@DV?$string_output_adapter@D@__crt_stdio_output@@@2@@1@AAE_NXZ@@Z 10046ce0 f i libucrtd:output.obj
 0001:00045d10       ??$extract_argument_from_va_list@PAUansi_string@?1??type_case_Z@?$output_processor@DV?$string_output_adapter@D@__crt_stdio_output@@V?$positional_parameter_base@DV?$string_output_adapter@D@__crt_stdio_output@@@2@@__crt_stdio_output@@AAE_NXZ@PAU1?1??234@AAE_NXZ@@?$positional_parameter_base@DV?$string_output_adapter@D@__crt_stdio_output@@@__crt_stdio_output@@IAE_NAAPAUansi_string@?1??type_case_Z@?$output_processor@DV?$string_output_adapter@D@__crt_stdio_output@@V?$positional_parameter_base@DV?$string_output_adapter@D@__crt_stdio_output@@@2@@1@AAE_NXZ@@Z 10046d10 f i libucrtd:output.obj
 0001:00045e40       ??$extract_argument_from_va_list@PAUansi_string@?1??type_case_Z@?$output_processor@DV?$string_output_adapter@D@__crt_stdio_output@@V?$positional_parameter_base@DV?$string_output_adapter@D@__crt_stdio_output@@@2@@__crt_stdio_output@@AAE_NXZ@PAU1?1??234@AAE_NXZ@@?$standard_base@DV?$string_output_adapter@D@__crt_stdio_output@@@__crt_stdio_output@@IAE_NAAPAUansi_string@?1??type_case_Z@?$output_processor@DV?$string_output_adapter@D@__crt_stdio_output@@V?$positional_parameter_base@DV?$string_output_adapter@D@__crt_stdio_output@@@2@@1@AAE_NXZ@@Z 10046e40 f i libucrtd:output.obj
 0001:00045e70       ??$extract_argument_from_va_list@PAUansi_string@?1??type_case_Z@?$output_processor@DV?$string_output_adapter@D@__crt_stdio_output@@V?$standard_base@DV?$string_output_adapter@D@__crt_stdio_output@@@2@@__crt_stdio_output@@AAE_NXZ@PAU1?1??234@AAE_NXZ@@?$standard_base@DV?$string_output_adapter@D@__crt_stdio_output@@@__crt_stdio_output@@IAE_NAAPAUansi_string@?1??type_case_Z@?$output_processor@DV?$string_output_adapter@D@__crt_stdio_output@@V?$standard_base@DV?$string_output_adapter@D@__crt_stdio_output@@@2@@1@AAE_NXZ@@Z 10046e70 f i libucrtd:output.obj
 0001:00045ea0       ??$extract_argument_from_va_list@PAUansi_string@?1??type_case_Z@?$output_processor@_WV?$stream_output_adapter@_W@__crt_stdio_output@@V?$format_validation_base@_WV?$stream_output_adapter@_W@__crt_stdio_output@@@2@@__crt_stdio_output@@AAE_NXZ@PAU1?1??234@AAE_NXZ@@?$standard_base@_WV?$stream_output_adapter@_W@__crt_stdio_output@@@__crt_stdio_output@@IAE_NAAPAUansi_string@?1??type_case_Z@?$output_processor@_WV?$stream_output_adapter@_W@__crt_stdio_output@@V?$format_validation_base@_WV?$stream_output_adapter@_W@__crt_stdio_output@@@2@@1@AAE_NXZ@@Z 10046ea0 f i libucrtd:output.obj
 0001:00045ed0       ??$extract_argument_from_va_list@PAUansi_string@?1??type_case_Z@?$output_processor@_WV?$stream_output_adapter@_W@__crt_stdio_output@@V?$positional_parameter_base@_WV?$stream_output_adapter@_W@__crt_stdio_output@@@2@@__crt_stdio_output@@AAE_NXZ@PAU1?1??234@AAE_NXZ@@?$positional_parameter_base@_WV?$stream_output_adapter@_W@__crt_stdio_output@@@__crt_stdio_output@@IAE_NAAPAUansi_string@?1??type_case_Z@?$output_processor@_WV?$stream_output_adapter@_W@__crt_stdio_output@@V?$positional_parameter_base@_WV?$stream_output_adapter@_W@__crt_stdio_output@@@2@@1@AAE_NXZ@@Z 10046ed0 f i libucrtd:output.obj
 0001:00046000       ??$extract_argument_from_va_list@PAUansi_string@?1??type_case_Z@?$output_processor@_WV?$stream_output_adapter@_W@__crt_stdio_output@@V?$positional_parameter_base@_WV?$stream_output_adapter@_W@__crt_stdio_output@@@2@@__crt_stdio_output@@AAE_NXZ@PAU1?1??234@AAE_NXZ@@?$standard_base@_WV?$stream_output_adapter@_W@__crt_stdio_output@@@__crt_stdio_output@@IAE_NAAPAUansi_string@?1??type_case_Z@?$output_processor@_WV?$stream_output_adapter@_W@__crt_stdio_output@@V?$positional_parameter_base@_WV?$stream_output_adapter@_W@__crt_stdio_output@@@2@@1@AAE_NXZ@@Z 10047000 f i libucrtd:output.obj
 0001:00046030       ??$extract_argument_from_va_list@PAUansi_string@?1??type_case_Z@?$output_processor@_WV?$stream_output_adapter@_W@__crt_stdio_output@@V?$standard_base@_WV?$stream_output_adapter@_W@__crt_stdio_output@@@2@@__crt_stdio_output@@AAE_NXZ@PAU1?1??234@AAE_NXZ@@?$standard_base@_WV?$stream_output_adapter@_W@__crt_stdio_output@@@__crt_stdio_output@@IAE_NAAPAUansi_string@?1??type_case_Z@?$output_processor@_WV?$stream_output_adapter@_W@__crt_stdio_output@@V?$standard_base@_WV?$stream_output_adapter@_W@__crt_stdio_output@@@2@@1@AAE_NXZ@@Z 10047030 f i libucrtd:output.obj
 0001:00046060       ??$extract_argument_from_va_list@PAUansi_string@?1??type_case_Z@?$output_processor@_WV?$string_output_adapter@_W@__crt_stdio_output@@V?$format_validation_base@_WV?$string_output_adapter@_W@__crt_stdio_output@@@2@@__crt_stdio_output@@AAE_NXZ@PAU1?1??234@AAE_NXZ@@?$standard_base@_WV?$string_output_adapter@_W@__crt_stdio_output@@@__crt_stdio_output@@IAE_NAAPAUansi_string@?1??type_case_Z@?$output_processor@_WV?$string_output_adapter@_W@__crt_stdio_output@@V?$format_validation_base@_WV?$string_output_adapter@_W@__crt_stdio_output@@@2@@1@AAE_NXZ@@Z 10047060 f i libucrtd:output.obj
 0001:00046090       ??$extract_argument_from_va_list@PAUansi_string@?1??type_case_Z@?$output_processor@_WV?$string_output_adapter@_W@__crt_stdio_output@@V?$positional_parameter_base@_WV?$string_output_adapter@_W@__crt_stdio_output@@@2@@__crt_stdio_output@@AAE_NXZ@PAU1?1??234@AAE_NXZ@@?$positional_parameter_base@_WV?$string_output_adapter@_W@__crt_stdio_output@@@__crt_stdio_output@@IAE_NAAPAUansi_string@?1??type_case_Z@?$output_processor@_WV?$string_output_adapter@_W@__crt_stdio_output@@V?$positional_parameter_base@_WV?$string_output_adapter@_W@__crt_stdio_output@@@2@@1@AAE_NXZ@@Z 10047090 f i libucrtd:output.obj
 0001:000461c0       ??$extract_argument_from_va_list@PAUansi_string@?1??type_case_Z@?$output_processor@_WV?$string_output_adapter@_W@__crt_stdio_output@@V?$positional_parameter_base@_WV?$string_output_adapter@_W@__crt_stdio_output@@@2@@__crt_stdio_output@@AAE_NXZ@PAU1?1??234@AAE_NXZ@@?$standard_base@_WV?$string_output_adapter@_W@__crt_stdio_output@@@__crt_stdio_output@@IAE_NAAPAUansi_string@?1??type_case_Z@?$output_processor@_WV?$string_output_adapter@_W@__crt_stdio_output@@V?$positional_parameter_base@_WV?$string_output_adapter@_W@__crt_stdio_output@@@2@@1@AAE_NXZ@@Z 100471c0 f i libucrtd:output.obj
 0001:000461f0       ??$extract_argument_from_va_list@PAUansi_string@?1??type_case_Z@?$output_processor@_WV?$string_output_adapter@_W@__crt_stdio_output@@V?$standard_base@_WV?$string_output_adapter@_W@__crt_stdio_output@@@2@@__crt_stdio_output@@AAE_NXZ@PAU1?1??234@AAE_NXZ@@?$standard_base@_WV?$string_output_adapter@_W@__crt_stdio_output@@@__crt_stdio_output@@IAE_NAAPAUansi_string@?1??type_case_Z@?$output_processor@_WV?$string_output_adapter@_W@__crt_stdio_output@@V?$standard_base@_WV?$string_output_adapter@_W@__crt_stdio_output@@@2@@1@AAE_NXZ@@Z 100471f0 f i libucrtd:output.obj
 0001:00046220       ??$extract_argument_from_va_list@PAXPAX@?$positional_parameter_base@DV?$stream_output_adapter@D@__crt_stdio_output@@@__crt_stdio_output@@IAE_NAAPAX@Z 10047220 f i libucrtd:output.obj
 0001:00046350       ??$extract_argument_from_va_list@PAXPAX@?$positional_parameter_base@DV?$string_output_adapter@D@__crt_stdio_output@@@__crt_stdio_output@@IAE_NAAPAX@Z 10047350 f i libucrtd:output.obj
 0001:00046480       ??$extract_argument_from_va_list@PAXPAX@?$positional_parameter_base@_WV?$stream_output_adapter@_W@__crt_stdio_output@@@__crt_stdio_output@@IAE_NAAPAX@Z 10047480 f i libucrtd:output.obj
 0001:000465b0       ??$extract_argument_from_va_list@PAXPAX@?$positional_parameter_base@_WV?$string_output_adapter@_W@__crt_stdio_output@@@__crt_stdio_output@@IAE_NAAPAX@Z 100475b0 f i libucrtd:output.obj
 0001:000466e0       ??$extract_argument_from_va_list@PAXPAX@?$standard_base@DV?$stream_output_adapter@D@__crt_stdio_output@@@__crt_stdio_output@@IAE_NAAPAX@Z 100476e0 f i libucrtd:output.obj
 0001:00046710       ??$extract_argument_from_va_list@PAXPAX@?$standard_base@DV?$string_output_adapter@D@__crt_stdio_output@@@__crt_stdio_output@@IAE_NAAPAX@Z 10047710 f i libucrtd:output.obj
 0001:00046740       ??$extract_argument_from_va_list@PAXPAX@?$standard_base@_WV?$stream_output_adapter@_W@__crt_stdio_output@@@__crt_stdio_output@@IAE_NAAPAX@Z 10047740 f i libucrtd:output.obj
 0001:00046770       ??$extract_argument_from_va_list@PAXPAX@?$standard_base@_WV?$string_output_adapter@_W@__crt_stdio_output@@@__crt_stdio_output@@IAE_NAAPAX@Z 10047770 f i libucrtd:output.obj
 0001:000467a0       ??$extract_argument_from_va_list@U_CRT_DOUBLE@@U1@@?$positional_parameter_base@DV?$stream_output_adapter@D@__crt_stdio_output@@@__crt_stdio_output@@IAE_NAAU_CRT_DOUBLE@@@Z 100477a0 f i libucrtd:output.obj
 0001:00046900       ??$extract_argument_from_va_list@U_CRT_DOUBLE@@U1@@?$positional_parameter_base@DV?$string_output_adapter@D@__crt_stdio_output@@@__crt_stdio_output@@IAE_NAAU_CRT_DOUBLE@@@Z 10047900 f i libucrtd:output.obj
 0001:00046a60       ??$extract_argument_from_va_list@U_CRT_DOUBLE@@U1@@?$positional_parameter_base@_WV?$stream_output_adapter@_W@__crt_stdio_output@@@__crt_stdio_output@@IAE_NAAU_CRT_DOUBLE@@@Z 10047a60 f i libucrtd:output.obj
 0001:00046bc0       ??$extract_argument_from_va_list@U_CRT_DOUBLE@@U1@@?$positional_parameter_base@_WV?$string_output_adapter@_W@__crt_stdio_output@@@__crt_stdio_output@@IAE_NAAU_CRT_DOUBLE@@@Z 10047bc0 f i libucrtd:output.obj
 0001:00046d20       ??$extract_argument_from_va_list@U_CRT_DOUBLE@@U1@@?$standard_base@DV?$stream_output_adapter@D@__crt_stdio_output@@@__crt_stdio_output@@IAE_NAAU_CRT_DOUBLE@@@Z 10047d20 f i libucrtd:output.obj
 0001:00046d70       ??$extract_argument_from_va_list@U_CRT_DOUBLE@@U1@@?$standard_base@DV?$string_output_adapter@D@__crt_stdio_output@@@__crt_stdio_output@@IAE_NAAU_CRT_DOUBLE@@@Z 10047d70 f i libucrtd:output.obj
 0001:00046dc0       ??$extract_argument_from_va_list@U_CRT_DOUBLE@@U1@@?$standard_base@_WV?$stream_output_adapter@_W@__crt_stdio_output@@@__crt_stdio_output@@IAE_NAAU_CRT_DOUBLE@@@Z 10047dc0 f i libucrtd:output.obj
 0001:00046e10       ??$extract_argument_from_va_list@U_CRT_DOUBLE@@U1@@?$standard_base@_WV?$string_output_adapter@_W@__crt_stdio_output@@@__crt_stdio_output@@IAE_NAAU_CRT_DOUBLE@@@Z 10047e10 f i libucrtd:output.obj
 0001:00046e60       ??$extract_argument_from_va_list@_J_J@?$positional_parameter_base@DV?$stream_output_adapter@D@__crt_stdio_output@@@__crt_stdio_output@@IAE_NAA_J@Z 10047e60 f i libucrtd:output.obj
 0001:00046f90       ??$extract_argument_from_va_list@_J_J@?$positional_parameter_base@DV?$string_output_adapter@D@__crt_stdio_output@@@__crt_stdio_output@@IAE_NAA_J@Z 10047f90 f i libucrtd:output.obj
 0001:000470c0       ??$extract_argument_from_va_list@_J_J@?$positional_parameter_base@_WV?$stream_output_adapter@_W@__crt_stdio_output@@@__crt_stdio_output@@IAE_NAA_J@Z 100480c0 f i libucrtd:output.obj
 0001:000471f0       ??$extract_argument_from_va_list@_J_J@?$positional_parameter_base@_WV?$string_output_adapter@_W@__crt_stdio_output@@@__crt_stdio_output@@IAE_NAA_J@Z 100481f0 f i libucrtd:output.obj
 0001:00047320       ??$extract_argument_from_va_list@_J_J@?$standard_base@DV?$stream_output_adapter@D@__crt_stdio_output@@@__crt_stdio_output@@IAE_NAA_J@Z 10048320 f i libucrtd:output.obj
 0001:00047350       ??$extract_argument_from_va_list@_J_J@?$standard_base@DV?$string_output_adapter@D@__crt_stdio_output@@@__crt_stdio_output@@IAE_NAA_J@Z 10048350 f i libucrtd:output.obj
 0001:00047380       ??$extract_argument_from_va_list@_J_J@?$standard_base@_WV?$stream_output_adapter@_W@__crt_stdio_output@@@__crt_stdio_output@@IAE_NAA_J@Z 10048380 f i libucrtd:output.obj
 0001:000473b0       ??$extract_argument_from_va_list@_J_J@?$standard_base@_WV?$string_output_adapter@_W@__crt_stdio_output@@@__crt_stdio_output@@IAE_NAA_J@Z 100483b0 f i libucrtd:output.obj
 0001:000473e0       ??$extract_argument_from_va_list@_K_J@?$positional_parameter_base@DV?$stream_output_adapter@D@__crt_stdio_output@@@__crt_stdio_output@@IAE_NAA_J@Z 100483e0 f i libucrtd:output.obj
 0001:00047510       ??$extract_argument_from_va_list@_K_J@?$positional_parameter_base@DV?$string_output_adapter@D@__crt_stdio_output@@@__crt_stdio_output@@IAE_NAA_J@Z 10048510 f i libucrtd:output.obj
 0001:00047640       ??$extract_argument_from_va_list@_K_J@?$positional_parameter_base@_WV?$stream_output_adapter@_W@__crt_stdio_output@@@__crt_stdio_output@@IAE_NAA_J@Z 10048640 f i libucrtd:output.obj
 0001:00047770       ??$extract_argument_from_va_list@_K_J@?$positional_parameter_base@_WV?$string_output_adapter@_W@__crt_stdio_output@@@__crt_stdio_output@@IAE_NAA_J@Z 10048770 f i libucrtd:output.obj
 0001:000478a0       ??$extract_argument_from_va_list@_K_J@?$standard_base@DV?$stream_output_adapter@D@__crt_stdio_output@@@__crt_stdio_output@@IAE_NAA_J@Z 100488a0 f i libucrtd:output.obj
 0001:000478d0       ??$extract_argument_from_va_list@_K_J@?$standard_base@DV?$string_output_adapter@D@__crt_stdio_output@@@__crt_stdio_output@@IAE_NAA_J@Z 100488d0 f i libucrtd:output.obj
 0001:00047900       ??$extract_argument_from_va_list@_K_J@?$standard_base@_WV?$stream_output_adapter@_W@__crt_stdio_output@@@__crt_stdio_output@@IAE_NAA_J@Z 10048900 f i libucrtd:output.obj
 0001:00047930       ??$extract_argument_from_va_list@_K_J@?$standard_base@_WV?$string_output_adapter@_W@__crt_stdio_output@@@__crt_stdio_output@@IAE_NAA_J@Z 10048930 f i libucrtd:output.obj
 0001:00047960       ??$extract_argument_from_va_list@_W_W@?$positional_parameter_base@DV?$stream_output_adapter@D@__crt_stdio_output@@@__crt_stdio_output@@IAE_NAA_W@Z 10048960 f i libucrtd:output.obj
 0001:00047a90       ??$extract_argument_from_va_list@_W_W@?$positional_parameter_base@DV?$string_output_adapter@D@__crt_stdio_output@@@__crt_stdio_output@@IAE_NAA_W@Z 10048a90 f i libucrtd:output.obj
 0001:00047bc0       ??$extract_argument_from_va_list@_W_W@?$positional_parameter_base@_WV?$stream_output_adapter@_W@__crt_stdio_output@@@__crt_stdio_output@@IAE_NAA_W@Z 10048bc0 f i libucrtd:output.obj
 0001:00047cf0       ??$extract_argument_from_va_list@_W_W@?$positional_parameter_base@_WV?$string_output_adapter@_W@__crt_stdio_output@@@__crt_stdio_output@@IAE_NAA_W@Z 10048cf0 f i libucrtd:output.obj
 0001:00047e20       ??$extract_argument_from_va_list@_W_W@?$standard_base@DV?$stream_output_adapter@D@__crt_stdio_output@@@__crt_stdio_output@@IAE_NAA_W@Z 10048e20 f i libucrtd:output.obj
 0001:00047e50       ??$extract_argument_from_va_list@_W_W@?$standard_base@DV?$string_output_adapter@D@__crt_stdio_output@@@__crt_stdio_output@@IAE_NAA_W@Z 10048e50 f i libucrtd:output.obj
 0001:00047e80       ??$extract_argument_from_va_list@_W_W@?$standard_base@_WV?$stream_output_adapter@_W@__crt_stdio_output@@@__crt_stdio_output@@IAE_NAA_W@Z 10048e80 f i libucrtd:output.obj
 0001:00047eb0       ??$extract_argument_from_va_list@_W_W@?$standard_base@_WV?$string_output_adapter@_W@__crt_stdio_output@@@__crt_stdio_output@@IAE_NAA_W@Z 10048eb0 f i libucrtd:output.obj
 0001:00047ee0       ??$get_parameter_type@D@?$positional_parameter_base@DV?$stream_output_adapter@D@__crt_stdio_output@@@__crt_stdio_output@@CA?AW4parameter_type@01@PAD@Z 10048ee0 f i libucrtd:output.obj
 0001:00047ef0       ??$get_parameter_type@D@?$positional_parameter_base@DV?$string_output_adapter@D@__crt_stdio_output@@@__crt_stdio_output@@CA?AW4parameter_type@01@PAD@Z 10048ef0 f i libucrtd:output.obj
 0001:00047f00       ??$get_parameter_type@D@?$positional_parameter_base@_WV?$stream_output_adapter@_W@__crt_stdio_output@@@__crt_stdio_output@@CA?AW4parameter_type@01@PAD@Z 10048f00 f i libucrtd:output.obj
 0001:00047f10       ??$get_parameter_type@D@?$positional_parameter_base@_WV?$string_output_adapter@_W@__crt_stdio_output@@@__crt_stdio_output@@CA?AW4parameter_type@01@PAD@Z 10048f10 f i libucrtd:output.obj
 0001:00047f20       ??$get_parameter_type@Uansi_string@?1??type_case_Z@?$output_processor@DV?$stream_output_adapter@D@__crt_stdio_output@@V?$positional_parameter_base@DV?$stream_output_adapter@D@__crt_stdio_output@@@2@@__crt_stdio_output@@AAE_NXZ@@?$positional_parameter_base@DV?$stream_output_adapter@D@__crt_stdio_output@@@__crt_stdio_output@@CA?AW4parameter_type@01@PAUansi_string@?1??type_case_Z@?$output_processor@DV?$stream_output_adapter@D@__crt_stdio_output@@V?$positional_parameter_base@DV?$stream_output_adapter@D@__crt_stdio_output@@@2@@1@AAE_NXZ@@Z 10048f20 f i libucrtd:output.obj
 0001:00047f30       ??$get_parameter_type@Uansi_string@?1??type_case_Z@?$output_processor@DV?$string_output_adapter@D@__crt_stdio_output@@V?$positional_parameter_base@DV?$string_output_adapter@D@__crt_stdio_output@@@2@@__crt_stdio_output@@AAE_NXZ@@?$positional_parameter_base@DV?$string_output_adapter@D@__crt_stdio_output@@@__crt_stdio_output@@CA?AW4parameter_type@01@PAUansi_string@?1??type_case_Z@?$output_processor@DV?$string_output_adapter@D@__crt_stdio_output@@V?$positional_parameter_base@DV?$string_output_adapter@D@__crt_stdio_output@@@2@@1@AAE_NXZ@@Z 10048f30 f i libucrtd:output.obj
 0001:00047f40       ??$get_parameter_type@Uansi_string@?1??type_case_Z@?$output_processor@_WV?$stream_output_adapter@_W@__crt_stdio_output@@V?$positional_parameter_base@_WV?$stream_output_adapter@_W@__crt_stdio_output@@@2@@__crt_stdio_output@@AAE_NXZ@@?$positional_parameter_base@_WV?$stream_output_adapter@_W@__crt_stdio_output@@@__crt_stdio_output@@CA?AW4parameter_type@01@PAUansi_string@?1??type_case_Z@?$output_processor@_WV?$stream_output_adapter@_W@__crt_stdio_output@@V?$positional_parameter_base@_WV?$stream_output_adapter@_W@__crt_stdio_output@@@2@@1@AAE_NXZ@@Z 10048f40 f i libucrtd:output.obj
 0001:00047f50       ??$get_parameter_type@Uansi_string@?1??type_case_Z@?$output_processor@_WV?$string_output_adapter@_W@__crt_stdio_output@@V?$positional_parameter_base@_WV?$string_output_adapter@_W@__crt_stdio_output@@@2@@__crt_stdio_output@@AAE_NXZ@@?$positional_parameter_base@_WV?$string_output_adapter@_W@__crt_stdio_output@@@__crt_stdio_output@@CA?AW4parameter_type@01@PAUansi_string@?1??type_case_Z@?$output_processor@_WV?$string_output_adapter@_W@__crt_stdio_output@@V?$positional_parameter_base@_WV?$string_output_adapter@_W@__crt_stdio_output@@@2@@1@AAE_NXZ@@Z 10048f50 f i libucrtd:output.obj
 0001:00047f60       ??$get_parameter_type@X@?$positional_parameter_base@DV?$stream_output_adapter@D@__crt_stdio_output@@@__crt_stdio_output@@CA?AW4parameter_type@01@PAX@Z 10048f60 f i libucrtd:output.obj
 0001:00047f70       ??$get_parameter_type@X@?$positional_parameter_base@DV?$string_output_adapter@D@__crt_stdio_output@@@__crt_stdio_output@@CA?AW4parameter_type@01@PAX@Z 10048f70 f i libucrtd:output.obj
 0001:00047f80       ??$get_parameter_type@X@?$positional_parameter_base@_WV?$stream_output_adapter@_W@__crt_stdio_output@@@__crt_stdio_output@@CA?AW4parameter_type@01@PAX@Z 10048f80 f i libucrtd:output.obj
 0001:00047f90       ??$get_parameter_type@X@?$positional_parameter_base@_WV?$string_output_adapter@_W@__crt_stdio_output@@@__crt_stdio_output@@CA?AW4parameter_type@01@PAX@Z 10048f90 f i libucrtd:output.obj
 0001:00047fa0       ??$is_character_specifier@D@?$positional_parameter_base@DV?$stream_output_adapter@D@__crt_stdio_output@@@__crt_stdio_output@@CA_ND@Z 10048fa0 f i libucrtd:output.obj
 0001:00047fd0       ??$is_character_specifier@D@?$positional_parameter_base@DV?$string_output_adapter@D@__crt_stdio_output@@@__crt_stdio_output@@CA_ND@Z 10048fd0 f i libucrtd:output.obj
 0001:00048000       ??$is_character_specifier@_W@?$positional_parameter_base@_WV?$stream_output_adapter@_W@__crt_stdio_output@@@__crt_stdio_output@@CA_N_W@Z 10049000 f i libucrtd:output.obj
 0001:00048030       ??$is_character_specifier@_W@?$positional_parameter_base@_WV?$string_output_adapter@_W@__crt_stdio_output@@@__crt_stdio_output@@CA_N_W@Z 10049030 f i libucrtd:output.obj
 0001:00048060       ??$is_integral_specifier@D@?$positional_parameter_base@DV?$stream_output_adapter@D@__crt_stdio_output@@@__crt_stdio_output@@CA_ND@Z 10049060 f i libucrtd:output.obj
 0001:000480c0       ??$is_integral_specifier@D@?$positional_parameter_base@DV?$string_output_adapter@D@__crt_stdio_output@@@__crt_stdio_output@@CA_ND@Z 100490c0 f i libucrtd:output.obj
 0001:00048120       ??$is_integral_specifier@_W@?$positional_parameter_base@_WV?$stream_output_adapter@_W@__crt_stdio_output@@@__crt_stdio_output@@CA_N_W@Z 10049120 f i libucrtd:output.obj
 0001:00048180       ??$is_integral_specifier@_W@?$positional_parameter_base@_WV?$string_output_adapter@_W@__crt_stdio_output@@@__crt_stdio_output@@CA_N_W@Z 10049180 f i libucrtd:output.obj
 0001:000481e0       ??$is_pointer_specifier@D@?$positional_parameter_base@DV?$stream_output_adapter@D@__crt_stdio_output@@@__crt_stdio_output@@CA_ND@Z 100491e0 f i libucrtd:output.obj
 0001:00048210       ??$is_pointer_specifier@D@?$positional_parameter_base@DV?$string_output_adapter@D@__crt_stdio_output@@@__crt_stdio_output@@CA_ND@Z 10049210 f i libucrtd:output.obj
 0001:00048240       ??$is_pointer_specifier@_W@?$positional_parameter_base@_WV?$stream_output_adapter@_W@__crt_stdio_output@@@__crt_stdio_output@@CA_N_W@Z 10049240 f i libucrtd:output.obj
 0001:00048270       ??$is_pointer_specifier@_W@?$positional_parameter_base@_WV?$string_output_adapter@_W@__crt_stdio_output@@@__crt_stdio_output@@CA_N_W@Z 10049270 f i libucrtd:output.obj
 0001:000482a0       ??$is_string_specifier@D@?$positional_parameter_base@DV?$stream_output_adapter@D@__crt_stdio_output@@@__crt_stdio_output@@CA_ND@Z 100492a0 f i libucrtd:output.obj
 0001:000482d0       ??$is_string_specifier@D@?$positional_parameter_base@DV?$string_output_adapter@D@__crt_stdio_output@@@__crt_stdio_output@@CA_ND@Z 100492d0 f i libucrtd:output.obj
 0001:00048300       ??$is_string_specifier@_W@?$positional_parameter_base@_WV?$stream_output_adapter@_W@__crt_stdio_output@@@__crt_stdio_output@@CA_N_W@Z 10049300 f i libucrtd:output.obj
 0001:00048330       ??$is_string_specifier@_W@?$positional_parameter_base@_WV?$string_output_adapter@_W@__crt_stdio_output@@@__crt_stdio_output@@CA_N_W@Z 10049330 f i libucrtd:output.obj
 0001:00048360       ??$is_wide_character_specifier@D@__crt_stdio_output@@YA_N_KDW4length_modifier@0@@Z 10049360 f i libucrtd:output.obj
 0001:000483e0       ??$is_wide_character_specifier@_W@__crt_stdio_output@@YA_N_K_WW4length_modifier@0@@Z 100493e0 f i libucrtd:output.obj
 0001:000484a0       ??$peek_va_arg@C@__crt_stdio_output@@YACPAD@Z 100494a0 f i libucrtd:output.obj
 0001:000484c0       ??$peek_va_arg@E@__crt_stdio_output@@YAEPAD@Z 100494c0 f i libucrtd:output.obj
 0001:000484e0       ??$peek_va_arg@F@__crt_stdio_output@@YAFPAD@Z 100494e0 f i libucrtd:output.obj
 0001:00048500       ??$peek_va_arg@G@__crt_stdio_output@@YAGPAD@Z 10049500 f i libucrtd:output.obj
 0001:00048520       ??$peek_va_arg@H@__crt_stdio_output@@YAHPAD@Z 10049520 f i libucrtd:output.obj
 0001:00048540       ??$peek_va_arg@I@__crt_stdio_output@@YAIPAD@Z 10049540 f i libucrtd:output.obj
 0001:00048560       ??$peek_va_arg@PAD@__crt_stdio_output@@YAPADPAD@Z 10049560 f i libucrtd:output.obj
 0001:00048580       ??$peek_va_arg@PAUansi_string@?1??type_case_Z@?$output_processor@DV?$stream_output_adapter@D@__crt_stdio_output@@V?$positional_parameter_base@DV?$stream_output_adapter@D@__crt_stdio_output@@@2@@__crt_stdio_output@@AAE_NXZ@@__crt_stdio_output@@YAPAUansi_string@?1??type_case_Z@?$output_processor@DV?$stream_output_adapter@D@__crt_stdio_output@@V?$positional_parameter_base@DV?$stream_output_adapter@D@__crt_stdio_output@@@2@@0@AAE_NXZ@PAD@Z 10049580 f i libucrtd:output.obj
 0001:000485a0       ??$peek_va_arg@PAUansi_string@?1??type_case_Z@?$output_processor@DV?$string_output_adapter@D@__crt_stdio_output@@V?$positional_parameter_base@DV?$string_output_adapter@D@__crt_stdio_output@@@2@@__crt_stdio_output@@AAE_NXZ@@__crt_stdio_output@@YAPAUansi_string@?1??type_case_Z@?$output_processor@DV?$string_output_adapter@D@__crt_stdio_output@@V?$positional_parameter_base@DV?$string_output_adapter@D@__crt_stdio_output@@@2@@0@AAE_NXZ@PAD@Z 100495a0 f i libucrtd:output.obj
 0001:000485c0       ??$peek_va_arg@PAUansi_string@?1??type_case_Z@?$output_processor@_WV?$stream_output_adapter@_W@__crt_stdio_output@@V?$positional_parameter_base@_WV?$stream_output_adapter@_W@__crt_stdio_output@@@2@@__crt_stdio_output@@AAE_NXZ@@__crt_stdio_output@@YAPAUansi_string@?1??type_case_Z@?$output_processor@_WV?$stream_output_adapter@_W@__crt_stdio_output@@V?$positional_parameter_base@_WV?$stream_output_adapter@_W@__crt_stdio_output@@@2@@0@AAE_NXZ@PAD@Z 100495c0 f i libucrtd:output.obj
 0001:000485e0       ??$peek_va_arg@PAUansi_string@?1??type_case_Z@?$output_processor@_WV?$string_output_adapter@_W@__crt_stdio_output@@V?$positional_parameter_base@_WV?$string_output_adapter@_W@__crt_stdio_output@@@2@@__crt_stdio_output@@AAE_NXZ@@__crt_stdio_output@@YAPAUansi_string@?1??type_case_Z@?$output_processor@_WV?$string_output_adapter@_W@__crt_stdio_output@@V?$positional_parameter_base@_WV?$string_output_adapter@_W@__crt_stdio_output@@@2@@0@AAE_NXZ@PAD@Z 100495e0 f i libucrtd:output.obj
 0001:00048600       ??$peek_va_arg@PAX@__crt_stdio_output@@YAPAXPAD@Z 10049600 f i libucrtd:output.obj
 0001:00048620       ??$peek_va_arg@U_CRT_DOUBLE@@@__crt_stdio_output@@YA?AU_CRT_DOUBLE@@PAD@Z 10049620 f i libucrtd:output.obj
 0001:00048640       ??$peek_va_arg@_J@__crt_stdio_output@@YA_JPAD@Z 10049640 f i libucrtd:output.obj
 0001:00048660       ??$peek_va_arg@_K@__crt_stdio_output@@YA_KPAD@Z 10049660 f i libucrtd:output.obj
 0001:00048680       ??$peek_va_arg@_W@__crt_stdio_output@@YA_WPAD@Z 10049680 f i libucrtd:output.obj
 0001:000486a0       ??$puttc_nolock@ABDPAU_iobuf@@@?$__crt_char_traits@D@@SAHABD$$QAPAU_iobuf@@@Z 100496a0 f i libucrtd:output.obj
 0001:000486c0       ??$puttc_nolock@AB_WPAU_iobuf@@@?$__crt_char_traits@_W@@SAGAB_W$$QAPAU_iobuf@@@Z 100496c0 f i libucrtd:output.obj
 0001:000486e0       ??$read_va_arg@C@__crt_stdio_output@@YACAAPAD@Z 100496e0 f i libucrtd:output.obj
 0001:00048700       ??$read_va_arg@E@__crt_stdio_output@@YAEAAPAD@Z 10049700 f i libucrtd:output.obj
 0001:00048720       ??$read_va_arg@F@__crt_stdio_output@@YAFAAPAD@Z 10049720 f i libucrtd:output.obj
 0001:00048740       ??$read_va_arg@G@__crt_stdio_output@@YAGAAPAD@Z 10049740 f i libucrtd:output.obj
 0001:00048760       ??$read_va_arg@H@__crt_stdio_output@@YAHAAPAD@Z 10049760 f i libucrtd:output.obj
 0001:00048780       ??$read_va_arg@I@__crt_stdio_output@@YAIAAPAD@Z 10049780 f i libucrtd:output.obj
 0001:000487a0       ??$read_va_arg@PAD@__crt_stdio_output@@YAPADAAPAD@Z 100497a0 f i libucrtd:output.obj
 0001:000487c0       ??$read_va_arg@PAUansi_string@?1??type_case_Z@?$output_processor@DV?$stream_output_adapter@D@__crt_stdio_output@@V?$format_validation_base@DV?$stream_output_adapter@D@__crt_stdio_output@@@2@@__crt_stdio_output@@AAE_NXZ@@__crt_stdio_output@@YAPAUansi_string@?1??type_case_Z@?$output_processor@DV?$stream_output_adapter@D@__crt_stdio_output@@V?$format_validation_base@DV?$stream_output_adapter@D@__crt_stdio_output@@@2@@0@AAE_NXZ@AAPAD@Z 100497c0 f i libucrtd:output.obj
 0001:000487e0       ??$read_va_arg@PAUansi_string@?1??type_case_Z@?$output_processor@DV?$stream_output_adapter@D@__crt_stdio_output@@V?$positional_parameter_base@DV?$stream_output_adapter@D@__crt_stdio_output@@@2@@__crt_stdio_output@@AAE_NXZ@@__crt_stdio_output@@YAPAUansi_string@?1??type_case_Z@?$output_processor@DV?$stream_output_adapter@D@__crt_stdio_output@@V?$positional_parameter_base@DV?$stream_output_adapter@D@__crt_stdio_output@@@2@@0@AAE_NXZ@AAPAD@Z 100497e0 f i libucrtd:output.obj
 0001:00048800       ??$read_va_arg@PAUansi_string@?1??type_case_Z@?$output_processor@DV?$stream_output_adapter@D@__crt_stdio_output@@V?$standard_base@DV?$stream_output_adapter@D@__crt_stdio_output@@@2@@__crt_stdio_output@@AAE_NXZ@@__crt_stdio_output@@YAPAUansi_string@?1??type_case_Z@?$output_processor@DV?$stream_output_adapter@D@__crt_stdio_output@@V?$standard_base@DV?$stream_output_adapter@D@__crt_stdio_output@@@2@@0@AAE_NXZ@AAPAD@Z 10049800 f i libucrtd:output.obj
 0001:00048820       ??$read_va_arg@PAUansi_string@?1??type_case_Z@?$output_processor@DV?$string_output_adapter@D@__crt_stdio_output@@V?$format_validation_base@DV?$string_output_adapter@D@__crt_stdio_output@@@2@@__crt_stdio_output@@AAE_NXZ@@__crt_stdio_output@@YAPAUansi_string@?1??type_case_Z@?$output_processor@DV?$string_output_adapter@D@__crt_stdio_output@@V?$format_validation_base@DV?$string_output_adapter@D@__crt_stdio_output@@@2@@0@AAE_NXZ@AAPAD@Z 10049820 f i libucrtd:output.obj
 0001:00048840       ??$read_va_arg@PAUansi_string@?1??type_case_Z@?$output_processor@DV?$string_output_adapter@D@__crt_stdio_output@@V?$positional_parameter_base@DV?$string_output_adapter@D@__crt_stdio_output@@@2@@__crt_stdio_output@@AAE_NXZ@@__crt_stdio_output@@YAPAUansi_string@?1??type_case_Z@?$output_processor@DV?$string_output_adapter@D@__crt_stdio_output@@V?$positional_parameter_base@DV?$string_output_adapter@D@__crt_stdio_output@@@2@@0@AAE_NXZ@AAPAD@Z 10049840 f i libucrtd:output.obj
 0001:00048860       ??$read_va_arg@PAUansi_string@?1??type_case_Z@?$output_processor@DV?$string_output_adapter@D@__crt_stdio_output@@V?$standard_base@DV?$string_output_adapter@D@__crt_stdio_output@@@2@@__crt_stdio_output@@AAE_NXZ@@__crt_stdio_output@@YAPAUansi_string@?1??type_case_Z@?$output_processor@DV?$string_output_adapter@D@__crt_stdio_output@@V?$standard_base@DV?$string_output_adapter@D@__crt_stdio_output@@@2@@0@AAE_NXZ@AAPAD@Z 10049860 f i libucrtd:output.obj
 0001:00048880       ??$read_va_arg@PAUansi_string@?1??type_case_Z@?$output_processor@_WV?$stream_output_adapter@_W@__crt_stdio_output@@V?$format_validation_base@_WV?$stream_output_adapter@_W@__crt_stdio_output@@@2@@__crt_stdio_output@@AAE_NXZ@@__crt_stdio_output@@YAPAUansi_string@?1??type_case_Z@?$output_processor@_WV?$stream_output_adapter@_W@__crt_stdio_output@@V?$format_validation_base@_WV?$stream_output_adapter@_W@__crt_stdio_output@@@2@@0@AAE_NXZ@AAPAD@Z 10049880 f i libucrtd:output.obj
 0001:000488a0       ??$read_va_arg@PAUansi_string@?1??type_case_Z@?$output_processor@_WV?$stream_output_adapter@_W@__crt_stdio_output@@V?$positional_parameter_base@_WV?$stream_output_adapter@_W@__crt_stdio_output@@@2@@__crt_stdio_output@@AAE_NXZ@@__crt_stdio_output@@YAPAUansi_string@?1??type_case_Z@?$output_processor@_WV?$stream_output_adapter@_W@__crt_stdio_output@@V?$positional_parameter_base@_WV?$stream_output_adapter@_W@__crt_stdio_output@@@2@@0@AAE_NXZ@AAPAD@Z 100498a0 f i libucrtd:output.obj
 0001:000488c0       ??$read_va_arg@PAUansi_string@?1??type_case_Z@?$output_processor@_WV?$stream_output_adapter@_W@__crt_stdio_output@@V?$standard_base@_WV?$stream_output_adapter@_W@__crt_stdio_output@@@2@@__crt_stdio_output@@AAE_NXZ@@__crt_stdio_output@@YAPAUansi_string@?1??type_case_Z@?$output_processor@_WV?$stream_output_adapter@_W@__crt_stdio_output@@V?$standard_base@_WV?$stream_output_adapter@_W@__crt_stdio_output@@@2@@0@AAE_NXZ@AAPAD@Z 100498c0 f i libucrtd:output.obj
 0001:000488e0       ??$read_va_arg@PAUansi_string@?1??type_case_Z@?$output_processor@_WV?$string_output_adapter@_W@__crt_stdio_output@@V?$format_validation_base@_WV?$string_output_adapter@_W@__crt_stdio_output@@@2@@__crt_stdio_output@@AAE_NXZ@@__crt_stdio_output@@YAPAUansi_string@?1??type_case_Z@?$output_processor@_WV?$string_output_adapter@_W@__crt_stdio_output@@V?$format_validation_base@_WV?$string_output_adapter@_W@__crt_stdio_output@@@2@@0@AAE_NXZ@AAPAD@Z 100498e0 f i libucrtd:output.obj
 0001:00048900       ??$read_va_arg@PAUansi_string@?1??type_case_Z@?$output_processor@_WV?$string_output_adapter@_W@__crt_stdio_output@@V?$positional_parameter_base@_WV?$string_output_adapter@_W@__crt_stdio_output@@@2@@__crt_stdio_output@@AAE_NXZ@@__crt_stdio_output@@YAPAUansi_string@?1??type_case_Z@?$output_processor@_WV?$string_output_adapter@_W@__crt_stdio_output@@V?$positional_parameter_base@_WV?$string_output_adapter@_W@__crt_stdio_output@@@2@@0@AAE_NXZ@AAPAD@Z 10049900 f i libucrtd:output.obj
 0001:00048920       ??$read_va_arg@PAUansi_string@?1??type_case_Z@?$output_processor@_WV?$string_output_adapter@_W@__crt_stdio_output@@V?$standard_base@_WV?$string_output_adapter@_W@__crt_stdio_output@@@2@@__crt_stdio_output@@AAE_NXZ@@__crt_stdio_output@@YAPAUansi_string@?1??type_case_Z@?$output_processor@_WV?$string_output_adapter@_W@__crt_stdio_output@@V?$standard_base@_WV?$string_output_adapter@_W@__crt_stdio_output@@@2@@0@AAE_NXZ@AAPAD@Z 10049920 f i libucrtd:output.obj
 0001:00048940       ??$read_va_arg@PAX@__crt_stdio_output@@YAPAXAAPAD@Z 10049940 f i libucrtd:output.obj
 0001:00048960       ??$read_va_arg@U_CRT_DOUBLE@@@__crt_stdio_output@@YA?AU_CRT_DOUBLE@@AAPAD@Z 10049960 f i libucrtd:output.obj
 0001:00048980       ??$read_va_arg@_J@__crt_stdio_output@@YA_JAAPAD@Z 10049980 f i libucrtd:output.obj
 0001:000489a0       ??$read_va_arg@_K@__crt_stdio_output@@YA_KAAPAD@Z 100499a0 f i libucrtd:output.obj
 0001:000489c0       ??$read_va_arg@_W@__crt_stdio_output@@YA_WAAPAD@Z 100499c0 f i libucrtd:output.obj
 0001:000489e0       ??$scratch_count@D@formatting_buffer@__crt_stdio_output@@QBEIXZ 100499e0 f i libucrtd:output.obj
 0001:00048a00       ??$scratch_data@D@formatting_buffer@__crt_stdio_output@@QAEPADXZ 10049a00 f i libucrtd:output.obj
 0001:00048a50       ??$tcstol@AAPBDPAPADH@?$__crt_char_traits@D@@SAJAAPBD$$QAPAPAD$$QAH@Z 10049a50 f i libucrtd:output.obj
 0001:00048a80       ??$tcstol@AAPB_WPAPA_WH@?$__crt_char_traits@_W@@SAJAAPB_W$$QAPAPA_W$$QAH@Z 10049a80 f i libucrtd:output.obj
 0001:00048ab0       ??$tcstol@PBDPAPADH@?$__crt_char_traits@D@@SAJ$$QAPBD$$QAPAPAD$$QAH@Z 10049ab0 f i libucrtd:output.obj
 0001:00048ae0       ??$tcstol@PB_WPAPA_WH@?$__crt_char_traits@_W@@SAJ$$QAPB_W$$QAPAPA_W$$QAH@Z 10049ae0 f i libucrtd:output.obj
 0001:00048b10       ??$type_case_integer_parse_into_buffer@I@?$output_processor@DV?$stream_output_adapter@D@__crt_stdio_output@@V?$format_validation_base@DV?$stream_output_adapter@D@__crt_stdio_output@@@2@@__crt_stdio_output@@AAEXII_N@Z 10049b10 f i libucrtd:output.obj
 0001:00048be0       ??$type_case_integer_parse_into_buffer@I@?$output_processor@DV?$stream_output_adapter@D@__crt_stdio_output@@V?$positional_parameter_base@DV?$stream_output_adapter@D@__crt_stdio_output@@@2@@__crt_stdio_output@@AAEXII_N@Z 10049be0 f i libucrtd:output.obj
 0001:00048cb0       ??$type_case_integer_parse_into_buffer@I@?$output_processor@DV?$stream_output_adapter@D@__crt_stdio_output@@V?$standard_base@DV?$stream_output_adapter@D@__crt_stdio_output@@@2@@__crt_stdio_output@@AAEXII_N@Z 10049cb0 f i libucrtd:output.obj
 0001:00048d80       ??$type_case_integer_parse_into_buffer@I@?$output_processor@DV?$string_output_adapter@D@__crt_stdio_output@@V?$format_validation_base@DV?$string_output_adapter@D@__crt_stdio_output@@@2@@__crt_stdio_output@@AAEXII_N@Z 10049d80 f i libucrtd:output.obj
 0001:00048e50       ??$type_case_integer_parse_into_buffer@I@?$output_processor@DV?$string_output_adapter@D@__crt_stdio_output@@V?$positional_parameter_base@DV?$string_output_adapter@D@__crt_stdio_output@@@2@@__crt_stdio_output@@AAEXII_N@Z 10049e50 f i libucrtd:output.obj
 0001:00048f20       ??$type_case_integer_parse_into_buffer@I@?$output_processor@DV?$string_output_adapter@D@__crt_stdio_output@@V?$standard_base@DV?$string_output_adapter@D@__crt_stdio_output@@@2@@__crt_stdio_output@@AAEXII_N@Z 10049f20 f i libucrtd:output.obj
 0001:00048ff0       ??$type_case_integer_parse_into_buffer@I@?$output_processor@_WV?$stream_output_adapter@_W@__crt_stdio_output@@V?$format_validation_base@_WV?$stream_output_adapter@_W@__crt_stdio_output@@@2@@__crt_stdio_output@@AAEXII_N@Z 10049ff0 f i libucrtd:output.obj
 0001:000490d0       ??$type_case_integer_parse_into_buffer@I@?$output_processor@_WV?$stream_output_adapter@_W@__crt_stdio_output@@V?$positional_parameter_base@_WV?$stream_output_adapter@_W@__crt_stdio_output@@@2@@__crt_stdio_output@@AAEXII_N@Z 1004a0d0 f i libucrtd:output.obj
 0001:000491b0       ??$type_case_integer_parse_into_buffer@I@?$output_processor@_WV?$stream_output_adapter@_W@__crt_stdio_output@@V?$standard_base@_WV?$stream_output_adapter@_W@__crt_stdio_output@@@2@@__crt_stdio_output@@AAEXII_N@Z 1004a1b0 f i libucrtd:output.obj
 0001:00049290       ??$type_case_integer_parse_into_buffer@I@?$output_processor@_WV?$string_output_adapter@_W@__crt_stdio_output@@V?$format_validation_base@_WV?$string_output_adapter@_W@__crt_stdio_output@@@2@@__crt_stdio_output@@AAEXII_N@Z 1004a290 f i libucrtd:output.obj
 0001:00049370       ??$type_case_integer_parse_into_buffer@I@?$output_processor@_WV?$string_output_adapter@_W@__crt_stdio_output@@V?$positional_parameter_base@_WV?$string_output_adapter@_W@__crt_stdio_output@@@2@@__crt_stdio_output@@AAEXII_N@Z 1004a370 f i libucrtd:output.obj
 0001:00049450       ??$type_case_integer_parse_into_buffer@I@?$output_processor@_WV?$string_output_adapter@_W@__crt_stdio_output@@V?$standard_base@_WV?$string_output_adapter@_W@__crt_stdio_output@@@2@@__crt_stdio_output@@AAEXII_N@Z 1004a450 f i libucrtd:output.obj
 0001:00049530       ??$type_case_integer_parse_into_buffer@_K@?$output_processor@DV?$stream_output_adapter@D@__crt_stdio_output@@V?$format_validation_base@DV?$stream_output_adapter@D@__crt_stdio_output@@@2@@__crt_stdio_output@@AAEX_KI_N@Z 1004a530 f i libucrtd:output.obj
 0001:00049620       ??$type_case_integer_parse_into_buffer@_K@?$output_processor@DV?$stream_output_adapter@D@__crt_stdio_output@@V?$positional_parameter_base@DV?$stream_output_adapter@D@__crt_stdio_output@@@2@@__crt_stdio_output@@AAEX_KI_N@Z 1004a620 f i libucrtd:output.obj
 0001:00049710       ??$type_case_integer_parse_into_buffer@_K@?$output_processor@DV?$stream_output_adapter@D@__crt_stdio_output@@V?$standard_base@DV?$stream_output_adapter@D@__crt_stdio_output@@@2@@__crt_stdio_output@@AAEX_KI_N@Z 1004a710 f i libucrtd:output.obj
 0001:00049800       ??$type_case_integer_parse_into_buffer@_K@?$output_processor@DV?$string_output_adapter@D@__crt_stdio_output@@V?$format_validation_base@DV?$string_output_adapter@D@__crt_stdio_output@@@2@@__crt_stdio_output@@AAEX_KI_N@Z 1004a800 f i libucrtd:output.obj
 0001:000498f0       ??$type_case_integer_parse_into_buffer@_K@?$output_processor@DV?$string_output_adapter@D@__crt_stdio_output@@V?$positional_parameter_base@DV?$string_output_adapter@D@__crt_stdio_output@@@2@@__crt_stdio_output@@AAEX_KI_N@Z 1004a8f0 f i libucrtd:output.obj
 0001:000499e0       ??$type_case_integer_parse_into_buffer@_K@?$output_processor@DV?$string_output_adapter@D@__crt_stdio_output@@V?$standard_base@DV?$string_output_adapter@D@__crt_stdio_output@@@2@@__crt_stdio_output@@AAEX_KI_N@Z 1004a9e0 f i libucrtd:output.obj
 0001:00049ad0       ??$type_case_integer_parse_into_buffer@_K@?$output_processor@_WV?$stream_output_adapter@_W@__crt_stdio_output@@V?$format_validation_base@_WV?$stream_output_adapter@_W@__crt_stdio_output@@@2@@__crt_stdio_output@@AAEX_KI_N@Z 1004aad0 f i libucrtd:output.obj
 0001:00049bd0       ??$type_case_integer_parse_into_buffer@_K@?$output_processor@_WV?$stream_output_adapter@_W@__crt_stdio_output@@V?$positional_parameter_base@_WV?$stream_output_adapter@_W@__crt_stdio_output@@@2@@__crt_stdio_output@@AAEX_KI_N@Z 1004abd0 f i libucrtd:output.obj
 0001:00049cd0       ??$type_case_integer_parse_into_buffer@_K@?$output_processor@_WV?$stream_output_adapter@_W@__crt_stdio_output@@V?$standard_base@_WV?$stream_output_adapter@_W@__crt_stdio_output@@@2@@__crt_stdio_output@@AAEX_KI_N@Z 1004acd0 f i libucrtd:output.obj
 0001:00049dd0       ??$type_case_integer_parse_into_buffer@_K@?$output_processor@_WV?$string_output_adapter@_W@__crt_stdio_output@@V?$format_validation_base@_WV?$string_output_adapter@_W@__crt_stdio_output@@@2@@__crt_stdio_output@@AAEX_KI_N@Z 1004add0 f i libucrtd:output.obj
 0001:00049ed0       ??$type_case_integer_parse_into_buffer@_K@?$output_processor@_WV?$string_output_adapter@_W@__crt_stdio_output@@V?$positional_parameter_base@_WV?$string_output_adapter@_W@__crt_stdio_output@@@2@@__crt_stdio_output@@AAEX_KI_N@Z 1004aed0 f i libucrtd:output.obj
 0001:00049fd0       ??$type_case_integer_parse_into_buffer@_K@?$output_processor@_WV?$string_output_adapter@_W@__crt_stdio_output@@V?$standard_base@_WV?$string_output_adapter@_W@__crt_stdio_output@@@2@@__crt_stdio_output@@AAEX_KI_N@Z 1004afd0 f i libucrtd:output.obj
 0001:0004a0d0       ??$write_multiple_characters@V?$stream_output_adapter@D@__crt_stdio_output@@D@__crt_stdio_output@@YAXABV?$stream_output_adapter@D@0@DHQAH@Z 1004b0d0 f i libucrtd:output.obj
 0001:0004a120       ??$write_multiple_characters@V?$stream_output_adapter@_W@__crt_stdio_output@@D@__crt_stdio_output@@YAXABV?$stream_output_adapter@_W@0@DHQAH@Z 1004b120 f i libucrtd:output.obj
 0001:0004a170       ??$write_multiple_characters@V?$string_output_adapter@D@__crt_stdio_output@@D@__crt_stdio_output@@YAXABV?$string_output_adapter@D@0@DHQAH@Z 1004b170 f i libucrtd:output.obj
 0001:0004a1c0       ??$write_multiple_characters@V?$string_output_adapter@_W@__crt_stdio_output@@D@__crt_stdio_output@@YAXABV?$string_output_adapter@_W@0@DHQAH@Z 1004b1c0 f i libucrtd:output.obj
 0001:0004a510       ??0?$common_data@D@__crt_stdio_output@@IAE@XZ 1004b510 f i libucrtd:output.obj
 0001:0004a5c0       ??0?$common_data@_W@__crt_stdio_output@@IAE@XZ 1004b5c0 f i libucrtd:output.obj
 0001:0004a670       ??0?$output_adapter_data@DV?$stream_output_adapter@D@__crt_stdio_output@@@__crt_stdio_output@@IAE@ABV?$stream_output_adapter@D@1@_KQBDQAU__crt_locale_pointers@@QAD@Z 1004b670 f i libucrtd:output.obj
 0001:0004a6d0       ??0?$output_adapter_data@DV?$string_output_adapter@D@__crt_stdio_output@@@__crt_stdio_output@@IAE@ABV?$string_output_adapter@D@1@_KQBDQAU__crt_locale_pointers@@QAD@Z 1004b6d0 f i libucrtd:output.obj
 0001:0004a730       ??0?$output_adapter_data@_WV?$stream_output_adapter@_W@__crt_stdio_output@@@__crt_stdio_output@@IAE@ABV?$stream_output_adapter@_W@1@_KQB_WQAU__crt_locale_pointers@@QAD@Z 1004b730 f i libucrtd:output.obj
 0001:0004a790       ??0?$output_adapter_data@_WV?$string_output_adapter@_W@__crt_stdio_output@@@__crt_stdio_output@@IAE@ABV?$string_output_adapter@_W@1@_KQB_WQAU__crt_locale_pointers@@QAD@Z 1004b790 f i libucrtd:output.obj
 0001:0004a7f0       ??0?$output_processor@DV?$stream_output_adapter@D@__crt_stdio_output@@V?$format_validation_base@DV?$stream_output_adapter@D@__crt_stdio_output@@@2@@__crt_stdio_output@@QAE@ABV?$stream_output_adapter@D@1@_KQBDQAU__crt_locale_pointers@@QAD@Z 1004b7f0 f i libucrtd:output.obj
 0001:0004a820       ??0?$output_processor@DV?$stream_output_adapter@D@__crt_stdio_output@@V?$positional_parameter_base@DV?$stream_output_adapter@D@__crt_stdio_output@@@2@@__crt_stdio_output@@QAE@ABV?$stream_output_adapter@D@1@_KQBDQAU__crt_locale_pointers@@QAD@Z 1004b820 f i libucrtd:output.obj
 0001:0004a850       ??0?$output_processor@DV?$stream_output_adapter@D@__crt_stdio_output@@V?$standard_base@DV?$stream_output_adapter@D@__crt_stdio_output@@@2@@__crt_stdio_output@@QAE@ABV?$stream_output_adapter@D@1@_KQBDQAU__crt_locale_pointers@@QAD@Z 1004b850 f i libucrtd:output.obj
 0001:0004a880       ??0?$output_processor@DV?$string_output_adapter@D@__crt_stdio_output@@V?$format_validation_base@DV?$string_output_adapter@D@__crt_stdio_output@@@2@@__crt_stdio_output@@QAE@ABV?$string_output_adapter@D@1@_KQBDQAU__crt_locale_pointers@@QAD@Z 1004b880 f i libucrtd:output.obj
 0001:0004a8b0       ??0?$output_processor@DV?$string_output_adapter@D@__crt_stdio_output@@V?$positional_parameter_base@DV?$string_output_adapter@D@__crt_stdio_output@@@2@@__crt_stdio_output@@QAE@ABV?$string_output_adapter@D@1@_KQBDQAU__crt_locale_pointers@@QAD@Z 1004b8b0 f i libucrtd:output.obj
 0001:0004a8e0       ??0?$output_processor@DV?$string_output_adapter@D@__crt_stdio_output@@V?$standard_base@DV?$string_output_adapter@D@__crt_stdio_output@@@2@@__crt_stdio_output@@QAE@ABV?$string_output_adapter@D@1@_KQBDQAU__crt_locale_pointers@@QAD@Z 1004b8e0 f i libucrtd:output.obj
 0001:0004a910       ??0?$output_processor@_WV?$stream_output_adapter@_W@__crt_stdio_output@@V?$format_validation_base@_WV?$stream_output_adapter@_W@__crt_stdio_output@@@2@@__crt_stdio_output@@QAE@ABV?$stream_output_adapter@_W@1@_KQB_WQAU__crt_locale_pointers@@QAD@Z 1004b910 f i libucrtd:output.obj
 0001:0004a940       ??0?$output_processor@_WV?$stream_output_adapter@_W@__crt_stdio_output@@V?$positional_parameter_base@_WV?$stream_output_adapter@_W@__crt_stdio_output@@@2@@__crt_stdio_output@@QAE@ABV?$stream_output_adapter@_W@1@_KQB_WQAU__crt_locale_pointers@@QAD@Z 1004b940 f i libucrtd:output.obj
 0001:0004a970       ??0?$output_processor@_WV?$stream_output_adapter@_W@__crt_stdio_output@@V?$standard_base@_WV?$stream_output_adapter@_W@__crt_stdio_output@@@2@@__crt_stdio_output@@QAE@ABV?$stream_output_adapter@_W@1@_KQB_WQAU__crt_locale_pointers@@QAD@Z 1004b970 f i libucrtd:output.obj
 0001:0004a9a0       ??0?$output_processor@_WV?$string_output_adapter@_W@__crt_stdio_output@@V?$format_validation_base@_WV?$string_output_adapter@_W@__crt_stdio_output@@@2@@__crt_stdio_output@@QAE@ABV?$string_output_adapter@_W@1@_KQB_WQAU__crt_locale_pointers@@QAD@Z 1004b9a0 f i libucrtd:output.obj
 0001:0004a9d0       ??0?$output_processor@_WV?$string_output_adapter@_W@__crt_stdio_output@@V?$positional_parameter_base@_WV?$string_output_adapter@_W@__crt_stdio_output@@@2@@__crt_stdio_output@@QAE@ABV?$string_output_adapter@_W@1@_KQB_WQAU__crt_locale_pointers@@QAD@Z 1004b9d0 f i libucrtd:output.obj
 0001:0004aa00       ??0?$output_processor@_WV?$string_output_adapter@_W@__crt_stdio_output@@V?$standard_base@_WV?$string_output_adapter@_W@__crt_stdio_output@@@2@@__crt_stdio_output@@QAE@ABV?$string_output_adapter@_W@1@_KQB_WQAU__crt_locale_pointers@@QAD@Z 1004ba00 f i libucrtd:output.obj
 0001:0004aa30       ??0?$stream_output_adapter@D@__crt_stdio_output@@QAE@QAU_iobuf@@@Z 1004ba30 f i libucrtd:output.obj
 0001:0004aa50       ??0?$stream_output_adapter@_W@__crt_stdio_output@@QAE@QAU_iobuf@@@Z 1004ba50 f i libucrtd:output.obj
 0001:0004aa70       ??0?$string_output_adapter@D@__crt_stdio_output@@QAE@QAU?$string_output_adapter_context@D@1@@Z 1004ba70 f i libucrtd:output.obj
 0001:0004aa90       ??0?$string_output_adapter@_W@__crt_stdio_output@@QAE@QAU?$string_output_adapter_context@_W@1@@Z 1004ba90 f i libucrtd:output.obj
 0001:0004aab0       ??0_LocaleUpdate@@QAE@QAU__crt_locale_pointers@@@Z 1004bab0 f i libucrtd:output.obj
 0001:0004ab80       ??0__acrt_stdio_temporary_buffering_guard@@QAE@QAU_iobuf@@@Z 1004bb80 f i libucrtd:output.obj
 0001:0004abb0       ??0__crt_deferred_errno_cache@@QAE@XZ 1004bbb0 f i libucrtd:output.obj
 0001:0004abd0       ??0__crt_errno_guard@@QAE@QAH@Z 1004bbd0 f i libucrtd:output.obj
 0001:0004ac00       ??0__crt_stdio_stream@@QAE@QAU_iobuf@@@Z 1004bc00 f i libucrtd:output.obj
 0001:0004ac20       ??0formatting_buffer@__crt_stdio_output@@QAE@XZ 1004bc20 f i libucrtd:output.obj
 0001:0004ac50       ??1?$common_data@D@__crt_stdio_output@@QAE@XZ 1004bc50 f i libucrtd:output.obj
 0001:0004ac70       ??1?$common_data@_W@__crt_stdio_output@@QAE@XZ 1004bc70 f i libucrtd:output.obj
 0001:0004ac90       ??1?$format_validation_base@DV?$stream_output_adapter@D@__crt_stdio_output@@@__crt_stdio_output@@QAE@XZ 1004bc90 f i libucrtd:output.obj
 0001:0004acb0       ??1?$format_validation_base@DV?$string_output_adapter@D@__crt_stdio_output@@@__crt_stdio_output@@QAE@XZ 1004bcb0 f i libucrtd:output.obj
 0001:0004acd0       ??1?$format_validation_base@_WV?$stream_output_adapter@_W@__crt_stdio_output@@@__crt_stdio_output@@QAE@XZ 1004bcd0 f i libucrtd:output.obj
 0001:0004acf0       ??1?$format_validation_base@_WV?$string_output_adapter@_W@__crt_stdio_output@@@__crt_stdio_output@@QAE@XZ 1004bcf0 f i libucrtd:output.obj
 0001:0004ad10       ??1?$output_adapter_data@DV?$stream_output_adapter@D@__crt_stdio_output@@@__crt_stdio_output@@QAE@XZ 1004bd10 f i libucrtd:output.obj
 0001:0004ad30       ??1?$output_adapter_data@DV?$string_output_adapter@D@__crt_stdio_output@@@__crt_stdio_output@@QAE@XZ 1004bd30 f i libucrtd:output.obj
 0001:0004ad50       ??1?$output_adapter_data@_WV?$stream_output_adapter@_W@__crt_stdio_output@@@__crt_stdio_output@@QAE@XZ 1004bd50 f i libucrtd:output.obj
 0001:0004ad70       ??1?$output_adapter_data@_WV?$string_output_adapter@_W@__crt_stdio_output@@@__crt_stdio_output@@QAE@XZ 1004bd70 f i libucrtd:output.obj
 0001:0004ad90       ??1?$output_processor@DV?$stream_output_adapter@D@__crt_stdio_output@@V?$format_validation_base@DV?$stream_output_adapter@D@__crt_stdio_output@@@2@@__crt_stdio_output@@QAE@XZ 1004bd90 f i libucrtd:output.obj
 0001:0004adb0       ??1?$output_processor@DV?$stream_output_adapter@D@__crt_stdio_output@@V?$positional_parameter_base@DV?$stream_output_adapter@D@__crt_stdio_output@@@2@@__crt_stdio_output@@QAE@XZ 1004bdb0 f i libucrtd:output.obj
 0001:0004add0       ??1?$output_processor@DV?$stream_output_adapter@D@__crt_stdio_output@@V?$standard_base@DV?$stream_output_adapter@D@__crt_stdio_output@@@2@@__crt_stdio_output@@QAE@XZ 1004bdd0 f i libucrtd:output.obj
 0001:0004adf0       ??1?$output_processor@DV?$string_output_adapter@D@__crt_stdio_output@@V?$format_validation_base@DV?$string_output_adapter@D@__crt_stdio_output@@@2@@__crt_stdio_output@@QAE@XZ 1004bdf0 f i libucrtd:output.obj
 0001:0004ae10       ??1?$output_processor@DV?$string_output_adapter@D@__crt_stdio_output@@V?$positional_parameter_base@DV?$string_output_adapter@D@__crt_stdio_output@@@2@@__crt_stdio_output@@QAE@XZ 1004be10 f i libucrtd:output.obj
 0001:0004ae30       ??1?$output_processor@DV?$string_output_adapter@D@__crt_stdio_output@@V?$standard_base@DV?$string_output_adapter@D@__crt_stdio_output@@@2@@__crt_stdio_output@@QAE@XZ 1004be30 f i libucrtd:output.obj
 0001:0004ae50       ??1?$output_processor@_WV?$stream_output_adapter@_W@__crt_stdio_output@@V?$format_validation_base@_WV?$stream_output_adapter@_W@__crt_stdio_output@@@2@@__crt_stdio_output@@QAE@XZ 1004be50 f i libucrtd:output.obj
 0001:0004ae70       ??1?$output_processor@_WV?$stream_output_adapter@_W@__crt_stdio_output@@V?$positional_parameter_base@_WV?$stream_output_adapter@_W@__crt_stdio_output@@@2@@__crt_stdio_output@@QAE@XZ 1004be70 f i libucrtd:output.obj
 0001:0004ae90       ??1?$output_processor@_WV?$stream_output_adapter@_W@__crt_stdio_output@@V?$standard_base@_WV?$stream_output_adapter@_W@__crt_stdio_output@@@2@@__crt_stdio_output@@QAE@XZ 1004be90 f i libucrtd:output.obj
 0001:0004aeb0       ??1?$output_processor@_WV?$string_output_adapter@_W@__crt_stdio_output@@V?$format_validation_base@_WV?$string_output_adapter@_W@__crt_stdio_output@@@2@@__crt_stdio_output@@QAE@XZ 1004beb0 f i libucrtd:output.obj
 0001:0004aed0       ??1?$output_processor@_WV?$string_output_adapter@_W@__crt_stdio_output@@V?$positional_parameter_base@_WV?$string_output_adapter@_W@__crt_stdio_output@@@2@@__crt_stdio_output@@QAE@XZ 1004bed0 f i libucrtd:output.obj
 0001:0004aef0       ??1?$output_processor@_WV?$string_output_adapter@_W@__crt_stdio_output@@V?$standard_base@_WV?$string_output_adapter@_W@__crt_stdio_output@@@2@@__crt_stdio_output@@QAE@XZ 1004bef0 f i libucrtd:output.obj
 0001:0004af10       ??1?$positional_parameter_base@DV?$stream_output_adapter@D@__crt_stdio_output@@@__crt_stdio_output@@QAE@XZ 1004bf10 f i libucrtd:output.obj
 0001:0004af30       ??1?$positional_parameter_base@DV?$string_output_adapter@D@__crt_stdio_output@@@__crt_stdio_output@@QAE@XZ 1004bf30 f i libucrtd:output.obj
 0001:0004af50       ??1?$positional_parameter_base@_WV?$stream_output_adapter@_W@__crt_stdio_output@@@__crt_stdio_output@@QAE@XZ 1004bf50 f i libucrtd:output.obj
 0001:0004af70       ??1?$positional_parameter_base@_WV?$string_output_adapter@_W@__crt_stdio_output@@@__crt_stdio_output@@QAE@XZ 1004bf70 f i libucrtd:output.obj
 0001:0004af90       ??1?$standard_base@DV?$stream_output_adapter@D@__crt_stdio_output@@@__crt_stdio_output@@QAE@XZ 1004bf90 f i libucrtd:output.obj
 0001:0004afb0       ??1?$standard_base@DV?$string_output_adapter@D@__crt_stdio_output@@@__crt_stdio_output@@QAE@XZ 1004bfb0 f i libucrtd:output.obj
 0001:0004afd0       ??1?$standard_base@_WV?$stream_output_adapter@_W@__crt_stdio_output@@@__crt_stdio_output@@QAE@XZ 1004bfd0 f i libucrtd:output.obj
 0001:0004aff0       ??1?$standard_base@_WV?$string_output_adapter@_W@__crt_stdio_output@@@__crt_stdio_output@@QAE@XZ 1004bff0 f i libucrtd:output.obj
 0001:0004b010       ??1_LocaleUpdate@@QAE@XZ   1004c010 f i libucrtd:output.obj
 0001:0004b040       ??1__acrt_stdio_temporary_buffering_guard@@QAE@XZ 1004c040 f i libucrtd:output.obj
 0001:0004b070       ??1__crt_errno_guard@@QAE@XZ 1004c070 f i libucrtd:output.obj
 0001:0004b0a0       ??1formatting_buffer@__crt_stdio_output@@QAE@XZ 1004c0a0 f i libucrtd:output.obj
 0001:0004b0c0       ??4?$__crt_unique_heap_ptr@DU__crt_internal_free_policy@@@@QAEAAV0@$$QAV0@@Z 1004c0c0 f i libucrtd:output.obj
 0001:0004b0f0       ??A?$spectre_mitigated_lookup_table@Ustate_transition_pair@__crt_stdio_output@@$0IA@@__crt_stdio_output@@QBEABUstate_transition_pair@1@I@Z 1004c0f0 f i libucrtd:output.obj
 0001:0004b110       ??C__crt_stdio_stream@@QBEPAU__crt_stdio_stream_data@@XZ 1004c110 f i libucrtd:output.obj
 0001:0004b850       ?GetLocaleT@_LocaleUpdate@@QAEPAU__crt_locale_pointers@@XZ 1004c850 f i libucrtd:output.obj
 0001:0004b870       ?adjust_hexit@?$output_processor@DV?$stream_output_adapter@D@__crt_stdio_output@@V?$format_validation_base@DV?$stream_output_adapter@D@__crt_stdio_output@@@2@@__crt_stdio_output@@CADH_N@Z 1004c870 f i libucrtd:output.obj
 0001:0004b8b0       ?adjust_hexit@?$output_processor@DV?$stream_output_adapter@D@__crt_stdio_output@@V?$positional_parameter_base@DV?$stream_output_adapter@D@__crt_stdio_output@@@2@@__crt_stdio_output@@CADH_N@Z 1004c8b0 f i libucrtd:output.obj
 0001:0004b8f0       ?adjust_hexit@?$output_processor@DV?$stream_output_adapter@D@__crt_stdio_output@@V?$standard_base@DV?$stream_output_adapter@D@__crt_stdio_output@@@2@@__crt_stdio_output@@CADH_N@Z 1004c8f0 f i libucrtd:output.obj
 0001:0004b930       ?adjust_hexit@?$output_processor@DV?$string_output_adapter@D@__crt_stdio_output@@V?$format_validation_base@DV?$string_output_adapter@D@__crt_stdio_output@@@2@@__crt_stdio_output@@CADH_N@Z 1004c930 f i libucrtd:output.obj
 0001:0004b970       ?adjust_hexit@?$output_processor@DV?$string_output_adapter@D@__crt_stdio_output@@V?$positional_parameter_base@DV?$string_output_adapter@D@__crt_stdio_output@@@2@@__crt_stdio_output@@CADH_N@Z 1004c970 f i libucrtd:output.obj
 0001:0004b9b0       ?adjust_hexit@?$output_processor@DV?$string_output_adapter@D@__crt_stdio_output@@V?$standard_base@DV?$string_output_adapter@D@__crt_stdio_output@@@2@@__crt_stdio_output@@CADH_N@Z 1004c9b0 f i libucrtd:output.obj
 0001:0004b9f0       ?adjust_hexit@?$output_processor@_WV?$stream_output_adapter@_W@__crt_stdio_output@@V?$format_validation_base@_WV?$stream_output_adapter@_W@__crt_stdio_output@@@2@@__crt_stdio_output@@CADH_N@Z 1004c9f0 f i libucrtd:output.obj
 0001:0004ba30       ?adjust_hexit@?$output_processor@_WV?$stream_output_adapter@_W@__crt_stdio_output@@V?$positional_parameter_base@_WV?$stream_output_adapter@_W@__crt_stdio_output@@@2@@__crt_stdio_output@@CADH_N@Z 1004ca30 f i libucrtd:output.obj
 0001:0004ba70       ?adjust_hexit@?$output_processor@_WV?$stream_output_adapter@_W@__crt_stdio_output@@V?$standard_base@_WV?$stream_output_adapter@_W@__crt_stdio_output@@@2@@__crt_stdio_output@@CADH_N@Z 1004ca70 f i libucrtd:output.obj
 0001:0004bab0       ?adjust_hexit@?$output_processor@_WV?$string_output_adapter@_W@__crt_stdio_output@@V?$format_validation_base@_WV?$string_output_adapter@_W@__crt_stdio_output@@@2@@__crt_stdio_output@@CADH_N@Z 1004cab0 f i libucrtd:output.obj
 0001:0004baf0       ?adjust_hexit@?$output_processor@_WV?$string_output_adapter@_W@__crt_stdio_output@@V?$positional_parameter_base@_WV?$string_output_adapter@_W@__crt_stdio_output@@@2@@__crt_stdio_output@@CADH_N@Z 1004caf0 f i libucrtd:output.obj
 0001:0004bb30       ?adjust_hexit@?$output_processor@_WV?$string_output_adapter@_W@__crt_stdio_output@@V?$standard_base@_WV?$string_output_adapter@_W@__crt_stdio_output@@@2@@__crt_stdio_output@@CADH_N@Z 1004cb30 f i libucrtd:output.obj
 0001:0004bb70       ?advance_to_next_pass@?$positional_parameter_base@DV?$stream_output_adapter@D@__crt_stdio_output@@@__crt_stdio_output@@IAE_NXZ 1004cb70 f i libucrtd:output.obj
 0001:0004bc10       ?advance_to_next_pass@?$positional_parameter_base@DV?$string_output_adapter@D@__crt_stdio_output@@@__crt_stdio_output@@IAE_NXZ 1004cc10 f i libucrtd:output.obj
 0001:0004bcb0       ?advance_to_next_pass@?$positional_parameter_base@_WV?$stream_output_adapter@_W@__crt_stdio_output@@@__crt_stdio_output@@IAE_NXZ 1004ccb0 f i libucrtd:output.obj
 0001:0004bd50       ?advance_to_next_pass@?$positional_parameter_base@_WV?$string_output_adapter@_W@__crt_stdio_output@@@__crt_stdio_output@@IAE_NXZ 1004cd50 f i libucrtd:output.obj
 0001:0004bdf0       ?advance_to_next_pass@?$standard_base@DV?$stream_output_adapter@D@__crt_stdio_output@@@__crt_stdio_output@@IAE_NXZ 1004cdf0 f i libucrtd:output.obj
 0001:0004be40       ?advance_to_next_pass@?$standard_base@DV?$string_output_adapter@D@__crt_stdio_output@@@__crt_stdio_output@@IAE_NXZ 1004ce40 f i libucrtd:output.obj
 0001:0004be90       ?advance_to_next_pass@?$standard_base@_WV?$stream_output_adapter@_W@__crt_stdio_output@@@__crt_stdio_output@@IAE_NXZ 1004ce90 f i libucrtd:output.obj
 0001:0004bee0       ?advance_to_next_pass@?$standard_base@_WV?$string_output_adapter@_W@__crt_stdio_output@@@__crt_stdio_output@@IAE_NXZ 1004cee0 f i libucrtd:output.obj
 0001:0004bf30       ?crop_zeroes@__crt_stdio_output@@YAXPADQAU__crt_locale_pointers@@@Z 1004cf30 f i libucrtd:output.obj
 0001:0004c030       ?find_next_state@?$output_processor@DV?$stream_output_adapter@D@__crt_stdio_output@@V?$format_validation_base@DV?$stream_output_adapter@D@__crt_stdio_output@@@2@@__crt_stdio_output@@ABE?AW4state@2@DW432@@Z 1004d030 f i libucrtd:output.obj
 0001:0004c0a0       ?find_next_state@?$output_processor@DV?$stream_output_adapter@D@__crt_stdio_output@@V?$positional_parameter_base@DV?$stream_output_adapter@D@__crt_stdio_output@@@2@@__crt_stdio_output@@ABE?AW4state@2@DW432@@Z 1004d0a0 f i libucrtd:output.obj
 0001:0004c110       ?find_next_state@?$output_processor@DV?$stream_output_adapter@D@__crt_stdio_output@@V?$standard_base@DV?$stream_output_adapter@D@__crt_stdio_output@@@2@@__crt_stdio_output@@ABE?AW4state@2@DW432@@Z 1004d110 f i libucrtd:output.obj
 0001:0004c180       ?find_next_state@?$output_processor@DV?$string_output_adapter@D@__crt_stdio_output@@V?$format_validation_base@DV?$string_output_adapter@D@__crt_stdio_output@@@2@@__crt_stdio_output@@ABE?AW4state@2@DW432@@Z 1004d180 f i libucrtd:output.obj
 0001:0004c1f0       ?find_next_state@?$output_processor@DV?$string_output_adapter@D@__crt_stdio_output@@V?$positional_parameter_base@DV?$string_output_adapter@D@__crt_stdio_output@@@2@@__crt_stdio_output@@ABE?AW4state@2@DW432@@Z 1004d1f0 f i libucrtd:output.obj
 0001:0004c260       ?find_next_state@?$output_processor@DV?$string_output_adapter@D@__crt_stdio_output@@V?$standard_base@DV?$string_output_adapter@D@__crt_stdio_output@@@2@@__crt_stdio_output@@ABE?AW4state@2@DW432@@Z 1004d260 f i libucrtd:output.obj
 0001:0004c2d0       ?find_next_state@?$output_processor@_WV?$stream_output_adapter@_W@__crt_stdio_output@@V?$format_validation_base@_WV?$stream_output_adapter@_W@__crt_stdio_output@@@2@@__crt_stdio_output@@ABE?AW4state@2@_WW432@@Z 1004d2d0 f i libucrtd:output.obj
 0001:0004c340       ?find_next_state@?$output_processor@_WV?$stream_output_adapter@_W@__crt_stdio_output@@V?$positional_parameter_base@_WV?$stream_output_adapter@_W@__crt_stdio_output@@@2@@__crt_stdio_output@@ABE?AW4state@2@_WW432@@Z 1004d340 f i libucrtd:output.obj
 0001:0004c3b0       ?find_next_state@?$output_processor@_WV?$stream_output_adapter@_W@__crt_stdio_output@@V?$standard_base@_WV?$stream_output_adapter@_W@__crt_stdio_output@@@2@@__crt_stdio_output@@ABE?AW4state@2@_WW432@@Z 1004d3b0 f i libucrtd:output.obj
 0001:0004c420       ?find_next_state@?$output_processor@_WV?$string_output_adapter@_W@__crt_stdio_output@@V?$format_validation_base@_WV?$string_output_adapter@_W@__crt_stdio_output@@@2@@__crt_stdio_output@@ABE?AW4state@2@_WW432@@Z 1004d420 f i libucrtd:output.obj
 0001:0004c490       ?find_next_state@?$output_processor@_WV?$string_output_adapter@_W@__crt_stdio_output@@V?$positional_parameter_base@_WV?$string_output_adapter@_W@__crt_stdio_output@@@2@@__crt_stdio_output@@ABE?AW4state@2@_WW432@@Z 1004d490 f i libucrtd:output.obj
 0001:0004c500       ?find_next_state@?$output_processor@_WV?$string_output_adapter@_W@__crt_stdio_output@@V?$standard_base@_WV?$string_output_adapter@_W@__crt_stdio_output@@@2@@__crt_stdio_output@@ABE?AW4state@2@_WW432@@Z 1004d500 f i libucrtd:output.obj
 0001:0004c570       ?force_decimal_point@__crt_stdio_output@@YAXPADQAU__crt_locale_pointers@@@Z 1004d570 f i libucrtd:output.obj
 0001:0004c640       ?get@__crt_deferred_errno_cache@@QAEAAHXZ 1004d640 f i libucrtd:output.obj
 0001:0004c670       ?get_flags@__crt_stdio_stream@@QBEJXZ 1004d670 f i libucrtd:output.obj
 0001:0004c690       ?get_parameter_type@?$positional_parameter_base@DV?$stream_output_adapter@D@__crt_stdio_output@@@__crt_stdio_output@@CA?AW4parameter_type@12@F@Z 1004d690 f i libucrtd:output.obj
 0001:0004c6a0       ?get_parameter_type@?$positional_parameter_base@DV?$stream_output_adapter@D@__crt_stdio_output@@@__crt_stdio_output@@CA?AW4parameter_type@12@G@Z 1004d6a0 f i libucrtd:output.obj
 0001:0004c6b0       ?get_parameter_type@?$positional_parameter_base@DV?$stream_output_adapter@D@__crt_stdio_output@@@__crt_stdio_output@@CA?AW4parameter_type@12@H@Z 1004d6b0 f i libucrtd:output.obj
 0001:0004c6c0       ?get_parameter_type@?$positional_parameter_base@DV?$stream_output_adapter@D@__crt_stdio_output@@@__crt_stdio_output@@CA?AW4parameter_type@12@I@Z 1004d6c0 f i libucrtd:output.obj
 0001:0004c6d0       ?get_parameter_type@?$positional_parameter_base@DV?$stream_output_adapter@D@__crt_stdio_output@@@__crt_stdio_output@@CA?AW4parameter_type@12@U_CRT_DOUBLE@@@Z 1004d6d0 f i libucrtd:output.obj
 0001:0004c6e0       ?get_parameter_type@?$positional_parameter_base@DV?$stream_output_adapter@D@__crt_stdio_output@@@__crt_stdio_output@@CA?AW4parameter_type@12@_J@Z 1004d6e0 f i libucrtd:output.obj
 0001:0004c6f0       ?get_parameter_type@?$positional_parameter_base@DV?$stream_output_adapter@D@__crt_stdio_output@@@__crt_stdio_output@@CA?AW4parameter_type@12@_K@Z 1004d6f0 f i libucrtd:output.obj
 0001:0004c700       ?get_parameter_type@?$positional_parameter_base@DV?$stream_output_adapter@D@__crt_stdio_output@@@__crt_stdio_output@@CA?AW4parameter_type@12@_W@Z 1004d700 f i libucrtd:output.obj
 0001:0004c710       ?get_parameter_type@?$positional_parameter_base@DV?$string_output_adapter@D@__crt_stdio_output@@@__crt_stdio_output@@CA?AW4parameter_type@12@F@Z 1004d710 f i libucrtd:output.obj
 0001:0004c720       ?get_parameter_type@?$positional_parameter_base@DV?$string_output_adapter@D@__crt_stdio_output@@@__crt_stdio_output@@CA?AW4parameter_type@12@G@Z 1004d720 f i libucrtd:output.obj
 0001:0004c730       ?get_parameter_type@?$positional_parameter_base@DV?$string_output_adapter@D@__crt_stdio_output@@@__crt_stdio_output@@CA?AW4parameter_type@12@H@Z 1004d730 f i libucrtd:output.obj
 0001:0004c740       ?get_parameter_type@?$positional_parameter_base@DV?$string_output_adapter@D@__crt_stdio_output@@@__crt_stdio_output@@CA?AW4parameter_type@12@I@Z 1004d740 f i libucrtd:output.obj
 0001:0004c750       ?get_parameter_type@?$positional_parameter_base@DV?$string_output_adapter@D@__crt_stdio_output@@@__crt_stdio_output@@CA?AW4parameter_type@12@U_CRT_DOUBLE@@@Z 1004d750 f i libucrtd:output.obj
 0001:0004c760       ?get_parameter_type@?$positional_parameter_base@DV?$string_output_adapter@D@__crt_stdio_output@@@__crt_stdio_output@@CA?AW4parameter_type@12@_J@Z 1004d760 f i libucrtd:output.obj
 0001:0004c770       ?get_parameter_type@?$positional_parameter_base@DV?$string_output_adapter@D@__crt_stdio_output@@@__crt_stdio_output@@CA?AW4parameter_type@12@_K@Z 1004d770 f i libucrtd:output.obj
 0001:0004c780       ?get_parameter_type@?$positional_parameter_base@DV?$string_output_adapter@D@__crt_stdio_output@@@__crt_stdio_output@@CA?AW4parameter_type@12@_W@Z 1004d780 f i libucrtd:output.obj
 0001:0004c790       ?get_parameter_type@?$positional_parameter_base@_WV?$stream_output_adapter@_W@__crt_stdio_output@@@__crt_stdio_output@@CA?AW4parameter_type@12@F@Z 1004d790 f i libucrtd:output.obj
 0001:0004c7a0       ?get_parameter_type@?$positional_parameter_base@_WV?$stream_output_adapter@_W@__crt_stdio_output@@@__crt_stdio_output@@CA?AW4parameter_type@12@G@Z 1004d7a0 f i libucrtd:output.obj
 0001:0004c7b0       ?get_parameter_type@?$positional_parameter_base@_WV?$stream_output_adapter@_W@__crt_stdio_output@@@__crt_stdio_output@@CA?AW4parameter_type@12@H@Z 1004d7b0 f i libucrtd:output.obj
 0001:0004c7c0       ?get_parameter_type@?$positional_parameter_base@_WV?$stream_output_adapter@_W@__crt_stdio_output@@@__crt_stdio_output@@CA?AW4parameter_type@12@I@Z 1004d7c0 f i libucrtd:output.obj
 0001:0004c7d0       ?get_parameter_type@?$positional_parameter_base@_WV?$stream_output_adapter@_W@__crt_stdio_output@@@__crt_stdio_output@@CA?AW4parameter_type@12@U_CRT_DOUBLE@@@Z 1004d7d0 f i libucrtd:output.obj
 0001:0004c7e0       ?get_parameter_type@?$positional_parameter_base@_WV?$stream_output_adapter@_W@__crt_stdio_output@@@__crt_stdio_output@@CA?AW4parameter_type@12@_J@Z 1004d7e0 f i libucrtd:output.obj
 0001:0004c7f0       ?get_parameter_type@?$positional_parameter_base@_WV?$stream_output_adapter@_W@__crt_stdio_output@@@__crt_stdio_output@@CA?AW4parameter_type@12@_K@Z 1004d7f0 f i libucrtd:output.obj
 0001:0004c800       ?get_parameter_type@?$positional_parameter_base@_WV?$stream_output_adapter@_W@__crt_stdio_output@@@__crt_stdio_output@@CA?AW4parameter_type@12@_W@Z 1004d800 f i libucrtd:output.obj
 0001:0004c810       ?get_parameter_type@?$positional_parameter_base@_WV?$string_output_adapter@_W@__crt_stdio_output@@@__crt_stdio_output@@CA?AW4parameter_type@12@F@Z 1004d810 f i libucrtd:output.obj
 0001:0004c820       ?get_parameter_type@?$positional_parameter_base@_WV?$string_output_adapter@_W@__crt_stdio_output@@@__crt_stdio_output@@CA?AW4parameter_type@12@G@Z 1004d820 f i libucrtd:output.obj
 0001:0004c830       ?get_parameter_type@?$positional_parameter_base@_WV?$string_output_adapter@_W@__crt_stdio_output@@@__crt_stdio_output@@CA?AW4parameter_type@12@H@Z 1004d830 f i libucrtd:output.obj
 0001:0004c840       ?get_parameter_type@?$positional_parameter_base@_WV?$string_output_adapter@_W@__crt_stdio_output@@@__crt_stdio_output@@CA?AW4parameter_type@12@I@Z 1004d840 f i libucrtd:output.obj
 0001:0004c850       ?get_parameter_type@?$positional_parameter_base@_WV?$string_output_adapter@_W@__crt_stdio_output@@@__crt_stdio_output@@CA?AW4parameter_type@12@U_CRT_DOUBLE@@@Z 1004d850 f i libucrtd:output.obj
 0001:0004c860       ?get_parameter_type@?$positional_parameter_base@_WV?$string_output_adapter@_W@__crt_stdio_output@@@__crt_stdio_output@@CA?AW4parameter_type@12@_J@Z 1004d860 f i libucrtd:output.obj
 0001:0004c870       ?get_parameter_type@?$positional_parameter_base@_WV?$string_output_adapter@_W@__crt_stdio_output@@@__crt_stdio_output@@CA?AW4parameter_type@12@_K@Z 1004d870 f i libucrtd:output.obj
 0001:0004c880       ?get_parameter_type@?$positional_parameter_base@_WV?$string_output_adapter@_W@__crt_stdio_output@@@__crt_stdio_output@@CA?AW4parameter_type@12@_W@Z 1004d880 f i libucrtd:output.obj
 0001:0004c890       ?has_flag@?$output_processor@DV?$stream_output_adapter@D@__crt_stdio_output@@V?$format_validation_base@DV?$stream_output_adapter@D@__crt_stdio_output@@@2@@__crt_stdio_output@@ABE_NI@Z 1004d890 f i libucrtd:output.obj
 0001:0004c8c0       ?has_flag@?$output_processor@DV?$stream_output_adapter@D@__crt_stdio_output@@V?$positional_parameter_base@DV?$stream_output_adapter@D@__crt_stdio_output@@@2@@__crt_stdio_output@@ABE_NI@Z 1004d8c0 f i libucrtd:output.obj
 0001:0004c8f0       ?has_flag@?$output_processor@DV?$stream_output_adapter@D@__crt_stdio_output@@V?$standard_base@DV?$stream_output_adapter@D@__crt_stdio_output@@@2@@__crt_stdio_output@@ABE_NI@Z 1004d8f0 f i libucrtd:output.obj
 0001:0004c920       ?has_flag@?$output_processor@DV?$string_output_adapter@D@__crt_stdio_output@@V?$format_validation_base@DV?$string_output_adapter@D@__crt_stdio_output@@@2@@__crt_stdio_output@@ABE_NI@Z 1004d920 f i libucrtd:output.obj
 0001:0004c950       ?has_flag@?$output_processor@DV?$string_output_adapter@D@__crt_stdio_output@@V?$positional_parameter_base@DV?$string_output_adapter@D@__crt_stdio_output@@@2@@__crt_stdio_output@@ABE_NI@Z 1004d950 f i libucrtd:output.obj
 0001:0004c980       ?has_flag@?$output_processor@DV?$string_output_adapter@D@__crt_stdio_output@@V?$standard_base@DV?$string_output_adapter@D@__crt_stdio_output@@@2@@__crt_stdio_output@@ABE_NI@Z 1004d980 f i libucrtd:output.obj
 0001:0004c9b0       ?has_flag@?$output_processor@_WV?$stream_output_adapter@_W@__crt_stdio_output@@V?$format_validation_base@_WV?$stream_output_adapter@_W@__crt_stdio_output@@@2@@__crt_stdio_output@@ABE_NI@Z 1004d9b0 f i libucrtd:output.obj
 0001:0004c9e0       ?has_flag@?$output_processor@_WV?$stream_output_adapter@_W@__crt_stdio_output@@V?$positional_parameter_base@_WV?$stream_output_adapter@_W@__crt_stdio_output@@@2@@__crt_stdio_output@@ABE_NI@Z 1004d9e0 f i libucrtd:output.obj
 0001:0004ca10       ?has_flag@?$output_processor@_WV?$stream_output_adapter@_W@__crt_stdio_output@@V?$standard_base@_WV?$stream_output_adapter@_W@__crt_stdio_output@@@2@@__crt_stdio_output@@ABE_NI@Z 1004da10 f i libucrtd:output.obj
 0001:0004ca40       ?has_flag@?$output_processor@_WV?$string_output_adapter@_W@__crt_stdio_output@@V?$format_validation_base@_WV?$string_output_adapter@_W@__crt_stdio_output@@@2@@__crt_stdio_output@@ABE_NI@Z 1004da40 f i libucrtd:output.obj
 0001:0004ca70       ?has_flag@?$output_processor@_WV?$string_output_adapter@_W@__crt_stdio_output@@V?$positional_parameter_base@_WV?$string_output_adapter@_W@__crt_stdio_output@@@2@@__crt_stdio_output@@ABE_NI@Z 1004da70 f i libucrtd:output.obj
 0001:0004caa0       ?has_flag@?$output_processor@_WV?$string_output_adapter@_W@__crt_stdio_output@@V?$standard_base@_WV?$string_output_adapter@_W@__crt_stdio_output@@@2@@__crt_stdio_output@@ABE_NI@Z 1004daa0 f i libucrtd:output.obj
 0001:0004cad0       ?is_positional_parameter_reappearance_consistent@?$positional_parameter_base@DV?$stream_output_adapter@D@__crt_stdio_output@@@__crt_stdio_output@@AAE_NABUparameter_data@12@W4parameter_type@12@DW4length_modifier@2@@Z 1004dad0 f i libucrtd:output.obj
 0001:0004cd00       ?is_positional_parameter_reappearance_consistent@?$positional_parameter_base@DV?$string_output_adapter@D@__crt_stdio_output@@@__crt_stdio_output@@AAE_NABUparameter_data@12@W4parameter_type@12@DW4length_modifier@2@@Z 1004dd00 f i libucrtd:output.obj
 0001:0004cf30       ?is_positional_parameter_reappearance_consistent@?$positional_parameter_base@_WV?$stream_output_adapter@_W@__crt_stdio_output@@@__crt_stdio_output@@AAE_NABUparameter_data@12@W4parameter_type@12@_WW4length_modifier@2@@Z 1004df30 f i libucrtd:output.obj
 0001:0004d160       ?is_positional_parameter_reappearance_consistent@?$positional_parameter_base@_WV?$string_output_adapter@_W@__crt_stdio_output@@@__crt_stdio_output@@AAE_NABUparameter_data@12@W4parameter_type@12@_WW4length_modifier@2@@Z 1004e160 f i libucrtd:output.obj
 0001:0004d390       ?is_string_backed@__crt_stdio_stream@@QBE_NXZ 1004e390 f i libucrtd:output.obj
 0001:0004d3d0       ?narrow_null_string@?$output_processor@DV?$stream_output_adapter@D@__crt_stdio_output@@V?$format_validation_base@DV?$stream_output_adapter@D@__crt_stdio_output@@@2@@__crt_stdio_output@@CAPADXZ 1004e3d0 f i libucrtd:output.obj
 0001:0004d3e0       ?narrow_null_string@?$output_processor@DV?$stream_output_adapter@D@__crt_stdio_output@@V?$positional_parameter_base@DV?$stream_output_adapter@D@__crt_stdio_output@@@2@@__crt_stdio_output@@CAPADXZ 1004e3e0 f i libucrtd:output.obj
 0001:0004d3f0       ?narrow_null_string@?$output_processor@DV?$stream_output_adapter@D@__crt_stdio_output@@V?$standard_base@DV?$stream_output_adapter@D@__crt_stdio_output@@@2@@__crt_stdio_output@@CAPADXZ 1004e3f0 f i libucrtd:output.obj
 0001:0004d400       ?narrow_null_string@?$output_processor@DV?$string_output_adapter@D@__crt_stdio_output@@V?$format_validation_base@DV?$string_output_adapter@D@__crt_stdio_output@@@2@@__crt_stdio_output@@CAPADXZ 1004e400 f i libucrtd:output.obj
 0001:0004d410       ?narrow_null_string@?$output_processor@DV?$string_output_adapter@D@__crt_stdio_output@@V?$positional_parameter_base@DV?$string_output_adapter@D@__crt_stdio_output@@@2@@__crt_stdio_output@@CAPADXZ 1004e410 f i libucrtd:output.obj
 0001:0004d420       ?narrow_null_string@?$output_processor@DV?$string_output_adapter@D@__crt_stdio_output@@V?$standard_base@DV?$string_output_adapter@D@__crt_stdio_output@@@2@@__crt_stdio_output@@CAPADXZ 1004e420 f i libucrtd:output.obj
 0001:0004d430       ?narrow_null_string@?$output_processor@_WV?$stream_output_adapter@_W@__crt_stdio_output@@V?$format_validation_base@_WV?$stream_output_adapter@_W@__crt_stdio_output@@@2@@__crt_stdio_output@@CAPADXZ 1004e430 f i libucrtd:output.obj
 0001:0004d440       ?narrow_null_string@?$output_processor@_WV?$stream_output_adapter@_W@__crt_stdio_output@@V?$positional_parameter_base@_WV?$stream_output_adapter@_W@__crt_stdio_output@@@2@@__crt_stdio_output@@CAPADXZ 1004e440 f i libucrtd:output.obj
 0001:0004d450       ?narrow_null_string@?$output_processor@_WV?$stream_output_adapter@_W@__crt_stdio_output@@V?$standard_base@_WV?$stream_output_adapter@_W@__crt_stdio_output@@@2@@__crt_stdio_output@@CAPADXZ 1004e450 f i libucrtd:output.obj
 0001:0004d460       ?narrow_null_string@?$output_processor@_WV?$string_output_adapter@_W@__crt_stdio_output@@V?$format_validation_base@_WV?$string_output_adapter@_W@__crt_stdio_output@@@2@@__crt_stdio_output@@CAPADXZ 1004e460 f i libucrtd:output.obj
 0001:0004d470       ?narrow_null_string@?$output_processor@_WV?$string_output_adapter@_W@__crt_stdio_output@@V?$positional_parameter_base@_WV?$string_output_adapter@_W@__crt_stdio_output@@@2@@__crt_stdio_output@@CAPADXZ 1004e470 f i libucrtd:output.obj
 0001:0004d480       ?narrow_null_string@?$output_processor@_WV?$string_output_adapter@_W@__crt_stdio_output@@V?$standard_base@_WV?$string_output_adapter@_W@__crt_stdio_output@@@2@@__crt_stdio_output@@CAPADXZ 1004e480 f i libucrtd:output.obj
 0001:0004d490       ?parse_int_from_format_string@?$output_processor@DV?$stream_output_adapter@D@__crt_stdio_output@@V?$format_validation_base@DV?$stream_output_adapter@D@__crt_stdio_output@@@2@@__crt_stdio_output@@AAE_NQAH@Z 1004e490 f i libucrtd:output.obj
 0001:0004d550       ?parse_int_from_format_string@?$output_processor@DV?$stream_output_adapter@D@__crt_stdio_output@@V?$positional_parameter_base@DV?$stream_output_adapter@D@__crt_stdio_output@@@2@@__crt_stdio_output@@AAE_NQAH@Z 1004e550 f i libucrtd:output.obj
 0001:0004d610       ?parse_int_from_format_string@?$output_processor@DV?$stream_output_adapter@D@__crt_stdio_output@@V?$standard_base@DV?$stream_output_adapter@D@__crt_stdio_output@@@2@@__crt_stdio_output@@AAE_NQAH@Z 1004e610 f i libucrtd:output.obj
 0001:0004d6d0       ?parse_int_from_format_string@?$output_processor@DV?$string_output_adapter@D@__crt_stdio_output@@V?$format_validation_base@DV?$string_output_adapter@D@__crt_stdio_output@@@2@@__crt_stdio_output@@AAE_NQAH@Z 1004e6d0 f i libucrtd:output.obj
 0001:0004d790       ?parse_int_from_format_string@?$output_processor@DV?$string_output_adapter@D@__crt_stdio_output@@V?$positional_parameter_base@DV?$string_output_adapter@D@__crt_stdio_output@@@2@@__crt_stdio_output@@AAE_NQAH@Z 1004e790 f i libucrtd:output.obj
 0001:0004d850       ?parse_int_from_format_string@?$output_processor@DV?$string_output_adapter@D@__crt_stdio_output@@V?$standard_base@DV?$string_output_adapter@D@__crt_stdio_output@@@2@@__crt_stdio_output@@AAE_NQAH@Z 1004e850 f i libucrtd:output.obj
 0001:0004d910       ?parse_int_from_format_string@?$output_processor@_WV?$stream_output_adapter@_W@__crt_stdio_output@@V?$format_validation_base@_WV?$stream_output_adapter@_W@__crt_stdio_output@@@2@@__crt_stdio_output@@AAE_NQAH@Z 1004e910 f i libucrtd:output.obj
 0001:0004d9d0       ?parse_int_from_format_string@?$output_processor@_WV?$stream_output_adapter@_W@__crt_stdio_output@@V?$positional_parameter_base@_WV?$stream_output_adapter@_W@__crt_stdio_output@@@2@@__crt_stdio_output@@AAE_NQAH@Z 1004e9d0 f i libucrtd:output.obj
 0001:0004da90       ?parse_int_from_format_string@?$output_processor@_WV?$stream_output_adapter@_W@__crt_stdio_output@@V?$standard_base@_WV?$stream_output_adapter@_W@__crt_stdio_output@@@2@@__crt_stdio_output@@AAE_NQAH@Z 1004ea90 f i libucrtd:output.obj
 0001:0004db50       ?parse_int_from_format_string@?$output_processor@_WV?$string_output_adapter@_W@__crt_stdio_output@@V?$format_validation_base@_WV?$string_output_adapter@_W@__crt_stdio_output@@@2@@__crt_stdio_output@@AAE_NQAH@Z 1004eb50 f i libucrtd:output.obj
 0001:0004dc10       ?parse_int_from_format_string@?$output_processor@_WV?$string_output_adapter@_W@__crt_stdio_output@@V?$positional_parameter_base@_WV?$string_output_adapter@_W@__crt_stdio_output@@@2@@__crt_stdio_output@@AAE_NQAH@Z 1004ec10 f i libucrtd:output.obj
 0001:0004dcd0       ?parse_int_from_format_string@?$output_processor@_WV?$string_output_adapter@_W@__crt_stdio_output@@V?$standard_base@_WV?$string_output_adapter@_W@__crt_stdio_output@@@2@@__crt_stdio_output@@AAE_NQAH@Z 1004ecd0 f i libucrtd:output.obj
 0001:0004dd90       ?process@?$output_processor@DV?$stream_output_adapter@D@__crt_stdio_output@@V?$format_validation_base@DV?$stream_output_adapter@D@__crt_stdio_output@@@2@@__crt_stdio_output@@QAEHXZ 1004ed90 f i libucrtd:output.obj
 0001:0004e040       ?process@?$output_processor@DV?$stream_output_adapter@D@__crt_stdio_output@@V?$positional_parameter_base@DV?$stream_output_adapter@D@__crt_stdio_output@@@2@@__crt_stdio_output@@QAEHXZ 1004f040 f i libucrtd:output.obj
 0001:0004e2f0       ?process@?$output_processor@DV?$stream_output_adapter@D@__crt_stdio_output@@V?$standard_base@DV?$stream_output_adapter@D@__crt_stdio_output@@@2@@__crt_stdio_output@@QAEHXZ 1004f2f0 f i libucrtd:output.obj
 0001:0004e5a0       ?process@?$output_processor@DV?$string_output_adapter@D@__crt_stdio_output@@V?$format_validation_base@DV?$string_output_adapter@D@__crt_stdio_output@@@2@@__crt_stdio_output@@QAEHXZ 1004f5a0 f i libucrtd:output.obj
 0001:0004e850       ?process@?$output_processor@DV?$string_output_adapter@D@__crt_stdio_output@@V?$positional_parameter_base@DV?$string_output_adapter@D@__crt_stdio_output@@@2@@__crt_stdio_output@@QAEHXZ 1004f850 f i libucrtd:output.obj
 0001:0004eb00       ?process@?$output_processor@DV?$string_output_adapter@D@__crt_stdio_output@@V?$standard_base@DV?$string_output_adapter@D@__crt_stdio_output@@@2@@__crt_stdio_output@@QAEHXZ 1004fb00 f i libucrtd:output.obj
 0001:0004edb0       ?process@?$output_processor@_WV?$stream_output_adapter@_W@__crt_stdio_output@@V?$format_validation_base@_WV?$stream_output_adapter@_W@__crt_stdio_output@@@2@@__crt_stdio_output@@QAEHXZ 1004fdb0 f i libucrtd:output.obj
 0001:0004f060       ?process@?$output_processor@_WV?$stream_output_adapter@_W@__crt_stdio_output@@V?$positional_parameter_base@_WV?$stream_output_adapter@_W@__crt_stdio_output@@@2@@__crt_stdio_output@@QAEHXZ 10050060 f i libucrtd:output.obj
 0001:0004f310       ?process@?$output_processor@_WV?$stream_output_adapter@_W@__crt_stdio_output@@V?$standard_base@_WV?$stream_output_adapter@_W@__crt_stdio_output@@@2@@__crt_stdio_output@@QAEHXZ 10050310 f i libucrtd:output.obj
 0001:0004f5c0       ?process@?$output_processor@_WV?$string_output_adapter@_W@__crt_stdio_output@@V?$format_validation_base@_WV?$string_output_adapter@_W@__crt_stdio_output@@@2@@__crt_stdio_output@@QAEHXZ 100505c0 f i libucrtd:output.obj
 0001:0004f870       ?process@?$output_processor@_WV?$string_output_adapter@_W@__crt_stdio_output@@V?$positional_parameter_base@_WV?$string_output_adapter@_W@__crt_stdio_output@@@2@@__crt_stdio_output@@QAEHXZ 10050870 f i libucrtd:output.obj
 0001:0004fb20       ?process@?$output_processor@_WV?$string_output_adapter@_W@__crt_stdio_output@@V?$standard_base@_WV?$string_output_adapter@_W@__crt_stdio_output@@@2@@__crt_stdio_output@@QAEHXZ 10050b20 f i libucrtd:output.obj
 0001:0004fdd0       ?public_stream@__crt_stdio_stream@@QBEPAU_iobuf@@XZ 10050dd0 f i libucrtd:output.obj
 0001:0004fdf0       ?set_flag@?$output_processor@DV?$stream_output_adapter@D@__crt_stdio_output@@V?$format_validation_base@DV?$stream_output_adapter@D@__crt_stdio_output@@@2@@__crt_stdio_output@@AAEXI@Z 10050df0 f i libucrtd:output.obj
 0001:0004fe10       ?set_flag@?$output_processor@DV?$stream_output_adapter@D@__crt_stdio_output@@V?$positional_parameter_base@DV?$stream_output_adapter@D@__crt_stdio_output@@@2@@__crt_stdio_output@@AAEXI@Z 10050e10 f i libucrtd:output.obj
 0001:0004fe30       ?set_flag@?$output_processor@DV?$stream_output_adapter@D@__crt_stdio_output@@V?$standard_base@DV?$stream_output_adapter@D@__crt_stdio_output@@@2@@__crt_stdio_output@@AAEXI@Z 10050e30 f i libucrtd:output.obj
 0001:0004fe50       ?set_flag@?$output_processor@DV?$string_output_adapter@D@__crt_stdio_output@@V?$format_validation_base@DV?$string_output_adapter@D@__crt_stdio_output@@@2@@__crt_stdio_output@@AAEXI@Z 10050e50 f i libucrtd:output.obj
 0001:0004fe70       ?set_flag@?$output_processor@DV?$string_output_adapter@D@__crt_stdio_output@@V?$positional_parameter_base@DV?$string_output_adapter@D@__crt_stdio_output@@@2@@__crt_stdio_output@@AAEXI@Z 10050e70 f i libucrtd:output.obj
 0001:0004fe90       ?set_flag@?$output_processor@DV?$string_output_adapter@D@__crt_stdio_output@@V?$standard_base@DV?$string_output_adapter@D@__crt_stdio_output@@@2@@__crt_stdio_output@@AAEXI@Z 10050e90 f i libucrtd:output.obj
 0001:0004feb0       ?set_flag@?$output_processor@_WV?$stream_output_adapter@_W@__crt_stdio_output@@V?$format_validation_base@_WV?$stream_output_adapter@_W@__crt_stdio_output@@@2@@__crt_stdio_output@@AAEXI@Z 10050eb0 f i libucrtd:output.obj
 0001:0004fed0       ?set_flag@?$output_processor@_WV?$stream_output_adapter@_W@__crt_stdio_output@@V?$positional_parameter_base@_WV?$stream_output_adapter@_W@__crt_stdio_output@@@2@@__crt_stdio_output@@AAEXI@Z 10050ed0 f i libucrtd:output.obj
 0001:0004fef0       ?set_flag@?$output_processor@_WV?$stream_output_adapter@_W@__crt_stdio_output@@V?$standard_base@_WV?$stream_output_adapter@_W@__crt_stdio_output@@@2@@__crt_stdio_output@@AAEXI@Z 10050ef0 f i libucrtd:output.obj
 0001:0004ff10       ?set_flag@?$output_processor@_WV?$string_output_adapter@_W@__crt_stdio_output@@V?$format_validation_base@_WV?$string_output_adapter@_W@__crt_stdio_output@@@2@@__crt_stdio_output@@AAEXI@Z 10050f10 f i libucrtd:output.obj
 0001:0004ff30       ?set_flag@?$output_processor@_WV?$string_output_adapter@_W@__crt_stdio_output@@V?$positional_parameter_base@_WV?$string_output_adapter@_W@__crt_stdio_output@@@2@@__crt_stdio_output@@AAEXI@Z 10050f30 f i libucrtd:output.obj
 0001:0004ff50       ?set_flag@?$output_processor@_WV?$string_output_adapter@_W@__crt_stdio_output@@V?$standard_base@_WV?$string_output_adapter@_W@__crt_stdio_output@@@2@@__crt_stdio_output@@AAEXI@Z 10050f50 f i libucrtd:output.obj
 0001:0004ff70       ?should_format@?$positional_parameter_base@DV?$stream_output_adapter@D@__crt_stdio_output@@@__crt_stdio_output@@IAE_NXZ 10050f70 f i libucrtd:output.obj
 0001:0004ffb0       ?should_format@?$positional_parameter_base@DV?$string_output_adapter@D@__crt_stdio_output@@@__crt_stdio_output@@IAE_NXZ 10050fb0 f i libucrtd:output.obj
 0001:0004fff0       ?should_format@?$positional_parameter_base@_WV?$stream_output_adapter@_W@__crt_stdio_output@@@__crt_stdio_output@@IAE_NXZ 10050ff0 f i libucrtd:output.obj
 0001:00050030       ?should_format@?$positional_parameter_base@_WV?$string_output_adapter@_W@__crt_stdio_output@@@__crt_stdio_output@@IAE_NXZ 10051030 f i libucrtd:output.obj
 0001:00050070       ?should_format@?$standard_base@DV?$stream_output_adapter@D@__crt_stdio_output@@@__crt_stdio_output@@IAE_NXZ 10051070 f i libucrtd:output.obj
 0001:00050080       ?should_format@?$standard_base@DV?$string_output_adapter@D@__crt_stdio_output@@@__crt_stdio_output@@IAE_NXZ 10051080 f i libucrtd:output.obj
 0001:00050090       ?should_format@?$standard_base@_WV?$stream_output_adapter@_W@__crt_stdio_output@@@__crt_stdio_output@@IAE_NXZ 10051090 f i libucrtd:output.obj
 0001:000500a0       ?should_format@?$standard_base@_WV?$string_output_adapter@_W@__crt_stdio_output@@@__crt_stdio_output@@IAE_NXZ 100510a0 f i libucrtd:output.obj
 0001:000500b0       ?should_skip_normal_state_processing@?$positional_parameter_base@DV?$stream_output_adapter@D@__crt_stdio_output@@@__crt_stdio_output@@IAE_NXZ 100510b0 f i libucrtd:output.obj
 0001:00050100       ?should_skip_normal_state_processing@?$positional_parameter_base@DV?$string_output_adapter@D@__crt_stdio_output@@@__crt_stdio_output@@IAE_NXZ 10051100 f i libucrtd:output.obj
 0001:00050150       ?should_skip_normal_state_processing@?$positional_parameter_base@_WV?$stream_output_adapter@_W@__crt_stdio_output@@@__crt_stdio_output@@IAE_NXZ 10051150 f i libucrtd:output.obj
 0001:000501a0       ?should_skip_normal_state_processing@?$positional_parameter_base@_WV?$string_output_adapter@_W@__crt_stdio_output@@@__crt_stdio_output@@IAE_NXZ 100511a0 f i libucrtd:output.obj
 0001:000501f0       ?should_skip_normal_state_processing@?$standard_base@DV?$stream_output_adapter@D@__crt_stdio_output@@@__crt_stdio_output@@IAE_NXZ 100511f0 f i libucrtd:output.obj
 0001:00050200       ?should_skip_normal_state_processing@?$standard_base@DV?$string_output_adapter@D@__crt_stdio_output@@@__crt_stdio_output@@IAE_NXZ 10051200 f i libucrtd:output.obj
 0001:00050210       ?should_skip_normal_state_processing@?$standard_base@_WV?$stream_output_adapter@_W@__crt_stdio_output@@@__crt_stdio_output@@IAE_NXZ 10051210 f i libucrtd:output.obj
 0001:00050220       ?should_skip_normal_state_processing@?$standard_base@_WV?$string_output_adapter@_W@__crt_stdio_output@@@__crt_stdio_output@@IAE_NXZ 10051220 f i libucrtd:output.obj
 0001:00050230       ?should_skip_type_state_output@?$positional_parameter_base@DV?$stream_output_adapter@D@__crt_stdio_output@@@__crt_stdio_output@@IBE_NXZ 10051230 f i libucrtd:output.obj
 0001:00050270       ?should_skip_type_state_output@?$positional_parameter_base@DV?$string_output_adapter@D@__crt_stdio_output@@@__crt_stdio_output@@IBE_NXZ 10051270 f i libucrtd:output.obj
 0001:000502b0       ?should_skip_type_state_output@?$positional_parameter_base@_WV?$stream_output_adapter@_W@__crt_stdio_output@@@__crt_stdio_output@@IBE_NXZ 100512b0 f i libucrtd:output.obj
 0001:000502f0       ?should_skip_type_state_output@?$positional_parameter_base@_WV?$string_output_adapter@_W@__crt_stdio_output@@@__crt_stdio_output@@IBE_NXZ 100512f0 f i libucrtd:output.obj
 0001:00050330       ?should_skip_type_state_output@?$standard_base@DV?$stream_output_adapter@D@__crt_stdio_output@@@__crt_stdio_output@@IBE_NXZ 10051330 f i libucrtd:output.obj
 0001:00050340       ?should_skip_type_state_output@?$standard_base@DV?$string_output_adapter@D@__crt_stdio_output@@@__crt_stdio_output@@IBE_NXZ 10051340 f i libucrtd:output.obj
 0001:00050350       ?should_skip_type_state_output@?$standard_base@_WV?$stream_output_adapter@_W@__crt_stdio_output@@@__crt_stdio_output@@IBE_NXZ 10051350 f i libucrtd:output.obj
 0001:00050360       ?should_skip_type_state_output@?$standard_base@_WV?$string_output_adapter@_W@__crt_stdio_output@@@__crt_stdio_output@@IBE_NXZ 10051360 f i libucrtd:output.obj
 0001:00050370       ?state_case_dot@?$output_processor@DV?$stream_output_adapter@D@__crt_stdio_output@@V?$format_validation_base@DV?$stream_output_adapter@D@__crt_stdio_output@@@2@@__crt_stdio_output@@AAE_NXZ 10051370 f i libucrtd:output.obj
 0001:00050390       ?state_case_dot@?$output_processor@DV?$stream_output_adapter@D@__crt_stdio_output@@V?$positional_parameter_base@DV?$stream_output_adapter@D@__crt_stdio_output@@@2@@__crt_stdio_output@@AAE_NXZ 10051390 f i libucrtd:output.obj
 0001:000503b0       ?state_case_dot@?$output_processor@DV?$stream_output_adapter@D@__crt_stdio_output@@V?$standard_base@DV?$stream_output_adapter@D@__crt_stdio_output@@@2@@__crt_stdio_output@@AAE_NXZ 100513b0 f i libucrtd:output.obj
 0001:000503d0       ?state_case_dot@?$output_processor@DV?$string_output_adapter@D@__crt_stdio_output@@V?$format_validation_base@DV?$string_output_adapter@D@__crt_stdio_output@@@2@@__crt_stdio_output@@AAE_NXZ 100513d0 f i libucrtd:output.obj
 0001:000503f0       ?state_case_dot@?$output_processor@DV?$string_output_adapter@D@__crt_stdio_output@@V?$positional_parameter_base@DV?$string_output_adapter@D@__crt_stdio_output@@@2@@__crt_stdio_output@@AAE_NXZ 100513f0 f i libucrtd:output.obj
 0001:00050410       ?state_case_dot@?$output_processor@DV?$string_output_adapter@D@__crt_stdio_output@@V?$standard_base@DV?$string_output_adapter@D@__crt_stdio_output@@@2@@__crt_stdio_output@@AAE_NXZ 10051410 f i libucrtd:output.obj
 0001:00050430       ?state_case_dot@?$output_processor@_WV?$stream_output_adapter@_W@__crt_stdio_output@@V?$format_validation_base@_WV?$stream_output_adapter@_W@__crt_stdio_output@@@2@@__crt_stdio_output@@AAE_NXZ 10051430 f i libucrtd:output.obj
 0001:00050450       ?state_case_dot@?$output_processor@_WV?$stream_output_adapter@_W@__crt_stdio_output@@V?$positional_parameter_base@_WV?$stream_output_adapter@_W@__crt_stdio_output@@@2@@__crt_stdio_output@@AAE_NXZ 10051450 f i libucrtd:output.obj
 0001:00050470       ?state_case_dot@?$output_processor@_WV?$stream_output_adapter@_W@__crt_stdio_output@@V?$standard_base@_WV?$stream_output_adapter@_W@__crt_stdio_output@@@2@@__crt_stdio_output@@AAE_NXZ 10051470 f i libucrtd:output.obj
 0001:00050490       ?state_case_dot@?$output_processor@_WV?$string_output_adapter@_W@__crt_stdio_output@@V?$format_validation_base@_WV?$string_output_adapter@_W@__crt_stdio_output@@@2@@__crt_stdio_output@@AAE_NXZ 10051490 f i libucrtd:output.obj
 0001:000504b0       ?state_case_dot@?$output_processor@_WV?$string_output_adapter@_W@__crt_stdio_output@@V?$positional_parameter_base@_WV?$string_output_adapter@_W@__crt_stdio_output@@@2@@__crt_stdio_output@@AAE_NXZ 100514b0 f i libucrtd:output.obj
 0001:000504d0       ?state_case_dot@?$output_processor@_WV?$string_output_adapter@_W@__crt_stdio_output@@V?$standard_base@_WV?$string_output_adapter@_W@__crt_stdio_output@@@2@@__crt_stdio_output@@AAE_NXZ 100514d0 f i libucrtd:output.obj
 0001:000504f0       ?state_case_flag@?$output_processor@DV?$stream_output_adapter@D@__crt_stdio_output@@V?$format_validation_base@DV?$stream_output_adapter@D@__crt_stdio_output@@@2@@__crt_stdio_output@@AAE_NXZ 100514f0 f i libucrtd:output.obj
 0001:000505a0       ?state_case_flag@?$output_processor@DV?$stream_output_adapter@D@__crt_stdio_output@@V?$positional_parameter_base@DV?$stream_output_adapter@D@__crt_stdio_output@@@2@@__crt_stdio_output@@AAE_NXZ 100515a0 f i libucrtd:output.obj
 0001:00050650       ?state_case_flag@?$output_processor@DV?$stream_output_adapter@D@__crt_stdio_output@@V?$standard_base@DV?$stream_output_adapter@D@__crt_stdio_output@@@2@@__crt_stdio_output@@AAE_NXZ 10051650 f i libucrtd:output.obj
 0001:00050700       ?state_case_flag@?$output_processor@DV?$string_output_adapter@D@__crt_stdio_output@@V?$format_validation_base@DV?$string_output_adapter@D@__crt_stdio_output@@@2@@__crt_stdio_output@@AAE_NXZ 10051700 f i libucrtd:output.obj
 0001:000507b0       ?state_case_flag@?$output_processor@DV?$string_output_adapter@D@__crt_stdio_output@@V?$positional_parameter_base@DV?$string_output_adapter@D@__crt_stdio_output@@@2@@__crt_stdio_output@@AAE_NXZ 100517b0 f i libucrtd:output.obj
 0001:00050860       ?state_case_flag@?$output_processor@DV?$string_output_adapter@D@__crt_stdio_output@@V?$standard_base@DV?$string_output_adapter@D@__crt_stdio_output@@@2@@__crt_stdio_output@@AAE_NXZ 10051860 f i libucrtd:output.obj
 0001:00050910       ?state_case_flag@?$output_processor@_WV?$stream_output_adapter@_W@__crt_stdio_output@@V?$format_validation_base@_WV?$stream_output_adapter@_W@__crt_stdio_output@@@2@@__crt_stdio_output@@AAE_NXZ 10051910 f i libucrtd:output.obj
 0001:000509c0       ?state_case_flag@?$output_processor@_WV?$stream_output_adapter@_W@__crt_stdio_output@@V?$positional_parameter_base@_WV?$stream_output_adapter@_W@__crt_stdio_output@@@2@@__crt_stdio_output@@AAE_NXZ 100519c0 f i libucrtd:output.obj
 0001:00050a70       ?state_case_flag@?$output_processor@_WV?$stream_output_adapter@_W@__crt_stdio_output@@V?$standard_base@_WV?$stream_output_adapter@_W@__crt_stdio_output@@@2@@__crt_stdio_output@@AAE_NXZ 10051a70 f i libucrtd:output.obj
 0001:00050b20       ?state_case_flag@?$output_processor@_WV?$string_output_adapter@_W@__crt_stdio_output@@V?$format_validation_base@_WV?$string_output_adapter@_W@__crt_stdio_output@@@2@@__crt_stdio_output@@AAE_NXZ 10051b20 f i libucrtd:output.obj
 0001:00050bd0       ?state_case_flag@?$output_processor@_WV?$string_output_adapter@_W@__crt_stdio_output@@V?$positional_parameter_base@_WV?$string_output_adapter@_W@__crt_stdio_output@@@2@@__crt_stdio_output@@AAE_NXZ 10051bd0 f i libucrtd:output.obj
 0001:00050c80       ?state_case_flag@?$output_processor@_WV?$string_output_adapter@_W@__crt_stdio_output@@V?$standard_base@_WV?$string_output_adapter@_W@__crt_stdio_output@@@2@@__crt_stdio_output@@AAE_NXZ 10051c80 f i libucrtd:output.obj
 0001:00050d30       ?state_case_normal@?$output_processor@DV?$stream_output_adapter@D@__crt_stdio_output@@V?$format_validation_base@DV?$stream_output_adapter@D@__crt_stdio_output@@@2@@__crt_stdio_output@@AAE_NXZ 10051d30 f i libucrtd:output.obj
 0001:00050de0       ?state_case_normal@?$output_processor@DV?$stream_output_adapter@D@__crt_stdio_output@@V?$positional_parameter_base@DV?$stream_output_adapter@D@__crt_stdio_output@@@2@@__crt_stdio_output@@AAE_NXZ 10051de0 f i libucrtd:output.obj
 0001:00050e90       ?state_case_normal@?$output_processor@DV?$stream_output_adapter@D@__crt_stdio_output@@V?$standard_base@DV?$stream_output_adapter@D@__crt_stdio_output@@@2@@__crt_stdio_output@@AAE_NXZ 10051e90 f i libucrtd:output.obj
 0001:00050f40       ?state_case_normal@?$output_processor@DV?$string_output_adapter@D@__crt_stdio_output@@V?$format_validation_base@DV?$string_output_adapter@D@__crt_stdio_output@@@2@@__crt_stdio_output@@AAE_NXZ 10051f40 f i libucrtd:output.obj
 0001:00050ff0       ?state_case_normal@?$output_processor@DV?$string_output_adapter@D@__crt_stdio_output@@V?$positional_parameter_base@DV?$string_output_adapter@D@__crt_stdio_output@@@2@@__crt_stdio_output@@AAE_NXZ 10051ff0 f i libucrtd:output.obj
 0001:000510a0       ?state_case_normal@?$output_processor@DV?$string_output_adapter@D@__crt_stdio_output@@V?$standard_base@DV?$string_output_adapter@D@__crt_stdio_output@@@2@@__crt_stdio_output@@AAE_NXZ 100520a0 f i libucrtd:output.obj
 0001:00051150       ?state_case_normal@?$output_processor@_WV?$stream_output_adapter@_W@__crt_stdio_output@@V?$format_validation_base@_WV?$stream_output_adapter@_W@__crt_stdio_output@@@2@@__crt_stdio_output@@AAE_NXZ 10052150 f i libucrtd:output.obj
 0001:00051200       ?state_case_normal@?$output_processor@_WV?$stream_output_adapter@_W@__crt_stdio_output@@V?$positional_parameter_base@_WV?$stream_output_adapter@_W@__crt_stdio_output@@@2@@__crt_stdio_output@@AAE_NXZ 10052200 f i libucrtd:output.obj
 0001:000512b0       ?state_case_normal@?$output_processor@_WV?$stream_output_adapter@_W@__crt_stdio_output@@V?$standard_base@_WV?$stream_output_adapter@_W@__crt_stdio_output@@@2@@__crt_stdio_output@@AAE_NXZ 100522b0 f i libucrtd:output.obj
 0001:00051360       ?state_case_normal@?$output_processor@_WV?$string_output_adapter@_W@__crt_stdio_output@@V?$format_validation_base@_WV?$string_output_adapter@_W@__crt_stdio_output@@@2@@__crt_stdio_output@@AAE_NXZ 10052360 f i libucrtd:output.obj
 0001:00051410       ?state_case_normal@?$output_processor@_WV?$string_output_adapter@_W@__crt_stdio_output@@V?$positional_parameter_base@_WV?$string_output_adapter@_W@__crt_stdio_output@@@2@@__crt_stdio_output@@AAE_NXZ 10052410 f i libucrtd:output.obj
 0001:000514c0       ?state_case_normal@?$output_processor@_WV?$string_output_adapter@_W@__crt_stdio_output@@V?$standard_base@_WV?$string_output_adapter@_W@__crt_stdio_output@@@2@@__crt_stdio_output@@AAE_NXZ 100524c0 f i libucrtd:output.obj
 0001:00051570       ?state_case_normal_common@?$output_processor@DV?$stream_output_adapter@D@__crt_stdio_output@@V?$format_validation_base@DV?$stream_output_adapter@D@__crt_stdio_output@@@2@@__crt_stdio_output@@AAE_NXZ 10052570 f i libucrtd:output.obj
 0001:000515c0       ?state_case_normal_common@?$output_processor@DV?$stream_output_adapter@D@__crt_stdio_output@@V?$positional_parameter_base@DV?$stream_output_adapter@D@__crt_stdio_output@@@2@@__crt_stdio_output@@AAE_NXZ 100525c0 f i libucrtd:output.obj
 0001:00051610       ?state_case_normal_common@?$output_processor@DV?$stream_output_adapter@D@__crt_stdio_output@@V?$standard_base@DV?$stream_output_adapter@D@__crt_stdio_output@@@2@@__crt_stdio_output@@AAE_NXZ 10052610 f i libucrtd:output.obj
 0001:00051660       ?state_case_normal_common@?$output_processor@DV?$string_output_adapter@D@__crt_stdio_output@@V?$format_validation_base@DV?$string_output_adapter@D@__crt_stdio_output@@@2@@__crt_stdio_output@@AAE_NXZ 10052660 f i libucrtd:output.obj
 0001:000516b0       ?state_case_normal_common@?$output_processor@DV?$string_output_adapter@D@__crt_stdio_output@@V?$positional_parameter_base@DV?$string_output_adapter@D@__crt_stdio_output@@@2@@__crt_stdio_output@@AAE_NXZ 100526b0 f i libucrtd:output.obj
 0001:00051700       ?state_case_normal_common@?$output_processor@DV?$string_output_adapter@D@__crt_stdio_output@@V?$standard_base@DV?$string_output_adapter@D@__crt_stdio_output@@@2@@__crt_stdio_output@@AAE_NXZ 10052700 f i libucrtd:output.obj
 0001:00051750       ?state_case_normal_common@?$output_processor@_WV?$stream_output_adapter@_W@__crt_stdio_output@@V?$format_validation_base@_WV?$stream_output_adapter@_W@__crt_stdio_output@@@2@@__crt_stdio_output@@AAE_NXZ 10052750 f i libucrtd:output.obj
 0001:000517a0       ?state_case_normal_common@?$output_processor@_WV?$stream_output_adapter@_W@__crt_stdio_output@@V?$positional_parameter_base@_WV?$stream_output_adapter@_W@__crt_stdio_output@@@2@@__crt_stdio_output@@AAE_NXZ 100527a0 f i libucrtd:output.obj
 0001:000517f0       ?state_case_normal_common@?$output_processor@_WV?$stream_output_adapter@_W@__crt_stdio_output@@V?$standard_base@_WV?$stream_output_adapter@_W@__crt_stdio_output@@@2@@__crt_stdio_output@@AAE_NXZ 100527f0 f i libucrtd:output.obj
 0001:00051840       ?state_case_normal_common@?$output_processor@_WV?$string_output_adapter@_W@__crt_stdio_output@@V?$format_validation_base@_WV?$string_output_adapter@_W@__crt_stdio_output@@@2@@__crt_stdio_output@@AAE_NXZ 10052840 f i libucrtd:output.obj
 0001:00051890       ?state_case_normal_common@?$output_processor@_WV?$string_output_adapter@_W@__crt_stdio_output@@V?$positional_parameter_base@_WV?$string_output_adapter@_W@__crt_stdio_output@@@2@@__crt_stdio_output@@AAE_NXZ 10052890 f i libucrtd:output.obj
 0001:000518e0       ?state_case_normal_common@?$output_processor@_WV?$string_output_adapter@_W@__crt_stdio_output@@V?$standard_base@_WV?$string_output_adapter@_W@__crt_stdio_output@@@2@@__crt_stdio_output@@AAE_NXZ 100528e0 f i libucrtd:output.obj
 0001:00051930       ?state_case_normal_tchar@?$output_processor@DV?$stream_output_adapter@D@__crt_stdio_output@@V?$format_validation_base@DV?$stream_output_adapter@D@__crt_stdio_output@@@2@@__crt_stdio_output@@AAE_ND@Z 10052930 f i libucrtd:output.obj
 0001:00051a30       ?state_case_normal_tchar@?$output_processor@DV?$stream_output_adapter@D@__crt_stdio_output@@V?$positional_parameter_base@DV?$stream_output_adapter@D@__crt_stdio_output@@@2@@__crt_stdio_output@@AAE_ND@Z 10052a30 f i libucrtd:output.obj
 0001:00051b30       ?state_case_normal_tchar@?$output_processor@DV?$stream_output_adapter@D@__crt_stdio_output@@V?$standard_base@DV?$stream_output_adapter@D@__crt_stdio_output@@@2@@__crt_stdio_output@@AAE_ND@Z 10052b30 f i libucrtd:output.obj
 0001:00051c30       ?state_case_normal_tchar@?$output_processor@DV?$string_output_adapter@D@__crt_stdio_output@@V?$format_validation_base@DV?$string_output_adapter@D@__crt_stdio_output@@@2@@__crt_stdio_output@@AAE_ND@Z 10052c30 f i libucrtd:output.obj
 0001:00051d30       ?state_case_normal_tchar@?$output_processor@DV?$string_output_adapter@D@__crt_stdio_output@@V?$positional_parameter_base@DV?$string_output_adapter@D@__crt_stdio_output@@@2@@__crt_stdio_output@@AAE_ND@Z 10052d30 f i libucrtd:output.obj
 0001:00051e30       ?state_case_normal_tchar@?$output_processor@DV?$string_output_adapter@D@__crt_stdio_output@@V?$standard_base@DV?$string_output_adapter@D@__crt_stdio_output@@@2@@__crt_stdio_output@@AAE_ND@Z 10052e30 f i libucrtd:output.obj
 0001:00051f30       ?state_case_normal_tchar@?$output_processor@_WV?$stream_output_adapter@_W@__crt_stdio_output@@V?$format_validation_base@_WV?$stream_output_adapter@_W@__crt_stdio_output@@@2@@__crt_stdio_output@@AAE_N_W@Z 10052f30 f i libucrtd:output.obj
 0001:00051f50       ?state_case_normal_tchar@?$output_processor@_WV?$stream_output_adapter@_W@__crt_stdio_output@@V?$positional_parameter_base@_WV?$stream_output_adapter@_W@__crt_stdio_output@@@2@@__crt_stdio_output@@AAE_N_W@Z 10052f50 f i libucrtd:output.obj
 0001:00051f70       ?state_case_normal_tchar@?$output_processor@_WV?$stream_output_adapter@_W@__crt_stdio_output@@V?$standard_base@_WV?$stream_output_adapter@_W@__crt_stdio_output@@@2@@__crt_stdio_output@@AAE_N_W@Z 10052f70 f i libucrtd:output.obj
 0001:00051f90       ?state_case_normal_tchar@?$output_processor@_WV?$string_output_adapter@_W@__crt_stdio_output@@V?$format_validation_base@_WV?$string_output_adapter@_W@__crt_stdio_output@@@2@@__crt_stdio_output@@AAE_N_W@Z 10052f90 f i libucrtd:output.obj
 0001:00051fb0       ?state_case_normal_tchar@?$output_processor@_WV?$string_output_adapter@_W@__crt_stdio_output@@V?$positional_parameter_base@_WV?$string_output_adapter@_W@__crt_stdio_output@@@2@@__crt_stdio_output@@AAE_N_W@Z 10052fb0 f i libucrtd:output.obj
 0001:00051fd0       ?state_case_normal_tchar@?$output_processor@_WV?$string_output_adapter@_W@__crt_stdio_output@@V?$standard_base@_WV?$string_output_adapter@_W@__crt_stdio_output@@@2@@__crt_stdio_output@@AAE_N_W@Z 10052fd0 f i libucrtd:output.obj
 0001:00051ff0       ?state_case_percent@?$output_processor@DV?$stream_output_adapter@D@__crt_stdio_output@@V?$format_validation_base@DV?$stream_output_adapter@D@__crt_stdio_output@@@2@@__crt_stdio_output@@AAE_NXZ 10052ff0 f i libucrtd:output.obj
 0001:00052040       ?state_case_percent@?$output_processor@DV?$stream_output_adapter@D@__crt_stdio_output@@V?$positional_parameter_base@DV?$stream_output_adapter@D@__crt_stdio_output@@@2@@__crt_stdio_output@@AAE_NXZ 10053040 f i libucrtd:output.obj
 0001:00052090       ?state_case_percent@?$output_processor@DV?$stream_output_adapter@D@__crt_stdio_output@@V?$standard_base@DV?$stream_output_adapter@D@__crt_stdio_output@@@2@@__crt_stdio_output@@AAE_NXZ 10053090 f i libucrtd:output.obj
 0001:000520e0       ?state_case_percent@?$output_processor@DV?$string_output_adapter@D@__crt_stdio_output@@V?$format_validation_base@DV?$string_output_adapter@D@__crt_stdio_output@@@2@@__crt_stdio_output@@AAE_NXZ 100530e0 f i libucrtd:output.obj
 0001:00052130       ?state_case_percent@?$output_processor@DV?$string_output_adapter@D@__crt_stdio_output@@V?$positional_parameter_base@DV?$string_output_adapter@D@__crt_stdio_output@@@2@@__crt_stdio_output@@AAE_NXZ 10053130 f i libucrtd:output.obj
 0001:00052180       ?state_case_percent@?$output_processor@DV?$string_output_adapter@D@__crt_stdio_output@@V?$standard_base@DV?$string_output_adapter@D@__crt_stdio_output@@@2@@__crt_stdio_output@@AAE_NXZ 10053180 f i libucrtd:output.obj
 0001:000521d0       ?state_case_percent@?$output_processor@_WV?$stream_output_adapter@_W@__crt_stdio_output@@V?$format_validation_base@_WV?$stream_output_adapter@_W@__crt_stdio_output@@@2@@__crt_stdio_output@@AAE_NXZ 100531d0 f i libucrtd:output.obj
 0001:00052220       ?state_case_percent@?$output_processor@_WV?$stream_output_adapter@_W@__crt_stdio_output@@V?$positional_parameter_base@_WV?$stream_output_adapter@_W@__crt_stdio_output@@@2@@__crt_stdio_output@@AAE_NXZ 10053220 f i libucrtd:output.obj
 0001:00052270       ?state_case_percent@?$output_processor@_WV?$stream_output_adapter@_W@__crt_stdio_output@@V?$standard_base@_WV?$stream_output_adapter@_W@__crt_stdio_output@@@2@@__crt_stdio_output@@AAE_NXZ 10053270 f i libucrtd:output.obj
 0001:000522c0       ?state_case_percent@?$output_processor@_WV?$string_output_adapter@_W@__crt_stdio_output@@V?$format_validation_base@_WV?$string_output_adapter@_W@__crt_stdio_output@@@2@@__crt_stdio_output@@AAE_NXZ 100532c0 f i libucrtd:output.obj
 0001:00052310       ?state_case_percent@?$output_processor@_WV?$string_output_adapter@_W@__crt_stdio_output@@V?$positional_parameter_base@_WV?$string_output_adapter@_W@__crt_stdio_output@@@2@@__crt_stdio_output@@AAE_NXZ 10053310 f i libucrtd:output.obj
 0001:00052360       ?state_case_percent@?$output_processor@_WV?$string_output_adapter@_W@__crt_stdio_output@@V?$standard_base@_WV?$string_output_adapter@_W@__crt_stdio_output@@@2@@__crt_stdio_output@@AAE_NXZ 10053360 f i libucrtd:output.obj
 0001:000523b0       ?state_case_precision@?$output_processor@DV?$stream_output_adapter@D@__crt_stdio_output@@V?$format_validation_base@DV?$stream_output_adapter@D@__crt_stdio_output@@@2@@__crt_stdio_output@@AAE_NXZ 100533b0 f i libucrtd:output.obj
 0001:00052420       ?state_case_precision@?$output_processor@DV?$stream_output_adapter@D@__crt_stdio_output@@V?$positional_parameter_base@DV?$stream_output_adapter@D@__crt_stdio_output@@@2@@__crt_stdio_output@@AAE_NXZ 10053420 f i libucrtd:output.obj
 0001:00052490       ?state_case_precision@?$output_processor@DV?$stream_output_adapter@D@__crt_stdio_output@@V?$standard_base@DV?$stream_output_adapter@D@__crt_stdio_output@@@2@@__crt_stdio_output@@AAE_NXZ 10053490 f i libucrtd:output.obj
 0001:00052500       ?state_case_precision@?$output_processor@DV?$string_output_adapter@D@__crt_stdio_output@@V?$format_validation_base@DV?$string_output_adapter@D@__crt_stdio_output@@@2@@__crt_stdio_output@@AAE_NXZ 10053500 f i libucrtd:output.obj
 0001:00052570       ?state_case_precision@?$output_processor@DV?$string_output_adapter@D@__crt_stdio_output@@V?$positional_parameter_base@DV?$string_output_adapter@D@__crt_stdio_output@@@2@@__crt_stdio_output@@AAE_NXZ 10053570 f i libucrtd:output.obj
 0001:000525e0       ?state_case_precision@?$output_processor@DV?$string_output_adapter@D@__crt_stdio_output@@V?$standard_base@DV?$string_output_adapter@D@__crt_stdio_output@@@2@@__crt_stdio_output@@AAE_NXZ 100535e0 f i libucrtd:output.obj
 0001:00052650       ?state_case_precision@?$output_processor@_WV?$stream_output_adapter@_W@__crt_stdio_output@@V?$format_validation_base@_WV?$stream_output_adapter@_W@__crt_stdio_output@@@2@@__crt_stdio_output@@AAE_NXZ 10053650 f i libucrtd:output.obj
 0001:000526c0       ?state_case_precision@?$output_processor@_WV?$stream_output_adapter@_W@__crt_stdio_output@@V?$positional_parameter_base@_WV?$stream_output_adapter@_W@__crt_stdio_output@@@2@@__crt_stdio_output@@AAE_NXZ 100536c0 f i libucrtd:output.obj
 0001:00052730       ?state_case_precision@?$output_processor@_WV?$stream_output_adapter@_W@__crt_stdio_output@@V?$standard_base@_WV?$stream_output_adapter@_W@__crt_stdio_output@@@2@@__crt_stdio_output@@AAE_NXZ 10053730 f i libucrtd:output.obj
 0001:000527a0       ?state_case_precision@?$output_processor@_WV?$string_output_adapter@_W@__crt_stdio_output@@V?$format_validation_base@_WV?$string_output_adapter@_W@__crt_stdio_output@@@2@@__crt_stdio_output@@AAE_NXZ 100537a0 f i libucrtd:output.obj
 0001:00052810       ?state_case_precision@?$output_processor@_WV?$string_output_adapter@_W@__crt_stdio_output@@V?$positional_parameter_base@_WV?$string_output_adapter@_W@__crt_stdio_output@@@2@@__crt_stdio_output@@AAE_NXZ 10053810 f i libucrtd:output.obj
 0001:00052880       ?state_case_precision@?$output_processor@_WV?$string_output_adapter@_W@__crt_stdio_output@@V?$standard_base@_WV?$string_output_adapter@_W@__crt_stdio_output@@@2@@__crt_stdio_output@@AAE_NXZ 10053880 f i libucrtd:output.obj
 0001:000528f0       ?state_case_size@?$output_processor@DV?$stream_output_adapter@D@__crt_stdio_output@@V?$format_validation_base@DV?$stream_output_adapter@D@__crt_stdio_output@@@2@@__crt_stdio_output@@AAE_NXZ 100538f0 f i libucrtd:output.obj
 0001:00052cc0       ?state_case_size@?$output_processor@DV?$stream_output_adapter@D@__crt_stdio_output@@V?$positional_parameter_base@DV?$stream_output_adapter@D@__crt_stdio_output@@@2@@__crt_stdio_output@@AAE_NXZ 10053cc0 f i libucrtd:output.obj
 0001:00053090       ?state_case_size@?$output_processor@DV?$stream_output_adapter@D@__crt_stdio_output@@V?$standard_base@DV?$stream_output_adapter@D@__crt_stdio_output@@@2@@__crt_stdio_output@@AAE_NXZ 10054090 f i libucrtd:output.obj
 0001:00053460       ?state_case_size@?$output_processor@DV?$string_output_adapter@D@__crt_stdio_output@@V?$format_validation_base@DV?$string_output_adapter@D@__crt_stdio_output@@@2@@__crt_stdio_output@@AAE_NXZ 10054460 f i libucrtd:output.obj
 0001:00053830       ?state_case_size@?$output_processor@DV?$string_output_adapter@D@__crt_stdio_output@@V?$positional_parameter_base@DV?$string_output_adapter@D@__crt_stdio_output@@@2@@__crt_stdio_output@@AAE_NXZ 10054830 f i libucrtd:output.obj
 0001:00053c00       ?state_case_size@?$output_processor@DV?$string_output_adapter@D@__crt_stdio_output@@V?$standard_base@DV?$string_output_adapter@D@__crt_stdio_output@@@2@@__crt_stdio_output@@AAE_NXZ 10054c00 f i libucrtd:output.obj
 0001:00053fd0       ?state_case_size@?$output_processor@_WV?$stream_output_adapter@_W@__crt_stdio_output@@V?$format_validation_base@_WV?$stream_output_adapter@_W@__crt_stdio_output@@@2@@__crt_stdio_output@@AAE_NXZ 10054fd0 f i libucrtd:output.obj
 0001:000543a0       ?state_case_size@?$output_processor@_WV?$stream_output_adapter@_W@__crt_stdio_output@@V?$positional_parameter_base@_WV?$stream_output_adapter@_W@__crt_stdio_output@@@2@@__crt_stdio_output@@AAE_NXZ 100553a0 f i libucrtd:output.obj
 0001:00054770       ?state_case_size@?$output_processor@_WV?$stream_output_adapter@_W@__crt_stdio_output@@V?$standard_base@_WV?$stream_output_adapter@_W@__crt_stdio_output@@@2@@__crt_stdio_output@@AAE_NXZ 10055770 f i libucrtd:output.obj
 0001:00054b40       ?state_case_size@?$output_processor@_WV?$string_output_adapter@_W@__crt_stdio_output@@V?$format_validation_base@_WV?$string_output_adapter@_W@__crt_stdio_output@@@2@@__crt_stdio_output@@AAE_NXZ 10055b40 f i libucrtd:output.obj
 0001:00054f10       ?state_case_size@?$output_processor@_WV?$string_output_adapter@_W@__crt_stdio_output@@V?$positional_parameter_base@_WV?$string_output_adapter@_W@__crt_stdio_output@@@2@@__crt_stdio_output@@AAE_NXZ 10055f10 f i libucrtd:output.obj
 0001:000552e0       ?state_case_size@?$output_processor@_WV?$string_output_adapter@_W@__crt_stdio_output@@V?$standard_base@_WV?$string_output_adapter@_W@__crt_stdio_output@@@2@@__crt_stdio_output@@AAE_NXZ 100562e0 f i libucrtd:output.obj
 0001:000556b0       ?state_case_type@?$output_processor@DV?$stream_output_adapter@D@__crt_stdio_output@@V?$format_validation_base@DV?$stream_output_adapter@D@__crt_stdio_output@@@2@@__crt_stdio_output@@AAE_NXZ 100566b0 f i libucrtd:output.obj
 0001:00055a60       ?state_case_type@?$output_processor@DV?$stream_output_adapter@D@__crt_stdio_output@@V?$positional_parameter_base@DV?$stream_output_adapter@D@__crt_stdio_output@@@2@@__crt_stdio_output@@AAE_NXZ 10056a60 f i libucrtd:output.obj
 0001:00055e10       ?state_case_type@?$output_processor@DV?$stream_output_adapter@D@__crt_stdio_output@@V?$standard_base@DV?$stream_output_adapter@D@__crt_stdio_output@@@2@@__crt_stdio_output@@AAE_NXZ 10056e10 f i libucrtd:output.obj
 0001:000561c0       ?state_case_type@?$output_processor@DV?$string_output_adapter@D@__crt_stdio_output@@V?$format_validation_base@DV?$string_output_adapter@D@__crt_stdio_output@@@2@@__crt_stdio_output@@AAE_NXZ 100571c0 f i libucrtd:output.obj
 0001:00056570       ?state_case_type@?$output_processor@DV?$string_output_adapter@D@__crt_stdio_output@@V?$positional_parameter_base@DV?$string_output_adapter@D@__crt_stdio_output@@@2@@__crt_stdio_output@@AAE_NXZ 10057570 f i libucrtd:output.obj
 0001:00056920       ?state_case_type@?$output_processor@DV?$string_output_adapter@D@__crt_stdio_output@@V?$standard_base@DV?$string_output_adapter@D@__crt_stdio_output@@@2@@__crt_stdio_output@@AAE_NXZ 10057920 f i libucrtd:output.obj
 0001:00056cd0       ?state_case_type@?$output_processor@_WV?$stream_output_adapter@_W@__crt_stdio_output@@V?$format_validation_base@_WV?$stream_output_adapter@_W@__crt_stdio_output@@@2@@__crt_stdio_output@@AAE_NXZ 10057cd0 f i libucrtd:output.obj
 0001:000570b0       ?state_case_type@?$output_processor@_WV?$stream_output_adapter@_W@__crt_stdio_output@@V?$positional_parameter_base@_WV?$stream_output_adapter@_W@__crt_stdio_output@@@2@@__crt_stdio_output@@AAE_NXZ 100580b0 f i libucrtd:output.obj
 0001:00057490       ?state_case_type@?$output_processor@_WV?$stream_output_adapter@_W@__crt_stdio_output@@V?$standard_base@_WV?$stream_output_adapter@_W@__crt_stdio_output@@@2@@__crt_stdio_output@@AAE_NXZ 10058490 f i libucrtd:output.obj
 0001:00057870       ?state_case_type@?$output_processor@_WV?$string_output_adapter@_W@__crt_stdio_output@@V?$format_validation_base@_WV?$string_output_adapter@_W@__crt_stdio_output@@@2@@__crt_stdio_output@@AAE_NXZ 10058870 f i libucrtd:output.obj
 0001:00057c50       ?state_case_type@?$output_processor@_WV?$string_output_adapter@_W@__crt_stdio_output@@V?$positional_parameter_base@_WV?$string_output_adapter@_W@__crt_stdio_output@@@2@@__crt_stdio_output@@AAE_NXZ 10058c50 f i libucrtd:output.obj
 0001:00058030       ?state_case_type@?$output_processor@_WV?$string_output_adapter@_W@__crt_stdio_output@@V?$standard_base@_WV?$string_output_adapter@_W@__crt_stdio_output@@@2@@__crt_stdio_output@@AAE_NXZ 10059030 f i libucrtd:output.obj
 0001:00058410       ?state_case_width@?$output_processor@DV?$stream_output_adapter@D@__crt_stdio_output@@V?$format_validation_base@DV?$stream_output_adapter@D@__crt_stdio_output@@@2@@__crt_stdio_output@@AAE_NXZ 10059410 f i libucrtd:output.obj
 0001:00058490       ?state_case_width@?$output_processor@DV?$stream_output_adapter@D@__crt_stdio_output@@V?$positional_parameter_base@DV?$stream_output_adapter@D@__crt_stdio_output@@@2@@__crt_stdio_output@@AAE_NXZ 10059490 f i libucrtd:output.obj
 0001:00058510       ?state_case_width@?$output_processor@DV?$stream_output_adapter@D@__crt_stdio_output@@V?$standard_base@DV?$stream_output_adapter@D@__crt_stdio_output@@@2@@__crt_stdio_output@@AAE_NXZ 10059510 f i libucrtd:output.obj
 0001:00058590       ?state_case_width@?$output_processor@DV?$string_output_adapter@D@__crt_stdio_output@@V?$format_validation_base@DV?$string_output_adapter@D@__crt_stdio_output@@@2@@__crt_stdio_output@@AAE_NXZ 10059590 f i libucrtd:output.obj
 0001:00058610       ?state_case_width@?$output_processor@DV?$string_output_adapter@D@__crt_stdio_output@@V?$positional_parameter_base@DV?$string_output_adapter@D@__crt_stdio_output@@@2@@__crt_stdio_output@@AAE_NXZ 10059610 f i libucrtd:output.obj
 0001:00058690       ?state_case_width@?$output_processor@DV?$string_output_adapter@D@__crt_stdio_output@@V?$standard_base@DV?$string_output_adapter@D@__crt_stdio_output@@@2@@__crt_stdio_output@@AAE_NXZ 10059690 f i libucrtd:output.obj
 0001:00058710       ?state_case_width@?$output_processor@_WV?$stream_output_adapter@_W@__crt_stdio_output@@V?$format_validation_base@_WV?$stream_output_adapter@_W@__crt_stdio_output@@@2@@__crt_stdio_output@@AAE_NXZ 10059710 f i libucrtd:output.obj
 0001:00058790       ?state_case_width@?$output_processor@_WV?$stream_output_adapter@_W@__crt_stdio_output@@V?$positional_parameter_base@_WV?$stream_output_adapter@_W@__crt_stdio_output@@@2@@__crt_stdio_output@@AAE_NXZ 10059790 f i libucrtd:output.obj
 0001:00058810       ?state_case_width@?$output_processor@_WV?$stream_output_adapter@_W@__crt_stdio_output@@V?$standard_base@_WV?$stream_output_adapter@_W@__crt_stdio_output@@@2@@__crt_stdio_output@@AAE_NXZ 10059810 f i libucrtd:output.obj
 0001:00058890       ?state_case_width@?$output_processor@_WV?$string_output_adapter@_W@__crt_stdio_output@@V?$format_validation_base@_WV?$string_output_adapter@_W@__crt_stdio_output@@@2@@__crt_stdio_output@@AAE_NXZ 10059890 f i libucrtd:output.obj
 0001:00058910       ?state_case_width@?$output_processor@_WV?$string_output_adapter@_W@__crt_stdio_output@@V?$positional_parameter_base@_WV?$string_output_adapter@_W@__crt_stdio_output@@@2@@__crt_stdio_output@@AAE_NXZ 10059910 f i libucrtd:output.obj
 0001:00058990       ?state_case_width@?$output_processor@_WV?$string_output_adapter@_W@__crt_stdio_output@@V?$standard_base@_WV?$string_output_adapter@_W@__crt_stdio_output@@@2@@__crt_stdio_output@@AAE_NXZ 10059990 f i libucrtd:output.obj
 0001:00058a10       ?state_count@?$format_validation_base@DV?$stream_output_adapter@D@__crt_stdio_output@@@__crt_stdio_output@@KAIXZ 10059a10 f i libucrtd:output.obj
 0001:00058a20       ?state_count@?$format_validation_base@DV?$string_output_adapter@D@__crt_stdio_output@@@__crt_stdio_output@@KAIXZ 10059a20 f i libucrtd:output.obj
 0001:00058a30       ?state_count@?$format_validation_base@_WV?$stream_output_adapter@_W@__crt_stdio_output@@@__crt_stdio_output@@KAIXZ 10059a30 f i libucrtd:output.obj
 0001:00058a40       ?state_count@?$format_validation_base@_WV?$string_output_adapter@_W@__crt_stdio_output@@@__crt_stdio_output@@KAIXZ 10059a40 f i libucrtd:output.obj
 0001:00058a50       ?state_count@?$standard_base@DV?$stream_output_adapter@D@__crt_stdio_output@@@__crt_stdio_output@@KAIXZ 10059a50 f i libucrtd:output.obj
 0001:00058a60       ?state_count@?$standard_base@DV?$string_output_adapter@D@__crt_stdio_output@@@__crt_stdio_output@@KAIXZ 10059a60 f i libucrtd:output.obj
 0001:00058a70       ?state_count@?$standard_base@_WV?$stream_output_adapter@_W@__crt_stdio_output@@@__crt_stdio_output@@KAIXZ 10059a70 f i libucrtd:output.obj
 0001:00058a80       ?state_count@?$standard_base@_WV?$string_output_adapter@_W@__crt_stdio_output@@@__crt_stdio_output@@KAIXZ 10059a80 f i libucrtd:output.obj
 0001:00058a90       ?state_transition_table@?$format_validation_base@DV?$stream_output_adapter@D@__crt_stdio_output@@@__crt_stdio_output@@KAABV?$spectre_mitigated_lookup_table@Ustate_transition_pair@__crt_stdio_output@@$0IA@@2@XZ 10059a90 f i libucrtd:output.obj
 0001:00058aa0       ?state_transition_table@?$format_validation_base@DV?$string_output_adapter@D@__crt_stdio_output@@@__crt_stdio_output@@KAABV?$spectre_mitigated_lookup_table@Ustate_transition_pair@__crt_stdio_output@@$0IA@@2@XZ 10059aa0 f i libucrtd:output.obj
 0001:00058ab0       ?state_transition_table@?$format_validation_base@_WV?$stream_output_adapter@_W@__crt_stdio_output@@@__crt_stdio_output@@KAABV?$spectre_mitigated_lookup_table@Ustate_transition_pair@__crt_stdio_output@@$0IA@@2@XZ 10059ab0 f i libucrtd:output.obj
 0001:00058ac0       ?state_transition_table@?$format_validation_base@_WV?$string_output_adapter@_W@__crt_stdio_output@@@__crt_stdio_output@@KAABV?$spectre_mitigated_lookup_table@Ustate_transition_pair@__crt_stdio_output@@$0IA@@2@XZ 10059ac0 f i libucrtd:output.obj
 0001:00058ad0       ?state_transition_table@?$standard_base@DV?$stream_output_adapter@D@__crt_stdio_output@@@__crt_stdio_output@@KAABV?$spectre_mitigated_lookup_table@Ustate_transition_pair@__crt_stdio_output@@$0IA@@2@XZ 10059ad0 f i libucrtd:output.obj
 0001:00058ae0       ?state_transition_table@?$standard_base@DV?$string_output_adapter@D@__crt_stdio_output@@@__crt_stdio_output@@KAABV?$spectre_mitigated_lookup_table@Ustate_transition_pair@__crt_stdio_output@@$0IA@@2@XZ 10059ae0 f i libucrtd:output.obj
 0001:00058af0       ?state_transition_table@?$standard_base@_WV?$stream_output_adapter@_W@__crt_stdio_output@@@__crt_stdio_output@@KAABV?$spectre_mitigated_lookup_table@Ustate_transition_pair@__crt_stdio_output@@$0IA@@2@XZ 10059af0 f i libucrtd:output.obj
 0001:00058b00       ?state_transition_table@?$standard_base@_WV?$string_output_adapter@_W@__crt_stdio_output@@@__crt_stdio_output@@KAABV?$spectre_mitigated_lookup_table@Ustate_transition_pair@__crt_stdio_output@@$0IA@@2@XZ 10059b00 f i libucrtd:output.obj
 0001:00058b10       ?tchar_string@?$common_data@D@__crt_stdio_output@@IAEAAPADD@Z 10059b10 f i libucrtd:output.obj
 0001:00058b30       ?tchar_string@?$common_data@D@__crt_stdio_output@@IAEAAPADXZ 10059b30 f i libucrtd:output.obj
 0001:00058b50       ?tchar_string@?$common_data@_W@__crt_stdio_output@@IAEAAPA_WXZ 10059b50 f i libucrtd:output.obj
 0001:00058b70       ?tchar_string@?$common_data@_W@__crt_stdio_output@@IAEAAPA_W_W@Z 10059b70 f i libucrtd:output.obj
 0001:00058b90       ?to_integer_size@__crt_stdio_output@@YAIW4length_modifier@1@@Z 10059b90 f i libucrtd:output.obj
 0001:00058c30       ?type_case_X@?$output_processor@DV?$stream_output_adapter@D@__crt_stdio_output@@V?$format_validation_base@DV?$stream_output_adapter@D@__crt_stdio_output@@@2@@__crt_stdio_output@@AAE_NXZ 10059c30 f i libucrtd:output.obj
 0001:00058c50       ?type_case_X@?$output_processor@DV?$stream_output_adapter@D@__crt_stdio_output@@V?$positional_parameter_base@DV?$stream_output_adapter@D@__crt_stdio_output@@@2@@__crt_stdio_output@@AAE_NXZ 10059c50 f i libucrtd:output.obj
 0001:00058c70       ?type_case_X@?$output_processor@DV?$stream_output_adapter@D@__crt_stdio_output@@V?$standard_base@DV?$stream_output_adapter@D@__crt_stdio_output@@@2@@__crt_stdio_output@@AAE_NXZ 10059c70 f i libucrtd:output.obj
 0001:00058c90       ?type_case_X@?$output_processor@DV?$string_output_adapter@D@__crt_stdio_output@@V?$format_validation_base@DV?$string_output_adapter@D@__crt_stdio_output@@@2@@__crt_stdio_output@@AAE_NXZ 10059c90 f i libucrtd:output.obj
 0001:00058cb0       ?type_case_X@?$output_processor@DV?$string_output_adapter@D@__crt_stdio_output@@V?$positional_parameter_base@DV?$string_output_adapter@D@__crt_stdio_output@@@2@@__crt_stdio_output@@AAE_NXZ 10059cb0 f i libucrtd:output.obj
 0001:00058cd0       ?type_case_X@?$output_processor@DV?$string_output_adapter@D@__crt_stdio_output@@V?$standard_base@DV?$string_output_adapter@D@__crt_stdio_output@@@2@@__crt_stdio_output@@AAE_NXZ 10059cd0 f i libucrtd:output.obj
 0001:00058cf0       ?type_case_X@?$output_processor@_WV?$stream_output_adapter@_W@__crt_stdio_output@@V?$format_validation_base@_WV?$stream_output_adapter@_W@__crt_stdio_output@@@2@@__crt_stdio_output@@AAE_NXZ 10059cf0 f i libucrtd:output.obj
 0001:00058d10       ?type_case_X@?$output_processor@_WV?$stream_output_adapter@_W@__crt_stdio_output@@V?$positional_parameter_base@_WV?$stream_output_adapter@_W@__crt_stdio_output@@@2@@__crt_stdio_output@@AAE_NXZ 10059d10 f i libucrtd:output.obj
 0001:00058d30       ?type_case_X@?$output_processor@_WV?$stream_output_adapter@_W@__crt_stdio_output@@V?$standard_base@_WV?$stream_output_adapter@_W@__crt_stdio_output@@@2@@__crt_stdio_output@@AAE_NXZ 10059d30 f i libucrtd:output.obj
 0001:00058d50       ?type_case_X@?$output_processor@_WV?$string_output_adapter@_W@__crt_stdio_output@@V?$format_validation_base@_WV?$string_output_adapter@_W@__crt_stdio_output@@@2@@__crt_stdio_output@@AAE_NXZ 10059d50 f i libucrtd:output.obj
 0001:00058d70       ?type_case_X@?$output_processor@_WV?$string_output_adapter@_W@__crt_stdio_output@@V?$positional_parameter_base@_WV?$string_output_adapter@_W@__crt_stdio_output@@@2@@__crt_stdio_output@@AAE_NXZ 10059d70 f i libucrtd:output.obj
 0001:00058d90       ?type_case_X@?$output_processor@_WV?$string_output_adapter@_W@__crt_stdio_output@@V?$standard_base@_WV?$string_output_adapter@_W@__crt_stdio_output@@@2@@__crt_stdio_output@@AAE_NXZ 10059d90 f i libucrtd:output.obj
 0001:00058db0       ?type_case_Z@?$output_processor@DV?$stream_output_adapter@D@__crt_stdio_output@@V?$format_validation_base@DV?$stream_output_adapter@D@__crt_stdio_output@@@2@@__crt_stdio_output@@AAE_NXZ 10059db0 f i libucrtd:output.obj
 0001:00058ea0       ?type_case_Z@?$output_processor@DV?$stream_output_adapter@D@__crt_stdio_output@@V?$positional_parameter_base@DV?$stream_output_adapter@D@__crt_stdio_output@@@2@@__crt_stdio_output@@AAE_NXZ 10059ea0 f i libucrtd:output.obj
 0001:00058f90       ?type_case_Z@?$output_processor@DV?$stream_output_adapter@D@__crt_stdio_output@@V?$standard_base@DV?$stream_output_adapter@D@__crt_stdio_output@@@2@@__crt_stdio_output@@AAE_NXZ 10059f90 f i libucrtd:output.obj
 0001:00059080       ?type_case_Z@?$output_processor@DV?$string_output_adapter@D@__crt_stdio_output@@V?$format_validation_base@DV?$string_output_adapter@D@__crt_stdio_output@@@2@@__crt_stdio_output@@AAE_NXZ 1005a080 f i libucrtd:output.obj
 0001:00059170       ?type_case_Z@?$output_processor@DV?$string_output_adapter@D@__crt_stdio_output@@V?$positional_parameter_base@DV?$string_output_adapter@D@__crt_stdio_output@@@2@@__crt_stdio_output@@AAE_NXZ 1005a170 f i libucrtd:output.obj
 0001:00059260       ?type_case_Z@?$output_processor@DV?$string_output_adapter@D@__crt_stdio_output@@V?$standard_base@DV?$string_output_adapter@D@__crt_stdio_output@@@2@@__crt_stdio_output@@AAE_NXZ 1005a260 f i libucrtd:output.obj
 0001:00059350       ?type_case_Z@?$output_processor@_WV?$stream_output_adapter@_W@__crt_stdio_output@@V?$format_validation_base@_WV?$stream_output_adapter@_W@__crt_stdio_output@@@2@@__crt_stdio_output@@AAE_NXZ 1005a350 f i libucrtd:output.obj
 0001:00059440       ?type_case_Z@?$output_processor@_WV?$stream_output_adapter@_W@__crt_stdio_output@@V?$positional_parameter_base@_WV?$stream_output_adapter@_W@__crt_stdio_output@@@2@@__crt_stdio_output@@AAE_NXZ 1005a440 f i libucrtd:output.obj
 0001:00059530       ?type_case_Z@?$output_processor@_WV?$stream_output_adapter@_W@__crt_stdio_output@@V?$standard_base@_WV?$stream_output_adapter@_W@__crt_stdio_output@@@2@@__crt_stdio_output@@AAE_NXZ 1005a530 f i libucrtd:output.obj
 0001:00059620       ?type_case_Z@?$output_processor@_WV?$string_output_adapter@_W@__crt_stdio_output@@V?$format_validation_base@_WV?$string_output_adapter@_W@__crt_stdio_output@@@2@@__crt_stdio_output@@AAE_NXZ 1005a620 f i libucrtd:output.obj
 0001:00059710       ?type_case_Z@?$output_processor@_WV?$string_output_adapter@_W@__crt_stdio_output@@V?$positional_parameter_base@_WV?$string_output_adapter@_W@__crt_stdio_output@@@2@@__crt_stdio_output@@AAE_NXZ 1005a710 f i libucrtd:output.obj
 0001:00059800       ?type_case_Z@?$output_processor@_WV?$string_output_adapter@_W@__crt_stdio_output@@V?$standard_base@_WV?$string_output_adapter@_W@__crt_stdio_output@@@2@@__crt_stdio_output@@AAE_NXZ 1005a800 f i libucrtd:output.obj
 0001:000598f0       ?type_case_a@?$output_processor@DV?$stream_output_adapter@D@__crt_stdio_output@@V?$format_validation_base@DV?$stream_output_adapter@D@__crt_stdio_output@@@2@@__crt_stdio_output@@AAE_NXZ 1005a8f0 f i libucrtd:output.obj
 0001:00059b60       ?type_case_a@?$output_processor@DV?$stream_output_adapter@D@__crt_stdio_output@@V?$positional_parameter_base@DV?$stream_output_adapter@D@__crt_stdio_output@@@2@@__crt_stdio_output@@AAE_NXZ 1005ab60 f i libucrtd:output.obj
 0001:00059dd0       ?type_case_a@?$output_processor@DV?$stream_output_adapter@D@__crt_stdio_output@@V?$standard_base@DV?$stream_output_adapter@D@__crt_stdio_output@@@2@@__crt_stdio_output@@AAE_NXZ 1005add0 f i libucrtd:output.obj
 0001:0005a040       ?type_case_a@?$output_processor@DV?$string_output_adapter@D@__crt_stdio_output@@V?$format_validation_base@DV?$string_output_adapter@D@__crt_stdio_output@@@2@@__crt_stdio_output@@AAE_NXZ 1005b040 f i libucrtd:output.obj
 0001:0005a2b0       ?type_case_a@?$output_processor@DV?$string_output_adapter@D@__crt_stdio_output@@V?$positional_parameter_base@DV?$string_output_adapter@D@__crt_stdio_output@@@2@@__crt_stdio_output@@AAE_NXZ 1005b2b0 f i libucrtd:output.obj
 0001:0005a520       ?type_case_a@?$output_processor@DV?$string_output_adapter@D@__crt_stdio_output@@V?$standard_base@DV?$string_output_adapter@D@__crt_stdio_output@@@2@@__crt_stdio_output@@AAE_NXZ 1005b520 f i libucrtd:output.obj
 0001:0005a790       ?type_case_a@?$output_processor@_WV?$stream_output_adapter@_W@__crt_stdio_output@@V?$format_validation_base@_WV?$stream_output_adapter@_W@__crt_stdio_output@@@2@@__crt_stdio_output@@AAE_NXZ 1005b790 f i libucrtd:output.obj
 0001:0005aa00       ?type_case_a@?$output_processor@_WV?$stream_output_adapter@_W@__crt_stdio_output@@V?$positional_parameter_base@_WV?$stream_output_adapter@_W@__crt_stdio_output@@@2@@__crt_stdio_output@@AAE_NXZ 1005ba00 f i libucrtd:output.obj
 0001:0005ac70       ?type_case_a@?$output_processor@_WV?$stream_output_adapter@_W@__crt_stdio_output@@V?$standard_base@_WV?$stream_output_adapter@_W@__crt_stdio_output@@@2@@__crt_stdio_output@@AAE_NXZ 1005bc70 f i libucrtd:output.obj
 0001:0005aee0       ?type_case_a@?$output_processor@_WV?$string_output_adapter@_W@__crt_stdio_output@@V?$format_validation_base@_WV?$string_output_adapter@_W@__crt_stdio_output@@@2@@__crt_stdio_output@@AAE_NXZ 1005bee0 f i libucrtd:output.obj
 0001:0005b150       ?type_case_a@?$output_processor@_WV?$string_output_adapter@_W@__crt_stdio_output@@V?$positional_parameter_base@_WV?$string_output_adapter@_W@__crt_stdio_output@@@2@@__crt_stdio_output@@AAE_NXZ 1005c150 f i libucrtd:output.obj
 0001:0005b3c0       ?type_case_a@?$output_processor@_WV?$string_output_adapter@_W@__crt_stdio_output@@V?$standard_base@_WV?$string_output_adapter@_W@__crt_stdio_output@@@2@@__crt_stdio_output@@AAE_NXZ 1005c3c0 f i libucrtd:output.obj
 0001:0005b630       ?type_case_c@?$output_processor@DV?$stream_output_adapter@D@__crt_stdio_output@@V?$format_validation_base@DV?$stream_output_adapter@D@__crt_stdio_output@@@2@@__crt_stdio_output@@AAE_NXZ 1005c630 f i libucrtd:output.obj
 0001:0005b650       ?type_case_c@?$output_processor@DV?$stream_output_adapter@D@__crt_stdio_output@@V?$positional_parameter_base@DV?$stream_output_adapter@D@__crt_stdio_output@@@2@@__crt_stdio_output@@AAE_NXZ 1005c650 f i libucrtd:output.obj
 0001:0005b670       ?type_case_c@?$output_processor@DV?$stream_output_adapter@D@__crt_stdio_output@@V?$standard_base@DV?$stream_output_adapter@D@__crt_stdio_output@@@2@@__crt_stdio_output@@AAE_NXZ 1005c670 f i libucrtd:output.obj
 0001:0005b690       ?type_case_c@?$output_processor@DV?$string_output_adapter@D@__crt_stdio_output@@V?$format_validation_base@DV?$string_output_adapter@D@__crt_stdio_output@@@2@@__crt_stdio_output@@AAE_NXZ 1005c690 f i libucrtd:output.obj
 0001:0005b6b0       ?type_case_c@?$output_processor@DV?$string_output_adapter@D@__crt_stdio_output@@V?$positional_parameter_base@DV?$string_output_adapter@D@__crt_stdio_output@@@2@@__crt_stdio_output@@AAE_NXZ 1005c6b0 f i libucrtd:output.obj
 0001:0005b6d0       ?type_case_c@?$output_processor@DV?$string_output_adapter@D@__crt_stdio_output@@V?$standard_base@DV?$string_output_adapter@D@__crt_stdio_output@@@2@@__crt_stdio_output@@AAE_NXZ 1005c6d0 f i libucrtd:output.obj
 0001:0005b6f0       ?type_case_c@?$output_processor@_WV?$stream_output_adapter@_W@__crt_stdio_output@@V?$format_validation_base@_WV?$stream_output_adapter@_W@__crt_stdio_output@@@2@@__crt_stdio_output@@AAE_NXZ 1005c6f0 f i libucrtd:output.obj
 0001:0005b710       ?type_case_c@?$output_processor@_WV?$stream_output_adapter@_W@__crt_stdio_output@@V?$positional_parameter_base@_WV?$stream_output_adapter@_W@__crt_stdio_output@@@2@@__crt_stdio_output@@AAE_NXZ 1005c710 f i libucrtd:output.obj
 0001:0005b730       ?type_case_c@?$output_processor@_WV?$stream_output_adapter@_W@__crt_stdio_output@@V?$standard_base@_WV?$stream_output_adapter@_W@__crt_stdio_output@@@2@@__crt_stdio_output@@AAE_NXZ 1005c730 f i libucrtd:output.obj
 0001:0005b750       ?type_case_c@?$output_processor@_WV?$string_output_adapter@_W@__crt_stdio_output@@V?$format_validation_base@_WV?$string_output_adapter@_W@__crt_stdio_output@@@2@@__crt_stdio_output@@AAE_NXZ 1005c750 f i libucrtd:output.obj
 0001:0005b770       ?type_case_c@?$output_processor@_WV?$string_output_adapter@_W@__crt_stdio_output@@V?$positional_parameter_base@_WV?$string_output_adapter@_W@__crt_stdio_output@@@2@@__crt_stdio_output@@AAE_NXZ 1005c770 f i libucrtd:output.obj
 0001:0005b790       ?type_case_c@?$output_processor@_WV?$string_output_adapter@_W@__crt_stdio_output@@V?$standard_base@_WV?$string_output_adapter@_W@__crt_stdio_output@@@2@@__crt_stdio_output@@AAE_NXZ 1005c790 f i libucrtd:output.obj
 0001:0005b7b0       ?type_case_c_tchar@?$output_processor@DV?$stream_output_adapter@D@__crt_stdio_output@@V?$format_validation_base@DV?$stream_output_adapter@D@__crt_stdio_output@@@2@@__crt_stdio_output@@AAE_ND@Z 1005c7b0 f i libucrtd:output.obj
 0001:0005b8c0       ?type_case_c_tchar@?$output_processor@DV?$stream_output_adapter@D@__crt_stdio_output@@V?$positional_parameter_base@DV?$stream_output_adapter@D@__crt_stdio_output@@@2@@__crt_stdio_output@@AAE_ND@Z 1005c8c0 f i libucrtd:output.obj
 0001:0005b9d0       ?type_case_c_tchar@?$output_processor@DV?$stream_output_adapter@D@__crt_stdio_output@@V?$standard_base@DV?$stream_output_adapter@D@__crt_stdio_output@@@2@@__crt_stdio_output@@AAE_ND@Z 1005c9d0 f i libucrtd:output.obj
 0001:0005bae0       ?type_case_c_tchar@?$output_processor@DV?$string_output_adapter@D@__crt_stdio_output@@V?$format_validation_base@DV?$string_output_adapter@D@__crt_stdio_output@@@2@@__crt_stdio_output@@AAE_ND@Z 1005cae0 f i libucrtd:output.obj
 0001:0005bbf0       ?type_case_c_tchar@?$output_processor@DV?$string_output_adapter@D@__crt_stdio_output@@V?$positional_parameter_base@DV?$string_output_adapter@D@__crt_stdio_output@@@2@@__crt_stdio_output@@AAE_ND@Z 1005cbf0 f i libucrtd:output.obj
 0001:0005bd00       ?type_case_c_tchar@?$output_processor@DV?$string_output_adapter@D@__crt_stdio_output@@V?$standard_base@DV?$string_output_adapter@D@__crt_stdio_output@@@2@@__crt_stdio_output@@AAE_ND@Z 1005cd00 f i libucrtd:output.obj
 0001:0005be10       ?type_case_c_tchar@?$output_processor@_WV?$stream_output_adapter@_W@__crt_stdio_output@@V?$format_validation_base@_WV?$stream_output_adapter@_W@__crt_stdio_output@@@2@@__crt_stdio_output@@AAE_N_W@Z 1005ce10 f i libucrtd:output.obj
 0001:0005bf10       ?type_case_c_tchar@?$output_processor@_WV?$stream_output_adapter@_W@__crt_stdio_output@@V?$positional_parameter_base@_WV?$stream_output_adapter@_W@__crt_stdio_output@@@2@@__crt_stdio_output@@AAE_N_W@Z 1005cf10 f i libucrtd:output.obj
 0001:0005c010       ?type_case_c_tchar@?$output_processor@_WV?$stream_output_adapter@_W@__crt_stdio_output@@V?$standard_base@_WV?$stream_output_adapter@_W@__crt_stdio_output@@@2@@__crt_stdio_output@@AAE_N_W@Z 1005d010 f i libucrtd:output.obj
 0001:0005c110       ?type_case_c_tchar@?$output_processor@_WV?$string_output_adapter@_W@__crt_stdio_output@@V?$format_validation_base@_WV?$string_output_adapter@_W@__crt_stdio_output@@@2@@__crt_stdio_output@@AAE_N_W@Z 1005d110 f i libucrtd:output.obj
 0001:0005c210       ?type_case_c_tchar@?$output_processor@_WV?$string_output_adapter@_W@__crt_stdio_output@@V?$positional_parameter_base@_WV?$string_output_adapter@_W@__crt_stdio_output@@@2@@__crt_stdio_output@@AAE_N_W@Z 1005d210 f i libucrtd:output.obj
 0001:0005c310       ?type_case_c_tchar@?$output_processor@_WV?$string_output_adapter@_W@__crt_stdio_output@@V?$standard_base@_WV?$string_output_adapter@_W@__crt_stdio_output@@@2@@__crt_stdio_output@@AAE_N_W@Z 1005d310 f i libucrtd:output.obj
 0001:0005c410       ?type_case_d@?$output_processor@DV?$stream_output_adapter@D@__crt_stdio_output@@V?$format_validation_base@DV?$stream_output_adapter@D@__crt_stdio_output@@@2@@__crt_stdio_output@@AAE_NXZ 1005d410 f i libucrtd:output.obj
 0001:0005c440       ?type_case_d@?$output_processor@DV?$stream_output_adapter@D@__crt_stdio_output@@V?$positional_parameter_base@DV?$stream_output_adapter@D@__crt_stdio_output@@@2@@__crt_stdio_output@@AAE_NXZ 1005d440 f i libucrtd:output.obj
 0001:0005c470       ?type_case_d@?$output_processor@DV?$stream_output_adapter@D@__crt_stdio_output@@V?$standard_base@DV?$stream_output_adapter@D@__crt_stdio_output@@@2@@__crt_stdio_output@@AAE_NXZ 1005d470 f i libucrtd:output.obj
 0001:0005c4a0       ?type_case_d@?$output_processor@DV?$string_output_adapter@D@__crt_stdio_output@@V?$format_validation_base@DV?$string_output_adapter@D@__crt_stdio_output@@@2@@__crt_stdio_output@@AAE_NXZ 1005d4a0 f i libucrtd:output.obj
 0001:0005c4d0       ?type_case_d@?$output_processor@DV?$string_output_adapter@D@__crt_stdio_output@@V?$positional_parameter_base@DV?$string_output_adapter@D@__crt_stdio_output@@@2@@__crt_stdio_output@@AAE_NXZ 1005d4d0 f i libucrtd:output.obj
 0001:0005c500       ?type_case_d@?$output_processor@DV?$string_output_adapter@D@__crt_stdio_output@@V?$standard_base@DV?$string_output_adapter@D@__crt_stdio_output@@@2@@__crt_stdio_output@@AAE_NXZ 1005d500 f i libucrtd:output.obj
 0001:0005c530       ?type_case_d@?$output_processor@_WV?$stream_output_adapter@_W@__crt_stdio_output@@V?$format_validation_base@_WV?$stream_output_adapter@_W@__crt_stdio_output@@@2@@__crt_stdio_output@@AAE_NXZ 1005d530 f i libucrtd:output.obj
 0001:0005c560       ?type_case_d@?$output_processor@_WV?$stream_output_adapter@_W@__crt_stdio_output@@V?$positional_parameter_base@_WV?$stream_output_adapter@_W@__crt_stdio_output@@@2@@__crt_stdio_output@@AAE_NXZ 1005d560 f i libucrtd:output.obj
 0001:0005c590       ?type_case_d@?$output_processor@_WV?$stream_output_adapter@_W@__crt_stdio_output@@V?$standard_base@_WV?$stream_output_adapter@_W@__crt_stdio_output@@@2@@__crt_stdio_output@@AAE_NXZ 1005d590 f i libucrtd:output.obj
 0001:0005c5c0       ?type_case_d@?$output_processor@_WV?$string_output_adapter@_W@__crt_stdio_output@@V?$format_validation_base@_WV?$string_output_adapter@_W@__crt_stdio_output@@@2@@__crt_stdio_output@@AAE_NXZ 1005d5c0 f i libucrtd:output.obj
 0001:0005c5f0       ?type_case_d@?$output_processor@_WV?$string_output_adapter@_W@__crt_stdio_output@@V?$positional_parameter_base@_WV?$string_output_adapter@_W@__crt_stdio_output@@@2@@__crt_stdio_output@@AAE_NXZ 1005d5f0 f i libucrtd:output.obj
 0001:0005c620       ?type_case_d@?$output_processor@_WV?$string_output_adapter@_W@__crt_stdio_output@@V?$standard_base@_WV?$string_output_adapter@_W@__crt_stdio_output@@@2@@__crt_stdio_output@@AAE_NXZ 1005d620 f i libucrtd:output.obj
 0001:0005c650       ?type_case_integer@?$output_processor@DV?$stream_output_adapter@D@__crt_stdio_output@@V?$format_validation_base@DV?$stream_output_adapter@D@__crt_stdio_output@@@2@@__crt_stdio_output@@AAE_NI_N@Z 1005d650 f i libucrtd:output.obj
 0001:0005c9a0       ?type_case_integer@?$output_processor@DV?$stream_output_adapter@D@__crt_stdio_output@@V?$positional_parameter_base@DV?$stream_output_adapter@D@__crt_stdio_output@@@2@@__crt_stdio_output@@AAE_NI_N@Z 1005d9a0 f i libucrtd:output.obj
 0001:0005ccf0       ?type_case_integer@?$output_processor@DV?$stream_output_adapter@D@__crt_stdio_output@@V?$standard_base@DV?$stream_output_adapter@D@__crt_stdio_output@@@2@@__crt_stdio_output@@AAE_NI_N@Z 1005dcf0 f i libucrtd:output.obj
 0001:0005d040       ?type_case_integer@?$output_processor@DV?$string_output_adapter@D@__crt_stdio_output@@V?$format_validation_base@DV?$string_output_adapter@D@__crt_stdio_output@@@2@@__crt_stdio_output@@AAE_NI_N@Z 1005e040 f i libucrtd:output.obj
 0001:0005d390       ?type_case_integer@?$output_processor@DV?$string_output_adapter@D@__crt_stdio_output@@V?$positional_parameter_base@DV?$string_output_adapter@D@__crt_stdio_output@@@2@@__crt_stdio_output@@AAE_NI_N@Z 1005e390 f i libucrtd:output.obj
 0001:0005d6e0       ?type_case_integer@?$output_processor@DV?$string_output_adapter@D@__crt_stdio_output@@V?$standard_base@DV?$string_output_adapter@D@__crt_stdio_output@@@2@@__crt_stdio_output@@AAE_NI_N@Z 1005e6e0 f i libucrtd:output.obj
 0001:0005da30       ?type_case_integer@?$output_processor@_WV?$stream_output_adapter@_W@__crt_stdio_output@@V?$format_validation_base@_WV?$stream_output_adapter@_W@__crt_stdio_output@@@2@@__crt_stdio_output@@AAE_NI_N@Z 1005ea30 f i libucrtd:output.obj
 0001:0005dd80       ?type_case_integer@?$output_processor@_WV?$stream_output_adapter@_W@__crt_stdio_output@@V?$positional_parameter_base@_WV?$stream_output_adapter@_W@__crt_stdio_output@@@2@@__crt_stdio_output@@AAE_NI_N@Z 1005ed80 f i libucrtd:output.obj
 0001:0005e0d0       ?type_case_integer@?$output_processor@_WV?$stream_output_adapter@_W@__crt_stdio_output@@V?$standard_base@_WV?$stream_output_adapter@_W@__crt_stdio_output@@@2@@__crt_stdio_output@@AAE_NI_N@Z 1005f0d0 f i libucrtd:output.obj
 0001:0005e420       ?type_case_integer@?$output_processor@_WV?$string_output_adapter@_W@__crt_stdio_output@@V?$format_validation_base@_WV?$string_output_adapter@_W@__crt_stdio_output@@@2@@__crt_stdio_output@@AAE_NI_N@Z 1005f420 f i libucrtd:output.obj
 0001:0005e770       ?type_case_integer@?$output_processor@_WV?$string_output_adapter@_W@__crt_stdio_output@@V?$positional_parameter_base@_WV?$string_output_adapter@_W@__crt_stdio_output@@@2@@__crt_stdio_output@@AAE_NI_N@Z 1005f770 f i libucrtd:output.obj
 0001:0005eac0       ?type_case_integer@?$output_processor@_WV?$string_output_adapter@_W@__crt_stdio_output@@V?$standard_base@_WV?$string_output_adapter@_W@__crt_stdio_output@@@2@@__crt_stdio_output@@AAE_NI_N@Z 1005fac0 f i libucrtd:output.obj
 0001:0005ee10       ?type_case_n@?$output_processor@DV?$stream_output_adapter@D@__crt_stdio_output@@V?$format_validation_base@DV?$stream_output_adapter@D@__crt_stdio_output@@@2@@__crt_stdio_output@@AAE_NXZ 1005fe10 f i libucrtd:output.obj
 0001:0005f000       ?type_case_n@?$output_processor@DV?$stream_output_adapter@D@__crt_stdio_output@@V?$positional_parameter_base@DV?$stream_output_adapter@D@__crt_stdio_output@@@2@@__crt_stdio_output@@AAE_NXZ 10060000 f i libucrtd:output.obj
 0001:0005f1f0       ?type_case_n@?$output_processor@DV?$stream_output_adapter@D@__crt_stdio_output@@V?$standard_base@DV?$stream_output_adapter@D@__crt_stdio_output@@@2@@__crt_stdio_output@@AAE_NXZ 100601f0 f i libucrtd:output.obj
 0001:0005f3e0       ?type_case_n@?$output_processor@DV?$string_output_adapter@D@__crt_stdio_output@@V?$format_validation_base@DV?$string_output_adapter@D@__crt_stdio_output@@@2@@__crt_stdio_output@@AAE_NXZ 100603e0 f i libucrtd:output.obj
 0001:0005f5d0       ?type_case_n@?$output_processor@DV?$string_output_adapter@D@__crt_stdio_output@@V?$positional_parameter_base@DV?$string_output_adapter@D@__crt_stdio_output@@@2@@__crt_stdio_output@@AAE_NXZ 100605d0 f i libucrtd:output.obj
 0001:0005f7c0       ?type_case_n@?$output_processor@DV?$string_output_adapter@D@__crt_stdio_output@@V?$standard_base@DV?$string_output_adapter@D@__crt_stdio_output@@@2@@__crt_stdio_output@@AAE_NXZ 100607c0 f i libucrtd:output.obj
 0001:0005f9b0       ?type_case_n@?$output_processor@_WV?$stream_output_adapter@_W@__crt_stdio_output@@V?$format_validation_base@_WV?$stream_output_adapter@_W@__crt_stdio_output@@@2@@__crt_stdio_output@@AAE_NXZ 100609b0 f i libucrtd:output.obj
 0001:0005fba0       ?type_case_n@?$output_processor@_WV?$stream_output_adapter@_W@__crt_stdio_output@@V?$positional_parameter_base@_WV?$stream_output_adapter@_W@__crt_stdio_output@@@2@@__crt_stdio_output@@AAE_NXZ 10060ba0 f i libucrtd:output.obj
 0001:0005fd90       ?type_case_n@?$output_processor@_WV?$stream_output_adapter@_W@__crt_stdio_output@@V?$standard_base@_WV?$stream_output_adapter@_W@__crt_stdio_output@@@2@@__crt_stdio_output@@AAE_NXZ 10060d90 f i libucrtd:output.obj
 0001:0005ff80       ?type_case_n@?$output_processor@_WV?$string_output_adapter@_W@__crt_stdio_output@@V?$format_validation_base@_WV?$string_output_adapter@_W@__crt_stdio_output@@@2@@__crt_stdio_output@@AAE_NXZ 10060f80 f i libucrtd:output.obj
 0001:00060170       ?type_case_n@?$output_processor@_WV?$string_output_adapter@_W@__crt_stdio_output@@V?$positional_parameter_base@_WV?$string_output_adapter@_W@__crt_stdio_output@@@2@@__crt_stdio_output@@AAE_NXZ 10061170 f i libucrtd:output.obj
 0001:00060360       ?type_case_n@?$output_processor@_WV?$string_output_adapter@_W@__crt_stdio_output@@V?$standard_base@_WV?$string_output_adapter@_W@__crt_stdio_output@@@2@@__crt_stdio_output@@AAE_NXZ 10061360 f i libucrtd:output.obj
 0001:00060550       ?type_case_o@?$output_processor@DV?$stream_output_adapter@D@__crt_stdio_output@@V?$format_validation_base@DV?$stream_output_adapter@D@__crt_stdio_output@@@2@@__crt_stdio_output@@AAE_NXZ 10061550 f i libucrtd:output.obj
 0001:00060590       ?type_case_o@?$output_processor@DV?$stream_output_adapter@D@__crt_stdio_output@@V?$positional_parameter_base@DV?$stream_output_adapter@D@__crt_stdio_output@@@2@@__crt_stdio_output@@AAE_NXZ 10061590 f i libucrtd:output.obj
 0001:000605d0       ?type_case_o@?$output_processor@DV?$stream_output_adapter@D@__crt_stdio_output@@V?$standard_base@DV?$stream_output_adapter@D@__crt_stdio_output@@@2@@__crt_stdio_output@@AAE_NXZ 100615d0 f i libucrtd:output.obj
 0001:00060610       ?type_case_o@?$output_processor@DV?$string_output_adapter@D@__crt_stdio_output@@V?$format_validation_base@DV?$string_output_adapter@D@__crt_stdio_output@@@2@@__crt_stdio_output@@AAE_NXZ 10061610 f i libucrtd:output.obj
 0001:00060650       ?type_case_o@?$output_processor@DV?$string_output_adapter@D@__crt_stdio_output@@V?$positional_parameter_base@DV?$string_output_adapter@D@__crt_stdio_output@@@2@@__crt_stdio_output@@AAE_NXZ 10061650 f i libucrtd:output.obj
 0001:00060690       ?type_case_o@?$output_processor@DV?$string_output_adapter@D@__crt_stdio_output@@V?$standard_base@DV?$string_output_adapter@D@__crt_stdio_output@@@2@@__crt_stdio_output@@AAE_NXZ 10061690 f i libucrtd:output.obj
 0001:000606d0       ?type_case_o@?$output_processor@_WV?$stream_output_adapter@_W@__crt_stdio_output@@V?$format_validation_base@_WV?$stream_output_adapter@_W@__crt_stdio_output@@@2@@__crt_stdio_output@@AAE_NXZ 100616d0 f i libucrtd:output.obj
 0001:00060710       ?type_case_o@?$output_processor@_WV?$stream_output_adapter@_W@__crt_stdio_output@@V?$positional_parameter_base@_WV?$stream_output_adapter@_W@__crt_stdio_output@@@2@@__crt_stdio_output@@AAE_NXZ 10061710 f i libucrtd:output.obj
 0001:00060750       ?type_case_o@?$output_processor@_WV?$stream_output_adapter@_W@__crt_stdio_output@@V?$standard_base@_WV?$stream_output_adapter@_W@__crt_stdio_output@@@2@@__crt_stdio_output@@AAE_NXZ 10061750 f i libucrtd:output.obj
 0001:00060790       ?type_case_o@?$output_processor@_WV?$string_output_adapter@_W@__crt_stdio_output@@V?$format_validation_base@_WV?$string_output_adapter@_W@__crt_stdio_output@@@2@@__crt_stdio_output@@AAE_NXZ 10061790 f i libucrtd:output.obj
 0001:000607d0       ?type_case_o@?$output_processor@_WV?$string_output_adapter@_W@__crt_stdio_output@@V?$positional_parameter_base@_WV?$string_output_adapter@_W@__crt_stdio_output@@@2@@__crt_stdio_output@@AAE_NXZ 100617d0 f i libucrtd:output.obj
 0001:00060810       ?type_case_o@?$output_processor@_WV?$string_output_adapter@_W@__crt_stdio_output@@V?$standard_base@_WV?$string_output_adapter@_W@__crt_stdio_output@@@2@@__crt_stdio_output@@AAE_NXZ 10061810 f i libucrtd:output.obj
 0001:00060850       ?type_case_p@?$output_processor@DV?$stream_output_adapter@D@__crt_stdio_output@@V?$format_validation_base@DV?$stream_output_adapter@D@__crt_stdio_output@@@2@@__crt_stdio_output@@AAE_NXZ 10061850 f i libucrtd:output.obj
 0001:00060880       ?type_case_p@?$output_processor@DV?$stream_output_adapter@D@__crt_stdio_output@@V?$positional_parameter_base@DV?$stream_output_adapter@D@__crt_stdio_output@@@2@@__crt_stdio_output@@AAE_NXZ 10061880 f i libucrtd:output.obj
 0001:000608b0       ?type_case_p@?$output_processor@DV?$stream_output_adapter@D@__crt_stdio_output@@V?$standard_base@DV?$stream_output_adapter@D@__crt_stdio_output@@@2@@__crt_stdio_output@@AAE_NXZ 100618b0 f i libucrtd:output.obj
 0001:000608e0       ?type_case_p@?$output_processor@DV?$string_output_adapter@D@__crt_stdio_output@@V?$format_validation_base@DV?$string_output_adapter@D@__crt_stdio_output@@@2@@__crt_stdio_output@@AAE_NXZ 100618e0 f i libucrtd:output.obj
 0001:00060910       ?type_case_p@?$output_processor@DV?$string_output_adapter@D@__crt_stdio_output@@V?$positional_parameter_base@DV?$string_output_adapter@D@__crt_stdio_output@@@2@@__crt_stdio_output@@AAE_NXZ 10061910 f i libucrtd:output.obj
 0001:00060940       ?type_case_p@?$output_processor@DV?$string_output_adapter@D@__crt_stdio_output@@V?$standard_base@DV?$string_output_adapter@D@__crt_stdio_output@@@2@@__crt_stdio_output@@AAE_NXZ 10061940 f i libucrtd:output.obj
 0001:00060970       ?type_case_p@?$output_processor@_WV?$stream_output_adapter@_W@__crt_stdio_output@@V?$format_validation_base@_WV?$stream_output_adapter@_W@__crt_stdio_output@@@2@@__crt_stdio_output@@AAE_NXZ 10061970 f i libucrtd:output.obj
 0001:000609a0       ?type_case_p@?$output_processor@_WV?$stream_output_adapter@_W@__crt_stdio_output@@V?$positional_parameter_base@_WV?$stream_output_adapter@_W@__crt_stdio_output@@@2@@__crt_stdio_output@@AAE_NXZ 100619a0 f i libucrtd:output.obj
 0001:000609d0       ?type_case_p@?$output_processor@_WV?$stream_output_adapter@_W@__crt_stdio_output@@V?$standard_base@_WV?$stream_output_adapter@_W@__crt_stdio_output@@@2@@__crt_stdio_output@@AAE_NXZ 100619d0 f i libucrtd:output.obj
 0001:00060a00       ?type_case_p@?$output_processor@_WV?$string_output_adapter@_W@__crt_stdio_output@@V?$format_validation_base@_WV?$string_output_adapter@_W@__crt_stdio_output@@@2@@__crt_stdio_output@@AAE_NXZ 10061a00 f i libucrtd:output.obj
 0001:00060a30       ?type_case_p@?$output_processor@_WV?$string_output_adapter@_W@__crt_stdio_output@@V?$positional_parameter_base@_WV?$string_output_adapter@_W@__crt_stdio_output@@@2@@__crt_stdio_output@@AAE_NXZ 10061a30 f i libucrtd:output.obj
 0001:00060a60       ?type_case_p@?$output_processor@_WV?$string_output_adapter@_W@__crt_stdio_output@@V?$standard_base@_WV?$string_output_adapter@_W@__crt_stdio_output@@@2@@__crt_stdio_output@@AAE_NXZ 10061a60 f i libucrtd:output.obj
 0001:00060a90       ?type_case_s@?$output_processor@DV?$stream_output_adapter@D@__crt_stdio_output@@V?$format_validation_base@DV?$stream_output_adapter@D@__crt_stdio_output@@@2@@__crt_stdio_output@@AAE_NXZ 10061a90 f i libucrtd:output.obj
 0001:00060b80       ?type_case_s@?$output_processor@DV?$stream_output_adapter@D@__crt_stdio_output@@V?$positional_parameter_base@DV?$stream_output_adapter@D@__crt_stdio_output@@@2@@__crt_stdio_output@@AAE_NXZ 10061b80 f i libucrtd:output.obj
 0001:00060c70       ?type_case_s@?$output_processor@DV?$stream_output_adapter@D@__crt_stdio_output@@V?$standard_base@DV?$stream_output_adapter@D@__crt_stdio_output@@@2@@__crt_stdio_output@@AAE_NXZ 10061c70 f i libucrtd:output.obj
 0001:00060d60       ?type_case_s@?$output_processor@DV?$string_output_adapter@D@__crt_stdio_output@@V?$format_validation_base@DV?$string_output_adapter@D@__crt_stdio_output@@@2@@__crt_stdio_output@@AAE_NXZ 10061d60 f i libucrtd:output.obj
 0001:00060e50       ?type_case_s@?$output_processor@DV?$string_output_adapter@D@__crt_stdio_output@@V?$positional_parameter_base@DV?$string_output_adapter@D@__crt_stdio_output@@@2@@__crt_stdio_output@@AAE_NXZ 10061e50 f i libucrtd:output.obj
 0001:00060f40       ?type_case_s@?$output_processor@DV?$string_output_adapter@D@__crt_stdio_output@@V?$standard_base@DV?$string_output_adapter@D@__crt_stdio_output@@@2@@__crt_stdio_output@@AAE_NXZ 10061f40 f i libucrtd:output.obj
 0001:00061030       ?type_case_s@?$output_processor@_WV?$stream_output_adapter@_W@__crt_stdio_output@@V?$format_validation_base@_WV?$stream_output_adapter@_W@__crt_stdio_output@@@2@@__crt_stdio_output@@AAE_NXZ 10062030 f i libucrtd:output.obj
 0001:00061120       ?type_case_s@?$output_processor@_WV?$stream_output_adapter@_W@__crt_stdio_output@@V?$positional_parameter_base@_WV?$stream_output_adapter@_W@__crt_stdio_output@@@2@@__crt_stdio_output@@AAE_NXZ 10062120 f i libucrtd:output.obj
 0001:00061210       ?type_case_s@?$output_processor@_WV?$stream_output_adapter@_W@__crt_stdio_output@@V?$standard_base@_WV?$stream_output_adapter@_W@__crt_stdio_output@@@2@@__crt_stdio_output@@AAE_NXZ 10062210 f i libucrtd:output.obj
 0001:00061300       ?type_case_s@?$output_processor@_WV?$string_output_adapter@_W@__crt_stdio_output@@V?$format_validation_base@_WV?$string_output_adapter@_W@__crt_stdio_output@@@2@@__crt_stdio_output@@AAE_NXZ 10062300 f i libucrtd:output.obj
 0001:000613f0       ?type_case_s@?$output_processor@_WV?$string_output_adapter@_W@__crt_stdio_output@@V?$positional_parameter_base@_WV?$string_output_adapter@_W@__crt_stdio_output@@@2@@__crt_stdio_output@@AAE_NXZ 100623f0 f i libucrtd:output.obj
 0001:000614e0       ?type_case_s@?$output_processor@_WV?$string_output_adapter@_W@__crt_stdio_output@@V?$standard_base@_WV?$string_output_adapter@_W@__crt_stdio_output@@@2@@__crt_stdio_output@@AAE_NXZ 100624e0 f i libucrtd:output.obj
 0001:000615d0       ?type_case_s_compute_narrow_string_length@?$output_processor@DV?$stream_output_adapter@D@__crt_stdio_output@@V?$format_validation_base@DV?$stream_output_adapter@D@__crt_stdio_output@@@2@@__crt_stdio_output@@ABEHHD@Z 100625d0 f i libucrtd:output.obj
 0001:00061600       ?type_case_s_compute_narrow_string_length@?$output_processor@DV?$stream_output_adapter@D@__crt_stdio_output@@V?$positional_parameter_base@DV?$stream_output_adapter@D@__crt_stdio_output@@@2@@__crt_stdio_output@@ABEHHD@Z 10062600 f i libucrtd:output.obj
 0001:00061630       ?type_case_s_compute_narrow_string_length@?$output_processor@DV?$stream_output_adapter@D@__crt_stdio_output@@V?$standard_base@DV?$stream_output_adapter@D@__crt_stdio_output@@@2@@__crt_stdio_output@@ABEHHD@Z 10062630 f i libucrtd:output.obj
 0001:00061660       ?type_case_s_compute_narrow_string_length@?$output_processor@DV?$string_output_adapter@D@__crt_stdio_output@@V?$format_validation_base@DV?$string_output_adapter@D@__crt_stdio_output@@@2@@__crt_stdio_output@@ABEHHD@Z 10062660 f i libucrtd:output.obj
 0001:00061690       ?type_case_s_compute_narrow_string_length@?$output_processor@DV?$string_output_adapter@D@__crt_stdio_output@@V?$positional_parameter_base@DV?$string_output_adapter@D@__crt_stdio_output@@@2@@__crt_stdio_output@@ABEHHD@Z 10062690 f i libucrtd:output.obj
 0001:000616c0       ?type_case_s_compute_narrow_string_length@?$output_processor@DV?$string_output_adapter@D@__crt_stdio_output@@V?$standard_base@DV?$string_output_adapter@D@__crt_stdio_output@@@2@@__crt_stdio_output@@ABEHHD@Z 100626c0 f i libucrtd:output.obj
 0001:000616f0       ?type_case_s_compute_narrow_string_length@?$output_processor@_WV?$stream_output_adapter@_W@__crt_stdio_output@@V?$format_validation_base@_WV?$stream_output_adapter@_W@__crt_stdio_output@@@2@@__crt_stdio_output@@ABEHH_W@Z 100626f0 f i libucrtd:output.obj
 0001:00061760       ?type_case_s_compute_narrow_string_length@?$output_processor@_WV?$stream_output_adapter@_W@__crt_stdio_output@@V?$positional_parameter_base@_WV?$stream_output_adapter@_W@__crt_stdio_output@@@2@@__crt_stdio_output@@ABEHH_W@Z 10062760 f i libucrtd:output.obj
 0001:000617d0       ?type_case_s_compute_narrow_string_length@?$output_processor@_WV?$stream_output_adapter@_W@__crt_stdio_output@@V?$standard_base@_WV?$stream_output_adapter@_W@__crt_stdio_output@@@2@@__crt_stdio_output@@ABEHH_W@Z 100627d0 f i libucrtd:output.obj
 0001:00061840       ?type_case_s_compute_narrow_string_length@?$output_processor@_WV?$string_output_adapter@_W@__crt_stdio_output@@V?$format_validation_base@_WV?$string_output_adapter@_W@__crt_stdio_output@@@2@@__crt_stdio_output@@ABEHH_W@Z 10062840 f i libucrtd:output.obj
 0001:000618b0       ?type_case_s_compute_narrow_string_length@?$output_processor@_WV?$string_output_adapter@_W@__crt_stdio_output@@V?$positional_parameter_base@_WV?$string_output_adapter@_W@__crt_stdio_output@@@2@@__crt_stdio_output@@ABEHH_W@Z 100628b0 f i libucrtd:output.obj
 0001:00061920       ?type_case_s_compute_narrow_string_length@?$output_processor@_WV?$string_output_adapter@_W@__crt_stdio_output@@V?$standard_base@_WV?$string_output_adapter@_W@__crt_stdio_output@@@2@@__crt_stdio_output@@ABEHH_W@Z 10062920 f i libucrtd:output.obj
 0001:00061990       ?type_case_u@?$output_processor@DV?$stream_output_adapter@D@__crt_stdio_output@@V?$format_validation_base@DV?$stream_output_adapter@D@__crt_stdio_output@@@2@@__crt_stdio_output@@AAE_NXZ 10062990 f i libucrtd:output.obj
 0001:000619b0       ?type_case_u@?$output_processor@DV?$stream_output_adapter@D@__crt_stdio_output@@V?$positional_parameter_base@DV?$stream_output_adapter@D@__crt_stdio_output@@@2@@__crt_stdio_output@@AAE_NXZ 100629b0 f i libucrtd:output.obj
 0001:000619d0       ?type_case_u@?$output_processor@DV?$stream_output_adapter@D@__crt_stdio_output@@V?$standard_base@DV?$stream_output_adapter@D@__crt_stdio_output@@@2@@__crt_stdio_output@@AAE_NXZ 100629d0 f i libucrtd:output.obj
 0001:000619f0       ?type_case_u@?$output_processor@DV?$string_output_adapter@D@__crt_stdio_output@@V?$format_validation_base@DV?$string_output_adapter@D@__crt_stdio_output@@@2@@__crt_stdio_output@@AAE_NXZ 100629f0 f i libucrtd:output.obj
 0001:00061a10       ?type_case_u@?$output_processor@DV?$string_output_adapter@D@__crt_stdio_output@@V?$positional_parameter_base@DV?$string_output_adapter@D@__crt_stdio_output@@@2@@__crt_stdio_output@@AAE_NXZ 10062a10 f i libucrtd:output.obj
 0001:00061a30       ?type_case_u@?$output_processor@DV?$string_output_adapter@D@__crt_stdio_output@@V?$standard_base@DV?$string_output_adapter@D@__crt_stdio_output@@@2@@__crt_stdio_output@@AAE_NXZ 10062a30 f i libucrtd:output.obj
 0001:00061a50       ?type_case_u@?$output_processor@_WV?$stream_output_adapter@_W@__crt_stdio_output@@V?$format_validation_base@_WV?$stream_output_adapter@_W@__crt_stdio_output@@@2@@__crt_stdio_output@@AAE_NXZ 10062a50 f i libucrtd:output.obj
 0001:00061a70       ?type_case_u@?$output_processor@_WV?$stream_output_adapter@_W@__crt_stdio_output@@V?$positional_parameter_base@_WV?$stream_output_adapter@_W@__crt_stdio_output@@@2@@__crt_stdio_output@@AAE_NXZ 10062a70 f i libucrtd:output.obj
 0001:00061a90       ?type_case_u@?$output_processor@_WV?$stream_output_adapter@_W@__crt_stdio_output@@V?$standard_base@_WV?$stream_output_adapter@_W@__crt_stdio_output@@@2@@__crt_stdio_output@@AAE_NXZ 10062a90 f i libucrtd:output.obj
 0001:00061ab0       ?type_case_u@?$output_processor@_WV?$string_output_adapter@_W@__crt_stdio_output@@V?$format_validation_base@_WV?$string_output_adapter@_W@__crt_stdio_output@@@2@@__crt_stdio_output@@AAE_NXZ 10062ab0 f i libucrtd:output.obj
 0001:00061ad0       ?type_case_u@?$output_processor@_WV?$string_output_adapter@_W@__crt_stdio_output@@V?$positional_parameter_base@_WV?$string_output_adapter@_W@__crt_stdio_output@@@2@@__crt_stdio_output@@AAE_NXZ 10062ad0 f i libucrtd:output.obj
 0001:00061af0       ?type_case_u@?$output_processor@_WV?$string_output_adapter@_W@__crt_stdio_output@@V?$standard_base@_WV?$string_output_adapter@_W@__crt_stdio_output@@@2@@__crt_stdio_output@@AAE_NXZ 10062af0 f i libucrtd:output.obj
 0001:00061b10       ?type_case_x@?$output_processor@DV?$stream_output_adapter@D@__crt_stdio_output@@V?$format_validation_base@DV?$stream_output_adapter@D@__crt_stdio_output@@@2@@__crt_stdio_output@@AAE_NXZ 10062b10 f i libucrtd:output.obj
 0001:00061b30       ?type_case_x@?$output_processor@DV?$stream_output_adapter@D@__crt_stdio_output@@V?$positional_parameter_base@DV?$stream_output_adapter@D@__crt_stdio_output@@@2@@__crt_stdio_output@@AAE_NXZ 10062b30 f i libucrtd:output.obj
 0001:00061b50       ?type_case_x@?$output_processor@DV?$stream_output_adapter@D@__crt_stdio_output@@V?$standard_base@DV?$stream_output_adapter@D@__crt_stdio_output@@@2@@__crt_stdio_output@@AAE_NXZ 10062b50 f i libucrtd:output.obj
 0001:00061b70       ?type_case_x@?$output_processor@DV?$string_output_adapter@D@__crt_stdio_output@@V?$format_validation_base@DV?$string_output_adapter@D@__crt_stdio_output@@@2@@__crt_stdio_output@@AAE_NXZ 10062b70 f i libucrtd:output.obj
 0001:00061b90       ?type_case_x@?$output_processor@DV?$string_output_adapter@D@__crt_stdio_output@@V?$positional_parameter_base@DV?$string_output_adapter@D@__crt_stdio_output@@@2@@__crt_stdio_output@@AAE_NXZ 10062b90 f i libucrtd:output.obj
 0001:00061bb0       ?type_case_x@?$output_processor@DV?$string_output_adapter@D@__crt_stdio_output@@V?$standard_base@DV?$string_output_adapter@D@__crt_stdio_output@@@2@@__crt_stdio_output@@AAE_NXZ 10062bb0 f i libucrtd:output.obj
 0001:00061bd0       ?type_case_x@?$output_processor@_WV?$stream_output_adapter@_W@__crt_stdio_output@@V?$format_validation_base@_WV?$stream_output_adapter@_W@__crt_stdio_output@@@2@@__crt_stdio_output@@AAE_NXZ 10062bd0 f i libucrtd:output.obj
 0001:00061bf0       ?type_case_x@?$output_processor@_WV?$stream_output_adapter@_W@__crt_stdio_output@@V?$positional_parameter_base@_WV?$stream_output_adapter@_W@__crt_stdio_output@@@2@@__crt_stdio_output@@AAE_NXZ 10062bf0 f i libucrtd:output.obj
 0001:00061c10       ?type_case_x@?$output_processor@_WV?$stream_output_adapter@_W@__crt_stdio_output@@V?$standard_base@_WV?$stream_output_adapter@_W@__crt_stdio_output@@@2@@__crt_stdio_output@@AAE_NXZ 10062c10 f i libucrtd:output.obj
 0001:00061c30       ?type_case_x@?$output_processor@_WV?$string_output_adapter@_W@__crt_stdio_output@@V?$format_validation_base@_WV?$string_output_adapter@_W@__crt_stdio_output@@@2@@__crt_stdio_output@@AAE_NXZ 10062c30 f i libucrtd:output.obj
 0001:00061c50       ?type_case_x@?$output_processor@_WV?$string_output_adapter@_W@__crt_stdio_output@@V?$positional_parameter_base@_WV?$string_output_adapter@_W@__crt_stdio_output@@@2@@__crt_stdio_output@@AAE_NXZ 10062c50 f i libucrtd:output.obj
 0001:00061c70       ?type_case_x@?$output_processor@_WV?$string_output_adapter@_W@__crt_stdio_output@@V?$standard_base@_WV?$string_output_adapter@_W@__crt_stdio_output@@@2@@__crt_stdio_output@@AAE_NXZ 10062c70 f i libucrtd:output.obj
 0001:00061c90       ?unset_flag@?$output_processor@DV?$stream_output_adapter@D@__crt_stdio_output@@V?$format_validation_base@DV?$stream_output_adapter@D@__crt_stdio_output@@@2@@__crt_stdio_output@@AAEXI@Z 10062c90 f i libucrtd:output.obj
 0001:00061cb0       ?unset_flag@?$output_processor@DV?$stream_output_adapter@D@__crt_stdio_output@@V?$positional_parameter_base@DV?$stream_output_adapter@D@__crt_stdio_output@@@2@@__crt_stdio_output@@AAEXI@Z 10062cb0 f i libucrtd:output.obj
 0001:00061cd0       ?unset_flag@?$output_processor@DV?$stream_output_adapter@D@__crt_stdio_output@@V?$standard_base@DV?$stream_output_adapter@D@__crt_stdio_output@@@2@@__crt_stdio_output@@AAEXI@Z 10062cd0 f i libucrtd:output.obj
 0001:00061cf0       ?unset_flag@?$output_processor@DV?$string_output_adapter@D@__crt_stdio_output@@V?$format_validation_base@DV?$string_output_adapter@D@__crt_stdio_output@@@2@@__crt_stdio_output@@AAEXI@Z 10062cf0 f i libucrtd:output.obj
 0001:00061d10       ?unset_flag@?$output_processor@DV?$string_output_adapter@D@__crt_stdio_output@@V?$positional_parameter_base@DV?$string_output_adapter@D@__crt_stdio_output@@@2@@__crt_stdio_output@@AAEXI@Z 10062d10 f i libucrtd:output.obj
 0001:00061d30       ?unset_flag@?$output_processor@DV?$string_output_adapter@D@__crt_stdio_output@@V?$standard_base@DV?$string_output_adapter@D@__crt_stdio_output@@@2@@__crt_stdio_output@@AAEXI@Z 10062d30 f i libucrtd:output.obj
 0001:00061d50       ?unset_flag@?$output_processor@_WV?$stream_output_adapter@_W@__crt_stdio_output@@V?$format_validation_base@_WV?$stream_output_adapter@_W@__crt_stdio_output@@@2@@__crt_stdio_output@@AAEXI@Z 10062d50 f i libucrtd:output.obj
 0001:00061d70       ?unset_flag@?$output_processor@_WV?$stream_output_adapter@_W@__crt_stdio_output@@V?$positional_parameter_base@_WV?$stream_output_adapter@_W@__crt_stdio_output@@@2@@__crt_stdio_output@@AAEXI@Z 10062d70 f i libucrtd:output.obj
 0001:00061d90       ?unset_flag@?$output_processor@_WV?$stream_output_adapter@_W@__crt_stdio_output@@V?$standard_base@_WV?$stream_output_adapter@_W@__crt_stdio_output@@@2@@__crt_stdio_output@@AAEXI@Z 10062d90 f i libucrtd:output.obj
 0001:00061db0       ?unset_flag@?$output_processor@_WV?$string_output_adapter@_W@__crt_stdio_output@@V?$format_validation_base@_WV?$string_output_adapter@_W@__crt_stdio_output@@@2@@__crt_stdio_output@@AAEXI@Z 10062db0 f i libucrtd:output.obj
 0001:00061dd0       ?unset_flag@?$output_processor@_WV?$string_output_adapter@_W@__crt_stdio_output@@V?$positional_parameter_base@_WV?$string_output_adapter@_W@__crt_stdio_output@@@2@@__crt_stdio_output@@AAEXI@Z 10062dd0 f i libucrtd:output.obj
 0001:00061df0       ?unset_flag@?$output_processor@_WV?$string_output_adapter@_W@__crt_stdio_output@@V?$standard_base@_WV?$string_output_adapter@_W@__crt_stdio_output@@@2@@__crt_stdio_output@@AAEXI@Z 10062df0 f i libucrtd:output.obj
 0001:00061e10       ?update_field_width@?$positional_parameter_base@DV?$stream_output_adapter@D@__crt_stdio_output@@@__crt_stdio_output@@IAE_NXZ 10062e10 f i libucrtd:output.obj
 0001:00061f90       ?update_field_width@?$positional_parameter_base@DV?$string_output_adapter@D@__crt_stdio_output@@@__crt_stdio_output@@IAE_NXZ 10062f90 f i libucrtd:output.obj
 0001:00062110       ?update_field_width@?$positional_parameter_base@_WV?$stream_output_adapter@_W@__crt_stdio_output@@@__crt_stdio_output@@IAE_NXZ 10063110 f i libucrtd:output.obj
 0001:00062290       ?update_field_width@?$positional_parameter_base@_WV?$string_output_adapter@_W@__crt_stdio_output@@@__crt_stdio_output@@IAE_NXZ 10063290 f i libucrtd:output.obj
 0001:00062410       ?update_field_width@?$standard_base@DV?$stream_output_adapter@D@__crt_stdio_output@@@__crt_stdio_output@@IAE_NXZ 10063410 f i libucrtd:output.obj
 0001:00062440       ?update_field_width@?$standard_base@DV?$string_output_adapter@D@__crt_stdio_output@@@__crt_stdio_output@@IAE_NXZ 10063440 f i libucrtd:output.obj
 0001:00062470       ?update_field_width@?$standard_base@_WV?$stream_output_adapter@_W@__crt_stdio_output@@@__crt_stdio_output@@IAE_NXZ 10063470 f i libucrtd:output.obj
 0001:000624a0       ?update_field_width@?$standard_base@_WV?$string_output_adapter@_W@__crt_stdio_output@@@__crt_stdio_output@@IAE_NXZ 100634a0 f i libucrtd:output.obj
 0001:000624d0       ?update_precision@?$positional_parameter_base@DV?$stream_output_adapter@D@__crt_stdio_output@@@__crt_stdio_output@@IAE_NXZ 100634d0 f i libucrtd:output.obj
 0001:00062650       ?update_precision@?$positional_parameter_base@DV?$string_output_adapter@D@__crt_stdio_output@@@__crt_stdio_output@@IAE_NXZ 10063650 f i libucrtd:output.obj
 0001:000627d0       ?update_precision@?$positional_parameter_base@_WV?$stream_output_adapter@_W@__crt_stdio_output@@@__crt_stdio_output@@IAE_NXZ 100637d0 f i libucrtd:output.obj
 0001:00062950       ?update_precision@?$positional_parameter_base@_WV?$string_output_adapter@_W@__crt_stdio_output@@@__crt_stdio_output@@IAE_NXZ 10063950 f i libucrtd:output.obj
 0001:00062ad0       ?update_precision@?$standard_base@DV?$stream_output_adapter@D@__crt_stdio_output@@@__crt_stdio_output@@IAE_NXZ 10063ad0 f i libucrtd:output.obj
 0001:00062b00       ?update_precision@?$standard_base@DV?$string_output_adapter@D@__crt_stdio_output@@@__crt_stdio_output@@IAE_NXZ 10063b00 f i libucrtd:output.obj
 0001:00062b30       ?update_precision@?$standard_base@_WV?$stream_output_adapter@_W@__crt_stdio_output@@@__crt_stdio_output@@IAE_NXZ 10063b30 f i libucrtd:output.obj
 0001:00062b60       ?update_precision@?$standard_base@_WV?$string_output_adapter@_W@__crt_stdio_output@@@__crt_stdio_output@@IAE_NXZ 10063b60 f i libucrtd:output.obj
 0001:00062b90       ?valid@__crt_stdio_stream@@QBE_NXZ 10063b90 f i libucrtd:output.obj
 0001:00062bc0       ?validate@?$stream_output_adapter@D@__crt_stdio_output@@QBE_NXZ 10063bc0 f i libucrtd:output.obj
 0001:00062c70       ?validate@?$stream_output_adapter@_W@__crt_stdio_output@@QBE_NXZ 10063c70 f i libucrtd:output.obj
 0001:00062d20       ?validate@?$string_output_adapter@D@__crt_stdio_output@@QBE_NXZ 10063d20 f i libucrtd:output.obj
 0001:00062db0       ?validate@?$string_output_adapter@_W@__crt_stdio_output@@QBE_NXZ 10063db0 f i libucrtd:output.obj
 0001:00062e40       ?validate_and_store_parameter_data@?$positional_parameter_base@DV?$stream_output_adapter@D@__crt_stdio_output@@@__crt_stdio_output@@AAE_NAAUparameter_data@12@W4parameter_type@12@DW4length_modifier@2@@Z 10063e40 f i libucrtd:output.obj
 0001:00062f10       ?validate_and_store_parameter_data@?$positional_parameter_base@DV?$string_output_adapter@D@__crt_stdio_output@@@__crt_stdio_output@@AAE_NAAUparameter_data@12@W4parameter_type@12@DW4length_modifier@2@@Z 10063f10 f i libucrtd:output.obj
 0001:00062fe0       ?validate_and_store_parameter_data@?$positional_parameter_base@_WV?$stream_output_adapter@_W@__crt_stdio_output@@@__crt_stdio_output@@AAE_NAAUparameter_data@12@W4parameter_type@12@_WW4length_modifier@2@@Z 10063fe0 f i libucrtd:output.obj
 0001:000630c0       ?validate_and_store_parameter_data@?$positional_parameter_base@_WV?$string_output_adapter@_W@__crt_stdio_output@@@__crt_stdio_output@@AAE_NAAUparameter_data@12@W4parameter_type@12@_WW4length_modifier@2@@Z 100640c0 f i libucrtd:output.obj
 0001:000631a0       ?validate_and_update_state_at_beginning_of_format_character@?$positional_parameter_base@DV?$stream_output_adapter@D@__crt_stdio_output@@@__crt_stdio_output@@IAE_NXZ 100641a0 f i libucrtd:output.obj
 0001:000633c0       ?validate_and_update_state_at_beginning_of_format_character@?$positional_parameter_base@DV?$string_output_adapter@D@__crt_stdio_output@@@__crt_stdio_output@@IAE_NXZ 100643c0 f i libucrtd:output.obj
 0001:000635e0       ?validate_and_update_state_at_beginning_of_format_character@?$positional_parameter_base@_WV?$stream_output_adapter@_W@__crt_stdio_output@@@__crt_stdio_output@@IAE_NXZ 100645e0 f i libucrtd:output.obj
 0001:00063800       ?validate_and_update_state_at_beginning_of_format_character@?$positional_parameter_base@_WV?$string_output_adapter@_W@__crt_stdio_output@@@__crt_stdio_output@@IAE_NXZ 10064800 f i libucrtd:output.obj
 0001:00063a20       ?validate_and_update_state_at_beginning_of_format_character@?$standard_base@DV?$stream_output_adapter@D@__crt_stdio_output@@@__crt_stdio_output@@IAE_NXZ 10064a20 f i libucrtd:output.obj
 0001:00063a30       ?validate_and_update_state_at_beginning_of_format_character@?$standard_base@DV?$string_output_adapter@D@__crt_stdio_output@@@__crt_stdio_output@@IAE_NXZ 10064a30 f i libucrtd:output.obj
 0001:00063a40       ?validate_and_update_state_at_beginning_of_format_character@?$standard_base@_WV?$stream_output_adapter@_W@__crt_stdio_output@@@__crt_stdio_output@@IAE_NXZ 10064a40 f i libucrtd:output.obj
 0001:00063a50       ?validate_and_update_state_at_beginning_of_format_character@?$standard_base@_WV?$string_output_adapter@_W@__crt_stdio_output@@@__crt_stdio_output@@IAE_NXZ 10064a50 f i libucrtd:output.obj
 0001:00063a60       ?validate_and_update_state_at_end_of_format_string@?$format_validation_base@DV?$stream_output_adapter@D@__crt_stdio_output@@@__crt_stdio_output@@IBE_NXZ 10064a60 f i libucrtd:output.obj
 0001:00063b00       ?validate_and_update_state_at_end_of_format_string@?$format_validation_base@DV?$string_output_adapter@D@__crt_stdio_output@@@__crt_stdio_output@@IBE_NXZ 10064b00 f i libucrtd:output.obj
 0001:00063ba0       ?validate_and_update_state_at_end_of_format_string@?$format_validation_base@_WV?$stream_output_adapter@_W@__crt_stdio_output@@@__crt_stdio_output@@IBE_NXZ 10064ba0 f i libucrtd:output.obj
 0001:00063c40       ?validate_and_update_state_at_end_of_format_string@?$format_validation_base@_WV?$string_output_adapter@_W@__crt_stdio_output@@@__crt_stdio_output@@IBE_NXZ 10064c40 f i libucrtd:output.obj
 0001:00063ce0       ?validate_and_update_state_at_end_of_format_string@?$positional_parameter_base@DV?$stream_output_adapter@D@__crt_stdio_output@@@__crt_stdio_output@@IAE_NXZ 10064ce0 f i libucrtd:output.obj
 0001:00063e80       ?validate_and_update_state_at_end_of_format_string@?$positional_parameter_base@DV?$string_output_adapter@D@__crt_stdio_output@@@__crt_stdio_output@@IAE_NXZ 10064e80 f i libucrtd:output.obj
 0001:00064020       ?validate_and_update_state_at_end_of_format_string@?$positional_parameter_base@_WV?$stream_output_adapter@_W@__crt_stdio_output@@@__crt_stdio_output@@IAE_NXZ 10065020 f i libucrtd:output.obj
 0001:000641c0       ?validate_and_update_state_at_end_of_format_string@?$positional_parameter_base@_WV?$string_output_adapter@_W@__crt_stdio_output@@@__crt_stdio_output@@IAE_NXZ 100651c0 f i libucrtd:output.obj
 0001:00064360       ?validate_and_update_state_at_end_of_format_string@?$standard_base@DV?$stream_output_adapter@D@__crt_stdio_output@@@__crt_stdio_output@@IBE_NXZ 10065360 f i libucrtd:output.obj
 0001:00064370       ?validate_and_update_state_at_end_of_format_string@?$standard_base@DV?$string_output_adapter@D@__crt_stdio_output@@@__crt_stdio_output@@IBE_NXZ 10065370 f i libucrtd:output.obj
 0001:00064380       ?validate_and_update_state_at_end_of_format_string@?$standard_base@_WV?$stream_output_adapter@_W@__crt_stdio_output@@@__crt_stdio_output@@IBE_NXZ 10065380 f i libucrtd:output.obj
 0001:00064390       ?validate_and_update_state_at_end_of_format_string@?$standard_base@_WV?$string_output_adapter@_W@__crt_stdio_output@@@__crt_stdio_output@@IBE_NXZ 10065390 f i libucrtd:output.obj
 0001:000643a0       ?validate_state_for_type_case_a@?$positional_parameter_base@DV?$stream_output_adapter@D@__crt_stdio_output@@@__crt_stdio_output@@IAE_NXZ 100653a0 f i libucrtd:output.obj
 0001:00064490       ?validate_state_for_type_case_a@?$positional_parameter_base@DV?$string_output_adapter@D@__crt_stdio_output@@@__crt_stdio_output@@IAE_NXZ 10065490 f i libucrtd:output.obj
 0001:00064580       ?validate_state_for_type_case_a@?$positional_parameter_base@_WV?$stream_output_adapter@_W@__crt_stdio_output@@@__crt_stdio_output@@IAE_NXZ 10065580 f i libucrtd:output.obj
 0001:00064670       ?validate_state_for_type_case_a@?$positional_parameter_base@_WV?$string_output_adapter@_W@__crt_stdio_output@@@__crt_stdio_output@@IAE_NXZ 10065670 f i libucrtd:output.obj
 0001:00064760       ?validate_state_for_type_case_a@?$standard_base@DV?$stream_output_adapter@D@__crt_stdio_output@@@__crt_stdio_output@@IBE_NXZ 10065760 f i libucrtd:output.obj
 0001:00064770       ?validate_state_for_type_case_a@?$standard_base@DV?$string_output_adapter@D@__crt_stdio_output@@@__crt_stdio_output@@IBE_NXZ 10065770 f i libucrtd:output.obj
 0001:00064780       ?validate_state_for_type_case_a@?$standard_base@_WV?$stream_output_adapter@_W@__crt_stdio_output@@@__crt_stdio_output@@IBE_NXZ 10065780 f i libucrtd:output.obj
 0001:00064790       ?validate_state_for_type_case_a@?$standard_base@_WV?$string_output_adapter@_W@__crt_stdio_output@@@__crt_stdio_output@@IBE_NXZ 10065790 f i libucrtd:output.obj
 0001:000647a0       ?validate_stream_is_ansi_if_required@?$__acrt_stdio_char_traits@D@@SA_NQAU_iobuf@@@Z 100657a0 f i libucrtd:output.obj
 0001:000648d0       ?validate_stream_is_ansi_if_required@?$__acrt_stdio_char_traits@_W@@SA_NQAU_iobuf@@@Z 100658d0 f i libucrtd:output.obj
 0001:000648e0       ?wide_null_string@?$output_processor@DV?$stream_output_adapter@D@__crt_stdio_output@@V?$format_validation_base@DV?$stream_output_adapter@D@__crt_stdio_output@@@2@@__crt_stdio_output@@CAPA_WXZ 100658e0 f i libucrtd:output.obj
 0001:000648f0       ?wide_null_string@?$output_processor@DV?$stream_output_adapter@D@__crt_stdio_output@@V?$positional_parameter_base@DV?$stream_output_adapter@D@__crt_stdio_output@@@2@@__crt_stdio_output@@CAPA_WXZ 100658f0 f i libucrtd:output.obj
 0001:00064900       ?wide_null_string@?$output_processor@DV?$stream_output_adapter@D@__crt_stdio_output@@V?$standard_base@DV?$stream_output_adapter@D@__crt_stdio_output@@@2@@__crt_stdio_output@@CAPA_WXZ 10065900 f i libucrtd:output.obj
 0001:00064910       ?wide_null_string@?$output_processor@DV?$string_output_adapter@D@__crt_stdio_output@@V?$format_validation_base@DV?$string_output_adapter@D@__crt_stdio_output@@@2@@__crt_stdio_output@@CAPA_WXZ 10065910 f i libucrtd:output.obj
 0001:00064920       ?wide_null_string@?$output_processor@DV?$string_output_adapter@D@__crt_stdio_output@@V?$positional_parameter_base@DV?$string_output_adapter@D@__crt_stdio_output@@@2@@__crt_stdio_output@@CAPA_WXZ 10065920 f i libucrtd:output.obj
 0001:00064930       ?wide_null_string@?$output_processor@DV?$string_output_adapter@D@__crt_stdio_output@@V?$standard_base@DV?$string_output_adapter@D@__crt_stdio_output@@@2@@__crt_stdio_output@@CAPA_WXZ 10065930 f i libucrtd:output.obj
 0001:00064940       ?wide_null_string@?$output_processor@_WV?$stream_output_adapter@_W@__crt_stdio_output@@V?$format_validation_base@_WV?$stream_output_adapter@_W@__crt_stdio_output@@@2@@__crt_stdio_output@@CAPA_WXZ 10065940 f i libucrtd:output.obj
 0001:00064950       ?wide_null_string@?$output_processor@_WV?$stream_output_adapter@_W@__crt_stdio_output@@V?$positional_parameter_base@_WV?$stream_output_adapter@_W@__crt_stdio_output@@@2@@__crt_stdio_output@@CAPA_WXZ 10065950 f i libucrtd:output.obj
 0001:00064960       ?wide_null_string@?$output_processor@_WV?$stream_output_adapter@_W@__crt_stdio_output@@V?$standard_base@_WV?$stream_output_adapter@_W@__crt_stdio_output@@@2@@__crt_stdio_output@@CAPA_WXZ 10065960 f i libucrtd:output.obj
 0001:00064970       ?wide_null_string@?$output_processor@_WV?$string_output_adapter@_W@__crt_stdio_output@@V?$format_validation_base@_WV?$string_output_adapter@_W@__crt_stdio_output@@@2@@__crt_stdio_output@@CAPA_WXZ 10065970 f i libucrtd:output.obj
 0001:00064980       ?wide_null_string@?$output_processor@_WV?$string_output_adapter@_W@__crt_stdio_output@@V?$positional_parameter_base@_WV?$string_output_adapter@_W@__crt_stdio_output@@@2@@__crt_stdio_output@@CAPA_WXZ 10065980 f i libucrtd:output.obj
 0001:00064990       ?wide_null_string@?$output_processor@_WV?$string_output_adapter@_W@__crt_stdio_output@@V?$standard_base@_WV?$string_output_adapter@_W@__crt_stdio_output@@@2@@__crt_stdio_output@@CAPA_WXZ 10065990 f i libucrtd:output.obj
 0001:000649a0       ?write_character@?$output_adapter_common@DV?$stream_output_adapter@D@__crt_stdio_output@@@__crt_stdio_output@@QBEXDQAH@Z 100659a0 f i libucrtd:output.obj
 0001:000649e0       ?write_character@?$output_adapter_common@_WV?$stream_output_adapter@_W@__crt_stdio_output@@@__crt_stdio_output@@QBEX_WQAH@Z 100659e0 f i libucrtd:output.obj
 0001:00064a20       ?write_character@?$string_output_adapter@D@__crt_stdio_output@@QBE_NDQAH@Z 10065a20 f i libucrtd:output.obj
 0001:00064ab0       ?write_character@?$string_output_adapter@_W@__crt_stdio_output@@QBE_N_WQAH@Z 10065ab0 f i libucrtd:output.obj
 0001:00064b50       ?write_character_without_count_update@?$stream_output_adapter@D@__crt_stdio_output@@QBE_ND@Z 10065b50 f i libucrtd:output.obj
 0001:00064bc0       ?write_character_without_count_update@?$stream_output_adapter@_W@__crt_stdio_output@@QBE_N_W@Z 10065bc0 f i libucrtd:output.obj
 0001:00064c30       ?write_stored_string_tchar@?$output_processor@DV?$stream_output_adapter@D@__crt_stdio_output@@V?$format_validation_base@DV?$stream_output_adapter@D@__crt_stdio_output@@@2@@__crt_stdio_output@@AAE_ND@Z 10065c30 f i libucrtd:output.obj
 0001:00064d50       ?write_stored_string_tchar@?$output_processor@DV?$stream_output_adapter@D@__crt_stdio_output@@V?$positional_parameter_base@DV?$stream_output_adapter@D@__crt_stdio_output@@@2@@__crt_stdio_output@@AAE_ND@Z 10065d50 f i libucrtd:output.obj
 0001:00064e70       ?write_stored_string_tchar@?$output_processor@DV?$stream_output_adapter@D@__crt_stdio_output@@V?$standard_base@DV?$stream_output_adapter@D@__crt_stdio_output@@@2@@__crt_stdio_output@@AAE_ND@Z 10065e70 f i libucrtd:output.obj
 0001:00064f90       ?write_stored_string_tchar@?$output_processor@DV?$string_output_adapter@D@__crt_stdio_output@@V?$format_validation_base@DV?$string_output_adapter@D@__crt_stdio_output@@@2@@__crt_stdio_output@@AAE_ND@Z 10065f90 f i libucrtd:output.obj
 0001:000650b0       ?write_stored_string_tchar@?$output_processor@DV?$string_output_adapter@D@__crt_stdio_output@@V?$positional_parameter_base@DV?$string_output_adapter@D@__crt_stdio_output@@@2@@__crt_stdio_output@@AAE_ND@Z 100660b0 f i libucrtd:output.obj
 0001:000651d0       ?write_stored_string_tchar@?$output_processor@DV?$string_output_adapter@D@__crt_stdio_output@@V?$standard_base@DV?$string_output_adapter@D@__crt_stdio_output@@@2@@__crt_stdio_output@@AAE_ND@Z 100661d0 f i libucrtd:output.obj
 0001:000652f0       ?write_stored_string_tchar@?$output_processor@_WV?$stream_output_adapter@_W@__crt_stdio_output@@V?$format_validation_base@_WV?$stream_output_adapter@_W@__crt_stdio_output@@@2@@__crt_stdio_output@@AAE_N_W@Z 100662f0 f i libucrtd:output.obj
 0001:000653e0       ?write_stored_string_tchar@?$output_processor@_WV?$stream_output_adapter@_W@__crt_stdio_output@@V?$positional_parameter_base@_WV?$stream_output_adapter@_W@__crt_stdio_output@@@2@@__crt_stdio_output@@AAE_N_W@Z 100663e0 f i libucrtd:output.obj
 0001:000654d0       ?write_stored_string_tchar@?$output_processor@_WV?$stream_output_adapter@_W@__crt_stdio_output@@V?$standard_base@_WV?$stream_output_adapter@_W@__crt_stdio_output@@@2@@__crt_stdio_output@@AAE_N_W@Z 100664d0 f i libucrtd:output.obj
 0001:000655c0       ?write_stored_string_tchar@?$output_processor@_WV?$string_output_adapter@_W@__crt_stdio_output@@V?$format_validation_base@_WV?$string_output_adapter@_W@__crt_stdio_output@@@2@@__crt_stdio_output@@AAE_N_W@Z 100665c0 f i libucrtd:output.obj
 0001:000656b0       ?write_stored_string_tchar@?$output_processor@_WV?$string_output_adapter@_W@__crt_stdio_output@@V?$positional_parameter_base@_WV?$string_output_adapter@_W@__crt_stdio_output@@@2@@__crt_stdio_output@@AAE_N_W@Z 100666b0 f i libucrtd:output.obj
 0001:000657a0       ?write_stored_string_tchar@?$output_processor@_WV?$string_output_adapter@_W@__crt_stdio_output@@V?$standard_base@_WV?$string_output_adapter@_W@__crt_stdio_output@@@2@@__crt_stdio_output@@AAE_N_W@Z 100667a0 f i libucrtd:output.obj
 0001:00065890       ?write_string@?$stream_output_adapter@D@__crt_stdio_output@@QBEXQBDHQAHAAV__crt_deferred_errno_cache@@@Z 10066890 f i libucrtd:output.obj
 0001:000658f0       ?write_string@?$stream_output_adapter@_W@__crt_stdio_output@@QBEXQB_WHQAHAAV__crt_deferred_errno_cache@@@Z 100668f0 f i libucrtd:output.obj
 0001:00065950       ?write_string@?$string_output_adapter@D@__crt_stdio_output@@QBEXQBDHQAHAAV__crt_deferred_errno_cache@@@Z 10066950 f i libucrtd:output.obj
 0001:00065a50       ?write_string@?$string_output_adapter@_W@__crt_stdio_output@@QBEXQB_WHQAHAAV__crt_deferred_errno_cache@@@Z 10066a50 f i libucrtd:output.obj
 0001:00065b60       ?write_string_impl@?$output_adapter_common@DV?$stream_output_adapter@D@__crt_stdio_output@@@__crt_stdio_output@@IBEXQBDHQAHAAV__crt_deferred_errno_cache@@@Z 10066b60 f i libucrtd:output.obj
 0001:00065c00       ?write_string_impl@?$output_adapter_common@_WV?$stream_output_adapter@_W@__crt_stdio_output@@@__crt_stdio_output@@IBEXQB_WHQAHAAV__crt_deferred_errno_cache@@@Z 10066c00 f i libucrtd:output.obj
 0001:00065ca0       ___acrt_disable_global_locale_sync 10066ca0 f i libucrtd:output.obj
 0001:00065cc0       ___acrt_enable_global_locale_sync 10066cc0 f i libucrtd:output.obj
 0001:00065ce0       ___acrt_isleadbyte_l_noupdate 10066ce0 f i libucrtd:output.obj
 0001:00065d00       ___acrt_locale_changed     10066d00 f i libucrtd:output.obj
 0001:00065d30       ___acrt_locale_get_ctype_array_value 10066d30 f i libucrtd:output.obj
 0001:00065d60       ___stdio_common_vfprintf   10066d60 f   libucrtd:output.obj
 0001:00065d90       ___stdio_common_vfprintf_p 10066d90 f   libucrtd:output.obj
 0001:00065dc0       ___stdio_common_vfprintf_s 10066dc0 f   libucrtd:output.obj
 0001:00065df0       ___stdio_common_vfwprintf  10066df0 f   libucrtd:output.obj
 0001:00065e20       ___stdio_common_vfwprintf_p 10066e20 f   libucrtd:output.obj
 0001:00065e50       ___stdio_common_vfwprintf_s 10066e50 f   libucrtd:output.obj
 0001:00065e80       ___stdio_common_vsnprintf_s 10066e80 f   libucrtd:output.obj
 0001:00065eb0       ___stdio_common_vsnwprintf_s 10066eb0 f   libucrtd:output.obj
 0001:00065ee0       ___stdio_common_vsprintf   10066ee0 f   libucrtd:output.obj
 0001:00065f10       ___stdio_common_vsprintf_p 10066f10 f   libucrtd:output.obj
 0001:00065f40       ___stdio_common_vsprintf_s 10066f40 f   libucrtd:output.obj
 0001:00065f70       ___stdio_common_vswprintf  10066f70 f   libucrtd:output.obj
 0001:00065fa0       ___stdio_common_vswprintf_p 10066fa0 f   libucrtd:output.obj
 0001:00065fd0       ___stdio_common_vswprintf_s 10066fd0 f   libucrtd:output.obj
 0001:00066000       __ctype_fast_check_internal 10067000 f i libucrtd:output.obj
 0001:00066020       __isdigit_fast_internal    10067020 f i libucrtd:output.obj
 0001:00066040       __tolower_fast_internal    10067040 f i libucrtd:output.obj
 0001:00066060       _free                      10067060 f   libucrtd:free.obj
 0001:00066090       _malloc                    10067090 f   libucrtd:malloc.obj
 0001:000660b0       ??$?RU?$__crt_report_hook_node@D@@@__crt_internal_free_policy@@QBEXQBU?$__crt_report_hook_node@D@@@Z 100670b0 f i libucrtd:dbgrpt.obj
 0001:000660d0       ??$?RU?$__crt_report_hook_node@_W@@@__crt_internal_free_policy@@QBEXQBU?$__crt_report_hook_node@_W@@@Z 100670d0 f i libucrtd:dbgrpt.obj
 0001:00066ec0       ??$get_module_file_name@AAPAUHINSTANCE__@@AAY0BAF@DK@?$__crt_char_traits@D@@SAKAAPAUHINSTANCE__@@AAY0BAF@D$$QAK@Z 10067ec0 f i libucrtd:dbgrpt.obj
 0001:00066ee0       ??$get_module_file_name@AAPAUHINSTANCE__@@AAY0BAF@_WK@?$__crt_char_traits@_W@@SAKAAPAUHINSTANCE__@@AAY0BAF@_W$$QAK@Z 10067ee0 f i libucrtd:dbgrpt.obj
 0001:00066f00       ??$tcscpy_s@AAY0BAF@DIPBD@?$__crt_char_traits@D@@SAHAAY0BAF@D$$QAI$$QAPBD@Z 10067f00 f i libucrtd:dbgrpt.obj
 0001:00066f20       ??$tcscpy_s@AAY0BAF@_WIPB_W@?$__crt_char_traits@_W@@SAHAAY0BAF@_W$$QAI$$QAPB_W@Z 10067f20 f i libucrtd:dbgrpt.obj
 0001:00066f40       ??$tcslen@AAY0BAF@D@?$__crt_char_traits@D@@SAIAAY0BAF@D@Z 10067f40 f i libucrtd:dbgrpt.obj
 0001:00066f60       ??$tcslen@AAY0BAF@_W@?$__crt_char_traits@_W@@SAIAAY0BAF@_W@Z 10067f60 f i libucrtd:dbgrpt.obj
 0001:00066f80       ??$tcslen@ABQBD@?$__crt_char_traits@D@@SAIABQBD@Z 10067f80 f i libucrtd:dbgrpt.obj
 0001:00066fa0       ??$tcslen@ABQB_W@?$__crt_char_traits@_W@@SAIABQB_W@Z 10067fa0 f i libucrtd:dbgrpt.obj
 0001:000670a0       ??0?$__crt_unique_heap_ptr@U?$__crt_report_hook_node@D@@U__crt_internal_free_policy@@@@QAE@QAU?$__crt_report_hook_node@D@@@Z 100680a0 f i libucrtd:dbgrpt.obj
 0001:000670c0       ??0?$__crt_unique_heap_ptr@U?$__crt_report_hook_node@_W@@U__crt_internal_free_policy@@@@QAE@QAU?$__crt_report_hook_node@_W@@@Z 100680c0 f i libucrtd:dbgrpt.obj
 0001:000670e0       ??1?$__crt_unique_heap_ptr@U?$__crt_report_hook_node@D@@U__crt_internal_free_policy@@@@QAE@XZ 100680e0 f i libucrtd:dbgrpt.obj
 0001:00067100       ??1?$__crt_unique_heap_ptr@U?$__crt_report_hook_node@_W@@U__crt_internal_free_policy@@@@QAE@XZ 10068100 f i libucrtd:dbgrpt.obj
 0001:00067120       ??B?$__crt_unique_heap_ptr@U?$__crt_report_hook_node@D@@U__crt_internal_free_policy@@@@QBE_NXZ 10068120 f i libucrtd:dbgrpt.obj
 0001:00067140       ??B?$__crt_unique_heap_ptr@U?$__crt_report_hook_node@_W@@U__crt_internal_free_policy@@@@QBE_NXZ 10068140 f i libucrtd:dbgrpt.obj
 0001:00067680       ?detach@?$__crt_unique_heap_ptr@U?$__crt_report_hook_node@D@@U__crt_internal_free_policy@@@@QAEPAU?$__crt_report_hook_node@D@@XZ 10068680 f i libucrtd:dbgrpt.obj
 0001:000676b0       ?detach@?$__crt_unique_heap_ptr@U?$__crt_report_hook_node@_W@@U__crt_internal_free_policy@@@@QAEPAU?$__crt_report_hook_node@_W@@XZ 100686b0 f i libucrtd:dbgrpt.obj
 0001:000676e0       ?get@?$__crt_unique_heap_ptr@U?$__crt_report_hook_node@D@@U__crt_internal_free_policy@@@@QBEPAU?$__crt_report_hook_node@D@@XZ 100686e0 f i libucrtd:dbgrpt.obj
 0001:00067700       ?get@?$__crt_unique_heap_ptr@U?$__crt_report_hook_node@_W@@U__crt_internal_free_policy@@@@QBEPAU?$__crt_report_hook_node@_W@@XZ 10068700 f i libucrtd:dbgrpt.obj
 0001:00067780       ?is_valid@?$__crt_unique_heap_ptr@U?$__crt_report_hook_node@D@@U__crt_internal_free_policy@@@@QBE_NXZ 10068780 f i libucrtd:dbgrpt.obj
 0001:000677b0       ?is_valid@?$__crt_unique_heap_ptr@U?$__crt_report_hook_node@_W@@U__crt_internal_free_policy@@@@QBE_NXZ 100687b0 f i libucrtd:dbgrpt.obj
 0001:000677e0       ?release@?$__crt_unique_heap_ptr@U?$__crt_report_hook_node@D@@U__crt_internal_free_policy@@@@QAEXXZ 100687e0 f i libucrtd:dbgrpt.obj
 0001:00067810       ?release@?$__crt_unique_heap_ptr@U?$__crt_report_hook_node@_W@@U__crt_internal_free_policy@@@@QAEXXZ 10068810 f i libucrtd:dbgrpt.obj
 0001:00067840       __CrtDbgReport             10068840 f   libucrtd:dbgrpt.obj
 0001:00067890       __CrtDbgReportW            10068890 f   libucrtd:dbgrpt.obj
 0001:000678e0       __CrtSetReportHook2        100688e0 f   libucrtd:dbgrpt.obj
 0001:00067900       __CrtSetReportHookW2       10068900 f   libucrtd:dbgrpt.obj
 0001:00067920       ___acrt_MessageWindowA     10068920 f   libucrtd:dbgrpt.obj
 0001:00067950       ___acrt_MessageWindowW     10068950 f   libucrtd:dbgrpt.obj
 0001:00067980       __invoke_watson_if_error   10068980 f i libucrtd:dbgrpt.obj
 0001:000679b0       __invoke_watson_if_oneof   100689b0 f i libucrtd:dbgrpt.obj
 0001:000679f0       __snwprintf_s              100689f0 f i libucrtd:dbgrpt.obj
 0001:00067a30       __vsnwprintf_s_l           10068a30 f i libucrtd:dbgrpt.obj
 0001:00067db0       _wcscpy_s                  10068db0 f   libucrtd:wcscpy_s.obj
 0001:00068ad0       ??1?$__crt_simd_cleanup_guard@$00@@QAE@XZ 10069ad0 f i libucrtd:strnlen.obj
 0001:00068ae0       ??1?$__crt_simd_cleanup_guard@$0A@@@QAE@XZ 10069ae0 f i libucrtd:strnlen.obj
 0001:00068af0       ?compare_equals@?$__crt_simd_traits@$00E@@SA?AT__m256i@@T2@0@Z 10069af0 f i libucrtd:strnlen.obj
 0001:00068b30       ?compare_equals@?$__crt_simd_traits@$00G@@SA?AT__m256i@@T2@0@Z 10069b30 f i libucrtd:strnlen.obj
 0001:00068b70       ?compare_equals@?$__crt_simd_traits@$0A@E@@SA?AT__m128i@@T2@0@Z 10069b70 f i libucrtd:strnlen.obj
 0001:00068bb0       ?compare_equals@?$__crt_simd_traits@$0A@G@@SA?AT__m128i@@T2@0@Z 10069bb0 f i libucrtd:strnlen.obj
 0001:00068bf0       ?compute_byte_mask@?$__crt_simd_pack_traits@$00@@SAHT__m256i@@@Z 10069bf0 f i libucrtd:strnlen.obj
 0001:00068c20       ?compute_byte_mask@?$__crt_simd_pack_traits@$0A@@@SAHT__m128i@@@Z 10069c20 f i libucrtd:strnlen.obj
 0001:00068c50       ?get_zero_pack@?$__crt_simd_pack_traits@$00@@SA?AT__m256i@@XZ 10069c50 f i libucrtd:strnlen.obj
 0001:00068c80       ?get_zero_pack@?$__crt_simd_pack_traits@$0A@@@SA?AT__m128i@@XZ 10069c80 f i libucrtd:strnlen.obj
 0001:00068cb0       _strnlen                   10069cb0 f   libucrtd:strnlen.obj
 0001:00068cd0       _wcslen                    10069cd0 f   libucrtd:strnlen.obj
 0001:00068cf0       _wcsnlen                   10069cf0 f   libucrtd:strnlen.obj
 0001:00068d10       ??$__crt_fast_decode_pointer@P6AXPB_W00II@Z@@YAP6AXPB_W00II@ZQ6AX000II@Z@Z 10069d10 f i libucrtd:invalid_parameter.obj
 0001:00068d40       ??$__crt_fast_encode_pointer@P6AXPB_W00II@Z@@YAP6AXPB_W00II@ZQ6AX000II@Z@Z 10069d40 f i libucrtd:invalid_parameter.obj
 0001:00068d70       ??$initialize_from_array@$$BY00Q6AXPB_W00II@Z@?$dual_state_global@P6AXPB_W00II@Z@__crt_state_management@@QAAXAAY00Q6AXPB_W00II@Z@Z 10069d70 f i libucrtd:invalid_parameter.obj
 0001:00068dc0       ?__crt_rotate_pointer_value@@YAIIH@Z 10069dc0 f i libucrtd:invalid_parameter.obj
 0001:00068dd0       ?dangerous_get_state_array@?$dual_state_global@P6AXPB_W00II@Z@__crt_state_management@@QAEPAP6AXPB_W00II@ZXZ 10069dd0 f i libucrtd:invalid_parameter.obj
 0001:00068de0       ?get_current_state_index@__crt_state_management@@YAIXZ 10069de0 f i libucrtd:invalid_parameter.obj
 0001:00068df0       ?value@?$dual_state_global@P6AXPB_W00II@Z@__crt_state_management@@QAEAAP6AXPB_W00II@ZXZ 10069df0 f i libucrtd:invalid_parameter.obj
 0001:00068e10       ___acrt_call_reportfault   10069e10 f   libucrtd:invalid_parameter.obj
 0001:00068f70       ___acrt_initialize_invalid_parameter_handler 10069f70 f   libucrtd:invalid_parameter.obj
 0001:00068fa0       __get_invalid_parameter_handler 10069fa0 f   libucrtd:invalid_parameter.obj
 0001:00068fc0       __get_thread_local_invalid_parameter_handler 10069fc0 f   libucrtd:invalid_parameter.obj
 0001:00068ff0       __invalid_parameter        10069ff0 f   libucrtd:invalid_parameter.obj
 0001:000690b0       __invalid_parameter_noinfo 1006a0b0 f   libucrtd:invalid_parameter.obj
 0001:000690d0       __invalid_parameter_noinfo_noreturn 1006a0d0 f   libucrtd:invalid_parameter.obj
 0001:00069100       __invoke_watson            1006a100 f   libucrtd:invalid_parameter.obj
 0001:00069140       __set_invalid_parameter_handler 1006a140 f   libucrtd:invalid_parameter.obj
 0001:00069190       __set_thread_local_invalid_parameter_handler 1006a190 f   libucrtd:invalid_parameter.obj
 0001:000691c0       ___acrt_errno_from_os_error 1006a1c0 f   libucrtd:errno.obj
 0001:00069240       ___acrt_errno_map_os_error 1006a240 f   libucrtd:errno.obj
 0001:00069270       ___doserrno                1006a270 f   libucrtd:errno.obj
 0001:000692a0       __errno                    1006a2a0 f   libucrtd:errno.obj
 0001:000692d0       __get_doserrno             1006a2d0 f   libucrtd:errno.obj
 0001:00069360       __get_errno                1006a360 f   libucrtd:errno.obj
 0001:000693f0       __set_doserrno             1006a3f0 f   libucrtd:errno.obj
 0001:00069420       __set_errno                1006a420 f   libucrtd:errno.obj
 0001:00069450       _calloc                    1006a450 f   libucrtd:calloc.obj
 0001:00069470       __recalloc                 1006a470 f   libucrtd:recalloc.obj
 0001:000694a0       __recalloc_base            1006a4a0 f   libucrtd:recalloc.obj
 0001:0006953a       __resetstkoflw             1006a53a f   libucrtd:resetstk.obj
 0001:00069a20       _wcscat_s                  1006aa20 f   libucrtd:wcscat_s.obj
 0001:00069e70       _wcsncpy_s                 1006ae70 f   libucrtd:wcsncpy_s.obj
 0001:00069fb0       ___isascii                 1006afb0 f   libucrtd:_ctype.obj
 0001:00069fe0       ___iscsym                  1006afe0 f   libucrtd:_ctype.obj
 0001:0006a020       ___iscsymf                 1006b020 f   libucrtd:_ctype.obj
 0001:0006a060       ___toascii                 1006b060 f   libucrtd:_ctype.obj
 0001:0006a070       __isalnum_l                1006b070 f   libucrtd:_ctype.obj
 0001:0006a090       __isalpha_l                1006b090 f   libucrtd:_ctype.obj
 0001:0006a0b0       __isblank_l                1006b0b0 f   libucrtd:_ctype.obj
 0001:0006a0d0       __iscntrl_l                1006b0d0 f   libucrtd:_ctype.obj
 0001:0006a0f0       __iscsym_l                 1006b0f0 f   libucrtd:_ctype.obj
 0001:0006a130       __iscsymf_l                1006b130 f   libucrtd:_ctype.obj
 0001:0006a170       __isdigit_l                1006b170 f   libucrtd:_ctype.obj
 0001:0006a190       __isgraph_l                1006b190 f   libucrtd:_ctype.obj
 0001:0006a1b0       __islower_l                1006b1b0 f   libucrtd:_ctype.obj
 0001:0006a1d0       __isprint_l                1006b1d0 f   libucrtd:_ctype.obj
 0001:0006a1f0       __ispunct_l                1006b1f0 f   libucrtd:_ctype.obj
 0001:0006a210       __isspace_l                1006b210 f   libucrtd:_ctype.obj
 0001:0006a230       __isupper_l                1006b230 f   libucrtd:_ctype.obj
 0001:0006a250       __isxdigit_l               1006b250 f   libucrtd:_ctype.obj
 0001:0006a270       _isalnum                   1006b270 f   libucrtd:_ctype.obj
 0001:0006a290       _isalpha                   1006b290 f   libucrtd:_ctype.obj
 0001:0006a2b0       _isblank                   1006b2b0 f   libucrtd:_ctype.obj
 0001:0006a2e0       _iscntrl                   1006b2e0 f   libucrtd:_ctype.obj
 0001:0006a300       _isdigit                   1006b300 f   libucrtd:_ctype.obj
 0001:0006a320       _isgraph                   1006b320 f   libucrtd:_ctype.obj
 0001:0006a340       _islower                   1006b340 f   libucrtd:_ctype.obj
 0001:0006a360       _isprint                   1006b360 f   libucrtd:_ctype.obj
 0001:0006a380       _ispunct                   1006b380 f   libucrtd:_ctype.obj
 0001:0006a3a0       _isspace                   1006b3a0 f   libucrtd:_ctype.obj
 0001:0006a3c0       _isupper                   1006b3c0 f   libucrtd:_ctype.obj
 0001:0006a3e0       _isxdigit                  1006b3e0 f   libucrtd:_ctype.obj
 0001:0006a400       _wcscat                    1006b400 f   libucrtd:wcscat.obj
 0001:0006a460       _wcscpy                    1006b460 f   libucrtd:wcscpy.obj
 0001:0006aaf0       ??$open_file@ABQBDABQBDABHPAU_iobuf@@@?$__crt_char_traits@D@@SAPAU_iobuf@@ABQBD0ABH$$QAPAU1@@Z 1006baf0 f i libucrtd:fopen.obj
 0001:0006ab20       ??$open_file@ABQB_WABQB_WABHPAU_iobuf@@@?$__crt_char_traits@_W@@SAPAU_iobuf@@ABQB_W0ABH$$QAPAU1@@Z 1006bb20 f i libucrtd:fopen.obj
 0001:0006ab50       ?unlock@__crt_stdio_stream@@QBEXXZ 1006bb50 f i libucrtd:fopen.obj
 0001:0006ab70       __fsopen                   1006bb70 f   libucrtd:fopen.obj
 0001:0006ab90       __wfopen                   1006bb90 f   libucrtd:fopen.obj
 0001:0006abb0       __wfopen_s                 1006bbb0 f   libucrtd:fopen.obj
 0001:0006abd0       __wfsopen                  1006bbd0 f   libucrtd:fopen.obj
 0001:0006abf0       _fopen                     1006bbf0 f   libucrtd:fopen.obj
 0001:0006ac10       _fopen_s                   1006bc10 f   libucrtd:fopen.obj
 0001:0006ac30       ?is_in_use@__crt_stdio_stream@@QBE_NXZ 1006bc30 f i libucrtd:fclose.obj
 0001:0006ac70       __fclose_nolock            1006bc70 f   libucrtd:fclose.obj
 0001:0006adb0       _fclose                    1006bdb0 f   libucrtd:fclose.obj
 0001:0006af00       __fputc_nolock             1006bf00 f   libucrtd:fputc.obj
 0001:0006af90       __fputchar                 1006bf90 f   libucrtd:fputc.obj
 0001:0006afb0       __putc_nolock              1006bfb0 f   libucrtd:fputc.obj
 0001:0006afd0       _fputc                     1006bfd0 f   libucrtd:fputc.obj
 0001:0006b210       _putc                      1006c210 f   libucrtd:fputc.obj
 0001:0006b230       _putchar                   1006c230 f   libucrtd:fputc.obj
 0001:0006b2a0       __seh_filter_dll           1006c2a0 f   libucrtd:exception_filter.obj
 0001:0006b2d0       __seh_filter_exe           1006c2d0 f   libucrtd:exception_filter.obj
 0001:0006b4e0       ??$?B$$A6GXPAXK0@Z@__crt_fast_encoded_nullptr_t@@QBEP6GXPAXK0@ZXZ 1006c4e0 f i libucrtd:exit.obj
 0001:0006b5c0       ??$__crt_fast_decode_pointer@P6GXPAXK0@Z@@YAP6GXPAXK0@ZQ6GX0K0@Z@Z 1006c5c0 f i libucrtd:exit.obj
 0001:0006b5f0       ??$__crt_fast_encode_pointer@P6GXPAXK0@Z@@YAP6GXPAXK0@ZQ6GX0K0@Z@Z 1006c5f0 f i libucrtd:exit.obj
 0001:0006b620       ??$__crt_get_proc_address@P6GXI@Z@@YAP6GXI@ZQAUHINSTANCE__@@QBD@Z 1006c620 f i libucrtd:exit.obj
 0001:0006b6b0       ??0?$__crt_unique_handle_t@U__crt_hmodule_traits@@@@QAE@QAUHINSTANCE__@@@Z 1006c6b0 f i libucrtd:exit.obj
 0001:0006b6d0       ??1?$__crt_unique_handle_t@U__crt_hmodule_traits@@@@QAE@XZ 1006c6d0 f i libucrtd:exit.obj
 0001:0006b890       ?__acrt_select_exit_lock@@YA?AW4__acrt_lock_id@@XZ 1006c890 f i libucrtd:exit.obj
 0001:0006b8a0       ?__crt_fast_encode_pointer@@YA?AU__crt_fast_encoded_nullptr_t@@$$T@Z 1006c8a0 f i libucrtd:exit.obj
 0001:0006b8d0       ?close@?$__crt_unique_handle_t@U__crt_hmodule_traits@@@@QAEXXZ 1006c8d0 f i libucrtd:exit.obj
 0001:0006b910       ?close@__crt_hmodule_traits@@SA_NPAUHINSTANCE__@@@Z 1006c910 f i libucrtd:exit.obj
 0001:0006ba00       ?get@?$__crt_unique_handle_t@U__crt_hmodule_traits@@@@QBEPAUHINSTANCE__@@XZ 1006ca00 f i libucrtd:exit.obj
 0001:0006ba20       ?get_address_of@?$__crt_unique_handle_t@U__crt_hmodule_traits@@@@QAEPAPAUHINSTANCE__@@XZ 1006ca20 f i libucrtd:exit.obj
 0001:0006ba30       ?get_invalid_value@__crt_hmodule_traits@@SAPAUHINSTANCE__@@XZ 1006ca30 f i libucrtd:exit.obj
 0001:0006bbb0       __Exit                     1006cbb0 f   libucrtd:exit.obj
 0001:0006bbd0       ___acrt_initialize_thread_local_exit_callback 1006cbd0 f   libucrtd:exit.obj
 0001:0006bbe0       __c_exit                   1006cbe0 f   libucrtd:exit.obj
 0001:0006bc00       __cexit                    1006cc00 f   libucrtd:exit.obj
 0001:0006bc20       __exit                     1006cc20 f   libucrtd:exit.obj
 0001:0006bc40       __is_c_termination_complete 1006cc40 f   libucrtd:exit.obj
 0001:0006bc60       __register_thread_local_exe_atexit_callback 1006cc60 f   libucrtd:exit.obj
 0001:0006bca0       _exit                      1006cca0 f   libucrtd:exit.obj
 0001:0006bcc0       _quick_exit                1006ccc0 f   libucrtd:exit.obj
 0001:0006bce0       ??$?RE@__crt_internal_free_policy@@QBEXQBE@Z 1006cce0 f i libucrtd:argv_parsing.obj
 0001:0006bd00       ??$?RPAD@__crt_internal_free_policy@@QBEXQBQAD@Z 1006cd00 f i libucrtd:argv_parsing.obj
 0001:0006bd20       ??$?RPA_W@__crt_internal_free_policy@@QBEXQBQA_W@Z 1006cd20 f i libucrtd:argv_parsing.obj
 0001:0006c280       ??$get_module_file_name@$$TAAY0BAF@DH@?$__crt_char_traits@D@@SAK$$QA$$TAAY0BAF@D$$QAH@Z 1006d280 f i libucrtd:argv_parsing.obj
 0001:0006c2a0       ??$get_module_file_name@$$TAAY0BAF@_WH@?$__crt_char_traits@_W@@SAK$$QA$$TAAY0BAF@_W$$QAH@Z 1006d2a0 f i libucrtd:argv_parsing.obj
 0001:0006c9c0       ??$set_program_name@PAD@?$__crt_char_traits@D@@SAX$$QAPAD@Z 1006d9c0 f i libucrtd:argv_parsing.obj
 0001:0006c9e0       ??$set_program_name@PA_W@?$__crt_char_traits@_W@@SAX$$QAPA_W@Z 1006d9e0 f i libucrtd:argv_parsing.obj
 0001:0006ca40       ??0?$__crt_unique_heap_ptr@EU__crt_internal_free_policy@@@@QAE@QAE@Z 1006da40 f i libucrtd:argv_parsing.obj
 0001:0006ca60       ??0?$__crt_unique_heap_ptr@PADU__crt_internal_free_policy@@@@QAE@QAPAD@Z 1006da60 f i libucrtd:argv_parsing.obj
 0001:0006ca80       ??0?$__crt_unique_heap_ptr@PA_WU__crt_internal_free_policy@@@@QAE@QAPA_W@Z 1006da80 f i libucrtd:argv_parsing.obj
 0001:0006caa0       ??1?$__crt_unique_heap_ptr@EU__crt_internal_free_policy@@@@QAE@XZ 1006daa0 f i libucrtd:argv_parsing.obj
 0001:0006cac0       ??1?$__crt_unique_heap_ptr@PADU__crt_internal_free_policy@@@@QAE@XZ 1006dac0 f i libucrtd:argv_parsing.obj
 0001:0006cae0       ??1?$__crt_unique_heap_ptr@PA_WU__crt_internal_free_policy@@@@QAE@XZ 1006dae0 f i libucrtd:argv_parsing.obj
 0001:0006cb00       ??B?$__crt_unique_heap_ptr@EU__crt_internal_free_policy@@@@QBE_NXZ 1006db00 f i libucrtd:argv_parsing.obj
 0001:0006cbc0       ?detach@?$__crt_unique_heap_ptr@EU__crt_internal_free_policy@@@@QAEPAEXZ 1006dbc0 f i libucrtd:argv_parsing.obj
 0001:0006cbf0       ?detach@?$__crt_unique_heap_ptr@PADU__crt_internal_free_policy@@@@QAEPAPADXZ 1006dbf0 f i libucrtd:argv_parsing.obj
 0001:0006cc20       ?detach@?$__crt_unique_heap_ptr@PA_WU__crt_internal_free_policy@@@@QAEPAPA_WXZ 1006dc20 f i libucrtd:argv_parsing.obj
 0001:0006ccb0       ?get@?$__crt_unique_heap_ptr@EU__crt_internal_free_policy@@@@QBEPAEXZ 1006dcb0 f i libucrtd:argv_parsing.obj
 0001:0006ccd0       ?get@?$__crt_unique_heap_ptr@PADU__crt_internal_free_policy@@@@QBEPAPADXZ 1006dcd0 f i libucrtd:argv_parsing.obj
 0001:0006ccf0       ?get@?$__crt_unique_heap_ptr@PA_WU__crt_internal_free_policy@@@@QBEPAPA_WXZ 1006dcf0 f i libucrtd:argv_parsing.obj
 0001:0006cd10       ?get_address_of@?$__crt_unique_heap_ptr@PADU__crt_internal_free_policy@@@@QAEPAPAPADXZ 1006dd10 f i libucrtd:argv_parsing.obj
 0001:0006cd20       ?get_address_of@?$__crt_unique_heap_ptr@PA_WU__crt_internal_free_policy@@@@QAEPAPAPA_WXZ 1006dd20 f i libucrtd:argv_parsing.obj
 0001:0006cd70       ?is_valid@?$__crt_unique_heap_ptr@EU__crt_internal_free_policy@@@@QBE_NXZ 1006dd70 f i libucrtd:argv_parsing.obj
 0001:0006cda0       ?release@?$__crt_unique_heap_ptr@EU__crt_internal_free_policy@@@@QAEXXZ 1006dda0 f i libucrtd:argv_parsing.obj
 0001:0006cdd0       ?release@?$__crt_unique_heap_ptr@PADU__crt_internal_free_policy@@@@QAEXXZ 1006ddd0 f i libucrtd:argv_parsing.obj
 0001:0006ce00       ?release@?$__crt_unique_heap_ptr@PA_WU__crt_internal_free_policy@@@@QAEXXZ 1006de00 f i libucrtd:argv_parsing.obj
 0001:0006ce70       ___acrt_allocate_buffer_for_argv 1006de70 f   libucrtd:argv_parsing.obj
 0001:0006cf30       __configure_narrow_argv    1006df30 f   libucrtd:argv_parsing.obj
 0001:0006cf50       __configure_wide_argv      1006df50 f   libucrtd:argv_parsing.obj
 0001:0006cf70       __set_pgmptr               1006df70 f i libucrtd:argv_parsing.obj
 0001:0006cf80       __set_wpgmptr              1006df80 f i libucrtd:argv_parsing.obj
 0001:0006cf8f       ??$?R_W@__crt_internal_free_policy@@QBEXQB_W@Z 1006df8f f i libucrtd:environment_initialization.obj
 0001:0006d3f8       ??$get_environment_from_os@$$V@?$__crt_char_traits@D@@SAPADXZ 1006e3f8 f i libucrtd:environment_initialization.obj
 0001:0006d3fd       ??$get_environment_from_os@$$V@?$__crt_char_traits@_W@@SAPA_WXZ 1006e3fd f i libucrtd:environment_initialization.obj
 0001:0006d526       ??$set_variable_in_environment_nolock@PADH@?$__crt_char_traits@D@@SAH$$QAPAD$$QAH@Z 1006e526 f i libucrtd:environment_initialization.obj
 0001:0006d53e       ??$set_variable_in_environment_nolock@PA_WH@?$__crt_char_traits@_W@@SAH$$QAPA_W$$QAH@Z 1006e53e f i libucrtd:environment_initialization.obj
 0001:0006d556       ??$tcscpy_s@PADABIAAPAD@?$__crt_char_traits@D@@SAH$$QAPADABIAAPAD@Z 1006e556 f i libucrtd:environment_initialization.obj
 0001:0006d574       ??$tcscpy_s@PA_WABIAAPA_W@?$__crt_char_traits@_W@@SAH$$QAPA_WABIAAPA_W@Z 1006e574 f i libucrtd:environment_initialization.obj
 0001:0006d592       ??$tcslen@AAPAD@?$__crt_char_traits@D@@SAIAAPAD@Z 1006e592 f i libucrtd:environment_initialization.obj
 0001:0006d5aa       ??$tcslen@AAPA_W@?$__crt_char_traits@_W@@SAIAAPA_W@Z 1006e5aa f i libucrtd:environment_initialization.obj
 0001:0006d5c8       ??$uninitialize@A6AXAAPAPAD@Z@?$dual_state_global@PAPAD@__crt_state_management@@QAEXA6AXAAPAPAD@Z@Z 1006e5c8 f i libucrtd:environment_initialization.obj
 0001:0006d5f1       ??$uninitialize@A6AXAAPAPA_W@Z@?$dual_state_global@PAPA_W@__crt_state_management@@QAEXA6AXAAPAPA_W@Z@Z 1006e5f1 f i libucrtd:environment_initialization.obj
 0001:0006d650       ??0?$__crt_unique_heap_ptr@_WU__crt_internal_free_policy@@@@QAE@QA_W@Z 1006e650 f i libucrtd:environment_initialization.obj
 0001:0006d660       ??1?$__crt_unique_heap_ptr@_WU__crt_internal_free_policy@@@@QAE@XZ 1006e660 f i libucrtd:environment_initialization.obj
 0001:0006d675       ??B?$__crt_unique_heap_ptr@PADU__crt_internal_free_policy@@@@QBE_NXZ 1006e675 f i libucrtd:environment_initialization.obj
 0001:0006d67c       ??B?$__crt_unique_heap_ptr@PA_WU__crt_internal_free_policy@@@@QBE_NXZ 1006e67c f i libucrtd:environment_initialization.obj
 0001:0006d683       ??B?$__crt_unique_heap_ptr@_WU__crt_internal_free_policy@@@@QBE_NXZ 1006e683 f i libucrtd:environment_initialization.obj
 0001:0006d68a       ?__crt_compute_required_transform_buffer_count@@YAIIQBD@Z 1006e68a f i libucrtd:environment_initialization.obj
 0001:0006d6a6       ?__crt_compute_required_transform_buffer_count@@YAIIQB_W@Z 1006e6a6 f i libucrtd:environment_initialization.obj
 0001:0006d6c4       ?__crt_transform_string@@YAIIQBDQA_WI@Z 1006e6c4 f i libucrtd:environment_initialization.obj
 0001:0006d6e3       ?__crt_transform_string@@YAIIQB_WQADI@Z 1006e6e3 f i libucrtd:environment_initialization.obj
 0001:0006d705       ?detach@?$__crt_unique_heap_ptr@DU__crt_internal_free_policy@@@@QAEPADXZ 1006e705 f i libucrtd:environment_initialization.obj
 0001:0006d70b       ?detach@?$__crt_unique_heap_ptr@_WU__crt_internal_free_policy@@@@QAEPA_WXZ 1006e70b f i libucrtd:environment_initialization.obj
 0001:0006d711       ?get@?$__crt_unique_heap_ptr@_WU__crt_internal_free_policy@@@@QBEPA_WXZ 1006e711 f i libucrtd:environment_initialization.obj
 0001:0006d738       ?initialize@?$dual_state_global@PAPAD@__crt_state_management@@QAEXQAPAD@Z 1006e738 f i libucrtd:environment_initialization.obj
 0001:0006d75e       ?initialize@?$dual_state_global@PAPA_W@__crt_state_management@@QAEXQAPA_W@Z 1006e75e f i libucrtd:environment_initialization.obj
 0001:0006d784       ?is_valid@?$__crt_unique_heap_ptr@PADU__crt_internal_free_policy@@@@QBE_NXZ 1006e784 f i libucrtd:environment_initialization.obj
 0001:0006d78b       ?is_valid@?$__crt_unique_heap_ptr@PA_WU__crt_internal_free_policy@@@@QBE_NXZ 1006e78b f i libucrtd:environment_initialization.obj
 0001:0006d792       ?is_valid@?$__crt_unique_heap_ptr@_WU__crt_internal_free_policy@@@@QBE_NXZ 1006e792 f i libucrtd:environment_initialization.obj
 0001:0006d7a1       ?release@?$__crt_unique_heap_ptr@_WU__crt_internal_free_policy@@@@QAEXXZ 1006e7a1 f i libucrtd:environment_initialization.obj
 0001:0006d7b6       ?value@?$dual_state_global@PAPAD@__crt_state_management@@QAEAAPAPADXZ 1006e7b6 f i libucrtd:environment_initialization.obj
 0001:0006d7b9       ?value@?$dual_state_global@PAPA_W@__crt_state_management@@QAEAAPAPA_WXZ 1006e7b9 f i libucrtd:environment_initialization.obj
 0001:0006d7bc       ___dcrt_get_or_create_narrow_environment_nolock 1006e7bc f   libucrtd:environment_initialization.obj
 0001:0006d7c1       ___dcrt_get_or_create_wide_environment_nolock 1006e7c1 f   libucrtd:environment_initialization.obj
 0001:0006d7c6       ___dcrt_uninitialize_environments_nolock 1006e7c6 f   libucrtd:environment_initialization.obj
 0001:0006d7fd       ___p__environ              1006e7fd f   libucrtd:environment_initialization.obj
 0001:0006d803       ___p__wenviron             1006e803 f   libucrtd:environment_initialization.obj
 0001:0006d809       __get_initial_narrow_environment 1006e809 f   libucrtd:environment_initialization.obj
 0001:0006d81d       __get_initial_wide_environment 1006e81d f   libucrtd:environment_initialization.obj
 0001:0006d831       __initialize_narrow_environment 1006e831 f   libucrtd:environment_initialization.obj
 0001:0006d836       __initialize_wide_environment 1006e836 f   libucrtd:environment_initialization.obj
 0001:0006d840       ??$?B$$A6AXXZ@__crt_fast_encoded_nullptr_t@@QBEP6AXXZXZ 1006e840 f i libucrtd:onexit.obj
 0001:0006d860       ??$?BP6AXXZ@__crt_fast_encoded_nullptr_t@@QBEPAP6AXXZXZ 1006e860 f i libucrtd:onexit.obj
 0001:0006d880       ??$?RP6AXXZ@__crt_internal_free_policy@@QBEXQBQ6AXXZ@Z 1006e880 f i libucrtd:onexit.obj
 0001:0006da40       ??$__crt_fast_decode_pointer@P6AXXZ@@YAP6AXXZQ6AXXZ@Z 1006ea40 f i libucrtd:onexit.obj
 0001:0006da70       ??$__crt_fast_decode_pointer@PAP6AXXZ@@YAPAP6AXXZQAP6AXXZ@Z 1006ea70 f i libucrtd:onexit.obj
 0001:0006daa0       ??$__crt_fast_encode_pointer@P6AHXZ@@YAP6AHXZQ6AHXZ@Z 1006eaa0 f i libucrtd:onexit.obj
 0001:0006dad0       ??$__crt_fast_encode_pointer@P6AXXZ@@YAP6AXXZQ6AXXZ@Z 1006ead0 f i libucrtd:onexit.obj
 0001:0006db00       ??$__crt_fast_encode_pointer@PAP6AXXZ@@YAPAP6AXXZQAP6AXXZ@Z 1006eb00 f i libucrtd:onexit.obj
 0001:0006dc00       ??0?$__crt_unique_heap_ptr@P6AXXZU__crt_internal_free_policy@@@@QAE@QAP6AXXZ@Z 1006ec00 f i libucrtd:onexit.obj
 0001:0006dc20       ??1?$__crt_unique_heap_ptr@P6AXXZU__crt_internal_free_policy@@@@QAE@XZ 1006ec20 f i libucrtd:onexit.obj
 0001:0006dc40       ??1scoped_global_state_reset@__crt_state_management@@QAE@XZ 1006ec40 f i libucrtd:onexit.obj
 0001:0006e0b0       ?detach@?$__crt_unique_heap_ptr@P6AXXZU__crt_internal_free_policy@@@@QAEPAP6AXXZXZ 1006f0b0 f i libucrtd:onexit.obj
 0001:0006e0e0       ?release@?$__crt_unique_heap_ptr@P6AXXZU__crt_internal_free_policy@@@@QAEXXZ 1006f0e0 f i libucrtd:onexit.obj
 0001:0006e110       __crt_at_quick_exit        1006f110 f   libucrtd:onexit.obj
 0001:0006e130       __crt_atexit               1006f130 f   libucrtd:onexit.obj
 0001:0006e150       __execute_onexit_table     1006f150 f   libucrtd:onexit.obj
 0001:0006e180       __initialize_onexit_table  1006f180 f   libucrtd:onexit.obj
 0001:0006e1e0       __register_onexit_function 1006f1e0 f   libucrtd:onexit.obj
 0001:0006e420       ??$?BX@__crt_fast_encoded_nullptr_t@@QBEPAXXZ 1006f420 f i libucrtd:initialization.obj
 0001:0006e440       ??$__crt_fast_encode_pointer@PAX@@YAPAXQAX@Z 1006f440 f i libucrtd:initialization.obj
 0001:0006e500       ?initialize@?$dual_state_global@PAU__crt_locale_data@@@__crt_state_management@@QAEXQAU__crt_locale_data@@@Z 1006f500 f i libucrtd:initialization.obj
 0001:0006e540       ___acrt_initialize         1006f540 f   libucrtd:initialization.obj
 0001:0006e560       ___acrt_thread_attach      1006f560 f   libucrtd:initialization.obj
 0001:0006e580       ___acrt_thread_detach      1006f580 f   libucrtd:initialization.obj
 0001:0006e590       ___acrt_uninitialize       1006f590 f   libucrtd:initialization.obj
 0001:0006e5b0       ___acrt_uninitialize_critical 1006f5b0 f   libucrtd:initialization.obj
 0001:0006fe20       __CrtCheckMemory           10070e20 f   libucrtd:debug_heap.obj
 0001:0006ffb0       __CrtDoForAllClientObjects 10070fb0 f   libucrtd:debug_heap.obj
 0001:00070100       __CrtDumpMemoryLeaks       10071100 f   libucrtd:debug_heap.obj
 0001:000701a0       __CrtGetAllocHook          100711a0 f   libucrtd:debug_heap.obj
 0001:000701b0       __CrtGetDumpClient         100711b0 f   libucrtd:debug_heap.obj
 0001:000701c0       __CrtIsMemoryBlock         100711c0 f   libucrtd:debug_heap.obj
 0001:00070310       __CrtIsValidHeapPointer    10071310 f   libucrtd:debug_heap.obj
 0001:00070340       __CrtIsValidPointer        10071340 f   libucrtd:debug_heap.obj
 0001:00070370       __CrtMemCheckpoint         10071370 f   libucrtd:debug_heap.obj
 0001:000705a0       __CrtMemDifference         100715a0 f   libucrtd:debug_heap.obj
 0001:00070810       __CrtMemDumpAllObjectsSince 10071810 f   libucrtd:debug_heap.obj
 0001:000708b0       __CrtMemDumpStatistics     100718b0 f   libucrtd:debug_heap.obj
 0001:000709e0       __CrtReportBlockType       100719e0 f   libucrtd:debug_heap.obj
 0001:00070a10       __CrtSetAllocHook          10071a10 f   libucrtd:debug_heap.obj
 0001:00070a30       __CrtSetBreakAlloc         10071a30 f   libucrtd:debug_heap.obj
 0001:00070a50       __CrtSetDbgBlockType       10071a50 f   libucrtd:debug_heap.obj
 0001:00070b30       __CrtSetDbgFlag            10071b30 f   libucrtd:debug_heap.obj
 0001:00070ca0       __CrtSetDumpClient         10071ca0 f   libucrtd:debug_heap.obj
 0001:00070cc0       ___acrt_get_locale_data_prefix 10071cc0 f i libucrtd:debug_heap.obj
 0001:00070ce0       ___p__crtBreakAlloc        10071ce0 f   libucrtd:debug_heap.obj
 0001:00070cf0       ___p__crtDbgFlag           10071cf0 f   libucrtd:debug_heap.obj
 0001:00070d00       __aligned_free_dbg         10071d00 f   libucrtd:debug_heap.obj
 0001:00070db0       __aligned_malloc_dbg       10071db0 f   libucrtd:debug_heap.obj
 0001:00070de0       __aligned_msize_dbg        10071de0 f   libucrtd:debug_heap.obj
 0001:00070f10       __aligned_offset_malloc_dbg 10071f10 f   libucrtd:debug_heap.obj
 0001:000710f0       __aligned_offset_realloc_dbg 100720f0 f   libucrtd:debug_heap.obj
 0001:00071400       __aligned_offset_recalloc_dbg 10072400 f   libucrtd:debug_heap.obj
 0001:000714c0       __aligned_realloc_dbg      100724c0 f   libucrtd:debug_heap.obj
 0001:000714f0       __aligned_recalloc_dbg     100724f0 f   libucrtd:debug_heap.obj
 0001:00071520       __calloc_dbg               10072520 f   libucrtd:debug_heap.obj
 0001:00071590       __chvalidchk_l             10072590 f i libucrtd:debug_heap.obj
 0001:000715b0       __expand_dbg               100725b0 f   libucrtd:debug_heap.obj
 0001:000716e0       __free_dbg                 100726e0 f   libucrtd:debug_heap.obj
 0001:00071790       __ischartype_l             10072790 f i libucrtd:debug_heap.obj
 0001:00071810       __malloc_dbg               10072810 f   libucrtd:debug_heap.obj
 0001:00071830       __msize_dbg                10072830 f   libucrtd:debug_heap.obj
 0001:000719c0       __realloc_dbg              100729c0 f   libucrtd:debug_heap.obj
 0001:00071a60       __recalloc_dbg             10072a60 f   libucrtd:debug_heap.obj
 0001:00071b10       __initterm                 10072b10 f   libucrtd:initterm.obj
 0001:00071b60       __initterm_e               10072b60 f   libucrtd:initterm.obj
 0001:00071ed0       _strcpy_s                  10072ed0 f   libucrtd:strcpy_s.obj
 0001:00072300       _strcat_s                  10073300 f   libucrtd:strcat_s.obj
 0001:00072320       ??$?B$$A6AHI@Z@__crt_fast_encoded_nullptr_t@@QBEP6AHI@ZXZ 10073320 f i libucrtd:new_handler.obj
 0001:00072340       ??$__crt_fast_decode_pointer@P6AHI@Z@@YAP6AHI@ZQ6AHI@Z@Z 10073340 f i libucrtd:new_handler.obj
 0001:00072370       ??$__crt_fast_encode_pointer@P6AHI@Z@@YAP6AHI@ZQ6AHI@Z@Z 10073370 f i libucrtd:new_handler.obj
 0001:000723a0       ?_set_new_handler@@YAP6AHI@ZH@Z 100733a0 f   libucrtd:new_handler.obj
 0001:00072400       ?initialize@?$dual_state_global@P6AHI@Z@__crt_state_management@@QAEXQ6AHI@Z@Z 10073400 f i libucrtd:new_handler.obj
 0001:00072440       ?value@?$dual_state_global@P6AHI@Z@__crt_state_management@@QAEAAP6AHI@ZXZ 10073440 f i libucrtd:new_handler.obj
 0001:00072460       ___acrt_initialize_new_handler 10073460 f   libucrtd:new_handler.obj
 0001:00072480       __callnewh                 10073480 f   libucrtd:new_handler.obj
 0001:000724c0       __query_new_handler        100734c0 f   libucrtd:new_handler.obj
 0001:00072550       __set_new_handler          10073550 f   libucrtd:new_handler.obj
 0001:00072630       __get_terminate            10073630 f   libucrtd:terminate.obj
 0001:00072650       _set_terminate             10073650 f   libucrtd:terminate.obj
 0001:00072680       _terminate                 10073680 f   libucrtd:terminate.obj
 0001:00073050       __makepath                 10074050 f   libucrtd:makepath.obj
 0001:00073080       __makepath_s               10074080 f   libucrtd:makepath.obj
 0001:000730b0       __wmakepath                100740b0 f   libucrtd:makepath.obj
 0001:000730e0       __wmakepath_s              100740e0 f   libucrtd:makepath.obj
 0001:00074a30       ??$tcsncpy_s@AAPADIAAPBDABI@?$__crt_char_traits@D@@SAHAAPAD$$QAIAAPBDABI@Z 10075a30 f i libucrtd:splitpath.obj
 0001:00074a60       ??$tcsncpy_s@AAPADIAAPBDH@?$__crt_char_traits@D@@SAHAAPAD$$QAIAAPBD$$QAH@Z 10075a60 f i libucrtd:splitpath.obj
 0001:00074a90       ??$tcsncpy_s@AAPA_WIAAPB_WABI@?$__crt_char_traits@_W@@SAHAAPA_W$$QAIAAPB_WABI@Z 10075a90 f i libucrtd:splitpath.obj
 0001:00074ac0       ??$tcsncpy_s@AAPA_WIAAPB_WH@?$__crt_char_traits@_W@@SAHAAPA_W$$QAIAAPB_W$$QAH@Z 10075ac0 f i libucrtd:splitpath.obj
 0001:00074d00       __splitpath                10075d00 f   libucrtd:splitpath.obj
 0001:00074d30       __splitpath_s              10075d30 f   libucrtd:splitpath.obj
 0001:00074d80       __wsplitpath               10075d80 f   libucrtd:splitpath.obj
 0001:00074db0       __wsplitpath_s             10075db0 f   libucrtd:splitpath.obj
 0001:00074e00       __set_abort_behavior       10075e00 f   libucrtd:abort.obj
 0001:00074e30       _abort                     10075e30 f   libucrtd:abort.obj
 0001:00074ea0       _strcmp                    10075ea0 f   libucrtd:strcmp.obj
 0001:00074f30       _strlen                    10075f30 f   libucrtd:strlen.obj
 0001:00074fc0       ??$is_overflow_condition@K@__crt_strtox@@YA_NIK@Z 10075fc0 f i libucrtd:atox.obj
 0001:00075020       ??$is_overflow_condition@_K@__crt_strtox@@YA_NI_K@Z 10076020 f i libucrtd:atox.obj
 0001:000750b0       ??$make_c_string_character_source@D$$T@__crt_strtox@@YA?AV?$c_string_character_source@D@0@QBD$$T@Z 100760b0 f i libucrtd:atox.obj
 0001:000750d0       ??$make_c_string_character_source@_W$$T@__crt_strtox@@YA?AV?$c_string_character_source@_W@0@QB_W$$T@Z 100760d0 f i libucrtd:atox.obj
 0001:000750f0       ??$parse_integer@KV?$c_string_character_source@D@__crt_strtox@@@__crt_strtox@@YAKQAU__crt_locale_pointers@@V?$c_string_character_source@D@0@H_N@Z 100760f0 f i libucrtd:atox.obj
 0001:00075460       ??$parse_integer@KV?$c_string_character_source@_W@__crt_strtox@@@__crt_strtox@@YAKQAU__crt_locale_pointers@@V?$c_string_character_source@_W@0@H_N@Z 10076460 f i libucrtd:atox.obj
 0001:000757d0       ??$parse_integer@_KV?$c_string_character_source@D@__crt_strtox@@@__crt_strtox@@YA_KQAU__crt_locale_pointers@@V?$c_string_character_source@D@0@H_N@Z 100767d0 f i libucrtd:atox.obj
 0001:00075bf0       ??$parse_integer@_KV?$c_string_character_source@_W@__crt_strtox@@@__crt_strtox@@YA_KQAU__crt_locale_pointers@@V?$c_string_character_source@_W@0@H_N@Z 10076bf0 f i libucrtd:atox.obj
 0001:00076020       ??$parse_integer_from_string@JD$$T@__crt_strtox@@YAJQBD$$THQAU__crt_locale_pointers@@@Z 10077020 f i libucrtd:atox.obj
 0001:00076060       ??$parse_integer_from_string@J_W$$T@__crt_strtox@@YAJQB_W$$THQAU__crt_locale_pointers@@@Z 10077060 f i libucrtd:atox.obj
 0001:000760a0       ??$parse_integer_from_string@_JD$$T@__crt_strtox@@YA_JQBD$$THQAU__crt_locale_pointers@@@Z 100770a0 f i libucrtd:atox.obj
 0001:000760e0       ??$parse_integer_from_string@_J_W$$T@__crt_strtox@@YA_JQB_W$$THQAU__crt_locale_pointers@@@Z 100770e0 f i libucrtd:atox.obj
 0001:00076120       ??0?$c_string_character_source@D@__crt_strtox@@QAE@QBDQAPBD@Z 10077120 f i libucrtd:atox.obj
 0001:00076160       ??0?$c_string_character_source@_W@__crt_strtox@@QAE@QB_WQAPB_W@Z 10077160 f i libucrtd:atox.obj
 0001:000761a0       ??1?$c_string_character_source@D@__crt_strtox@@QAE@XZ 100771a0 f i libucrtd:atox.obj
 0001:000761d0       ??1?$c_string_character_source@_W@__crt_strtox@@QAE@XZ 100771d0 f i libucrtd:atox.obj
 0001:00076200       ?get@?$c_string_character_source@D@__crt_strtox@@QAEDXZ 10077200 f i libucrtd:atox.obj
 0001:00076230       ?get@?$c_string_character_source@_W@__crt_strtox@@QAE_WXZ 10077230 f i libucrtd:atox.obj
 0001:00076260       ?is_space@__crt_strtox@@YA_NDQAU__crt_locale_pointers@@@Z 10077260 f i libucrtd:atox.obj
 0001:000762a0       ?is_space@__crt_strtox@@YA_N_WPAU__crt_locale_pointers@@@Z 100772a0 f i libucrtd:atox.obj
 0001:000762d0       ?maximum_signed_value@__crt_strtox@@YAJK@Z 100772d0 f i libucrtd:atox.obj
 0001:000762e0       ?maximum_signed_value@__crt_strtox@@YA_J_K@Z 100772e0 f i libucrtd:atox.obj
 0001:000762f0       ?minimum_signed_value@__crt_strtox@@YAJK@Z 100772f0 f i libucrtd:atox.obj
 0001:00076300       ?minimum_signed_value@__crt_strtox@@YA_J_K@Z 10077300 f i libucrtd:atox.obj
 0001:00076310       ?parse_digit@__crt_strtox@@YAID@Z 10077310 f i libucrtd:atox.obj
 0001:00076370       ?parse_digit@__crt_strtox@@YAI_W@Z 10077370 f i libucrtd:atox.obj
 0001:000763c0       ?restore_state@?$c_string_character_source@D@__crt_strtox@@QAE_NQBD@Z 100773c0 f i libucrtd:atox.obj
 0001:000763e0       ?restore_state@?$c_string_character_source@_W@__crt_strtox@@QAE_NQB_W@Z 100773e0 f i libucrtd:atox.obj
 0001:00076400       ?save_state@?$c_string_character_source@D@__crt_strtox@@QBEPBDXZ 10077400 f i libucrtd:atox.obj
 0001:00076420       ?save_state@?$c_string_character_source@_W@__crt_strtox@@QBEPB_WXZ 10077420 f i libucrtd:atox.obj
 0001:00076440       ?unget@?$c_string_character_source@D@__crt_strtox@@QAEXD@Z 10077440 f i libucrtd:atox.obj
 0001:000764f0       ?unget@?$c_string_character_source@_W@__crt_strtox@@QAEX_W@Z 100774f0 f i libucrtd:atox.obj
 0001:000765a0       ?validate@?$c_string_character_source@D@__crt_strtox@@QBE_NXZ 100775a0 f i libucrtd:atox.obj
 0001:00076630       ?validate@?$c_string_character_source@_W@__crt_strtox@@QBE_NXZ 10077630 f i libucrtd:atox.obj
 0001:000766c0       ?wide_character_to_digit@__crt_strtox@@YAH_W@Z 100776c0 f i libucrtd:atox.obj
 0001:000769f0       ___ascii_iswalpha          100779f0 f i libucrtd:atox.obj
 0001:00076a30       ___ascii_toupper           10077a30 f i libucrtd:atox.obj
 0001:00076a50       ___ascii_towupper          10077a50 f i libucrtd:atox.obj
 0001:00076a70       __atoi64                   10077a70 f   libucrtd:atox.obj
 0001:00076a90       __atoi64_l                 10077a90 f   libucrtd:atox.obj
 0001:00076ab0       __atoi_l                   10077ab0 f   libucrtd:atox.obj
 0001:00076ad0       __atol_l                   10077ad0 f   libucrtd:atox.obj
 0001:00076af0       __atoll_l                  10077af0 f   libucrtd:atox.obj
 0001:00076b10       __wtoi                     10077b10 f   libucrtd:atox.obj
 0001:00076b30       __wtoi64                   10077b30 f   libucrtd:atox.obj
 0001:00076b50       __wtoi64_l                 10077b50 f   libucrtd:atox.obj
 0001:00076b70       __wtoi_l                   10077b70 f   libucrtd:atox.obj
 0001:00076b90       __wtol                     10077b90 f   libucrtd:atox.obj
 0001:00076bb0       __wtol_l                   10077bb0 f   libucrtd:atox.obj
 0001:00076bd0       __wtoll                    10077bd0 f   libucrtd:atox.obj
 0001:00076bf0       __wtoll_l                  10077bf0 f   libucrtd:atox.obj
 0001:00076c10       _atoi                      10077c10 f   libucrtd:atox.obj
 0001:00076c30       _atol                      10077c30 f   libucrtd:atox.obj
 0001:00076c50       _atoll                     10077c50 f   libucrtd:atox.obj
 0001:00076c70       _strncmp                   10077c70 f   libucrtd:strncmp.obj
 0001:00076cf0       _wcsncmp                   10077cf0 f   libucrtd:wcsncmp.obj
 0001:00076d50       __CrtGetDebugFillThreshold 10077d50 f   libucrtd:debug_fill_threshold.obj
 0001:00076d60       __CrtSetDebugFillThreshold 10077d60 f   libucrtd:debug_fill_threshold.obj
 0001:00076d80       ??$make_c_string_character_source@DPAPAD@__crt_strtox@@YA?AV?$c_string_character_source@D@0@QBDQAPAD@Z 10077d80 f i libucrtd:strtox.obj
 0001:00076da0       ??$make_c_string_character_source@_WPAPA_W@__crt_strtox@@YA?AV?$c_string_character_source@_W@0@QB_WQAPA_W@Z 10077da0 f i libucrtd:strtox.obj
 0001:00076dc0       ??$parse_integer_from_string@JDPAPAD@__crt_strtox@@YAJQBDQAPADHQAU__crt_locale_pointers@@@Z 10077dc0 f i libucrtd:strtox.obj
 0001:00076e00       ??$parse_integer_from_string@J_WPAPA_W@__crt_strtox@@YAJQB_WQAPA_WHQAU__crt_locale_pointers@@@Z 10077e00 f i libucrtd:strtox.obj
 0001:00076e40       ??$parse_integer_from_string@KDPAPAD@__crt_strtox@@YAKQBDQAPADHQAU__crt_locale_pointers@@@Z 10077e40 f i libucrtd:strtox.obj
 0001:00076e80       ??$parse_integer_from_string@K_WPAPA_W@__crt_strtox@@YAKQB_WQAPA_WHQAU__crt_locale_pointers@@@Z 10077e80 f i libucrtd:strtox.obj
 0001:00076ec0       ??$parse_integer_from_string@_JDPAPAD@__crt_strtox@@YA_JQBDQAPADHQAU__crt_locale_pointers@@@Z 10077ec0 f i libucrtd:strtox.obj
 0001:00076f00       ??$parse_integer_from_string@_J_WPAPA_W@__crt_strtox@@YA_JQB_WQAPA_WHQAU__crt_locale_pointers@@@Z 10077f00 f i libucrtd:strtox.obj
 0001:00076f40       ??$parse_integer_from_string@_KDPAPAD@__crt_strtox@@YA_KQBDQAPADHQAU__crt_locale_pointers@@@Z 10077f40 f i libucrtd:strtox.obj
 0001:00076f80       ??$parse_integer_from_string@_K_WPAPA_W@__crt_strtox@@YA_KQB_WQAPA_WHQAU__crt_locale_pointers@@@Z 10077f80 f i libucrtd:strtox.obj
 0001:00076fc0       __strtoi64                 10077fc0 f   libucrtd:strtox.obj
 0001:00076fe0       __strtoi64_l               10077fe0 f   libucrtd:strtox.obj
 0001:00077000       __strtoimax_l              10078000 f   libucrtd:strtox.obj
 0001:00077020       __strtol_l                 10078020 f   libucrtd:strtox.obj
 0001:00077040       __strtoll_l                10078040 f   libucrtd:strtox.obj
 0001:00077060       __strtoui64                10078060 f   libucrtd:strtox.obj
 0001:00077080       __strtoui64_l              10078080 f   libucrtd:strtox.obj
 0001:000770a0       __strtoul_l                100780a0 f   libucrtd:strtox.obj
 0001:000770c0       __strtoull_l               100780c0 f   libucrtd:strtox.obj
 0001:000770e0       __strtoumax_l              100780e0 f   libucrtd:strtox.obj
 0001:00077100       __wcstoi64                 10078100 f   libucrtd:strtox.obj
 0001:00077120       __wcstoi64_l               10078120 f   libucrtd:strtox.obj
 0001:00077140       __wcstoimax_l              10078140 f   libucrtd:strtox.obj
 0001:00077160       __wcstol_l                 10078160 f   libucrtd:strtox.obj
 0001:00077180       __wcstoll_l                10078180 f   libucrtd:strtox.obj
 0001:000771a0       __wcstoui64                100781a0 f   libucrtd:strtox.obj
 0001:000771c0       __wcstoui64_l              100781c0 f   libucrtd:strtox.obj
 0001:000771e0       __wcstoul_l                100781e0 f   libucrtd:strtox.obj
 0001:00077200       __wcstoull_l               10078200 f   libucrtd:strtox.obj
 0001:00077220       __wcstoumax_l              10078220 f   libucrtd:strtox.obj
 0001:00077240       _strtoimax                 10078240 f   libucrtd:strtox.obj
 0001:00077260       _strtol                    10078260 f   libucrtd:strtox.obj
 0001:00077280       _strtoll                   10078280 f   libucrtd:strtox.obj
 0001:000772a0       _strtoul                   100782a0 f   libucrtd:strtox.obj
 0001:000772c0       _strtoull                  100782c0 f   libucrtd:strtox.obj
 0001:000772e0       _strtoumax                 100782e0 f   libucrtd:strtox.obj
 0001:00077300       _wcstoimax                 10078300 f   libucrtd:strtox.obj
 0001:00077320       _wcstol                    10078320 f   libucrtd:strtox.obj
 0001:00077340       _wcstoll                   10078340 f   libucrtd:strtox.obj
 0001:00077360       _wcstoul                   10078360 f   libucrtd:strtox.obj
 0001:00077380       _wcstoull                  10078380 f   libucrtd:strtox.obj
 0001:000773a0       _wcstoumax                 100783a0 f   libucrtd:strtox.obj
 0001:000773c0       __mbtowc_l                 100783c0 f   libucrtd:mbtowc.obj
 0001:000776e0       _mbtowc                    100786e0 f   libucrtd:mbtowc.obj
 0001:00077700       __wctomb_l                 10078700 f   libucrtd:wctomb.obj
 0001:00077780       __wctomb_s_l               10078780 f   libucrtd:wctomb.obj
 0001:00077b40       _wctomb                    10078b40 f   libucrtd:wctomb.obj
 0001:00077b90       _wctomb_s                  10078b90 f   libucrtd:wctomb.obj
 0001:00077bc0       ??$?RU__acrt_ptd@@@__crt_internal_free_policy@@QBEXQBU__acrt_ptd@@@Z 10078bc0 f i libucrtd:per_thread_data.obj
 0001:00078070       ??0?$__crt_unique_heap_ptr@U__acrt_ptd@@U__crt_internal_free_policy@@@@QAE@QAU__acrt_ptd@@@Z 10079070 f i libucrtd:per_thread_data.obj
 0001:00078090       ??0__crt_scoped_get_last_error_reset@@QAE@XZ 10079090 f i libucrtd:per_thread_data.obj
 0001:000780b0       ??1?$__crt_unique_heap_ptr@U__acrt_ptd@@U__crt_internal_free_policy@@@@QAE@XZ 100790b0 f i libucrtd:per_thread_data.obj
 0001:000780d0       ??1__crt_scoped_get_last_error_reset@@QAE@XZ 100790d0 f i libucrtd:per_thread_data.obj
 0001:000780f0       ??B?$__crt_unique_heap_ptr@U__acrt_ptd@@U__crt_internal_free_policy@@@@QBE_NXZ 100790f0 f i libucrtd:per_thread_data.obj
 0001:000783d0       ?dangerous_get_state_array@?$dual_state_global@PAU__crt_locale_data@@@__crt_state_management@@QAEPAPAU__crt_locale_data@@XZ 100793d0 f i libucrtd:per_thread_data.obj
 0001:00078550       ?detach@?$__crt_unique_heap_ptr@U__acrt_ptd@@U__crt_internal_free_policy@@@@QAEPAU__acrt_ptd@@XZ 10079550 f i libucrtd:per_thread_data.obj
 0001:00078580       ?get@?$__crt_unique_heap_ptr@U__acrt_ptd@@U__crt_internal_free_policy@@@@QBEPAU__acrt_ptd@@XZ 10079580 f i libucrtd:per_thread_data.obj
 0001:000785a0       ?get_current_state_index@__crt_state_management@@YAIABV__crt_scoped_get_last_error_reset@@@Z 100795a0 f i libucrtd:per_thread_data.obj
 0001:00078710       ?is_valid@?$__crt_unique_heap_ptr@U__acrt_ptd@@U__crt_internal_free_policy@@@@QBE_NXZ 10079710 f i libucrtd:per_thread_data.obj
 0001:00078740       ?release@?$__crt_unique_heap_ptr@U__acrt_ptd@@U__crt_internal_free_policy@@@@QAEXXZ 10079740 f i libucrtd:per_thread_data.obj
 0001:00078830       ?value@?$dual_state_global@PAU__crt_locale_data@@@__crt_state_management@@QAEAAPAU__crt_locale_data@@XZ 10079830 f i libucrtd:per_thread_data.obj
 0001:00078850       ___acrt_freeptd            10079850 f   libucrtd:per_thread_data.obj
 0001:00078880       ___acrt_getptd             10079880 f   libucrtd:per_thread_data.obj
 0001:000788a0       ___acrt_getptd_head        100798a0 f   libucrtd:per_thread_data.obj
 0001:000788c0       ___acrt_getptd_noexit      100798c0 f   libucrtd:per_thread_data.obj
 0001:000788d0       ___acrt_initialize_ptd     100798d0 f   libucrtd:per_thread_data.obj
 0001:00078910       ___acrt_uninitialize_ptd   10079910 f   libucrtd:per_thread_data.obj
 0001:00078940       ___threadhandle            10079940 f   libucrtd:per_thread_data.obj
 0001:00078950       ___threadid                10079950 f   libucrtd:per_thread_data.obj
 0001:00078960       ?value@?$dual_state_global@PAU__crt_multibyte_data@@@__crt_state_management@@QAEAAPAU__crt_multibyte_data@@XZ 10079960 f i libucrtd:locale_update.obj
 0001:00078980       ___acrt_should_sync_with_global_locale 10079980 f i libucrtd:locale_update.obj
 0001:000789b0       ___acrt_update_locale_info 100799b0 f   libucrtd:locale_update.obj
 0001:000789f0       ___acrt_update_multibyte_info 100799f0 f   libucrtd:locale_update.obj
 0001:00078a30       ?__acrt_fp_classify@@YA?AW4__acrt_fp_class@@ABN@Z 10079a30 f i libucrtd:cvt.obj
 0001:00078b50       ?__acrt_fp_is_negative@@YA_NABN@Z 10079b50 f i libucrtd:cvt.obj
 0001:00079e40       ?strrchr@@YAPADQADH@Z      1007ae40 f i libucrtd:cvt.obj
 0001:00079e60       ___acrt_fp_format          1007ae60 f   libucrtd:cvt.obj
 0001:0007a320       __fputwc_nolock            1007b320 f   libucrtd:fputwc.obj
 0001:0007a510       __fputwchar                1007b510 f   libucrtd:fputwc.obj
 0001:0007a530       __putwc_nolock             1007b530 f   libucrtd:fputwc.obj
 0001:0007a550       _fputwc                    1007b550 f   libucrtd:fputwc.obj
 0001:0007a660       _putwc                     1007b660 f   libucrtd:fputwc.obj
 0001:0007a680       _putwchar                  1007b680 f   libucrtd:fputwc.obj
 0001:0007a6a0       ?lowio_handle@__crt_stdio_stream@@QBEHXZ 1007b6a0 f i libucrtd:fileno.obj
 0001:0007a6c0       __fileno                   1007b6c0 f   libucrtd:fileno.obj
 0001:0007a760       ??$?RPAU__crt_stdio_stream_data@@@__crt_internal_free_policy@@QBEXQBQAU__crt_stdio_stream_data@@@Z 1007b760 f i libucrtd:_file.obj
 0001:0007a780       ??0?$__crt_unique_heap_ptr@PAU__crt_stdio_stream_data@@U__crt_internal_free_policy@@@@QAE@QAPAU__crt_stdio_stream_data@@@Z 1007b780 f i libucrtd:_file.obj
 0001:0007a7a0       ??1?$__crt_unique_heap_ptr@PAU__crt_stdio_stream_data@@U__crt_internal_free_policy@@@@QAE@XZ 1007b7a0 f i libucrtd:_file.obj
 0001:0007a7c0       ?detach@?$__crt_unique_heap_ptr@PAU__crt_stdio_stream_data@@U__crt_internal_free_policy@@@@QAEPAPAU__crt_stdio_stream_data@@XZ 1007b7c0 f i libucrtd:_file.obj
 0001:0007a7f0       ?release@?$__crt_unique_heap_ptr@PAU__crt_stdio_stream_data@@U__crt_internal_free_policy@@@@QAEXXZ 1007b7f0 f i libucrtd:_file.obj
 0001:0007a820       ___acrt_initialize_stdio   1007b820 f   libucrtd:_file.obj
 0001:0007a990       ___acrt_iob_func           1007b990 f   libucrtd:_file.obj
 0001:0007a9a0       ___acrt_uninitialize_stdio 1007b9a0 f   libucrtd:_file.obj
 0001:0007aa20       __get_stream_buffer_pointers 1007ba20 f   libucrtd:_file.obj
 0001:0007ab00       __lock_file                1007bb00 f   libucrtd:_file.obj
 0001:0007ab30       __unlock_file              1007bb30 f   libucrtd:_file.obj
 0001:0007ab60       __get_printf_count_output  1007bb60 f   libucrtd:printf_count_output.obj
 0001:0007ab90       __set_printf_count_output  1007bb90 f   libucrtd:printf_count_output.obj
 0001:0007abf0       ?has_any_buffer@__crt_stdio_stream@@QBE_NXZ 1007bbf0 f i libucrtd:_sftbuf.obj
 0001:0007ac10       ?has_any_of@__crt_stdio_stream@@QBE_NJ@Z 1007bc10 f i libucrtd:_sftbuf.obj
 0001:0007ac50       ?has_temporary_buffer@__crt_stdio_stream@@QBE_NXZ 1007bc50 f i libucrtd:_sftbuf.obj
 0001:0007ac70       ?set_flags@__crt_stdio_stream@@QBE_NJ@Z 1007bc70 f i libucrtd:_sftbuf.obj
 0001:0007acc0       ?unset_flags@__crt_stdio_stream@@QBE_NJ@Z 1007bcc0 f i libucrtd:_sftbuf.obj
 0001:0007ad10       ___acrt_should_use_temporary_buffer 1007bd10 f   libucrtd:_sftbuf.obj
 0001:0007ad60       ___acrt_stdio_begin_temporary_buffering_nolock 1007bd60 f   libucrtd:_sftbuf.obj
 0001:0007af10       ___acrt_stdio_end_temporary_buffering_nolock 1007bf10 f   libucrtd:_sftbuf.obj
 0001:0007afa0       ??$?RU__crt_locale_data@@@__crt_internal_free_policy@@QBEXQBU__crt_locale_data@@@Z 1007bfa0 f i libucrtd:wsetlocale.obj
 0001:0007afc0       ??$?RU__crt_locale_pointers@@@__crt_internal_free_policy@@QBEXQBU__crt_locale_pointers@@@Z 1007bfc0 f i libucrtd:wsetlocale.obj
 0001:0007afe0       ??$?RU__crt_multibyte_data@@@__crt_internal_free_policy@@QBEXQBU__crt_multibyte_data@@@Z 1007bfe0 f i libucrtd:wsetlocale.obj
 0001:0007b5d0       ??0?$__crt_unique_heap_ptr@U__crt_locale_data@@U__crt_internal_free_policy@@@@QAE@QAU__crt_locale_data@@@Z 1007c5d0 f i libucrtd:wsetlocale.obj
 0001:0007b5f0       ??0?$__crt_unique_heap_ptr@U__crt_locale_pointers@@U__crt_internal_free_policy@@@@QAE@QAU__crt_locale_pointers@@@Z 1007c5f0 f i libucrtd:wsetlocale.obj
 0001:0007b610       ??0?$__crt_unique_heap_ptr@U__crt_multibyte_data@@U__crt_internal_free_policy@@@@QAE@QAU__crt_multibyte_data@@@Z 1007c610 f i libucrtd:wsetlocale.obj
 0001:0007b630       ??0_expandlocale_locale_name_cache@@QAE@QA_WIQAU__crt_qualified_locale_data@@@Z 1007c630 f i libucrtd:wsetlocale.obj
 0001:0007b6a0       ??1?$__crt_unique_heap_ptr@U__crt_locale_data@@U__crt_internal_free_policy@@@@QAE@XZ 1007c6a0 f i libucrtd:wsetlocale.obj
 0001:0007b6c0       ??1?$__crt_unique_heap_ptr@U__crt_locale_pointers@@U__crt_internal_free_policy@@@@QAE@XZ 1007c6c0 f i libucrtd:wsetlocale.obj
 0001:0007b6e0       ??1?$__crt_unique_heap_ptr@U__crt_multibyte_data@@U__crt_internal_free_policy@@@@QAE@XZ 1007c6e0 f i libucrtd:wsetlocale.obj
 0001:0007b700       ??1_expandlocale_locale_name_cache@@QAE@XZ 1007c700 f i libucrtd:wsetlocale.obj
 0001:0007b760       ??B?$__crt_unique_heap_ptr@U__crt_locale_data@@U__crt_internal_free_policy@@@@QBE_NXZ 1007c760 f i libucrtd:wsetlocale.obj
 0001:0007b780       ??B?$__crt_unique_heap_ptr@U__crt_locale_pointers@@U__crt_internal_free_policy@@@@QBE_NXZ 1007c780 f i libucrtd:wsetlocale.obj
 0001:0007b7a0       ??B?$__crt_unique_heap_ptr@U__crt_multibyte_data@@U__crt_internal_free_policy@@@@QBE_NXZ 1007c7a0 f i libucrtd:wsetlocale.obj
 0001:0007bb80       ?commit_locale_name@_expandlocale_locale_name_cache@@QAEXQB_WI@Z 1007cb80 f i libucrtd:wsetlocale.obj
 0001:0007bbe0       ?commit_locale_name_cache_already_updated@_expandlocale_locale_name_cache@@QAEXQB_WI@Z 1007cbe0 f i libucrtd:wsetlocale.obj
 0001:0007bc40       ?detach@?$__crt_unique_heap_ptr@U__crt_locale_data@@U__crt_internal_free_policy@@@@QAEPAU__crt_locale_data@@XZ 1007cc40 f i libucrtd:wsetlocale.obj
 0001:0007bc70       ?detach@?$__crt_unique_heap_ptr@U__crt_locale_pointers@@U__crt_internal_free_policy@@@@QAEPAU__crt_locale_pointers@@XZ 1007cc70 f i libucrtd:wsetlocale.obj
 0001:0007bca0       ?detach@?$__crt_unique_heap_ptr@U__crt_multibyte_data@@U__crt_internal_free_policy@@@@QAEPAU__crt_multibyte_data@@XZ 1007cca0 f i libucrtd:wsetlocale.obj
 0001:0007bcd0       ?get@?$__crt_unique_heap_ptr@U__crt_locale_data@@U__crt_internal_free_policy@@@@QBEPAU__crt_locale_data@@XZ 1007ccd0 f i libucrtd:wsetlocale.obj
 0001:0007bcf0       ?get@?$__crt_unique_heap_ptr@U__crt_locale_pointers@@U__crt_internal_free_policy@@@@QBEPAU__crt_locale_pointers@@XZ 1007ccf0 f i libucrtd:wsetlocale.obj
 0001:0007bd10       ?get@?$__crt_unique_heap_ptr@U__crt_multibyte_data@@U__crt_internal_free_policy@@@@QBEPAU__crt_multibyte_data@@XZ 1007cd10 f i libucrtd:wsetlocale.obj
 0001:0007bd30       ?is_valid@?$__crt_unique_heap_ptr@U__crt_locale_data@@U__crt_internal_free_policy@@@@QBE_NXZ 1007cd30 f i libucrtd:wsetlocale.obj
 0001:0007bd60       ?is_valid@?$__crt_unique_heap_ptr@U__crt_locale_pointers@@U__crt_internal_free_policy@@@@QBE_NXZ 1007cd60 f i libucrtd:wsetlocale.obj
 0001:0007bd90       ?is_valid@?$__crt_unique_heap_ptr@U__crt_multibyte_data@@U__crt_internal_free_policy@@@@QBE_NXZ 1007cd90 f i libucrtd:wsetlocale.obj
 0001:0007bdc0       ?release@?$__crt_unique_heap_ptr@U__crt_locale_data@@U__crt_internal_free_policy@@@@QAEXXZ 1007cdc0 f i libucrtd:wsetlocale.obj
 0001:0007bdf0       ?release@?$__crt_unique_heap_ptr@U__crt_locale_pointers@@U__crt_internal_free_policy@@@@QAEXXZ 1007cdf0 f i libucrtd:wsetlocale.obj
 0001:0007be20       ?release@?$__crt_unique_heap_ptr@U__crt_multibyte_data@@U__crt_internal_free_policy@@@@QAEXXZ 1007ce20 f i libucrtd:wsetlocale.obj
 0001:0007be50       ___acrt_copy_locale_name   1007ce50 f   libucrtd:wsetlocale.obj
 0001:0007bef0       ___acrt_set_locale_changed 1007cef0 f   libucrtd:wsetlocale.obj
 0001:0007bf10       ___acrt_uninitialize_locale 1007cf10 f   libucrtd:wsetlocale.obj
 0001:0007bf30       ___ascii_tolower           1007cf30 f i libucrtd:wsetlocale.obj
 0001:0007bf50       ___ascii_towlower          1007cf50 f i libucrtd:wsetlocale.obj
 0001:0007bf70       ___lc_lctowcs              1007cf70 f   libucrtd:wsetlocale.obj
 0001:0007c020       ___lc_wcstolc              1007d020 f   libucrtd:wsetlocale.obj
 0001:0007c250       __configthreadlocale       1007d250 f   libucrtd:wsetlocale.obj
 0001:0007c3d0       __create_locale            1007d3d0 f   libucrtd:wsetlocale.obj
 0001:0007ca10       __free_locale              1007da10 f   libucrtd:wsetlocale.obj
 0001:0007cb40       __get_current_locale       1007db40 f   libucrtd:wsetlocale.obj
 0001:0007cc10       __wcreate_locale           1007dc10 f   libucrtd:wsetlocale.obj
 0001:0007ce50       __wcscats                  1007de50 f   libucrtd:wsetlocale.obj
 0001:0007ced0       __wsetlocale               1007ded0 f   libucrtd:wsetlocale.obj
 0001:0007e5c0       ___p___mb_cur_max          1007f5c0 f   libucrtd:nlsdata.obj
 0001:0007e8c0       ___acrt_initialize_lowio   1007f8c0 f   libucrtd:ioinit.obj
 0001:0007e960       ___acrt_uninitialize_lowio 1007f960 f   libucrtd:ioinit.obj
 0001:0007e9c0       __CrtGetReportHook         1007f9c0 f   libucrtd:dbgrptt.obj
 0001:0007e9d0       __CrtSetReportFile         1007f9d0 f   libucrtd:dbgrptt.obj
 0001:0007ead0       __CrtSetReportHook         1007fad0 f   libucrtd:dbgrptt.obj
 0001:0007eaf0       __CrtSetReportMode         1007faf0 f   libucrtd:dbgrptt.obj
 0001:0007ec30       __VCrtDbgReportA           1007fc30 f   libucrtd:dbgrptt.obj
 0001:0007f4b0       __VCrtDbgReportW           100804b0 f   libucrtd:dbgrptt.obj
 0001:0007fe60       __snprintf_s               10080e60 f i libucrtd:dbgrptt.obj
 0001:0007fea0       __vsnprintf_s              10080ea0 f i libucrtd:dbgrptt.obj
 0001:0007fed0       __vsnprintf_s_l            10080ed0 f i libucrtd:dbgrptt.obj
 0001:00080060       ??$__acrt_wcs_to_mbs_cp@U__crt_win32_buffer_no_resizing@@@@YAHQB_WAAV?$__crt_win32_buffer@DU__crt_win32_buffer_no_resizing@@@@I@Z 10081060 f i libucrtd:getmodulefilenamea.obj
 0001:00080090       ??0?$__crt_win32_buffer@DU__crt_win32_buffer_no_resizing@@@@QAE@QADI@Z 10081090 f i libucrtd:getmodulefilenamea.obj
 0001:000800e0       ??1?$__crt_win32_buffer@DU__crt_win32_buffer_no_resizing@@@@QAE@XZ 100810e0 f i libucrtd:getmodulefilenamea.obj
 0001:00080150       ?__acrt_get_utf8_acp_compatibility_codepage@@YAIXZ 10081150 f i libucrtd:getmodulefilenamea.obj
 0001:000801e0       ?_deallocate@?$__crt_win32_buffer@DU__crt_win32_buffer_no_resizing@@@@AAEXXZ 100811e0 f i libucrtd:getmodulefilenamea.obj
 0001:00080220       ?allocate@?$__crt_win32_buffer@DU__crt_win32_buffer_no_resizing@@@@QAEHI@Z 10081220 f i libucrtd:getmodulefilenamea.obj
 0001:00080290       ?allocate@__crt_win32_buffer_no_resizing@@SAHQAPAXIABV__crt_win32_buffer_empty_debug_info@@@Z 10081290 f i libucrtd:getmodulefilenamea.obj
 0001:000802b0       ?capacity@?$__crt_win32_buffer@DU__crt_win32_buffer_no_resizing@@@@QBEIXZ 100812b0 f i libucrtd:getmodulefilenamea.obj
 0001:000802d0       ?data@?$__crt_win32_buffer@DU__crt_win32_buffer_no_resizing@@@@QAEPADXZ 100812d0 f i libucrtd:getmodulefilenamea.obj
 0001:000802f0       ?deallocate@__crt_win32_buffer_no_resizing@@SAXQAXABV__crt_win32_buffer_empty_debug_info@@@Z 100812f0 f i libucrtd:getmodulefilenamea.obj
 0001:00080300       ?debug_info@?$__crt_win32_buffer@DU__crt_win32_buffer_no_resizing@@@@QBEABV__crt_win32_buffer_empty_debug_info@@XZ 10081300 f i libucrtd:getmodulefilenamea.obj
 0001:00080310       ?set_to_nullptr@?$__crt_win32_buffer@DU__crt_win32_buffer_no_resizing@@@@QAEXXZ 10081310 f i libucrtd:getmodulefilenamea.obj
 0001:00080350       ?size@?$__crt_win32_buffer@DU__crt_win32_buffer_no_resizing@@@@QAEXI@Z 10081350 f i libucrtd:getmodulefilenamea.obj
 0001:00080370       ?size@?$__crt_win32_buffer@DU__crt_win32_buffer_no_resizing@@@@QBEIXZ 10081370 f i libucrtd:getmodulefilenamea.obj
 0001:00080390       ___acrt_GetModuleFileNameA 10081390 f   libucrtd:getmodulefilenamea.obj
 0001:00080670       ??$message_box@$$TABQBDABQBDK@?$__crt_char_traits@D@@SAH$$QA$$TABQBD1$$QAK@Z 10081670 f i libucrtd:crtmbox.obj
 0001:000806a0       ??$message_box@$$TABQB_WABQB_WK@?$__crt_char_traits@_W@@SAH$$QA$$TABQB_W1$$QAK@Z 100816a0 f i libucrtd:crtmbox.obj
 0001:000806d0       ??$message_box@PAUHWND__@@ABQBDABQBDABI@?$__crt_char_traits@D@@SAH$$QAPAUHWND__@@ABQBD1ABI@Z 100816d0 f i libucrtd:crtmbox.obj
 0001:00080700       ??$message_box@PAUHWND__@@ABQB_WABQB_WABI@?$__crt_char_traits@_W@@SAH$$QAPAUHWND__@@ABQB_W1ABI@Z 10081700 f i libucrtd:crtmbox.obj
 0001:00080730       ??$output_debug_string@ABQBD@?$__crt_char_traits@D@@SAXABQBD@Z 10081730 f i libucrtd:crtmbox.obj
 0001:00080750       ??$output_debug_string@ABQB_W@?$__crt_char_traits@_W@@SAXABQB_W@Z 10081750 f i libucrtd:crtmbox.obj
 0001:00080770       ___acrt_show_narrow_message_box 10081770 f   libucrtd:crtmbox.obj
 0001:00080790       ___acrt_show_wide_message_box 10081790 f   libucrtd:crtmbox.obj
 0001:000807b0       ___acrt_initialize_locks   100817b0 f   libucrtd:locks.obj
 0001:00080810       ___acrt_lock               10081810 f   libucrtd:locks.obj
 0001:00080830       ___acrt_uninitialize_locks 10081830 f   libucrtd:locks.obj
 0001:00080880       ___acrt_unlock             10081880 f   libucrtd:locks.obj
 0001:000808a0       __lock_locales             100818a0 f   libucrtd:locks.obj
 0001:000808c0       __unlock_locales           100818c0 f   libucrtd:locks.obj
 0001:000808e0       ??$?B$$A6AXH@Z@__crt_fast_encoded_nullptr_t@@QBEP6AXH@ZXZ 100818e0 f i libucrtd:signal.obj
 0001:000809d0       ??$__crt_fast_decode_pointer@P6AXH@Z@@YAP6AXH@ZQ6AXH@Z@Z 100819d0 f i libucrtd:signal.obj
 0001:00080a00       ??$__crt_fast_encode_pointer@P6AXH@Z@@YAP6AXH@ZQ6AXH@Z@Z 10081a00 f i libucrtd:signal.obj
 0001:00080cb0       ?initialize@?$dual_state_global@P6AXH@Z@__crt_state_management@@QAEXQ6AXH@Z@Z 10081cb0 f i libucrtd:signal.obj
 0001:00080df0       ?value@?$dual_state_global@P6AXH@Z@__crt_state_management@@QAEAAP6AXH@ZXZ 10081df0 f i libucrtd:signal.obj
 0001:00080e10       ___acrt_get_sigabrt_handler 10081e10 f   libucrtd:signal.obj
 0001:00080e30       ___acrt_initialize_signal_handlers 10081e30 f   libucrtd:signal.obj
 0001:00080e70       ___fpecode                 10081e70 f   libucrtd:signal.obj
 0001:00080e80       ___pxcptinfoptrs           10081e80 f   libucrtd:signal.obj
 0001:00080e90       _raise                     10081e90 f   libucrtd:signal.obj
 0001:00081260       _signal                    10082260 f   libucrtd:signal.obj
 0001:000814e0       __msize                    100824e0 f   libucrtd:msize.obj
 0001:00081500       __msize_base               10082500 f   libucrtd:msize.obj
 0001:000815a0       __realloc_base             100825a0 f   libucrtd:realloc_base.obj
 0001:00081660       ??$?B$$A6GHPA_WKJ@Z@__crt_fast_encoded_nullptr_t@@QBEP6GHPA_WKJ@ZXZ 10082660 f i libucrtd:winapi_thunks.obj
 0001:00081750       ??$__crt_fast_decode_pointer@P6GHPA_WKJ@Z@@YAP6GHPA_WKJ@ZQ6GH0KJ@Z@Z 10082750 f i libucrtd:winapi_thunks.obj
 0001:00081780       ??$__crt_fast_decode_pointer@PAX@@YAPAXQAX@Z 10082780 f i libucrtd:winapi_thunks.obj
 0001:000817b0       ??$__crt_fast_encode_pointer@P6GHPA_WKJ@Z@@YAP6GHPA_WKJ@ZQ6GH0KJ@Z@Z 100827b0 f i libucrtd:winapi_thunks.obj
 0001:00082110       _GetCurrentThreadEffectiveToken 10083110 f i libucrtd:winapi_thunks.obj
 0001:00082120       ___acrt_AppPolicyGetProcessTerminationMethodInternal@4 10083120 f   libucrtd:winapi_thunks.obj
 0001:00082160       ___acrt_AppPolicyGetShowDeveloperDiagnosticInternal@4 10083160 f   libucrtd:winapi_thunks.obj
 0001:000821a0       ___acrt_AppPolicyGetThreadInitializationTypeInternal@4 100831a0 f   libucrtd:winapi_thunks.obj
 0001:000821e0       ___acrt_AppPolicyGetWindowingModelInternal@4 100831e0 f   libucrtd:winapi_thunks.obj
 0001:00082220       ___acrt_AreFileApisANSI@0  10083220 f   libucrtd:winapi_thunks.obj
 0001:00082260       ___acrt_CompareStringEx@36 10083260 f   libucrtd:winapi_thunks.obj
 0001:000822e0       ___acrt_EnumSystemLocalesEx@16 100832e0 f   libucrtd:winapi_thunks.obj
 0001:00082340       ___acrt_FlsAlloc@4         10083340 f   libucrtd:winapi_thunks.obj
 0001:00082380       ___acrt_FlsFree@4          10083380 f   libucrtd:winapi_thunks.obj
 0001:000823c0       ___acrt_FlsGetValue@4      100833c0 f   libucrtd:winapi_thunks.obj
 0001:00082400       ___acrt_FlsSetValue@8      10083400 f   libucrtd:winapi_thunks.obj
 0001:00082450       ___acrt_GetDateFormatEx@28 10083450 f   libucrtd:winapi_thunks.obj
 0001:000824d0       ___acrt_GetEnabledXStateFeatures@0 100834d0 f   libucrtd:winapi_thunks.obj
 0001:00082510       ___acrt_GetLocaleInfoEx@16 10083510 f   libucrtd:winapi_thunks.obj
 0001:00082570       ___acrt_GetSystemTimePreciseAsFileTime@4 10083570 f   libucrtd:winapi_thunks.obj
 0001:000825b0       ___acrt_GetTimeFormatEx@24 100835b0 f   libucrtd:winapi_thunks.obj
 0001:00082620       ___acrt_GetUserDefaultLocaleName@8 10083620 f   libucrtd:winapi_thunks.obj
 0001:00082670       ___acrt_GetXStateFeaturesMask@8 10083670 f   libucrtd:winapi_thunks.obj
 0001:000826b0       ___acrt_InitializeCriticalSectionEx@12 100836b0 f   libucrtd:winapi_thunks.obj
 0001:00082700       ___acrt_IsValidLocaleName@4 10083700 f   libucrtd:winapi_thunks.obj
 0001:00082750       ___acrt_LCIDToLocaleName@16 10083750 f   libucrtd:winapi_thunks.obj
 0001:000827b0       ___acrt_LCMapStringEx@36   100837b0 f   libucrtd:winapi_thunks.obj
 0001:00082830       ___acrt_LocaleNameToLCID@8 10083830 f   libucrtd:winapi_thunks.obj
 0001:00082880       ___acrt_LocateXStateFeature@12 10083880 f   libucrtd:winapi_thunks.obj
 0001:000828d0       ___acrt_MessageBoxA@16     100838d0 f   libucrtd:winapi_thunks.obj
 0001:00082920       ___acrt_MessageBoxW@16     10083920 f   libucrtd:winapi_thunks.obj
 0001:00082970       ___acrt_RoInitialize@4     10083970 f   libucrtd:winapi_thunks.obj
 0001:000829b0       ___acrt_RoUninitialize@0   100839b0 f   libucrtd:winapi_thunks.obj
 0001:000829e0       ___acrt_RtlGenRandom@8     100839e0 f   libucrtd:winapi_thunks.obj
 0001:00082a20       ___acrt_SetThreadStackGuarantee@4 10083a20 f   libucrtd:winapi_thunks.obj
 0001:00082a60       ___acrt_can_show_message_box 10083a60 f   libucrtd:winapi_thunks.obj
 0001:00082aa0       ___acrt_can_use_vista_locale_apis 10083aa0 f   libucrtd:winapi_thunks.obj
 0001:00082ad0       ___acrt_can_use_xstate_apis 10083ad0 f   libucrtd:winapi_thunks.obj
 0001:00082b00       ___acrt_eagerly_load_locale_apis 10083b00 f   libucrtd:winapi_thunks.obj
 0001:00082b40       ___acrt_get_parent_window  10083b40 f   libucrtd:winapi_thunks.obj
 0001:00082bb0       ___acrt_initialize_winapi_thunks 10083bb0 f   libucrtd:winapi_thunks.obj
 0001:00082c20       ___acrt_is_interactive     10083c20 f   libucrtd:winapi_thunks.obj
 0001:00082cd0       ___acrt_uninitialize_winapi_thunks 10083cd0 f   libucrtd:winapi_thunks.obj
 0001:00082d40       __chvalidator              10083d40 f   libucrtd:isctype.obj
 0001:00082d90       __chvalidator_l            10083d90 f   libucrtd:isctype.obj
 0001:00082e10       __isctype                  10083e10 f   libucrtd:isctype.obj
 0001:00082e50       __isctype_l                10083e50 f   libucrtd:isctype.obj
 0001:00082fd0       __isleadbyte_fast_internal 10083fd0 f i libucrtd:isctype.obj
 0001:00082ff0       ??$?RU__crt_stdio_stream_data@@@__crt_internal_free_policy@@QBEXQBU__crt_stdio_stream_data@@@Z 10083ff0 f i libucrtd:stream.obj
 0001:00083010       ??0?$__crt_unique_heap_ptr@U__crt_stdio_stream_data@@U__crt_internal_free_policy@@@@QAE@QAU__crt_stdio_stream_data@@@Z 10084010 f i libucrtd:stream.obj
 0001:00083030       ??0__crt_stdio_stream@@QAE@QAU__crt_stdio_stream_data@@@Z 10084030 f i libucrtd:stream.obj
 0001:00083050       ??0__crt_stdio_stream@@QAE@XZ 10084050 f i libucrtd:stream.obj
 0001:00083070       ??1?$__crt_unique_heap_ptr@U__crt_stdio_stream_data@@U__crt_internal_free_policy@@@@QAE@XZ 10084070 f i libucrtd:stream.obj
 0001:00083090       ?__acrt_stdio_allocate_stream@@YA?AV__crt_stdio_stream@@XZ 10084090 f   libucrtd:stream.obj
 0001:00083180       ?__acrt_stdio_free_stream@@YAXV__crt_stdio_stream@@@Z 10084180 f   libucrtd:stream.obj
 0001:00083200       ?deallocate@__crt_stdio_stream@@QAEXXZ 10084200 f i libucrtd:stream.obj
 0001:00083220       ?detach@?$__crt_unique_heap_ptr@U__crt_stdio_stream_data@@U__crt_internal_free_policy@@@@QAEPAU__crt_stdio_stream_data@@XZ 10084220 f i libucrtd:stream.obj
 0001:00083390       ?lock@__crt_stdio_stream@@QBEXXZ 10084390 f i libucrtd:stream.obj
 0001:000833b0       ?release@?$__crt_unique_heap_ptr@U__crt_stdio_stream_data@@U__crt_internal_free_policy@@@@QAEXXZ 100843b0 f i libucrtd:stream.obj
 0001:000833e0       ?try_allocate@__crt_stdio_stream@@QAE_NXZ 100843e0 f i libucrtd:stream.obj
 0001:00083430       ??$__acrt_stdio_parse_mode@D@@YA?AU__acrt_stdio_stream_mode@@QBD@Z 10084430 f i libucrtd:openfile.obj
 0001:00083ca0       ??$__acrt_stdio_parse_mode@_W@@YA?AU__acrt_stdio_stream_mode@@QB_W@Z 10084ca0 f i libucrtd:openfile.obj
 0001:00084830       ??$tcsncmp@AAPBDAAY02$$CBDI@?$__crt_char_traits@D@@SAHAAPBDAAY02$$CBD$$QAI@Z 10085830 f i libucrtd:openfile.obj
 0001:00084850       ??$tcsncmp@AAPB_WAAY02$$CB_WI@?$__crt_char_traits@_W@@SAHAAPB_WAAY02$$CB_W$$QAI@Z 10085850 f i libucrtd:openfile.obj
 0001:00084870       ??$tcsnicmp@AAPBDAAY04$$CBDI@?$__crt_char_traits@D@@SAHAAPBDAAY04$$CBD$$QAI@Z 10085870 f i libucrtd:openfile.obj
 0001:00084890       ??$tcsnicmp@AAPBDAAY06$$CBDI@?$__crt_char_traits@D@@SAHAAPBDAAY06$$CBD$$QAI@Z 10085890 f i libucrtd:openfile.obj
 0001:000848b0       ??$tcsnicmp@AAPBDAAY07$$CBDI@?$__crt_char_traits@D@@SAHAAPBDAAY07$$CBD$$QAI@Z 100858b0 f i libucrtd:openfile.obj
 0001:000848d0       ??$tcsnicmp@AAPB_WAAY04$$CB_WI@?$__crt_char_traits@_W@@SAHAAPB_WAAY04$$CB_W$$QAI@Z 100858d0 f i libucrtd:openfile.obj
 0001:000848f0       ??$tcsnicmp@AAPB_WAAY06$$CB_WI@?$__crt_char_traits@_W@@SAHAAPB_WAAY06$$CB_W$$QAI@Z 100858f0 f i libucrtd:openfile.obj
 0001:00084910       ??$tcsnicmp@AAPB_WAAY07$$CB_WI@?$__crt_char_traits@_W@@SAHAAPB_WAAY07$$CB_W$$QAI@Z 10085910 f i libucrtd:openfile.obj
 0001:00084930       ??$tsopen_s@PAHABQBDABHABHH@?$__crt_char_traits@D@@SAH$$QAPAHABQBDABH2$$QAH@Z 10085930 f i libucrtd:openfile.obj
 0001:00084960       ??$tsopen_s@PAHABQB_WABHABHH@?$__crt_char_traits@_W@@SAH$$QAPAHABQB_WABH2$$QAH@Z 10085960 f i libucrtd:openfile.obj
 0001:00084990       ?__acrt_stdio_parse_mode_D@@YA_NAAU__acrt_stdio_stream_mode@@@Z 10085990 f i libucrtd:openfile.obj
 0001:000849c0       ?__acrt_stdio_parse_mode_N@@YA_NAAU__acrt_stdio_stream_mode@@@Z 100859c0 f i libucrtd:openfile.obj
 0001:000849e0       ?__acrt_stdio_parse_mode_R@@YA_NAAU__acrt_stdio_stream_mode@@AA_N@Z 100859e0 f i libucrtd:openfile.obj
 0001:00084a10       ?__acrt_stdio_parse_mode_S@@YA_NAAU__acrt_stdio_stream_mode@@AA_N@Z 10085a10 f i libucrtd:openfile.obj
 0001:00084a40       ?__acrt_stdio_parse_mode_T@@YA_NAAU__acrt_stdio_stream_mode@@@Z 10085a40 f i libucrtd:openfile.obj
 0001:00084a70       ?__acrt_stdio_parse_mode_b@@YA_NAAU__acrt_stdio_stream_mode@@@Z 10085a70 f i libucrtd:openfile.obj
 0001:00084aa0       ?__acrt_stdio_parse_mode_c@@YA_NAAU__acrt_stdio_stream_mode@@AA_N@Z 10085aa0 f i libucrtd:openfile.obj
 0001:00084ad0       ?__acrt_stdio_parse_mode_n@@YA_NAAU__acrt_stdio_stream_mode@@AA_N@Z 10085ad0 f i libucrtd:openfile.obj
 0001:00084b00       ?__acrt_stdio_parse_mode_plus@@YA_NAAU__acrt_stdio_stream_mode@@AA_N@Z 10085b00 f i libucrtd:openfile.obj
 0001:00084b70       ?__acrt_stdio_parse_mode_t@@YA_NAAU__acrt_stdio_stream_mode@@@Z 10085b70 f i libucrtd:openfile.obj
 0001:00084ba0       ?__acrt_stdio_parse_mode_x@@YA_NAAU__acrt_stdio_stream_mode@@@Z 10085ba0 f i libucrtd:openfile.obj
 0001:00084bd0       __openfile                 10085bd0 f   libucrtd:openfile.obj
 0001:00084c00       __wopenfile                10085c00 f   libucrtd:openfile.obj
 0001:00084ee0       __close                    10085ee0 f   libucrtd:close.obj
 0001:00085060       __close_nolock             10086060 f   libucrtd:close.obj
 0001:000850c0       ?has_crt_buffer@__crt_stdio_stream@@QBE_NXZ 100860c0 f i libucrtd:_freebuf.obj
 0001:000850e0       ___acrt_stdio_free_buffer_nolock 100860e0 f   libucrtd:_freebuf.obj
 0001:00085740       ?__acrt_stdio_reset_buffer@@YAXV__crt_stdio_stream@@@Z 10086740 f i libucrtd:fflush.obj
 0001:00085840       ?has_all_of@__crt_stdio_stream@@QBE_NJ@Z 10086840 f i libucrtd:fflush.obj
 0001:00085910       ___acrt_stdio_flush_nolock 10086910 f   libucrtd:fflush.obj
 0001:000859e0       __fflush_nolock            100869e0 f   libucrtd:fflush.obj
 0001:00085a60       __flushall                 10086a60 f   libucrtd:fflush.obj
 0001:00085a80       _fflush                    10086a80 f   libucrtd:fflush.obj
 0001:000861d0       ?has_big_buffer@__crt_stdio_stream@@QBE_NXZ 100871d0 f i libucrtd:_flsbuf.obj
 0001:000862d0       ___acrt_stdio_flush_and_write_narrow_nolock 100872d0 f   libucrtd:_flsbuf.obj
 0001:00086300       ___acrt_stdio_flush_and_write_wide_nolock 10087300 f   libucrtd:_flsbuf.obj
 0001:00086630       ___acrt_get_begin_thread_init_policy 10087630 f   libucrtd:win_policies.obj
 0001:00086650       ___acrt_get_developer_information_policy 10087650 f   libucrtd:win_policies.obj
 0001:00086670       ___acrt_get_process_end_policy 10087670 f   libucrtd:win_policies.obj
 0001:00086690       ___acrt_get_windowing_model_policy 10087690 f   libucrtd:win_policies.obj
 0001:00086960       ??$__acrt_mbs_to_wcs_cp@U__crt_win32_buffer_internal_dynamic_resizing@@@@YAHQBDAAV?$__crt_win32_buffer@_WU__crt_win32_buffer_internal_dynamic_resizing@@@@I@Z 10087960 f i libucrtd:argv_wildcards.obj
 0001:00086990       ??$__acrt_wcs_to_mbs_cp@U__crt_win32_buffer_internal_dynamic_resizing@@@@YAHQB_WAAV?$__crt_win32_buffer@DU__crt_win32_buffer_internal_dynamic_resizing@@@@I@Z 10087990 f i libucrtd:argv_wildcards.obj
 0001:000878e0       ??$tcsncpy_s@AAPADIAAPADABI@?$__crt_char_traits@D@@SAHAAPAD$$QAI0ABI@Z 100888e0 f i libucrtd:argv_wildcards.obj
 0001:00087910       ??$tcsncpy_s@AAPA_WIAAPA_WABI@?$__crt_char_traits@_W@@SAHAAPA_W$$QAI0ABI@Z 10088910 f i libucrtd:argv_wildcards.obj
 0001:00087940       ??$tcsncpy_s@PADABIABQBDABI@?$__crt_char_traits@D@@SAH$$QAPADABIABQBD1@Z 10088940 f i libucrtd:argv_wildcards.obj
 0001:00087970       ??$tcsncpy_s@PADIABQBDABI@?$__crt_char_traits@D@@SAH$$QAPAD$$QAIABQBDABI@Z 10088970 f i libucrtd:argv_wildcards.obj
 0001:000879a0       ??$tcsncpy_s@PA_WABIABQB_WABI@?$__crt_char_traits@_W@@SAH$$QAPA_WABIABQB_W1@Z 100889a0 f i libucrtd:argv_wildcards.obj
 0001:000879d0       ??$tcsncpy_s@PA_WIABQB_WABI@?$__crt_char_traits@_W@@SAH$$QAPA_W$$QAIABQB_WABI@Z 100889d0 f i libucrtd:argv_wildcards.obj
 0001:00087a00       ??$tcspbrk@AAPADAAY02$$CBD@?$__crt_char_traits@D@@SAPADAAPADAAY02$$CBD@Z 10088a00 f i libucrtd:argv_wildcards.obj
 0001:00087a20       ??$tcspbrk@AAPA_WAAY02$$CB_W@?$__crt_char_traits@_W@@SAPA_WAAPA_WAAY02$$CB_W@Z 10088a20 f i libucrtd:argv_wildcards.obj
 0001:00087a40       ??0?$__crt_unique_handle_t@U__crt_findfile_traits@@@@QAE@QAX@Z 10088a40 f i libucrtd:argv_wildcards.obj
 0001:00087a60       ??0?$__crt_win32_buffer@DU__crt_win32_buffer_internal_dynamic_resizing@@@@QAE@XZ 10088a60 f i libucrtd:argv_wildcards.obj
 0001:00087ab0       ??0?$__crt_win32_buffer@_WU__crt_win32_buffer_internal_dynamic_resizing@@@@QAE@XZ 10088ab0 f i libucrtd:argv_wildcards.obj
 0001:00087b60       ??1?$__crt_unique_handle_t@U__crt_findfile_traits@@@@QAE@XZ 10088b60 f i libucrtd:argv_wildcards.obj
 0001:00087b80       ??1?$__crt_win32_buffer@DU__crt_win32_buffer_internal_dynamic_resizing@@@@QAE@XZ 10088b80 f i libucrtd:argv_wildcards.obj
 0001:00087bc0       ??1?$__crt_win32_buffer@_WU__crt_win32_buffer_internal_dynamic_resizing@@@@QAE@XZ 10088bc0 f i libucrtd:argv_wildcards.obj
 0001:00087e20       ?_deallocate@?$__crt_win32_buffer@DU__crt_win32_buffer_internal_dynamic_resizing@@@@AAEXXZ 10088e20 f i libucrtd:argv_wildcards.obj
 0001:00087e60       ?_deallocate@?$__crt_win32_buffer@_WU__crt_win32_buffer_internal_dynamic_resizing@@@@AAEXXZ 10088e60 f i libucrtd:argv_wildcards.obj
 0001:00087ea0       ?allocate@?$__crt_win32_buffer@DU__crt_win32_buffer_internal_dynamic_resizing@@@@QAEHI@Z 10088ea0 f i libucrtd:argv_wildcards.obj
 0001:00087f10       ?allocate@?$__crt_win32_buffer@_WU__crt_win32_buffer_internal_dynamic_resizing@@@@QAEHI@Z 10088f10 f i libucrtd:argv_wildcards.obj
 0001:00087f80       ?allocate@__crt_win32_buffer_internal_dynamic_resizing@@SAHQAPAXIABV__crt_win32_buffer_empty_debug_info@@@Z 10088f80 f i libucrtd:argv_wildcards.obj
 0001:000880c0       ?capacity@?$__crt_win32_buffer@DU__crt_win32_buffer_internal_dynamic_resizing@@@@QBEIXZ 100890c0 f i libucrtd:argv_wildcards.obj
 0001:000880e0       ?capacity@?$__crt_win32_buffer@_WU__crt_win32_buffer_internal_dynamic_resizing@@@@QBEIXZ 100890e0 f i libucrtd:argv_wildcards.obj
 0001:00088100       ?close@?$__crt_unique_handle_t@U__crt_findfile_traits@@@@QAEXXZ 10089100 f i libucrtd:argv_wildcards.obj
 0001:00088140       ?close@__crt_findfile_traits@@SA_NPAX@Z 10089140 f i libucrtd:argv_wildcards.obj
 0001:00088170       ?data@?$__crt_win32_buffer@DU__crt_win32_buffer_internal_dynamic_resizing@@@@QAEPADXZ 10089170 f i libucrtd:argv_wildcards.obj
 0001:00088190       ?data@?$__crt_win32_buffer@_WU__crt_win32_buffer_internal_dynamic_resizing@@@@QAEPA_WXZ 10089190 f i libucrtd:argv_wildcards.obj
 0001:000881b0       ?deallocate@__crt_win32_buffer_internal_dynamic_resizing@@SAXQAXABV__crt_win32_buffer_empty_debug_info@@@Z 100891b0 f i libucrtd:argv_wildcards.obj
 0001:000881d0       ?debug_info@?$__crt_win32_buffer@DU__crt_win32_buffer_internal_dynamic_resizing@@@@QBEABV__crt_win32_buffer_empty_debug_info@@XZ 100891d0 f i libucrtd:argv_wildcards.obj
 0001:000881e0       ?debug_info@?$__crt_win32_buffer@_WU__crt_win32_buffer_internal_dynamic_resizing@@@@QBEABV__crt_win32_buffer_empty_debug_info@@XZ 100891e0 f i libucrtd:argv_wildcards.obj
 0001:000884f0       ?get@?$__crt_unique_handle_t@U__crt_findfile_traits@@@@QBEPAXXZ 100894f0 f i libucrtd:argv_wildcards.obj
 0001:00088560       ?get_invalid_value@__crt_findfile_traits@@SAPAXXZ 10089560 f i libucrtd:argv_wildcards.obj
 0001:000885f0       ?set_to_nullptr@?$__crt_win32_buffer@DU__crt_win32_buffer_internal_dynamic_resizing@@@@QAEXXZ 100895f0 f i libucrtd:argv_wildcards.obj
 0001:00088630       ?set_to_nullptr@?$__crt_win32_buffer@_WU__crt_win32_buffer_internal_dynamic_resizing@@@@QAEXXZ 10089630 f i libucrtd:argv_wildcards.obj
 0001:00088670       ?size@?$__crt_win32_buffer@DU__crt_win32_buffer_internal_dynamic_resizing@@@@QAEXI@Z 10089670 f i libucrtd:argv_wildcards.obj
 0001:00088690       ?size@?$__crt_win32_buffer@_WU__crt_win32_buffer_internal_dynamic_resizing@@@@QAEXI@Z 10089690 f i libucrtd:argv_wildcards.obj
 0001:000886f0       ?strpbrk@@YAPADQADQBD@Z    100896f0 f i libucrtd:argv_wildcards.obj
 0001:00088710       ?wcspbrk@@YAPA_WPA_WPB_W@Z 10089710 f i libucrtd:argv_wildcards.obj
 0001:00088730       ___acrt_expand_narrow_argv_wildcards 10089730 f   libucrtd:argv_wildcards.obj
 0001:00088750       ___acrt_expand_wide_argv_wildcards 10089750 f   libucrtd:argv_wildcards.obj
 0001:00088830       ??$initialize_from_array@$$BY10BAA@E@?$dual_state_global@PAE@__crt_state_management@@QAAXAAY10BAA@E@Z 10089830 f i libucrtd:mbctype.obj
 0001:00088880       ??$initialize_from_array@$$BY10BAB@E@?$dual_state_global@PAE@__crt_state_management@@QAAXAAY10BAB@E@Z 10089880 f i libucrtd:mbctype.obj
 0001:00088af0       ?dangerous_get_state_array@?$dual_state_global@PAE@__crt_state_management@@QAEPAPAEXZ 10089af0 f i libucrtd:mbctype.obj
 0001:00088b00       ?dangerous_get_state_array@?$dual_state_global@PAU__crt_multibyte_data@@@__crt_state_management@@QAEPAPAU__crt_multibyte_data@@XZ 10089b00 f i libucrtd:mbctype.obj
 0001:00088bd0       ?initialize@?$dual_state_global@PAU__crt_multibyte_data@@@__crt_state_management@@QAEXQAU__crt_multibyte_data@@@Z 10089bd0 f i libucrtd:mbctype.obj
 0001:00089320       ?value@?$dual_state_global@PAE@__crt_state_management@@QAEAAPAEXZ 1008a320 f i libucrtd:mbctype.obj
 0001:00089340       ___acrt_initialize_multibyte 1008a340 f   libucrtd:mbctype.obj
 0001:000893f0       ___acrt_update_thread_multibyte_data 1008a3f0 f   libucrtd:mbctype.obj
 0001:00089410       ___p__mbcasemap            1008a410 f   libucrtd:mbctype.obj
 0001:00089430       ___p__mbctype              1008a430 f   libucrtd:mbctype.obj
 0001:00089450       __getmbcp                  1008a450 f   libucrtd:mbctype.obj
 0001:000894c0       __setmbcp                  1008a4c0 f   libucrtd:mbctype.obj
 0001:000894f0       __setmbcp_nolock           1008a4f0 f   libucrtd:mbctype.obj
 0001:00089a61       __ismbbalnum               1008aa61 f   libucrtd:ismbbyte.obj
 0001:00089a7c       __ismbbalnum_l             1008aa7c f   libucrtd:ismbbyte.obj
 0001:00089a98       __ismbbalpha               1008aa98 f   libucrtd:ismbbyte.obj
 0001:00089ab3       __ismbbalpha_l             1008aab3 f   libucrtd:ismbbyte.obj
 0001:00089acf       __ismbbblank               1008aacf f   libucrtd:ismbbyte.obj
 0001:00089af2       __ismbbblank_l             1008aaf2 f   libucrtd:ismbbyte.obj
 0001:00089b16       __ismbbgraph               1008ab16 f   libucrtd:ismbbyte.obj
 0001:00089b31       __ismbbgraph_l             1008ab31 f   libucrtd:ismbbyte.obj
 0001:00089b4d       __ismbbkalnum              1008ab4d f   libucrtd:ismbbyte.obj
 0001:00089b65       __ismbbkalnum_l            1008ab65 f   libucrtd:ismbbyte.obj
 0001:00089b7e       __ismbbkana                1008ab7e f   libucrtd:ismbbyte.obj
 0001:00089b91       __ismbbkana_l              1008ab91 f   libucrtd:ismbbyte.obj
 0001:00089be0       __ismbbkprint              1008abe0 f   libucrtd:ismbbyte.obj
 0001:00089bf8       __ismbbkprint_l            1008abf8 f   libucrtd:ismbbyte.obj
 0001:00089c11       __ismbbkpunct              1008ac11 f   libucrtd:ismbbyte.obj
 0001:00089c29       __ismbbkpunct_l            1008ac29 f   libucrtd:ismbbyte.obj
 0001:00089c42       __ismbblead                1008ac42 f   libucrtd:ismbbyte.obj
 0001:00089c5a       __ismbblead_l              1008ac5a f   libucrtd:ismbbyte.obj
 0001:00089c73       __ismbbprint               1008ac73 f   libucrtd:ismbbyte.obj
 0001:00089c8e       __ismbbprint_l             1008ac8e f   libucrtd:ismbbyte.obj
 0001:00089caa       __ismbbpunct               1008acaa f   libucrtd:ismbbyte.obj
 0001:00089cc2       __ismbbpunct_l             1008acc2 f   libucrtd:ismbbyte.obj
 0001:00089cdb       __ismbbtrail               1008acdb f   libucrtd:ismbbyte.obj
 0001:00089cf3       __ismbbtrail_l             1008acf3 f   libucrtd:ismbbyte.obj
 0001:00089d10       ___acrt_initialize_command_line 1008ad10 f   libucrtd:argv_data.obj
 0001:00089d30       ___acrt_uninitialize_command_line 1008ad30 f   libucrtd:argv_data.obj
 0001:00089d40       ___p___argc                1008ad40 f   libucrtd:argv_data.obj
 0001:00089d50       ___p___argv                1008ad50 f   libucrtd:argv_data.obj
 0001:00089d60       ___p___wargv               1008ad60 f   libucrtd:argv_data.obj
 0001:00089d70       ___p__acmdln               1008ad70 f   libucrtd:argv_data.obj
 0001:00089d80       ___p__pgmptr               1008ad80 f   libucrtd:argv_data.obj
 0001:00089d90       ___p__wcmdln               1008ad90 f   libucrtd:argv_data.obj
 0001:00089da0       ___p__wpgmptr              1008ada0 f   libucrtd:argv_data.obj
 0001:00089db0       __get_pgmptr               1008adb0 f   libucrtd:argv_data.obj
 0001:00089ec0       __get_wpgmptr              1008aec0 f   libucrtd:argv_data.obj
 0001:0008a080       ___acrt_MultiByteToWideChar 1008b080 f   libucrtd:multibytetowidechar.obj
 0001:0008a180       ___acrt_WideCharToMultiByte 1008b180 f   libucrtd:widechartomultibyte.obj
 0001:0008a2d9       ___dcrt_get_narrow_environment_from_os 1008b2d9 f   libucrtd:get_environment_from_os.obj
 0001:0008a36b       ___dcrt_get_wide_environment_from_os 1008b36b f   libucrtd:get_environment_from_os.obj
 0001:0008ad00       ??$get_or_create_environment_nolock@$$V@?$__crt_char_traits@D@@SAPAPADXZ 1008bd00 f i libucrtd:setenv.obj
 0001:0008ad05       ??$get_or_create_environment_nolock@$$V@?$__crt_char_traits@_W@@SAPAPA_WXZ 1008bd05 f i libucrtd:setenv.obj
 0001:0008ad0a       ??$set_environment_variable@ABQADQAD@?$__crt_char_traits@D@@SAHABQAD$$QBQAD@Z 1008bd0a f i libucrtd:setenv.obj
 0001:0008ad22       ??$set_environment_variable@ABQA_WQA_W@?$__crt_char_traits@_W@@SAHABQA_W$$QBQA_W@Z 1008bd22 f i libucrtd:setenv.obj
 0001:0008ad39       ??$tcschr@ABQADD@?$__crt_char_traits@D@@SAPADABQAD$$QAD@Z 1008bd39 f i libucrtd:setenv.obj
 0001:0008ad53       ??$tcschr@ABQA_WD@?$__crt_char_traits@_W@@SAPA_WABQA_W$$QAD@Z 1008bd53 f i libucrtd:setenv.obj
 0001:0008ad71       ??$tcscpy_s@AAPADABIAAPAD@?$__crt_char_traits@D@@SAHAAPADABI0@Z 1008bd71 f i libucrtd:setenv.obj
 0001:0008ad8f       ??$tcscpy_s@AAPA_WABIAAPA_W@?$__crt_char_traits@_W@@SAHAAPA_WABI0@Z 1008bd8f f i libucrtd:setenv.obj
 0001:0008adad       ??$tcscpy_s@ABQADABIABQAD@?$__crt_char_traits@D@@SAHABQADABI0@Z 1008bdad f i libucrtd:setenv.obj
 0001:0008adcb       ??$tcscpy_s@ABQA_WABIABQA_W@?$__crt_char_traits@_W@@SAHABQA_WABI0@Z 1008bdcb f i libucrtd:setenv.obj
 0001:0008ade9       ??$tcslen@ABQAD@?$__crt_char_traits@D@@SAIABQAD@Z 1008bde9 f i libucrtd:setenv.obj
 0001:0008ae01       ??$tcslen@ABQA_W@?$__crt_char_traits@_W@@SAIABQA_W@Z 1008be01 f i libucrtd:setenv.obj
 0001:0008ae1f       ??$tcsnicoll@ABQBDAAPADABI@?$__crt_char_traits@D@@SAHABQBDAAPADABI@Z 1008be1f f i libucrtd:setenv.obj
 0001:0008ae3d       ??$tcsnicoll@ABQB_WAAPA_WABI@?$__crt_char_traits@_W@@SAHABQB_WAAPA_WABI@Z 1008be3d f i libucrtd:setenv.obj
 0001:0008ae5b       ??$tcsnlen@PADH@?$__crt_char_traits@D@@SAI$$QAPAD$$QAH@Z 1008be5b f i libucrtd:setenv.obj
 0001:0008ae73       ??$tcsnlen@PA_WH@?$__crt_char_traits@_W@@SAI$$QAPA_W$$QAH@Z 1008be73 f i libucrtd:setenv.obj
 0001:0008aeaf       ?strchr@@YAPADQADH@Z       1008beaf f i libucrtd:setenv.obj
 0001:0008aeba       ?wcschr@@YAPA_WPA_W_W@Z    1008beba f i libucrtd:setenv.obj
 0001:0008aec5       ___dcrt_set_variable_in_narrow_environment_nolock 1008bec5 f   libucrtd:setenv.obj
 0001:0008aed0       ___dcrt_set_variable_in_wide_environment_nolock 1008bed0 f   libucrtd:setenv.obj
 0001:0008aee0       ___acrt_getheap            1008bee0 f   libucrtd:heap_handle.obj
 0001:0008af20       ___acrt_initialize_heap    1008bf20 f   libucrtd:heap_handle.obj
 0001:0008af50       ___acrt_uninitialize_heap  1008bf50 f   libucrtd:heap_handle.obj
 0001:0008af70       __get_heap_handle          1008bf70 f   libucrtd:heap_handle.obj
 0001:0008afb0       ___acrt_execute_initializers 1008bfb0 f   libucrtd:shared_initialization.obj
 0001:0008b060       ___acrt_execute_uninitializers 1008c060 f   libucrtd:shared_initialization.obj
 0001:0008b0c0       ??$__crt_fast_decode_pointer@P6AHPAU_exception@@@Z@@YAP6AHPAU_exception@@@ZQ6AH0@Z@Z 1008c0c0 f i libucrtd:matherr.obj
 0001:0008b0f0       ??$__crt_fast_encode_pointer@P6AHPAU_exception@@@Z@@YAP6AHPAU_exception@@@ZQ6AH0@Z@Z 1008c0f0 f i libucrtd:matherr.obj
 0001:0008b120       ?initialize@?$dual_state_global@P6AHPAU_exception@@@Z@__crt_state_management@@QAEXQ6AHPAU_exception@@@Z@Z 1008c120 f i libucrtd:matherr.obj
 0001:0008b160       ?value@?$dual_state_global@P6AHPAU_exception@@@Z@__crt_state_management@@QAEAAP6AHPAU_exception@@@ZXZ 1008c160 f i libucrtd:matherr.obj
 0001:0008b180       ___acrt_has_user_matherr   1008c180 f   libucrtd:matherr.obj
 0001:0008b1c0       ___acrt_initialize_user_matherr 1008c1c0 f   libucrtd:matherr.obj
 0001:0008b1e0       ___acrt_invoke_user_matherr 1008c1e0 f   libucrtd:matherr.obj
 0001:0008b230       ___setusermatherr          1008c230 f   libucrtd:matherr.obj
 0001:0008b270       __free_base                1008c270 f   libucrtd:free_base.obj
 0001:0008b320       __expand                   1008c320 f   libucrtd:expand.obj
 0001:0008b340       __expand_base              1008c340 f   libucrtd:expand.obj
 0001:0008b470       ?value@?$dual_state_global@J@__crt_state_management@@QAEAAJXZ 1008c470 f i libucrtd:new_mode.obj
 0001:0008b490       __query_new_mode           1008c490 f   libucrtd:new_mode.obj
 0001:0008b4b0       __set_new_mode             1008c4b0 f   libucrtd:new_mode.obj
 0001:0008b550       __CrtDefaultAllocHook      1008c550 f   libucrtd:debug_heap_hook.obj
 0001:0008b55c       __mbsdec                   1008c55c f   libucrtd:mbsdec.obj
 0001:0008b573       __mbsdec_l                 1008c573 f   libucrtd:mbsdec.obj
 0001:0008ba60       _strncpy_s                 1008ca60 f   libucrtd:strncpy_s.obj
 0001:0008bc30       ___acrt_report_runtime_error 1008cc30 f   libucrtd:report_runtime_error.obj
 0001:0008be20       __query_app_type           1008ce20 f   libucrtd:report_runtime_error.obj
 0001:0008be30       __set_app_type             1008ce30 f   libucrtd:report_runtime_error.obj
 0001:0008be40       __iswctype_l               1008ce40 f   libucrtd:iswctype.obj
 0001:0008be60       _iswctype                  1008ce60 f   libucrtd:iswctype.obj
 0001:0008bed0       ___iswcsym                 1008ced0 f i libucrtd:_wctype.obj
 0001:0008bf10       ___iswcsymf                1008cf10 f i libucrtd:_wctype.obj
 0001:0008bf50       __isleadbyte_l             1008cf50 f i libucrtd:_wctype.obj
 0001:0008bfa0       __iswalnum_l               1008cfa0 f i libucrtd:_wctype.obj
 0001:0008bfc0       __iswalpha_l               1008cfc0 f i libucrtd:_wctype.obj
 0001:0008bfe0       __iswblank_l               1008cfe0 f i libucrtd:_wctype.obj
 0001:0008c020       __iswcntrl_l               1008d020 f i libucrtd:_wctype.obj
 0001:0008c040       __iswcsym_l                1008d040 f i libucrtd:_wctype.obj
 0001:0008c080       __iswcsymf_l               1008d080 f i libucrtd:_wctype.obj
 0001:0008c0c0       __iswdigit_l               1008d0c0 f i libucrtd:_wctype.obj
 0001:0008c0e0       __iswgraph_l               1008d0e0 f i libucrtd:_wctype.obj
 0001:0008c100       __iswlower_l               1008d100 f i libucrtd:_wctype.obj
 0001:0008c120       __iswprint_l               1008d120 f i libucrtd:_wctype.obj
 0001:0008c140       __iswpunct_l               1008d140 f i libucrtd:_wctype.obj
 0001:0008c160       __iswspace_l               1008d160 f i libucrtd:_wctype.obj
 0001:0008c180       __iswupper_l               1008d180 f i libucrtd:_wctype.obj
 0001:0008c1a0       __iswxdigit_l              1008d1a0 f i libucrtd:_wctype.obj
 0001:0008c1c0       _isleadbyte                1008d1c0 f i libucrtd:_wctype.obj
 0001:0008c1e0       _iswalnum                  1008d1e0 f i libucrtd:_wctype.obj
 0001:0008c200       _iswalpha                  1008d200 f i libucrtd:_wctype.obj
 0001:0008c220       _iswascii                  1008d220 f i libucrtd:_wctype.obj
 0001:0008c250       _iswblank                  1008d250 f i libucrtd:_wctype.obj
 0001:0008c290       _iswcntrl                  1008d290 f i libucrtd:_wctype.obj
 0001:0008c2b0       _iswdigit                  1008d2b0 f i libucrtd:_wctype.obj
 0001:0008c2d0       _iswgraph                  1008d2d0 f i libucrtd:_wctype.obj
 0001:0008c2f0       _iswlower                  1008d2f0 f i libucrtd:_wctype.obj
 0001:0008c310       _iswprint                  1008d310 f i libucrtd:_wctype.obj
 0001:0008c330       _iswpunct                  1008d330 f i libucrtd:_wctype.obj
 0001:0008c350       _iswspace                  1008d350 f i libucrtd:_wctype.obj
 0001:0008c370       _iswupper                  1008d370 f i libucrtd:_wctype.obj
 0001:0008c390       _iswxdigit                 1008d390 f i libucrtd:_wctype.obj
 0001:0008c420       ?__mbrtowc_utf8@__crt_mbstring@@YAIPA_WPBDIPAU_Mbstatet@@@Z 1008d420 f   libucrtd:mbrtowc.obj
 0001:0008c470       ?__mbsrtowcs_utf8@__crt_mbstring@@YAIPA_WPAPBDIPAU_Mbstatet@@@Z 1008d470 f   libucrtd:mbrtowc.obj
 0001:0008cce0       _btowc                     1008dce0 f   libucrtd:mbrtowc.obj
 0001:0008cd50       _mbrlen                    1008dd50 f   libucrtd:mbrtowc.obj
 0001:0008cda0       _mbrtowc                   1008dda0 f   libucrtd:mbrtowc.obj
 0001:0008ce30       _mbsrtowcs                 1008de30 f   libucrtd:mbrtowc.obj
 0001:0008ce50       _mbsrtowcs_s               1008de50 f   libucrtd:mbrtowc.obj
 0001:0008d1a0       ??$?RG@__crt_internal_free_policy@@QBEXQBG@Z 1008e1a0 f i libucrtd:initctype.obj
 0001:0008d1c0       ??$?RJ@__crt_internal_free_policy@@QBEXQBJ@Z 1008e1c0 f i libucrtd:initctype.obj
 0001:0008d1e0       ??0?$__crt_unique_heap_ptr@GU__crt_internal_free_policy@@@@QAE@QAG@Z 1008e1e0 f i libucrtd:initctype.obj
 0001:0008d200       ??0?$__crt_unique_heap_ptr@JU__crt_internal_free_policy@@@@QAE@QAJ@Z 1008e200 f i libucrtd:initctype.obj
 0001:0008d220       ??1?$__crt_unique_heap_ptr@GU__crt_internal_free_policy@@@@QAE@XZ 1008e220 f i libucrtd:initctype.obj
 0001:0008d240       ??1?$__crt_unique_heap_ptr@JU__crt_internal_free_policy@@@@QAE@XZ 1008e240 f i libucrtd:initctype.obj
 0001:0008d260       ?detach@?$__crt_unique_heap_ptr@GU__crt_internal_free_policy@@@@QAEPAGXZ 1008e260 f i libucrtd:initctype.obj
