 OPOSLineDisplay

 Timestamp is 600f7936 (Tue Jan 26 11:06:46 2021)

 Preferred load address is 10000000

 Start         Length     Name                   Class
 0001:00000000 00000d90H .text$di                CODE
 0001:00000d90 000aa280H .text$mn                CODE
 0001:000ab010 000001c0H .text$x                 CODE
 0001:000ab1d0 00000120H .text$yd                CODE
 0002:00000000 00000358H .idata$5                DATA
 0002:00000358 00000008H .00cfg                  DATA
 0002:00000360 00000004H .CRT$XCA                DATA
 0002:00000364 00000004H .CRT$XCL                DATA
 0002:00000368 0000006cH .CRT$XCU                DATA
 0002:000003d4 00000004H .CRT$XCZ                DATA
 0002:000003d8 00000004H .CRT$XIA                DATA
 0002:000003dc 00000014H .CRT$XIC                DATA
 0002:000003f0 00000004H .CRT$XIZ                DATA
 0002:000003f4 00000004H .CRT$XLA                DATA
 0002:000003f8 00000004H .CRT$XLZ                DATA
 0002:000003fc 00000004H .CRT$XPA                DATA
 0002:00000400 00000008H .CRT$XPX                DATA
 0002:00000408 00000004H .CRT$XPXA               DATA
 0002:0000040c 00000004H .CRT$XPZ                DATA
 0002:00000410 00000004H .CRT$XTA                DATA
 0002:00000414 0000000cH .CRT$XTZ                DATA
 0002:00000418 00000000H .gfids$y                DATA
 0002:00000420 000301e0H .rdata                  DATA
 0002:00030600 00000004H .rdata$CastGuardVftablesA DATA
 0002:00030604 00000004H .rdata$CastGuardVftablesC DATA
 0002:00030608 00000018H .rdata$T                DATA
 0002:00030620 0000033cH .rdata$r                DATA
 0002:0003095c 00000044H .rdata$sxdata           DATA
 0002:000309a0 0000044cH .rdata$zzzdbg           DATA
 0002:00030dec 00000004H .rtc$IAA                DATA
 0002:00030df0 00000018H .rtc$IMZ                DATA
 0002:00030e08 00000004H .rtc$IZZ                DATA
 0002:00030e0c 00000004H .rtc$TAA                DATA
 0002:00030e10 00000018H .rtc$TMZ                DATA
 0002:00030e28 00000004H .rtc$TZZ                DATA
 0002:00030e2c 00000004H .tls                    DATA
 0002:00030e30 00000004H .tls$                   DATA
 0002:00030e34 00000004H .tls$ZZZ                DATA
 0002:00030e38 00000e4cH .xdata$x                DATA
 0002:00031c84 00000004H ATL$__a                 DATA
 0002:00031c88 00000008H ATL$__z                 DATA
 0002:00031c90 000000acH .edata                  DATA
 0002:00031d3c 00000078H .idata$2                DATA
 0002:00031db4 00000014H .idata$3                DATA
 0002:00031dc8 00000358H .idata$4                DATA
 0002:00032120 00000d56H .idata$6                DATA
 0003:00000000 00000bf0H .data                   DATA
 0003:00000bf0 00000138H .data$r                 DATA
 0003:00000d28 00003588H .bss                    DATA
 0004:00000000 00000220H .rsrc$01                DATA
 0004:00000220 00005918H .rsrc$02                DATA

  Address         Publics by Value              Rva+Base       Lib:Object

 0000:00000000       ___arm64x_extra_rfe_table  00000000     <absolute>
 0000:00000000       ___guard_iat_table         00000000     <absolute>
 0000:00000000       __except_list              00000000     <absolute>
 0000:00000000       ___arm64x_extra_rfe_table_size 00000000     <absolute>
 0000:00000000       ___arm64x_redirection_metadata_count 00000000     <absolute>
 0000:00000000       ___hybrid_code_map         00000000     <absolute>
 0000:00000000       ___hybrid_code_map_count   00000000     <absolute>
 0000:00000000       ___guard_eh_cont_count     00000000     <absolute>
 0000:00000000       ___arm64x_redirection_metadata 00000000     <absolute>
 0000:00000000       ___AbsoluteZero            00000000     <absolute>
 0000:00000000       ___x64_code_ranges_to_entry_points_count 00000000     <absolute>
 0000:00000000       ___guard_longjmp_count     00000000     <absolute>
 0000:00000000       ___x64_code_ranges_to_entry_points 00000000     <absolute>
 0000:00000000       ___guard_longjmp_table     00000000     <absolute>
 0000:00000000       ___hybrid_auxiliary_iat    00000000     <absolute>
 0000:00000000       ___volatile_metadata       00000000     <absolute>
 0000:00000000       ___guard_eh_cont_table     00000000     <absolute>
 0000:00000000       ___arm64x_native_entrypoint 00000000     <absolute>
 0000:00000000       ___guard_fids_count        00000000     <absolute>
 0000:00000000       ___guard_iat_count         00000000     <absolute>
 0000:00000000       ___guard_fids_table        00000000     <absolute>
 0000:00000000       ___dynamic_value_reloc_table 00000000     <absolute>
 0000:00000000       ___enclave_config          00000000     <absolute>
 0000:00000011       ___safe_se_handler_count   00000011     <absolute>
 0000:0000002c       __tls_array                0000002c     <absolute>
 0000:00000100       ___guard_flags             00000100     <absolute>
 0000:00000000       ___ImageBase               10000000     <linker-defined>
 0001:00000d90       ?_assert@@YAXPB_W0I@Z      10001d90 f   Assert.obj
 0001:00000ec0       ___local_stdio_printf_options 10001ec0 f i Assert.obj
 0001:00000ed0       ___vswprintf_l             10001ed0 f i Assert.obj
 0001:00000f00       __swprintf                 10001f00 f i Assert.obj
 0001:00000f60       __vswprintf_c_l            10001f60 f i Assert.obj
 0001:00000fd0       __vswprintf_l              10001fd0 f i Assert.obj
 0001:00001000       ?cw_memcpy@@YGHPADPB_WH@Z  10002000 f   CWString.obj
 0001:00001060       ?cw_memcpy@@YGHPA_WPBDH@Z  10002060 f   CWString.obj
 0001:000010c0       ?cw_memcpy@@YGHPADPBDH@Z   100020c0 f   CWString.obj
 0001:00001110       ?cw_memcpy@@YGHPA_WPB_WH@Z 10002110 f   CWString.obj
 0001:00001150       ?cw_memset@@YAXPADDH@Z     10002150 f   CWString.obj
 0001:00001170       ?cw_memset@@YAXPA_W_WH@Z   10002170 f   CWString.obj
 0001:00001190       ?cw_strlen@@YAHPBD@Z       10002190 f   CWString.obj
 0001:000011e0       ?cw_strlen@@YAHPB_W@Z      100021e0 f   CWString.obj
 0001:00001230       ?cw_strcpy@@YAHPADPB_W@Z   10002230 f   CWString.obj
 0001:00001250       ?cw_strcpy@@YAHPA_WPBD@Z   10002250 f   CWString.obj
 0001:00001270       ?cw_strcpy@@YAHPADPBD@Z    10002270 f   CWString.obj
 0001:00001290       ?cw_strcpy@@YAHPA_WPB_W@Z  10002290 f   CWString.obj
 0001:000012b0       ?cw_strcat@@YAHPADPB_W@Z   100022b0 f   CWString.obj
 0001:000012e0       ?cw_strcat@@YAHPA_WPBD@Z   100022e0 f   CWString.obj
 0001:00001310       ?cw_strcat@@YAHPADPBD@Z    10002310 f   CWString.obj
 0001:00001340       ?cw_strcat@@YAHPA_WPB_W@Z  10002340 f   CWString.obj
 0001:00001370       ?cw_dup@@YGXPBDAAHAAPA_W1@Z 10002370 f   CWString.obj
 0001:00001430       ?cw_dup@@YGXPB_WAAHAAPAD1@Z 10002430 f   CWString.obj
 0001:000014e0       ?DupChar@_CW@@AAEXXZ       100024e0 f   CWString.obj
 0001:00001530       ?DupWide@_CW@@AAEXXZ       10002530 f   CWString.obj
 0001:00001580       ?GetCharsMbcs@_CW@@QAEHXZ  10002580 f   CWString.obj
 0001:000015e0       ?GetCharsWide@_CW@@QAEHXZ  100025e0 f   CWString.obj
 0001:00001640       ?SetVARIANT_BOOL@OposVariant@@QAEXF@Z 10002640 f   OposVariant.obj
 0001:000016a0       ?SetVARIANT_BOOL_Ptr@OposVariant@@QAEXPAFAAJ@Z 100026a0 f   OposVariant.obj
 0001:000016f0       ?GetLONG@OposVariant@@QAEJXZ 100026f0 f   OposVariant.obj
 0001:00001780       ?ChangeLONG@OposVariant@@QAEXPAJAAJ@Z 10002780 f   OposVariant.obj
 0001:00001840       ?SetLONG@OposVariant@@QAEXJ@Z 10002840 f   OposVariant.obj
 0001:00001880       ?SetLONG_Ptr@OposVariant@@QAEXPAJAAJ@Z 10002880 f   OposVariant.obj
 0001:000018d0       ?ChangeCURRENCY@OposVariant@@QAEXPATtagCY@@AAJ@Z 100028d0 f   OposVariant.obj
 0001:00001990       ?SetCURRENCY@OposVariant@@QAEXTtagCY@@@Z 10002990 f   OposVariant.obj
 0001:000019d0       ?SetCURRENCY_Ptr@OposVariant@@QAEXPATtagCY@@AAJ@Z 100029d0 f   OposVariant.obj
 0001:00001a20       ?ChangeBSTR@OposVariant@@QAEXPAPA_WAAJ@Z 10002a20 f   OposVariant.obj
 0001:00001ae0       ?SetBSTR@OposVariant@@QAEXPA_WAAJ@Z 10002ae0 f   OposVariant.obj
 0001:00001b30       ?SetBSTR_Copy@OposVariant@@QAEXPA_WAAJ@Z 10002b30 f   OposVariant.obj
 0001:00001bd0       ?SetBSTR_OutPtr@OposVariant@@QAE_NPAPA_WAAJ@Z 10002bd0 f   OposVariant.obj
 0001:00001c20       ?SetBSTR_InOutPtr@OposVariant@@QAE_NPAPA_WAAJ@Z 10002c20 f   OposVariant.obj
 0001:00001c70       ?SetVARIANT@OposVariant@@QAEXAAUtagVARIANT@@GAAJ@Z 10002c70 f   OposVariant.obj
 0001:00001cf0       ?SetVARIANT_Ptr@OposVariant@@QAEXAAPAUtagVARIANT@@GAAJ@Z 10002cf0 f   OposVariant.obj
 0001:00001d90       ?SetString@OposVariant@@QAEXPB_WAAJ@Z 10002d90 f   OposVariant.obj
 0001:00001e20       ?SetDispatch_Ptr@OposVariant@@QAEXPAUIDispatch@@AAJ@Z 10002e20 f   OposVariant.obj
 0001:00001e90       ??0OposDispParms@@QAE@PAVOposVariant@@H@Z 10002e90 f   OposVariant.obj
 0001:00001f60       ??1OposDispParms@@QAE@XZ   10002f60 f   OposVariant.obj
 0001:00001fb0       ??$AtlMultiply@I@ATL@@YAJPAIII@Z 10002fb0 f i OposVariant.obj
 0001:00002010       ??0?$CHeapPtr@_WVCCRTAllocator@ATL@@@ATL@@QAE@XZ 10003010 f i OposVariant.obj
 0001:00002040       ??0?$CHeapPtrBase@_WVCCRTAllocator@ATL@@@ATL@@IAE@XZ 10003040 f i OposVariant.obj
 0001:00002060       ??0?$CSimpleArray@GV?$CSimpleArrayEqualHelper@G@ATL@@@ATL@@QAE@XZ 10003060 f i OposVariant.obj
 0001:000020a0       ??0?$CTraceCategoryEx@$00$0A@@ATL@@QAE@PB_W@Z 100030a0 f i OposVariant.obj
 0001:000020d0       ??0?$CTraceCategoryEx@$01$0A@@ATL@@QAE@PB_W@Z 100030d0 f i OposVariant.obj
 0001:00002100       ??0?$CTraceCategoryEx@$03$0A@@ATL@@QAE@PB_W@Z 10003100 f i OposVariant.obj
 0001:00002130       ??0?$CTraceCategoryEx@$07$0A@@ATL@@QAE@PB_W@Z 10003130 f i OposVariant.obj
 0001:00002160       ??0?$CTraceCategoryEx@$0BA@$0A@@ATL@@QAE@PB_W@Z 10003160 f i OposVariant.obj
 0001:00002190       ??0?$CTraceCategoryEx@$0BAA@$0A@@ATL@@QAE@PB_W@Z 10003190 f i OposVariant.obj
 0001:000021d0       ??0?$CTraceCategoryEx@$0BAAA@$0A@@ATL@@QAE@PB_W@Z 100031d0 f i OposVariant.obj
 0001:00002210       ??0?$CTraceCategoryEx@$0BAAAA@$0A@@ATL@@QAE@PB_W@Z 10003210 f i OposVariant.obj
 0001:00002250       ??0?$CTraceCategoryEx@$0BAAAAA@$0A@@ATL@@QAE@PB_W@Z 10003250 f i OposVariant.obj
 0001:00002290       ??0?$CTraceCategoryEx@$0CA@$0A@@ATL@@QAE@PB_W@Z 10003290 f i OposVariant.obj
 0001:000022c0       ??0?$CTraceCategoryEx@$0CAA@$0A@@ATL@@QAE@PB_W@Z 100032c0 f i OposVariant.obj
 0001:00002300       ??0?$CTraceCategoryEx@$0CAAA@$0A@@ATL@@QAE@PB_W@Z 10003300 f i OposVariant.obj
 0001:00002340       ??0?$CTraceCategoryEx@$0CAAAA@$0A@@ATL@@QAE@PB_W@Z 10003340 f i OposVariant.obj
 0001:00002380       ??0?$CTraceCategoryEx@$0CAAAAA@$0A@@ATL@@QAE@PB_W@Z 10003380 f i OposVariant.obj
 0001:000023c0       ??0?$CTraceCategoryEx@$0EA@$0A@@ATL@@QAE@PB_W@Z 100033c0 f i OposVariant.obj
 0001:000023f0       ??0?$CTraceCategoryEx@$0EAA@$0A@@ATL@@QAE@PB_W@Z 100033f0 f i OposVariant.obj
 0001:00002430       ??0?$CTraceCategoryEx@$0EAAA@$0A@@ATL@@QAE@PB_W@Z 10003430 f i OposVariant.obj
 0001:00002470       ??0?$CTraceCategoryEx@$0EAAAA@$0A@@ATL@@QAE@PB_W@Z 10003470 f i OposVariant.obj
 0001:000024b0       ??0?$CTraceCategoryEx@$0EAAAAA@$0A@@ATL@@QAE@PB_W@Z 100034b0 f i OposVariant.obj
 0001:000024f0       ??0?$CTraceCategoryEx@$0IA@$0A@@ATL@@QAE@PB_W@Z 100034f0 f i OposVariant.obj
 0001:00002530       ??0?$CTraceCategoryEx@$0IAA@$0A@@ATL@@QAE@PB_W@Z 10003530 f i OposVariant.obj
 0001:00002570       ??0?$CTraceCategoryEx@$0IAAA@$0A@@ATL@@QAE@PB_W@Z 10003570 f i OposVariant.obj
 0001:000025b0       ??0?$CTraceCategoryEx@$0IAAAA@$0A@@ATL@@QAE@PB_W@Z 100035b0 f i OposVariant.obj
 0001:000025f0       ??0CAtlComModule@ATL@@QAE@XZ 100035f0 f i OposVariant.obj
 0001:000026d0       ??0CAtlWinModule@ATL@@QAE@XZ 100036d0 f i OposVariant.obj
 0001:00002760       ??0CComCriticalSection@ATL@@QAE@XZ 10003760 f i OposVariant.obj
 0001:00002790       ??0CPreserveLastError@ATL@@QAE@XZ 10003790 f i OposVariant.obj
 0001:000027d0       ??0CTraceFileAndLineInfo@ATL@@QAE@PBDH@Z 100037d0 f i OposVariant.obj
 0001:00002800       ??0_ATL_COM_MODULE70@ATL@@QAE@XZ 10003800 f i OposVariant.obj
 0001:00002830       ??0_ATL_WIN_MODULE70@ATL@@QAE@XZ 10003830 f i OposVariant.obj
 0001:00002870       ??1?$CHeapPtr@_WVCCRTAllocator@ATL@@@ATL@@QAE@XZ 10003870 f i OposVariant.obj
 0001:000028a0       ??1?$CHeapPtrBase@_WVCCRTAllocator@ATL@@@ATL@@QAE@XZ 100038a0 f i OposVariant.obj
 0001:000028d0       ??1?$CSimpleArray@GV?$CSimpleArrayEqualHelper@G@ATL@@@ATL@@QAE@XZ 100038d0 f i OposVariant.obj
 0001:00002900       ??1CAtlComModule@ATL@@QAE@XZ 10003900 f i OposVariant.obj
 0001:00002930       ??1CAtlWinModule@ATL@@QAE@XZ 10003930 f i OposVariant.obj
 0001:00002960       ??1CComBSTR@ATL@@QAE@XZ    10003960 f i OposVariant.obj
 0001:000029a0       ??1CComCriticalSection@ATL@@QAE@XZ 100039a0 f i OposVariant.obj
 0001:000029c0       ??1CPreserveLastError@ATL@@QAE@XZ 100039c0 f i OposVariant.obj
 0001:00002a00       ??1_ATL_COM_MODULE70@ATL@@QAE@XZ 10003a00 f i OposVariant.obj
 0001:00002a30       ??1_ATL_WIN_MODULE70@ATL@@QAE@XZ 10003a30 f i OposVariant.obj
 0001:00002a70       ??1stringdispid@CComTypeInfoHolder@ATL@@QAE@XZ 10003a70 f i OposVariant.obj
 0001:00002aa0       ??A?$CSimpleArray@GV?$CSimpleArrayEqualHelper@G@ATL@@@ATL@@QAEAAGH@Z 10003aa0 f i OposVariant.obj
 0001:00002b20       ??B?$CHeapPtrBase@_WVCCRTAllocator@ATL@@@ATL@@QBEPA_WXZ 10003b20 f i OposVariant.obj
 0001:00002b40       ??B?$CTraceCategoryEx@$01$0A@@ATL@@QAEIXZ 10003b40 f i OposVariant.obj
 0001:00002b60       ??B?$CTraceCategoryEx@$0CA@$0A@@ATL@@QAEIXZ 10003b60 f i OposVariant.obj
 0001:00002b80       ??RCTraceFileAndLineInfo@ATL@@QBAXHIPB_WZZ 10003b80 f i OposVariant.obj
 0001:00002c20       ??_Estringdispid@CComTypeInfoHolder@ATL@@QAEPAXI@Z 10003c20 f i OposVariant.obj
 0001:00002cb0       ??_H@YGXPAXIIP6EPAX0@Z@Z   10003cb0 f i OposVariant.obj
 0001:00002d20       ??_I@YGXPAXIIP6EX0@Z@Z     10003d20 f i OposVariant.obj
 0001:00002da0       ?Allocate@?$CHeapPtr@_WVCCRTAllocator@ATL@@@ATL@@QAE_NI@Z 10003da0 f i OposVariant.obj
 0001:00002e30       ?Allocate@CCRTAllocator@ATL@@SAPAXI@Z 10003e30 f i OposVariant.obj
 0001:00002e50       ?AllocateBytes@?$CHeapPtrBase@_WVCCRTAllocator@ATL@@@ATL@@QAE_NI@Z 10003e50 f i OposVariant.obj
 0001:00002ec0       ?AtlWinModuleInit@ATL@@YGJPAU_ATL_WIN_MODULE70@1@@Z 10003ec0 f i OposVariant.obj
 0001:00002f90       ?AtlWinModuleTerm@ATL@@YGJPAU_ATL_WIN_MODULE70@1@PAUHINSTANCE__@@@Z 10003f90 f i OposVariant.obj
 0001:00003050       ?Clear@OposVariant@@QAEJXZ 10004050 f i OposVariant.obj
 0001:00003090       ?Free@?$CHeapPtrBase@_WVCCRTAllocator@ATL@@@ATL@@QAEXXZ 10004090 f i OposVariant.obj
 0001:000030d0       ?Free@CCRTAllocator@ATL@@SAXPAX@Z 100040d0 f i OposVariant.obj
 0001:000030f0       ?GetCategoryName@CTrace@ATL@@CAPA_WI@Z 100040f0 f i OposVariant.obj
 0001:00003140       ?GetModuleInstance@CAtlBaseModule@ATL@@QAEPAUHINSTANCE__@@XZ 10004140 f i OposVariant.obj
 0001:00003160       ?GetSize@?$CSimpleArray@GV?$CSimpleArrayEqualHelper@G@ATL@@@ATL@@QBEHXZ 10004160 f i OposVariant.obj
 0001:00003180       ?Init@CComCriticalSection@ATL@@QAEJXZ 10004180 f i OposVariant.obj
 0001:000031e0       ?RegisterCategory@CTrace@ATL@@SAXPB_WI@Z 100041e0 f i OposVariant.obj
 0001:00003270       ?RemoveAll@?$CSimpleArray@GV?$CSimpleArrayEqualHelper@G@ATL@@@ATL@@QAEXXZ 10004270 f i OposVariant.obj
 0001:000032f0       ?Term@CAtlComModule@ATL@@QAEXXZ 100042f0 f i OposVariant.obj
 0001:000033b0       ?Term@CAtlWinModule@ATL@@QAEXXZ 100043b0 f i OposVariant.obj
 0001:000033e0       ?Term@CComCriticalSection@ATL@@QAEJXZ 100043e0 f i OposVariant.obj
 0001:00003420       ?TraceV@CTrace@ATL@@CAXPBDHIIPB_W@Z 10004420 f i OposVariant.obj
 0001:000036a0       ?TraceV@CTrace@ATL@@SAXPBDHIIPB_WPAD@Z 100046a0 f i OposVariant.obj
 0001:000037e0       ?_AtlInitializeCriticalSectionEx@ATL@@YAHPAU_RTL_CRITICAL_SECTION@@KK@Z 100047e0 f i OposVariant.obj
 0001:00003810       ?_AtlRaiseException@ATL@@YAXKK@Z 10004810 f i OposVariant.obj
 0001:00003840       _HRESULT_FROM_WIN32        10004840 f i OposVariant.obj
 0001:00003880       __vswprintf_s_l            10004880 f i OposVariant.obj
 0001:000038f0       _swprintf_s                100048f0 f i OposVariant.obj
 0001:00003950       ?ObjectMain@CComObjectRootBase@ATL@@SGX_N@Z 10004950 f i LineDisplay.obj
 0001:00003960       ?GetCategoryMap@CComObjectRootBase@ATL@@SAPBU_ATL_CATMAP_ENTRY@2@XZ 10004960 f i LineDisplay.obj
 0001:00003970       ?GetObjectDescription@?$CComCoClass@VCOPOSLineDisplay@@$1?CLSID_OPOSLineDisplay@@3U_GUID@@B@ATL@@SGPB_WXZ 10004970 f i LineDisplay.obj
 0001:00003980       ?UpdateRegistry@COPOSLineDisplay@@SGJH@Z 10004980 f i LineDisplay.obj
 0001:000039a0       ?CreateInstance@?$CComCreator@V?$CComObjectCached@VCComClassFactory@ATL@@@ATL@@@ATL@@SGJPAXABU_GUID@@PAPAX@Z 100049a0 f i LineDisplay.obj
 0001:00003b20       ?CreateInstance@?$CComCreator2@V?$CComCreator@V?$CComObject@VCOPOSLineDisplay@@@ATL@@@ATL@@V?$CComCreator@V?$CComAggObject@VCOPOSLineDisplay@@@ATL@@@2@@ATL@@SGJPAXABU_GUID@@PAPAX@Z 10004b20 f i LineDisplay.obj
 0001:00003cd0       _DllGetClassObject@12      10004cd0 f   LineDisplay.obj
 0001:00003d00       _DllCanUnloadNow@0         10004d00 f   LineDisplay.obj
 0001:00003d40       _DllRegisterServer@0       10004d40 f   LineDisplay.obj
 0001:00003d60       _DllUnregisterServer@0     10004d60 f   LineDisplay.obj
 0001:00003ef0       _DllMain@12                10004ef0 f   LineDisplay.obj
 0001:00003f50       ??$?2G@Wrapper@?$CSimpleArray@GV?$CSimpleArrayEqualHelper@G@ATL@@@ATL@@SAPAXIPAG@Z 10004f50 f i LineDisplay.obj
 0001:00003f60       ??$?2PA_W@?$Wrapper@PA_W@?$CSimpleMap@PA_WPA_WVCExpansionVectorEqualHelper@ATL@@@ATL@@SAPAXIPAPA_W@Z 10004f60 f i LineDisplay.obj
 0001:00003f70       ??$?4UITypeInfo2@@@?$CComPtr@UITypeInfo@@@ATL@@QAEPAUITypeInfo@@ABV?$CComPtr@UITypeInfo2@@@1@@Z 10004f70 f i LineDisplay.obj
 0001:00003fd0       ??$AtlAdd@K@ATL@@YAJPAKKK@Z 10004fd0 f i LineDisplay.obj
 0001:00004010       ??$AtlAdd@_K@ATL@@YAJPA_K_K1@Z 10005010 f i LineDisplay.obj
 0001:00004080       ??$AtlAddThrow@K@ATL@@YAKKK@Z 10005080 f i LineDisplay.obj
 0001:00004100       ??$AtlModuleRegisterWndClassInfoT@VAtlModuleRegisterWndClassInfoParamW@ATL@@@ATL@@YAGPAU_ATL_BASE_MODULE70@0@PAU_ATL_WIN_MODULE70@0@PAU_ATL_WNDCLASSINFOW@0@PAP6GJPAUHWND__@@IIJ@ZVAtlModuleRegisterWndClassInfoParamW@0@@Z 10005100 f i LineDisplay.obj
 0001:00004510       ??$AtlMultiply@H@ATL@@YAJPAHHH@Z 10005510 f i LineDisplay.obj
 0001:00004590       ??$AtlMultiply@K@ATL@@YAJPAKKK@Z 10005590 f i LineDisplay.obj
 0001:000045f0       ??$AtlMultiplyThrow@I@ATL@@YAIII@Z 100055f0 f i LineDisplay.obj
 0001:00004670       ??$QueryInterface@UIPersistStream@@@IUnknown@@QAGJPAPAUIPersistStream@@@Z 10005670 f i LineDisplay.obj
 0001:000046a0       ??$QueryInterface@UITypeInfo2@@@IUnknown@@QAGJPAPAUITypeInfo2@@@Z 100056a0 f i LineDisplay.obj
 0001:000046d0       ??0?$CAtlModuleT@VCComModule@ATL@@@ATL@@QAE@XZ 100056d0 f i LineDisplay.obj
 0001:00004700       ??0?$CAtlSafeAllocBufferManager@VCCRTAllocator@ATL@@@_ATL_SAFE_ALLOCA_IMPL@ATL@@QAE@XZ 10005700 f i LineDisplay.obj
 0001:00004720       ??0?$CAutoVectorPtr@_W@ATL@@QAE@XZ 10005720 f i LineDisplay.obj
 0001:00004740       ??0?$CComAggObject@VCOPOSLineDisplay@@@ATL@@QAE@PAX@Z 10005740 f i LineDisplay.obj
 0001:000047b0       ??0?$CComContainedObject@VCOPOSLineDisplay@@@ATL@@QAE@PAX@Z 100057b0 f i LineDisplay.obj
 0001:000048c0       ??0?$CComCritSecLock@VCComCriticalSection@ATL@@@ATL@@QAE@AAVCComCriticalSection@1@_N@Z 100058c0 f i LineDisplay.obj
 0001:00004920       ??0?$CComEnum@UIEnumConnectionPoints@@$1?_GUID_b196b285_bab4_101a_b69c_00aa00341d07@@3U__s_GUID@@BPAUIConnectionPoint@@V?$_CopyInterface@UIConnectionPoint@@@ATL@@VCComSingleThreadModel@6@@ATL@@QAE@XZ 10005920 f i LineDisplay.obj
 0001:00004960       ??0?$CComEnum@UIEnumConnections@@$1?_GUID_b196b287_bab4_101a_b69c_00aa00341d07@@3U__s_GUID@@BUtagCONNECTDATA@@V?$_Copy@UtagCONNECTDATA@@@ATL@@VCComSingleThreadModel@6@@ATL@@QAE@XZ 10005960 f i LineDisplay.obj
 0001:000049a0       ??0?$CComEnumImpl@UIEnumConnectionPoints@@$1?_GUID_b196b285_bab4_101a_b69c_00aa00341d07@@3U__s_GUID@@BPAUIConnectionPoint@@V?$_CopyInterface@UIConnectionPoint@@@ATL@@@ATL@@QAE@XZ 100059a0 f i LineDisplay.obj
 0001:00004a00       ??0?$CComEnumImpl@UIEnumConnections@@$1?_GUID_b196b287_bab4_101a_b69c_00aa00341d07@@3U__s_GUID@@BUtagCONNECTDATA@@V?$_Copy@UtagCONNECTDATA@@@ATL@@@ATL@@QAE@XZ 10005a00 f i LineDisplay.obj
 0001:00004a60       ??0?$CComObject@V?$CComEnum@UIEnumConnectionPoints@@$1?_GUID_b196b285_bab4_101a_b69c_00aa00341d07@@3U__s_GUID@@BPAUIConnectionPoint@@V?$_CopyInterface@UIConnectionPoint@@@ATL@@VCComSingleThreadModel@6@@ATL@@@ATL@@QAE@PAX@Z 10005a60 f i LineDisplay.obj
 0001:00004ab0       ??0?$CComObject@V?$CComEnum@UIEnumConnections@@$1?_GUID_b196b287_bab4_101a_b69c_00aa00341d07@@3U__s_GUID@@BUtagCONNECTDATA@@V?$_Copy@UtagCONNECTDATA@@@ATL@@VCComSingleThreadModel@6@@ATL@@@ATL@@QAE@PAX@Z 10005ab0 f i LineDisplay.obj
 0001:00004b00       ??0?$CComObject@VCOPOSLineDisplay@@@ATL@@QAE@PAX@Z 10005b00 f i LineDisplay.obj
 0001:00004c20       ??0?$CComObjectCached@VCComClassFactory@ATL@@@ATL@@QAE@PAX@Z 10005c20 f i LineDisplay.obj
 0001:00004c60       ??0?$CComObjectRootEx@VCComMultiThreadModel@ATL@@@ATL@@QAE@XZ 10005c60 f i LineDisplay.obj
 0001:00004ca0       ??0?$CComObjectRootEx@VCComSingleThreadModel@ATL@@@ATL@@QAE@XZ 10005ca0 f i LineDisplay.obj
 0001:00004cd0       ??0?$CComPtr@UIAdviseSink@@@ATL@@QAE@PAUIAdviseSink@@@Z 10005cd0 f i LineDisplay.obj
 0001:00004d00       ??0?$CComPtr@UICatRegister@@@ATL@@QAE@XZ 10005d00 f i LineDisplay.obj
 0001:00004d30       ??0?$CComPtr@UIConnectionPoint@@@ATL@@QAE@XZ 10005d30 f i LineDisplay.obj
 0001:00004d60       ??0?$CComPtr@UIConnectionPointContainer@@@ATL@@QAE@XZ 10005d60 f i LineDisplay.obj
 0001:00004d90       ??0?$CComPtr@UIDataObject@@@ATL@@QAE@XZ 10005d90 f i LineDisplay.obj
 0001:00004dc0       ??0?$CComPtr@UIDispatch@@@ATL@@QAE@XZ 10005dc0 f i LineDisplay.obj
 0001:00004df0       ??0?$CComPtr@UIOleClientSite@@@ATL@@QAE@PAUIOleClientSite@@@Z 10005df0 f i LineDisplay.obj
 0001:00004e20       ??0?$CComPtr@UIOleControlSite@@@ATL@@QAE@XZ 10005e20 f i LineDisplay.obj
 0001:00004e50       ??0?$CComPtr@UIOleInPlaceActiveObject@@@ATL@@QAE@XZ 10005e50 f i LineDisplay.obj
 0001:00004e80       ??0?$CComPtr@UIOleInPlaceFrame@@@ATL@@QAE@XZ 10005e80 f i LineDisplay.obj
 0001:00004eb0       ??0?$CComPtr@UIOleInPlaceObject@@@ATL@@QAE@XZ 10005eb0 f i LineDisplay.obj
 0001:00004ee0       ??0?$CComPtr@UIOleInPlaceUIWindow@@@ATL@@QAE@XZ 10005ee0 f i LineDisplay.obj
 0001:00004f10       ??0?$CComPtr@UIOleObject@@@ATL@@QAE@XZ 10005f10 f i LineDisplay.obj
 0001:00004f40       ??0?$CComPtr@UIPersistStream@@@ATL@@QAE@XZ 10005f40 f i LineDisplay.obj
 0001:00004f70       ??0?$CComPtr@UIPersistStreamInit@@@ATL@@QAE@XZ 10005f70 f i LineDisplay.obj
 0001:00004fa0       ??0?$CComPtr@UIPointerInactive@@@ATL@@QAE@XZ 10005fa0 f i LineDisplay.obj
 0001:00004fd0       ??0?$CComPtr@UIProvideClassInfo2@@@ATL@@QAE@XZ 10005fd0 f i LineDisplay.obj
 0001:00005000       ??0?$CComPtr@UISpecifyPropertyPages@@@ATL@@QAE@XZ 10006000 f i LineDisplay.obj
 0001:00005030       ??0?$CComPtr@UIStream@@@ATL@@QAE@XZ 10006030 f i LineDisplay.obj
 0001:00005060       ??0?$CComPtr@UITypeInfo2@@@ATL@@QAE@XZ 10006060 f i LineDisplay.obj
 0001:00005090       ??0?$CComPtr@UITypeInfo@@@ATL@@QAE@ABV01@@Z 10006090 f i LineDisplay.obj
 0001:000050c0       ??0?$CComPtr@UITypeInfo@@@ATL@@QAE@XZ 100060c0 f i LineDisplay.obj
 0001:000050f0       ??0?$CComPtr@UITypeLib@@@ATL@@QAE@XZ 100060f0 f i LineDisplay.obj
 0001:00005120       ??0?$CComPtr@UIUnknown@@@ATL@@QAE@ABV01@@Z 10006120 f i LineDisplay.obj
 0001:00005150       ??0?$CComPtr@UIUnknown@@@ATL@@QAE@PAUIUnknown@@@Z 10006150 f i LineDisplay.obj
 0001:00005180       ??0?$CComPtr@UIUnknown@@@ATL@@QAE@XZ 10006180 f i LineDisplay.obj
 0001:000051b0       ??0?$CComPtr@UIViewObjectEx@@@ATL@@QAE@XZ 100061b0 f i LineDisplay.obj
 0001:000051e0       ??0?$CComPtrBase@UIAdviseSink@@@ATL@@IAE@PAUIAdviseSink@@@Z 100061e0 f i LineDisplay.obj
 0001:00005230       ??0?$CComPtrBase@UICatRegister@@@ATL@@IAE@XZ 10006230 f i LineDisplay.obj
 0001:00005250       ??0?$CComPtrBase@UIConnectionPoint@@@ATL@@IAE@XZ 10006250 f i LineDisplay.obj
 0001:00005270       ??0?$CComPtrBase@UIConnectionPointContainer@@@ATL@@IAE@XZ 10006270 f i LineDisplay.obj
 0001:00005290       ??0?$CComPtrBase@UIDataObject@@@ATL@@IAE@XZ 10006290 f i LineDisplay.obj
 0001:000052b0       ??0?$CComPtrBase@UIDispatch@@@ATL@@IAE@XZ 100062b0 f i LineDisplay.obj
 0001:000052d0       ??0?$CComPtrBase@UIOleClientSite@@@ATL@@IAE@PAUIOleClientSite@@@Z 100062d0 f i LineDisplay.obj
 0001:00005320       ??0?$CComPtrBase@UIOleControlSite@@@ATL@@IAE@XZ 10006320 f i LineDisplay.obj
 0001:00005340       ??0?$CComPtrBase@UIOleInPlaceActiveObject@@@ATL@@IAE@XZ 10006340 f i LineDisplay.obj
 0001:00005360       ??0?$CComPtrBase@UIOleInPlaceFrame@@@ATL@@IAE@XZ 10006360 f i LineDisplay.obj
 0001:00005380       ??0?$CComPtrBase@UIOleInPlaceObject@@@ATL@@IAE@XZ 10006380 f i LineDisplay.obj
 0001:000053a0       ??0?$CComPtrBase@UIOleInPlaceUIWindow@@@ATL@@IAE@XZ 100063a0 f i LineDisplay.obj
 0001:000053c0       ??0?$CComPtrBase@UIOleObject@@@ATL@@IAE@XZ 100063c0 f i LineDisplay.obj
 0001:000053e0       ??0?$CComPtrBase@UIPersistStream@@@ATL@@IAE@XZ 100063e0 f i LineDisplay.obj
 0001:00005400       ??0?$CComPtrBase@UIPersistStreamInit@@@ATL@@IAE@XZ 10006400 f i LineDisplay.obj
 0001:00005420       ??0?$CComPtrBase@UIPointerInactive@@@ATL@@IAE@XZ 10006420 f i LineDisplay.obj
 0001:00005440       ??0?$CComPtrBase@UIProvideClassInfo2@@@ATL@@IAE@XZ 10006440 f i LineDisplay.obj
 0001:00005460       ??0?$CComPtrBase@UISpecifyPropertyPages@@@ATL@@IAE@XZ 10006460 f i LineDisplay.obj
 0001:00005480       ??0?$CComPtrBase@UIStream@@@ATL@@IAE@XZ 10006480 f i LineDisplay.obj
 0001:000054a0       ??0?$CComPtrBase@UITypeInfo2@@@ATL@@IAE@XZ 100064a0 f i LineDisplay.obj
 0001:000054c0       ??0?$CComPtrBase@UITypeInfo@@@ATL@@IAE@PAUITypeInfo@@@Z 100064c0 f i LineDisplay.obj
 0001:00005510       ??0?$CComPtrBase@UITypeInfo@@@ATL@@IAE@XZ 10006510 f i LineDisplay.obj
 0001:00005530       ??0?$CComPtrBase@UITypeLib@@@ATL@@IAE@XZ 10006530 f i LineDisplay.obj
 0001:00005550       ??0?$CComPtrBase@UIUnknown@@@ATL@@IAE@PAUIUnknown@@@Z 10006550 f i LineDisplay.obj
 0001:000055a0       ??0?$CComPtrBase@UIUnknown@@@ATL@@IAE@XZ 100065a0 f i LineDisplay.obj
 0001:000055c0       ??0?$CComPtrBase@UIViewObjectEx@@@ATL@@IAE@XZ 100065c0 f i LineDisplay.obj
 0001:000055e0       ??0?$CComQIPtr@UIOleControlSite@@$1?_GUID_b196b289_bab4_101a_b69c_00aa00341d07@@3U__s_GUID@@B@ATL@@QAE@PAUIUnknown@@@Z 100065e0 f i LineDisplay.obj
 0001:00005640       ??0?$CComQIPtr@UIOleObject@@$1?_GUID_00000112_0000_0000_c000_000000000046@@3U__s_GUID@@B@ATL@@QAE@XZ 10006640 f i LineDisplay.obj
 0001:00005670       ??0?$CComQIPtr@UISpecifyPropertyPages@@$1?_GUID_b196b28b_bab4_101a_b69c_00aa00341d07@@3U__s_GUID@@B@ATL@@QAE@XZ 10006670 f i LineDisplay.obj
 0001:000056a0       ??0?$CSimpleMap@PA_WPA_WVCExpansionVectorEqualHelper@ATL@@@ATL@@QAE@XZ 100066a0 f i LineDisplay.obj
 0001:000056e0       ??0?$CTempBuffer@E$0BAA@VCCRTAllocator@ATL@@@ATL@@QAE@XZ 100066e0 f i LineDisplay.obj
 0001:00005700       ??0?$CTempBuffer@_W$0BAA@VCCRTAllocator@ATL@@@ATL@@QAE@XZ 10006700 f i LineDisplay.obj
 0001:00005720       ??0?$CTempBuffer@_W$0EAA@VCCRTAllocator@ATL@@@ATL@@QAE@XZ 10006720 f i LineDisplay.obj
 0001:00005740       ??0?$Wrapper@PA_W@?$CSimpleMap@PA_WPA_WVCExpansionVectorEqualHelper@ATL@@@ATL@@QAE@ABQA_W@Z 10006740 f i LineDisplay.obj
 0001:00005770       ??0CAtlModule@ATL@@QAE@XZ  10006770 f i LineDisplay.obj
 0001:00005890       ??0CComAutoDeleteCriticalSection@ATL@@QAE@XZ 10006890 f i LineDisplay.obj
 0001:000058c0       ??0CComBSTR@ATL@@QAE@XZ    100068c0 f i LineDisplay.obj
 0001:000058e0       ??0CComClassFactory@ATL@@QAE@XZ 100068e0 f i LineDisplay.obj
 0001:00005920       ??0CComModule@ATL@@QAE@XZ  10006920 f i LineDisplay.obj
 0001:00005990       ??0CComObjectRootBase@ATL@@QAE@XZ 10006990 f i LineDisplay.obj
 0001:000059b0       ??0CComSafeDeleteCriticalSection@ATL@@QAE@XZ 100069b0 f i LineDisplay.obj
 0001:000059e0       ??0CComVariant@ATL@@QAE@XZ 100069e0 f i LineDisplay.obj
 0001:00005a30       ??0CExpansionVector@ATL@@QAE@XZ 10006a30 f i LineDisplay.obj
 0001:00005a60       ??0CParseBuffer@CRegParser@ATL@@QAE@H@Z 10006a60 f i LineDisplay.obj
 0001:00005ad0       ??0CRegKey@ATL@@QAE@PAUHKEY__@@@Z 10006ad0 f i LineDisplay.obj
 0001:00005b10       ??0CRegKey@ATL@@QAE@PAVCAtlTransactionManager@1@@Z 10006b10 f i LineDisplay.obj
 0001:00005b50       ??0CRegObject@ATL@@QAE@XZ  10006b50 f i LineDisplay.obj
 0001:00005b90       ??0CRegParser@ATL@@QAE@PAVCRegObject@1@@Z 10006b90 f i LineDisplay.obj
 0001:00005bc0       ??0IClassFactory@@QAE@XZ   10006bc0 f i LineDisplay.obj
 0001:00005bf0       ??0IEnumConnectionPoints@@QAE@XZ 10006bf0 f i LineDisplay.obj
 0001:00005c20       ??0IEnumConnections@@QAE@XZ 10006c20 f i LineDisplay.obj
 0001:00005c50       ??0IRegistrarBase@@QAE@XZ  10006c50 f i LineDisplay.obj
 0001:00005c80       ??0IUnknown@@QAE@XZ        10006c80 f i LineDisplay.obj
 0001:00005ca0       ??0ModuleLockHelper@ATL@@QAE@XZ 10006ca0 f i LineDisplay.obj
 0001:00005ce0       ??0OposVariant@@QAE@XZ     10006ce0 f i LineDisplay.obj
 0001:00005d10       ??0Wrapper@?$CSimpleArray@GV?$CSimpleArrayEqualHelper@G@ATL@@@ATL@@QAE@ABG@Z 10006d10 f i LineDisplay.obj
 0001:00005d40       ??0_ATL_MODULE70@ATL@@QAE@XZ 10006d40 f i LineDisplay.obj
 0001:00005d70       ??0_ATL_MSG@ATL@@QAE@PAUHWND__@@IIJH@Z 10006d70 f i LineDisplay.obj
 0001:00005de0       ??0_U_MENUorID@ATL@@QAE@I@Z 10006de0 f i LineDisplay.obj
 0001:00005e00       ??0_U_RECT@ATL@@QAE@AAUtagRECT@@@Z 10006e00 f i LineDisplay.obj
 0001:00005e20       ??0stringdispid@CComTypeInfoHolder@ATL@@QAE@XZ 10006e20 f i LineDisplay.obj
 0001:00005e60       ??1?$CAtlModuleT@VCComModule@ATL@@@ATL@@UAE@XZ 10006e60 f i LineDisplay.obj
 0001:00005e90       ??1?$CAtlSafeAllocBufferManager@VCCRTAllocator@ATL@@@_ATL_SAFE_ALLOCA_IMPL@ATL@@QAE@XZ 10006e90 f i LineDisplay.obj
 0001:00005ee0       ??1?$CAutoVectorPtr@_W@ATL@@QAE@XZ 10006ee0 f i LineDisplay.obj
 0001:00005f10       ??1?$CComAggObject@VCOPOSLineDisplay@@@ATL@@UAE@XZ 10006f10 f i LineDisplay.obj
 0001:00005f80       ??1?$CComContainedObject@VCOPOSLineDisplay@@@ATL@@UAE@XZ 10006f80 f i LineDisplay.obj
 0001:00005fb0       ??1?$CComCritSecLock@VCComCriticalSection@ATL@@@ATL@@QAE@XZ 10006fb0 f i LineDisplay.obj
 0001:00005fe0       ??1?$CComEnum@UIEnumConnectionPoints@@$1?_GUID_b196b285_bab4_101a_b69c_00aa00341d07@@3U__s_GUID@@BPAUIConnectionPoint@@V?$_CopyInterface@UIConnectionPoint@@@ATL@@VCComSingleThreadModel@6@@ATL@@UAE@XZ 10006fe0 f i LineDisplay.obj
 0001:00006010       ??1?$CComEnum@UIEnumConnections@@$1?_GUID_b196b287_bab4_101a_b69c_00aa00341d07@@3U__s_GUID@@BUtagCONNECTDATA@@V?$_Copy@UtagCONNECTDATA@@@ATL@@VCComSingleThreadModel@6@@ATL@@UAE@XZ 10007010 f i LineDisplay.obj
 0001:00006040       ??1?$CComEnumImpl@UIEnumConnectionPoints@@$1?_GUID_b196b285_bab4_101a_b69c_00aa00341d07@@3U__s_GUID@@BPAUIConnectionPoint@@V?$_CopyInterface@UIConnectionPoint@@@ATL@@@ATL@@UAE@XZ 10007040 f i LineDisplay.obj
 0001:000060d0       ??1?$CComEnumImpl@UIEnumConnections@@$1?_GUID_b196b287_bab4_101a_b69c_00aa00341d07@@3U__s_GUID@@BUtagCONNECTDATA@@V?$_Copy@UtagCONNECTDATA@@@ATL@@@ATL@@UAE@XZ 100070d0 f i LineDisplay.obj
 0001:00006160       ??1?$CComObject@V?$CComEnum@UIEnumConnectionPoints@@$1?_GUID_b196b285_bab4_101a_b69c_00aa00341d07@@3U__s_GUID@@BPAUIConnectionPoint@@V?$_CopyInterface@UIConnectionPoint@@@ATL@@VCComSingleThreadModel@6@@ATL@@@ATL@@UAE@XZ 10007160 f i LineDisplay.obj
 0001:000061c0       ??1?$CComObject@V?$CComEnum@UIEnumConnections@@$1?_GUID_b196b287_bab4_101a_b69c_00aa00341d07@@3U__s_GUID@@BUtagCONNECTDATA@@V?$_Copy@UtagCONNECTDATA@@@ATL@@VCComSingleThreadModel@6@@ATL@@@ATL@@UAE@XZ 100071c0 f i LineDisplay.obj
 0001:00006220       ??1?$CComObject@VCOPOSLineDisplay@@@ATL@@UAE@XZ 10007220 f i LineDisplay.obj
 0001:00006360       ??1?$CComObjectCached@VCComClassFactory@ATL@@@ATL@@UAE@XZ 10007360 f i LineDisplay.obj
 0001:000063b0       ??1?$CComObjectRootEx@VCComMultiThreadModel@ATL@@@ATL@@QAE@XZ 100073b0 f i LineDisplay.obj
 0001:000063e0       ??1?$CComObjectRootEx@VCComSingleThreadModel@ATL@@@ATL@@QAE@XZ 100073e0 f i LineDisplay.obj
 0001:00006410       ??1?$CComPtr@UIAdviseSink@@@ATL@@QAE@XZ 10007410 f i LineDisplay.obj
 0001:00006440       ??1?$CComPtr@UICatRegister@@@ATL@@QAE@XZ 10007440 f i LineDisplay.obj
 0001:00006470       ??1?$CComPtr@UIConnectionPoint@@@ATL@@QAE@XZ 10007470 f i LineDisplay.obj
 0001:000064a0       ??1?$CComPtr@UIConnectionPointContainer@@@ATL@@QAE@XZ 100074a0 f i LineDisplay.obj
 0001:000064d0       ??1?$CComPtr@UIDataObject@@@ATL@@QAE@XZ 100074d0 f i LineDisplay.obj
 0001:00006500       ??1?$CComPtr@UIDispatch@@@ATL@@QAE@XZ 10007500 f i LineDisplay.obj
 0001:00006530       ??1?$CComPtr@UIOleClientSite@@@ATL@@QAE@XZ 10007530 f i LineDisplay.obj
 0001:00006560       ??1?$CComPtr@UIOleControlSite@@@ATL@@QAE@XZ 10007560 f i LineDisplay.obj
 0001:00006590       ??1?$CComPtr@UIOleInPlaceActiveObject@@@ATL@@QAE@XZ 10007590 f i LineDisplay.obj
 0001:000065c0       ??1?$CComPtr@UIOleInPlaceFrame@@@ATL@@QAE@XZ 100075c0 f i LineDisplay.obj
 0001:000065f0       ??1?$CComPtr@UIOleInPlaceObject@@@ATL@@QAE@XZ 100075f0 f i LineDisplay.obj
 0001:00006620       ??1?$CComPtr@UIOleInPlaceUIWindow@@@ATL@@QAE@XZ 10007620 f i LineDisplay.obj
 0001:00006650       ??1?$CComPtr@UIOleObject@@@ATL@@QAE@XZ 10007650 f i LineDisplay.obj
 0001:00006680       ??1?$CComPtr@UIPersistStream@@@ATL@@QAE@XZ 10007680 f i LineDisplay.obj
 0001:000066b0       ??1?$CComPtr@UIPersistStreamInit@@@ATL@@QAE@XZ 100076b0 f i LineDisplay.obj
 0001:000066e0       ??1?$CComPtr@UIPointerInactive@@@ATL@@QAE@XZ 100076e0 f i LineDisplay.obj
 0001:00006710       ??1?$CComPtr@UIProvideClassInfo2@@@ATL@@QAE@XZ 10007710 f i LineDisplay.obj
 0001:00006740       ??1?$CComPtr@UISpecifyPropertyPages@@@ATL@@QAE@XZ 10007740 f i LineDisplay.obj
 0001:00006770       ??1?$CComPtr@UIStream@@@ATL@@QAE@XZ 10007770 f i LineDisplay.obj
 0001:000067a0       ??1?$CComPtr@UITypeInfo2@@@ATL@@QAE@XZ 100077a0 f i LineDisplay.obj
 0001:000067d0       ??1?$CComPtr@UITypeInfo@@@ATL@@QAE@XZ 100077d0 f i LineDisplay.obj
 0001:00006800       ??1?$CComPtr@UITypeLib@@@ATL@@QAE@XZ 10007800 f i LineDisplay.obj
 0001:00006830       ??1?$CComPtr@UIUnknown@@@ATL@@QAE@XZ 10007830 f i LineDisplay.obj
 0001:00006860       ??1?$CComPtr@UIViewObjectEx@@@ATL@@QAE@XZ 10007860 f i LineDisplay.obj
 0001:00006890       ??1?$CComPtrBase@UIAdviseSink@@@ATL@@QAE@XZ 10007890 f i LineDisplay.obj
 0001:000068e0       ??1?$CComPtrBase@UICatRegister@@@ATL@@QAE@XZ 100078e0 f i LineDisplay.obj
 0001:00006930       ??1?$CComPtrBase@UIConnectionPoint@@@ATL@@QAE@XZ 10007930 f i LineDisplay.obj
 0001:00006980       ??1?$CComPtrBase@UIConnectionPointContainer@@@ATL@@QAE@XZ 10007980 f i LineDisplay.obj
 0001:000069d0       ??1?$CComPtrBase@UIDataObject@@@ATL@@QAE@XZ 100079d0 f i LineDisplay.obj
 0001:00006a20       ??1?$CComPtrBase@UIDispatch@@@ATL@@QAE@XZ 10007a20 f i LineDisplay.obj
 0001:00006a70       ??1?$CComPtrBase@UIOleClientSite@@@ATL@@QAE@XZ 10007a70 f i LineDisplay.obj
 0001:00006ac0       ??1?$CComPtrBase@UIOleControlSite@@@ATL@@QAE@XZ 10007ac0 f i LineDisplay.obj
 0001:00006b10       ??1?$CComPtrBase@UIOleInPlaceActiveObject@@@ATL@@QAE@XZ 10007b10 f i LineDisplay.obj
 0001:00006b60       ??1?$CComPtrBase@UIOleInPlaceFrame@@@ATL@@QAE@XZ 10007b60 f i LineDisplay.obj
 0001:00006bb0       ??1?$CComPtrBase@UIOleInPlaceObject@@@ATL@@QAE@XZ 10007bb0 f i LineDisplay.obj
 0001:00006c00       ??1?$CComPtrBase@UIOleInPlaceUIWindow@@@ATL@@QAE@XZ 10007c00 f i LineDisplay.obj
 0001:00006c50       ??1?$CComPtrBase@UIOleObject@@@ATL@@QAE@XZ 10007c50 f i LineDisplay.obj
 0001:00006ca0       ??1?$CComPtrBase@UIPersistStream@@@ATL@@QAE@XZ 10007ca0 f i LineDisplay.obj
 0001:00006cf0       ??1?$CComPtrBase@UIPersistStreamInit@@@ATL@@QAE@XZ 10007cf0 f i LineDisplay.obj
 0001:00006d40       ??1?$CComPtrBase@UIPointerInactive@@@ATL@@QAE@XZ 10007d40 f i LineDisplay.obj
 0001:00006d90       ??1?$CComPtrBase@UIProvideClassInfo2@@@ATL@@QAE@XZ 10007d90 f i LineDisplay.obj
 0001:00006de0       ??1?$CComPtrBase@UISpecifyPropertyPages@@@ATL@@QAE@XZ 10007de0 f i LineDisplay.obj
 0001:00006e30       ??1?$CComPtrBase@UIStream@@@ATL@@QAE@XZ 10007e30 f i LineDisplay.obj
 0001:00006e80       ??1?$CComPtrBase@UITypeInfo2@@@ATL@@QAE@XZ 10007e80 f i LineDisplay.obj
 0001:00006ed0       ??1?$CComPtrBase@UITypeInfo@@@ATL@@QAE@XZ 10007ed0 f i LineDisplay.obj
 0001:00006f20       ??1?$CComPtrBase@UITypeLib@@@ATL@@QAE@XZ 10007f20 f i LineDisplay.obj
 0001:00006f70       ??1?$CComPtrBase@UIUnknown@@@ATL@@QAE@XZ 10007f70 f i LineDisplay.obj
 0001:00006fc0       ??1?$CComPtrBase@UIViewObjectEx@@@ATL@@QAE@XZ 10007fc0 f i LineDisplay.obj
 0001:00007010       ??1?$CComQIPtr@UIOleControlSite@@$1?_GUID_b196b289_bab4_101a_b69c_00aa00341d07@@3U__s_GUID@@B@ATL@@QAE@XZ 10008010 f i LineDisplay.obj
 0001:00007040       ??1?$CComQIPtr@UIOleObject@@$1?_GUID_00000112_0000_0000_c000_000000000046@@3U__s_GUID@@B@ATL@@QAE@XZ 10008040 f i LineDisplay.obj
 0001:00007070       ??1?$CComQIPtr@UISpecifyPropertyPages@@$1?_GUID_b196b28b_bab4_101a_b69c_00aa00341d07@@3U__s_GUID@@B@ATL@@QAE@XZ 10008070 f i LineDisplay.obj
 0001:000070a0       ??1?$CSimpleMap@PA_WPA_WVCExpansionVectorEqualHelper@ATL@@@ATL@@QAE@XZ 100080a0 f i LineDisplay.obj
 0001:000070d0       ??1?$CTempBuffer@E$0BAA@VCCRTAllocator@ATL@@@ATL@@QAE@XZ 100080d0 f i LineDisplay.obj
 0001:00007110       ??1?$CTempBuffer@_W$0BAA@VCCRTAllocator@ATL@@@ATL@@QAE@XZ 10008110 f i LineDisplay.obj
 0001:00007150       ??1?$CTempBuffer@_W$0EAA@VCCRTAllocator@ATL@@@ATL@@QAE@XZ 10008150 f i LineDisplay.obj
 0001:00007190       ??1CAtlModule@ATL@@UAE@XZ  10008190 f i LineDisplay.obj
 0001:000071c0       ??1CComAutoDeleteCriticalSection@ATL@@QAE@XZ 100081c0 f i LineDisplay.obj
 0001:000071f0       ??1CComClassFactory@ATL@@UAE@XZ 100081f0 f i LineDisplay.obj
 0001:00007220       ??1CComModule@ATL@@UAE@XZ  10008220 f i LineDisplay.obj
 0001:00007250       ??1CComObjectRootBase@ATL@@QAE@XZ 10008250 f i LineDisplay.obj
 0001:00007270       ??1CComSafeDeleteCriticalSection@ATL@@QAE@XZ 10008270 f i LineDisplay.obj
 0001:000072b0       ??1CComVariant@ATL@@QAE@XZ 100082b0 f i LineDisplay.obj
 0001:00007310       ??1CExpansionVector@ATL@@QAE@XZ 10008310 f i LineDisplay.obj
 0001:00007340       ??1CParseBuffer@CRegParser@ATL@@QAE@XZ 10008340 f i LineDisplay.obj
 0001:00007380       ??1CRegKey@ATL@@QAE@XZ     10008380 f i LineDisplay.obj
 0001:000073b0       ??1CRegObject@ATL@@UAE@XZ  100083b0 f i LineDisplay.obj
 0001:000073f0       ??1ModuleLockHelper@ATL@@QAE@XZ 100083f0 f i LineDisplay.obj
 0001:00007430       ??1OposVariant@@QAE@XZ     10008430 f i LineDisplay.obj
 0001:00007460       ??1_ATL_MODULE70@ATL@@QAE@XZ 10008460 f i LineDisplay.obj
 0001:00007490       ??4?$CComPtr@UIAdviseSink@@@ATL@@QAEPAUIAdviseSink@@PAU2@@Z 10008490 f i LineDisplay.obj
 0001:000074f0       ??4?$CComPtr@UIOleClientSite@@@ATL@@QAEPAUIOleClientSite@@PAU2@@Z 100084f0 f i LineDisplay.obj
 0001:00007550       ??4?$CComPtr@UIUnknown@@@ATL@@QAEPAUIUnknown@@PAU2@@Z 10008550 f i LineDisplay.obj
 0001:000075b0       ??4?$CComQIPtr@UIOleObject@@$1?_GUID_00000112_0000_0000_c000_000000000046@@3U__s_GUID@@B@ATL@@QAEPAUIOleObject@@PAUIUnknown@@@Z 100085b0 f i LineDisplay.obj
 0001:00007600       ??4?$CComQIPtr@UISpecifyPropertyPages@@$1?_GUID_b196b28b_bab4_101a_b69c_00aa00341d07@@3U__s_GUID@@B@ATL@@QAEPAUISpecifyPropertyPages@@PAUIUnknown@@@Z 10008600 f i LineDisplay.obj
 0001:00007650       ??7?$CComPtrBase@UIOleClientSite@@@ATL@@QBE_NXZ 10008650 f i LineDisplay.obj
 0001:00007690       ??7?$CComPtrBase@UIOleInPlaceSiteWindowless@@@ATL@@QBE_NXZ 10008690 f i LineDisplay.obj
 0001:000076d0       ??7CComBSTR@ATL@@QBE_NXZ   100086d0 f i LineDisplay.obj
 0001:00007710       ??8?$CComPtrBase@UIConnectionPointContainer@@@ATL@@QBE_NPAUIConnectionPointContainer@@@Z 10008710 f i LineDisplay.obj
 0001:00007750       ??8?$CComPtrBase@UIDataAdviseHolder@@@ATL@@QBE_NPAUIDataAdviseHolder@@@Z 10008750 f i LineDisplay.obj
 0001:00007790       ??8?$CComPtrBase@UIOleAdviseHolder@@@ATL@@QBE_NPAUIOleAdviseHolder@@@Z 10008790 f i LineDisplay.obj
 0001:000077d0       ??8?$CComPtrBase@UIOleClientSite@@@ATL@@QBE_NPAUIOleClientSite@@@Z 100087d0 f i LineDisplay.obj
 0001:00007810       ??8?$CComPtrBase@UIOleControlSite@@@ATL@@QBE_NPAUIOleControlSite@@@Z 10008810 f i LineDisplay.obj
 0001:00007850       ??8?$CComPtrBase@UIOleInPlaceObject@@@ATL@@QBE_NPAUIOleInPlaceObject@@@Z 10008850 f i LineDisplay.obj
 0001:00007890       ??8?$CComPtrBase@UIOleInPlaceSiteWindowless@@@ATL@@QBE_NPAUIOleInPlaceSiteWindowless@@@Z 10008890 f i LineDisplay.obj
 0001:000078d0       ??8?$CComPtrBase@UIOleObject@@@ATL@@QBE_NPAUIOleObject@@@Z 100088d0 f i LineDisplay.obj
 0001:00007910       ??8?$CComPtrBase@UIPersistStream@@@ATL@@QBE_NPAUIPersistStream@@@Z 10008910 f i LineDisplay.obj
 0001:00007950       ??8?$CComPtrBase@UIPersistStreamInit@@@ATL@@QBE_NPAUIPersistStreamInit@@@Z 10008950 f i LineDisplay.obj
 0001:00007990       ??8?$CComPtrBase@UIPointerInactive@@@ATL@@QBE_NPAUIPointerInactive@@@Z 10008990 f i LineDisplay.obj
 0001:000079d0       ??8?$CComPtrBase@UIUnknown@@@ATL@@QBE_NPAUIUnknown@@@Z 100089d0 f i LineDisplay.obj
 0001:00007a10       ??8?$CComPtrBase@UIViewObjectEx@@@ATL@@QBE_NPAUIViewObjectEx@@@Z 10008a10 f i LineDisplay.obj
 0001:00007a50       ??8CComBSTR@ATL@@QBE_NH@Z  10008a50 f i LineDisplay.obj
 0001:00007ab0       ??9?$CComPtrBase@UIConnectionPointContainer@@@ATL@@QBE_NPAUIConnectionPointContainer@@@Z 10008ab0 f i LineDisplay.obj
 0001:00007b00       ??9?$CComPtrBase@UIDataAdviseHolder@@@ATL@@QBE_NPAUIDataAdviseHolder@@@Z 10008b00 f i LineDisplay.obj
 0001:00007b50       ??9?$CComPtrBase@UIOleAdviseHolder@@@ATL@@QBE_NPAUIOleAdviseHolder@@@Z 10008b50 f i LineDisplay.obj
 0001:00007ba0       ??9?$CComPtrBase@UIOleClientSite@@@ATL@@QBE_NPAUIOleClientSite@@@Z 10008ba0 f i LineDisplay.obj
 0001:00007bf0       ??9?$CComPtrBase@UIOleControlSite@@@ATL@@QBE_NPAUIOleControlSite@@@Z 10008bf0 f i LineDisplay.obj
 0001:00007c40       ??9?$CComPtrBase@UIOleInPlaceObject@@@ATL@@QBE_NPAUIOleInPlaceObject@@@Z 10008c40 f i LineDisplay.obj
 0001:00007c90       ??9?$CComPtrBase@UIOleInPlaceSiteWindowless@@@ATL@@QBE_NPAUIOleInPlaceSiteWindowless@@@Z 10008c90 f i LineDisplay.obj
 0001:00007ce0       ??9?$CComPtrBase@UIOleObject@@@ATL@@QBE_NPAUIOleObject@@@Z 10008ce0 f i LineDisplay.obj
 0001:00007d30       ??9?$CComPtrBase@UIPersistStream@@@ATL@@QBE_NPAUIPersistStream@@@Z 10008d30 f i LineDisplay.obj
 0001:00007d80       ??9?$CComPtrBase@UIPersistStreamInit@@@ATL@@QBE_NPAUIPersistStreamInit@@@Z 10008d80 f i LineDisplay.obj
 0001:00007dd0       ??9?$CComPtrBase@UIPointerInactive@@@ATL@@QBE_NPAUIPointerInactive@@@Z 10008dd0 f i LineDisplay.obj
 0001:00007e20       ??9?$CComPtrBase@UIUnknown@@@ATL@@QBE_NPAUIUnknown@@@Z 10008e20 f i LineDisplay.obj
 0001:00007e70       ??9?$CComPtrBase@UIViewObjectEx@@@ATL@@QBE_NPAUIViewObjectEx@@@Z 10008e70 f i LineDisplay.obj
 0001:00007ec0       ??9CComBSTR@ATL@@QBE_NH@Z  10008ec0 f i LineDisplay.obj
 0001:00007f10       ??B?$CComPtrBase@UIAdviseSink@@@ATL@@QBEPAUIAdviseSink@@XZ 10008f10 f i LineDisplay.obj
 0001:00007f30       ??B?$CComPtrBase@UIDataAdviseHolder@@@ATL@@QBEPAUIDataAdviseHolder@@XZ 10008f30 f i LineDisplay.obj
 0001:00007f50       ??B?$CComPtrBase@UIDataObject@@@ATL@@QBEPAUIDataObject@@XZ 10008f50 f i LineDisplay.obj
 0001:00007f70       ??B?$CComPtrBase@UIOleAdviseHolder@@@ATL@@QBEPAUIOleAdviseHolder@@XZ 10008f70 f i LineDisplay.obj
 0001:00007f90       ??B?$CComPtrBase@UIOleClientSite@@@ATL@@QBEPAUIOleClientSite@@XZ 10008f90 f i LineDisplay.obj
 0001:00007fb0       ??B?$CComPtrBase@UIOleControlSite@@@ATL@@QBEPAUIOleControlSite@@XZ 10008fb0 f i LineDisplay.obj
 0001:00007fd0       ??B?$CComPtrBase@UIOleInPlaceActiveObject@@@ATL@@QBEPAUIOleInPlaceActiveObject@@XZ 10008fd0 f i LineDisplay.obj
 0001:00007ff0       ??B?$CComPtrBase@UIOleInPlaceFrame@@@ATL@@QBEPAUIOleInPlaceFrame@@XZ 10008ff0 f i LineDisplay.obj
 0001:00008010       ??B?$CComPtrBase@UIOleInPlaceSiteWindowless@@@ATL@@QBEPAUIOleInPlaceSiteWindowless@@XZ 10009010 f i LineDisplay.obj
 0001:00008030       ??B?$CComPtrBase@UIOleInPlaceUIWindow@@@ATL@@QBEPAUIOleInPlaceUIWindow@@XZ 10009030 f i LineDisplay.obj
 0001:00008050       ??B?$CComPtrBase@UIOleObject@@@ATL@@QBEPAUIOleObject@@XZ 10009050 f i LineDisplay.obj
 0001:00008070       ??B?$CComPtrBase@UIPersistStream@@@ATL@@QBEPAUIPersistStream@@XZ 10009070 f i LineDisplay.obj
 0001:00008090       ??B?$CComPtrBase@UIProvideClassInfo2@@@ATL@@QBEPAUIProvideClassInfo2@@XZ 10009090 f i LineDisplay.obj
 0001:000080b0       ??B?$CComPtrBase@UISpecifyPropertyPages@@@ATL@@QBEPAUISpecifyPropertyPages@@XZ 100090b0 f i LineDisplay.obj
 0001:000080d0       ??B?$CComPtrBase@UIStream@@@ATL@@QBEPAUIStream@@XZ 100090d0 f i LineDisplay.obj
 0001:000080f0       ??B?$CComPtrBase@UITypeInfo2@@@ATL@@QBEPAUITypeInfo2@@XZ 100090f0 f i LineDisplay.obj
 0001:00008110       ??B?$CComPtrBase@UITypeInfo@@@ATL@@QBEPAUITypeInfo@@XZ 10009110 f i LineDisplay.obj
 0001:00008130       ??B?$CComPtrBase@UITypeLib@@@ATL@@QBEPAUITypeLib@@XZ 10009130 f i LineDisplay.obj
 0001:00008150       ??B?$CComPtrBase@UIUnknown@@@ATL@@QBEPAUIUnknown@@XZ 10009150 f i LineDisplay.obj
 0001:00008170       ??B?$CTempBuffer@E$0BAA@VCCRTAllocator@ATL@@@ATL@@QBEPAEXZ 10009170 f i LineDisplay.obj
 0001:00008190       ??B?$CTempBuffer@_W$0BAA@VCCRTAllocator@ATL@@@ATL@@QBEPA_WXZ 10009190 f i LineDisplay.obj
 0001:000081b0       ??B?$CTempBuffer@_W$0EAA@VCCRTAllocator@ATL@@@ATL@@QBEPA_WXZ 100091b0 f i LineDisplay.obj
 0001:000081d0       ??B?$CTraceCategoryEx@$00$0A@@ATL@@QAEIXZ 100091d0 f i LineDisplay.obj
 0001:000081f0       ??B?$CTraceCategoryEx@$07$0A@@ATL@@QAEIXZ 100091f0 f i LineDisplay.obj
 0001:00008210       ??B?$CTraceCategoryEx@$0CAAA@$0A@@ATL@@QAEIXZ 10009210 f i LineDisplay.obj
 0001:00008230       ??B?$CTraceCategoryEx@$0EA@$0A@@ATL@@QAEIXZ 10009230 f i LineDisplay.obj
 0001:00008250       ??B?$CTraceCategoryEx@$0IAA@$0A@@ATL@@QAEIXZ 10009250 f i LineDisplay.obj
 0001:00008270       ??BCComBSTR@ATL@@QBEPA_WXZ 10009270 f i LineDisplay.obj
 0001:00008290       ??BCRegKey@ATL@@QBEPAUHKEY__@@XZ 10009290 f i LineDisplay.obj
 0001:000082b0       ??C?$CComPtrBase@UIAdviseSink@@@ATL@@QBEPAV?$_NoAddRefReleaseOnCComPtr@UIAdviseSink@@@1@XZ 100092b0 f i LineDisplay.obj
 0001:00008300       ??C?$CComPtrBase@UICatRegister@@@ATL@@QBEPAV?$_NoAddRefReleaseOnCComPtr@UICatRegister@@@1@XZ 10009300 f i LineDisplay.obj
 0001:00008350       ??C?$CComPtrBase@UIConnectionPoint@@@ATL@@QBEPAV?$_NoAddRefReleaseOnCComPtr@UIConnectionPoint@@@1@XZ 10009350 f i LineDisplay.obj
 0001:000083a0       ??C?$CComPtrBase@UIConnectionPointContainer@@@ATL@@QBEPAV?$_NoAddRefReleaseOnCComPtr@UIConnectionPointContainer@@@1@XZ 100093a0 f i LineDisplay.obj
 0001:000083f0       ??C?$CComPtrBase@UIDataAdviseHolder@@@ATL@@QBEPAV?$_NoAddRefReleaseOnCComPtr@UIDataAdviseHolder@@@1@XZ 100093f0 f i LineDisplay.obj
 0001:00008440       ??C?$CComPtrBase@UIOleAdviseHolder@@@ATL@@QBEPAV?$_NoAddRefReleaseOnCComPtr@UIOleAdviseHolder@@@1@XZ 10009440 f i LineDisplay.obj
 0001:00008490       ??C?$CComPtrBase@UIOleClientSite@@@ATL@@QBEPAV?$_NoAddRefReleaseOnCComPtr@UIOleClientSite@@@1@XZ 10009490 f i LineDisplay.obj
 0001:000084e0       ??C?$CComPtrBase@UIOleControlSite@@@ATL@@QBEPAV?$_NoAddRefReleaseOnCComPtr@UIOleControlSite@@@1@XZ 100094e0 f i LineDisplay.obj
 0001:00008530       ??C?$CComPtrBase@UIOleInPlaceFrame@@@ATL@@QBEPAV?$_NoAddRefReleaseOnCComPtr@UIOleInPlaceFrame@@@1@XZ 10009530 f i LineDisplay.obj
 0001:00008580       ??C?$CComPtrBase@UIOleInPlaceObject@@@ATL@@QBEPAV?$_NoAddRefReleaseOnCComPtr@UIOleInPlaceObject@@@1@XZ 10009580 f i LineDisplay.obj
 0001:000085d0       ??C?$CComPtrBase@UIOleInPlaceSiteWindowless@@@ATL@@QBEPAV?$_NoAddRefReleaseOnCComPtr@UIOleInPlaceSiteWindowless@@@1@XZ 100095d0 f i LineDisplay.obj
 0001:00008620       ??C?$CComPtrBase@UIOleInPlaceUIWindow@@@ATL@@QBEPAV?$_NoAddRefReleaseOnCComPtr@UIOleInPlaceUIWindow@@@1@XZ 10009620 f i LineDisplay.obj
 0001:00008670       ??C?$CComPtrBase@UIOleObject@@@ATL@@QBEPAV?$_NoAddRefReleaseOnCComPtr@UIOleObject@@@1@XZ 10009670 f i LineDisplay.obj
 0001:000086c0       ??C?$CComPtrBase@UIPersistStream@@@ATL@@QBEPAV?$_NoAddRefReleaseOnCComPtr@UIPersistStream@@@1@XZ 100096c0 f i LineDisplay.obj
 0001:00008710       ??C?$CComPtrBase@UIPersistStreamInit@@@ATL@@QBEPAV?$_NoAddRefReleaseOnCComPtr@UIPersistStreamInit@@@1@XZ 10009710 f i LineDisplay.obj
 0001:00008760       ??C?$CComPtrBase@UIPointerInactive@@@ATL@@QBEPAV?$_NoAddRefReleaseOnCComPtr@UIPointerInactive@@@1@XZ 10009760 f i LineDisplay.obj
 0001:000087b0       ??C?$CComPtrBase@UIProvideClassInfo2@@@ATL@@QBEPAV?$_NoAddRefReleaseOnCComPtr@UIProvideClassInfo2@@@1@XZ 100097b0 f i LineDisplay.obj
 0001:00008800       ??C?$CComPtrBase@UISpecifyPropertyPages@@@ATL@@QBEPAV?$_NoAddRefReleaseOnCComPtr@UISpecifyPropertyPages@@@1@XZ 10009800 f i LineDisplay.obj
 0001:00008850       ??C?$CComPtrBase@UITypeInfo@@@ATL@@QBEPAV?$_NoAddRefReleaseOnCComPtr@UITypeInfo@@@1@XZ 10009850 f i LineDisplay.obj
 0001:000088a0       ??C?$CComPtrBase@UITypeLib@@@ATL@@QBEPAV?$_NoAddRefReleaseOnCComPtr@UITypeLib@@@1@XZ 100098a0 f i LineDisplay.obj
 0001:000088f0       ??C?$CComPtrBase@UIUnknown@@@ATL@@QBEPAV?$_NoAddRefReleaseOnCComPtr@UIUnknown@@@1@XZ 100098f0 f i LineDisplay.obj
 0001:00008940       ??C?$CComPtrBase@UIViewObjectEx@@@ATL@@QBEPAV?$_NoAddRefReleaseOnCComPtr@UIViewObjectEx@@@1@XZ 10009940 f i LineDisplay.obj
 0001:00008990       ??I?$CComPtrBase@UICatRegister@@@ATL@@QAEPAPAUICatRegister@@XZ 10009990 f i LineDisplay.obj
 0001:000089e0       ??I?$CComPtrBase@UIConnectionPoint@@@ATL@@QAEPAPAUIConnectionPoint@@XZ 100099e0 f i LineDisplay.obj
 0001:00008a30       ??I?$CComPtrBase@UIConnectionPointContainer@@@ATL@@QAEPAPAUIConnectionPointContainer@@XZ 10009a30 f i LineDisplay.obj
 0001:00008a80       ??I?$CComPtrBase@UIDataAdviseHolder@@@ATL@@QAEPAPAUIDataAdviseHolder@@XZ 10009a80 f i LineDisplay.obj
 0001:00008ad0       ??I?$CComPtrBase@UIDataObject@@@ATL@@QAEPAPAUIDataObject@@XZ 10009ad0 f i LineDisplay.obj
 0001:00008b20       ??I?$CComPtrBase@UIDispatch@@@ATL@@QAEPAPAUIDispatch@@XZ 10009b20 f i LineDisplay.obj
 0001:00008b70       ??I?$CComPtrBase@UIOleAdviseHolder@@@ATL@@QAEPAPAUIOleAdviseHolder@@XZ 10009b70 f i LineDisplay.obj
 0001:00008bc0       ??I?$CComPtrBase@UIOleControlSite@@@ATL@@QAEPAPAUIOleControlSite@@XZ 10009bc0 f i LineDisplay.obj
 0001:00008c10       ??I?$CComPtrBase@UIOleInPlaceActiveObject@@@ATL@@QAEPAPAUIOleInPlaceActiveObject@@XZ 10009c10 f i LineDisplay.obj
 0001:00008c60       ??I?$CComPtrBase@UIOleInPlaceFrame@@@ATL@@QAEPAPAUIOleInPlaceFrame@@XZ 10009c60 f i LineDisplay.obj
 0001:00008cb0       ??I?$CComPtrBase@UIOleInPlaceObject@@@ATL@@QAEPAPAUIOleInPlaceObject@@XZ 10009cb0 f i LineDisplay.obj
 0001:00008d00       ??I?$CComPtrBase@UIOleInPlaceSiteWindowless@@@ATL@@QAEPAPAUIOleInPlaceSiteWindowless@@XZ 10009d00 f i LineDisplay.obj
 0001:00008d50       ??I?$CComPtrBase@UIOleInPlaceUIWindow@@@ATL@@QAEPAPAUIOleInPlaceUIWindow@@XZ 10009d50 f i LineDisplay.obj
 0001:00008da0       ??I?$CComPtrBase@UIOleObject@@@ATL@@QAEPAPAUIOleObject@@XZ 10009da0 f i LineDisplay.obj
 0001:00008df0       ??I?$CComPtrBase@UIPersistStream@@@ATL@@QAEPAPAUIPersistStream@@XZ 10009df0 f i LineDisplay.obj
 0001:00008e40       ??I?$CComPtrBase@UIPointerInactive@@@ATL@@QAEPAPAUIPointerInactive@@XZ 10009e40 f i LineDisplay.obj
 0001:00008e90       ??I?$CComPtrBase@UIProvideClassInfo2@@@ATL@@QAEPAPAUIProvideClassInfo2@@XZ 10009e90 f i LineDisplay.obj
 0001:00008ee0       ??I?$CComPtrBase@UIStream@@@ATL@@QAEPAPAUIStream@@XZ 10009ee0 f i LineDisplay.obj
 0001:00008f30       ??I?$CComPtrBase@UITypeInfo2@@@ATL@@QAEPAPAUITypeInfo2@@XZ 10009f30 f i LineDisplay.obj
 0001:00008f80       ??I?$CComPtrBase@UITypeInfo@@@ATL@@QAEPAPAUITypeInfo@@XZ 10009f80 f i LineDisplay.obj
 0001:00008fd0       ??I?$CComPtrBase@UITypeLib@@@ATL@@QAEPAPAUITypeLib@@XZ 10009fd0 f i LineDisplay.obj
 0001:00009020       ??I?$CComPtrBase@UIUnknown@@@ATL@@QAEPAPAUIUnknown@@XZ 1000a020 f i LineDisplay.obj
 0001:00009070       ??I?$CComPtrBase@UIViewObjectEx@@@ATL@@QAEPAPAUIViewObjectEx@@XZ 1000a070 f i LineDisplay.obj
 0001:000090c0       ??ICComBSTR@ATL@@QAEPAPA_WXZ 1000a0c0 f i LineDisplay.obj
 0001:000090d5       ??_E?$CComContainedObject@VCOPOSLineDisplay@@@ATL@@W3AEPAXI@Z 1000a0d5 f i LineDisplay.obj
 0001:000090dd       ??_E?$CComContainedObject@VCOPOSLineDisplay@@@ATL@@WEM@AEPAXI@Z 1000a0dd f i LineDisplay.obj
 0001:000090e5       ??_E?$CComObject@VCOPOSLineDisplay@@@ATL@@W3AEPAXI@Z 1000a0e5 f i LineDisplay.obj
 0001:000090ed       ??_E?$CComObject@VCOPOSLineDisplay@@@ATL@@WEM@AEPAXI@Z 1000a0ed f i LineDisplay.obj
 0001:00009100       ??_E?$CComAggObject@VCOPOSLineDisplay@@@ATL@@UAEPAXI@Z 1000a100 f i LineDisplay.obj
 0001:00009100       ??_G?$CComAggObject@VCOPOSLineDisplay@@@ATL@@UAEPAXI@Z 1000a100 f i LineDisplay.obj
 0001:00009150       ??_G?$CComContainedObject@VCOPOSLineDisplay@@@ATL@@UAEPAXI@Z 1000a150 f i LineDisplay.obj
 0001:00009150       ??_E?$CComContainedObject@VCOPOSLineDisplay@@@ATL@@UAEPAXI@Z 1000a150 f i LineDisplay.obj
 0001:000091a0       ??_E?$CComObject@V?$CComEnum@UIEnumConnectionPoints@@$1?_GUID_b196b285_bab4_101a_b69c_00aa00341d07@@3U__s_GUID@@BPAUIConnectionPoint@@V?$_CopyInterface@UIConnectionPoint@@@ATL@@VCComSingleThreadModel@6@@ATL@@@ATL@@UAEPAXI@Z 1000a1a0 f i LineDisplay.obj
 0001:000091a0       ??_G?$CComObject@V?$CComEnum@UIEnumConnectionPoints@@$1?_GUID_b196b285_bab4_101a_b69c_00aa00341d07@@3U__s_GUID@@BPAUIConnectionPoint@@V?$_CopyInterface@UIConnectionPoint@@@ATL@@VCComSingleThreadModel@6@@ATL@@@ATL@@UAEPAXI@Z 1000a1a0 f i LineDisplay.obj
 0001:000091e0       ??_E?$CComObject@V?$CComEnum@UIEnumConnections@@$1?_GUID_b196b287_bab4_101a_b69c_00aa00341d07@@3U__s_GUID@@BUtagCONNECTDATA@@V?$_Copy@UtagCONNECTDATA@@@ATL@@VCComSingleThreadModel@6@@ATL@@@ATL@@UAEPAXI@Z 1000a1e0 f i LineDisplay.obj
 0001:000091e0       ??_G?$CComObject@V?$CComEnum@UIEnumConnections@@$1?_GUID_b196b287_bab4_101a_b69c_00aa00341d07@@3U__s_GUID@@BUtagCONNECTDATA@@V?$_Copy@UtagCONNECTDATA@@@ATL@@VCComSingleThreadModel@6@@ATL@@@ATL@@UAEPAXI@Z 1000a1e0 f i LineDisplay.obj
 0001:00009220       ??_G?$CComObject@VCOPOSLineDisplay@@@ATL@@UAEPAXI@Z 1000a220 f i LineDisplay.obj
 0001:00009220       ??_E?$CComObject@VCOPOSLineDisplay@@@ATL@@UAEPAXI@Z 1000a220 f i LineDisplay.obj
 0001:00009270       ??_E?$CComObjectCached@VCComClassFactory@ATL@@@ATL@@UAEPAXI@Z 1000a270 f i LineDisplay.obj
 0001:00009270       ??_G?$CComObjectCached@VCComClassFactory@ATL@@@ATL@@UAEPAXI@Z 1000a270 f i LineDisplay.obj
 0001:000092b0       ??_ECComClassFactory@ATL@@UAEPAXI@Z 1000a2b0 f i LineDisplay.obj
 0001:000092b0       ??_GCComClassFactory@ATL@@UAEPAXI@Z 1000a2b0 f i LineDisplay.obj
 0001:000092f0       ??_GCComModule@ATL@@UAEPAXI@Z 1000a2f0 f i LineDisplay.obj
 0001:000092f0       ??_ECComModule@ATL@@UAEPAXI@Z 1000a2f0 f i LineDisplay.obj
 0001:00009330       ??_GCRegObject@ATL@@UAEPAXI@Z 1000a330 f i LineDisplay.obj
 0001:00009330       ??_ECRegObject@ATL@@UAEPAXI@Z 1000a330 f i LineDisplay.obj
 0001:00009370       ?Add@?$CSimpleArray@GV?$CSimpleArrayEqualHelper@G@ATL@@@ATL@@QAEHABG@Z 1000a370 f i LineDisplay.obj
 0001:000094c0       ?Add@?$CSimpleMap@PA_WPA_WVCExpansionVectorEqualHelper@ATL@@@ATL@@QAEHABQA_W0@Z 1000a4c0 f i LineDisplay.obj
 0001:00009580       ?Add@CComDynamicUnkArray@ATL@@QAEKPAUIUnknown@@@Z 1000a580 f i LineDisplay.obj
 0001:00009720       ?Add@CExpansionVector@ATL@@QAEHPB_W0@Z 1000a720 f i LineDisplay.obj
 0001:000099b0       ?AddChar@CParseBuffer@CRegParser@ATL@@QAEHPB_W@Z 1000a9b0 f i LineDisplay.obj
 0001:000099f0       ?AddCommonRGSReplacements@?$CAtlModuleT@VCComModule@ATL@@@ATL@@UAEJPAUIRegistrarBase@@@Z 1000a9f0 f i LineDisplay.obj
 0001:00009a40       ?AddCreateWndData@CAtlWinModule@ATL@@QAEXPAU_AtlCreateWndData@2@PAX@Z 1000aa40 f i LineDisplay.obj
 0001:00009a70       ?AddRef@?$CComAggObject@VCOPOSLineDisplay@@@ATL@@UAGKXZ 1000aa70 f i LineDisplay.obj
 0001:00009a90       ?AddRef@?$CComContainedObject@VCOPOSLineDisplay@@@ATL@@UAGKXZ 1000aa90 f i LineDisplay.obj
 0001:00009aac       ?AddRef@?$CComContainedObject@VCOPOSLineDisplay@@@ATL@@WHA@AGKXZ 1000aaac f i LineDisplay.obj
 0001:00009ab6       ?AddRef@?$CComContainedObject@VCOPOSLineDisplay@@@ATL@@WHE@AGKXZ 1000aab6 f i LineDisplay.obj
 0001:00009ac0       ?AddRef@?$CComContainedObject@VCOPOSLineDisplay@@@ATL@@WHI@AGKXZ 1000aac0 f i LineDisplay.obj
 0001:00009aca       ?AddRef@?$CComContainedObject@VCOPOSLineDisplay@@@ATL@@WHM@AGKXZ 1000aaca f i LineDisplay.obj
 0001:00009ad4       ?AddRef@?$CComContainedObject@VCOPOSLineDisplay@@@ATL@@WIA@AGKXZ 1000aad4 f i LineDisplay.obj
 0001:00009ae1       ?AddRef@?$CComContainedObject@VCOPOSLineDisplay@@@ATL@@WIE@AGKXZ 1000aae1 f i LineDisplay.obj
 0001:00009aee       ?AddRef@?$CComContainedObject@VCOPOSLineDisplay@@@ATL@@WII@AGKXZ 1000aaee f i LineDisplay.obj
 0001:00009afb       ?AddRef@?$CComContainedObject@VCOPOSLineDisplay@@@ATL@@WIM@AGKXZ 1000aafb f i LineDisplay.obj
 0001:00009b08       ?AddRef@?$CComContainedObject@VCOPOSLineDisplay@@@ATL@@WJA@AGKXZ 1000ab08 f i LineDisplay.obj
 0001:00009b15       ?AddRef@?$CComContainedObject@VCOPOSLineDisplay@@@ATL@@WJE@AGKXZ 1000ab15 f i LineDisplay.obj
 0001:00009b22       ?AddRef@?$CComContainedObject@VCOPOSLineDisplay@@@ATL@@WJI@AGKXZ 1000ab22 f i LineDisplay.obj
 0001:00009b2f       ?AddRef@?$CComContainedObject@VCOPOSLineDisplay@@@ATL@@WJM@AGKXZ 1000ab2f f i LineDisplay.obj
 0001:00009b3c       ?AddRef@?$CComContainedObject@VCOPOSLineDisplay@@@ATL@@WKA@AGKXZ 1000ab3c f i LineDisplay.obj
 0001:00009b49       ?AddRef@?$CComContainedObject@VCOPOSLineDisplay@@@ATL@@WKI@AGKXZ 1000ab49 f i LineDisplay.obj
 0001:00009b56       ?AddRef@?$CComContainedObject@VCOPOSLineDisplay@@@ATL@@WLE@AGKXZ 1000ab56 f i LineDisplay.obj
 0001:00009b70       ?AddRef@?$CComObject@V?$CComEnum@UIEnumConnectionPoints@@$1?_GUID_b196b285_bab4_101a_b69c_00aa00341d07@@3U__s_GUID@@BPAUIConnectionPoint@@V?$_CopyInterface@UIConnectionPoint@@@ATL@@VCComSingleThreadModel@6@@ATL@@@ATL@@UAGKXZ 1000ab70 f i LineDisplay.obj
 0001:00009b90       ?AddRef@?$CComObject@V?$CComEnum@UIEnumConnections@@$1?_GUID_b196b287_bab4_101a_b69c_00aa00341d07@@3U__s_GUID@@BUtagCONNECTDATA@@V?$_Copy@UtagCONNECTDATA@@@ATL@@VCComSingleThreadModel@6@@ATL@@@ATL@@UAGKXZ 1000ab90 f i LineDisplay.obj
 0001:00009bb0       ?AddRef@?$CComObject@VCOPOSLineDisplay@@@ATL@@UAGKXZ 1000abb0 f i LineDisplay.obj
 0001:00009bcc       ?AddRef@?$CComObject@VCOPOSLineDisplay@@@ATL@@WHA@AGKXZ 1000abcc f i LineDisplay.obj
 0001:00009bd6       ?AddRef@?$CComObject@VCOPOSLineDisplay@@@ATL@@WHE@AGKXZ 1000abd6 f i LineDisplay.obj
 0001:00009be0       ?AddRef@?$CComObject@VCOPOSLineDisplay@@@ATL@@WHI@AGKXZ 1000abe0 f i LineDisplay.obj
 0001:00009bea       ?AddRef@?$CComObject@VCOPOSLineDisplay@@@ATL@@WHM@AGKXZ 1000abea f i LineDisplay.obj
 0001:00009bf4       ?AddRef@?$CComObject@VCOPOSLineDisplay@@@ATL@@WIA@AGKXZ 1000abf4 f i LineDisplay.obj
 0001:00009c01       ?AddRef@?$CComObject@VCOPOSLineDisplay@@@ATL@@WIE@AGKXZ 1000ac01 f i LineDisplay.obj
 0001:00009c0e       ?AddRef@?$CComObject@VCOPOSLineDisplay@@@ATL@@WII@AGKXZ 1000ac0e f i LineDisplay.obj
 0001:00009c1b       ?AddRef@?$CComObject@VCOPOSLineDisplay@@@ATL@@WIM@AGKXZ 1000ac1b f i LineDisplay.obj
 0001:00009c28       ?AddRef@?$CComObject@VCOPOSLineDisplay@@@ATL@@WJA@AGKXZ 1000ac28 f i LineDisplay.obj
 0001:00009c35       ?AddRef@?$CComObject@VCOPOSLineDisplay@@@ATL@@WJE@AGKXZ 1000ac35 f i LineDisplay.obj
 0001:00009c42       ?AddRef@?$CComObject@VCOPOSLineDisplay@@@ATL@@WJI@AGKXZ 1000ac42 f i LineDisplay.obj
 0001:00009c4f       ?AddRef@?$CComObject@VCOPOSLineDisplay@@@ATL@@WJM@AGKXZ 1000ac4f f i LineDisplay.obj
 0001:00009c5c       ?AddRef@?$CComObject@VCOPOSLineDisplay@@@ATL@@WKA@AGKXZ 1000ac5c f i LineDisplay.obj
 0001:00009c69       ?AddRef@?$CComObject@VCOPOSLineDisplay@@@ATL@@WKI@AGKXZ 1000ac69 f i LineDisplay.obj
 0001:00009c76       ?AddRef@?$CComObject@VCOPOSLineDisplay@@@ATL@@WLE@AGKXZ 1000ac76 f i LineDisplay.obj
 0001:00009c90       ?AddRef@?$CComObjectCached@VCComClassFactory@ATL@@@ATL@@UAGKXZ 1000ac90 f i LineDisplay.obj
 0001:00009ce0       ?AddRef@CRegObject@ATL@@UAGKXZ 1000ace0 f i LineDisplay.obj
 0001:00009d30       ?AddReplacement@CRegObject@ATL@@UAGJPB_W0@Z 1000ad30 f i LineDisplay.obj
 0001:00009e40       ?AddString@CParseBuffer@CRegParser@ATL@@QAEHPB_W@Z 1000ae40 f i LineDisplay.obj
 0001:00009f30       ?AddTermFunc@CAtlModule@ATL@@QAEJP6GXK@ZK@Z 1000af30 f i LineDisplay.obj
 0001:00009f80       ?AddValue@CRegParser@ATL@@IAEJAAVCRegKey@2@PB_WPA_W@Z 1000af80 f i LineDisplay.obj
 0001:0000a710       ?Advise@?$CProxy_IOPOSEvents@VCOPOSLineDisplay@@@@UAGJPAUIUnknown@@PAK@Z 1000b710 f i LineDisplay.obj
 0001:0000a760       ?Advise@?$IConnectionPointImpl@VCOPOSLineDisplay@@$1?DIID__IOPOSLineDisplayEvents@@3U_GUID@@BVCComDynamicUnkArray@ATL@@@ATL@@UAGJPAUIUnknown@@PAK@Z 1000b760 f i LineDisplay.obj
 0001:0000a900       ?Advise@?$IConnectionPointImpl@VCOPOSLineDisplay@@$1?IID_IPropertyNotifySink@@3U_GUID@@BVCComDynamicUnkArray@ATL@@@ATL@@UAGJPAUIUnknown@@PAK@Z 1000b900 f i LineDisplay.obj
 0001:0000aaa0       ?Advise@?$IOleObjectImpl@VCOPOSLineDisplay@@@ATL@@UAGJPAUIAdviseSink@@PAK@Z 1000baa0 f i LineDisplay.obj
 0001:0000ab30       ?Allocate@?$CAtlSafeAllocBufferManager@VCCRTAllocator@ATL@@@_ATL_SAFE_ALLOCA_IMPL@ATL@@QAEPAXK@Z 1000bb30 f i LineDisplay.obj
 0001:0000aba0       ?Allocate@?$CTempBuffer@E$0BAA@VCCRTAllocator@ATL@@@ATL@@QAEPAEI@Z 1000bba0 f i LineDisplay.obj
 0001:0000abe0       ?Allocate@?$CTempBuffer@_W$0BAA@VCCRTAllocator@ATL@@@ATL@@QAEPA_WI@Z 1000bbe0 f i LineDisplay.obj
 0001:0000ac20       ?Allocate@?$CTempBuffer@_W$0EAA@VCCRTAllocator@ATL@@@ATL@@QAEPA_WI@Z 1000bc20 f i LineDisplay.obj
 0001:0000ac60       ?AllocateBytes@?$CTempBuffer@E$0BAA@VCCRTAllocator@ATL@@@ATL@@QAEPAEI@Z 1000bc60 f i LineDisplay.obj
 0001:0000ace0       ?AllocateBytes@?$CTempBuffer@_W$0BAA@VCCRTAllocator@ATL@@@ATL@@QAEPA_WI@Z 1000bce0 f i LineDisplay.obj
 0001:0000ad60       ?AllocateBytes@?$CTempBuffer@_W$0EAA@VCCRTAllocator@ATL@@@ATL@@QAEPA_WI@Z 1000bd60 f i LineDisplay.obj
 0001:0000ade0       ?AllocateHeap@?$CTempBuffer@E$0BAA@VCCRTAllocator@ATL@@@ATL@@AAEXI@Z 1000bde0 f i LineDisplay.obj
 0001:0000ae30       ?AllocateHeap@?$CTempBuffer@_W$0BAA@VCCRTAllocator@ATL@@@ATL@@AAEXI@Z 1000be30 f i LineDisplay.obj
 0001:0000ae80       ?AllocateHeap@?$CTempBuffer@_W$0EAA@VCCRTAllocator@ATL@@@ATL@@AAEXI@Z 1000be80 f i LineDisplay.obj
 0001:0000aed0       ?Append@CParseBuffer@CRegParser@ATL@@QAEHPB_WH@Z 1000bed0 f i LineDisplay.obj
 0001:0000b070       ?AtlCallTermFunc@ATL@@YGXPAU_ATL_MODULE70@1@@Z 1000c070 f i LineDisplay.obj
 0001:0000b110       ?AtlCoTaskMemCAlloc@ATL@@YAPAXKK@Z 1000c110 f i LineDisplay.obj
 0001:0000b1a0       ?AtlCoTaskMemRecalloc@ATL@@YAPAXPAXKK@Z 1000c1a0 f i LineDisplay.obj
 0001:0000b240       ?AtlComModuleGetClassObject@ATL@@YGJPAU_ATL_COM_MODULE70@1@ABU_GUID@@1PAPAX@Z 1000c240 f i LineDisplay.obj
 0001:0000b4d0       ?AtlComModuleRegisterServer@ATL@@YGJPAU_ATL_COM_MODULE70@1@HPBU_GUID@@@Z 1000c4d0 f i LineDisplay.obj
 0001:0000b660       ?AtlComModuleUnregisterServer@ATL@@YGJPAU_ATL_COM_MODULE70@1@HPBU_GUID@@@Z 1000c660 f i LineDisplay.obj
 0001:0000b790       ?AtlComQIPtrAssign2@ATL@@YAXPAPAUIUnknown@@PAU2@ABU_GUID@@@Z 1000c790 f i LineDisplay.obj
 0001:0000b810       ?AtlCreateTargetDC@ATL@@YGPAUHDC__@@PAU2@PAUtagDVTARGETDEVICE@@@Z 1000c810 f i LineDisplay.obj
 0001:0000b9b0       ?AtlCrtErrorCheck@ATL@@YAHH@Z 1000c9b0 f i LineDisplay.obj
 0001:0000ba80       ?AtlGetPerUserRegistration@ATL@@YGJPA_N@Z 1000ca80 f i LineDisplay.obj
 0001:0000bab0       ?AtlHiMetricToPixel@ATL@@YGXPBUtagSIZE@@PAU2@@Z 1000cab0 f i LineDisplay.obj
 0001:0000bc80       ?AtlHresultFromLastError@ATL@@YAJXZ 1000cc80 f i LineDisplay.obj
 0001:0000bcc0       ?AtlHresultFromWin32@ATL@@YAJK@Z 1000ccc0 f i LineDisplay.obj
 0001:0000bce0       ?AtlIPersistStreamInit_Load@ATL@@YGJPAUIStream@@PBUATL_PROPMAP_ENTRY@1@PAXPAUIUnknown@@@Z 1000cce0 f i LineDisplay.obj
 0001:0000c140       ?AtlIPersistStreamInit_Save@ATL@@YGJPAUIStream@@HPBUATL_PROPMAP_ENTRY@1@PAXPAUIUnknown@@@Z 1000d140 f i LineDisplay.obj
 0001:0000c520       ?AtlInternalOleLoadFromStream@ATL@@YAJPAUIStream@@ABU_GUID@@PAPAXTClassesAllowedInStream@1@K@Z 1000d520 f i LineDisplay.obj
 0001:0000c7c0       ?AtlInternalQueryInterface@ATL@@YGJPAXPBU_ATL_INTMAP_ENTRY@1@ABU_GUID@@PAPAX@Z 1000d7c0 f i LineDisplay.obj
 0001:0000c9f0       ?AtlLoadTypeLib@ATL@@YGJPAUHINSTANCE__@@PB_WPAPA_WPAPAUITypeLib@@@Z 1000d9f0 f i LineDisplay.obj
 0001:0000ce50       ?AtlModuleAddTermFunc@ATL@@YGJPAU_ATL_MODULE70@1@P6GXK@ZK@Z 1000de50 f i LineDisplay.obj
 0001:0000cfb0       ?AtlRegisterClassCategoriesHelper@ATL@@YGJABU_GUID@@PBU_ATL_CATMAP_ENTRY@1@H@Z 1000dfb0 f i LineDisplay.obj
 0001:0000d690       ?AtlRegisterTypeLib@ATL@@YGJPAUHINSTANCE__@@PB_W@Z 1000e690 f i LineDisplay.obj
 0001:0000d9d0       ?AtlThrowImpl@ATL@@YGXJ@Z  1000e9d0 f i LineDisplay.obj
 0001:0000da80       ?AtlUnRegisterTypeLib@ATL@@YGJPAUHINSTANCE__@@PB_W@Z 1000ea80 f i LineDisplay.obj
 0001:0000dc90       ?AtlWinModuleAddCreateWndData@ATL@@YGXPAU_ATL_WIN_MODULE70@1@PAU_AtlCreateWndData@1@PAX@Z 1000ec90 f i LineDisplay.obj
 0001:0000de00       ?AtlWinModuleExtractCreateWndData@ATL@@YGPAXPAU_ATL_WIN_MODULE70@1@@Z 1000ee00 f i LineDisplay.obj
 0001:0000df80       ?AtlWinModuleRegisterClassExW@ATL@@YGGPAU_ATL_WIN_MODULE70@1@PBUtagWNDCLASSEXW@@@Z 1000ef80 f i LineDisplay.obj
 0001:0000e050       ?AtlWinModuleRegisterWndClassInfoW@ATL@@YGGPAU_ATL_WIN_MODULE70@1@PAU_ATL_BASE_MODULE70@1@PAU_ATL_WNDCLASSINFOW@1@PAP6GJPAUHWND__@@IIJ@Z@Z 1000f050 f i LineDisplay.obj
 0001:0000e0e0       ?Attach@?$CAutoVectorPtr@_W@ATL@@QAEXPA_W@Z 1000f0e0 f i LineDisplay.obj
 0001:0000e140       ?Attach@CComBSTR@ATL@@QAEXPA_W@Z 1000f140 f i LineDisplay.obj
 0001:0000e190       ?Attach@CRegKey@ATL@@QAEXPAUHKEY__@@@Z 1000f190 f i LineDisplay.obj
 0001:0000e200       ?CanForceRemoveKey@CRegParser@ATL@@IAEHPB_W@Z 1000f200 f i LineDisplay.obj
 0001:0000e270       ?ChToByte@CRegParser@ATL@@KAE_W@Z 1000f270 f i LineDisplay.obj
 0001:0000e390       ?ChangeType@CComVariant@ATL@@QAEJGPBUtagVARIANT@@@Z 1000f390 f i LineDisplay.obj
 0001:0000e3f0       ?Cleanup@CComTypeInfoHolder@ATL@@SGXK@Z 1000f3f0 f i LineDisplay.obj
 0001:0000e4c0       ?Clear@CComVariant@ATL@@QAEJXZ 1000f4c0 f i LineDisplay.obj
 0001:0000e500       ?ClearReplacements@CExpansionVector@ATL@@QAEJXZ 1000f500 f i LineDisplay.obj
 0001:0000e590       ?ClearReplacements@CRegObject@ATL@@UAGJXZ 1000f590 f i LineDisplay.obj
 0001:0000e5e0       ?Clone@?$CComEnumImpl@UIEnumConnectionPoints@@$1?_GUID_b196b285_bab4_101a_b69c_00aa00341d07@@3U__s_GUID@@BPAUIConnectionPoint@@V?$_CopyInterface@UIConnectionPoint@@@ATL@@@ATL@@UAGJPAPAUIEnumConnectionPoints@@@Z 1000f5e0 f i LineDisplay.obj
 0001:0000e750       ?Clone@?$CComEnumImpl@UIEnumConnections@@$1?_GUID_b196b287_bab4_101a_b69c_00aa00341d07@@3U__s_GUID@@BUtagCONNECTDATA@@V?$_Copy@UtagCONNECTDATA@@@ATL@@@ATL@@UAGJPAPAUIEnumConnections@@@Z 1000f750 f i LineDisplay.obj
 0001:0000e8c0       ?Close@?$IOleObjectImpl@VCOPOSLineDisplay@@@ATL@@UAGJK@Z 1000f8c0 f i LineDisplay.obj
 0001:0000e950       ?Close@CRegKey@ATL@@QAEJXZ 1000f950 f i LineDisplay.obj
 0001:0000e9c0       ?ContextSensitiveHelp@?$IOleInPlaceActiveObjectImpl@VCOPOSLineDisplay@@@ATL@@UAGJH@Z 1000f9c0 f i LineDisplay.obj
 0001:0000ea30       ?ContextSensitiveHelp@?$IOleInPlaceObjectWindowlessImpl@VCOPOSLineDisplay@@@ATL@@UAGJH@Z 1000fa30 f i LineDisplay.obj
 0001:0000eaa0       ?ControlQueryInterface@?$CComControl@VCOPOSLineDisplay@@V?$CWindowImpl@VCOPOSLineDisplay@@VCWindow@ATL@@V?$CWinTraits@$0FGAAAAAA@$0A@@3@@ATL@@@ATL@@UAEJABU_GUID@@PAPAX@Z 1000faa0 f i LineDisplay.obj
 0001:0000eb20       ?CreateControlWindow@?$CComControl@VCOPOSLineDisplay@@V?$CWindowImpl@VCOPOSLineDisplay@@VCWindow@ATL@@V?$CWinTraits@$0FGAAAAAA@$0A@@3@@ATL@@@ATL@@UAEPAUHWND__@@PAU3@AAUtagRECT@@@Z 1000fb20 f i LineDisplay.obj
 0001:0000eba0       ?CreateInstance@?$CComCreator@V?$CComAggObject@VCOPOSLineDisplay@@@ATL@@@ATL@@SGJPAXABU_GUID@@PAPAX@Z 1000fba0 f i LineDisplay.obj
 0001:0000ed20       ?CreateInstance@?$CComCreator@V?$CComObject@VCOPOSLineDisplay@@@ATL@@@ATL@@SGJPAXABU_GUID@@PAPAX@Z 1000fd20 f i LineDisplay.obj
 0001:0000eeb0       ?CreateInstance@?$CComObject@V?$CComEnum@UIEnumConnectionPoints@@$1?_GUID_b196b285_bab4_101a_b69c_00aa00341d07@@3U__s_GUID@@BPAUIConnectionPoint@@V?$_CopyInterface@UIConnectionPoint@@@ATL@@VCComSingleThreadModel@6@@ATL@@@ATL@@SGJPAPAV12@@Z 1000feb0 f i LineDisplay.obj
 0001:0000f020       ?CreateInstance@?$CComObject@V?$CComEnum@UIEnumConnections@@$1?_GUID_b196b287_bab4_101a_b69c_00aa00341d07@@3U__s_GUID@@BUtagCONNECTDATA@@V?$_Copy@UtagCONNECTDATA@@@ATL@@VCComSingleThreadModel@6@@ATL@@@ATL@@SGJPAPAV12@@Z 10010020 f i LineDisplay.obj
 0001:0000f190       ?CreateInstance@CComClassFactory@ATL@@UAGJPAUIUnknown@@ABU_GUID@@PAPAX@Z 10010190 f i LineDisplay.obj
 0001:0000f280       ?DAdvise@?$IDataObjectImpl@VCOPOSLineDisplay@@@ATL@@UAGJPAUtagFORMATETC@@KPAUIAdviseSink@@PAK@Z 10010280 f i LineDisplay.obj
 0001:0000f380       ?DEVMODEOLE2T_EX@@YAPAU_devicemodeW@@PAU1@@Z 10010380 f i LineDisplay.obj
 0001:0000f390       ?DUnadvise@?$IDataObjectImpl@VCOPOSLineDisplay@@@ATL@@UAGJK@Z 10010390 f i LineDisplay.obj
 0001:0000f460       ?Decrement@CComMultiThreadModel@ATL@@SGKPAJ@Z 10010460 f i LineDisplay.obj
 0001:0000f480       ?Decrement@CComSingleThreadModel@ATL@@SGKPAJ@Z 10010480 f i LineDisplay.obj
 0001:0000f4a0       ?DefWindowProcW@?$CWindowImplBaseT@VCWindow@ATL@@V?$CWinTraits@$0FGAAAAAA@$0A@@2@@ATL@@QAEJIIJ@Z 100104a0 f i LineDisplay.obj
 0001:0000f4f0       ?DefaultReflectionHandler@?$CWindowImplRoot@VCWindow@ATL@@@ATL@@SAHPAUHWND__@@IIJAAJ@Z 100104f0 f i LineDisplay.obj
 0001:0000f6e0       ?DeleteSubKey@CRegKey@ATL@@QAEJPB_W@Z 100106e0 f i LineDisplay.obj
 0001:0000f7f0       ?DeleteValue@CRegKey@ATL@@QAEJPB_W@Z 100107f0 f i LineDisplay.obj
 0001:0000f860       ?Detach@?$CAutoVectorPtr@_W@ATL@@QAEPA_WXZ 10010860 f i LineDisplay.obj
 0001:0000f890       ?Detach@?$CComPtrBase@UIPersistStream@@@ATL@@QAEPAUIPersistStream@@XZ 10010890 f i LineDisplay.obj
 0001:0000f8c0       ?Detach@?$CComPtrBase@UITypeInfo@@@ATL@@QAEPAUITypeInfo@@XZ 100108c0 f i LineDisplay.obj
 0001:0000f8f0       ?Detach@?$CComPtrBase@UIUnknown@@@ATL@@QAEPAUIUnknown@@XZ 100108f0 f i LineDisplay.obj
 0001:0000f920       ?Detach@CComBSTR@ATL@@QAEPA_WXZ 10010920 f i LineDisplay.obj
 0001:0000f950       ?Detach@CParseBuffer@CRegParser@ATL@@QAEPA_WXZ 10010950 f i LineDisplay.obj
 0001:0000f9a0       ?Detach@CRegKey@ATL@@QAEPAUHKEY__@@XZ 100109a0 f i LineDisplay.obj
 0001:0000f9f0       ?DoEvent@COPOSLineDisplay@@IAEXIIJ@Z 100109f0 f i LineDisplay.obj
 0001:0000fb30       ?DoVerb@?$IOleObjectImpl@VCOPOSLineDisplay@@@ATL@@UAGJJPAUtagMSG@@PAUIOleClientSite@@JPAUHWND__@@PBUtagRECT@@@Z 10010b30 f i LineDisplay.obj
 0001:0000fd40       ?DoVerbDiscardUndo@?$IOleObjectImpl@VCOPOSLineDisplay@@@ATL@@QAEJPBUtagRECT@@PAUHWND__@@@Z 10010d40 f i LineDisplay.obj
 0001:0000fdb0       ?DoVerbHide@?$IOleObjectImpl@VCOPOSLineDisplay@@@ATL@@QAEJPBUtagRECT@@PAUHWND__@@@Z 10010db0 f i LineDisplay.obj
 0001:0000fe60       ?DoVerbInPlaceActivate@?$IOleObjectImpl@VCOPOSLineDisplay@@@ATL@@QAEJPBUtagRECT@@PAUHWND__@@@Z 10010e60 f i LineDisplay.obj
 0001:0000ff00       ?DoVerbOpen@?$IOleObjectImpl@VCOPOSLineDisplay@@@ATL@@QAEJPBUtagRECT@@PAUHWND__@@@Z 10010f00 f i LineDisplay.obj
 0001:0000ff70       ?DoVerbPrimary@?$IOleObjectImpl@VCOPOSLineDisplay@@@ATL@@QAEJPBUtagRECT@@PAUHWND__@@@Z 10010f70 f i LineDisplay.obj
 0001:00010080       ?DoVerbProperties@CComControlBase@ATL@@QAEJPBUtagRECT@@PAUHWND__@@@Z 10011080 f i LineDisplay.obj
 0001:000103a0       ?DoVerbShow@?$IOleObjectImpl@VCOPOSLineDisplay@@@ATL@@QAEJPBUtagRECT@@PAUHWND__@@@Z 100113a0 f i LineDisplay.obj
 0001:00010430       ?DoVerbUIActivate@?$IOleObjectImpl@VCOPOSLineDisplay@@@ATL@@QAEJPBUtagRECT@@PAUHWND__@@@Z 10011430 f i LineDisplay.obj
 0001:000104d0       ?DoesVerbActivate@CComControlBase@ATL@@QAEHJ@Z 100114d0 f i LineDisplay.obj
 0001:00010540       ?DoesVerbUIActivate@CComControlBase@ATL@@QAEHJ@Z 10011540 f i LineDisplay.obj
 0001:000105c0       ?Draw@?$IViewObjectExImpl@VCOPOSLineDisplay@@@ATL@@UAGJKJPAXPAUtagDVTARGETDEVICE@@PAUHDC__@@2PBU_RECTL@@3P6GHK@ZK@Z 100115c0 f i LineDisplay.obj
 0001:00010660       ?Empty@CComBSTR@ATL@@QAEXXZ 10011660 f i LineDisplay.obj
 0001:000106a0       ?EnableModeless@?$IOleInPlaceActiveObjectImpl@VCOPOSLineDisplay@@@ATL@@UAGJH@Z 100116a0 f i LineDisplay.obj
 0001:00010700       ?EndOfVar@CRegParser@ATL@@IAEHXZ 10011700 f i LineDisplay.obj
 0001:00010770       ?EnsureTI@CComTypeInfoHolder@ATL@@QAEJK@Z 10011770 f i LineDisplay.obj
 0001:000107d0       ?EnumAdvise@?$IOleObjectImpl@VCOPOSLineDisplay@@@ATL@@UAGJPAPAUIEnumSTATDATA@@@Z 100117d0 f i LineDisplay.obj
 0001:000108e0       ?EnumConnectionPoints@?$IConnectionPointContainerImpl@VCOPOSLineDisplay@@@ATL@@UAGJPAPAUIEnumConnectionPoints@@@Z 100118e0 f i LineDisplay.obj
 0001:00010d10       ?EnumConnections@?$IConnectionPointImpl@VCOPOSLineDisplay@@$1?DIID__IOPOSLineDisplayEvents@@3U_GUID@@BVCComDynamicUnkArray@ATL@@@ATL@@UAGJPAPAUIEnumConnections@@@Z 10011d10 f i LineDisplay.obj
 0001:00010f60       ?EnumConnections@?$IConnectionPointImpl@VCOPOSLineDisplay@@$1?IID_IPropertyNotifySink@@3U_GUID@@BVCComDynamicUnkArray@ATL@@@ATL@@UAGJPAPAUIEnumConnections@@@Z 10011f60 f i LineDisplay.obj
 0001:000111b0       ?EnumDAdvise@?$IDataObjectImpl@VCOPOSLineDisplay@@@ATL@@UAGJPAPAUIEnumSTATDATA@@@Z 100121b0 f i LineDisplay.obj
 0001:000112b0       ?EnumFormatEtc@?$IDataObjectImpl@VCOPOSLineDisplay@@@ATL@@UAGJKPAPAUIEnumFORMATETC@@@Z 100122b0 f i LineDisplay.obj
 0001:00011320       ?EnumVerbs@?$IOleObjectImpl@VCOPOSLineDisplay@@@ATL@@UAGJPAPAUIEnumOLEVERB@@@Z 10012320 f i LineDisplay.obj
 0001:000113d0       ?EscapeSingleQuote@CAtlModule@ATL@@SAXPA_WIPB_W@Z 100123d0 f i LineDisplay.obj
 0001:00011480       ?ExtractCreateWndData@CAtlWinModule@ATL@@QAEPAXXZ 10012480 f i LineDisplay.obj
 0001:000114b0       ?FAccessAllowed@?$IObjectSafetyImpl@VCOPOSLineDisplay@@$02@ATL@@MAEHXZ 100124b0 f i LineDisplay.obj
 0001:000114d0       ?FinalConstruct@?$CComAggObject@VCOPOSLineDisplay@@@ATL@@QAEJXZ 100124d0 f i LineDisplay.obj
 0001:00011510       ?FinalConstruct@CComObjectRootBase@ATL@@QAEJXZ 10012510 f i LineDisplay.obj
 0001:00011530       ?FinalConstruct@CRegObject@ATL@@QAEJXZ 10012530 f i LineDisplay.obj
 0001:00011560       ?FinalRelease@?$CComAggObject@VCOPOSLineDisplay@@@ATL@@QAEXXZ 10012560 f i LineDisplay.obj
 0001:000115a0       ?FinalRelease@CComObjectRootBase@ATL@@QAEXXZ 100125a0 f i LineDisplay.obj
 0001:000115c0       ?FindConnectionPoint@?$IConnectionPointContainerImpl@VCOPOSLineDisplay@@@ATL@@UAGJABU_GUID@@PAPAUIConnectionPoint@@@Z 100125c0 f i LineDisplay.obj
 0001:00011710       ?FindKey@?$CSimpleMap@PA_WPA_WVCExpansionVectorEqualHelper@ATL@@@ATL@@QBEHABQA_W@Z 10012710 f i LineDisplay.obj
 0001:00011780       ?FireTheEvent@?$CProxy_IOPOSEvents@VCOPOSLineDisplay@@@@IAEXPAUIUnknown@@PAVOposVariant@@IAAJPB_WJ@Z 10012780 f i LineDisplay.obj
 0001:000118f0       ?FireViewChange@CComControlBase@ATL@@QAEJXZ 100128f0 f i LineDisplay.obj
 0001:000119b0       ?Fire_DirectIOEvent@?$CProxy_IOPOSEvents@VCOPOSLineDisplay@@@@QAEXJPAJPAPA_W@Z 100129b0 f i LineDisplay.obj
 0001:00011b80       ?Fire_StatusUpdateEvent@?$CProxy_IOPOSEvents@VCOPOSLineDisplay@@@@QAEXJ@Z 10012b80 f i LineDisplay.obj
 0001:00011ce0       ?FormatWindowClassName@AtlModuleRegisterWndClassInfoParamW@ATL@@SAXPA_WKPAX@Z 10012ce0 f i LineDisplay.obj
 0001:00011d10       ?Free@?$CAutoVectorPtr@_W@ATL@@QAEXXZ 10012d10 f i LineDisplay.obj
 0001:00011d60       ?FreeHeap@?$CTempBuffer@E$0BAA@VCCRTAllocator@ATL@@@ATL@@AAEXXZ 10012d60 f i LineDisplay.obj
 0001:00011d90       ?FreeHeap@?$CTempBuffer@_W$0BAA@VCCRTAllocator@ATL@@@ATL@@AAEXXZ 10012d90 f i LineDisplay.obj
 0001:00011dc0       ?FreeHeap@?$CTempBuffer@_W$0EAA@VCCRTAllocator@ATL@@@ATL@@AAEXXZ 10012dc0 f i LineDisplay.obj
 0001:00011df0       ?Freeze@?$IViewObjectExImpl@VCOPOSLineDisplay@@@ATL@@UAGJKJPAXPAK@Z 10012df0 f i LineDisplay.obj
 0001:00011e60       ?GenerateError@CRegParser@ATL@@IAEJI@Z 10012e60 f i LineDisplay.obj
 0001:00011e80       ?GetAdvise@?$IViewObjectExImpl@VCOPOSLineDisplay@@@ATL@@UAGJPAK0PAPAUIAdviseSink@@@Z 10012e80 f i LineDisplay.obj
 0001:00011f80       ?GetAmbientLocaleID@CComControlBase@ATL@@QAEJAAK@Z 10012f80 f i LineDisplay.obj
 0001:00012060       ?GetAmbientProperty@CComControlBase@ATL@@QAEJJAAUtagVARIANT@@@Z 10013060 f i LineDisplay.obj
 0001:000120b0       ?GetAmbientUserMode@CComControlBase@ATL@@QAEJAAH@Z 100130b0 f i LineDisplay.obj
 0001:000121b0       ?GetAppId@?$CAtlModuleT@VCComModule@ATL@@@ATL@@SAPB_WXZ 100131b0 f i LineDisplay.obj
 0001:000121c0       ?GetAt@CComDynamicUnkArray@ATL@@QAEPAUIUnknown@@H@Z 100131c0 f i LineDisplay.obj
 0001:00012240       ?GetCanonicalFormatEtc@?$IDataObjectImpl@VCOPOSLineDisplay@@@ATL@@UAGJPAUtagFORMATETC@@0@Z 10013240 f i LineDisplay.obj
 0001:000122b0       ?GetClassID@?$IPersistStorageImpl@VCOPOSLineDisplay@@@ATL@@UAGJPAU_GUID@@@Z 100132b0 f i LineDisplay.obj
 0001:00012330       ?GetClassID@?$IPersistStreamInitImpl@VCOPOSLineDisplay@@@ATL@@UAGJPAU_GUID@@@Z 10013330 f i LineDisplay.obj
 0001:000123b0       ?GetClassInfoExW@AtlModuleRegisterWndClassInfoParamW@ATL@@SAHPAUHINSTANCE__@@PB_WPAUtagWNDCLASSEXW@@@Z 100133b0 f i LineDisplay.obj
 0001:000123e0       ?GetClassInfoW@?$IProvideClassInfo2Impl@$1?CLSID_OPOSLineDisplay@@3U_GUID@@B$1?DIID__IOPOSLineDisplayEvents@@3U2@B$1?LIBID_OposLineDisplay_CCO@@3U2@B$00$0A@VCComTypeInfoHolder@ATL@@@ATL@@UAGJPAPAUITypeInfo@@@Z 100133e0 f i LineDisplay.obj
 0001:00012400       ?GetClassObject@CComModule@ATL@@QAEJABU_GUID@@0PAPAX@Z 10013400 f i LineDisplay.obj
 0001:00012600       ?GetClientSite@?$IOleObjectImpl@VCOPOSLineDisplay@@@ATL@@UAGJPAPAUIOleClientSite@@@Z 10013600 f i LineDisplay.obj
 0001:00012690       ?GetClipboardData@?$IOleObjectImpl@VCOPOSLineDisplay@@@ATL@@UAGJKPAPAUIDataObject@@@Z 10013690 f i LineDisplay.obj
 0001:00012700       ?GetCodeAddress@CDynamicStdCallThunk2@ATL@@QAEPAXXZ 10013700 f i LineDisplay.obj
 0001:00012730       ?GetColorSet@?$IViewObjectExImpl@VCOPOSLineDisplay@@@ATL@@UAGJKJPAXPAUtagDVTARGETDEVICE@@PAUHDC__@@PAPAUtagLOGPALETTE@@@Z 10013730 f i LineDisplay.obj
 0001:000127a0       ?GetConnMap@COPOSLineDisplay@@SAPBU_ATL_CONNMAP_ENTRY@ATL@@PAH@Z 100137a0 f i LineDisplay.obj
 0001:000128e0       ?GetConnectionInterface@?$IConnectionPointImpl@VCOPOSLineDisplay@@$1?DIID__IOPOSLineDisplayEvents@@3U_GUID@@BVCComDynamicUnkArray@ATL@@@ATL@@UAGJPAU_GUID@@@Z 100138e0 f i LineDisplay.obj
 0001:00012920       ?GetConnectionInterface@?$IConnectionPointImpl@VCOPOSLineDisplay@@$1?IID_IPropertyNotifySink@@3U_GUID@@BVCComDynamicUnkArray@ATL@@@ATL@@UAGJPAU_GUID@@@Z 10013920 f i LineDisplay.obj
 0001:00012960       ?GetConnectionPointContainer@?$IConnectionPointImpl@VCOPOSLineDisplay@@$1?DIID__IOPOSLineDisplayEvents@@3U_GUID@@BVCComDynamicUnkArray@ATL@@@ATL@@UAGJPAPAUIConnectionPointContainer@@@Z 10013960 f i LineDisplay.obj
 0001:000129d0       ?GetConnectionPointContainer@?$IConnectionPointImpl@VCOPOSLineDisplay@@$1?IID_IPropertyNotifySink@@3U_GUID@@BVCComDynamicUnkArray@ATL@@@ATL@@UAGJPAPAUIConnectionPointContainer@@@Z 100139d0 f i LineDisplay.obj
 0001:00012a40       ?GetContentExtent@?$IQuickActivateImpl@VCOPOSLineDisplay@@@ATL@@UAGJPAUtagSIZE@@@Z 10013a40 f i LineDisplay.obj
 0001:00012ad0       ?GetControlInfo@?$IOleControlImpl@VCOPOSLineDisplay@@@ATL@@UAGJPAUtagCONTROLINFO@@@Z 10013ad0 f i LineDisplay.obj
 0001:00012b40       ?GetCookie@CComDynamicUnkArray@ATL@@QAGKPAPAUIUnknown@@@Z 10013b40 f i LineDisplay.obj
 0001:00012c00       ?GetData@?$IDataObjectImpl@VCOPOSLineDisplay@@@ATL@@UAGJPAUtagFORMATETC@@PAUtagSTGMEDIUM@@@Z 10013c00 f i LineDisplay.obj
 0001:00012c90       ?GetData@CAtlSafeAllocBufferNode@?$CAtlSafeAllocBufferManager@VCCRTAllocator@ATL@@@_ATL_SAFE_ALLOCA_IMPL@ATL@@QAEPAXXZ 10013c90 f i LineDisplay.obj
 0001:00012cb0       ?GetDataHere@?$IDataObjectImpl@VCOPOSLineDisplay@@@ATL@@UAGJPAUtagFORMATETC@@PAUtagSTGMEDIUM@@@Z 10013cb0 f i LineDisplay.obj
 0001:00012d20       ?GetDropTarget@?$IOleInPlaceObjectWindowlessImpl@VCOPOSLineDisplay@@@ATL@@UAGJPAPAUIDropTarget@@@Z 10013d20 f i LineDisplay.obj
 0001:00012d90       ?GetExtent@?$IOleObjectImpl@VCOPOSLineDisplay@@@ATL@@UAGJKPAUtagSIZE@@@Z 10013d90 f i LineDisplay.obj
 0001:00012e30       ?GetExtent@?$IViewObjectExImpl@VCOPOSLineDisplay@@@ATL@@UAGJKJPAUtagDVTARGETDEVICE@@PAUtagSIZE@@@Z 10013e30 f i LineDisplay.obj
 0001:00012f00       ?GetGITPtr@CAtlModule@ATL@@UAEJPAPAUIGlobalInterfaceTable@@@Z 10013f00 f i LineDisplay.obj
 0001:00013000       ?GetGUID@?$IProvideClassInfo2Impl@$1?CLSID_OPOSLineDisplay@@3U_GUID@@B$1?DIID__IOPOSLineDisplayEvents@@3U2@B$1?LIBID_OposLineDisplay_CCO@@3U2@B$00$0A@VCComTypeInfoHolder@ATL@@@ATL@@UAGJKPAU_GUID@@@Z 10014000 f i LineDisplay.obj
 0001:00013080       ?GetIDsOfNames@?$IDispatchImpl@UIOPOSLineDisplay@@$1?IID_IOPOSLineDisplay@@3U_GUID@@B$1?LIBID_OposLineDisplay_CCO@@3U3@B$00$0A@VCComTypeInfoHolder@ATL@@@ATL@@UAGJABU_GUID@@PAPA_WIKPAJ@Z 10014080 f i LineDisplay.obj
 0001:000130b0       ?GetIDsOfNames@CComTypeInfoHolder@ATL@@QAEJABU_GUID@@PAPA_WIKPAJ@Z 100140b0 f i LineDisplay.obj
 0001:00013260       ?GetInterfaceSafetyOptions@?$IObjectSafetyImpl@VCOPOSLineDisplay@@$02@ATL@@UAGJABU_GUID@@PAK1@Z 10014260 f i LineDisplay.obj
 0001:000133d0       ?GetKeyAt@?$CSimpleMap@PA_WPA_WVCExpansionVectorEqualHelper@ATL@@@ATL@@QBEAAPA_WH@Z 100143d0 f i LineDisplay.obj
 0001:00013450       ?GetLockCount@CAtlModule@ATL@@UAEJXZ 10014450 f i LineDisplay.obj
 0001:00013470       ?GetMiscStatus@?$IOleObjectImpl@VCOPOSLineDisplay@@@ATL@@UAGJKPAK@Z 10014470 f i LineDisplay.obj
 0001:000134e0       ?GetMoniker@?$IOleObjectImpl@VCOPOSLineDisplay@@@ATL@@UAGJKKPAPAUIMoniker@@@Z 100144e0 f i LineDisplay.obj
 0001:00013550       ?GetNaturalExtent@?$IViewObjectExImpl@VCOPOSLineDisplay@@@ATL@@UAGJKJPAUtagDVTARGETDEVICE@@PAUHDC__@@PAUtagExtentInfo@@PAUtagSIZE@@@Z 10014550 f i LineDisplay.obj
 0001:00013670       ?GetObjectCLSID@?$CComCoClass@VCOPOSLineDisplay@@$1?CLSID_OPOSLineDisplay@@3U_GUID@@B@ATL@@SGABU_GUID@@XZ 10014670 f i LineDisplay.obj
 0001:00013680       ?GetPages@?$ISpecifyPropertyPagesImpl@VCOPOSLineDisplay@@@ATL@@UAGJPAUtagCAUUID@@@Z 10014680 f i LineDisplay.obj
 0001:000136f0       ?GetPagesHelper@?$ISpecifyPropertyPagesImpl@VCOPOSLineDisplay@@@ATL@@IAEJPAUtagCAUUID@@PBUATL_PROPMAP_ENTRY@2@@Z 100146f0 f i LineDisplay.obj
 0001:000138f0       ?GetProperty@?$CComPtr@UIDispatch@@@ATL@@QAEJJPAUtagVARIANT@@@Z 100148f0 f i LineDisplay.obj
 0001:00013930       ?GetProperty@?$CComPtr@UIDispatch@@@ATL@@SAJPAUIDispatch@@JPAUtagVARIANT@@@Z 10014930 f i LineDisplay.obj
 0001:00013a90       ?GetPropertyMap@COPOSLineDisplay@@SAPBUATL_PROPMAP_ENTRY@ATL@@XZ 10014a90 f i LineDisplay.obj
 0001:00013aa0       ?GetRect@?$IViewObjectExImpl@VCOPOSLineDisplay@@@ATL@@UAGJKPAU_RECTL@@@Z 10014aa0 f i LineDisplay.obj
 0001:00013b10       ?GetSize@?$CSimpleMap@PA_WPA_WVCExpansionVectorEqualHelper@ATL@@@ATL@@QBEHXZ 10014b10 f i LineDisplay.obj
 0001:00013b30       ?GetSize@CComDynamicUnkArray@ATL@@QBEHXZ 10014b30 f i LineDisplay.obj
 0001:00013b50       ?GetSizeMax@?$IPersistStreamInitImpl@VCOPOSLineDisplay@@@ATL@@UAGJPAT_ULARGE_INTEGER@@@Z 10014b50 f i LineDisplay.obj
 0001:000140c0       ?GetSizeMax@CComVariant@ATL@@QBEJPAT_ULARGE_INTEGER@@@Z 100150c0 f i LineDisplay.obj
 0001:00014420       ?GetStreamSize@CComBSTR@ATL@@SAKPA_W@Z 10015420 f i LineDisplay.obj
 0001:00014470       ?GetTI@CComTypeInfoHolder@ATL@@QAEJK@Z 10015470 f i LineDisplay.obj
 0001:00014c80       ?GetTI@CComTypeInfoHolder@ATL@@QAEJKPAPAUITypeInfo@@@Z 10015c80 f i LineDisplay.obj
 0001:00014d40       ?GetTypeInfo@?$IDispatchImpl@UIOPOSLineDisplay@@$1?IID_IOPOSLineDisplay@@3U_GUID@@B$1?LIBID_OposLineDisplay_CCO@@3U3@B$00$0A@VCComTypeInfoHolder@ATL@@@ATL@@UAGJIKPAPAUITypeInfo@@@Z 10015d40 f i LineDisplay.obj
 0001:00014d70       ?GetTypeInfo@CComTypeInfoHolder@ATL@@QAEJIKPAPAUITypeInfo@@@Z 10015d70 f i LineDisplay.obj
 0001:00014db0       ?GetTypeInfoCount@?$IDispatchImpl@UIOPOSLineDisplay@@$1?IID_IOPOSLineDisplay@@3U_GUID@@B$1?LIBID_OposLineDisplay_CCO@@3U3@B$00$0A@VCComTypeInfoHolder@ATL@@@ATL@@UAGJPAI@Z 10015db0 f i LineDisplay.obj
 0001:00014dd0       ?GetUnknown@CComDynamicUnkArray@ATL@@QAGPAUIUnknown@@K@Z 10015dd0 f i LineDisplay.obj
 0001:00014e40       ?GetUnknown@COPOSLineDisplay@@QAEPAUIUnknown@@XZ 10015e40 f i LineDisplay.obj
 0001:00014e70       ?GetUserClassID@?$IOleObjectImpl@VCOPOSLineDisplay@@@ATL@@UAGJPAU_GUID@@@Z 10015e70 f i LineDisplay.obj
 0001:00014f20       ?GetUserType@?$IOleObjectImpl@VCOPOSLineDisplay@@@ATL@@UAGJKPAPA_W@Z 10015f20 f i LineDisplay.obj
 0001:00014f90       ?GetValueAt@?$CSimpleMap@PA_WPA_WVCExpansionVectorEqualHelper@ATL@@@ATL@@QBEAAPA_WH@Z 10015f90 f i LineDisplay.obj
 0001:00015010       ?GetViewStatus@?$IViewObjectExImpl@VCOPOSLineDisplay@@@ATL@@UAGJPAK@Z 10016010 f i LineDisplay.obj
 0001:000150d0       ?GetWNDPROC@CWndProcThunk@ATL@@QAEP6GJPAUHWND__@@IIJ@ZXZ 100160d0 f i LineDisplay.obj
 0001:00015100       ?GetWindow@?$IOleInPlaceActiveObjectImpl@VCOPOSLineDisplay@@@ATL@@UAGJPAPAUHWND__@@@Z 10016100 f i LineDisplay.obj
 0001:000151d0       ?GetWindow@?$IOleInPlaceObjectWindowlessImpl@VCOPOSLineDisplay@@@ATL@@UAGJPAPAUHWND__@@@Z 100161d0 f i LineDisplay.obj
 0001:000152a0       ?GetWindowLongPtrW@@YAJPAUHWND__@@H@Z 100162a0 f i LineDisplay.obj
 0001:000152d0       ?GetWindowProc@?$CWindowImplBaseT@VCWindow@ATL@@V?$CWinTraits@$0FGAAAAAA@$0A@@2@@ATL@@UAEP6GJPAUHWND__@@IIJ@ZXZ 100162d0 f i LineDisplay.obj
 0001:000152f0       ?GetWndCaption@?$CWindowImpl@VCOPOSLineDisplay@@VCWindow@ATL@@V?$CWinTraits@$0FGAAAAAA@$0A@@3@@ATL@@SAPB_WXZ 100162f0 f i LineDisplay.obj
 0001:00015300       ?GetWndClassInfo@?$CWindowImpl@VCOPOSLineDisplay@@VCWindow@ATL@@V?$CWinTraits@$0FGAAAAAA@$0A@@3@@ATL@@SAAAU_ATL_WNDCLASSINFOW@2@XZ 10016300 f i LineDisplay.obj
 0001:00015310       ?GetWndClassName@CWindow@ATL@@SAPB_WXZ 10016310 f i LineDisplay.obj
 0001:00015320       ?GetWndExStyle@?$CWinTraits@$0FGAAAAAA@$0A@@ATL@@SAKK@Z 10016320 f i LineDisplay.obj
 0001:00015350       ?GetWndExStyle@?$CWindowImplBaseT@VCWindow@ATL@@V?$CWinTraits@$0FGAAAAAA@$0A@@2@@ATL@@SAKK@Z 10016350 f i LineDisplay.obj
 0001:00015370       ?GetWndStyle@?$CWinTraits@$0FGAAAAAA@$0A@@ATL@@SAKK@Z 10016370 f i LineDisplay.obj
 0001:000153a0       ?GetWndStyle@?$CWindowImplBaseT@VCWindow@ATL@@V?$CWinTraits@$0FGAAAAAA@$0A@@2@@ATL@@SAKK@Z 100163a0 f i LineDisplay.obj
 0001:000153c0       ?GetZoomInfo@CComControlBase@ATL@@QAEXAAUATL_DRAWINFO@@@Z 100163c0 f i LineDisplay.obj
 0001:00015530       ?HKeyFromString@CRegParser@ATL@@KAPAUHKEY__@@PA_W@Z 10016530 f i LineDisplay.obj
 0001:000155a0       ?HandsOffStorage@?$IPersistStorageImpl@VCOPOSLineDisplay@@@ATL@@UAGJXZ 100165a0 f i LineDisplay.obj
 0001:00015600       ?HasSubKeys@CRegParser@ATL@@IAEHPAUHKEY__@@@Z 10016600 f i LineDisplay.obj
 0001:00015710       ?IDataObject_GetData@CComControlBase@ATL@@QAEJPAUtagFORMATETC@@PAUtagSTGMEDIUM@@@Z 10016710 f i LineDisplay.obj
 0001:00015b30       ?IOleInPlaceObject_InPlaceDeactivate@CComControlBase@ATL@@QAEJXZ 10016b30 f i LineDisplay.obj
 0001:00015d30       ?IOleInPlaceObject_SetObjectRects@CComControlBase@ATL@@QAEJPBUtagRECT@@0@Z 10016d30 f i LineDisplay.obj
 0001:00015ef0       ?IOleInPlaceObject_UIDeactivate@CComControlBase@ATL@@QAEJXZ 10016ef0 f i LineDisplay.obj
 0001:00016160       ?IOleObject_Advise@CComControlBase@ATL@@QAEJPAUIAdviseSink@@PAK@Z 10017160 f i LineDisplay.obj
 0001:00016210       ?IOleObject_Close@CComControlBase@ATL@@QAEJK@Z 10017210 f i LineDisplay.obj
 0001:000164c0       ?IOleObject_GetClientSite@CComControlBase@ATL@@QAEJPAPAUIOleClientSite@@@Z 100174c0 f i LineDisplay.obj
 0001:00016560       ?IOleObject_SetClientSite@CComControlBase@ATL@@QAEJPAUIOleClientSite@@@Z 10017560 f i LineDisplay.obj
 0001:00016630       ?IOleObject_SetExtent@CComControlBase@ATL@@QAEJKPAUtagSIZE@@@Z 10017630 f i LineDisplay.obj
 0001:00016770       ?IPSI_GetIPersistStreamInit@?$IPersistStorageImpl@VCOPOSLineDisplay@@@ATL@@AAEPAUIPersistStreamInit@@XZ 10017770 f i LineDisplay.obj
 0001:00016840       ?IPersistStreamInit_Load@?$IPersistStreamInitImpl@VCOPOSLineDisplay@@@ATL@@QAEJPAUIStream@@PBUATL_PROPMAP_ENTRY@2@@Z 10017840 f i LineDisplay.obj
 0001:000168c0       ?IPersistStreamInit_Save@?$IPersistStreamInitImpl@VCOPOSLineDisplay@@@ATL@@QAEJPAUIStream@@HPBUATL_PROPMAP_ENTRY@2@@Z 100178c0 f i LineDisplay.obj
 0001:00016950       ?IQuickActivate_QuickActivate@CComControlBase@ATL@@QAEJPAUtagQACONTAINER@@PAUtagQACONTROL@@@Z 10017950 f i LineDisplay.obj
 0001:00016fa0       ?IViewObject_Draw@CComControlBase@ATL@@QAEJKJPAXPAUtagDVTARGETDEVICE@@PAUHDC__@@2PBU_RECTL@@3@Z 10017fa0 f i LineDisplay.obj
 0001:00017240       ?InPlaceActivate@CComControlBase@ATL@@QAEJJPBUtagRECT@@@Z 10018240 f i LineDisplay.obj
 0001:00017bd0       ?InPlaceDeactivate@?$IOleInPlaceObjectWindowlessImpl@VCOPOSLineDisplay@@@ATL@@UAGJXZ 10018bd0 f i LineDisplay.obj
 0001:00017c50       ?Increment@CComMultiThreadModel@ATL@@SGKPAJ@Z 10018c50 f i LineDisplay.obj
 0001:00017c70       ?Increment@CComSingleThreadModel@ATL@@SGKPAJ@Z 10018c70 f i LineDisplay.obj
 0001:00017c90       ?Init@?$CComEnumImpl@UIEnumConnectionPoints@@$1?_GUID_b196b285_bab4_101a_b69c_00aa00341d07@@3U__s_GUID@@BPAUIConnectionPoint@@V?$_CopyInterface@UIConnectionPoint@@@ATL@@@ATL@@QAEJPAPAUIConnectionPoint@@0PAUIUnknown@@W4CComEnumFlags@2@@Z 10018c90 f i LineDisplay.obj
 0001:00017e70       ?Init@?$CComEnumImpl@UIEnumConnections@@$1?_GUID_b196b287_bab4_101a_b69c_00aa00341d07@@3U__s_GUID@@BUtagCONNECTDATA@@V?$_Copy@UtagCONNECTDATA@@@ATL@@@ATL@@QAEJPAUtagCONNECTDATA@@0PAUIUnknown@@W4CComEnumFlags@2@@Z 10018e70 f i LineDisplay.obj
 0001:00018050       ?Init@CComFakeCriticalSection@ATL@@QAEJXZ 10019050 f i LineDisplay.obj
 0001:00018070       ?Init@CComModule@ATL@@QAEJPAU_ATL_OBJMAP_ENTRY30@2@PAUHINSTANCE__@@PBU_GUID@@@Z 10019070 f i LineDisplay.obj
 0001:00018160       ?Init@CComSafeDeleteCriticalSection@ATL@@QAEJXZ 10019160 f i LineDisplay.obj
 0001:000181e0       ?Init@CDynamicStdCallThunk2@ATL@@QAEHKPAX@Z 100191e0 f i LineDisplay.obj
 0001:00018240       ?Init@CWndProcThunk@ATL@@QAEHP6GJPAUHWND__@@IIJ@ZPAX@Z 10019240 f i LineDisplay.obj
 0001:00018280       ?InitFromData@?$IOleObjectImpl@VCOPOSLineDisplay@@@ATL@@UAGJPAUIDataObject@@HK@Z 10019280 f i LineDisplay.obj
 0001:000182f0       ?InitLibId@?$CAtlModuleT@VCComModule@ATL@@@ATL@@SAXXZ 100192f0 f i LineDisplay.obj
 0001:00018300       ?InitNew@?$IPersistStorageImpl@VCOPOSLineDisplay@@@ATL@@UAGJPAUIStorage@@@Z 10019300 f i LineDisplay.obj
 0001:000183f0       ?InitNew@?$IPersistStreamInitImpl@VCOPOSLineDisplay@@@ATL@@UAGJXZ 100193f0 f i LineDisplay.obj
 0001:00018480       ?InlineIsEqualUnknown@ATL@@YGHABU_GUID@@@Z 10019480 f i LineDisplay.obj
 0001:000184f0       ?InternalAddRef@?$CComObjectRootEx@VCComMultiThreadModel@ATL@@@ATL@@QAEKXZ 100194f0 f i LineDisplay.obj
 0001:00018550       ?InternalAddRef@?$CComObjectRootEx@VCComSingleThreadModel@ATL@@@ATL@@QAEKXZ 10019550 f i LineDisplay.obj
 0001:000185b0       ?InternalFinalConstructAddRef@CComObjectRootBase@ATL@@QAEXXZ 100195b0 f i LineDisplay.obj
 0001:000185d0       ?InternalFinalConstructAddRef@COPOSLineDisplay@@QAEXXZ 100195d0 f i LineDisplay.obj
 0001:00018600       ?InternalFinalConstructRelease@CComObjectRootBase@ATL@@QAEXXZ 10019600 f i LineDisplay.obj
 0001:00018650       ?InternalFinalConstructRelease@COPOSLineDisplay@@QAEXXZ 10019650 f i LineDisplay.obj
 0001:00018680       ?InternalGetSite@CComControlBase@ATL@@QAEJABU_GUID@@PAPAX@Z 10019680 f i LineDisplay.obj
 0001:00018740       ?InternalQueryInterface@CComObjectRootBase@ATL@@SGJPAXPBU_ATL_INTMAP_ENTRY@2@ABU_GUID@@PAPAX@Z 10019740 f i LineDisplay.obj
 0001:00018800       ?InternalRelease@?$CComObjectRootEx@VCComMultiThreadModel@ATL@@@ATL@@QAEKXZ 10019800 f i LineDisplay.obj
 0001:00018870       ?InternalRelease@?$CComObjectRootEx@VCComSingleThreadModel@ATL@@@ATL@@QAEKXZ 10019870 f i LineDisplay.obj
 0001:000188e0       ?InternalSetAtIndex@?$CSimpleArray@GV?$CSimpleArrayEqualHelper@G@ATL@@@ATL@@QAEXHABG@Z 100198e0 f i LineDisplay.obj
 0001:00018950       ?InternalSetAtIndex@?$CSimpleMap@PA_WPA_WVCExpansionVectorEqualHelper@ATL@@@ATL@@QAEXHABQA_W0@Z 10019950 f i LineDisplay.obj
 0001:000189f0       ?Invoke@?$IDispatchImpl@UIOPOSLineDisplay@@$1?IID_IOPOSLineDisplay@@3U_GUID@@B$1?LIBID_OposLineDisplay_CCO@@3U3@B$00$0A@VCComTypeInfoHolder@ATL@@@ATL@@UAGJJABU_GUID@@KGPAUtagDISPPARAMS@@PAUtagVARIANT@@PAUtagEXCEPINFO@@PAI@Z 100199f0 f i LineDisplay.obj
 0001:00018a30       ?Invoke@CComTypeInfoHolder@ATL@@QAEJPAUIDispatch@@JABU_GUID@@KGPAUtagDISPPARAMS@@PAUtagVARIANT@@PAUtagEXCEPINFO@@PAI@Z 10019a30 f i LineDisplay.obj
 0001:00018ac0       ?IsDirty@?$IPersistStorageImpl@VCOPOSLineDisplay@@@ATL@@UAGJXZ 10019ac0 f i LineDisplay.obj
 0001:00018bb0       ?IsDirty@?$IPersistStreamInitImpl@VCOPOSLineDisplay@@@ATL@@UAGJXZ 10019bb0 f i LineDisplay.obj
 0001:00018c50       ?IsEqualKey@CExpansionVectorEqualHelper@ATL@@SA_NQA_W0@Z 10019c50 f i LineDisplay.obj
 0001:00018c80       ?IsEqualObject@?$CComPtrBase@UIOleClientSite@@@ATL@@QAE_NPAUIUnknown@@@Z 10019c80 f i LineDisplay.obj
 0001:00018db0       ?IsEqualObject@?$CComPtrBase@UITypeInfo@@@ATL@@QAE_NPAUIUnknown@@@Z 10019db0 f i LineDisplay.obj
 0001:00018ee0       ?IsSpace@CRegParser@ATL@@IAEH_W@Z 10019ee0 f i LineDisplay.obj
 0001:00018f50       ?IsUpToDate@?$IOleObjectImpl@VCOPOSLineDisplay@@@ATL@@UAGJXZ 10019f50 f i LineDisplay.obj
 0001:00018fb0       ?Length@CComBSTR@ATL@@QBEIXZ 10019fb0 f i LineDisplay.obj
 0001:00018ff0       ?Load@?$IPersistStorageImpl@VCOPOSLineDisplay@@@ATL@@UAGJPAUIStorage@@@Z 10019ff0 f i LineDisplay.obj
 0001:00019150       ?Load@?$IPersistStreamInitImpl@VCOPOSLineDisplay@@@ATL@@UAGJPAUIStream@@@Z 1001a150 f i LineDisplay.obj
 0001:000191e0       ?LoadCursorW@AtlModuleRegisterWndClassInfoParamW@ATL@@SAPAUHICON__@@PAUHINSTANCE__@@PB_W@Z 1001a1e0 f i LineDisplay.obj
 0001:00019210       ?LoadNameCache@CComTypeInfoHolder@ATL@@QAEJPAUITypeInfo@@@Z 1001a210 f i LineDisplay.obj
 0001:000194a0       ?Lock@?$CComCritSecLock@VCComCriticalSection@ATL@@@ATL@@QAEJXZ 1001a4a0 f i LineDisplay.obj
 0001:00019550       ?Lock@?$CComObjectRootEx@VCComSingleThreadModel@ATL@@@ATL@@QAEXXZ 1001a550 f i LineDisplay.obj
 0001:00019570       ?Lock@CAtlModule@ATL@@UAEJXZ 1001a570 f i LineDisplay.obj
 0001:000195a0       ?Lock@CComCriticalSection@ATL@@QAEJXZ 1001a5a0 f i LineDisplay.obj
 0001:000195e0       ?Lock@CComFakeCriticalSection@ATL@@QAEJXZ 1001a5e0 f i LineDisplay.obj
 0001:00019600       ?LockServer@CComClassFactory@ATL@@UAGJH@Z 1001a600 f i LineDisplay.obj
 0001:00019660       ?Lookup@?$CSimpleMap@PA_WPA_WVCExpansionVectorEqualHelper@ATL@@@ATL@@QBEPA_WABQA_W@Z 1001a660 f i LineDisplay.obj
 0001:000196b0       ?Next@?$CComEnumImpl@UIEnumConnectionPoints@@$1?_GUID_b196b285_bab4_101a_b69c_00aa00341d07@@3U__s_GUID@@BPAUIConnectionPoint@@V?$_CopyInterface@UIConnectionPoint@@@ATL@@@ATL@@UAGJKPAPAUIConnectionPoint@@PAK@Z 1001a6b0 f i LineDisplay.obj
 0001:00019820       ?Next@?$CComEnumImpl@UIEnumConnections@@$1?_GUID_b196b287_bab4_101a_b69c_00aa00341d07@@3U__s_GUID@@BUtagCONNECTDATA@@V?$_Copy@UtagCONNECTDATA@@@ATL@@@ATL@@UAGJKPAUtagCONNECTDATA@@PAK@Z 1001a820 f i LineDisplay.obj
 0001:00019990       ?NextToken@CRegParser@ATL@@IAEJPA_W@Z 1001a990 f i LineDisplay.obj
 0001:00019c30       ?OLE2CT_EX@@YAPB_WPB_WI@Z  1001ac30 f i LineDisplay.obj
 0001:00019c40       ?OLE2CT_EX_DEF@@YAPB_WPB_W@Z 1001ac40 f i LineDisplay.obj
 0001:00019c50       ?OLE2T_EX@@YAPA_WPA_WI@Z   1001ac50 f i LineDisplay.obj
 0001:00019c60       ?OnAmbientPropertyChange@?$IOleControlImpl@VCOPOSLineDisplay@@@ATL@@UAGJJ@Z 1001ac60 f i LineDisplay.obj
 0001:00019cf0       ?OnDocWindowActivate@?$IOleInPlaceActiveObjectImpl@VCOPOSLineDisplay@@@ATL@@UAGJH@Z 1001acf0 f i LineDisplay.obj
 0001:00019d80       ?OnDrawAdvanced@CComControlBase@ATL@@UAEJAAUATL_DRAWINFO@@@Z 1001ad80 f i LineDisplay.obj
 0001:00019fa0       ?OnFinalMessage@?$CWindowImplBaseT@VCWindow@ATL@@V?$CWinTraits@$0FGAAAAAA@$0A@@2@@ATL@@UAEXPAUHWND__@@@Z 1001afa0 f i LineDisplay.obj
 0001:00019fc0       ?OnFrameWindowActivate@?$IOleInPlaceActiveObjectImpl@VCOPOSLineDisplay@@@ATL@@UAGJH@Z 1001afc0 f i LineDisplay.obj
 0001:0001a020       ?OnKillFocus@CComControlBase@ATL@@QAEJIIJAAH@Z 1001b020 f i LineDisplay.obj
 0001:0001a120       ?OnMnemonic@?$IOleControlImpl@VCOPOSLineDisplay@@@ATL@@UAGJPAUtagMSG@@@Z 1001b120 f i LineDisplay.obj
 0001:0001a190       ?OnMouseActivate@CComControlBase@ATL@@QAEJIIJAAH@Z 1001b190 f i LineDisplay.obj
 0001:0001a2e0       ?OnPaint@CComControlBase@ATL@@QAEJIIJAAH@Z 1001b2e0 f i LineDisplay.obj
 0001:0001a460       ?OnPostVerbDiscardUndo@?$IOleObjectImpl@VCOPOSLineDisplay@@@ATL@@QAEJXZ 1001b460 f i LineDisplay.obj
 0001:0001a480       ?OnPostVerbHide@?$IOleObjectImpl@VCOPOSLineDisplay@@@ATL@@QAEJXZ 1001b480 f i LineDisplay.obj
 0001:0001a4a0       ?OnPostVerbInPlaceActivate@?$IOleObjectImpl@VCOPOSLineDisplay@@@ATL@@QAEJXZ 1001b4a0 f i LineDisplay.obj
 0001:0001a4c0       ?OnPostVerbOpen@?$IOleObjectImpl@VCOPOSLineDisplay@@@ATL@@QAEJXZ 1001b4c0 f i LineDisplay.obj
 0001:0001a4e0       ?OnPostVerbShow@?$IOleObjectImpl@VCOPOSLineDisplay@@@ATL@@QAEJXZ 1001b4e0 f i LineDisplay.obj
 0001:0001a500       ?OnPostVerbUIActivate@?$IOleObjectImpl@VCOPOSLineDisplay@@@ATL@@QAEJXZ 1001b500 f i LineDisplay.obj
 0001:0001a520       ?OnPreVerbDiscardUndo@?$IOleObjectImpl@VCOPOSLineDisplay@@@ATL@@QAEJXZ 1001b520 f i LineDisplay.obj
 0001:0001a540       ?OnPreVerbHide@?$IOleObjectImpl@VCOPOSLineDisplay@@@ATL@@QAEJXZ 1001b540 f i LineDisplay.obj
 0001:0001a560       ?OnPreVerbInPlaceActivate@?$IOleObjectImpl@VCOPOSLineDisplay@@@ATL@@QAEJXZ 1001b560 f i LineDisplay.obj
 0001:0001a580       ?OnPreVerbOpen@?$IOleObjectImpl@VCOPOSLineDisplay@@@ATL@@QAEJXZ 1001b580 f i LineDisplay.obj
 0001:0001a5a0       ?OnPreVerbShow@?$IOleObjectImpl@VCOPOSLineDisplay@@@ATL@@QAEJXZ 1001b5a0 f i LineDisplay.obj
 0001:0001a5c0       ?OnPreVerbUIActivate@?$IOleObjectImpl@VCOPOSLineDisplay@@@ATL@@QAEJXZ 1001b5c0 f i LineDisplay.obj
 0001:0001a5e0       ?OnSetFocus@CComControlBase@ATL@@QAEJIIJAAH@Z 1001b5e0 f i LineDisplay.obj
 0001:0001a770       ?OnWindowMessage@?$IOleInPlaceObjectWindowlessImpl@VCOPOSLineDisplay@@@ATL@@UAGJIIJPAJ@Z 1001b770 f i LineDisplay.obj
 0001:0001a8d0       ?Open@CRegKey@ATL@@QAEJPAUHKEY__@@PB_WK@Z 1001b8d0 f i LineDisplay.obj
 0001:0001aa20       ?OuterAddRef@CComObjectRootBase@ATL@@QAEKXZ 1001ba20 f i LineDisplay.obj
 0001:0001aa60       ?OuterQueryInterface@CComObjectRootBase@ATL@@QAEJABU_GUID@@PAPAX@Z 1001ba60 f i LineDisplay.obj
 0001:0001aab0       ?OuterRelease@CComObjectRootBase@ATL@@QAEKXZ 1001bab0 f i LineDisplay.obj
 0001:0001aaf0       ?PreProcessBuffer@CRegParser@ATL@@QAEJPA_WPAPA_W@Z 1001baf0 f i LineDisplay.obj
 0001:0001b030       ?PreTranslateAccelerator@CComControlBase@ATL@@QAEHPAUtagMSG@@AAJ@Z 1001c030 f i LineDisplay.obj
 0001:0001b050       ?ProcessWindowMessage@?$CComControl@VCOPOSLineDisplay@@V?$CWindowImpl@VCOPOSLineDisplay@@VCWindow@ATL@@V?$CWinTraits@$0FGAAAAAA@$0A@@3@@ATL@@@ATL@@UAEHPAUHWND__@@IIJAAJK@Z 1001c050 f i LineDisplay.obj
 0001:0001b220       ?ProcessWindowMessage@COPOSLineDisplay@@UAEHPAUHWND__@@IIJAAJK@Z 1001c220 f i LineDisplay.obj
 0001:0001b320       ?PutProperty@?$CComPtr@UIDispatch@@@ATL@@QAEJJPAUtagVARIANT@@@Z 1001c320 f i LineDisplay.obj
 0001:0001b360       ?PutProperty@?$CComPtr@UIDispatch@@@ATL@@SAJPAUIDispatch@@JPAUtagVARIANT@@@Z 1001c360 f i LineDisplay.obj
 0001:0001b550       ?QueryGetData@?$IDataObjectImpl@VCOPOSLineDisplay@@@ATL@@UAGJPAUtagFORMATETC@@@Z 1001c550 f i LineDisplay.obj
 0001:0001b5c0       ?QueryHitPoint@?$IViewObjectExImpl@VCOPOSLineDisplay@@@ATL@@UAGJKPBUtagRECT@@UtagPOINT@@JPAK@Z 1001c5c0 f i LineDisplay.obj
 0001:0001b6d0       ?QueryHitRect@?$IViewObjectExImpl@VCOPOSLineDisplay@@@ATL@@UAGJKPBUtagRECT@@0JPAK@Z 1001c6d0 f i LineDisplay.obj
 0001:0001b820       ?QueryInterface@?$CComAggObject@VCOPOSLineDisplay@@@ATL@@UAGJABU_GUID@@PAPAX@Z 1001c820 f i LineDisplay.obj
 0001:0001b8d0       ?QueryInterface@?$CComContainedObject@VCOPOSLineDisplay@@@ATL@@UAGJABU_GUID@@PAPAX@Z 1001c8d0 f i LineDisplay.obj
 0001:0001b8f4       ?QueryInterface@?$CComContainedObject@VCOPOSLineDisplay@@@ATL@@WHA@AGJABU_GUID@@PAPAX@Z 1001c8f4 f i LineDisplay.obj
 0001:0001b8fe       ?QueryInterface@?$CComContainedObject@VCOPOSLineDisplay@@@ATL@@WHE@AGJABU_GUID@@PAPAX@Z 1001c8fe f i LineDisplay.obj
 0001:0001b908       ?QueryInterface@?$CComContainedObject@VCOPOSLineDisplay@@@ATL@@WHI@AGJABU_GUID@@PAPAX@Z 1001c908 f i LineDisplay.obj
 0001:0001b912       ?QueryInterface@?$CComContainedObject@VCOPOSLineDisplay@@@ATL@@WHM@AGJABU_GUID@@PAPAX@Z 1001c912 f i LineDisplay.obj
 0001:0001b91c       ?QueryInterface@?$CComContainedObject@VCOPOSLineDisplay@@@ATL@@WIA@AGJABU_GUID@@PAPAX@Z 1001c91c f i LineDisplay.obj
 0001:0001b929       ?QueryInterface@?$CComContainedObject@VCOPOSLineDisplay@@@ATL@@WIE@AGJABU_GUID@@PAPAX@Z 1001c929 f i LineDisplay.obj
 0001:0001b936       ?QueryInterface@?$CComContainedObject@VCOPOSLineDisplay@@@ATL@@WII@AGJABU_GUID@@PAPAX@Z 1001c936 f i LineDisplay.obj
 0001:0001b943       ?QueryInterface@?$CComContainedObject@VCOPOSLineDisplay@@@ATL@@WIM@AGJABU_GUID@@PAPAX@Z 1001c943 f i LineDisplay.obj
 0001:0001b950       ?QueryInterface@?$CComContainedObject@VCOPOSLineDisplay@@@ATL@@WJA@AGJABU_GUID@@PAPAX@Z 1001c950 f i LineDisplay.obj
 0001:0001b95d       ?QueryInterface@?$CComContainedObject@VCOPOSLineDisplay@@@ATL@@WJE@AGJABU_GUID@@PAPAX@Z 1001c95d f i LineDisplay.obj
 0001:0001b96a       ?QueryInterface@?$CComContainedObject@VCOPOSLineDisplay@@@ATL@@WJI@AGJABU_GUID@@PAPAX@Z 1001c96a f i LineDisplay.obj
 0001:0001b977       ?QueryInterface@?$CComContainedObject@VCOPOSLineDisplay@@@ATL@@WJM@AGJABU_GUID@@PAPAX@Z 1001c977 f i LineDisplay.obj
 0001:0001b984       ?QueryInterface@?$CComContainedObject@VCOPOSLineDisplay@@@ATL@@WKA@AGJABU_GUID@@PAPAX@Z 1001c984 f i LineDisplay.obj
 0001:0001b9a0       ?QueryInterface@?$CComObject@V?$CComEnum@UIEnumConnectionPoints@@$1?_GUID_b196b285_bab4_101a_b69c_00aa00341d07@@3U__s_GUID@@BPAUIConnectionPoint@@V?$_CopyInterface@UIConnectionPoint@@@ATL@@VCComSingleThreadModel@6@@ATL@@@ATL@@UAGJABU_GUID@@PAPAX@Z 1001c9a0 f i LineDisplay.obj
 0001:0001b9c0       ?QueryInterface@?$CComObject@V?$CComEnum@UIEnumConnections@@$1?_GUID_b196b287_bab4_101a_b69c_00aa00341d07@@3U__s_GUID@@BUtagCONNECTDATA@@V?$_Copy@UtagCONNECTDATA@@@ATL@@VCComSingleThreadModel@6@@ATL@@@ATL@@UAGJABU_GUID@@PAPAX@Z 1001c9c0 f i LineDisplay.obj
 0001:0001b9e0       ?QueryInterface@?$CComObject@VCOPOSLineDisplay@@@ATL@@UAGJABU_GUID@@PAPAX@Z 1001c9e0 f i LineDisplay.obj
 0001:0001b9fe       ?QueryInterface@?$CComObject@VCOPOSLineDisplay@@@ATL@@WHA@AGJABU_GUID@@PAPAX@Z 1001c9fe f i LineDisplay.obj
 0001:0001ba08       ?QueryInterface@?$CComObject@VCOPOSLineDisplay@@@ATL@@WHE@AGJABU_GUID@@PAPAX@Z 1001ca08 f i LineDisplay.obj
 0001:0001ba12       ?QueryInterface@?$CComObject@VCOPOSLineDisplay@@@ATL@@WHI@AGJABU_GUID@@PAPAX@Z 1001ca12 f i LineDisplay.obj
 0001:0001ba1c       ?QueryInterface@?$CComObject@VCOPOSLineDisplay@@@ATL@@WHM@AGJABU_GUID@@PAPAX@Z 1001ca1c f i LineDisplay.obj
 0001:0001ba26       ?QueryInterface@?$CComObject@VCOPOSLineDisplay@@@ATL@@WIA@AGJABU_GUID@@PAPAX@Z 1001ca26 f i LineDisplay.obj
 0001:0001ba33       ?QueryInterface@?$CComObject@VCOPOSLineDisplay@@@ATL@@WIE@AGJABU_GUID@@PAPAX@Z 1001ca33 f i LineDisplay.obj
 0001:0001ba40       ?QueryInterface@?$CComObject@VCOPOSLineDisplay@@@ATL@@WII@AGJABU_GUID@@PAPAX@Z 1001ca40 f i LineDisplay.obj
 0001:0001ba4d       ?QueryInterface@?$CComObject@VCOPOSLineDisplay@@@ATL@@WIM@AGJABU_GUID@@PAPAX@Z 1001ca4d f i LineDisplay.obj
 0001:0001ba5a       ?QueryInterface@?$CComObject@VCOPOSLineDisplay@@@ATL@@WJA@AGJABU_GUID@@PAPAX@Z 1001ca5a f i LineDisplay.obj
 0001:0001ba67       ?QueryInterface@?$CComObject@VCOPOSLineDisplay@@@ATL@@WJE@AGJABU_GUID@@PAPAX@Z 1001ca67 f i LineDisplay.obj
 0001:0001ba74       ?QueryInterface@?$CComObject@VCOPOSLineDisplay@@@ATL@@WJI@AGJABU_GUID@@PAPAX@Z 1001ca74 f i LineDisplay.obj
 0001:0001ba81       ?QueryInterface@?$CComObject@VCOPOSLineDisplay@@@ATL@@WJM@AGJABU_GUID@@PAPAX@Z 1001ca81 f i LineDisplay.obj
 0001:0001ba8e       ?QueryInterface@?$CComObject@VCOPOSLineDisplay@@@ATL@@WKA@AGJABU_GUID@@PAPAX@Z 1001ca8e f i LineDisplay.obj
 0001:0001baa0       ?QueryInterface@?$CComObjectCached@VCComClassFactory@ATL@@@ATL@@UAGJABU_GUID@@PAPAX@Z 1001caa0 f i LineDisplay.obj
 0001:0001bac0       ?QueryInterface@CRegObject@ATL@@UAGJABU_GUID@@PAPAX@Z 1001cac0 f i LineDisplay.obj
 0001:0001bb10       ?QuickActivate@?$IQuickActivateImpl@VCOPOSLineDisplay@@@ATL@@UAGJPAUtagQACONTAINER@@PAUtagQACONTROL@@@Z 1001cb10 f i LineDisplay.obj
 0001:0001bba0       ?ReactivateAndUndo@?$IOleInPlaceObjectWindowlessImpl@VCOPOSLineDisplay@@@ATL@@UAGJXZ 1001cba0 f i LineDisplay.obj
 0001:0001bc10       ?ReadFromStream@CComBSTR@ATL@@QAEJPAUIStream@@@Z 1001cc10 f i LineDisplay.obj
 0001:0001c010       ?ReadFromStream@CComVariant@ATL@@QAEJPAUIStream@@GTClassesAllowedInStream@2@K@Z 1001d010 f i LineDisplay.obj
 0001:0001c370       ?RecurseDeleteKey@CRegKey@ATL@@QAEJPB_W@Z 1001d370 f i LineDisplay.obj
 0001:0001c550       ?RegCreateKeyExW@CAtlTransactionManager@ATL@@QAEJPAUHKEY__@@PB_WKPA_WKKQAU_SECURITY_ATTRIBUTES@@PAPAU3@PAK@Z 1001d550 f i LineDisplay.obj
 0001:0001c680       ?RegDeleteKeyW@CAtlTransactionManager@ATL@@QAEJPAUHKEY__@@PB_W@Z 1001d680 f i LineDisplay.obj
 0001:0001c780       ?RegOpenKeyExW@CAtlTransactionManager@ATL@@QAEJPAUHKEY__@@PB_WKKPAPAU3@@Z 1001d780 f i LineDisplay.obj
 0001:0001c890       ?Register@_ATL_WNDCLASSINFOW@ATL@@QAEGPAP6GJPAUHWND__@@IIJ@Z@Z 1001d890 f i LineDisplay.obj
 0001:0001c8d0       ?RegisterBuffer@CRegParser@ATL@@QAEJPA_WH@Z 1001d8d0 f i LineDisplay.obj
 0001:0001cc00       ?RegisterClassExW@AtlModuleRegisterWndClassInfoParamW@ATL@@SAGPAU_ATL_WIN_MODULE70@2@PBUtagWNDCLASSEXW@@@Z 1001dc00 f i LineDisplay.obj
 0001:0001cc20       ?RegisterFromResource@CRegObject@ATL@@IAEJPB_W00H@Z 1001dc20 f i LineDisplay.obj
 0001:0001cfb0       ?RegisterServer@?$CAtlModuleT@VCComModule@ATL@@@ATL@@QAEJHPBU_GUID@@@Z 1001dfb0 f i LineDisplay.obj
 0001:0001d030       ?RegisterServer@CAtlComModule@ATL@@QAEJHPBU_GUID@@@Z 1001e030 f i LineDisplay.obj
 0001:0001d060       ?RegisterServer@CComModule@ATL@@QAEJHPBU_GUID@@@Z 1001e060 f i LineDisplay.obj
 0001:0001d140       ?RegisterSubkeys@CRegParser@ATL@@IAEJPA_WPAUHKEY__@@HH@Z 1001e140 f i LineDisplay.obj
 0001:0001dc60       ?Release@?$CComAggObject@VCOPOSLineDisplay@@@ATL@@UAGKXZ 1001ec60 f i LineDisplay.obj
 0001:0001dd20       ?Release@?$CComContainedObject@VCOPOSLineDisplay@@@ATL@@UAGKXZ 1001ed20 f i LineDisplay.obj
 0001:0001dd3c       ?Release@?$CComContainedObject@VCOPOSLineDisplay@@@ATL@@WHA@AGKXZ 1001ed3c f i LineDisplay.obj
 0001:0001dd46       ?Release@?$CComContainedObject@VCOPOSLineDisplay@@@ATL@@WHE@AGKXZ 1001ed46 f i LineDisplay.obj
 0001:0001dd50       ?Release@?$CComContainedObject@VCOPOSLineDisplay@@@ATL@@WHI@AGKXZ 1001ed50 f i LineDisplay.obj
 0001:0001dd5a       ?Release@?$CComContainedObject@VCOPOSLineDisplay@@@ATL@@WHM@AGKXZ 1001ed5a f i LineDisplay.obj
 0001:0001dd64       ?Release@?$CComContainedObject@VCOPOSLineDisplay@@@ATL@@WIA@AGKXZ 1001ed64 f i LineDisplay.obj
 0001:0001dd71       ?Release@?$CComContainedObject@VCOPOSLineDisplay@@@ATL@@WIE@AGKXZ 1001ed71 f i LineDisplay.obj
 0001:0001dd7e       ?Release@?$CComContainedObject@VCOPOSLineDisplay@@@ATL@@WII@AGKXZ 1001ed7e f i LineDisplay.obj
 0001:0001dd8b       ?Release@?$CComContainedObject@VCOPOSLineDisplay@@@ATL@@WIM@AGKXZ 1001ed8b f i LineDisplay.obj
 0001:0001dd98       ?Release@?$CComContainedObject@VCOPOSLineDisplay@@@ATL@@WJA@AGKXZ 1001ed98 f i LineDisplay.obj
 0001:0001dda5       ?Release@?$CComContainedObject@VCOPOSLineDisplay@@@ATL@@WJE@AGKXZ 1001eda5 f i LineDisplay.obj
 0001:0001ddb2       ?Release@?$CComContainedObject@VCOPOSLineDisplay@@@ATL@@WJI@AGKXZ 1001edb2 f i LineDisplay.obj
 0001:0001ddbf       ?Release@?$CComContainedObject@VCOPOSLineDisplay@@@ATL@@WJM@AGKXZ 1001edbf f i LineDisplay.obj
 0001:0001ddcc       ?Release@?$CComContainedObject@VCOPOSLineDisplay@@@ATL@@WKA@AGKXZ 1001edcc f i LineDisplay.obj
 0001:0001ddd9       ?Release@?$CComContainedObject@VCOPOSLineDisplay@@@ATL@@WKI@AGKXZ 1001edd9 f i LineDisplay.obj
 0001:0001dde6       ?Release@?$CComContainedObject@VCOPOSLineDisplay@@@ATL@@WLE@AGKXZ 1001ede6 f i LineDisplay.obj
 0001:0001de00       ?Release@?$CComObject@V?$CComEnum@UIEnumConnectionPoints@@$1?_GUID_b196b285_bab4_101a_b69c_00aa00341d07@@3U__s_GUID@@BPAUIConnectionPoint@@V?$_CopyInterface@UIConnectionPoint@@@ATL@@VCComSingleThreadModel@6@@ATL@@@ATL@@UAGKXZ 1001ee00 f i LineDisplay.obj
 0001:0001dec0       ?Release@?$CComObject@V?$CComEnum@UIEnumConnections@@$1?_GUID_b196b287_bab4_101a_b69c_00aa00341d07@@3U__s_GUID@@BUtagCONNECTDATA@@V?$_Copy@UtagCONNECTDATA@@@ATL@@VCComSingleThreadModel@6@@ATL@@@ATL@@UAGKXZ 1001eec0 f i LineDisplay.obj
 0001:0001df80       ?Release@?$CComObject@VCOPOSLineDisplay@@@ATL@@UAGKXZ 1001ef80 f i LineDisplay.obj
 0001:0001e039       ?Release@?$CComObject@VCOPOSLineDisplay@@@ATL@@WHA@AGKXZ 1001f039 f i LineDisplay.obj
 0001:0001e043       ?Release@?$CComObject@VCOPOSLineDisplay@@@ATL@@WHE@AGKXZ 1001f043 f i LineDisplay.obj
 0001:0001e04d       ?Release@?$CComObject@VCOPOSLineDisplay@@@ATL@@WHI@AGKXZ 1001f04d f i LineDisplay.obj
 0001:0001e057       ?Release@?$CComObject@VCOPOSLineDisplay@@@ATL@@WHM@AGKXZ 1001f057 f i LineDisplay.obj
 0001:0001e061       ?Release@?$CComObject@VCOPOSLineDisplay@@@ATL@@WIA@AGKXZ 1001f061 f i LineDisplay.obj
 0001:0001e06e       ?Release@?$CComObject@VCOPOSLineDisplay@@@ATL@@WIE@AGKXZ 1001f06e f i LineDisplay.obj
 0001:0001e07b       ?Release@?$CComObject@VCOPOSLineDisplay@@@ATL@@WII@AGKXZ 1001f07b f i LineDisplay.obj
 0001:0001e088       ?Release@?$CComObject@VCOPOSLineDisplay@@@ATL@@WIM@AGKXZ 1001f088 f i LineDisplay.obj
 0001:0001e095       ?Release@?$CComObject@VCOPOSLineDisplay@@@ATL@@WJA@AGKXZ 1001f095 f i LineDisplay.obj
 0001:0001e0a2       ?Release@?$CComObject@VCOPOSLineDisplay@@@ATL@@WJE@AGKXZ 1001f0a2 f i LineDisplay.obj
 0001:0001e0af       ?Release@?$CComObject@VCOPOSLineDisplay@@@ATL@@WJI@AGKXZ 1001f0af f i LineDisplay.obj
 0001:0001e0bc       ?Release@?$CComObject@VCOPOSLineDisplay@@@ATL@@WJM@AGKXZ 1001f0bc f i LineDisplay.obj
 0001:0001e0c9       ?Release@?$CComObject@VCOPOSLineDisplay@@@ATL@@WKA@AGKXZ 1001f0c9 f i LineDisplay.obj
 0001:0001e0d6       ?Release@?$CComObject@VCOPOSLineDisplay@@@ATL@@WKI@AGKXZ 1001f0d6 f i LineDisplay.obj
 0001:0001e0e3       ?Release@?$CComObject@VCOPOSLineDisplay@@@ATL@@WLE@AGKXZ 1001f0e3 f i LineDisplay.obj
 0001:0001e0f0       ?Release@?$CComObjectCached@VCComClassFactory@ATL@@@ATL@@UAGKXZ 1001f0f0 f i LineDisplay.obj
 0001:0001e190       ?Release@?$CComPtrBase@UIAdviseSink@@@ATL@@QAEXXZ 1001f190 f i LineDisplay.obj
 0001:0001e1f0       ?Release@?$CComPtrBase@UIDispatch@@@ATL@@QAEXXZ 1001f1f0 f i LineDisplay.obj
 0001:0001e250       ?Release@?$CComPtrBase@UIOleInPlaceSiteWindowless@@@ATL@@QAEXXZ 1001f250 f i LineDisplay.obj
 0001:0001e2b0       ?Release@CRegObject@ATL@@UAGKXZ 1001f2b0 f i LineDisplay.obj
 0001:0001e2f0       ?Remove@CComDynamicUnkArray@ATL@@QAEHK@Z 1001f2f0 f i LineDisplay.obj
 0001:0001e3a0       ?RemoveAll@?$CSimpleMap@PA_WPA_WVCExpansionVectorEqualHelper@ATL@@@ATL@@QAEXXZ 1001f3a0 f i LineDisplay.obj
 0001:0001e430       ?Reset@?$CComEnumImpl@UIEnumConnectionPoints@@$1?_GUID_b196b285_bab4_101a_b69c_00aa00341d07@@3U__s_GUID@@BPAUIConnectionPoint@@V?$_CopyInterface@UIConnectionPoint@@@ATL@@@ATL@@UAGJXZ 1001f430 f i LineDisplay.obj
 0001:0001e450       ?Reset@?$CComEnumImpl@UIEnumConnections@@$1?_GUID_b196b287_bab4_101a_b69c_00aa00341d07@@3U__s_GUID@@BUtagCONNECTDATA@@V?$_Copy@UtagCONNECTDATA@@@ATL@@@ATL@@UAGJXZ 1001f450 f i LineDisplay.obj
 0001:0001e470       ?ResizeBorder@?$IOleInPlaceActiveObjectImpl@VCOPOSLineDisplay@@@ATL@@UAGJPBUtagRECT@@PAUIOleInPlaceUIWindow@@H@Z 1001f470 f i LineDisplay.obj
 0001:0001e4d0       ?ResourceRegister@CRegObject@ATL@@QAGJPB_WI0@Z 1001f4d0 f i LineDisplay.obj
 0001:0001e5b0       ?ResourceRegisterSz@CRegObject@ATL@@QAGJPB_W00@Z 1001f5b0 f i LineDisplay.obj
 0001:0001e6b0       ?ResourceUnregister@CRegObject@ATL@@QAGJPB_WI0@Z 1001f6b0 f i LineDisplay.obj
 0001:0001e790       ?ResourceUnregisterSz@CRegObject@ATL@@QAGJPB_W00@Z 1001f790 f i LineDisplay.obj
 0001:0001e890       ?SODataDummy@COPOSLineDisplay@@MAGJJ@Z 1001f890 f i LineDisplay.obj
 0001:0001e8a0       ?SODirectIO@COPOSLineDisplay@@MAGJJPAJPAPA_W@Z 1001f8a0 f i LineDisplay.obj
 0001:0001ea60       ?SOErrorDummy@COPOSLineDisplay@@MAGJJJJPAJ@Z 1001fa60 f i LineDisplay.obj
 0001:0001ea70       ?SOOutputCompleteDummy@COPOSLineDisplay@@MAGJJ@Z 1001fa70 f i LineDisplay.obj
 0001:0001ea80       ?SOStatusUpdate@COPOSLineDisplay@@MAGJJ@Z 1001fa80 f i LineDisplay.obj
 0001:0001eb00       ?Save@?$IPersistStorageImpl@VCOPOSLineDisplay@@@ATL@@UAGJPAUIStorage@@H@Z 1001fb00 f i LineDisplay.obj
 0001:0001ec60       ?Save@?$IPersistStreamInitImpl@VCOPOSLineDisplay@@@ATL@@UAGJPAUIStream@@H@Z 1001fc60 f i LineDisplay.obj
 0001:0001ecf0       ?SaveCompleted@?$IPersistStorageImpl@VCOPOSLineDisplay@@@ATL@@UAGJPAUIStorage@@@Z 1001fcf0 f i LineDisplay.obj
 0001:0001ed50       ?SendOnDataChange@CComControlBase@ATL@@QAEJK@Z 1001fd50 f i LineDisplay.obj
 0001:0001ee40       ?SendOnSave@CComControlBase@ATL@@QAEJXZ 1001fe40 f i LineDisplay.obj
 0001:0001eeb0       ?SendOnViewChange@CComControlBase@ATL@@QAEJKJ@Z 1001feb0 f i LineDisplay.obj
 0001:0001ef20       ?SetAdvise@?$IViewObjectExImpl@VCOPOSLineDisplay@@@ATL@@UAGJKKPAUIAdviseSink@@@Z 1001ff20 f i LineDisplay.obj
 0001:0001efb0       ?SetClientSite@?$IOleObjectImpl@VCOPOSLineDisplay@@@ATL@@UAGJPAUIOleClientSite@@@Z 1001ffb0 f i LineDisplay.obj
 0001:0001f040       ?SetColorScheme@?$IOleObjectImpl@VCOPOSLineDisplay@@@ATL@@UAGJPAUtagLOGPALETTE@@@Z 10020040 f i LineDisplay.obj
 0001:0001f0b0       ?SetContentExtent@?$IQuickActivateImpl@VCOPOSLineDisplay@@@ATL@@UAGJPAUtagSIZE@@@Z 100200b0 f i LineDisplay.obj
 0001:0001f140       ?SetControlFocus@CComControlBase@ATL@@QAEHH@Z 10020140 f i LineDisplay.obj
 0001:0001f2c0       ?SetDWORDValue@CRegKey@ATL@@QAEJPB_WK@Z 100202c0 f i LineDisplay.obj
 0001:0001f340       ?SetData@?$IDataObjectImpl@VCOPOSLineDisplay@@@ATL@@UAGJPAUtagFORMATETC@@PAUtagSTGMEDIUM@@H@Z 10020340 f i LineDisplay.obj
 0001:0001f3b0       ?SetExtent@?$IOleObjectImpl@VCOPOSLineDisplay@@@ATL@@UAGJKPAUtagSIZE@@@Z 100203b0 f i LineDisplay.obj
 0001:0001f440       ?SetHostNames@?$IOleObjectImpl@VCOPOSLineDisplay@@@ATL@@UAGJPB_W0@Z 10020440 f i LineDisplay.obj
 0001:0001f4a0       ?SetInterfaceSafetyOptions@?$IObjectSafetyImpl@VCOPOSLineDisplay@@$02@ATL@@UAGJABU_GUID@@KK@Z 100204a0 f i LineDisplay.obj
 0001:0001f610       ?SetMoniker@?$IOleObjectImpl@VCOPOSLineDisplay@@@ATL@@UAGJKPAUIMoniker@@@Z 10020610 f i LineDisplay.obj
 0001:0001f680       ?SetMultiStringValue@CRegKey@ATL@@QAEJPB_W0@Z 10020680 f i LineDisplay.obj
 0001:0001f7a0       ?SetObjectRects@?$IOleInPlaceObjectWindowlessImpl@VCOPOSLineDisplay@@@ATL@@UAGJPBUtagRECT@@0@Z 100207a0 f i LineDisplay.obj
 0001:0001f830       ?SetStringValue@CRegKey@ATL@@QAEJPB_W0K@Z 10020830 f i LineDisplay.obj
 0001:0001f960       ?SetVoid@CComClassFactory@ATL@@QAEXPAX@Z 10020960 f i LineDisplay.obj
 0001:0001f980       ?SetVoid@CComObjectRootBase@ATL@@QAEXPAX@Z 10020980 f i LineDisplay.obj
 0001:0001f9a0       ?SetWindowLongPtrW@@YAJPAUHWND__@@HJ@Z 100209a0 f i LineDisplay.obj
 0001:0001f9d0       ?ShowWindow@CWindow@ATL@@QAEHH@Z 100209d0 f i LineDisplay.obj
 0001:0001fa50       ?Skip@?$CComEnumImpl@UIEnumConnectionPoints@@$1?_GUID_b196b285_bab4_101a_b69c_00aa00341d07@@3U__s_GUID@@BPAUIConnectionPoint@@V?$_CopyInterface@UIConnectionPoint@@@ATL@@@ATL@@UAGJK@Z 10020a50 f i LineDisplay.obj
 0001:0001fad0       ?Skip@?$CComEnumImpl@UIEnumConnections@@$1?_GUID_b196b287_bab4_101a_b69c_00aa00341d07@@3U__s_GUID@@BUtagCONNECTDATA@@V?$_Copy@UtagCONNECTDATA@@@ATL@@@ATL@@UAGJK@Z 10020ad0 f i LineDisplay.obj
 0001:0001fb50       ?SkipAssignment@CRegParser@ATL@@IAEJPA_W@Z 10020b50 f i LineDisplay.obj
 0001:0001fc30       ?SkipWhiteSpace@CRegParser@ATL@@IAEXXZ 10020c30 f i LineDisplay.obj
 0001:0001fc80       ?StartWindowProc@?$CWindowImplBaseT@VCWindow@ATL@@V?$CWinTraits@$0FGAAAAAA@$0A@@2@@ATL@@SGJPAUHWND__@@IIJ@Z 10020c80 f i LineDisplay.obj
 0001:0001fda0       ?StrChrW@CRegParser@ATL@@KAPA_WPA_W_W@Z 10020da0 f i LineDisplay.obj
 0001:0001fe10       ?StrFromMap@CRegObject@ATL@@QAEPB_WPA_W@Z 10020e10 f i LineDisplay.obj
 0001:0001fea0       ?Swap@?$CComPtrBase@UIAdviseSink@@@ATL@@IAEXAAV12@@Z 10020ea0 f i LineDisplay.obj
 0001:0001fee0       ?Swap@?$CComPtrBase@UIOleClientSite@@@ATL@@IAEXAAV12@@Z 10020ee0 f i LineDisplay.obj
 0001:0001ff20       ?Swap@?$CComPtrBase@UIUnknown@@@ATL@@IAEXAAV12@@Z 10020f20 f i LineDisplay.obj
 0001:0001ff60       ?T2COLE_EX@@YAPB_WPB_WI@Z  10020f60 f i LineDisplay.obj
 0001:0001ff70       ?T2OLE_EX@@YAPA_WPA_WI@Z   10020f70 f i LineDisplay.obj
 0001:0001ff80       ?Term@CAtlModule@ATL@@QAEXXZ 10020f80 f i LineDisplay.obj
 0001:00020030       ?Term@CComModule@ATL@@QAEXXZ 10021030 f i LineDisplay.obj
 0001:00020120       ?TranslateAcceleratorW@?$IOleInPlaceActiveObjectImpl@VCOPOSLineDisplay@@@ATL@@UAGJPAUtagMSG@@@Z 10021120 f i LineDisplay.obj
 0001:00020320       ?UIDeactivate@?$IOleInPlaceObjectWindowlessImpl@VCOPOSLineDisplay@@@ATL@@UAGJXZ 10021320 f i LineDisplay.obj
 0001:000203a0       ?Unadvise@?$CProxy_IOPOSEvents@VCOPOSLineDisplay@@@@UAGJK@Z 100213a0 f i LineDisplay.obj
 0001:000203e0       ?Unadvise@?$IConnectionPointImpl@VCOPOSLineDisplay@@$1?DIID__IOPOSLineDisplayEvents@@3U_GUID@@BVCComDynamicUnkArray@ATL@@@ATL@@UAGJK@Z 100213e0 f i LineDisplay.obj
 0001:000204b0       ?Unadvise@?$IConnectionPointImpl@VCOPOSLineDisplay@@$1?IID_IPropertyNotifySink@@3U_GUID@@BVCComDynamicUnkArray@ATL@@@ATL@@UAGJK@Z 100214b0 f i LineDisplay.obj
 0001:00020580       ?Unadvise@?$IOleObjectImpl@VCOPOSLineDisplay@@@ATL@@UAGJK@Z 10021580 f i LineDisplay.obj
 0001:00020650       ?Unfreeze@?$IViewObjectExImpl@VCOPOSLineDisplay@@@ATL@@UAGJK@Z 10021650 f i LineDisplay.obj
 0001:000206c0       ?Unlock@?$CComCritSecLock@VCComCriticalSection@ATL@@@ATL@@QAEXXZ 100216c0 f i LineDisplay.obj
 0001:00020730       ?Unlock@?$CComObjectRootEx@VCComSingleThreadModel@ATL@@@ATL@@QAEXXZ 10021730 f i LineDisplay.obj
 0001:00020750       ?Unlock@CAtlModule@ATL@@UAEJXZ 10021750 f i LineDisplay.obj
 0001:00020780       ?Unlock@CComCriticalSection@ATL@@QAEJXZ 10021780 f i LineDisplay.obj
 0001:000207c0       ?Unlock@CComFakeCriticalSection@ATL@@QAEJXZ 100217c0 f i LineDisplay.obj
 0001:000207e0       ?UnregisterServer@?$CAtlModuleT@VCComModule@ATL@@@ATL@@QAEJHPBU_GUID@@@Z 100217e0 f i LineDisplay.obj
 0001:00020850       ?UnregisterServer@CAtlComModule@ATL@@QAEJHPBU_GUID@@@Z 10021850 f i LineDisplay.obj
 0001:00020880       ?UnregisterServer@CComModule@ATL@@QAEJHPBU_GUID@@@Z 10021880 f i LineDisplay.obj
 0001:00020960       ?Update@?$IOleObjectImpl@VCOPOSLineDisplay@@@ATL@@UAGJXZ 10021960 f i LineDisplay.obj
 0001:000209c0       ?UpdateRegistryFromResource@CAtlModule@ATL@@QAGJIHPAU_ATL_REGMAP_ENTRY@2@@Z 100219c0 f i LineDisplay.obj
 0001:00020e90       ?UpdateRegistryFromResource@CAtlModule@ATL@@QAGJPB_WHPAU_ATL_REGMAP_ENTRY@2@@Z 10021e90 f i LineDisplay.obj
 0001:00021380       ?UpdateRegistryFromResource@CComModule@ATL@@UAGJIHPAU_ATL_REGMAP_ENTRY@2@@Z 10022380 f i LineDisplay.obj
 0001:000213b0       ?UpdateRegistryFromResource@CComModule@ATL@@UAGJPB_WHPAU_ATL_REGMAP_ENTRY@2@@Z 100223b0 f i LineDisplay.obj
 0001:000213e0       ?UpdateRegistryFromResourceD@CComModule@ATL@@UAGJIHPAU_ATL_REGMAP_ENTRY@2@@Z 100223e0 f i LineDisplay.obj
 0001:000213f0       ?UpdateRegistryFromResourceD@CComModule@ATL@@UAGJPB_WHPAU_ATL_REGMAP_ENTRY@2@@Z 100223f0 f i LineDisplay.obj
 0001:00021400       ?VTFromRegType@CRegParser@ATL@@KAHPB_WAAG@Z 10022400 f i LineDisplay.obj
 0001:000214e0       ?WindowProc@?$CWindowImplBaseT@VCWindow@ATL@@V?$CWinTraits@$0FGAAAAAA@$0A@@2@@ATL@@SGJPAUHWND__@@IIJ@Z 100224e0 f i LineDisplay.obj
 0001:000216f0       ?WriteToStream@CComBSTR@ATL@@QAEJPAUIStream@@@Z 100226f0 f i LineDisplay.obj
 0001:00021850       ?WriteToStream@CComVariant@ATL@@QAEJPAUIStream@@@Z 10022850 f i LineDisplay.obj
 0001:00021b90       ?WriteToStream@CComVariant@ATL@@QAEJPAUIStream@@G@Z 10022b90 f i LineDisplay.obj
 0001:00021c60       ?_AtlFinalConstruct@CComObjectRootBase@ATL@@QAEJXZ 10022c60 f i LineDisplay.obj
 0001:00021c80       ?_AtlGetConversionACP@ATL@@YGIXZ 10022c80 f i LineDisplay.obj
 0001:00021c90       ?_AtlInitialConstruct@?$CComAggObject@VCOPOSLineDisplay@@@ATL@@QAEJXZ 10022c90 f i LineDisplay.obj
 0001:00021ce0       ?_AtlInitialConstruct@?$CComObjectRootEx@VCComMultiThreadModel@ATL@@@ATL@@QAEJXZ 10022ce0 f i LineDisplay.obj
 0001:00021d10       ?_AtlInitialConstruct@?$CComObjectRootEx@VCComSingleThreadModel@ATL@@@ATL@@QAEJXZ 10022d10 f i LineDisplay.obj
 0001:00021d30       ?_AtlVerifyStackAvailable@_ATL_SAFE_ALLOCA_IMPL@ATL@@YA_NK@Z 10022d30 f i LineDisplay.obj
 0001:00021ee0       ?_GetEntries@?$CComEnum@UIEnumConnectionPoints@@$1?_GUID_b196b285_bab4_101a_b69c_00aa00341d07@@3U__s_GUID@@BPAUIConnectionPoint@@V?$_CopyInterface@UIConnectionPoint@@@ATL@@VCComSingleThreadModel@6@@ATL@@SGPBU_ATL_INTMAP_ENTRY@2@XZ 10022ee0 f i LineDisplay.obj
 0001:00021f00       ?_GetEntries@?$CComEnum@UIEnumConnections@@$1?_GUID_b196b287_bab4_101a_b69c_00aa00341d07@@3U__s_GUID@@BUtagCONNECTDATA@@V?$_Copy@UtagCONNECTDATA@@@ATL@@VCComSingleThreadModel@6@@ATL@@SGPBU_ATL_INTMAP_ENTRY@2@XZ 10022f00 f i LineDisplay.obj
 0001:00021f20       ?_GetEntries@CComClassFactory@ATL@@SGPBU_ATL_INTMAP_ENTRY@2@XZ 10022f20 f i LineDisplay.obj
 0001:00021f40       ?_GetEntries@COPOSLineDisplay@@SGPBU_ATL_INTMAP_ENTRY@ATL@@XZ 10022f40 f i LineDisplay.obj
 0001:00021f60       ?_GetRawUnknown@COPOSLineDisplay@@QAEPAUIUnknown@@XZ 10022f60 f i LineDisplay.obj
 0001:00021fd0       ?_GetViewStatus@COPOSLineDisplay@@QAEKXZ 10022fd0 f i LineDisplay.obj
 0001:00021ff0       ?_InternalQueryInterface@?$CComEnum@UIEnumConnectionPoints@@$1?_GUID_b196b285_bab4_101a_b69c_00aa00341d07@@3U__s_GUID@@BPAUIConnectionPoint@@V?$_CopyInterface@UIConnectionPoint@@@ATL@@VCComSingleThreadModel@6@@ATL@@QAEJABU_GUID@@PAPAX@Z 10022ff0 f i LineDisplay.obj
 0001:00022030       ?_InternalQueryInterface@?$CComEnum@UIEnumConnections@@$1?_GUID_b196b287_bab4_101a_b69c_00aa00341d07@@3U__s_GUID@@BUtagCONNECTDATA@@V?$_Copy@UtagCONNECTDATA@@@ATL@@VCComSingleThreadModel@6@@ATL@@QAEJABU_GUID@@PAPAX@Z 10023030 f i LineDisplay.obj
 0001:00022070       ?_InternalQueryInterface@CComClassFactory@ATL@@QAEJABU_GUID@@PAPAX@Z 10023070 f i LineDisplay.obj
 0001:000220b0       ?_InternalQueryInterface@COPOSLineDisplay@@QAEJABU_GUID@@PAPAX@Z 100230b0 f i LineDisplay.obj
 0001:000220f0       ?_LocCPQueryInterface@?$IConnectionPointImpl@VCOPOSLineDisplay@@$1?DIID__IOPOSLineDisplayEvents@@3U_GUID@@BVCComDynamicUnkArray@ATL@@@ATL@@UAGJABU_GUID@@PAPAX@Z 100230f0 f i LineDisplay.obj
 0001:00022190       ?_LocCPQueryInterface@?$IConnectionPointImpl@VCOPOSLineDisplay@@$1?IID_IPropertyNotifySink@@3U_GUID@@BVCComDynamicUnkArray@ATL@@@ATL@@UAGJABU_GUID@@PAPAX@Z 10023190 f i LineDisplay.obj
 0001:00022230       ?atlCreate@?$CWindowImpl@VCOPOSLineDisplay@@VCWindow@ATL@@V?$CWinTraits@$0FGAAAAAA@$0A@@3@@ATL@@QAEPAUHWND__@@PAU3@V_U_RECT@2@PB_WKKV_U_MENUorID@2@PAX@Z 10023230 f i LineDisplay.obj
 0001:000222e0       ?atlCreate@?$CWindowImplBaseT@VCWindow@ATL@@V?$CWinTraits@$0FGAAAAAA@$0A@@2@@ATL@@QAEPAUHWND__@@PAU3@V_U_RECT@2@PB_WKKV_U_MENUorID@2@GPAX@Z 100232e0 f i LineDisplay.obj
 0001:00022460       ?atlCreate@CRegKey@ATL@@QAEJPAUHKEY__@@PB_WPA_WKKPAU_SECURITY_ATTRIBUTES@@PAK@Z 10023460 f i LineDisplay.obj
 0001:000225c0       ?begin@CComDynamicUnkArray@ATL@@QAEPAPAUIUnknown@@XZ 100235c0 f i LineDisplay.obj
 0001:000225e0       ?copy@?$_Copy@UtagCONNECTDATA@@@ATL@@SAJPAUtagCONNECTDATA@@PBU3@@Z 100235e0 f i LineDisplay.obj
 0001:000226a0       ?copy@?$_CopyInterface@UIConnectionPoint@@@ATL@@SAJPAPAUIConnectionPoint@@PBQAU3@@Z 100236a0 f i LineDisplay.obj
 0001:00022760       ?destroy@?$_Copy@UtagCONNECTDATA@@@ATL@@SAXPAUtagCONNECTDATA@@@Z 10023760 f i LineDisplay.obj
 0001:000227a0       ?destroy@?$_CopyInterface@UIConnectionPoint@@@ATL@@SAXPAPAUIConnectionPoint@@@Z 100237a0 f i LineDisplay.obj
 0001:000227e0       ?end@CComDynamicUnkArray@ATL@@QAEPAPAUIUnknown@@XZ 100237e0 f i LineDisplay.obj
 0001:00022800       ?init@?$_Copy@UtagCONNECTDATA@@@ATL@@SAXPAUtagCONNECTDATA@@@Z 10023800 f i LineDisplay.obj
 0001:00022810       ?init@?$_CopyInterface@UIConnectionPoint@@@ATL@@SAXPAPAUIConnectionPoint@@@Z 10023810 f i LineDisplay.obj
 0001:00022820       ?memcpy_s@Checked@ATL@@YAXPAXIPBXI@Z 10023820 f i LineDisplay.obj
 0001:00022850       ?ocscpy_s@@YA_NPA_WIPB_W@Z 10023850 f i LineDisplay.obj
 0001:000228b0       ?ocslen@@YAHPB_W@Z         100238b0 f i LineDisplay.obj
 0001:000228e0       ?tcsncpy_s@Checked@ATL@@YAHPA_WIPB_WI@Z 100238e0 f i LineDisplay.obj
 0001:00022910       ?wcscat_s@Checked@ATL@@YAXPA_WIPB_W@Z 10023910 f i LineDisplay.obj
 0001:00022940       ?wcscpy_s@Checked@ATL@@YAXPA_WIPB_W@Z 10023940 f i LineDisplay.obj
 0001:00022970       ?wcsncpy_s@Checked@ATL@@YAHPA_WIPB_WI@Z 10023970 f i LineDisplay.obj
 0001:000229a0       ?wcsstr@@YAPA_WPA_WPB_W@Z  100239a0 f i LineDisplay.obj
 0001:000229c0       _InlineIsEqualGUID         100239c0 f i LineDisplay.obj
 0001:00022a60       _IsEqualGUID               10023a60 f i LineDisplay.obj
 0001:00022ab0       ??0COPOSLineDisplay@@QAE@XZ 10023ab0 f   LineDisplayImpl.obj
 0001:00022bc0       ?FinalConstruct@COPOSLineDisplay@@QAEJXZ 10023bc0 f   LineDisplayImpl.obj
 0001:00022c90       ??1COPOSLineDisplay@@UAE@XZ 10023c90 f   LineDisplayImpl.obj
 0001:00022d70       ?WriteTrace@COPOSLineDisplay@@QAAXPB_WZZ 10023d70 f   LineDisplayImpl.obj
 0001:00022e20       ?WriteTraceString@COPOSLineDisplay@@QAEXPB_WPA_W@Z 10023e20 f   LineDisplayImpl.obj
 0001:00023190       ?WriteTraceString@COPOSLineDisplay@@QAAXPAXHHHPB_WZZ 10024190 f   LineDisplayImpl.obj
 0001:000233c0       ?WriteTraceError@COPOSLineDisplay@@QAEXPB_WK@Z 100243c0 f   LineDisplayImpl.obj
 0001:000234b0       ?WriteTraceMethods@COPOSLineDisplay@@QAEXPAJH@Z 100244b0 f   LineDisplayImpl.obj
 0001:00023520       ?GetOposProp@COPOSLineDisplay@@IAEJPBDJPAJJ@Z 10024520 f   LineDisplayImpl.obj
 0001:00023790       ?SetOposProp@COPOSLineDisplay@@IAEJPBDJJJ@Z 10024790 f   LineDisplayImpl.obj
 0001:00023a20       ?GetOposProp@COPOSLineDisplay@@IAEJPBDJPAFJ@Z 10024a20 f   LineDisplayImpl.obj
 0001:00023ac0       ?SetOposProp@COPOSLineDisplay@@IAEJPBDJFJ@Z 10024ac0 f   LineDisplayImpl.obj
 0001:00023b20       ?GetOposProp@COPOSLineDisplay@@IAEJPBDJPAPA_WJ@Z 10024b20 f   LineDisplayImpl.obj
 0001:00023da0       ?SetOposProp@COPOSLineDisplay@@IAEJPBDJPA_WJ@Z 10024da0 f   LineDisplayImpl.obj
 0001:000240e0       ?DoInvoke@COPOSLineDisplay@@IAEJPBDJPAVOposVariant@@IHPAJ_N@Z 100250e0 f   LineDisplayImpl.obj
 0001:00024a10       ?SetCOFreezeEvents@COPOSLineDisplay@@IAEXF@Z 10025a10 f   LineDisplayImpl.obj
 0001:00024b50       ?FreezeEvents@COPOSLineDisplay@@MAGJH@Z 10025b50 f   LineDisplayImpl.obj
 0001:00024c10       ?OnDraw@COPOSLineDisplay@@MAEJAAUATL_DRAWINFO@@@Z 10025c10 f   LineDisplayImpl.obj
 0001:00024db0       ?SOProcessID@COPOSLineDisplay@@UAGJPAJ@Z 10025db0 f   LineDisplayImpl.obj
 0001:00024df0       ?get_OpenResult@COPOSLineDisplay@@UAGJPAJ@Z 10025df0 f   LineDisplayImpl.obj
 0001:00024e30       ?get_CheckHealthText@COPOSLineDisplay@@UAGJPAPA_W@Z 10025e30 f   LineDisplayImpl.obj
 0001:00024e60       ?get_Claimed@COPOSLineDisplay@@UAGJPAF@Z 10025e60 f   LineDisplayImpl.obj
 0001:00024e90       ?get_DeviceEnabled@COPOSLineDisplay@@UAGJPAF@Z 10025e90 f   LineDisplayImpl.obj
 0001:00024ec0       ?put_DeviceEnabled@COPOSLineDisplay@@UAGJF@Z 10025ec0 f   LineDisplayImpl.obj
 0001:00024ef0       ?get_FreezeEvents@COPOSLineDisplay@@UAGJPAF@Z 10025ef0 f   LineDisplayImpl.obj
 0001:00024f20       ?put_FreezeEvents@COPOSLineDisplay@@UAGJF@Z 10025f20 f   LineDisplayImpl.obj
 0001:00024fb0       ?get_ResultCode@COPOSLineDisplay@@UAGJPAJ@Z 10025fb0 f   LineDisplayImpl.obj
 0001:00025040       ?get_ResultCodeExtended@COPOSLineDisplay@@UAGJPAJ@Z 10026040 f   LineDisplayImpl.obj
 0001:00025070       ?get_State@COPOSLineDisplay@@UAGJPAJ@Z 10026070 f   LineDisplayImpl.obj
 0001:000250c0       ?get_ControlObjectDescription@COPOSLineDisplay@@UAGJPAPA_W@Z 100260c0 f   LineDisplayImpl.obj
 0001:00025140       ?get_ControlObjectVersion@COPOSLineDisplay@@UAGJPAJ@Z 10026140 f   LineDisplayImpl.obj
 0001:00025180       ?get_ServiceObjectDescription@COPOSLineDisplay@@UAGJPAPA_W@Z 10026180 f   LineDisplayImpl.obj
 0001:000251b0       ?get_ServiceObjectVersion@COPOSLineDisplay@@UAGJPAJ@Z 100261b0 f   LineDisplayImpl.obj
 0001:000251e0       ?get_DeviceDescription@COPOSLineDisplay@@UAGJPAPA_W@Z 100261e0 f   LineDisplayImpl.obj
 0001:00025210       ?get_DeviceName@COPOSLineDisplay@@UAGJPAPA_W@Z 10026210 f   LineDisplayImpl.obj
 0001:00025240       ?CheckHealth@COPOSLineDisplay@@UAGJJPAJ@Z 10026240 f   LineDisplayImpl.obj
 0001:000252e0       ?ClaimDevice@COPOSLineDisplay@@UAGJJPAJ@Z 100262e0 f   LineDisplayImpl.obj
 0001:000253c0       ?Close@COPOSLineDisplay@@UAGJPAJ@Z 100263c0 f   LineDisplayImpl.obj
 0001:00025490       ?DirectIO@COPOSLineDisplay@@UAGJJPAJPAPA_W0@Z 10026490 f   LineDisplayImpl.obj
 0001:000255a0       ?Open@COPOSLineDisplay@@UAGJPA_WPAJ@Z 100265a0 f   LineDisplayImpl.obj
 0001:00026780       ?ReleaseDevice@COPOSLineDisplay@@UAGJPAJ@Z 10027780 f   LineDisplayImpl.obj
 0001:000267f0       ?get_CapBlink@COPOSLineDisplay@@UAGJPAJ@Z 100277f0 f   LineDisplayImpl.obj
 0001:00026820       ?get_CapBrightness@COPOSLineDisplay@@UAGJPAF@Z 10027820 f   LineDisplayImpl.obj
 0001:00026850       ?get_CapCharacterSet@COPOSLineDisplay@@UAGJPAJ@Z 10027850 f   LineDisplayImpl.obj
 0001:00026880       ?get_CapDescriptors@COPOSLineDisplay@@UAGJPAF@Z 10027880 f   LineDisplayImpl.obj
 0001:000268b0       ?get_CapHMarquee@COPOSLineDisplay@@UAGJPAF@Z 100278b0 f   LineDisplayImpl.obj
 0001:000268e0       ?get_CapICharWait@COPOSLineDisplay@@UAGJPAF@Z 100278e0 f   LineDisplayImpl.obj
 0001:00026910       ?get_CapVMarquee@COPOSLineDisplay@@UAGJPAF@Z 10027910 f   LineDisplayImpl.obj
 0001:00026940       ?get_CharacterSet@COPOSLineDisplay@@UAGJPAJ@Z 10027940 f   LineDisplayImpl.obj
 0001:00026970       ?put_CharacterSet@COPOSLineDisplay@@UAGJJ@Z 10027970 f   LineDisplayImpl.obj
 0001:000269a0       ?get_CharacterSetList@COPOSLineDisplay@@UAGJPAPA_W@Z 100279a0 f   LineDisplayImpl.obj
 0001:000269d0       ?get_Columns@COPOSLineDisplay@@UAGJPAJ@Z 100279d0 f   LineDisplayImpl.obj
 0001:00026a00       ?get_CurrentWindow@COPOSLineDisplay@@UAGJPAJ@Z 10027a00 f   LineDisplayImpl.obj
 0001:00026a30       ?put_CurrentWindow@COPOSLineDisplay@@UAGJJ@Z 10027a30 f   LineDisplayImpl.obj
 0001:00026a60       ?get_CursorColumn@COPOSLineDisplay@@UAGJPAJ@Z 10027a60 f   LineDisplayImpl.obj
 0001:00026a90       ?put_CursorColumn@COPOSLineDisplay@@UAGJJ@Z 10027a90 f   LineDisplayImpl.obj
 0001:00026ac0       ?get_CursorRow@COPOSLineDisplay@@UAGJPAJ@Z 10027ac0 f   LineDisplayImpl.obj
 0001:00026af0       ?put_CursorRow@COPOSLineDisplay@@UAGJJ@Z 10027af0 f   LineDisplayImpl.obj
 0001:00026b20       ?get_CursorUpdate@COPOSLineDisplay@@UAGJPAF@Z 10027b20 f   LineDisplayImpl.obj
 0001:00026b50       ?put_CursorUpdate@COPOSLineDisplay@@UAGJF@Z 10027b50 f   LineDisplayImpl.obj
 0001:00026b80       ?get_DeviceBrightness@COPOSLineDisplay@@UAGJPAJ@Z 10027b80 f   LineDisplayImpl.obj
 0001:00026bb0       ?put_DeviceBrightness@COPOSLineDisplay@@UAGJJ@Z 10027bb0 f   LineDisplayImpl.obj
 0001:00026be0       ?get_DeviceColumns@COPOSLineDisplay@@UAGJPAJ@Z 10027be0 f   LineDisplayImpl.obj
 0001:00026c10       ?get_DeviceDescriptors@COPOSLineDisplay@@UAGJPAJ@Z 10027c10 f   LineDisplayImpl.obj
 0001:00026c40       ?get_DeviceRows@COPOSLineDisplay@@UAGJPAJ@Z 10027c40 f   LineDisplayImpl.obj
 0001:00026c70       ?get_DeviceWindows@COPOSLineDisplay@@UAGJPAJ@Z 10027c70 f   LineDisplayImpl.obj
 0001:00026ca0       ?get_InterCharacterWait@COPOSLineDisplay@@UAGJPAJ@Z 10027ca0 f   LineDisplayImpl.obj
 0001:00026cd0       ?put_InterCharacterWait@COPOSLineDisplay@@UAGJJ@Z 10027cd0 f   LineDisplayImpl.obj
 0001:00026d00       ?get_MarqueeFormat@COPOSLineDisplay@@UAGJPAJ@Z 10027d00 f   LineDisplayImpl.obj
 0001:00026d30       ?put_MarqueeFormat@COPOSLineDisplay@@UAGJJ@Z 10027d30 f   LineDisplayImpl.obj
 0001:00026d60       ?get_MarqueeRepeatWait@COPOSLineDisplay@@UAGJPAJ@Z 10027d60 f   LineDisplayImpl.obj
 0001:00026d90       ?put_MarqueeRepeatWait@COPOSLineDisplay@@UAGJJ@Z 10027d90 f   LineDisplayImpl.obj
 0001:00026dc0       ?get_MarqueeType@COPOSLineDisplay@@UAGJPAJ@Z 10027dc0 f   LineDisplayImpl.obj
 0001:00026df0       ?put_MarqueeType@COPOSLineDisplay@@UAGJJ@Z 10027df0 f   LineDisplayImpl.obj
 0001:00026e20       ?get_MarqueeUnitWait@COPOSLineDisplay@@UAGJPAJ@Z 10027e20 f   LineDisplayImpl.obj
 0001:00026e50       ?put_MarqueeUnitWait@COPOSLineDisplay@@UAGJJ@Z 10027e50 f   LineDisplayImpl.obj
 0001:00026e80       ?get_Rows@COPOSLineDisplay@@UAGJPAJ@Z 10027e80 f   LineDisplayImpl.obj
 0001:00026eb0       ?ClearDescriptors@COPOSLineDisplay@@UAGJPAJ@Z 10027eb0 f   LineDisplayImpl.obj
 0001:00026ee0       ?ClearText@COPOSLineDisplay@@UAGJPAJ@Z 10027ee0 f   LineDisplayImpl.obj
 0001:00026f10       ?CreateWindow@COPOSLineDisplay@@UAGJJJJJJJPAJ@Z 10027f10 f   LineDisplayImpl.obj
 0001:00027070       ?DestroyWindow@COPOSLineDisplay@@UAGJPAJ@Z 10028070 f   LineDisplayImpl.obj
 0001:000270a0       ?DisplayText@COPOSLineDisplay@@UAGJPA_WJPAJ@Z 100280a0 f   LineDisplayImpl.obj
 0001:00027190       ?DisplayTextAt@COPOSLineDisplay@@UAGJJJPA_WJPAJ@Z 10028190 f   LineDisplayImpl.obj
 0001:000272b0       ?RefreshWindow@COPOSLineDisplay@@UAGJJPAJ@Z 100282b0 f   LineDisplayImpl.obj
 0001:00027350       ?ScrollText@COPOSLineDisplay@@UAGJJJPAJ@Z 10028350 f   LineDisplayImpl.obj
 0001:00027420       ?SetDescriptor@COPOSLineDisplay@@UAGJJJPAJ@Z 10028420 f   LineDisplayImpl.obj
 0001:000274f0       ?get_BinaryConversion@COPOSLineDisplay@@UAGJPAJ@Z 100284f0 f   LineDisplayImpl.obj
 0001:00027520       ?put_BinaryConversion@COPOSLineDisplay@@UAGJJ@Z 10028520 f   LineDisplayImpl.obj
 0001:00027550       ?get_CapPowerReporting@COPOSLineDisplay@@UAGJPAJ@Z 10028550 f   LineDisplayImpl.obj
 0001:00027580       ?get_PowerNotify@COPOSLineDisplay@@UAGJPAJ@Z 10028580 f   LineDisplayImpl.obj
 0001:000275b0       ?put_PowerNotify@COPOSLineDisplay@@UAGJJ@Z 100285b0 f   LineDisplayImpl.obj
 0001:000275e0       ?get_PowerState@COPOSLineDisplay@@UAGJPAJ@Z 100285e0 f   LineDisplayImpl.obj
 0001:00027610       ?get_BlinkRate@COPOSLineDisplay@@UAGJPAJ@Z 10028610 f   LineDisplayImpl.obj
 0001:00027640       ?put_BlinkRate@COPOSLineDisplay@@UAGJJ@Z 10028640 f   LineDisplayImpl.obj
 0001:00027670       ?get_CapBlinkRate@COPOSLineDisplay@@UAGJPAF@Z 10028670 f   LineDisplayImpl.obj
 0001:000276a0       ?get_CapCursorType@COPOSLineDisplay@@UAGJPAJ@Z 100286a0 f   LineDisplayImpl.obj
 0001:000276d0       ?get_CapCustomGlyph@COPOSLineDisplay@@UAGJPAF@Z 100286d0 f   LineDisplayImpl.obj
 0001:00027700       ?get_CapReadBack@COPOSLineDisplay@@UAGJPAJ@Z 10028700 f   LineDisplayImpl.obj
 0001:00027730       ?get_CapReverse@COPOSLineDisplay@@UAGJPAJ@Z 10028730 f   LineDisplayImpl.obj
 0001:00027760       ?get_CursorType@COPOSLineDisplay@@UAGJPAJ@Z 10028760 f   LineDisplayImpl.obj
 0001:00027790       ?put_CursorType@COPOSLineDisplay@@UAGJJ@Z 10028790 f   LineDisplayImpl.obj
 0001:000277c0       ?get_CustomGlyphList@COPOSLineDisplay@@UAGJPAPA_W@Z 100287c0 f   LineDisplayImpl.obj
 0001:000277f0       ?get_GlyphHeight@COPOSLineDisplay@@UAGJPAJ@Z 100287f0 f   LineDisplayImpl.obj
 0001:00027820       ?get_GlyphWidth@COPOSLineDisplay@@UAGJPAJ@Z 10028820 f   LineDisplayImpl.obj
 0001:00027850       ?DefineGlyph@COPOSLineDisplay@@UAGJJPA_WPAJ@Z 10028850 f   LineDisplayImpl.obj
 0001:00027940       ?ReadCharacterAtCursor@COPOSLineDisplay@@UAGJPAJ0@Z 10028940 f   LineDisplayImpl.obj
 0001:000279f0       ?get_CapBitmap@COPOSLineDisplay@@UAGJPAF@Z 100289f0 f   LineDisplayImpl.obj
 0001:00027a20       ?get_CapMapCharacterSet@COPOSLineDisplay@@UAGJPAF@Z 10028a20 f   LineDisplayImpl.obj
 0001:00027a50       ?get_CapScreenMode@COPOSLineDisplay@@UAGJPAF@Z 10028a50 f   LineDisplayImpl.obj
 0001:00027a80       ?get_MapCharacterSet@COPOSLineDisplay@@UAGJPAF@Z 10028a80 f   LineDisplayImpl.obj
 0001:00027ab0       ?put_MapCharacterSet@COPOSLineDisplay@@UAGJF@Z 10028ab0 f   LineDisplayImpl.obj
 0001:00027ae0       ?get_MaximumX@COPOSLineDisplay@@UAGJPAJ@Z 10028ae0 f   LineDisplayImpl.obj
 0001:00027b10       ?get_MaximumY@COPOSLineDisplay@@UAGJPAJ@Z 10028b10 f   LineDisplayImpl.obj
 0001:00027b40       ?get_ScreenMode@COPOSLineDisplay@@UAGJPAJ@Z 10028b40 f   LineDisplayImpl.obj
 0001:00027b70       ?put_ScreenMode@COPOSLineDisplay@@UAGJJ@Z 10028b70 f   LineDisplayImpl.obj
 0001:00027ba0       ?get_ScreenModeList@COPOSLineDisplay@@UAGJPAPA_W@Z 10028ba0 f   LineDisplayImpl.obj
 0001:00027bd0       ?DisplayBitmap@COPOSLineDisplay@@UAGJPA_WJJJPAJ@Z 10028bd0 f   LineDisplayImpl.obj
 0001:00027cf0       ?SetBitmap@COPOSLineDisplay@@UAGJJPA_WJJJPAJ@Z 10028cf0 f   LineDisplayImpl.obj
 0001:00027e40       ?get_CapStatisticsReporting@COPOSLineDisplay@@UAGJPAF@Z 10028e40 f   LineDisplayImpl.obj
 0001:00027e70       ?get_CapUpdateStatistics@COPOSLineDisplay@@UAGJPAF@Z 10028e70 f   LineDisplayImpl.obj
 0001:00027ea0       ?ResetStatistics@COPOSLineDisplay@@UAGJPA_WPAJ@Z 10028ea0 f   LineDisplayImpl.obj
 0001:00027f50       ?RetrieveStatistics@COPOSLineDisplay@@UAGJPAPA_WPAJ@Z 10028f50 f   LineDisplayImpl.obj
 0001:00028000       ?UpdateStatistics@COPOSLineDisplay@@UAGJPA_WPAJ@Z 10029000 f   LineDisplayImpl.obj
 0001:000280b0       ?get_CapCompareFirmwareVersion@COPOSLineDisplay@@UAGJPAF@Z 100290b0 f   LineDisplayImpl.obj
 0001:000280e0       ?get_CapUpdateFirmware@COPOSLineDisplay@@UAGJPAF@Z 100290e0 f   LineDisplayImpl.obj
 0001:00028110       ?CompareFirmwareVersion@COPOSLineDisplay@@UAGJPA_WPAJ1@Z 10029110 f   LineDisplayImpl.obj
 0001:00028200       ?UpdateFirmware@COPOSLineDisplay@@UAGJPA_WPAJ@Z 10029200 f   LineDisplayImpl.obj
 0001:000282b0       ??0?$CComControl@VCOPOSLineDisplay@@V?$CWindowImpl@VCOPOSLineDisplay@@VCWindow@ATL@@V?$CWinTraits@$0FGAAAAAA@$0A@@3@@ATL@@@ATL@@QAE@XZ 100292b0 f i LineDisplayImpl.obj
 0001:000282f0       ??0?$CComPtr@UIAdviseSink@@@ATL@@QAE@XZ 100292f0 f i LineDisplayImpl.obj
 0001:00028320       ??0?$CComPtr@UIDataAdviseHolder@@@ATL@@QAE@XZ 10029320 f i LineDisplayImpl.obj
 0001:00028350       ??0?$CComPtr@UIOleAdviseHolder@@@ATL@@QAE@XZ 10029350 f i LineDisplayImpl.obj
 0001:00028380       ??0?$CComPtr@UIOleClientSite@@@ATL@@QAE@XZ 10029380 f i LineDisplayImpl.obj
 0001:000283b0       ??0?$CComPtr@UIOleInPlaceSiteWindowless@@@ATL@@QAE@XZ 100293b0 f i LineDisplayImpl.obj
 0001:000283e0       ??0?$CComPtrBase@UIAdviseSink@@@ATL@@IAE@XZ 100293e0 f i LineDisplayImpl.obj
 0001:00028400       ??0?$CComPtrBase@UIDataAdviseHolder@@@ATL@@IAE@XZ 10029400 f i LineDisplayImpl.obj
 0001:00028420       ??0?$CComPtrBase@UIOleAdviseHolder@@@ATL@@IAE@XZ 10029420 f i LineDisplayImpl.obj
 0001:00028440       ??0?$CComPtrBase@UIOleClientSite@@@ATL@@IAE@XZ 10029440 f i LineDisplayImpl.obj
 0001:00028460       ??0?$CComPtrBase@UIOleInPlaceSiteWindowless@@@ATL@@IAE@XZ 10029460 f i LineDisplayImpl.obj
 0001:00028480       ??0?$CComQIPtr@UIDispatch@@$1?_GUID_00020400_0000_0000_c000_000000000046@@3U__s_GUID@@B@ATL@@QAE@XZ 10029480 f i LineDisplayImpl.obj
 0001:000284b0       ??0?$CProxy_IOPOSEvents@VCOPOSLineDisplay@@@@QAE@PAVCOPOSLineDisplay@@@Z 100294b0 f i LineDisplayImpl.obj
 0001:00028500       ??0?$CWindowImpl@VCOPOSLineDisplay@@VCWindow@ATL@@V?$CWinTraits@$0FGAAAAAA@$0A@@3@@ATL@@QAE@XZ 10029500 f i LineDisplayImpl.obj
 0001:00028530       ??0?$CWindowImplBaseT@VCWindow@ATL@@V?$CWinTraits@$0FGAAAAAA@$0A@@2@@ATL@@QAE@XZ 10029530 f i LineDisplayImpl.obj
 0001:00028570       ??0?$CWindowImplRoot@VCWindow@ATL@@@ATL@@QAE@XZ 10029570 f i LineDisplayImpl.obj
 0001:000285d0       ??0?$IConnectionPointContainerImpl@VCOPOSLineDisplay@@@ATL@@QAE@XZ 100295d0 f i LineDisplayImpl.obj
 0001:00028600       ??0?$IConnectionPointImpl@VCOPOSLineDisplay@@$1?DIID__IOPOSLineDisplayEvents@@3U_GUID@@BVCComDynamicUnkArray@ATL@@@ATL@@QAE@XZ 10029600 f i LineDisplayImpl.obj
 0001:00028640       ??0?$IConnectionPointImpl@VCOPOSLineDisplay@@$1?IID_IPropertyNotifySink@@3U_GUID@@BVCComDynamicUnkArray@ATL@@@ATL@@QAE@XZ 10029640 f i LineDisplayImpl.obj
 0001:00028680       ??0?$IDataObjectImpl@VCOPOSLineDisplay@@@ATL@@QAE@XZ 10029680 f i LineDisplayImpl.obj
 0001:000286b0       ??0?$IDispatchImpl@UIOPOSLineDisplay@@$1?IID_IOPOSLineDisplay@@3U_GUID@@B$1?LIBID_OposLineDisplay_CCO@@3U3@B$00$0A@VCComTypeInfoHolder@ATL@@@ATL@@QAE@XZ 100296b0 f i LineDisplayImpl.obj
 0001:000286e0       ??0?$IObjectSafetyImpl@VCOPOSLineDisplay@@$02@ATL@@QAE@XZ 100296e0 f i LineDisplayImpl.obj
 0001:00028720       ??0?$IOleControlImpl@VCOPOSLineDisplay@@@ATL@@QAE@XZ 10029720 f i LineDisplayImpl.obj
 0001:00028750       ??0?$IOleInPlaceActiveObjectImpl@VCOPOSLineDisplay@@@ATL@@QAE@XZ 10029750 f i LineDisplayImpl.obj
 0001:00028780       ??0?$IOleInPlaceObjectWindowlessImpl@VCOPOSLineDisplay@@@ATL@@QAE@XZ 10029780 f i LineDisplayImpl.obj
 0001:000287b0       ??0?$IOleObjectImpl@VCOPOSLineDisplay@@@ATL@@QAE@XZ 100297b0 f i LineDisplayImpl.obj
 0001:000287e0       ??0?$IPersistStorageImpl@VCOPOSLineDisplay@@@ATL@@QAE@XZ 100297e0 f i LineDisplayImpl.obj
 0001:00028810       ??0?$IPersistStreamInitImpl@VCOPOSLineDisplay@@@ATL@@QAE@XZ 10029810 f i LineDisplayImpl.obj
 0001:00028840       ??0?$IPropertyNotifySinkCP@VCOPOSLineDisplay@@VCComDynamicUnkArray@ATL@@@ATL@@QAE@XZ 10029840 f i LineDisplayImpl.obj
 0001:00028870       ??0?$IProvideClassInfo2Impl@$1?CLSID_OPOSLineDisplay@@3U_GUID@@B$1?DIID__IOPOSLineDisplayEvents@@3U2@B$1?LIBID_OposLineDisplay_CCO@@3U2@B$00$0A@VCComTypeInfoHolder@ATL@@@ATL@@QAE@XZ 10029870 f i LineDisplayImpl.obj
 0001:000288a0       ??0?$IQuickActivateImpl@VCOPOSLineDisplay@@@ATL@@QAE@XZ 100298a0 f i LineDisplayImpl.obj
 0001:000288d0       ??0?$ISpecifyPropertyPagesImpl@VCOPOSLineDisplay@@@ATL@@QAE@XZ 100298d0 f i LineDisplayImpl.obj
 0001:00028900       ??0?$IViewObjectExImpl@VCOPOSLineDisplay@@@ATL@@QAE@XZ 10029900 f i LineDisplayImpl.obj
 0001:00028930       ??0?$_ICPLocator@$1?DIID__IOPOSLineDisplayEvents@@3U_GUID@@B@ATL@@QAE@XZ 10029930 f i LineDisplayImpl.obj
 0001:00028950       ??0?$_ICPLocator@$1?IID_IPropertyNotifySink@@3U_GUID@@B@ATL@@QAE@XZ 10029950 f i LineDisplayImpl.obj
 0001:00028970       ??0CComControlBase@ATL@@QAE@AAPAUHWND__@@@Z 10029970 f i LineDisplayImpl.obj
 0001:00028b20       ??0CComDynamicUnkArray@ATL@@QAE@XZ 10029b20 f i LineDisplayImpl.obj
 0001:00028b50       ??0CDynamicStdCallThunk2@ATL@@QAE@XZ 10029b50 f i LineDisplayImpl.obj
 0001:00028b70       ??0CMessageMap@ATL@@QAE@XZ 10029b70 f i LineDisplayImpl.obj
 0001:00028b90       ??0CWindow@ATL@@QAE@PAUHWND__@@@Z 10029b90 f i LineDisplayImpl.obj
 0001:00028bb0       ??0CWndProcThunk@ATL@@QAE@XZ 10029bb0 f i LineDisplayImpl.obj
 0001:00028be0       ??0IConnectionPointContainer@@QAE@XZ 10029be0 f i LineDisplayImpl.obj
 0001:00028c10       ??0IDataObject@@QAE@XZ     10029c10 f i LineDisplayImpl.obj
 0001:00028c40       ??0IDispatch@@QAE@XZ       10029c40 f i LineDisplayImpl.obj
 0001:00028c70       ??0IOPOSLineDisplay@@QAE@XZ 10029c70 f i LineDisplayImpl.obj
 0001:00028ca0       ??0IOPOSLineDisplay_1_6@@QAE@XZ 10029ca0 f i LineDisplayImpl.obj
 0001:00028cd0       ??0IOPOSLineDisplay_1_7@@QAE@XZ 10029cd0 f i LineDisplayImpl.obj
 0001:00028d00       ??0IOPOSLineDisplay_1_8@@QAE@XZ 10029d00 f i LineDisplayImpl.obj
 0001:00028d30       ??0IOPOSLineDisplay_1_9@@QAE@XZ 10029d30 f i LineDisplayImpl.obj
 0001:00028d60       ??0IObjectSafety@@QAE@XZ   10029d60 f i LineDisplayImpl.obj
 0001:00028d90       ??0IOleControl@@QAE@XZ     10029d90 f i LineDisplayImpl.obj
 0001:00028dc0       ??0IOleInPlaceActiveObject@@QAE@XZ 10029dc0 f i LineDisplayImpl.obj
 0001:00028df0       ??0IOleInPlaceObject@@QAE@XZ 10029df0 f i LineDisplayImpl.obj
 0001:00028e20       ??0IOleInPlaceObjectWindowless@@QAE@XZ 10029e20 f i LineDisplayImpl.obj
 0001:00028e50       ??0IOleObject@@QAE@XZ      10029e50 f i LineDisplayImpl.obj
 0001:00028e80       ??0IOleWindow@@QAE@XZ      10029e80 f i LineDisplayImpl.obj
 0001:00028eb0       ??0IPersist@@QAE@XZ        10029eb0 f i LineDisplayImpl.obj
 0001:00028ee0       ??0IPersistStorage@@QAE@XZ 10029ee0 f i LineDisplayImpl.obj
 0001:00028f10       ??0IPersistStreamInit@@QAE@XZ 10029f10 f i LineDisplayImpl.obj
 0001:00028f40       ??0IProvideClassInfo2@@QAE@XZ 10029f40 f i LineDisplayImpl.obj
 0001:00028f70       ??0IProvideClassInfo@@QAE@XZ 10029f70 f i LineDisplayImpl.obj
 0001:00028fa0       ??0IQuickActivate@@QAE@XZ  10029fa0 f i LineDisplayImpl.obj
 0001:00028fd0       ??0ISpecifyPropertyPages@@QAE@XZ 10029fd0 f i LineDisplayImpl.obj
 0001:00029000       ??0IViewObject2@@QAE@XZ    1002a000 f i LineDisplayImpl.obj
 0001:00029030       ??0IViewObject@@QAE@XZ     1002a030 f i LineDisplayImpl.obj
 0001:00029060       ??0IViewObjectEx@@QAE@XZ   1002a060 f i LineDisplayImpl.obj
 0001:00029090       ??0OposVariantResult@@QAE@XZ 1002a090 f i LineDisplayImpl.obj
 0001:000290c0       ??0_CW@@QAE@PBD@Z          1002a0c0 f i LineDisplayImpl.obj
 0001:00029100       ??0_CW@@QAE@PB_W@Z         1002a100 f i LineDisplayImpl.obj
 0001:00029140       ??0_CWNCC@@QAE@PBD@Z       1002a140 f i LineDisplayImpl.obj
 0001:00029170       ??1?$CComControl@VCOPOSLineDisplay@@V?$CWindowImpl@VCOPOSLineDisplay@@VCWindow@ATL@@V?$CWinTraits@$0FGAAAAAA@$0A@@3@@ATL@@@ATL@@UAE@XZ 1002a170 f i LineDisplayImpl.obj
 0001:000291a0       ??1?$CComPtr@UIDataAdviseHolder@@@ATL@@QAE@XZ 1002a1a0 f i LineDisplayImpl.obj
 0001:000291d0       ??1?$CComPtr@UIOleAdviseHolder@@@ATL@@QAE@XZ 1002a1d0 f i LineDisplayImpl.obj
 0001:00029200       ??1?$CComPtr@UIOleInPlaceSiteWindowless@@@ATL@@QAE@XZ 1002a200 f i LineDisplayImpl.obj
 0001:00029230       ??1?$CComPtrBase@UIDataAdviseHolder@@@ATL@@QAE@XZ 1002a230 f i LineDisplayImpl.obj
 0001:00029280       ??1?$CComPtrBase@UIOleAdviseHolder@@@ATL@@QAE@XZ 1002a280 f i LineDisplayImpl.obj
 0001:000292d0       ??1?$CComPtrBase@UIOleInPlaceSiteWindowless@@@ATL@@QAE@XZ 1002a2d0 f i LineDisplayImpl.obj
 0001:00029320       ??1?$CComQIPtr@UIDispatch@@$1?_GUID_00020400_0000_0000_c000_000000000046@@3U__s_GUID@@B@ATL@@QAE@XZ 1002a320 f i LineDisplayImpl.obj
 0001:00029350       ??1?$CProxy_IOPOSEvents@VCOPOSLineDisplay@@@@QAE@XZ 1002a350 f i LineDisplayImpl.obj
 0001:00029380       ??1?$CWindowImpl@VCOPOSLineDisplay@@VCWindow@ATL@@V?$CWinTraits@$0FGAAAAAA@$0A@@3@@ATL@@UAE@XZ 1002a380 f i LineDisplayImpl.obj
 0001:000293b0       ??1?$CWindowImplBaseT@VCWindow@ATL@@V?$CWinTraits@$0FGAAAAAA@$0A@@2@@ATL@@UAE@XZ 1002a3b0 f i LineDisplayImpl.obj
 0001:000293e0       ??1?$CWindowImplRoot@VCWindow@ATL@@@ATL@@UAE@XZ 1002a3e0 f i LineDisplayImpl.obj
 0001:00029480       ??1?$IConnectionPointImpl@VCOPOSLineDisplay@@$1?DIID__IOPOSLineDisplayEvents@@3U_GUID@@BVCComDynamicUnkArray@ATL@@@ATL@@QAE@XZ 1002a480 f i LineDisplayImpl.obj
 0001:00029500       ??1?$IConnectionPointImpl@VCOPOSLineDisplay@@$1?IID_IPropertyNotifySink@@3U_GUID@@BVCComDynamicUnkArray@ATL@@@ATL@@QAE@XZ 1002a500 f i LineDisplayImpl.obj
 0001:00029580       ??1?$IPropertyNotifySinkCP@VCOPOSLineDisplay@@VCComDynamicUnkArray@ATL@@@ATL@@QAE@XZ 1002a580 f i LineDisplayImpl.obj
 0001:000295b0       ??1CComControlBase@ATL@@UAE@XZ 1002a5b0 f i LineDisplayImpl.obj
 0001:00029670       ??1CComDynamicUnkArray@ATL@@QAE@XZ 1002a670 f i LineDisplayImpl.obj
 0001:000296b0       ??1CDynamicStdCallThunk2@ATL@@QAE@XZ 1002a6b0 f i LineDisplayImpl.obj
 0001:000296e0       ??1CWndProcThunk@ATL@@QAE@XZ 1002a6e0 f i LineDisplayImpl.obj
 0001:00029710       ??1OposVariantResult@@QAE@XZ 1002a710 f i LineDisplayImpl.obj
 0001:00029740       ??1_CW@@QAE@XZ             1002a740 f i LineDisplayImpl.obj
 0001:000297b0       ??1_CWNCC@@QAE@XZ          1002a7b0 f i LineDisplayImpl.obj
 0001:000297e0       ??B_CW@@QAEPB_WXZ          1002a7e0 f i LineDisplayImpl.obj
 0001:00029820       ??B_CWNCC@@QAEPA_WXZ       1002a820 f i LineDisplayImpl.obj
 0001:00029850       ??_EOposVariant@@QAEPAXI@Z 1002a850 f i LineDisplayImpl.obj
 0001:000298e0       ?EventClaim@COPOSLineDisplay@@IAEXXZ 1002a8e0 f i LineDisplayImpl.obj
 0001:00029920       ?EventClose@COPOSLineDisplay@@IAEXXZ 1002a920 f i LineDisplayImpl.obj
 0001:000299c0       ?EventInit@COPOSLineDisplay@@IAEJXZ 1002a9c0 f i LineDisplayImpl.obj
 0001:00029bf0       ?EventOpen@COPOSLineDisplay@@IAEXXZ 1002abf0 f i LineDisplayImpl.obj
 0001:00029c30       ?EventPreCloseRelease@COPOSLineDisplay@@IAEXXZ 1002ac30 f i LineDisplayImpl.obj
 0001:00029cb0       ?EventUninit@COPOSLineDisplay@@IAEXXZ 1002acb0 f i LineDisplayImpl.obj
 0001:00029de0       ?EventWindowProc@COPOSLineDisplay@@IAGJIIJ@Z 1002ade0 f i LineDisplayImpl.obj
 0001:00029ec0       ?FireEventCleanup@COPOSLineDisplay@@IAEXXZ 1002aec0 f i LineDisplayImpl.obj
 0001:00029f10       ?FireEventSetup@COPOSLineDisplay@@IAE_NXZ 1002af10 f i LineDisplayImpl.obj
 0001:00029f80       ?GetModuleInstance@CComModule@ATL@@QAEPAUHINSTANCE__@@XZ 1002af80 f i LineDisplayImpl.obj
 0001:00029fa0       ?SetRC@COPOSLineDisplay@@IAEJJ@Z 1002afa0 f i LineDisplayImpl.obj
 0001:00029fd0       ?s_EventWindowProc@COPOSLineDisplay@@KGJPAUHWND__@@IIJ@Z 1002afd0 f i LineDisplayImpl.obj
 0001:0002a070       __snwprintf                1002b070 f i LineDisplayImpl.obj
 0001:0002a0d0       __vfwprintf_l              1002b0d0 f i LineDisplayImpl.obj
 0001:0002a100       __vsnwprintf               1002b100 f i LineDisplayImpl.obj
 0001:0002a130       __vsnwprintf_l             1002b130 f i LineDisplayImpl.obj
 0001:0002a1a0       _vfwprintf                 1002b1a0 f i LineDisplayImpl.obj
 0001:0002a1c2       _DebugBreak@0              1002b1c2 f   kernel32:KERNEL32.dll
 0001:0002a1c8       _Sleep@4                   1002b1c8 f   kernel32:KERNEL32.dll
 0001:0002a1ce       _GetCurrentProcess@0       1002b1ce f   kernel32:KERNEL32.dll
 0001:0002a1d4       _TerminateProcess@8        1002b1d4 f   kernel32:KERNEL32.dll
 0001:0002a1da       _MultiByteToWideChar@24    1002b1da f   kernel32:KERNEL32.dll
 0001:0002a1e0       _WideCharToMultiByte@32    1002b1e0 f   kernel32:KERNEL32.dll
 0001:0002a1e6       _DecodePointer@4           1002b1e6 f   kernel32:KERNEL32.dll
 0001:0002a1ec       _RaiseException@16         1002b1ec f   kernel32:KERNEL32.dll
 0001:0002a1f2       _GetLastError@0            1002b1f2 f   kernel32:KERNEL32.dll
 0001:0002a1f8       _SetLastError@4            1002b1f8 f   kernel32:KERNEL32.dll
 0001:0002a1fe       _InitializeCriticalSectionEx@12 1002b1fe f   kernel32:KERNEL32.dll
 0001:0002a204       _DeleteCriticalSection@4   1002b204 f   kernel32:KERNEL32.dll
 0001:0002a20a       _EncodePointer@4           1002b20a f   kernel32:KERNEL32.dll
 0001:0002a210       _EnterCriticalSection@4    1002b210 f   kernel32:KERNEL32.dll
 0001:0002a216       _LeaveCriticalSection@4    1002b216 f   kernel32:KERNEL32.dll
 0001:0002a21c       _ResetEvent@4              1002b21c f   kernel32:KERNEL32.dll
 0001:0002a222       _ReleaseMutex@4            1002b222 f   kernel32:KERNEL32.dll
 0001:0002a228       _WaitForSingleObject@8     1002b228 f   kernel32:KERNEL32.dll
 0001:0002a22e       _GetCurrentThreadId@0      1002b22e f   kernel32:KERNEL32.dll
 0001:0002a234       _DisableThreadLibraryCalls@4 1002b234 f   kernel32:KERNEL32.dll
 0001:0002a23a       _FreeLibrary@4             1002b23a f   kernel32:KERNEL32.dll
 0001:0002a240       _GetModuleFileNameW@12     1002b240 f   kernel32:KERNEL32.dll
 0001:0002a246       _GetModuleHandleW@4        1002b246 f   kernel32:KERNEL32.dll
 0001:0002a24c       _GetProcAddress@8          1002b24c f   kernel32:KERNEL32.dll
 0001:0002a252       _LoadLibraryExW@12         1002b252 f   kernel32:KERNEL32.dll
 0001:0002a258       _LoadResource@8            1002b258 f   kernel32:KERNEL32.dll
 0001:0002a25e       _SizeofResource@8          1002b25e f   kernel32:KERNEL32.dll
 0001:0002a264       _FindResourceW@12          1002b264 f   kernel32:KERNEL32.dll
 0001:0002a26a       _GlobalAlloc@8             1002b26a f   kernel32:KERNEL32.dll
 0001:0002a270       _GlobalUnlock@4            1002b270 f   kernel32:KERNEL32.dll
 0001:0002a276       _GlobalLock@4              1002b276 f   kernel32:KERNEL32.dll
 0001:0002a27c       _MulDiv@12                 1002b27c f   kernel32:KERNEL32.dll
 0001:0002a282       _lstrcmpiW@8               1002b282 f   kernel32:KERNEL32.dll
 0001:0002a288       _DeleteFileW@4             1002b288 f   kernel32:KERNEL32.dll
 0001:0002a28e       _CloseHandle@4             1002b28e f   kernel32:KERNEL32.dll
 0001:0002a294       _SetEvent@4                1002b294 f   kernel32:KERNEL32.dll
 0001:0002a29a       _CreateMutexW@12           1002b29a f   kernel32:KERNEL32.dll
 0001:0002a2a0       _CreateEventW@16           1002b2a0 f   kernel32:KERNEL32.dll
 0001:0002a2a6       _GetCurrentProcessId@0     1002b2a6 f   kernel32:KERNEL32.dll
 0001:0002a2ac       _LocalFree@4               1002b2ac f   kernel32:KERNEL32.dll
 0001:0002a2b2       _FormatMessageW@28         1002b2b2 f   kernel32:KERNEL32.dll
 0001:0002a2b8       _GetActiveWindow@0         1002b2b8 f   user32:USER32.dll
 0001:0002a2be       _MessageBoxW@16            1002b2be f   user32:USER32.dll
 0001:0002a2c4       _UnregisterClassW@8        1002b2c4 f   user32:USER32.dll
 0001:0002a2ca       _PostMessageW@16           1002b2ca f   user32:USER32.dll
 0001:0002a2d0       _DefWindowProcW@16         1002b2d0 f   user32:USER32.dll
 0001:0002a2d6       _CallWindowProcW@20        1002b2d6 f   user32:USER32.dll
 0001:0002a2dc       _RegisterClassExW@4        1002b2dc f   user32:USER32.dll
 0001:0002a2e2       _GetClassInfoExW@12        1002b2e2 f   user32:USER32.dll
 0001:0002a2e8       _CreateWindowExW@48        1002b2e8 f   user32:USER32.dll
 0001:0002a2ee       _IsWindow@4                1002b2ee f   user32:USER32.dll
 0001:0002a2f4       _IsChild@8                 1002b2f4 f   user32:USER32.dll
 0001:0002a2fa       _DestroyWindow@4           1002b2fa f   user32:USER32.dll
 0001:0002a300       _ShowWindow@8              1002b300 f   user32:USER32.dll
 0001:0002a306       _SetWindowPos@28           1002b306 f   user32:USER32.dll
 0001:0002a30c       _CharNextW@4               1002b30c f   user32:USER32.dll
 0001:0002a312       _SetFocus@4                1002b312 f   user32:USER32.dll
 0001:0002a318       _GetFocus@0                1002b318 f   user32:USER32.dll
 0001:0002a31e       _GetKeyState@4             1002b31e f   user32:USER32.dll
 0001:0002a324       _GetDC@4                   1002b324 f   user32:USER32.dll
 0001:0002a32a       _ReleaseDC@8               1002b32a f   user32:USER32.dll
 0001:0002a330       _BeginPaint@8              1002b330 f   user32:USER32.dll
 0001:0002a336       _EndPaint@8                1002b336 f   user32:USER32.dll
 0001:0002a33c       _SetWindowRgn@12           1002b33c f   user32:USER32.dll
 0001:0002a342       _InvalidateRect@12         1002b342 f   user32:USER32.dll
 0001:0002a348       _GetClientRect@8           1002b348 f   user32:USER32.dll
 0001:0002a34e       _IntersectRect@12          1002b34e f   user32:USER32.dll
 0001:0002a354       _UnionRect@12              1002b354 f   user32:USER32.dll
 0001:0002a35a       _OffsetRect@12             1002b35a f   user32:USER32.dll
 0001:0002a360       _EqualRect@8               1002b360 f   user32:USER32.dll
 0001:0002a366       _PtInRect@12               1002b366 f   user32:USER32.dll
 0001:0002a36c       _GetWindowLongW@8          1002b36c f   user32:USER32.dll
 0001:0002a372       _SetWindowLongW@12         1002b372 f   user32:USER32.dll
 0001:0002a378       _GetParent@4               1002b378 f   user32:USER32.dll
 0001:0002a37e       _LoadCursorW@8             1002b37e f   user32:USER32.dll
 0001:0002a384       _PeekMessageW@20           1002b384 f   user32:USER32.dll
 0001:0002a38a       _RegisterClassW@4          1002b38a f   user32:USER32.dll
 0001:0002a390       _LoadBitmapW@8             1002b390 f   user32:USER32.dll
 0001:0002a396       _CloseMetaFile@4           1002b396 f   gdi32:GDI32.dll
 0001:0002a39c       _CreateDCW@16              1002b39c f   gdi32:GDI32.dll
 0001:0002a3a2       _CreateMetaFileW@4         1002b3a2 f   gdi32:GDI32.dll
 0001:0002a3a8       _CreateRectRgnIndirect@4   1002b3a8 f   gdi32:GDI32.dll
 0001:0002a3ae       _DeleteDC@4                1002b3ae f   gdi32:GDI32.dll
 0001:0002a3b4       _DeleteMetaFile@4          1002b3b4 f   gdi32:GDI32.dll
 0001:0002a3ba       _GetDeviceCaps@8           1002b3ba f   gdi32:GDI32.dll
 0001:0002a3c0       _RestoreDC@8               1002b3c0 f   gdi32:GDI32.dll
 0001:0002a3c6       _SaveDC@4                  1002b3c6 f   gdi32:GDI32.dll
 0001:0002a3cc       _SetMapMode@8              1002b3cc f   gdi32:GDI32.dll
 0001:0002a3d2       _LPtoDP@12                 1002b3d2 f   gdi32:GDI32.dll
 0001:0002a3d8       _SetViewportOrgEx@16       1002b3d8 f   gdi32:GDI32.dll
 0001:0002a3de       _SetWindowExtEx@16         1002b3de f   gdi32:GDI32.dll
 0001:0002a3e4       _SetWindowOrgEx@16         1002b3e4 f   gdi32:GDI32.dll
 0001:0002a3ea       _BitBlt@36                 1002b3ea f   gdi32:GDI32.dll
 0001:0002a3f0       _CreateCompatibleDC@4      1002b3f0 f   gdi32:GDI32.dll
 0001:0002a3f6       _DeleteObject@4            1002b3f6 f   gdi32:GDI32.dll
 0001:0002a3fc       _SelectObject@8            1002b3fc f   gdi32:GDI32.dll
 0001:0002a402       _GetObjectW@12             1002b402 f   gdi32:GDI32.dll
 0001:0002a408       _RegCloseKey@4             1002b408 f   advapi32:ADVAPI32.dll
 0001:0002a40e       _RegCreateKeyExW@36        1002b40e f   advapi32:ADVAPI32.dll
 0001:0002a414       _RegDeleteKeyW@8           1002b414 f   advapi32:ADVAPI32.dll
 0001:0002a41a       _RegDeleteValueW@8         1002b41a f   advapi32:ADVAPI32.dll
 0001:0002a420       _RegEnumKeyExW@32          1002b420 f   advapi32:ADVAPI32.dll
 0001:0002a426       _RegOpenKeyExW@20          1002b426 f   advapi32:ADVAPI32.dll
 0001:0002a42c       _RegQueryInfoKeyW@48       1002b42c f   advapi32:ADVAPI32.dll
 0001:0002a432       _RegSetValueExW@24         1002b432 f   advapi32:ADVAPI32.dll
 0001:0002a438       _RegQueryValueExW@24       1002b438 f   advapi32:ADVAPI32.dll
 0001:0002a43e       _CoCreateInstance@20       1002b43e f   ole32:ole32.dll
 0001:0002a444       _StringFromGUID2@12        1002b444 f   ole32:ole32.dll
 0001:0002a44a       _CoTaskMemAlloc@4          1002b44a f   ole32:ole32.dll
 0001:0002a450       _CoTaskMemRealloc@8        1002b450 f   ole32:ole32.dll
 0001:0002a456       _CoTaskMemFree@4           1002b456 f   ole32:ole32.dll
 0001:0002a45c       _ReadClassStm@8            1002b45c f   ole32:ole32.dll
 0001:0002a462       _WriteClassStm@8           1002b462 f   ole32:ole32.dll
 0001:0002a468       _CreateDataAdviseHolder@4  1002b468 f   ole32:ole32.dll
 0001:0002a46e       _OleSaveToStream@8         1002b46e f   ole32:ole32.dll
 0001:0002a474       _CreateOleAdviseHolder@4   1002b474 f   ole32:ole32.dll
 0001:0002a47a       _OleRegGetUserType@12      1002b47a f   ole32:ole32.dll
 0001:0002a480       _OleRegGetMiscStatus@12    1002b480 f   ole32:ole32.dll
 0001:0002a486       _OleRegEnumVerbs@8         1002b486 f   ole32:ole32.dll
 0001:0002a48c       _CLSIDFromProgID@8         1002b48c f   ole32:ole32.dll
 0001:0002a492       _SysAllocString@4          1002b492 f   oleaut32:OLEAUT32.dll
 0001:0002a498       _SysAllocStringLen@8       1002b498 f   oleaut32:OLEAUT32.dll
 0001:0002a49e       _SysFreeString@4           1002b49e f   oleaut32:OLEAUT32.dll
 0001:0002a4a4       _SysStringLen@4            1002b4a4 f   oleaut32:OLEAUT32.dll
 0001:0002a4aa       _VariantClear@4            1002b4aa f   oleaut32:OLEAUT32.dll
 0001:0002a4b0       _VariantCopyInd@8          1002b4b0 f   oleaut32:OLEAUT32.dll
 0001:0002a4b6       _VariantChangeType@16      1002b4b6 f   oleaut32:OLEAUT32.dll
 0001:0002a4bc       _SysStringByteLen@4        1002b4bc f   oleaut32:OLEAUT32.dll
 0001:0002a4c2       _SysAllocStringByteLen@8   1002b4c2 f   oleaut32:OLEAUT32.dll
 0001:0002a4c8       _VariantInit@4             1002b4c8 f   oleaut32:OLEAUT32.dll
 0001:0002a4ce       _VarUI4FromStr@16          1002b4ce f   oleaut32:OLEAUT32.dll
 0001:0002a4d4       _LoadTypeLib@8             1002b4d4 f   oleaut32:OLEAUT32.dll
 0001:0002a4da       _LoadRegTypeLib@20         1002b4da f   oleaut32:OLEAUT32.dll
 0001:0002a4e0       _RegisterTypeLib@12        1002b4e0 f   oleaut32:OLEAUT32.dll
 0001:0002a4e6       _UnRegisterTypeLib@20      1002b4e6 f   oleaut32:OLEAUT32.dll
 0001:0002a4ec       _OleCreatePropertyFrame@44 1002b4ec f   oleaut32:OLEAUT32.dll
 0001:0002a500       @_RTC_AllocaHelper@12      1002b500 f   LIBCMTD:stack.obj
 0001:0002a540       @_RTC_CheckStackVars2@12   1002b540 f   LIBCMTD:stack.obj
 0001:0002a620       @_RTC_CheckStackVars@8     1002b620 f   LIBCMTD:stack.obj
 0001:0002a680       __RTC_CheckEsp             1002b680 f   LIBCMTD:stack.obj
 0001:0002a6c0       @__security_check_cookie@4 1002b6c0 f   LIBCMTD:secchk.obj
 0001:0002a6e0       __CRT_RTC_INIT             1002b6e0 f   LIBCMTD:init.obj
 0001:0002a6f0       __CRT_RTC_INITW            1002b6f0 f   LIBCMTD:init.obj
 0001:0002a700       __RTC_InitBase             1002b700 f   LIBCMTD:init.obj
 0001:0002a730       __RTC_Shutdown             1002b730 f   LIBCMTD:init.obj
 0001:0002a750       ??_U@YAPAXI@Z              1002b750 f   LIBCMTD:new_array.obj
 0001:0002a770       ??3@YAXPAXI@Z              1002b770 f   LIBCMTD:delete_scalar_size.obj
 0001:0002a790       ??_V@YAXPAX@Z              1002b790 f   LIBCMTD:delete_array.obj
 0001:0002a7b0       ??_V@YAXPAXI@Z             1002b7b0 f   LIBCMTD:delete_array_size.obj
 0001:0002a7d0       ?configure_argv@__scrt_narrow_argv_policy@@SAHXZ 1002b7d0 f i LIBCMTD:utility.obj
 0001:0002a880       ?initialize_environment@__scrt_narrow_environment_policy@@SAHXZ 1002b880 f i LIBCMTD:utility.obj
 0001:0002a900       _NtCurrentTeb              1002b900 f i LIBCMTD:utility.obj
 0001:0002a910       ___scrt_acquire_startup_lock 1002b910 f   LIBCMTD:utility.obj
 0001:0002a960       ___scrt_dllmain_after_initialize_c 1002b960 f   LIBCMTD:utility.obj
 0001:0002a990       ___scrt_dllmain_before_initialize_c 1002b990 f   LIBCMTD:utility.obj
 0001:0002a9b0       ___scrt_dllmain_crt_thread_attach 1002b9b0 f   LIBCMTD:utility.obj
 0001:0002a9e0       ___scrt_dllmain_crt_thread_detach 1002b9e0 f   LIBCMTD:utility.obj
 0001:0002aa00       ___scrt_dllmain_exception_filter 1002ba00 f   LIBCMTD:utility.obj
 0001:0002aa50       ___scrt_dllmain_uninitialize_c 1002ba50 f   LIBCMTD:utility.obj
 0001:0002aa80       ___scrt_dllmain_uninitialize_critical 1002ba80 f   LIBCMTD:utility.obj
 0001:0002aaa0       ___scrt_initialize_crt     1002baa0 f   LIBCMTD:utility.obj
 0001:0002aaf0       ___scrt_initialize_onexit_tables 1002baf0 f   LIBCMTD:utility.obj
 0001:0002abd0       ___scrt_is_nonwritable_in_current_image 1002bbd0 f   LIBCMTD:utility.obj
 0001:0002ad00       ___scrt_release_startup_lock 1002bd00 f   LIBCMTD:utility.obj
 0001:0002ad30       ___scrt_uninitialize_crt   1002bd30 f   LIBCMTD:utility.obj
 0001:0002ad70       __onexit                   1002bd70 f   LIBCMTD:utility.obj
 0001:0002ade0       _at_quick_exit             1002bde0 f   LIBCMTD:utility.obj
 0001:0002ae20       _atexit                    1002be20 f   LIBCMTD:utility.obj
 0001:0002ae50       ??3@YAXPAX@Z               1002be50 f   LIBCMTD:delete_scalar.obj
 0001:0002ae70       ___raise_securityfailure   1002be70 f   LIBCMTD:gs_report.obj
 0001:0002aea0       ___report_gsfailure        1002bea0 f   LIBCMTD:gs_report.obj
 0001:0002afb0       ___report_rangecheckfailure 1002bfb0 f   LIBCMTD:gs_report.obj
 0001:0002afc0       ___report_securityfailure  1002bfc0 f   LIBCMTD:gs_report.obj
 0001:0002b0a0       ___report_securityfailureEx 1002c0a0 f   LIBCMTD:gs_report.obj
 0001:0002b2f0       __Init_thread_abort        1002c2f0 f   LIBCMTD:thread_safe_statics.obj
 0001:0002b310       __Init_thread_footer       1002c310 f   LIBCMTD:thread_safe_statics.obj
 0001:0002b360       __Init_thread_header       1002c360 f   LIBCMTD:thread_safe_statics.obj
 0001:0002b3d0       __Init_thread_lock         1002c3d0 f   LIBCMTD:thread_safe_statics.obj
 0001:0002b3e0       __Init_thread_notify       1002c3e0 f   LIBCMTD:thread_safe_statics.obj
 0001:0002b430       __Init_thread_unlock       1002c430 f   LIBCMTD:thread_safe_statics.obj
 0001:0002b440       __Init_thread_wait         1002c440 f   LIBCMTD:thread_safe_statics.obj
 0001:0002b4d0       ??2@YAPAXIABUnothrow_t@std@@@Z 1002c4d0 f   LIBCMTD:new_scalar_nothrow.obj
 0001:0002b560       ??_U@YAPAXIABUnothrow_t@std@@@Z 1002c560 f   LIBCMTD:new_array_nothrow.obj
 0001:0002b580       __allmul                   1002c580 f   LIBCMTD:llmul.obj
 0001:0002b5c0       __alloca_probe_16          1002c5c0 f   LIBCMTD:alloca16.obj
 0001:0002b5d6       __alloca_probe_8           1002c5d6     LIBCMTD:alloca16.obj
 0001:0002b5f0       __alloca_probe             1002c5f0 f   LIBCMTD:chkstk.obj
 0001:0002b5f0       __chkstk                   1002c5f0 f   LIBCMTD:chkstk.obj
 0001:0002baf0       __CRT_INIT@12              1002caf0 f   LIBCMTD:dll_dllmain.obj
 0001:0002bb10       __DllMainCRTStartup@12     1002cb10 f   LIBCMTD:dll_dllmain.obj
 0001:0002bbd0       ?_RTC_AllocaFailure@@YAXPAXPAU_RTC_ALLOCA_NODE@@H@Z 1002cbd0 f   LIBCMTD:error.obj
 0001:0002bcc0       ?_RTC_Failure@@YAXPAXH@Z   1002ccc0 f   LIBCMTD:error.obj
 0001:0002bd10       ?_RTC_StackFailure@@YAXPAXPBD@Z 1002cd10 f   LIBCMTD:error.obj
 0001:0002c0d0       __RTC_UninitUse            1002d0d0 f   LIBCMTD:error.obj
 0001:0002c180       __vsprintf_s_l             1002d180 f i LIBCMTD:error.obj
 0001:0002c1b0       _sprintf_s                 1002d1b0 f i LIBCMTD:error.obj
 0001:0002c1d0       ?_RTC_GetErrorFunc@@YAP6AHHPBDH00ZZPBX@Z 1002d1d0 f   LIBCMTD:userapi.obj
 0001:0002c1e0       ?_RTC_GetErrorFuncW@@YAP6AHHPB_WH00ZZPBX@Z 1002d1e0 f   LIBCMTD:userapi.obj
 0001:0002c1f0       __RTC_GetErrDesc           1002d1f0 f   LIBCMTD:userapi.obj
 0001:0002c210       __RTC_NumErrors            1002d210 f   LIBCMTD:userapi.obj
 0001:0002c220       __RTC_SetErrorFunc         1002d220 f   LIBCMTD:userapi.obj
 0001:0002c240       __RTC_SetErrorFuncW        1002d240 f   LIBCMTD:userapi.obj
 0001:0002c260       __RTC_SetErrorType         1002d260 f   LIBCMTD:userapi.obj
 0001:0002c290       ??2@YAPAXI@Z               1002d290 f   LIBCMTD:new_scalar.obj
 0001:0002c2e0       ___isa_available_init      1002d2e0 f   LIBCMTD:cpu_disp.obj
 0001:0002c620       __get_startup_argv_mode    1002d620 f   LIBCMTD:argv_mode.obj
 0001:0002c630       ___scrt_is_ucrt_dll_in_use 1002d630 f   LIBCMTD:ucrt_detection.obj
 0001:0002c660       ___scrt_fastfail           1002d660 f   LIBCMTD:utility_desktop.obj
 0001:0002c7a0       ___scrt_get_show_window_mode 1002d7a0 f   LIBCMTD:utility_desktop.obj
 0001:0002c7e0       ___scrt_initialize_mta     1002d7e0 f   LIBCMTD:utility_desktop.obj
 0001:0002c7f0       ___scrt_initialize_winrt   1002d7f0 f   LIBCMTD:utility_desktop.obj
 0001:0002c800       ___scrt_is_managed_app     1002d800 f   LIBCMTD:utility_desktop.obj
 0001:0002c890       ___scrt_set_unhandled_exception_filter 1002d890 f   LIBCMTD:utility_desktop.obj
 0001:0002c8a0       ___scrt_exe_initialize_mta 1002d8a0 f   LIBCMTD:utility_desktop.obj
 0001:0002c8a0       ___scrt_stub_for_initialize_mta 1002d8a0 f   LIBCMTD:utility_desktop.obj
 0001:0002c8b0       ___scrt_unhandled_exception_filter@4 1002d8b0 f   LIBCMTD:utility_desktop.obj
 0001:0002c930       __crt_debugger_hook        1002d930 f   LIBCMTD:utility_desktop.obj
 0001:0002c940       @_guard_check_icall_nop@4  1002d940 f i LIBCMTD:guard_support.obj
 0001:0002c950       _ReadNoFence               1002d950 f i LIBCMTD:guard_support.obj
 0001:0002c970       _ReadPointerNoFence        1002d970 f i LIBCMTD:guard_support.obj
 0001:0002c990       ___castguard_check_failure_debugbreak 1002d990 f i LIBCMTD:guard_support.obj
 0001:0002c9b0       ___castguard_check_failure_fastfail 1002d9b0 f i LIBCMTD:guard_support.obj
 0001:0002c9d0       ___castguard_check_failure_nop 1002d9d0 f i LIBCMTD:guard_support.obj
 0001:0002c9e0       ___castguard_check_failure_os_handled 1002d9e0 f i LIBCMTD:guard_support.obj
 0001:0002ca60       ___castguard_slow_path_check_debugbreak 1002da60 f i LIBCMTD:guard_support.obj
 0001:0002ca90       ___castguard_slow_path_check_fastfail 1002da90 f i LIBCMTD:guard_support.obj
 0001:0002cad0       ___castguard_slow_path_check_nop 1002dad0 f i LIBCMTD:guard_support.obj
 0001:0002cae0       ___castguard_slow_path_check_os_handled 1002dae0 f i LIBCMTD:guard_support.obj
 0001:0002cb80       __guard_icall_checks_enforced 1002db80 f i LIBCMTD:guard_support.obj
 0001:0002cc20       ___security_init_cookie    1002dc20 f   LIBCMTD:gs_support.obj
 0001:0002cca0       ?__scrt_initialize_type_info@@YAXXZ 1002dca0 f   LIBCMTD:tncleanup.obj
 0001:0002ccb0       ?__scrt_uninitialize_type_info@@YAXXZ 1002dcb0 f   LIBCMTD:tncleanup.obj
 0001:0002ccd0       ___local_stdio_scanf_options 1002dcd0 f i LIBCMTD:default_local_stdio_options.obj
 0001:0002cce0       ___scrt_initialize_default_local_stdio_options 1002dce0 f   LIBCMTD:default_local_stdio_options.obj
 0001:0002cd20       ___scrt_get_dyn_tls_init_callback 1002dd20 f   LIBCMTD:dyn_tls_init.obj
 0001:0002cd30       __RTC_Initialize           1002dd30 f   LIBCMTD:initsect.obj
 0001:0002cd60       __RTC_Terminate            1002dd60 f   LIBCMTD:initsect.obj
 0001:0002d210       ?_RTC_GetSrcLine@@YAHPAEPA_WKPAH1K@Z 1002e210 f   LIBCMTD:pdblkup.obj
 0001:0002d590       __except_handler4_noexcept 1002e590 f   LIBCMTD:chandler4_noexcept.obj
 0001:0002d5f0       ??0bad_alloc@std@@AAE@QBD@Z 1002e5f0 f i LIBCMTD:throw_bad_alloc.obj
 0001:0002d620       ??0bad_alloc@std@@QAE@ABV01@@Z 1002e620 f i LIBCMTD:throw_bad_alloc.obj
 0001:0002d650       ??0bad_alloc@std@@QAE@XZ   1002e650 f i LIBCMTD:throw_bad_alloc.obj
 0001:0002d680       ??0bad_array_new_length@std@@QAE@ABV01@@Z 1002e680 f i LIBCMTD:throw_bad_alloc.obj
 0001:0002d6b0       ??0bad_array_new_length@std@@QAE@XZ 1002e6b0 f i LIBCMTD:throw_bad_alloc.obj
 0001:0002d6e0       ??0exception@std@@QAE@ABV01@@Z 1002e6e0 f i LIBCMTD:throw_bad_alloc.obj
 0001:0002d720       ??0exception@std@@QAE@QBDH@Z 1002e720 f i LIBCMTD:throw_bad_alloc.obj
 0001:0002d750       ??1bad_alloc@std@@UAE@XZ   1002e750 f i LIBCMTD:throw_bad_alloc.obj
 0001:0002d770       ??1bad_array_new_length@std@@UAE@XZ 1002e770 f i LIBCMTD:throw_bad_alloc.obj
 0001:0002d790       ??1exception@std@@UAE@XZ   1002e790 f i LIBCMTD:throw_bad_alloc.obj
 0001:0002d7c0       ??_Gbad_alloc@std@@UAEPAXI@Z 1002e7c0 f i LIBCMTD:throw_bad_alloc.obj
 0001:0002d7c0       ??_Ebad_alloc@std@@UAEPAXI@Z 1002e7c0 f i LIBCMTD:throw_bad_alloc.obj
 0001:0002d7f0       ??_Gbad_array_new_length@std@@UAEPAXI@Z 1002e7f0 f i LIBCMTD:throw_bad_alloc.obj
 0001:0002d7f0       ??_Ebad_array_new_length@std@@UAEPAXI@Z 1002e7f0 f i LIBCMTD:throw_bad_alloc.obj
 0001:0002d820       ??_Eexception@std@@UAEPAXI@Z 1002e820 f i LIBCMTD:throw_bad_alloc.obj
 0001:0002d820       ??_Gexception@std@@UAEPAXI@Z 1002e820 f i LIBCMTD:throw_bad_alloc.obj
 0001:0002d850       ?__scrt_throw_std_bad_alloc@@YAXXZ 1002e850 f   LIBCMTD:throw_bad_alloc.obj
 0001:0002d870       ?__scrt_throw_std_bad_array_new_length@@YAXXZ 1002e870 f   LIBCMTD:throw_bad_alloc.obj
 0001:0002d890       ?what@exception@std@@UBEPBDXZ 1002e890 f i LIBCMTD:throw_bad_alloc.obj
 0001:0002d8c0       ??1type_info@@UAE@XZ       1002e8c0 f   LIBCMTD:std_type_info_static.obj
 0001:0002d8e0       ??_Gtype_info@@UAEPAXI@Z   1002e8e0 f i LIBCMTD:std_type_info_static.obj
 0001:0002d8e0       ??_Etype_info@@UAEPAXI@Z   1002e8e0 f i LIBCMTD:std_type_info_static.obj
 0001:0002d90e       ??$?2PAUHINSTANCE__@@@Wrapper@?$CSimpleArray@PAUHINSTANCE__@@V?$CSimpleArrayEqualHelper@PAUHINSTANCE__@@@ATL@@@ATL@@SAPAXIPAPAUHINSTANCE__@@@Z 1002e90e f i atls:atlbase.obj
 0001:0002d916       ??0?$CSimpleArray@PAUHINSTANCE__@@V?$CSimpleArrayEqualHelper@PAUHINSTANCE__@@@ATL@@@ATL@@QAE@XZ 1002e916 f i atls:atlbase.obj
 0001:0002d923       ??0CAtlBaseModule@ATL@@QAE@XZ 1002e923 f   atls:atlbase.obj
 0001:0002d976       ??0Wrapper@?$CSimpleArray@PAUHINSTANCE__@@V?$CSimpleArrayEqualHelper@PAUHINSTANCE__@@@ATL@@@ATL@@QAE@ABQAUHINSTANCE__@@@Z 1002e976 f i atls:atlbase.obj
 0001:0002d986       ??0_ATL_BASE_MODULE70@ATL@@QAE@XZ 1002e986 f i atls:atlbase.obj
 0001:0002d9a9       ??1?$CSimpleArray@PAUHINSTANCE__@@V?$CSimpleArrayEqualHelper@PAUHINSTANCE__@@@ATL@@@ATL@@QAE@XZ 1002e9a9 f i atls:atlbase.obj
 0001:0002d9ae       ??1CAtlBaseModule@ATL@@QAE@XZ 1002e9ae f   atls:atlbase.obj
 0001:0002d9c4       ??1_ATL_BASE_MODULE70@ATL@@QAE@XZ 1002e9c4 f i atls:atlbase.obj
 0001:0002d9cc       ??A?$CSimpleArray@PAUHINSTANCE__@@V?$CSimpleArrayEqualHelper@PAUHINSTANCE__@@@ATL@@@ATL@@QAEAAPAUHINSTANCE__@@H@Z 1002e9cc f i atls:atlbase.obj
 0001:0002d9f1       ?Add@?$CSimpleArray@PAUHINSTANCE__@@V?$CSimpleArrayEqualHelper@PAUHINSTANCE__@@@ATL@@@ATL@@QAEHABQAUHINSTANCE__@@@Z 1002e9f1 f i atls:atlbase.obj
 0001:0002da73       ?AddResourceInstance@CAtlBaseModule@ATL@@QAE_NPAUHINSTANCE__@@@Z 1002ea73 f   atls:atlbase.obj
 0001:0002daa6       ?GetHInstanceAt@CAtlBaseModule@ATL@@QAEPAUHINSTANCE__@@H@Z 1002eaa6 f   atls:atlbase.obj
 0001:0002daeb       ?GetSize@?$CSimpleArray@PAUHINSTANCE__@@V?$CSimpleArrayEqualHelper@PAUHINSTANCE__@@@ATL@@@ATL@@QBEHXZ 1002eaeb f i atls:atlbase.obj
 0001:0002daef       ?InternalSetAtIndex@?$CSimpleArray@PAUHINSTANCE__@@V?$CSimpleArrayEqualHelper@PAUHINSTANCE__@@@ATL@@@ATL@@QAEXHABQAUHINSTANCE__@@@Z 1002eaef f i atls:atlbase.obj
 0001:0002db09       ?RemoveAll@?$CSimpleArray@PAUHINSTANCE__@@V?$CSimpleArrayEqualHelper@PAUHINSTANCE__@@@ATL@@@ATL@@QAEXXZ 1002eb09 f i atls:atlbase.obj
 0001:0002db26       ?RemoveAt@?$CSimpleArray@PAUHINSTANCE__@@V?$CSimpleArrayEqualHelper@PAUHINSTANCE__@@@ATL@@@ATL@@QAEHH@Z 1002eb26 f i atls:atlbase.obj
 0001:0002db74       ?RemoveResourceInstance@CAtlBaseModule@ATL@@QAE_NPAUHINSTANCE__@@@Z 1002eb74 f   atls:atlbase.obj
 0001:0002dbd1       ?memmove_s@Checked@ATL@@YAXPAXIPBXI@Z 1002ebd1 f i atls:atlbase.obj
 0001:0002df2e       ?GetCodeAddress@_stdcallthunk@ATL@@QAEPAXXZ 1002ef2e f i atls:atlthunk.obj
 0001:0002df58       ?Init@_stdcallthunk@ATL@@QAEHKPAX@Z 1002ef58 f i atls:atlthunk.obj
 0001:0002df8d       ?__AllocStdCallThunk@@YGPAXXZ 1002ef8d f   atls:atlthunk.obj
 0001:0002df92       ?__AllocStdCallThunk@ATL@@YGPAXXZ 1002ef92 f   atls:atlthunk.obj
 0001:0002df97       ?__AllocStdCallThunk_cmn@@YAPAXXZ 1002ef97 f   atls:atlthunk.obj
 0001:0002e05d       ?__FreeStdCallThunk@@YGXPAX@Z 1002f05d f   atls:atlthunk.obj
 0001:0002e06d       ?__FreeStdCallThunk@ATL@@YGXPAX@Z 1002f06d f   atls:atlthunk.obj
 0001:0002e07d       ?__FreeStdCallThunk_cmn@@YAXPAX@Z 1002f07d f   atls:atlthunk.obj
 0001:0002e118       _AtlThunk_AllocateData@0   1002f118 f   atls:atlthunk.obj
 0001:0002e17d       _AtlThunk_DataToCode@4     1002f17d f   atls:atlthunk.obj
 0001:0002e1c4       _AtlThunk_FreeData@4       1002f1c4 f   atls:atlthunk.obj
 0001:0002e21a       _AtlThunk_InitData@12      1002f21a f   atls:atlthunk.obj
 0001:0002e269       _MemoryBarrier             1002f269 f i atls:atlthunk.obj
 0001:0002e277       __InlineInterlockedCompareExchangePointer 1002f277 f i atls:atlthunk.obj
 0001:0002e290       _memset                    1002f290 f   libvcruntimed:memset.obj
 0001:0002e3f0       ??$__crt_interlocked_exchange_pointer@$$A6AXXZP6AXXZ@@YAP6AXXZPDS6AXXZQ6AXXZ@Z 1002f3f0 f i libvcruntimed:purevirt.obj
 0001:0002e400       ??$__crt_interlocked_read_pointer@$$A6AXXZ@@YAP6AXXZPDS6AXXZ@Z 1002f400 f i libvcruntimed:purevirt.obj
 0001:0002e420       ?__crt_interlocked_read_32@@YAHPDH@Z 1002f420 f i libvcruntimed:purevirt.obj
 0001:0002e440       __get_purecall_handler     1002f440 f   libvcruntimed:purevirt.obj
 0001:0002e460       __purecall                 1002f460 f   libvcruntimed:purevirt.obj
 0001:0002e490       __set_purecall_handler     1002f490 f   libvcruntimed:purevirt.obj
 0001:0002e660       _memcmp                    1002f660 f   libvcruntimed:memcmp.obj
 0001:0002ef30       _memcpy                    1002ff30 f   libvcruntimed:memcpy.obj
 0001:0002f4b0       _wcsstr                    100304b0 f   libvcruntimed:wcsstr.obj
 0001:0002f9e0       __except_handler4          100309e0 f   libvcruntimed:chandler4.obj
 0001:0002fbd0       ___vcrt_initialize         10030bd0 f   libvcruntimed:initialization.obj
 0001:0002fc10       ___vcrt_thread_attach      10030c10 f   libvcruntimed:initialization.obj
 0001:0002fc30       ___vcrt_thread_detach      10030c30 f   libvcruntimed:initialization.obj
 0001:0002fc50       ___vcrt_uninitialize       10030c50 f   libvcruntimed:initialization.obj
 0001:0002fc70       ___vcrt_uninitialize_critical 10030c70 f   libvcruntimed:initialization.obj
 0001:0002fc90       ??$?0AAViterator@TryBlockMap@__FrameHandler3@@AAV012@$0A@@?$pair@Viterator@TryBlockMap@__FrameHandler3@@V123@@std@@QAE@AAViterator@TryBlockMap@__FrameHandler3@@0@Z 10030c90 f i libvcruntimed:trnsctrl.obj
 0001:0002fce0       ??$forward@AAViterator@TryBlockMap@__FrameHandler3@@@std@@YAAAViterator@TryBlockMap@__FrameHandler3@@AAV123@@Z 10030ce0 f i libvcruntimed:trnsctrl.obj
 0001:0002fcf0       ??0iterator@TryBlockMap@__FrameHandler3@@QAE@AAV12@I@Z 10030cf0 f i libvcruntimed:trnsctrl.obj
 0001:0002fd20       ?GetRangeOfTrysToCheck@__FrameHandler3@@SA?AU?$pair@Viterator@TryBlockMap@__FrameHandler3@@V123@@std@@AAVTryBlockMap@1@HPAXPBU_s_FuncInfo@@H@Z 10030d20 f   libvcruntimed:trnsctrl.obj
 0001:0002fe00       ?_CallCatchBlock2@@YAPAXPAUEHRegistrationNode@@PBU_s_FuncInfo@@PAXHK@Z 10030e00 f   libvcruntimed:trnsctrl.obj
 0001:0002fe70       ?_CallSETranslator@@YAHPAUEHExceptionRecord@@PAUEHRegistrationNode@@PAX2PBU_s_FuncInfo@@H1@Z 10030e70 f   libvcruntimed:trnsctrl.obj
 0001:0002ff70       ?_JumpToContinuation@@YGXPAXPAUEHRegistrationNode@@@Z 10030f70 f   libvcruntimed:trnsctrl.obj
 0001:0002ffb0       ?_UnwindNestedFrames@@YGXPAUEHRegistrationNode@@PAUEHExceptionRecord@@@Z 10030fb0 f   libvcruntimed:trnsctrl.obj
 0001:00030010       __CatchGuardHandler        10031010 f   libvcruntimed:trnsctrl.obj
 0001:00030060       __CreateFrameInfo          10031060 f   libvcruntimed:trnsctrl.obj
 0001:00030090       __FindAndUnlinkFrame       10031090 f   libvcruntimed:trnsctrl.obj
 0001:00030100       __TranslatorGuardHandler   10031100 f   libvcruntimed:trnsctrl.obj
 0001:000301b0       ___CxxFrameHandler         100311b0 f   libvcruntimed:trnsctrl.obj
 0001:000301f0       ___CxxFrameHandler2        100311f0 f   libvcruntimed:trnsctrl.obj
 0001:00030230       ___CxxFrameHandler3        10031230 f   libvcruntimed:trnsctrl.obj
 0001:00030270       ___CxxLongjmpUnwind@4      10031270 f   libvcruntimed:trnsctrl.obj
 0001:000302b0       ___DestructExceptionObject 100312b0 f   libvcruntimed:ehhelpers.obj
 0001:000303d0       ?_CallMemberFunction0@@YGXQAX0@Z 100313d0 f i libvcruntimed:ehhelpers.obj
 0001:00030470       ?raw_name@type_info@@QBEPBDXZ 10031470 f i libvcruntimed:ehhelpers.obj
 0001:00030490       __IsExceptionObjectToBeDestroyed 10031490 f   libvcruntimed:ehhelpers.obj
 0001:000304d0       __SetWinRTOutOfMemoryExceptionCallback 100314d0 f   libvcruntimed:ehhelpers.obj
 0001:000304e0       ___AdjustPointer           100314e0 f   libvcruntimed:ehhelpers.obj
 0001:00030530       ___FrameUnwindFilter       10031530 f   libvcruntimed:ehhelpers.obj
 0001:000305c0       ___GetPlatformExceptionInfo 100315c0 f   libvcruntimed:ehhelpers.obj
 0001:00030640       ___current_exception       10031640 f   libvcruntimed:ehhelpers.obj
 0001:00030650       ___current_exception_context 10031650 f   libvcruntimed:ehhelpers.obj
 0001:00030660       ___processing_throw        10031660 f   libvcruntimed:ehhelpers.obj
 0001:00030670       ___std_terminate           10031670 f   libvcruntimed:ehhelpers.obj
 0001:00030680       __is_exception_typeof      10031680 f   libvcruntimed:ehhelpers.obj
 0001:00030780       ??$?RD@__crt_internal_free_policy@@QBEXQBD@Z 10031780 f i libvcruntimed:std_type_info.obj
 0001:000307a0       ??$?RX@__crt_internal_free_policy@@QBEXQBX@Z 100317a0 f i libvcruntimed:std_type_info.obj
 0001:000307c0       ??$__crt_interlocked_compare_exchange_pointer@$$CBDPAD$$T@@YAPBDPDSBDQAD$$T@Z 100317c0 f i libvcruntimed:std_type_info.obj
 0001:000307e0       ??$__crt_interlocked_read_pointer@$$CBD@@YAPBDPDSBD@Z 100317e0 f i libvcruntimed:std_type_info.obj
 0001:00030800       ??0?$__crt_unique_heap_ptr@DU__crt_internal_free_policy@@@@QAE@QAD@Z 10031800 f i libvcruntimed:std_type_info.obj
 0001:00030820       ??0?$__crt_unique_heap_ptr@XU__crt_internal_free_policy@@@@QAE@QAX@Z 10031820 f i libvcruntimed:std_type_info.obj
 0001:00030840       ??1?$__crt_unique_heap_ptr@DU__crt_internal_free_policy@@@@QAE@XZ 10031840 f i libvcruntimed:std_type_info.obj
 0001:00030860       ??1?$__crt_unique_heap_ptr@XU__crt_internal_free_policy@@@@QAE@XZ 10031860 f i libvcruntimed:std_type_info.obj
 0001:00030880       ??B?$__crt_unique_heap_ptr@DU__crt_internal_free_policy@@@@QBE_NXZ 10031880 f i libvcruntimed:std_type_info.obj
 0001:000308a0       ??B?$__crt_unique_heap_ptr@XU__crt_internal_free_policy@@@@QBE_NXZ 100318a0 f i libvcruntimed:std_type_info.obj
 0001:00030930       ?detach@?$__crt_unique_heap_ptr@XU__crt_internal_free_policy@@@@QAEPAXXZ 10031930 f i libvcruntimed:std_type_info.obj
 0001:00030960       ?get@?$__crt_unique_heap_ptr@DU__crt_internal_free_policy@@@@QBEPADXZ 10031960 f i libvcruntimed:std_type_info.obj
 0001:00030970       ?get@?$__crt_unique_heap_ptr@XU__crt_internal_free_policy@@@@QBEPAXXZ 10031970 f i libvcruntimed:std_type_info.obj
 0001:00030980       ?is_valid@?$__crt_unique_heap_ptr@DU__crt_internal_free_policy@@@@QBE_NXZ 10031980 f i libvcruntimed:std_type_info.obj
 0001:000309b0       ?is_valid@?$__crt_unique_heap_ptr@XU__crt_internal_free_policy@@@@QBE_NXZ 100319b0 f i libvcruntimed:std_type_info.obj
 0001:000309e0       ?release@?$__crt_unique_heap_ptr@DU__crt_internal_free_policy@@@@QAEXXZ 100319e0 f i libvcruntimed:std_type_info.obj
 0001:00030a10       ?release@?$__crt_unique_heap_ptr@XU__crt_internal_free_policy@@@@QAEXXZ 10031a10 f i libvcruntimed:std_type_info.obj
 0001:00030a40       ___std_type_info_compare   10031a40 f   libvcruntimed:std_type_info.obj
 0001:00030a70       ___std_type_info_destroy_list 10031a70 f   libvcruntimed:std_type_info.obj
 0001:00030ab0       ___std_type_info_hash      10031ab0 f   libvcruntimed:std_type_info.obj
 0001:00030b10       ___std_type_info_name      10031b10 f   libvcruntimed:std_type_info.obj
 0001:00030cf0       ___vcrt_GetModuleFileNameW 10031cf0 f   libvcruntimed:winapi_thunks.obj
 0001:00030d10       ___vcrt_GetModuleHandleW   10031d10 f   libvcruntimed:winapi_thunks.obj
 0001:00030d20       ___vcrt_LoadLibraryExW     10031d20 f   libvcruntimed:winapi_thunks.obj
 0001:00030d40       ??$?RD@__crt_public_free_policy@@QBEXQBD@Z 10031d40 f i libvcruntimed:std_exception.obj
 0001:00030d60       ??0?$__crt_unique_heap_ptr@DU__crt_public_free_policy@@@@QAE@QAD@Z 10031d60 f i libvcruntimed:std_exception.obj
 0001:00030d80       ??1?$__crt_unique_heap_ptr@DU__crt_public_free_policy@@@@QAE@XZ 10031d80 f i libvcruntimed:std_exception.obj
 0001:00030da0       ??B?$__crt_unique_heap_ptr@DU__crt_public_free_policy@@@@QBE_NXZ 10031da0 f i libvcruntimed:std_exception.obj
 0001:00030dc0       ?detach@?$__crt_unique_heap_ptr@DU__crt_public_free_policy@@@@QAEPADXZ 10031dc0 f i libvcruntimed:std_exception.obj
 0001:00030df0       ?get@?$__crt_unique_heap_ptr@DU__crt_public_free_policy@@@@QBEPADXZ 10031df0 f i libvcruntimed:std_exception.obj
 0001:00030e00       ?is_valid@?$__crt_unique_heap_ptr@DU__crt_public_free_policy@@@@QBE_NXZ 10031e00 f i libvcruntimed:std_exception.obj
 0001:00030e30       ?release@?$__crt_unique_heap_ptr@DU__crt_public_free_policy@@@@QAEXXZ 10031e30 f i libvcruntimed:std_exception.obj
 0001:00030e60       ___std_exception_copy      10031e60 f   libvcruntimed:std_exception.obj
 0001:00030f50       ___std_exception_destroy   10031f50 f   libvcruntimed:std_exception.obj
 0001:00030f80       __CxxThrowException@8      10031f80 f   libvcruntimed:throw.obj
 0001:00031030       _memmove                   10032030 f   libvcruntimed:memmove.obj
 0001:000315b0       __local_unwind4            100325b0 f   libvcruntimed:exsup4.obj
 0001:00031684       __seh_longjmp_unwind4@4    10032684 f   libvcruntimed:exsup4.obj
 0001:000316ac       @_EH4_CallFilterFunc@8     100326ac f   libvcruntimed:exsup4.obj
 0001:000316c4       @_EH4_TransferToHandler@8  100326c4 f   libvcruntimed:exsup4.obj
 0001:000316e0       @_EH4_GlobalUnwind2@8      100326e0 f   libvcruntimed:exsup4.obj
 0001:000316fc       @_EH4_LocalUnwind@16       100326fc f   libvcruntimed:exsup4.obj
 0001:00031730       ___except_validate_context_record 10032730 f   libvcruntimed:jbcxrval.obj
 0001:00031780       ___except_validate_jump_buffer 10032780 f   libvcruntimed:jbcxrval.obj
 0001:000317a0       ___except_validate_jump_buffer_common 100327a0 f i libvcruntimed:jbcxrval.obj
 0001:00031800       ??$?RU__vcrt_ptd@@@__crt_internal_free_policy@@QBEXQBU__vcrt_ptd@@@Z 10032800 f i libvcruntimed:per_thread_data.obj
 0001:00031820       ??0?$__crt_unique_heap_ptr@U__vcrt_ptd@@U__crt_internal_free_policy@@@@QAE@QAU__vcrt_ptd@@@Z 10032820 f i libvcruntimed:per_thread_data.obj
 0001:00031860       ??1?$__crt_unique_heap_ptr@U__vcrt_ptd@@U__crt_internal_free_policy@@@@QAE@XZ 10032860 f i libvcruntimed:per_thread_data.obj
 0001:000318a0       ??B?$__crt_unique_heap_ptr@U__vcrt_ptd@@U__crt_internal_free_policy@@@@QBE_NXZ 100328a0 f i libvcruntimed:per_thread_data.obj
 0001:000318c0       ?detach@?$__crt_unique_heap_ptr@U__vcrt_ptd@@U__crt_internal_free_policy@@@@QAEPAU__vcrt_ptd@@XZ 100328c0 f i libvcruntimed:per_thread_data.obj
 0001:000318f0       ?get@?$__crt_unique_heap_ptr@U__vcrt_ptd@@U__crt_internal_free_policy@@@@QBEPAU__vcrt_ptd@@XZ 100328f0 f i libvcruntimed:per_thread_data.obj
 0001:00031900       ?is_valid@?$__crt_unique_heap_ptr@U__vcrt_ptd@@U__crt_internal_free_policy@@@@QBE_NXZ 10032900 f i libvcruntimed:per_thread_data.obj
 0001:00031930       ?release@?$__crt_unique_heap_ptr@U__vcrt_ptd@@U__crt_internal_free_policy@@@@QAEXXZ 10032930 f i libvcruntimed:per_thread_data.obj
 0001:00031990       ___vcrt_freefls@4          10032990 f   libvcruntimed:per_thread_data.obj
 0001:000319c0       ___vcrt_freeptd            100329c0 f   libvcruntimed:per_thread_data.obj
 0001:00031a20       ___vcrt_getptd             10032a20 f   libvcruntimed:per_thread_data.obj
 0001:00031a40       ___vcrt_getptd_noexit      10032a40 f   libvcruntimed:per_thread_data.obj
 0001:00031ba0       ___vcrt_getptd_noinit      10032ba0 f   libvcruntimed:per_thread_data.obj
 0001:00031c00       ___vcrt_initialize_ptd     10032c00 f   libvcruntimed:per_thread_data.obj
 0001:00031c50       ___vcrt_uninitialize_ptd   10032c50 f   libvcruntimed:per_thread_data.obj
 0001:00031c80       ___vcrt_initialize_locks   10032c80 f   libvcruntimed:locks.obj
 0001:00031ce0       ___vcrt_lock               10032ce0 f   libvcruntimed:locks.obj
 0001:00031d00       ___vcrt_uninitialize_locks 10032d00 f   libvcruntimed:locks.obj
 0001:00031d50       ___vcrt_unlock             10032d50 f   libvcruntimed:locks.obj
 0001:000328e0       ??$TypeMatchHelper@V__FrameHandler3@@@@YAHPBU_s_HandlerType@@PBU_s_CatchableType@@PBU_s_ThrowInfo@@@Z 100338e0 f i libvcruntimed:frame.obj
 0001:000329c0       ??$__InternalCxxFrameHandler@V__FrameHandler3@@@@YA?AW4_EXCEPTION_DISPOSITION@@PAUEHExceptionRecord@@PAUEHRegistrationNode@@PAU_CONTEXT@@PAXPBU_s_FuncInfo@@H1E@Z 100339c0 f i libvcruntimed:frame.obj
 0001:00032b80       ??0HandlerMap@__FrameHandler3@@QAE@PBU_s_TryBlockMapEntry@@II@Z 10033b80 f i libvcruntimed:frame.obj
 0001:00032bb0       ??0TryBlockMap@__FrameHandler3@@QAE@PBU_s_FuncInfo@@I@Z 10033bb0 f i libvcruntimed:frame.obj
 0001:00032be0       ??0bad_exception@std@@QAE@ABV01@@Z 10033be0 f i libvcruntimed:frame.obj
 0001:00032c10       ??0bad_exception@std@@QAE@XZ 10033c10 f i libvcruntimed:frame.obj
 0001:00032c40       ??0iterator@HandlerMap@__FrameHandler3@@QAE@AAV12@I@Z 10033c40 f i libvcruntimed:frame.obj
 0001:00032c70       ??1bad_exception@std@@UAE@XZ 10033c70 f i libvcruntimed:frame.obj
 0001:00032c90       ??8iterator@HandlerMap@__FrameHandler3@@QBE_NABV012@@Z 10033c90 f i libvcruntimed:frame.obj
 0001:00032cc0       ??8type_info@@QBE_NABV0@@Z 10033cc0 f i libvcruntimed:frame.obj
 0001:00032d00       ??9iterator@HandlerMap@__FrameHandler3@@QBE_NABV012@@Z 10033d00 f i libvcruntimed:frame.obj
 0001:00032d40       ??Diterator@HandlerMap@__FrameHandler3@@QAE?BU_s_HandlerType@@XZ 10033d40 f i libvcruntimed:frame.obj
 0001:00032d80       ??Diterator@TryBlockMap@__FrameHandler3@@QAE?BU_s_TryBlockMapEntry@@XZ 10033d80 f i libvcruntimed:frame.obj
 0001:00032dd0       ??Eiterator@HandlerMap@__FrameHandler3@@QAEAAV012@XZ 10033dd0 f i libvcruntimed:frame.obj
 0001:00032df0       ??Eiterator@TryBlockMap@__FrameHandler3@@QAEAAV012@XZ 10033df0 f i libvcruntimed:frame.obj
 0001:00032e10       ??Miterator@TryBlockMap@__FrameHandler3@@QBE_NABV012@@Z 10033e10 f i libvcruntimed:frame.obj
 0001:00032e40       ??_Ebad_exception@std@@UAEPAXI@Z 10033e40 f i libvcruntimed:frame.obj
 0001:00032e40       ??_Gbad_exception@std@@UAEPAXI@Z 10033e40 f i libvcruntimed:frame.obj
 0001:00032e70       ?BuildCatchObject@__FrameHandler3@@SAXPAUEHExceptionRecord@@PAXPBU_s_HandlerType@@PBU_s_CatchableType@@@Z 10033e70 f   libvcruntimed:frame.obj
 0001:00032e90       ?BuildCatchObjectHelper@__FrameHandler3@@SAHPAUEHExceptionRecord@@PAXPBU_s_HandlerType@@PBU_s_CatchableType@@@Z 10033e90 f   libvcruntimed:frame.obj
 0001:00033230       ?FrameUnwindToEmptyState@__FrameHandler3@@SAXPAUEHRegistrationNode@@PAXPBU_s_FuncInfo@@@Z 10034230 f   libvcruntimed:frame.obj
 0001:00033250       ?FrameUnwindToState@__FrameHandler3@@SAXPAUEHRegistrationNode@@PAXPBU_s_FuncInfo@@H@Z 10034250 f   libvcruntimed:frame.obj
 0001:000333d0       ?GetMaxState@__FrameHandler3@@SAHPAXPBU_s_FuncInfo@@@Z 100343d0 f i libvcruntimed:frame.obj
 0001:000334f0       ?TypeMatch@__FrameHandler3@@SAHPBU_s_HandlerType@@PBU_s_CatchableType@@PBU_s_ThrowInfo@@@Z 100344f0 f   libvcruntimed:frame.obj
 0001:00033510       ?_CallMemberFunction1@@YGXQAX00@Z 10034510 f i libvcruntimed:frame.obj
 0001:00033540       ?_CallMemberFunction2@@YGXQAX00H@Z 10034540 f i libvcruntimed:frame.obj
 0001:00033570       ?begin@HandlerMap@__FrameHandler3@@QAE?AViterator@12@XZ 10034570 f i libvcruntimed:frame.obj
 0001:00033590       ?end@HandlerMap@__FrameHandler3@@QAE?AViterator@12@XZ 10034590 f i libvcruntimed:frame.obj
 0001:000335c0       ?getESTypes@__FrameHandler3@@SAPBU_s_ESTypeList@@PBU_s_FuncInfo@@@Z 100345c0 f i libvcruntimed:frame.obj
 0001:000335d0       ?getLastEntry@HandlerMap@__FrameHandler3@@QAEPBU_s_HandlerType@@XZ 100345d0 f i libvcruntimed:frame.obj
 0001:000335f0       ?getMagicNum@__FrameHandler3@@SAIPBU_s_FuncInfo@@@Z 100345f0 f i libvcruntimed:frame.obj
 0001:00033600       ?getNumTryBlocks@TryBlockMap@__FrameHandler3@@QAEIXZ 10034600 f i libvcruntimed:frame.obj
 0001:00033620       ?isEHs@__FrameHandler3@@SA_NPBU_s_FuncInfo@@@Z 10034620 f i libvcruntimed:frame.obj
 0001:00033650       ?isNoExcept@__FrameHandler3@@SA_NPBU_s_FuncInfo@@@Z 10034650 f i libvcruntimed:frame.obj
 0001:00033680       ___BuildCatchObject        10034680 f   libvcruntimed:frame.obj
 0001:000336a0       ___BuildCatchObjectHelper  100346a0 f   libvcruntimed:frame.obj
 0001:000336c0       ___TypeMatch               100346c0 f   libvcruntimed:frame.obj
 0001:000336e0       ___vcrt_EncodePointer      100346e0 f i libvcruntimed:frame.obj
 0001:000336f0       __CallSettingFrame@12      100346f0 f   libvcruntimed:lowhelpr.obj
 0001:00033717       __NLG_Return               10034717     libvcruntimed:lowhelpr.obj
 0001:00033740       ??$?0$00@DName@@QAE@PBDU?$StringLifeSelector@$00@@@Z 10034740 f i libvcruntimed:undname.obj
 0001:00033790       ??$?0$00@pcharNode@@QAE@PBDHU?$StringLifeSelector@$00@@@Z 10034790 f i libvcruntimed:undname.obj
 0001:000337d0       ??$?0$01@DName@@QAE@PBDU?$StringLifeSelector@$01@@@Z 100347d0 f i libvcruntimed:undname.obj
 0001:00033820       ??$?0$01@pcharNode@@QAE@PBDHU?$StringLifeSelector@$01@@@Z 10034820 f i libvcruntimed:undname.obj
 0001:000338a0       ??$?0$0A@@DName@@QAE@PBDU?$StringLifeSelector@$0A@@@@Z 100348a0 f i libvcruntimed:undname.obj
 0001:000338f0       ??$?0$0A@@pcharNode@@QAE@PBDHU?$StringLifeSelector@$0A@@@@Z 100348f0 f i libvcruntimed:undname.obj
 0001:00033970       ??$?0_K$0A@@?$optional@_K@std@@QAE@$$QA_K@Z 10034970 f i libvcruntimed:undname.obj
 0001:000339b0       ??$?0_K@?$_Optional_construct_base@_K@std@@QAE@Uin_place_t@1@$$QA_K@Z 100349b0 f i libvcruntimed:undname.obj
 0001:000339e0       ??$?0_K@?$_Optional_destruct_base@_K$00@std@@QAE@Uin_place_t@1@$$QA_K@Z 100349e0 f i libvcruntimed:undname.obj
 0001:00033a10       ??$append@VDNameNode@@@DName@@AAEXPBVDNameNode@@@Z 10034a10 f i libvcruntimed:undname.obj
 0001:00033aa0       ??$append@VDNameStatusNode@@@DName@@AAEXPBVDNameStatusNode@@@Z 10034aa0 f i libvcruntimed:undname.obj
 0001:00033b30       ??$append@VcharNode@@@DName@@AAEXPBVcharNode@@@Z 10034b30 f i libvcruntimed:undname.obj
 0001:00033bc0       ??$append@VpDNameNode@@@DName@@AAEXPBVpDNameNode@@@Z 10034bc0 f i libvcruntimed:undname.obj
 0001:00033c50       ??$append@VpcharNode@@@DName@@AAEXPBVpcharNode@@@Z 10034c50 f i libvcruntimed:undname.obj
 0001:00033ce0       ??$doPchar@$00@DName@@AAEXPBDH@Z 10034ce0 f i libvcruntimed:undname.obj
 0001:00033df0       ??$doPchar@$01@DName@@AAEXPBDH@Z 10034df0 f i libvcruntimed:undname.obj
 0001:00033f00       ??$doPchar@$0A@@DName@@AAEXPBDH@Z 10034f00 f i libvcruntimed:undname.obj
 0001:00034010       ??$forward@_K@std@@YA$$QA_KAA_K@Z 10035010 f i libvcruntimed:undname.obj
 0001:00034020       ??$size@D$04@std@@YAIAAY04$$CBD@Z 10035020 f i libvcruntimed:undname.obj
 0001:00034030       ??$size@D$0EB@@std@@YAIAAY0EB@$$CBD@Z 10035030 f i libvcruntimed:undname.obj
 0001:00034040       ??0?$_Optional_construct_base@_K@std@@QAE@XZ 10035040 f i libvcruntimed:undname.obj
 0001:00034060       ??0?$_Optional_destruct_base@_K$00@std@@QAE@XZ 10035060 f i libvcruntimed:undname.obj
 0001:00034080       ??0?$optional@_K@std@@QAE@XZ 10035080 f i libvcruntimed:undname.obj
 0001:000340a0       ??0Block@_HeapManager@@QAE@XZ 100350a0 f i libvcruntimed:undname.obj
 0001:000340c0       ??0DName@@QAE@AAPBDD@Z     100350c0 f   libvcruntimed:undname.obj
 0001:00034230       ??0DName@@QAE@ABUStringLiteral@@@Z 10035230 f   libvcruntimed:undname.obj
 0001:00034280       ??0DName@@QAE@ABV0@@Z      10035280 f i libvcruntimed:undname.obj
 0001:000342b0       ??0DName@@QAE@D@Z          100352b0 f   libvcruntimed:undname.obj
 0001:000342e0       ??0DName@@QAE@PAV0@@Z      100352e0 f   libvcruntimed:undname.obj
 0001:00034390       ??0DName@@QAE@W4DNameStatus@@@Z 10035390 f   libvcruntimed:undname.obj
 0001:00034430       ??0DName@@QAE@XZ           10035430 f i libvcruntimed:undname.obj
 0001:00034460       ??0DName@@QAE@_J@Z         10035460 f   libvcruntimed:undname.obj
 0001:00034550       ??0DName@@QAE@_K@Z         10035550 f   libvcruntimed:undname.obj
 0001:00034600       ??0DNameNode@@IAE@XZ       10035600 f i libvcruntimed:undname.obj
 0001:00034620       ??0Replicator@@QAE@XZ      10035620 f i libvcruntimed:undname.obj
 0001:00034660       ??0UnDecorator@@QAE@PBDP6APADJ@ZK@Z 10035660 f i libvcruntimed:undname.obj
 0001:000346e0       ??0_Nontrivial_dummy_type@std@@QAE@XZ 100356e0 f i libvcruntimed:undname.obj
 0001:000346f0       ??0charNode@@QAE@D@Z       100356f0 f i libvcruntimed:undname.obj
 0001:00034720       ??0pDNameNode@@QAE@PAVDName@@@Z 10035720 f   libvcruntimed:undname.obj
 0001:00034780       ??0pairNode@@QAE@PBVDNameNode@@0@Z 10035780 f i libvcruntimed:undname.obj
 0001:000347e0       ??2@YAPAXIAAV_HeapManager@@H@Z 100357e0 f   libvcruntimed:undname.obj
 0001:00034820       ??4DName@@QAEAAV0@ABUStringLiteral@@@Z 10035820 f   libvcruntimed:undname.obj
 0001:00034860       ??4DName@@QAEAAV0@ABV0@@Z  10035860 f   libvcruntimed:undname.obj
 0001:00034890       ??4DName@@QAEAAV0@D@Z      10035890 f i libvcruntimed:undname.obj
 0001:000348c0       ??4DName@@QAEAAV0@PAV0@@Z  100358c0 f   libvcruntimed:undname.obj
 0001:00034960       ??4DName@@QAEAAV0@W4DNameStatus@@@Z 10035960 f   libvcruntimed:undname.obj
 0001:000349e0       ??AReplicator@@QBE?AVDName@@H@Z 100359e0 f   libvcruntimed:undname.obj
 0001:00034a50       ??B?$optional@_K@std@@QBE_NXZ 10035a50 f i libvcruntimed:undname.obj
 0001:00034a70       ??D?$optional@_K@std@@QGAEAA_KXZ 10035a70 f i libvcruntimed:undname.obj
 0001:00034a80       ??H@YA?AVDName@@ABUStringLiteral@@ABV0@@Z 10035a80 f i libvcruntimed:undname.obj
 0001:00034ab0       ??H@YA?AVDName@@DABV0@@Z   10035ab0 f i libvcruntimed:undname.obj
 0001:00034ae0       ??H@YA?AVDName@@W4DNameStatus@@ABV0@@Z 10035ae0 f i libvcruntimed:undname.obj
 0001:00034b10       ??HDName@@QBE?AV0@ABUStringLiteral@@@Z 10035b10 f   libvcruntimed:undname.obj
 0001:00034b50       ??HDName@@QBE?AV0@ABV0@@Z  10035b50 f   libvcruntimed:undname.obj
 0001:00034b90       ??HDName@@QBE?AV0@D@Z      10035b90 f   libvcruntimed:undname.obj
 0001:00034bd0       ??HDName@@QBE?AV0@PAV0@@Z  10035bd0 f   libvcruntimed:undname.obj
 0001:00034c10       ??HDName@@QBE?AV0@W4DNameStatus@@@Z 10035c10 f   libvcruntimed:undname.obj
 0001:00034c50       ??HStringLiteral@@QBE?AU0@H@Z 10035c50 f i libvcruntimed:undname.obj
 0001:00034c80       ??YDName@@QAEAAV0@ABUStringLiteral@@@Z 10035c80 f   libvcruntimed:undname.obj
 0001:00034d20       ??YDName@@QAEAAV0@ABV0@@Z  10035d20 f   libvcruntimed:undname.obj
 0001:00034dc0       ??YDName@@QAEAAV0@D@Z      10035dc0 f   libvcruntimed:undname.obj
 0001:00034e40       ??YDName@@QAEAAV0@PAV0@@Z  10035e40 f   libvcruntimed:undname.obj
 0001:00034ef0       ??YDName@@QAEAAV0@W4DNameStatus@@@Z 10035ef0 f   libvcruntimed:undname.obj
 0001:00034f50       ??YReplicator@@QAEAAV0@ABVDName@@@Z 10035f50 f   libvcruntimed:undname.obj
 0001:00034fe0       ??_5DName@@QAEAAV0@ABV0@@Z 10035fe0 f   libvcruntimed:undname.obj
 0001:00035040       ??__K_l@@YA?AUStringLiteral@@PBDI@Z 10036040 f i libvcruntimed:undname.obj
 0001:00035060       ?Constructor@_HeapManager@@QAEXP6APAXI@ZP6AXPAX@Z@Z 10036060 f i libvcruntimed:undname.obj
 0001:000350a0       ?Destructor@_HeapManager@@QAEXXZ 100360a0 f i libvcruntimed:undname.obj
 0001:00035110       ?UScore@UnDecorator@@SA?AUStringLiteral@@W4Tokens@@@Z 10036110 f   libvcruntimed:undname.obj
 0001:00035160       ?composeDeclaration@UnDecorator@@CA?AVDName@@ABV2@@Z 10036160 f i libvcruntimed:undname.obj
 0001:000370d0       ?dbGetString@DName@@QBEPADXZ 100380d0 f   libvcruntimed:undname.obj
 0001:000370f0       ?doAccessSpecifiers@UnDecorator@@SAHXZ 100380f0 f i libvcruntimed:undname.obj
 0001:00037120       ?doAllocationLanguage@UnDecorator@@SAHXZ 10038120 f i libvcruntimed:undname.obj
 0001:00037150       ?doAllocationModel@UnDecorator@@SAHXZ 10038150 f i libvcruntimed:undname.obj
 0001:00037180       ?doEcsu@UnDecorator@@SAHXZ 10038180 f i libvcruntimed:undname.obj
 0001:000371b0       ?doEllipsis@UnDecorator@@SAHXZ 100381b0 f i libvcruntimed:undname.obj
 0001:000371e0       ?doFunctionReturns@UnDecorator@@SAHXZ 100381e0 f i libvcruntimed:undname.obj
 0001:00037210       ?doMSKeywords@UnDecorator@@SAHXZ 10038210 f i libvcruntimed:undname.obj
 0001:00037240       ?doMemberTypes@UnDecorator@@SAHXZ 10038240 f i libvcruntimed:undname.obj
 0001:00037270       ?doNameOnly@UnDecorator@@SAHXZ 10038270 f i libvcruntimed:undname.obj
 0001:00037280       ?doNoIdentCharCheck@UnDecorator@@SAHXZ 10038280 f i libvcruntimed:undname.obj
 0001:00037290       ?doPchar@DName@@AAEXD@Z    10038290 f   libvcruntimed:undname.obj
 0001:00037300       ?doPtr64@UnDecorator@@SAHXZ 10038300 f i libvcruntimed:undname.obj
 0001:00037330       ?doRestrictionSpec@UnDecorator@@SAHXZ 10038330 f i libvcruntimed:undname.obj
 0001:00037360       ?doThisTypes@UnDecorator@@SAHXZ 10038360 f i libvcruntimed:undname.obj
 0001:00037390       ?doThrowTypes@UnDecorator@@SAHXZ 10038390 f i libvcruntimed:undname.obj
 0001:000373c0       ?doTypeOnly@UnDecorator@@SAHXZ 100383c0 f i libvcruntimed:undname.obj
 0001:000373d0       ?doUnderScore@UnDecorator@@SAHXZ 100383d0 f i libvcruntimed:undname.obj
 0001:00037400       ?getArgumentList@UnDecorator@@CA?AVDName@@XZ 10038400 f   libvcruntimed:undname.obj
 0001:00037550       ?getArgumentTypes@UnDecorator@@CA?AVDName@@XZ 10038550 f   libvcruntimed:undname.obj
 0001:00037760       ?getArrayObject@UnDecorator@@CA?AVDName@@XZ 10038760 f   libvcruntimed:undname.obj
 0001:00037840       ?getArrayType@UnDecorator@@CA?AVDName@@ABV2@@Z 10038840 f i libvcruntimed:undname.obj
 0001:00037ae0       ?getBasedType@UnDecorator@@CA?AVDName@@XZ 10038ae0 f   libvcruntimed:undname.obj
 0001:00037bd0       ?getBasicDataType@UnDecorator@@CA?AVDName@@ABV2@@Z 10038bd0 f   libvcruntimed:undname.obj
 0001:000384e0       ?getCHPEName@UnDecorator@@QAEPADPADH@Z 100394e0 f i libvcruntimed:undname.obj
 0001:00038640       ?getCallIndex@UnDecorator@@CA?AVDName@@XZ 10039640 f i libvcruntimed:undname.obj
 0001:00038660       ?getCallingConvention@UnDecorator@@CA?AVDName@@XZ 10039660 f   libvcruntimed:undname.obj
 0001:000388a0       ?getDataIndirectType@UnDecorator@@CA?AVDName@@ABV2@W4IndirectionKind@@0H@Z 100398a0 f   libvcruntimed:undname.obj
 0001:000391c0       ?getDataIndirectType@UnDecorator@@CA?AVDName@@XZ 1003a1c0 f i libvcruntimed:undname.obj
 0001:00039200       ?getDataType@UnDecorator@@CA?AVDName@@PAV2@@Z 1003a200 f   libvcruntimed:undname.obj
 0001:00039340       ?getDecoratedName@UnDecorator@@CA?AVDName@@XZ 1003a340 f   libvcruntimed:undname.obj
 0001:00039780       ?getDimension@UnDecorator@@CA?AVDName@@_N@Z 1003a780 f   libvcruntimed:undname.obj
 0001:000399e0       ?getDispatchTarget@UnDecorator@@CA?AVDName@@XZ 1003a9e0 f   libvcruntimed:undname.obj
 0001:00039a80       ?getDisplacement@UnDecorator@@CA?AVDName@@XZ 1003aa80 f i libvcruntimed:undname.obj
 0001:00039aa0       ?getECSUDataType@UnDecorator@@CA?AVDName@@XZ 1003aaa0 f   libvcruntimed:undname.obj
 0001:00039d00       ?getECSUName@UnDecorator@@CA?AVDName@@XZ 1003ad00 f i libvcruntimed:undname.obj
 0001:00039d20       ?getEnumType@UnDecorator@@CA?AVDName@@XZ 1003ad20 f i libvcruntimed:undname.obj
 0001:00039ed0       ?getExtendedDataIndirectType@UnDecorator@@CA?AVDName@@AAW4IndirectionKind@@AA_NH@Z 1003aed0 f   libvcruntimed:undname.obj
 0001:0003a120       ?getExternalDataType@UnDecorator@@CA?AVDName@@ABV2@@Z 1003b120 f i libvcruntimed:undname.obj
 0001:0003a1c0       ?getFloatingPoint@UnDecorator@@CA?AVDName@@H@Z 1003b1c0 f   libvcruntimed:undname.obj
 0001:0003a370       ?getFunctionIndirectType@UnDecorator@@CA?AVDName@@ABV2@@Z 1003b370 f   libvcruntimed:undname.obj
 0001:0003a850       ?getGuardNumber@UnDecorator@@CA?AVDName@@XZ 1003b850 f i libvcruntimed:undname.obj
 0001:0003a870       ?getLastChar@DName@@QBEDXZ 1003b870 f i libvcruntimed:undname.obj
 0001:0003a8b0       ?getLastChar@DNameStatusNode@@UBEDXZ 1003b8b0 f i libvcruntimed:undname.obj
 0001:0003a8e0       ?getLastChar@charNode@@UBEDXZ 1003b8e0 f i libvcruntimed:undname.obj
 0001:0003a900       ?getLastChar@pDNameNode@@UBEDXZ 1003b900 f i libvcruntimed:undname.obj
 0001:0003a930       ?getLastChar@pairNode@@UBEDXZ 1003b930 f i libvcruntimed:undname.obj
 0001:0003a9a0       ?getLastChar@pcharNode@@UBEDXZ 1003b9a0 f i libvcruntimed:undname.obj
 0001:0003a9e0       ?getLexicalFrame@UnDecorator@@CA?AVDName@@XZ 1003b9e0 f i libvcruntimed:undname.obj
 0001:0003aa20       ?getMemoryWithBuffer@_HeapManager@@QAEPAXI@Z 1003ba20 f   libvcruntimed:undname.obj
 0001:0003ab10       ?getMemoryWithoutBuffer@_HeapManager@@QAEPAXI@Z 1003bb10 f   libvcruntimed:undname.obj
 0001:0003ab50       ?getNoexcept@UnDecorator@@CA?AVDName@@XZ 1003bb50 f   libvcruntimed:undname.obj
 0001:0003abd0       ?getNumberOfDimensions@UnDecorator@@CAHXZ 1003bbd0 f   libvcruntimed:undname.obj
 0001:0003acd0       ?getOperatorName@UnDecorator@@CA?AVDName@@_NPA_N@Z 1003bcd0 f i libvcruntimed:undname.obj
 0001:0003b7c0       ?getPointerType@UnDecorator@@CA?AVDName@@ABV2@0@Z 1003c7c0 f i libvcruntimed:undname.obj
 0001:0003b7e0       ?getPointerTypeArray@UnDecorator@@CA?AVDName@@ABV2@0@Z 1003c7e0 f i libvcruntimed:undname.obj
 0001:0003b800       ?getPrimaryDataType@UnDecorator@@CA?AVDName@@ABV2@@Z 1003c800 f   libvcruntimed:undname.obj
 0001:0003bc90       ?getPtrRefDataType@UnDecorator@@CA?AVDName@@ABV2@H@Z 1003cc90 f   libvcruntimed:undname.obj
 0001:0003bf40       ?getPtrRefType@UnDecorator@@CA?AVDName@@ABV2@0W4IndirectionKind@@@Z 1003cf40 f   libvcruntimed:undname.obj
 0001:0003c0c0       ?getReferenceType@UnDecorator@@CA?AVDName@@ABV2@0W4IndirectionKind@@@Z 1003d0c0 f i libvcruntimed:undname.obj
 0001:0003c0e0       ?getRestrictionSpec@UnDecorator@@CA?AVDName@@XZ 1003d0e0 f   libvcruntimed:undname.obj
 0001:0003c2a0       ?getReturnType@UnDecorator@@CA?AVDName@@PAV2@@Z 1003d2a0 f   libvcruntimed:undname.obj
 0001:0003c2f0       ?getScope@UnDecorator@@CA?AVDName@@XZ 1003d2f0 f   libvcruntimed:undname.obj
 0001:0003c880       ?getScopedName@UnDecorator@@CA?AVDName@@XZ 1003d880 f   libvcruntimed:undname.obj
 0001:0003c9d0       ?getSignedDimension@UnDecorator@@CA?AVDName@@XZ 1003d9d0 f   libvcruntimed:undname.obj
 0001:0003ca50       ?getStorageConvention@UnDecorator@@CA?AVDName@@XZ 1003da50 f i libvcruntimed:undname.obj
 0001:0003ca70       ?getString@DName@@QBEPADPAD0@Z 1003da70 f i libvcruntimed:undname.obj
 0001:0003cad0       ?getString@DName@@QBEPADPADH@Z 1003dad0 f i libvcruntimed:undname.obj
 0001:0003cb60       ?getString@DNameStatusNode@@UBEPADPAD0@Z 1003db60 f i libvcruntimed:undname.obj
 0001:0003cba0       ?getString@charNode@@UBEPADPAD0@Z 1003dba0 f i libvcruntimed:undname.obj
 0001:0003cbd0       ?getString@pDNameNode@@UBEPADPAD0@Z 1003dbd0 f i libvcruntimed:undname.obj
 0001:0003cc10       ?getString@pairNode@@UBEPADPAD0@Z 1003dc10 f i libvcruntimed:undname.obj
 0001:0003cca0       ?getString@pcharNode@@UBEPADPAD0@Z 1003dca0 f i libvcruntimed:undname.obj
 0001:0003ccd0       ?getStringEncoding@UnDecorator@@CA?AVDName@@W4PrefixKind@@H@Z 1003dcd0 f   libvcruntimed:undname.obj
 0001:0003cde0       ?getStringHelper@@YAPADPADPBD1H@Z 1003dde0 f i libvcruntimed:undname.obj
 0001:0003ce20       ?getStringObject@UnDecorator@@CA?AVDName@@XZ 1003de20 f   libvcruntimed:undname.obj
 0001:0003ced0       ?getSymbolName@UnDecorator@@CA?AVDName@@XZ 1003ded0 f i libvcruntimed:undname.obj
 0001:0003cf60       ?getTemplateArgumentList@UnDecorator@@CA?AVDName@@XZ 1003df60 f   libvcruntimed:undname.obj
 0001:0003d250       ?getTemplateName@UnDecorator@@CA?AVDName@@_N@Z 1003e250 f   libvcruntimed:undname.obj
 0001:0003d410       ?getTemplateNonTypeArgument@UnDecorator@@CA?AVDName@@XZ 1003e410 f   libvcruntimed:undname.obj
 0001:0003d950       ?getTemplateTypeArgument@UnDecorator@@CA?AVDName@@XZ 1003e950 f   libvcruntimed:undname.obj
 0001:0003daf0       ?getThisType@UnDecorator@@CA?AVDName@@XZ 1003eaf0 f i libvcruntimed:undname.obj
 0001:0003db30       ?getThrowTypes@UnDecorator@@CA?AVDName@@XZ 1003eb30 f   libvcruntimed:undname.obj
 0001:0003db70       ?getTypeEncoding@UnDecorator@@CAHXZ 1003eb70 f i libvcruntimed:undname.obj
 0001:0003e630       ?getUndecoratedName@UnDecorator@@QAEPADPADH@Z 1003f630 f i libvcruntimed:undname.obj
 0001:0003e790       ?getVCallThunkType@UnDecorator@@CA?AVDName@@XZ 1003f790 f i libvcruntimed:undname.obj
 0001:0003e810       ?getValue@UnDecorator@@CA?AV?$optional@_K@std@@XZ 1003f810 f   libvcruntimed:undname.obj
 0001:0003e8d0       ?getValueObject@UnDecorator@@CA?AVDName@@XZ 1003f8d0 f   libvcruntimed:undname.obj
 0001:0003ea90       ?getVbTableType@UnDecorator@@CA?AVDName@@ABV2@@Z 1003fa90 f i libvcruntimed:undname.obj
 0001:0003eab0       ?getVdispMapType@UnDecorator@@CA?AVDName@@ABV2@@Z 1003fab0 f i libvcruntimed:undname.obj
 0001:0003eb40       ?getVfTableType@UnDecorator@@CA?AVDName@@ABV2@@Z 1003fb40 f i libvcruntimed:undname.obj
 0001:0003ed40       ?getZName@UnDecorator@@CA?AVDName@@_N0@Z 1003fd40 f   libvcruntimed:undname.obj
 0001:0003f080       ?haveTemplateParameters@UnDecorator@@SAHXZ 10040080 f i libvcruntimed:undname.obj
 0001:0003f090       ?isArray@DName@@QBEHXZ     10040090 f i libvcruntimed:undname.obj
 0001:0003f0b0       ?isComArray@DName@@QBEHXZ  100400b0 f i libvcruntimed:undname.obj
 0001:0003f0d0       ?isEmpty@DName@@QBEHXZ     100400d0 f i libvcruntimed:undname.obj
 0001:0003f100       ?isFull@Replicator@@QBEHXZ 10040100 f i libvcruntimed:undname.obj
 0001:0003f130       ?isNoTE@DName@@QBEHXZ      10040130 f i libvcruntimed:undname.obj
 0001:0003f150       ?isPinPtr@DName@@QBEHXZ    10040150 f i libvcruntimed:undname.obj
 0001:0003f170       ?isPtrRef@DName@@QBEHXZ    10040170 f i libvcruntimed:undname.obj
 0001:0003f190       ?isUDC@DName@@QBEHXZ       10040190 f i libvcruntimed:undname.obj
 0001:0003f1d0       ?isUDTThunk@DName@@QBEHXZ  100401d0 f i libvcruntimed:undname.obj
 0001:0003f210       ?isVCallThunk@DName@@QBEHXZ 10040210 f i libvcruntimed:undname.obj
 0001:0003f230       ?isValid@DName@@QBEHXZ     10040230 f i libvcruntimed:undname.obj
 0001:0003f270       ?length@DName@@QBEHXZ      10040270 f i libvcruntimed:undname.obj
 0001:0003f2b0       ?length@DNameStatusNode@@UBEHXZ 100402b0 f i libvcruntimed:undname.obj
 0001:0003f2d0       ?length@charNode@@UBEHXZ   100402d0 f i libvcruntimed:undname.obj
 0001:0003f2e0       ?length@pDNameNode@@UBEHXZ 100402e0 f i libvcruntimed:undname.obj
 0001:0003f310       ?length@pairNode@@UBEHXZ   10040310 f i libvcruntimed:undname.obj
 0001:0003f380       ?length@pcharNode@@UBEHXZ  10040380 f i libvcruntimed:undname.obj
 0001:0003f3a0       ?make@DNameStatusNode@@SAPBV1@W4DNameStatus@@@Z 100403a0 f i libvcruntimed:undname.obj
 0001:0003f3d0       ?parseDecoratedName@UnDecorator@@CA?AVDName@@XZ 100403d0 f   libvcruntimed:undname.obj
 0001:0003f560       ?raw_length@DNameStatusNode@@UBEHXZ 10040560 f i libvcruntimed:undname.obj
 0001:0003f580       ?raw_length@charNode@@UBEHXZ 10040580 f i libvcruntimed:undname.obj
 0001:0003f5a0       ?raw_length@pDNameNode@@UBEHXZ 100405a0 f i libvcruntimed:undname.obj
 0001:0003f5b0       ?raw_length@pairNode@@UBEHXZ 100405b0 f i libvcruntimed:undname.obj
 0001:0003f5d0       ?raw_length@pcharNode@@UBEHXZ 100405d0 f i libvcruntimed:undname.obj
 0001:0003f5f0       ?setIsArray@DName@@QAEXXZ  100405f0 f i libvcruntimed:undname.obj
 0001:0003f610       ?setIsComArray@DName@@QAEXXZ 10040610 f i libvcruntimed:undname.obj
 0001:0003f630       ?setIsNoTE@DName@@QAEXXZ   10040630 f i libvcruntimed:undname.obj
 0001:0003f650       ?setIsPinPtr@DName@@QAEXXZ 10040650 f i libvcruntimed:undname.obj
 0001:0003f670       ?setIsUDC@DName@@QAEXXZ    10040670 f i libvcruntimed:undname.obj
 0001:0003f6a0       ?setIsVCallThunk@DName@@QAEXXZ 100406a0 f i libvcruntimed:undname.obj
 0001:0003f6c0       ?setPtrRef@DName@@QAEAAV1@XZ 100406c0 f i libvcruntimed:undname.obj
 0001:0003f6e0       ?status@DName@@QBE?AW4DNameStatus@@XZ 100406e0 f i libvcruntimed:undname.obj
 0001:0003f7e0       ___unDName                 100407e0 f   libvcruntimed:undname.obj
 0001:0003f810       ___unDNameEx               10040810 f   libvcruntimed:undname.obj
 0001:0003f8e0       _unDNameGenerateCHPE       100408e0 f   libvcruntimed:undname.obj
 0001:0003f940       __global_unwind2           10040940 f   libvcruntimed:exsup.obj
 0001:0003f9a6       __local_unwind2            100409a6 f   libvcruntimed:exsup.obj
 0001:0003fa2a       __abnormal_termination     10040a2a f   libvcruntimed:exsup.obj
 0001:0003fa50       __NLG_Notify1              10040a50 f   libvcruntimed:exsup.obj
 0001:0003fa5c       __NLG_Notify               10040a5c f   libvcruntimed:exsup.obj
 0001:0003fa73       __NLG_Dispatch             10040a73     libvcruntimed:exsup.obj
 0001:0003fa73       __NLG_Dispatch2            10040a73     libvcruntimed:exsup.obj
 0001:0003fa7b       __NLG_Call                 10040a7b f   libvcruntimed:exsup.obj
 0001:0003fa7d       __NLG_Return2              10040a7d     libvcruntimed:exsup.obj
 0001:0003fa80       ??$__crt_interlocked_exchange_pointer@UHINSTANCE__@@PAU1@@@YAPAUHINSTANCE__@@PDSAU0@QAU0@@Z 10040a80 f i libvcruntimed:winapi_downlevel.obj
 0001:0003fa90       ??$__crt_interlocked_exchange_pointer@UHINSTANCE__@@PAX@@YAPAUHINSTANCE__@@PDSAU0@QAX@Z 10040a90 f i libvcruntimed:winapi_downlevel.obj
 0001:0003faa0       ??$__crt_interlocked_exchange_pointer@XPAX@@YAPAXPDSAXQAX@Z 10040aa0 f i libvcruntimed:winapi_downlevel.obj
 0001:0003fab0       ??$__crt_interlocked_read_pointer@UHINSTANCE__@@@@YAPAUHINSTANCE__@@PDSAU0@@Z 10040ab0 f i libvcruntimed:winapi_downlevel.obj
 0001:0003fad0       ??$__crt_interlocked_read_pointer@X@@YAPAXPDSAX@Z 10040ad0 f i libvcruntimed:winapi_downlevel.obj
 0001:0003fea0       ___vcrt_FlsAlloc           10040ea0 f   libvcruntimed:winapi_downlevel.obj
 0001:0003fee0       ___vcrt_FlsFree            10040ee0 f   libvcruntimed:winapi_downlevel.obj
 0001:0003ff20       ___vcrt_FlsGetValue        10040f20 f   libvcruntimed:winapi_downlevel.obj
 0001:0003ff60       ___vcrt_FlsSetValue        10040f60 f   libvcruntimed:winapi_downlevel.obj
 0001:0003ffb0       ___vcrt_InitializeCriticalSectionEx 10040fb0 f   libvcruntimed:winapi_downlevel.obj
 0001:00040030       __get_unexpected           10041030 f   libvcruntimed:unexpected.obj
 0001:00040050       _set_unexpected            10041050 f   libvcruntimed:unexpected.obj
 0001:00040080       _unexpected                10041080 f   libvcruntimed:unexpected.obj
 0001:000400c0       ?GetCurrentState@__FrameHandler3@@SAHPAUEHRegistrationNode@@PAXPBU_s_FuncInfo@@@Z 100410c0 f   libvcruntimed:ehstate.obj
 0001:000400f0       ?SetState@__FrameHandler3@@SAXPAUEHRegistrationNode@@PBU_s_FuncInfo@@H@Z 100410f0 f   libvcruntimed:ehstate.obj
 0001:00040100       ??$?0ABV?$stream_output_adapter@D@__crt_stdio_output@@AB_KABQBDABQAU__crt_locale_pointers@@ABQAD@?$format_validation_base@DV?$stream_output_adapter@D@__crt_stdio_output@@@__crt_stdio_output@@IAE@ABV?$stream_output_adapter@D@1@AB_KABQBDABQAU__crt_locale_pointers@@ABQAD@Z 10041100 f i libucrtd:output.obj
 0001:00040130       ??$?0ABV?$stream_output_adapter@D@__crt_stdio_output@@AB_KABQBDABQAU__crt_locale_pointers@@ABQAD@?$positional_parameter_base@DV?$stream_output_adapter@D@__crt_stdio_output@@@__crt_stdio_output@@IAE@ABV?$stream_output_adapter@D@1@AB_KABQBDABQAU__crt_locale_pointers@@ABQAD@Z 10041130 f i libucrtd:output.obj
 0001:000401b0       ??$?0ABV?$stream_output_adapter@D@__crt_stdio_output@@AB_KABQBDABQAU__crt_locale_pointers@@ABQAD@?$standard_base@DV?$stream_output_adapter@D@__crt_stdio_output@@@__crt_stdio_output@@IAE@ABV?$stream_output_adapter@D@1@AB_KABQBDABQAU__crt_locale_pointers@@ABQAD@Z 100411b0 f i libucrtd:output.obj
 0001:00040200       ??$?0ABV?$stream_output_adapter@_W@__crt_stdio_output@@AB_KABQB_WABQAU__crt_locale_pointers@@ABQAD@?$format_validation_base@_WV?$stream_output_adapter@_W@__crt_stdio_output@@@__crt_stdio_output@@IAE@ABV?$stream_output_adapter@_W@1@AB_KABQB_WABQAU__crt_locale_pointers@@ABQAD@Z 10041200 f i libucrtd:output.obj
 0001:00040230       ??$?0ABV?$stream_output_adapter@_W@__crt_stdio_output@@AB_KABQB_WABQAU__crt_locale_pointers@@ABQAD@?$positional_parameter_base@_WV?$stream_output_adapter@_W@__crt_stdio_output@@@__crt_stdio_output@@IAE@ABV?$stream_output_adapter@_W@1@AB_KABQB_WABQAU__crt_locale_pointers@@ABQAD@Z 10041230 f i libucrtd:output.obj
 0001:000402b0       ??$?0ABV?$stream_output_adapter@_W@__crt_stdio_output@@AB_KABQB_WABQAU__crt_locale_pointers@@ABQAD@?$standard_base@_WV?$stream_output_adapter@_W@__crt_stdio_output@@@__crt_stdio_output@@IAE@ABV?$stream_output_adapter@_W@1@AB_KABQB_WABQAU__crt_locale_pointers@@ABQAD@Z 100412b0 f i libucrtd:output.obj
 0001:00040300       ??$?0ABV?$string_output_adapter@D@__crt_stdio_output@@AB_KABQBDABQAU__crt_locale_pointers@@ABQAD@?$format_validation_base@DV?$string_output_adapter@D@__crt_stdio_output@@@__crt_stdio_output@@IAE@ABV?$string_output_adapter@D@1@AB_KABQBDABQAU__crt_locale_pointers@@ABQAD@Z 10041300 f i libucrtd:output.obj
 0001:00040330       ??$?0ABV?$string_output_adapter@D@__crt_stdio_output@@AB_KABQBDABQAU__crt_locale_pointers@@ABQAD@?$positional_parameter_base@DV?$string_output_adapter@D@__crt_stdio_output@@@__crt_stdio_output@@IAE@ABV?$string_output_adapter@D@1@AB_KABQBDABQAU__crt_locale_pointers@@ABQAD@Z 10041330 f i libucrtd:output.obj
 0001:000403b0       ??$?0ABV?$string_output_adapter@D@__crt_stdio_output@@AB_KABQBDABQAU__crt_locale_pointers@@ABQAD@?$standard_base@DV?$string_output_adapter@D@__crt_stdio_output@@@__crt_stdio_output@@IAE@ABV?$string_output_adapter@D@1@AB_KABQBDABQAU__crt_locale_pointers@@ABQAD@Z 100413b0 f i libucrtd:output.obj
 0001:00040400       ??$?0ABV?$string_output_adapter@_W@__crt_stdio_output@@AB_KABQB_WABQAU__crt_locale_pointers@@ABQAD@?$format_validation_base@_WV?$string_output_adapter@_W@__crt_stdio_output@@@__crt_stdio_output@@IAE@ABV?$string_output_adapter@_W@1@AB_KABQB_WABQAU__crt_locale_pointers@@ABQAD@Z 10041400 f i libucrtd:output.obj
 0001:00040430       ??$?0ABV?$string_output_adapter@_W@__crt_stdio_output@@AB_KABQB_WABQAU__crt_locale_pointers@@ABQAD@?$positional_parameter_base@_WV?$string_output_adapter@_W@__crt_stdio_output@@@__crt_stdio_output@@IAE@ABV?$string_output_adapter@_W@1@AB_KABQB_WABQAU__crt_locale_pointers@@ABQAD@Z 10041430 f i libucrtd:output.obj
 0001:000404b0       ??$?0ABV?$string_output_adapter@_W@__crt_stdio_output@@AB_KABQB_WABQAU__crt_locale_pointers@@ABQAD@?$standard_base@_WV?$string_output_adapter@_W@__crt_stdio_output@@@__crt_stdio_output@@IAE@ABV?$string_output_adapter@_W@1@AB_KABQB_WABQAU__crt_locale_pointers@@ABQAD@Z 100414b0 f i libucrtd:output.obj
 0001:000409e0       ??$__crt_interlocked_read@J@@YAJPDJ@Z 100419e0 f i libucrtd:output.obj
 0001:00043780       ??$count@D@formatting_buffer@__crt_stdio_output@@QBEIXZ 10044780 f i libucrtd:output.obj
 0001:000437c0       ??$count@_W@formatting_buffer@__crt_stdio_output@@QBEIXZ 100447c0 f i libucrtd:output.obj
 0001:00043800       ??$data@D@formatting_buffer@__crt_stdio_output@@QAEPADXZ 10044800 f i libucrtd:output.obj
 0001:00043840       ??$data@_W@formatting_buffer@__crt_stdio_output@@QAEPA_WXZ 10044840 f i libucrtd:output.obj
 0001:00043880       ??$ensure_buffer_is_big_enough@D@formatting_buffer@__crt_stdio_output@@QAE_NI@Z 10044880 f i libucrtd:output.obj
 0001:00043960       ??$ensure_buffer_is_big_enough@_W@formatting_buffer@__crt_stdio_output@@QAE_NI@Z 10044960 f i libucrtd:output.obj
 0001:00043a50       ??$extract_argument_from_va_list@C_J@?$positional_parameter_base@DV?$stream_output_adapter@D@__crt_stdio_output@@@__crt_stdio_output@@IAE_NAA_J@Z 10044a50 f i libucrtd:output.obj
 0001:00043b90       ??$extract_argument_from_va_list@C_J@?$positional_parameter_base@DV?$string_output_adapter@D@__crt_stdio_output@@@__crt_stdio_output@@IAE_NAA_J@Z 10044b90 f i libucrtd:output.obj
 0001:00043cd0       ??$extract_argument_from_va_list@C_J@?$positional_parameter_base@_WV?$stream_output_adapter@_W@__crt_stdio_output@@@__crt_stdio_output@@IAE_NAA_J@Z 10044cd0 f i libucrtd:output.obj
 0001:00043e10       ??$extract_argument_from_va_list@C_J@?$positional_parameter_base@_WV?$string_output_adapter@_W@__crt_stdio_output@@@__crt_stdio_output@@IAE_NAA_J@Z 10044e10 f i libucrtd:output.obj
 0001:00043f50       ??$extract_argument_from_va_list@C_J@?$standard_base@DV?$stream_output_adapter@D@__crt_stdio_output@@@__crt_stdio_output@@IAE_NAA_J@Z 10044f50 f i libucrtd:output.obj
 0001:00043f80       ??$extract_argument_from_va_list@C_J@?$standard_base@DV?$string_output_adapter@D@__crt_stdio_output@@@__crt_stdio_output@@IAE_NAA_J@Z 10044f80 f i libucrtd:output.obj
 0001:00043fb0       ??$extract_argument_from_va_list@C_J@?$standard_base@_WV?$stream_output_adapter@_W@__crt_stdio_output@@@__crt_stdio_output@@IAE_NAA_J@Z 10044fb0 f i libucrtd:output.obj
 0001:00043fe0       ??$extract_argument_from_va_list@C_J@?$standard_base@_WV?$string_output_adapter@_W@__crt_stdio_output@@@__crt_stdio_output@@IAE_NAA_J@Z 10044fe0 f i libucrtd:output.obj
 0001:00044010       ??$extract_argument_from_va_list@E_J@?$positional_parameter_base@DV?$stream_output_adapter@D@__crt_stdio_output@@@__crt_stdio_output@@IAE_NAA_J@Z 10045010 f i libucrtd:output.obj
 0001:00044150       ??$extract_argument_from_va_list@E_J@?$positional_parameter_base@DV?$string_output_adapter@D@__crt_stdio_output@@@__crt_stdio_output@@IAE_NAA_J@Z 10045150 f i libucrtd:output.obj
 0001:00044290       ??$extract_argument_from_va_list@E_J@?$positional_parameter_base@_WV?$stream_output_adapter@_W@__crt_stdio_output@@@__crt_stdio_output@@IAE_NAA_J@Z 10045290 f i libucrtd:output.obj
 0001:000443d0       ??$extract_argument_from_va_list@E_J@?$positional_parameter_base@_WV?$string_output_adapter@_W@__crt_stdio_output@@@__crt_stdio_output@@IAE_NAA_J@Z 100453d0 f i libucrtd:output.obj
 0001:00044510       ??$extract_argument_from_va_list@E_J@?$standard_base@DV?$stream_output_adapter@D@__crt_stdio_output@@@__crt_stdio_output@@IAE_NAA_J@Z 10045510 f i libucrtd:output.obj
 0001:00044540       ??$extract_argument_from_va_list@E_J@?$standard_base@DV?$string_output_adapter@D@__crt_stdio_output@@@__crt_stdio_output@@IAE_NAA_J@Z 10045540 f i libucrtd:output.obj
 0001:00044570       ??$extract_argument_from_va_list@E_J@?$standard_base@_WV?$stream_output_adapter@_W@__crt_stdio_output@@@__crt_stdio_output@@IAE_NAA_J@Z 10045570 f i libucrtd:output.obj
 0001:000445a0       ??$extract_argument_from_va_list@E_J@?$standard_base@_WV?$string_output_adapter@_W@__crt_stdio_output@@@__crt_stdio_output@@IAE_NAA_J@Z 100455a0 f i libucrtd:output.obj
 0001:000445d0       ??$extract_argument_from_va_list@F_J@?$positional_parameter_base@DV?$stream_output_adapter@D@__crt_stdio_output@@@__crt_stdio_output@@IAE_NAA_J@Z 100455d0 f i libucrtd:output.obj
 0001:00044700       ??$extract_argument_from_va_list@F_J@?$positional_parameter_base@DV?$string_output_adapter@D@__crt_stdio_output@@@__crt_stdio_output@@IAE_NAA_J@Z 10045700 f i libucrtd:output.obj
 0001:00044830       ??$extract_argument_from_va_list@F_J@?$positional_parameter_base@_WV?$stream_output_adapter@_W@__crt_stdio_output@@@__crt_stdio_output@@IAE_NAA_J@Z 10045830 f i libucrtd:output.obj
 0001:00044960       ??$extract_argument_from_va_list@F_J@?$positional_parameter_base@_WV?$string_output_adapter@_W@__crt_stdio_output@@@__crt_stdio_output@@IAE_NAA_J@Z 10045960 f i libucrtd:output.obj
 0001:00044a90       ??$extract_argument_from_va_list@F_J@?$standard_base@DV?$stream_output_adapter@D@__crt_stdio_output@@@__crt_stdio_output@@IAE_NAA_J@Z 10045a90 f i libucrtd:output.obj
 0001:00044ac0       ??$extract_argument_from_va_list@F_J@?$standard_base@DV?$string_output_adapter@D@__crt_stdio_output@@@__crt_stdio_output@@IAE_NAA_J@Z 10045ac0 f i libucrtd:output.obj
 0001:00044af0       ??$extract_argument_from_va_list@F_J@?$standard_base@_WV?$stream_output_adapter@_W@__crt_stdio_output@@@__crt_stdio_output@@IAE_NAA_J@Z 10045af0 f i libucrtd:output.obj
 0001:00044b20       ??$extract_argument_from_va_list@F_J@?$standard_base@_WV?$string_output_adapter@_W@__crt_stdio_output@@@__crt_stdio_output@@IAE_NAA_J@Z 10045b20 f i libucrtd:output.obj
 0001:00044b50       ??$extract_argument_from_va_list@GD@?$positional_parameter_base@DV?$stream_output_adapter@D@__crt_stdio_output@@@__crt_stdio_output@@IAE_NAAD@Z 10045b50 f i libucrtd:output.obj
 0001:00044c80       ??$extract_argument_from_va_list@GD@?$positional_parameter_base@DV?$string_output_adapter@D@__crt_stdio_output@@@__crt_stdio_output@@IAE_NAAD@Z 10045c80 f i libucrtd:output.obj
 0001:00044db0       ??$extract_argument_from_va_list@GD@?$standard_base@DV?$stream_output_adapter@D@__crt_stdio_output@@@__crt_stdio_output@@IAE_NAAD@Z 10045db0 f i libucrtd:output.obj
 0001:00044de0       ??$extract_argument_from_va_list@GD@?$standard_base@DV?$string_output_adapter@D@__crt_stdio_output@@@__crt_stdio_output@@IAE_NAAD@Z 10045de0 f i libucrtd:output.obj
 0001:00044e10       ??$extract_argument_from_va_list@G_J@?$positional_parameter_base@DV?$stream_output_adapter@D@__crt_stdio_output@@@__crt_stdio_output@@IAE_NAA_J@Z 10045e10 f i libucrtd:output.obj
 0001:00044f50       ??$extract_argument_from_va_list@G_J@?$positional_parameter_base@DV?$string_output_adapter@D@__crt_stdio_output@@@__crt_stdio_output@@IAE_NAA_J@Z 10045f50 f i libucrtd:output.obj
 0001:00045090       ??$extract_argument_from_va_list@G_J@?$positional_parameter_base@_WV?$stream_output_adapter@_W@__crt_stdio_output@@@__crt_stdio_output@@IAE_NAA_J@Z 10046090 f i libucrtd:output.obj
 0001:000451d0       ??$extract_argument_from_va_list@G_J@?$positional_parameter_base@_WV?$string_output_adapter@_W@__crt_stdio_output@@@__crt_stdio_output@@IAE_NAA_J@Z 100461d0 f i libucrtd:output.obj
 0001:00045310       ??$extract_argument_from_va_list@G_J@?$standard_base@DV?$stream_output_adapter@D@__crt_stdio_output@@@__crt_stdio_output@@IAE_NAA_J@Z 10046310 f i libucrtd:output.obj
 0001:00045340       ??$extract_argument_from_va_list@G_J@?$standard_base@DV?$string_output_adapter@D@__crt_stdio_output@@@__crt_stdio_output@@IAE_NAA_J@Z 10046340 f i libucrtd:output.obj
 0001:00045370       ??$extract_argument_from_va_list@G_J@?$standard_base@_WV?$stream_output_adapter@_W@__crt_stdio_output@@@__crt_stdio_output@@IAE_NAA_J@Z 10046370 f i libucrtd:output.obj
 0001:000453a0       ??$extract_argument_from_va_list@G_J@?$standard_base@_WV?$string_output_adapter@_W@__crt_stdio_output@@@__crt_stdio_output@@IAE_NAA_J@Z 100463a0 f i libucrtd:output.obj
 0001:000453d0       ??$extract_argument_from_va_list@H_J@?$positional_parameter_base@DV?$stream_output_adapter@D@__crt_stdio_output@@@__crt_stdio_output@@IAE_NAA_J@Z 100463d0 f i libucrtd:output.obj
 0001:00045500       ??$extract_argument_from_va_list@H_J@?$positional_parameter_base@DV?$string_output_adapter@D@__crt_stdio_output@@@__crt_stdio_output@@IAE_NAA_J@Z 10046500 f i libucrtd:output.obj
 0001:00045630       ??$extract_argument_from_va_list@H_J@?$positional_parameter_base@_WV?$stream_output_adapter@_W@__crt_stdio_output@@@__crt_stdio_output@@IAE_NAA_J@Z 10046630 f i libucrtd:output.obj
 0001:00045760       ??$extract_argument_from_va_list@H_J@?$positional_parameter_base@_WV?$string_output_adapter@_W@__crt_stdio_output@@@__crt_stdio_output@@IAE_NAA_J@Z 10046760 f i libucrtd:output.obj
 0001:00045890       ??$extract_argument_from_va_list@H_J@?$standard_base@DV?$stream_output_adapter@D@__crt_stdio_output@@@__crt_stdio_output@@IAE_NAA_J@Z 10046890 f i libucrtd:output.obj
 0001:000458c0       ??$extract_argument_from_va_list@H_J@?$standard_base@DV?$string_output_adapter@D@__crt_stdio_output@@@__crt_stdio_output@@IAE_NAA_J@Z 100468c0 f i libucrtd:output.obj
 0001:000458f0       ??$extract_argument_from_va_list@H_J@?$standard_base@_WV?$stream_output_adapter@_W@__crt_stdio_output@@@__crt_stdio_output@@IAE_NAA_J@Z 100468f0 f i libucrtd:output.obj
 0001:00045920       ??$extract_argument_from_va_list@H_J@?$standard_base@_WV?$string_output_adapter@_W@__crt_stdio_output@@@__crt_stdio_output@@IAE_NAA_J@Z 10046920 f i libucrtd:output.obj
 0001:00045950       ??$extract_argument_from_va_list@I_J@?$positional_parameter_base@DV?$stream_output_adapter@D@__crt_stdio_output@@@__crt_stdio_output@@IAE_NAA_J@Z 10046950 f i libucrtd:output.obj
 0001:00045a80       ??$extract_argument_from_va_list@I_J@?$positional_parameter_base@DV?$string_output_adapter@D@__crt_stdio_output@@@__crt_stdio_output@@IAE_NAA_J@Z 10046a80 f i libucrtd:output.obj
 0001:00045bb0       ??$extract_argument_from_va_list@I_J@?$positional_parameter_base@_WV?$stream_output_adapter@_W@__crt_stdio_output@@@__crt_stdio_output@@IAE_NAA_J@Z 10046bb0 f i libucrtd:output.obj
 0001:00045ce0       ??$extract_argument_from_va_list@I_J@?$positional_parameter_base@_WV?$string_output_adapter@_W@__crt_stdio_output@@@__crt_stdio_output@@IAE_NAA_J@Z 10046ce0 f i libucrtd:output.obj
 0001:00045e10       ??$extract_argument_from_va_list@I_J@?$standard_base@DV?$stream_output_adapter@D@__crt_stdio_output@@@__crt_stdio_output@@IAE_NAA_J@Z 10046e10 f i libucrtd:output.obj
 0001:00045e40       ??$extract_argument_from_va_list@I_J@?$standard_base@DV?$string_output_adapter@D@__crt_stdio_output@@@__crt_stdio_output@@IAE_NAA_J@Z 10046e40 f i libucrtd:output.obj
 0001:00045e70       ??$extract_argument_from_va_list@I_J@?$standard_base@_WV?$stream_output_adapter@_W@__crt_stdio_output@@@__crt_stdio_output@@IAE_NAA_J@Z 10046e70 f i libucrtd:output.obj
 0001:00045ea0       ??$extract_argument_from_va_list@I_J@?$standard_base@_WV?$string_output_adapter@_W@__crt_stdio_output@@@__crt_stdio_output@@IAE_NAA_J@Z 10046ea0 f i libucrtd:output.obj
 0001:00045ed0       ??$extract_argument_from_va_list@PADPAD@?$positional_parameter_base@DV?$stream_output_adapter@D@__crt_stdio_output@@@__crt_stdio_output@@IAE_NAAPAD@Z 10046ed0 f i libucrtd:output.obj
 0001:00046000       ??$extract_argument_from_va_list@PADPAD@?$positional_parameter_base@DV?$string_output_adapter@D@__crt_stdio_output@@@__crt_stdio_output@@IAE_NAAPAD@Z 10047000 f i libucrtd:output.obj
 0001:00046130       ??$extract_argument_from_va_list@PADPAD@?$positional_parameter_base@_WV?$stream_output_adapter@_W@__crt_stdio_output@@@__crt_stdio_output@@IAE_NAAPAD@Z 10047130 f i libucrtd:output.obj
 0001:00046260       ??$extract_argument_from_va_list@PADPAD@?$positional_parameter_base@_WV?$string_output_adapter@_W@__crt_stdio_output@@@__crt_stdio_output@@IAE_NAAPAD@Z 10047260 f i libucrtd:output.obj
 0001:00046390       ??$extract_argument_from_va_list@PADPAD@?$standard_base@DV?$stream_output_adapter@D@__crt_stdio_output@@@__crt_stdio_output@@IAE_NAAPAD@Z 10047390 f i libucrtd:output.obj
 0001:000463c0       ??$extract_argument_from_va_list@PADPAD@?$standard_base@DV?$string_output_adapter@D@__crt_stdio_output@@@__crt_stdio_output@@IAE_NAAPAD@Z 100473c0 f i libucrtd:output.obj
 0001:000463f0       ??$extract_argument_from_va_list@PADPAD@?$standard_base@_WV?$stream_output_adapter@_W@__crt_stdio_output@@@__crt_stdio_output@@IAE_NAAPAD@Z 100473f0 f i libucrtd:output.obj
 0001:00046420       ??$extract_argument_from_va_list@PADPAD@?$standard_base@_WV?$string_output_adapter@_W@__crt_stdio_output@@@__crt_stdio_output@@IAE_NAAPAD@Z 10047420 f i libucrtd:output.obj
 0001:00046450       ??$extract_argument_from_va_list@PAUansi_string@?1??type_case_Z@?$output_processor@DV?$stream_output_adapter@D@__crt_stdio_output@@V?$format_validation_base@DV?$stream_output_adapter@D@__crt_stdio_output@@@2@@__crt_stdio_output@@AAE_NXZ@PAU1?1??234@AAE_NXZ@@?$standard_base@DV?$stream_output_adapter@D@__crt_stdio_output@@@__crt_stdio_output@@IAE_NAAPAUansi_string@?1??type_case_Z@?$output_processor@DV?$stream_output_adapter@D@__crt_stdio_output@@V?$format_validation_base@DV?$stream_output_adapter@D@__crt_stdio_output@@@2@@1@AAE_NXZ@@Z 10047450 f i libucrtd:output.obj
 0001:00046480       ??$extract_argument_from_va_list@PAUansi_string@?1??type_case_Z@?$output_processor@DV?$stream_output_adapter@D@__crt_stdio_output@@V?$positional_parameter_base@DV?$stream_output_adapter@D@__crt_stdio_output@@@2@@__crt_stdio_output@@AAE_NXZ@PAU1?1??234@AAE_NXZ@@?$positional_parameter_base@DV?$stream_output_adapter@D@__crt_stdio_output@@@__crt_stdio_output@@IAE_NAAPAUansi_string@?1??type_case_Z@?$output_processor@DV?$stream_output_adapter@D@__crt_stdio_output@@V?$positional_parameter_base@DV?$stream_output_adapter@D@__crt_stdio_output@@@2@@1@AAE_NXZ@@Z 10047480 f i libucrtd:output.obj
 0001:000465b0       ??$extract_argument_from_va_list@PAUansi_string@?1??type_case_Z@?$output_processor@DV?$stream_output_adapter@D@__crt_stdio_output@@V?$positional_parameter_base@DV?$stream_output_adapter@D@__crt_stdio_output@@@2@@__crt_stdio_output@@AAE_NXZ@PAU1?1??234@AAE_NXZ@@?$standard_base@DV?$stream_output_adapter@D@__crt_stdio_output@@@__crt_stdio_output@@IAE_NAAPAUansi_string@?1??type_case_Z@?$output_processor@DV?$stream_output_adapter@D@__crt_stdio_output@@V?$positional_parameter_base@DV?$stream_output_adapter@D@__crt_stdio_output@@@2@@1@AAE_NXZ@@Z 100475b0 f i libucrtd:output.obj
 0001:000465e0       ??$extract_argument_from_va_list@PAUansi_string@?1??type_case_Z@?$output_processor@DV?$stream_output_adapter@D@__crt_stdio_output@@V?$standard_base@DV?$stream_output_adapter@D@__crt_stdio_output@@@2@@__crt_stdio_output@@AAE_NXZ@PAU1?1??234@AAE_NXZ@@?$standard_base@DV?$stream_output_adapter@D@__crt_stdio_output@@@__crt_stdio_output@@IAE_NAAPAUansi_string@?1??type_case_Z@?$output_processor@DV?$stream_output_adapter@D@__crt_stdio_output@@V?$standard_base@DV?$stream_output_adapter@D@__crt_stdio_output@@@2@@1@AAE_NXZ@@Z 100475e0 f i libucrtd:output.obj
 0001:00046610       ??$extract_argument_from_va_list@PAUansi_string@?1??type_case_Z@?$output_processor@DV?$string_output_adapter@D@__crt_stdio_output@@V?$format_validation_base@DV?$string_output_adapter@D@__crt_stdio_output@@@2@@__crt_stdio_output@@AAE_NXZ@PAU1?1??234@AAE_NXZ@@?$standard_base@DV?$string_output_adapter@D@__crt_stdio_output@@@__crt_stdio_output@@IAE_NAAPAUansi_string@?1??type_case_Z@?$output_processor@DV?$string_output_adapter@D@__crt_stdio_output@@V?$format_validation_base@DV?$string_output_adapter@D@__crt_stdio_output@@@2@@1@AAE_NXZ@@Z 10047610 f i libucrtd:output.obj
 0001:00046640       ??$extract_argument_from_va_list@PAUansi_string@?1??type_case_Z@?$output_processor@DV?$string_output_adapter@D@__crt_stdio_output@@V?$positional_parameter_base@DV?$string_output_adapter@D@__crt_stdio_output@@@2@@__crt_stdio_output@@AAE_NXZ@PAU1?1??234@AAE_NXZ@@?$positional_parameter_base@DV?$string_output_adapter@D@__crt_stdio_output@@@__crt_stdio_output@@IAE_NAAPAUansi_string@?1??type_case_Z@?$output_processor@DV?$string_output_adapter@D@__crt_stdio_output@@V?$positional_parameter_base@DV?$string_output_adapter@D@__crt_stdio_output@@@2@@1@AAE_NXZ@@Z 10047640 f i libucrtd:output.obj
 0001:00046770       ??$extract_argument_from_va_list@PAUansi_string@?1??type_case_Z@?$output_processor@DV?$string_output_adapter@D@__crt_stdio_output@@V?$positional_parameter_base@DV?$string_output_adapter@D@__crt_stdio_output@@@2@@__crt_stdio_output@@AAE_NXZ@PAU1?1??234@AAE_NXZ@@?$standard_base@DV?$string_output_adapter@D@__crt_stdio_output@@@__crt_stdio_output@@IAE_NAAPAUansi_string@?1??type_case_Z@?$output_processor@DV?$string_output_adapter@D@__crt_stdio_output@@V?$positional_parameter_base@DV?$string_output_adapter@D@__crt_stdio_output@@@2@@1@AAE_NXZ@@Z 10047770 f i libucrtd:output.obj
 0001:000467a0       ??$extract_argument_from_va_list@PAUansi_string@?1??type_case_Z@?$output_processor@DV?$string_output_adapter@D@__crt_stdio_output@@V?$standard_base@DV?$string_output_adapter@D@__crt_stdio_output@@@2@@__crt_stdio_output@@AAE_NXZ@PAU1?1??234@AAE_NXZ@@?$standard_base@DV?$string_output_adapter@D@__crt_stdio_output@@@__crt_stdio_output@@IAE_NAAPAUansi_string@?1??type_case_Z@?$output_processor@DV?$string_output_adapter@D@__crt_stdio_output@@V?$standard_base@DV?$string_output_adapter@D@__crt_stdio_output@@@2@@1@AAE_NXZ@@Z 100477a0 f i libucrtd:output.obj
 0001:000467d0       ??$extract_argument_from_va_list@PAUansi_string@?1??type_case_Z@?$output_processor@_WV?$stream_output_adapter@_W@__crt_stdio_output@@V?$format_validation_base@_WV?$stream_output_adapter@_W@__crt_stdio_output@@@2@@__crt_stdio_output@@AAE_NXZ@PAU1?1??234@AAE_NXZ@@?$standard_base@_WV?$stream_output_adapter@_W@__crt_stdio_output@@@__crt_stdio_output@@IAE_NAAPAUansi_string@?1??type_case_Z@?$output_processor@_WV?$stream_output_adapter@_W@__crt_stdio_output@@V?$format_validation_base@_WV?$stream_output_adapter@_W@__crt_stdio_output@@@2@@1@AAE_NXZ@@Z 100477d0 f i libucrtd:output.obj
 0001:00046800       ??$extract_argument_from_va_list@PAUansi_string@?1??type_case_Z@?$output_processor@_WV?$stream_output_adapter@_W@__crt_stdio_output@@V?$positional_parameter_base@_WV?$stream_output_adapter@_W@__crt_stdio_output@@@2@@__crt_stdio_output@@AAE_NXZ@PAU1?1??234@AAE_NXZ@@?$positional_parameter_base@_WV?$stream_output_adapter@_W@__crt_stdio_output@@@__crt_stdio_output@@IAE_NAAPAUansi_string@?1??type_case_Z@?$output_processor@_WV?$stream_output_adapter@_W@__crt_stdio_output@@V?$positional_parameter_base@_WV?$stream_output_adapter@_W@__crt_stdio_output@@@2@@1@AAE_NXZ@@Z 10047800 f i libucrtd:output.obj
 0001:00046930       ??$extract_argument_from_va_list@PAUansi_string@?1??type_case_Z@?$output_processor@_WV?$stream_output_adapter@_W@__crt_stdio_output@@V?$positional_parameter_base@_WV?$stream_output_adapter@_W@__crt_stdio_output@@@2@@__crt_stdio_output@@AAE_NXZ@PAU1?1??234@AAE_NXZ@@?$standard_base@_WV?$stream_output_adapter@_W@__crt_stdio_output@@@__crt_stdio_output@@IAE_NAAPAUansi_string@?1??type_case_Z@?$output_processor@_WV?$stream_output_adapter@_W@__crt_stdio_output@@V?$positional_parameter_base@_WV?$stream_output_adapter@_W@__crt_stdio_output@@@2@@1@AAE_NXZ@@Z 10047930 f i libucrtd:output.obj
 0001:00046960       ??$extract_argument_from_va_list@PAUansi_string@?1??type_case_Z@?$output_processor@_WV?$stream_output_adapter@_W@__crt_stdio_output@@V?$standard_base@_WV?$stream_output_adapter@_W@__crt_stdio_output@@@2@@__crt_stdio_output@@AAE_NXZ@PAU1?1??234@AAE_NXZ@@?$standard_base@_WV?$stream_output_adapter@_W@__crt_stdio_output@@@__crt_stdio_output@@IAE_NAAPAUansi_string@?1??type_case_Z@?$output_processor@_WV?$stream_output_adapter@_W@__crt_stdio_output@@V?$standard_base@_WV?$stream_output_adapter@_W@__crt_stdio_output@@@2@@1@AAE_NXZ@@Z 10047960 f i libucrtd:output.obj
 0001:00046990       ??$extract_argument_from_va_list@PAUansi_string@?1??type_case_Z@?$output_processor@_WV?$string_output_adapter@_W@__crt_stdio_output@@V?$format_validation_base@_WV?$string_output_adapter@_W@__crt_stdio_output@@@2@@__crt_stdio_output@@AAE_NXZ@PAU1?1??234@AAE_NXZ@@?$standard_base@_WV?$string_output_adapter@_W@__crt_stdio_output@@@__crt_stdio_output@@IAE_NAAPAUansi_string@?1??type_case_Z@?$output_processor@_WV?$string_output_adapter@_W@__crt_stdio_output@@V?$format_validation_base@_WV?$string_output_adapter@_W@__crt_stdio_output@@@2@@1@AAE_NXZ@@Z 10047990 f i libucrtd:output.obj
 0001:000469c0       ??$extract_argument_from_va_list@PAUansi_string@?1??type_case_Z@?$output_processor@_WV?$string_output_adapter@_W@__crt_stdio_output@@V?$positional_parameter_base@_WV?$string_output_adapter@_W@__crt_stdio_output@@@2@@__crt_stdio_output@@AAE_NXZ@PAU1?1??234@AAE_NXZ@@?$positional_parameter_base@_WV?$string_output_adapter@_W@__crt_stdio_output@@@__crt_stdio_output@@IAE_NAAPAUansi_string@?1??type_case_Z@?$output_processor@_WV?$string_output_adapter@_W@__crt_stdio_output@@V?$positional_parameter_base@_WV?$string_output_adapter@_W@__crt_stdio_output@@@2@@1@AAE_NXZ@@Z 100479c0 f i libucrtd:output.obj
 0001:00046af0       ??$extract_argument_from_va_list@PAUansi_string@?1??type_case_Z@?$output_processor@_WV?$string_output_adapter@_W@__crt_stdio_output@@V?$positional_parameter_base@_WV?$string_output_adapter@_W@__crt_stdio_output@@@2@@__crt_stdio_output@@AAE_NXZ@PAU1?1??234@AAE_NXZ@@?$standard_base@_WV?$string_output_adapter@_W@__crt_stdio_output@@@__crt_stdio_output@@IAE_NAAPAUansi_string@?1??type_case_Z@?$output_processor@_WV?$string_output_adapter@_W@__crt_stdio_output@@V?$positional_parameter_base@_WV?$string_output_adapter@_W@__crt_stdio_output@@@2@@1@AAE_NXZ@@Z 10047af0 f i libucrtd:output.obj
 0001:00046b20       ??$extract_argument_from_va_list@PAUansi_string@?1??type_case_Z@?$output_processor@_WV?$string_output_adapter@_W@__crt_stdio_output@@V?$standard_base@_WV?$string_output_adapter@_W@__crt_stdio_output@@@2@@__crt_stdio_output@@AAE_NXZ@PAU1?1??234@AAE_NXZ@@?$standard_base@_WV?$string_output_adapter@_W@__crt_stdio_output@@@__crt_stdio_output@@IAE_NAAPAUansi_string@?1??type_case_Z@?$output_processor@_WV?$string_output_adapter@_W@__crt_stdio_output@@V?$standard_base@_WV?$string_output_adapter@_W@__crt_stdio_output@@@2@@1@AAE_NXZ@@Z 10047b20 f i libucrtd:output.obj
 0001:00046b50       ??$extract_argument_from_va_list@PAXPAX@?$positional_parameter_base@DV?$stream_output_adapter@D@__crt_stdio_output@@@__crt_stdio_output@@IAE_NAAPAX@Z 10047b50 f i libucrtd:output.obj
 0001:00046c80       ??$extract_argument_from_va_list@PAXPAX@?$positional_parameter_base@DV?$string_output_adapter@D@__crt_stdio_output@@@__crt_stdio_output@@IAE_NAAPAX@Z 10047c80 f i libucrtd:output.obj
 0001:00046db0       ??$extract_argument_from_va_list@PAXPAX@?$positional_parameter_base@_WV?$stream_output_adapter@_W@__crt_stdio_output@@@__crt_stdio_output@@IAE_NAAPAX@Z 10047db0 f i libucrtd:output.obj
 0001:00046ee0       ??$extract_argument_from_va_list@PAXPAX@?$positional_parameter_base@_WV?$string_output_adapter@_W@__crt_stdio_output@@@__crt_stdio_output@@IAE_NAAPAX@Z 10047ee0 f i libucrtd:output.obj
 0001:00047010       ??$extract_argument_from_va_list@PAXPAX@?$standard_base@DV?$stream_output_adapter@D@__crt_stdio_output@@@__crt_stdio_output@@IAE_NAAPAX@Z 10048010 f i libucrtd:output.obj
 0001:00047040       ??$extract_argument_from_va_list@PAXPAX@?$standard_base@DV?$string_output_adapter@D@__crt_stdio_output@@@__crt_stdio_output@@IAE_NAAPAX@Z 10048040 f i libucrtd:output.obj
 0001:00047070       ??$extract_argument_from_va_list@PAXPAX@?$standard_base@_WV?$stream_output_adapter@_W@__crt_stdio_output@@@__crt_stdio_output@@IAE_NAAPAX@Z 10048070 f i libucrtd:output.obj
 0001:000470a0       ??$extract_argument_from_va_list@PAXPAX@?$standard_base@_WV?$string_output_adapter@_W@__crt_stdio_output@@@__crt_stdio_output@@IAE_NAAPAX@Z 100480a0 f i libucrtd:output.obj
 0001:000470d0       ??$extract_argument_from_va_list@U_CRT_DOUBLE@@U1@@?$positional_parameter_base@DV?$stream_output_adapter@D@__crt_stdio_output@@@__crt_stdio_output@@IAE_NAAU_CRT_DOUBLE@@@Z 100480d0 f i libucrtd:output.obj
 0001:00047230       ??$extract_argument_from_va_list@U_CRT_DOUBLE@@U1@@?$positional_parameter_base@DV?$string_output_adapter@D@__crt_stdio_output@@@__crt_stdio_output@@IAE_NAAU_CRT_DOUBLE@@@Z 10048230 f i libucrtd:output.obj
 0001:00047390       ??$extract_argument_from_va_list@U_CRT_DOUBLE@@U1@@?$positional_parameter_base@_WV?$stream_output_adapter@_W@__crt_stdio_output@@@__crt_stdio_output@@IAE_NAAU_CRT_DOUBLE@@@Z 10048390 f i libucrtd:output.obj
 0001:000474f0       ??$extract_argument_from_va_list@U_CRT_DOUBLE@@U1@@?$positional_parameter_base@_WV?$string_output_adapter@_W@__crt_stdio_output@@@__crt_stdio_output@@IAE_NAAU_CRT_DOUBLE@@@Z 100484f0 f i libucrtd:output.obj
 0001:00047650       ??$extract_argument_from_va_list@U_CRT_DOUBLE@@U1@@?$standard_base@DV?$stream_output_adapter@D@__crt_stdio_output@@@__crt_stdio_output@@IAE_NAAU_CRT_DOUBLE@@@Z 10048650 f i libucrtd:output.obj
 0001:000476a0       ??$extract_argument_from_va_list@U_CRT_DOUBLE@@U1@@?$standard_base@DV?$string_output_adapter@D@__crt_stdio_output@@@__crt_stdio_output@@IAE_NAAU_CRT_DOUBLE@@@Z 100486a0 f i libucrtd:output.obj
 0001:000476f0       ??$extract_argument_from_va_list@U_CRT_DOUBLE@@U1@@?$standard_base@_WV?$stream_output_adapter@_W@__crt_stdio_output@@@__crt_stdio_output@@IAE_NAAU_CRT_DOUBLE@@@Z 100486f0 f i libucrtd:output.obj
 0001:00047740       ??$extract_argument_from_va_list@U_CRT_DOUBLE@@U1@@?$standard_base@_WV?$string_output_adapter@_W@__crt_stdio_output@@@__crt_stdio_output@@IAE_NAAU_CRT_DOUBLE@@@Z 10048740 f i libucrtd:output.obj
 0001:00047790       ??$extract_argument_from_va_list@_J_J@?$positional_parameter_base@DV?$stream_output_adapter@D@__crt_stdio_output@@@__crt_stdio_output@@IAE_NAA_J@Z 10048790 f i libucrtd:output.obj
 0001:000478c0       ??$extract_argument_from_va_list@_J_J@?$positional_parameter_base@DV?$string_output_adapter@D@__crt_stdio_output@@@__crt_stdio_output@@IAE_NAA_J@Z 100488c0 f i libucrtd:output.obj
 0001:000479f0       ??$extract_argument_from_va_list@_J_J@?$positional_parameter_base@_WV?$stream_output_adapter@_W@__crt_stdio_output@@@__crt_stdio_output@@IAE_NAA_J@Z 100489f0 f i libucrtd:output.obj
 0001:00047b20       ??$extract_argument_from_va_list@_J_J@?$positional_parameter_base@_WV?$string_output_adapter@_W@__crt_stdio_output@@@__crt_stdio_output@@IAE_NAA_J@Z 10048b20 f i libucrtd:output.obj
 0001:00047c50       ??$extract_argument_from_va_list@_J_J@?$standard_base@DV?$stream_output_adapter@D@__crt_stdio_output@@@__crt_stdio_output@@IAE_NAA_J@Z 10048c50 f i libucrtd:output.obj
 0001:00047c80       ??$extract_argument_from_va_list@_J_J@?$standard_base@DV?$string_output_adapter@D@__crt_stdio_output@@@__crt_stdio_output@@IAE_NAA_J@Z 10048c80 f i libucrtd:output.obj
 0001:00047cb0       ??$extract_argument_from_va_list@_J_J@?$standard_base@_WV?$stream_output_adapter@_W@__crt_stdio_output@@@__crt_stdio_output@@IAE_NAA_J@Z 10048cb0 f i libucrtd:output.obj
 0001:00047ce0       ??$extract_argument_from_va_list@_J_J@?$standard_base@_WV?$string_output_adapter@_W@__crt_stdio_output@@@__crt_stdio_output@@IAE_NAA_J@Z 10048ce0 f i libucrtd:output.obj
 0001:00047d10       ??$extract_argument_from_va_list@_K_J@?$positional_parameter_base@DV?$stream_output_adapter@D@__crt_stdio_output@@@__crt_stdio_output@@IAE_NAA_J@Z 10048d10 f i libucrtd:output.obj
 0001:00047e40       ??$extract_argument_from_va_list@_K_J@?$positional_parameter_base@DV?$string_output_adapter@D@__crt_stdio_output@@@__crt_stdio_output@@IAE_NAA_J@Z 10048e40 f i libucrtd:output.obj
 0001:00047f70       ??$extract_argument_from_va_list@_K_J@?$positional_parameter_base@_WV?$stream_output_adapter@_W@__crt_stdio_output@@@__crt_stdio_output@@IAE_NAA_J@Z 10048f70 f i libucrtd:output.obj
 0001:000480a0       ??$extract_argument_from_va_list@_K_J@?$positional_parameter_base@_WV?$string_output_adapter@_W@__crt_stdio_output@@@__crt_stdio_output@@IAE_NAA_J@Z 100490a0 f i libucrtd:output.obj
 0001:000481d0       ??$extract_argument_from_va_list@_K_J@?$standard_base@DV?$stream_output_adapter@D@__crt_stdio_output@@@__crt_stdio_output@@IAE_NAA_J@Z 100491d0 f i libucrtd:output.obj
 0001:00048200       ??$extract_argument_from_va_list@_K_J@?$standard_base@DV?$string_output_adapter@D@__crt_stdio_output@@@__crt_stdio_output@@IAE_NAA_J@Z 10049200 f i libucrtd:output.obj
 0001:00048230       ??$extract_argument_from_va_list@_K_J@?$standard_base@_WV?$stream_output_adapter@_W@__crt_stdio_output@@@__crt_stdio_output@@IAE_NAA_J@Z 10049230 f i libucrtd:output.obj
 0001:00048260       ??$extract_argument_from_va_list@_K_J@?$standard_base@_WV?$string_output_adapter@_W@__crt_stdio_output@@@__crt_stdio_output@@IAE_NAA_J@Z 10049260 f i libucrtd:output.obj
 0001:00048290       ??$extract_argument_from_va_list@_W_W@?$positional_parameter_base@DV?$stream_output_adapter@D@__crt_stdio_output@@@__crt_stdio_output@@IAE_NAA_W@Z 10049290 f i libucrtd:output.obj
 0001:000483c0       ??$extract_argument_from_va_list@_W_W@?$positional_parameter_base@DV?$string_output_adapter@D@__crt_stdio_output@@@__crt_stdio_output@@IAE_NAA_W@Z 100493c0 f i libucrtd:output.obj
 0001:000484f0       ??$extract_argument_from_va_list@_W_W@?$positional_parameter_base@_WV?$stream_output_adapter@_W@__crt_stdio_output@@@__crt_stdio_output@@IAE_NAA_W@Z 100494f0 f i libucrtd:output.obj
 0001:00048620       ??$extract_argument_from_va_list@_W_W@?$positional_parameter_base@_WV?$string_output_adapter@_W@__crt_stdio_output@@@__crt_stdio_output@@IAE_NAA_W@Z 10049620 f i libucrtd:output.obj
 0001:00048750       ??$extract_argument_from_va_list@_W_W@?$standard_base@DV?$stream_output_adapter@D@__crt_stdio_output@@@__crt_stdio_output@@IAE_NAA_W@Z 10049750 f i libucrtd:output.obj
 0001:00048780       ??$extract_argument_from_va_list@_W_W@?$standard_base@DV?$string_output_adapter@D@__crt_stdio_output@@@__crt_stdio_output@@IAE_NAA_W@Z 10049780 f i libucrtd:output.obj
 0001:000487b0       ??$extract_argument_from_va_list@_W_W@?$standard_base@_WV?$stream_output_adapter@_W@__crt_stdio_output@@@__crt_stdio_output@@IAE_NAA_W@Z 100497b0 f i libucrtd:output.obj
 0001:000487e0       ??$extract_argument_from_va_list@_W_W@?$standard_base@_WV?$string_output_adapter@_W@__crt_stdio_output@@@__crt_stdio_output@@IAE_NAA_W@Z 100497e0 f i libucrtd:output.obj
 0001:00048810       ??$get_parameter_type@D@?$positional_parameter_base@DV?$stream_output_adapter@D@__crt_stdio_output@@@__crt_stdio_output@@CA?AW4parameter_type@01@PAD@Z 10049810 f i libucrtd:output.obj
 0001:00048820       ??$get_parameter_type@D@?$positional_parameter_base@DV?$string_output_adapter@D@__crt_stdio_output@@@__crt_stdio_output@@CA?AW4parameter_type@01@PAD@Z 10049820 f i libucrtd:output.obj
 0001:00048830       ??$get_parameter_type@D@?$positional_parameter_base@_WV?$stream_output_adapter@_W@__crt_stdio_output@@@__crt_stdio_output@@CA?AW4parameter_type@01@PAD@Z 10049830 f i libucrtd:output.obj
 0001:00048840       ??$get_parameter_type@D@?$positional_parameter_base@_WV?$string_output_adapter@_W@__crt_stdio_output@@@__crt_stdio_output@@CA?AW4parameter_type@01@PAD@Z 10049840 f i libucrtd:output.obj
 0001:00048850       ??$get_parameter_type@Uansi_string@?1??type_case_Z@?$output_processor@DV?$stream_output_adapter@D@__crt_stdio_output@@V?$positional_parameter_base@DV?$stream_output_adapter@D@__crt_stdio_output@@@2@@__crt_stdio_output@@AAE_NXZ@@?$positional_parameter_base@DV?$stream_output_adapter@D@__crt_stdio_output@@@__crt_stdio_output@@CA?AW4parameter_type@01@PAUansi_string@?1??type_case_Z@?$output_processor@DV?$stream_output_adapter@D@__crt_stdio_output@@V?$positional_parameter_base@DV?$stream_output_adapter@D@__crt_stdio_output@@@2@@1@AAE_NXZ@@Z 10049850 f i libucrtd:output.obj
 0001:00048860       ??$get_parameter_type@Uansi_string@?1??type_case_Z@?$output_processor@DV?$string_output_adapter@D@__crt_stdio_output@@V?$positional_parameter_base@DV?$string_output_adapter@D@__crt_stdio_output@@@2@@__crt_stdio_output@@AAE_NXZ@@?$positional_parameter_base@DV?$string_output_adapter@D@__crt_stdio_output@@@__crt_stdio_output@@CA?AW4parameter_type@01@PAUansi_string@?1??type_case_Z@?$output_processor@DV?$string_output_adapter@D@__crt_stdio_output@@V?$positional_parameter_base@DV?$string_output_adapter@D@__crt_stdio_output@@@2@@1@AAE_NXZ@@Z 10049860 f i libucrtd:output.obj
 0001:00048870       ??$get_parameter_type@Uansi_string@?1??type_case_Z@?$output_processor@_WV?$stream_output_adapter@_W@__crt_stdio_output@@V?$positional_parameter_base@_WV?$stream_output_adapter@_W@__crt_stdio_output@@@2@@__crt_stdio_output@@AAE_NXZ@@?$positional_parameter_base@_WV?$stream_output_adapter@_W@__crt_stdio_output@@@__crt_stdio_output@@CA?AW4parameter_type@01@PAUansi_string@?1??type_case_Z@?$output_processor@_WV?$stream_output_adapter@_W@__crt_stdio_output@@V?$positional_parameter_base@_WV?$stream_output_adapter@_W@__crt_stdio_output@@@2@@1@AAE_NXZ@@Z 10049870 f i libucrtd:output.obj
 0001:00048880       ??$get_parameter_type@Uansi_string@?1??type_case_Z@?$output_processor@_WV?$string_output_adapter@_W@__crt_stdio_output@@V?$positional_parameter_base@_WV?$string_output_adapter@_W@__crt_stdio_output@@@2@@__crt_stdio_output@@AAE_NXZ@@?$positional_parameter_base@_WV?$string_output_adapter@_W@__crt_stdio_output@@@__crt_stdio_output@@CA?AW4parameter_type@01@PAUansi_string@?1??type_case_Z@?$output_processor@_WV?$string_output_adapter@_W@__crt_stdio_output@@V?$positional_parameter_base@_WV?$string_output_adapter@_W@__crt_stdio_output@@@2@@1@AAE_NXZ@@Z 10049880 f i libucrtd:output.obj
 0001:00048890       ??$get_parameter_type@X@?$positional_parameter_base@DV?$stream_output_adapter@D@__crt_stdio_output@@@__crt_stdio_output@@CA?AW4parameter_type@01@PAX@Z 10049890 f i libucrtd:output.obj
 0001:000488a0       ??$get_parameter_type@X@?$positional_parameter_base@DV?$string_output_adapter@D@__crt_stdio_output@@@__crt_stdio_output@@CA?AW4parameter_type@01@PAX@Z 100498a0 f i libucrtd:output.obj
 0001:000488b0       ??$get_parameter_type@X@?$positional_parameter_base@_WV?$stream_output_adapter@_W@__crt_stdio_output@@@__crt_stdio_output@@CA?AW4parameter_type@01@PAX@Z 100498b0 f i libucrtd:output.obj
 0001:000488c0       ??$get_parameter_type@X@?$positional_parameter_base@_WV?$string_output_adapter@_W@__crt_stdio_output@@@__crt_stdio_output@@CA?AW4parameter_type@01@PAX@Z 100498c0 f i libucrtd:output.obj
 0001:000488d0       ??$is_character_specifier@D@?$positional_parameter_base@DV?$stream_output_adapter@D@__crt_stdio_output@@@__crt_stdio_output@@CA_ND@Z 100498d0 f i libucrtd:output.obj
 0001:00048900       ??$is_character_specifier@D@?$positional_parameter_base@DV?$string_output_adapter@D@__crt_stdio_output@@@__crt_stdio_output@@CA_ND@Z 10049900 f i libucrtd:output.obj
 0001:00048930       ??$is_character_specifier@_W@?$positional_parameter_base@_WV?$stream_output_adapter@_W@__crt_stdio_output@@@__crt_stdio_output@@CA_N_W@Z 10049930 f i libucrtd:output.obj
 0001:00048960       ??$is_character_specifier@_W@?$positional_parameter_base@_WV?$string_output_adapter@_W@__crt_stdio_output@@@__crt_stdio_output@@CA_N_W@Z 10049960 f i libucrtd:output.obj
 0001:00048990       ??$is_integral_specifier@D@?$positional_parameter_base@DV?$stream_output_adapter@D@__crt_stdio_output@@@__crt_stdio_output@@CA_ND@Z 10049990 f i libucrtd:output.obj
 0001:000489f0       ??$is_integral_specifier@D@?$positional_parameter_base@DV?$string_output_adapter@D@__crt_stdio_output@@@__crt_stdio_output@@CA_ND@Z 100499f0 f i libucrtd:output.obj
 0001:00048a50       ??$is_integral_specifier@_W@?$positional_parameter_base@_WV?$stream_output_adapter@_W@__crt_stdio_output@@@__crt_stdio_output@@CA_N_W@Z 10049a50 f i libucrtd:output.obj
 0001:00048ab0       ??$is_integral_specifier@_W@?$positional_parameter_base@_WV?$string_output_adapter@_W@__crt_stdio_output@@@__crt_stdio_output@@CA_N_W@Z 10049ab0 f i libucrtd:output.obj
 0001:00048b10       ??$is_pointer_specifier@D@?$positional_parameter_base@DV?$stream_output_adapter@D@__crt_stdio_output@@@__crt_stdio_output@@CA_ND@Z 10049b10 f i libucrtd:output.obj
 0001:00048b40       ??$is_pointer_specifier@D@?$positional_parameter_base@DV?$string_output_adapter@D@__crt_stdio_output@@@__crt_stdio_output@@CA_ND@Z 10049b40 f i libucrtd:output.obj
 0001:00048b70       ??$is_pointer_specifier@_W@?$positional_parameter_base@_WV?$stream_output_adapter@_W@__crt_stdio_output@@@__crt_stdio_output@@CA_N_W@Z 10049b70 f i libucrtd:output.obj
 0001:00048ba0       ??$is_pointer_specifier@_W@?$positional_parameter_base@_WV?$string_output_adapter@_W@__crt_stdio_output@@@__crt_stdio_output@@CA_N_W@Z 10049ba0 f i libucrtd:output.obj
 0001:00048bd0       ??$is_string_specifier@D@?$positional_parameter_base@DV?$stream_output_adapter@D@__crt_stdio_output@@@__crt_stdio_output@@CA_ND@Z 10049bd0 f i libucrtd:output.obj
 0001:00048c00       ??$is_string_specifier@D@?$positional_parameter_base@DV?$string_output_adapter@D@__crt_stdio_output@@@__crt_stdio_output@@CA_ND@Z 10049c00 f i libucrtd:output.obj
 0001:00048c30       ??$is_string_specifier@_W@?$positional_parameter_base@_WV?$stream_output_adapter@_W@__crt_stdio_output@@@__crt_stdio_output@@CA_N_W@Z 10049c30 f i libucrtd:output.obj
 0001:00048c60       ??$is_string_specifier@_W@?$positional_parameter_base@_WV?$string_output_adapter@_W@__crt_stdio_output@@@__crt_stdio_output@@CA_N_W@Z 10049c60 f i libucrtd:output.obj
 0001:00048c90       ??$is_wide_character_specifier@D@__crt_stdio_output@@YA_N_KDW4length_modifier@0@@Z 10049c90 f i libucrtd:output.obj
 0001:00048d10       ??$is_wide_character_specifier@_W@__crt_stdio_output@@YA_N_K_WW4length_modifier@0@@Z 10049d10 f i libucrtd:output.obj
 0001:00048dd0       ??$peek_va_arg@C@__crt_stdio_output@@YACPAD@Z 10049dd0 f i libucrtd:output.obj
 0001:00048df0       ??$peek_va_arg@E@__crt_stdio_output@@YAEPAD@Z 10049df0 f i libucrtd:output.obj
 0001:00048e10       ??$peek_va_arg@F@__crt_stdio_output@@YAFPAD@Z 10049e10 f i libucrtd:output.obj
 0001:00048e30       ??$peek_va_arg@G@__crt_stdio_output@@YAGPAD@Z 10049e30 f i libucrtd:output.obj
 0001:00048e50       ??$peek_va_arg@H@__crt_stdio_output@@YAHPAD@Z 10049e50 f i libucrtd:output.obj
 0001:00048e70       ??$peek_va_arg@I@__crt_stdio_output@@YAIPAD@Z 10049e70 f i libucrtd:output.obj
 0001:00048e90       ??$peek_va_arg@PAD@__crt_stdio_output@@YAPADPAD@Z 10049e90 f i libucrtd:output.obj
 0001:00048eb0       ??$peek_va_arg@PAUansi_string@?1??type_case_Z@?$output_processor@DV?$stream_output_adapter@D@__crt_stdio_output@@V?$positional_parameter_base@DV?$stream_output_adapter@D@__crt_stdio_output@@@2@@__crt_stdio_output@@AAE_NXZ@@__crt_stdio_output@@YAPAUansi_string@?1??type_case_Z@?$output_processor@DV?$stream_output_adapter@D@__crt_stdio_output@@V?$positional_parameter_base@DV?$stream_output_adapter@D@__crt_stdio_output@@@2@@0@AAE_NXZ@PAD@Z 10049eb0 f i libucrtd:output.obj
 0001:00048ed0       ??$peek_va_arg@PAUansi_string@?1??type_case_Z@?$output_processor@DV?$string_output_adapter@D@__crt_stdio_output@@V?$positional_parameter_base@DV?$string_output_adapter@D@__crt_stdio_output@@@2@@__crt_stdio_output@@AAE_NXZ@@__crt_stdio_output@@YAPAUansi_string@?1??type_case_Z@?$output_processor@DV?$string_output_adapter@D@__crt_stdio_output@@V?$positional_parameter_base@DV?$string_output_adapter@D@__crt_stdio_output@@@2@@0@AAE_NXZ@PAD@Z 10049ed0 f i libucrtd:output.obj
 0001:00048ef0       ??$peek_va_arg@PAUansi_string@?1??type_case_Z@?$output_processor@_WV?$stream_output_adapter@_W@__crt_stdio_output@@V?$positional_parameter_base@_WV?$stream_output_adapter@_W@__crt_stdio_output@@@2@@__crt_stdio_output@@AAE_NXZ@@__crt_stdio_output@@YAPAUansi_string@?1??type_case_Z@?$output_processor@_WV?$stream_output_adapter@_W@__crt_stdio_output@@V?$positional_parameter_base@_WV?$stream_output_adapter@_W@__crt_stdio_output@@@2@@0@AAE_NXZ@PAD@Z 10049ef0 f i libucrtd:output.obj
 0001:00048f10       ??$peek_va_arg@PAUansi_string@?1??type_case_Z@?$output_processor@_WV?$string_output_adapter@_W@__crt_stdio_output@@V?$positional_parameter_base@_WV?$string_output_adapter@_W@__crt_stdio_output@@@2@@__crt_stdio_output@@AAE_NXZ@@__crt_stdio_output@@YAPAUansi_string@?1??type_case_Z@?$output_processor@_WV?$string_output_adapter@_W@__crt_stdio_output@@V?$positional_parameter_base@_WV?$string_output_adapter@_W@__crt_stdio_output@@@2@@0@AAE_NXZ@PAD@Z 10049f10 f i libucrtd:output.obj
 0001:00048f30       ??$peek_va_arg@PAX@__crt_stdio_output@@YAPAXPAD@Z 10049f30 f i libucrtd:output.obj
 0001:00048f50       ??$peek_va_arg@U_CRT_DOUBLE@@@__crt_stdio_output@@YA?AU_CRT_DOUBLE@@PAD@Z 10049f50 f i libucrtd:output.obj
 0001:00048f70       ??$peek_va_arg@_J@__crt_stdio_output@@YA_JPAD@Z 10049f70 f i libucrtd:output.obj
 0001:00048f90       ??$peek_va_arg@_K@__crt_stdio_output@@YA_KPAD@Z 10049f90 f i libucrtd:output.obj
 0001:00048fb0       ??$peek_va_arg@_W@__crt_stdio_output@@YA_WPAD@Z 10049fb0 f i libucrtd:output.obj
 0001:00048fd0       ??$puttc_nolock@ABDPAU_iobuf@@@?$__crt_char_traits@D@@SAHABD$$QAPAU_iobuf@@@Z 10049fd0 f i libucrtd:output.obj
 0001:00048ff0       ??$puttc_nolock@AB_WPAU_iobuf@@@?$__crt_char_traits@_W@@SAGAB_W$$QAPAU_iobuf@@@Z 10049ff0 f i libucrtd:output.obj
 0001:00049010       ??$read_va_arg@C@__crt_stdio_output@@YACAAPAD@Z 1004a010 f i libucrtd:output.obj
 0001:00049030       ??$read_va_arg@E@__crt_stdio_output@@YAEAAPAD@Z 1004a030 f i libucrtd:output.obj
 0001:00049050       ??$read_va_arg@F@__crt_stdio_output@@YAFAAPAD@Z 1004a050 f i libucrtd:output.obj
 0001:00049070       ??$read_va_arg@G@__crt_stdio_output@@YAGAAPAD@Z 1004a070 f i libucrtd:output.obj
 0001:00049090       ??$read_va_arg@H@__crt_stdio_output@@YAHAAPAD@Z 1004a090 f i libucrtd:output.obj
 0001:000490b0       ??$read_va_arg@I@__crt_stdio_output@@YAIAAPAD@Z 1004a0b0 f i libucrtd:output.obj
 0001:000490d0       ??$read_va_arg@PAD@__crt_stdio_output@@YAPADAAPAD@Z 1004a0d0 f i libucrtd:output.obj
 0001:000490f0       ??$read_va_arg@PAUansi_string@?1??type_case_Z@?$output_processor@DV?$stream_output_adapter@D@__crt_stdio_output@@V?$format_validation_base@DV?$stream_output_adapter@D@__crt_stdio_output@@@2@@__crt_stdio_output@@AAE_NXZ@@__crt_stdio_output@@YAPAUansi_string@?1??type_case_Z@?$output_processor@DV?$stream_output_adapter@D@__crt_stdio_output@@V?$format_validation_base@DV?$stream_output_adapter@D@__crt_stdio_output@@@2@@0@AAE_NXZ@AAPAD@Z 1004a0f0 f i libucrtd:output.obj
 0001:00049110       ??$read_va_arg@PAUansi_string@?1??type_case_Z@?$output_processor@DV?$stream_output_adapter@D@__crt_stdio_output@@V?$positional_parameter_base@DV?$stream_output_adapter@D@__crt_stdio_output@@@2@@__crt_stdio_output@@AAE_NXZ@@__crt_stdio_output@@YAPAUansi_string@?1??type_case_Z@?$output_processor@DV?$stream_output_adapter@D@__crt_stdio_output@@V?$positional_parameter_base@DV?$stream_output_adapter@D@__crt_stdio_output@@@2@@0@AAE_NXZ@AAPAD@Z 1004a110 f i libucrtd:output.obj
 0001:00049130       ??$read_va_arg@PAUansi_string@?1??type_case_Z@?$output_processor@DV?$stream_output_adapter@D@__crt_stdio_output@@V?$standard_base@DV?$stream_output_adapter@D@__crt_stdio_output@@@2@@__crt_stdio_output@@AAE_NXZ@@__crt_stdio_output@@YAPAUansi_string@?1??type_case_Z@?$output_processor@DV?$stream_output_adapter@D@__crt_stdio_output@@V?$standard_base@DV?$stream_output_adapter@D@__crt_stdio_output@@@2@@0@AAE_NXZ@AAPAD@Z 1004a130 f i libucrtd:output.obj
 0001:00049150       ??$read_va_arg@PAUansi_string@?1??type_case_Z@?$output_processor@DV?$string_output_adapter@D@__crt_stdio_output@@V?$format_validation_base@DV?$string_output_adapter@D@__crt_stdio_output@@@2@@__crt_stdio_output@@AAE_NXZ@@__crt_stdio_output@@YAPAUansi_string@?1??type_case_Z@?$output_processor@DV?$string_output_adapter@D@__crt_stdio_output@@V?$format_validation_base@DV?$string_output_adapter@D@__crt_stdio_output@@@2@@0@AAE_NXZ@AAPAD@Z 1004a150 f i libucrtd:output.obj
 0001:00049170       ??$read_va_arg@PAUansi_string@?1??type_case_Z@?$output_processor@DV?$string_output_adapter@D@__crt_stdio_output@@V?$positional_parameter_base@DV?$string_output_adapter@D@__crt_stdio_output@@@2@@__crt_stdio_output@@AAE_NXZ@@__crt_stdio_output@@YAPAUansi_string@?1??type_case_Z@?$output_processor@DV?$string_output_adapter@D@__crt_stdio_output@@V?$positional_parameter_base@DV?$string_output_adapter@D@__crt_stdio_output@@@2@@0@AAE_NXZ@AAPAD@Z 1004a170 f i libucrtd:output.obj
 0001:00049190       ??$read_va_arg@PAUansi_string@?1??type_case_Z@?$output_processor@DV?$string_output_adapter@D@__crt_stdio_output@@V?$standard_base@DV?$string_output_adapter@D@__crt_stdio_output@@@2@@__crt_stdio_output@@AAE_NXZ@@__crt_stdio_output@@YAPAUansi_string@?1??type_case_Z@?$output_processor@DV?$string_output_adapter@D@__crt_stdio_output@@V?$standard_base@DV?$string_output_adapter@D@__crt_stdio_output@@@2@@0@AAE_NXZ@AAPAD@Z 1004a190 f i libucrtd:output.obj
 0001:000491b0       ??$read_va_arg@PAUansi_string@?1??type_case_Z@?$output_processor@_WV?$stream_output_adapter@_W@__crt_stdio_output@@V?$format_validation_base@_WV?$stream_output_adapter@_W@__crt_stdio_output@@@2@@__crt_stdio_output@@AAE_NXZ@@__crt_stdio_output@@YAPAUansi_string@?1??type_case_Z@?$output_processor@_WV?$stream_output_adapter@_W@__crt_stdio_output@@V?$format_validation_base@_WV?$stream_output_adapter@_W@__crt_stdio_output@@@2@@0@AAE_NXZ@AAPAD@Z 1004a1b0 f i libucrtd:output.obj
 0001:000491d0       ??$read_va_arg@PAUansi_string@?1??type_case_Z@?$output_processor@_WV?$stream_output_adapter@_W@__crt_stdio_output@@V?$positional_parameter_base@_WV?$stream_output_adapter@_W@__crt_stdio_output@@@2@@__crt_stdio_output@@AAE_NXZ@@__crt_stdio_output@@YAPAUansi_string@?1??type_case_Z@?$output_processor@_WV?$stream_output_adapter@_W@__crt_stdio_output@@V?$positional_parameter_base@_WV?$stream_output_adapter@_W@__crt_stdio_output@@@2@@0@AAE_NXZ@AAPAD@Z 1004a1d0 f i libucrtd:output.obj
 0001:000491f0       ??$read_va_arg@PAUansi_string@?1??type_case_Z@?$output_processor@_WV?$stream_output_adapter@_W@__crt_stdio_output@@V?$standard_base@_WV?$stream_output_adapter@_W@__crt_stdio_output@@@2@@__crt_stdio_output@@AAE_NXZ@@__crt_stdio_output@@YAPAUansi_string@?1??type_case_Z@?$output_processor@_WV?$stream_output_adapter@_W@__crt_stdio_output@@V?$standard_base@_WV?$stream_output_adapter@_W@__crt_stdio_output@@@2@@0@AAE_NXZ@AAPAD@Z 1004a1f0 f i libucrtd:output.obj
 0001:00049210       ??$read_va_arg@PAUansi_string@?1??type_case_Z@?$output_processor@_WV?$string_output_adapter@_W@__crt_stdio_output@@V?$format_validation_base@_WV?$string_output_adapter@_W@__crt_stdio_output@@@2@@__crt_stdio_output@@AAE_NXZ@@__crt_stdio_output@@YAPAUansi_string@?1??type_case_Z@?$output_processor@_WV?$string_output_adapter@_W@__crt_stdio_output@@V?$format_validation_base@_WV?$string_output_adapter@_W@__crt_stdio_output@@@2@@0@AAE_NXZ@AAPAD@Z 1004a210 f i libucrtd:output.obj
 0001:00049230       ??$read_va_arg@PAUansi_string@?1??type_case_Z@?$output_processor@_WV?$string_output_adapter@_W@__crt_stdio_output@@V?$positional_parameter_base@_WV?$string_output_adapter@_W@__crt_stdio_output@@@2@@__crt_stdio_output@@AAE_NXZ@@__crt_stdio_output@@YAPAUansi_string@?1??type_case_Z@?$output_processor@_WV?$string_output_adapter@_W@__crt_stdio_output@@V?$positional_parameter_base@_WV?$string_output_adapter@_W@__crt_stdio_output@@@2@@0@AAE_NXZ@AAPAD@Z 1004a230 f i libucrtd:output.obj
 0001:00049250       ??$read_va_arg@PAUansi_string@?1??type_case_Z@?$output_processor@_WV?$string_output_adapter@_W@__crt_stdio_output@@V?$standard_base@_WV?$string_output_adapter@_W@__crt_stdio_output@@@2@@__crt_stdio_output@@AAE_NXZ@@__crt_stdio_output@@YAPAUansi_string@?1??type_case_Z@?$output_processor@_WV?$string_output_adapter@_W@__crt_stdio_output@@V?$standard_base@_WV?$string_output_adapter@_W@__crt_stdio_output@@@2@@0@AAE_NXZ@AAPAD@Z 1004a250 f i libucrtd:output.obj
 0001:00049270       ??$read_va_arg@PAX@__crt_stdio_output@@YAPAXAAPAD@Z 1004a270 f i libucrtd:output.obj
 0001:00049290       ??$read_va_arg@U_CRT_DOUBLE@@@__crt_stdio_output@@YA?AU_CRT_DOUBLE@@AAPAD@Z 1004a290 f i libucrtd:output.obj
 0001:000492b0       ??$read_va_arg@_J@__crt_stdio_output@@YA_JAAPAD@Z 1004a2b0 f i libucrtd:output.obj
 0001:000492d0       ??$read_va_arg@_K@__crt_stdio_output@@YA_KAAPAD@Z 1004a2d0 f i libucrtd:output.obj
 0001:000492f0       ??$read_va_arg@_W@__crt_stdio_output@@YA_WAAPAD@Z 1004a2f0 f i libucrtd:output.obj
 0001:00049310       ??$scratch_count@D@formatting_buffer@__crt_stdio_output@@QBEIXZ 1004a310 f i libucrtd:output.obj
 0001:00049330       ??$scratch_data@D@formatting_buffer@__crt_stdio_output@@QAEPADXZ 1004a330 f i libucrtd:output.obj
 0001:00049380       ??$tcstol@AAPBDPAPADH@?$__crt_char_traits@D@@SAJAAPBD$$QAPAPAD$$QAH@Z 1004a380 f i libucrtd:output.obj
 0001:000493b0       ??$tcstol@AAPB_WPAPA_WH@?$__crt_char_traits@_W@@SAJAAPB_W$$QAPAPA_W$$QAH@Z 1004a3b0 f i libucrtd:output.obj
 0001:000493e0       ??$tcstol@PBDPAPADH@?$__crt_char_traits@D@@SAJ$$QAPBD$$QAPAPAD$$QAH@Z 1004a3e0 f i libucrtd:output.obj
 0001:00049410       ??$tcstol@PB_WPAPA_WH@?$__crt_char_traits@_W@@SAJ$$QAPB_W$$QAPAPA_W$$QAH@Z 1004a410 f i libucrtd:output.obj
 0001:00049440       ??$type_case_integer_parse_into_buffer@I@?$output_processor@DV?$stream_output_adapter@D@__crt_stdio_output@@V?$format_validation_base@DV?$stream_output_adapter@D@__crt_stdio_output@@@2@@__crt_stdio_output@@AAEXII_N@Z 1004a440 f i libucrtd:output.obj
 0001:00049510       ??$type_case_integer_parse_into_buffer@I@?$output_processor@DV?$stream_output_adapter@D@__crt_stdio_output@@V?$positional_parameter_base@DV?$stream_output_adapter@D@__crt_stdio_output@@@2@@__crt_stdio_output@@AAEXII_N@Z 1004a510 f i libucrtd:output.obj
 0001:000495e0       ??$type_case_integer_parse_into_buffer@I@?$output_processor@DV?$stream_output_adapter@D@__crt_stdio_output@@V?$standard_base@DV?$stream_output_adapter@D@__crt_stdio_output@@@2@@__crt_stdio_output@@AAEXII_N@Z 1004a5e0 f i libucrtd:output.obj
 0001:000496b0       ??$type_case_integer_parse_into_buffer@I@?$output_processor@DV?$string_output_adapter@D@__crt_stdio_output@@V?$format_validation_base@DV?$string_output_adapter@D@__crt_stdio_output@@@2@@__crt_stdio_output@@AAEXII_N@Z 1004a6b0 f i libucrtd:output.obj
 0001:00049780       ??$type_case_integer_parse_into_buffer@I@?$output_processor@DV?$string_output_adapter@D@__crt_stdio_output@@V?$positional_parameter_base@DV?$string_output_adapter@D@__crt_stdio_output@@@2@@__crt_stdio_output@@AAEXII_N@Z 1004a780 f i libucrtd:output.obj
 0001:00049850       ??$type_case_integer_parse_into_buffer@I@?$output_processor@DV?$string_output_adapter@D@__crt_stdio_output@@V?$standard_base@DV?$string_output_adapter@D@__crt_stdio_output@@@2@@__crt_stdio_output@@AAEXII_N@Z 1004a850 f i libucrtd:output.obj
 0001:00049920       ??$type_case_integer_parse_into_buffer@I@?$output_processor@_WV?$stream_output_adapter@_W@__crt_stdio_output@@V?$format_validation_base@_WV?$stream_output_adapter@_W@__crt_stdio_output@@@2@@__crt_stdio_output@@AAEXII_N@Z 1004a920 f i libucrtd:output.obj
 0001:00049a00       ??$type_case_integer_parse_into_buffer@I@?$output_processor@_WV?$stream_output_adapter@_W@__crt_stdio_output@@V?$positional_parameter_base@_WV?$stream_output_adapter@_W@__crt_stdio_output@@@2@@__crt_stdio_output@@AAEXII_N@Z 1004aa00 f i libucrtd:output.obj
 0001:00049ae0       ??$type_case_integer_parse_into_buffer@I@?$output_processor@_WV?$stream_output_adapter@_W@__crt_stdio_output@@V?$standard_base@_WV?$stream_output_adapter@_W@__crt_stdio_output@@@2@@__crt_stdio_output@@AAEXII_N@Z 1004aae0 f i libucrtd:output.obj
 0001:00049bc0       ??$type_case_integer_parse_into_buffer@I@?$output_processor@_WV?$string_output_adapter@_W@__crt_stdio_output@@V?$format_validation_base@_WV?$string_output_adapter@_W@__crt_stdio_output@@@2@@__crt_stdio_output@@AAEXII_N@Z 1004abc0 f i libucrtd:output.obj
 0001:00049ca0       ??$type_case_integer_parse_into_buffer@I@?$output_processor@_WV?$string_output_adapter@_W@__crt_stdio_output@@V?$positional_parameter_base@_WV?$string_output_adapter@_W@__crt_stdio_output@@@2@@__crt_stdio_output@@AAEXII_N@Z 1004aca0 f i libucrtd:output.obj
 0001:00049d80       ??$type_case_integer_parse_into_buffer@I@?$output_processor@_WV?$string_output_adapter@_W@__crt_stdio_output@@V?$standard_base@_WV?$string_output_adapter@_W@__crt_stdio_output@@@2@@__crt_stdio_output@@AAEXII_N@Z 1004ad80 f i libucrtd:output.obj
 0001:00049e60       ??$type_case_integer_parse_into_buffer@_K@?$output_processor@DV?$stream_output_adapter@D@__crt_stdio_output@@V?$format_validation_base@DV?$stream_output_adapter@D@__crt_stdio_output@@@2@@__crt_stdio_output@@AAEX_KI_N@Z 1004ae60 f i libucrtd:output.obj
 0001:00049f50       ??$type_case_integer_parse_into_buffer@_K@?$output_processor@DV?$stream_output_adapter@D@__crt_stdio_output@@V?$positional_parameter_base@DV?$stream_output_adapter@D@__crt_stdio_output@@@2@@__crt_stdio_output@@AAEX_KI_N@Z 1004af50 f i libucrtd:output.obj
 0001:0004a040       ??$type_case_integer_parse_into_buffer@_K@?$output_processor@DV?$stream_output_adapter@D@__crt_stdio_output@@V?$standard_base@DV?$stream_output_adapter@D@__crt_stdio_output@@@2@@__crt_stdio_output@@AAEX_KI_N@Z 1004b040 f i libucrtd:output.obj
 0001:0004a130       ??$type_case_integer_parse_into_buffer@_K@?$output_processor@DV?$string_output_adapter@D@__crt_stdio_output@@V?$format_validation_base@DV?$string_output_adapter@D@__crt_stdio_output@@@2@@__crt_stdio_output@@AAEX_KI_N@Z 1004b130 f i libucrtd:output.obj
 0001:0004a220       ??$type_case_integer_parse_into_buffer@_K@?$output_processor@DV?$string_output_adapter@D@__crt_stdio_output@@V?$positional_parameter_base@DV?$string_output_adapter@D@__crt_stdio_output@@@2@@__crt_stdio_output@@AAEX_KI_N@Z 1004b220 f i libucrtd:output.obj
 0001:0004a310       ??$type_case_integer_parse_into_buffer@_K@?$output_processor@DV?$string_output_adapter@D@__crt_stdio_output@@V?$standard_base@DV?$string_output_adapter@D@__crt_stdio_output@@@2@@__crt_stdio_output@@AAEX_KI_N@Z 1004b310 f i libucrtd:output.obj
 0001:0004a400       ??$type_case_integer_parse_into_buffer@_K@?$output_processor@_WV?$stream_output_adapter@_W@__crt_stdio_output@@V?$format_validation_base@_WV?$stream_output_adapter@_W@__crt_stdio_output@@@2@@__crt_stdio_output@@AAEX_KI_N@Z 1004b400 f i libucrtd:output.obj
 0001:0004a500       ??$type_case_integer_parse_into_buffer@_K@?$output_processor@_WV?$stream_output_adapter@_W@__crt_stdio_output@@V?$positional_parameter_base@_WV?$stream_output_adapter@_W@__crt_stdio_output@@@2@@__crt_stdio_output@@AAEX_KI_N@Z 1004b500 f i libucrtd:output.obj
 0001:0004a600       ??$type_case_integer_parse_into_buffer@_K@?$output_processor@_WV?$stream_output_adapter@_W@__crt_stdio_output@@V?$standard_base@_WV?$stream_output_adapter@_W@__crt_stdio_output@@@2@@__crt_stdio_output@@AAEX_KI_N@Z 1004b600 f i libucrtd:output.obj
 0001:0004a700       ??$type_case_integer_parse_into_buffer@_K@?$output_processor@_WV?$string_output_adapter@_W@__crt_stdio_output@@V?$format_validation_base@_WV?$string_output_adapter@_W@__crt_stdio_output@@@2@@__crt_stdio_output@@AAEX_KI_N@Z 1004b700 f i libucrtd:output.obj
 0001:0004a800       ??$type_case_integer_parse_into_buffer@_K@?$output_processor@_WV?$string_output_adapter@_W@__crt_stdio_output@@V?$positional_parameter_base@_WV?$string_output_adapter@_W@__crt_stdio_output@@@2@@__crt_stdio_output@@AAEX_KI_N@Z 1004b800 f i libucrtd:output.obj
 0001:0004a900       ??$type_case_integer_parse_into_buffer@_K@?$output_processor@_WV?$string_output_adapter@_W@__crt_stdio_output@@V?$standard_base@_WV?$string_output_adapter@_W@__crt_stdio_output@@@2@@__crt_stdio_output@@AAEX_KI_N@Z 1004b900 f i libucrtd:output.obj
 0001:0004aa00       ??$write_multiple_characters@V?$stream_output_adapter@D@__crt_stdio_output@@D@__crt_stdio_output@@YAXABV?$stream_output_adapter@D@0@DHQAH@Z 1004ba00 f i libucrtd:output.obj
 0001:0004aa50       ??$write_multiple_characters@V?$stream_output_adapter@_W@__crt_stdio_output@@D@__crt_stdio_output@@YAXABV?$stream_output_adapter@_W@0@DHQAH@Z 1004ba50 f i libucrtd:output.obj
 0001:0004aaa0       ??$write_multiple_characters@V?$string_output_adapter@D@__crt_stdio_output@@D@__crt_stdio_output@@YAXABV?$string_output_adapter@D@0@DHQAH@Z 1004baa0 f i libucrtd:output.obj
 0001:0004aaf0       ??$write_multiple_characters@V?$string_output_adapter@_W@__crt_stdio_output@@D@__crt_stdio_output@@YAXABV?$string_output_adapter@_W@0@DHQAH@Z 1004baf0 f i libucrtd:output.obj
 0001:0004ae40       ??0?$common_data@D@__crt_stdio_output@@IAE@XZ 1004be40 f i libucrtd:output.obj
 0001:0004aef0       ??0?$common_data@_W@__crt_stdio_output@@IAE@XZ 1004bef0 f i libucrtd:output.obj
 0001:0004afa0       ??0?$output_adapter_data@DV?$stream_output_adapter@D@__crt_stdio_output@@@__crt_stdio_output@@IAE@ABV?$stream_output_adapter@D@1@_KQBDQAU__crt_locale_pointers@@QAD@Z 1004bfa0 f i libucrtd:output.obj
 0001:0004b000       ??0?$output_adapter_data@DV?$string_output_adapter@D@__crt_stdio_output@@@__crt_stdio_output@@IAE@ABV?$string_output_adapter@D@1@_KQBDQAU__crt_locale_pointers@@QAD@Z 1004c000 f i libucrtd:output.obj
 0001:0004b060       ??0?$output_adapter_data@_WV?$stream_output_adapter@_W@__crt_stdio_output@@@__crt_stdio_output@@IAE@ABV?$stream_output_adapter@_W@1@_KQB_WQAU__crt_locale_pointers@@QAD@Z 1004c060 f i libucrtd:output.obj
 0001:0004b0c0       ??0?$output_adapter_data@_WV?$string_output_adapter@_W@__crt_stdio_output@@@__crt_stdio_output@@IAE@ABV?$string_output_adapter@_W@1@_KQB_WQAU__crt_locale_pointers@@QAD@Z 1004c0c0 f i libucrtd:output.obj
 0001:0004b120       ??0?$output_processor@DV?$stream_output_adapter@D@__crt_stdio_output@@V?$format_validation_base@DV?$stream_output_adapter@D@__crt_stdio_output@@@2@@__crt_stdio_output@@QAE@ABV?$stream_output_adapter@D@1@_KQBDQAU__crt_locale_pointers@@QAD@Z 1004c120 f i libucrtd:output.obj
 0001:0004b150       ??0?$output_processor@DV?$stream_output_adapter@D@__crt_stdio_output@@V?$positional_parameter_base@DV?$stream_output_adapter@D@__crt_stdio_output@@@2@@__crt_stdio_output@@QAE@ABV?$stream_output_adapter@D@1@_KQBDQAU__crt_locale_pointers@@QAD@Z 1004c150 f i libucrtd:output.obj
 0001:0004b180       ??0?$output_processor@DV?$stream_output_adapter@D@__crt_stdio_output@@V?$standard_base@DV?$stream_output_adapter@D@__crt_stdio_output@@@2@@__crt_stdio_output@@QAE@ABV?$stream_output_adapter@D@1@_KQBDQAU__crt_locale_pointers@@QAD@Z 1004c180 f i libucrtd:output.obj
 0001:0004b1b0       ??0?$output_processor@DV?$string_output_adapter@D@__crt_stdio_output@@V?$format_validation_base@DV?$string_output_adapter@D@__crt_stdio_output@@@2@@__crt_stdio_output@@QAE@ABV?$string_output_adapter@D@1@_KQBDQAU__crt_locale_pointers@@QAD@Z 1004c1b0 f i libucrtd:output.obj
 0001:0004b1e0       ??0?$output_processor@DV?$string_output_adapter@D@__crt_stdio_output@@V?$positional_parameter_base@DV?$string_output_adapter@D@__crt_stdio_output@@@2@@__crt_stdio_output@@QAE@ABV?$string_output_adapter@D@1@_KQBDQAU__crt_locale_pointers@@QAD@Z 1004c1e0 f i libucrtd:output.obj
 0001:0004b210       ??0?$output_processor@DV?$string_output_adapter@D@__crt_stdio_output@@V?$standard_base@DV?$string_output_adapter@D@__crt_stdio_output@@@2@@__crt_stdio_output@@QAE@ABV?$string_output_adapter@D@1@_KQBDQAU__crt_locale_pointers@@QAD@Z 1004c210 f i libucrtd:output.obj
 0001:0004b240       ??0?$output_processor@_WV?$stream_output_adapter@_W@__crt_stdio_output@@V?$format_validation_base@_WV?$stream_output_adapter@_W@__crt_stdio_output@@@2@@__crt_stdio_output@@QAE@ABV?$stream_output_adapter@_W@1@_KQB_WQAU__crt_locale_pointers@@QAD@Z 1004c240 f i libucrtd:output.obj
 0001:0004b270       ??0?$output_processor@_WV?$stream_output_adapter@_W@__crt_stdio_output@@V?$positional_parameter_base@_WV?$stream_output_adapter@_W@__crt_stdio_output@@@2@@__crt_stdio_output@@QAE@ABV?$stream_output_adapter@_W@1@_KQB_WQAU__crt_locale_pointers@@QAD@Z 1004c270 f i libucrtd:output.obj
 0001:0004b2a0       ??0?$output_processor@_WV?$stream_output_adapter@_W@__crt_stdio_output@@V?$standard_base@_WV?$stream_output_adapter@_W@__crt_stdio_output@@@2@@__crt_stdio_output@@QAE@ABV?$stream_output_adapter@_W@1@_KQB_WQAU__crt_locale_pointers@@QAD@Z 1004c2a0 f i libucrtd:output.obj
 0001:0004b2d0       ??0?$output_processor@_WV?$string_output_adapter@_W@__crt_stdio_output@@V?$format_validation_base@_WV?$string_output_adapter@_W@__crt_stdio_output@@@2@@__crt_stdio_output@@QAE@ABV?$string_output_adapter@_W@1@_KQB_WQAU__crt_locale_pointers@@QAD@Z 1004c2d0 f i libucrtd:output.obj
 0001:0004b300       ??0?$output_processor@_WV?$string_output_adapter@_W@__crt_stdio_output@@V?$positional_parameter_base@_WV?$string_output_adapter@_W@__crt_stdio_output@@@2@@__crt_stdio_output@@QAE@ABV?$string_output_adapter@_W@1@_KQB_WQAU__crt_locale_pointers@@QAD@Z 1004c300 f i libucrtd:output.obj
 0001:0004b330       ??0?$output_processor@_WV?$string_output_adapter@_W@__crt_stdio_output@@V?$standard_base@_WV?$string_output_adapter@_W@__crt_stdio_output@@@2@@__crt_stdio_output@@QAE@ABV?$string_output_adapter@_W@1@_KQB_WQAU__crt_locale_pointers@@QAD@Z 1004c330 f i libucrtd:output.obj
 0001:0004b360       ??0?$stream_output_adapter@D@__crt_stdio_output@@QAE@QAU_iobuf@@@Z 1004c360 f i libucrtd:output.obj
 0001:0004b380       ??0?$stream_output_adapter@_W@__crt_stdio_output@@QAE@QAU_iobuf@@@Z 1004c380 f i libucrtd:output.obj
 0001:0004b3a0       ??0?$string_output_adapter@D@__crt_stdio_output@@QAE@QAU?$string_output_adapter_context@D@1@@Z 1004c3a0 f i libucrtd:output.obj
 0001:0004b3c0       ??0?$string_output_adapter@_W@__crt_stdio_output@@QAE@QAU?$string_output_adapter_context@_W@1@@Z 1004c3c0 f i libucrtd:output.obj
 0001:0004b3e0       ??0_LocaleUpdate@@QAE@QAU__crt_locale_pointers@@@Z 1004c3e0 f i libucrtd:output.obj
 0001:0004b4b0       ??0__acrt_stdio_temporary_buffering_guard@@QAE@QAU_iobuf@@@Z 1004c4b0 f i libucrtd:output.obj
 0001:0004b4e0       ??0__crt_deferred_errno_cache@@QAE@XZ 1004c4e0 f i libucrtd:output.obj
 0001:0004b500       ??0__crt_errno_guard@@QAE@QAH@Z 1004c500 f i libucrtd:output.obj
 0001:0004b530       ??0__crt_stdio_stream@@QAE@QAU_iobuf@@@Z 1004c530 f i libucrtd:output.obj
 0001:0004b550       ??0formatting_buffer@__crt_stdio_output@@QAE@XZ 1004c550 f i libucrtd:output.obj
 0001:0004b580       ??1?$common_data@D@__crt_stdio_output@@QAE@XZ 1004c580 f i libucrtd:output.obj
 0001:0004b5a0       ??1?$common_data@_W@__crt_stdio_output@@QAE@XZ 1004c5a0 f i libucrtd:output.obj
 0001:0004b5c0       ??1?$format_validation_base@DV?$stream_output_adapter@D@__crt_stdio_output@@@__crt_stdio_output@@QAE@XZ 1004c5c0 f i libucrtd:output.obj
 0001:0004b5e0       ??1?$format_validation_base@DV?$string_output_adapter@D@__crt_stdio_output@@@__crt_stdio_output@@QAE@XZ 1004c5e0 f i libucrtd:output.obj
 0001:0004b600       ??1?$format_validation_base@_WV?$stream_output_adapter@_W@__crt_stdio_output@@@__crt_stdio_output@@QAE@XZ 1004c600 f i libucrtd:output.obj
 0001:0004b620       ??1?$format_validation_base@_WV?$string_output_adapter@_W@__crt_stdio_output@@@__crt_stdio_output@@QAE@XZ 1004c620 f i libucrtd:output.obj
 0001:0004b640       ??1?$output_adapter_data@DV?$stream_output_adapter@D@__crt_stdio_output@@@__crt_stdio_output@@QAE@XZ 1004c640 f i libucrtd:output.obj
 0001:0004b660       ??1?$output_adapter_data@DV?$string_output_adapter@D@__crt_stdio_output@@@__crt_stdio_output@@QAE@XZ 1004c660 f i libucrtd:output.obj
 0001:0004b680       ??1?$output_adapter_data@_WV?$stream_output_adapter@_W@__crt_stdio_output@@@__crt_stdio_output@@QAE@XZ 1004c680 f i libucrtd:output.obj
 0001:0004b6a0       ??1?$output_adapter_data@_WV?$string_output_adapter@_W@__crt_stdio_output@@@__crt_stdio_output@@QAE@XZ 1004c6a0 f i libucrtd:output.obj
 0001:0004b6c0       ??1?$output_processor@DV?$stream_output_adapter@D@__crt_stdio_output@@V?$format_validation_base@DV?$stream_output_adapter@D@__crt_stdio_output@@@2@@__crt_stdio_output@@QAE@XZ 1004c6c0 f i libucrtd:output.obj
 0001:0004b6e0       ??1?$output_processor@DV?$stream_output_adapter@D@__crt_stdio_output@@V?$positional_parameter_base@DV?$stream_output_adapter@D@__crt_stdio_output@@@2@@__crt_stdio_output@@QAE@XZ 1004c6e0 f i libucrtd:output.obj
 0001:0004b700       ??1?$output_processor@DV?$stream_output_adapter@D@__crt_stdio_output@@V?$standard_base@DV?$stream_output_adapter@D@__crt_stdio_output@@@2@@__crt_stdio_output@@QAE@XZ 1004c700 f i libucrtd:output.obj
 0001:0004b720       ??1?$output_processor@DV?$string_output_adapter@D@__crt_stdio_output@@V?$format_validation_base@DV?$string_output_adapter@D@__crt_stdio_output@@@2@@__crt_stdio_output@@QAE@XZ 1004c720 f i libucrtd:output.obj
 0001:0004b740       ??1?$output_processor@DV?$string_output_adapter@D@__crt_stdio_output@@V?$positional_parameter_base@DV?$string_output_adapter@D@__crt_stdio_output@@@2@@__crt_stdio_output@@QAE@XZ 1004c740 f i libucrtd:output.obj
 0001:0004b760       ??1?$output_processor@DV?$string_output_adapter@D@__crt_stdio_output@@V?$standard_base@DV?$string_output_adapter@D@__crt_stdio_output@@@2@@__crt_stdio_output@@QAE@XZ 1004c760 f i libucrtd:output.obj
 0001:0004b780       ??1?$output_processor@_WV?$stream_output_adapter@_W@__crt_stdio_output@@V?$format_validation_base@_WV?$stream_output_adapter@_W@__crt_stdio_output@@@2@@__crt_stdio_output@@QAE@XZ 1004c780 f i libucrtd:output.obj
 0001:0004b7a0       ??1?$output_processor@_WV?$stream_output_adapter@_W@__crt_stdio_output@@V?$positional_parameter_base@_WV?$stream_output_adapter@_W@__crt_stdio_output@@@2@@__crt_stdio_output@@QAE@XZ 1004c7a0 f i libucrtd:output.obj
 0001:0004b7c0       ??1?$output_processor@_WV?$stream_output_adapter@_W@__crt_stdio_output@@V?$standard_base@_WV?$stream_output_adapter@_W@__crt_stdio_output@@@2@@__crt_stdio_output@@QAE@XZ 1004c7c0 f i libucrtd:output.obj
 0001:0004b7e0       ??1?$output_processor@_WV?$string_output_adapter@_W@__crt_stdio_output@@V?$format_validation_base@_WV?$string_output_adapter@_W@__crt_stdio_output@@@2@@__crt_stdio_output@@QAE@XZ 1004c7e0 f i libucrtd:output.obj
 0001:0004b800       ??1?$output_processor@_WV?$string_output_adapter@_W@__crt_stdio_output@@V?$positional_parameter_base@_WV?$string_output_adapter@_W@__crt_stdio_output@@@2@@__crt_stdio_output@@QAE@XZ 1004c800 f i libucrtd:output.obj
 0001:0004b820       ??1?$output_processor@_WV?$string_output_adapter@_W@__crt_stdio_output@@V?$standard_base@_WV?$string_output_adapter@_W@__crt_stdio_output@@@2@@__crt_stdio_output@@QAE@XZ 1004c820 f i libucrtd:output.obj
 0001:0004b840       ??1?$positional_parameter_base@DV?$stream_output_adapter@D@__crt_stdio_output@@@__crt_stdio_output@@QAE@XZ 1004c840 f i libucrtd:output.obj
 0001:0004b860       ??1?$positional_parameter_base@DV?$string_output_adapter@D@__crt_stdio_output@@@__crt_stdio_output@@QAE@XZ 1004c860 f i libucrtd:output.obj
 0001:0004b880       ??1?$positional_parameter_base@_WV?$stream_output_adapter@_W@__crt_stdio_output@@@__crt_stdio_output@@QAE@XZ 1004c880 f i libucrtd:output.obj
 0001:0004b8a0       ??1?$positional_parameter_base@_WV?$string_output_adapter@_W@__crt_stdio_output@@@__crt_stdio_output@@QAE@XZ 1004c8a0 f i libucrtd:output.obj
 0001:0004b8c0       ??1?$standard_base@DV?$stream_output_adapter@D@__crt_stdio_output@@@__crt_stdio_output@@QAE@XZ 1004c8c0 f i libucrtd:output.obj
 0001:0004b8e0       ??1?$standard_base@DV?$string_output_adapter@D@__crt_stdio_output@@@__crt_stdio_output@@QAE@XZ 1004c8e0 f i libucrtd:output.obj
 0001:0004b900       ??1?$standard_base@_WV?$stream_output_adapter@_W@__crt_stdio_output@@@__crt_stdio_output@@QAE@XZ 1004c900 f i libucrtd:output.obj
 0001:0004b920       ??1?$standard_base@_WV?$string_output_adapter@_W@__crt_stdio_output@@@__crt_stdio_output@@QAE@XZ 1004c920 f i libucrtd:output.obj
 0001:0004b940       ??1_LocaleUpdate@@QAE@XZ   1004c940 f i libucrtd:output.obj
 0001:0004b970       ??1__acrt_stdio_temporary_buffering_guard@@QAE@XZ 1004c970 f i libucrtd:output.obj
 0001:0004b9a0       ??1__crt_errno_guard@@QAE@XZ 1004c9a0 f i libucrtd:output.obj
 0001:0004b9d0       ??1formatting_buffer@__crt_stdio_output@@QAE@XZ 1004c9d0 f i libucrtd:output.obj
 0001:0004b9f0       ??4?$__crt_unique_heap_ptr@DU__crt_internal_free_policy@@@@QAEAAV0@$$QAV0@@Z 1004c9f0 f i libucrtd:output.obj
 0001:0004ba20       ??A?$spectre_mitigated_lookup_table@Ustate_transition_pair@__crt_stdio_output@@$0IA@@__crt_stdio_output@@QBEABUstate_transition_pair@1@I@Z 1004ca20 f i libucrtd:output.obj
 0001:0004ba40       ??C__crt_stdio_stream@@QBEPAU__crt_stdio_stream_data@@XZ 1004ca40 f i libucrtd:output.obj
 0001:0004c180       ?GetLocaleT@_LocaleUpdate@@QAEPAU__crt_locale_pointers@@XZ 1004d180 f i libucrtd:output.obj
 0001:0004c1a0       ?adjust_hexit@?$output_processor@DV?$stream_output_adapter@D@__crt_stdio_output@@V?$format_validation_base@DV?$stream_output_adapter@D@__crt_stdio_output@@@2@@__crt_stdio_output@@CADH_N@Z 1004d1a0 f i libucrtd:output.obj
 0001:0004c1e0       ?adjust_hexit@?$output_processor@DV?$stream_output_adapter@D@__crt_stdio_output@@V?$positional_parameter_base@DV?$stream_output_adapter@D@__crt_stdio_output@@@2@@__crt_stdio_output@@CADH_N@Z 1004d1e0 f i libucrtd:output.obj
 0001:0004c220       ?adjust_hexit@?$output_processor@DV?$stream_output_adapter@D@__crt_stdio_output@@V?$standard_base@DV?$stream_output_adapter@D@__crt_stdio_output@@@2@@__crt_stdio_output@@CADH_N@Z 1004d220 f i libucrtd:output.obj
 0001:0004c260       ?adjust_hexit@?$output_processor@DV?$string_output_adapter@D@__crt_stdio_output@@V?$format_validation_base@DV?$string_output_adapter@D@__crt_stdio_output@@@2@@__crt_stdio_output@@CADH_N@Z 1004d260 f i libucrtd:output.obj
 0001:0004c2a0       ?adjust_hexit@?$output_processor@DV?$string_output_adapter@D@__crt_stdio_output@@V?$positional_parameter_base@DV?$string_output_adapter@D@__crt_stdio_output@@@2@@__crt_stdio_output@@CADH_N@Z 1004d2a0 f i libucrtd:output.obj
 0001:0004c2e0       ?adjust_hexit@?$output_processor@DV?$string_output_adapter@D@__crt_stdio_output@@V?$standard_base@DV?$string_output_adapter@D@__crt_stdio_output@@@2@@__crt_stdio_output@@CADH_N@Z 1004d2e0 f i libucrtd:output.obj
 0001:0004c320       ?adjust_hexit@?$output_processor@_WV?$stream_output_adapter@_W@__crt_stdio_output@@V?$format_validation_base@_WV?$stream_output_adapter@_W@__crt_stdio_output@@@2@@__crt_stdio_output@@CADH_N@Z 1004d320 f i libucrtd:output.obj
 0001:0004c360       ?adjust_hexit@?$output_processor@_WV?$stream_output_adapter@_W@__crt_stdio_output@@V?$positional_parameter_base@_WV?$stream_output_adapter@_W@__crt_stdio_output@@@2@@__crt_stdio_output@@CADH_N@Z 1004d360 f i libucrtd:output.obj
 0001:0004c3a0       ?adjust_hexit@?$output_processor@_WV?$stream_output_adapter@_W@__crt_stdio_output@@V?$standard_base@_WV?$stream_output_adapter@_W@__crt_stdio_output@@@2@@__crt_stdio_output@@CADH_N@Z 1004d3a0 f i libucrtd:output.obj
 0001:0004c3e0       ?adjust_hexit@?$output_processor@_WV?$string_output_adapter@_W@__crt_stdio_output@@V?$format_validation_base@_WV?$string_output_adapter@_W@__crt_stdio_output@@@2@@__crt_stdio_output@@CADH_N@Z 1004d3e0 f i libucrtd:output.obj
 0001:0004c420       ?adjust_hexit@?$output_processor@_WV?$string_output_adapter@_W@__crt_stdio_output@@V?$positional_parameter_base@_WV?$string_output_adapter@_W@__crt_stdio_output@@@2@@__crt_stdio_output@@CADH_N@Z 1004d420 f i libucrtd:output.obj
 0001:0004c460       ?adjust_hexit@?$output_processor@_WV?$string_output_adapter@_W@__crt_stdio_output@@V?$standard_base@_WV?$string_output_adapter@_W@__crt_stdio_output@@@2@@__crt_stdio_output@@CADH_N@Z 1004d460 f i libucrtd:output.obj
 0001:0004c4a0       ?advance_to_next_pass@?$positional_parameter_base@DV?$stream_output_adapter@D@__crt_stdio_output@@@__crt_stdio_output@@IAE_NXZ 1004d4a0 f i libucrtd:output.obj
 0001:0004c540       ?advance_to_next_pass@?$positional_parameter_base@DV?$string_output_adapter@D@__crt_stdio_output@@@__crt_stdio_output@@IAE_NXZ 1004d540 f i libucrtd:output.obj
 0001:0004c5e0       ?advance_to_next_pass@?$positional_parameter_base@_WV?$stream_output_adapter@_W@__crt_stdio_output@@@__crt_stdio_output@@IAE_NXZ 1004d5e0 f i libucrtd:output.obj
 0001:0004c680       ?advance_to_next_pass@?$positional_parameter_base@_WV?$string_output_adapter@_W@__crt_stdio_output@@@__crt_stdio_output@@IAE_NXZ 1004d680 f i libucrtd:output.obj
 0001:0004c720       ?advance_to_next_pass@?$standard_base@DV?$stream_output_adapter@D@__crt_stdio_output@@@__crt_stdio_output@@IAE_NXZ 1004d720 f i libucrtd:output.obj
 0001:0004c770       ?advance_to_next_pass@?$standard_base@DV?$string_output_adapter@D@__crt_stdio_output@@@__crt_stdio_output@@IAE_NXZ 1004d770 f i libucrtd:output.obj
 0001:0004c7c0       ?advance_to_next_pass@?$standard_base@_WV?$stream_output_adapter@_W@__crt_stdio_output@@@__crt_stdio_output@@IAE_NXZ 1004d7c0 f i libucrtd:output.obj
 0001:0004c810       ?advance_to_next_pass@?$standard_base@_WV?$string_output_adapter@_W@__crt_stdio_output@@@__crt_stdio_output@@IAE_NXZ 1004d810 f i libucrtd:output.obj
 0001:0004c860       ?crop_zeroes@__crt_stdio_output@@YAXPADQAU__crt_locale_pointers@@@Z 1004d860 f i libucrtd:output.obj
 0001:0004c960       ?find_next_state@?$output_processor@DV?$stream_output_adapter@D@__crt_stdio_output@@V?$format_validation_base@DV?$stream_output_adapter@D@__crt_stdio_output@@@2@@__crt_stdio_output@@ABE?AW4state@2@DW432@@Z 1004d960 f i libucrtd:output.obj
 0001:0004c9d0       ?find_next_state@?$output_processor@DV?$stream_output_adapter@D@__crt_stdio_output@@V?$positional_parameter_base@DV?$stream_output_adapter@D@__crt_stdio_output@@@2@@__crt_stdio_output@@ABE?AW4state@2@DW432@@Z 1004d9d0 f i libucrtd:output.obj
 0001:0004ca40       ?find_next_state@?$output_processor@DV?$stream_output_adapter@D@__crt_stdio_output@@V?$standard_base@DV?$stream_output_adapter@D@__crt_stdio_output@@@2@@__crt_stdio_output@@ABE?AW4state@2@DW432@@Z 1004da40 f i libucrtd:output.obj
 0001:0004cab0       ?find_next_state@?$output_processor@DV?$string_output_adapter@D@__crt_stdio_output@@V?$format_validation_base@DV?$string_output_adapter@D@__crt_stdio_output@@@2@@__crt_stdio_output@@ABE?AW4state@2@DW432@@Z 1004dab0 f i libucrtd:output.obj
 0001:0004cb20       ?find_next_state@?$output_processor@DV?$string_output_adapter@D@__crt_stdio_output@@V?$positional_parameter_base@DV?$string_output_adapter@D@__crt_stdio_output@@@2@@__crt_stdio_output@@ABE?AW4state@2@DW432@@Z 1004db20 f i libucrtd:output.obj
 0001:0004cb90       ?find_next_state@?$output_processor@DV?$string_output_adapter@D@__crt_stdio_output@@V?$standard_base@DV?$string_output_adapter@D@__crt_stdio_output@@@2@@__crt_stdio_output@@ABE?AW4state@2@DW432@@Z 1004db90 f i libucrtd:output.obj
 0001:0004cc00       ?find_next_state@?$output_processor@_WV?$stream_output_adapter@_W@__crt_stdio_output@@V?$format_validation_base@_WV?$stream_output_adapter@_W@__crt_stdio_output@@@2@@__crt_stdio_output@@ABE?AW4state@2@_WW432@@Z 1004dc00 f i libucrtd:output.obj
 0001:0004cc70       ?find_next_state@?$output_processor@_WV?$stream_output_adapter@_W@__crt_stdio_output@@V?$positional_parameter_base@_WV?$stream_output_adapter@_W@__crt_stdio_output@@@2@@__crt_stdio_output@@ABE?AW4state@2@_WW432@@Z 1004dc70 f i libucrtd:output.obj
 0001:0004cce0       ?find_next_state@?$output_processor@_WV?$stream_output_adapter@_W@__crt_stdio_output@@V?$standard_base@_WV?$stream_output_adapter@_W@__crt_stdio_output@@@2@@__crt_stdio_output@@ABE?AW4state@2@_WW432@@Z 1004dce0 f i libucrtd:output.obj
 0001:0004cd50       ?find_next_state@?$output_processor@_WV?$string_output_adapter@_W@__crt_stdio_output@@V?$format_validation_base@_WV?$string_output_adapter@_W@__crt_stdio_output@@@2@@__crt_stdio_output@@ABE?AW4state@2@_WW432@@Z 1004dd50 f i libucrtd:output.obj
 0001:0004cdc0       ?find_next_state@?$output_processor@_WV?$string_output_adapter@_W@__crt_stdio_output@@V?$positional_parameter_base@_WV?$string_output_adapter@_W@__crt_stdio_output@@@2@@__crt_stdio_output@@ABE?AW4state@2@_WW432@@Z 1004ddc0 f i libucrtd:output.obj
 0001:0004ce30       ?find_next_state@?$output_processor@_WV?$string_output_adapter@_W@__crt_stdio_output@@V?$standard_base@_WV?$string_output_adapter@_W@__crt_stdio_output@@@2@@__crt_stdio_output@@ABE?AW4state@2@_WW432@@Z 1004de30 f i libucrtd:output.obj
 0001:0004cea0       ?force_decimal_point@__crt_stdio_output@@YAXPADQAU__crt_locale_pointers@@@Z 1004dea0 f i libucrtd:output.obj
 0001:0004cf70       ?get@__crt_deferred_errno_cache@@QAEAAHXZ 1004df70 f i libucrtd:output.obj
 0001:0004cfa0       ?get_flags@__crt_stdio_stream@@QBEJXZ 1004dfa0 f i libucrtd:output.obj
 0001:0004cfc0       ?get_parameter_type@?$positional_parameter_base@DV?$stream_output_adapter@D@__crt_stdio_output@@@__crt_stdio_output@@CA?AW4parameter_type@12@F@Z 1004dfc0 f i libucrtd:output.obj
 0001:0004cfd0       ?get_parameter_type@?$positional_parameter_base@DV?$stream_output_adapter@D@__crt_stdio_output@@@__crt_stdio_output@@CA?AW4parameter_type@12@G@Z 1004dfd0 f i libucrtd:output.obj
 0001:0004cfe0       ?get_parameter_type@?$positional_parameter_base@DV?$stream_output_adapter@D@__crt_stdio_output@@@__crt_stdio_output@@CA?AW4parameter_type@12@H@Z 1004dfe0 f i libucrtd:output.obj
 0001:0004cff0       ?get_parameter_type@?$positional_parameter_base@DV?$stream_output_adapter@D@__crt_stdio_output@@@__crt_stdio_output@@CA?AW4parameter_type@12@I@Z 1004dff0 f i libucrtd:output.obj
 0001:0004d000       ?get_parameter_type@?$positional_parameter_base@DV?$stream_output_adapter@D@__crt_stdio_output@@@__crt_stdio_output@@CA?AW4parameter_type@12@U_CRT_DOUBLE@@@Z 1004e000 f i libucrtd:output.obj
 0001:0004d010       ?get_parameter_type@?$positional_parameter_base@DV?$stream_output_adapter@D@__crt_stdio_output@@@__crt_stdio_output@@CA?AW4parameter_type@12@_J@Z 1004e010 f i libucrtd:output.obj
 0001:0004d020       ?get_parameter_type@?$positional_parameter_base@DV?$stream_output_adapter@D@__crt_stdio_output@@@__crt_stdio_output@@CA?AW4parameter_type@12@_K@Z 1004e020 f i libucrtd:output.obj
 0001:0004d030       ?get_parameter_type@?$positional_parameter_base@DV?$stream_output_adapter@D@__crt_stdio_output@@@__crt_stdio_output@@CA?AW4parameter_type@12@_W@Z 1004e030 f i libucrtd:output.obj
 0001:0004d040       ?get_parameter_type@?$positional_parameter_base@DV?$string_output_adapter@D@__crt_stdio_output@@@__crt_stdio_output@@CA?AW4parameter_type@12@F@Z 1004e040 f i libucrtd:output.obj
 0001:0004d050       ?get_parameter_type@?$positional_parameter_base@DV?$string_output_adapter@D@__crt_stdio_output@@@__crt_stdio_output@@CA?AW4parameter_type@12@G@Z 1004e050 f i libucrtd:output.obj
 0001:0004d060       ?get_parameter_type@?$positional_parameter_base@DV?$string_output_adapter@D@__crt_stdio_output@@@__crt_stdio_output@@CA?AW4parameter_type@12@H@Z 1004e060 f i libucrtd:output.obj
 0001:0004d070       ?get_parameter_type@?$positional_parameter_base@DV?$string_output_adapter@D@__crt_stdio_output@@@__crt_stdio_output@@CA?AW4parameter_type@12@I@Z 1004e070 f i libucrtd:output.obj
 0001:0004d080       ?get_parameter_type@?$positional_parameter_base@DV?$string_output_adapter@D@__crt_stdio_output@@@__crt_stdio_output@@CA?AW4parameter_type@12@U_CRT_DOUBLE@@@Z 1004e080 f i libucrtd:output.obj
 0001:0004d090       ?get_parameter_type@?$positional_parameter_base@DV?$string_output_adapter@D@__crt_stdio_output@@@__crt_stdio_output@@CA?AW4parameter_type@12@_J@Z 1004e090 f i libucrtd:output.obj
 0001:0004d0a0       ?get_parameter_type@?$positional_parameter_base@DV?$string_output_adapter@D@__crt_stdio_output@@@__crt_stdio_output@@CA?AW4parameter_type@12@_K@Z 1004e0a0 f i libucrtd:output.obj
 0001:0004d0b0       ?get_parameter_type@?$positional_parameter_base@DV?$string_output_adapter@D@__crt_stdio_output@@@__crt_stdio_output@@CA?AW4parameter_type@12@_W@Z 1004e0b0 f i libucrtd:output.obj
 0001:0004d0c0       ?get_parameter_type@?$positional_parameter_base@_WV?$stream_output_adapter@_W@__crt_stdio_output@@@__crt_stdio_output@@CA?AW4parameter_type@12@F@Z 1004e0c0 f i libucrtd:output.obj
 0001:0004d0d0       ?get_parameter_type@?$positional_parameter_base@_WV?$stream_output_adapter@_W@__crt_stdio_output@@@__crt_stdio_output@@CA?AW4parameter_type@12@G@Z 1004e0d0 f i libucrtd:output.obj
 0001:0004d0e0       ?get_parameter_type@?$positional_parameter_base@_WV?$stream_output_adapter@_W@__crt_stdio_output@@@__crt_stdio_output@@CA?AW4parameter_type@12@H@Z 1004e0e0 f i libucrtd:output.obj
 0001:0004d0f0       ?get_parameter_type@?$positional_parameter_base@_WV?$stream_output_adapter@_W@__crt_stdio_output@@@__crt_stdio_output@@CA?AW4parameter_type@12@I@Z 1004e0f0 f i libucrtd:output.obj
 0001:0004d100       ?get_parameter_type@?$positional_parameter_base@_WV?$stream_output_adapter@_W@__crt_stdio_output@@@__crt_stdio_output@@CA?AW4parameter_type@12@U_CRT_DOUBLE@@@Z 1004e100 f i libucrtd:output.obj
 0001:0004d110       ?get_parameter_type@?$positional_parameter_base@_WV?$stream_output_adapter@_W@__crt_stdio_output@@@__crt_stdio_output@@CA?AW4parameter_type@12@_J@Z 1004e110 f i libucrtd:output.obj
 0001:0004d120       ?get_parameter_type@?$positional_parameter_base@_WV?$stream_output_adapter@_W@__crt_stdio_output@@@__crt_stdio_output@@CA?AW4parameter_type@12@_K@Z 1004e120 f i libucrtd:output.obj
 0001:0004d130       ?get_parameter_type@?$positional_parameter_base@_WV?$stream_output_adapter@_W@__crt_stdio_output@@@__crt_stdio_output@@CA?AW4parameter_type@12@_W@Z 1004e130 f i libucrtd:output.obj
 0001:0004d140       ?get_parameter_type@?$positional_parameter_base@_WV?$string_output_adapter@_W@__crt_stdio_output@@@__crt_stdio_output@@CA?AW4parameter_type@12@F@Z 1004e140 f i libucrtd:output.obj
 0001:0004d150       ?get_parameter_type@?$positional_parameter_base@_WV?$string_output_adapter@_W@__crt_stdio_output@@@__crt_stdio_output@@CA?AW4parameter_type@12@G@Z 1004e150 f i libucrtd:output.obj
 0001:0004d160       ?get_parameter_type@?$positional_parameter_base@_WV?$string_output_adapter@_W@__crt_stdio_output@@@__crt_stdio_output@@CA?AW4parameter_type@12@H@Z 1004e160 f i libucrtd:output.obj
 0001:0004d170       ?get_parameter_type@?$positional_parameter_base@_WV?$string_output_adapter@_W@__crt_stdio_output@@@__crt_stdio_output@@CA?AW4parameter_type@12@I@Z 1004e170 f i libucrtd:output.obj
 0001:0004d180       ?get_parameter_type@?$positional_parameter_base@_WV?$string_output_adapter@_W@__crt_stdio_output@@@__crt_stdio_output@@CA?AW4parameter_type@12@U_CRT_DOUBLE@@@Z 1004e180 f i libucrtd:output.obj
 0001:0004d190       ?get_parameter_type@?$positional_parameter_base@_WV?$string_output_adapter@_W@__crt_stdio_output@@@__crt_stdio_output@@CA?AW4parameter_type@12@_J@Z 1004e190 f i libucrtd:output.obj
 0001:0004d1a0       ?get_parameter_type@?$positional_parameter_base@_WV?$string_output_adapter@_W@__crt_stdio_output@@@__crt_stdio_output@@CA?AW4parameter_type@12@_K@Z 1004e1a0 f i libucrtd:output.obj
 0001:0004d1b0       ?get_parameter_type@?$positional_parameter_base@_WV?$string_output_adapter@_W@__crt_stdio_output@@@__crt_stdio_output@@CA?AW4parameter_type@12@_W@Z 1004e1b0 f i libucrtd:output.obj
 0001:0004d1c0       ?has_flag@?$output_processor@DV?$stream_output_adapter@D@__crt_stdio_output@@V?$format_validation_base@DV?$stream_output_adapter@D@__crt_stdio_output@@@2@@__crt_stdio_output@@ABE_NI@Z 1004e1c0 f i libucrtd:output.obj
 0001:0004d1f0       ?has_flag@?$output_processor@DV?$stream_output_adapter@D@__crt_stdio_output@@V?$positional_parameter_base@DV?$stream_output_adapter@D@__crt_stdio_output@@@2@@__crt_stdio_output@@ABE_NI@Z 1004e1f0 f i libucrtd:output.obj
 0001:0004d220       ?has_flag@?$output_processor@DV?$stream_output_adapter@D@__crt_stdio_output@@V?$standard_base@DV?$stream_output_adapter@D@__crt_stdio_output@@@2@@__crt_stdio_output@@ABE_NI@Z 1004e220 f i libucrtd:output.obj
 0001:0004d250       ?has_flag@?$output_processor@DV?$string_output_adapter@D@__crt_stdio_output@@V?$format_validation_base@DV?$string_output_adapter@D@__crt_stdio_output@@@2@@__crt_stdio_output@@ABE_NI@Z 1004e250 f i libucrtd:output.obj
 0001:0004d280       ?has_flag@?$output_processor@DV?$string_output_adapter@D@__crt_stdio_output@@V?$positional_parameter_base@DV?$string_output_adapter@D@__crt_stdio_output@@@2@@__crt_stdio_output@@ABE_NI@Z 1004e280 f i libucrtd:output.obj
 0001:0004d2b0       ?has_flag@?$output_processor@DV?$string_output_adapter@D@__crt_stdio_output@@V?$standard_base@DV?$string_output_adapter@D@__crt_stdio_output@@@2@@__crt_stdio_output@@ABE_NI@Z 1004e2b0 f i libucrtd:output.obj
 0001:0004d2e0       ?has_flag@?$output_processor@_WV?$stream_output_adapter@_W@__crt_stdio_output@@V?$format_validation_base@_WV?$stream_output_adapter@_W@__crt_stdio_output@@@2@@__crt_stdio_output@@ABE_NI@Z 1004e2e0 f i libucrtd:output.obj
 0001:0004d310       ?has_flag@?$output_processor@_WV?$stream_output_adapter@_W@__crt_stdio_output@@V?$positional_parameter_base@_WV?$stream_output_adapter@_W@__crt_stdio_output@@@2@@__crt_stdio_output@@ABE_NI@Z 1004e310 f i libucrtd:output.obj
 0001:0004d340       ?has_flag@?$output_processor@_WV?$stream_output_adapter@_W@__crt_stdio_output@@V?$standard_base@_WV?$stream_output_adapter@_W@__crt_stdio_output@@@2@@__crt_stdio_output@@ABE_NI@Z 1004e340 f i libucrtd:output.obj
 0001:0004d370       ?has_flag@?$output_processor@_WV?$string_output_adapter@_W@__crt_stdio_output@@V?$format_validation_base@_WV?$string_output_adapter@_W@__crt_stdio_output@@@2@@__crt_stdio_output@@ABE_NI@Z 1004e370 f i libucrtd:output.obj
 0001:0004d3a0       ?has_flag@?$output_processor@_WV?$string_output_adapter@_W@__crt_stdio_output@@V?$positional_parameter_base@_WV?$string_output_adapter@_W@__crt_stdio_output@@@2@@__crt_stdio_output@@ABE_NI@Z 1004e3a0 f i libucrtd:output.obj
 0001:0004d3d0       ?has_flag@?$output_processor@_WV?$string_output_adapter@_W@__crt_stdio_output@@V?$standard_base@_WV?$string_output_adapter@_W@__crt_stdio_output@@@2@@__crt_stdio_output@@ABE_NI@Z 1004e3d0 f i libucrtd:output.obj
 0001:0004d400       ?is_positional_parameter_reappearance_consistent@?$positional_parameter_base@DV?$stream_output_adapter@D@__crt_stdio_output@@@__crt_stdio_output@@AAE_NABUparameter_data@12@W4parameter_type@12@DW4length_modifier@2@@Z 1004e400 f i libucrtd:output.obj
 0001:0004d630       ?is_positional_parameter_reappearance_consistent@?$positional_parameter_base@DV?$string_output_adapter@D@__crt_stdio_output@@@__crt_stdio_output@@AAE_NABUparameter_data@12@W4parameter_type@12@DW4length_modifier@2@@Z 1004e630 f i libucrtd:output.obj
 0001:0004d860       ?is_positional_parameter_reappearance_consistent@?$positional_parameter_base@_WV?$stream_output_adapter@_W@__crt_stdio_output@@@__crt_stdio_output@@AAE_NABUparameter_data@12@W4parameter_type@12@_WW4length_modifier@2@@Z 1004e860 f i libucrtd:output.obj
 0001:0004da90       ?is_positional_parameter_reappearance_consistent@?$positional_parameter_base@_WV?$string_output_adapter@_W@__crt_stdio_output@@@__crt_stdio_output@@AAE_NABUparameter_data@12@W4parameter_type@12@_WW4length_modifier@2@@Z 1004ea90 f i libucrtd:output.obj
 0001:0004dcc0       ?is_string_backed@__crt_stdio_stream@@QBE_NXZ 1004ecc0 f i libucrtd:output.obj
 0001:0004dd00       ?narrow_null_string@?$output_processor@DV?$stream_output_adapter@D@__crt_stdio_output@@V?$format_validation_base@DV?$stream_output_adapter@D@__crt_stdio_output@@@2@@__crt_stdio_output@@CAPADXZ 1004ed00 f i libucrtd:output.obj
 0001:0004dd10       ?narrow_null_string@?$output_processor@DV?$stream_output_adapter@D@__crt_stdio_output@@V?$positional_parameter_base@DV?$stream_output_adapter@D@__crt_stdio_output@@@2@@__crt_stdio_output@@CAPADXZ 1004ed10 f i libucrtd:output.obj
 0001:0004dd20       ?narrow_null_string@?$output_processor@DV?$stream_output_adapter@D@__crt_stdio_output@@V?$standard_base@DV?$stream_output_adapter@D@__crt_stdio_output@@@2@@__crt_stdio_output@@CAPADXZ 1004ed20 f i libucrtd:output.obj
 0001:0004dd30       ?narrow_null_string@?$output_processor@DV?$string_output_adapter@D@__crt_stdio_output@@V?$format_validation_base@DV?$string_output_adapter@D@__crt_stdio_output@@@2@@__crt_stdio_output@@CAPADXZ 1004ed30 f i libucrtd:output.obj
 0001:0004dd40       ?narrow_null_string@?$output_processor@DV?$string_output_adapter@D@__crt_stdio_output@@V?$positional_parameter_base@DV?$string_output_adapter@D@__crt_stdio_output@@@2@@__crt_stdio_output@@CAPADXZ 1004ed40 f i libucrtd:output.obj
 0001:0004dd50       ?narrow_null_string@?$output_processor@DV?$string_output_adapter@D@__crt_stdio_output@@V?$standard_base@DV?$string_output_adapter@D@__crt_stdio_output@@@2@@__crt_stdio_output@@CAPADXZ 1004ed50 f i libucrtd:output.obj
 0001:0004dd60       ?narrow_null_string@?$output_processor@_WV?$stream_output_adapter@_W@__crt_stdio_output@@V?$format_validation_base@_WV?$stream_output_adapter@_W@__crt_stdio_output@@@2@@__crt_stdio_output@@CAPADXZ 1004ed60 f i libucrtd:output.obj
 0001:0004dd70       ?narrow_null_string@?$output_processor@_WV?$stream_output_adapter@_W@__crt_stdio_output@@V?$positional_parameter_base@_WV?$stream_output_adapter@_W@__crt_stdio_output@@@2@@__crt_stdio_output@@CAPADXZ 1004ed70 f i libucrtd:output.obj
 0001:0004dd80       ?narrow_null_string@?$output_processor@_WV?$stream_output_adapter@_W@__crt_stdio_output@@V?$standard_base@_WV?$stream_output_adapter@_W@__crt_stdio_output@@@2@@__crt_stdio_output@@CAPADXZ 1004ed80 f i libucrtd:output.obj
 0001:0004dd90       ?narrow_null_string@?$output_processor@_WV?$string_output_adapter@_W@__crt_stdio_output@@V?$format_validation_base@_WV?$string_output_adapter@_W@__crt_stdio_output@@@2@@__crt_stdio_output@@CAPADXZ 1004ed90 f i libucrtd:output.obj
 0001:0004dda0       ?narrow_null_string@?$output_processor@_WV?$string_output_adapter@_W@__crt_stdio_output@@V?$positional_parameter_base@_WV?$string_output_adapter@_W@__crt_stdio_output@@@2@@__crt_stdio_output@@CAPADXZ 1004eda0 f i libucrtd:output.obj
 0001:0004ddb0       ?narrow_null_string@?$output_processor@_WV?$string_output_adapter@_W@__crt_stdio_output@@V?$standard_base@_WV?$string_output_adapter@_W@__crt_stdio_output@@@2@@__crt_stdio_output@@CAPADXZ 1004edb0 f i libucrtd:output.obj
 0001:0004ddc0       ?parse_int_from_format_string@?$output_processor@DV?$stream_output_adapter@D@__crt_stdio_output@@V?$format_validation_base@DV?$stream_output_adapter@D@__crt_stdio_output@@@2@@__crt_stdio_output@@AAE_NQAH@Z 1004edc0 f i libucrtd:output.obj
 0001:0004de80       ?parse_int_from_format_string@?$output_processor@DV?$stream_output_adapter@D@__crt_stdio_output@@V?$positional_parameter_base@DV?$stream_output_adapter@D@__crt_stdio_output@@@2@@__crt_stdio_output@@AAE_NQAH@Z 1004ee80 f i libucrtd:output.obj
 0001:0004df40       ?parse_int_from_format_string@?$output_processor@DV?$stream_output_adapter@D@__crt_stdio_output@@V?$standard_base@DV?$stream_output_adapter@D@__crt_stdio_output@@@2@@__crt_stdio_output@@AAE_NQAH@Z 1004ef40 f i libucrtd:output.obj
 0001:0004e000       ?parse_int_from_format_string@?$output_processor@DV?$string_output_adapter@D@__crt_stdio_output@@V?$format_validation_base@DV?$string_output_adapter@D@__crt_stdio_output@@@2@@__crt_stdio_output@@AAE_NQAH@Z 1004f000 f i libucrtd:output.obj
 0001:0004e0c0       ?parse_int_from_format_string@?$output_processor@DV?$string_output_adapter@D@__crt_stdio_output@@V?$positional_parameter_base@DV?$string_output_adapter@D@__crt_stdio_output@@@2@@__crt_stdio_output@@AAE_NQAH@Z 1004f0c0 f i libucrtd:output.obj
 0001:0004e180       ?parse_int_from_format_string@?$output_processor@DV?$string_output_adapter@D@__crt_stdio_output@@V?$standard_base@DV?$string_output_adapter@D@__crt_stdio_output@@@2@@__crt_stdio_output@@AAE_NQAH@Z 1004f180 f i libucrtd:output.obj
 0001:0004e240       ?parse_int_from_format_string@?$output_processor@_WV?$stream_output_adapter@_W@__crt_stdio_output@@V?$format_validation_base@_WV?$stream_output_adapter@_W@__crt_stdio_output@@@2@@__crt_stdio_output@@AAE_NQAH@Z 1004f240 f i libucrtd:output.obj
 0001:0004e300       ?parse_int_from_format_string@?$output_processor@_WV?$stream_output_adapter@_W@__crt_stdio_output@@V?$positional_parameter_base@_WV?$stream_output_adapter@_W@__crt_stdio_output@@@2@@__crt_stdio_output@@AAE_NQAH@Z 1004f300 f i libucrtd:output.obj
 0001:0004e3c0       ?parse_int_from_format_string@?$output_processor@_WV?$stream_output_adapter@_W@__crt_stdio_output@@V?$standard_base@_WV?$stream_output_adapter@_W@__crt_stdio_output@@@2@@__crt_stdio_output@@AAE_NQAH@Z 1004f3c0 f i libucrtd:output.obj
 0001:0004e480       ?parse_int_from_format_string@?$output_processor@_WV?$string_output_adapter@_W@__crt_stdio_output@@V?$format_validation_base@_WV?$string_output_adapter@_W@__crt_stdio_output@@@2@@__crt_stdio_output@@AAE_NQAH@Z 1004f480 f i libucrtd:output.obj
 0001:0004e540       ?parse_int_from_format_string@?$output_processor@_WV?$string_output_adapter@_W@__crt_stdio_output@@V?$positional_parameter_base@_WV?$string_output_adapter@_W@__crt_stdio_output@@@2@@__crt_stdio_output@@AAE_NQAH@Z 1004f540 f i libucrtd:output.obj
 0001:0004e600       ?parse_int_from_format_string@?$output_processor@_WV?$string_output_adapter@_W@__crt_stdio_output@@V?$standard_base@_WV?$string_output_adapter@_W@__crt_stdio_output@@@2@@__crt_stdio_output@@AAE_NQAH@Z 1004f600 f i libucrtd:output.obj
 0001:0004e6c0       ?process@?$output_processor@DV?$stream_output_adapter@D@__crt_stdio_output@@V?$format_validation_base@DV?$stream_output_adapter@D@__crt_stdio_output@@@2@@__crt_stdio_output@@QAEHXZ 1004f6c0 f i libucrtd:output.obj
 0001:0004e970       ?process@?$output_processor@DV?$stream_output_adapter@D@__crt_stdio_output@@V?$positional_parameter_base@DV?$stream_output_adapter@D@__crt_stdio_output@@@2@@__crt_stdio_output@@QAEHXZ 1004f970 f i libucrtd:output.obj
 0001:0004ec20       ?process@?$output_processor@DV?$stream_output_adapter@D@__crt_stdio_output@@V?$standard_base@DV?$stream_output_adapter@D@__crt_stdio_output@@@2@@__crt_stdio_output@@QAEHXZ 1004fc20 f i libucrtd:output.obj
 0001:0004eed0       ?process@?$output_processor@DV?$string_output_adapter@D@__crt_stdio_output@@V?$format_validation_base@DV?$string_output_adapter@D@__crt_stdio_output@@@2@@__crt_stdio_output@@QAEHXZ 1004fed0 f i libucrtd:output.obj
 0001:0004f180       ?process@?$output_processor@DV?$string_output_adapter@D@__crt_stdio_output@@V?$positional_parameter_base@DV?$string_output_adapter@D@__crt_stdio_output@@@2@@__crt_stdio_output@@QAEHXZ 10050180 f i libucrtd:output.obj
 0001:0004f430       ?process@?$output_processor@DV?$string_output_adapter@D@__crt_stdio_output@@V?$standard_base@DV?$string_output_adapter@D@__crt_stdio_output@@@2@@__crt_stdio_output@@QAEHXZ 10050430 f i libucrtd:output.obj
 0001:0004f6e0       ?process@?$output_processor@_WV?$stream_output_adapter@_W@__crt_stdio_output@@V?$format_validation_base@_WV?$stream_output_adapter@_W@__crt_stdio_output@@@2@@__crt_stdio_output@@QAEHXZ 100506e0 f i libucrtd:output.obj
 0001:0004f990       ?process@?$output_processor@_WV?$stream_output_adapter@_W@__crt_stdio_output@@V?$positional_parameter_base@_WV?$stream_output_adapter@_W@__crt_stdio_output@@@2@@__crt_stdio_output@@QAEHXZ 10050990 f i libucrtd:output.obj
 0001:0004fc40       ?process@?$output_processor@_WV?$stream_output_adapter@_W@__crt_stdio_output@@V?$standard_base@_WV?$stream_output_adapter@_W@__crt_stdio_output@@@2@@__crt_stdio_output@@QAEHXZ 10050c40 f i libucrtd:output.obj
 0001:0004fef0       ?process@?$output_processor@_WV?$string_output_adapter@_W@__crt_stdio_output@@V?$format_validation_base@_WV?$string_output_adapter@_W@__crt_stdio_output@@@2@@__crt_stdio_output@@QAEHXZ 10050ef0 f i libucrtd:output.obj
 0001:000501a0       ?process@?$output_processor@_WV?$string_output_adapter@_W@__crt_stdio_output@@V?$positional_parameter_base@_WV?$string_output_adapter@_W@__crt_stdio_output@@@2@@__crt_stdio_output@@QAEHXZ 100511a0 f i libucrtd:output.obj
 0001:00050450       ?process@?$output_processor@_WV?$string_output_adapter@_W@__crt_stdio_output@@V?$standard_base@_WV?$string_output_adapter@_W@__crt_stdio_output@@@2@@__crt_stdio_output@@QAEHXZ 10051450 f i libucrtd:output.obj
 0001:00050700       ?public_stream@__crt_stdio_stream@@QBEPAU_iobuf@@XZ 10051700 f i libucrtd:output.obj
 0001:00050720       ?set_flag@?$output_processor@DV?$stream_output_adapter@D@__crt_stdio_output@@V?$format_validation_base@DV?$stream_output_adapter@D@__crt_stdio_output@@@2@@__crt_stdio_output@@AAEXI@Z 10051720 f i libucrtd:output.obj
 0001:00050740       ?set_flag@?$output_processor@DV?$stream_output_adapter@D@__crt_stdio_output@@V?$positional_parameter_base@DV?$stream_output_adapter@D@__crt_stdio_output@@@2@@__crt_stdio_output@@AAEXI@Z 10051740 f i libucrtd:output.obj
 0001:00050760       ?set_flag@?$output_processor@DV?$stream_output_adapter@D@__crt_stdio_output@@V?$standard_base@DV?$stream_output_adapter@D@__crt_stdio_output@@@2@@__crt_stdio_output@@AAEXI@Z 10051760 f i libucrtd:output.obj
 0001:00050780       ?set_flag@?$output_processor@DV?$string_output_adapter@D@__crt_stdio_output@@V?$format_validation_base@DV?$string_output_adapter@D@__crt_stdio_output@@@2@@__crt_stdio_output@@AAEXI@Z 10051780 f i libucrtd:output.obj
 0001:000507a0       ?set_flag@?$output_processor@DV?$string_output_adapter@D@__crt_stdio_output@@V?$positional_parameter_base@DV?$string_output_adapter@D@__crt_stdio_output@@@2@@__crt_stdio_output@@AAEXI@Z 100517a0 f i libucrtd:output.obj
 0001:000507c0       ?set_flag@?$output_processor@DV?$string_output_adapter@D@__crt_stdio_output@@V?$standard_base@DV?$string_output_adapter@D@__crt_stdio_output@@@2@@__crt_stdio_output@@AAEXI@Z 100517c0 f i libucrtd:output.obj
 0001:000507e0       ?set_flag@?$output_processor@_WV?$stream_output_adapter@_W@__crt_stdio_output@@V?$format_validation_base@_WV?$stream_output_adapter@_W@__crt_stdio_output@@@2@@__crt_stdio_output@@AAEXI@Z 100517e0 f i libucrtd:output.obj
 0001:00050800       ?set_flag@?$output_processor@_WV?$stream_output_adapter@_W@__crt_stdio_output@@V?$positional_parameter_base@_WV?$stream_output_adapter@_W@__crt_stdio_output@@@2@@__crt_stdio_output@@AAEXI@Z 10051800 f i libucrtd:output.obj
 0001:00050820       ?set_flag@?$output_processor@_WV?$stream_output_adapter@_W@__crt_stdio_output@@V?$standard_base@_WV?$stream_output_adapter@_W@__crt_stdio_output@@@2@@__crt_stdio_output@@AAEXI@Z 10051820 f i libucrtd:output.obj
 0001:00050840       ?set_flag@?$output_processor@_WV?$string_output_adapter@_W@__crt_stdio_output@@V?$format_validation_base@_WV?$string_output_adapter@_W@__crt_stdio_output@@@2@@__crt_stdio_output@@AAEXI@Z 10051840 f i libucrtd:output.obj
 0001:00050860       ?set_flag@?$output_processor@_WV?$string_output_adapter@_W@__crt_stdio_output@@V?$positional_parameter_base@_WV?$string_output_adapter@_W@__crt_stdio_output@@@2@@__crt_stdio_output@@AAEXI@Z 10051860 f i libucrtd:output.obj
 0001:00050880       ?set_flag@?$output_processor@_WV?$string_output_adapter@_W@__crt_stdio_output@@V?$standard_base@_WV?$string_output_adapter@_W@__crt_stdio_output@@@2@@__crt_stdio_output@@AAEXI@Z 10051880 f i libucrtd:output.obj
 0001:000508a0       ?should_format@?$positional_parameter_base@DV?$stream_output_adapter@D@__crt_stdio_output@@@__crt_stdio_output@@IAE_NXZ 100518a0 f i libucrtd:output.obj
 0001:000508e0       ?should_format@?$positional_parameter_base@DV?$string_output_adapter@D@__crt_stdio_output@@@__crt_stdio_output@@IAE_NXZ 100518e0 f i libucrtd:output.obj
 0001:00050920       ?should_format@?$positional_parameter_base@_WV?$stream_output_adapter@_W@__crt_stdio_output@@@__crt_stdio_output@@IAE_NXZ 10051920 f i libucrtd:output.obj
 0001:00050960       ?should_format@?$positional_parameter_base@_WV?$string_output_adapter@_W@__crt_stdio_output@@@__crt_stdio_output@@IAE_NXZ 10051960 f i libucrtd:output.obj
 0001:000509a0       ?should_format@?$standard_base@DV?$stream_output_adapter@D@__crt_stdio_output@@@__crt_stdio_output@@IAE_NXZ 100519a0 f i libucrtd:output.obj
 0001:000509b0       ?should_format@?$standard_base@DV?$string_output_adapter@D@__crt_stdio_output@@@__crt_stdio_output@@IAE_NXZ 100519b0 f i libucrtd:output.obj
 0001:000509c0       ?should_format@?$standard_base@_WV?$stream_output_adapter@_W@__crt_stdio_output@@@__crt_stdio_output@@IAE_NXZ 100519c0 f i libucrtd:output.obj
 0001:000509d0       ?should_format@?$standard_base@_WV?$string_output_adapter@_W@__crt_stdio_output@@@__crt_stdio_output@@IAE_NXZ 100519d0 f i libucrtd:output.obj
 0001:000509e0       ?should_skip_normal_state_processing@?$positional_parameter_base@DV?$stream_output_adapter@D@__crt_stdio_output@@@__crt_stdio_output@@IAE_NXZ 100519e0 f i libucrtd:output.obj
 0001:00050a30       ?should_skip_normal_state_processing@?$positional_parameter_base@DV?$string_output_adapter@D@__crt_stdio_output@@@__crt_stdio_output@@IAE_NXZ 10051a30 f i libucrtd:output.obj
 0001:00050a80       ?should_skip_normal_state_processing@?$positional_parameter_base@_WV?$stream_output_adapter@_W@__crt_stdio_output@@@__crt_stdio_output@@IAE_NXZ 10051a80 f i libucrtd:output.obj
 0001:00050ad0       ?should_skip_normal_state_processing@?$positional_parameter_base@_WV?$string_output_adapter@_W@__crt_stdio_output@@@__crt_stdio_output@@IAE_NXZ 10051ad0 f i libucrtd:output.obj
 0001:00050b20       ?should_skip_normal_state_processing@?$standard_base@DV?$stream_output_adapter@D@__crt_stdio_output@@@__crt_stdio_output@@IAE_NXZ 10051b20 f i libucrtd:output.obj
 0001:00050b30       ?should_skip_normal_state_processing@?$standard_base@DV?$string_output_adapter@D@__crt_stdio_output@@@__crt_stdio_output@@IAE_NXZ 10051b30 f i libucrtd:output.obj
 0001:00050b40       ?should_skip_normal_state_processing@?$standard_base@_WV?$stream_output_adapter@_W@__crt_stdio_output@@@__crt_stdio_output@@IAE_NXZ 10051b40 f i libucrtd:output.obj
 0001:00050b50       ?should_skip_normal_state_processing@?$standard_base@_WV?$string_output_adapter@_W@__crt_stdio_output@@@__crt_stdio_output@@IAE_NXZ 10051b50 f i libucrtd:output.obj
 0001:00050b60       ?should_skip_type_state_output@?$positional_parameter_base@DV?$stream_output_adapter@D@__crt_stdio_output@@@__crt_stdio_output@@IBE_NXZ 10051b60 f i libucrtd:output.obj
 0001:00050ba0       ?should_skip_type_state_output@?$positional_parameter_base@DV?$string_output_adapter@D@__crt_stdio_output@@@__crt_stdio_output@@IBE_NXZ 10051ba0 f i libucrtd:output.obj
 0001:00050be0       ?should_skip_type_state_output@?$positional_parameter_base@_WV?$stream_output_adapter@_W@__crt_stdio_output@@@__crt_stdio_output@@IBE_NXZ 10051be0 f i libucrtd:output.obj
 0001:00050c20       ?should_skip_type_state_output@?$positional_parameter_base@_WV?$string_output_adapter@_W@__crt_stdio_output@@@__crt_stdio_output@@IBE_NXZ 10051c20 f i libucrtd:output.obj
 0001:00050c60       ?should_skip_type_state_output@?$standard_base@DV?$stream_output_adapter@D@__crt_stdio_output@@@__crt_stdio_output@@IBE_NXZ 10051c60 f i libucrtd:output.obj
 0001:00050c70       ?should_skip_type_state_output@?$standard_base@DV?$string_output_adapter@D@__crt_stdio_output@@@__crt_stdio_output@@IBE_NXZ 10051c70 f i libucrtd:output.obj
 0001:00050c80       ?should_skip_type_state_output@?$standard_base@_WV?$stream_output_adapter@_W@__crt_stdio_output@@@__crt_stdio_output@@IBE_NXZ 10051c80 f i libucrtd:output.obj
 0001:00050c90       ?should_skip_type_state_output@?$standard_base@_WV?$string_output_adapter@_W@__crt_stdio_output@@@__crt_stdio_output@@IBE_NXZ 10051c90 f i libucrtd:output.obj
 0001:00050ca0       ?state_case_dot@?$output_processor@DV?$stream_output_adapter@D@__crt_stdio_output@@V?$format_validation_base@DV?$stream_output_adapter@D@__crt_stdio_output@@@2@@__crt_stdio_output@@AAE_NXZ 10051ca0 f i libucrtd:output.obj
 0001:00050cc0       ?state_case_dot@?$output_processor@DV?$stream_output_adapter@D@__crt_stdio_output@@V?$positional_parameter_base@DV?$stream_output_adapter@D@__crt_stdio_output@@@2@@__crt_stdio_output@@AAE_NXZ 10051cc0 f i libucrtd:output.obj
 0001:00050ce0       ?state_case_dot@?$output_processor@DV?$stream_output_adapter@D@__crt_stdio_output@@V?$standard_base@DV?$stream_output_adapter@D@__crt_stdio_output@@@2@@__crt_stdio_output@@AAE_NXZ 10051ce0 f i libucrtd:output.obj
 0001:00050d00       ?state_case_dot@?$output_processor@DV?$string_output_adapter@D@__crt_stdio_output@@V?$format_validation_base@DV?$string_output_adapter@D@__crt_stdio_output@@@2@@__crt_stdio_output@@AAE_NXZ 10051d00 f i libucrtd:output.obj
 0001:00050d20       ?state_case_dot@?$output_processor@DV?$string_output_adapter@D@__crt_stdio_output@@V?$positional_parameter_base@DV?$string_output_adapter@D@__crt_stdio_output@@@2@@__crt_stdio_output@@AAE_NXZ 10051d20 f i libucrtd:output.obj
 0001:00050d40       ?state_case_dot@?$output_processor@DV?$string_output_adapter@D@__crt_stdio_output@@V?$standard_base@DV?$string_output_adapter@D@__crt_stdio_output@@@2@@__crt_stdio_output@@AAE_NXZ 10051d40 f i libucrtd:output.obj
 0001:00050d60       ?state_case_dot@?$output_processor@_WV?$stream_output_adapter@_W@__crt_stdio_output@@V?$format_validation_base@_WV?$stream_output_adapter@_W@__crt_stdio_output@@@2@@__crt_stdio_output@@AAE_NXZ 10051d60 f i libucrtd:output.obj
 0001:00050d80       ?state_case_dot@?$output_processor@_WV?$stream_output_adapter@_W@__crt_stdio_output@@V?$positional_parameter_base@_WV?$stream_output_adapter@_W@__crt_stdio_output@@@2@@__crt_stdio_output@@AAE_NXZ 10051d80 f i libucrtd:output.obj
 0001:00050da0       ?state_case_dot@?$output_processor@_WV?$stream_output_adapter@_W@__crt_stdio_output@@V?$standard_base@_WV?$stream_output_adapter@_W@__crt_stdio_output@@@2@@__crt_stdio_output@@AAE_NXZ 10051da0 f i libucrtd:output.obj
 0001:00050dc0       ?state_case_dot@?$output_processor@_WV?$string_output_adapter@_W@__crt_stdio_output@@V?$format_validation_base@_WV?$string_output_adapter@_W@__crt_stdio_output@@@2@@__crt_stdio_output@@AAE_NXZ 10051dc0 f i libucrtd:output.obj
 0001:00050de0       ?state_case_dot@?$output_processor@_WV?$string_output_adapter@_W@__crt_stdio_output@@V?$positional_parameter_base@_WV?$string_output_adapter@_W@__crt_stdio_output@@@2@@__crt_stdio_output@@AAE_NXZ 10051de0 f i libucrtd:output.obj
 0001:00050e00       ?state_case_dot@?$output_processor@_WV?$string_output_adapter@_W@__crt_stdio_output@@V?$standard_base@_WV?$string_output_adapter@_W@__crt_stdio_output@@@2@@__crt_stdio_output@@AAE_NXZ 10051e00 f i libucrtd:output.obj
 0001:00050e20       ?state_case_flag@?$output_processor@DV?$stream_output_adapter@D@__crt_stdio_output@@V?$format_validation_base@DV?$stream_output_adapter@D@__crt_stdio_output@@@2@@__crt_stdio_output@@AAE_NXZ 10051e20 f i libucrtd:output.obj
 0001:00050ed0       ?state_case_flag@?$output_processor@DV?$stream_output_adapter@D@__crt_stdio_output@@V?$positional_parameter_base@DV?$stream_output_adapter@D@__crt_stdio_output@@@2@@__crt_stdio_output@@AAE_NXZ 10051ed0 f i libucrtd:output.obj
 0001:00050f80       ?state_case_flag@?$output_processor@DV?$stream_output_adapter@D@__crt_stdio_output@@V?$standard_base@DV?$stream_output_adapter@D@__crt_stdio_output@@@2@@__crt_stdio_output@@AAE_NXZ 10051f80 f i libucrtd:output.obj
 0001:00051030       ?state_case_flag@?$output_processor@DV?$string_output_adapter@D@__crt_stdio_output@@V?$format_validation_base@DV?$string_output_adapter@D@__crt_stdio_output@@@2@@__crt_stdio_output@@AAE_NXZ 10052030 f i libucrtd:output.obj
 0001:000510e0       ?state_case_flag@?$output_processor@DV?$string_output_adapter@D@__crt_stdio_output@@V?$positional_parameter_base@DV?$string_output_adapter@D@__crt_stdio_output@@@2@@__crt_stdio_output@@AAE_NXZ 100520e0 f i libucrtd:output.obj
 0001:00051190       ?state_case_flag@?$output_processor@DV?$string_output_adapter@D@__crt_stdio_output@@V?$standard_base@DV?$string_output_adapter@D@__crt_stdio_output@@@2@@__crt_stdio_output@@AAE_NXZ 10052190 f i libucrtd:output.obj
 0001:00051240       ?state_case_flag@?$output_processor@_WV?$stream_output_adapter@_W@__crt_stdio_output@@V?$format_validation_base@_WV?$stream_output_adapter@_W@__crt_stdio_output@@@2@@__crt_stdio_output@@AAE_NXZ 10052240 f i libucrtd:output.obj
 0001:000512f0       ?state_case_flag@?$output_processor@_WV?$stream_output_adapter@_W@__crt_stdio_output@@V?$positional_parameter_base@_WV?$stream_output_adapter@_W@__crt_stdio_output@@@2@@__crt_stdio_output@@AAE_NXZ 100522f0 f i libucrtd:output.obj
 0001:000513a0       ?state_case_flag@?$output_processor@_WV?$stream_output_adapter@_W@__crt_stdio_output@@V?$standard_base@_WV?$stream_output_adapter@_W@__crt_stdio_output@@@2@@__crt_stdio_output@@AAE_NXZ 100523a0 f i libucrtd:output.obj
 0001:00051450       ?state_case_flag@?$output_processor@_WV?$string_output_adapter@_W@__crt_stdio_output@@V?$format_validation_base@_WV?$string_output_adapter@_W@__crt_stdio_output@@@2@@__crt_stdio_output@@AAE_NXZ 10052450 f i libucrtd:output.obj
 0001:00051500       ?state_case_flag@?$output_processor@_WV?$string_output_adapter@_W@__crt_stdio_output@@V?$positional_parameter_base@_WV?$string_output_adapter@_W@__crt_stdio_output@@@2@@__crt_stdio_output@@AAE_NXZ 10052500 f i libucrtd:output.obj
 0001:000515b0       ?state_case_flag@?$output_processor@_WV?$string_output_adapter@_W@__crt_stdio_output@@V?$standard_base@_WV?$string_output_adapter@_W@__crt_stdio_output@@@2@@__crt_stdio_output@@AAE_NXZ 100525b0 f i libucrtd:output.obj
 0001:00051660       ?state_case_normal@?$output_processor@DV?$stream_output_adapter@D@__crt_stdio_output@@V?$format_validation_base@DV?$stream_output_adapter@D@__crt_stdio_output@@@2@@__crt_stdio_output@@AAE_NXZ 10052660 f i libucrtd:output.obj
 0001:00051710       ?state_case_normal@?$output_processor@DV?$stream_output_adapter@D@__crt_stdio_output@@V?$positional_parameter_base@DV?$stream_output_adapter@D@__crt_stdio_output@@@2@@__crt_stdio_output@@AAE_NXZ 10052710 f i libucrtd:output.obj
 0001:000517c0       ?state_case_normal@?$output_processor@DV?$stream_output_adapter@D@__crt_stdio_output@@V?$standard_base@DV?$stream_output_adapter@D@__crt_stdio_output@@@2@@__crt_stdio_output@@AAE_NXZ 100527c0 f i libucrtd:output.obj
 0001:00051870       ?state_case_normal@?$output_processor@DV?$string_output_adapter@D@__crt_stdio_output@@V?$format_validation_base@DV?$string_output_adapter@D@__crt_stdio_output@@@2@@__crt_stdio_output@@AAE_NXZ 10052870 f i libucrtd:output.obj
 0001:00051920       ?state_case_normal@?$output_processor@DV?$string_output_adapter@D@__crt_stdio_output@@V?$positional_parameter_base@DV?$string_output_adapter@D@__crt_stdio_output@@@2@@__crt_stdio_output@@AAE_NXZ 10052920 f i libucrtd:output.obj
 0001:000519d0       ?state_case_normal@?$output_processor@DV?$string_output_adapter@D@__crt_stdio_output@@V?$standard_base@DV?$string_output_adapter@D@__crt_stdio_output@@@2@@__crt_stdio_output@@AAE_NXZ 100529d0 f i libucrtd:output.obj
 0001:00051a80       ?state_case_normal@?$output_processor@_WV?$stream_output_adapter@_W@__crt_stdio_output@@V?$format_validation_base@_WV?$stream_output_adapter@_W@__crt_stdio_output@@@2@@__crt_stdio_output@@AAE_NXZ 10052a80 f i libucrtd:output.obj
 0001:00051b30       ?state_case_normal@?$output_processor@_WV?$stream_output_adapter@_W@__crt_stdio_output@@V?$positional_parameter_base@_WV?$stream_output_adapter@_W@__crt_stdio_output@@@2@@__crt_stdio_output@@AAE_NXZ 10052b30 f i libucrtd:output.obj
 0001:00051be0       ?state_case_normal@?$output_processor@_WV?$stream_output_adapter@_W@__crt_stdio_output@@V?$standard_base@_WV?$stream_output_adapter@_W@__crt_stdio_output@@@2@@__crt_stdio_output@@AAE_NXZ 10052be0 f i libucrtd:output.obj
 0001:00051c90       ?state_case_normal@?$output_processor@_WV?$string_output_adapter@_W@__crt_stdio_output@@V?$format_validation_base@_WV?$string_output_adapter@_W@__crt_stdio_output@@@2@@__crt_stdio_output@@AAE_NXZ 10052c90 f i libucrtd:output.obj
 0001:00051d40       ?state_case_normal@?$output_processor@_WV?$string_output_adapter@_W@__crt_stdio_output@@V?$positional_parameter_base@_WV?$string_output_adapter@_W@__crt_stdio_output@@@2@@__crt_stdio_output@@AAE_NXZ 10052d40 f i libucrtd:output.obj
 0001:00051df0       ?state_case_normal@?$output_processor@_WV?$string_output_adapter@_W@__crt_stdio_output@@V?$standard_base@_WV?$string_output_adapter@_W@__crt_stdio_output@@@2@@__crt_stdio_output@@AAE_NXZ 10052df0 f i libucrtd:output.obj
 0001:00051ea0       ?state_case_normal_common@?$output_processor@DV?$stream_output_adapter@D@__crt_stdio_output@@V?$format_validation_base@DV?$stream_output_adapter@D@__crt_stdio_output@@@2@@__crt_stdio_output@@AAE_NXZ 10052ea0 f i libucrtd:output.obj
 0001:00051ef0       ?state_case_normal_common@?$output_processor@DV?$stream_output_adapter@D@__crt_stdio_output@@V?$positional_parameter_base@DV?$stream_output_adapter@D@__crt_stdio_output@@@2@@__crt_stdio_output@@AAE_NXZ 10052ef0 f i libucrtd:output.obj
 0001:00051f40       ?state_case_normal_common@?$output_processor@DV?$stream_output_adapter@D@__crt_stdio_output@@V?$standard_base@DV?$stream_output_adapter@D@__crt_stdio_output@@@2@@__crt_stdio_output@@AAE_NXZ 10052f40 f i libucrtd:output.obj
 0001:00051f90       ?state_case_normal_common@?$output_processor@DV?$string_output_adapter@D@__crt_stdio_output@@V?$format_validation_base@DV?$string_output_adapter@D@__crt_stdio_output@@@2@@__crt_stdio_output@@AAE_NXZ 10052f90 f i libucrtd:output.obj
 0001:00051fe0       ?state_case_normal_common@?$output_processor@DV?$string_output_adapter@D@__crt_stdio_output@@V?$positional_parameter_base@DV?$string_output_adapter@D@__crt_stdio_output@@@2@@__crt_stdio_output@@AAE_NXZ 10052fe0 f i libucrtd:output.obj
 0001:00052030       ?state_case_normal_common@?$output_processor@DV?$string_output_adapter@D@__crt_stdio_output@@V?$standard_base@DV?$string_output_adapter@D@__crt_stdio_output@@@2@@__crt_stdio_output@@AAE_NXZ 10053030 f i libucrtd:output.obj
 0001:00052080       ?state_case_normal_common@?$output_processor@_WV?$stream_output_adapter@_W@__crt_stdio_output@@V?$format_validation_base@_WV?$stream_output_adapter@_W@__crt_stdio_output@@@2@@__crt_stdio_output@@AAE_NXZ 10053080 f i libucrtd:output.obj
 0001:000520d0       ?state_case_normal_common@?$output_processor@_WV?$stream_output_adapter@_W@__crt_stdio_output@@V?$positional_parameter_base@_WV?$stream_output_adapter@_W@__crt_stdio_output@@@2@@__crt_stdio_output@@AAE_NXZ 100530d0 f i libucrtd:output.obj
 0001:00052120       ?state_case_normal_common@?$output_processor@_WV?$stream_output_adapter@_W@__crt_stdio_output@@V?$standard_base@_WV?$stream_output_adapter@_W@__crt_stdio_output@@@2@@__crt_stdio_output@@AAE_NXZ 10053120 f i libucrtd:output.obj
 0001:00052170       ?state_case_normal_common@?$output_processor@_WV?$string_output_adapter@_W@__crt_stdio_output@@V?$format_validation_base@_WV?$string_output_adapter@_W@__crt_stdio_output@@@2@@__crt_stdio_output@@AAE_NXZ 10053170 f i libucrtd:output.obj
 0001:000521c0       ?state_case_normal_common@?$output_processor@_WV?$string_output_adapter@_W@__crt_stdio_output@@V?$positional_parameter_base@_WV?$string_output_adapter@_W@__crt_stdio_output@@@2@@__crt_stdio_output@@AAE_NXZ 100531c0 f i libucrtd:output.obj
 0001:00052210       ?state_case_normal_common@?$output_processor@_WV?$string_output_adapter@_W@__crt_stdio_output@@V?$standard_base@_WV?$string_output_adapter@_W@__crt_stdio_output@@@2@@__crt_stdio_output@@AAE_NXZ 10053210 f i libucrtd:output.obj
 0001:00052260       ?state_case_normal_tchar@?$output_processor@DV?$stream_output_adapter@D@__crt_stdio_output@@V?$format_validation_base@DV?$stream_output_adapter@D@__crt_stdio_output@@@2@@__crt_stdio_output@@AAE_ND@Z 10053260 f i libucrtd:output.obj
 0001:00052360       ?state_case_normal_tchar@?$output_processor@DV?$stream_output_adapter@D@__crt_stdio_output@@V?$positional_parameter_base@DV?$stream_output_adapter@D@__crt_stdio_output@@@2@@__crt_stdio_output@@AAE_ND@Z 10053360 f i libucrtd:output.obj
 0001:00052460       ?state_case_normal_tchar@?$output_processor@DV?$stream_output_adapter@D@__crt_stdio_output@@V?$standard_base@DV?$stream_output_adapter@D@__crt_stdio_output@@@2@@__crt_stdio_output@@AAE_ND@Z 10053460 f i libucrtd:output.obj
 0001:00052560       ?state_case_normal_tchar@?$output_processor@DV?$string_output_adapter@D@__crt_stdio_output@@V?$format_validation_base@DV?$string_output_adapter@D@__crt_stdio_output@@@2@@__crt_stdio_output@@AAE_ND@Z 10053560 f i libucrtd:output.obj
 0001:00052660       ?state_case_normal_tchar@?$output_processor@DV?$string_output_adapter@D@__crt_stdio_output@@V?$positional_parameter_base@DV?$string_output_adapter@D@__crt_stdio_output@@@2@@__crt_stdio_output@@AAE_ND@Z 10053660 f i libucrtd:output.obj
 0001:00052760       ?state_case_normal_tchar@?$output_processor@DV?$string_output_adapter@D@__crt_stdio_output@@V?$standard_base@DV?$string_output_adapter@D@__crt_stdio_output@@@2@@__crt_stdio_output@@AAE_ND@Z 10053760 f i libucrtd:output.obj
 0001:00052860       ?state_case_normal_tchar@?$output_processor@_WV?$stream_output_adapter@_W@__crt_stdio_output@@V?$format_validation_base@_WV?$stream_output_adapter@_W@__crt_stdio_output@@@2@@__crt_stdio_output@@AAE_N_W@Z 10053860 f i libucrtd:output.obj
 0001:00052880       ?state_case_normal_tchar@?$output_processor@_WV?$stream_output_adapter@_W@__crt_stdio_output@@V?$positional_parameter_base@_WV?$stream_output_adapter@_W@__crt_stdio_output@@@2@@__crt_stdio_output@@AAE_N_W@Z 10053880 f i libucrtd:output.obj
 0001:000528a0       ?state_case_normal_tchar@?$output_processor@_WV?$stream_output_adapter@_W@__crt_stdio_output@@V?$standard_base@_WV?$stream_output_adapter@_W@__crt_stdio_output@@@2@@__crt_stdio_output@@AAE_N_W@Z 100538a0 f i libucrtd:output.obj
 0001:000528c0       ?state_case_normal_tchar@?$output_processor@_WV?$string_output_adapter@_W@__crt_stdio_output@@V?$format_validation_base@_WV?$string_output_adapter@_W@__crt_stdio_output@@@2@@__crt_stdio_output@@AAE_N_W@Z 100538c0 f i libucrtd:output.obj
 0001:000528e0       ?state_case_normal_tchar@?$output_processor@_WV?$string_output_adapter@_W@__crt_stdio_output@@V?$positional_parameter_base@_WV?$string_output_adapter@_W@__crt_stdio_output@@@2@@__crt_stdio_output@@AAE_N_W@Z 100538e0 f i libucrtd:output.obj
 0001:00052900       ?state_case_normal_tchar@?$output_processor@_WV?$string_output_adapter@_W@__crt_stdio_output@@V?$standard_base@_WV?$string_output_adapter@_W@__crt_stdio_output@@@2@@__crt_stdio_output@@AAE_N_W@Z 10053900 f i libucrtd:output.obj
 0001:00052920       ?state_case_percent@?$output_processor@DV?$stream_output_adapter@D@__crt_stdio_output@@V?$format_validation_base@DV?$stream_output_adapter@D@__crt_stdio_output@@@2@@__crt_stdio_output@@AAE_NXZ 10053920 f i libucrtd:output.obj
 0001:00052970       ?state_case_percent@?$output_processor@DV?$stream_output_adapter@D@__crt_stdio_output@@V?$positional_parameter_base@DV?$stream_output_adapter@D@__crt_stdio_output@@@2@@__crt_stdio_output@@AAE_NXZ 10053970 f i libucrtd:output.obj
 0001:000529c0       ?state_case_percent@?$output_processor@DV?$stream_output_adapter@D@__crt_stdio_output@@V?$standard_base@DV?$stream_output_adapter@D@__crt_stdio_output@@@2@@__crt_stdio_output@@AAE_NXZ 100539c0 f i libucrtd:output.obj
 0001:00052a10       ?state_case_percent@?$output_processor@DV?$string_output_adapter@D@__crt_stdio_output@@V?$format_validation_base@DV?$string_output_adapter@D@__crt_stdio_output@@@2@@__crt_stdio_output@@AAE_NXZ 10053a10 f i libucrtd:output.obj
 0001:00052a60       ?state_case_percent@?$output_processor@DV?$string_output_adapter@D@__crt_stdio_output@@V?$positional_parameter_base@DV?$string_output_adapter@D@__crt_stdio_output@@@2@@__crt_stdio_output@@AAE_NXZ 10053a60 f i libucrtd:output.obj
 0001:00052ab0       ?state_case_percent@?$output_processor@DV?$string_output_adapter@D@__crt_stdio_output@@V?$standard_base@DV?$string_output_adapter@D@__crt_stdio_output@@@2@@__crt_stdio_output@@AAE_NXZ 10053ab0 f i libucrtd:output.obj
 0001:00052b00       ?state_case_percent@?$output_processor@_WV?$stream_output_adapter@_W@__crt_stdio_output@@V?$format_validation_base@_WV?$stream_output_adapter@_W@__crt_stdio_output@@@2@@__crt_stdio_output@@AAE_NXZ 10053b00 f i libucrtd:output.obj
 0001:00052b50       ?state_case_percent@?$output_processor@_WV?$stream_output_adapter@_W@__crt_stdio_output@@V?$positional_parameter_base@_WV?$stream_output_adapter@_W@__crt_stdio_output@@@2@@__crt_stdio_output@@AAE_NXZ 10053b50 f i libucrtd:output.obj
 0001:00052ba0       ?state_case_percent@?$output_processor@_WV?$stream_output_adapter@_W@__crt_stdio_output@@V?$standard_base@_WV?$stream_output_adapter@_W@__crt_stdio_output@@@2@@__crt_stdio_output@@AAE_NXZ 10053ba0 f i libucrtd:output.obj
 0001:00052bf0       ?state_case_percent@?$output_processor@_WV?$string_output_adapter@_W@__crt_stdio_output@@V?$format_validation_base@_WV?$string_output_adapter@_W@__crt_stdio_output@@@2@@__crt_stdio_output@@AAE_NXZ 10053bf0 f i libucrtd:output.obj
 0001:00052c40       ?state_case_percent@?$output_processor@_WV?$string_output_adapter@_W@__crt_stdio_output@@V?$positional_parameter_base@_WV?$string_output_adapter@_W@__crt_stdio_output@@@2@@__crt_stdio_output@@AAE_NXZ 10053c40 f i libucrtd:output.obj
 0001:00052c90       ?state_case_percent@?$output_processor@_WV?$string_output_adapter@_W@__crt_stdio_output@@V?$standard_base@_WV?$string_output_adapter@_W@__crt_stdio_output@@@2@@__crt_stdio_output@@AAE_NXZ 10053c90 f i libucrtd:output.obj
 0001:00052ce0       ?state_case_precision@?$output_processor@DV?$stream_output_adapter@D@__crt_stdio_output@@V?$format_validation_base@DV?$stream_output_adapter@D@__crt_stdio_output@@@2@@__crt_stdio_output@@AAE_NXZ 10053ce0 f i libucrtd:output.obj
 0001:00052d50       ?state_case_precision@?$output_processor@DV?$stream_output_adapter@D@__crt_stdio_output@@V?$positional_parameter_base@DV?$stream_output_adapter@D@__crt_stdio_output@@@2@@__crt_stdio_output@@AAE_NXZ 10053d50 f i libucrtd:output.obj
 0001:00052dc0       ?state_case_precision@?$output_processor@DV?$stream_output_adapter@D@__crt_stdio_output@@V?$standard_base@DV?$stream_output_adapter@D@__crt_stdio_output@@@2@@__crt_stdio_output@@AAE_NXZ 10053dc0 f i libucrtd:output.obj
 0001:00052e30       ?state_case_precision@?$output_processor@DV?$string_output_adapter@D@__crt_stdio_output@@V?$format_validation_base@DV?$string_output_adapter@D@__crt_stdio_output@@@2@@__crt_stdio_output@@AAE_NXZ 10053e30 f i libucrtd:output.obj
 0001:00052ea0       ?state_case_precision@?$output_processor@DV?$string_output_adapter@D@__crt_stdio_output@@V?$positional_parameter_base@DV?$string_output_adapter@D@__crt_stdio_output@@@2@@__crt_stdio_output@@AAE_NXZ 10053ea0 f i libucrtd:output.obj
 0001:00052f10       ?state_case_precision@?$output_processor@DV?$string_output_adapter@D@__crt_stdio_output@@V?$standard_base@DV?$string_output_adapter@D@__crt_stdio_output@@@2@@__crt_stdio_output@@AAE_NXZ 10053f10 f i libucrtd:output.obj
 0001:00052f80       ?state_case_precision@?$output_processor@_WV?$stream_output_adapter@_W@__crt_stdio_output@@V?$format_validation_base@_WV?$stream_output_adapter@_W@__crt_stdio_output@@@2@@__crt_stdio_output@@AAE_NXZ 10053f80 f i libucrtd:output.obj
 0001:00052ff0       ?state_case_precision@?$output_processor@_WV?$stream_output_adapter@_W@__crt_stdio_output@@V?$positional_parameter_base@_WV?$stream_output_adapter@_W@__crt_stdio_output@@@2@@__crt_stdio_output@@AAE_NXZ 10053ff0 f i libucrtd:output.obj
 0001:00053060       ?state_case_precision@?$output_processor@_WV?$stream_output_adapter@_W@__crt_stdio_output@@V?$standard_base@_WV?$stream_output_adapter@_W@__crt_stdio_output@@@2@@__crt_stdio_output@@AAE_NXZ 10054060 f i libucrtd:output.obj
 0001:000530d0       ?state_case_precision@?$output_processor@_WV?$string_output_adapter@_W@__crt_stdio_output@@V?$format_validation_base@_WV?$string_output_adapter@_W@__crt_stdio_output@@@2@@__crt_stdio_output@@AAE_NXZ 100540d0 f i libucrtd:output.obj
 0001:00053140       ?state_case_precision@?$output_processor@_WV?$string_output_adapter@_W@__crt_stdio_output@@V?$positional_parameter_base@_WV?$string_output_adapter@_W@__crt_stdio_output@@@2@@__crt_stdio_output@@AAE_NXZ 10054140 f i libucrtd:output.obj
 0001:000531b0       ?state_case_precision@?$output_processor@_WV?$string_output_adapter@_W@__crt_stdio_output@@V?$standard_base@_WV?$string_output_adapter@_W@__crt_stdio_output@@@2@@__crt_stdio_output@@AAE_NXZ 100541b0 f i libucrtd:output.obj
 0001:00053220       ?state_case_size@?$output_processor@DV?$stream_output_adapter@D@__crt_stdio_output@@V?$format_validation_base@DV?$stream_output_adapter@D@__crt_stdio_output@@@2@@__crt_stdio_output@@AAE_NXZ 10054220 f i libucrtd:output.obj
 0001:000535f0       ?state_case_size@?$output_processor@DV?$stream_output_adapter@D@__crt_stdio_output@@V?$positional_parameter_base@DV?$stream_output_adapter@D@__crt_stdio_output@@@2@@__crt_stdio_output@@AAE_NXZ 100545f0 f i libucrtd:output.obj
 0001:000539c0       ?state_case_size@?$output_processor@DV?$stream_output_adapter@D@__crt_stdio_output@@V?$standard_base@DV?$stream_output_adapter@D@__crt_stdio_output@@@2@@__crt_stdio_output@@AAE_NXZ 100549c0 f i libucrtd:output.obj
 0001:00053d90       ?state_case_size@?$output_processor@DV?$string_output_adapter@D@__crt_stdio_output@@V?$format_validation_base@DV?$string_output_adapter@D@__crt_stdio_output@@@2@@__crt_stdio_output@@AAE_NXZ 10054d90 f i libucrtd:output.obj
 0001:00054160       ?state_case_size@?$output_processor@DV?$string_output_adapter@D@__crt_stdio_output@@V?$positional_parameter_base@DV?$string_output_adapter@D@__crt_stdio_output@@@2@@__crt_stdio_output@@AAE_NXZ 10055160 f i libucrtd:output.obj
 0001:00054530       ?state_case_size@?$output_processor@DV?$string_output_adapter@D@__crt_stdio_output@@V?$standard_base@DV?$string_output_adapter@D@__crt_stdio_output@@@2@@__crt_stdio_output@@AAE_NXZ 10055530 f i libucrtd:output.obj
 0001:00054900       ?state_case_size@?$output_processor@_WV?$stream_output_adapter@_W@__crt_stdio_output@@V?$format_validation_base@_WV?$stream_output_adapter@_W@__crt_stdio_output@@@2@@__crt_stdio_output@@AAE_NXZ 10055900 f i libucrtd:output.obj
 0001:00054cd0       ?state_case_size@?$output_processor@_WV?$stream_output_adapter@_W@__crt_stdio_output@@V?$positional_parameter_base@_WV?$stream_output_adapter@_W@__crt_stdio_output@@@2@@__crt_stdio_output@@AAE_NXZ 10055cd0 f i libucrtd:output.obj
 0001:000550a0       ?state_case_size@?$output_processor@_WV?$stream_output_adapter@_W@__crt_stdio_output@@V?$standard_base@_WV?$stream_output_adapter@_W@__crt_stdio_output@@@2@@__crt_stdio_output@@AAE_NXZ 100560a0 f i libucrtd:output.obj
 0001:00055470       ?state_case_size@?$output_processor@_WV?$string_output_adapter@_W@__crt_stdio_output@@V?$format_validation_base@_WV?$string_output_adapter@_W@__crt_stdio_output@@@2@@__crt_stdio_output@@AAE_NXZ 10056470 f i libucrtd:output.obj
 0001:00055840       ?state_case_size@?$output_processor@_WV?$string_output_adapter@_W@__crt_stdio_output@@V?$positional_parameter_base@_WV?$string_output_adapter@_W@__crt_stdio_output@@@2@@__crt_stdio_output@@AAE_NXZ 10056840 f i libucrtd:output.obj
 0001:00055c10       ?state_case_size@?$output_processor@_WV?$string_output_adapter@_W@__crt_stdio_output@@V?$standard_base@_WV?$string_output_adapter@_W@__crt_stdio_output@@@2@@__crt_stdio_output@@AAE_NXZ 10056c10 f i libucrtd:output.obj
 0001:00055fe0       ?state_case_type@?$output_processor@DV?$stream_output_adapter@D@__crt_stdio_output@@V?$format_validation_base@DV?$stream_output_adapter@D@__crt_stdio_output@@@2@@__crt_stdio_output@@AAE_NXZ 10056fe0 f i libucrtd:output.obj
 0001:00056390       ?state_case_type@?$output_processor@DV?$stream_output_adapter@D@__crt_stdio_output@@V?$positional_parameter_base@DV?$stream_output_adapter@D@__crt_stdio_output@@@2@@__crt_stdio_output@@AAE_NXZ 10057390 f i libucrtd:output.obj
 0001:00056740       ?state_case_type@?$output_processor@DV?$stream_output_adapter@D@__crt_stdio_output@@V?$standard_base@DV?$stream_output_adapter@D@__crt_stdio_output@@@2@@__crt_stdio_output@@AAE_NXZ 10057740 f i libucrtd:output.obj
 0001:00056af0       ?state_case_type@?$output_processor@DV?$string_output_adapter@D@__crt_stdio_output@@V?$format_validation_base@DV?$string_output_adapter@D@__crt_stdio_output@@@2@@__crt_stdio_output@@AAE_NXZ 10057af0 f i libucrtd:output.obj
 0001:00056ea0       ?state_case_type@?$output_processor@DV?$string_output_adapter@D@__crt_stdio_output@@V?$positional_parameter_base@DV?$string_output_adapter@D@__crt_stdio_output@@@2@@__crt_stdio_output@@AAE_NXZ 10057ea0 f i libucrtd:output.obj
 0001:00057250       ?state_case_type@?$output_processor@DV?$string_output_adapter@D@__crt_stdio_output@@V?$standard_base@DV?$string_output_adapter@D@__crt_stdio_output@@@2@@__crt_stdio_output@@AAE_NXZ 10058250 f i libucrtd:output.obj
 0001:00057600       ?state_case_type@?$output_processor@_WV?$stream_output_adapter@_W@__crt_stdio_output@@V?$format_validation_base@_WV?$stream_output_adapter@_W@__crt_stdio_output@@@2@@__crt_stdio_output@@AAE_NXZ 10058600 f i libucrtd:output.obj
 0001:000579e0       ?state_case_type@?$output_processor@_WV?$stream_output_adapter@_W@__crt_stdio_output@@V?$positional_parameter_base@_WV?$stream_output_adapter@_W@__crt_stdio_output@@@2@@__crt_stdio_output@@AAE_NXZ 100589e0 f i libucrtd:output.obj
 0001:00057dc0       ?state_case_type@?$output_processor@_WV?$stream_output_adapter@_W@__crt_stdio_output@@V?$standard_base@_WV?$stream_output_adapter@_W@__crt_stdio_output@@@2@@__crt_stdio_output@@AAE_NXZ 10058dc0 f i libucrtd:output.obj
 0001:000581a0       ?state_case_type@?$output_processor@_WV?$string_output_adapter@_W@__crt_stdio_output@@V?$format_validation_base@_WV?$string_output_adapter@_W@__crt_stdio_output@@@2@@__crt_stdio_output@@AAE_NXZ 100591a0 f i libucrtd:output.obj
 0001:00058580       ?state_case_type@?$output_processor@_WV?$string_output_adapter@_W@__crt_stdio_output@@V?$positional_parameter_base@_WV?$string_output_adapter@_W@__crt_stdio_output@@@2@@__crt_stdio_output@@AAE_NXZ 10059580 f i libucrtd:output.obj
 0001:00058960       ?state_case_type@?$output_processor@_WV?$string_output_adapter@_W@__crt_stdio_output@@V?$standard_base@_WV?$string_output_adapter@_W@__crt_stdio_output@@@2@@__crt_stdio_output@@AAE_NXZ 10059960 f i libucrtd:output.obj
 0001:00058d40       ?state_case_width@?$output_processor@DV?$stream_output_adapter@D@__crt_stdio_output@@V?$format_validation_base@DV?$stream_output_adapter@D@__crt_stdio_output@@@2@@__crt_stdio_output@@AAE_NXZ 10059d40 f i libucrtd:output.obj
 0001:00058dc0       ?state_case_width@?$output_processor@DV?$stream_output_adapter@D@__crt_stdio_output@@V?$positional_parameter_base@DV?$stream_output_adapter@D@__crt_stdio_output@@@2@@__crt_stdio_output@@AAE_NXZ 10059dc0 f i libucrtd:output.obj
 0001:00058e40       ?state_case_width@?$output_processor@DV?$stream_output_adapter@D@__crt_stdio_output@@V?$standard_base@DV?$stream_output_adapter@D@__crt_stdio_output@@@2@@__crt_stdio_output@@AAE_NXZ 10059e40 f i libucrtd:output.obj
 0001:00058ec0       ?state_case_width@?$output_processor@DV?$string_output_adapter@D@__crt_stdio_output@@V?$format_validation_base@DV?$string_output_adapter@D@__crt_stdio_output@@@2@@__crt_stdio_output@@AAE_NXZ 10059ec0 f i libucrtd:output.obj
 0001:00058f40       ?state_case_width@?$output_processor@DV?$string_output_adapter@D@__crt_stdio_output@@V?$positional_parameter_base@DV?$string_output_adapter@D@__crt_stdio_output@@@2@@__crt_stdio_output@@AAE_NXZ 10059f40 f i libucrtd:output.obj
 0001:00058fc0       ?state_case_width@?$output_processor@DV?$string_output_adapter@D@__crt_stdio_output@@V?$standard_base@DV?$string_output_adapter@D@__crt_stdio_output@@@2@@__crt_stdio_output@@AAE_NXZ 10059fc0 f i libucrtd:output.obj
 0001:00059040       ?state_case_width@?$output_processor@_WV?$stream_output_adapter@_W@__crt_stdio_output@@V?$format_validation_base@_WV?$stream_output_adapter@_W@__crt_stdio_output@@@2@@__crt_stdio_output@@AAE_NXZ 1005a040 f i libucrtd:output.obj
 0001:000590c0       ?state_case_width@?$output_processor@_WV?$stream_output_adapter@_W@__crt_stdio_output@@V?$positional_parameter_base@_WV?$stream_output_adapter@_W@__crt_stdio_output@@@2@@__crt_stdio_output@@AAE_NXZ 1005a0c0 f i libucrtd:output.obj
 0001:00059140       ?state_case_width@?$output_processor@_WV?$stream_output_adapter@_W@__crt_stdio_output@@V?$standard_base@_WV?$stream_output_adapter@_W@__crt_stdio_output@@@2@@__crt_stdio_output@@AAE_NXZ 1005a140 f i libucrtd:output.obj
 0001:000591c0       ?state_case_width@?$output_processor@_WV?$string_output_adapter@_W@__crt_stdio_output@@V?$format_validation_base@_WV?$string_output_adapter@_W@__crt_stdio_output@@@2@@__crt_stdio_output@@AAE_NXZ 1005a1c0 f i libucrtd:output.obj
 0001:00059240       ?state_case_width@?$output_processor@_WV?$string_output_adapter@_W@__crt_stdio_output@@V?$positional_parameter_base@_WV?$string_output_adapter@_W@__crt_stdio_output@@@2@@__crt_stdio_output@@AAE_NXZ 1005a240 f i libucrtd:output.obj
 0001:000592c0       ?state_case_width@?$output_processor@_WV?$string_output_adapter@_W@__crt_stdio_output@@V?$standard_base@_WV?$string_output_adapter@_W@__crt_stdio_output@@@2@@__crt_stdio_output@@AAE_NXZ 1005a2c0 f i libucrtd:output.obj
 0001:00059340       ?state_count@?$format_validation_base@DV?$stream_output_adapter@D@__crt_stdio_output@@@__crt_stdio_output@@KAIXZ 1005a340 f i libucrtd:output.obj
 0001:00059350       ?state_count@?$format_validation_base@DV?$string_output_adapter@D@__crt_stdio_output@@@__crt_stdio_output@@KAIXZ 1005a350 f i libucrtd:output.obj
 0001:00059360       ?state_count@?$format_validation_base@_WV?$stream_output_adapter@_W@__crt_stdio_output@@@__crt_stdio_output@@KAIXZ 1005a360 f i libucrtd:output.obj
 0001:00059370       ?state_count@?$format_validation_base@_WV?$string_output_adapter@_W@__crt_stdio_output@@@__crt_stdio_output@@KAIXZ 1005a370 f i libucrtd:output.obj
 0001:00059380       ?state_count@?$standard_base@DV?$stream_output_adapter@D@__crt_stdio_output@@@__crt_stdio_output@@KAIXZ 1005a380 f i libucrtd:output.obj
 0001:00059390       ?state_count@?$standard_base@DV?$string_output_adapter@D@__crt_stdio_output@@@__crt_stdio_output@@KAIXZ 1005a390 f i libucrtd:output.obj
 0001:000593a0       ?state_count@?$standard_base@_WV?$stream_output_adapter@_W@__crt_stdio_output@@@__crt_stdio_output@@KAIXZ 1005a3a0 f i libucrtd:output.obj
 0001:000593b0       ?state_count@?$standard_base@_WV?$string_output_adapter@_W@__crt_stdio_output@@@__crt_stdio_output@@KAIXZ 1005a3b0 f i libucrtd:output.obj
 0001:000593c0       ?state_transition_table@?$format_validation_base@DV?$stream_output_adapter@D@__crt_stdio_output@@@__crt_stdio_output@@KAABV?$spectre_mitigated_lookup_table@Ustate_transition_pair@__crt_stdio_output@@$0IA@@2@XZ 1005a3c0 f i libucrtd:output.obj
 0001:000593d0       ?state_transition_table@?$format_validation_base@DV?$string_output_adapter@D@__crt_stdio_output@@@__crt_stdio_output@@KAABV?$spectre_mitigated_lookup_table@Ustate_transition_pair@__crt_stdio_output@@$0IA@@2@XZ 1005a3d0 f i libucrtd:output.obj
 0001:000593e0       ?state_transition_table@?$format_validation_base@_WV?$stream_output_adapter@_W@__crt_stdio_output@@@__crt_stdio_output@@KAABV?$spectre_mitigated_lookup_table@Ustate_transition_pair@__crt_stdio_output@@$0IA@@2@XZ 1005a3e0 f i libucrtd:output.obj
 0001:000593f0       ?state_transition_table@?$format_validation_base@_WV?$string_output_adapter@_W@__crt_stdio_output@@@__crt_stdio_output@@KAABV?$spectre_mitigated_lookup_table@Ustate_transition_pair@__crt_stdio_output@@$0IA@@2@XZ 1005a3f0 f i libucrtd:output.obj
 0001:00059400       ?state_transition_table@?$standard_base@DV?$stream_output_adapter@D@__crt_stdio_output@@@__crt_stdio_output@@KAABV?$spectre_mitigated_lookup_table@Ustate_transition_pair@__crt_stdio_output@@$0IA@@2@XZ 1005a400 f i libucrtd:output.obj
 0001:00059410       ?state_transition_table@?$standard_base@DV?$string_output_adapter@D@__crt_stdio_output@@@__crt_stdio_output@@KAABV?$spectre_mitigated_lookup_table@Ustate_transition_pair@__crt_stdio_output@@$0IA@@2@XZ 1005a410 f i libucrtd:output.obj
 0001:00059420       ?state_transition_table@?$standard_base@_WV?$stream_output_adapter@_W@__crt_stdio_output@@@__crt_stdio_output@@KAABV?$spectre_mitigated_lookup_table@Ustate_transition_pair@__crt_stdio_output@@$0IA@@2@XZ 1005a420 f i libucrtd:output.obj
 0001:00059430       ?state_transition_table@?$standard_base@_WV?$string_output_adapter@_W@__crt_stdio_output@@@__crt_stdio_output@@KAABV?$spectre_mitigated_lookup_table@Ustate_transition_pair@__crt_stdio_output@@$0IA@@2@XZ 1005a430 f i libucrtd:output.obj
 0001:00059440       ?tchar_string@?$common_data@D@__crt_stdio_output@@IAEAAPADD@Z 1005a440 f i libucrtd:output.obj
 0001:00059460       ?tchar_string@?$common_data@D@__crt_stdio_output@@IAEAAPADXZ 1005a460 f i libucrtd:output.obj
 0001:00059480       ?tchar_string@?$common_data@_W@__crt_stdio_output@@IAEAAPA_WXZ 1005a480 f i libucrtd:output.obj
 0001:000594a0       ?tchar_string@?$common_data@_W@__crt_stdio_output@@IAEAAPA_W_W@Z 1005a4a0 f i libucrtd:output.obj
 0001:000594c0       ?to_integer_size@__crt_stdio_output@@YAIW4length_modifier@1@@Z 1005a4c0 f i libucrtd:output.obj
 0001:00059560       ?type_case_X@?$output_processor@DV?$stream_output_adapter@D@__crt_stdio_output@@V?$format_validation_base@DV?$stream_output_adapter@D@__crt_stdio_output@@@2@@__crt_stdio_output@@AAE_NXZ 1005a560 f i libucrtd:output.obj
 0001:00059580       ?type_case_X@?$output_processor@DV?$stream_output_adapter@D@__crt_stdio_output@@V?$positional_parameter_base@DV?$stream_output_adapter@D@__crt_stdio_output@@@2@@__crt_stdio_output@@AAE_NXZ 1005a580 f i libucrtd:output.obj
 0001:000595a0       ?type_case_X@?$output_processor@DV?$stream_output_adapter@D@__crt_stdio_output@@V?$standard_base@DV?$stream_output_adapter@D@__crt_stdio_output@@@2@@__crt_stdio_output@@AAE_NXZ 1005a5a0 f i libucrtd:output.obj
 0001:000595c0       ?type_case_X@?$output_processor@DV?$string_output_adapter@D@__crt_stdio_output@@V?$format_validation_base@DV?$string_output_adapter@D@__crt_stdio_output@@@2@@__crt_stdio_output@@AAE_NXZ 1005a5c0 f i libucrtd:output.obj
 0001:000595e0       ?type_case_X@?$output_processor@DV?$string_output_adapter@D@__crt_stdio_output@@V?$positional_parameter_base@DV?$string_output_adapter@D@__crt_stdio_output@@@2@@__crt_stdio_output@@AAE_NXZ 1005a5e0 f i libucrtd:output.obj
 0001:00059600       ?type_case_X@?$output_processor@DV?$string_output_adapter@D@__crt_stdio_output@@V?$standard_base@DV?$string_output_adapter@D@__crt_stdio_output@@@2@@__crt_stdio_output@@AAE_NXZ 1005a600 f i libucrtd:output.obj
 0001:00059620       ?type_case_X@?$output_processor@_WV?$stream_output_adapter@_W@__crt_stdio_output@@V?$format_validation_base@_WV?$stream_output_adapter@_W@__crt_stdio_output@@@2@@__crt_stdio_output@@AAE_NXZ 1005a620 f i libucrtd:output.obj
 0001:00059640       ?type_case_X@?$output_processor@_WV?$stream_output_adapter@_W@__crt_stdio_output@@V?$positional_parameter_base@_WV?$stream_output_adapter@_W@__crt_stdio_output@@@2@@__crt_stdio_output@@AAE_NXZ 1005a640 f i libucrtd:output.obj
 0001:00059660       ?type_case_X@?$output_processor@_WV?$stream_output_adapter@_W@__crt_stdio_output@@V?$standard_base@_WV?$stream_output_adapter@_W@__crt_stdio_output@@@2@@__crt_stdio_output@@AAE_NXZ 1005a660 f i libucrtd:output.obj
 0001:00059680       ?type_case_X@?$output_processor@_WV?$string_output_adapter@_W@__crt_stdio_output@@V?$format_validation_base@_WV?$string_output_adapter@_W@__crt_stdio_output@@@2@@__crt_stdio_output@@AAE_NXZ 1005a680 f i libucrtd:output.obj
 0001:000596a0       ?type_case_X@?$output_processor@_WV?$string_output_adapter@_W@__crt_stdio_output@@V?$positional_parameter_base@_WV?$string_output_adapter@_W@__crt_stdio_output@@@2@@__crt_stdio_output@@AAE_NXZ 1005a6a0 f i libucrtd:output.obj
 0001:000596c0       ?type_case_X@?$output_processor@_WV?$string_output_adapter@_W@__crt_stdio_output@@V?$standard_base@_WV?$string_output_adapter@_W@__crt_stdio_output@@@2@@__crt_stdio_output@@AAE_NXZ 1005a6c0 f i libucrtd:output.obj
 0001:000596e0       ?type_case_Z@?$output_processor@DV?$stream_output_adapter@D@__crt_stdio_output@@V?$format_validation_base@DV?$stream_output_adapter@D@__crt_stdio_output@@@2@@__crt_stdio_output@@AAE_NXZ 1005a6e0 f i libucrtd:output.obj
 0001:000597d0       ?type_case_Z@?$output_processor@DV?$stream_output_adapter@D@__crt_stdio_output@@V?$positional_parameter_base@DV?$stream_output_adapter@D@__crt_stdio_output@@@2@@__crt_stdio_output@@AAE_NXZ 1005a7d0 f i libucrtd:output.obj
 0001:000598c0       ?type_case_Z@?$output_processor@DV?$stream_output_adapter@D@__crt_stdio_output@@V?$standard_base@DV?$stream_output_adapter@D@__crt_stdio_output@@@2@@__crt_stdio_output@@AAE_NXZ 1005a8c0 f i libucrtd:output.obj
 0001:000599b0       ?type_case_Z@?$output_processor@DV?$string_output_adapter@D@__crt_stdio_output@@V?$format_validation_base@DV?$string_output_adapter@D@__crt_stdio_output@@@2@@__crt_stdio_output@@AAE_NXZ 1005a9b0 f i libucrtd:output.obj
 0001:00059aa0       ?type_case_Z@?$output_processor@DV?$string_output_adapter@D@__crt_stdio_output@@V?$positional_parameter_base@DV?$string_output_adapter@D@__crt_stdio_output@@@2@@__crt_stdio_output@@AAE_NXZ 1005aaa0 f i libucrtd:output.obj
 0001:00059b90       ?type_case_Z@?$output_processor@DV?$string_output_adapter@D@__crt_stdio_output@@V?$standard_base@DV?$string_output_adapter@D@__crt_stdio_output@@@2@@__crt_stdio_output@@AAE_NXZ 1005ab90 f i libucrtd:output.obj
 0001:00059c80       ?type_case_Z@?$output_processor@_WV?$stream_output_adapter@_W@__crt_stdio_output@@V?$format_validation_base@_WV?$stream_output_adapter@_W@__crt_stdio_output@@@2@@__crt_stdio_output@@AAE_NXZ 1005ac80 f i libucrtd:output.obj
 0001:00059d70       ?type_case_Z@?$output_processor@_WV?$stream_output_adapter@_W@__crt_stdio_output@@V?$positional_parameter_base@_WV?$stream_output_adapter@_W@__crt_stdio_output@@@2@@__crt_stdio_output@@AAE_NXZ 1005ad70 f i libucrtd:output.obj
 0001:00059e60       ?type_case_Z@?$output_processor@_WV?$stream_output_adapter@_W@__crt_stdio_output@@V?$standard_base@_WV?$stream_output_adapter@_W@__crt_stdio_output@@@2@@__crt_stdio_output@@AAE_NXZ 1005ae60 f i libucrtd:output.obj
 0001:00059f50       ?type_case_Z@?$output_processor@_WV?$string_output_adapter@_W@__crt_stdio_output@@V?$format_validation_base@_WV?$string_output_adapter@_W@__crt_stdio_output@@@2@@__crt_stdio_output@@AAE_NXZ 1005af50 f i libucrtd:output.obj
 0001:0005a040       ?type_case_Z@?$output_processor@_WV?$string_output_adapter@_W@__crt_stdio_output@@V?$positional_parameter_base@_WV?$string_output_adapter@_W@__crt_stdio_output@@@2@@__crt_stdio_output@@AAE_NXZ 1005b040 f i libucrtd:output.obj
 0001:0005a130       ?type_case_Z@?$output_processor@_WV?$string_output_adapter@_W@__crt_stdio_output@@V?$standard_base@_WV?$string_output_adapter@_W@__crt_stdio_output@@@2@@__crt_stdio_output@@AAE_NXZ 1005b130 f i libucrtd:output.obj
 0001:0005a220       ?type_case_a@?$output_processor@DV?$stream_output_adapter@D@__crt_stdio_output@@V?$format_validation_base@DV?$stream_output_adapter@D@__crt_stdio_output@@@2@@__crt_stdio_output@@AAE_NXZ 1005b220 f i libucrtd:output.obj
 0001:0005a490       ?type_case_a@?$output_processor@DV?$stream_output_adapter@D@__crt_stdio_output@@V?$positional_parameter_base@DV?$stream_output_adapter@D@__crt_stdio_output@@@2@@__crt_stdio_output@@AAE_NXZ 1005b490 f i libucrtd:output.obj
 0001:0005a700       ?type_case_a@?$output_processor@DV?$stream_output_adapter@D@__crt_stdio_output@@V?$standard_base@DV?$stream_output_adapter@D@__crt_stdio_output@@@2@@__crt_stdio_output@@AAE_NXZ 1005b700 f i libucrtd:output.obj
 0001:0005a970       ?type_case_a@?$output_processor@DV?$string_output_adapter@D@__crt_stdio_output@@V?$format_validation_base@DV?$string_output_adapter@D@__crt_stdio_output@@@2@@__crt_stdio_output@@AAE_NXZ 1005b970 f i libucrtd:output.obj
 0001:0005abe0       ?type_case_a@?$output_processor@DV?$string_output_adapter@D@__crt_stdio_output@@V?$positional_parameter_base@DV?$string_output_adapter@D@__crt_stdio_output@@@2@@__crt_stdio_output@@AAE_NXZ 1005bbe0 f i libucrtd:output.obj
 0001:0005ae50       ?type_case_a@?$output_processor@DV?$string_output_adapter@D@__crt_stdio_output@@V?$standard_base@DV?$string_output_adapter@D@__crt_stdio_output@@@2@@__crt_stdio_output@@AAE_NXZ 1005be50 f i libucrtd:output.obj
 0001:0005b0c0       ?type_case_a@?$output_processor@_WV?$stream_output_adapter@_W@__crt_stdio_output@@V?$format_validation_base@_WV?$stream_output_adapter@_W@__crt_stdio_output@@@2@@__crt_stdio_output@@AAE_NXZ 1005c0c0 f i libucrtd:output.obj
 0001:0005b330       ?type_case_a@?$output_processor@_WV?$stream_output_adapter@_W@__crt_stdio_output@@V?$positional_parameter_base@_WV?$stream_output_adapter@_W@__crt_stdio_output@@@2@@__crt_stdio_output@@AAE_NXZ 1005c330 f i libucrtd:output.obj
 0001:0005b5a0       ?type_case_a@?$output_processor@_WV?$stream_output_adapter@_W@__crt_stdio_output@@V?$standard_base@_WV?$stream_output_adapter@_W@__crt_stdio_output@@@2@@__crt_stdio_output@@AAE_NXZ 1005c5a0 f i libucrtd:output.obj
 0001:0005b810       ?type_case_a@?$output_processor@_WV?$string_output_adapter@_W@__crt_stdio_output@@V?$format_validation_base@_WV?$string_output_adapter@_W@__crt_stdio_output@@@2@@__crt_stdio_output@@AAE_NXZ 1005c810 f i libucrtd:output.obj
 0001:0005ba80       ?type_case_a@?$output_processor@_WV?$string_output_adapter@_W@__crt_stdio_output@@V?$positional_parameter_base@_WV?$string_output_adapter@_W@__crt_stdio_output@@@2@@__crt_stdio_output@@AAE_NXZ 1005ca80 f i libucrtd:output.obj
 0001:0005bcf0       ?type_case_a@?$output_processor@_WV?$string_output_adapter@_W@__crt_stdio_output@@V?$standard_base@_WV?$string_output_adapter@_W@__crt_stdio_output@@@2@@__crt_stdio_output@@AAE_NXZ 1005ccf0 f i libucrtd:output.obj
 0001:0005bf60       ?type_case_c@?$output_processor@DV?$stream_output_adapter@D@__crt_stdio_output@@V?$format_validation_base@DV?$stream_output_adapter@D@__crt_stdio_output@@@2@@__crt_stdio_output@@AAE_NXZ 1005cf60 f i libucrtd:output.obj
 0001:0005bf80       ?type_case_c@?$output_processor@DV?$stream_output_adapter@D@__crt_stdio_output@@V?$positional_parameter_base@DV?$stream_output_adapter@D@__crt_stdio_output@@@2@@__crt_stdio_output@@AAE_NXZ 1005cf80 f i libucrtd:output.obj
 0001:0005bfa0       ?type_case_c@?$output_processor@DV?$stream_output_adapter@D@__crt_stdio_output@@V?$standard_base@DV?$stream_output_adapter@D@__crt_stdio_output@@@2@@__crt_stdio_output@@AAE_NXZ 1005cfa0 f i libucrtd:output.obj
 0001:0005bfc0       ?type_case_c@?$output_processor@DV?$string_output_adapter@D@__crt_stdio_output@@V?$format_validation_base@DV?$string_output_adapter@D@__crt_stdio_output@@@2@@__crt_stdio_output@@AAE_NXZ 1005cfc0 f i libucrtd:output.obj
 0001:0005bfe0       ?type_case_c@?$output_processor@DV?$string_output_adapter@D@__crt_stdio_output@@V?$positional_parameter_base@DV?$string_output_adapter@D@__crt_stdio_output@@@2@@__crt_stdio_output@@AAE_NXZ 1005cfe0 f i libucrtd:output.obj
 0001:0005c000       ?type_case_c@?$output_processor@DV?$string_output_adapter@D@__crt_stdio_output@@V?$standard_base@DV?$string_output_adapter@D@__crt_stdio_output@@@2@@__crt_stdio_output@@AAE_NXZ 1005d000 f i libucrtd:output.obj
 0001:0005c020       ?type_case_c@?$output_processor@_WV?$stream_output_adapter@_W@__crt_stdio_output@@V?$format_validation_base@_WV?$stream_output_adapter@_W@__crt_stdio_output@@@2@@__crt_stdio_output@@AAE_NXZ 1005d020 f i libucrtd:output.obj
 0001:0005c040       ?type_case_c@?$output_processor@_WV?$stream_output_adapter@_W@__crt_stdio_output@@V?$positional_parameter_base@_WV?$stream_output_adapter@_W@__crt_stdio_output@@@2@@__crt_stdio_output@@AAE_NXZ 1005d040 f i libucrtd:output.obj
 0001:0005c060       ?type_case_c@?$output_processor@_WV?$stream_output_adapter@_W@__crt_stdio_output@@V?$standard_base@_WV?$stream_output_adapter@_W@__crt_stdio_output@@@2@@__crt_stdio_output@@AAE_NXZ 1005d060 f i libucrtd:output.obj
 0001:0005c080       ?type_case_c@?$output_processor@_WV?$string_output_adapter@_W@__crt_stdio_output@@V?$format_validation_base@_WV?$string_output_adapter@_W@__crt_stdio_output@@@2@@__crt_stdio_output@@AAE_NXZ 1005d080 f i libucrtd:output.obj
 0001:0005c0a0       ?type_case_c@?$output_processor@_WV?$string_output_adapter@_W@__crt_stdio_output@@V?$positional_parameter_base@_WV?$string_output_adapter@_W@__crt_stdio_output@@@2@@__crt_stdio_output@@AAE_NXZ 1005d0a0 f i libucrtd:output.obj
 0001:0005c0c0       ?type_case_c@?$output_processor@_WV?$string_output_adapter@_W@__crt_stdio_output@@V?$standard_base@_WV?$string_output_adapter@_W@__crt_stdio_output@@@2@@__crt_stdio_output@@AAE_NXZ 1005d0c0 f i libucrtd:output.obj
 0001:0005c0e0       ?type_case_c_tchar@?$output_processor@DV?$stream_output_adapter@D@__crt_stdio_output@@V?$format_validation_base@DV?$stream_output_adapter@D@__crt_stdio_output@@@2@@__crt_stdio_output@@AAE_ND@Z 1005d0e0 f i libucrtd:output.obj
 0001:0005c1f0       ?type_case_c_tchar@?$output_processor@DV?$stream_output_adapter@D@__crt_stdio_output@@V?$positional_parameter_base@DV?$stream_output_adapter@D@__crt_stdio_output@@@2@@__crt_stdio_output@@AAE_ND@Z 1005d1f0 f i libucrtd:output.obj
 0001:0005c300       ?type_case_c_tchar@?$output_processor@DV?$stream_output_adapter@D@__crt_stdio_output@@V?$standard_base@DV?$stream_output_adapter@D@__crt_stdio_output@@@2@@__crt_stdio_output@@AAE_ND@Z 1005d300 f i libucrtd:output.obj
 0001:0005c410       ?type_case_c_tchar@?$output_processor@DV?$string_output_adapter@D@__crt_stdio_output@@V?$format_validation_base@DV?$string_output_adapter@D@__crt_stdio_output@@@2@@__crt_stdio_output@@AAE_ND@Z 1005d410 f i libucrtd:output.obj
 0001:0005c520       ?type_case_c_tchar@?$output_processor@DV?$string_output_adapter@D@__crt_stdio_output@@V?$positional_parameter_base@DV?$string_output_adapter@D@__crt_stdio_output@@@2@@__crt_stdio_output@@AAE_ND@Z 1005d520 f i libucrtd:output.obj
 0001:0005c630       ?type_case_c_tchar@?$output_processor@DV?$string_output_adapter@D@__crt_stdio_output@@V?$standard_base@DV?$string_output_adapter@D@__crt_stdio_output@@@2@@__crt_stdio_output@@AAE_ND@Z 1005d630 f i libucrtd:output.obj
 0001:0005c740       ?type_case_c_tchar@?$output_processor@_WV?$stream_output_adapter@_W@__crt_stdio_output@@V?$format_validation_base@_WV?$stream_output_adapter@_W@__crt_stdio_output@@@2@@__crt_stdio_output@@AAE_N_W@Z 1005d740 f i libucrtd:output.obj
 0001:0005c840       ?type_case_c_tchar@?$output_processor@_WV?$stream_output_adapter@_W@__crt_stdio_output@@V?$positional_parameter_base@_WV?$stream_output_adapter@_W@__crt_stdio_output@@@2@@__crt_stdio_output@@AAE_N_W@Z 1005d840 f i libucrtd:output.obj
 0001:0005c940       ?type_case_c_tchar@?$output_processor@_WV?$stream_output_adapter@_W@__crt_stdio_output@@V?$standard_base@_WV?$stream_output_adapter@_W@__crt_stdio_output@@@2@@__crt_stdio_output@@AAE_N_W@Z 1005d940 f i libucrtd:output.obj
 0001:0005ca40       ?type_case_c_tchar@?$output_processor@_WV?$string_output_adapter@_W@__crt_stdio_output@@V?$format_validation_base@_WV?$string_output_adapter@_W@__crt_stdio_output@@@2@@__crt_stdio_output@@AAE_N_W@Z 1005da40 f i libucrtd:output.obj
 0001:0005cb40       ?type_case_c_tchar@?$output_processor@_WV?$string_output_adapter@_W@__crt_stdio_output@@V?$positional_parameter_base@_WV?$string_output_adapter@_W@__crt_stdio_output@@@2@@__crt_stdio_output@@AAE_N_W@Z 1005db40 f i libucrtd:output.obj
 0001:0005cc40       ?type_case_c_tchar@?$output_processor@_WV?$string_output_adapter@_W@__crt_stdio_output@@V?$standard_base@_WV?$string_output_adapter@_W@__crt_stdio_output@@@2@@__crt_stdio_output@@AAE_N_W@Z 1005dc40 f i libucrtd:output.obj
 0001:0005cd40       ?type_case_d@?$output_processor@DV?$stream_output_adapter@D@__crt_stdio_output@@V?$format_validation_base@DV?$stream_output_adapter@D@__crt_stdio_output@@@2@@__crt_stdio_output@@AAE_NXZ 1005dd40 f i libucrtd:output.obj
 0001:0005cd70       ?type_case_d@?$output_processor@DV?$stream_output_adapter@D@__crt_stdio_output@@V?$positional_parameter_base@DV?$stream_output_adapter@D@__crt_stdio_output@@@2@@__crt_stdio_output@@AAE_NXZ 1005dd70 f i libucrtd:output.obj
 0001:0005cda0       ?type_case_d@?$output_processor@DV?$stream_output_adapter@D@__crt_stdio_output@@V?$standard_base@DV?$stream_output_adapter@D@__crt_stdio_output@@@2@@__crt_stdio_output@@AAE_NXZ 1005dda0 f i libucrtd:output.obj
 0001:0005cdd0       ?type_case_d@?$output_processor@DV?$string_output_adapter@D@__crt_stdio_output@@V?$format_validation_base@DV?$string_output_adapter@D@__crt_stdio_output@@@2@@__crt_stdio_output@@AAE_NXZ 1005ddd0 f i libucrtd:output.obj
 0001:0005ce00       ?type_case_d@?$output_processor@DV?$string_output_adapter@D@__crt_stdio_output@@V?$positional_parameter_base@DV?$string_output_adapter@D@__crt_stdio_output@@@2@@__crt_stdio_output@@AAE_NXZ 1005de00 f i libucrtd:output.obj
 0001:0005ce30       ?type_case_d@?$output_processor@DV?$string_output_adapter@D@__crt_stdio_output@@V?$standard_base@DV?$string_output_adapter@D@__crt_stdio_output@@@2@@__crt_stdio_output@@AAE_NXZ 1005de30 f i libucrtd:output.obj
 0001:0005ce60       ?type_case_d@?$output_processor@_WV?$stream_output_adapter@_W@__crt_stdio_output@@V?$format_validation_base@_WV?$stream_output_adapter@_W@__crt_stdio_output@@@2@@__crt_stdio_output@@AAE_NXZ 1005de60 f i libucrtd:output.obj
 0001:0005ce90       ?type_case_d@?$output_processor@_WV?$stream_output_adapter@_W@__crt_stdio_output@@V?$positional_parameter_base@_WV?$stream_output_adapter@_W@__crt_stdio_output@@@2@@__crt_stdio_output@@AAE_NXZ 1005de90 f i libucrtd:output.obj
 0001:0005cec0       ?type_case_d@?$output_processor@_WV?$stream_output_adapter@_W@__crt_stdio_output@@V?$standard_base@_WV?$stream_output_adapter@_W@__crt_stdio_output@@@2@@__crt_stdio_output@@AAE_NXZ 1005dec0 f i libucrtd:output.obj
 0001:0005cef0       ?type_case_d@?$output_processor@_WV?$string_output_adapter@_W@__crt_stdio_output@@V?$format_validation_base@_WV?$string_output_adapter@_W@__crt_stdio_output@@@2@@__crt_stdio_output@@AAE_NXZ 1005def0 f i libucrtd:output.obj
 0001:0005cf20       ?type_case_d@?$output_processor@_WV?$string_output_adapter@_W@__crt_stdio_output@@V?$positional_parameter_base@_WV?$string_output_adapter@_W@__crt_stdio_output@@@2@@__crt_stdio_output@@AAE_NXZ 1005df20 f i libucrtd:output.obj
 0001:0005cf50       ?type_case_d@?$output_processor@_WV?$string_output_adapter@_W@__crt_stdio_output@@V?$standard_base@_WV?$string_output_adapter@_W@__crt_stdio_output@@@2@@__crt_stdio_output@@AAE_NXZ 1005df50 f i libucrtd:output.obj
 0001:0005cf80       ?type_case_integer@?$output_processor@DV?$stream_output_adapter@D@__crt_stdio_output@@V?$format_validation_base@DV?$stream_output_adapter@D@__crt_stdio_output@@@2@@__crt_stdio_output@@AAE_NI_N@Z 1005df80 f i libucrtd:output.obj
 0001:0005d2d0       ?type_case_integer@?$output_processor@DV?$stream_output_adapter@D@__crt_stdio_output@@V?$positional_parameter_base@DV?$stream_output_adapter@D@__crt_stdio_output@@@2@@__crt_stdio_output@@AAE_NI_N@Z 1005e2d0 f i libucrtd:output.obj
 0001:0005d620       ?type_case_integer@?$output_processor@DV?$stream_output_adapter@D@__crt_stdio_output@@V?$standard_base@DV?$stream_output_adapter@D@__crt_stdio_output@@@2@@__crt_stdio_output@@AAE_NI_N@Z 1005e620 f i libucrtd:output.obj
 0001:0005d970       ?type_case_integer@?$output_processor@DV?$string_output_adapter@D@__crt_stdio_output@@V?$format_validation_base@DV?$string_output_adapter@D@__crt_stdio_output@@@2@@__crt_stdio_output@@AAE_NI_N@Z 1005e970 f i libucrtd:output.obj
 0001:0005dcc0       ?type_case_integer@?$output_processor@DV?$string_output_adapter@D@__crt_stdio_output@@V?$positional_parameter_base@DV?$string_output_adapter@D@__crt_stdio_output@@@2@@__crt_stdio_output@@AAE_NI_N@Z 1005ecc0 f i libucrtd:output.obj
 0001:0005e010       ?type_case_integer@?$output_processor@DV?$string_output_adapter@D@__crt_stdio_output@@V?$standard_base@DV?$string_output_adapter@D@__crt_stdio_output@@@2@@__crt_stdio_output@@AAE_NI_N@Z 1005f010 f i libucrtd:output.obj
 0001:0005e360       ?type_case_integer@?$output_processor@_WV?$stream_output_adapter@_W@__crt_stdio_output@@V?$format_validation_base@_WV?$stream_output_adapter@_W@__crt_stdio_output@@@2@@__crt_stdio_output@@AAE_NI_N@Z 1005f360 f i libucrtd:output.obj
 0001:0005e6b0       ?type_case_integer@?$output_processor@_WV?$stream_output_adapter@_W@__crt_stdio_output@@V?$positional_parameter_base@_WV?$stream_output_adapter@_W@__crt_stdio_output@@@2@@__crt_stdio_output@@AAE_NI_N@Z 1005f6b0 f i libucrtd:output.obj
 0001:0005ea00       ?type_case_integer@?$output_processor@_WV?$stream_output_adapter@_W@__crt_stdio_output@@V?$standard_base@_WV?$stream_output_adapter@_W@__crt_stdio_output@@@2@@__crt_stdio_output@@AAE_NI_N@Z 1005fa00 f i libucrtd:output.obj
 0001:0005ed50       ?type_case_integer@?$output_processor@_WV?$string_output_adapter@_W@__crt_stdio_output@@V?$format_validation_base@_WV?$string_output_adapter@_W@__crt_stdio_output@@@2@@__crt_stdio_output@@AAE_NI_N@Z 1005fd50 f i libucrtd:output.obj
 0001:0005f0a0       ?type_case_integer@?$output_processor@_WV?$string_output_adapter@_W@__crt_stdio_output@@V?$positional_parameter_base@_WV?$string_output_adapter@_W@__crt_stdio_output@@@2@@__crt_stdio_output@@AAE_NI_N@Z 100600a0 f i libucrtd:output.obj
 0001:0005f3f0       ?type_case_integer@?$output_processor@_WV?$string_output_adapter@_W@__crt_stdio_output@@V?$standard_base@_WV?$string_output_adapter@_W@__crt_stdio_output@@@2@@__crt_stdio_output@@AAE_NI_N@Z 100603f0 f i libucrtd:output.obj
 0001:0005f740       ?type_case_n@?$output_processor@DV?$stream_output_adapter@D@__crt_stdio_output@@V?$format_validation_base@DV?$stream_output_adapter@D@__crt_stdio_output@@@2@@__crt_stdio_output@@AAE_NXZ 10060740 f i libucrtd:output.obj
 0001:0005f930       ?type_case_n@?$output_processor@DV?$stream_output_adapter@D@__crt_stdio_output@@V?$positional_parameter_base@DV?$stream_output_adapter@D@__crt_stdio_output@@@2@@__crt_stdio_output@@AAE_NXZ 10060930 f i libucrtd:output.obj
 0001:0005fb20       ?type_case_n@?$output_processor@DV?$stream_output_adapter@D@__crt_stdio_output@@V?$standard_base@DV?$stream_output_adapter@D@__crt_stdio_output@@@2@@__crt_stdio_output@@AAE_NXZ 10060b20 f i libucrtd:output.obj
 0001:0005fd10       ?type_case_n@?$output_processor@DV?$string_output_adapter@D@__crt_stdio_output@@V?$format_validation_base@DV?$string_output_adapter@D@__crt_stdio_output@@@2@@__crt_stdio_output@@AAE_NXZ 10060d10 f i libucrtd:output.obj
 0001:0005ff00       ?type_case_n@?$output_processor@DV?$string_output_adapter@D@__crt_stdio_output@@V?$positional_parameter_base@DV?$string_output_adapter@D@__crt_stdio_output@@@2@@__crt_stdio_output@@AAE_NXZ 10060f00 f i libucrtd:output.obj
 0001:000600f0       ?type_case_n@?$output_processor@DV?$string_output_adapter@D@__crt_stdio_output@@V?$standard_base@DV?$string_output_adapter@D@__crt_stdio_output@@@2@@__crt_stdio_output@@AAE_NXZ 100610f0 f i libucrtd:output.obj
 0001:000602e0       ?type_case_n@?$output_processor@_WV?$stream_output_adapter@_W@__crt_stdio_output@@V?$format_validation_base@_WV?$stream_output_adapter@_W@__crt_stdio_output@@@2@@__crt_stdio_output@@AAE_NXZ 100612e0 f i libucrtd:output.obj
 0001:000604d0       ?type_case_n@?$output_processor@_WV?$stream_output_adapter@_W@__crt_stdio_output@@V?$positional_parameter_base@_WV?$stream_output_adapter@_W@__crt_stdio_output@@@2@@__crt_stdio_output@@AAE_NXZ 100614d0 f i libucrtd:output.obj
 0001:000606c0       ?type_case_n@?$output_processor@_WV?$stream_output_adapter@_W@__crt_stdio_output@@V?$standard_base@_WV?$stream_output_adapter@_W@__crt_stdio_output@@@2@@__crt_stdio_output@@AAE_NXZ 100616c0 f i libucrtd:output.obj
 0001:000608b0       ?type_case_n@?$output_processor@_WV?$string_output_adapter@_W@__crt_stdio_output@@V?$format_validation_base@_WV?$string_output_adapter@_W@__crt_stdio_output@@@2@@__crt_stdio_output@@AAE_NXZ 100618b0 f i libucrtd:output.obj
 0001:00060aa0       ?type_case_n@?$output_processor@_WV?$string_output_adapter@_W@__crt_stdio_output@@V?$positional_parameter_base@_WV?$string_output_adapter@_W@__crt_stdio_output@@@2@@__crt_stdio_output@@AAE_NXZ 10061aa0 f i libucrtd:output.obj
 0001:00060c90       ?type_case_n@?$output_processor@_WV?$string_output_adapter@_W@__crt_stdio_output@@V?$standard_base@_WV?$string_output_adapter@_W@__crt_stdio_output@@@2@@__crt_stdio_output@@AAE_NXZ 10061c90 f i libucrtd:output.obj
 0001:00060e80       ?type_case_o@?$output_processor@DV?$stream_output_adapter@D@__crt_stdio_output@@V?$format_validation_base@DV?$stream_output_adapter@D@__crt_stdio_output@@@2@@__crt_stdio_output@@AAE_NXZ 10061e80 f i libucrtd:output.obj
 0001:00060ec0       ?type_case_o@?$output_processor@DV?$stream_output_adapter@D@__crt_stdio_output@@V?$positional_parameter_base@DV?$stream_output_adapter@D@__crt_stdio_output@@@2@@__crt_stdio_output@@AAE_NXZ 10061ec0 f i libucrtd:output.obj
 0001:00060f00       ?type_case_o@?$output_processor@DV?$stream_output_adapter@D@__crt_stdio_output@@V?$standard_base@DV?$stream_output_adapter@D@__crt_stdio_output@@@2@@__crt_stdio_output@@AAE_NXZ 10061f00 f i libucrtd:output.obj
 0001:00060f40       ?type_case_o@?$output_processor@DV?$string_output_adapter@D@__crt_stdio_output@@V?$format_validation_base@DV?$string_output_adapter@D@__crt_stdio_output@@@2@@__crt_stdio_output@@AAE_NXZ 10061f40 f i libucrtd:output.obj
 0001:00060f80       ?type_case_o@?$output_processor@DV?$string_output_adapter@D@__crt_stdio_output@@V?$positional_parameter_base@DV?$string_output_adapter@D@__crt_stdio_output@@@2@@__crt_stdio_output@@AAE_NXZ 10061f80 f i libucrtd:output.obj
 0001:00060fc0       ?type_case_o@?$output_processor@DV?$string_output_adapter@D@__crt_stdio_output@@V?$standard_base@DV?$string_output_adapter@D@__crt_stdio_output@@@2@@__crt_stdio_output@@AAE_NXZ 10061fc0 f i libucrtd:output.obj
 0001:00061000       ?type_case_o@?$output_processor@_WV?$stream_output_adapter@_W@__crt_stdio_output@@V?$format_validation_base@_WV?$stream_output_adapter@_W@__crt_stdio_output@@@2@@__crt_stdio_output@@AAE_NXZ 10062000 f i libucrtd:output.obj
 0001:00061040       ?type_case_o@?$output_processor@_WV?$stream_output_adapter@_W@__crt_stdio_output@@V?$positional_parameter_base@_WV?$stream_output_adapter@_W@__crt_stdio_output@@@2@@__crt_stdio_output@@AAE_NXZ 10062040 f i libucrtd:output.obj
 0001:00061080       ?type_case_o@?$output_processor@_WV?$stream_output_adapter@_W@__crt_stdio_output@@V?$standard_base@_WV?$stream_output_adapter@_W@__crt_stdio_output@@@2@@__crt_stdio_output@@AAE_NXZ 10062080 f i libucrtd:output.obj
 0001:000610c0       ?type_case_o@?$output_processor@_WV?$string_output_adapter@_W@__crt_stdio_output@@V?$format_validation_base@_WV?$string_output_adapter@_W@__crt_stdio_output@@@2@@__crt_stdio_output@@AAE_NXZ 100620c0 f i libucrtd:output.obj
 0001:00061100       ?type_case_o@?$output_processor@_WV?$string_output_adapter@_W@__crt_stdio_output@@V?$positional_parameter_base@_WV?$string_output_adapter@_W@__crt_stdio_output@@@2@@__crt_stdio_output@@AAE_NXZ 10062100 f i libucrtd:output.obj
 0001:00061140       ?type_case_o@?$output_processor@_WV?$string_output_adapter@_W@__crt_stdio_output@@V?$standard_base@_WV?$string_output_adapter@_W@__crt_stdio_output@@@2@@__crt_stdio_output@@AAE_NXZ 10062140 f i libucrtd:output.obj
 0001:00061180       ?type_case_p@?$output_processor@DV?$stream_output_adapter@D@__crt_stdio_output@@V?$format_validation_base@DV?$stream_output_adapter@D@__crt_stdio_output@@@2@@__crt_stdio_output@@AAE_NXZ 10062180 f i libucrtd:output.obj
 0001:000611b0       ?type_case_p@?$output_processor@DV?$stream_output_adapter@D@__crt_stdio_output@@V?$positional_parameter_base@DV?$stream_output_adapter@D@__crt_stdio_output@@@2@@__crt_stdio_output@@AAE_NXZ 100621b0 f i libucrtd:output.obj
 0001:000611e0       ?type_case_p@?$output_processor@DV?$stream_output_adapter@D@__crt_stdio_output@@V?$standard_base@DV?$stream_output_adapter@D@__crt_stdio_output@@@2@@__crt_stdio_output@@AAE_NXZ 100621e0 f i libucrtd:output.obj
 0001:00061210       ?type_case_p@?$output_processor@DV?$string_output_adapter@D@__crt_stdio_output@@V?$format_validation_base@DV?$string_output_adapter@D@__crt_stdio_output@@@2@@__crt_stdio_output@@AAE_NXZ 10062210 f i libucrtd:output.obj
 0001:00061240       ?type_case_p@?$output_processor@DV?$string_output_adapter@D@__crt_stdio_output@@V?$positional_parameter_base@DV?$string_output_adapter@D@__crt_stdio_output@@@2@@__crt_stdio_output@@AAE_NXZ 10062240 f i libucrtd:output.obj
 0001:00061270       ?type_case_p@?$output_processor@DV?$string_output_adapter@D@__crt_stdio_output@@V?$standard_base@DV?$string_output_adapter@D@__crt_stdio_output@@@2@@__crt_stdio_output@@AAE_NXZ 10062270 f i libucrtd:output.obj
 0001:000612a0       ?type_case_p@?$output_processor@_WV?$stream_output_adapter@_W@__crt_stdio_output@@V?$format_validation_base@_WV?$stream_output_adapter@_W@__crt_stdio_output@@@2@@__crt_stdio_output@@AAE_NXZ 100622a0 f i libucrtd:output.obj
 0001:000612d0       ?type_case_p@?$output_processor@_WV?$stream_output_adapter@_W@__crt_stdio_output@@V?$positional_parameter_base@_WV?$stream_output_adapter@_W@__crt_stdio_output@@@2@@__crt_stdio_output@@AAE_NXZ 100622d0 f i libucrtd:output.obj
 0001:00061300       ?type_case_p@?$output_processor@_WV?$stream_output_adapter@_W@__crt_stdio_output@@V?$standard_base@_WV?$stream_output_adapter@_W@__crt_stdio_output@@@2@@__crt_stdio_output@@AAE_NXZ 10062300 f i libucrtd:output.obj
 0001:00061330       ?type_case_p@?$output_processor@_WV?$string_output_adapter@_W@__crt_stdio_output@@V?$format_validation_base@_WV?$string_output_adapter@_W@__crt_stdio_output@@@2@@__crt_stdio_output@@AAE_NXZ 10062330 f i libucrtd:output.obj
 0001:00061360       ?type_case_p@?$output_processor@_WV?$string_output_adapter@_W@__crt_stdio_output@@V?$positional_parameter_base@_WV?$string_output_adapter@_W@__crt_stdio_output@@@2@@__crt_stdio_output@@AAE_NXZ 10062360 f i libucrtd:output.obj
 0001:00061390       ?type_case_p@?$output_processor@_WV?$string_output_adapter@_W@__crt_stdio_output@@V?$standard_base@_WV?$string_output_adapter@_W@__crt_stdio_output@@@2@@__crt_stdio_output@@AAE_NXZ 10062390 f i libucrtd:output.obj
 0001:000613c0       ?type_case_s@?$output_processor@DV?$stream_output_adapter@D@__crt_stdio_output@@V?$format_validation_base@DV?$stream_output_adapter@D@__crt_stdio_output@@@2@@__crt_stdio_output@@AAE_NXZ 100623c0 f i libucrtd:output.obj
 0001:000614b0       ?type_case_s@?$output_processor@DV?$stream_output_adapter@D@__crt_stdio_output@@V?$positional_parameter_base@DV?$stream_output_adapter@D@__crt_stdio_output@@@2@@__crt_stdio_output@@AAE_NXZ 100624b0 f i libucrtd:output.obj
 0001:000615a0       ?type_case_s@?$output_processor@DV?$stream_output_adapter@D@__crt_stdio_output@@V?$standard_base@DV?$stream_output_adapter@D@__crt_stdio_output@@@2@@__crt_stdio_output@@AAE_NXZ 100625a0 f i libucrtd:output.obj
 0001:00061690       ?type_case_s@?$output_processor@DV?$string_output_adapter@D@__crt_stdio_output@@V?$format_validation_base@DV?$string_output_adapter@D@__crt_stdio_output@@@2@@__crt_stdio_output@@AAE_NXZ 10062690 f i libucrtd:output.obj
 0001:00061780       ?type_case_s@?$output_processor@DV?$string_output_adapter@D@__crt_stdio_output@@V?$positional_parameter_base@DV?$string_output_adapter@D@__crt_stdio_output@@@2@@__crt_stdio_output@@AAE_NXZ 10062780 f i libucrtd:output.obj
 0001:00061870       ?type_case_s@?$output_processor@DV?$string_output_adapter@D@__crt_stdio_output@@V?$standard_base@DV?$string_output_adapter@D@__crt_stdio_output@@@2@@__crt_stdio_output@@AAE_NXZ 10062870 f i libucrtd:output.obj
 0001:00061960       ?type_case_s@?$output_processor@_WV?$stream_output_adapter@_W@__crt_stdio_output@@V?$format_validation_base@_WV?$stream_output_adapter@_W@__crt_stdio_output@@@2@@__crt_stdio_output@@AAE_NXZ 10062960 f i libucrtd:output.obj
 0001:00061a50       ?type_case_s@?$output_processor@_WV?$stream_output_adapter@_W@__crt_stdio_output@@V?$positional_parameter_base@_WV?$stream_output_adapter@_W@__crt_stdio_output@@@2@@__crt_stdio_output@@AAE_NXZ 10062a50 f i libucrtd:output.obj
 0001:00061b40       ?type_case_s@?$output_processor@_WV?$stream_output_adapter@_W@__crt_stdio_output@@V?$standard_base@_WV?$stream_output_adapter@_W@__crt_stdio_output@@@2@@__crt_stdio_output@@AAE_NXZ 10062b40 f i libucrtd:output.obj
 0001:00061c30       ?type_case_s@?$output_processor@_WV?$string_output_adapter@_W@__crt_stdio_output@@V?$format_validation_base@_WV?$string_output_adapter@_W@__crt_stdio_output@@@2@@__crt_stdio_output@@AAE_NXZ 10062c30 f i libucrtd:output.obj
 0001:00061d20       ?type_case_s@?$output_processor@_WV?$string_output_adapter@_W@__crt_stdio_output@@V?$positional_parameter_base@_WV?$string_output_adapter@_W@__crt_stdio_output@@@2@@__crt_stdio_output@@AAE_NXZ 10062d20 f i libucrtd:output.obj
 0001:00061e10       ?type_case_s@?$output_processor@_WV?$string_output_adapter@_W@__crt_stdio_output@@V?$standard_base@_WV?$string_output_adapter@_W@__crt_stdio_output@@@2@@__crt_stdio_output@@AAE_NXZ 10062e10 f i libucrtd:output.obj
 0001:00061f00       ?type_case_s_compute_narrow_string_length@?$output_processor@DV?$stream_output_adapter@D@__crt_stdio_output@@V?$format_validation_base@DV?$stream_output_adapter@D@__crt_stdio_output@@@2@@__crt_stdio_output@@ABEHHD@Z 10062f00 f i libucrtd:output.obj
 0001:00061f30       ?type_case_s_compute_narrow_string_length@?$output_processor@DV?$stream_output_adapter@D@__crt_stdio_output@@V?$positional_parameter_base@DV?$stream_output_adapter@D@__crt_stdio_output@@@2@@__crt_stdio_output@@ABEHHD@Z 10062f30 f i libucrtd:output.obj
 0001:00061f60       ?type_case_s_compute_narrow_string_length@?$output_processor@DV?$stream_output_adapter@D@__crt_stdio_output@@V?$standard_base@DV?$stream_output_adapter@D@__crt_stdio_output@@@2@@__crt_stdio_output@@ABEHHD@Z 10062f60 f i libucrtd:output.obj
 0001:00061f90       ?type_case_s_compute_narrow_string_length@?$output_processor@DV?$string_output_adapter@D@__crt_stdio_output@@V?$format_validation_base@DV?$string_output_adapter@D@__crt_stdio_output@@@2@@__crt_stdio_output@@ABEHHD@Z 10062f90 f i libucrtd:output.obj
 0001:00061fc0       ?type_case_s_compute_narrow_string_length@?$output_processor@DV?$string_output_adapter@D@__crt_stdio_output@@V?$positional_parameter_base@DV?$string_output_adapter@D@__crt_stdio_output@@@2@@__crt_stdio_output@@ABEHHD@Z 10062fc0 f i libucrtd:output.obj
 0001:00061ff0       ?type_case_s_compute_narrow_string_length@?$output_processor@DV?$string_output_adapter@D@__crt_stdio_output@@V?$standard_base@DV?$string_output_adapter@D@__crt_stdio_output@@@2@@__crt_stdio_output@@ABEHHD@Z 10062ff0 f i libucrtd:output.obj
 0001:00062020       ?type_case_s_compute_narrow_string_length@?$output_processor@_WV?$stream_output_adapter@_W@__crt_stdio_output@@V?$format_validation_base@_WV?$stream_output_adapter@_W@__crt_stdio_output@@@2@@__crt_stdio_output@@ABEHH_W@Z 10063020 f i libucrtd:output.obj
 0001:00062090       ?type_case_s_compute_narrow_string_length@?$output_processor@_WV?$stream_output_adapter@_W@__crt_stdio_output@@V?$positional_parameter_base@_WV?$stream_output_adapter@_W@__crt_stdio_output@@@2@@__crt_stdio_output@@ABEHH_W@Z 10063090 f i libucrtd:output.obj
 0001:00062100       ?type_case_s_compute_narrow_string_length@?$output_processor@_WV?$stream_output_adapter@_W@__crt_stdio_output@@V?$standard_base@_WV?$stream_output_adapter@_W@__crt_stdio_output@@@2@@__crt_stdio_output@@ABEHH_W@Z 10063100 f i libucrtd:output.obj
 0001:00062170       ?type_case_s_compute_narrow_string_length@?$output_processor@_WV?$string_output_adapter@_W@__crt_stdio_output@@V?$format_validation_base@_WV?$string_output_adapter@_W@__crt_stdio_output@@@2@@__crt_stdio_output@@ABEHH_W@Z 10063170 f i libucrtd:output.obj
 0001:000621e0       ?type_case_s_compute_narrow_string_length@?$output_processor@_WV?$string_output_adapter@_W@__crt_stdio_output@@V?$positional_parameter_base@_WV?$string_output_adapter@_W@__crt_stdio_output@@@2@@__crt_stdio_output@@ABEHH_W@Z 100631e0 f i libucrtd:output.obj
 0001:00062250       ?type_case_s_compute_narrow_string_length@?$output_processor@_WV?$string_output_adapter@_W@__crt_stdio_output@@V?$standard_base@_WV?$string_output_adapter@_W@__crt_stdio_output@@@2@@__crt_stdio_output@@ABEHH_W@Z 10063250 f i libucrtd:output.obj
 0001:000622c0       ?type_case_u@?$output_processor@DV?$stream_output_adapter@D@__crt_stdio_output@@V?$format_validation_base@DV?$stream_output_adapter@D@__crt_stdio_output@@@2@@__crt_stdio_output@@AAE_NXZ 100632c0 f i libucrtd:output.obj
 0001:000622e0       ?type_case_u@?$output_processor@DV?$stream_output_adapter@D@__crt_stdio_output@@V?$positional_parameter_base@DV?$stream_output_adapter@D@__crt_stdio_output@@@2@@__crt_stdio_output@@AAE_NXZ 100632e0 f i libucrtd:output.obj
 0001:00062300       ?type_case_u@?$output_processor@DV?$stream_output_adapter@D@__crt_stdio_output@@V?$standard_base@DV?$stream_output_adapter@D@__crt_stdio_output@@@2@@__crt_stdio_output@@AAE_NXZ 10063300 f i libucrtd:output.obj
 0001:00062320       ?type_case_u@?$output_processor@DV?$string_output_adapter@D@__crt_stdio_output@@V?$format_validation_base@DV?$string_output_adapter@D@__crt_stdio_output@@@2@@__crt_stdio_output@@AAE_NXZ 10063320 f i libucrtd:output.obj
 0001:00062340       ?type_case_u@?$output_processor@DV?$string_output_adapter@D@__crt_stdio_output@@V?$positional_parameter_base@DV?$string_output_adapter@D@__crt_stdio_output@@@2@@__crt_stdio_output@@AAE_NXZ 10063340 f i libucrtd:output.obj
 0001:00062360       ?type_case_u@?$output_processor@DV?$string_output_adapter@D@__crt_stdio_output@@V?$standard_base@DV?$string_output_adapter@D@__crt_stdio_output@@@2@@__crt_stdio_output@@AAE_NXZ 10063360 f i libucrtd:output.obj
 0001:00062380       ?type_case_u@?$output_processor@_WV?$stream_output_adapter@_W@__crt_stdio_output@@V?$format_validation_base@_WV?$stream_output_adapter@_W@__crt_stdio_output@@@2@@__crt_stdio_output@@AAE_NXZ 10063380 f i libucrtd:output.obj
 0001:000623a0       ?type_case_u@?$output_processor@_WV?$stream_output_adapter@_W@__crt_stdio_output@@V?$positional_parameter_base@_WV?$stream_output_adapter@_W@__crt_stdio_output@@@2@@__crt_stdio_output@@AAE_NXZ 100633a0 f i libucrtd:output.obj
 0001:000623c0       ?type_case_u@?$output_processor@_WV?$stream_output_adapter@_W@__crt_stdio_output@@V?$standard_base@_WV?$stream_output_adapter@_W@__crt_stdio_output@@@2@@__crt_stdio_output@@AAE_NXZ 100633c0 f i libucrtd:output.obj
 0001:000623e0       ?type_case_u@?$output_processor@_WV?$string_output_adapter@_W@__crt_stdio_output@@V?$format_validation_base@_WV?$string_output_adapter@_W@__crt_stdio_output@@@2@@__crt_stdio_output@@AAE_NXZ 100633e0 f i libucrtd:output.obj
 0001:00062400       ?type_case_u@?$output_processor@_WV?$string_output_adapter@_W@__crt_stdio_output@@V?$positional_parameter_base@_WV?$string_output_adapter@_W@__crt_stdio_output@@@2@@__crt_stdio_output@@AAE_NXZ 10063400 f i libucrtd:output.obj
 0001:00062420       ?type_case_u@?$output_processor@_WV?$string_output_adapter@_W@__crt_stdio_output@@V?$standard_base@_WV?$string_output_adapter@_W@__crt_stdio_output@@@2@@__crt_stdio_output@@AAE_NXZ 10063420 f i libucrtd:output.obj
 0001:00062440       ?type_case_x@?$output_processor@DV?$stream_output_adapter@D@__crt_stdio_output@@V?$format_validation_base@DV?$stream_output_adapter@D@__crt_stdio_output@@@2@@__crt_stdio_output@@AAE_NXZ 10063440 f i libucrtd:output.obj
 0001:00062460       ?type_case_x@?$output_processor@DV?$stream_output_adapter@D@__crt_stdio_output@@V?$positional_parameter_base@DV?$stream_output_adapter@D@__crt_stdio_output@@@2@@__crt_stdio_output@@AAE_NXZ 10063460 f i libucrtd:output.obj
 0001:00062480       ?type_case_x@?$output_processor@DV?$stream_output_adapter@D@__crt_stdio_output@@V?$standard_base@DV?$stream_output_adapter@D@__crt_stdio_output@@@2@@__crt_stdio_output@@AAE_NXZ 10063480 f i libucrtd:output.obj
 0001:000624a0       ?type_case_x@?$output_processor@DV?$string_output_adapter@D@__crt_stdio_output@@V?$format_validation_base@DV?$string_output_adapter@D@__crt_stdio_output@@@2@@__crt_stdio_output@@AAE_NXZ 100634a0 f i libucrtd:output.obj
 0001:000624c0       ?type_case_x@?$output_processor@DV?$string_output_adapter@D@__crt_stdio_output@@V?$positional_parameter_base@DV?$string_output_adapter@D@__crt_stdio_output@@@2@@__crt_stdio_output@@AAE_NXZ 100634c0 f i libucrtd:output.obj
 0001:000624e0       ?type_case_x@?$output_processor@DV?$string_output_adapter@D@__crt_stdio_output@@V?$standard_base@DV?$string_output_adapter@D@__crt_stdio_output@@@2@@__crt_stdio_output@@AAE_NXZ 100634e0 f i libucrtd:output.obj
 0001:00062500       ?type_case_x@?$output_processor@_WV?$stream_output_adapter@_W@__crt_stdio_output@@V?$format_validation_base@_WV?$stream_output_adapter@_W@__crt_stdio_output@@@2@@__crt_stdio_output@@AAE_NXZ 10063500 f i libucrtd:output.obj
 0001:00062520       ?type_case_x@?$output_processor@_WV?$stream_output_adapter@_W@__crt_stdio_output@@V?$positional_parameter_base@_WV?$stream_output_adapter@_W@__crt_stdio_output@@@2@@__crt_stdio_output@@AAE_NXZ 10063520 f i libucrtd:output.obj
 0001:00062540       ?type_case_x@?$output_processor@_WV?$stream_output_adapter@_W@__crt_stdio_output@@V?$standard_base@_WV?$stream_output_adapter@_W@__crt_stdio_output@@@2@@__crt_stdio_output@@AAE_NXZ 10063540 f i libucrtd:output.obj
 0001:00062560       ?type_case_x@?$output_processor@_WV?$string_output_adapter@_W@__crt_stdio_output@@V?$format_validation_base@_WV?$string_output_adapter@_W@__crt_stdio_output@@@2@@__crt_stdio_output@@AAE_NXZ 10063560 f i libucrtd:output.obj
 0001:00062580       ?type_case_x@?$output_processor@_WV?$string_output_adapter@_W@__crt_stdio_output@@V?$positional_parameter_base@_WV?$string_output_adapter@_W@__crt_stdio_output@@@2@@__crt_stdio_output@@AAE_NXZ 10063580 f i libucrtd:output.obj
 0001:000625a0       ?type_case_x@?$output_processor@_WV?$string_output_adapter@_W@__crt_stdio_output@@V?$standard_base@_WV?$string_output_adapter@_W@__crt_stdio_output@@@2@@__crt_stdio_output@@AAE_NXZ 100635a0 f i libucrtd:output.obj
 0001:000625c0       ?unset_flag@?$output_processor@DV?$stream_output_adapter@D@__crt_stdio_output@@V?$format_validation_base@DV?$stream_output_adapter@D@__crt_stdio_output@@@2@@__crt_stdio_output@@AAEXI@Z 100635c0 f i libucrtd:output.obj
 0001:000625e0       ?unset_flag@?$output_processor@DV?$stream_output_adapter@D@__crt_stdio_output@@V?$positional_parameter_base@DV?$stream_output_adapter@D@__crt_stdio_output@@@2@@__crt_stdio_output@@AAEXI@Z 100635e0 f i libucrtd:output.obj
 0001:00062600       ?unset_flag@?$output_processor@DV?$stream_output_adapter@D@__crt_stdio_output@@V?$standard_base@DV?$stream_output_adapter@D@__crt_stdio_output@@@2@@__crt_stdio_output@@AAEXI@Z 10063600 f i libucrtd:output.obj
 0001:00062620       ?unset_flag@?$output_processor@DV?$string_output_adapter@D@__crt_stdio_output@@V?$format_validation_base@DV?$string_output_adapter@D@__crt_stdio_output@@@2@@__crt_stdio_output@@AAEXI@Z 10063620 f i libucrtd:output.obj
 0001:00062640       ?unset_flag@?$output_processor@DV?$string_output_adapter@D@__crt_stdio_output@@V?$positional_parameter_base@DV?$string_output_adapter@D@__crt_stdio_output@@@2@@__crt_stdio_output@@AAEXI@Z 10063640 f i libucrtd:output.obj
 0001:00062660       ?unset_flag@?$output_processor@DV?$string_output_adapter@D@__crt_stdio_output@@V?$standard_base@DV?$string_output_adapter@D@__crt_stdio_output@@@2@@__crt_stdio_output@@AAEXI@Z 10063660 f i libucrtd:output.obj
 0001:00062680       ?unset_flag@?$output_processor@_WV?$stream_output_adapter@_W@__crt_stdio_output@@V?$format_validation_base@_WV?$stream_output_adapter@_W@__crt_stdio_output@@@2@@__crt_stdio_output@@AAEXI@Z 10063680 f i libucrtd:output.obj
 0001:000626a0       ?unset_flag@?$output_processor@_WV?$stream_output_adapter@_W@__crt_stdio_output@@V?$positional_parameter_base@_WV?$stream_output_adapter@_W@__crt_stdio_output@@@2@@__crt_stdio_output@@AAEXI@Z 100636a0 f i libucrtd:output.obj
 0001:000626c0       ?unset_flag@?$output_processor@_WV?$stream_output_adapter@_W@__crt_stdio_output@@V?$standard_base@_WV?$stream_output_adapter@_W@__crt_stdio_output@@@2@@__crt_stdio_output@@AAEXI@Z 100636c0 f i libucrtd:output.obj
 0001:000626e0       ?unset_flag@?$output_processor@_WV?$string_output_adapter@_W@__crt_stdio_output@@V?$format_validation_base@_WV?$string_output_adapter@_W@__crt_stdio_output@@@2@@__crt_stdio_output@@AAEXI@Z 100636e0 f i libucrtd:output.obj
 0001:00062700       ?unset_flag@?$output_processor@_WV?$string_output_adapter@_W@__crt_stdio_output@@V?$positional_parameter_base@_WV?$string_output_adapter@_W@__crt_stdio_output@@@2@@__crt_stdio_output@@AAEXI@Z 10063700 f i libucrtd:output.obj
 0001:00062720       ?unset_flag@?$output_processor@_WV?$string_output_adapter@_W@__crt_stdio_output@@V?$standard_base@_WV?$string_output_adapter@_W@__crt_stdio_output@@@2@@__crt_stdio_output@@AAEXI@Z 10063720 f i libucrtd:output.obj
 0001:00062740       ?update_field_width@?$positional_parameter_base@DV?$stream_output_adapter@D@__crt_stdio_output@@@__crt_stdio_output@@IAE_NXZ 10063740 f i libucrtd:output.obj
 0001:000628c0       ?update_field_width@?$positional_parameter_base@DV?$string_output_adapter@D@__crt_stdio_output@@@__crt_stdio_output@@IAE_NXZ 100638c0 f i libucrtd:output.obj
 0001:00062a40       ?update_field_width@?$positional_parameter_base@_WV?$stream_output_adapter@_W@__crt_stdio_output@@@__crt_stdio_output@@IAE_NXZ 10063a40 f i libucrtd:output.obj
 0001:00062bc0       ?update_field_width@?$positional_parameter_base@_WV?$string_output_adapter@_W@__crt_stdio_output@@@__crt_stdio_output@@IAE_NXZ 10063bc0 f i libucrtd:output.obj
 0001:00062d40       ?update_field_width@?$standard_base@DV?$stream_output_adapter@D@__crt_stdio_output@@@__crt_stdio_output@@IAE_NXZ 10063d40 f i libucrtd:output.obj
 0001:00062d70       ?update_field_width@?$standard_base@DV?$string_output_adapter@D@__crt_stdio_output@@@__crt_stdio_output@@IAE_NXZ 10063d70 f i libucrtd:output.obj
 0001:00062da0       ?update_field_width@?$standard_base@_WV?$stream_output_adapter@_W@__crt_stdio_output@@@__crt_stdio_output@@IAE_NXZ 10063da0 f i libucrtd:output.obj
 0001:00062dd0       ?update_field_width@?$standard_base@_WV?$string_output_adapter@_W@__crt_stdio_output@@@__crt_stdio_output@@IAE_NXZ 10063dd0 f i libucrtd:output.obj
 0001:00062e00       ?update_precision@?$positional_parameter_base@DV?$stream_output_adapter@D@__crt_stdio_output@@@__crt_stdio_output@@IAE_NXZ 10063e00 f i libucrtd:output.obj
 0001:00062f80       ?update_precision@?$positional_parameter_base@DV?$string_output_adapter@D@__crt_stdio_output@@@__crt_stdio_output@@IAE_NXZ 10063f80 f i libucrtd:output.obj
 0001:00063100       ?update_precision@?$positional_parameter_base@_WV?$stream_output_adapter@_W@__crt_stdio_output@@@__crt_stdio_output@@IAE_NXZ 10064100 f i libucrtd:output.obj
 0001:00063280       ?update_precision@?$positional_parameter_base@_WV?$string_output_adapter@_W@__crt_stdio_output@@@__crt_stdio_output@@IAE_NXZ 10064280 f i libucrtd:output.obj
 0001:00063400       ?update_precision@?$standard_base@DV?$stream_output_adapter@D@__crt_stdio_output@@@__crt_stdio_output@@IAE_NXZ 10064400 f i libucrtd:output.obj
 0001:00063430       ?update_precision@?$standard_base@DV?$string_output_adapter@D@__crt_stdio_output@@@__crt_stdio_output@@IAE_NXZ 10064430 f i libucrtd:output.obj
 0001:00063460       ?update_precision@?$standard_base@_WV?$stream_output_adapter@_W@__crt_stdio_output@@@__crt_stdio_output@@IAE_NXZ 10064460 f i libucrtd:output.obj
 0001:00063490       ?update_precision@?$standard_base@_WV?$string_output_adapter@_W@__crt_stdio_output@@@__crt_stdio_output@@IAE_NXZ 10064490 f i libucrtd:output.obj
 0001:000634c0       ?valid@__crt_stdio_stream@@QBE_NXZ 100644c0 f i libucrtd:output.obj
 0001:000634f0       ?validate@?$stream_output_adapter@D@__crt_stdio_output@@QBE_NXZ 100644f0 f i libucrtd:output.obj
 0001:000635a0       ?validate@?$stream_output_adapter@_W@__crt_stdio_output@@QBE_NXZ 100645a0 f i libucrtd:output.obj
 0001:00063650       ?validate@?$string_output_adapter@D@__crt_stdio_output@@QBE_NXZ 10064650 f i libucrtd:output.obj
 0001:000636e0       ?validate@?$string_output_adapter@_W@__crt_stdio_output@@QBE_NXZ 100646e0 f i libucrtd:output.obj
 0001:00063770       ?validate_and_store_parameter_data@?$positional_parameter_base@DV?$stream_output_adapter@D@__crt_stdio_output@@@__crt_stdio_output@@AAE_NAAUparameter_data@12@W4parameter_type@12@DW4length_modifier@2@@Z 10064770 f i libucrtd:output.obj
 0001:00063840       ?validate_and_store_parameter_data@?$positional_parameter_base@DV?$string_output_adapter@D@__crt_stdio_output@@@__crt_stdio_output@@AAE_NAAUparameter_data@12@W4parameter_type@12@DW4length_modifier@2@@Z 10064840 f i libucrtd:output.obj
 0001:00063910       ?validate_and_store_parameter_data@?$positional_parameter_base@_WV?$stream_output_adapter@_W@__crt_stdio_output@@@__crt_stdio_output@@AAE_NAAUparameter_data@12@W4parameter_type@12@_WW4length_modifier@2@@Z 10064910 f i libucrtd:output.obj
 0001:000639f0       ?validate_and_store_parameter_data@?$positional_parameter_base@_WV?$string_output_adapter@_W@__crt_stdio_output@@@__crt_stdio_output@@AAE_NAAUparameter_data@12@W4parameter_type@12@_WW4length_modifier@2@@Z 100649f0 f i libucrtd:output.obj
 0001:00063ad0       ?validate_and_update_state_at_beginning_of_format_character@?$positional_parameter_base@DV?$stream_output_adapter@D@__crt_stdio_output@@@__crt_stdio_output@@IAE_NXZ 10064ad0 f i libucrtd:output.obj
 0001:00063cf0       ?validate_and_update_state_at_beginning_of_format_character@?$positional_parameter_base@DV?$string_output_adapter@D@__crt_stdio_output@@@__crt_stdio_output@@IAE_NXZ 10064cf0 f i libucrtd:output.obj
 0001:00063f10       ?validate_and_update_state_at_beginning_of_format_character@?$positional_parameter_base@_WV?$stream_output_adapter@_W@__crt_stdio_output@@@__crt_stdio_output@@IAE_NXZ 10064f10 f i libucrtd:output.obj
 0001:00064130       ?validate_and_update_state_at_beginning_of_format_character@?$positional_parameter_base@_WV?$string_output_adapter@_W@__crt_stdio_output@@@__crt_stdio_output@@IAE_NXZ 10065130 f i libucrtd:output.obj
 0001:00064350       ?validate_and_update_state_at_beginning_of_format_character@?$standard_base@DV?$stream_output_adapter@D@__crt_stdio_output@@@__crt_stdio_output@@IAE_NXZ 10065350 f i libucrtd:output.obj
 0001:00064360       ?validate_and_update_state_at_beginning_of_format_character@?$standard_base@DV?$string_output_adapter@D@__crt_stdio_output@@@__crt_stdio_output@@IAE_NXZ 10065360 f i libucrtd:output.obj
 0001:00064370       ?validate_and_update_state_at_beginning_of_format_character@?$standard_base@_WV?$stream_output_adapter@_W@__crt_stdio_output@@@__crt_stdio_output@@IAE_NXZ 10065370 f i libucrtd:output.obj
 0001:00064380       ?validate_and_update_state_at_beginning_of_format_character@?$standard_base@_WV?$string_output_adapter@_W@__crt_stdio_output@@@__crt_stdio_output@@IAE_NXZ 10065380 f i libucrtd:output.obj
 0001:00064390       ?validate_and_update_state_at_end_of_format_string@?$format_validation_base@DV?$stream_output_adapter@D@__crt_stdio_output@@@__crt_stdio_output@@IBE_NXZ 10065390 f i libucrtd:output.obj
 0001:00064430       ?validate_and_update_state_at_end_of_format_string@?$format_validation_base@DV?$string_output_adapter@D@__crt_stdio_output@@@__crt_stdio_output@@IBE_NXZ 10065430 f i libucrtd:output.obj
 0001:000644d0       ?validate_and_update_state_at_end_of_format_string@?$format_validation_base@_WV?$stream_output_adapter@_W@__crt_stdio_output@@@__crt_stdio_output@@IBE_NXZ 100654d0 f i libucrtd:output.obj
 0001:00064570       ?validate_and_update_state_at_end_of_format_string@?$format_validation_base@_WV?$string_output_adapter@_W@__crt_stdio_output@@@__crt_stdio_output@@IBE_NXZ 10065570 f i libucrtd:output.obj
 0001:00064610       ?validate_and_update_state_at_end_of_format_string@?$positional_parameter_base@DV?$stream_output_adapter@D@__crt_stdio_output@@@__crt_stdio_output@@IAE_NXZ 10065610 f i libucrtd:output.obj
 0001:000647b0       ?validate_and_update_state_at_end_of_format_string@?$positional_parameter_base@DV?$string_output_adapter@D@__crt_stdio_output@@@__crt_stdio_output@@IAE_NXZ 100657b0 f i libucrtd:output.obj
 0001:00064950       ?validate_and_update_state_at_end_of_format_string@?$positional_parameter_base@_WV?$stream_output_adapter@_W@__crt_stdio_output@@@__crt_stdio_output@@IAE_NXZ 10065950 f i libucrtd:output.obj
 0001:00064af0       ?validate_and_update_state_at_end_of_format_string@?$positional_parameter_base@_WV?$string_output_adapter@_W@__crt_stdio_output@@@__crt_stdio_output@@IAE_NXZ 10065af0 f i libucrtd:output.obj
 0001:00064c90       ?validate_and_update_state_at_end_of_format_string@?$standard_base@DV?$stream_output_adapter@D@__crt_stdio_output@@@__crt_stdio_output@@IBE_NXZ 10065c90 f i libucrtd:output.obj
 0001:00064ca0       ?validate_and_update_state_at_end_of_format_string@?$standard_base@DV?$string_output_adapter@D@__crt_stdio_output@@@__crt_stdio_output@@IBE_NXZ 10065ca0 f i libucrtd:output.obj
 0001:00064cb0       ?validate_and_update_state_at_end_of_format_string@?$standard_base@_WV?$stream_output_adapter@_W@__crt_stdio_output@@@__crt_stdio_output@@IBE_NXZ 10065cb0 f i libucrtd:output.obj
 0001:00064cc0       ?validate_and_update_state_at_end_of_format_string@?$standard_base@_WV?$string_output_adapter@_W@__crt_stdio_output@@@__crt_stdio_output@@IBE_NXZ 10065cc0 f i libucrtd:output.obj
 0001:00064cd0       ?validate_state_for_type_case_a@?$positional_parameter_base@DV?$stream_output_adapter@D@__crt_stdio_output@@@__crt_stdio_output@@IAE_NXZ 10065cd0 f i libucrtd:output.obj
 0001:00064dc0       ?validate_state_for_type_case_a@?$positional_parameter_base@DV?$string_output_adapter@D@__crt_stdio_output@@@__crt_stdio_output@@IAE_NXZ 10065dc0 f i libucrtd:output.obj
 0001:00064eb0       ?validate_state_for_type_case_a@?$positional_parameter_base@_WV?$stream_output_adapter@_W@__crt_stdio_output@@@__crt_stdio_output@@IAE_NXZ 10065eb0 f i libucrtd:output.obj
 0001:00064fa0       ?validate_state_for_type_case_a@?$positional_parameter_base@_WV?$string_output_adapter@_W@__crt_stdio_output@@@__crt_stdio_output@@IAE_NXZ 10065fa0 f i libucrtd:output.obj
 0001:00065090       ?validate_state_for_type_case_a@?$standard_base@DV?$stream_output_adapter@D@__crt_stdio_output@@@__crt_stdio_output@@IBE_NXZ 10066090 f i libucrtd:output.obj
 0001:000650a0       ?validate_state_for_type_case_a@?$standard_base@DV?$string_output_adapter@D@__crt_stdio_output@@@__crt_stdio_output@@IBE_NXZ 100660a0 f i libucrtd:output.obj
 0001:000650b0       ?validate_state_for_type_case_a@?$standard_base@_WV?$stream_output_adapter@_W@__crt_stdio_output@@@__crt_stdio_output@@IBE_NXZ 100660b0 f i libucrtd:output.obj
 0001:000650c0       ?validate_state_for_type_case_a@?$standard_base@_WV?$string_output_adapter@_W@__crt_stdio_output@@@__crt_stdio_output@@IBE_NXZ 100660c0 f i libucrtd:output.obj
 0001:000650d0       ?validate_stream_is_ansi_if_required@?$__acrt_stdio_char_traits@D@@SA_NQAU_iobuf@@@Z 100660d0 f i libucrtd:output.obj
 0001:00065200       ?validate_stream_is_ansi_if_required@?$__acrt_stdio_char_traits@_W@@SA_NQAU_iobuf@@@Z 10066200 f i libucrtd:output.obj
 0001:00065210       ?wide_null_string@?$output_processor@DV?$stream_output_adapter@D@__crt_stdio_output@@V?$format_validation_base@DV?$stream_output_adapter@D@__crt_stdio_output@@@2@@__crt_stdio_output@@CAPA_WXZ 10066210 f i libucrtd:output.obj
 0001:00065220       ?wide_null_string@?$output_processor@DV?$stream_output_adapter@D@__crt_stdio_output@@V?$positional_parameter_base@DV?$stream_output_adapter@D@__crt_stdio_output@@@2@@__crt_stdio_output@@CAPA_WXZ 10066220 f i libucrtd:output.obj
 0001:00065230       ?wide_null_string@?$output_processor@DV?$stream_output_adapter@D@__crt_stdio_output@@V?$standard_base@DV?$stream_output_adapter@D@__crt_stdio_output@@@2@@__crt_stdio_output@@CAPA_WXZ 10066230 f i libucrtd:output.obj
 0001:00065240       ?wide_null_string@?$output_processor@DV?$string_output_adapter@D@__crt_stdio_output@@V?$format_validation_base@DV?$string_output_adapter@D@__crt_stdio_output@@@2@@__crt_stdio_output@@CAPA_WXZ 10066240 f i libucrtd:output.obj
 0001:00065250       ?wide_null_string@?$output_processor@DV?$string_output_adapter@D@__crt_stdio_output@@V?$positional_parameter_base@DV?$string_output_adapter@D@__crt_stdio_output@@@2@@__crt_stdio_output@@CAPA_WXZ 10066250 f i libucrtd:output.obj
 0001:00065260       ?wide_null_string@?$output_processor@DV?$string_output_adapter@D@__crt_stdio_output@@V?$standard_base@DV?$string_output_adapter@D@__crt_stdio_output@@@2@@__crt_stdio_output@@CAPA_WXZ 10066260 f i libucrtd:output.obj
 0001:00065270       ?wide_null_string@?$output_processor@_WV?$stream_output_adapter@_W@__crt_stdio_output@@V?$format_validation_base@_WV?$stream_output_adapter@_W@__crt_stdio_output@@@2@@__crt_stdio_output@@CAPA_WXZ 10066270 f i libucrtd:output.obj
 0001:00065280       ?wide_null_string@?$output_processor@_WV?$stream_output_adapter@_W@__crt_stdio_output@@V?$positional_parameter_base@_WV?$stream_output_adapter@_W@__crt_stdio_output@@@2@@__crt_stdio_output@@CAPA_WXZ 10066280 f i libucrtd:output.obj
 0001:00065290       ?wide_null_string@?$output_processor@_WV?$stream_output_adapter@_W@__crt_stdio_output@@V?$standard_base@_WV?$stream_output_adapter@_W@__crt_stdio_output@@@2@@__crt_stdio_output@@CAPA_WXZ 10066290 f i libucrtd:output.obj
 0001:000652a0       ?wide_null_string@?$output_processor@_WV?$string_output_adapter@_W@__crt_stdio_output@@V?$format_validation_base@_WV?$string_output_adapter@_W@__crt_stdio_output@@@2@@__crt_stdio_output@@CAPA_WXZ 100662a0 f i libucrtd:output.obj
 0001:000652b0       ?wide_null_string@?$output_processor@_WV?$string_output_adapter@_W@__crt_stdio_output@@V?$positional_parameter_base@_WV?$string_output_adapter@_W@__crt_stdio_output@@@2@@__crt_stdio_output@@CAPA_WXZ 100662b0 f i libucrtd:output.obj
 0001:000652c0       ?wide_null_string@?$output_processor@_WV?$string_output_adapter@_W@__crt_stdio_output@@V?$standard_base@_WV?$string_output_adapter@_W@__crt_stdio_output@@@2@@__crt_stdio_output@@CAPA_WXZ 100662c0 f i libucrtd:output.obj
 0001:000652d0       ?write_character@?$output_adapter_common@DV?$stream_output_adapter@D@__crt_stdio_output@@@__crt_stdio_output@@QBEXDQAH@Z 100662d0 f i libucrtd:output.obj
 0001:00065310       ?write_character@?$output_adapter_common@_WV?$stream_output_adapter@_W@__crt_stdio_output@@@__crt_stdio_output@@QBEX_WQAH@Z 10066310 f i libucrtd:output.obj
 0001:00065350       ?write_character@?$string_output_adapter@D@__crt_stdio_output@@QBE_NDQAH@Z 10066350 f i libucrtd:output.obj
 0001:000653e0       ?write_character@?$string_output_adapter@_W@__crt_stdio_output@@QBE_N_WQAH@Z 100663e0 f i libucrtd:output.obj
 0001:00065480       ?write_character_without_count_update@?$stream_output_adapter@D@__crt_stdio_output@@QBE_ND@Z 10066480 f i libucrtd:output.obj
 0001:000654f0       ?write_character_without_count_update@?$stream_output_adapter@_W@__crt_stdio_output@@QBE_N_W@Z 100664f0 f i libucrtd:output.obj
 0001:00065560       ?write_stored_string_tchar@?$output_processor@DV?$stream_output_adapter@D@__crt_stdio_output@@V?$format_validation_base@DV?$stream_output_adapter@D@__crt_stdio_output@@@2@@__crt_stdio_output@@AAE_ND@Z 10066560 f i libucrtd:output.obj
 0001:00065680       ?write_stored_string_tchar@?$output_processor@DV?$stream_output_adapter@D@__crt_stdio_output@@V?$positional_parameter_base@DV?$stream_output_adapter@D@__crt_stdio_output@@@2@@__crt_stdio_output@@AAE_ND@Z 10066680 f i libucrtd:output.obj
 0001:000657a0       ?write_stored_string_tchar@?$output_processor@DV?$stream_output_adapter@D@__crt_stdio_output@@V?$standard_base@DV?$stream_output_adapter@D@__crt_stdio_output@@@2@@__crt_stdio_output@@AAE_ND@Z 100667a0 f i libucrtd:output.obj
 0001:000658c0       ?write_stored_string_tchar@?$output_processor@DV?$string_output_adapter@D@__crt_stdio_output@@V?$format_validation_base@DV?$string_output_adapter@D@__crt_stdio_output@@@2@@__crt_stdio_output@@AAE_ND@Z 100668c0 f i libucrtd:output.obj
 0001:000659e0       ?write_stored_string_tchar@?$output_processor@DV?$string_output_adapter@D@__crt_stdio_output@@V?$positional_parameter_base@DV?$string_output_adapter@D@__crt_stdio_output@@@2@@__crt_stdio_output@@AAE_ND@Z 100669e0 f i libucrtd:output.obj
 0001:00065b00       ?write_stored_string_tchar@?$output_processor@DV?$string_output_adapter@D@__crt_stdio_output@@V?$standard_base@DV?$string_output_adapter@D@__crt_stdio_output@@@2@@__crt_stdio_output@@AAE_ND@Z 10066b00 f i libucrtd:output.obj
 0001:00065c20       ?write_stored_string_tchar@?$output_processor@_WV?$stream_output_adapter@_W@__crt_stdio_output@@V?$format_validation_base@_WV?$stream_output_adapter@_W@__crt_stdio_output@@@2@@__crt_stdio_output@@AAE_N_W@Z 10066c20 f i libucrtd:output.obj
 0001:00065d10       ?write_stored_string_tchar@?$output_processor@_WV?$stream_output_adapter@_W@__crt_stdio_output@@V?$positional_parameter_base@_WV?$stream_output_adapter@_W@__crt_stdio_output@@@2@@__crt_stdio_output@@AAE_N_W@Z 10066d10 f i libucrtd:output.obj
 0001:00065e00       ?write_stored_string_tchar@?$output_processor@_WV?$stream_output_adapter@_W@__crt_stdio_output@@V?$standard_base@_WV?$stream_output_adapter@_W@__crt_stdio_output@@@2@@__crt_stdio_output@@AAE_N_W@Z 10066e00 f i libucrtd:output.obj
 0001:00065ef0       ?write_stored_string_tchar@?$output_processor@_WV?$string_output_adapter@_W@__crt_stdio_output@@V?$format_validation_base@_WV?$string_output_adapter@_W@__crt_stdio_output@@@2@@__crt_stdio_output@@AAE_N_W@Z 10066ef0 f i libucrtd:output.obj
 0001:00065fe0       ?write_stored_string_tchar@?$output_processor@_WV?$string_output_adapter@_W@__crt_stdio_output@@V?$positional_parameter_base@_WV?$string_output_adapter@_W@__crt_stdio_output@@@2@@__crt_stdio_output@@AAE_N_W@Z 10066fe0 f i libucrtd:output.obj
 0001:000660d0       ?write_stored_string_tchar@?$output_processor@_WV?$string_output_adapter@_W@__crt_stdio_output@@V?$standard_base@_WV?$string_output_adapter@_W@__crt_stdio_output@@@2@@__crt_stdio_output@@AAE_N_W@Z 100670d0 f i libucrtd:output.obj
 0001:000661c0       ?write_string@?$stream_output_adapter@D@__crt_stdio_output@@QBEXQBDHQAHAAV__crt_deferred_errno_cache@@@Z 100671c0 f i libucrtd:output.obj
 0001:00066220       ?write_string@?$stream_output_adapter@_W@__crt_stdio_output@@QBEXQB_WHQAHAAV__crt_deferred_errno_cache@@@Z 10067220 f i libucrtd:output.obj
 0001:00066280       ?write_string@?$string_output_adapter@D@__crt_stdio_output@@QBEXQBDHQAHAAV__crt_deferred_errno_cache@@@Z 10067280 f i libucrtd:output.obj
 0001:00066380       ?write_string@?$string_output_adapter@_W@__crt_stdio_output@@QBEXQB_WHQAHAAV__crt_deferred_errno_cache@@@Z 10067380 f i libucrtd:output.obj
 0001:00066490       ?write_string_impl@?$output_adapter_common@DV?$stream_output_adapter@D@__crt_stdio_output@@@__crt_stdio_output@@IBEXQBDHQAHAAV__crt_deferred_errno_cache@@@Z 10067490 f i libucrtd:output.obj
 0001:00066530       ?write_string_impl@?$output_adapter_common@_WV?$stream_output_adapter@_W@__crt_stdio_output@@@__crt_stdio_output@@IBEXQB_WHQAHAAV__crt_deferred_errno_cache@@@Z 10067530 f i libucrtd:output.obj
 0001:000665d0       ___acrt_disable_global_locale_sync 100675d0 f i libucrtd:output.obj
 0001:000665f0       ___acrt_enable_global_locale_sync 100675f0 f i libucrtd:output.obj
 0001:00066610       ___acrt_isleadbyte_l_noupdate 10067610 f i libucrtd:output.obj
 0001:00066630       ___acrt_locale_changed     10067630 f i libucrtd:output.obj
 0001:00066660       ___acrt_locale_get_ctype_array_value 10067660 f i libucrtd:output.obj
 0001:00066690       ___stdio_common_vfprintf   10067690 f   libucrtd:output.obj
 0001:000666c0       ___stdio_common_vfprintf_p 100676c0 f   libucrtd:output.obj
 0001:000666f0       ___stdio_common_vfprintf_s 100676f0 f   libucrtd:output.obj
 0001:00066720       ___stdio_common_vfwprintf  10067720 f   libucrtd:output.obj
 0001:00066750       ___stdio_common_vfwprintf_p 10067750 f   libucrtd:output.obj
 0001:00066780       ___stdio_common_vfwprintf_s 10067780 f   libucrtd:output.obj
 0001:000667b0       ___stdio_common_vsnprintf_s 100677b0 f   libucrtd:output.obj
 0001:000667e0       ___stdio_common_vsnwprintf_s 100677e0 f   libucrtd:output.obj
 0001:00066810       ___stdio_common_vsprintf   10067810 f   libucrtd:output.obj
 0001:00066840       ___stdio_common_vsprintf_p 10067840 f   libucrtd:output.obj
 0001:00066870       ___stdio_common_vsprintf_s 10067870 f   libucrtd:output.obj
 0001:000668a0       ___stdio_common_vswprintf  100678a0 f   libucrtd:output.obj
 0001:000668d0       ___stdio_common_vswprintf_p 100678d0 f   libucrtd:output.obj
 0001:00066900       ___stdio_common_vswprintf_s 10067900 f   libucrtd:output.obj
 0001:00066930       __ctype_fast_check_internal 10067930 f i libucrtd:output.obj
 0001:00066950       __isdigit_fast_internal    10067950 f i libucrtd:output.obj
 0001:00066970       __tolower_fast_internal    10067970 f i libucrtd:output.obj
 0001:00066990       _free                      10067990 f   libucrtd:free.obj
 0001:000669c0       _malloc                    100679c0 f   libucrtd:malloc.obj
 0001:000669e0       ??$?RU?$__crt_report_hook_node@D@@@__crt_internal_free_policy@@QBEXQBU?$__crt_report_hook_node@D@@@Z 100679e0 f i libucrtd:dbgrpt.obj
 0001:00066a00       ??$?RU?$__crt_report_hook_node@_W@@@__crt_internal_free_policy@@QBEXQBU?$__crt_report_hook_node@_W@@@Z 10067a00 f i libucrtd:dbgrpt.obj
 0001:000677f0       ??$get_module_file_name@AAPAUHINSTANCE__@@AAY0BAF@DK@?$__crt_char_traits@D@@SAKAAPAUHINSTANCE__@@AAY0BAF@D$$QAK@Z 100687f0 f i libucrtd:dbgrpt.obj
 0001:00067810       ??$get_module_file_name@AAPAUHINSTANCE__@@AAY0BAF@_WK@?$__crt_char_traits@_W@@SAKAAPAUHINSTANCE__@@AAY0BAF@_W$$QAK@Z 10068810 f i libucrtd:dbgrpt.obj
 0001:00067830       ??$tcscpy_s@AAY0BAF@DIPBD@?$__crt_char_traits@D@@SAHAAY0BAF@D$$QAI$$QAPBD@Z 10068830 f i libucrtd:dbgrpt.obj
 0001:00067850       ??$tcscpy_s@AAY0BAF@_WIPB_W@?$__crt_char_traits@_W@@SAHAAY0BAF@_W$$QAI$$QAPB_W@Z 10068850 f i libucrtd:dbgrpt.obj
 0001:00067870       ??$tcslen@AAY0BAF@D@?$__crt_char_traits@D@@SAIAAY0BAF@D@Z 10068870 f i libucrtd:dbgrpt.obj
 0001:00067890       ??$tcslen@AAY0BAF@_W@?$__crt_char_traits@_W@@SAIAAY0BAF@_W@Z 10068890 f i libucrtd:dbgrpt.obj
 0001:000678b0       ??$tcslen@ABQBD@?$__crt_char_traits@D@@SAIABQBD@Z 100688b0 f i libucrtd:dbgrpt.obj
 0001:000678d0       ??$tcslen@ABQB_W@?$__crt_char_traits@_W@@SAIABQB_W@Z 100688d0 f i libucrtd:dbgrpt.obj
 0001:000679d0       ??0?$__crt_unique_heap_ptr@U?$__crt_report_hook_node@D@@U__crt_internal_free_policy@@@@QAE@QAU?$__crt_report_hook_node@D@@@Z 100689d0 f i libucrtd:dbgrpt.obj
 0001:000679f0       ??0?$__crt_unique_heap_ptr@U?$__crt_report_hook_node@_W@@U__crt_internal_free_policy@@@@QAE@QAU?$__crt_report_hook_node@_W@@@Z 100689f0 f i libucrtd:dbgrpt.obj
 0001:00067a10       ??1?$__crt_unique_heap_ptr@U?$__crt_report_hook_node@D@@U__crt_internal_free_policy@@@@QAE@XZ 10068a10 f i libucrtd:dbgrpt.obj
 0001:00067a30       ??1?$__crt_unique_heap_ptr@U?$__crt_report_hook_node@_W@@U__crt_internal_free_policy@@@@QAE@XZ 10068a30 f i libucrtd:dbgrpt.obj
 0001:00067a50       ??B?$__crt_unique_heap_ptr@U?$__crt_report_hook_node@D@@U__crt_internal_free_policy@@@@QBE_NXZ 10068a50 f i libucrtd:dbgrpt.obj
 0001:00067a70       ??B?$__crt_unique_heap_ptr@U?$__crt_report_hook_node@_W@@U__crt_internal_free_policy@@@@QBE_NXZ 10068a70 f i libucrtd:dbgrpt.obj
 0001:00067fb0       ?detach@?$__crt_unique_heap_ptr@U?$__crt_report_hook_node@D@@U__crt_internal_free_policy@@@@QAEPAU?$__crt_report_hook_node@D@@XZ 10068fb0 f i libucrtd:dbgrpt.obj
 0001:00067fe0       ?detach@?$__crt_unique_heap_ptr@U?$__crt_report_hook_node@_W@@U__crt_internal_free_policy@@@@QAEPAU?$__crt_report_hook_node@_W@@XZ 10068fe0 f i libucrtd:dbgrpt.obj
 0001:00068010       ?get@?$__crt_unique_heap_ptr@U?$__crt_report_hook_node@D@@U__crt_internal_free_policy@@@@QBEPAU?$__crt_report_hook_node@D@@XZ 10069010 f i libucrtd:dbgrpt.obj
 0001:00068030       ?get@?$__crt_unique_heap_ptr@U?$__crt_report_hook_node@_W@@U__crt_internal_free_policy@@@@QBEPAU?$__crt_report_hook_node@_W@@XZ 10069030 f i libucrtd:dbgrpt.obj
 0001:000680b0       ?is_valid@?$__crt_unique_heap_ptr@U?$__crt_report_hook_node@D@@U__crt_internal_free_policy@@@@QBE_NXZ 100690b0 f i libucrtd:dbgrpt.obj
 0001:000680e0       ?is_valid@?$__crt_unique_heap_ptr@U?$__crt_report_hook_node@_W@@U__crt_internal_free_policy@@@@QBE_NXZ 100690e0 f i libucrtd:dbgrpt.obj
 0001:00068110       ?release@?$__crt_unique_heap_ptr@U?$__crt_report_hook_node@D@@U__crt_internal_free_policy@@@@QAEXXZ 10069110 f i libucrtd:dbgrpt.obj
 0001:00068140       ?release@?$__crt_unique_heap_ptr@U?$__crt_report_hook_node@_W@@U__crt_internal_free_policy@@@@QAEXXZ 10069140 f i libucrtd:dbgrpt.obj
 0001:00068170       __CrtDbgReport             10069170 f   libucrtd:dbgrpt.obj
 0001:000681c0       __CrtDbgReportW            100691c0 f   libucrtd:dbgrpt.obj
 0001:00068210       __CrtSetReportHook2        10069210 f   libucrtd:dbgrpt.obj
 0001:00068230       __CrtSetReportHookW2       10069230 f   libucrtd:dbgrpt.obj
 0001:00068250       ___acrt_MessageWindowA     10069250 f   libucrtd:dbgrpt.obj
 0001:00068280       ___acrt_MessageWindowW     10069280 f   libucrtd:dbgrpt.obj
 0001:000682b0       __invoke_watson_if_error   100692b0 f i libucrtd:dbgrpt.obj
 0001:000682e0       __invoke_watson_if_oneof   100692e0 f i libucrtd:dbgrpt.obj
 0001:00068320       __snwprintf_s              10069320 f i libucrtd:dbgrpt.obj
 0001:00068360       __vsnwprintf_s_l           10069360 f i libucrtd:dbgrpt.obj
 0001:000686e0       _wcscpy_s                  100696e0 f   libucrtd:wcscpy_s.obj
 0001:00069400       ??1?$__crt_simd_cleanup_guard@$00@@QAE@XZ 1006a400 f i libucrtd:strnlen.obj
 0001:00069410       ??1?$__crt_simd_cleanup_guard@$0A@@@QAE@XZ 1006a410 f i libucrtd:strnlen.obj
 0001:00069420       ?compare_equals@?$__crt_simd_traits@$00E@@SA?AT__m256i@@T2@0@Z 1006a420 f i libucrtd:strnlen.obj
 0001:00069460       ?compare_equals@?$__crt_simd_traits@$00G@@SA?AT__m256i@@T2@0@Z 1006a460 f i libucrtd:strnlen.obj
 0001:000694a0       ?compare_equals@?$__crt_simd_traits@$0A@E@@SA?AT__m128i@@T2@0@Z 1006a4a0 f i libucrtd:strnlen.obj
 0001:000694e0       ?compare_equals@?$__crt_simd_traits@$0A@G@@SA?AT__m128i@@T2@0@Z 1006a4e0 f i libucrtd:strnlen.obj
 0001:00069520       ?compute_byte_mask@?$__crt_simd_pack_traits@$00@@SAHT__m256i@@@Z 1006a520 f i libucrtd:strnlen.obj
 0001:00069550       ?compute_byte_mask@?$__crt_simd_pack_traits@$0A@@@SAHT__m128i@@@Z 1006a550 f i libucrtd:strnlen.obj
 0001:00069580       ?get_zero_pack@?$__crt_simd_pack_traits@$00@@SA?AT__m256i@@XZ 1006a580 f i libucrtd:strnlen.obj
 0001:000695b0       ?get_zero_pack@?$__crt_simd_pack_traits@$0A@@@SA?AT__m128i@@XZ 1006a5b0 f i libucrtd:strnlen.obj
 0001:000695e0       _strnlen                   1006a5e0 f   libucrtd:strnlen.obj
 0001:00069600       _wcslen                    1006a600 f   libucrtd:strnlen.obj
 0001:00069620       _wcsnlen                   1006a620 f   libucrtd:strnlen.obj
 0001:00069640       ??$__crt_fast_decode_pointer@P6AXPB_W00II@Z@@YAP6AXPB_W00II@ZQ6AX000II@Z@Z 1006a640 f i libucrtd:invalid_parameter.obj
 0001:00069670       ??$__crt_fast_encode_pointer@P6AXPB_W00II@Z@@YAP6AXPB_W00II@ZQ6AX000II@Z@Z 1006a670 f i libucrtd:invalid_parameter.obj
 0001:000696a0       ??$initialize_from_array@$$BY00Q6AXPB_W00II@Z@?$dual_state_global@P6AXPB_W00II@Z@__crt_state_management@@QAAXAAY00Q6AXPB_W00II@Z@Z 1006a6a0 f i libucrtd:invalid_parameter.obj
 0001:000696f0       ?__crt_rotate_pointer_value@@YAIIH@Z 1006a6f0 f i libucrtd:invalid_parameter.obj
 0001:00069700       ?dangerous_get_state_array@?$dual_state_global@P6AXPB_W00II@Z@__crt_state_management@@QAEPAP6AXPB_W00II@ZXZ 1006a700 f i libucrtd:invalid_parameter.obj
 0001:00069710       ?get_current_state_index@__crt_state_management@@YAIXZ 1006a710 f i libucrtd:invalid_parameter.obj
 0001:00069720       ?value@?$dual_state_global@P6AXPB_W00II@Z@__crt_state_management@@QAEAAP6AXPB_W00II@ZXZ 1006a720 f i libucrtd:invalid_parameter.obj
 0001:00069740       ___acrt_call_reportfault   1006a740 f   libucrtd:invalid_parameter.obj
 0001:000698a0       ___acrt_initialize_invalid_parameter_handler 1006a8a0 f   libucrtd:invalid_parameter.obj
 0001:000698d0       __get_invalid_parameter_handler 1006a8d0 f   libucrtd:invalid_parameter.obj
 0001:000698f0       __get_thread_local_invalid_parameter_handler 1006a8f0 f   libucrtd:invalid_parameter.obj
 0001:00069920       __invalid_parameter        1006a920 f   libucrtd:invalid_parameter.obj
 0001:000699e0       __invalid_parameter_noinfo 1006a9e0 f   libucrtd:invalid_parameter.obj
 0001:00069a00       __invalid_parameter_noinfo_noreturn 1006aa00 f   libucrtd:invalid_parameter.obj
 0001:00069a30       __invoke_watson            1006aa30 f   libucrtd:invalid_parameter.obj
 0001:00069a70       __set_invalid_parameter_handler 1006aa70 f   libucrtd:invalid_parameter.obj
 0001:00069ac0       __set_thread_local_invalid_parameter_handler 1006aac0 f   libucrtd:invalid_parameter.obj
 0001:00069af0       ___acrt_errno_from_os_error 1006aaf0 f   libucrtd:errno.obj
 0001:00069b70       ___acrt_errno_map_os_error 1006ab70 f   libucrtd:errno.obj
 0001:00069ba0       ___doserrno                1006aba0 f   libucrtd:errno.obj
 0001:00069bd0       __errno                    1006abd0 f   libucrtd:errno.obj
 0001:00069c00       __get_doserrno             1006ac00 f   libucrtd:errno.obj
 0001:00069c90       __get_errno                1006ac90 f   libucrtd:errno.obj
 0001:00069d20       __set_doserrno             1006ad20 f   libucrtd:errno.obj
 0001:00069d50       __set_errno                1006ad50 f   libucrtd:errno.obj
 0001:00069d80       _calloc                    1006ad80 f   libucrtd:calloc.obj
 0001:00069da0       __recalloc                 1006ada0 f   libucrtd:recalloc.obj
 0001:00069dd0       __recalloc_base            1006add0 f   libucrtd:recalloc.obj
 0001:00069e6a       __resetstkoflw             1006ae6a f   libucrtd:resetstk.obj
 0001:0006a350       _wcscat_s                  1006b350 f   libucrtd:wcscat_s.obj
 0001:0006a7a0       _wcsncpy_s                 1006b7a0 f   libucrtd:wcsncpy_s.obj
 0001:0006a8e0       ___isascii                 1006b8e0 f   libucrtd:_ctype.obj
 0001:0006a910       ___iscsym                  1006b910 f   libucrtd:_ctype.obj
 0001:0006a950       ___iscsymf                 1006b950 f   libucrtd:_ctype.obj
 0001:0006a990       ___toascii                 1006b990 f   libucrtd:_ctype.obj
 0001:0006a9a0       __isalnum_l                1006b9a0 f   libucrtd:_ctype.obj
 0001:0006a9c0       __isalpha_l                1006b9c0 f   libucrtd:_ctype.obj
 0001:0006a9e0       __isblank_l                1006b9e0 f   libucrtd:_ctype.obj
 0001:0006aa00       __iscntrl_l                1006ba00 f   libucrtd:_ctype.obj
 0001:0006aa20       __iscsym_l                 1006ba20 f   libucrtd:_ctype.obj
 0001:0006aa60       __iscsymf_l                1006ba60 f   libucrtd:_ctype.obj
 0001:0006aaa0       __isdigit_l                1006baa0 f   libucrtd:_ctype.obj
 0001:0006aac0       __isgraph_l                1006bac0 f   libucrtd:_ctype.obj
 0001:0006aae0       __islower_l                1006bae0 f   libucrtd:_ctype.obj
 0001:0006ab00       __isprint_l                1006bb00 f   libucrtd:_ctype.obj
 0001:0006ab20       __ispunct_l                1006bb20 f   libucrtd:_ctype.obj
 0001:0006ab40       __isspace_l                1006bb40 f   libucrtd:_ctype.obj
 0001:0006ab60       __isupper_l                1006bb60 f   libucrtd:_ctype.obj
 0001:0006ab80       __isxdigit_l               1006bb80 f   libucrtd:_ctype.obj
 0001:0006aba0       _isalnum                   1006bba0 f   libucrtd:_ctype.obj
 0001:0006abc0       _isalpha                   1006bbc0 f   libucrtd:_ctype.obj
 0001:0006abe0       _isblank                   1006bbe0 f   libucrtd:_ctype.obj
 0001:0006ac10       _iscntrl                   1006bc10 f   libucrtd:_ctype.obj
 0001:0006ac30       _isdigit                   1006bc30 f   libucrtd:_ctype.obj
 0001:0006ac50       _isgraph                   1006bc50 f   libucrtd:_ctype.obj
 0001:0006ac70       _islower                   1006bc70 f   libucrtd:_ctype.obj
 0001:0006ac90       _isprint                   1006bc90 f   libucrtd:_ctype.obj
 0001:0006acb0       _ispunct                   1006bcb0 f   libucrtd:_ctype.obj
 0001:0006acd0       _isspace                   1006bcd0 f   libucrtd:_ctype.obj
 0001:0006acf0       _isupper                   1006bcf0 f   libucrtd:_ctype.obj
 0001:0006ad10       _isxdigit                  1006bd10 f   libucrtd:_ctype.obj
 0001:0006ad30       _wcscat                    1006bd30 f   libucrtd:wcscat.obj
 0001:0006ad90       _wcscpy                    1006bd90 f   libucrtd:wcscpy.obj
 0001:0006b420       ??$open_file@ABQBDABQBDABHPAU_iobuf@@@?$__crt_char_traits@D@@SAPAU_iobuf@@ABQBD0ABH$$QAPAU1@@Z 1006c420 f i libucrtd:fopen.obj
 0001:0006b450       ??$open_file@ABQB_WABQB_WABHPAU_iobuf@@@?$__crt_char_traits@_W@@SAPAU_iobuf@@ABQB_W0ABH$$QAPAU1@@Z 1006c450 f i libucrtd:fopen.obj
 0001:0006b480       ?unlock@__crt_stdio_stream@@QBEXXZ 1006c480 f i libucrtd:fopen.obj
 0001:0006b4a0       __fsopen                   1006c4a0 f   libucrtd:fopen.obj
 0001:0006b4c0       __wfopen                   1006c4c0 f   libucrtd:fopen.obj
 0001:0006b4e0       __wfopen_s                 1006c4e0 f   libucrtd:fopen.obj
 0001:0006b500       __wfsopen                  1006c500 f   libucrtd:fopen.obj
 0001:0006b520       _fopen                     1006c520 f   libucrtd:fopen.obj
 0001:0006b540       _fopen_s                   1006c540 f   libucrtd:fopen.obj
 0001:0006b560       ?is_in_use@__crt_stdio_stream@@QBE_NXZ 1006c560 f i libucrtd:fclose.obj
 0001:0006b5a0       __fclose_nolock            1006c5a0 f   libucrtd:fclose.obj
 0001:0006b6e0       _fclose                    1006c6e0 f   libucrtd:fclose.obj
 0001:0006b830       __fputc_nolock             1006c830 f   libucrtd:fputc.obj
 0001:0006b8c0       __fputchar                 1006c8c0 f   libucrtd:fputc.obj
 0001:0006b8e0       __putc_nolock              1006c8e0 f   libucrtd:fputc.obj
 0001:0006b900       _fputc                     1006c900 f   libucrtd:fputc.obj
 0001:0006bb40       _putc                      1006cb40 f   libucrtd:fputc.obj
 0001:0006bb60       _putchar                   1006cb60 f   libucrtd:fputc.obj
 0001:0006bbd0       __seh_filter_dll           1006cbd0 f   libucrtd:exception_filter.obj
 0001:0006bc00       __seh_filter_exe           1006cc00 f   libucrtd:exception_filter.obj
 0001:0006be10       ??$?B$$A6GXPAXK0@Z@__crt_fast_encoded_nullptr_t@@QBEP6GXPAXK0@ZXZ 1006ce10 f i libucrtd:exit.obj
 0001:0006bef0       ??$__crt_fast_decode_pointer@P6GXPAXK0@Z@@YAP6GXPAXK0@ZQ6GX0K0@Z@Z 1006cef0 f i libucrtd:exit.obj
 0001:0006bf20       ??$__crt_fast_encode_pointer@P6GXPAXK0@Z@@YAP6GXPAXK0@ZQ6GX0K0@Z@Z 1006cf20 f i libucrtd:exit.obj
 0001:0006bf50       ??$__crt_get_proc_address@P6GXI@Z@@YAP6GXI@ZQAUHINSTANCE__@@QBD@Z 1006cf50 f i libucrtd:exit.obj
 0001:0006bfe0       ??0?$__crt_unique_handle_t@U__crt_hmodule_traits@@@@QAE@QAUHINSTANCE__@@@Z 1006cfe0 f i libucrtd:exit.obj
 0001:0006c000       ??1?$__crt_unique_handle_t@U__crt_hmodule_traits@@@@QAE@XZ 1006d000 f i libucrtd:exit.obj
 0001:0006c1c0       ?__acrt_select_exit_lock@@YA?AW4__acrt_lock_id@@XZ 1006d1c0 f i libucrtd:exit.obj
 0001:0006c1d0       ?__crt_fast_encode_pointer@@YA?AU__crt_fast_encoded_nullptr_t@@$$T@Z 1006d1d0 f i libucrtd:exit.obj
 0001:0006c200       ?close@?$__crt_unique_handle_t@U__crt_hmodule_traits@@@@QAEXXZ 1006d200 f i libucrtd:exit.obj
 0001:0006c240       ?close@__crt_hmodule_traits@@SA_NPAUHINSTANCE__@@@Z 1006d240 f i libucrtd:exit.obj
 0001:0006c330       ?get@?$__crt_unique_handle_t@U__crt_hmodule_traits@@@@QBEPAUHINSTANCE__@@XZ 1006d330 f i libucrtd:exit.obj
 0001:0006c350       ?get_address_of@?$__crt_unique_handle_t@U__crt_hmodule_traits@@@@QAEPAPAUHINSTANCE__@@XZ 1006d350 f i libucrtd:exit.obj
 0001:0006c360       ?get_invalid_value@__crt_hmodule_traits@@SAPAUHINSTANCE__@@XZ 1006d360 f i libucrtd:exit.obj
 0001:0006c4e0       __Exit                     1006d4e0 f   libucrtd:exit.obj
 0001:0006c500       ___acrt_initialize_thread_local_exit_callback 1006d500 f   libucrtd:exit.obj
 0001:0006c510       __c_exit                   1006d510 f   libucrtd:exit.obj
 0001:0006c530       __cexit                    1006d530 f   libucrtd:exit.obj
 0001:0006c550       __exit                     1006d550 f   libucrtd:exit.obj
 0001:0006c570       __is_c_termination_complete 1006d570 f   libucrtd:exit.obj
 0001:0006c590       __register_thread_local_exe_atexit_callback 1006d590 f   libucrtd:exit.obj
 0001:0006c5d0       _exit                      1006d5d0 f   libucrtd:exit.obj
 0001:0006c5f0       _quick_exit                1006d5f0 f   libucrtd:exit.obj
 0001:0006c610       ??$?RE@__crt_internal_free_policy@@QBEXQBE@Z 1006d610 f i libucrtd:argv_parsing.obj
 0001:0006c630       ??$?RPAD@__crt_internal_free_policy@@QBEXQBQAD@Z 1006d630 f i libucrtd:argv_parsing.obj
 0001:0006c650       ??$?RPA_W@__crt_internal_free_policy@@QBEXQBQA_W@Z 1006d650 f i libucrtd:argv_parsing.obj
 0001:0006cbb0       ??$get_module_file_name@$$TAAY0BAF@DH@?$__crt_char_traits@D@@SAK$$QA$$TAAY0BAF@D$$QAH@Z 1006dbb0 f i libucrtd:argv_parsing.obj
 0001:0006cbd0       ??$get_module_file_name@$$TAAY0BAF@_WH@?$__crt_char_traits@_W@@SAK$$QA$$TAAY0BAF@_W$$QAH@Z 1006dbd0 f i libucrtd:argv_parsing.obj
 0001:0006d2f0       ??$set_program_name@PAD@?$__crt_char_traits@D@@SAX$$QAPAD@Z 1006e2f0 f i libucrtd:argv_parsing.obj
 0001:0006d310       ??$set_program_name@PA_W@?$__crt_char_traits@_W@@SAX$$QAPA_W@Z 1006e310 f i libucrtd:argv_parsing.obj
 0001:0006d370       ??0?$__crt_unique_heap_ptr@EU__crt_internal_free_policy@@@@QAE@QAE@Z 1006e370 f i libucrtd:argv_parsing.obj
 0001:0006d390       ??0?$__crt_unique_heap_ptr@PADU__crt_internal_free_policy@@@@QAE@QAPAD@Z 1006e390 f i libucrtd:argv_parsing.obj
 0001:0006d3b0       ??0?$__crt_unique_heap_ptr@PA_WU__crt_internal_free_policy@@@@QAE@QAPA_W@Z 1006e3b0 f i libucrtd:argv_parsing.obj
 0001:0006d3d0       ??1?$__crt_unique_heap_ptr@EU__crt_internal_free_policy@@@@QAE@XZ 1006e3d0 f i libucrtd:argv_parsing.obj
 0001:0006d3f0       ??1?$__crt_unique_heap_ptr@PADU__crt_internal_free_policy@@@@QAE@XZ 1006e3f0 f i libucrtd:argv_parsing.obj
 0001:0006d410       ??1?$__crt_unique_heap_ptr@PA_WU__crt_internal_free_policy@@@@QAE@XZ 1006e410 f i libucrtd:argv_parsing.obj
 0001:0006d430       ??B?$__crt_unique_heap_ptr@EU__crt_internal_free_policy@@@@QBE_NXZ 1006e430 f i libucrtd:argv_parsing.obj
 0001:0006d4f0       ?detach@?$__crt_unique_heap_ptr@EU__crt_internal_free_policy@@@@QAEPAEXZ 1006e4f0 f i libucrtd:argv_parsing.obj
 0001:0006d520       ?detach@?$__crt_unique_heap_ptr@PADU__crt_internal_free_policy@@@@QAEPAPADXZ 1006e520 f i libucrtd:argv_parsing.obj
 0001:0006d550       ?detach@?$__crt_unique_heap_ptr@PA_WU__crt_internal_free_policy@@@@QAEPAPA_WXZ 1006e550 f i libucrtd:argv_parsing.obj
 0001:0006d5e0       ?get@?$__crt_unique_heap_ptr@EU__crt_internal_free_policy@@@@QBEPAEXZ 1006e5e0 f i libucrtd:argv_parsing.obj
 0001:0006d600       ?get@?$__crt_unique_heap_ptr@PADU__crt_internal_free_policy@@@@QBEPAPADXZ 1006e600 f i libucrtd:argv_parsing.obj
 0001:0006d620       ?get@?$__crt_unique_heap_ptr@PA_WU__crt_internal_free_policy@@@@QBEPAPA_WXZ 1006e620 f i libucrtd:argv_parsing.obj
 0001:0006d640       ?get_address_of@?$__crt_unique_heap_ptr@PADU__crt_internal_free_policy@@@@QAEPAPAPADXZ 1006e640 f i libucrtd:argv_parsing.obj
 0001:0006d650       ?get_address_of@?$__crt_unique_heap_ptr@PA_WU__crt_internal_free_policy@@@@QAEPAPAPA_WXZ 1006e650 f i libucrtd:argv_parsing.obj
 0001:0006d6a0       ?is_valid@?$__crt_unique_heap_ptr@EU__crt_internal_free_policy@@@@QBE_NXZ 1006e6a0 f i libucrtd:argv_parsing.obj
 0001:0006d6d0       ?release@?$__crt_unique_heap_ptr@EU__crt_internal_free_policy@@@@QAEXXZ 1006e6d0 f i libucrtd:argv_parsing.obj
 0001:0006d700       ?release@?$__crt_unique_heap_ptr@PADU__crt_internal_free_policy@@@@QAEXXZ 1006e700 f i libucrtd:argv_parsing.obj
 0001:0006d730       ?release@?$__crt_unique_heap_ptr@PA_WU__crt_internal_free_policy@@@@QAEXXZ 1006e730 f i libucrtd:argv_parsing.obj
 0001:0006d7a0       ___acrt_allocate_buffer_for_argv 1006e7a0 f   libucrtd:argv_parsing.obj
 0001:0006d860       __configure_narrow_argv    1006e860 f   libucrtd:argv_parsing.obj
 0001:0006d880       __configure_wide_argv      1006e880 f   libucrtd:argv_parsing.obj
 0001:0006d8a0       __set_pgmptr               1006e8a0 f i libucrtd:argv_parsing.obj
 0001:0006d8b0       __set_wpgmptr              1006e8b0 f i libucrtd:argv_parsing.obj
 0001:0006d8bf       ??$?R_W@__crt_internal_free_policy@@QBEXQB_W@Z 1006e8bf f i libucrtd:environment_initialization.obj
 0001:0006dd28       ??$get_environment_from_os@$$V@?$__crt_char_traits@D@@SAPADXZ 1006ed28 f i libucrtd:environment_initialization.obj
 0001:0006dd2d       ??$get_environment_from_os@$$V@?$__crt_char_traits@_W@@SAPA_WXZ 1006ed2d f i libucrtd:environment_initialization.obj
 0001:0006de56       ??$set_variable_in_environment_nolock@PADH@?$__crt_char_traits@D@@SAH$$QAPAD$$QAH@Z 1006ee56 f i libucrtd:environment_initialization.obj
 0001:0006de6e       ??$set_variable_in_environment_nolock@PA_WH@?$__crt_char_traits@_W@@SAH$$QAPA_W$$QAH@Z 1006ee6e f i libucrtd:environment_initialization.obj
 0001:0006de86       ??$tcscpy_s@PADABIAAPAD@?$__crt_char_traits@D@@SAH$$QAPADABIAAPAD@Z 1006ee86 f i libucrtd:environment_initialization.obj
 0001:0006dea4       ??$tcscpy_s@PA_WABIAAPA_W@?$__crt_char_traits@_W@@SAH$$QAPA_WABIAAPA_W@Z 1006eea4 f i libucrtd:environment_initialization.obj
 0001:0006dec2       ??$tcslen@AAPAD@?$__crt_char_traits@D@@SAIAAPAD@Z 1006eec2 f i libucrtd:environment_initialization.obj
 0001:0006deda       ??$tcslen@AAPA_W@?$__crt_char_traits@_W@@SAIAAPA_W@Z 1006eeda f i libucrtd:environment_initialization.obj
 0001:0006def8       ??$uninitialize@A6AXAAPAPAD@Z@?$dual_state_global@PAPAD@__crt_state_management@@QAEXA6AXAAPAPAD@Z@Z 1006eef8 f i libucrtd:environment_initialization.obj
 0001:0006df21       ??$uninitialize@A6AXAAPAPA_W@Z@?$dual_state_global@PAPA_W@__crt_state_management@@QAEXA6AXAAPAPA_W@Z@Z 1006ef21 f i libucrtd:environment_initialization.obj
 0001:0006df80       ??0?$__crt_unique_heap_ptr@_WU__crt_internal_free_policy@@@@QAE@QA_W@Z 1006ef80 f i libucrtd:environment_initialization.obj
 0001:0006df90       ??1?$__crt_unique_heap_ptr@_WU__crt_internal_free_policy@@@@QAE@XZ 1006ef90 f i libucrtd:environment_initialization.obj
 0001:0006dfa5       ??B?$__crt_unique_heap_ptr@PADU__crt_internal_free_policy@@@@QBE_NXZ 1006efa5 f i libucrtd:environment_initialization.obj
 0001:0006dfac       ??B?$__crt_unique_heap_ptr@PA_WU__crt_internal_free_policy@@@@QBE_NXZ 1006efac f i libucrtd:environment_initialization.obj
 0001:0006dfb3       ??B?$__crt_unique_heap_ptr@_WU__crt_internal_free_policy@@@@QBE_NXZ 1006efb3 f i libucrtd:environment_initialization.obj
 0001:0006dfba       ?__crt_compute_required_transform_buffer_count@@YAIIQBD@Z 1006efba f i libucrtd:environment_initialization.obj
 0001:0006dfd6       ?__crt_compute_required_transform_buffer_count@@YAIIQB_W@Z 1006efd6 f i libucrtd:environment_initialization.obj
 0001:0006dff4       ?__crt_transform_string@@YAIIQBDQA_WI@Z 1006eff4 f i libucrtd:environment_initialization.obj
 0001:0006e013       ?__crt_transform_string@@YAIIQB_WQADI@Z 1006f013 f i libucrtd:environment_initialization.obj
 0001:0006e035       ?detach@?$__crt_unique_heap_ptr@DU__crt_internal_free_policy@@@@QAEPADXZ 1006f035 f i libucrtd:environment_initialization.obj
 0001:0006e03b       ?detach@?$__crt_unique_heap_ptr@_WU__crt_internal_free_policy@@@@QAEPA_WXZ 1006f03b f i libucrtd:environment_initialization.obj
 0001:0006e041       ?get@?$__crt_unique_heap_ptr@_WU__crt_internal_free_policy@@@@QBEPA_WXZ 1006f041 f i libucrtd:environment_initialization.obj
 0001:0006e068       ?initialize@?$dual_state_global@PAPAD@__crt_state_management@@QAEXQAPAD@Z 1006f068 f i libucrtd:environment_initialization.obj
 0001:0006e08e       ?initialize@?$dual_state_global@PAPA_W@__crt_state_management@@QAEXQAPA_W@Z 1006f08e f i libucrtd:environment_initialization.obj
 0001:0006e0b4       ?is_valid@?$__crt_unique_heap_ptr@PADU__crt_internal_free_policy@@@@QBE_NXZ 1006f0b4 f i libucrtd:environment_initialization.obj
 0001:0006e0bb       ?is_valid@?$__crt_unique_heap_ptr@PA_WU__crt_internal_free_policy@@@@QBE_NXZ 1006f0bb f i libucrtd:environment_initialization.obj
 0001:0006e0c2       ?is_valid@?$__crt_unique_heap_ptr@_WU__crt_internal_free_policy@@@@QBE_NXZ 1006f0c2 f i libucrtd:environment_initialization.obj
 0001:0006e0d1       ?release@?$__crt_unique_heap_ptr@_WU__crt_internal_free_policy@@@@QAEXXZ 1006f0d1 f i libucrtd:environment_initialization.obj
 0001:0006e0e6       ?value@?$dual_state_global@PAPAD@__crt_state_management@@QAEAAPAPADXZ 1006f0e6 f i libucrtd:environment_initialization.obj
 0001:0006e0e9       ?value@?$dual_state_global@PAPA_W@__crt_state_management@@QAEAAPAPA_WXZ 1006f0e9 f i libucrtd:environment_initialization.obj
 0001:0006e0ec       ___dcrt_get_or_create_narrow_environment_nolock 1006f0ec f   libucrtd:environment_initialization.obj
 0001:0006e0f1       ___dcrt_get_or_create_wide_environment_nolock 1006f0f1 f   libucrtd:environment_initialization.obj
 0001:0006e0f6       ___dcrt_uninitialize_environments_nolock 1006f0f6 f   libucrtd:environment_initialization.obj
 0001:0006e12d       ___p__environ              1006f12d f   libucrtd:environment_initialization.obj
 0001:0006e133       ___p__wenviron             1006f133 f   libucrtd:environment_initialization.obj
 0001:0006e139       __get_initial_narrow_environment 1006f139 f   libucrtd:environment_initialization.obj
 0001:0006e14d       __get_initial_wide_environment 1006f14d f   libucrtd:environment_initialization.obj
 0001:0006e161       __initialize_narrow_environment 1006f161 f   libucrtd:environment_initialization.obj
 0001:0006e166       __initialize_wide_environment 1006f166 f   libucrtd:environment_initialization.obj
 0001:0006e170       ??$?B$$A6AXXZ@__crt_fast_encoded_nullptr_t@@QBEP6AXXZXZ 1006f170 f i libucrtd:onexit.obj
 0001:0006e190       ??$?BP6AXXZ@__crt_fast_encoded_nullptr_t@@QBEPAP6AXXZXZ 1006f190 f i libucrtd:onexit.obj
 0001:0006e1b0       ??$?RP6AXXZ@__crt_internal_free_policy@@QBEXQBQ6AXXZ@Z 1006f1b0 f i libucrtd:onexit.obj
 0001:0006e370       ??$__crt_fast_decode_pointer@P6AXXZ@@YAP6AXXZQ6AXXZ@Z 1006f370 f i libucrtd:onexit.obj
 0001:0006e3a0       ??$__crt_fast_decode_pointer@PAP6AXXZ@@YAPAP6AXXZQAP6AXXZ@Z 1006f3a0 f i libucrtd:onexit.obj
 0001:0006e3d0       ??$__crt_fast_encode_pointer@P6AHXZ@@YAP6AHXZQ6AHXZ@Z 1006f3d0 f i libucrtd:onexit.obj
 0001:0006e400       ??$__crt_fast_encode_pointer@P6AXXZ@@YAP6AXXZQ6AXXZ@Z 1006f400 f i libucrtd:onexit.obj
 0001:0006e430       ??$__crt_fast_encode_pointer@PAP6AXXZ@@YAPAP6AXXZQAP6AXXZ@Z 1006f430 f i libucrtd:onexit.obj
 0001:0006e530       ??0?$__crt_unique_heap_ptr@P6AXXZU__crt_internal_free_policy@@@@QAE@QAP6AXXZ@Z 1006f530 f i libucrtd:onexit.obj
 0001:0006e550       ??1?$__crt_unique_heap_ptr@P6AXXZU__crt_internal_free_policy@@@@QAE@XZ 1006f550 f i libucrtd:onexit.obj
 0001:0006e570       ??1scoped_global_state_reset@__crt_state_management@@QAE@XZ 1006f570 f i libucrtd:onexit.obj
 0001:0006e9e0       ?detach@?$__crt_unique_heap_ptr@P6AXXZU__crt_internal_free_policy@@@@QAEPAP6AXXZXZ 1006f9e0 f i libucrtd:onexit.obj
 0001:0006ea10       ?release@?$__crt_unique_heap_ptr@P6AXXZU__crt_internal_free_policy@@@@QAEXXZ 1006fa10 f i libucrtd:onexit.obj
 0001:0006ea40       __crt_at_quick_exit        1006fa40 f   libucrtd:onexit.obj
 0001:0006ea60       __crt_atexit               1006fa60 f   libucrtd:onexit.obj
 0001:0006ea80       __execute_onexit_table     1006fa80 f   libucrtd:onexit.obj
 0001:0006eab0       __initialize_onexit_table  1006fab0 f   libucrtd:onexit.obj
 0001:0006eb10       __register_onexit_function 1006fb10 f   libucrtd:onexit.obj
 0001:0006ed50       ??$?BX@__crt_fast_encoded_nullptr_t@@QBEPAXXZ 1006fd50 f i libucrtd:initialization.obj
 0001:0006ed70       ??$__crt_fast_encode_pointer@PAX@@YAPAXQAX@Z 1006fd70 f i libucrtd:initialization.obj
 0001:0006ee30       ?initialize@?$dual_state_global@PAU__crt_locale_data@@@__crt_state_management@@QAEXQAU__crt_locale_data@@@Z 1006fe30 f i libucrtd:initialization.obj
 0001:0006ee70       ___acrt_initialize         1006fe70 f   libucrtd:initialization.obj
 0001:0006ee90       ___acrt_thread_attach      1006fe90 f   libucrtd:initialization.obj
 0001:0006eeb0       ___acrt_thread_detach      1006feb0 f   libucrtd:initialization.obj
 0001:0006eec0       ___acrt_uninitialize       1006fec0 f   libucrtd:initialization.obj
 0001:0006eee0       ___acrt_uninitialize_critical 1006fee0 f   libucrtd:initialization.obj
 0001:00070750       __CrtCheckMemory           10071750 f   libucrtd:debug_heap.obj
 0001:000708e0       __CrtDoForAllClientObjects 100718e0 f   libucrtd:debug_heap.obj
 0001:00070a30       __CrtDumpMemoryLeaks       10071a30 f   libucrtd:debug_heap.obj
 0001:00070ad0       __CrtGetAllocHook          10071ad0 f   libucrtd:debug_heap.obj
 0001:00070ae0       __CrtGetDumpClient         10071ae0 f   libucrtd:debug_heap.obj
 0001:00070af0       __CrtIsMemoryBlock         10071af0 f   libucrtd:debug_heap.obj
 0001:00070c40       __CrtIsValidHeapPointer    10071c40 f   libucrtd:debug_heap.obj
 0001:00070c70       __CrtIsValidPointer        10071c70 f   libucrtd:debug_heap.obj
 0001:00070ca0       __CrtMemCheckpoint         10071ca0 f   libucrtd:debug_heap.obj
 0001:00070ed0       __CrtMemDifference         10071ed0 f   libucrtd:debug_heap.obj
 0001:00071140       __CrtMemDumpAllObjectsSince 10072140 f   libucrtd:debug_heap.obj
 0001:000711e0       __CrtMemDumpStatistics     100721e0 f   libucrtd:debug_heap.obj
 0001:00071310       __CrtReportBlockType       10072310 f   libucrtd:debug_heap.obj
 0001:00071340       __CrtSetAllocHook          10072340 f   libucrtd:debug_heap.obj
 0001:00071360       __CrtSetBreakAlloc         10072360 f   libucrtd:debug_heap.obj
 0001:00071380       __CrtSetDbgBlockType       10072380 f   libucrtd:debug_heap.obj
 0001:00071460       __CrtSetDbgFlag            10072460 f   libucrtd:debug_heap.obj
 0001:000715d0       __CrtSetDumpClient         100725d0 f   libucrtd:debug_heap.obj
 0001:000715f0       ___acrt_get_locale_data_prefix 100725f0 f i libucrtd:debug_heap.obj
 0001:00071610       ___p__crtBreakAlloc        10072610 f   libucrtd:debug_heap.obj
 0001:00071620       ___p__crtDbgFlag           10072620 f   libucrtd:debug_heap.obj
 0001:00071630       __aligned_free_dbg         10072630 f   libucrtd:debug_heap.obj
 0001:000716e0       __aligned_malloc_dbg       100726e0 f   libucrtd:debug_heap.obj
 0001:00071710       __aligned_msize_dbg        10072710 f   libucrtd:debug_heap.obj
 0001:00071840       __aligned_offset_malloc_dbg 10072840 f   libucrtd:debug_heap.obj
 0001:00071a20       __aligned_offset_realloc_dbg 10072a20 f   libucrtd:debug_heap.obj
 0001:00071d30       __aligned_offset_recalloc_dbg 10072d30 f   libucrtd:debug_heap.obj
 0001:00071df0       __aligned_realloc_dbg      10072df0 f   libucrtd:debug_heap.obj
 0001:00071e20       __aligned_recalloc_dbg     10072e20 f   libucrtd:debug_heap.obj
 0001:00071e50       __calloc_dbg               10072e50 f   libucrtd:debug_heap.obj
 0001:00071ec0       __chvalidchk_l             10072ec0 f i libucrtd:debug_heap.obj
 0001:00071ee0       __expand_dbg               10072ee0 f   libucrtd:debug_heap.obj
 0001:00072010       __free_dbg                 10073010 f   libucrtd:debug_heap.obj
 0001:000720c0       __ischartype_l             100730c0 f i libucrtd:debug_heap.obj
 0001:00072140       __malloc_dbg               10073140 f   libucrtd:debug_heap.obj
 0001:00072160       __msize_dbg                10073160 f   libucrtd:debug_heap.obj
 0001:000722f0       __realloc_dbg              100732f0 f   libucrtd:debug_heap.obj
 0001:00072390       __recalloc_dbg             10073390 f   libucrtd:debug_heap.obj
 0001:00072440       __initterm                 10073440 f   libucrtd:initterm.obj
 0001:00072490       __initterm_e               10073490 f   libucrtd:initterm.obj
 0001:00072800       _strcpy_s                  10073800 f   libucrtd:strcpy_s.obj
 0001:00072c30       _strcat_s                  10073c30 f   libucrtd:strcat_s.obj
 0001:00072c50       ??$?B$$A6AHI@Z@__crt_fast_encoded_nullptr_t@@QBEP6AHI@ZXZ 10073c50 f i libucrtd:new_handler.obj
 0001:00072c70       ??$__crt_fast_decode_pointer@P6AHI@Z@@YAP6AHI@ZQ6AHI@Z@Z 10073c70 f i libucrtd:new_handler.obj
 0001:00072ca0       ??$__crt_fast_encode_pointer@P6AHI@Z@@YAP6AHI@ZQ6AHI@Z@Z 10073ca0 f i libucrtd:new_handler.obj
 0001:00072cd0       ?_set_new_handler@@YAP6AHI@ZH@Z 10073cd0 f   libucrtd:new_handler.obj
 0001:00072d30       ?initialize@?$dual_state_global@P6AHI@Z@__crt_state_management@@QAEXQ6AHI@Z@Z 10073d30 f i libucrtd:new_handler.obj
 0001:00072d70       ?value@?$dual_state_global@P6AHI@Z@__crt_state_management@@QAEAAP6AHI@ZXZ 10073d70 f i libucrtd:new_handler.obj
 0001:00072d90       ___acrt_initialize_new_handler 10073d90 f   libucrtd:new_handler.obj
 0001:00072db0       __callnewh                 10073db0 f   libucrtd:new_handler.obj
 0001:00072df0       __query_new_handler        10073df0 f   libucrtd:new_handler.obj
 0001:00072e80       __set_new_handler          10073e80 f   libucrtd:new_handler.obj
 0001:00072f60       __get_terminate            10073f60 f   libucrtd:terminate.obj
 0001:00072f80       _set_terminate             10073f80 f   libucrtd:terminate.obj
 0001:00072fb0       _terminate                 10073fb0 f   libucrtd:terminate.obj
 0001:00073980       __makepath                 10074980 f   libucrtd:makepath.obj
 0001:000739b0       __makepath_s               100749b0 f   libucrtd:makepath.obj
 0001:000739e0       __wmakepath                100749e0 f   libucrtd:makepath.obj
 0001:00073a10       __wmakepath_s              10074a10 f   libucrtd:makepath.obj
 0001:00075360       ??$tcsncpy_s@AAPADIAAPBDABI@?$__crt_char_traits@D@@SAHAAPAD$$QAIAAPBDABI@Z 10076360 f i libucrtd:splitpath.obj
 0001:00075390       ??$tcsncpy_s@AAPADIAAPBDH@?$__crt_char_traits@D@@SAHAAPAD$$QAIAAPBD$$QAH@Z 10076390 f i libucrtd:splitpath.obj
 0001:000753c0       ??$tcsncpy_s@AAPA_WIAAPB_WABI@?$__crt_char_traits@_W@@SAHAAPA_W$$QAIAAPB_WABI@Z 100763c0 f i libucrtd:splitpath.obj
 0001:000753f0       ??$tcsncpy_s@AAPA_WIAAPB_WH@?$__crt_char_traits@_W@@SAHAAPA_W$$QAIAAPB_W$$QAH@Z 100763f0 f i libucrtd:splitpath.obj
 0001:00075630       __splitpath                10076630 f   libucrtd:splitpath.obj
 0001:00075660       __splitpath_s              10076660 f   libucrtd:splitpath.obj
 0001:000756b0       __wsplitpath               100766b0 f   libucrtd:splitpath.obj
 0001:000756e0       __wsplitpath_s             100766e0 f   libucrtd:splitpath.obj
 0001:00075730       __set_abort_behavior       10076730 f   libucrtd:abort.obj
 0001:00075760       _abort                     10076760 f   libucrtd:abort.obj
 0001:000757d0       _strcmp                    100767d0 f   libucrtd:strcmp.obj
 0001:00075860       _strlen                    10076860 f   libucrtd:strlen.obj
 0001:000758f0       ??$is_overflow_condition@K@__crt_strtox@@YA_NIK@Z 100768f0 f i libucrtd:atox.obj
 0001:00075950       ??$is_overflow_condition@_K@__crt_strtox@@YA_NI_K@Z 10076950 f i libucrtd:atox.obj
 0001:000759e0       ??$make_c_string_character_source@D$$T@__crt_strtox@@YA?AV?$c_string_character_source@D@0@QBD$$T@Z 100769e0 f i libucrtd:atox.obj
 0001:00075a00       ??$make_c_string_character_source@_W$$T@__crt_strtox@@YA?AV?$c_string_character_source@_W@0@QB_W$$T@Z 10076a00 f i libucrtd:atox.obj
 0001:00075a20       ??$parse_integer@KV?$c_string_character_source@D@__crt_strtox@@@__crt_strtox@@YAKQAU__crt_locale_pointers@@V?$c_string_character_source@D@0@H_N@Z 10076a20 f i libucrtd:atox.obj
 0001:00075d90       ??$parse_integer@KV?$c_string_character_source@_W@__crt_strtox@@@__crt_strtox@@YAKQAU__crt_locale_pointers@@V?$c_string_character_source@_W@0@H_N@Z 10076d90 f i libucrtd:atox.obj
 0001:00076100       ??$parse_integer@_KV?$c_string_character_source@D@__crt_strtox@@@__crt_strtox@@YA_KQAU__crt_locale_pointers@@V?$c_string_character_source@D@0@H_N@Z 10077100 f i libucrtd:atox.obj
 0001:00076520       ??$parse_integer@_KV?$c_string_character_source@_W@__crt_strtox@@@__crt_strtox@@YA_KQAU__crt_locale_pointers@@V?$c_string_character_source@_W@0@H_N@Z 10077520 f i libucrtd:atox.obj
 0001:00076950       ??$parse_integer_from_string@JD$$T@__crt_strtox@@YAJQBD$$THQAU__crt_locale_pointers@@@Z 10077950 f i libucrtd:atox.obj
 0001:00076990       ??$parse_integer_from_string@J_W$$T@__crt_strtox@@YAJQB_W$$THQAU__crt_locale_pointers@@@Z 10077990 f i libucrtd:atox.obj
 0001:000769d0       ??$parse_integer_from_string@_JD$$T@__crt_strtox@@YA_JQBD$$THQAU__crt_locale_pointers@@@Z 100779d0 f i libucrtd:atox.obj
 0001:00076a10       ??$parse_integer_from_string@_J_W$$T@__crt_strtox@@YA_JQB_W$$THQAU__crt_locale_pointers@@@Z 10077a10 f i libucrtd:atox.obj
 0001:00076a50       ??0?$c_string_character_source@D@__crt_strtox@@QAE@QBDQAPBD@Z 10077a50 f i libucrtd:atox.obj
 0001:00076a90       ??0?$c_string_character_source@_W@__crt_strtox@@QAE@QB_WQAPB_W@Z 10077a90 f i libucrtd:atox.obj
 0001:00076ad0       ??1?$c_string_character_source@D@__crt_strtox@@QAE@XZ 10077ad0 f i libucrtd:atox.obj
 0001:00076b00       ??1?$c_string_character_source@_W@__crt_strtox@@QAE@XZ 10077b00 f i libucrtd:atox.obj
 0001:00076b30       ?get@?$c_string_character_source@D@__crt_strtox@@QAEDXZ 10077b30 f i libucrtd:atox.obj
 0001:00076b60       ?get@?$c_string_character_source@_W@__crt_strtox@@QAE_WXZ 10077b60 f i libucrtd:atox.obj
 0001:00076b90       ?is_space@__crt_strtox@@YA_NDQAU__crt_locale_pointers@@@Z 10077b90 f i libucrtd:atox.obj
 0001:00076bd0       ?is_space@__crt_strtox@@YA_N_WPAU__crt_locale_pointers@@@Z 10077bd0 f i libucrtd:atox.obj
 0001:00076c00       ?maximum_signed_value@__crt_strtox@@YAJK@Z 10077c00 f i libucrtd:atox.obj
 0001:00076c10       ?maximum_signed_value@__crt_strtox@@YA_J_K@Z 10077c10 f i libucrtd:atox.obj
 0001:00076c20       ?minimum_signed_value@__crt_strtox@@YAJK@Z 10077c20 f i libucrtd:atox.obj
 0001:00076c30       ?minimum_signed_value@__crt_strtox@@YA_J_K@Z 10077c30 f i libucrtd:atox.obj
 0001:00076c40       ?parse_digit@__crt_strtox@@YAID@Z 10077c40 f i libucrtd:atox.obj
 0001:00076ca0       ?parse_digit@__crt_strtox@@YAI_W@Z 10077ca0 f i libucrtd:atox.obj
 0001:00076cf0       ?restore_state@?$c_string_character_source@D@__crt_strtox@@QAE_NQBD@Z 10077cf0 f i libucrtd:atox.obj
 0001:00076d10       ?restore_state@?$c_string_character_source@_W@__crt_strtox@@QAE_NQB_W@Z 10077d10 f i libucrtd:atox.obj
 0001:00076d30       ?save_state@?$c_string_character_source@D@__crt_strtox@@QBEPBDXZ 10077d30 f i libucrtd:atox.obj
 0001:00076d50       ?save_state@?$c_string_character_source@_W@__crt_strtox@@QBEPB_WXZ 10077d50 f i libucrtd:atox.obj
 0001:00076d70       ?unget@?$c_string_character_source@D@__crt_strtox@@QAEXD@Z 10077d70 f i libucrtd:atox.obj
 0001:00076e20       ?unget@?$c_string_character_source@_W@__crt_strtox@@QAEX_W@Z 10077e20 f i libucrtd:atox.obj
 0001:00076ed0       ?validate@?$c_string_character_source@D@__crt_strtox@@QBE_NXZ 10077ed0 f i libucrtd:atox.obj
 0001:00076f60       ?validate@?$c_string_character_source@_W@__crt_strtox@@QBE_NXZ 10077f60 f i libucrtd:atox.obj
 0001:00076ff0       ?wide_character_to_digit@__crt_strtox@@YAH_W@Z 10077ff0 f i libucrtd:atox.obj
 0001:00077320       ___ascii_iswalpha          10078320 f i libucrtd:atox.obj
 0001:00077360       ___ascii_toupper           10078360 f i libucrtd:atox.obj
 0001:00077380       ___ascii_towupper          10078380 f i libucrtd:atox.obj
 0001:000773a0       __atoi64                   100783a0 f   libucrtd:atox.obj
 0001:000773c0       __atoi64_l                 100783c0 f   libucrtd:atox.obj
 0001:000773e0       __atoi_l                   100783e0 f   libucrtd:atox.obj
 0001:00077400       __atol_l                   10078400 f   libucrtd:atox.obj
 0001:00077420       __atoll_l                  10078420 f   libucrtd:atox.obj
 0001:00077440       __wtoi                     10078440 f   libucrtd:atox.obj
 0001:00077460       __wtoi64                   10078460 f   libucrtd:atox.obj
 0001:00077480       __wtoi64_l                 10078480 f   libucrtd:atox.obj
 0001:000774a0       __wtoi_l                   100784a0 f   libucrtd:atox.obj
 0001:000774c0       __wtol                     100784c0 f   libucrtd:atox.obj
 0001:000774e0       __wtol_l                   100784e0 f   libucrtd:atox.obj
 0001:00077500       __wtoll                    10078500 f   libucrtd:atox.obj
 0001:00077520       __wtoll_l                  10078520 f   libucrtd:atox.obj
 0001:00077540       _atoi                      10078540 f   libucrtd:atox.obj
 0001:00077560       _atol                      10078560 f   libucrtd:atox.obj
 0001:00077580       _atoll                     10078580 f   libucrtd:atox.obj
 0001:000775a0       _strncmp                   100785a0 f   libucrtd:strncmp.obj
 0001:00077620       _wcsncmp                   10078620 f   libucrtd:wcsncmp.obj
 0001:00077680       __CrtGetDebugFillThreshold 10078680 f   libucrtd:debug_fill_threshold.obj
 0001:00077690       __CrtSetDebugFillThreshold 10078690 f   libucrtd:debug_fill_threshold.obj
 0001:000776b0       ??$make_c_string_character_source@DPAPAD@__crt_strtox@@YA?AV?$c_string_character_source@D@0@QBDQAPAD@Z 100786b0 f i libucrtd:strtox.obj
 0001:000776d0       ??$make_c_string_character_source@_WPAPA_W@__crt_strtox@@YA?AV?$c_string_character_source@_W@0@QB_WQAPA_W@Z 100786d0 f i libucrtd:strtox.obj
 0001:000776f0       ??$parse_integer_from_string@JDPAPAD@__crt_strtox@@YAJQBDQAPADHQAU__crt_locale_pointers@@@Z 100786f0 f i libucrtd:strtox.obj
 0001:00077730       ??$parse_integer_from_string@J_WPAPA_W@__crt_strtox@@YAJQB_WQAPA_WHQAU__crt_locale_pointers@@@Z 10078730 f i libucrtd:strtox.obj
 0001:00077770       ??$parse_integer_from_string@KDPAPAD@__crt_strtox@@YAKQBDQAPADHQAU__crt_locale_pointers@@@Z 10078770 f i libucrtd:strtox.obj
 0001:000777b0       ??$parse_integer_from_string@K_WPAPA_W@__crt_strtox@@YAKQB_WQAPA_WHQAU__crt_locale_pointers@@@Z 100787b0 f i libucrtd:strtox.obj
 0001:000777f0       ??$parse_integer_from_string@_JDPAPAD@__crt_strtox@@YA_JQBDQAPADHQAU__crt_locale_pointers@@@Z 100787f0 f i libucrtd:strtox.obj
 0001:00077830       ??$parse_integer_from_string@_J_WPAPA_W@__crt_strtox@@YA_JQB_WQAPA_WHQAU__crt_locale_pointers@@@Z 10078830 f i libucrtd:strtox.obj
 0001:00077870       ??$parse_integer_from_string@_KDPAPAD@__crt_strtox@@YA_KQBDQAPADHQAU__crt_locale_pointers@@@Z 10078870 f i libucrtd:strtox.obj
 0001:000778b0       ??$parse_integer_from_string@_K_WPAPA_W@__crt_strtox@@YA_KQB_WQAPA_WHQAU__crt_locale_pointers@@@Z 100788b0 f i libucrtd:strtox.obj
 0001:000778f0       __strtoi64                 100788f0 f   libucrtd:strtox.obj
 0001:00077910       __strtoi64_l               10078910 f   libucrtd:strtox.obj
 0001:00077930       __strtoimax_l              10078930 f   libucrtd:strtox.obj
 0001:00077950       __strtol_l                 10078950 f   libucrtd:strtox.obj
 0001:00077970       __strtoll_l                10078970 f   libucrtd:strtox.obj
 0001:00077990       __strtoui64                10078990 f   libucrtd:strtox.obj
 0001:000779b0       __strtoui64_l              100789b0 f   libucrtd:strtox.obj
 0001:000779d0       __strtoul_l                100789d0 f   libucrtd:strtox.obj
 0001:000779f0       __strtoull_l               100789f0 f   libucrtd:strtox.obj
 0001:00077a10       __strtoumax_l              10078a10 f   libucrtd:strtox.obj
 0001:00077a30       __wcstoi64                 10078a30 f   libucrtd:strtox.obj
 0001:00077a50       __wcstoi64_l               10078a50 f   libucrtd:strtox.obj
 0001:00077a70       __wcstoimax_l              10078a70 f   libucrtd:strtox.obj
 0001:00077a90       __wcstol_l                 10078a90 f   libucrtd:strtox.obj
 0001:00077ab0       __wcstoll_l                10078ab0 f   libucrtd:strtox.obj
 0001:00077ad0       __wcstoui64                10078ad0 f   libucrtd:strtox.obj
 0001:00077af0       __wcstoui64_l              10078af0 f   libucrtd:strtox.obj
 0001:00077b10       __wcstoul_l                10078b10 f   libucrtd:strtox.obj
 0001:00077b30       __wcstoull_l               10078b30 f   libucrtd:strtox.obj
 0001:00077b50       __wcstoumax_l              10078b50 f   libucrtd:strtox.obj
 0001:00077b70       _strtoimax                 10078b70 f   libucrtd:strtox.obj
 0001:00077b90       _strtol                    10078b90 f   libucrtd:strtox.obj
 0001:00077bb0       _strtoll                   10078bb0 f   libucrtd:strtox.obj
 0001:00077bd0       _strtoul                   10078bd0 f   libucrtd:strtox.obj
 0001:00077bf0       _strtoull                  10078bf0 f   libucrtd:strtox.obj
 0001:00077c10       _strtoumax                 10078c10 f   libucrtd:strtox.obj
 0001:00077c30       _wcstoimax                 10078c30 f   libucrtd:strtox.obj
 0001:00077c50       _wcstol                    10078c50 f   libucrtd:strtox.obj
 0001:00077c70       _wcstoll                   10078c70 f   libucrtd:strtox.obj
 0001:00077c90       _wcstoul                   10078c90 f   libucrtd:strtox.obj
 0001:00077cb0       _wcstoull                  10078cb0 f   libucrtd:strtox.obj
 0001:00077cd0       _wcstoumax                 10078cd0 f   libucrtd:strtox.obj
 0001:00077cf0       __mbtowc_l                 10078cf0 f   libucrtd:mbtowc.obj
 0001:00078010       _mbtowc                    10079010 f   libucrtd:mbtowc.obj
 0001:00078030       __wctomb_l                 10079030 f   libucrtd:wctomb.obj
 0001:000780b0       __wctomb_s_l               100790b0 f   libucrtd:wctomb.obj
 0001:00078470       _wctomb                    10079470 f   libucrtd:wctomb.obj
 0001:000784c0       _wctomb_s                  100794c0 f   libucrtd:wctomb.obj
 0001:000784f0       ??$?RU__acrt_ptd@@@__crt_internal_free_policy@@QBEXQBU__acrt_ptd@@@Z 100794f0 f i libucrtd:per_thread_data.obj
 0001:000789a0       ??0?$__crt_unique_heap_ptr@U__acrt_ptd@@U__crt_internal_free_policy@@@@QAE@QAU__acrt_ptd@@@Z 100799a0 f i libucrtd:per_thread_data.obj
 0001:000789c0       ??0__crt_scoped_get_last_error_reset@@QAE@XZ 100799c0 f i libucrtd:per_thread_data.obj
 0001:000789e0       ??1?$__crt_unique_heap_ptr@U__acrt_ptd@@U__crt_internal_free_policy@@@@QAE@XZ 100799e0 f i libucrtd:per_thread_data.obj
 0001:00078a00       ??1__crt_scoped_get_last_error_reset@@QAE@XZ 10079a00 f i libucrtd:per_thread_data.obj
 0001:00078a20       ??B?$__crt_unique_heap_ptr@U__acrt_ptd@@U__crt_internal_free_policy@@@@QBE_NXZ 10079a20 f i libucrtd:per_thread_data.obj
 0001:00078d00       ?dangerous_get_state_array@?$dual_state_global@PAU__crt_locale_data@@@__crt_state_management@@QAEPAPAU__crt_locale_data@@XZ 10079d00 f i libucrtd:per_thread_data.obj
 0001:00078e80       ?detach@?$__crt_unique_heap_ptr@U__acrt_ptd@@U__crt_internal_free_policy@@@@QAEPAU__acrt_ptd@@XZ 10079e80 f i libucrtd:per_thread_data.obj
 0001:00078eb0       ?get@?$__crt_unique_heap_ptr@U__acrt_ptd@@U__crt_internal_free_policy@@@@QBEPAU__acrt_ptd@@XZ 10079eb0 f i libucrtd:per_thread_data.obj
 0001:00078ed0       ?get_current_state_index@__crt_state_management@@YAIABV__crt_scoped_get_last_error_reset@@@Z 10079ed0 f i libucrtd:per_thread_data.obj
 0001:00079040       ?is_valid@?$__crt_unique_heap_ptr@U__acrt_ptd@@U__crt_internal_free_policy@@@@QBE_NXZ 1007a040 f i libucrtd:per_thread_data.obj
 0001:00079070       ?release@?$__crt_unique_heap_ptr@U__acrt_ptd@@U__crt_internal_free_policy@@@@QAEXXZ 1007a070 f i libucrtd:per_thread_data.obj
 0001:00079160       ?value@?$dual_state_global@PAU__crt_locale_data@@@__crt_state_management@@QAEAAPAU__crt_locale_data@@XZ 1007a160 f i libucrtd:per_thread_data.obj
 0001:00079180       ___acrt_freeptd            1007a180 f   libucrtd:per_thread_data.obj
 0001:000791b0       ___acrt_getptd             1007a1b0 f   libucrtd:per_thread_data.obj
 0001:000791d0       ___acrt_getptd_head        1007a1d0 f   libucrtd:per_thread_data.obj
 0001:000791f0       ___acrt_getptd_noexit      1007a1f0 f   libucrtd:per_thread_data.obj
 0001:00079200       ___acrt_initialize_ptd     1007a200 f   libucrtd:per_thread_data.obj
 0001:00079240       ___acrt_uninitialize_ptd   1007a240 f   libucrtd:per_thread_data.obj
 0001:00079270       ___threadhandle            1007a270 f   libucrtd:per_thread_data.obj
 0001:00079280       ___threadid                1007a280 f   libucrtd:per_thread_data.obj
 0001:00079290       ?value@?$dual_state_global@PAU__crt_multibyte_data@@@__crt_state_management@@QAEAAPAU__crt_multibyte_data@@XZ 1007a290 f i libucrtd:locale_update.obj
 0001:000792b0       ___acrt_should_sync_with_global_locale 1007a2b0 f i libucrtd:locale_update.obj
 0001:000792e0       ___acrt_update_locale_info 1007a2e0 f   libucrtd:locale_update.obj
 0001:00079320       ___acrt_update_multibyte_info 1007a320 f   libucrtd:locale_update.obj
 0001:00079360       ?__acrt_fp_classify@@YA?AW4__acrt_fp_class@@ABN@Z 1007a360 f i libucrtd:cvt.obj
 0001:00079480       ?__acrt_fp_is_negative@@YA_NABN@Z 1007a480 f i libucrtd:cvt.obj
 0001:0007a770       ?strrchr@@YAPADQADH@Z      1007b770 f i libucrtd:cvt.obj
 0001:0007a790       ___acrt_fp_format          1007b790 f   libucrtd:cvt.obj
 0001:0007ac50       __fputwc_nolock            1007bc50 f   libucrtd:fputwc.obj
 0001:0007ae40       __fputwchar                1007be40 f   libucrtd:fputwc.obj
 0001:0007ae60       __putwc_nolock             1007be60 f   libucrtd:fputwc.obj
 0001:0007ae80       _fputwc                    1007be80 f   libucrtd:fputwc.obj
 0001:0007af90       _putwc                     1007bf90 f   libucrtd:fputwc.obj
 0001:0007afb0       _putwchar                  1007bfb0 f   libucrtd:fputwc.obj
 0001:0007afd0       ?lowio_handle@__crt_stdio_stream@@QBEHXZ 1007bfd0 f i libucrtd:fileno.obj
 0001:0007aff0       __fileno                   1007bff0 f   libucrtd:fileno.obj
 0001:0007b090       ??$?RPAU__crt_stdio_stream_data@@@__crt_internal_free_policy@@QBEXQBQAU__crt_stdio_stream_data@@@Z 1007c090 f i libucrtd:_file.obj
 0001:0007b0b0       ??0?$__crt_unique_heap_ptr@PAU__crt_stdio_stream_data@@U__crt_internal_free_policy@@@@QAE@QAPAU__crt_stdio_stream_data@@@Z 1007c0b0 f i libucrtd:_file.obj
 0001:0007b0d0       ??1?$__crt_unique_heap_ptr@PAU__crt_stdio_stream_data@@U__crt_internal_free_policy@@@@QAE@XZ 1007c0d0 f i libucrtd:_file.obj
 0001:0007b0f0       ?detach@?$__crt_unique_heap_ptr@PAU__crt_stdio_stream_data@@U__crt_internal_free_policy@@@@QAEPAPAU__crt_stdio_stream_data@@XZ 1007c0f0 f i libucrtd:_file.obj
 0001:0007b120       ?release@?$__crt_unique_heap_ptr@PAU__crt_stdio_stream_data@@U__crt_internal_free_policy@@@@QAEXXZ 1007c120 f i libucrtd:_file.obj
 0001:0007b150       ___acrt_initialize_stdio   1007c150 f   libucrtd:_file.obj
 0001:0007b2c0       ___acrt_iob_func           1007c2c0 f   libucrtd:_file.obj
 0001:0007b2d0       ___acrt_uninitialize_stdio 1007c2d0 f   libucrtd:_file.obj
 0001:0007b350       __get_stream_buffer_pointers 1007c350 f   libucrtd:_file.obj
 0001:0007b430       __lock_file                1007c430 f   libucrtd:_file.obj
 0001:0007b460       __unlock_file              1007c460 f   libucrtd:_file.obj
 0001:0007b490       __get_printf_count_output  1007c490 f   libucrtd:printf_count_output.obj
 0001:0007b4c0       __set_printf_count_output  1007c4c0 f   libucrtd:printf_count_output.obj
 0001:0007b520       ?has_any_buffer@__crt_stdio_stream@@QBE_NXZ 1007c520 f i libucrtd:_sftbuf.obj
 0001:0007b540       ?has_any_of@__crt_stdio_stream@@QBE_NJ@Z 1007c540 f i libucrtd:_sftbuf.obj
 0001:0007b580       ?has_temporary_buffer@__crt_stdio_stream@@QBE_NXZ 1007c580 f i libucrtd:_sftbuf.obj
 0001:0007b5a0       ?set_flags@__crt_stdio_stream@@QBE_NJ@Z 1007c5a0 f i libucrtd:_sftbuf.obj
 0001:0007b5f0       ?unset_flags@__crt_stdio_stream@@QBE_NJ@Z 1007c5f0 f i libucrtd:_sftbuf.obj
 0001:0007b640       ___acrt_should_use_temporary_buffer 1007c640 f   libucrtd:_sftbuf.obj
 0001:0007b690       ___acrt_stdio_begin_temporary_buffering_nolock 1007c690 f   libucrtd:_sftbuf.obj
 0001:0007b840       ___acrt_stdio_end_temporary_buffering_nolock 1007c840 f   libucrtd:_sftbuf.obj
 0001:0007b8d0       ??$?RU__crt_locale_data@@@__crt_internal_free_policy@@QBEXQBU__crt_locale_data@@@Z 1007c8d0 f i libucrtd:wsetlocale.obj
 0001:0007b8f0       ??$?RU__crt_locale_pointers@@@__crt_internal_free_policy@@QBEXQBU__crt_locale_pointers@@@Z 1007c8f0 f i libucrtd:wsetlocale.obj
 0001:0007b910       ??$?RU__crt_multibyte_data@@@__crt_internal_free_policy@@QBEXQBU__crt_multibyte_data@@@Z 1007c910 f i libucrtd:wsetlocale.obj
 0001:0007bf00       ??0?$__crt_unique_heap_ptr@U__crt_locale_data@@U__crt_internal_free_policy@@@@QAE@QAU__crt_locale_data@@@Z 1007cf00 f i libucrtd:wsetlocale.obj
 0001:0007bf20       ??0?$__crt_unique_heap_ptr@U__crt_locale_pointers@@U__crt_internal_free_policy@@@@QAE@QAU__crt_locale_pointers@@@Z 1007cf20 f i libucrtd:wsetlocale.obj
 0001:0007bf40       ??0?$__crt_unique_heap_ptr@U__crt_multibyte_data@@U__crt_internal_free_policy@@@@QAE@QAU__crt_multibyte_data@@@Z 1007cf40 f i libucrtd:wsetlocale.obj
 0001:0007bf60       ??0_expandlocale_locale_name_cache@@QAE@QA_WIQAU__crt_qualified_locale_data@@@Z 1007cf60 f i libucrtd:wsetlocale.obj
 0001:0007bfd0       ??1?$__crt_unique_heap_ptr@U__crt_locale_data@@U__crt_internal_free_policy@@@@QAE@XZ 1007cfd0 f i libucrtd:wsetlocale.obj
 0001:0007bff0       ??1?$__crt_unique_heap_ptr@U__crt_locale_pointers@@U__crt_internal_free_policy@@@@QAE@XZ 1007cff0 f i libucrtd:wsetlocale.obj
 0001:0007c010       ??1?$__crt_unique_heap_ptr@U__crt_multibyte_data@@U__crt_internal_free_policy@@@@QAE@XZ 1007d010 f i libucrtd:wsetlocale.obj
 0001:0007c030       ??1_expandlocale_locale_name_cache@@QAE@XZ 1007d030 f i libucrtd:wsetlocale.obj
 0001:0007c090       ??B?$__crt_unique_heap_ptr@U__crt_locale_data@@U__crt_internal_free_policy@@@@QBE_NXZ 1007d090 f i libucrtd:wsetlocale.obj
 0001:0007c0b0       ??B?$__crt_unique_heap_ptr@U__crt_locale_pointers@@U__crt_internal_free_policy@@@@QBE_NXZ 1007d0b0 f i libucrtd:wsetlocale.obj
 0001:0007c0d0       ??B?$__crt_unique_heap_ptr@U__crt_multibyte_data@@U__crt_internal_free_policy@@@@QBE_NXZ 1007d0d0 f i libucrtd:wsetlocale.obj
 0001:0007c4b0       ?commit_locale_name@_expandlocale_locale_name_cache@@QAEXQB_WI@Z 1007d4b0 f i libucrtd:wsetlocale.obj
 0001:0007c510       ?commit_locale_name_cache_already_updated@_expandlocale_locale_name_cache@@QAEXQB_WI@Z 1007d510 f i libucrtd:wsetlocale.obj
 0001:0007c570       ?detach@?$__crt_unique_heap_ptr@U__crt_locale_data@@U__crt_internal_free_policy@@@@QAEPAU__crt_locale_data@@XZ 1007d570 f i libucrtd:wsetlocale.obj
 0001:0007c5a0       ?detach@?$__crt_unique_heap_ptr@U__crt_locale_pointers@@U__crt_internal_free_policy@@@@QAEPAU__crt_locale_pointers@@XZ 1007d5a0 f i libucrtd:wsetlocale.obj
 0001:0007c5d0       ?detach@?$__crt_unique_heap_ptr@U__crt_multibyte_data@@U__crt_internal_free_policy@@@@QAEPAU__crt_multibyte_data@@XZ 1007d5d0 f i libucrtd:wsetlocale.obj
 0001:0007c600       ?get@?$__crt_unique_heap_ptr@U__crt_locale_data@@U__crt_internal_free_policy@@@@QBEPAU__crt_locale_data@@XZ 1007d600 f i libucrtd:wsetlocale.obj
 0001:0007c620       ?get@?$__crt_unique_heap_ptr@U__crt_locale_pointers@@U__crt_internal_free_policy@@@@QBEPAU__crt_locale_pointers@@XZ 1007d620 f i libucrtd:wsetlocale.obj
 0001:0007c640       ?get@?$__crt_unique_heap_ptr@U__crt_multibyte_data@@U__crt_internal_free_policy@@@@QBEPAU__crt_multibyte_data@@XZ 1007d640 f i libucrtd:wsetlocale.obj
 0001:0007c660       ?is_valid@?$__crt_unique_heap_ptr@U__crt_locale_data@@U__crt_internal_free_policy@@@@QBE_NXZ 1007d660 f i libucrtd:wsetlocale.obj
 0001:0007c690       ?is_valid@?$__crt_unique_heap_ptr@U__crt_locale_pointers@@U__crt_internal_free_policy@@@@QBE_NXZ 1007d690 f i libucrtd:wsetlocale.obj
 0001:0007c6c0       ?is_valid@?$__crt_unique_heap_ptr@U__crt_multibyte_data@@U__crt_internal_free_policy@@@@QBE_NXZ 1007d6c0 f i libucrtd:wsetlocale.obj
 0001:0007c6f0       ?release@?$__crt_unique_heap_ptr@U__crt_locale_data@@U__crt_internal_free_policy@@@@QAEXXZ 1007d6f0 f i libucrtd:wsetlocale.obj
 0001:0007c720       ?release@?$__crt_unique_heap_ptr@U__crt_locale_pointers@@U__crt_internal_free_policy@@@@QAEXXZ 1007d720 f i libucrtd:wsetlocale.obj
 0001:0007c750       ?release@?$__crt_unique_heap_ptr@U__crt_multibyte_data@@U__crt_internal_free_policy@@@@QAEXXZ 1007d750 f i libucrtd:wsetlocale.obj
 0001:0007c780       ___acrt_copy_locale_name   1007d780 f   libucrtd:wsetlocale.obj
 0001:0007c820       ___acrt_set_locale_changed 1007d820 f   libucrtd:wsetlocale.obj
 0001:0007c840       ___acrt_uninitialize_locale 1007d840 f   libucrtd:wsetlocale.obj
 0001:0007c860       ___ascii_tolower           1007d860 f i libucrtd:wsetlocale.obj
 0001:0007c880       ___ascii_towlower          1007d880 f i libucrtd:wsetlocale.obj
 0001:0007c8a0       ___lc_lctowcs              1007d8a0 f   libucrtd:wsetlocale.obj
 0001:0007c950       ___lc_wcstolc              1007d950 f   libucrtd:wsetlocale.obj
 0001:0007cb80       __configthreadlocale       1007db80 f   libucrtd:wsetlocale.obj
 0001:0007cd00       __create_locale            1007dd00 f   libucrtd:wsetlocale.obj
 0001:0007d340       __free_locale              1007e340 f   libucrtd:wsetlocale.obj
 0001:0007d470       __get_current_locale       1007e470 f   libucrtd:wsetlocale.obj
 0001:0007d540       __wcreate_locale           1007e540 f   libucrtd:wsetlocale.obj
 0001:0007d780       __wcscats                  1007e780 f   libucrtd:wsetlocale.obj
 0001:0007d800       __wsetlocale               1007e800 f   libucrtd:wsetlocale.obj
 0001:0007eef0       ___p___mb_cur_max          1007fef0 f   libucrtd:nlsdata.obj
 0001:0007f1f0       ___acrt_initialize_lowio   100801f0 f   libucrtd:ioinit.obj
 0001:0007f290       ___acrt_uninitialize_lowio 10080290 f   libucrtd:ioinit.obj
 0001:0007f2f0       __CrtGetReportHook         100802f0 f   libucrtd:dbgrptt.obj
 0001:0007f300       __CrtSetReportFile         10080300 f   libucrtd:dbgrptt.obj
 0001:0007f400       __CrtSetReportHook         10080400 f   libucrtd:dbgrptt.obj
 0001:0007f420       __CrtSetReportMode         10080420 f   libucrtd:dbgrptt.obj
 0001:0007f560       __VCrtDbgReportA           10080560 f   libucrtd:dbgrptt.obj
 0001:0007fde0       __VCrtDbgReportW           10080de0 f   libucrtd:dbgrptt.obj
 0001:00080790       __snprintf_s               10081790 f i libucrtd:dbgrptt.obj
 0001:000807d0       __vsnprintf_s              100817d0 f i libucrtd:dbgrptt.obj
 0001:00080800       __vsnprintf_s_l            10081800 f i libucrtd:dbgrptt.obj
 0001:00080990       ??$__acrt_wcs_to_mbs_cp@U__crt_win32_buffer_no_resizing@@@@YAHQB_WAAV?$__crt_win32_buffer@DU__crt_win32_buffer_no_resizing@@@@I@Z 10081990 f i libucrtd:getmodulefilenamea.obj
 0001:000809c0       ??0?$__crt_win32_buffer@DU__crt_win32_buffer_no_resizing@@@@QAE@QADI@Z 100819c0 f i libucrtd:getmodulefilenamea.obj
 0001:00080a10       ??1?$__crt_win32_buffer@DU__crt_win32_buffer_no_resizing@@@@QAE@XZ 10081a10 f i libucrtd:getmodulefilenamea.obj
 0001:00080a80       ?__acrt_get_utf8_acp_compatibility_codepage@@YAIXZ 10081a80 f i libucrtd:getmodulefilenamea.obj
 0001:00080b10       ?_deallocate@?$__crt_win32_buffer@DU__crt_win32_buffer_no_resizing@@@@AAEXXZ 10081b10 f i libucrtd:getmodulefilenamea.obj
 0001:00080b50       ?allocate@?$__crt_win32_buffer@DU__crt_win32_buffer_no_resizing@@@@QAEHI@Z 10081b50 f i libucrtd:getmodulefilenamea.obj
 0001:00080bc0       ?allocate@__crt_win32_buffer_no_resizing@@SAHQAPAXIABV__crt_win32_buffer_empty_debug_info@@@Z 10081bc0 f i libucrtd:getmodulefilenamea.obj
 0001:00080be0       ?capacity@?$__crt_win32_buffer@DU__crt_win32_buffer_no_resizing@@@@QBEIXZ 10081be0 f i libucrtd:getmodulefilenamea.obj
 0001:00080c00       ?data@?$__crt_win32_buffer@DU__crt_win32_buffer_no_resizing@@@@QAEPADXZ 10081c00 f i libucrtd:getmodulefilenamea.obj
 0001:00080c20       ?deallocate@__crt_win32_buffer_no_resizing@@SAXQAXABV__crt_win32_buffer_empty_debug_info@@@Z 10081c20 f i libucrtd:getmodulefilenamea.obj
 0001:00080c30       ?debug_info@?$__crt_win32_buffer@DU__crt_win32_buffer_no_resizing@@@@QBEABV__crt_win32_buffer_empty_debug_info@@XZ 10081c30 f i libucrtd:getmodulefilenamea.obj
 0001:00080c40       ?set_to_nullptr@?$__crt_win32_buffer@DU__crt_win32_buffer_no_resizing@@@@QAEXXZ 10081c40 f i libucrtd:getmodulefilenamea.obj
 0001:00080c80       ?size@?$__crt_win32_buffer@DU__crt_win32_buffer_no_resizing@@@@QAEXI@Z 10081c80 f i libucrtd:getmodulefilenamea.obj
 0001:00080ca0       ?size@?$__crt_win32_buffer@DU__crt_win32_buffer_no_resizing@@@@QBEIXZ 10081ca0 f i libucrtd:getmodulefilenamea.obj
 0001:00080cc0       ___acrt_GetModuleFileNameA 10081cc0 f   libucrtd:getmodulefilenamea.obj
 0001:00080fa0       ??$message_box@$$TABQBDABQBDK@?$__crt_char_traits@D@@SAH$$QA$$TABQBD1$$QAK@Z 10081fa0 f i libucrtd:crtmbox.obj
 0001:00080fd0       ??$message_box@$$TABQB_WABQB_WK@?$__crt_char_traits@_W@@SAH$$QA$$TABQB_W1$$QAK@Z 10081fd0 f i libucrtd:crtmbox.obj
 0001:00081000       ??$message_box@PAUHWND__@@ABQBDABQBDABI@?$__crt_char_traits@D@@SAH$$QAPAUHWND__@@ABQBD1ABI@Z 10082000 f i libucrtd:crtmbox.obj
 0001:00081030       ??$message_box@PAUHWND__@@ABQB_WABQB_WABI@?$__crt_char_traits@_W@@SAH$$QAPAUHWND__@@ABQB_W1ABI@Z 10082030 f i libucrtd:crtmbox.obj
 0001:00081060       ??$output_debug_string@ABQBD@?$__crt_char_traits@D@@SAXABQBD@Z 10082060 f i libucrtd:crtmbox.obj
 0001:00081080       ??$output_debug_string@ABQB_W@?$__crt_char_traits@_W@@SAXABQB_W@Z 10082080 f i libucrtd:crtmbox.obj
 0001:000810a0       ___acrt_show_narrow_message_box 100820a0 f   libucrtd:crtmbox.obj
 0001:000810c0       ___acrt_show_wide_message_box 100820c0 f   libucrtd:crtmbox.obj
 0001:000810e0       ___acrt_initialize_locks   100820e0 f   libucrtd:locks.obj
 0001:00081140       ___acrt_lock               10082140 f   libucrtd:locks.obj
 0001:00081160       ___acrt_uninitialize_locks 10082160 f   libucrtd:locks.obj
 0001:000811b0       ___acrt_unlock             100821b0 f   libucrtd:locks.obj
 0001:000811d0       __lock_locales             100821d0 f   libucrtd:locks.obj
 0001:000811f0       __unlock_locales           100821f0 f   libucrtd:locks.obj
 0001:00081210       ??$?B$$A6AXH@Z@__crt_fast_encoded_nullptr_t@@QBEP6AXH@ZXZ 10082210 f i libucrtd:signal.obj
 0001:00081300       ??$__crt_fast_decode_pointer@P6AXH@Z@@YAP6AXH@ZQ6AXH@Z@Z 10082300 f i libucrtd:signal.obj
 0001:00081330       ??$__crt_fast_encode_pointer@P6AXH@Z@@YAP6AXH@ZQ6AXH@Z@Z 10082330 f i libucrtd:signal.obj
 0001:000815e0       ?initialize@?$dual_state_global@P6AXH@Z@__crt_state_management@@QAEXQ6AXH@Z@Z 100825e0 f i libucrtd:signal.obj
 0001:00081720       ?value@?$dual_state_global@P6AXH@Z@__crt_state_management@@QAEAAP6AXH@ZXZ 10082720 f i libucrtd:signal.obj
 0001:00081740       ___acrt_get_sigabrt_handler 10082740 f   libucrtd:signal.obj
 0001:00081760       ___acrt_initialize_signal_handlers 10082760 f   libucrtd:signal.obj
 0001:000817a0       ___fpecode                 100827a0 f   libucrtd:signal.obj
 0001:000817b0       ___pxcptinfoptrs           100827b0 f   libucrtd:signal.obj
 0001:000817c0       _raise                     100827c0 f   libucrtd:signal.obj
 0001:00081b90       _signal                    10082b90 f   libucrtd:signal.obj
 0001:00081e10       __msize                    10082e10 f   libucrtd:msize.obj
 0001:00081e30       __msize_base               10082e30 f   libucrtd:msize.obj
 0001:00081ed0       __realloc_base             10082ed0 f   libucrtd:realloc_base.obj
 0001:00081f90       ??$?B$$A6GHPA_WKJ@Z@__crt_fast_encoded_nullptr_t@@QBEP6GHPA_WKJ@ZXZ 10082f90 f i libucrtd:winapi_thunks.obj
 0001:00082080       ??$__crt_fast_decode_pointer@P6GHPA_WKJ@Z@@YAP6GHPA_WKJ@ZQ6GH0KJ@Z@Z 10083080 f i libucrtd:winapi_thunks.obj
 0001:000820b0       ??$__crt_fast_decode_pointer@PAX@@YAPAXQAX@Z 100830b0 f i libucrtd:winapi_thunks.obj
 0001:000820e0       ??$__crt_fast_encode_pointer@P6GHPA_WKJ@Z@@YAP6GHPA_WKJ@ZQ6GH0KJ@Z@Z 100830e0 f i libucrtd:winapi_thunks.obj
 0001:00082a40       _GetCurrentThreadEffectiveToken 10083a40 f i libucrtd:winapi_thunks.obj
 0001:00082a50       ___acrt_AppPolicyGetProcessTerminationMethodInternal@4 10083a50 f   libucrtd:winapi_thunks.obj
 0001:00082a90       ___acrt_AppPolicyGetShowDeveloperDiagnosticInternal@4 10083a90 f   libucrtd:winapi_thunks.obj
 0001:00082ad0       ___acrt_AppPolicyGetThreadInitializationTypeInternal@4 10083ad0 f   libucrtd:winapi_thunks.obj
 0001:00082b10       ___acrt_AppPolicyGetWindowingModelInternal@4 10083b10 f   libucrtd:winapi_thunks.obj
 0001:00082b50       ___acrt_AreFileApisANSI@0  10083b50 f   libucrtd:winapi_thunks.obj
 0001:00082b90       ___acrt_CompareStringEx@36 10083b90 f   libucrtd:winapi_thunks.obj
 0001:00082c10       ___acrt_EnumSystemLocalesEx@16 10083c10 f   libucrtd:winapi_thunks.obj
 0001:00082c70       ___acrt_FlsAlloc@4         10083c70 f   libucrtd:winapi_thunks.obj
 0001:00082cb0       ___acrt_FlsFree@4          10083cb0 f   libucrtd:winapi_thunks.obj
 0001:00082cf0       ___acrt_FlsGetValue@4      10083cf0 f   libucrtd:winapi_thunks.obj
 0001:00082d30       ___acrt_FlsSetValue@8      10083d30 f   libucrtd:winapi_thunks.obj
 0001:00082d80       ___acrt_GetDateFormatEx@28 10083d80 f   libucrtd:winapi_thunks.obj
 0001:00082e00       ___acrt_GetEnabledXStateFeatures@0 10083e00 f   libucrtd:winapi_thunks.obj
 0001:00082e40       ___acrt_GetLocaleInfoEx@16 10083e40 f   libucrtd:winapi_thunks.obj
 0001:00082ea0       ___acrt_GetSystemTimePreciseAsFileTime@4 10083ea0 f   libucrtd:winapi_thunks.obj
 0001:00082ee0       ___acrt_GetTimeFormatEx@24 10083ee0 f   libucrtd:winapi_thunks.obj
 0001:00082f50       ___acrt_GetUserDefaultLocaleName@8 10083f50 f   libucrtd:winapi_thunks.obj
 0001:00082fa0       ___acrt_GetXStateFeaturesMask@8 10083fa0 f   libucrtd:winapi_thunks.obj
 0001:00082fe0       ___acrt_InitializeCriticalSectionEx@12 10083fe0 f   libucrtd:winapi_thunks.obj
 0001:00083030       ___acrt_IsValidLocaleName@4 10084030 f   libucrtd:winapi_thunks.obj
 0001:00083080       ___acrt_LCIDToLocaleName@16 10084080 f   libucrtd:winapi_thunks.obj
 0001:000830e0       ___acrt_LCMapStringEx@36   100840e0 f   libucrtd:winapi_thunks.obj
 0001:00083160       ___acrt_LocaleNameToLCID@8 10084160 f   libucrtd:winapi_thunks.obj
 0001:000831b0       ___acrt_LocateXStateFeature@12 100841b0 f   libucrtd:winapi_thunks.obj
 0001:00083200       ___acrt_MessageBoxA@16     10084200 f   libucrtd:winapi_thunks.obj
 0001:00083250       ___acrt_MessageBoxW@16     10084250 f   libucrtd:winapi_thunks.obj
 0001:000832a0       ___acrt_RoInitialize@4     100842a0 f   libucrtd:winapi_thunks.obj
 0001:000832e0       ___acrt_RoUninitialize@0   100842e0 f   libucrtd:winapi_thunks.obj
 0001:00083310       ___acrt_RtlGenRandom@8     10084310 f   libucrtd:winapi_thunks.obj
 0001:00083350       ___acrt_SetThreadStackGuarantee@4 10084350 f   libucrtd:winapi_thunks.obj
 0001:00083390       ___acrt_can_show_message_box 10084390 f   libucrtd:winapi_thunks.obj
 0001:000833d0       ___acrt_can_use_vista_locale_apis 100843d0 f   libucrtd:winapi_thunks.obj
 0001:00083400       ___acrt_can_use_xstate_apis 10084400 f   libucrtd:winapi_thunks.obj
 0001:00083430       ___acrt_eagerly_load_locale_apis 10084430 f   libucrtd:winapi_thunks.obj
 0001:00083470       ___acrt_get_parent_window  10084470 f   libucrtd:winapi_thunks.obj
 0001:000834e0       ___acrt_initialize_winapi_thunks 100844e0 f   libucrtd:winapi_thunks.obj
 0001:00083550       ___acrt_is_interactive     10084550 f   libucrtd:winapi_thunks.obj
 0001:00083600       ___acrt_uninitialize_winapi_thunks 10084600 f   libucrtd:winapi_thunks.obj
 0001:00083670       __chvalidator              10084670 f   libucrtd:isctype.obj
 0001:000836c0       __chvalidator_l            100846c0 f   libucrtd:isctype.obj
 0001:00083740       __isctype                  10084740 f   libucrtd:isctype.obj
 0001:00083780       __isctype_l                10084780 f   libucrtd:isctype.obj
 0001:00083900       __isleadbyte_fast_internal 10084900 f i libucrtd:isctype.obj
 0001:00083920       ??$?RU__crt_stdio_stream_data@@@__crt_internal_free_policy@@QBEXQBU__crt_stdio_stream_data@@@Z 10084920 f i libucrtd:stream.obj
 0001:00083940       ??0?$__crt_unique_heap_ptr@U__crt_stdio_stream_data@@U__crt_internal_free_policy@@@@QAE@QAU__crt_stdio_stream_data@@@Z 10084940 f i libucrtd:stream.obj
 0001:00083960       ??0__crt_stdio_stream@@QAE@QAU__crt_stdio_stream_data@@@Z 10084960 f i libucrtd:stream.obj
 0001:00083980       ??0__crt_stdio_stream@@QAE@XZ 10084980 f i libucrtd:stream.obj
 0001:000839a0       ??1?$__crt_unique_heap_ptr@U__crt_stdio_stream_data@@U__crt_internal_free_policy@@@@QAE@XZ 100849a0 f i libucrtd:stream.obj
 0001:000839c0       ?__acrt_stdio_allocate_stream@@YA?AV__crt_stdio_stream@@XZ 100849c0 f   libucrtd:stream.obj
 0001:00083ab0       ?__acrt_stdio_free_stream@@YAXV__crt_stdio_stream@@@Z 10084ab0 f   libucrtd:stream.obj
 0001:00083b30       ?deallocate@__crt_stdio_stream@@QAEXXZ 10084b30 f i libucrtd:stream.obj
 0001:00083b50       ?detach@?$__crt_unique_heap_ptr@U__crt_stdio_stream_data@@U__crt_internal_free_policy@@@@QAEPAU__crt_stdio_stream_data@@XZ 10084b50 f i libucrtd:stream.obj
 0001:00083cc0       ?lock@__crt_stdio_stream@@QBEXXZ 10084cc0 f i libucrtd:stream.obj
 0001:00083ce0       ?release@?$__crt_unique_heap_ptr@U__crt_stdio_stream_data@@U__crt_internal_free_policy@@@@QAEXXZ 10084ce0 f i libucrtd:stream.obj
 0001:00083d10       ?try_allocate@__crt_stdio_stream@@QAE_NXZ 10084d10 f i libucrtd:stream.obj
 0001:00083d60       ??$__acrt_stdio_parse_mode@D@@YA?AU__acrt_stdio_stream_mode@@QBD@Z 10084d60 f i libucrtd:openfile.obj
 0001:000845d0       ??$__acrt_stdio_parse_mode@_W@@YA?AU__acrt_stdio_stream_mode@@QB_W@Z 100855d0 f i libucrtd:openfile.obj
 0001:00085160       ??$tcsncmp@AAPBDAAY02$$CBDI@?$__crt_char_traits@D@@SAHAAPBDAAY02$$CBD$$QAI@Z 10086160 f i libucrtd:openfile.obj
 0001:00085180       ??$tcsncmp@AAPB_WAAY02$$CB_WI@?$__crt_char_traits@_W@@SAHAAPB_WAAY02$$CB_W$$QAI@Z 10086180 f i libucrtd:openfile.obj
 0001:000851a0       ??$tcsnicmp@AAPBDAAY04$$CBDI@?$__crt_char_traits@D@@SAHAAPBDAAY04$$CBD$$QAI@Z 100861a0 f i libucrtd:openfile.obj
 0001:000851c0       ??$tcsnicmp@AAPBDAAY06$$CBDI@?$__crt_char_traits@D@@SAHAAPBDAAY06$$CBD$$QAI@Z 100861c0 f i libucrtd:openfile.obj
 0001:000851e0       ??$tcsnicmp@AAPBDAAY07$$CBDI@?$__crt_char_traits@D@@SAHAAPBDAAY07$$CBD$$QAI@Z 100861e0 f i libucrtd:openfile.obj
 0001:00085200       ??$tcsnicmp@AAPB_WAAY04$$CB_WI@?$__crt_char_traits@_W@@SAHAAPB_WAAY04$$CB_W$$QAI@Z 10086200 f i libucrtd:openfile.obj
 0001:00085220       ??$tcsnicmp@AAPB_WAAY06$$CB_WI@?$__crt_char_traits@_W@@SAHAAPB_WAAY06$$CB_W$$QAI@Z 10086220 f i libucrtd:openfile.obj
 0001:00085240       ??$tcsnicmp@AAPB_WAAY07$$CB_WI@?$__crt_char_traits@_W@@SAHAAPB_WAAY07$$CB_W$$QAI@Z 10086240 f i libucrtd:openfile.obj
 0001:00085260       ??$tsopen_s@PAHABQBDABHABHH@?$__crt_char_traits@D@@SAH$$QAPAHABQBDABH2$$QAH@Z 10086260 f i libucrtd:openfile.obj
 0001:00085290       ??$tsopen_s@PAHABQB_WABHABHH@?$__crt_char_traits@_W@@SAH$$QAPAHABQB_WABH2$$QAH@Z 10086290 f i libucrtd:openfile.obj
 0001:000852c0       ?__acrt_stdio_parse_mode_D@@YA_NAAU__acrt_stdio_stream_mode@@@Z 100862c0 f i libucrtd:openfile.obj
 0001:000852f0       ?__acrt_stdio_parse_mode_N@@YA_NAAU__acrt_stdio_stream_mode@@@Z 100862f0 f i libucrtd:openfile.obj
 0001:00085310       ?__acrt_stdio_parse_mode_R@@YA_NAAU__acrt_stdio_stream_mode@@AA_N@Z 10086310 f i libucrtd:openfile.obj
 0001:00085340       ?__acrt_stdio_parse_mode_S@@YA_NAAU__acrt_stdio_stream_mode@@AA_N@Z 10086340 f i libucrtd:openfile.obj
 0001:00085370       ?__acrt_stdio_parse_mode_T@@YA_NAAU__acrt_stdio_stream_mode@@@Z 10086370 f i libucrtd:openfile.obj
 0001:000853a0       ?__acrt_stdio_parse_mode_b@@YA_NAAU__acrt_stdio_stream_mode@@@Z 100863a0 f i libucrtd:openfile.obj
 0001:000853d0       ?__acrt_stdio_parse_mode_c@@YA_NAAU__acrt_stdio_stream_mode@@AA_N@Z 100863d0 f i libucrtd:openfile.obj
 0001:00085400       ?__acrt_stdio_parse_mode_n@@YA_NAAU__acrt_stdio_stream_mode@@AA_N@Z 10086400 f i libucrtd:openfile.obj
 0001:00085430       ?__acrt_stdio_parse_mode_plus@@YA_NAAU__acrt_stdio_stream_mode@@AA_N@Z 10086430 f i libucrtd:openfile.obj
 0001:000854a0       ?__acrt_stdio_parse_mode_t@@YA_NAAU__acrt_stdio_stream_mode@@@Z 100864a0 f i libucrtd:openfile.obj
 0001:000854d0       ?__acrt_stdio_parse_mode_x@@YA_NAAU__acrt_stdio_stream_mode@@@Z 100864d0 f i libucrtd:openfile.obj
 0001:00085500       __openfile                 10086500 f   libucrtd:openfile.obj
 0001:00085530       __wopenfile                10086530 f   libucrtd:openfile.obj
 0001:00085810       __close                    10086810 f   libucrtd:close.obj
 0001:00085990       __close_nolock             10086990 f   libucrtd:close.obj
 0001:000859f0       ?has_crt_buffer@__crt_stdio_stream@@QBE_NXZ 100869f0 f i libucrtd:_freebuf.obj
 0001:00085a10       ___acrt_stdio_free_buffer_nolock 10086a10 f   libucrtd:_freebuf.obj
 0001:00086070       ?__acrt_stdio_reset_buffer@@YAXV__crt_stdio_stream@@@Z 10087070 f i libucrtd:fflush.obj
 0001:00086170       ?has_all_of@__crt_stdio_stream@@QBE_NJ@Z 10087170 f i libucrtd:fflush.obj
 0001:00086240       ___acrt_stdio_flush_nolock 10087240 f   libucrtd:fflush.obj
 0001:00086310       __fflush_nolock            10087310 f   libucrtd:fflush.obj
 0001:00086390       __flushall                 10087390 f   libucrtd:fflush.obj
 0001:000863b0       _fflush                    100873b0 f   libucrtd:fflush.obj
 0001:00086b00       ?has_big_buffer@__crt_stdio_stream@@QBE_NXZ 10087b00 f i libucrtd:_flsbuf.obj
 0001:00086c00       ___acrt_stdio_flush_and_write_narrow_nolock 10087c00 f   libucrtd:_flsbuf.obj
 0001:00086c30       ___acrt_stdio_flush_and_write_wide_nolock 10087c30 f   libucrtd:_flsbuf.obj
 0001:00086f60       ___acrt_get_begin_thread_init_policy 10087f60 f   libucrtd:win_policies.obj
 0001:00086f80       ___acrt_get_developer_information_policy 10087f80 f   libucrtd:win_policies.obj
 0001:00086fa0       ___acrt_get_process_end_policy 10087fa0 f   libucrtd:win_policies.obj
 0001:00086fc0       ___acrt_get_windowing_model_policy 10087fc0 f   libucrtd:win_policies.obj
 0001:00087290       ??$__acrt_mbs_to_wcs_cp@U__crt_win32_buffer_internal_dynamic_resizing@@@@YAHQBDAAV?$__crt_win32_buffer@_WU__crt_win32_buffer_internal_dynamic_resizing@@@@I@Z 10088290 f i libucrtd:argv_wildcards.obj
 0001:000872c0       ??$__acrt_wcs_to_mbs_cp@U__crt_win32_buffer_internal_dynamic_resizing@@@@YAHQB_WAAV?$__crt_win32_buffer@DU__crt_win32_buffer_internal_dynamic_resizing@@@@I@Z 100882c0 f i libucrtd:argv_wildcards.obj
 0001:00088210       ??$tcsncpy_s@AAPADIAAPADABI@?$__crt_char_traits@D@@SAHAAPAD$$QAI0ABI@Z 10089210 f i libucrtd:argv_wildcards.obj
 0001:00088240       ??$tcsncpy_s@AAPA_WIAAPA_WABI@?$__crt_char_traits@_W@@SAHAAPA_W$$QAI0ABI@Z 10089240 f i libucrtd:argv_wildcards.obj
 0001:00088270       ??$tcsncpy_s@PADABIABQBDABI@?$__crt_char_traits@D@@SAH$$QAPADABIABQBD1@Z 10089270 f i libucrtd:argv_wildcards.obj
 0001:000882a0       ??$tcsncpy_s@PADIABQBDABI@?$__crt_char_traits@D@@SAH$$QAPAD$$QAIABQBDABI@Z 100892a0 f i libucrtd:argv_wildcards.obj
 0001:000882d0       ??$tcsncpy_s@PA_WABIABQB_WABI@?$__crt_char_traits@_W@@SAH$$QAPA_WABIABQB_W1@Z 100892d0 f i libucrtd:argv_wildcards.obj
 0001:00088300       ??$tcsncpy_s@PA_WIABQB_WABI@?$__crt_char_traits@_W@@SAH$$QAPA_W$$QAIABQB_WABI@Z 10089300 f i libucrtd:argv_wildcards.obj
 0001:00088330       ??$tcspbrk@AAPADAAY02$$CBD@?$__crt_char_traits@D@@SAPADAAPADAAY02$$CBD@Z 10089330 f i libucrtd:argv_wildcards.obj
 0001:00088350       ??$tcspbrk@AAPA_WAAY02$$CB_W@?$__crt_char_traits@_W@@SAPA_WAAPA_WAAY02$$CB_W@Z 10089350 f i libucrtd:argv_wildcards.obj
 0001:00088370       ??0?$__crt_unique_handle_t@U__crt_findfile_traits@@@@QAE@QAX@Z 10089370 f i libucrtd:argv_wildcards.obj
 0001:00088390       ??0?$__crt_win32_buffer@DU__crt_win32_buffer_internal_dynamic_resizing@@@@QAE@XZ 10089390 f i libucrtd:argv_wildcards.obj
 0001:000883e0       ??0?$__crt_win32_buffer@_WU__crt_win32_buffer_internal_dynamic_resizing@@@@QAE@XZ 100893e0 f i libucrtd:argv_wildcards.obj
 0001:00088490       ??1?$__crt_unique_handle_t@U__crt_findfile_traits@@@@QAE@XZ 10089490 f i libucrtd:argv_wildcards.obj
 0001:000884b0       ??1?$__crt_win32_buffer@DU__crt_win32_buffer_internal_dynamic_resizing@@@@QAE@XZ 100894b0 f i libucrtd:argv_wildcards.obj
 0001:000884f0       ??1?$__crt_win32_buffer@_WU__crt_win32_buffer_internal_dynamic_resizing@@@@QAE@XZ 100894f0 f i libucrtd:argv_wildcards.obj
 0001:00088750       ?_deallocate@?$__crt_win32_buffer@DU__crt_win32_buffer_internal_dynamic_resizing@@@@AAEXXZ 10089750 f i libucrtd:argv_wildcards.obj
 0001:00088790       ?_deallocate@?$__crt_win32_buffer@_WU__crt_win32_buffer_internal_dynamic_resizing@@@@AAEXXZ 10089790 f i libucrtd:argv_wildcards.obj
 0001:000887d0       ?allocate@?$__crt_win32_buffer@DU__crt_win32_buffer_internal_dynamic_resizing@@@@QAEHI@Z 100897d0 f i libucrtd:argv_wildcards.obj
 0001:00088840       ?allocate@?$__crt_win32_buffer@_WU__crt_win32_buffer_internal_dynamic_resizing@@@@QAEHI@Z 10089840 f i libucrtd:argv_wildcards.obj
 0001:000888b0       ?allocate@__crt_win32_buffer_internal_dynamic_resizing@@SAHQAPAXIABV__crt_win32_buffer_empty_debug_info@@@Z 100898b0 f i libucrtd:argv_wildcards.obj
 0001:000889f0       ?capacity@?$__crt_win32_buffer@DU__crt_win32_buffer_internal_dynamic_resizing@@@@QBEIXZ 100899f0 f i libucrtd:argv_wildcards.obj
 0001:00088a10       ?capacity@?$__crt_win32_buffer@_WU__crt_win32_buffer_internal_dynamic_resizing@@@@QBEIXZ 10089a10 f i libucrtd:argv_wildcards.obj
 0001:00088a30       ?close@?$__crt_unique_handle_t@U__crt_findfile_traits@@@@QAEXXZ 10089a30 f i libucrtd:argv_wildcards.obj
 0001:00088a70       ?close@__crt_findfile_traits@@SA_NPAX@Z 10089a70 f i libucrtd:argv_wildcards.obj
 0001:00088aa0       ?data@?$__crt_win32_buffer@DU__crt_win32_buffer_internal_dynamic_resizing@@@@QAEPADXZ 10089aa0 f i libucrtd:argv_wildcards.obj
 0001:00088ac0       ?data@?$__crt_win32_buffer@_WU__crt_win32_buffer_internal_dynamic_resizing@@@@QAEPA_WXZ 10089ac0 f i libucrtd:argv_wildcards.obj
 0001:00088ae0       ?deallocate@__crt_win32_buffer_internal_dynamic_resizing@@SAXQAXABV__crt_win32_buffer_empty_debug_info@@@Z 10089ae0 f i libucrtd:argv_wildcards.obj
 0001:00088b00       ?debug_info@?$__crt_win32_buffer@DU__crt_win32_buffer_internal_dynamic_resizing@@@@QBEABV__crt_win32_buffer_empty_debug_info@@XZ 10089b00 f i libucrtd:argv_wildcards.obj
 0001:00088b10       ?debug_info@?$__crt_win32_buffer@_WU__crt_win32_buffer_internal_dynamic_resizing@@@@QBEABV__crt_win32_buffer_empty_debug_info@@XZ 10089b10 f i libucrtd:argv_wildcards.obj
 0001:00088e20       ?get@?$__crt_unique_handle_t@U__crt_findfile_traits@@@@QBEPAXXZ 10089e20 f i libucrtd:argv_wildcards.obj
 0001:00088e90       ?get_invalid_value@__crt_findfile_traits@@SAPAXXZ 10089e90 f i libucrtd:argv_wildcards.obj
 0001:00088f20       ?set_to_nullptr@?$__crt_win32_buffer@DU__crt_win32_buffer_internal_dynamic_resizing@@@@QAEXXZ 10089f20 f i libucrtd:argv_wildcards.obj
 0001:00088f60       ?set_to_nullptr@?$__crt_win32_buffer@_WU__crt_win32_buffer_internal_dynamic_resizing@@@@QAEXXZ 10089f60 f i libucrtd:argv_wildcards.obj
 0001:00088fa0       ?size@?$__crt_win32_buffer@DU__crt_win32_buffer_internal_dynamic_resizing@@@@QAEXI@Z 10089fa0 f i libucrtd:argv_wildcards.obj
 0001:00088fc0       ?size@?$__crt_win32_buffer@_WU__crt_win32_buffer_internal_dynamic_resizing@@@@QAEXI@Z 10089fc0 f i libucrtd:argv_wildcards.obj
 0001:00089020       ?strpbrk@@YAPADQADQBD@Z    1008a020 f i libucrtd:argv_wildcards.obj
 0001:00089040       ?wcspbrk@@YAPA_WPA_WPB_W@Z 1008a040 f i libucrtd:argv_wildcards.obj
 0001:00089060       ___acrt_expand_narrow_argv_wildcards 1008a060 f   libucrtd:argv_wildcards.obj
 0001:00089080       ___acrt_expand_wide_argv_wildcards 1008a080 f   libucrtd:argv_wildcards.obj
 0001:00089160       ??$initialize_from_array@$$BY10BAA@E@?$dual_state_global@PAE@__crt_state_management@@QAAXAAY10BAA@E@Z 1008a160 f i libucrtd:mbctype.obj
 0001:000891b0       ??$initialize_from_array@$$BY10BAB@E@?$dual_state_global@PAE@__crt_state_management@@QAAXAAY10BAB@E@Z 1008a1b0 f i libucrtd:mbctype.obj
 0001:00089420       ?dangerous_get_state_array@?$dual_state_global@PAE@__crt_state_management@@QAEPAPAEXZ 1008a420 f i libucrtd:mbctype.obj
 0001:00089430       ?dangerous_get_state_array@?$dual_state_global@PAU__crt_multibyte_data@@@__crt_state_management@@QAEPAPAU__crt_multibyte_data@@XZ 1008a430 f i libucrtd:mbctype.obj
 0001:00089500       ?initialize@?$dual_state_global@PAU__crt_multibyte_data@@@__crt_state_management@@QAEXQAU__crt_multibyte_data@@@Z 1008a500 f i libucrtd:mbctype.obj
 0001:00089c50       ?value@?$dual_state_global@PAE@__crt_state_management@@QAEAAPAEXZ 1008ac50 f i libucrtd:mbctype.obj
 0001:00089c70       ___acrt_initialize_multibyte 1008ac70 f   libucrtd:mbctype.obj
 0001:00089d20       ___acrt_update_thread_multibyte_data 1008ad20 f   libucrtd:mbctype.obj
 0001:00089d40       ___p__mbcasemap            1008ad40 f   libucrtd:mbctype.obj
 0001:00089d60       ___p__mbctype              1008ad60 f   libucrtd:mbctype.obj
