 OPOSSigCap

 Timestamp is 61a75c11 (Wed Dec  1 20:27:13 2021)

 Preferred load address is 10000000

 Start         Length     Name                   Class
 0001:00000000 00000d90H .text$di                CODE
 0001:00000d90 000b6d20H .text$mn                CODE
 0001:000b7ab0 00000cb0H .text$x                 CODE
 0001:000b8760 00000120H .text$yd                CODE
 0002:00000000 00000358H .idata$5                DATA
 0002:00000358 0000000cH .00cfg                  DATA
 0002:00000364 00000004H .CRT$XCA                DATA
 0002:00000368 00000004H .CRT$XCL                DATA
 0002:0000036c 0000006cH .CRT$XCU                DATA
 0002:000003d8 00000004H .CRT$XCZ                DATA
 0002:000003dc 00000004H .CRT$XIA                DATA
 0002:000003e0 00000014H .CRT$XIC                DATA
 0002:000003f4 00000004H .CRT$XIZ                DATA
 0002:000003f8 00000004H .CRT$XLA                DATA
 0002:000003fc 00000004H .CRT$XLZ                DATA
 0002:00000400 00000004H .CRT$XPA                DATA
 0002:00000404 00000008H .CRT$XPX                DATA
 0002:0000040c 00000004H .CRT$XPXA               DATA
 0002:00000410 00000004H .CRT$XPZ                DATA
 0002:00000414 00000004H .CRT$XTA                DATA
 0002:00000418 00000008H .CRT$XTZ                DATA
 0002:0000041c 00000000H .gfids$y                DATA
 0002:00000420 0002f520H .rdata                  DATA
 0002:0002f940 00000040H .rdata$CastGuardVftablesA DATA
 0002:0002f980 00000040H .rdata$CastGuardVftablesC DATA
 0002:0002f9c0 00000018H .rdata$T                DATA
 0002:0002f9d8 0000033cH .rdata$r                DATA
 0002:0002fd14 000001a0H .rdata$sxdata           DATA
 0002:0002feb4 00000168H .rdata$voltmd           DATA
 0002:0003001c 00000474H .rdata$zzzdbg           DATA
 0002:00030490 00000004H .rtc$IAA                DATA
 0002:00030494 00000018H .rtc$IMZ                DATA
 0002:000304ac 00000004H .rtc$IZZ                DATA
 0002:000304b0 00000004H .rtc$TAA                DATA
 0002:000304b4 00000018H .rtc$TMZ                DATA
 0002:000304cc 00000004H .rtc$TZZ                DATA
 0002:000304d0 00000004H .tls                    DATA
 0002:000304d4 00000004H .tls$                   DATA
 0002:000304d8 00000008H .tls$ZZZ                DATA
 0002:000304e0 00001a4cH .xdata$x                DATA
 0002:00031f2c 00000004H ATL$__a                 DATA
 0002:00031f30 00000010H ATL$__z                 DATA
 0002:00031f40 000000a8H .edata                  DATA
 0002:00031fe8 00000078H .idata$2                DATA
 0002:00032060 00000014H .idata$3                DATA
 0002:00032074 00000358H .idata$4                DATA
 0002:000323cc 00000d56H .idata$6                DATA
 0003:00000000 00000bb0H .data                   DATA
 0003:00000bb0 00000080H .data$r                 DATA
 0003:00000c30 000000b8H .data$rs                DATA
 0003:00000ce8 00003580H .bss                    DATA
 0004:00000000 00000220H .rsrc$01                DATA
 0004:00000220 00003f88H .rsrc$02                DATA

  Address         Publics by Value              Rva+Base       Lib:Object

 0000:00000000       ___arm64x_extra_rfe_table_size 00000000     <absolute>
 0000:00000000       ___hybrid_code_map_count   00000000     <absolute>
 0000:00000000       ___enclave_config          00000000     <absolute>
 0000:00000000       ___guard_fids_count        00000000     <absolute>
 0000:00000000       ___arm64x_extra_rfe_table  00000000     <absolute>
 0000:00000000       ___guard_iat_count         00000000     <absolute>
 0000:00000000       ___arm64x_native_entrypoint 00000000     <absolute>
 0000:00000000       ___hybrid_code_map         00000000     <absolute>
 0000:00000000       ___dynamic_value_reloc_table 00000000     <absolute>
 0000:00000000       ___hybrid_auxiliary_iat    00000000     <absolute>
 0000:00000000       ___arm64x_redirection_metadata_count 00000000     <absolute>
 0000:00000000       ___guard_check_icall_a64n_fptr 00000000     <absolute>
 0000:00000000       ___x64_code_ranges_to_entry_points_count 00000000     <absolute>
 0000:00000000       ___guard_eh_cont_count     00000000     <absolute>
 0000:00000000       ___x64_code_ranges_to_entry_points 00000000     <absolute>
 0000:00000000       ___AbsoluteZero            00000000     <absolute>
 0000:00000000       ___guard_fids_table        00000000     <absolute>
 0000:00000000       __except_list              00000000     <absolute>
 0000:00000000       ___guard_longjmp_table     00000000     <absolute>
 0000:00000000       ___guard_iat_table         00000000     <absolute>
 0000:00000000       ___hybrid_auxiliary_iat_copy 00000000     <absolute>
 0000:00000000       ___arm64x_redirection_metadata 00000000     <absolute>
 0000:00000000       ___guard_longjmp_count     00000000     <absolute>
 0000:00000000       ___guard_eh_cont_table     00000000     <absolute>
 0000:0000002c       __tls_array                0000002c     <absolute>
 0000:00000068       ___safe_se_handler_count   00000068     <absolute>
 0000:00000100       ___guard_flags             00000100     <absolute>
 0000:00000000       ___ImageBase               10000000     <linker-defined>
 0001:00000d90       ?_assert@@YAXPB_W0I@Z      10001d90 f   Assert.obj
 0001:00000ec0       ___local_stdio_printf_options 10001ec0 f i Assert.obj
 0001:00000ed0       ___vswprintf_l             10001ed0 f i Assert.obj
 0001:00000f00       __swprintf                 10001f00 f i Assert.obj
 0001:00000f60       __vswprintf_c_l            10001f60 f i Assert.obj
 0001:00000fd0       __vswprintf_l              10001fd0 f i Assert.obj
 0001:00001000       ?cw_memcpy@@YGHPADPB_WH@Z  10002000 f   CWString.obj
 0001:00001060       ?cw_memcpy@@YGHPA_WPBDH@Z  10002060 f   CWString.obj
 0001:000010c0       ?cw_memcpy@@YGHPADPBDH@Z   100020c0 f   CWString.obj
 0001:00001110       ?cw_memcpy@@YGHPA_WPB_WH@Z 10002110 f   CWString.obj
 0001:00001150       ?cw_memset@@YAXPADDH@Z     10002150 f   CWString.obj
 0001:00001170       ?cw_memset@@YAXPA_W_WH@Z   10002170 f   CWString.obj
 0001:00001190       ?cw_strlen@@YAHPBD@Z       10002190 f   CWString.obj
 0001:000011d0       ?cw_strlen@@YAHPB_W@Z      100021d0 f   CWString.obj
 0001:00001210       ?cw_strcpy@@YAHPADPB_W@Z   10002210 f   CWString.obj
 0001:00001230       ?cw_strcpy@@YAHPA_WPBD@Z   10002230 f   CWString.obj
 0001:00001250       ?cw_strcpy@@YAHPADPBD@Z    10002250 f   CWString.obj
 0001:00001270       ?cw_strcpy@@YAHPA_WPB_W@Z  10002270 f   CWString.obj
 0001:00001290       ?cw_strcat@@YAHPADPB_W@Z   10002290 f   CWString.obj
 0001:000012c0       ?cw_strcat@@YAHPA_WPBD@Z   100022c0 f   CWString.obj
 0001:000012f0       ?cw_strcat@@YAHPADPBD@Z    100022f0 f   CWString.obj
 0001:00001320       ?cw_strcat@@YAHPA_WPB_W@Z  10002320 f   CWString.obj
 0001:00001350       ?cw_dup@@YGXPBDAAHAAPA_W1@Z 10002350 f   CWString.obj
 0001:00001410       ?cw_dup@@YGXPB_WAAHAAPAD1@Z 10002410 f   CWString.obj
 0001:000014c0       ?DupChar@_CW@@AAEXXZ       100024c0 f   CWString.obj
 0001:00001510       ?DupWide@_CW@@AAEXXZ       10002510 f   CWString.obj
 0001:00001560       ?GetCharsMbcs@_CW@@QAEHXZ  10002560 f   CWString.obj
 0001:000015c0       ?GetCharsWide@_CW@@QAEHXZ  100025c0 f   CWString.obj
 0001:00001620       ?SetVARIANT_BOOL@OposVariant@@QAEXF@Z 10002620 f   OposVariant.obj
 0001:00001680       ?SetVARIANT_BOOL_Ptr@OposVariant@@QAEXPAFAAJ@Z 10002680 f   OposVariant.obj
 0001:000016d0       ?GetLONG@OposVariant@@QAEJXZ 100026d0 f   OposVariant.obj
 0001:00001760       ?ChangeLONG@OposVariant@@QAEXPAJAAJ@Z 10002760 f   OposVariant.obj
 0001:00001820       ?SetLONG@OposVariant@@QAEXJ@Z 10002820 f   OposVariant.obj
 0001:00001860       ?SetLONG_Ptr@OposVariant@@QAEXPAJAAJ@Z 10002860 f   OposVariant.obj
 0001:000018b0       ?ChangeCURRENCY@OposVariant@@QAEXPATtagCY@@AAJ@Z 100028b0 f   OposVariant.obj
 0001:00001970       ?SetCURRENCY@OposVariant@@QAEXTtagCY@@@Z 10002970 f   OposVariant.obj
 0001:000019b0       ?SetCURRENCY_Ptr@OposVariant@@QAEXPATtagCY@@AAJ@Z 100029b0 f   OposVariant.obj
 0001:00001a00       ?ChangeBSTR@OposVariant@@QAEXPAPA_WAAJ@Z 10002a00 f   OposVariant.obj
 0001:00001ac0       ?SetBSTR@OposVariant@@QAEXPA_WAAJ@Z 10002ac0 f   OposVariant.obj
 0001:00001b10       ?SetBSTR_Copy@OposVariant@@QAEXPA_WAAJ@Z 10002b10 f   OposVariant.obj
 0001:00001bb0       ?SetBSTR_OutPtr@OposVariant@@QAE_NPAPA_WAAJ@Z 10002bb0 f   OposVariant.obj
 0001:00001c00       ?SetBSTR_InOutPtr@OposVariant@@QAE_NPAPA_WAAJ@Z 10002c00 f   OposVariant.obj
 0001:00001c50       ?SetVARIANT@OposVariant@@QAEXAAUtagVARIANT@@GAAJ@Z 10002c50 f   OposVariant.obj
 0001:00001cd0       ?SetVARIANT_Ptr@OposVariant@@QAEXAAPAUtagVARIANT@@GAAJ@Z 10002cd0 f   OposVariant.obj
 0001:00001d70       ?SetString@OposVariant@@QAEXPB_WAAJ@Z 10002d70 f   OposVariant.obj
 0001:00001e00       ?SetDispatch_Ptr@OposVariant@@QAEXPAUIDispatch@@AAJ@Z 10002e00 f   OposVariant.obj
 0001:00001e70       ??0OposDispParms@@QAE@PAVOposVariant@@H@Z 10002e70 f   OposVariant.obj
 0001:00001f40       ??1OposDispParms@@QAE@XZ   10002f40 f   OposVariant.obj
 0001:00001f90       ??$AtlMultiply@I@ATL@@YAJPAIII@Z 10002f90 f i OposVariant.obj
 0001:00001ff0       ??0?$CHeapPtr@_WVCCRTAllocator@ATL@@@ATL@@QAE@XZ 10002ff0 f i OposVariant.obj
 0001:00002020       ??0?$CHeapPtrBase@_WVCCRTAllocator@ATL@@@ATL@@IAE@XZ 10003020 f i OposVariant.obj
 0001:00002040       ??0?$CSimpleArray@GV?$CSimpleArrayEqualHelper@G@ATL@@@ATL@@QAE@XZ 10003040 f i OposVariant.obj
 0001:00002070       ??0?$CTraceCategoryEx@$00$0A@@ATL@@QAE@PB_W@Z 10003070 f i OposVariant.obj
 0001:000020a0       ??0?$CTraceCategoryEx@$01$0A@@ATL@@QAE@PB_W@Z 100030a0 f i OposVariant.obj
 0001:000020d0       ??0?$CTraceCategoryEx@$03$0A@@ATL@@QAE@PB_W@Z 100030d0 f i OposVariant.obj
 0001:00002100       ??0?$CTraceCategoryEx@$07$0A@@ATL@@QAE@PB_W@Z 10003100 f i OposVariant.obj
 0001:00002130       ??0?$CTraceCategoryEx@$0BA@$0A@@ATL@@QAE@PB_W@Z 10003130 f i OposVariant.obj
 0001:00002160       ??0?$CTraceCategoryEx@$0BAA@$0A@@ATL@@QAE@PB_W@Z 10003160 f i OposVariant.obj
 0001:000021a0       ??0?$CTraceCategoryEx@$0BAAA@$0A@@ATL@@QAE@PB_W@Z 100031a0 f i OposVariant.obj
 0001:000021e0       ??0?$CTraceCategoryEx@$0BAAAA@$0A@@ATL@@QAE@PB_W@Z 100031e0 f i OposVariant.obj
 0001:00002220       ??0?$CTraceCategoryEx@$0BAAAAA@$0A@@ATL@@QAE@PB_W@Z 10003220 f i OposVariant.obj
 0001:00002260       ??0?$CTraceCategoryEx@$0CA@$0A@@ATL@@QAE@PB_W@Z 10003260 f i OposVariant.obj
 0001:00002290       ??0?$CTraceCategoryEx@$0CAA@$0A@@ATL@@QAE@PB_W@Z 10003290 f i OposVariant.obj
 0001:000022d0       ??0?$CTraceCategoryEx@$0CAAA@$0A@@ATL@@QAE@PB_W@Z 100032d0 f i OposVariant.obj
 0001:00002310       ??0?$CTraceCategoryEx@$0CAAAA@$0A@@ATL@@QAE@PB_W@Z 10003310 f i OposVariant.obj
 0001:00002350       ??0?$CTraceCategoryEx@$0CAAAAA@$0A@@ATL@@QAE@PB_W@Z 10003350 f i OposVariant.obj
 0001:00002390       ??0?$CTraceCategoryEx@$0EA@$0A@@ATL@@QAE@PB_W@Z 10003390 f i OposVariant.obj
 0001:000023c0       ??0?$CTraceCategoryEx@$0EAA@$0A@@ATL@@QAE@PB_W@Z 100033c0 f i OposVariant.obj
 0001:00002400       ??0?$CTraceCategoryEx@$0EAAA@$0A@@ATL@@QAE@PB_W@Z 10003400 f i OposVariant.obj
 0001:00002440       ??0?$CTraceCategoryEx@$0EAAAA@$0A@@ATL@@QAE@PB_W@Z 10003440 f i OposVariant.obj
 0001:00002480       ??0?$CTraceCategoryEx@$0EAAAAA@$0A@@ATL@@QAE@PB_W@Z 10003480 f i OposVariant.obj
 0001:000024c0       ??0?$CTraceCategoryEx@$0IA@$0A@@ATL@@QAE@PB_W@Z 100034c0 f i OposVariant.obj
 0001:00002500       ??0?$CTraceCategoryEx@$0IAA@$0A@@ATL@@QAE@PB_W@Z 10003500 f i OposVariant.obj
 0001:00002540       ??0?$CTraceCategoryEx@$0IAAA@$0A@@ATL@@QAE@PB_W@Z 10003540 f i OposVariant.obj
 0001:00002580       ??0?$CTraceCategoryEx@$0IAAAA@$0A@@ATL@@QAE@PB_W@Z 10003580 f i OposVariant.obj
 0001:000025c0       ??0CAtlComModule@ATL@@QAE@XZ 100035c0 f i OposVariant.obj
 0001:000026a0       ??0CAtlWinModule@ATL@@QAE@XZ 100036a0 f i OposVariant.obj
 0001:00002730       ??0CComCriticalSection@ATL@@QAE@XZ 10003730 f i OposVariant.obj
 0001:00002760       ??0CPreserveLastError@ATL@@QAE@XZ 10003760 f i OposVariant.obj
 0001:000027a0       ??0CTraceFileAndLineInfo@ATL@@QAE@PBDH@Z 100037a0 f i OposVariant.obj
 0001:000027d0       ??0_ATL_COM_MODULE70@ATL@@QAE@XZ 100037d0 f i OposVariant.obj
 0001:00002800       ??0_ATL_WIN_MODULE70@ATL@@QAE@XZ 10003800 f i OposVariant.obj
 0001:00002840       ??1?$CHeapPtr@_WVCCRTAllocator@ATL@@@ATL@@QAE@XZ 10003840 f i OposVariant.obj
 0001:00002870       ??1?$CHeapPtrBase@_WVCCRTAllocator@ATL@@@ATL@@QAE@XZ 10003870 f i OposVariant.obj
 0001:000028a0       ??1?$CSimpleArray@GV?$CSimpleArrayEqualHelper@G@ATL@@@ATL@@QAE@XZ 100038a0 f i OposVariant.obj
 0001:000028d0       ??1CAtlComModule@ATL@@QAE@XZ 100038d0 f i OposVariant.obj
 0001:00002900       ??1CAtlWinModule@ATL@@QAE@XZ 10003900 f i OposVariant.obj
 0001:00002930       ??1CComBSTR@ATL@@QAE@XZ    10003930 f i OposVariant.obj
 0001:00002970       ??1CComCriticalSection@ATL@@QAE@XZ 10003970 f i OposVariant.obj
 0001:00002980       ??1CPreserveLastError@ATL@@QAE@XZ 10003980 f i OposVariant.obj
 0001:000029c0       ??1_ATL_COM_MODULE70@ATL@@QAE@XZ 100039c0 f i OposVariant.obj
 0001:000029f0       ??1_ATL_WIN_MODULE70@ATL@@QAE@XZ 100039f0 f i OposVariant.obj
 0001:00002a30       ??1stringdispid@CComTypeInfoHolder@ATL@@QAE@XZ 10003a30 f i OposVariant.obj
 0001:00002a60       ??A?$CSimpleArray@GV?$CSimpleArrayEqualHelper@G@ATL@@@ATL@@QAEAAGH@Z 10003a60 f i OposVariant.obj
 0001:00002ae0       ??B?$CHeapPtrBase@_WVCCRTAllocator@ATL@@@ATL@@QBEPA_WXZ 10003ae0 f i OposVariant.obj
 0001:00002af0       ??B?$CTraceCategoryEx@$01$0A@@ATL@@QAEIXZ 10003af0 f i OposVariant.obj
 0001:00002b00       ??B?$CTraceCategoryEx@$0CA@$0A@@ATL@@QAEIXZ 10003b00 f i OposVariant.obj
 0001:00002b10       ??RCTraceFileAndLineInfo@ATL@@QBAXHIPB_WZZ 10003b10 f i OposVariant.obj
 0001:00002bb0       ??_Estringdispid@CComTypeInfoHolder@ATL@@QAEPAXI@Z 10003bb0 f i OposVariant.obj
 0001:00002c40       ??_H@YGXPAXIIP6EPAX0@Z@Z   10003c40 f i OposVariant.obj
 0001:00002cb0       ??_I@YGXPAXIIP6EX0@Z@Z     10003cb0 f i OposVariant.obj
 0001:00002d30       ?Allocate@?$CHeapPtr@_WVCCRTAllocator@ATL@@@ATL@@QAE_NI@Z 10003d30 f i OposVariant.obj
 0001:00002dc0       ?Allocate@CCRTAllocator@ATL@@SAPAXI@Z 10003dc0 f i OposVariant.obj
 0001:00002de0       ?AllocateBytes@?$CHeapPtrBase@_WVCCRTAllocator@ATL@@@ATL@@QAE_NI@Z 10003de0 f i OposVariant.obj
 0001:00002e50       ?AtlWinModuleInit@ATL@@YGJPAU_ATL_WIN_MODULE70@1@@Z 10003e50 f i OposVariant.obj
 0001:00002f20       ?AtlWinModuleTerm@ATL@@YGJPAU_ATL_WIN_MODULE70@1@PAUHINSTANCE__@@@Z 10003f20 f i OposVariant.obj
 0001:00002fe0       ?Clear@OposVariant@@QAEJXZ 10003fe0 f i OposVariant.obj
 0001:00003020       ?Free@?$CHeapPtrBase@_WVCCRTAllocator@ATL@@@ATL@@QAEXXZ 10004020 f i OposVariant.obj
 0001:00003060       ?Free@CCRTAllocator@ATL@@SAXPAX@Z 10004060 f i OposVariant.obj
 0001:00003080       ?GetCategoryName@CTrace@ATL@@CAPA_WI@Z 10004080 f i OposVariant.obj
 0001:000030d0       ?GetModuleInstance@CAtlBaseModule@ATL@@QAEPAUHINSTANCE__@@XZ 100040d0 f i OposVariant.obj
 0001:000030f0       ?GetSize@?$CSimpleArray@GV?$CSimpleArrayEqualHelper@G@ATL@@@ATL@@QBEHXZ 100040f0 f i OposVariant.obj
 0001:00003110       ?Init@CComCriticalSection@ATL@@QAEJXZ 10004110 f i OposVariant.obj
 0001:00003170       ?RegisterCategory@CTrace@ATL@@SAXPB_WI@Z 10004170 f i OposVariant.obj
 0001:00003200       ?RemoveAll@?$CSimpleArray@GV?$CSimpleArrayEqualHelper@G@ATL@@@ATL@@QAEXXZ 10004200 f i OposVariant.obj
 0001:00003280       ?Term@CAtlComModule@ATL@@QAEXXZ 10004280 f i OposVariant.obj
 0001:00003340       ?Term@CAtlWinModule@ATL@@QAEXXZ 10004340 f i OposVariant.obj
 0001:00003370       ?Term@CComCriticalSection@ATL@@QAEJXZ 10004370 f i OposVariant.obj
 0001:000033b0       ?TraceV@CTrace@ATL@@CAXPBDHIIPB_W@Z 100043b0 f i OposVariant.obj
 0001:00003630       ?TraceV@CTrace@ATL@@SAXPBDHIIPB_WPAD@Z 10004630 f i OposVariant.obj
 0001:00003770       ?_AtlInitializeCriticalSectionEx@ATL@@YAHPAU_RTL_CRITICAL_SECTION@@KK@Z 10004770 f i OposVariant.obj
 0001:000037a0       ?_AtlRaiseException@ATL@@YAXKK@Z 100047a0 f i OposVariant.obj
 0001:000037d0       _HRESULT_FROM_WIN32        100047d0 f i OposVariant.obj
 0001:00003810       __vswprintf_s_l            10004810 f i OposVariant.obj
 0001:00003880       _swprintf_s                10004880 f i OposVariant.obj
 0001:000038e0       ?ObjectMain@CComObjectRootBase@ATL@@SGX_N@Z 100048e0 f i SigCap.obj
 0001:000038f0       ?GetCategoryMap@CComObjectRootBase@ATL@@SAPBU_ATL_CATMAP_ENTRY@2@XZ 100048f0 f i SigCap.obj
 0001:00003900       ?GetObjectDescription@?$CComCoClass@VCOPOSSigCap@@$1?CLSID_OPOSSigCap@@3U_GUID@@B@ATL@@SGPB_WXZ 10004900 f i SigCap.obj
 0001:00003910       ?UpdateRegistry@COPOSSigCap@@SGJH@Z 10004910 f i SigCap.obj
 0001:00003930       ?CreateInstance@?$CComCreator@V?$CComObjectCached@VCComClassFactory@ATL@@@ATL@@@ATL@@SGJPAXABU_GUID@@PAPAX@Z 10004930 f i SigCap.obj
 0001:00003ab0       ?CreateInstance@?$CComCreator2@V?$CComCreator@V?$CComObject@VCOPOSSigCap@@@ATL@@@ATL@@V?$CComCreator@V?$CComAggObject@VCOPOSSigCap@@@ATL@@@2@@ATL@@SGJPAXABU_GUID@@PAPAX@Z 10004ab0 f i SigCap.obj
 0001:00003c60       _DllGetClassObject@12      10004c60 f   SigCap.obj
 0001:00003c90       _DllCanUnloadNow@0         10004c90 f   SigCap.obj
 0001:00003cd0       _DllRegisterServer@0       10004cd0 f   SigCap.obj
 0001:00003cf0       _DllUnregisterServer@0     10004cf0 f   SigCap.obj
 0001:00003e80       _DllMain@12                10004e80 f   SigCap.obj
 0001:00003ee0       ??$?2G@Wrapper@?$CSimpleArray@GV?$CSimpleArrayEqualHelper@G@ATL@@@ATL@@SAPAXIPAG@Z 10004ee0 f i SigCap.obj
 0001:00003ef0       ??$?2PA_W@?$Wrapper@PA_W@?$CSimpleMap@PA_WPA_WVCExpansionVectorEqualHelper@ATL@@@ATL@@SAPAXIPAPA_W@Z 10004ef0 f i SigCap.obj
 0001:00003f00       ??$?4UITypeInfo2@@@?$CComPtr@UITypeInfo@@@ATL@@QAEPAUITypeInfo@@ABV?$CComPtr@UITypeInfo2@@@1@@Z 10004f00 f i SigCap.obj
 0001:00003f60       ??$AtlAdd@K@ATL@@YAJPAKKK@Z 10004f60 f i SigCap.obj
 0001:00003fa0       ??$AtlAdd@_K@ATL@@YAJPA_K_K1@Z 10004fa0 f i SigCap.obj
 0001:00004010       ??$AtlAddThrow@K@ATL@@YAKKK@Z 10005010 f i SigCap.obj
 0001:00004090       ??$AtlModuleRegisterWndClassInfoT@VAtlModuleRegisterWndClassInfoParamW@ATL@@@ATL@@YAGPAU_ATL_BASE_MODULE70@0@PAU_ATL_WIN_MODULE70@0@PAU_ATL_WNDCLASSINFOW@0@PAP6GJPAUHWND__@@IIJ@ZVAtlModuleRegisterWndClassInfoParamW@0@@Z 10005090 f i SigCap.obj
 0001:000044a0       ??$AtlMultiply@H@ATL@@YAJPAHHH@Z 100054a0 f i SigCap.obj
 0001:00004520       ??$AtlMultiply@K@ATL@@YAJPAKKK@Z 10005520 f i SigCap.obj
 0001:00004580       ??$AtlMultiplyThrow@I@ATL@@YAIII@Z 10005580 f i SigCap.obj
 0001:00004600       ??$QueryInterface@UIPersistStream@@@IUnknown@@QAGJPAPAUIPersistStream@@@Z 10005600 f i SigCap.obj
 0001:00004630       ??$QueryInterface@UITypeInfo2@@@IUnknown@@QAGJPAPAUITypeInfo2@@@Z 10005630 f i SigCap.obj
 0001:00004660       ??0?$CAtlModuleT@VCComModule@ATL@@@ATL@@QAE@XZ 10005660 f i SigCap.obj
 0001:00004690       ??0?$CAtlSafeAllocBufferManager@VCCRTAllocator@ATL@@@_ATL_SAFE_ALLOCA_IMPL@ATL@@QAE@XZ 10005690 f i SigCap.obj
 0001:000046b0       ??0?$CAutoVectorPtr@_W@ATL@@QAE@XZ 100056b0 f i SigCap.obj
 0001:000046d0       ??0?$CComAggObject@VCOPOSSigCap@@@ATL@@QAE@PAX@Z 100056d0 f i SigCap.obj
 0001:00004740       ??0?$CComContainedObject@VCOPOSSigCap@@@ATL@@QAE@PAX@Z 10005740 f i SigCap.obj
 0001:00004850       ??0?$CComCritSecLock@VCComCriticalSection@ATL@@@ATL@@QAE@AAVCComCriticalSection@1@_N@Z 10005850 f i SigCap.obj
 0001:000048b0       ??0?$CComEnum@UIEnumConnectionPoints@@$1?_GUID_b196b285_bab4_101a_b69c_00aa00341d07@@3U__s_GUID@@BPAUIConnectionPoint@@V?$_CopyInterface@UIConnectionPoint@@@ATL@@VCComSingleThreadModel@6@@ATL@@QAE@XZ 100058b0 f i SigCap.obj
 0001:000048f0       ??0?$CComEnum@UIEnumConnections@@$1?_GUID_b196b287_bab4_101a_b69c_00aa00341d07@@3U__s_GUID@@BUtagCONNECTDATA@@V?$_Copy@UtagCONNECTDATA@@@ATL@@VCComSingleThreadModel@6@@ATL@@QAE@XZ 100058f0 f i SigCap.obj
 0001:00004930       ??0?$CComEnumImpl@UIEnumConnectionPoints@@$1?_GUID_b196b285_bab4_101a_b69c_00aa00341d07@@3U__s_GUID@@BPAUIConnectionPoint@@V?$_CopyInterface@UIConnectionPoint@@@ATL@@@ATL@@QAE@XZ 10005930 f i SigCap.obj
 0001:00004990       ??0?$CComEnumImpl@UIEnumConnections@@$1?_GUID_b196b287_bab4_101a_b69c_00aa00341d07@@3U__s_GUID@@BUtagCONNECTDATA@@V?$_Copy@UtagCONNECTDATA@@@ATL@@@ATL@@QAE@XZ 10005990 f i SigCap.obj
 0001:000049f0       ??0?$CComObject@V?$CComEnum@UIEnumConnectionPoints@@$1?_GUID_b196b285_bab4_101a_b69c_00aa00341d07@@3U__s_GUID@@BPAUIConnectionPoint@@V?$_CopyInterface@UIConnectionPoint@@@ATL@@VCComSingleThreadModel@6@@ATL@@@ATL@@QAE@PAX@Z 100059f0 f i SigCap.obj
 0001:00004a40       ??0?$CComObject@V?$CComEnum@UIEnumConnections@@$1?_GUID_b196b287_bab4_101a_b69c_00aa00341d07@@3U__s_GUID@@BUtagCONNECTDATA@@V?$_Copy@UtagCONNECTDATA@@@ATL@@VCComSingleThreadModel@6@@ATL@@@ATL@@QAE@PAX@Z 10005a40 f i SigCap.obj
 0001:00004a90       ??0?$CComObject@VCOPOSSigCap@@@ATL@@QAE@PAX@Z 10005a90 f i SigCap.obj
 0001:00004bb0       ??0?$CComObjectCached@VCComClassFactory@ATL@@@ATL@@QAE@PAX@Z 10005bb0 f i SigCap.obj
 0001:00004bf0       ??0?$CComObjectRootEx@VCComMultiThreadModel@ATL@@@ATL@@QAE@XZ 10005bf0 f i SigCap.obj
 0001:00004c30       ??0?$CComObjectRootEx@VCComSingleThreadModel@ATL@@@ATL@@QAE@XZ 10005c30 f i SigCap.obj
 0001:00004c60       ??0?$CComPtr@UIAdviseSink@@@ATL@@QAE@PAUIAdviseSink@@@Z 10005c60 f i SigCap.obj
 0001:00004c90       ??0?$CComPtr@UICatRegister@@@ATL@@QAE@XZ 10005c90 f i SigCap.obj
 0001:00004cc0       ??0?$CComPtr@UIConnectionPoint@@@ATL@@QAE@XZ 10005cc0 f i SigCap.obj
 0001:00004cf0       ??0?$CComPtr@UIConnectionPointContainer@@@ATL@@QAE@XZ 10005cf0 f i SigCap.obj
 0001:00004d20       ??0?$CComPtr@UIDataObject@@@ATL@@QAE@XZ 10005d20 f i SigCap.obj
 0001:00004d50       ??0?$CComPtr@UIDispatch@@@ATL@@QAE@XZ 10005d50 f i SigCap.obj
 0001:00004d80       ??0?$CComPtr@UIOleClientSite@@@ATL@@QAE@PAUIOleClientSite@@@Z 10005d80 f i SigCap.obj
 0001:00004db0       ??0?$CComPtr@UIOleControlSite@@@ATL@@QAE@XZ 10005db0 f i SigCap.obj
 0001:00004de0       ??0?$CComPtr@UIOleInPlaceActiveObject@@@ATL@@QAE@XZ 10005de0 f i SigCap.obj
 0001:00004e10       ??0?$CComPtr@UIOleInPlaceFrame@@@ATL@@QAE@XZ 10005e10 f i SigCap.obj
 0001:00004e40       ??0?$CComPtr@UIOleInPlaceObject@@@ATL@@QAE@XZ 10005e40 f i SigCap.obj
 0001:00004e70       ??0?$CComPtr@UIOleInPlaceUIWindow@@@ATL@@QAE@XZ 10005e70 f i SigCap.obj
 0001:00004ea0       ??0?$CComPtr@UIOleObject@@@ATL@@QAE@XZ 10005ea0 f i SigCap.obj
 0001:00004ed0       ??0?$CComPtr@UIPersistStream@@@ATL@@QAE@XZ 10005ed0 f i SigCap.obj
 0001:00004f00       ??0?$CComPtr@UIPersistStreamInit@@@ATL@@QAE@XZ 10005f00 f i SigCap.obj
 0001:00004f30       ??0?$CComPtr@UIPointerInactive@@@ATL@@QAE@XZ 10005f30 f i SigCap.obj
 0001:00004f60       ??0?$CComPtr@UIProvideClassInfo2@@@ATL@@QAE@XZ 10005f60 f i SigCap.obj
 0001:00004f90       ??0?$CComPtr@UISpecifyPropertyPages@@@ATL@@QAE@XZ 10005f90 f i SigCap.obj
 0001:00004fc0       ??0?$CComPtr@UIStream@@@ATL@@QAE@XZ 10005fc0 f i SigCap.obj
 0001:00004ff0       ??0?$CComPtr@UITypeInfo2@@@ATL@@QAE@XZ 10005ff0 f i SigCap.obj
 0001:00005020       ??0?$CComPtr@UITypeInfo@@@ATL@@QAE@ABV01@@Z 10006020 f i SigCap.obj
 0001:00005050       ??0?$CComPtr@UITypeInfo@@@ATL@@QAE@XZ 10006050 f i SigCap.obj
 0001:00005080       ??0?$CComPtr@UITypeLib@@@ATL@@QAE@XZ 10006080 f i SigCap.obj
 0001:000050b0       ??0?$CComPtr@UIUnknown@@@ATL@@QAE@ABV01@@Z 100060b0 f i SigCap.obj
 0001:000050e0       ??0?$CComPtr@UIUnknown@@@ATL@@QAE@PAUIUnknown@@@Z 100060e0 f i SigCap.obj
 0001:00005110       ??0?$CComPtr@UIUnknown@@@ATL@@QAE@XZ 10006110 f i SigCap.obj
 0001:00005140       ??0?$CComPtr@UIViewObjectEx@@@ATL@@QAE@XZ 10006140 f i SigCap.obj
 0001:00005170       ??0?$CComPtrBase@UIAdviseSink@@@ATL@@IAE@PAUIAdviseSink@@@Z 10006170 f i SigCap.obj
 0001:000051c0       ??0?$CComPtrBase@UICatRegister@@@ATL@@IAE@XZ 100061c0 f i SigCap.obj
 0001:000051e0       ??0?$CComPtrBase@UIConnectionPoint@@@ATL@@IAE@XZ 100061e0 f i SigCap.obj
 0001:00005200       ??0?$CComPtrBase@UIConnectionPointContainer@@@ATL@@IAE@XZ 10006200 f i SigCap.obj
 0001:00005220       ??0?$CComPtrBase@UIDataObject@@@ATL@@IAE@XZ 10006220 f i SigCap.obj
 0001:00005240       ??0?$CComPtrBase@UIDispatch@@@ATL@@IAE@XZ 10006240 f i SigCap.obj
 0001:00005260       ??0?$CComPtrBase@UIOleClientSite@@@ATL@@IAE@PAUIOleClientSite@@@Z 10006260 f i SigCap.obj
 0001:000052b0       ??0?$CComPtrBase@UIOleControlSite@@@ATL@@IAE@XZ 100062b0 f i SigCap.obj
 0001:000052d0       ??0?$CComPtrBase@UIOleInPlaceActiveObject@@@ATL@@IAE@XZ 100062d0 f i SigCap.obj
 0001:000052f0       ??0?$CComPtrBase@UIOleInPlaceFrame@@@ATL@@IAE@XZ 100062f0 f i SigCap.obj
 0001:00005310       ??0?$CComPtrBase@UIOleInPlaceObject@@@ATL@@IAE@XZ 10006310 f i SigCap.obj
 0001:00005330       ??0?$CComPtrBase@UIOleInPlaceUIWindow@@@ATL@@IAE@XZ 10006330 f i SigCap.obj
 0001:00005350       ??0?$CComPtrBase@UIOleObject@@@ATL@@IAE@XZ 10006350 f i SigCap.obj
 0001:00005370       ??0?$CComPtrBase@UIPersistStream@@@ATL@@IAE@XZ 10006370 f i SigCap.obj
 0001:00005390       ??0?$CComPtrBase@UIPersistStreamInit@@@ATL@@IAE@XZ 10006390 f i SigCap.obj
 0001:000053b0       ??0?$CComPtrBase@UIPointerInactive@@@ATL@@IAE@XZ 100063b0 f i SigCap.obj
 0001:000053d0       ??0?$CComPtrBase@UIProvideClassInfo2@@@ATL@@IAE@XZ 100063d0 f i SigCap.obj
 0001:000053f0       ??0?$CComPtrBase@UISpecifyPropertyPages@@@ATL@@IAE@XZ 100063f0 f i SigCap.obj
 0001:00005410       ??0?$CComPtrBase@UIStream@@@ATL@@IAE@XZ 10006410 f i SigCap.obj
 0001:00005430       ??0?$CComPtrBase@UITypeInfo2@@@ATL@@IAE@XZ 10006430 f i SigCap.obj
 0001:00005450       ??0?$CComPtrBase@UITypeInfo@@@ATL@@IAE@PAUITypeInfo@@@Z 10006450 f i SigCap.obj
 0001:000054a0       ??0?$CComPtrBase@UITypeInfo@@@ATL@@IAE@XZ 100064a0 f i SigCap.obj
 0001:000054c0       ??0?$CComPtrBase@UITypeLib@@@ATL@@IAE@XZ 100064c0 f i SigCap.obj
 0001:000054e0       ??0?$CComPtrBase@UIUnknown@@@ATL@@IAE@PAUIUnknown@@@Z 100064e0 f i SigCap.obj
 0001:00005530       ??0?$CComPtrBase@UIUnknown@@@ATL@@IAE@XZ 10006530 f i SigCap.obj
 0001:00005550       ??0?$CComPtrBase@UIViewObjectEx@@@ATL@@IAE@XZ 10006550 f i SigCap.obj
 0001:00005570       ??0?$CComQIPtr@UIOleControlSite@@$1?_GUID_b196b289_bab4_101a_b69c_00aa00341d07@@3U__s_GUID@@B@ATL@@QAE@PAUIUnknown@@@Z 10006570 f i SigCap.obj
 0001:000055d0       ??0?$CComQIPtr@UIOleObject@@$1?_GUID_00000112_0000_0000_c000_000000000046@@3U__s_GUID@@B@ATL@@QAE@XZ 100065d0 f i SigCap.obj
 0001:00005600       ??0?$CComQIPtr@UISpecifyPropertyPages@@$1?_GUID_b196b28b_bab4_101a_b69c_00aa00341d07@@3U__s_GUID@@B@ATL@@QAE@XZ 10006600 f i SigCap.obj
 0001:00005630       ??0?$CSimpleMap@PA_WPA_WVCExpansionVectorEqualHelper@ATL@@@ATL@@QAE@XZ 10006630 f i SigCap.obj
 0001:00005660       ??0?$CTempBuffer@E$0BAA@VCCRTAllocator@ATL@@@ATL@@QAE@XZ 10006660 f i SigCap.obj
 0001:00005680       ??0?$CTempBuffer@_W$0BAA@VCCRTAllocator@ATL@@@ATL@@QAE@XZ 10006680 f i SigCap.obj
 0001:000056a0       ??0?$CTempBuffer@_W$0EAA@VCCRTAllocator@ATL@@@ATL@@QAE@XZ 100066a0 f i SigCap.obj
 0001:000056c0       ??0?$Wrapper@PA_W@?$CSimpleMap@PA_WPA_WVCExpansionVectorEqualHelper@ATL@@@ATL@@QAE@ABQA_W@Z 100066c0 f i SigCap.obj
 0001:000056e0       ??0CAtlModule@ATL@@QAE@XZ  100066e0 f i SigCap.obj
 0001:00005800       ??0CComAutoDeleteCriticalSection@ATL@@QAE@XZ 10006800 f i SigCap.obj
 0001:00005830       ??0CComBSTR@ATL@@QAE@XZ    10006830 f i SigCap.obj
 0001:00005850       ??0CComClassFactory@ATL@@QAE@XZ 10006850 f i SigCap.obj
 0001:00005890       ??0CComModule@ATL@@QAE@XZ  10006890 f i SigCap.obj
 0001:00005900       ??0CComObjectRootBase@ATL@@QAE@XZ 10006900 f i SigCap.obj
 0001:00005920       ??0CComSafeDeleteCriticalSection@ATL@@QAE@XZ 10006920 f i SigCap.obj
 0001:00005950       ??0CComVariant@ATL@@QAE@XZ 10006950 f i SigCap.obj
 0001:000059a0       ??0CExpansionVector@ATL@@QAE@XZ 100069a0 f i SigCap.obj
 0001:000059d0       ??0CParseBuffer@CRegParser@ATL@@QAE@H@Z 100069d0 f i SigCap.obj
 0001:00005a40       ??0CRegKey@ATL@@QAE@PAUHKEY__@@@Z 10006a40 f i SigCap.obj
 0001:00005a70       ??0CRegKey@ATL@@QAE@PAVCAtlTransactionManager@1@@Z 10006a70 f i SigCap.obj
 0001:00005aa0       ??0CRegObject@ATL@@QAE@XZ  10006aa0 f i SigCap.obj
 0001:00005ae0       ??0CRegParser@ATL@@QAE@PAVCRegObject@1@@Z 10006ae0 f i SigCap.obj
 0001:00005b10       ??0IClassFactory@@QAE@XZ   10006b10 f i SigCap.obj
 0001:00005b40       ??0IEnumConnectionPoints@@QAE@XZ 10006b40 f i SigCap.obj
 0001:00005b70       ??0IEnumConnections@@QAE@XZ 10006b70 f i SigCap.obj
 0001:00005ba0       ??0IRegistrarBase@@QAE@XZ  10006ba0 f i SigCap.obj
 0001:00005bd0       ??0IUnknown@@QAE@XZ        10006bd0 f i SigCap.obj
 0001:00005be0       ??0ModuleLockHelper@ATL@@QAE@XZ 10006be0 f i SigCap.obj
 0001:00005c20       ??0OposVariant@@QAE@XZ     10006c20 f i SigCap.obj
 0001:00005c40       ??0Wrapper@?$CSimpleArray@GV?$CSimpleArrayEqualHelper@G@ATL@@@ATL@@QAE@ABG@Z 10006c40 f i SigCap.obj
 0001:00005c60       ??0_ATL_MODULE70@ATL@@QAE@XZ 10006c60 f i SigCap.obj
 0001:00005c90       ??0_ATL_MSG@ATL@@QAE@PAUHWND__@@IIJH@Z 10006c90 f i SigCap.obj
 0001:00005d00       ??0_U_MENUorID@ATL@@QAE@I@Z 10006d00 f i SigCap.obj
 0001:00005d20       ??0_U_RECT@ATL@@QAE@AAUtagRECT@@@Z 10006d20 f i SigCap.obj
 0001:00005d40       ??0stringdispid@CComTypeInfoHolder@ATL@@QAE@XZ 10006d40 f i SigCap.obj
 0001:00005d80       ??1?$CAtlModuleT@VCComModule@ATL@@@ATL@@UAE@XZ 10006d80 f i SigCap.obj
 0001:00005db0       ??1?$CAtlSafeAllocBufferManager@VCCRTAllocator@ATL@@@_ATL_SAFE_ALLOCA_IMPL@ATL@@QAE@XZ 10006db0 f i SigCap.obj
 0001:00005e00       ??1?$CAutoVectorPtr@_W@ATL@@QAE@XZ 10006e00 f i SigCap.obj
 0001:00005e30       ??1?$CComAggObject@VCOPOSSigCap@@@ATL@@UAE@XZ 10006e30 f i SigCap.obj
 0001:00005ea0       ??1?$CComContainedObject@VCOPOSSigCap@@@ATL@@UAE@XZ 10006ea0 f i SigCap.obj
 0001:00005ed0       ??1?$CComCritSecLock@VCComCriticalSection@ATL@@@ATL@@QAE@XZ 10006ed0 f i SigCap.obj
 0001:00005f00       ??1?$CComEnum@UIEnumConnectionPoints@@$1?_GUID_b196b285_bab4_101a_b69c_00aa00341d07@@3U__s_GUID@@BPAUIConnectionPoint@@V?$_CopyInterface@UIConnectionPoint@@@ATL@@VCComSingleThreadModel@6@@ATL@@UAE@XZ 10006f00 f i SigCap.obj
 0001:00005f30       ??1?$CComEnum@UIEnumConnections@@$1?_GUID_b196b287_bab4_101a_b69c_00aa00341d07@@3U__s_GUID@@BUtagCONNECTDATA@@V?$_Copy@UtagCONNECTDATA@@@ATL@@VCComSingleThreadModel@6@@ATL@@UAE@XZ 10006f30 f i SigCap.obj
 0001:00005f60       ??1?$CComEnumImpl@UIEnumConnectionPoints@@$1?_GUID_b196b285_bab4_101a_b69c_00aa00341d07@@3U__s_GUID@@BPAUIConnectionPoint@@V?$_CopyInterface@UIConnectionPoint@@@ATL@@@ATL@@UAE@XZ 10006f60 f i SigCap.obj
 0001:00005ff0       ??1?$CComEnumImpl@UIEnumConnections@@$1?_GUID_b196b287_bab4_101a_b69c_00aa00341d07@@3U__s_GUID@@BUtagCONNECTDATA@@V?$_Copy@UtagCONNECTDATA@@@ATL@@@ATL@@UAE@XZ 10006ff0 f i SigCap.obj
 0001:00006080       ??1?$CComObject@V?$CComEnum@UIEnumConnectionPoints@@$1?_GUID_b196b285_bab4_101a_b69c_00aa00341d07@@3U__s_GUID@@BPAUIConnectionPoint@@V?$_CopyInterface@UIConnectionPoint@@@ATL@@VCComSingleThreadModel@6@@ATL@@@ATL@@UAE@XZ 10007080 f i SigCap.obj
 0001:000060e0       ??1?$CComObject@V?$CComEnum@UIEnumConnections@@$1?_GUID_b196b287_bab4_101a_b69c_00aa00341d07@@3U__s_GUID@@BUtagCONNECTDATA@@V?$_Copy@UtagCONNECTDATA@@@ATL@@VCComSingleThreadModel@6@@ATL@@@ATL@@UAE@XZ 100070e0 f i SigCap.obj
 0001:00006140       ??1?$CComObject@VCOPOSSigCap@@@ATL@@UAE@XZ 10007140 f i SigCap.obj
 0001:00006280       ??1?$CComObjectCached@VCComClassFactory@ATL@@@ATL@@UAE@XZ 10007280 f i SigCap.obj
 0001:000062d0       ??1?$CComObjectRootEx@VCComMultiThreadModel@ATL@@@ATL@@QAE@XZ 100072d0 f i SigCap.obj
 0001:00006300       ??1?$CComObjectRootEx@VCComSingleThreadModel@ATL@@@ATL@@QAE@XZ 10007300 f i SigCap.obj
 0001:00006330       ??1?$CComPtr@UIAdviseSink@@@ATL@@QAE@XZ 10007330 f i SigCap.obj
 0001:00006360       ??1?$CComPtr@UICatRegister@@@ATL@@QAE@XZ 10007360 f i SigCap.obj
 0001:00006390       ??1?$CComPtr@UIConnectionPoint@@@ATL@@QAE@XZ 10007390 f i SigCap.obj
 0001:000063c0       ??1?$CComPtr@UIConnectionPointContainer@@@ATL@@QAE@XZ 100073c0 f i SigCap.obj
 0001:000063f0       ??1?$CComPtr@UIDataObject@@@ATL@@QAE@XZ 100073f0 f i SigCap.obj
 0001:00006420       ??1?$CComPtr@UIDispatch@@@ATL@@QAE@XZ 10007420 f i SigCap.obj
 0001:00006450       ??1?$CComPtr@UIOleClientSite@@@ATL@@QAE@XZ 10007450 f i SigCap.obj
 0001:00006480       ??1?$CComPtr@UIOleControlSite@@@ATL@@QAE@XZ 10007480 f i SigCap.obj
 0001:000064b0       ??1?$CComPtr@UIOleInPlaceActiveObject@@@ATL@@QAE@XZ 100074b0 f i SigCap.obj
 0001:000064e0       ??1?$CComPtr@UIOleInPlaceFrame@@@ATL@@QAE@XZ 100074e0 f i SigCap.obj
 0001:00006510       ??1?$CComPtr@UIOleInPlaceObject@@@ATL@@QAE@XZ 10007510 f i SigCap.obj
 0001:00006540       ??1?$CComPtr@UIOleInPlaceUIWindow@@@ATL@@QAE@XZ 10007540 f i SigCap.obj
 0001:00006570       ??1?$CComPtr@UIOleObject@@@ATL@@QAE@XZ 10007570 f i SigCap.obj
 0001:000065a0       ??1?$CComPtr@UIPersistStream@@@ATL@@QAE@XZ 100075a0 f i SigCap.obj
 0001:000065d0       ??1?$CComPtr@UIPersistStreamInit@@@ATL@@QAE@XZ 100075d0 f i SigCap.obj
 0001:00006600       ??1?$CComPtr@UIPointerInactive@@@ATL@@QAE@XZ 10007600 f i SigCap.obj
 0001:00006630       ??1?$CComPtr@UIProvideClassInfo2@@@ATL@@QAE@XZ 10007630 f i SigCap.obj
 0001:00006660       ??1?$CComPtr@UISpecifyPropertyPages@@@ATL@@QAE@XZ 10007660 f i SigCap.obj
 0001:00006690       ??1?$CComPtr@UIStream@@@ATL@@QAE@XZ 10007690 f i SigCap.obj
 0001:000066c0       ??1?$CComPtr@UITypeInfo2@@@ATL@@QAE@XZ 100076c0 f i SigCap.obj
 0001:000066f0       ??1?$CComPtr@UITypeInfo@@@ATL@@QAE@XZ 100076f0 f i SigCap.obj
 0001:00006720       ??1?$CComPtr@UITypeLib@@@ATL@@QAE@XZ 10007720 f i SigCap.obj
 0001:00006750       ??1?$CComPtr@UIUnknown@@@ATL@@QAE@XZ 10007750 f i SigCap.obj
 0001:00006780       ??1?$CComPtr@UIViewObjectEx@@@ATL@@QAE@XZ 10007780 f i SigCap.obj
 0001:000067b0       ??1?$CComPtrBase@UIAdviseSink@@@ATL@@QAE@XZ 100077b0 f i SigCap.obj
 0001:00006800       ??1?$CComPtrBase@UICatRegister@@@ATL@@QAE@XZ 10007800 f i SigCap.obj
 0001:00006850       ??1?$CComPtrBase@UIConnectionPoint@@@ATL@@QAE@XZ 10007850 f i SigCap.obj
 0001:000068a0       ??1?$CComPtrBase@UIConnectionPointContainer@@@ATL@@QAE@XZ 100078a0 f i SigCap.obj
 0001:000068f0       ??1?$CComPtrBase@UIDataObject@@@ATL@@QAE@XZ 100078f0 f i SigCap.obj
 0001:00006940       ??1?$CComPtrBase@UIDispatch@@@ATL@@QAE@XZ 10007940 f i SigCap.obj
 0001:00006990       ??1?$CComPtrBase@UIOleClientSite@@@ATL@@QAE@XZ 10007990 f i SigCap.obj
 0001:000069e0       ??1?$CComPtrBase@UIOleControlSite@@@ATL@@QAE@XZ 100079e0 f i SigCap.obj
 0001:00006a30       ??1?$CComPtrBase@UIOleInPlaceActiveObject@@@ATL@@QAE@XZ 10007a30 f i SigCap.obj
 0001:00006a80       ??1?$CComPtrBase@UIOleInPlaceFrame@@@ATL@@QAE@XZ 10007a80 f i SigCap.obj
 0001:00006ad0       ??1?$CComPtrBase@UIOleInPlaceObject@@@ATL@@QAE@XZ 10007ad0 f i SigCap.obj
 0001:00006b20       ??1?$CComPtrBase@UIOleInPlaceUIWindow@@@ATL@@QAE@XZ 10007b20 f i SigCap.obj
 0001:00006b70       ??1?$CComPtrBase@UIOleObject@@@ATL@@QAE@XZ 10007b70 f i SigCap.obj
 0001:00006bc0       ??1?$CComPtrBase@UIPersistStream@@@ATL@@QAE@XZ 10007bc0 f i SigCap.obj
 0001:00006c10       ??1?$CComPtrBase@UIPersistStreamInit@@@ATL@@QAE@XZ 10007c10 f i SigCap.obj
 0001:00006c60       ??1?$CComPtrBase@UIPointerInactive@@@ATL@@QAE@XZ 10007c60 f i SigCap.obj
 0001:00006cb0       ??1?$CComPtrBase@UIProvideClassInfo2@@@ATL@@QAE@XZ 10007cb0 f i SigCap.obj
 0001:00006d00       ??1?$CComPtrBase@UISpecifyPropertyPages@@@ATL@@QAE@XZ 10007d00 f i SigCap.obj
 0001:00006d50       ??1?$CComPtrBase@UIStream@@@ATL@@QAE@XZ 10007d50 f i SigCap.obj
 0001:00006da0       ??1?$CComPtrBase@UITypeInfo2@@@ATL@@QAE@XZ 10007da0 f i SigCap.obj
 0001:00006df0       ??1?$CComPtrBase@UITypeInfo@@@ATL@@QAE@XZ 10007df0 f i SigCap.obj
 0001:00006e40       ??1?$CComPtrBase@UITypeLib@@@ATL@@QAE@XZ 10007e40 f i SigCap.obj
 0001:00006e90       ??1?$CComPtrBase@UIUnknown@@@ATL@@QAE@XZ 10007e90 f i SigCap.obj
 0001:00006ee0       ??1?$CComPtrBase@UIViewObjectEx@@@ATL@@QAE@XZ 10007ee0 f i SigCap.obj
 0001:00006f30       ??1?$CComQIPtr@UIOleControlSite@@$1?_GUID_b196b289_bab4_101a_b69c_00aa00341d07@@3U__s_GUID@@B@ATL@@QAE@XZ 10007f30 f i SigCap.obj
 0001:00006f60       ??1?$CComQIPtr@UIOleObject@@$1?_GUID_00000112_0000_0000_c000_000000000046@@3U__s_GUID@@B@ATL@@QAE@XZ 10007f60 f i SigCap.obj
 0001:00006f90       ??1?$CComQIPtr@UISpecifyPropertyPages@@$1?_GUID_b196b28b_bab4_101a_b69c_00aa00341d07@@3U__s_GUID@@B@ATL@@QAE@XZ 10007f90 f i SigCap.obj
 0001:00006fc0       ??1?$CSimpleMap@PA_WPA_WVCExpansionVectorEqualHelper@ATL@@@ATL@@QAE@XZ 10007fc0 f i SigCap.obj
 0001:00006ff0       ??1?$CTempBuffer@E$0BAA@VCCRTAllocator@ATL@@@ATL@@QAE@XZ 10007ff0 f i SigCap.obj
 0001:00007030       ??1?$CTempBuffer@_W$0BAA@VCCRTAllocator@ATL@@@ATL@@QAE@XZ 10008030 f i SigCap.obj
 0001:00007070       ??1?$CTempBuffer@_W$0EAA@VCCRTAllocator@ATL@@@ATL@@QAE@XZ 10008070 f i SigCap.obj
 0001:000070b0       ??1CAtlModule@ATL@@UAE@XZ  100080b0 f i SigCap.obj
 0001:000070e0       ??1CComAutoDeleteCriticalSection@ATL@@QAE@XZ 100080e0 f i SigCap.obj
 0001:00007110       ??1CComClassFactory@ATL@@UAE@XZ 10008110 f i SigCap.obj
 0001:00007140       ??1CComModule@ATL@@UAE@XZ  10008140 f i SigCap.obj
 0001:00007170       ??1CComObjectRootBase@ATL@@QAE@XZ 10008170 f i SigCap.obj
 0001:00007180       ??1CComSafeDeleteCriticalSection@ATL@@QAE@XZ 10008180 f i SigCap.obj
 0001:000071c0       ??1CComVariant@ATL@@QAE@XZ 100081c0 f i SigCap.obj
 0001:00007220       ??1CExpansionVector@ATL@@QAE@XZ 10008220 f i SigCap.obj
 0001:00007250       ??1CParseBuffer@CRegParser@ATL@@QAE@XZ 10008250 f i SigCap.obj
 0001:00007290       ??1CRegKey@ATL@@QAE@XZ     10008290 f i SigCap.obj
 0001:000072c0       ??1CRegObject@ATL@@UAE@XZ  100082c0 f i SigCap.obj
 0001:00007300       ??1ModuleLockHelper@ATL@@QAE@XZ 10008300 f i SigCap.obj
 0001:00007340       ??1OposVariant@@QAE@XZ     10008340 f i SigCap.obj
 0001:00007370       ??1_ATL_MODULE70@ATL@@QAE@XZ 10008370 f i SigCap.obj
 0001:000073a0       ??4?$CComPtr@UIAdviseSink@@@ATL@@QAEPAUIAdviseSink@@PAU2@@Z 100083a0 f i SigCap.obj
 0001:00007400       ??4?$CComPtr@UIOleClientSite@@@ATL@@QAEPAUIOleClientSite@@PAU2@@Z 10008400 f i SigCap.obj
 0001:00007460       ??4?$CComPtr@UIUnknown@@@ATL@@QAEPAUIUnknown@@PAU2@@Z 10008460 f i SigCap.obj
 0001:000074c0       ??4?$CComQIPtr@UIOleObject@@$1?_GUID_00000112_0000_0000_c000_000000000046@@3U__s_GUID@@B@ATL@@QAEPAUIOleObject@@PAUIUnknown@@@Z 100084c0 f i SigCap.obj
 0001:00007510       ??4?$CComQIPtr@UISpecifyPropertyPages@@$1?_GUID_b196b28b_bab4_101a_b69c_00aa00341d07@@3U__s_GUID@@B@ATL@@QAEPAUISpecifyPropertyPages@@PAUIUnknown@@@Z 10008510 f i SigCap.obj
 0001:00007560       ??7?$CComPtrBase@UIOleClientSite@@@ATL@@QBE_NXZ 10008560 f i SigCap.obj
 0001:00007590       ??7?$CComPtrBase@UIOleInPlaceSiteWindowless@@@ATL@@QBE_NXZ 10008590 f i SigCap.obj
 0001:000075c0       ??7CComBSTR@ATL@@QBE_NXZ   100085c0 f i SigCap.obj
 0001:000075f0       ??8?$CComPtrBase@UIConnectionPointContainer@@@ATL@@QBE_NPAUIConnectionPointContainer@@@Z 100085f0 f i SigCap.obj
 0001:00007620       ??8?$CComPtrBase@UIDataAdviseHolder@@@ATL@@QBE_NPAUIDataAdviseHolder@@@Z 10008620 f i SigCap.obj
 0001:00007650       ??8?$CComPtrBase@UIOleAdviseHolder@@@ATL@@QBE_NPAUIOleAdviseHolder@@@Z 10008650 f i SigCap.obj
 0001:00007680       ??8?$CComPtrBase@UIOleClientSite@@@ATL@@QBE_NPAUIOleClientSite@@@Z 10008680 f i SigCap.obj
 0001:000076b0       ??8?$CComPtrBase@UIOleControlSite@@@ATL@@QBE_NPAUIOleControlSite@@@Z 100086b0 f i SigCap.obj
 0001:000076e0       ??8?$CComPtrBase@UIOleInPlaceObject@@@ATL@@QBE_NPAUIOleInPlaceObject@@@Z 100086e0 f i SigCap.obj
 0001:00007710       ??8?$CComPtrBase@UIOleInPlaceSiteWindowless@@@ATL@@QBE_NPAUIOleInPlaceSiteWindowless@@@Z 10008710 f i SigCap.obj
 0001:00007740       ??8?$CComPtrBase@UIOleObject@@@ATL@@QBE_NPAUIOleObject@@@Z 10008740 f i SigCap.obj
 0001:00007770       ??8?$CComPtrBase@UIPersistStream@@@ATL@@QBE_NPAUIPersistStream@@@Z 10008770 f i SigCap.obj
 0001:000077a0       ??8?$CComPtrBase@UIPersistStreamInit@@@ATL@@QBE_NPAUIPersistStreamInit@@@Z 100087a0 f i SigCap.obj
 0001:000077d0       ??8?$CComPtrBase@UIPointerInactive@@@ATL@@QBE_NPAUIPointerInactive@@@Z 100087d0 f i SigCap.obj
 0001:00007800       ??8?$CComPtrBase@UIUnknown@@@ATL@@QBE_NPAUIUnknown@@@Z 10008800 f i SigCap.obj
 0001:00007830       ??8?$CComPtrBase@UIViewObjectEx@@@ATL@@QBE_NPAUIViewObjectEx@@@Z 10008830 f i SigCap.obj
 0001:00007860       ??8CComBSTR@ATL@@QBE_NH@Z  10008860 f i SigCap.obj
 0001:000078c0       ??9?$CComPtrBase@UIConnectionPointContainer@@@ATL@@QBE_NPAUIConnectionPointContainer@@@Z 100088c0 f i SigCap.obj
 0001:00007910       ??9?$CComPtrBase@UIDataAdviseHolder@@@ATL@@QBE_NPAUIDataAdviseHolder@@@Z 10008910 f i SigCap.obj
 0001:00007960       ??9?$CComPtrBase@UIOleAdviseHolder@@@ATL@@QBE_NPAUIOleAdviseHolder@@@Z 10008960 f i SigCap.obj
 0001:000079b0       ??9?$CComPtrBase@UIOleClientSite@@@ATL@@QBE_NPAUIOleClientSite@@@Z 100089b0 f i SigCap.obj
 0001:00007a00       ??9?$CComPtrBase@UIOleControlSite@@@ATL@@QBE_NPAUIOleControlSite@@@Z 10008a00 f i SigCap.obj
 0001:00007a50       ??9?$CComPtrBase@UIOleInPlaceObject@@@ATL@@QBE_NPAUIOleInPlaceObject@@@Z 10008a50 f i SigCap.obj
 0001:00007aa0       ??9?$CComPtrBase@UIOleInPlaceSiteWindowless@@@ATL@@QBE_NPAUIOleInPlaceSiteWindowless@@@Z 10008aa0 f i SigCap.obj
 0001:00007af0       ??9?$CComPtrBase@UIOleObject@@@ATL@@QBE_NPAUIOleObject@@@Z 10008af0 f i SigCap.obj
 0001:00007b40       ??9?$CComPtrBase@UIPersistStream@@@ATL@@QBE_NPAUIPersistStream@@@Z 10008b40 f i SigCap.obj
 0001:00007b90       ??9?$CComPtrBase@UIPersistStreamInit@@@ATL@@QBE_NPAUIPersistStreamInit@@@Z 10008b90 f i SigCap.obj
 0001:00007be0       ??9?$CComPtrBase@UIPointerInactive@@@ATL@@QBE_NPAUIPointerInactive@@@Z 10008be0 f i SigCap.obj
 0001:00007c30       ??9?$CComPtrBase@UIUnknown@@@ATL@@QBE_NPAUIUnknown@@@Z 10008c30 f i SigCap.obj
 0001:00007c80       ??9?$CComPtrBase@UIViewObjectEx@@@ATL@@QBE_NPAUIViewObjectEx@@@Z 10008c80 f i SigCap.obj
 0001:00007cd0       ??9CComBSTR@ATL@@QBE_NH@Z  10008cd0 f i SigCap.obj
 0001:00007d20       ??B?$CComPtrBase@UIAdviseSink@@@ATL@@QBEPAUIAdviseSink@@XZ 10008d20 f i SigCap.obj
 0001:00007d30       ??B?$CComPtrBase@UIDataAdviseHolder@@@ATL@@QBEPAUIDataAdviseHolder@@XZ 10008d30 f i SigCap.obj
 0001:00007d40       ??B?$CComPtrBase@UIDataObject@@@ATL@@QBEPAUIDataObject@@XZ 10008d40 f i SigCap.obj
 0001:00007d50       ??B?$CComPtrBase@UIOleAdviseHolder@@@ATL@@QBEPAUIOleAdviseHolder@@XZ 10008d50 f i SigCap.obj
 0001:00007d60       ??B?$CComPtrBase@UIOleClientSite@@@ATL@@QBEPAUIOleClientSite@@XZ 10008d60 f i SigCap.obj
 0001:00007d70       ??B?$CComPtrBase@UIOleControlSite@@@ATL@@QBEPAUIOleControlSite@@XZ 10008d70 f i SigCap.obj
 0001:00007d80       ??B?$CComPtrBase@UIOleInPlaceActiveObject@@@ATL@@QBEPAUIOleInPlaceActiveObject@@XZ 10008d80 f i SigCap.obj
 0001:00007d90       ??B?$CComPtrBase@UIOleInPlaceFrame@@@ATL@@QBEPAUIOleInPlaceFrame@@XZ 10008d90 f i SigCap.obj
 0001:00007da0       ??B?$CComPtrBase@UIOleInPlaceSiteWindowless@@@ATL@@QBEPAUIOleInPlaceSiteWindowless@@XZ 10008da0 f i SigCap.obj
 0001:00007db0       ??B?$CComPtrBase@UIOleInPlaceUIWindow@@@ATL@@QBEPAUIOleInPlaceUIWindow@@XZ 10008db0 f i SigCap.obj
 0001:00007dc0       ??B?$CComPtrBase@UIOleObject@@@ATL@@QBEPAUIOleObject@@XZ 10008dc0 f i SigCap.obj
 0001:00007dd0       ??B?$CComPtrBase@UIPersistStream@@@ATL@@QBEPAUIPersistStream@@XZ 10008dd0 f i SigCap.obj
 0001:00007de0       ??B?$CComPtrBase@UIProvideClassInfo2@@@ATL@@QBEPAUIProvideClassInfo2@@XZ 10008de0 f i SigCap.obj
 0001:00007df0       ??B?$CComPtrBase@UISpecifyPropertyPages@@@ATL@@QBEPAUISpecifyPropertyPages@@XZ 10008df0 f i SigCap.obj
 0001:00007e00       ??B?$CComPtrBase@UIStream@@@ATL@@QBEPAUIStream@@XZ 10008e00 f i SigCap.obj
 0001:00007e10       ??B?$CComPtrBase@UITypeInfo2@@@ATL@@QBEPAUITypeInfo2@@XZ 10008e10 f i SigCap.obj
 0001:00007e20       ??B?$CComPtrBase@UITypeInfo@@@ATL@@QBEPAUITypeInfo@@XZ 10008e20 f i SigCap.obj
 0001:00007e30       ??B?$CComPtrBase@UITypeLib@@@ATL@@QBEPAUITypeLib@@XZ 10008e30 f i SigCap.obj
 0001:00007e40       ??B?$CComPtrBase@UIUnknown@@@ATL@@QBEPAUIUnknown@@XZ 10008e40 f i SigCap.obj
 0001:00007e50       ??B?$CTempBuffer@E$0BAA@VCCRTAllocator@ATL@@@ATL@@QBEPAEXZ 10008e50 f i SigCap.obj
 0001:00007e60       ??B?$CTempBuffer@_W$0BAA@VCCRTAllocator@ATL@@@ATL@@QBEPA_WXZ 10008e60 f i SigCap.obj
 0001:00007e70       ??B?$CTempBuffer@_W$0EAA@VCCRTAllocator@ATL@@@ATL@@QBEPA_WXZ 10008e70 f i SigCap.obj
 0001:00007e80       ??B?$CTraceCategoryEx@$00$0A@@ATL@@QAEIXZ 10008e80 f i SigCap.obj
 0001:00007e90       ??B?$CTraceCategoryEx@$07$0A@@ATL@@QAEIXZ 10008e90 f i SigCap.obj
 0001:00007ea0       ??B?$CTraceCategoryEx@$0CAAA@$0A@@ATL@@QAEIXZ 10008ea0 f i SigCap.obj
 0001:00007eb0       ??B?$CTraceCategoryEx@$0EA@$0A@@ATL@@QAEIXZ 10008eb0 f i SigCap.obj
 0001:00007ec0       ??B?$CTraceCategoryEx@$0IAA@$0A@@ATL@@QAEIXZ 10008ec0 f i SigCap.obj
 0001:00007ed0       ??BCComBSTR@ATL@@QBEPA_WXZ 10008ed0 f i SigCap.obj
 0001:00007ee0       ??BCRegKey@ATL@@QBEPAUHKEY__@@XZ 10008ee0 f i SigCap.obj
 0001:00007ef0       ??C?$CComPtrBase@UIAdviseSink@@@ATL@@QBEPAV?$_NoAddRefReleaseOnCComPtr@UIAdviseSink@@@1@XZ 10008ef0 f i SigCap.obj
 0001:00007f40       ??C?$CComPtrBase@UICatRegister@@@ATL@@QBEPAV?$_NoAddRefReleaseOnCComPtr@UICatRegister@@@1@XZ 10008f40 f i SigCap.obj
 0001:00007f90       ??C?$CComPtrBase@UIConnectionPoint@@@ATL@@QBEPAV?$_NoAddRefReleaseOnCComPtr@UIConnectionPoint@@@1@XZ 10008f90 f i SigCap.obj
 0001:00007fe0       ??C?$CComPtrBase@UIConnectionPointContainer@@@ATL@@QBEPAV?$_NoAddRefReleaseOnCComPtr@UIConnectionPointContainer@@@1@XZ 10008fe0 f i SigCap.obj
 0001:00008030       ??C?$CComPtrBase@UIDataAdviseHolder@@@ATL@@QBEPAV?$_NoAddRefReleaseOnCComPtr@UIDataAdviseHolder@@@1@XZ 10009030 f i SigCap.obj
 0001:00008080       ??C?$CComPtrBase@UIOleAdviseHolder@@@ATL@@QBEPAV?$_NoAddRefReleaseOnCComPtr@UIOleAdviseHolder@@@1@XZ 10009080 f i SigCap.obj
 0001:000080d0       ??C?$CComPtrBase@UIOleClientSite@@@ATL@@QBEPAV?$_NoAddRefReleaseOnCComPtr@UIOleClientSite@@@1@XZ 100090d0 f i SigCap.obj
 0001:00008120       ??C?$CComPtrBase@UIOleControlSite@@@ATL@@QBEPAV?$_NoAddRefReleaseOnCComPtr@UIOleControlSite@@@1@XZ 10009120 f i SigCap.obj
 0001:00008170       ??C?$CComPtrBase@UIOleInPlaceFrame@@@ATL@@QBEPAV?$_NoAddRefReleaseOnCComPtr@UIOleInPlaceFrame@@@1@XZ 10009170 f i SigCap.obj
 0001:000081c0       ??C?$CComPtrBase@UIOleInPlaceObject@@@ATL@@QBEPAV?$_NoAddRefReleaseOnCComPtr@UIOleInPlaceObject@@@1@XZ 100091c0 f i SigCap.obj
 0001:00008210       ??C?$CComPtrBase@UIOleInPlaceSiteWindowless@@@ATL@@QBEPAV?$_NoAddRefReleaseOnCComPtr@UIOleInPlaceSiteWindowless@@@1@XZ 10009210 f i SigCap.obj
 0001:00008260       ??C?$CComPtrBase@UIOleInPlaceUIWindow@@@ATL@@QBEPAV?$_NoAddRefReleaseOnCComPtr@UIOleInPlaceUIWindow@@@1@XZ 10009260 f i SigCap.obj
 0001:000082b0       ??C?$CComPtrBase@UIOleObject@@@ATL@@QBEPAV?$_NoAddRefReleaseOnCComPtr@UIOleObject@@@1@XZ 100092b0 f i SigCap.obj
 0001:00008300       ??C?$CComPtrBase@UIPersistStream@@@ATL@@QBEPAV?$_NoAddRefReleaseOnCComPtr@UIPersistStream@@@1@XZ 10009300 f i SigCap.obj
 0001:00008350       ??C?$CComPtrBase@UIPersistStreamInit@@@ATL@@QBEPAV?$_NoAddRefReleaseOnCComPtr@UIPersistStreamInit@@@1@XZ 10009350 f i SigCap.obj
 0001:000083a0       ??C?$CComPtrBase@UIPointerInactive@@@ATL@@QBEPAV?$_NoAddRefReleaseOnCComPtr@UIPointerInactive@@@1@XZ 100093a0 f i SigCap.obj
 0001:000083f0       ??C?$CComPtrBase@UIProvideClassInfo2@@@ATL@@QBEPAV?$_NoAddRefReleaseOnCComPtr@UIProvideClassInfo2@@@1@XZ 100093f0 f i SigCap.obj
 0001:00008440       ??C?$CComPtrBase@UISpecifyPropertyPages@@@ATL@@QBEPAV?$_NoAddRefReleaseOnCComPtr@UISpecifyPropertyPages@@@1@XZ 10009440 f i SigCap.obj
 0001:00008490       ??C?$CComPtrBase@UITypeInfo@@@ATL@@QBEPAV?$_NoAddRefReleaseOnCComPtr@UITypeInfo@@@1@XZ 10009490 f i SigCap.obj
 0001:000084e0       ??C?$CComPtrBase@UITypeLib@@@ATL@@QBEPAV?$_NoAddRefReleaseOnCComPtr@UITypeLib@@@1@XZ 100094e0 f i SigCap.obj
 0001:00008530       ??C?$CComPtrBase@UIUnknown@@@ATL@@QBEPAV?$_NoAddRefReleaseOnCComPtr@UIUnknown@@@1@XZ 10009530 f i SigCap.obj
 0001:00008580       ??C?$CComPtrBase@UIViewObjectEx@@@ATL@@QBEPAV?$_NoAddRefReleaseOnCComPtr@UIViewObjectEx@@@1@XZ 10009580 f i SigCap.obj
 0001:000085d0       ??I?$CComPtrBase@UICatRegister@@@ATL@@QAEPAPAUICatRegister@@XZ 100095d0 f i SigCap.obj
 0001:00008620       ??I?$CComPtrBase@UIConnectionPoint@@@ATL@@QAEPAPAUIConnectionPoint@@XZ 10009620 f i SigCap.obj
 0001:00008670       ??I?$CComPtrBase@UIConnectionPointContainer@@@ATL@@QAEPAPAUIConnectionPointContainer@@XZ 10009670 f i SigCap.obj
 0001:000086c0       ??I?$CComPtrBase@UIDataAdviseHolder@@@ATL@@QAEPAPAUIDataAdviseHolder@@XZ 100096c0 f i SigCap.obj
 0001:00008710       ??I?$CComPtrBase@UIDataObject@@@ATL@@QAEPAPAUIDataObject@@XZ 10009710 f i SigCap.obj
 0001:00008760       ??I?$CComPtrBase@UIDispatch@@@ATL@@QAEPAPAUIDispatch@@XZ 10009760 f i SigCap.obj
 0001:000087b0       ??I?$CComPtrBase@UIOleAdviseHolder@@@ATL@@QAEPAPAUIOleAdviseHolder@@XZ 100097b0 f i SigCap.obj
 0001:00008800       ??I?$CComPtrBase@UIOleControlSite@@@ATL@@QAEPAPAUIOleControlSite@@XZ 10009800 f i SigCap.obj
 0001:00008850       ??I?$CComPtrBase@UIOleInPlaceActiveObject@@@ATL@@QAEPAPAUIOleInPlaceActiveObject@@XZ 10009850 f i SigCap.obj
 0001:000088a0       ??I?$CComPtrBase@UIOleInPlaceFrame@@@ATL@@QAEPAPAUIOleInPlaceFrame@@XZ 100098a0 f i SigCap.obj
 0001:000088f0       ??I?$CComPtrBase@UIOleInPlaceObject@@@ATL@@QAEPAPAUIOleInPlaceObject@@XZ 100098f0 f i SigCap.obj
 0001:00008940       ??I?$CComPtrBase@UIOleInPlaceSiteWindowless@@@ATL@@QAEPAPAUIOleInPlaceSiteWindowless@@XZ 10009940 f i SigCap.obj
 0001:00008990       ??I?$CComPtrBase@UIOleInPlaceUIWindow@@@ATL@@QAEPAPAUIOleInPlaceUIWindow@@XZ 10009990 f i SigCap.obj
 0001:000089e0       ??I?$CComPtrBase@UIOleObject@@@ATL@@QAEPAPAUIOleObject@@XZ 100099e0 f i SigCap.obj
 0001:00008a30       ??I?$CComPtrBase@UIPersistStream@@@ATL@@QAEPAPAUIPersistStream@@XZ 10009a30 f i SigCap.obj
 0001:00008a80       ??I?$CComPtrBase@UIPointerInactive@@@ATL@@QAEPAPAUIPointerInactive@@XZ 10009a80 f i SigCap.obj
 0001:00008ad0       ??I?$CComPtrBase@UIProvideClassInfo2@@@ATL@@QAEPAPAUIProvideClassInfo2@@XZ 10009ad0 f i SigCap.obj
 0001:00008b20       ??I?$CComPtrBase@UIStream@@@ATL@@QAEPAPAUIStream@@XZ 10009b20 f i SigCap.obj
 0001:00008b70       ??I?$CComPtrBase@UITypeInfo2@@@ATL@@QAEPAPAUITypeInfo2@@XZ 10009b70 f i SigCap.obj
 0001:00008bc0       ??I?$CComPtrBase@UITypeInfo@@@ATL@@QAEPAPAUITypeInfo@@XZ 10009bc0 f i SigCap.obj
 0001:00008c10       ??I?$CComPtrBase@UITypeLib@@@ATL@@QAEPAPAUITypeLib@@XZ 10009c10 f i SigCap.obj
 0001:00008c60       ??I?$CComPtrBase@UIUnknown@@@ATL@@QAEPAPAUIUnknown@@XZ 10009c60 f i SigCap.obj
 0001:00008cb0       ??I?$CComPtrBase@UIViewObjectEx@@@ATL@@QAEPAPAUIViewObjectEx@@XZ 10009cb0 f i SigCap.obj
 0001:00008d00       ??ICComBSTR@ATL@@QAEPAPA_WXZ 10009d00 f i SigCap.obj
 0001:00008d0e       ??_E?$CComContainedObject@VCOPOSSigCap@@@ATL@@W3AEPAXI@Z 10009d0e f i SigCap.obj
 0001:00008d16       ??_E?$CComContainedObject@VCOPOSSigCap@@@ATL@@WEM@AEPAXI@Z 10009d16 f i SigCap.obj
 0001:00008d1e       ??_E?$CComObject@VCOPOSSigCap@@@ATL@@W3AEPAXI@Z 10009d1e f i SigCap.obj
 0001:00008d26       ??_E?$CComObject@VCOPOSSigCap@@@ATL@@WEM@AEPAXI@Z 10009d26 f i SigCap.obj
 0001:00008d30       ??_E?$CComAggObject@VCOPOSSigCap@@@ATL@@UAEPAXI@Z 10009d30 f i SigCap.obj
 0001:00008d30       ??_G?$CComAggObject@VCOPOSSigCap@@@ATL@@UAEPAXI@Z 10009d30 f i SigCap.obj
 0001:00008d80       ??_E?$CComContainedObject@VCOPOSSigCap@@@ATL@@UAEPAXI@Z 10009d80 f i SigCap.obj
 0001:00008d80       ??_G?$CComContainedObject@VCOPOSSigCap@@@ATL@@UAEPAXI@Z 10009d80 f i SigCap.obj
 0001:00008dd0       ??_E?$CComObject@V?$CComEnum@UIEnumConnectionPoints@@$1?_GUID_b196b285_bab4_101a_b69c_00aa00341d07@@3U__s_GUID@@BPAUIConnectionPoint@@V?$_CopyInterface@UIConnectionPoint@@@ATL@@VCComSingleThreadModel@6@@ATL@@@ATL@@UAEPAXI@Z 10009dd0 f i SigCap.obj
 0001:00008dd0       ??_G?$CComObject@V?$CComEnum@UIEnumConnectionPoints@@$1?_GUID_b196b285_bab4_101a_b69c_00aa00341d07@@3U__s_GUID@@BPAUIConnectionPoint@@V?$_CopyInterface@UIConnectionPoint@@@ATL@@VCComSingleThreadModel@6@@ATL@@@ATL@@UAEPAXI@Z 10009dd0 f i SigCap.obj
 0001:00008e10       ??_G?$CComObject@V?$CComEnum@UIEnumConnections@@$1?_GUID_b196b287_bab4_101a_b69c_00aa00341d07@@3U__s_GUID@@BUtagCONNECTDATA@@V?$_Copy@UtagCONNECTDATA@@@ATL@@VCComSingleThreadModel@6@@ATL@@@ATL@@UAEPAXI@Z 10009e10 f i SigCap.obj
 0001:00008e10       ??_E?$CComObject@V?$CComEnum@UIEnumConnections@@$1?_GUID_b196b287_bab4_101a_b69c_00aa00341d07@@3U__s_GUID@@BUtagCONNECTDATA@@V?$_Copy@UtagCONNECTDATA@@@ATL@@VCComSingleThreadModel@6@@ATL@@@ATL@@UAEPAXI@Z 10009e10 f i SigCap.obj
 0001:00008e50       ??_G?$CComObject@VCOPOSSigCap@@@ATL@@UAEPAXI@Z 10009e50 f i SigCap.obj
 0001:00008e50       ??_E?$CComObject@VCOPOSSigCap@@@ATL@@UAEPAXI@Z 10009e50 f i SigCap.obj
 0001:00008ea0       ??_G?$CComObjectCached@VCComClassFactory@ATL@@@ATL@@UAEPAXI@Z 10009ea0 f i SigCap.obj
 0001:00008ea0       ??_E?$CComObjectCached@VCComClassFactory@ATL@@@ATL@@UAEPAXI@Z 10009ea0 f i SigCap.obj
 0001:00008ee0       ??_GCComClassFactory@ATL@@UAEPAXI@Z 10009ee0 f i SigCap.obj
 0001:00008ee0       ??_ECComClassFactory@ATL@@UAEPAXI@Z 10009ee0 f i SigCap.obj
 0001:00008f20       ??_ECComModule@ATL@@UAEPAXI@Z 10009f20 f i SigCap.obj
 0001:00008f20       ??_GCComModule@ATL@@UAEPAXI@Z 10009f20 f i SigCap.obj
 0001:00008f60       ??_GCRegObject@ATL@@UAEPAXI@Z 10009f60 f i SigCap.obj
 0001:00008f60       ??_ECRegObject@ATL@@UAEPAXI@Z 10009f60 f i SigCap.obj
 0001:00008fa0       ?Add@?$CSimpleArray@GV?$CSimpleArrayEqualHelper@G@ATL@@@ATL@@QAEHABG@Z 10009fa0 f i SigCap.obj
 0001:000090f0       ?Add@?$CSimpleMap@PA_WPA_WVCExpansionVectorEqualHelper@ATL@@@ATL@@QAEHABQA_W0@Z 1000a0f0 f i SigCap.obj
 0001:000091b0       ?Add@CComDynamicUnkArray@ATL@@QAEKPAUIUnknown@@@Z 1000a1b0 f i SigCap.obj
 0001:00009350       ?Add@CExpansionVector@ATL@@QAEHPB_W0@Z 1000a350 f i SigCap.obj
 0001:000095e0       ?AddChar@CParseBuffer@CRegParser@ATL@@QAEHPB_W@Z 1000a5e0 f i SigCap.obj
 0001:00009620       ?AddCommonRGSReplacements@?$CAtlModuleT@VCComModule@ATL@@@ATL@@UAEJPAUIRegistrarBase@@@Z 1000a620 f i SigCap.obj
 0001:00009670       ?AddCreateWndData@CAtlWinModule@ATL@@QAEXPAU_AtlCreateWndData@2@PAX@Z 1000a670 f i SigCap.obj
 0001:000096a0       ?AddRef@?$CComAggObject@VCOPOSSigCap@@@ATL@@UAGKXZ 1000a6a0 f i SigCap.obj
 0001:000096c0       ?AddRef@?$CComContainedObject@VCOPOSSigCap@@@ATL@@UAGKXZ 1000a6c0 f i SigCap.obj
 0001:000096dc       ?AddRef@?$CComContainedObject@VCOPOSSigCap@@@ATL@@WHA@AGKXZ 1000a6dc f i SigCap.obj
 0001:000096e6       ?AddRef@?$CComContainedObject@VCOPOSSigCap@@@ATL@@WHE@AGKXZ 1000a6e6 f i SigCap.obj
 0001:000096f0       ?AddRef@?$CComContainedObject@VCOPOSSigCap@@@ATL@@WHI@AGKXZ 1000a6f0 f i SigCap.obj
 0001:000096fa       ?AddRef@?$CComContainedObject@VCOPOSSigCap@@@ATL@@WHM@AGKXZ 1000a6fa f i SigCap.obj
 0001:00009704       ?AddRef@?$CComContainedObject@VCOPOSSigCap@@@ATL@@WIA@AGKXZ 1000a704 f i SigCap.obj
 0001:00009711       ?AddRef@?$CComContainedObject@VCOPOSSigCap@@@ATL@@WIE@AGKXZ 1000a711 f i SigCap.obj
 0001:0000971e       ?AddRef@?$CComContainedObject@VCOPOSSigCap@@@ATL@@WII@AGKXZ 1000a71e f i SigCap.obj
 0001:0000972b       ?AddRef@?$CComContainedObject@VCOPOSSigCap@@@ATL@@WIM@AGKXZ 1000a72b f i SigCap.obj
 0001:00009738       ?AddRef@?$CComContainedObject@VCOPOSSigCap@@@ATL@@WJA@AGKXZ 1000a738 f i SigCap.obj
 0001:00009745       ?AddRef@?$CComContainedObject@VCOPOSSigCap@@@ATL@@WJE@AGKXZ 1000a745 f i SigCap.obj
 0001:00009752       ?AddRef@?$CComContainedObject@VCOPOSSigCap@@@ATL@@WJI@AGKXZ 1000a752 f i SigCap.obj
 0001:0000975f       ?AddRef@?$CComContainedObject@VCOPOSSigCap@@@ATL@@WJM@AGKXZ 1000a75f f i SigCap.obj
 0001:0000976c       ?AddRef@?$CComContainedObject@VCOPOSSigCap@@@ATL@@WKA@AGKXZ 1000a76c f i SigCap.obj
 0001:00009779       ?AddRef@?$CComContainedObject@VCOPOSSigCap@@@ATL@@WKI@AGKXZ 1000a779 f i SigCap.obj
 0001:00009786       ?AddRef@?$CComContainedObject@VCOPOSSigCap@@@ATL@@WLE@AGKXZ 1000a786 f i SigCap.obj
 0001:000097a0       ?AddRef@?$CComObject@V?$CComEnum@UIEnumConnectionPoints@@$1?_GUID_b196b285_bab4_101a_b69c_00aa00341d07@@3U__s_GUID@@BPAUIConnectionPoint@@V?$_CopyInterface@UIConnectionPoint@@@ATL@@VCComSingleThreadModel@6@@ATL@@@ATL@@UAGKXZ 1000a7a0 f i SigCap.obj
 0001:000097c0       ?AddRef@?$CComObject@V?$CComEnum@UIEnumConnections@@$1?_GUID_b196b287_bab4_101a_b69c_00aa00341d07@@3U__s_GUID@@BUtagCONNECTDATA@@V?$_Copy@UtagCONNECTDATA@@@ATL@@VCComSingleThreadModel@6@@ATL@@@ATL@@UAGKXZ 1000a7c0 f i SigCap.obj
 0001:000097e0       ?AddRef@?$CComObject@VCOPOSSigCap@@@ATL@@UAGKXZ 1000a7e0 f i SigCap.obj
 0001:000097fc       ?AddRef@?$CComObject@VCOPOSSigCap@@@ATL@@WHA@AGKXZ 1000a7fc f i SigCap.obj
 0001:00009806       ?AddRef@?$CComObject@VCOPOSSigCap@@@ATL@@WHE@AGKXZ 1000a806 f i SigCap.obj
 0001:00009810       ?AddRef@?$CComObject@VCOPOSSigCap@@@ATL@@WHI@AGKXZ 1000a810 f i SigCap.obj
 0001:0000981a       ?AddRef@?$CComObject@VCOPOSSigCap@@@ATL@@WHM@AGKXZ 1000a81a f i SigCap.obj
 0001:00009824       ?AddRef@?$CComObject@VCOPOSSigCap@@@ATL@@WIA@AGKXZ 1000a824 f i SigCap.obj
 0001:00009831       ?AddRef@?$CComObject@VCOPOSSigCap@@@ATL@@WIE@AGKXZ 1000a831 f i SigCap.obj
 0001:0000983e       ?AddRef@?$CComObject@VCOPOSSigCap@@@ATL@@WII@AGKXZ 1000a83e f i SigCap.obj
 0001:0000984b       ?AddRef@?$CComObject@VCOPOSSigCap@@@ATL@@WIM@AGKXZ 1000a84b f i SigCap.obj
 0001:00009858       ?AddRef@?$CComObject@VCOPOSSigCap@@@ATL@@WJA@AGKXZ 1000a858 f i SigCap.obj
 0001:00009865       ?AddRef@?$CComObject@VCOPOSSigCap@@@ATL@@WJE@AGKXZ 1000a865 f i SigCap.obj
 0001:00009872       ?AddRef@?$CComObject@VCOPOSSigCap@@@ATL@@WJI@AGKXZ 1000a872 f i SigCap.obj
 0001:0000987f       ?AddRef@?$CComObject@VCOPOSSigCap@@@ATL@@WJM@AGKXZ 1000a87f f i SigCap.obj
 0001:0000988c       ?AddRef@?$CComObject@VCOPOSSigCap@@@ATL@@WKA@AGKXZ 1000a88c f i SigCap.obj
 0001:00009899       ?AddRef@?$CComObject@VCOPOSSigCap@@@ATL@@WKI@AGKXZ 1000a899 f i SigCap.obj
 0001:000098a6       ?AddRef@?$CComObject@VCOPOSSigCap@@@ATL@@WLE@AGKXZ 1000a8a6 f i SigCap.obj
 0001:000098c0       ?AddRef@?$CComObjectCached@VCComClassFactory@ATL@@@ATL@@UAGKXZ 1000a8c0 f i SigCap.obj
 0001:00009910       ?AddRef@CRegObject@ATL@@UAGKXZ 1000a910 f i SigCap.obj
 0001:00009960       ?AddReplacement@CRegObject@ATL@@UAGJPB_W0@Z 1000a960 f i SigCap.obj
 0001:00009a70       ?AddString@CParseBuffer@CRegParser@ATL@@QAEHPB_W@Z 1000aa70 f i SigCap.obj
 0001:00009b60       ?AddTermFunc@CAtlModule@ATL@@QAEJP6GXK@ZK@Z 1000ab60 f i SigCap.obj
 0001:00009bb0       ?AddValue@CRegParser@ATL@@IAEJAAVCRegKey@2@PB_WPA_W@Z 1000abb0 f i SigCap.obj
 0001:0000a340       ?Advise@?$CProxy_IOPOSEvents@VCOPOSSigCap@@@@UAGJPAUIUnknown@@PAK@Z 1000b340 f i SigCap.obj
 0001:0000a390       ?Advise@?$IConnectionPointImpl@VCOPOSSigCap@@$1?DIID__IOPOSSigCapEvents@@3U_GUID@@BVCComDynamicUnkArray@ATL@@@ATL@@UAGJPAUIUnknown@@PAK@Z 1000b390 f i SigCap.obj
 0001:0000a530       ?Advise@?$IConnectionPointImpl@VCOPOSSigCap@@$1?IID_IPropertyNotifySink@@3U_GUID@@BVCComDynamicUnkArray@ATL@@@ATL@@UAGJPAUIUnknown@@PAK@Z 1000b530 f i SigCap.obj
 0001:0000a6d0       ?Advise@?$IOleObjectImpl@VCOPOSSigCap@@@ATL@@UAGJPAUIAdviseSink@@PAK@Z 1000b6d0 f i SigCap.obj
 0001:0000a760       ?Allocate@?$CAtlSafeAllocBufferManager@VCCRTAllocator@ATL@@@_ATL_SAFE_ALLOCA_IMPL@ATL@@QAEPAXK@Z 1000b760 f i SigCap.obj
 0001:0000a7d0       ?Allocate@?$CTempBuffer@E$0BAA@VCCRTAllocator@ATL@@@ATL@@QAEPAEI@Z 1000b7d0 f i SigCap.obj
 0001:0000a810       ?Allocate@?$CTempBuffer@_W$0BAA@VCCRTAllocator@ATL@@@ATL@@QAEPA_WI@Z 1000b810 f i SigCap.obj
 0001:0000a850       ?Allocate@?$CTempBuffer@_W$0EAA@VCCRTAllocator@ATL@@@ATL@@QAEPA_WI@Z 1000b850 f i SigCap.obj
 0001:0000a890       ?AllocateBytes@?$CTempBuffer@E$0BAA@VCCRTAllocator@ATL@@@ATL@@QAEPAEI@Z 1000b890 f i SigCap.obj
 0001:0000a910       ?AllocateBytes@?$CTempBuffer@_W$0BAA@VCCRTAllocator@ATL@@@ATL@@QAEPA_WI@Z 1000b910 f i SigCap.obj
 0001:0000a990       ?AllocateBytes@?$CTempBuffer@_W$0EAA@VCCRTAllocator@ATL@@@ATL@@QAEPA_WI@Z 1000b990 f i SigCap.obj
 0001:0000aa10       ?AllocateHeap@?$CTempBuffer@E$0BAA@VCCRTAllocator@ATL@@@ATL@@AAEXI@Z 1000ba10 f i SigCap.obj
 0001:0000aa60       ?AllocateHeap@?$CTempBuffer@_W$0BAA@VCCRTAllocator@ATL@@@ATL@@AAEXI@Z 1000ba60 f i SigCap.obj
 0001:0000aab0       ?AllocateHeap@?$CTempBuffer@_W$0EAA@VCCRTAllocator@ATL@@@ATL@@AAEXI@Z 1000bab0 f i SigCap.obj
 0001:0000ab00       ?Append@CParseBuffer@CRegParser@ATL@@QAEHPB_WH@Z 1000bb00 f i SigCap.obj
 0001:0000aca0       ?AtlCallTermFunc@ATL@@YGXPAU_ATL_MODULE70@1@@Z 1000bca0 f i SigCap.obj
 0001:0000ad40       ?AtlCoTaskMemCAlloc@ATL@@YAPAXKK@Z 1000bd40 f i SigCap.obj
 0001:0000add0       ?AtlCoTaskMemRecalloc@ATL@@YAPAXPAXKK@Z 1000bdd0 f i SigCap.obj
 0001:0000ae70       ?AtlComModuleGetClassObject@ATL@@YGJPAU_ATL_COM_MODULE70@1@ABU_GUID@@1PAPAX@Z 1000be70 f i SigCap.obj
 0001:0000b100       ?AtlComModuleRegisterServer@ATL@@YGJPAU_ATL_COM_MODULE70@1@HPBU_GUID@@@Z 1000c100 f i SigCap.obj
 0001:0000b290       ?AtlComModuleUnregisterServer@ATL@@YGJPAU_ATL_COM_MODULE70@1@HPBU_GUID@@@Z 1000c290 f i SigCap.obj
 0001:0000b3c0       ?AtlComQIPtrAssign2@ATL@@YAXPAPAUIUnknown@@PAU2@ABU_GUID@@@Z 1000c3c0 f i SigCap.obj
 0001:0000b440       ?AtlCreateTargetDC@ATL@@YGPAUHDC__@@PAU2@PAUtagDVTARGETDEVICE@@@Z 1000c440 f i SigCap.obj
 0001:0000b5e0       ?AtlCrtErrorCheck@ATL@@YAHH@Z 1000c5e0 f i SigCap.obj
 0001:0000b6b0       ?AtlGetPerUserRegistration@ATL@@YGJPA_N@Z 1000c6b0 f i SigCap.obj
 0001:0000b6e0       ?AtlHiMetricToPixel@ATL@@YGXPBUtagSIZE@@PAU2@@Z 1000c6e0 f i SigCap.obj
 0001:0000b8b0       ?AtlHresultFromLastError@ATL@@YAJXZ 1000c8b0 f i SigCap.obj
 0001:0000b8f0       ?AtlHresultFromWin32@ATL@@YAJK@Z 1000c8f0 f i SigCap.obj
 0001:0000b910       ?AtlIPersistStreamInit_Load@ATL@@YGJPAUIStream@@PBUATL_PROPMAP_ENTRY@1@PAXPAUIUnknown@@@Z 1000c910 f i SigCap.obj
 0001:0000bd70       ?AtlIPersistStreamInit_Save@ATL@@YGJPAUIStream@@HPBUATL_PROPMAP_ENTRY@1@PAXPAUIUnknown@@@Z 1000cd70 f i SigCap.obj
 0001:0000c150       ?AtlInternalOleLoadFromStream@ATL@@YAJPAUIStream@@ABU_GUID@@PAPAXTClassesAllowedInStream@1@K@Z 1000d150 f i SigCap.obj
 0001:0000c3f0       ?AtlInternalQueryInterface@ATL@@YGJPAXPBU_ATL_INTMAP_ENTRY@1@ABU_GUID@@PAPAX@Z 1000d3f0 f i SigCap.obj
 0001:0000c620       ?AtlLoadTypeLib@ATL@@YGJPAUHINSTANCE__@@PB_WPAPA_WPAPAUITypeLib@@@Z 1000d620 f i SigCap.obj
 0001:0000ca80       ?AtlModuleAddTermFunc@ATL@@YGJPAU_ATL_MODULE70@1@P6GXK@ZK@Z 1000da80 f i SigCap.obj
 0001:0000cbe0       ?AtlRegisterClassCategoriesHelper@ATL@@YGJABU_GUID@@PBU_ATL_CATMAP_ENTRY@1@H@Z 1000dbe0 f i SigCap.obj
 0001:0000d2c0       ?AtlRegisterTypeLib@ATL@@YGJPAUHINSTANCE__@@PB_W@Z 1000e2c0 f i SigCap.obj
 0001:0000d600       ?AtlThrowImpl@ATL@@YGXJ@Z  1000e600 f i SigCap.obj
 0001:0000d6b0       ?AtlUnRegisterTypeLib@ATL@@YGJPAUHINSTANCE__@@PB_W@Z 1000e6b0 f i SigCap.obj
 0001:0000d8c0       ?AtlWinModuleAddCreateWndData@ATL@@YGXPAU_ATL_WIN_MODULE70@1@PAU_AtlCreateWndData@1@PAX@Z 1000e8c0 f i SigCap.obj
 0001:0000da30       ?AtlWinModuleExtractCreateWndData@ATL@@YGPAXPAU_ATL_WIN_MODULE70@1@@Z 1000ea30 f i SigCap.obj
 0001:0000dbb0       ?AtlWinModuleRegisterClassExW@ATL@@YGGPAU_ATL_WIN_MODULE70@1@PBUtagWNDCLASSEXW@@@Z 1000ebb0 f i SigCap.obj
 0001:0000dc80       ?AtlWinModuleRegisterWndClassInfoW@ATL@@YGGPAU_ATL_WIN_MODULE70@1@PAU_ATL_BASE_MODULE70@1@PAU_ATL_WNDCLASSINFOW@1@PAP6GJPAUHWND__@@IIJ@Z@Z 1000ec80 f i SigCap.obj
 0001:0000dd10       ?Attach@?$CAutoVectorPtr@_W@ATL@@QAEXPA_W@Z 1000ed10 f i SigCap.obj
 0001:0000dd70       ?Attach@CComBSTR@ATL@@QAEXPA_W@Z 1000ed70 f i SigCap.obj
 0001:0000ddc0       ?Attach@CRegKey@ATL@@QAEXPAUHKEY__@@@Z 1000edc0 f i SigCap.obj
 0001:0000de30       ?CanForceRemoveKey@CRegParser@ATL@@IAEHPB_W@Z 1000ee30 f i SigCap.obj
 0001:0000dea0       ?ChToByte@CRegParser@ATL@@KAE_W@Z 1000eea0 f i SigCap.obj
 0001:0000dfc0       ?ChangeType@CComVariant@ATL@@QAEJGPBUtagVARIANT@@@Z 1000efc0 f i SigCap.obj
 0001:0000e020       ?Cleanup@CComTypeInfoHolder@ATL@@SGXK@Z 1000f020 f i SigCap.obj
 0001:0000e0f0       ?Clear@CComVariant@ATL@@QAEJXZ 1000f0f0 f i SigCap.obj
 0001:0000e130       ?ClearReplacements@CExpansionVector@ATL@@QAEJXZ 1000f130 f i SigCap.obj
 0001:0000e1c0       ?ClearReplacements@CRegObject@ATL@@UAGJXZ 1000f1c0 f i SigCap.obj
 0001:0000e210       ?Clone@?$CComEnumImpl@UIEnumConnectionPoints@@$1?_GUID_b196b285_bab4_101a_b69c_00aa00341d07@@3U__s_GUID@@BPAUIConnectionPoint@@V?$_CopyInterface@UIConnectionPoint@@@ATL@@@ATL@@UAGJPAPAUIEnumConnectionPoints@@@Z 1000f210 f i SigCap.obj
 0001:0000e380       ?Clone@?$CComEnumImpl@UIEnumConnections@@$1?_GUID_b196b287_bab4_101a_b69c_00aa00341d07@@3U__s_GUID@@BUtagCONNECTDATA@@V?$_Copy@UtagCONNECTDATA@@@ATL@@@ATL@@UAGJPAPAUIEnumConnections@@@Z 1000f380 f i SigCap.obj
 0001:0000e4f0       ?Close@?$IOleObjectImpl@VCOPOSSigCap@@@ATL@@UAGJK@Z 1000f4f0 f i SigCap.obj
 0001:0000e580       ?Close@CRegKey@ATL@@QAEJXZ 1000f580 f i SigCap.obj
 0001:0000e5f0       ?ContextSensitiveHelp@?$IOleInPlaceActiveObjectImpl@VCOPOSSigCap@@@ATL@@UAGJH@Z 1000f5f0 f i SigCap.obj
 0001:0000e660       ?ContextSensitiveHelp@?$IOleInPlaceObjectWindowlessImpl@VCOPOSSigCap@@@ATL@@UAGJH@Z 1000f660 f i SigCap.obj
 0001:0000e6d0       ?ControlQueryInterface@?$CComControl@VCOPOSSigCap@@V?$CWindowImpl@VCOPOSSigCap@@VCWindow@ATL@@V?$CWinTraits@$0FGAAAAAA@$0A@@3@@ATL@@@ATL@@UAEJABU_GUID@@PAPAX@Z 1000f6d0 f i SigCap.obj
 0001:0000e750       ?CreateControlWindow@?$CComControl@VCOPOSSigCap@@V?$CWindowImpl@VCOPOSSigCap@@VCWindow@ATL@@V?$CWinTraits@$0FGAAAAAA@$0A@@3@@ATL@@@ATL@@UAEPAUHWND__@@PAU3@AAUtagRECT@@@Z 1000f750 f i SigCap.obj
 0001:0000e7d0       ?CreateInstance@?$CComCreator@V?$CComAggObject@VCOPOSSigCap@@@ATL@@@ATL@@SGJPAXABU_GUID@@PAPAX@Z 1000f7d0 f i SigCap.obj
 0001:0000e950       ?CreateInstance@?$CComCreator@V?$CComObject@VCOPOSSigCap@@@ATL@@@ATL@@SGJPAXABU_GUID@@PAPAX@Z 1000f950 f i SigCap.obj
 0001:0000eae0       ?CreateInstance@?$CComObject@V?$CComEnum@UIEnumConnectionPoints@@$1?_GUID_b196b285_bab4_101a_b69c_00aa00341d07@@3U__s_GUID@@BPAUIConnectionPoint@@V?$_CopyInterface@UIConnectionPoint@@@ATL@@VCComSingleThreadModel@6@@ATL@@@ATL@@SGJPAPAV12@@Z 1000fae0 f i SigCap.obj
 0001:0000ec50       ?CreateInstance@?$CComObject@V?$CComEnum@UIEnumConnections@@$1?_GUID_b196b287_bab4_101a_b69c_00aa00341d07@@3U__s_GUID@@BUtagCONNECTDATA@@V?$_Copy@UtagCONNECTDATA@@@ATL@@VCComSingleThreadModel@6@@ATL@@@ATL@@SGJPAPAV12@@Z 1000fc50 f i SigCap.obj
 0001:0000edc0       ?CreateInstance@CComClassFactory@ATL@@UAGJPAUIUnknown@@ABU_GUID@@PAPAX@Z 1000fdc0 f i SigCap.obj
 0001:0000eeb0       ?DAdvise@?$IDataObjectImpl@VCOPOSSigCap@@@ATL@@UAGJPAUtagFORMATETC@@KPAUIAdviseSink@@PAK@Z 1000feb0 f i SigCap.obj
 0001:0000efb0       ?DEVMODEOLE2T_EX@@YAPAU_devicemodeW@@PAU1@@Z 1000ffb0 f i SigCap.obj
 0001:0000efc0       ?DUnadvise@?$IDataObjectImpl@VCOPOSSigCap@@@ATL@@UAGJK@Z 1000ffc0 f i SigCap.obj
 0001:0000f090       ?Decrement@CComMultiThreadModel@ATL@@SGKPAJ@Z 10010090 f i SigCap.obj
 0001:0000f0b0       ?Decrement@CComSingleThreadModel@ATL@@SGKPAJ@Z 100100b0 f i SigCap.obj
 0001:0000f0d0       ?DefWindowProcW@?$CWindowImplBaseT@VCWindow@ATL@@V?$CWinTraits@$0FGAAAAAA@$0A@@2@@ATL@@QAEJIIJ@Z 100100d0 f i SigCap.obj
 0001:0000f120       ?DefaultReflectionHandler@?$CWindowImplRoot@VCWindow@ATL@@@ATL@@SAHPAUHWND__@@IIJAAJ@Z 10010120 f i SigCap.obj
 0001:0000f3b0       ?DeleteSubKey@CRegKey@ATL@@QAEJPB_W@Z 100103b0 f i SigCap.obj
 0001:0000f4c0       ?DeleteValue@CRegKey@ATL@@QAEJPB_W@Z 100104c0 f i SigCap.obj
 0001:0000f530       ?Detach@?$CAutoVectorPtr@_W@ATL@@QAEPA_WXZ 10010530 f i SigCap.obj
 0001:0000f560       ?Detach@?$CComPtrBase@UIPersistStream@@@ATL@@QAEPAUIPersistStream@@XZ 10010560 f i SigCap.obj
 0001:0000f590       ?Detach@?$CComPtrBase@UITypeInfo@@@ATL@@QAEPAUITypeInfo@@XZ 10010590 f i SigCap.obj
 0001:0000f5c0       ?Detach@?$CComPtrBase@UIUnknown@@@ATL@@QAEPAUIUnknown@@XZ 100105c0 f i SigCap.obj
 0001:0000f5f0       ?Detach@CComBSTR@ATL@@QAEPA_WXZ 100105f0 f i SigCap.obj
 0001:0000f620       ?Detach@CParseBuffer@CRegParser@ATL@@QAEPA_WXZ 10010620 f i SigCap.obj
 0001:0000f660       ?Detach@CRegKey@ATL@@QAEPAUHKEY__@@XZ 10010660 f i SigCap.obj
 0001:0000f6a0       ?DoEvent@COPOSSigCap@@IAEXIIJ@Z 100106a0 f i SigCap.obj
 0001:0000f7e0       ?DoVerb@?$IOleObjectImpl@VCOPOSSigCap@@@ATL@@UAGJJPAUtagMSG@@PAUIOleClientSite@@JPAUHWND__@@PBUtagRECT@@@Z 100107e0 f i SigCap.obj
 0001:0000f9f0       ?DoVerbDiscardUndo@?$IOleObjectImpl@VCOPOSSigCap@@@ATL@@QAEJPBUtagRECT@@PAUHWND__@@@Z 100109f0 f i SigCap.obj
 0001:0000fa60       ?DoVerbHide@?$IOleObjectImpl@VCOPOSSigCap@@@ATL@@QAEJPBUtagRECT@@PAUHWND__@@@Z 10010a60 f i SigCap.obj
 0001:0000fb10       ?DoVerbInPlaceActivate@?$IOleObjectImpl@VCOPOSSigCap@@@ATL@@QAEJPBUtagRECT@@PAUHWND__@@@Z 10010b10 f i SigCap.obj
 0001:0000fbb0       ?DoVerbOpen@?$IOleObjectImpl@VCOPOSSigCap@@@ATL@@QAEJPBUtagRECT@@PAUHWND__@@@Z 10010bb0 f i SigCap.obj
 0001:0000fc20       ?DoVerbPrimary@?$IOleObjectImpl@VCOPOSSigCap@@@ATL@@QAEJPBUtagRECT@@PAUHWND__@@@Z 10010c20 f i SigCap.obj
 0001:0000fd30       ?DoVerbProperties@CComControlBase@ATL@@QAEJPBUtagRECT@@PAUHWND__@@@Z 10010d30 f i SigCap.obj
 0001:00010050       ?DoVerbShow@?$IOleObjectImpl@VCOPOSSigCap@@@ATL@@QAEJPBUtagRECT@@PAUHWND__@@@Z 10011050 f i SigCap.obj
 0001:000100e0       ?DoVerbUIActivate@?$IOleObjectImpl@VCOPOSSigCap@@@ATL@@QAEJPBUtagRECT@@PAUHWND__@@@Z 100110e0 f i SigCap.obj
 0001:00010180       ?DoesVerbActivate@CComControlBase@ATL@@QAEHJ@Z 10011180 f i SigCap.obj
 0001:000101e0       ?DoesVerbUIActivate@CComControlBase@ATL@@QAEHJ@Z 100111e0 f i SigCap.obj
 0001:00010260       ?Draw@?$IViewObjectExImpl@VCOPOSSigCap@@@ATL@@UAGJKJPAXPAUtagDVTARGETDEVICE@@PAUHDC__@@2PBU_RECTL@@3P6GHK@ZK@Z 10011260 f i SigCap.obj
 0001:00010300       ?Empty@CComBSTR@ATL@@QAEXXZ 10011300 f i SigCap.obj
 0001:00010340       ?EnableModeless@?$IOleInPlaceActiveObjectImpl@VCOPOSSigCap@@@ATL@@UAGJH@Z 10011340 f i SigCap.obj
 0001:000103a0       ?EndOfVar@CRegParser@ATL@@IAEHXZ 100113a0 f i SigCap.obj
 0001:00010410       ?EnsureTI@CComTypeInfoHolder@ATL@@QAEJK@Z 10011410 f i SigCap.obj
 0001:00010470       ?EnumAdvise@?$IOleObjectImpl@VCOPOSSigCap@@@ATL@@UAGJPAPAUIEnumSTATDATA@@@Z 10011470 f i SigCap.obj
 0001:00010580       ?EnumConnectionPoints@?$IConnectionPointContainerImpl@VCOPOSSigCap@@@ATL@@UAGJPAPAUIEnumConnectionPoints@@@Z 10011580 f i SigCap.obj
 0001:000109b0       ?EnumConnections@?$IConnectionPointImpl@VCOPOSSigCap@@$1?DIID__IOPOSSigCapEvents@@3U_GUID@@BVCComDynamicUnkArray@ATL@@@ATL@@UAGJPAPAUIEnumConnections@@@Z 100119b0 f i SigCap.obj
 0001:00010c00       ?EnumConnections@?$IConnectionPointImpl@VCOPOSSigCap@@$1?IID_IPropertyNotifySink@@3U_GUID@@BVCComDynamicUnkArray@ATL@@@ATL@@UAGJPAPAUIEnumConnections@@@Z 10011c00 f i SigCap.obj
 0001:00010e50       ?EnumDAdvise@?$IDataObjectImpl@VCOPOSSigCap@@@ATL@@UAGJPAPAUIEnumSTATDATA@@@Z 10011e50 f i SigCap.obj
 0001:00010f50       ?EnumFormatEtc@?$IDataObjectImpl@VCOPOSSigCap@@@ATL@@UAGJKPAPAUIEnumFORMATETC@@@Z 10011f50 f i SigCap.obj
 0001:00010fc0       ?EnumVerbs@?$IOleObjectImpl@VCOPOSSigCap@@@ATL@@UAGJPAPAUIEnumOLEVERB@@@Z 10011fc0 f i SigCap.obj
 0001:00011070       ?EscapeSingleQuote@CAtlModule@ATL@@SAXPA_WIPB_W@Z 10012070 f i SigCap.obj
 0001:00011110       ?ExtractCreateWndData@CAtlWinModule@ATL@@QAEPAXXZ 10012110 f i SigCap.obj
 0001:00011140       ?FAccessAllowed@?$IObjectSafetyImpl@VCOPOSSigCap@@$02@ATL@@MAEHXZ 10012140 f i SigCap.obj
 0001:00011150       ?FinalConstruct@?$CComAggObject@VCOPOSSigCap@@@ATL@@QAEJXZ 10012150 f i SigCap.obj
 0001:00011190       ?FinalConstruct@CComObjectRootBase@ATL@@QAEJXZ 10012190 f i SigCap.obj
 0001:000111a0       ?FinalConstruct@CRegObject@ATL@@QAEJXZ 100121a0 f i SigCap.obj
 0001:000111d0       ?FinalRelease@?$CComAggObject@VCOPOSSigCap@@@ATL@@QAEXXZ 100121d0 f i SigCap.obj
 0001:00011210       ?FinalRelease@CComObjectRootBase@ATL@@QAEXXZ 10012210 f i SigCap.obj
 0001:00011220       ?FindConnectionPoint@?$IConnectionPointContainerImpl@VCOPOSSigCap@@@ATL@@UAGJABU_GUID@@PAPAUIConnectionPoint@@@Z 10012220 f i SigCap.obj
 0001:00011370       ?FindKey@?$CSimpleMap@PA_WPA_WVCExpansionVectorEqualHelper@ATL@@@ATL@@QBEHABQA_W@Z 10012370 f i SigCap.obj
 0001:000113e0       ?FireTheEvent@?$CProxy_IOPOSEvents@VCOPOSSigCap@@@@IAEXPAUIUnknown@@PAVOposVariant@@IAAJPB_WJ@Z 100123e0 f i SigCap.obj
 0001:00011550       ?FireViewChange@CComControlBase@ATL@@QAEJXZ 10012550 f i SigCap.obj
 0001:00011610       ?Fire_DataEvent@?$CProxy_IOPOSEvents@VCOPOSSigCap@@@@QAEXJ@Z 10012610 f i SigCap.obj
 0001:00011770       ?Fire_DirectIOEvent@?$CProxy_IOPOSEvents@VCOPOSSigCap@@@@QAEXJPAJPAPA_W@Z 10012770 f i SigCap.obj
 0001:00011940       ?Fire_ErrorEvent@?$CProxy_IOPOSEvents@VCOPOSSigCap@@@@QAEXJJJPAJ@Z 10012940 f i SigCap.obj
 0001:00011b30       ?Fire_StatusUpdateEvent@?$CProxy_IOPOSEvents@VCOPOSSigCap@@@@QAEXJ@Z 10012b30 f i SigCap.obj
 0001:00011c90       ?FormatWindowClassName@AtlModuleRegisterWndClassInfoParamW@ATL@@SAXPA_WKPAX@Z 10012c90 f i SigCap.obj
 0001:00011cc0       ?Free@?$CAutoVectorPtr@_W@ATL@@QAEXXZ 10012cc0 f i SigCap.obj
 0001:00011d10       ?FreeHeap@?$CTempBuffer@E$0BAA@VCCRTAllocator@ATL@@@ATL@@AAEXXZ 10012d10 f i SigCap.obj
 0001:00011d40       ?FreeHeap@?$CTempBuffer@_W$0BAA@VCCRTAllocator@ATL@@@ATL@@AAEXXZ 10012d40 f i SigCap.obj
 0001:00011d70       ?FreeHeap@?$CTempBuffer@_W$0EAA@VCCRTAllocator@ATL@@@ATL@@AAEXXZ 10012d70 f i SigCap.obj
 0001:00011da0       ?Freeze@?$IViewObjectExImpl@VCOPOSSigCap@@@ATL@@UAGJKJPAXPAK@Z 10012da0 f i SigCap.obj
 0001:00011e10       ?GenerateError@CRegParser@ATL@@IAEJI@Z 10012e10 f i SigCap.obj
 0001:00011e30       ?GetAdvise@?$IViewObjectExImpl@VCOPOSSigCap@@@ATL@@UAGJPAK0PAPAUIAdviseSink@@@Z 10012e30 f i SigCap.obj
 0001:00011f30       ?GetAmbientLocaleID@CComControlBase@ATL@@QAEJAAK@Z 10012f30 f i SigCap.obj
 0001:00012010       ?GetAmbientProperty@CComControlBase@ATL@@QAEJJAAUtagVARIANT@@@Z 10013010 f i SigCap.obj
 0001:00012060       ?GetAmbientUserMode@CComControlBase@ATL@@QAEJAAH@Z 10013060 f i SigCap.obj
 0001:00012160       ?GetAppId@?$CAtlModuleT@VCComModule@ATL@@@ATL@@SAPB_WXZ 10013160 f i SigCap.obj
 0001:00012170       ?GetAt@CComDynamicUnkArray@ATL@@QAEPAUIUnknown@@H@Z 10013170 f i SigCap.obj
 0001:000121f0       ?GetCanonicalFormatEtc@?$IDataObjectImpl@VCOPOSSigCap@@@ATL@@UAGJPAUtagFORMATETC@@0@Z 100131f0 f i SigCap.obj
 0001:00012260       ?GetClassID@?$IPersistStorageImpl@VCOPOSSigCap@@@ATL@@UAGJPAU_GUID@@@Z 10013260 f i SigCap.obj
 0001:000122e0       ?GetClassID@?$IPersistStreamInitImpl@VCOPOSSigCap@@@ATL@@UAGJPAU_GUID@@@Z 100132e0 f i SigCap.obj
 0001:00012360       ?GetClassInfoExW@AtlModuleRegisterWndClassInfoParamW@ATL@@SAHPAUHINSTANCE__@@PB_WPAUtagWNDCLASSEXW@@@Z 10013360 f i SigCap.obj
 0001:00012390       ?GetClassInfoW@?$IProvideClassInfo2Impl@$1?CLSID_OPOSSigCap@@3U_GUID@@B$1?DIID__IOPOSSigCapEvents@@3U2@B$1?LIBID_OposSigCap_CCO@@3U2@B$00$0A@VCComTypeInfoHolder@ATL@@@ATL@@UAGJPAPAUITypeInfo@@@Z 10013390 f i SigCap.obj
 0001:000123b0       ?GetClassObject@CComModule@ATL@@QAEJABU_GUID@@0PAPAX@Z 100133b0 f i SigCap.obj
 0001:000125b0       ?GetClientSite@?$IOleObjectImpl@VCOPOSSigCap@@@ATL@@UAGJPAPAUIOleClientSite@@@Z 100135b0 f i SigCap.obj
 0001:00012640       ?GetClipboardData@?$IOleObjectImpl@VCOPOSSigCap@@@ATL@@UAGJKPAPAUIDataObject@@@Z 10013640 f i SigCap.obj
 0001:000126b0       ?GetCodeAddress@CDynamicStdCallThunk2@ATL@@QAEPAXXZ 100136b0 f i SigCap.obj
 0001:000126e0       ?GetColorSet@?$IViewObjectExImpl@VCOPOSSigCap@@@ATL@@UAGJKJPAXPAUtagDVTARGETDEVICE@@PAUHDC__@@PAPAUtagLOGPALETTE@@@Z 100136e0 f i SigCap.obj
 0001:00012750       ?GetConnMap@COPOSSigCap@@SAPBU_ATL_CONNMAP_ENTRY@ATL@@PAH@Z 10013750 f i SigCap.obj
 0001:00012890       ?GetConnectionInterface@?$IConnectionPointImpl@VCOPOSSigCap@@$1?DIID__IOPOSSigCapEvents@@3U_GUID@@BVCComDynamicUnkArray@ATL@@@ATL@@UAGJPAU_GUID@@@Z 10013890 f i SigCap.obj
 0001:000128d0       ?GetConnectionInterface@?$IConnectionPointImpl@VCOPOSSigCap@@$1?IID_IPropertyNotifySink@@3U_GUID@@BVCComDynamicUnkArray@ATL@@@ATL@@UAGJPAU_GUID@@@Z 100138d0 f i SigCap.obj
 0001:00012910       ?GetConnectionPointContainer@?$IConnectionPointImpl@VCOPOSSigCap@@$1?DIID__IOPOSSigCapEvents@@3U_GUID@@BVCComDynamicUnkArray@ATL@@@ATL@@UAGJPAPAUIConnectionPointContainer@@@Z 10013910 f i SigCap.obj
 0001:00012980       ?GetConnectionPointContainer@?$IConnectionPointImpl@VCOPOSSigCap@@$1?IID_IPropertyNotifySink@@3U_GUID@@BVCComDynamicUnkArray@ATL@@@ATL@@UAGJPAPAUIConnectionPointContainer@@@Z 10013980 f i SigCap.obj
 0001:000129f0       ?GetContentExtent@?$IQuickActivateImpl@VCOPOSSigCap@@@ATL@@UAGJPAUtagSIZE@@@Z 100139f0 f i SigCap.obj
 0001:00012a80       ?GetControlInfo@?$IOleControlImpl@VCOPOSSigCap@@@ATL@@UAGJPAUtagCONTROLINFO@@@Z 10013a80 f i SigCap.obj
 0001:00012af0       ?GetCookie@CComDynamicUnkArray@ATL@@QAGKPAPAUIUnknown@@@Z 10013af0 f i SigCap.obj
 0001:00012bb0       ?GetData@?$IDataObjectImpl@VCOPOSSigCap@@@ATL@@UAGJPAUtagFORMATETC@@PAUtagSTGMEDIUM@@@Z 10013bb0 f i SigCap.obj
 0001:00012c40       ?GetData@CAtlSafeAllocBufferNode@?$CAtlSafeAllocBufferManager@VCCRTAllocator@ATL@@@_ATL_SAFE_ALLOCA_IMPL@ATL@@QAEPAXXZ 10013c40 f i SigCap.obj
 0001:00012c60       ?GetDataHere@?$IDataObjectImpl@VCOPOSSigCap@@@ATL@@UAGJPAUtagFORMATETC@@PAUtagSTGMEDIUM@@@Z 10013c60 f i SigCap.obj
 0001:00012cd0       ?GetDropTarget@?$IOleInPlaceObjectWindowlessImpl@VCOPOSSigCap@@@ATL@@UAGJPAPAUIDropTarget@@@Z 10013cd0 f i SigCap.obj
 0001:00012d40       ?GetExtent@?$IOleObjectImpl@VCOPOSSigCap@@@ATL@@UAGJKPAUtagSIZE@@@Z 10013d40 f i SigCap.obj
 0001:00012de0       ?GetExtent@?$IViewObjectExImpl@VCOPOSSigCap@@@ATL@@UAGJKJPAUtagDVTARGETDEVICE@@PAUtagSIZE@@@Z 10013de0 f i SigCap.obj
 0001:00012eb0       ?GetGITPtr@CAtlModule@ATL@@UAEJPAPAUIGlobalInterfaceTable@@@Z 10013eb0 f i SigCap.obj
 0001:00012fb0       ?GetGUID@?$IProvideClassInfo2Impl@$1?CLSID_OPOSSigCap@@3U_GUID@@B$1?DIID__IOPOSSigCapEvents@@3U2@B$1?LIBID_OposSigCap_CCO@@3U2@B$00$0A@VCComTypeInfoHolder@ATL@@@ATL@@UAGJKPAU_GUID@@@Z 10013fb0 f i SigCap.obj
 0001:00013030       ?GetIDsOfNames@?$IDispatchImpl@UIOPOSSigCap@@$1?IID_IOPOSSigCap@@3U_GUID@@B$1?LIBID_OposSigCap_CCO@@3U3@B$00$0A@VCComTypeInfoHolder@ATL@@@ATL@@UAGJABU_GUID@@PAPA_WIKPAJ@Z 10014030 f i SigCap.obj
 0001:00013060       ?GetIDsOfNames@CComTypeInfoHolder@ATL@@QAEJABU_GUID@@PAPA_WIKPAJ@Z 10014060 f i SigCap.obj
 0001:00013210       ?GetInterfaceSafetyOptions@?$IObjectSafetyImpl@VCOPOSSigCap@@$02@ATL@@UAGJABU_GUID@@PAK1@Z 10014210 f i SigCap.obj
 0001:00013380       ?GetKeyAt@?$CSimpleMap@PA_WPA_WVCExpansionVectorEqualHelper@ATL@@@ATL@@QBEAAPA_WH@Z 10014380 f i SigCap.obj
 0001:00013400       ?GetLockCount@CAtlModule@ATL@@UAEJXZ 10014400 f i SigCap.obj
 0001:00013420       ?GetMiscStatus@?$IOleObjectImpl@VCOPOSSigCap@@@ATL@@UAGJKPAK@Z 10014420 f i SigCap.obj
 0001:00013490       ?GetMoniker@?$IOleObjectImpl@VCOPOSSigCap@@@ATL@@UAGJKKPAPAUIMoniker@@@Z 10014490 f i SigCap.obj
 0001:00013500       ?GetNaturalExtent@?$IViewObjectExImpl@VCOPOSSigCap@@@ATL@@UAGJKJPAUtagDVTARGETDEVICE@@PAUHDC__@@PAUtagExtentInfo@@PAUtagSIZE@@@Z 10014500 f i SigCap.obj
 0001:00013620       ?GetObjectCLSID@?$CComCoClass@VCOPOSSigCap@@$1?CLSID_OPOSSigCap@@3U_GUID@@B@ATL@@SGABU_GUID@@XZ 10014620 f i SigCap.obj
 0001:00013630       ?GetPages@?$ISpecifyPropertyPagesImpl@VCOPOSSigCap@@@ATL@@UAGJPAUtagCAUUID@@@Z 10014630 f i SigCap.obj
 0001:000136a0       ?GetPagesHelper@?$ISpecifyPropertyPagesImpl@VCOPOSSigCap@@@ATL@@IAEJPAUtagCAUUID@@PBUATL_PROPMAP_ENTRY@2@@Z 100146a0 f i SigCap.obj
 0001:000138a0       ?GetProperty@?$CComPtr@UIDispatch@@@ATL@@QAEJJPAUtagVARIANT@@@Z 100148a0 f i SigCap.obj
 0001:000138e0       ?GetProperty@?$CComPtr@UIDispatch@@@ATL@@SAJPAUIDispatch@@JPAUtagVARIANT@@@Z 100148e0 f i SigCap.obj
 0001:00013a40       ?GetPropertyMap@COPOSSigCap@@SAPBUATL_PROPMAP_ENTRY@ATL@@XZ 10014a40 f i SigCap.obj
 0001:00013a50       ?GetRect@?$IViewObjectExImpl@VCOPOSSigCap@@@ATL@@UAGJKPAU_RECTL@@@Z 10014a50 f i SigCap.obj
 0001:00013ac0       ?GetSize@?$CSimpleMap@PA_WPA_WVCExpansionVectorEqualHelper@ATL@@@ATL@@QBEHXZ 10014ac0 f i SigCap.obj
 0001:00013ae0       ?GetSize@CComDynamicUnkArray@ATL@@QBEHXZ 10014ae0 f i SigCap.obj
 0001:00013b00       ?GetSizeMax@?$IPersistStreamInitImpl@VCOPOSSigCap@@@ATL@@UAGJPAT_ULARGE_INTEGER@@@Z 10014b00 f i SigCap.obj
 0001:00014070       ?GetSizeMax@CComVariant@ATL@@QBEJPAT_ULARGE_INTEGER@@@Z 10015070 f i SigCap.obj
 0001:000143f0       ?GetStreamSize@CComBSTR@ATL@@SAKPA_W@Z 100153f0 f i SigCap.obj
 0001:00014440       ?GetTI@CComTypeInfoHolder@ATL@@QAEJK@Z 10015440 f i SigCap.obj
 0001:00014c50       ?GetTI@CComTypeInfoHolder@ATL@@QAEJKPAPAUITypeInfo@@@Z 10015c50 f i SigCap.obj
 0001:00014d10       ?GetTypeInfo@?$IDispatchImpl@UIOPOSSigCap@@$1?IID_IOPOSSigCap@@3U_GUID@@B$1?LIBID_OposSigCap_CCO@@3U3@B$00$0A@VCComTypeInfoHolder@ATL@@@ATL@@UAGJIKPAPAUITypeInfo@@@Z 10015d10 f i SigCap.obj
 0001:00014d40       ?GetTypeInfo@CComTypeInfoHolder@ATL@@QAEJIKPAPAUITypeInfo@@@Z 10015d40 f i SigCap.obj
 0001:00014d80       ?GetTypeInfoCount@?$IDispatchImpl@UIOPOSSigCap@@$1?IID_IOPOSSigCap@@3U_GUID@@B$1?LIBID_OposSigCap_CCO@@3U3@B$00$0A@VCComTypeInfoHolder@ATL@@@ATL@@UAGJPAI@Z 10015d80 f i SigCap.obj
 0001:00014da0       ?GetUnknown@CComDynamicUnkArray@ATL@@QAGPAUIUnknown@@K@Z 10015da0 f i SigCap.obj
 0001:00014e10       ?GetUnknown@COPOSSigCap@@QAEPAUIUnknown@@XZ 10015e10 f i SigCap.obj
 0001:00014e40       ?GetUserClassID@?$IOleObjectImpl@VCOPOSSigCap@@@ATL@@UAGJPAU_GUID@@@Z 10015e40 f i SigCap.obj
 0001:00014ef0       ?GetUserType@?$IOleObjectImpl@VCOPOSSigCap@@@ATL@@UAGJKPAPA_W@Z 10015ef0 f i SigCap.obj
 0001:00014f60       ?GetValueAt@?$CSimpleMap@PA_WPA_WVCExpansionVectorEqualHelper@ATL@@@ATL@@QBEAAPA_WH@Z 10015f60 f i SigCap.obj
 0001:00014fe0       ?GetViewStatus@?$IViewObjectExImpl@VCOPOSSigCap@@@ATL@@UAGJPAK@Z 10015fe0 f i SigCap.obj
 0001:000150a0       ?GetWNDPROC@CWndProcThunk@ATL@@QAEP6GJPAUHWND__@@IIJ@ZXZ 100160a0 f i SigCap.obj
 0001:000150d0       ?GetWindow@?$IOleInPlaceActiveObjectImpl@VCOPOSSigCap@@@ATL@@UAGJPAPAUHWND__@@@Z 100160d0 f i SigCap.obj
 0001:000151a0       ?GetWindow@?$IOleInPlaceObjectWindowlessImpl@VCOPOSSigCap@@@ATL@@UAGJPAPAUHWND__@@@Z 100161a0 f i SigCap.obj
 0001:00015270       ?GetWindowLongPtrW@@YAJPAUHWND__@@H@Z 10016270 f i SigCap.obj
 0001:000152a0       ?GetWindowProc@?$CWindowImplBaseT@VCWindow@ATL@@V?$CWinTraits@$0FGAAAAAA@$0A@@2@@ATL@@UAEP6GJPAUHWND__@@IIJ@ZXZ 100162a0 f i SigCap.obj
 0001:000152b0       ?GetWndCaption@?$CWindowImpl@VCOPOSSigCap@@VCWindow@ATL@@V?$CWinTraits@$0FGAAAAAA@$0A@@3@@ATL@@SAPB_WXZ 100162b0 f i SigCap.obj
 0001:000152c0       ?GetWndClassInfo@?$CWindowImpl@VCOPOSSigCap@@VCWindow@ATL@@V?$CWinTraits@$0FGAAAAAA@$0A@@3@@ATL@@SAAAU_ATL_WNDCLASSINFOW@2@XZ 100162c0 f i SigCap.obj
 0001:000152d0       ?GetWndClassName@CWindow@ATL@@SAPB_WXZ 100162d0 f i SigCap.obj
 0001:000152e0       ?GetWndExStyle@?$CWinTraits@$0FGAAAAAA@$0A@@ATL@@SAKK@Z 100162e0 f i SigCap.obj
 0001:00015300       ?GetWndExStyle@?$CWindowImplBaseT@VCWindow@ATL@@V?$CWinTraits@$0FGAAAAAA@$0A@@2@@ATL@@SAKK@Z 10016300 f i SigCap.obj
 0001:00015320       ?GetWndStyle@?$CWinTraits@$0FGAAAAAA@$0A@@ATL@@SAKK@Z 10016320 f i SigCap.obj
 0001:00015340       ?GetWndStyle@?$CWindowImplBaseT@VCWindow@ATL@@V?$CWinTraits@$0FGAAAAAA@$0A@@2@@ATL@@SAKK@Z 10016340 f i SigCap.obj
 0001:00015360       ?GetZoomInfo@CComControlBase@ATL@@QAEXAAUATL_DRAWINFO@@@Z 10016360 f i SigCap.obj
 0001:000154d0       ?HKeyFromString@CRegParser@ATL@@KAPAUHKEY__@@PA_W@Z 100164d0 f i SigCap.obj
 0001:00015540       ?HandsOffStorage@?$IPersistStorageImpl@VCOPOSSigCap@@@ATL@@UAGJXZ 10016540 f i SigCap.obj
 0001:000155a0       ?HasSubKeys@CRegParser@ATL@@IAEHPAUHKEY__@@@Z 100165a0 f i SigCap.obj
 0001:000156b0       ?IDataObject_GetData@CComControlBase@ATL@@QAEJPAUtagFORMATETC@@PAUtagSTGMEDIUM@@@Z 100166b0 f i SigCap.obj
 0001:00015ad0       ?IOleInPlaceObject_InPlaceDeactivate@CComControlBase@ATL@@QAEJXZ 10016ad0 f i SigCap.obj
 0001:00015cd0       ?IOleInPlaceObject_SetObjectRects@CComControlBase@ATL@@QAEJPBUtagRECT@@0@Z 10016cd0 f i SigCap.obj
 0001:00015e90       ?IOleInPlaceObject_UIDeactivate@CComControlBase@ATL@@QAEJXZ 10016e90 f i SigCap.obj
 0001:00016100       ?IOleObject_Advise@CComControlBase@ATL@@QAEJPAUIAdviseSink@@PAK@Z 10017100 f i SigCap.obj
 0001:000161b0       ?IOleObject_Close@CComControlBase@ATL@@QAEJK@Z 100171b0 f i SigCap.obj
 0001:00016460       ?IOleObject_GetClientSite@CComControlBase@ATL@@QAEJPAPAUIOleClientSite@@@Z 10017460 f i SigCap.obj
 0001:00016500       ?IOleObject_SetClientSite@CComControlBase@ATL@@QAEJPAUIOleClientSite@@@Z 10017500 f i SigCap.obj
 0001:000165d0       ?IOleObject_SetExtent@CComControlBase@ATL@@QAEJKPAUtagSIZE@@@Z 100175d0 f i SigCap.obj
 0001:00016710       ?IPSI_GetIPersistStreamInit@?$IPersistStorageImpl@VCOPOSSigCap@@@ATL@@AAEPAUIPersistStreamInit@@XZ 10017710 f i SigCap.obj
 0001:000167e0       ?IPersistStreamInit_Load@?$IPersistStreamInitImpl@VCOPOSSigCap@@@ATL@@QAEJPAUIStream@@PBUATL_PROPMAP_ENTRY@2@@Z 100177e0 f i SigCap.obj
 0001:00016860       ?IPersistStreamInit_Save@?$IPersistStreamInitImpl@VCOPOSSigCap@@@ATL@@QAEJPAUIStream@@HPBUATL_PROPMAP_ENTRY@2@@Z 10017860 f i SigCap.obj
 0001:000168f0       ?IQuickActivate_QuickActivate@CComControlBase@ATL@@QAEJPAUtagQACONTAINER@@PAUtagQACONTROL@@@Z 100178f0 f i SigCap.obj
 0001:00016f40       ?IViewObject_Draw@CComControlBase@ATL@@QAEJKJPAXPAUtagDVTARGETDEVICE@@PAUHDC__@@2PBU_RECTL@@3@Z 10017f40 f i SigCap.obj
 0001:000171e0       ?InPlaceActivate@CComControlBase@ATL@@QAEJJPBUtagRECT@@@Z 100181e0 f i SigCap.obj
 0001:00017b70       ?InPlaceDeactivate@?$IOleInPlaceObjectWindowlessImpl@VCOPOSSigCap@@@ATL@@UAGJXZ 10018b70 f i SigCap.obj
 0001:00017bf0       ?Increment@CComMultiThreadModel@ATL@@SGKPAJ@Z 10018bf0 f i SigCap.obj
 0001:00017c10       ?Increment@CComSingleThreadModel@ATL@@SGKPAJ@Z 10018c10 f i SigCap.obj
 0001:00017c30       ?Init@?$CComEnumImpl@UIEnumConnectionPoints@@$1?_GUID_b196b285_bab4_101a_b69c_00aa00341d07@@3U__s_GUID@@BPAUIConnectionPoint@@V?$_CopyInterface@UIConnectionPoint@@@ATL@@@ATL@@QAEJPAPAUIConnectionPoint@@0PAUIUnknown@@W4CComEnumFlags@2@@Z 10018c30 f i SigCap.obj
 0001:00017e10       ?Init@?$CComEnumImpl@UIEnumConnections@@$1?_GUID_b196b287_bab4_101a_b69c_00aa00341d07@@3U__s_GUID@@BUtagCONNECTDATA@@V?$_Copy@UtagCONNECTDATA@@@ATL@@@ATL@@QAEJPAUtagCONNECTDATA@@0PAUIUnknown@@W4CComEnumFlags@2@@Z 10018e10 f i SigCap.obj
 0001:00017ff0       ?Init@CComFakeCriticalSection@ATL@@QAEJXZ 10018ff0 f i SigCap.obj
 0001:00018000       ?Init@CComModule@ATL@@QAEJPAU_ATL_OBJMAP_ENTRY30@2@PAUHINSTANCE__@@PBU_GUID@@@Z 10019000 f i SigCap.obj
 0001:000180f0       ?Init@CComSafeDeleteCriticalSection@ATL@@QAEJXZ 100190f0 f i SigCap.obj
 0001:00018170       ?Init@CDynamicStdCallThunk2@ATL@@QAEHKPAX@Z 10019170 f i SigCap.obj
 0001:000181d0       ?Init@CWndProcThunk@ATL@@QAEHP6GJPAUHWND__@@IIJ@ZPAX@Z 100191d0 f i SigCap.obj
 0001:00018210       ?InitFromData@?$IOleObjectImpl@VCOPOSSigCap@@@ATL@@UAGJPAUIDataObject@@HK@Z 10019210 f i SigCap.obj
 0001:00018280       ?InitLibId@?$CAtlModuleT@VCComModule@ATL@@@ATL@@SAXXZ 10019280 f i SigCap.obj
 0001:00018290       ?InitNew@?$IPersistStorageImpl@VCOPOSSigCap@@@ATL@@UAGJPAUIStorage@@@Z 10019290 f i SigCap.obj
 0001:00018380       ?InitNew@?$IPersistStreamInitImpl@VCOPOSSigCap@@@ATL@@UAGJXZ 10019380 f i SigCap.obj
 0001:00018410       ?InlineIsEqualUnknown@ATL@@YGHABU_GUID@@@Z 10019410 f i SigCap.obj
 0001:00018480       ?InternalAddRef@?$CComObjectRootEx@VCComMultiThreadModel@ATL@@@ATL@@QAEKXZ 10019480 f i SigCap.obj
 0001:000184e0       ?InternalAddRef@?$CComObjectRootEx@VCComSingleThreadModel@ATL@@@ATL@@QAEKXZ 100194e0 f i SigCap.obj
 0001:00018540       ?InternalFinalConstructAddRef@CComObjectRootBase@ATL@@QAEXXZ 10019540 f i SigCap.obj
 0001:00018550       ?InternalFinalConstructAddRef@COPOSSigCap@@QAEXXZ 10019550 f i SigCap.obj
 0001:00018580       ?InternalFinalConstructRelease@CComObjectRootBase@ATL@@QAEXXZ 10019580 f i SigCap.obj
 0001:000185d0       ?InternalFinalConstructRelease@COPOSSigCap@@QAEXXZ 100195d0 f i SigCap.obj
 0001:00018600       ?InternalGetSite@CComControlBase@ATL@@QAEJABU_GUID@@PAPAX@Z 10019600 f i SigCap.obj
 0001:000186c0       ?InternalQueryInterface@CComObjectRootBase@ATL@@SGJPAXPBU_ATL_INTMAP_ENTRY@2@ABU_GUID@@PAPAX@Z 100196c0 f i SigCap.obj
 0001:00018780       ?InternalRelease@?$CComObjectRootEx@VCComMultiThreadModel@ATL@@@ATL@@QAEKXZ 10019780 f i SigCap.obj
 0001:000187f0       ?InternalRelease@?$CComObjectRootEx@VCComSingleThreadModel@ATL@@@ATL@@QAEKXZ 100197f0 f i SigCap.obj
 0001:00018860       ?InternalSetAtIndex@?$CSimpleArray@GV?$CSimpleArrayEqualHelper@G@ATL@@@ATL@@QAEXHABG@Z 10019860 f i SigCap.obj
 0001:000188d0       ?InternalSetAtIndex@?$CSimpleMap@PA_WPA_WVCExpansionVectorEqualHelper@ATL@@@ATL@@QAEXHABQA_W0@Z 100198d0 f i SigCap.obj
 0001:00018970       ?Invoke@?$IDispatchImpl@UIOPOSSigCap@@$1?IID_IOPOSSigCap@@3U_GUID@@B$1?LIBID_OposSigCap_CCO@@3U3@B$00$0A@VCComTypeInfoHolder@ATL@@@ATL@@UAGJJABU_GUID@@KGPAUtagDISPPARAMS@@PAUtagVARIANT@@PAUtagEXCEPINFO@@PAI@Z 10019970 f i SigCap.obj
 0001:000189b0       ?Invoke@CComTypeInfoHolder@ATL@@QAEJPAUIDispatch@@JABU_GUID@@KGPAUtagDISPPARAMS@@PAUtagVARIANT@@PAUtagEXCEPINFO@@PAI@Z 100199b0 f i SigCap.obj
 0001:00018a40       ?IsDirty@?$IPersistStorageImpl@VCOPOSSigCap@@@ATL@@UAGJXZ 10019a40 f i SigCap.obj
 0001:00018b30       ?IsDirty@?$IPersistStreamInitImpl@VCOPOSSigCap@@@ATL@@UAGJXZ 10019b30 f i SigCap.obj
 0001:00018bd0       ?IsEqualKey@CExpansionVectorEqualHelper@ATL@@SA_NQA_W0@Z 10019bd0 f i SigCap.obj
 0001:00018c00       ?IsEqualObject@?$CComPtrBase@UIOleClientSite@@@ATL@@QAE_NPAUIUnknown@@@Z 10019c00 f i SigCap.obj
 0001:00018d30       ?IsEqualObject@?$CComPtrBase@UITypeInfo@@@ATL@@QAE_NPAUIUnknown@@@Z 10019d30 f i SigCap.obj
 0001:00018e60       ?IsSpace@CRegParser@ATL@@IAEH_W@Z 10019e60 f i SigCap.obj
 0001:00018ec0       ?IsUpToDate@?$IOleObjectImpl@VCOPOSSigCap@@@ATL@@UAGJXZ 10019ec0 f i SigCap.obj
 0001:00018f20       ?Length@CComBSTR@ATL@@QBEIXZ 10019f20 f i SigCap.obj
 0001:00018f60       ?Load@?$IPersistStorageImpl@VCOPOSSigCap@@@ATL@@UAGJPAUIStorage@@@Z 10019f60 f i SigCap.obj
 0001:000190c0       ?Load@?$IPersistStreamInitImpl@VCOPOSSigCap@@@ATL@@UAGJPAUIStream@@@Z 1001a0c0 f i SigCap.obj
 0001:00019150       ?LoadCursorW@AtlModuleRegisterWndClassInfoParamW@ATL@@SAPAUHICON__@@PAUHINSTANCE__@@PB_W@Z 1001a150 f i SigCap.obj
 0001:00019180       ?LoadNameCache@CComTypeInfoHolder@ATL@@QAEJPAUITypeInfo@@@Z 1001a180 f i SigCap.obj
 0001:00019410       ?Lock@?$CComCritSecLock@VCComCriticalSection@ATL@@@ATL@@QAEJXZ 1001a410 f i SigCap.obj
 0001:000194c0       ?Lock@?$CComObjectRootEx@VCComSingleThreadModel@ATL@@@ATL@@QAEXXZ 1001a4c0 f i SigCap.obj
 0001:000194d0       ?Lock@CAtlModule@ATL@@UAEJXZ 1001a4d0 f i SigCap.obj
 0001:00019500       ?Lock@CComCriticalSection@ATL@@QAEJXZ 1001a500 f i SigCap.obj
 0001:00019540       ?Lock@CComFakeCriticalSection@ATL@@QAEJXZ 1001a540 f i SigCap.obj
 0001:00019550       ?LockServer@CComClassFactory@ATL@@UAGJH@Z 1001a550 f i SigCap.obj
 0001:000195b0       ?Lookup@?$CSimpleMap@PA_WPA_WVCExpansionVectorEqualHelper@ATL@@@ATL@@QBEPA_WABQA_W@Z 1001a5b0 f i SigCap.obj
 0001:00019600       ?Next@?$CComEnumImpl@UIEnumConnectionPoints@@$1?_GUID_b196b285_bab4_101a_b69c_00aa00341d07@@3U__s_GUID@@BPAUIConnectionPoint@@V?$_CopyInterface@UIConnectionPoint@@@ATL@@@ATL@@UAGJKPAPAUIConnectionPoint@@PAK@Z 1001a600 f i SigCap.obj
 0001:00019770       ?Next@?$CComEnumImpl@UIEnumConnections@@$1?_GUID_b196b287_bab4_101a_b69c_00aa00341d07@@3U__s_GUID@@BUtagCONNECTDATA@@V?$_Copy@UtagCONNECTDATA@@@ATL@@@ATL@@UAGJKPAUtagCONNECTDATA@@PAK@Z 1001a770 f i SigCap.obj
 0001:000198e0       ?NextToken@CRegParser@ATL@@IAEJPA_W@Z 1001a8e0 f i SigCap.obj
 0001:00019b80       ?OLE2CT_EX@@YAPB_WPB_WI@Z  1001ab80 f i SigCap.obj
 0001:00019b90       ?OLE2CT_EX_DEF@@YAPB_WPB_W@Z 1001ab90 f i SigCap.obj
 0001:00019ba0       ?OLE2T_EX@@YAPA_WPA_WI@Z   1001aba0 f i SigCap.obj
 0001:00019bb0       ?OnAmbientPropertyChange@?$IOleControlImpl@VCOPOSSigCap@@@ATL@@UAGJJ@Z 1001abb0 f i SigCap.obj
 0001:00019c40       ?OnDocWindowActivate@?$IOleInPlaceActiveObjectImpl@VCOPOSSigCap@@@ATL@@UAGJH@Z 1001ac40 f i SigCap.obj
 0001:00019cd0       ?OnDrawAdvanced@CComControlBase@ATL@@UAEJAAUATL_DRAWINFO@@@Z 1001acd0 f i SigCap.obj
 0001:00019ef0       ?OnFinalMessage@?$CWindowImplBaseT@VCWindow@ATL@@V?$CWinTraits@$0FGAAAAAA@$0A@@2@@ATL@@UAEXPAUHWND__@@@Z 1001aef0 f i SigCap.obj
 0001:00019f00       ?OnFrameWindowActivate@?$IOleInPlaceActiveObjectImpl@VCOPOSSigCap@@@ATL@@UAGJH@Z 1001af00 f i SigCap.obj
 0001:00019f60       ?OnKillFocus@CComControlBase@ATL@@QAEJIIJAAH@Z 1001af60 f i SigCap.obj
 0001:0001a060       ?OnMnemonic@?$IOleControlImpl@VCOPOSSigCap@@@ATL@@UAGJPAUtagMSG@@@Z 1001b060 f i SigCap.obj
 0001:0001a0d0       ?OnMouseActivate@CComControlBase@ATL@@QAEJIIJAAH@Z 1001b0d0 f i SigCap.obj
 0001:0001a220       ?OnPaint@CComControlBase@ATL@@QAEJIIJAAH@Z 1001b220 f i SigCap.obj
 0001:0001a3a0       ?OnPostVerbDiscardUndo@?$IOleObjectImpl@VCOPOSSigCap@@@ATL@@QAEJXZ 1001b3a0 f i SigCap.obj
 0001:0001a3b0       ?OnPostVerbHide@?$IOleObjectImpl@VCOPOSSigCap@@@ATL@@QAEJXZ 1001b3b0 f i SigCap.obj
 0001:0001a3c0       ?OnPostVerbInPlaceActivate@?$IOleObjectImpl@VCOPOSSigCap@@@ATL@@QAEJXZ 1001b3c0 f i SigCap.obj
 0001:0001a3d0       ?OnPostVerbOpen@?$IOleObjectImpl@VCOPOSSigCap@@@ATL@@QAEJXZ 1001b3d0 f i SigCap.obj
 0001:0001a3e0       ?OnPostVerbShow@?$IOleObjectImpl@VCOPOSSigCap@@@ATL@@QAEJXZ 1001b3e0 f i SigCap.obj
 0001:0001a3f0       ?OnPostVerbUIActivate@?$IOleObjectImpl@VCOPOSSigCap@@@ATL@@QAEJXZ 1001b3f0 f i SigCap.obj
 0001:0001a400       ?OnPreVerbDiscardUndo@?$IOleObjectImpl@VCOPOSSigCap@@@ATL@@QAEJXZ 1001b400 f i SigCap.obj
 0001:0001a410       ?OnPreVerbHide@?$IOleObjectImpl@VCOPOSSigCap@@@ATL@@QAEJXZ 1001b410 f i SigCap.obj
 0001:0001a420       ?OnPreVerbInPlaceActivate@?$IOleObjectImpl@VCOPOSSigCap@@@ATL@@QAEJXZ 1001b420 f i SigCap.obj
 0001:0001a430       ?OnPreVerbOpen@?$IOleObjectImpl@VCOPOSSigCap@@@ATL@@QAEJXZ 1001b430 f i SigCap.obj
 0001:0001a440       ?OnPreVerbShow@?$IOleObjectImpl@VCOPOSSigCap@@@ATL@@QAEJXZ 1001b440 f i SigCap.obj
 0001:0001a450       ?OnPreVerbUIActivate@?$IOleObjectImpl@VCOPOSSigCap@@@ATL@@QAEJXZ 1001b450 f i SigCap.obj
 0001:0001a460       ?OnSetFocus@CComControlBase@ATL@@QAEJIIJAAH@Z 1001b460 f i SigCap.obj
 0001:0001a5f0       ?OnWindowMessage@?$IOleInPlaceObjectWindowlessImpl@VCOPOSSigCap@@@ATL@@UAGJIIJPAJ@Z 1001b5f0 f i SigCap.obj
 0001:0001a750       ?Open@CRegKey@ATL@@QAEJPAUHKEY__@@PB_WK@Z 1001b750 f i SigCap.obj
 0001:0001a8a0       ?OuterAddRef@CComObjectRootBase@ATL@@QAEKXZ 1001b8a0 f i SigCap.obj
 0001:0001a8e0       ?OuterQueryInterface@CComObjectRootBase@ATL@@QAEJABU_GUID@@PAPAX@Z 1001b8e0 f i SigCap.obj
 0001:0001a930       ?OuterRelease@CComObjectRootBase@ATL@@QAEKXZ 1001b930 f i SigCap.obj
 0001:0001a970       ?PreProcessBuffer@CRegParser@ATL@@QAEJPA_WPAPA_W@Z 1001b970 f i SigCap.obj
 0001:0001aeb0       ?PreTranslateAccelerator@CComControlBase@ATL@@QAEHPAUtagMSG@@AAJ@Z 1001beb0 f i SigCap.obj
 0001:0001aec0       ?ProcessWindowMessage@?$CComControl@VCOPOSSigCap@@V?$CWindowImpl@VCOPOSSigCap@@VCWindow@ATL@@V?$CWinTraits@$0FGAAAAAA@$0A@@3@@ATL@@@ATL@@UAEHPAUHWND__@@IIJAAJK@Z 1001bec0 f i SigCap.obj
 0001:0001b090       ?ProcessWindowMessage@COPOSSigCap@@UAEHPAUHWND__@@IIJAAJK@Z 1001c090 f i SigCap.obj
 0001:0001b190       ?PutProperty@?$CComPtr@UIDispatch@@@ATL@@QAEJJPAUtagVARIANT@@@Z 1001c190 f i SigCap.obj
 0001:0001b1d0       ?PutProperty@?$CComPtr@UIDispatch@@@ATL@@SAJPAUIDispatch@@JPAUtagVARIANT@@@Z 1001c1d0 f i SigCap.obj
 0001:0001b3c0       ?QueryGetData@?$IDataObjectImpl@VCOPOSSigCap@@@ATL@@UAGJPAUtagFORMATETC@@@Z 1001c3c0 f i SigCap.obj
 0001:0001b430       ?QueryHitPoint@?$IViewObjectExImpl@VCOPOSSigCap@@@ATL@@UAGJKPBUtagRECT@@UtagPOINT@@JPAK@Z 1001c430 f i SigCap.obj
 0001:0001b540       ?QueryHitRect@?$IViewObjectExImpl@VCOPOSSigCap@@@ATL@@UAGJKPBUtagRECT@@0JPAK@Z 1001c540 f i SigCap.obj
 0001:0001b690       ?QueryInterface@?$CComAggObject@VCOPOSSigCap@@@ATL@@UAGJABU_GUID@@PAPAX@Z 1001c690 f i SigCap.obj
 0001:0001b740       ?QueryInterface@?$CComContainedObject@VCOPOSSigCap@@@ATL@@UAGJABU_GUID@@PAPAX@Z 1001c740 f i SigCap.obj
 0001:0001b764       ?QueryInterface@?$CComContainedObject@VCOPOSSigCap@@@ATL@@WHA@AGJABU_GUID@@PAPAX@Z 1001c764 f i SigCap.obj
 0001:0001b76e       ?QueryInterface@?$CComContainedObject@VCOPOSSigCap@@@ATL@@WHE@AGJABU_GUID@@PAPAX@Z 1001c76e f i SigCap.obj
 0001:0001b778       ?QueryInterface@?$CComContainedObject@VCOPOSSigCap@@@ATL@@WHI@AGJABU_GUID@@PAPAX@Z 1001c778 f i SigCap.obj
 0001:0001b782       ?QueryInterface@?$CComContainedObject@VCOPOSSigCap@@@ATL@@WHM@AGJABU_GUID@@PAPAX@Z 1001c782 f i SigCap.obj
 0001:0001b78c       ?QueryInterface@?$CComContainedObject@VCOPOSSigCap@@@ATL@@WIA@AGJABU_GUID@@PAPAX@Z 1001c78c f i SigCap.obj
 0001:0001b799       ?QueryInterface@?$CComContainedObject@VCOPOSSigCap@@@ATL@@WIE@AGJABU_GUID@@PAPAX@Z 1001c799 f i SigCap.obj
 0001:0001b7a6       ?QueryInterface@?$CComContainedObject@VCOPOSSigCap@@@ATL@@WII@AGJABU_GUID@@PAPAX@Z 1001c7a6 f i SigCap.obj
 0001:0001b7b3       ?QueryInterface@?$CComContainedObject@VCOPOSSigCap@@@ATL@@WIM@AGJABU_GUID@@PAPAX@Z 1001c7b3 f i SigCap.obj
 0001:0001b7c0       ?QueryInterface@?$CComContainedObject@VCOPOSSigCap@@@ATL@@WJA@AGJABU_GUID@@PAPAX@Z 1001c7c0 f i SigCap.obj
 0001:0001b7cd       ?QueryInterface@?$CComContainedObject@VCOPOSSigCap@@@ATL@@WJE@AGJABU_GUID@@PAPAX@Z 1001c7cd f i SigCap.obj
 0001:0001b7da       ?QueryInterface@?$CComContainedObject@VCOPOSSigCap@@@ATL@@WJI@AGJABU_GUID@@PAPAX@Z 1001c7da f i SigCap.obj
 0001:0001b7e7       ?QueryInterface@?$CComContainedObject@VCOPOSSigCap@@@ATL@@WJM@AGJABU_GUID@@PAPAX@Z 1001c7e7 f i SigCap.obj
 0001:0001b7f4       ?QueryInterface@?$CComContainedObject@VCOPOSSigCap@@@ATL@@WKA@AGJABU_GUID@@PAPAX@Z 1001c7f4 f i SigCap.obj
 0001:0001b810       ?QueryInterface@?$CComObject@V?$CComEnum@UIEnumConnectionPoints@@$1?_GUID_b196b285_bab4_101a_b69c_00aa00341d07@@3U__s_GUID@@BPAUIConnectionPoint@@V?$_CopyInterface@UIConnectionPoint@@@ATL@@VCComSingleThreadModel@6@@ATL@@@ATL@@UAGJABU_GUID@@PAPAX@Z 1001c810 f i SigCap.obj
 0001:0001b830       ?QueryInterface@?$CComObject@V?$CComEnum@UIEnumConnections@@$1?_GUID_b196b287_bab4_101a_b69c_00aa00341d07@@3U__s_GUID@@BUtagCONNECTDATA@@V?$_Copy@UtagCONNECTDATA@@@ATL@@VCComSingleThreadModel@6@@ATL@@@ATL@@UAGJABU_GUID@@PAPAX@Z 1001c830 f i SigCap.obj
 0001:0001b850       ?QueryInterface@?$CComObject@VCOPOSSigCap@@@ATL@@UAGJABU_GUID@@PAPAX@Z 1001c850 f i SigCap.obj
 0001:0001b86e       ?QueryInterface@?$CComObject@VCOPOSSigCap@@@ATL@@WHA@AGJABU_GUID@@PAPAX@Z 1001c86e f i SigCap.obj
 0001:0001b878       ?QueryInterface@?$CComObject@VCOPOSSigCap@@@ATL@@WHE@AGJABU_GUID@@PAPAX@Z 1001c878 f i SigCap.obj
 0001:0001b882       ?QueryInterface@?$CComObject@VCOPOSSigCap@@@ATL@@WHI@AGJABU_GUID@@PAPAX@Z 1001c882 f i SigCap.obj
 0001:0001b88c       ?QueryInterface@?$CComObject@VCOPOSSigCap@@@ATL@@WHM@AGJABU_GUID@@PAPAX@Z 1001c88c f i SigCap.obj
 0001:0001b896       ?QueryInterface@?$CComObject@VCOPOSSigCap@@@ATL@@WIA@AGJABU_GUID@@PAPAX@Z 1001c896 f i SigCap.obj
 0001:0001b8a3       ?QueryInterface@?$CComObject@VCOPOSSigCap@@@ATL@@WIE@AGJABU_GUID@@PAPAX@Z 1001c8a3 f i SigCap.obj
 0001:0001b8b0       ?QueryInterface@?$CComObject@VCOPOSSigCap@@@ATL@@WII@AGJABU_GUID@@PAPAX@Z 1001c8b0 f i SigCap.obj
 0001:0001b8bd       ?QueryInterface@?$CComObject@VCOPOSSigCap@@@ATL@@WIM@AGJABU_GUID@@PAPAX@Z 1001c8bd f i SigCap.obj
 0001:0001b8ca       ?QueryInterface@?$CComObject@VCOPOSSigCap@@@ATL@@WJA@AGJABU_GUID@@PAPAX@Z 1001c8ca f i SigCap.obj
 0001:0001b8d7       ?QueryInterface@?$CComObject@VCOPOSSigCap@@@ATL@@WJE@AGJABU_GUID@@PAPAX@Z 1001c8d7 f i SigCap.obj
 0001:0001b8e4       ?QueryInterface@?$CComObject@VCOPOSSigCap@@@ATL@@WJI@AGJABU_GUID@@PAPAX@Z 1001c8e4 f i SigCap.obj
 0001:0001b8f1       ?QueryInterface@?$CComObject@VCOPOSSigCap@@@ATL@@WJM@AGJABU_GUID@@PAPAX@Z 1001c8f1 f i SigCap.obj
 0001:0001b8fe       ?QueryInterface@?$CComObject@VCOPOSSigCap@@@ATL@@WKA@AGJABU_GUID@@PAPAX@Z 1001c8fe f i SigCap.obj
 0001:0001b910       ?QueryInterface@?$CComObjectCached@VCComClassFactory@ATL@@@ATL@@UAGJABU_GUID@@PAPAX@Z 1001c910 f i SigCap.obj
 0001:0001b930       ?QueryInterface@CRegObject@ATL@@UAGJABU_GUID@@PAPAX@Z 1001c930 f i SigCap.obj
 0001:0001b980       ?QuickActivate@?$IQuickActivateImpl@VCOPOSSigCap@@@ATL@@UAGJPAUtagQACONTAINER@@PAUtagQACONTROL@@@Z 1001c980 f i SigCap.obj
 0001:0001ba10       ?ReactivateAndUndo@?$IOleInPlaceObjectWindowlessImpl@VCOPOSSigCap@@@ATL@@UAGJXZ 1001ca10 f i SigCap.obj
 0001:0001ba80       ?ReadFromStream@CComBSTR@ATL@@QAEJPAUIStream@@@Z 1001ca80 f i SigCap.obj
 0001:0001be80       ?ReadFromStream@CComVariant@ATL@@QAEJPAUIStream@@GTClassesAllowedInStream@2@K@Z 1001ce80 f i SigCap.obj
 0001:0001c200       ?RecurseDeleteKey@CRegKey@ATL@@QAEJPB_W@Z 1001d200 f i SigCap.obj
 0001:0001c3e0       ?RegCreateKeyExW@CAtlTransactionManager@ATL@@QAEJPAUHKEY__@@PB_WKPA_WKKQAU_SECURITY_ATTRIBUTES@@PAPAU3@PAK@Z 1001d3e0 f i SigCap.obj
 0001:0001c510       ?RegDeleteKeyW@CAtlTransactionManager@ATL@@QAEJPAUHKEY__@@PB_W@Z 1001d510 f i SigCap.obj
 0001:0001c610       ?RegOpenKeyExW@CAtlTransactionManager@ATL@@QAEJPAUHKEY__@@PB_WKKPAPAU3@@Z 1001d610 f i SigCap.obj
 0001:0001c720       ?Register@_ATL_WNDCLASSINFOW@ATL@@QAEGPAP6GJPAUHWND__@@IIJ@Z@Z 1001d720 f i SigCap.obj
 0001:0001c760       ?RegisterBuffer@CRegParser@ATL@@QAEJPA_WH@Z 1001d760 f i SigCap.obj
 0001:0001ca90       ?RegisterClassExW@AtlModuleRegisterWndClassInfoParamW@ATL@@SAGPAU_ATL_WIN_MODULE70@2@PBUtagWNDCLASSEXW@@@Z 1001da90 f i SigCap.obj
 0001:0001cab0       ?RegisterFromResource@CRegObject@ATL@@IAEJPB_W00H@Z 1001dab0 f i SigCap.obj
 0001:0001ce40       ?RegisterServer@?$CAtlModuleT@VCComModule@ATL@@@ATL@@QAEJHPBU_GUID@@@Z 1001de40 f i SigCap.obj
 0001:0001cec0       ?RegisterServer@CAtlComModule@ATL@@QAEJHPBU_GUID@@@Z 1001dec0 f i SigCap.obj
 0001:0001cef0       ?RegisterServer@CComModule@ATL@@QAEJHPBU_GUID@@@Z 1001def0 f i SigCap.obj
 0001:0001cfd0       ?RegisterSubkeys@CRegParser@ATL@@IAEJPA_WPAUHKEY__@@HH@Z 1001dfd0 f i SigCap.obj
 0001:0001daf0       ?Release@?$CComAggObject@VCOPOSSigCap@@@ATL@@UAGKXZ 1001eaf0 f i SigCap.obj
 0001:0001dbb0       ?Release@?$CComContainedObject@VCOPOSSigCap@@@ATL@@UAGKXZ 1001ebb0 f i SigCap.obj
 0001:0001dbcc       ?Release@?$CComContainedObject@VCOPOSSigCap@@@ATL@@WHA@AGKXZ 1001ebcc f i SigCap.obj
 0001:0001dbd6       ?Release@?$CComContainedObject@VCOPOSSigCap@@@ATL@@WHE@AGKXZ 1001ebd6 f i SigCap.obj
 0001:0001dbe0       ?Release@?$CComContainedObject@VCOPOSSigCap@@@ATL@@WHI@AGKXZ 1001ebe0 f i SigCap.obj
 0001:0001dbea       ?Release@?$CComContainedObject@VCOPOSSigCap@@@ATL@@WHM@AGKXZ 1001ebea f i SigCap.obj
 0001:0001dbf4       ?Release@?$CComContainedObject@VCOPOSSigCap@@@ATL@@WIA@AGKXZ 1001ebf4 f i SigCap.obj
 0001:0001dc01       ?Release@?$CComContainedObject@VCOPOSSigCap@@@ATL@@WIE@AGKXZ 1001ec01 f i SigCap.obj
 0001:0001dc0e       ?Release@?$CComContainedObject@VCOPOSSigCap@@@ATL@@WII@AGKXZ 1001ec0e f i SigCap.obj
 0001:0001dc1b       ?Release@?$CComContainedObject@VCOPOSSigCap@@@ATL@@WIM@AGKXZ 1001ec1b f i SigCap.obj
 0001:0001dc28       ?Release@?$CComContainedObject@VCOPOSSigCap@@@ATL@@WJA@AGKXZ 1001ec28 f i SigCap.obj
 0001:0001dc35       ?Release@?$CComContainedObject@VCOPOSSigCap@@@ATL@@WJE@AGKXZ 1001ec35 f i SigCap.obj
 0001:0001dc42       ?Release@?$CComContainedObject@VCOPOSSigCap@@@ATL@@WJI@AGKXZ 1001ec42 f i SigCap.obj
 0001:0001dc4f       ?Release@?$CComContainedObject@VCOPOSSigCap@@@ATL@@WJM@AGKXZ 1001ec4f f i SigCap.obj
 0001:0001dc5c       ?Release@?$CComContainedObject@VCOPOSSigCap@@@ATL@@WKA@AGKXZ 1001ec5c f i SigCap.obj
 0001:0001dc69       ?Release@?$CComContainedObject@VCOPOSSigCap@@@ATL@@WKI@AGKXZ 1001ec69 f i SigCap.obj
 0001:0001dc76       ?Release@?$CComContainedObject@VCOPOSSigCap@@@ATL@@WLE@AGKXZ 1001ec76 f i SigCap.obj
 0001:0001dc90       ?Release@?$CComObject@V?$CComEnum@UIEnumConnectionPoints@@$1?_GUID_b196b285_bab4_101a_b69c_00aa00341d07@@3U__s_GUID@@BPAUIConnectionPoint@@V?$_CopyInterface@UIConnectionPoint@@@ATL@@VCComSingleThreadModel@6@@ATL@@@ATL@@UAGKXZ 1001ec90 f i SigCap.obj
 0001:0001dd50       ?Release@?$CComObject@V?$CComEnum@UIEnumConnections@@$1?_GUID_b196b287_bab4_101a_b69c_00aa00341d07@@3U__s_GUID@@BUtagCONNECTDATA@@V?$_Copy@UtagCONNECTDATA@@@ATL@@VCComSingleThreadModel@6@@ATL@@@ATL@@UAGKXZ 1001ed50 f i SigCap.obj
 0001:0001de10       ?Release@?$CComObject@VCOPOSSigCap@@@ATL@@UAGKXZ 1001ee10 f i SigCap.obj
 0001:0001dec9       ?Release@?$CComObject@VCOPOSSigCap@@@ATL@@WHA@AGKXZ 1001eec9 f i SigCap.obj
 0001:0001ded3       ?Release@?$CComObject@VCOPOSSigCap@@@ATL@@WHE@AGKXZ 1001eed3 f i SigCap.obj
 0001:0001dedd       ?Release@?$CComObject@VCOPOSSigCap@@@ATL@@WHI@AGKXZ 1001eedd f i SigCap.obj
 0001:0001dee7       ?Release@?$CComObject@VCOPOSSigCap@@@ATL@@WHM@AGKXZ 1001eee7 f i SigCap.obj
 0001:0001def1       ?Release@?$CComObject@VCOPOSSigCap@@@ATL@@WIA@AGKXZ 1001eef1 f i SigCap.obj
 0001:0001defe       ?Release@?$CComObject@VCOPOSSigCap@@@ATL@@WIE@AGKXZ 1001eefe f i SigCap.obj
 0001:0001df0b       ?Release@?$CComObject@VCOPOSSigCap@@@ATL@@WII@AGKXZ 1001ef0b f i SigCap.obj
 0001:0001df18       ?Release@?$CComObject@VCOPOSSigCap@@@ATL@@WIM@AGKXZ 1001ef18 f i SigCap.obj
 0001:0001df25       ?Release@?$CComObject@VCOPOSSigCap@@@ATL@@WJA@AGKXZ 1001ef25 f i SigCap.obj
 0001:0001df32       ?Release@?$CComObject@VCOPOSSigCap@@@ATL@@WJE@AGKXZ 1001ef32 f i SigCap.obj
 0001:0001df3f       ?Release@?$CComObject@VCOPOSSigCap@@@ATL@@WJI@AGKXZ 1001ef3f f i SigCap.obj
 0001:0001df4c       ?Release@?$CComObject@VCOPOSSigCap@@@ATL@@WJM@AGKXZ 1001ef4c f i SigCap.obj
 0001:0001df59       ?Release@?$CComObject@VCOPOSSigCap@@@ATL@@WKA@AGKXZ 1001ef59 f i SigCap.obj
 0001:0001df66       ?Release@?$CComObject@VCOPOSSigCap@@@ATL@@WKI@AGKXZ 1001ef66 f i SigCap.obj
 0001:0001df73       ?Release@?$CComObject@VCOPOSSigCap@@@ATL@@WLE@AGKXZ 1001ef73 f i SigCap.obj
 0001:0001df80       ?Release@?$CComObjectCached@VCComClassFactory@ATL@@@ATL@@UAGKXZ 1001ef80 f i SigCap.obj
 0001:0001e020       ?Release@?$CComPtrBase@UIAdviseSink@@@ATL@@QAEXXZ 1001f020 f i SigCap.obj
 0001:0001e080       ?Release@?$CComPtrBase@UIDispatch@@@ATL@@QAEXXZ 1001f080 f i SigCap.obj
 0001:0001e0e0       ?Release@?$CComPtrBase@UIOleInPlaceSiteWindowless@@@ATL@@QAEXXZ 1001f0e0 f i SigCap.obj
 0001:0001e140       ?Release@CRegObject@ATL@@UAGKXZ 1001f140 f i SigCap.obj
 0001:0001e180       ?Remove@CComDynamicUnkArray@ATL@@QAEHK@Z 1001f180 f i SigCap.obj
 0001:0001e230       ?RemoveAll@?$CSimpleMap@PA_WPA_WVCExpansionVectorEqualHelper@ATL@@@ATL@@QAEXXZ 1001f230 f i SigCap.obj
 0001:0001e2c0       ?Reset@?$CComEnumImpl@UIEnumConnectionPoints@@$1?_GUID_b196b285_bab4_101a_b69c_00aa00341d07@@3U__s_GUID@@BPAUIConnectionPoint@@V?$_CopyInterface@UIConnectionPoint@@@ATL@@@ATL@@UAGJXZ 1001f2c0 f i SigCap.obj
 0001:0001e2e0       ?Reset@?$CComEnumImpl@UIEnumConnections@@$1?_GUID_b196b287_bab4_101a_b69c_00aa00341d07@@3U__s_GUID@@BUtagCONNECTDATA@@V?$_Copy@UtagCONNECTDATA@@@ATL@@@ATL@@UAGJXZ 1001f2e0 f i SigCap.obj
 0001:0001e300       ?ResizeBorder@?$IOleInPlaceActiveObjectImpl@VCOPOSSigCap@@@ATL@@UAGJPBUtagRECT@@PAUIOleInPlaceUIWindow@@H@Z 1001f300 f i SigCap.obj
 0001:0001e360       ?ResourceRegister@CRegObject@ATL@@QAGJPB_WI0@Z 1001f360 f i SigCap.obj
 0001:0001e440       ?ResourceRegisterSz@CRegObject@ATL@@QAGJPB_W00@Z 1001f440 f i SigCap.obj
 0001:0001e540       ?ResourceUnregister@CRegObject@ATL@@QAGJPB_WI0@Z 1001f540 f i SigCap.obj
 0001:0001e620       ?ResourceUnregisterSz@CRegObject@ATL@@QAGJPB_W00@Z 1001f620 f i SigCap.obj
 0001:0001e720       ?SOData@COPOSSigCap@@MAGJJ@Z 1001f720 f i SigCap.obj
 0001:0001e7a0       ?SODirectIO@COPOSSigCap@@MAGJJPAJPAPA_W@Z 1001f7a0 f i SigCap.obj
 0001:0001e960       ?SOError@COPOSSigCap@@MAGJJJJPAJ@Z 1001f960 f i SigCap.obj
 0001:0001ea20       ?SOOutputCompleteDummy@COPOSSigCap@@MAGJJ@Z 1001fa20 f i SigCap.obj
 0001:0001ea30       ?SOStatusUpdate@COPOSSigCap@@MAGJJ@Z 1001fa30 f i SigCap.obj
 0001:0001eab0       ?Save@?$IPersistStorageImpl@VCOPOSSigCap@@@ATL@@UAGJPAUIStorage@@H@Z 1001fab0 f i SigCap.obj
 0001:0001ec10       ?Save@?$IPersistStreamInitImpl@VCOPOSSigCap@@@ATL@@UAGJPAUIStream@@H@Z 1001fc10 f i SigCap.obj
 0001:0001eca0       ?SaveCompleted@?$IPersistStorageImpl@VCOPOSSigCap@@@ATL@@UAGJPAUIStorage@@@Z 1001fca0 f i SigCap.obj
 0001:0001ed00       ?SendOnDataChange@CComControlBase@ATL@@QAEJK@Z 1001fd00 f i SigCap.obj
 0001:0001edf0       ?SendOnSave@CComControlBase@ATL@@QAEJXZ 1001fdf0 f i SigCap.obj
 0001:0001ee60       ?SendOnViewChange@CComControlBase@ATL@@QAEJKJ@Z 1001fe60 f i SigCap.obj
 0001:0001eed0       ?SetAdvise@?$IViewObjectExImpl@VCOPOSSigCap@@@ATL@@UAGJKKPAUIAdviseSink@@@Z 1001fed0 f i SigCap.obj
 0001:0001ef60       ?SetClientSite@?$IOleObjectImpl@VCOPOSSigCap@@@ATL@@UAGJPAUIOleClientSite@@@Z 1001ff60 f i SigCap.obj
 0001:0001eff0       ?SetColorScheme@?$IOleObjectImpl@VCOPOSSigCap@@@ATL@@UAGJPAUtagLOGPALETTE@@@Z 1001fff0 f i SigCap.obj
 0001:0001f060       ?SetContentExtent@?$IQuickActivateImpl@VCOPOSSigCap@@@ATL@@UAGJPAUtagSIZE@@@Z 10020060 f i SigCap.obj
 0001:0001f0f0       ?SetControlFocus@CComControlBase@ATL@@QAEHH@Z 100200f0 f i SigCap.obj
 0001:0001f270       ?SetDWORDValue@CRegKey@ATL@@QAEJPB_WK@Z 10020270 f i SigCap.obj
 0001:0001f2f0       ?SetData@?$IDataObjectImpl@VCOPOSSigCap@@@ATL@@UAGJPAUtagFORMATETC@@PAUtagSTGMEDIUM@@H@Z 100202f0 f i SigCap.obj
 0001:0001f360       ?SetExtent@?$IOleObjectImpl@VCOPOSSigCap@@@ATL@@UAGJKPAUtagSIZE@@@Z 10020360 f i SigCap.obj
 0001:0001f3f0       ?SetHostNames@?$IOleObjectImpl@VCOPOSSigCap@@@ATL@@UAGJPB_W0@Z 100203f0 f i SigCap.obj
 0001:0001f450       ?SetInterfaceSafetyOptions@?$IObjectSafetyImpl@VCOPOSSigCap@@$02@ATL@@UAGJABU_GUID@@KK@Z 10020450 f i SigCap.obj
 0001:0001f5c0       ?SetMoniker@?$IOleObjectImpl@VCOPOSSigCap@@@ATL@@UAGJKPAUIMoniker@@@Z 100205c0 f i SigCap.obj
 0001:0001f630       ?SetMultiStringValue@CRegKey@ATL@@QAEJPB_W0@Z 10020630 f i SigCap.obj
 0001:0001f750       ?SetObjectRects@?$IOleInPlaceObjectWindowlessImpl@VCOPOSSigCap@@@ATL@@UAGJPBUtagRECT@@0@Z 10020750 f i SigCap.obj
 0001:0001f7e0       ?SetStringValue@CRegKey@ATL@@QAEJPB_W0K@Z 100207e0 f i SigCap.obj
 0001:0001f910       ?SetVoid@CComClassFactory@ATL@@QAEXPAX@Z 10020910 f i SigCap.obj
 0001:0001f930       ?SetVoid@CComObjectRootBase@ATL@@QAEXPAX@Z 10020930 f i SigCap.obj
 0001:0001f940       ?SetWindowLongPtrW@@YAJPAUHWND__@@HJ@Z 10020940 f i SigCap.obj
 0001:0001f970       ?ShowWindow@CWindow@ATL@@QAEHH@Z 10020970 f i SigCap.obj
 0001:0001f9f0       ?Skip@?$CComEnumImpl@UIEnumConnectionPoints@@$1?_GUID_b196b285_bab4_101a_b69c_00aa00341d07@@3U__s_GUID@@BPAUIConnectionPoint@@V?$_CopyInterface@UIConnectionPoint@@@ATL@@@ATL@@UAGJK@Z 100209f0 f i SigCap.obj
 0001:0001fa60       ?Skip@?$CComEnumImpl@UIEnumConnections@@$1?_GUID_b196b287_bab4_101a_b69c_00aa00341d07@@3U__s_GUID@@BUtagCONNECTDATA@@V?$_Copy@UtagCONNECTDATA@@@ATL@@@ATL@@UAGJK@Z 10020a60 f i SigCap.obj
 0001:0001fad0       ?SkipAssignment@CRegParser@ATL@@IAEJPA_W@Z 10020ad0 f i SigCap.obj
 0001:0001fbb0       ?SkipWhiteSpace@CRegParser@ATL@@IAEXXZ 10020bb0 f i SigCap.obj
 0001:0001fc00       ?StartWindowProc@?$CWindowImplBaseT@VCWindow@ATL@@V?$CWinTraits@$0FGAAAAAA@$0A@@2@@ATL@@SGJPAUHWND__@@IIJ@Z 10020c00 f i SigCap.obj
 0001:0001fd20       ?StrChrW@CRegParser@ATL@@KAPA_WPA_W_W@Z 10020d20 f i SigCap.obj
 0001:0001fd90       ?StrFromMap@CRegObject@ATL@@QAEPB_WPA_W@Z 10020d90 f i SigCap.obj
 0001:0001fe20       ?Swap@?$CComPtrBase@UIAdviseSink@@@ATL@@IAEXAAV12@@Z 10020e20 f i SigCap.obj
 0001:0001fe50       ?Swap@?$CComPtrBase@UIOleClientSite@@@ATL@@IAEXAAV12@@Z 10020e50 f i SigCap.obj
 0001:0001fe80       ?Swap@?$CComPtrBase@UIUnknown@@@ATL@@IAEXAAV12@@Z 10020e80 f i SigCap.obj
 0001:0001feb0       ?T2COLE_EX@@YAPB_WPB_WI@Z  10020eb0 f i SigCap.obj
 0001:0001fec0       ?T2OLE_EX@@YAPA_WPA_WI@Z   10020ec0 f i SigCap.obj
 0001:0001fed0       ?Term@CAtlModule@ATL@@QAEXXZ 10020ed0 f i SigCap.obj
 0001:0001ff80       ?Term@CComModule@ATL@@QAEXXZ 10020f80 f i SigCap.obj
 0001:00020070       ?TranslateAcceleratorW@?$IOleInPlaceActiveObjectImpl@VCOPOSSigCap@@@ATL@@UAGJPAUtagMSG@@@Z 10021070 f i SigCap.obj
 0001:00020270       ?UIDeactivate@?$IOleInPlaceObjectWindowlessImpl@VCOPOSSigCap@@@ATL@@UAGJXZ 10021270 f i SigCap.obj
 0001:000202f0       ?Unadvise@?$CProxy_IOPOSEvents@VCOPOSSigCap@@@@UAGJK@Z 100212f0 f i SigCap.obj
 0001:00020330       ?Unadvise@?$IConnectionPointImpl@VCOPOSSigCap@@$1?DIID__IOPOSSigCapEvents@@3U_GUID@@BVCComDynamicUnkArray@ATL@@@ATL@@UAGJK@Z 10021330 f i SigCap.obj
 0001:00020400       ?Unadvise@?$IConnectionPointImpl@VCOPOSSigCap@@$1?IID_IPropertyNotifySink@@3U_GUID@@BVCComDynamicUnkArray@ATL@@@ATL@@UAGJK@Z 10021400 f i SigCap.obj
 0001:000204d0       ?Unadvise@?$IOleObjectImpl@VCOPOSSigCap@@@ATL@@UAGJK@Z 100214d0 f i SigCap.obj
 0001:000205a0       ?Unfreeze@?$IViewObjectExImpl@VCOPOSSigCap@@@ATL@@UAGJK@Z 100215a0 f i SigCap.obj
 0001:00020610       ?Unlock@?$CComCritSecLock@VCComCriticalSection@ATL@@@ATL@@QAEXXZ 10021610 f i SigCap.obj
 0001:00020680       ?Unlock@?$CComObjectRootEx@VCComSingleThreadModel@ATL@@@ATL@@QAEXXZ 10021680 f i SigCap.obj
 0001:00020690       ?Unlock@CAtlModule@ATL@@UAEJXZ 10021690 f i SigCap.obj
 0001:000206c0       ?Unlock@CComCriticalSection@ATL@@QAEJXZ 100216c0 f i SigCap.obj
 0001:00020700       ?Unlock@CComFakeCriticalSection@ATL@@QAEJXZ 10021700 f i SigCap.obj
 0001:00020710       ?UnregisterServer@?$CAtlModuleT@VCComModule@ATL@@@ATL@@QAEJHPBU_GUID@@@Z 10021710 f i SigCap.obj
 0001:00020780       ?UnregisterServer@CAtlComModule@ATL@@QAEJHPBU_GUID@@@Z 10021780 f i SigCap.obj
 0001:000207b0       ?UnregisterServer@CComModule@ATL@@QAEJHPBU_GUID@@@Z 100217b0 f i SigCap.obj
 0001:00020890       ?Update@?$IOleObjectImpl@VCOPOSSigCap@@@ATL@@UAGJXZ 10021890 f i SigCap.obj
 0001:000208f0       ?UpdateRegistryFromResource@CAtlModule@ATL@@QAGJIHPAU_ATL_REGMAP_ENTRY@2@@Z 100218f0 f i SigCap.obj
 0001:00020dc0       ?UpdateRegistryFromResource@CAtlModule@ATL@@QAGJPB_WHPAU_ATL_REGMAP_ENTRY@2@@Z 10021dc0 f i SigCap.obj
 0001:000212b0       ?UpdateRegistryFromResource@CComModule@ATL@@UAGJIHPAU_ATL_REGMAP_ENTRY@2@@Z 100222b0 f i SigCap.obj
 0001:000212e0       ?UpdateRegistryFromResource@CComModule@ATL@@UAGJPB_WHPAU_ATL_REGMAP_ENTRY@2@@Z 100222e0 f i SigCap.obj
 0001:00021310       ?UpdateRegistryFromResourceD@CComModule@ATL@@UAGJIHPAU_ATL_REGMAP_ENTRY@2@@Z 10022310 f i SigCap.obj
 0001:00021320       ?UpdateRegistryFromResourceD@CComModule@ATL@@UAGJPB_WHPAU_ATL_REGMAP_ENTRY@2@@Z 10022320 f i SigCap.obj
 0001:00021330       ?VTFromRegType@CRegParser@ATL@@KAHPB_WAAG@Z 10022330 f i SigCap.obj
 0001:00021410       ?WindowProc@?$CWindowImplBaseT@VCWindow@ATL@@V?$CWinTraits@$0FGAAAAAA@$0A@@2@@ATL@@SGJPAUHWND__@@IIJ@Z 10022410 f i SigCap.obj
 0001:00021620       ?WriteToStream@CComBSTR@ATL@@QAEJPAUIStream@@@Z 10022620 f i SigCap.obj
 0001:00021780       ?WriteToStream@CComVariant@ATL@@QAEJPAUIStream@@@Z 10022780 f i SigCap.obj
 0001:00021ae0       ?WriteToStream@CComVariant@ATL@@QAEJPAUIStream@@G@Z 10022ae0 f i SigCap.obj
 0001:00021bb0       ?_AtlFinalConstruct@CComObjectRootBase@ATL@@QAEJXZ 10022bb0 f i SigCap.obj
 0001:00021bc0       ?_AtlGetConversionACP@ATL@@YGIXZ 10022bc0 f i SigCap.obj
 0001:00021bd0       ?_AtlInitialConstruct@?$CComAggObject@VCOPOSSigCap@@@ATL@@QAEJXZ 10022bd0 f i SigCap.obj
 0001:00021c20       ?_AtlInitialConstruct@?$CComObjectRootEx@VCComMultiThreadModel@ATL@@@ATL@@QAEJXZ 10022c20 f i SigCap.obj
 0001:00021c50       ?_AtlInitialConstruct@?$CComObjectRootEx@VCComSingleThreadModel@ATL@@@ATL@@QAEJXZ 10022c50 f i SigCap.obj
 0001:00021c60       ?_AtlVerifyStackAvailable@_ATL_SAFE_ALLOCA_IMPL@ATL@@YA_NK@Z 10022c60 f i SigCap.obj
 0001:00021e10       ?_GetEntries@?$CComEnum@UIEnumConnectionPoints@@$1?_GUID_b196b285_bab4_101a_b69c_00aa00341d07@@3U__s_GUID@@BPAUIConnectionPoint@@V?$_CopyInterface@UIConnectionPoint@@@ATL@@VCComSingleThreadModel@6@@ATL@@SGPBU_ATL_INTMAP_ENTRY@2@XZ 10022e10 f i SigCap.obj
 0001:00021e30       ?_GetEntries@?$CComEnum@UIEnumConnections@@$1?_GUID_b196b287_bab4_101a_b69c_00aa00341d07@@3U__s_GUID@@BUtagCONNECTDATA@@V?$_Copy@UtagCONNECTDATA@@@ATL@@VCComSingleThreadModel@6@@ATL@@SGPBU_ATL_INTMAP_ENTRY@2@XZ 10022e30 f i SigCap.obj
 0001:00021e50       ?_GetEntries@CComClassFactory@ATL@@SGPBU_ATL_INTMAP_ENTRY@2@XZ 10022e50 f i SigCap.obj
 0001:00021e70       ?_GetEntries@COPOSSigCap@@SGPBU_ATL_INTMAP_ENTRY@ATL@@XZ 10022e70 f i SigCap.obj
 0001:00021e90       ?_GetRawUnknown@COPOSSigCap@@QAEPAUIUnknown@@XZ 10022e90 f i SigCap.obj
 0001:00021f00       ?_GetViewStatus@COPOSSigCap@@QAEKXZ 10022f00 f i SigCap.obj
 0001:00021f10       ?_InternalQueryInterface@?$CComEnum@UIEnumConnectionPoints@@$1?_GUID_b196b285_bab4_101a_b69c_00aa00341d07@@3U__s_GUID@@BPAUIConnectionPoint@@V?$_CopyInterface@UIConnectionPoint@@@ATL@@VCComSingleThreadModel@6@@ATL@@QAEJABU_GUID@@PAPAX@Z 10022f10 f i SigCap.obj
 0001:00021f50       ?_InternalQueryInterface@?$CComEnum@UIEnumConnections@@$1?_GUID_b196b287_bab4_101a_b69c_00aa00341d07@@3U__s_GUID@@BUtagCONNECTDATA@@V?$_Copy@UtagCONNECTDATA@@@ATL@@VCComSingleThreadModel@6@@ATL@@QAEJABU_GUID@@PAPAX@Z 10022f50 f i SigCap.obj
 0001:00021f90       ?_InternalQueryInterface@CComClassFactory@ATL@@QAEJABU_GUID@@PAPAX@Z 10022f90 f i SigCap.obj
 0001:00021fd0       ?_InternalQueryInterface@COPOSSigCap@@QAEJABU_GUID@@PAPAX@Z 10022fd0 f i SigCap.obj
 0001:00022010       ?_LocCPQueryInterface@?$IConnectionPointImpl@VCOPOSSigCap@@$1?DIID__IOPOSSigCapEvents@@3U_GUID@@BVCComDynamicUnkArray@ATL@@@ATL@@UAGJABU_GUID@@PAPAX@Z 10023010 f i SigCap.obj
 0001:000220b0       ?_LocCPQueryInterface@?$IConnectionPointImpl@VCOPOSSigCap@@$1?IID_IPropertyNotifySink@@3U_GUID@@BVCComDynamicUnkArray@ATL@@@ATL@@UAGJABU_GUID@@PAPAX@Z 100230b0 f i SigCap.obj
 0001:00022150       ?atlCreate@?$CWindowImpl@VCOPOSSigCap@@VCWindow@ATL@@V?$CWinTraits@$0FGAAAAAA@$0A@@3@@ATL@@QAEPAUHWND__@@PAU3@V_U_RECT@2@PB_WKKV_U_MENUorID@2@PAX@Z 10023150 f i SigCap.obj
 0001:00022200       ?atlCreate@?$CWindowImplBaseT@VCWindow@ATL@@V?$CWinTraits@$0FGAAAAAA@$0A@@2@@ATL@@QAEPAUHWND__@@PAU3@V_U_RECT@2@PB_WKKV_U_MENUorID@2@GPAX@Z 10023200 f i SigCap.obj
 0001:00022380       ?atlCreate@CRegKey@ATL@@QAEJPAUHKEY__@@PB_WPA_WKKPAU_SECURITY_ATTRIBUTES@@PAK@Z 10023380 f i SigCap.obj
 0001:000224e0       ?begin@CComDynamicUnkArray@ATL@@QAEPAPAUIUnknown@@XZ 100234e0 f i SigCap.obj
 0001:000224f0       ?copy@?$_Copy@UtagCONNECTDATA@@@ATL@@SAJPAUtagCONNECTDATA@@PBU3@@Z 100234f0 f i SigCap.obj
 0001:000225b0       ?copy@?$_CopyInterface@UIConnectionPoint@@@ATL@@SAJPAPAUIConnectionPoint@@PBQAU3@@Z 100235b0 f i SigCap.obj
 0001:00022670       ?destroy@?$_Copy@UtagCONNECTDATA@@@ATL@@SAXPAUtagCONNECTDATA@@@Z 10023670 f i SigCap.obj
 0001:000226b0       ?destroy@?$_CopyInterface@UIConnectionPoint@@@ATL@@SAXPAPAUIConnectionPoint@@@Z 100236b0 f i SigCap.obj
 0001:000226f0       ?end@CComDynamicUnkArray@ATL@@QAEPAPAUIUnknown@@XZ 100236f0 f i SigCap.obj
 0001:00022710       ?init@?$_Copy@UtagCONNECTDATA@@@ATL@@SAXPAUtagCONNECTDATA@@@Z 10023710 f i SigCap.obj
 0001:00022720       ?init@?$_CopyInterface@UIConnectionPoint@@@ATL@@SAXPAPAUIConnectionPoint@@@Z 10023720 f i SigCap.obj
 0001:00022730       ?memcpy_s@Checked@ATL@@YAXPAXIPBXI@Z 10023730 f i SigCap.obj
 0001:00022760       ?ocscpy_s@@YA_NPA_WIPB_W@Z 10023760 f i SigCap.obj
 0001:000227c0       ?ocslen@@YAHPB_W@Z         100237c0 f i SigCap.obj
 0001:000227f0       ?tcsncpy_s@Checked@ATL@@YAHPA_WIPB_WI@Z 100237f0 f i SigCap.obj
 0001:00022820       ?wcscat_s@Checked@ATL@@YAXPA_WIPB_W@Z 10023820 f i SigCap.obj
 0001:00022850       ?wcscpy_s@Checked@ATL@@YAXPA_WIPB_W@Z 10023850 f i SigCap.obj
 0001:00022880       ?wcsncpy_s@Checked@ATL@@YAHPA_WIPB_WI@Z 10023880 f i SigCap.obj
 0001:000228b0       ?wcsstr@@YAPA_WPA_WPB_W@Z  100238b0 f i SigCap.obj
 0001:000228d0       _InlineIsEqualGUID         100238d0 f i SigCap.obj
 0001:00022970       _IsEqualGUID               10023970 f i SigCap.obj
 0001:000229c0       ??0COPOSSigCap@@QAE@XZ     100239c0 f   SigCapImpl.obj
 0001:00022ad0       ?FinalConstruct@COPOSSigCap@@QAEJXZ 10023ad0 f   SigCapImpl.obj
 0001:00022ba0       ??1COPOSSigCap@@UAE@XZ     10023ba0 f   SigCapImpl.obj
 0001:00022c80       ?WriteTrace@COPOSSigCap@@QAAXPB_WZZ 10023c80 f   SigCapImpl.obj
 0001:00022d30       ?WriteTraceString@COPOSSigCap@@QAEXPB_WPA_W@Z 10023d30 f   SigCapImpl.obj
 0001:000230a0       ?WriteTraceString@COPOSSigCap@@QAAXPAXHHHPB_WZZ 100240a0 f   SigCapImpl.obj
 0001:000232d0       ?WriteTraceError@COPOSSigCap@@QAEXPB_WK@Z 100242d0 f   SigCapImpl.obj
 0001:000233c0       ?WriteTraceMethods@COPOSSigCap@@QAEXPAJH@Z 100243c0 f   SigCapImpl.obj
 0001:00023430       ?GetOposProp@COPOSSigCap@@IAEJPBDJPAJJ@Z 10024430 f   SigCapImpl.obj
 0001:000236a0       ?SetOposProp@COPOSSigCap@@IAEJPBDJJJ@Z 100246a0 f   SigCapImpl.obj
 0001:00023930       ?GetOposProp@COPOSSigCap@@IAEJPBDJPAFJ@Z 10024930 f   SigCapImpl.obj
 0001:000239d0       ?SetOposProp@COPOSSigCap@@IAEJPBDJFJ@Z 100249d0 f   SigCapImpl.obj
 0001:00023a30       ?GetOposProp@COPOSSigCap@@IAEJPBDJPAPA_WJ@Z 10024a30 f   SigCapImpl.obj
 0001:00023cb0       ?SetOposProp@COPOSSigCap@@IAEJPBDJPA_WJ@Z 10024cb0 f   SigCapImpl.obj
 0001:00023ff0       ?DoInvoke@COPOSSigCap@@IAEJPBDJPAVOposVariant@@IHPAJ_N@Z 10024ff0 f   SigCapImpl.obj
 0001:00024920       ?SetCOFreezeEvents@COPOSSigCap@@IAEXF@Z 10025920 f   SigCapImpl.obj
 0001:00024a60       ?FreezeEvents@COPOSSigCap@@MAGJH@Z 10025a60 f   SigCapImpl.obj
 0001:00024b40       ?OnDraw@COPOSSigCap@@MAEJAAUATL_DRAWINFO@@@Z 10025b40 f   SigCapImpl.obj
 0001:00024ce0       ?SOProcessID@COPOSSigCap@@UAGJPAJ@Z 10025ce0 f   SigCapImpl.obj
 0001:00024d20       ?get_OpenResult@COPOSSigCap@@UAGJPAJ@Z 10025d20 f   SigCapImpl.obj
 0001:00024d60       ?get_CheckHealthText@COPOSSigCap@@UAGJPAPA_W@Z 10025d60 f   SigCapImpl.obj
 0001:00024d90       ?get_Claimed@COPOSSigCap@@UAGJPAF@Z 10025d90 f   SigCapImpl.obj
 0001:00024dc0       ?get_DataEventEnabled@COPOSSigCap@@UAGJPAF@Z 10025dc0 f   SigCapImpl.obj
 0001:00024df0       ?put_DataEventEnabled@COPOSSigCap@@UAGJF@Z 10025df0 f   SigCapImpl.obj
 0001:00024e20       ?get_DeviceEnabled@COPOSSigCap@@UAGJPAF@Z 10025e20 f   SigCapImpl.obj
 0001:00024e50       ?put_DeviceEnabled@COPOSSigCap@@UAGJF@Z 10025e50 f   SigCapImpl.obj
 0001:00024e80       ?get_FreezeEvents@COPOSSigCap@@UAGJPAF@Z 10025e80 f   SigCapImpl.obj
 0001:00024eb0       ?put_FreezeEvents@COPOSSigCap@@UAGJF@Z 10025eb0 f   SigCapImpl.obj
 0001:00024f40       ?get_ResultCode@COPOSSigCap@@UAGJPAJ@Z 10025f40 f   SigCapImpl.obj
 0001:00024fd0       ?get_ResultCodeExtended@COPOSSigCap@@UAGJPAJ@Z 10025fd0 f   SigCapImpl.obj
 0001:00025000       ?get_State@COPOSSigCap@@UAGJPAJ@Z 10026000 f   SigCapImpl.obj
 0001:00025050       ?get_ControlObjectDescription@COPOSSigCap@@UAGJPAPA_W@Z 10026050 f   SigCapImpl.obj
 0001:000250d0       ?get_ControlObjectVersion@COPOSSigCap@@UAGJPAJ@Z 100260d0 f   SigCapImpl.obj
 0001:00025110       ?get_ServiceObjectDescription@COPOSSigCap@@UAGJPAPA_W@Z 10026110 f   SigCapImpl.obj
 0001:00025140       ?get_ServiceObjectVersion@COPOSSigCap@@UAGJPAJ@Z 10026140 f   SigCapImpl.obj
 0001:00025170       ?get_DeviceDescription@COPOSSigCap@@UAGJPAPA_W@Z 10026170 f   SigCapImpl.obj
 0001:000251a0       ?get_DeviceName@COPOSSigCap@@UAGJPAPA_W@Z 100261a0 f   SigCapImpl.obj
 0001:000251d0       ?CheckHealth@COPOSSigCap@@UAGJJPAJ@Z 100261d0 f   SigCapImpl.obj
 0001:00025270       ?ClaimDevice@COPOSSigCap@@UAGJJPAJ@Z 10026270 f   SigCapImpl.obj
 0001:00025350       ?ClearInput@COPOSSigCap@@UAGJPAJ@Z 10026350 f   SigCapImpl.obj
 0001:00025380       ?Close@COPOSSigCap@@UAGJPAJ@Z 10026380 f   SigCapImpl.obj
 0001:00025450       ?DirectIO@COPOSSigCap@@UAGJJPAJPAPA_W0@Z 10026450 f   SigCapImpl.obj
 0001:00025560       ?Open@COPOSSigCap@@UAGJPA_WPAJ@Z 10026560 f   SigCapImpl.obj
 0001:00026740       ?ReleaseDevice@COPOSSigCap@@UAGJPAJ@Z 10027740 f   SigCapImpl.obj
 0001:000267b0       ?get_CapDisplay@COPOSSigCap@@UAGJPAF@Z 100277b0 f   SigCapImpl.obj
 0001:000267e0       ?get_CapUserTerminated@COPOSSigCap@@UAGJPAF@Z 100277e0 f   SigCapImpl.obj
 0001:00026810       ?get_MaximumX@COPOSSigCap@@UAGJPAJ@Z 10027810 f   SigCapImpl.obj
 0001:00026840       ?get_MaximumY@COPOSSigCap@@UAGJPAJ@Z 10027840 f   SigCapImpl.obj
 0001:00026870       ?get_PointArray@COPOSSigCap@@UAGJPAPA_W@Z 10027870 f   SigCapImpl.obj
 0001:000268a0       ?get_RawData@COPOSSigCap@@UAGJPAPA_W@Z 100278a0 f   SigCapImpl.obj
 0001:000268d0       ?get_TotalPoints@COPOSSigCap@@UAGJPAJ@Z 100278d0 f   SigCapImpl.obj
 0001:00026900       ?BeginCapture@COPOSSigCap@@UAGJPA_WPAJ@Z 10027900 f   SigCapImpl.obj
 0001:000269b0       ?EndCapture@COPOSSigCap@@UAGJPAJ@Z 100279b0 f   SigCapImpl.obj
 0001:000269e0       ?get_AutoDisable@COPOSSigCap@@UAGJPAF@Z 100279e0 f   SigCapImpl.obj
 0001:00026a10       ?put_AutoDisable@COPOSSigCap@@UAGJF@Z 10027a10 f   SigCapImpl.obj
 0001:00026a40       ?get_BinaryConversion@COPOSSigCap@@UAGJPAJ@Z 10027a40 f   SigCapImpl.obj
 0001:00026a70       ?put_BinaryConversion@COPOSSigCap@@UAGJJ@Z 10027a70 f   SigCapImpl.obj
 0001:00026aa0       ?get_DataCount@COPOSSigCap@@UAGJPAJ@Z 10027aa0 f   SigCapImpl.obj
 0001:00026ad0       ?get_CapRealTimeData@COPOSSigCap@@UAGJPAF@Z 10027ad0 f   SigCapImpl.obj
 0001:00026b00       ?get_RealTimeDataEnabled@COPOSSigCap@@UAGJPAF@Z 10027b00 f   SigCapImpl.obj
 0001:00026b30       ?put_RealTimeDataEnabled@COPOSSigCap@@UAGJF@Z 10027b30 f   SigCapImpl.obj
 0001:00026b60       ?get_CapPowerReporting@COPOSSigCap@@UAGJPAJ@Z 10027b60 f   SigCapImpl.obj
 0001:00026b90       ?get_PowerNotify@COPOSSigCap@@UAGJPAJ@Z 10027b90 f   SigCapImpl.obj
 0001:00026bc0       ?put_PowerNotify@COPOSSigCap@@UAGJJ@Z 10027bc0 f   SigCapImpl.obj
 0001:00026bf0       ?get_PowerState@COPOSSigCap@@UAGJPAJ@Z 10027bf0 f   SigCapImpl.obj
 0001:00026c20       ?get_CapStatisticsReporting@COPOSSigCap@@UAGJPAF@Z 10027c20 f   SigCapImpl.obj
 0001:00026c50       ?get_CapUpdateStatistics@COPOSSigCap@@UAGJPAF@Z 10027c50 f   SigCapImpl.obj
 0001:00026c80       ?ResetStatistics@COPOSSigCap@@UAGJPA_WPAJ@Z 10027c80 f   SigCapImpl.obj
 0001:00026d30       ?RetrieveStatistics@COPOSSigCap@@UAGJPAPA_WPAJ@Z 10027d30 f   SigCapImpl.obj
 0001:00026de0       ?UpdateStatistics@COPOSSigCap@@UAGJPA_WPAJ@Z 10027de0 f   SigCapImpl.obj
 0001:00026e90       ?get_CapCompareFirmwareVersion@COPOSSigCap@@UAGJPAF@Z 10027e90 f   SigCapImpl.obj
 0001:00026ec0       ?get_CapUpdateFirmware@COPOSSigCap@@UAGJPAF@Z 10027ec0 f   SigCapImpl.obj
 0001:00026ef0       ?CompareFirmwareVersion@COPOSSigCap@@UAGJPA_WPAJ1@Z 10027ef0 f   SigCapImpl.obj
 0001:00026fe0       ?UpdateFirmware@COPOSSigCap@@UAGJPA_WPAJ@Z 10027fe0 f   SigCapImpl.obj
 0001:00027090       ?ClearInputProperties@COPOSSigCap@@UAGJPAJ@Z 10028090 f   SigCapImpl.obj
 0001:000270c0       ??0?$CComControl@VCOPOSSigCap@@V?$CWindowImpl@VCOPOSSigCap@@VCWindow@ATL@@V?$CWinTraits@$0FGAAAAAA@$0A@@3@@ATL@@@ATL@@QAE@XZ 100280c0 f i SigCapImpl.obj
 0001:00027100       ??0?$CComPtr@UIAdviseSink@@@ATL@@QAE@XZ 10028100 f i SigCapImpl.obj
 0001:00027130       ??0?$CComPtr@UIDataAdviseHolder@@@ATL@@QAE@XZ 10028130 f i SigCapImpl.obj
 0001:00027160       ??0?$CComPtr@UIOleAdviseHolder@@@ATL@@QAE@XZ 10028160 f i SigCapImpl.obj
 0001:00027190       ??0?$CComPtr@UIOleClientSite@@@ATL@@QAE@XZ 10028190 f i SigCapImpl.obj
 0001:000271c0       ??0?$CComPtr@UIOleInPlaceSiteWindowless@@@ATL@@QAE@XZ 100281c0 f i SigCapImpl.obj
 0001:000271f0       ??0?$CComPtrBase@UIAdviseSink@@@ATL@@IAE@XZ 100281f0 f i SigCapImpl.obj
 0001:00027210       ??0?$CComPtrBase@UIDataAdviseHolder@@@ATL@@IAE@XZ 10028210 f i SigCapImpl.obj
 0001:00027230       ??0?$CComPtrBase@UIOleAdviseHolder@@@ATL@@IAE@XZ 10028230 f i SigCapImpl.obj
 0001:00027250       ??0?$CComPtrBase@UIOleClientSite@@@ATL@@IAE@XZ 10028250 f i SigCapImpl.obj
 0001:00027270       ??0?$CComPtrBase@UIOleInPlaceSiteWindowless@@@ATL@@IAE@XZ 10028270 f i SigCapImpl.obj
 0001:00027290       ??0?$CComQIPtr@UIDispatch@@$1?_GUID_00020400_0000_0000_c000_000000000046@@3U__s_GUID@@B@ATL@@QAE@XZ 10028290 f i SigCapImpl.obj
 0001:000272c0       ??0?$CProxy_IOPOSEvents@VCOPOSSigCap@@@@QAE@PAVCOPOSSigCap@@@Z 100282c0 f i SigCapImpl.obj
 0001:00027330       ??0?$CWindowImpl@VCOPOSSigCap@@VCWindow@ATL@@V?$CWinTraits@$0FGAAAAAA@$0A@@3@@ATL@@QAE@XZ 10028330 f i SigCapImpl.obj
 0001:00027360       ??0?$CWindowImplBaseT@VCWindow@ATL@@V?$CWinTraits@$0FGAAAAAA@$0A@@2@@ATL@@QAE@XZ 10028360 f i SigCapImpl.obj
 0001:000273a0       ??0?$CWindowImplRoot@VCWindow@ATL@@@ATL@@QAE@XZ 100283a0 f i SigCapImpl.obj
 0001:00027400       ??0?$IConnectionPointContainerImpl@VCOPOSSigCap@@@ATL@@QAE@XZ 10028400 f i SigCapImpl.obj
 0001:00027430       ??0?$IConnectionPointImpl@VCOPOSSigCap@@$1?DIID__IOPOSSigCapEvents@@3U_GUID@@BVCComDynamicUnkArray@ATL@@@ATL@@QAE@XZ 10028430 f i SigCapImpl.obj
 0001:00027470       ??0?$IConnectionPointImpl@VCOPOSSigCap@@$1?IID_IPropertyNotifySink@@3U_GUID@@BVCComDynamicUnkArray@ATL@@@ATL@@QAE@XZ 10028470 f i SigCapImpl.obj
 0001:000274b0       ??0?$IDataObjectImpl@VCOPOSSigCap@@@ATL@@QAE@XZ 100284b0 f i SigCapImpl.obj
 0001:000274e0       ??0?$IDispatchImpl@UIOPOSSigCap@@$1?IID_IOPOSSigCap@@3U_GUID@@B$1?LIBID_OposSigCap_CCO@@3U3@B$00$0A@VCComTypeInfoHolder@ATL@@@ATL@@QAE@XZ 100284e0 f i SigCapImpl.obj
 0001:00027510       ??0?$IObjectSafetyImpl@VCOPOSSigCap@@$02@ATL@@QAE@XZ 10028510 f i SigCapImpl.obj
 0001:00027550       ??0?$IOleControlImpl@VCOPOSSigCap@@@ATL@@QAE@XZ 10028550 f i SigCapImpl.obj
 0001:00027580       ??0?$IOleInPlaceActiveObjectImpl@VCOPOSSigCap@@@ATL@@QAE@XZ 10028580 f i SigCapImpl.obj
 0001:000275b0       ??0?$IOleInPlaceObjectWindowlessImpl@VCOPOSSigCap@@@ATL@@QAE@XZ 100285b0 f i SigCapImpl.obj
 0001:000275e0       ??0?$IOleObjectImpl@VCOPOSSigCap@@@ATL@@QAE@XZ 100285e0 f i SigCapImpl.obj
 0001:00027610       ??0?$IPersistStorageImpl@VCOPOSSigCap@@@ATL@@QAE@XZ 10028610 f i SigCapImpl.obj
 0001:00027640       ??0?$IPersistStreamInitImpl@VCOPOSSigCap@@@ATL@@QAE@XZ 10028640 f i SigCapImpl.obj
 0001:00027670       ??0?$IPropertyNotifySinkCP@VCOPOSSigCap@@VCComDynamicUnkArray@ATL@@@ATL@@QAE@XZ 10028670 f i SigCapImpl.obj
 0001:000276a0       ??0?$IProvideClassInfo2Impl@$1?CLSID_OPOSSigCap@@3U_GUID@@B$1?DIID__IOPOSSigCapEvents@@3U2@B$1?LIBID_OposSigCap_CCO@@3U2@B$00$0A@VCComTypeInfoHolder@ATL@@@ATL@@QAE@XZ 100286a0 f i SigCapImpl.obj
 0001:000276d0       ??0?$IQuickActivateImpl@VCOPOSSigCap@@@ATL@@QAE@XZ 100286d0 f i SigCapImpl.obj
 0001:00027700       ??0?$ISpecifyPropertyPagesImpl@VCOPOSSigCap@@@ATL@@QAE@XZ 10028700 f i SigCapImpl.obj
 0001:00027730       ??0?$IViewObjectExImpl@VCOPOSSigCap@@@ATL@@QAE@XZ 10028730 f i SigCapImpl.obj
 0001:00027760       ??0?$_ICPLocator@$1?DIID__IOPOSSigCapEvents@@3U_GUID@@B@ATL@@QAE@XZ 10028760 f i SigCapImpl.obj
 0001:00027770       ??0?$_ICPLocator@$1?IID_IPropertyNotifySink@@3U_GUID@@B@ATL@@QAE@XZ 10028770 f i SigCapImpl.obj
 0001:00027780       ??0CComControlBase@ATL@@QAE@AAPAUHWND__@@@Z 10028780 f i SigCapImpl.obj
 0001:00027930       ??0CComDynamicUnkArray@ATL@@QAE@XZ 10028930 f i SigCapImpl.obj
 0001:00027960       ??0CDynamicStdCallThunk2@ATL@@QAE@XZ 10028960 f i SigCapImpl.obj
 0001:00027980       ??0CMessageMap@ATL@@QAE@XZ 10028980 f i SigCapImpl.obj
 0001:00027990       ??0CWindow@ATL@@QAE@PAUHWND__@@@Z 10028990 f i SigCapImpl.obj
 0001:000279b0       ??0CWndProcThunk@ATL@@QAE@XZ 100289b0 f i SigCapImpl.obj
 0001:000279e0       ??0IConnectionPointContainer@@QAE@XZ 100289e0 f i SigCapImpl.obj
 0001:00027a10       ??0IDataObject@@QAE@XZ     10028a10 f i SigCapImpl.obj
 0001:00027a40       ??0IDispatch@@QAE@XZ       10028a40 f i SigCapImpl.obj
 0001:00027a70       ??0IOPOSSigCap@@QAE@XZ     10028a70 f i SigCapImpl.obj
 0001:00027aa0       ??0IOPOSSigCap_1_10@@QAE@XZ 10028aa0 f i SigCapImpl.obj
 0001:00027ad0       ??0IOPOSSigCap_1_5@@QAE@XZ 10028ad0 f i SigCapImpl.obj
 0001:00027b00       ??0IOPOSSigCap_1_8@@QAE@XZ 10028b00 f i SigCapImpl.obj
 0001:00027b30       ??0IOPOSSigCap_1_9@@QAE@XZ 10028b30 f i SigCapImpl.obj
 0001:00027b60       ??0IObjectSafety@@QAE@XZ   10028b60 f i SigCapImpl.obj
 0001:00027b90       ??0IOleControl@@QAE@XZ     10028b90 f i SigCapImpl.obj
 0001:00027bc0       ??0IOleInPlaceActiveObject@@QAE@XZ 10028bc0 f i SigCapImpl.obj
 0001:00027bf0       ??0IOleInPlaceObject@@QAE@XZ 10028bf0 f i SigCapImpl.obj
 0001:00027c20       ??0IOleInPlaceObjectWindowless@@QAE@XZ 10028c20 f i SigCapImpl.obj
 0001:00027c50       ??0IOleObject@@QAE@XZ      10028c50 f i SigCapImpl.obj
 0001:00027c80       ??0IOleWindow@@QAE@XZ      10028c80 f i SigCapImpl.obj
 0001:00027cb0       ??0IPersist@@QAE@XZ        10028cb0 f i SigCapImpl.obj
 0001:00027ce0       ??0IPersistStorage@@QAE@XZ 10028ce0 f i SigCapImpl.obj
 0001:00027d10       ??0IPersistStreamInit@@QAE@XZ 10028d10 f i SigCapImpl.obj
 0001:00027d40       ??0IProvideClassInfo2@@QAE@XZ 10028d40 f i SigCapImpl.obj
 0001:00027d70       ??0IProvideClassInfo@@QAE@XZ 10028d70 f i SigCapImpl.obj
 0001:00027da0       ??0IQuickActivate@@QAE@XZ  10028da0 f i SigCapImpl.obj
 0001:00027dd0       ??0ISpecifyPropertyPages@@QAE@XZ 10028dd0 f i SigCapImpl.obj
 0001:00027e00       ??0IViewObject2@@QAE@XZ    10028e00 f i SigCapImpl.obj
 0001:00027e30       ??0IViewObject@@QAE@XZ     10028e30 f i SigCapImpl.obj
 0001:00027e60       ??0IViewObjectEx@@QAE@XZ   10028e60 f i SigCapImpl.obj
 0001:00027e90       ??0OposVariantResult@@QAE@XZ 10028e90 f i SigCapImpl.obj
 0001:00027ec0       ??0_CW@@QAE@PBD@Z          10028ec0 f i SigCapImpl.obj
 0001:00027f00       ??0_CW@@QAE@PB_W@Z         10028f00 f i SigCapImpl.obj
 0001:00027f40       ??0_CWNCC@@QAE@PBD@Z       10028f40 f i SigCapImpl.obj
 0001:00027f70       ??1?$CComControl@VCOPOSSigCap@@V?$CWindowImpl@VCOPOSSigCap@@VCWindow@ATL@@V?$CWinTraits@$0FGAAAAAA@$0A@@3@@ATL@@@ATL@@UAE@XZ 10028f70 f i SigCapImpl.obj
 0001:00027fa0       ??1?$CComPtr@UIDataAdviseHolder@@@ATL@@QAE@XZ 10028fa0 f i SigCapImpl.obj
 0001:00027fd0       ??1?$CComPtr@UIOleAdviseHolder@@@ATL@@QAE@XZ 10028fd0 f i SigCapImpl.obj
 0001:00028000       ??1?$CComPtr@UIOleInPlaceSiteWindowless@@@ATL@@QAE@XZ 10029000 f i SigCapImpl.obj
 0001:00028030       ??1?$CComPtrBase@UIDataAdviseHolder@@@ATL@@QAE@XZ 10029030 f i SigCapImpl.obj
 0001:00028080       ??1?$CComPtrBase@UIOleAdviseHolder@@@ATL@@QAE@XZ 10029080 f i SigCapImpl.obj
 0001:000280d0       ??1?$CComPtrBase@UIOleInPlaceSiteWindowless@@@ATL@@QAE@XZ 100290d0 f i SigCapImpl.obj
 0001:00028120       ??1?$CComQIPtr@UIDispatch@@$1?_GUID_00020400_0000_0000_c000_000000000046@@3U__s_GUID@@B@ATL@@QAE@XZ 10029120 f i SigCapImpl.obj
 0001:00028150       ??1?$CProxy_IOPOSEvents@VCOPOSSigCap@@@@QAE@XZ 10029150 f i SigCapImpl.obj
 0001:00028180       ??1?$CWindowImpl@VCOPOSSigCap@@VCWindow@ATL@@V?$CWinTraits@$0FGAAAAAA@$0A@@3@@ATL@@UAE@XZ 10029180 f i SigCapImpl.obj
 0001:000281b0       ??1?$CWindowImplBaseT@VCWindow@ATL@@V?$CWinTraits@$0FGAAAAAA@$0A@@2@@ATL@@UAE@XZ 100291b0 f i SigCapImpl.obj
 0001:000281e0       ??1?$CWindowImplRoot@VCWindow@ATL@@@ATL@@UAE@XZ 100291e0 f i SigCapImpl.obj
 0001:00028280       ??1?$IConnectionPointImpl@VCOPOSSigCap@@$1?DIID__IOPOSSigCapEvents@@3U_GUID@@BVCComDynamicUnkArray@ATL@@@ATL@@QAE@XZ 10029280 f i SigCapImpl.obj
 0001:00028300       ??1?$IConnectionPointImpl@VCOPOSSigCap@@$1?IID_IPropertyNotifySink@@3U_GUID@@BVCComDynamicUnkArray@ATL@@@ATL@@QAE@XZ 10029300 f i SigCapImpl.obj
 0001:00028380       ??1?$IPropertyNotifySinkCP@VCOPOSSigCap@@VCComDynamicUnkArray@ATL@@@ATL@@QAE@XZ 10029380 f i SigCapImpl.obj
 0001:000283b0       ??1CComControlBase@ATL@@UAE@XZ 100293b0 f i SigCapImpl.obj
 0001:00028470       ??1CComDynamicUnkArray@ATL@@QAE@XZ 10029470 f i SigCapImpl.obj
 0001:000284b0       ??1CDynamicStdCallThunk2@ATL@@QAE@XZ 100294b0 f i SigCapImpl.obj
 0001:000284e0       ??1CWndProcThunk@ATL@@QAE@XZ 100294e0 f i SigCapImpl.obj
 0001:00028510       ??1OposVariantResult@@QAE@XZ 10029510 f i SigCapImpl.obj
 0001:00028540       ??1_CW@@QAE@XZ             10029540 f i SigCapImpl.obj
 0001:000285b0       ??1_CWNCC@@QAE@XZ          100295b0 f i SigCapImpl.obj
 0001:000285e0       ??B_CW@@QAEPB_WXZ          100295e0 f i SigCapImpl.obj
 0001:00028620       ??B_CWNCC@@QAEPA_WXZ       10029620 f i SigCapImpl.obj
 0001:00028650       ??_EOposVariant@@QAEPAXI@Z 10029650 f i SigCapImpl.obj
 0001:000286e0       ?EventClaim@COPOSSigCap@@IAEXXZ 100296e0 f i SigCapImpl.obj
 0001:00028720       ?EventClose@COPOSSigCap@@IAEXXZ 10029720 f i SigCapImpl.obj
 0001:000287c0       ?EventInit@COPOSSigCap@@IAEJXZ 100297c0 f i SigCapImpl.obj
 0001:000289f0       ?EventOpen@COPOSSigCap@@IAEXXZ 100299f0 f i SigCapImpl.obj
 0001:00028a30       ?EventPreCloseRelease@COPOSSigCap@@IAEXXZ 10029a30 f i SigCapImpl.obj
 0001:00028ab0       ?EventUninit@COPOSSigCap@@IAEXXZ 10029ab0 f i SigCapImpl.obj
 0001:00028be0       ?EventWindowProc@COPOSSigCap@@IAGJIIJ@Z 10029be0 f i SigCapImpl.obj
 0001:00028d70       ?FireEventCleanup@COPOSSigCap@@IAEXXZ 10029d70 f i SigCapImpl.obj
 0001:00028dc0       ?FireEventSetup@COPOSSigCap@@IAE_NXZ 10029dc0 f i SigCapImpl.obj
 0001:00028e30       ?GetModuleInstance@CComModule@ATL@@QAEPAUHINSTANCE__@@XZ 10029e30 f i SigCapImpl.obj
 0001:00028e40       ?SetRC@COPOSSigCap@@IAEJJ@Z 10029e40 f i SigCapImpl.obj
 0001:00028e60       ?s_EventWindowProc@COPOSSigCap@@KGJPAUHWND__@@IIJ@Z 10029e60 f i SigCapImpl.obj
 0001:00028f00       __snwprintf                10029f00 f i SigCapImpl.obj
 0001:00028f60       __vfwprintf_l              10029f60 f i SigCapImpl.obj
 0001:00028f90       __vsnwprintf               10029f90 f i SigCapImpl.obj
 0001:00028fc0       __vsnwprintf_l             10029fc0 f i SigCapImpl.obj
 0001:00029030       _vfwprintf                 1002a030 f i SigCapImpl.obj
 0001:00029052       _DebugBreak@0              1002a052 f   kernel32:KERNEL32.dll
 0001:00029058       _Sleep@4                   1002a058 f   kernel32:KERNEL32.dll
 0001:0002905e       _GetCurrentProcess@0       1002a05e f   kernel32:KERNEL32.dll
 0001:00029064       _TerminateProcess@8        1002a064 f   kernel32:KERNEL32.dll
 0001:0002906a       _MultiByteToWideChar@24    1002a06a f   kernel32:KERNEL32.dll
 0001:00029070       _WideCharToMultiByte@32    1002a070 f   kernel32:KERNEL32.dll
 0001:00029076       _DecodePointer@4           1002a076 f   kernel32:KERNEL32.dll
 0001:0002907c       _RaiseException@16         1002a07c f   kernel32:KERNEL32.dll
 0001:00029082       _GetLastError@0            1002a082 f   kernel32:KERNEL32.dll
 0001:00029088       _SetLastError@4            1002a088 f   kernel32:KERNEL32.dll
 0001:0002908e       _InitializeCriticalSectionEx@12 1002a08e f   kernel32:KERNEL32.dll
 0001:00029094       _DeleteCriticalSection@4   1002a094 f   kernel32:KERNEL32.dll
 0001:0002909a       _EncodePointer@4           1002a09a f   kernel32:KERNEL32.dll
 0001:000290a0       _EnterCriticalSection@4    1002a0a0 f   kernel32:KERNEL32.dll
 0001:000290a6       _LeaveCriticalSection@4    1002a0a6 f   kernel32:KERNEL32.dll
 0001:000290ac       _ResetEvent@4              1002a0ac f   kernel32:KERNEL32.dll
 0001:000290b2       _ReleaseMutex@4            1002a0b2 f   kernel32:KERNEL32.dll
 0001:000290b8       _WaitForSingleObject@8     1002a0b8 f   kernel32:KERNEL32.dll
 0001:000290be       _GetCurrentThreadId@0      1002a0be f   kernel32:KERNEL32.dll
 0001:000290c4       _DisableThreadLibraryCalls@4 1002a0c4 f   kernel32:KERNEL32.dll
 0001:000290ca       _FreeLibrary@4             1002a0ca f   kernel32:KERNEL32.dll
 0001:000290d0       _GetModuleFileNameW@12     1002a0d0 f   kernel32:KERNEL32.dll
 0001:000290d6       _GetModuleHandleW@4        1002a0d6 f   kernel32:KERNEL32.dll
 0001:000290dc       _GetProcAddress@8          1002a0dc f   kernel32:KERNEL32.dll
 0001:000290e2       _LoadLibraryExW@12         1002a0e2 f   kernel32:KERNEL32.dll
 0001:000290e8       _LoadResource@8            1002a0e8 f   kernel32:KERNEL32.dll
 0001:000290ee       _SizeofResource@8          1002a0ee f   kernel32:KERNEL32.dll
 0001:000290f4       _FindResourceW@12          1002a0f4 f   kernel32:KERNEL32.dll
 0001:000290fa       _GlobalAlloc@8             1002a0fa f   kernel32:KERNEL32.dll
 0001:00029100       _GlobalUnlock@4            1002a100 f   kernel32:KERNEL32.dll
 0001:00029106       _GlobalLock@4              1002a106 f   kernel32:KERNEL32.dll
 0001:0002910c       _MulDiv@12                 1002a10c f   kernel32:KERNEL32.dll
 0001:00029112       _lstrcmpiW@8               1002a112 f   kernel32:KERNEL32.dll
 0001:00029118       _DeleteFileW@4             1002a118 f   kernel32:KERNEL32.dll
 0001:0002911e       _CloseHandle@4             1002a11e f   kernel32:KERNEL32.dll
 0001:00029124       _SetEvent@4                1002a124 f   kernel32:KERNEL32.dll
 0001:0002912a       _CreateMutexW@12           1002a12a f   kernel32:KERNEL32.dll
 0001:00029130       _CreateEventW@16           1002a130 f   kernel32:KERNEL32.dll
 0001:00029136       _GetCurrentProcessId@0     1002a136 f   kernel32:KERNEL32.dll
 0001:0002913c       _LocalFree@4               1002a13c f   kernel32:KERNEL32.dll
 0001:00029142       _FormatMessageW@28         1002a142 f   kernel32:KERNEL32.dll
 0001:00029148       _GetActiveWindow@0         1002a148 f   user32:USER32.dll
 0001:0002914e       _MessageBoxW@16            1002a14e f   user32:USER32.dll
 0001:00029154       _UnregisterClassW@8        1002a154 f   user32:USER32.dll
 0001:0002915a       _PostMessageW@16           1002a15a f   user32:USER32.dll
 0001:00029160       _DefWindowProcW@16         1002a160 f   user32:USER32.dll
 0001:00029166       _CallWindowProcW@20        1002a166 f   user32:USER32.dll
 0001:0002916c       _RegisterClassExW@4        1002a16c f   user32:USER32.dll
 0001:00029172       _GetClassInfoExW@12        1002a172 f   user32:USER32.dll
 0001:00029178       _CreateWindowExW@48        1002a178 f   user32:USER32.dll
 0001:0002917e       _IsWindow@4                1002a17e f   user32:USER32.dll
 0001:00029184       _IsChild@8                 1002a184 f   user32:USER32.dll
 0001:0002918a       _DestroyWindow@4           1002a18a f   user32:USER32.dll
 0001:00029190       _ShowWindow@8              1002a190 f   user32:USER32.dll
 0001:00029196       _SetWindowPos@28           1002a196 f   user32:USER32.dll
 0001:0002919c       _CharNextW@4               1002a19c f   user32:USER32.dll
 0001:000291a2       _SetFocus@4                1002a1a2 f   user32:USER32.dll
 0001:000291a8       _GetFocus@0                1002a1a8 f   user32:USER32.dll
 0001:000291ae       _GetKeyState@4             1002a1ae f   user32:USER32.dll
 0001:000291b4       _GetDC@4                   1002a1b4 f   user32:USER32.dll
 0001:000291ba       _ReleaseDC@8               1002a1ba f   user32:USER32.dll
 0001:000291c0       _BeginPaint@8              1002a1c0 f   user32:USER32.dll
 0001:000291c6       _EndPaint@8                1002a1c6 f   user32:USER32.dll
 0001:000291cc       _SetWindowRgn@12           1002a1cc f   user32:USER32.dll
 0001:000291d2       _InvalidateRect@12         1002a1d2 f   user32:USER32.dll
 0001:000291d8       _GetClientRect@8           1002a1d8 f   user32:USER32.dll
 0001:000291de       _IntersectRect@12          1002a1de f   user32:USER32.dll
 0001:000291e4       _UnionRect@12              1002a1e4 f   user32:USER32.dll
 0001:000291ea       _OffsetRect@12             1002a1ea f   user32:USER32.dll
 0001:000291f0       _EqualRect@8               1002a1f0 f   user32:USER32.dll
 0001:000291f6       _PtInRect@12               1002a1f6 f   user32:USER32.dll
 0001:000291fc       _GetWindowLongW@8          1002a1fc f   user32:USER32.dll
 0001:00029202       _SetWindowLongW@12         1002a202 f   user32:USER32.dll
 0001:00029208       _GetParent@4               1002a208 f   user32:USER32.dll
 0001:0002920e       _LoadCursorW@8             1002a20e f   user32:USER32.dll
 0001:00029214       _PeekMessageW@20           1002a214 f   user32:USER32.dll
 0001:0002921a       _RegisterClassW@4          1002a21a f   user32:USER32.dll
 0001:00029220       _LoadBitmapW@8             1002a220 f   user32:USER32.dll
 0001:00029226       _CloseMetaFile@4           1002a226 f   gdi32:GDI32.dll
 0001:0002922c       _CreateDCW@16              1002a22c f   gdi32:GDI32.dll
 0001:00029232       _CreateMetaFileW@4         1002a232 f   gdi32:GDI32.dll
 0001:00029238       _CreateRectRgnIndirect@4   1002a238 f   gdi32:GDI32.dll
 0001:0002923e       _DeleteDC@4                1002a23e f   gdi32:GDI32.dll
 0001:00029244       _DeleteMetaFile@4          1002a244 f   gdi32:GDI32.dll
 0001:0002924a       _GetDeviceCaps@8           1002a24a f   gdi32:GDI32.dll
 0001:00029250       _RestoreDC@8               1002a250 f   gdi32:GDI32.dll
 0001:00029256       _SaveDC@4                  1002a256 f   gdi32:GDI32.dll
 0001:0002925c       _SetMapMode@8              1002a25c f   gdi32:GDI32.dll
 0001:00029262       _LPtoDP@12                 1002a262 f   gdi32:GDI32.dll
 0001:00029268       _SetViewportOrgEx@16       1002a268 f   gdi32:GDI32.dll
 0001:0002926e       _SetWindowExtEx@16         1002a26e f   gdi32:GDI32.dll
 0001:00029274       _SetWindowOrgEx@16         1002a274 f   gdi32:GDI32.dll
 0001:0002927a       _BitBlt@36                 1002a27a f   gdi32:GDI32.dll
 0001:00029280       _CreateCompatibleDC@4      1002a280 f   gdi32:GDI32.dll
 0001:00029286       _DeleteObject@4            1002a286 f   gdi32:GDI32.dll
 0001:0002928c       _SelectObject@8            1002a28c f   gdi32:GDI32.dll
 0001:00029292       _GetObjectW@12             1002a292 f   gdi32:GDI32.dll
 0001:00029298       _RegCloseKey@4             1002a298 f   advapi32:ADVAPI32.dll
 0001:0002929e       _RegCreateKeyExW@36        1002a29e f   advapi32:ADVAPI32.dll
 0001:000292a4       _RegDeleteKeyW@8           1002a2a4 f   advapi32:ADVAPI32.dll
 0001:000292aa       _RegDeleteValueW@8         1002a2aa f   advapi32:ADVAPI32.dll
 0001:000292b0       _RegEnumKeyExW@32          1002a2b0 f   advapi32:ADVAPI32.dll
 0001:000292b6       _RegOpenKeyExW@20          1002a2b6 f   advapi32:ADVAPI32.dll
 0001:000292bc       _RegQueryInfoKeyW@48       1002a2bc f   advapi32:ADVAPI32.dll
 0001:000292c2       _RegSetValueExW@24         1002a2c2 f   advapi32:ADVAPI32.dll
 0001:000292c8       _RegQueryValueExW@24       1002a2c8 f   advapi32:ADVAPI32.dll
 0001:000292ce       _CoCreateInstance@20       1002a2ce f   ole32:ole32.dll
 0001:000292d4       _StringFromGUID2@12        1002a2d4 f   ole32:ole32.dll
 0001:000292da       _CoTaskMemAlloc@4          1002a2da f   ole32:ole32.dll
 0001:000292e0       _CoTaskMemRealloc@8        1002a2e0 f   ole32:ole32.dll
 0001:000292e6       _CoTaskMemFree@4           1002a2e6 f   ole32:ole32.dll
 0001:000292ec       _ReadClassStm@8            1002a2ec f   ole32:ole32.dll
 0001:000292f2       _WriteClassStm@8           1002a2f2 f   ole32:ole32.dll
 0001:000292f8       _CreateDataAdviseHolder@4  1002a2f8 f   ole32:ole32.dll
 0001:000292fe       _OleSaveToStream@8         1002a2fe f   ole32:ole32.dll
 0001:00029304       _CreateOleAdviseHolder@4   1002a304 f   ole32:ole32.dll
 0001:0002930a       _OleRegGetUserType@12      1002a30a f   ole32:ole32.dll
 0001:00029310       _OleRegGetMiscStatus@12    1002a310 f   ole32:ole32.dll
 0001:00029316       _OleRegEnumVerbs@8         1002a316 f   ole32:ole32.dll
 0001:0002931c       _CLSIDFromProgID@8         1002a31c f   ole32:ole32.dll
 0001:00029322       _SysAllocString@4          1002a322 f   oleaut32:OLEAUT32.dll
 0001:00029328       _SysAllocStringLen@8       1002a328 f   oleaut32:OLEAUT32.dll
 0001:0002932e       _SysFreeString@4           1002a32e f   oleaut32:OLEAUT32.dll
 0001:00029334       _SysStringLen@4            1002a334 f   oleaut32:OLEAUT32.dll
 0001:0002933a       _VariantClear@4            1002a33a f   oleaut32:OLEAUT32.dll
 0001:00029340       _VariantCopyInd@8          1002a340 f   oleaut32:OLEAUT32.dll
 0001:00029346       _VariantChangeType@16      1002a346 f   oleaut32:OLEAUT32.dll
 0001:0002934c       _SysStringByteLen@4        1002a34c f   oleaut32:OLEAUT32.dll
 0001:00029352       _SysAllocStringByteLen@8   1002a352 f   oleaut32:OLEAUT32.dll
 0001:00029358       _VariantInit@4             1002a358 f   oleaut32:OLEAUT32.dll
 0001:0002935e       _VarUI4FromStr@16          1002a35e f   oleaut32:OLEAUT32.dll
 0001:00029364       _LoadTypeLib@8             1002a364 f   oleaut32:OLEAUT32.dll
 0001:0002936a       _LoadRegTypeLib@20         1002a36a f   oleaut32:OLEAUT32.dll
 0001:00029370       _RegisterTypeLib@12        1002a370 f   oleaut32:OLEAUT32.dll
 0001:00029376       _UnRegisterTypeLib@20      1002a376 f   oleaut32:OLEAUT32.dll
 0001:0002937c       _OleCreatePropertyFrame@44 1002a37c f   oleaut32:OLEAUT32.dll
 0001:00029390       @_RTC_AllocaHelper@12      1002a390 f   LIBCMTD:stack.obj
 0001:000293d0       @_RTC_CheckStackVars2@12   1002a3d0 f   LIBCMTD:stack.obj
 0001:000294b0       @_RTC_CheckStackVars@8     1002a4b0 f   LIBCMTD:stack.obj
 0001:00029510       __RTC_CheckEsp             1002a510 f   LIBCMTD:stack.obj
 0001:00029540       @__security_check_cookie@4 1002a540 f   LIBCMTD:secchk.obj
 0001:00029550       __CRT_RTC_INIT             1002a550 f   LIBCMTD:init.obj
 0001:00029560       __CRT_RTC_INITW            1002a560 f   LIBCMTD:init.obj
 0001:00029570       __RTC_InitBase             1002a570 f   LIBCMTD:init.obj
 0001:000295a0       __RTC_Shutdown             1002a5a0 f   LIBCMTD:init.obj
 0001:000295c0       ??_U@YAPAXI@Z              1002a5c0 f   LIBCMTD:new_array.obj
 0001:000295e0       ??3@YAXPAXI@Z              1002a5e0 f   LIBCMTD:delete_scalar_size.obj
 0001:00029600       ??_V@YAXPAX@Z              1002a600 f   LIBCMTD:delete_array.obj
 0001:00029620       ??_V@YAXPAXI@Z             1002a620 f   LIBCMTD:delete_array_size.obj
 0001:00029640       ?configure_argv@__scrt_narrow_argv_policy@@SAHXZ 1002a640 f i LIBCMTD:utility.obj
 0001:000296f0       ?initialize_environment@__scrt_narrow_environment_policy@@SAHXZ 1002a6f0 f i LIBCMTD:utility.obj
 0001:00029770       _NtCurrentTeb              1002a770 f i LIBCMTD:utility.obj
 0001:00029780       ___scrt_acquire_startup_lock 1002a780 f   LIBCMTD:utility.obj
 0001:000297d0       ___scrt_dllmain_after_initialize_c 1002a7d0 f   LIBCMTD:utility.obj
 0001:00029800       ___scrt_dllmain_before_initialize_c 1002a800 f   LIBCMTD:utility.obj
 0001:00029820       ___scrt_dllmain_crt_thread_attach 1002a820 f   LIBCMTD:utility.obj
 0001:00029850       ___scrt_dllmain_crt_thread_detach 1002a850 f   LIBCMTD:utility.obj
 0001:00029870       ___scrt_dllmain_exception_filter 1002a870 f   LIBCMTD:utility.obj
 0001:000298c0       ___scrt_dllmain_uninitialize_c 1002a8c0 f   LIBCMTD:utility.obj
 0001:000298f0       ___scrt_dllmain_uninitialize_critical 1002a8f0 f   LIBCMTD:utility.obj
 0001:00029910       ___scrt_initialize_crt     1002a910 f   LIBCMTD:utility.obj
 0001:00029960       ___scrt_initialize_onexit_tables 1002a960 f   LIBCMTD:utility.obj
 0001:00029a40       ___scrt_is_nonwritable_in_current_image 1002aa40 f   LIBCMTD:utility.obj
 0001:00029b70       ___scrt_release_startup_lock 1002ab70 f   LIBCMTD:utility.obj
 0001:00029ba0       ___scrt_uninitialize_crt   1002aba0 f   LIBCMTD:utility.obj
 0001:00029be0       __onexit                   1002abe0 f   LIBCMTD:utility.obj
 0001:00029c50       _at_quick_exit             1002ac50 f   LIBCMTD:utility.obj
 0001:00029c90       _atexit                    1002ac90 f   LIBCMTD:utility.obj
 0001:00029cc0       ??3@YAXPAX@Z               1002acc0 f   LIBCMTD:delete_scalar.obj
 0001:00029ce0       ___raise_securityfailure   1002ace0 f   LIBCMTD:gs_report.obj
 0001:00029d10       ___report_gsfailure        1002ad10 f   LIBCMTD:gs_report.obj
 0001:00029e20       ___report_rangecheckfailure 1002ae20 f   LIBCMTD:gs_report.obj
 0001:00029e30       ___report_securityfailure  1002ae30 f   LIBCMTD:gs_report.obj
 0001:00029f10       ___report_securityfailureEx 1002af10 f   LIBCMTD:gs_report.obj
 0001:0002a160       __Init_thread_abort        1002b160 f   LIBCMTD:thread_safe_statics.obj
 0001:0002a180       __Init_thread_footer       1002b180 f   LIBCMTD:thread_safe_statics.obj
 0001:0002a1d0       __Init_thread_header       1002b1d0 f   LIBCMTD:thread_safe_statics.obj
 0001:0002a240       __Init_thread_lock         1002b240 f   LIBCMTD:thread_safe_statics.obj
 0001:0002a250       __Init_thread_notify       1002b250 f   LIBCMTD:thread_safe_statics.obj
 0001:0002a2a0       __Init_thread_unlock       1002b2a0 f   LIBCMTD:thread_safe_statics.obj
 0001:0002a2b0       __Init_thread_wait         1002b2b0 f   LIBCMTD:thread_safe_statics.obj
 0001:0002a340       ??2@YAPAXIABUnothrow_t@std@@@Z 1002b340 f   LIBCMTD:new_scalar_nothrow.obj
 0001:0002a3d0       ??_U@YAPAXIABUnothrow_t@std@@@Z 1002b3d0 f   LIBCMTD:new_array_nothrow.obj
 0001:0002a3f0       __allmul                   1002b3f0 f   LIBCMTD:llmul.obj
 0001:0002a430       __alloca_probe_16          1002b430 f   LIBCMTD:alloca16.obj
 0001:0002a446       __alloca_probe_8           1002b446     LIBCMTD:alloca16.obj
 0001:0002a460       __chkstk                   1002b460 f   LIBCMTD:chkstk.obj
 0001:0002a460       __alloca_probe             1002b460 f   LIBCMTD:chkstk.obj
 0001:0002a960       __CRT_INIT@12              1002b960 f   LIBCMTD:dll_dllmain.obj
 0001:0002a980       __DllMainCRTStartup@12     1002b980 f   LIBCMTD:dll_dllmain.obj
 0001:0002aa40       ?_RTC_AllocaFailure@@YAXPAXPAU_RTC_ALLOCA_NODE@@H@Z 1002ba40 f   LIBCMTD:error.obj
 0001:0002ab30       ?_RTC_Failure@@YAXPAXH@Z   1002bb30 f   LIBCMTD:error.obj
 0001:0002ab80       ?_RTC_StackFailure@@YAXPAXPBD@Z 1002bb80 f   LIBCMTD:error.obj
 0001:0002af40       __RTC_UninitUse            1002bf40 f   LIBCMTD:error.obj
 0001:0002aff0       __vsprintf_s_l             1002bff0 f i LIBCMTD:error.obj
 0001:0002b020       _sprintf_s                 1002c020 f i LIBCMTD:error.obj
 0001:0002b040       ?_RTC_GetErrorFunc@@YAP6AHHPBDH00ZZPBX@Z 1002c040 f   LIBCMTD:userapi.obj
 0001:0002b050       ?_RTC_GetErrorFuncW@@YAP6AHHPB_WH00ZZPBX@Z 1002c050 f   LIBCMTD:userapi.obj
 0001:0002b060       __RTC_GetErrDesc           1002c060 f   LIBCMTD:userapi.obj
 0001:0002b080       __RTC_NumErrors            1002c080 f   LIBCMTD:userapi.obj
 0001:0002b090       __RTC_SetErrorFunc         1002c090 f   LIBCMTD:userapi.obj
 0001:0002b0b0       __RTC_SetErrorFuncW        1002c0b0 f   LIBCMTD:userapi.obj
 0001:0002b0d0       __RTC_SetErrorType         1002c0d0 f   LIBCMTD:userapi.obj
 0001:0002b100       ??2@YAPAXI@Z               1002c100 f   LIBCMTD:new_scalar.obj
 0001:0002b150       ___isa_available_init      1002c150 f   LIBCMTD:cpu_disp.obj
 0001:0002b490       __get_startup_argv_mode    1002c490 f   LIBCMTD:argv_mode.obj
 0001:0002b4a0       ___scrt_is_ucrt_dll_in_use 1002c4a0 f   LIBCMTD:ucrt_detection.obj
 0001:0002b4d0       ___scrt_fastfail           1002c4d0 f   LIBCMTD:utility_desktop.obj
 0001:0002b610       ___scrt_get_show_window_mode 1002c610 f   LIBCMTD:utility_desktop.obj
 0001:0002b650       ___scrt_initialize_mta     1002c650 f   LIBCMTD:utility_desktop.obj
 0001:0002b660       ___scrt_initialize_winrt   1002c660 f   LIBCMTD:utility_desktop.obj
 0001:0002b670       ___scrt_is_managed_app     1002c670 f   LIBCMTD:utility_desktop.obj
 0001:0002b700       ___scrt_set_unhandled_exception_filter 1002c700 f   LIBCMTD:utility_desktop.obj
 0001:0002b710       ___scrt_stub_for_initialize_mta 1002c710 f   LIBCMTD:utility_desktop.obj
 0001:0002b710       ___scrt_exe_initialize_mta 1002c710 f   LIBCMTD:utility_desktop.obj
 0001:0002b720       ___scrt_unhandled_exception_filter@4 1002c720 f   LIBCMTD:utility_desktop.obj
 0001:0002b7a0       __crt_debugger_hook        1002c7a0 f   LIBCMTD:utility_desktop.obj
 0001:0002b7b0       @_guard_check_icall_nop@4  1002c7b0 f i LIBCMTD:guard_support.obj
 0001:0002b7c0       _ReadNoFence               1002c7c0 f i LIBCMTD:guard_support.obj
 0001:0002b7e0       _ReadPointerNoFence        1002c7e0 f i LIBCMTD:guard_support.obj
 0001:0002b800       ___castguard_check_failure_debugbreak 1002c800 f i LIBCMTD:guard_support.obj
 0001:0002b820       ___castguard_check_failure_fastfail 1002c820 f i LIBCMTD:guard_support.obj
 0001:0002b840       ___castguard_check_failure_nop 1002c840 f i LIBCMTD:guard_support.obj
 0001:0002b850       ___castguard_check_failure_os_handled 1002c850 f i LIBCMTD:guard_support.obj
 0001:0002b8e0       ___castguard_slow_path_check_debugbreak 1002c8e0 f i LIBCMTD:guard_support.obj
 0001:0002b910       ___castguard_slow_path_check_fastfail 1002c910 f i LIBCMTD:guard_support.obj
 0001:0002b950       ___castguard_slow_path_check_nop 1002c950 f i LIBCMTD:guard_support.obj
 0001:0002b960       ___castguard_slow_path_check_os_handled 1002c960 f i LIBCMTD:guard_support.obj
 0001:0002b9e0       __guard_icall_checks_enforced 1002c9e0 f i LIBCMTD:guard_support.obj
 0001:0002ba80       ___security_init_cookie    1002ca80 f   LIBCMTD:gs_support.obj
 0001:0002bb00       ?__scrt_initialize_type_info@@YAXXZ 1002cb00 f   LIBCMTD:tncleanup.obj
 0001:0002bb10       ?__scrt_uninitialize_type_info@@YAXXZ 1002cb10 f   LIBCMTD:tncleanup.obj
 0001:0002bb30       ___local_stdio_scanf_options 1002cb30 f i LIBCMTD:default_local_stdio_options.obj
 0001:0002bb40       ___scrt_initialize_default_local_stdio_options 1002cb40 f   LIBCMTD:default_local_stdio_options.obj
 0001:0002bb80       ___scrt_get_dyn_tls_init_callback 1002cb80 f   LIBCMTD:dyn_tls_init.obj
 0001:0002bb90       __RTC_Initialize           1002cb90 f   LIBCMTD:initsect.obj
 0001:0002bbc0       __RTC_Terminate            1002cbc0 f   LIBCMTD:initsect.obj
 0001:0002c070       ?_RTC_GetSrcLine@@YAHPAEPA_WKPAH1K@Z 1002d070 f   LIBCMTD:pdblkup.obj
 0001:0002c3f0       __except_handler4_noexcept 1002d3f0 f   LIBCMTD:chandler4_noexcept.obj
 0001:0002c450       ??0bad_alloc@std@@AAE@QBD@Z 1002d450 f i LIBCMTD:throw_bad_alloc.obj
 0001:0002c480       ??0bad_alloc@std@@QAE@ABV01@@Z 1002d480 f i LIBCMTD:throw_bad_alloc.obj
 0001:0002c4b0       ??0bad_alloc@std@@QAE@XZ   1002d4b0 f i LIBCMTD:throw_bad_alloc.obj
 0001:0002c4e0       ??0bad_array_new_length@std@@QAE@ABV01@@Z 1002d4e0 f i LIBCMTD:throw_bad_alloc.obj
 0001:0002c510       ??0bad_array_new_length@std@@QAE@XZ 1002d510 f i LIBCMTD:throw_bad_alloc.obj
 0001:0002c540       ??0exception@std@@QAE@ABV01@@Z 1002d540 f i LIBCMTD:throw_bad_alloc.obj
 0001:0002c580       ??0exception@std@@QAE@QBDH@Z 1002d580 f i LIBCMTD:throw_bad_alloc.obj
 0001:0002c5b0       ??1bad_alloc@std@@UAE@XZ   1002d5b0 f i LIBCMTD:throw_bad_alloc.obj
 0001:0002c5d0       ??1bad_array_new_length@std@@UAE@XZ 1002d5d0 f i LIBCMTD:throw_bad_alloc.obj
 0001:0002c5f0       ??1exception@std@@UAE@XZ   1002d5f0 f i LIBCMTD:throw_bad_alloc.obj
 0001:0002c620       ??_Ebad_alloc@std@@UAEPAXI@Z 1002d620 f i LIBCMTD:throw_bad_alloc.obj
 0001:0002c620       ??_Gbad_alloc@std@@UAEPAXI@Z 1002d620 f i LIBCMTD:throw_bad_alloc.obj
 0001:0002c650       ??_Ebad_array_new_length@std@@UAEPAXI@Z 1002d650 f i LIBCMTD:throw_bad_alloc.obj
 0001:0002c650       ??_Gbad_array_new_length@std@@UAEPAXI@Z 1002d650 f i LIBCMTD:throw_bad_alloc.obj
 0001:0002c680       ??_Gexception@std@@UAEPAXI@Z 1002d680 f i LIBCMTD:throw_bad_alloc.obj
 0001:0002c680       ??_Eexception@std@@UAEPAXI@Z 1002d680 f i LIBCMTD:throw_bad_alloc.obj
 0001:0002c6b0       ?__scrt_throw_std_bad_alloc@@YAXXZ 1002d6b0 f   LIBCMTD:throw_bad_alloc.obj
 0001:0002c6d0       ?__scrt_throw_std_bad_array_new_length@@YAXXZ 1002d6d0 f   LIBCMTD:throw_bad_alloc.obj
 0001:0002c6f0       ?what@exception@std@@UBEPBDXZ 1002d6f0 f i LIBCMTD:throw_bad_alloc.obj
 0001:0002c720       ??1type_info@@UAE@XZ       1002d720 f   LIBCMTD:std_type_info_static.obj
 0001:0002c740       ??_Etype_info@@UAEPAXI@Z   1002d740 f i LIBCMTD:std_type_info_static.obj
 0001:0002c740       ??_Gtype_info@@UAEPAXI@Z   1002d740 f i LIBCMTD:std_type_info_static.obj
 0001:0002c76e       ??$?2PAUHINSTANCE__@@@Wrapper@?$CSimpleArray@PAUHINSTANCE__@@V?$CSimpleArrayEqualHelper@PAUHINSTANCE__@@@ATL@@@ATL@@SAPAXIPAPAUHINSTANCE__@@@Z 1002d76e f i atls:atlbase.obj
 0001:0002c776       ??0?$CSimpleArray@PAUHINSTANCE__@@V?$CSimpleArrayEqualHelper@PAUHINSTANCE__@@@ATL@@@ATL@@QAE@XZ 1002d776 f i atls:atlbase.obj
 0001:0002c783       ??0CAtlBaseModule@ATL@@QAE@XZ 1002d783 f   atls:atlbase.obj
 0001:0002c7d6       ??0Wrapper@?$CSimpleArray@PAUHINSTANCE__@@V?$CSimpleArrayEqualHelper@PAUHINSTANCE__@@@ATL@@@ATL@@QAE@ABQAUHINSTANCE__@@@Z 1002d7d6 f i atls:atlbase.obj
 0001:0002c7e6       ??0_ATL_BASE_MODULE70@ATL@@QAE@XZ 1002d7e6 f i atls:atlbase.obj
 0001:0002c809       ??1?$CSimpleArray@PAUHINSTANCE__@@V?$CSimpleArrayEqualHelper@PAUHINSTANCE__@@@ATL@@@ATL@@QAE@XZ 1002d809 f i atls:atlbase.obj
 0001:0002c80e       ??1CAtlBaseModule@ATL@@QAE@XZ 1002d80e f   atls:atlbase.obj
 0001:0002c824       ??1_ATL_BASE_MODULE70@ATL@@QAE@XZ 1002d824 f i atls:atlbase.obj
 0001:0002c82c       ??A?$CSimpleArray@PAUHINSTANCE__@@V?$CSimpleArrayEqualHelper@PAUHINSTANCE__@@@ATL@@@ATL@@QAEAAPAUHINSTANCE__@@H@Z 1002d82c f i atls:atlbase.obj
 0001:0002c851       ?Add@?$CSimpleArray@PAUHINSTANCE__@@V?$CSimpleArrayEqualHelper@PAUHINSTANCE__@@@ATL@@@ATL@@QAEHABQAUHINSTANCE__@@@Z 1002d851 f i atls:atlbase.obj
 0001:0002c8c9       ?AddResourceInstance@CAtlBaseModule@ATL@@QAE_NPAUHINSTANCE__@@@Z 1002d8c9 f   atls:atlbase.obj
 0001:0002c8fc       ?GetHInstanceAt@CAtlBaseModule@ATL@@QAEPAUHINSTANCE__@@H@Z 1002d8fc f   atls:atlbase.obj
 0001:0002c941       ?GetSize@?$CSimpleArray@PAUHINSTANCE__@@V?$CSimpleArrayEqualHelper@PAUHINSTANCE__@@@ATL@@@ATL@@QBEHXZ 1002d941 f i atls:atlbase.obj
 0001:0002c945       ?InternalSetAtIndex@?$CSimpleArray@PAUHINSTANCE__@@V?$CSimpleArrayEqualHelper@PAUHINSTANCE__@@@ATL@@@ATL@@QAEXHABQAUHINSTANCE__@@@Z 1002d945 f i atls:atlbase.obj
 0001:0002c95f       ?RemoveAll@?$CSimpleArray@PAUHINSTANCE__@@V?$CSimpleArrayEqualHelper@PAUHINSTANCE__@@@ATL@@@ATL@@QAEXXZ 1002d95f f i atls:atlbase.obj
 0001:0002c97c       ?RemoveAt@?$CSimpleArray@PAUHINSTANCE__@@V?$CSimpleArrayEqualHelper@PAUHINSTANCE__@@@ATL@@@ATL@@QAEHH@Z 1002d97c f i atls:atlbase.obj
 0001:0002c9c4       ?RemoveResourceInstance@CAtlBaseModule@ATL@@QAE_NPAUHINSTANCE__@@@Z 1002d9c4 f   atls:atlbase.obj
 0001:0002ca21       ?memmove_s@Checked@ATL@@YAXPAXIPBXI@Z 1002da21 f i atls:atlbase.obj
 0001:0002cd7e       ?GetCodeAddress@_stdcallthunk@ATL@@QAEPAXXZ 1002dd7e f i atls:atlthunk.obj
 0001:0002cda8       ?Init@_stdcallthunk@ATL@@QAEHKPAX@Z 1002dda8 f i atls:atlthunk.obj
 0001:0002cddd       ?__AllocStdCallThunk@@YGPAXXZ 1002dddd f   atls:atlthunk.obj
 0001:0002cde2       ?__AllocStdCallThunk@ATL@@YGPAXXZ 1002dde2 f   atls:atlthunk.obj
 0001:0002cde7       ?__AllocStdCallThunk_cmn@@YAPAXXZ 1002dde7 f   atls:atlthunk.obj
 0001:0002cead       ?__FreeStdCallThunk@@YGXPAX@Z 1002dead f   atls:atlthunk.obj
 0001:0002cebd       ?__FreeStdCallThunk@ATL@@YGXPAX@Z 1002debd f   atls:atlthunk.obj
 0001:0002cecd       ?__FreeStdCallThunk_cmn@@YAXPAX@Z 1002decd f   atls:atlthunk.obj
 0001:0002cf69       _AtlThunk_AllocateData@0   1002df69 f   atls:atlthunk.obj
 0001:0002cfce       _AtlThunk_DataToCode@4     1002dfce f   atls:atlthunk.obj
 0001:0002d015       _AtlThunk_FreeData@4       1002e015 f   atls:atlthunk.obj
 0001:0002d06b       _AtlThunk_InitData@12      1002e06b f   atls:atlthunk.obj
 0001:0002d0ba       _MemoryBarrier             1002e0ba f i atls:atlthunk.obj
 0001:0002d0c8       __InlineInterlockedCompareExchangePointer 1002e0c8 f i atls:atlthunk.obj
 0001:0002d0e0       _memset                    1002e0e0 f   libvcruntimed:memset.obj
 0001:0002d240       ??$__crt_interlocked_exchange_pointer@$$A6AXXZP6AXXZ@@YAP6AXXZPDS6AXXZQ6AXXZ@Z 1002e240 f i libvcruntimed:purevirt.obj
 0001:0002d250       ??$__crt_interlocked_read_pointer@$$A6AXXZ@@YAP6AXXZPDS6AXXZ@Z 1002e250 f i libvcruntimed:purevirt.obj
 0001:0002d270       ?__crt_interlocked_read_32@@YAHPDH@Z 1002e270 f i libvcruntimed:purevirt.obj
 0001:0002d290       __get_purecall_handler     1002e290 f   libvcruntimed:purevirt.obj
 0001:0002d2b0       __purecall                 1002e2b0 f   libvcruntimed:purevirt.obj
 0001:0002d2e0       __set_purecall_handler     1002e2e0 f   libvcruntimed:purevirt.obj
 0001:0002d4b0       _memcmp                    1002e4b0 f   libvcruntimed:memcmp.obj
 0001:0002dd80       _memcpy                    1002ed80 f   libvcruntimed:memcpy.obj
 0001:0002e300       _wcsstr                    1002f300 f   libvcruntimed:wcsstr.obj
 0001:0002e830       __except_handler4          1002f830 f   libvcruntimed:chandler4.obj
 0001:0002ea20       ___vcrt_initialize         1002fa20 f   libvcruntimed:initialization.obj
 0001:0002ea60       ___vcrt_thread_attach      1002fa60 f   libvcruntimed:initialization.obj
 0001:0002ea80       ___vcrt_thread_detach      1002fa80 f   libvcruntimed:initialization.obj
 0001:0002eaa0       ___vcrt_uninitialize       1002faa0 f   libvcruntimed:initialization.obj
 0001:0002eac0       ___vcrt_uninitialize_critical 1002fac0 f   libvcruntimed:initialization.obj
 0001:0002eae0       ??$?0AAViterator@TryBlockMap@__FrameHandler3@@AAV012@$0A@@?$pair@Viterator@TryBlockMap@__FrameHandler3@@V123@@std@@QAE@AAViterator@TryBlockMap@__FrameHandler3@@0@Z 1002fae0 f i libvcruntimed:trnsctrl.obj
 0001:0002eb30       ??$forward@AAViterator@TryBlockMap@__FrameHandler3@@@std@@YAAAViterator@TryBlockMap@__FrameHandler3@@AAV123@@Z 1002fb30 f i libvcruntimed:trnsctrl.obj
 0001:0002eb40       ??0iterator@TryBlockMap@__FrameHandler3@@QAE@AAV12@I@Z 1002fb40 f i libvcruntimed:trnsctrl.obj
 0001:0002eb70       ?GetRangeOfTrysToCheck@__FrameHandler3@@SA?AU?$pair@Viterator@TryBlockMap@__FrameHandler3@@V123@@std@@AAVTryBlockMap@1@HPAXPBU_s_FuncInfo@@H@Z 1002fb70 f   libvcruntimed:trnsctrl.obj
 0001:0002ec50       ?_CallCatchBlock2@@YAPAXPAUEHRegistrationNode@@PBU_s_FuncInfo@@PAXHK@Z 1002fc50 f   libvcruntimed:trnsctrl.obj
 0001:0002ecc0       ?_CallSETranslator@@YAHPAUEHExceptionRecord@@PAUEHRegistrationNode@@PAX2PBU_s_FuncInfo@@H1@Z 1002fcc0 f   libvcruntimed:trnsctrl.obj
 0001:0002edd0       ?_JumpToContinuation@@YGXPAXPAUEHRegistrationNode@@@Z 1002fdd0 f   libvcruntimed:trnsctrl.obj
 0001:0002ee10       ?_UnwindNestedFrames@@YGXPAUEHRegistrationNode@@PAUEHExceptionRecord@@@Z 1002fe10 f   libvcruntimed:trnsctrl.obj
 0001:0002ee70       __CatchGuardHandler        1002fe70 f   libvcruntimed:trnsctrl.obj
 0001:0002eec0       __CreateFrameInfo          1002fec0 f   libvcruntimed:trnsctrl.obj
 0001:0002eef0       __FindAndUnlinkFrame       1002fef0 f   libvcruntimed:trnsctrl.obj
 0001:0002ef60       __TranslatorGuardHandler   1002ff60 f   libvcruntimed:trnsctrl.obj
 0001:0002f010       ___CxxFrameHandler         10030010 f   libvcruntimed:trnsctrl.obj
 0001:0002f050       ___CxxFrameHandler2        10030050 f   libvcruntimed:trnsctrl.obj
 0001:0002f090       ___CxxFrameHandler3        10030090 f   libvcruntimed:trnsctrl.obj
 0001:0002f0d0       ___CxxLongjmpUnwind@4      100300d0 f   libvcruntimed:trnsctrl.obj
 0001:0002f110       ___DestructExceptionObject 10030110 f   libvcruntimed:ehhelpers.obj
 0001:0002f230       ?_CallMemberFunction0@@YGXQAX0@Z 10030230 f i libvcruntimed:ehhelpers.obj
 0001:0002f2d0       ?raw_name@type_info@@QBEPBDXZ 100302d0 f i libvcruntimed:ehhelpers.obj
 0001:0002f2f0       __IsExceptionObjectToBeDestroyed 100302f0 f   libvcruntimed:ehhelpers.obj
 0001:0002f330       __SetWinRTOutOfMemoryExceptionCallback 10030330 f   libvcruntimed:ehhelpers.obj
 0001:0002f340       ___AdjustPointer           10030340 f   libvcruntimed:ehhelpers.obj
 0001:0002f390       ___FrameUnwindFilter       10030390 f   libvcruntimed:ehhelpers.obj
 0001:0002f420       ___GetPlatformExceptionInfo 10030420 f   libvcruntimed:ehhelpers.obj
 0001:0002f4a0       ___current_exception       100304a0 f   libvcruntimed:ehhelpers.obj
 0001:0002f4b0       ___current_exception_context 100304b0 f   libvcruntimed:ehhelpers.obj
 0001:0002f4c0       ___processing_throw        100304c0 f   libvcruntimed:ehhelpers.obj
 0001:0002f4d0       ___std_terminate           100304d0 f   libvcruntimed:ehhelpers.obj
 0001:0002f4e0       __is_exception_typeof      100304e0 f   libvcruntimed:ehhelpers.obj
 0001:0002f5e0       ??$?RD@__crt_internal_free_policy@@QBEXQBD@Z 100305e0 f i libvcruntimed:std_type_info.obj
 0001:0002f600       ??$?RX@__crt_internal_free_policy@@QBEXQBX@Z 10030600 f i libvcruntimed:std_type_info.obj
 0001:0002f620       ??$__crt_interlocked_compare_exchange_pointer@$$CBDPAD$$T@@YAPBDPDSBDQAD$$T@Z 10030620 f i libvcruntimed:std_type_info.obj
 0001:0002f640       ??$__crt_interlocked_read_pointer@$$CBD@@YAPBDPDSBD@Z 10030640 f i libvcruntimed:std_type_info.obj
 0001:0002f660       ??0?$__crt_unique_heap_ptr@DU__crt_internal_free_policy@@@@QAE@QAD@Z 10030660 f i libvcruntimed:std_type_info.obj
 0001:0002f680       ??0?$__crt_unique_heap_ptr@XU__crt_internal_free_policy@@@@QAE@QAX@Z 10030680 f i libvcruntimed:std_type_info.obj
 0001:0002f6a0       ??1?$__crt_unique_heap_ptr@DU__crt_internal_free_policy@@@@QAE@XZ 100306a0 f i libvcruntimed:std_type_info.obj
 0001:0002f6c0       ??1?$__crt_unique_heap_ptr@XU__crt_internal_free_policy@@@@QAE@XZ 100306c0 f i libvcruntimed:std_type_info.obj
 0001:0002f6e0       ??B?$__crt_unique_heap_ptr@DU__crt_internal_free_policy@@@@QBE_NXZ 100306e0 f i libvcruntimed:std_type_info.obj
 0001:0002f700       ??B?$__crt_unique_heap_ptr@XU__crt_internal_free_policy@@@@QBE_NXZ 10030700 f i libvcruntimed:std_type_info.obj
 0001:0002f790       ?detach@?$__crt_unique_heap_ptr@XU__crt_internal_free_policy@@@@QAEPAXXZ 10030790 f i libvcruntimed:std_type_info.obj
 0001:0002f7c0       ?get@?$__crt_unique_heap_ptr@DU__crt_internal_free_policy@@@@QBEPADXZ 100307c0 f i libvcruntimed:std_type_info.obj
 0001:0002f7d0       ?get@?$__crt_unique_heap_ptr@XU__crt_internal_free_policy@@@@QBEPAXXZ 100307d0 f i libvcruntimed:std_type_info.obj
 0001:0002f7e0       ?is_valid@?$__crt_unique_heap_ptr@DU__crt_internal_free_policy@@@@QBE_NXZ 100307e0 f i libvcruntimed:std_type_info.obj
 0001:0002f810       ?is_valid@?$__crt_unique_heap_ptr@XU__crt_internal_free_policy@@@@QBE_NXZ 10030810 f i libvcruntimed:std_type_info.obj
 0001:0002f840       ?release@?$__crt_unique_heap_ptr@DU__crt_internal_free_policy@@@@QAEXXZ 10030840 f i libvcruntimed:std_type_info.obj
 0001:0002f870       ?release@?$__crt_unique_heap_ptr@XU__crt_internal_free_policy@@@@QAEXXZ 10030870 f i libvcruntimed:std_type_info.obj
 0001:0002f8a0       ___std_type_info_compare   100308a0 f   libvcruntimed:std_type_info.obj
 0001:0002f8d0       ___std_type_info_destroy_list 100308d0 f   libvcruntimed:std_type_info.obj
 0001:0002f910       ___std_type_info_hash      10030910 f   libvcruntimed:std_type_info.obj
 0001:0002f970       ___std_type_info_name      10030970 f   libvcruntimed:std_type_info.obj
 0001:0002fb50       ___vcrt_GetModuleFileNameW 10030b50 f   libvcruntimed:winapi_thunks.obj
 0001:0002fb70       ___vcrt_GetModuleHandleW   10030b70 f   libvcruntimed:winapi_thunks.obj
 0001:0002fb80       ___vcrt_LoadLibraryExW     10030b80 f   libvcruntimed:winapi_thunks.obj
 0001:0002fba0       ??$?RD@__crt_public_free_policy@@QBEXQBD@Z 10030ba0 f i libvcruntimed:std_exception.obj
 0001:0002fbc0       ??0?$__crt_unique_heap_ptr@DU__crt_public_free_policy@@@@QAE@QAD@Z 10030bc0 f i libvcruntimed:std_exception.obj
 0001:0002fbe0       ??1?$__crt_unique_heap_ptr@DU__crt_public_free_policy@@@@QAE@XZ 10030be0 f i libvcruntimed:std_exception.obj
 0001:0002fc00       ??B?$__crt_unique_heap_ptr@DU__crt_public_free_policy@@@@QBE_NXZ 10030c00 f i libvcruntimed:std_exception.obj
 0001:0002fc20       ?detach@?$__crt_unique_heap_ptr@DU__crt_public_free_policy@@@@QAEPADXZ 10030c20 f i libvcruntimed:std_exception.obj
 0001:0002fc50       ?get@?$__crt_unique_heap_ptr@DU__crt_public_free_policy@@@@QBEPADXZ 10030c50 f i libvcruntimed:std_exception.obj
 0001:0002fc60       ?is_valid@?$__crt_unique_heap_ptr@DU__crt_public_free_policy@@@@QBE_NXZ 10030c60 f i libvcruntimed:std_exception.obj
 0001:0002fc90       ?release@?$__crt_unique_heap_ptr@DU__crt_public_free_policy@@@@QAEXXZ 10030c90 f i libvcruntimed:std_exception.obj
 0001:0002fcc0       ___std_exception_copy      10030cc0 f   libvcruntimed:std_exception.obj
 0001:0002fdb0       ___std_exception_destroy   10030db0 f   libvcruntimed:std_exception.obj
 0001:0002fde0       __CxxThrowException@8      10030de0 f   libvcruntimed:throw.obj
 0001:0002fe90       _memmove                   10030e90 f   libvcruntimed:memmove.obj
 0001:00030410       __local_unwind4            10031410 f   libvcruntimed:exsup4.obj
 0001:00030500       __seh_longjmp_unwind4@4    10031500 f   libvcruntimed:exsup4.obj
 0001:00030530       @_EH4_CallFilterFunc@8     10031530 f   libvcruntimed:exsup4.obj
 0001:00030550       @_EH4_TransferToHandler@8  10031550 f   libvcruntimed:exsup4.obj
 0001:00030570       @_EH4_GlobalUnwind2@8      10031570 f   libvcruntimed:exsup4.obj
 0001:00030590       @_EH4_LocalUnwind@16       10031590 f   libvcruntimed:exsup4.obj
 0001:000305c0       ___except_validate_context_record 100315c0 f   libvcruntimed:jbcxrval.obj
 0001:00030610       ___except_validate_jump_buffer 10031610 f   libvcruntimed:jbcxrval.obj
 0001:00030630       ___except_validate_jump_buffer_common 10031630 f i libvcruntimed:jbcxrval.obj
 0001:00030690       ??$?RU__vcrt_ptd@@@__crt_internal_free_policy@@QBEXQBU__vcrt_ptd@@@Z 10031690 f i libvcruntimed:per_thread_data.obj
 0001:000306b0       ??0?$__crt_unique_heap_ptr@U__vcrt_ptd@@U__crt_internal_free_policy@@@@QAE@QAU__vcrt_ptd@@@Z 100316b0 f i libvcruntimed:per_thread_data.obj
 0001:000306f0       ??1?$__crt_unique_heap_ptr@U__vcrt_ptd@@U__crt_internal_free_policy@@@@QAE@XZ 100316f0 f i libvcruntimed:per_thread_data.obj
 0001:00030730       ??B?$__crt_unique_heap_ptr@U__vcrt_ptd@@U__crt_internal_free_policy@@@@QBE_NXZ 10031730 f i libvcruntimed:per_thread_data.obj
 0001:00030750       ?detach@?$__crt_unique_heap_ptr@U__vcrt_ptd@@U__crt_internal_free_policy@@@@QAEPAU__vcrt_ptd@@XZ 10031750 f i libvcruntimed:per_thread_data.obj
 0001:00030780       ?get@?$__crt_unique_heap_ptr@U__vcrt_ptd@@U__crt_internal_free_policy@@@@QBEPAU__vcrt_ptd@@XZ 10031780 f i libvcruntimed:per_thread_data.obj
 0001:00030790       ?is_valid@?$__crt_unique_heap_ptr@U__vcrt_ptd@@U__crt_internal_free_policy@@@@QBE_NXZ 10031790 f i libvcruntimed:per_thread_data.obj
 0001:000307c0       ?release@?$__crt_unique_heap_ptr@U__vcrt_ptd@@U__crt_internal_free_policy@@@@QAEXXZ 100317c0 f i libvcruntimed:per_thread_data.obj
 0001:00030820       ___vcrt_freefls@4          10031820 f   libvcruntimed:per_thread_data.obj
 0001:00030850       ___vcrt_freeptd            10031850 f   libvcruntimed:per_thread_data.obj
 0001:000308b0       ___vcrt_getptd             100318b0 f   libvcruntimed:per_thread_data.obj
 0001:000308d0       ___vcrt_getptd_noexit      100318d0 f   libvcruntimed:per_thread_data.obj
 0001:00030a30       ___vcrt_getptd_noinit      10031a30 f   libvcruntimed:per_thread_data.obj
 0001:00030a90       ___vcrt_initialize_ptd     10031a90 f   libvcruntimed:per_thread_data.obj
 0001:00030ae0       ___vcrt_uninitialize_ptd   10031ae0 f   libvcruntimed:per_thread_data.obj
 0001:00030b10       ___vcrt_initialize_locks   10031b10 f   libvcruntimed:locks.obj
 0001:00030b70       ___vcrt_lock               10031b70 f   libvcruntimed:locks.obj
 0001:00030b90       ___vcrt_uninitialize_locks 10031b90 f   libvcruntimed:locks.obj
 0001:00030be0       ___vcrt_unlock             10031be0 f   libvcruntimed:locks.obj
 0001:00031750       ??$TypeMatchHelper@V__FrameHandler3@@@@YAHPBU_s_HandlerType@@PBU_s_CatchableType@@PBU_s_ThrowInfo@@@Z 10032750 f i libvcruntimed:frame.obj
 0001:00031830       ??$__InternalCxxFrameHandler@V__FrameHandler3@@@@YA?AW4_EXCEPTION_DISPOSITION@@PAUEHExceptionRecord@@PAUEHRegistrationNode@@PAU_CONTEXT@@PAXPBU_s_FuncInfo@@H1E@Z 10032830 f i libvcruntimed:frame.obj
 0001:000319f0       ??0HandlerMap@__FrameHandler3@@QAE@PBU_s_TryBlockMapEntry@@II@Z 100329f0 f i libvcruntimed:frame.obj
 0001:00031a20       ??0TryBlockMap@__FrameHandler3@@QAE@PBU_s_FuncInfo@@I@Z 10032a20 f i libvcruntimed:frame.obj
 0001:00031a50       ??0bad_exception@std@@QAE@ABV01@@Z 10032a50 f i libvcruntimed:frame.obj
 0001:00031a80       ??0bad_exception@std@@QAE@XZ 10032a80 f i libvcruntimed:frame.obj
 0001:00031ab0       ??0iterator@HandlerMap@__FrameHandler3@@QAE@AAV12@I@Z 10032ab0 f i libvcruntimed:frame.obj
 0001:00031ae0       ??1bad_exception@std@@UAE@XZ 10032ae0 f i libvcruntimed:frame.obj
 0001:00031b00       ??8iterator@HandlerMap@__FrameHandler3@@QBE_NABV012@@Z 10032b00 f i libvcruntimed:frame.obj
 0001:00031b30       ??8type_info@@QBE_NABV0@@Z 10032b30 f i libvcruntimed:frame.obj
 0001:00031b70       ??9iterator@HandlerMap@__FrameHandler3@@QBE_NABV012@@Z 10032b70 f i libvcruntimed:frame.obj
 0001:00031bb0       ??Diterator@HandlerMap@__FrameHandler3@@QAE?BU_s_HandlerType@@XZ 10032bb0 f i libvcruntimed:frame.obj
 0001:00031bf0       ??Diterator@TryBlockMap@__FrameHandler3@@QAE?BU_s_TryBlockMapEntry@@XZ 10032bf0 f i libvcruntimed:frame.obj
 0001:00031c40       ??Eiterator@HandlerMap@__FrameHandler3@@QAEAAV012@XZ 10032c40 f i libvcruntimed:frame.obj
 0001:00031c60       ??Eiterator@TryBlockMap@__FrameHandler3@@QAEAAV012@XZ 10032c60 f i libvcruntimed:frame.obj
 0001:00031c80       ??Miterator@TryBlockMap@__FrameHandler3@@QBE_NABV012@@Z 10032c80 f i libvcruntimed:frame.obj
 0001:00031cb0       ??_Ebad_exception@std@@UAEPAXI@Z 10032cb0 f i libvcruntimed:frame.obj
 0001:00031cb0       ??_Gbad_exception@std@@UAEPAXI@Z 10032cb0 f i libvcruntimed:frame.obj
 0001:00031ce0       ?BuildCatchObject@__FrameHandler3@@SAXPAUEHExceptionRecord@@PAXPBU_s_HandlerType@@PBU_s_CatchableType@@@Z 10032ce0 f   libvcruntimed:frame.obj
 0001:00031d00       ?BuildCatchObjectHelper@__FrameHandler3@@SAHPAUEHExceptionRecord@@PAXPBU_s_HandlerType@@PBU_s_CatchableType@@@Z 10032d00 f   libvcruntimed:frame.obj
 0001:000320a0       ?FrameUnwindToEmptyState@__FrameHandler3@@SAXPAUEHRegistrationNode@@PAXPBU_s_FuncInfo@@@Z 100330a0 f   libvcruntimed:frame.obj
 0001:000320c0       ?FrameUnwindToState@__FrameHandler3@@SAXPAUEHRegistrationNode@@PAXPBU_s_FuncInfo@@H@Z 100330c0 f   libvcruntimed:frame.obj
 0001:00032240       ?GetMaxState@__FrameHandler3@@SAHPAXPBU_s_FuncInfo@@@Z 10033240 f i libvcruntimed:frame.obj
 0001:00032360       ?TypeMatch@__FrameHandler3@@SAHPBU_s_HandlerType@@PBU_s_CatchableType@@PBU_s_ThrowInfo@@@Z 10033360 f   libvcruntimed:frame.obj
 0001:00032380       ?_CallMemberFunction1@@YGXQAX00@Z 10033380 f i libvcruntimed:frame.obj
 0001:000323b0       ?_CallMemberFunction2@@YGXQAX00H@Z 100333b0 f i libvcruntimed:frame.obj
 0001:000323e0       ?begin@HandlerMap@__FrameHandler3@@QAE?AViterator@12@XZ 100333e0 f i libvcruntimed:frame.obj
 0001:00032400       ?end@HandlerMap@__FrameHandler3@@QAE?AViterator@12@XZ 10033400 f i libvcruntimed:frame.obj
 0001:00032430       ?getESTypes@__FrameHandler3@@SAPBU_s_ESTypeList@@PBU_s_FuncInfo@@@Z 10033430 f i libvcruntimed:frame.obj
 0001:00032440       ?getLastEntry@HandlerMap@__FrameHandler3@@QAEPBU_s_HandlerType@@XZ 10033440 f i libvcruntimed:frame.obj
 0001:00032460       ?getMagicNum@__FrameHandler3@@SAIPBU_s_FuncInfo@@@Z 10033460 f i libvcruntimed:frame.obj
 0001:00032470       ?getNumTryBlocks@TryBlockMap@__FrameHandler3@@QAEIXZ 10033470 f i libvcruntimed:frame.obj
 0001:00032490       ?isEHs@__FrameHandler3@@SA_NPBU_s_FuncInfo@@@Z 10033490 f i libvcruntimed:frame.obj
 0001:000324c0       ?isNoExcept@__FrameHandler3@@SA_NPBU_s_FuncInfo@@@Z 100334c0 f i libvcruntimed:frame.obj
 0001:000324f0       ___BuildCatchObject        100334f0 f   libvcruntimed:frame.obj
 0001:00032510       ___BuildCatchObjectHelper  10033510 f   libvcruntimed:frame.obj
 0001:00032530       ___TypeMatch               10033530 f   libvcruntimed:frame.obj
 0001:00032550       ___vcrt_EncodePointer      10033550 f i libvcruntimed:frame.obj
 0001:00032560       __CallSettingFrame@12      10033560 f   libvcruntimed:lowhelpr.obj
 0001:00032587       __NLG_Return               10033587     libvcruntimed:lowhelpr.obj
 0001:000325b0       ??$?0$00@DName@@QAE@PBDU?$StringLifeSelector@$00@@@Z 100335b0 f i libvcruntimed:undname.obj
 0001:00032600       ??$?0$00@pcharNode@@QAE@PBDHU?$StringLifeSelector@$00@@@Z 10033600 f i libvcruntimed:undname.obj
 0001:00032640       ??$?0$01@DName@@QAE@PBDU?$StringLifeSelector@$01@@@Z 10033640 f i libvcruntimed:undname.obj
 0001:00032690       ??$?0$01@pcharNode@@QAE@PBDHU?$StringLifeSelector@$01@@@Z 10033690 f i libvcruntimed:undname.obj
 0001:00032710       ??$?0$0A@@DName@@QAE@PBDU?$StringLifeSelector@$0A@@@@Z 10033710 f i libvcruntimed:undname.obj
 0001:00032760       ??$?0$0A@@pcharNode@@QAE@PBDHU?$StringLifeSelector@$0A@@@@Z 10033760 f i libvcruntimed:undname.obj
 0001:000327e0       ??$?0_K$0A@@?$optional@_K@std@@QAE@$$QA_K@Z 100337e0 f i libvcruntimed:undname.obj
 0001:00032820       ??$?0_K@?$_Optional_construct_base@_K@std@@QAE@Uin_place_t@1@$$QA_K@Z 10033820 f i libvcruntimed:undname.obj
 0001:00032850       ??$?0_K@?$_Optional_destruct_base@_K$00@std@@QAE@Uin_place_t@1@$$QA_K@Z 10033850 f i libvcruntimed:undname.obj
 0001:00032880       ??$append@VDNameNode@@@DName@@AAEXPBVDNameNode@@@Z 10033880 f i libvcruntimed:undname.obj
 0001:00032910       ??$append@VDNameStatusNode@@@DName@@AAEXPBVDNameStatusNode@@@Z 10033910 f i libvcruntimed:undname.obj
 0001:000329a0       ??$append@VcharNode@@@DName@@AAEXPBVcharNode@@@Z 100339a0 f i libvcruntimed:undname.obj
 0001:00032a30       ??$append@VpDNameNode@@@DName@@AAEXPBVpDNameNode@@@Z 10033a30 f i libvcruntimed:undname.obj
 0001:00032ac0       ??$append@VpcharNode@@@DName@@AAEXPBVpcharNode@@@Z 10033ac0 f i libvcruntimed:undname.obj
 0001:00032b50       ??$doPchar@$00@DName@@AAEXPBDH@Z 10033b50 f i libvcruntimed:undname.obj
 0001:00032c60       ??$doPchar@$01@DName@@AAEXPBDH@Z 10033c60 f i libvcruntimed:undname.obj
 0001:00032d70       ??$doPchar@$0A@@DName@@AAEXPBDH@Z 10033d70 f i libvcruntimed:undname.obj
 0001:00032e80       ??$forward@_K@std@@YA$$QA_KAA_K@Z 10033e80 f i libvcruntimed:undname.obj
 0001:00032e90       ??$size@D$04@std@@YAIAAY04$$CBD@Z 10033e90 f i libvcruntimed:undname.obj
 0001:00032ea0       ??$size@D$0EB@@std@@YAIAAY0EB@$$CBD@Z 10033ea0 f i libvcruntimed:undname.obj
 0001:00032eb0       ??0?$_Optional_construct_base@_K@std@@QAE@XZ 10033eb0 f i libvcruntimed:undname.obj
 0001:00032ed0       ??0?$_Optional_destruct_base@_K$00@std@@QAE@XZ 10033ed0 f i libvcruntimed:undname.obj
 0001:00032ef0       ??0?$optional@_K@std@@QAE@XZ 10033ef0 f i libvcruntimed:undname.obj
 0001:00032f10       ??0Block@_HeapManager@@QAE@XZ 10033f10 f i libvcruntimed:undname.obj
 0001:00032f30       ??0DName@@QAE@AAPBDD@Z     10033f30 f   libvcruntimed:undname.obj
 0001:000330a0       ??0DName@@QAE@ABUStringLiteral@@@Z 100340a0 f   libvcruntimed:undname.obj
 0001:000330f0       ??0DName@@QAE@ABV0@@Z      100340f0 f i libvcruntimed:undname.obj
 0001:00033120       ??0DName@@QAE@D@Z          10034120 f   libvcruntimed:undname.obj
 0001:00033150       ??0DName@@QAE@PAV0@@Z      10034150 f   libvcruntimed:undname.obj
 0001:00033200       ??0DName@@QAE@W4DNameStatus@@@Z 10034200 f   libvcruntimed:undname.obj
 0001:000332a0       ??0DName@@QAE@XZ           100342a0 f i libvcruntimed:undname.obj
 0001:000332d0       ??0DName@@QAE@_J@Z         100342d0 f   libvcruntimed:undname.obj
 0001:000333c0       ??0DName@@QAE@_K@Z         100343c0 f   libvcruntimed:undname.obj
 0001:00033470       ??0DNameNode@@IAE@XZ       10034470 f i libvcruntimed:undname.obj
 0001:00033490       ??0Replicator@@QAE@XZ      10034490 f i libvcruntimed:undname.obj
 0001:000334d0       ??0UnDecorator@@QAE@PBDP6APADJ@ZK@Z 100344d0 f i libvcruntimed:undname.obj
 0001:00033550       ??0_Nontrivial_dummy_type@std@@QAE@XZ 10034550 f i libvcruntimed:undname.obj
 0001:00033560       ??0charNode@@QAE@D@Z       10034560 f i libvcruntimed:undname.obj
 0001:00033590       ??0pDNameNode@@QAE@PAVDName@@@Z 10034590 f   libvcruntimed:undname.obj
 0001:000335f0       ??0pairNode@@QAE@PBVDNameNode@@0@Z 100345f0 f i libvcruntimed:undname.obj
 0001:00033650       ??2@YAPAXIAAV_HeapManager@@H@Z 10034650 f   libvcruntimed:undname.obj
 0001:00033690       ??4DName@@QAEAAV0@ABUStringLiteral@@@Z 10034690 f   libvcruntimed:undname.obj
 0001:000336d0       ??4DName@@QAEAAV0@ABV0@@Z  100346d0 f   libvcruntimed:undname.obj
 0001:00033700       ??4DName@@QAEAAV0@D@Z      10034700 f i libvcruntimed:undname.obj
 0001:00033730       ??4DName@@QAEAAV0@PAV0@@Z  10034730 f   libvcruntimed:undname.obj
 0001:000337d0       ??4DName@@QAEAAV0@W4DNameStatus@@@Z 100347d0 f   libvcruntimed:undname.obj
 0001:00033850       ??AReplicator@@QBE?AVDName@@H@Z 10034850 f   libvcruntimed:undname.obj
 0001:000338c0       ??B?$optional@_K@std@@QBE_NXZ 100348c0 f i libvcruntimed:undname.obj
 0001:000338e0       ??D?$optional@_K@std@@QGAEAA_KXZ 100348e0 f i libvcruntimed:undname.obj
 0001:00033950       ??H@YA?AVDName@@ABUStringLiteral@@ABV0@@Z 10034950 f i libvcruntimed:undname.obj
 0001:00033980       ??H@YA?AVDName@@DABV0@@Z   10034980 f i libvcruntimed:undname.obj
 0001:000339b0       ??H@YA?AVDName@@W4DNameStatus@@ABV0@@Z 100349b0 f i libvcruntimed:undname.obj
 0001:000339e0       ??HDName@@QBE?AV0@ABUStringLiteral@@@Z 100349e0 f   libvcruntimed:undname.obj
 0001:00033a20       ??HDName@@QBE?AV0@ABV0@@Z  10034a20 f   libvcruntimed:undname.obj
 0001:00033a60       ??HDName@@QBE?AV0@D@Z      10034a60 f   libvcruntimed:undname.obj
 0001:00033aa0       ??HDName@@QBE?AV0@PAV0@@Z  10034aa0 f   libvcruntimed:undname.obj
 0001:00033ae0       ??HDName@@QBE?AV0@W4DNameStatus@@@Z 10034ae0 f   libvcruntimed:undname.obj
 0001:00033b20       ??HStringLiteral@@QBE?AU0@H@Z 10034b20 f i libvcruntimed:undname.obj
 0001:00033b50       ??YDName@@QAEAAV0@ABUStringLiteral@@@Z 10034b50 f   libvcruntimed:undname.obj
 0001:00033bf0       ??YDName@@QAEAAV0@ABV0@@Z  10034bf0 f   libvcruntimed:undname.obj
 0001:00033c90       ??YDName@@QAEAAV0@D@Z      10034c90 f   libvcruntimed:undname.obj
 0001:00033d10       ??YDName@@QAEAAV0@PAV0@@Z  10034d10 f   libvcruntimed:undname.obj
 0001:00033dc0       ??YDName@@QAEAAV0@W4DNameStatus@@@Z 10034dc0 f   libvcruntimed:undname.obj
 0001:00033e20       ??YReplicator@@QAEAAV0@ABVDName@@@Z 10034e20 f   libvcruntimed:undname.obj
 0001:00033eb0       ??_5DName@@QAEAAV0@ABV0@@Z 10034eb0 f   libvcruntimed:undname.obj
 0001:00033f10       ??__K_l@@YA?AUStringLiteral@@PBDI@Z 10034f10 f i libvcruntimed:undname.obj
 0001:00033f30       ?Constructor@_HeapManager@@QAEXP6APAXI@ZP6AXPAX@Z@Z 10034f30 f i libvcruntimed:undname.obj
 0001:00033f70       ?Destructor@_HeapManager@@QAEXXZ 10034f70 f i libvcruntimed:undname.obj
 0001:00033fe0       ?UScore@UnDecorator@@SA?AUStringLiteral@@W4Tokens@@@Z 10034fe0 f   libvcruntimed:undname.obj
 0001:00034030       ?composeDeclaration@UnDecorator@@CA?AVDName@@ABV2@@Z 10035030 f i libvcruntimed:undname.obj
 0001:00035fa0       ?dbGetString@DName@@QBEPADXZ 10036fa0 f   libvcruntimed:undname.obj
 0001:00035fc0       ?doAccessSpecifiers@UnDecorator@@SAHXZ 10036fc0 f i libvcruntimed:undname.obj
 0001:00035ff0       ?doAllocationLanguage@UnDecorator@@SAHXZ 10036ff0 f i libvcruntimed:undname.obj
 0001:00036020       ?doAllocationModel@UnDecorator@@SAHXZ 10037020 f i libvcruntimed:undname.obj
 0001:00036050       ?doEcsu@UnDecorator@@SAHXZ 10037050 f i libvcruntimed:undname.obj
 0001:00036080       ?doEllipsis@UnDecorator@@SAHXZ 10037080 f i libvcruntimed:undname.obj
 0001:000360b0       ?doFunctionReturns@UnDecorator@@SAHXZ 100370b0 f i libvcruntimed:undname.obj
 0001:000360e0       ?doMSKeywords@UnDecorator@@SAHXZ 100370e0 f i libvcruntimed:undname.obj
 0001:00036110       ?doMemberTypes@UnDecorator@@SAHXZ 10037110 f i libvcruntimed:undname.obj
 0001:00036140       ?doNameOnly@UnDecorator@@SAHXZ 10037140 f i libvcruntimed:undname.obj
 0001:00036150       ?doNoIdentCharCheck@UnDecorator@@SAHXZ 10037150 f i libvcruntimed:undname.obj
 0001:00036160       ?doPchar@DName@@AAEXD@Z    10037160 f   libvcruntimed:undname.obj
 0001:000361d0       ?doPtr64@UnDecorator@@SAHXZ 100371d0 f i libvcruntimed:undname.obj
 0001:00036200       ?doRestrictionSpec@UnDecorator@@SAHXZ 10037200 f i libvcruntimed:undname.obj
 0001:00036230       ?doThisTypes@UnDecorator@@SAHXZ 10037230 f i libvcruntimed:undname.obj
 0001:00036260       ?doThrowTypes@UnDecorator@@SAHXZ 10037260 f i libvcruntimed:undname.obj
 0001:00036290       ?doTypeOnly@UnDecorator@@SAHXZ 10037290 f i libvcruntimed:undname.obj
 0001:000362a0       ?doUnderScore@UnDecorator@@SAHXZ 100372a0 f i libvcruntimed:undname.obj
 0001:000362d0       ?getAddressOf@UnDecorator@@CA?AVDName@@XZ 100372d0 f   libvcruntimed:undname.obj
 0001:00036350       ?getArgumentList@UnDecorator@@CA?AVDName@@XZ 10037350 f   libvcruntimed:undname.obj
 0001:000364a0       ?getArgumentTypes@UnDecorator@@CA?AVDName@@XZ 100374a0 f   libvcruntimed:undname.obj
 0001:00036670       ?getArrayAccess@UnDecorator@@CA?AVDName@@XZ 10037670 f   libvcruntimed:undname.obj
 0001:00036710       ?getArrayObject@UnDecorator@@CA?AVDName@@XZ 10037710 f   libvcruntimed:undname.obj
 0001:000367f0       ?getArrayType@UnDecorator@@CA?AVDName@@ABV2@@Z 100377f0 f i libvcruntimed:undname.obj
 0001:00036a90       ?getBasedType@UnDecorator@@CA?AVDName@@XZ 10037a90 f   libvcruntimed:undname.obj
 0001:00036b80       ?getBasicDataType@UnDecorator@@CA?AVDName@@ABV2@@Z 10037b80 f   libvcruntimed:undname.obj
 0001:000374f0       ?getCHPEName@UnDecorator@@QAEPADPADH@Z 100384f0 f i libvcruntimed:undname.obj
 0001:00037650       ?getCallIndex@UnDecorator@@CA?AVDName@@XZ 10038650 f i libvcruntimed:undname.obj
 0001:00037670       ?getCallingConvention@UnDecorator@@CA?AVDName@@XZ 10038670 f   libvcruntimed:undname.obj
 0001:000378d0       ?getDataIndirectType@UnDecorator@@CA?AVDName@@ABV2@W4IndirectionKind@@0H@Z 100388d0 f   libvcruntimed:undname.obj
 0001:000381f0       ?getDataIndirectType@UnDecorator@@CA?AVDName@@XZ 100391f0 f i libvcruntimed:undname.obj
 0001:00038230       ?getDataType@UnDecorator@@CA?AVDName@@PAV2@@Z 10039230 f   libvcruntimed:undname.obj
 0001:00038370       ?getDecoratedName@UnDecorator@@CA?AVDName@@XZ 10039370 f   libvcruntimed:undname.obj
 0001:000387b0       ?getDimension@UnDecorator@@CA?AVDName@@_N@Z 100397b0 f   libvcruntimed:undname.obj
 0001:00038a10       ?getDispatchTarget@UnDecorator@@CA?AVDName@@XZ 10039a10 f   libvcruntimed:undname.obj
 0001:00038ab0       ?getDisplacement@UnDecorator@@CA?AVDName@@XZ 10039ab0 f i libvcruntimed:undname.obj
 0001:00038ad0       ?getECSUDataType@UnDecorator@@CA?AVDName@@XZ 10039ad0 f   libvcruntimed:undname.obj
 0001:00038d30       ?getECSUName@UnDecorator@@CA?AVDName@@XZ 10039d30 f i libvcruntimed:undname.obj
 0001:00038d50       ?getEnumType@UnDecorator@@CA?AVDName@@XZ 10039d50 f i libvcruntimed:undname.obj
 0001:00038f10       ?getExtendedDataIndirectType@UnDecorator@@CA?AVDName@@AAW4IndirectionKind@@AA_NH@Z 10039f10 f   libvcruntimed:undname.obj
 0001:00039160       ?getExternalDataType@UnDecorator@@CA?AVDName@@ABV2@@Z 1003a160 f i libvcruntimed:undname.obj
 0001:00039200       ?getFloatingPoint@UnDecorator@@CA?AVDName@@H@Z 1003a200 f   libvcruntimed:undname.obj
 0001:000393c0       ?getFunctionIndirectType@UnDecorator@@CA?AVDName@@ABV2@@Z 1003a3c0 f   libvcruntimed:undname.obj
 0001:000398a0       ?getGuardNumber@UnDecorator@@CA?AVDName@@XZ 1003a8a0 f i libvcruntimed:undname.obj
 0001:000398c0       ?getLastChar@DName@@QBEDXZ 1003a8c0 f i libvcruntimed:undname.obj
 0001:00039900       ?getLastChar@DNameStatusNode@@UBEDXZ 1003a900 f i libvcruntimed:undname.obj
 0001:00039930       ?getLastChar@charNode@@UBEDXZ 1003a930 f i libvcruntimed:undname.obj
 0001:00039950       ?getLastChar@pDNameNode@@UBEDXZ 1003a950 f i libvcruntimed:undname.obj
 0001:00039980       ?getLastChar@pairNode@@UBEDXZ 1003a980 f i libvcruntimed:undname.obj
 0001:000399f0       ?getLastChar@pcharNode@@UBEDXZ 1003a9f0 f i libvcruntimed:undname.obj
 0001:00039a30       ?getLexicalFrame@UnDecorator@@CA?AVDName@@XZ 1003aa30 f i libvcruntimed:undname.obj
 0001:00039a70       ?getMemberAccess@UnDecorator@@CA?AVDName@@XZ 1003aa70 f   libvcruntimed:undname.obj
 0001:00039b00       ?getMemoryWithBuffer@_HeapManager@@QAEPAXI@Z 1003ab00 f   libvcruntimed:undname.obj
 0001:00039bf0       ?getMemoryWithoutBuffer@_HeapManager@@QAEPAXI@Z 1003abf0 f   libvcruntimed:undname.obj
 0001:00039c30       ?getNoexcept@UnDecorator@@CA?AVDName@@XZ 1003ac30 f   libvcruntimed:undname.obj
 0001:00039cb0       ?getNumberOfDimensions@UnDecorator@@CAHXZ 1003acb0 f   libvcruntimed:undname.obj
 0001:00039db0       ?getOperatorName@UnDecorator@@CA?AVDName@@_NPA_N@Z 1003adb0 f i libvcruntimed:undname.obj
 0001:0003a8b0       ?getPointerToMember@UnDecorator@@CA?AVDName@@XZ 1003b8b0 f   libvcruntimed:undname.obj
 0001:0003a9a0       ?getPointerType@UnDecorator@@CA?AVDName@@ABV2@0@Z 1003b9a0 f i libvcruntimed:undname.obj
 0001:0003a9c0       ?getPointerTypeArray@UnDecorator@@CA?AVDName@@ABV2@0@Z 1003b9c0 f i libvcruntimed:undname.obj
 0001:0003a9e0       ?getPrimaryDataType@UnDecorator@@CA?AVDName@@ABV2@@Z 1003b9e0 f   libvcruntimed:undname.obj
 0001:0003ae70       ?getPtrRefDataType@UnDecorator@@CA?AVDName@@ABV2@H@Z 1003be70 f   libvcruntimed:undname.obj
 0001:0003b120       ?getPtrRefType@UnDecorator@@CA?AVDName@@ABV2@0W4IndirectionKind@@@Z 1003c120 f   libvcruntimed:undname.obj
 0001:0003b2a0       ?getReferenceType@UnDecorator@@CA?AVDName@@ABV2@0W4IndirectionKind@@@Z 1003c2a0 f i libvcruntimed:undname.obj
 0001:0003b2c0       ?getRestrictionSpec@UnDecorator@@CA?AVDName@@XZ 1003c2c0 f   libvcruntimed:undname.obj
 0001:0003b480       ?getReturnType@UnDecorator@@CA?AVDName@@PAV2@@Z 1003c480 f   libvcruntimed:undname.obj
 0001:0003b4d0       ?getScope@UnDecorator@@CA?AVDName@@XZ 1003c4d0 f   libvcruntimed:undname.obj
 0001:0003ba60       ?getScopedName@UnDecorator@@CA?AVDName@@XZ 1003ca60 f   libvcruntimed:undname.obj
 0001:0003bbb0       ?getSignedDimension@UnDecorator@@CA?AVDName@@XZ 1003cbb0 f   libvcruntimed:undname.obj
 0001:0003bc30       ?getStorageConvention@UnDecorator@@CA?AVDName@@XZ 1003cc30 f i libvcruntimed:undname.obj
 0001:0003bc50       ?getString@DName@@QBEPADPAD0@Z 1003cc50 f i libvcruntimed:undname.obj
 0001:0003bcb0       ?getString@DName@@QBEPADPADH@Z 1003ccb0 f i libvcruntimed:undname.obj
 0001:0003bd40       ?getString@DNameStatusNode@@UBEPADPAD0@Z 1003cd40 f i libvcruntimed:undname.obj
 0001:0003bd80       ?getString@charNode@@UBEPADPAD0@Z 1003cd80 f i libvcruntimed:undname.obj
 0001:0003bdb0       ?getString@pDNameNode@@UBEPADPAD0@Z 1003cdb0 f i libvcruntimed:undname.obj
 0001:0003bdf0       ?getString@pairNode@@UBEPADPAD0@Z 1003cdf0 f i libvcruntimed:undname.obj
 0001:0003be80       ?getString@pcharNode@@UBEPADPAD0@Z 1003ce80 f i libvcruntimed:undname.obj
 0001:0003beb0       ?getStringEncoding@UnDecorator@@CA?AVDName@@W4PrefixKind@@H@Z 1003ceb0 f   libvcruntimed:undname.obj
 0001:0003bfc0       ?getStringHelper@@YAPADPADPBD1H@Z 1003cfc0 f i libvcruntimed:undname.obj
 0001:0003c000       ?getStringObject@UnDecorator@@CA?AVDName@@XZ 1003d000 f   libvcruntimed:undname.obj
 0001:0003c0b0       ?getSymbolName@UnDecorator@@CA?AVDName@@XZ 1003d0b0 f i libvcruntimed:undname.obj
 0001:0003c140       ?getTemplateArgumentList@UnDecorator@@CA?AVDName@@XZ 1003d140 f   libvcruntimed:undname.obj
 0001:0003c430       ?getTemplateName@UnDecorator@@CA?AVDName@@_N@Z 1003d430 f   libvcruntimed:undname.obj
 0001:0003c5f0       ?getTemplateNonTypeArgument@UnDecorator@@CA?AVDName@@XZ 1003d5f0 f   libvcruntimed:undname.obj
 0001:0003cc30       ?getTemplateTypeArgument@UnDecorator@@CA?AVDName@@XZ 1003dc30 f   libvcruntimed:undname.obj
 0001:0003cdd0       ?getThisType@UnDecorator@@CA?AVDName@@XZ 1003ddd0 f i libvcruntimed:undname.obj
 0001:0003ce10       ?getThrowTypes@UnDecorator@@CA?AVDName@@XZ 1003de10 f   libvcruntimed:undname.obj
 0001:0003ce50       ?getTypeEncoding@UnDecorator@@CAHXZ 1003de50 f i libvcruntimed:undname.obj
 0001:0003d910       ?getUndecoratedName@UnDecorator@@QAEPADPADH@Z 1003e910 f i libvcruntimed:undname.obj
 0001:0003da70       ?getUnionObject@UnDecorator@@CA?AVDName@@XZ 1003ea70 f   libvcruntimed:undname.obj
 0001:0003db40       ?getVCallThunkType@UnDecorator@@CA?AVDName@@XZ 1003eb40 f i libvcruntimed:undname.obj
 0001:0003dbc0       ?getValue@UnDecorator@@CA?AV?$optional@_K@std@@XZ 1003ebc0 f   libvcruntimed:undname.obj
 0001:0003dc80       ?getValueObject@UnDecorator@@CA?AVDName@@XZ 1003ec80 f   libvcruntimed:undname.obj
 0001:0003de60       ?getVbTableType@UnDecorator@@CA?AVDName@@ABV2@@Z 1003ee60 f i libvcruntimed:undname.obj
 0001:0003de80       ?getVdispMapType@UnDecorator@@CA?AVDName@@ABV2@@Z 1003ee80 f i libvcruntimed:undname.obj
 0001:0003df10       ?getVfTableType@UnDecorator@@CA?AVDName@@ABV2@@Z 1003ef10 f i libvcruntimed:undname.obj
 0001:0003e110       ?getZName@UnDecorator@@CA?AVDName@@_N0@Z 1003f110 f   libvcruntimed:undname.obj
 0001:0003e440       ?haveTemplateParameters@UnDecorator@@SAHXZ 1003f440 f i libvcruntimed:undname.obj
 0001:0003e450       ?isArray@DName@@QBEHXZ     1003f450 f i libvcruntimed:undname.obj
 0001:0003e470       ?isComArray@DName@@QBEHXZ  1003f470 f i libvcruntimed:undname.obj
 0001:0003e490       ?isEmpty@DName@@QBEHXZ     1003f490 f i libvcruntimed:undname.obj
 0001:0003e4c0       ?isFull@Replicator@@QBEHXZ 1003f4c0 f i libvcruntimed:undname.obj
 0001:0003e4f0       ?isNoTE@DName@@QBEHXZ      1003f4f0 f i libvcruntimed:undname.obj
 0001:0003e510       ?isPinPtr@DName@@QBEHXZ    1003f510 f i libvcruntimed:undname.obj
 0001:0003e530       ?isPtrRef@DName@@QBEHXZ    1003f530 f i libvcruntimed:undname.obj
 0001:0003e550       ?isUDC@DName@@QBEHXZ       1003f550 f i libvcruntimed:undname.obj
 0001:0003e590       ?isUDTThunk@DName@@QBEHXZ  1003f590 f i libvcruntimed:undname.obj
 0001:0003e5d0       ?isVCallThunk@DName@@QBEHXZ 1003f5d0 f i libvcruntimed:undname.obj
 0001:0003e5f0       ?isValid@DName@@QBEHXZ     1003f5f0 f i libvcruntimed:undname.obj
 0001:0003e630       ?length@DName@@QBEHXZ      1003f630 f i libvcruntimed:undname.obj
 0001:0003e670       ?length@DNameStatusNode@@UBEHXZ 1003f670 f i libvcruntimed:undname.obj
 0001:0003e690       ?length@charNode@@UBEHXZ   1003f690 f i libvcruntimed:undname.obj
 0001:0003e6a0       ?length@pDNameNode@@UBEHXZ 1003f6a0 f i libvcruntimed:undname.obj
 0001:0003e6d0       ?length@pairNode@@UBEHXZ   1003f6d0 f i libvcruntimed:undname.obj
 0001:0003e740       ?length@pcharNode@@UBEHXZ  1003f740 f i libvcruntimed:undname.obj
 0001:0003e760       ?make@DNameStatusNode@@SAPBV1@W4DNameStatus@@@Z 1003f760 f i libvcruntimed:undname.obj
 0001:0003e790       ?parseDecoratedName@UnDecorator@@CA?AVDName@@XZ 1003f790 f   libvcruntimed:undname.obj
 0001:0003e920       ?raw_length@DNameStatusNode@@UBEHXZ 1003f920 f i libvcruntimed:undname.obj
 0001:0003e940       ?raw_length@charNode@@UBEHXZ 1003f940 f i libvcruntimed:undname.obj
 0001:0003e960       ?raw_length@pDNameNode@@UBEHXZ 1003f960 f i libvcruntimed:undname.obj
 0001:0003e970       ?raw_length@pairNode@@UBEHXZ 1003f970 f i libvcruntimed:undname.obj
 0001:0003e990       ?raw_length@pcharNode@@UBEHXZ 1003f990 f i libvcruntimed:undname.obj
 0001:0003e9b0       ?setIsArray@DName@@QAEXXZ  1003f9b0 f i libvcruntimed:undname.obj
 0001:0003e9d0       ?setIsComArray@DName@@QAEXXZ 1003f9d0 f i libvcruntimed:undname.obj
 0001:0003e9f0       ?setIsNoTE@DName@@QAEXXZ   1003f9f0 f i libvcruntimed:undname.obj
 0001:0003ea10       ?setIsPinPtr@DName@@QAEXXZ 1003fa10 f i libvcruntimed:undname.obj
 0001:0003ea30       ?setIsUDC@DName@@QAEXXZ    1003fa30 f i libvcruntimed:undname.obj
 0001:0003ea60       ?setIsVCallThunk@DName@@QAEXXZ 1003fa60 f i libvcruntimed:undname.obj
 0001:0003ea80       ?setPtrRef@DName@@QAEAAV1@XZ 1003fa80 f i libvcruntimed:undname.obj
 0001:0003eaa0       ?status@DName@@QBE?AW4DNameStatus@@XZ 1003faa0 f i libvcruntimed:undname.obj
 0001:0003eba0       ___unDName                 1003fba0 f   libvcruntimed:undname.obj
 0001:0003ebd0       ___unDNameEx               1003fbd0 f   libvcruntimed:undname.obj
 0001:0003eca0       _unDNameGenerateCHPE       1003fca0 f   libvcruntimed:undname.obj
 0001:0003ed00       __global_unwind2           1003fd00 f   libvcruntimed:exsup.obj
 0001:0003ed80       __local_unwind2            1003fd80 f   libvcruntimed:exsup.obj
 0001:0003ee20       __abnormal_termination     1003fe20 f   libvcruntimed:exsup.obj
 0001:0003ee50       __NLG_Notify1              1003fe50 f   libvcruntimed:exsup.obj
 0001:0003ee60       __NLG_Notify               1003fe60 f   libvcruntimed:exsup.obj
 0001:0003ee77       __NLG_Dispatch2            1003fe77     libvcruntimed:exsup.obj
 0001:0003ee77       __NLG_Dispatch             1003fe77     libvcruntimed:exsup.obj
 0001:0003ee80       __NLG_Call                 1003fe80 f   libvcruntimed:exsup.obj
 0001:0003ee82       __NLG_Return2              1003fe82     libvcruntimed:exsup.obj
 0001:0003ee90       ??$__crt_interlocked_exchange_pointer@UHINSTANCE__@@PAU1@@@YAPAUHINSTANCE__@@PDSAU0@QAU0@@Z 1003fe90 f i libvcruntimed:winapi_downlevel.obj
 0001:0003eea0       ??$__crt_interlocked_exchange_pointer@UHINSTANCE__@@PAX@@YAPAUHINSTANCE__@@PDSAU0@QAX@Z 1003fea0 f i libvcruntimed:winapi_downlevel.obj
 0001:0003eeb0       ??$__crt_interlocked_exchange_pointer@XPAX@@YAPAXPDSAXQAX@Z 1003feb0 f i libvcruntimed:winapi_downlevel.obj
 0001:0003eec0       ??$__crt_interlocked_read_pointer@UHINSTANCE__@@@@YAPAUHINSTANCE__@@PDSAU0@@Z 1003fec0 f i libvcruntimed:winapi_downlevel.obj
 0001:0003eee0       ??$__crt_interlocked_read_pointer@X@@YAPAXPDSAX@Z 1003fee0 f i libvcruntimed:winapi_downlevel.obj
 0001:0003f2b0       ___vcrt_FlsAlloc           100402b0 f   libvcruntimed:winapi_downlevel.obj
 0001:0003f2f0       ___vcrt_FlsFree            100402f0 f   libvcruntimed:winapi_downlevel.obj
 0001:0003f330       ___vcrt_FlsGetValue        10040330 f   libvcruntimed:winapi_downlevel.obj
 0001:0003f370       ___vcrt_FlsSetValue        10040370 f   libvcruntimed:winapi_downlevel.obj
 0001:0003f3c0       ___vcrt_InitializeCriticalSectionEx 100403c0 f   libvcruntimed:winapi_downlevel.obj
 0001:0003f440       __get_unexpected           10040440 f   libvcruntimed:unexpected.obj
 0001:0003f460       _set_unexpected            10040460 f   libvcruntimed:unexpected.obj
 0001:0003f490       _unexpected                10040490 f   libvcruntimed:unexpected.obj
 0001:0003f4d0       ?GetCurrentState@__FrameHandler3@@SAHPAUEHRegistrationNode@@PAXPBU_s_FuncInfo@@@Z 100404d0 f   libvcruntimed:ehstate.obj
 0001:0003f500       ?SetState@__FrameHandler3@@SAXPAUEHRegistrationNode@@PBU_s_FuncInfo@@H@Z 10040500 f   libvcruntimed:ehstate.obj
 0001:0003f510       ??$?0ABV?$stream_output_adapter@D@__crt_stdio_output@@AB_KABQBDAAV__crt_cached_ptd_host@@ABQAD@?$format_validation_base@DV?$stream_output_adapter@D@__crt_stdio_output@@@__crt_stdio_output@@IAE@ABV?$stream_output_adapter@D@1@AB_KABQBDAAV__crt_cached_ptd_host@@ABQAD@Z 10040510 f i libucrtd:output.obj
 0001:0003f540       ??$?0ABV?$stream_output_adapter@D@__crt_stdio_output@@AB_KABQBDAAV__crt_cached_ptd_host@@ABQAD@?$positional_parameter_base@DV?$stream_output_adapter@D@__crt_stdio_output@@@__crt_stdio_output@@IAE@ABV?$stream_output_adapter@D@1@AB_KABQBDAAV__crt_cached_ptd_host@@ABQAD@Z 10040540 f i libucrtd:output.obj
 0001:0003f5c0       ??$?0ABV?$stream_output_adapter@D@__crt_stdio_output@@AB_KABQBDAAV__crt_cached_ptd_host@@ABQAD@?$standard_base@DV?$stream_output_adapter@D@__crt_stdio_output@@@__crt_stdio_output@@IAE@ABV?$stream_output_adapter@D@1@AB_KABQBDAAV__crt_cached_ptd_host@@ABQAD@Z 100405c0 f i libucrtd:output.obj
 0001:0003f610       ??$?0ABV?$stream_output_adapter@_W@__crt_stdio_output@@AB_KABQB_WAAV__crt_cached_ptd_host@@ABQAD@?$format_validation_base@_WV?$stream_output_adapter@_W@__crt_stdio_output@@@__crt_stdio_output@@IAE@ABV?$stream_output_adapter@_W@1@AB_KABQB_WAAV__crt_cached_ptd_host@@ABQAD@Z 10040610 f i libucrtd:output.obj
 0001:0003f640       ??$?0ABV?$stream_output_adapter@_W@__crt_stdio_output@@AB_KABQB_WAAV__crt_cached_ptd_host@@ABQAD@?$positional_parameter_base@_WV?$stream_output_adapter@_W@__crt_stdio_output@@@__crt_stdio_output@@IAE@ABV?$stream_output_adapter@_W@1@AB_KABQB_WAAV__crt_cached_ptd_host@@ABQAD@Z 10040640 f i libucrtd:output.obj
 0001:0003f6c0       ??$?0ABV?$stream_output_adapter@_W@__crt_stdio_output@@AB_KABQB_WAAV__crt_cached_ptd_host@@ABQAD@?$standard_base@_WV?$stream_output_adapter@_W@__crt_stdio_output@@@__crt_stdio_output@@IAE@ABV?$stream_output_adapter@_W@1@AB_KABQB_WAAV__crt_cached_ptd_host@@ABQAD@Z 100406c0 f i libucrtd:output.obj
 0001:0003f710       ??$?0ABV?$string_output_adapter@D@__crt_stdio_output@@AB_KABQBDAAV__crt_cached_ptd_host@@ABQAD@?$format_validation_base@DV?$string_output_adapter@D@__crt_stdio_output@@@__crt_stdio_output@@IAE@ABV?$string_output_adapter@D@1@AB_KABQBDAAV__crt_cached_ptd_host@@ABQAD@Z 10040710 f i libucrtd:output.obj
 0001:0003f740       ??$?0ABV?$string_output_adapter@D@__crt_stdio_output@@AB_KABQBDAAV__crt_cached_ptd_host@@ABQAD@?$positional_parameter_base@DV?$string_output_adapter@D@__crt_stdio_output@@@__crt_stdio_output@@IAE@ABV?$string_output_adapter@D@1@AB_KABQBDAAV__crt_cached_ptd_host@@ABQAD@Z 10040740 f i libucrtd:output.obj
 0001:0003f7c0       ??$?0ABV?$string_output_adapter@D@__crt_stdio_output@@AB_KABQBDAAV__crt_cached_ptd_host@@ABQAD@?$standard_base@DV?$string_output_adapter@D@__crt_stdio_output@@@__crt_stdio_output@@IAE@ABV?$string_output_adapter@D@1@AB_KABQBDAAV__crt_cached_ptd_host@@ABQAD@Z 100407c0 f i libucrtd:output.obj
 0001:0003f810       ??$?0ABV?$string_output_adapter@_W@__crt_stdio_output@@AB_KABQB_WAAV__crt_cached_ptd_host@@ABQAD@?$format_validation_base@_WV?$string_output_adapter@_W@__crt_stdio_output@@@__crt_stdio_output@@IAE@ABV?$string_output_adapter@_W@1@AB_KABQB_WAAV__crt_cached_ptd_host@@ABQAD@Z 10040810 f i libucrtd:output.obj
 0001:0003f840       ??$?0ABV?$string_output_adapter@_W@__crt_stdio_output@@AB_KABQB_WAAV__crt_cached_ptd_host@@ABQAD@?$positional_parameter_base@_WV?$string_output_adapter@_W@__crt_stdio_output@@@__crt_stdio_output@@IAE@ABV?$string_output_adapter@_W@1@AB_KABQB_WAAV__crt_cached_ptd_host@@ABQAD@Z 10040840 f i libucrtd:output.obj
 0001:0003f8c0       ??$?0ABV?$string_output_adapter@_W@__crt_stdio_output@@AB_KABQB_WAAV__crt_cached_ptd_host@@ABQAD@?$standard_base@_WV?$string_output_adapter@_W@__crt_stdio_output@@@__crt_stdio_output@@IAE@ABV?$string_output_adapter@_W@1@AB_KABQB_WAAV__crt_cached_ptd_host@@ABQAD@Z 100408c0 f i libucrtd:output.obj
 0001:0003ff10       ??$__crt_interlocked_read@J@@YAJPDJ@Z 10040f10 f i libucrtd:output.obj
 0001:0003ff30       ??$_tcstol_internal@DPAPAD$0A@@@YAJAAV__crt_cached_ptd_host@@QBDQAPADH@Z 10040f30 f i libucrtd:output.obj
 0001:0003ff70       ??$_tcstol_internal@_WPAPA_W$0A@@@YAJAAV__crt_cached_ptd_host@@QB_WQAPA_WH@Z 10040f70 f i libucrtd:output.obj
 0001:00042f10       ??$count@D@formatting_buffer@__crt_stdio_output@@QBEIXZ 10043f10 f i libucrtd:output.obj
 0001:00042f50       ??$count@_W@formatting_buffer@__crt_stdio_output@@QBEIXZ 10043f50 f i libucrtd:output.obj
 0001:00042f90       ??$data@D@formatting_buffer@__crt_stdio_output@@QAEPADXZ 10043f90 f i libucrtd:output.obj
 0001:00042fd0       ??$data@_W@formatting_buffer@__crt_stdio_output@@QAEPA_WXZ 10043fd0 f i libucrtd:output.obj
 0001:00043010       ??$ensure_buffer_is_big_enough@D@formatting_buffer@__crt_stdio_output@@QAE_NIAAV__crt_cached_ptd_host@@@Z 10044010 f i libucrtd:output.obj
 0001:00043100       ??$ensure_buffer_is_big_enough@_W@formatting_buffer@__crt_stdio_output@@QAE_NIAAV__crt_cached_ptd_host@@@Z 10044100 f i libucrtd:output.obj
 0001:000431f0       ??$extract_argument_from_va_list@C_J@?$positional_parameter_base@DV?$stream_output_adapter@D@__crt_stdio_output@@@__crt_stdio_output@@IAE_NAA_J@Z 100441f0 f i libucrtd:output.obj
 0001:00043350       ??$extract_argument_from_va_list@C_J@?$positional_parameter_base@DV?$string_output_adapter@D@__crt_stdio_output@@@__crt_stdio_output@@IAE_NAA_J@Z 10044350 f i libucrtd:output.obj
 0001:000434b0       ??$extract_argument_from_va_list@C_J@?$positional_parameter_base@_WV?$stream_output_adapter@_W@__crt_stdio_output@@@__crt_stdio_output@@IAE_NAA_J@Z 100444b0 f i libucrtd:output.obj
 0001:00043620       ??$extract_argument_from_va_list@C_J@?$positional_parameter_base@_WV?$string_output_adapter@_W@__crt_stdio_output@@@__crt_stdio_output@@IAE_NAA_J@Z 10044620 f i libucrtd:output.obj
 0001:00043790       ??$extract_argument_from_va_list@C_J@?$standard_base@DV?$stream_output_adapter@D@__crt_stdio_output@@@__crt_stdio_output@@IAE_NAA_J@Z 10044790 f i libucrtd:output.obj
 0001:000437c0       ??$extract_argument_from_va_list@C_J@?$standard_base@DV?$string_output_adapter@D@__crt_stdio_output@@@__crt_stdio_output@@IAE_NAA_J@Z 100447c0 f i libucrtd:output.obj
 0001:000437f0       ??$extract_argument_from_va_list@C_J@?$standard_base@_WV?$stream_output_adapter@_W@__crt_stdio_output@@@__crt_stdio_output@@IAE_NAA_J@Z 100447f0 f i libucrtd:output.obj
 0001:00043820       ??$extract_argument_from_va_list@C_J@?$standard_base@_WV?$string_output_adapter@_W@__crt_stdio_output@@@__crt_stdio_output@@IAE_NAA_J@Z 10044820 f i libucrtd:output.obj
 0001:00043850       ??$extract_argument_from_va_list@E_J@?$positional_parameter_base@DV?$stream_output_adapter@D@__crt_stdio_output@@@__crt_stdio_output@@IAE_NAA_J@Z 10044850 f i libucrtd:output.obj
 0001:000439b0       ??$extract_argument_from_va_list@E_J@?$positional_parameter_base@DV?$string_output_adapter@D@__crt_stdio_output@@@__crt_stdio_output@@IAE_NAA_J@Z 100449b0 f i libucrtd:output.obj
 0001:00043b10       ??$extract_argument_from_va_list@E_J@?$positional_parameter_base@_WV?$stream_output_adapter@_W@__crt_stdio_output@@@__crt_stdio_output@@IAE_NAA_J@Z 10044b10 f i libucrtd:output.obj
 0001:00043c80       ??$extract_argument_from_va_list@E_J@?$positional_parameter_base@_WV?$string_output_adapter@_W@__crt_stdio_output@@@__crt_stdio_output@@IAE_NAA_J@Z 10044c80 f i libucrtd:output.obj
 0001:00043df0       ??$extract_argument_from_va_list@E_J@?$standard_base@DV?$stream_output_adapter@D@__crt_stdio_output@@@__crt_stdio_output@@IAE_NAA_J@Z 10044df0 f i libucrtd:output.obj
 0001:00043e20       ??$extract_argument_from_va_list@E_J@?$standard_base@DV?$string_output_adapter@D@__crt_stdio_output@@@__crt_stdio_output@@IAE_NAA_J@Z 10044e20 f i libucrtd:output.obj
 0001:00043e50       ??$extract_argument_from_va_list@E_J@?$standard_base@_WV?$stream_output_adapter@_W@__crt_stdio_output@@@__crt_stdio_output@@IAE_NAA_J@Z 10044e50 f i libucrtd:output.obj
 0001:00043e80       ??$extract_argument_from_va_list@E_J@?$standard_base@_WV?$string_output_adapter@_W@__crt_stdio_output@@@__crt_stdio_output@@IAE_NAA_J@Z 10044e80 f i libucrtd:output.obj
 0001:00043eb0       ??$extract_argument_from_va_list@F_J@?$positional_parameter_base@DV?$stream_output_adapter@D@__crt_stdio_output@@@__crt_stdio_output@@IAE_NAA_J@Z 10044eb0 f i libucrtd:output.obj
 0001:00044010       ??$extract_argument_from_va_list@F_J@?$positional_parameter_base@DV?$string_output_adapter@D@__crt_stdio_output@@@__crt_stdio_output@@IAE_NAA_J@Z 10045010 f i libucrtd:output.obj
 0001:00044170       ??$extract_argument_from_va_list@F_J@?$positional_parameter_base@_WV?$stream_output_adapter@_W@__crt_stdio_output@@@__crt_stdio_output@@IAE_NAA_J@Z 10045170 f i libucrtd:output.obj
 0001:000442d0       ??$extract_argument_from_va_list@F_J@?$positional_parameter_base@_WV?$string_output_adapter@_W@__crt_stdio_output@@@__crt_stdio_output@@IAE_NAA_J@Z 100452d0 f i libucrtd:output.obj
 0001:00044430       ??$extract_argument_from_va_list@F_J@?$standard_base@DV?$stream_output_adapter@D@__crt_stdio_output@@@__crt_stdio_output@@IAE_NAA_J@Z 10045430 f i libucrtd:output.obj
 0001:00044460       ??$extract_argument_from_va_list@F_J@?$standard_base@DV?$string_output_adapter@D@__crt_stdio_output@@@__crt_stdio_output@@IAE_NAA_J@Z 10045460 f i libucrtd:output.obj
 0001:00044490       ??$extract_argument_from_va_list@F_J@?$standard_base@_WV?$stream_output_adapter@_W@__crt_stdio_output@@@__crt_stdio_output@@IAE_NAA_J@Z 10045490 f i libucrtd:output.obj
 0001:000444c0       ??$extract_argument_from_va_list@F_J@?$standard_base@_WV?$string_output_adapter@_W@__crt_stdio_output@@@__crt_stdio_output@@IAE_NAA_J@Z 100454c0 f i libucrtd:output.obj
 0001:000444f0       ??$extract_argument_from_va_list@GD@?$positional_parameter_base@DV?$stream_output_adapter@D@__crt_stdio_output@@@__crt_stdio_output@@IAE_NAAD@Z 100454f0 f i libucrtd:output.obj
 0001:00044650       ??$extract_argument_from_va_list@GD@?$positional_parameter_base@DV?$string_output_adapter@D@__crt_stdio_output@@@__crt_stdio_output@@IAE_NAAD@Z 10045650 f i libucrtd:output.obj
 0001:000447b0       ??$extract_argument_from_va_list@GD@?$standard_base@DV?$stream_output_adapter@D@__crt_stdio_output@@@__crt_stdio_output@@IAE_NAAD@Z 100457b0 f i libucrtd:output.obj
 0001:000447e0       ??$extract_argument_from_va_list@GD@?$standard_base@DV?$string_output_adapter@D@__crt_stdio_output@@@__crt_stdio_output@@IAE_NAAD@Z 100457e0 f i libucrtd:output.obj
 0001:00044810       ??$extract_argument_from_va_list@G_J@?$positional_parameter_base@DV?$stream_output_adapter@D@__crt_stdio_output@@@__crt_stdio_output@@IAE_NAA_J@Z 10045810 f i libucrtd:output.obj
 0001:00044970       ??$extract_argument_from_va_list@G_J@?$positional_parameter_base@DV?$string_output_adapter@D@__crt_stdio_output@@@__crt_stdio_output@@IAE_NAA_J@Z 10045970 f i libucrtd:output.obj
 0001:00044ad0       ??$extract_argument_from_va_list@G_J@?$positional_parameter_base@_WV?$stream_output_adapter@_W@__crt_stdio_output@@@__crt_stdio_output@@IAE_NAA_J@Z 10045ad0 f i libucrtd:output.obj
 0001:00044c40       ??$extract_argument_from_va_list@G_J@?$positional_parameter_base@_WV?$string_output_adapter@_W@__crt_stdio_output@@@__crt_stdio_output@@IAE_NAA_J@Z 10045c40 f i libucrtd:output.obj
 0001:00044db0       ??$extract_argument_from_va_list@G_J@?$standard_base@DV?$stream_output_adapter@D@__crt_stdio_output@@@__crt_stdio_output@@IAE_NAA_J@Z 10045db0 f i libucrtd:output.obj
 0001:00044de0       ??$extract_argument_from_va_list@G_J@?$standard_base@DV?$string_output_adapter@D@__crt_stdio_output@@@__crt_stdio_output@@IAE_NAA_J@Z 10045de0 f i libucrtd:output.obj
 0001:00044e10       ??$extract_argument_from_va_list@G_J@?$standard_base@_WV?$stream_output_adapter@_W@__crt_stdio_output@@@__crt_stdio_output@@IAE_NAA_J@Z 10045e10 f i libucrtd:output.obj
 0001:00044e40       ??$extract_argument_from_va_list@G_J@?$standard_base@_WV?$string_output_adapter@_W@__crt_stdio_output@@@__crt_stdio_output@@IAE_NAA_J@Z 10045e40 f i libucrtd:output.obj
 0001:00044e70       ??$extract_argument_from_va_list@H_J@?$positional_parameter_base@DV?$stream_output_adapter@D@__crt_stdio_output@@@__crt_stdio_output@@IAE_NAA_J@Z 10045e70 f i libucrtd:output.obj
 0001:00044fd0       ??$extract_argument_from_va_list@H_J@?$positional_parameter_base@DV?$string_output_adapter@D@__crt_stdio_output@@@__crt_stdio_output@@IAE_NAA_J@Z 10045fd0 f i libucrtd:output.obj
 0001:00045130       ??$extract_argument_from_va_list@H_J@?$positional_parameter_base@_WV?$stream_output_adapter@_W@__crt_stdio_output@@@__crt_stdio_output@@IAE_NAA_J@Z 10046130 f i libucrtd:output.obj
 0001:00045290       ??$extract_argument_from_va_list@H_J@?$positional_parameter_base@_WV?$string_output_adapter@_W@__crt_stdio_output@@@__crt_stdio_output@@IAE_NAA_J@Z 10046290 f i libucrtd:output.obj
 0001:000453f0       ??$extract_argument_from_va_list@H_J@?$standard_base@DV?$stream_output_adapter@D@__crt_stdio_output@@@__crt_stdio_output@@IAE_NAA_J@Z 100463f0 f i libucrtd:output.obj
 0001:00045420       ??$extract_argument_from_va_list@H_J@?$standard_base@DV?$string_output_adapter@D@__crt_stdio_output@@@__crt_stdio_output@@IAE_NAA_J@Z 10046420 f i libucrtd:output.obj
 0001:00045450       ??$extract_argument_from_va_list@H_J@?$standard_base@_WV?$stream_output_adapter@_W@__crt_stdio_output@@@__crt_stdio_output@@IAE_NAA_J@Z 10046450 f i libucrtd:output.obj
 0001:00045480       ??$extract_argument_from_va_list@H_J@?$standard_base@_WV?$string_output_adapter@_W@__crt_stdio_output@@@__crt_stdio_output@@IAE_NAA_J@Z 10046480 f i libucrtd:output.obj
 0001:000454b0       ??$extract_argument_from_va_list@I_J@?$positional_parameter_base@DV?$stream_output_adapter@D@__crt_stdio_output@@@__crt_stdio_output@@IAE_NAA_J@Z 100464b0 f i libucrtd:output.obj
 0001:00045610       ??$extract_argument_from_va_list@I_J@?$positional_parameter_base@DV?$string_output_adapter@D@__crt_stdio_output@@@__crt_stdio_output@@IAE_NAA_J@Z 10046610 f i libucrtd:output.obj
 0001:00045770       ??$extract_argument_from_va_list@I_J@?$positional_parameter_base@_WV?$stream_output_adapter@_W@__crt_stdio_output@@@__crt_stdio_output@@IAE_NAA_J@Z 10046770 f i libucrtd:output.obj
 0001:000458d0       ??$extract_argument_from_va_list@I_J@?$positional_parameter_base@_WV?$string_output_adapter@_W@__crt_stdio_output@@@__crt_stdio_output@@IAE_NAA_J@Z 100468d0 f i libucrtd:output.obj
 0001:00045a30       ??$extract_argument_from_va_list@I_J@?$standard_base@DV?$stream_output_adapter@D@__crt_stdio_output@@@__crt_stdio_output@@IAE_NAA_J@Z 10046a30 f i libucrtd:output.obj
 0001:00045a60       ??$extract_argument_from_va_list@I_J@?$standard_base@DV?$string_output_adapter@D@__crt_stdio_output@@@__crt_stdio_output@@IAE_NAA_J@Z 10046a60 f i libucrtd:output.obj
 0001:00045a90       ??$extract_argument_from_va_list@I_J@?$standard_base@_WV?$stream_output_adapter@_W@__crt_stdio_output@@@__crt_stdio_output@@IAE_NAA_J@Z 10046a90 f i libucrtd:output.obj
 0001:00045ac0       ??$extract_argument_from_va_list@I_J@?$standard_base@_WV?$string_output_adapter@_W@__crt_stdio_output@@@__crt_stdio_output@@IAE_NAA_J@Z 10046ac0 f i libucrtd:output.obj
 0001:00045af0       ??$extract_argument_from_va_list@PADPAD@?$positional_parameter_base@DV?$stream_output_adapter@D@__crt_stdio_output@@@__crt_stdio_output@@IAE_NAAPAD@Z 10046af0 f i libucrtd:output.obj
 0001:00045c50       ??$extract_argument_from_va_list@PADPAD@?$positional_parameter_base@DV?$string_output_adapter@D@__crt_stdio_output@@@__crt_stdio_output@@IAE_NAAPAD@Z 10046c50 f i libucrtd:output.obj
 0001:00045db0       ??$extract_argument_from_va_list@PADPAD@?$positional_parameter_base@_WV?$stream_output_adapter@_W@__crt_stdio_output@@@__crt_stdio_output@@IAE_NAAPAD@Z 10046db0 f i libucrtd:output.obj
 0001:00045f10       ??$extract_argument_from_va_list@PADPAD@?$positional_parameter_base@_WV?$string_output_adapter@_W@__crt_stdio_output@@@__crt_stdio_output@@IAE_NAAPAD@Z 10046f10 f i libucrtd:output.obj
 0001:00046070       ??$extract_argument_from_va_list@PADPAD@?$standard_base@DV?$stream_output_adapter@D@__crt_stdio_output@@@__crt_stdio_output@@IAE_NAAPAD@Z 10047070 f i libucrtd:output.obj
 0001:000460a0       ??$extract_argument_from_va_list@PADPAD@?$standard_base@DV?$string_output_adapter@D@__crt_stdio_output@@@__crt_stdio_output@@IAE_NAAPAD@Z 100470a0 f i libucrtd:output.obj
 0001:000460d0       ??$extract_argument_from_va_list@PADPAD@?$standard_base@_WV?$stream_output_adapter@_W@__crt_stdio_output@@@__crt_stdio_output@@IAE_NAAPAD@Z 100470d0 f i libucrtd:output.obj
 0001:00046100       ??$extract_argument_from_va_list@PADPAD@?$standard_base@_WV?$string_output_adapter@_W@__crt_stdio_output@@@__crt_stdio_output@@IAE_NAAPAD@Z 10047100 f i libucrtd:output.obj
 0001:00046130       ??$extract_argument_from_va_list@PAUansi_string@?1??type_case_Z@?$output_processor@DV?$stream_output_adapter@D@__crt_stdio_output@@V?$format_validation_base@DV?$stream_output_adapter@D@__crt_stdio_output@@@2@@__crt_stdio_output@@AAE_NXZ@PAU1?1??234@AAE_NXZ@@?$standard_base@DV?$stream_output_adapter@D@__crt_stdio_output@@@__crt_stdio_output@@IAE_NAAPAUansi_string@?1??type_case_Z@?$output_processor@DV?$stream_output_adapter@D@__crt_stdio_output@@V?$format_validation_base@DV?$stream_output_adapter@D@__crt_stdio_output@@@2@@1@AAE_NXZ@@Z 10047130 f i libucrtd:output.obj
 0001:00046160       ??$extract_argument_from_va_list@PAUansi_string@?1??type_case_Z@?$output_processor@DV?$stream_output_adapter@D@__crt_stdio_output@@V?$positional_parameter_base@DV?$stream_output_adapter@D@__crt_stdio_output@@@2@@__crt_stdio_output@@AAE_NXZ@PAU1?1??234@AAE_NXZ@@?$positional_parameter_base@DV?$stream_output_adapter@D@__crt_stdio_output@@@__crt_stdio_output@@IAE_NAAPAUansi_string@?1??type_case_Z@?$output_processor@DV?$stream_output_adapter@D@__crt_stdio_output@@V?$positional_parameter_base@DV?$stream_output_adapter@D@__crt_stdio_output@@@2@@1@AAE_NXZ@@Z 10047160 f i libucrtd:output.obj
 0001:000462c0       ??$extract_argument_from_va_list@PAUansi_string@?1??type_case_Z@?$output_processor@DV?$stream_output_adapter@D@__crt_stdio_output@@V?$positional_parameter_base@DV?$stream_output_adapter@D@__crt_stdio_output@@@2@@__crt_stdio_output@@AAE_NXZ@PAU1?1??234@AAE_NXZ@@?$standard_base@DV?$stream_output_adapter@D@__crt_stdio_output@@@__crt_stdio_output@@IAE_NAAPAUansi_string@?1??type_case_Z@?$output_processor@DV?$stream_output_adapter@D@__crt_stdio_output@@V?$positional_parameter_base@DV?$stream_output_adapter@D@__crt_stdio_output@@@2@@1@AAE_NXZ@@Z 100472c0 f i libucrtd:output.obj
 0001:000462f0       ??$extract_argument_from_va_list@PAUansi_string@?1??type_case_Z@?$output_processor@DV?$stream_output_adapter@D@__crt_stdio_output@@V?$standard_base@DV?$stream_output_adapter@D@__crt_stdio_output@@@2@@__crt_stdio_output@@AAE_NXZ@PAU1?1??234@AAE_NXZ@@?$standard_base@DV?$stream_output_adapter@D@__crt_stdio_output@@@__crt_stdio_output@@IAE_NAAPAUansi_string@?1??type_case_Z@?$output_processor@DV?$stream_output_adapter@D@__crt_stdio_output@@V?$standard_base@DV?$stream_output_adapter@D@__crt_stdio_output@@@2@@1@AAE_NXZ@@Z 100472f0 f i libucrtd:output.obj
 0001:00046320       ??$extract_argument_from_va_list@PAUansi_string@?1??type_case_Z@?$output_processor@DV?$string_output_adapter@D@__crt_stdio_output@@V?$format_validation_base@DV?$string_output_adapter@D@__crt_stdio_output@@@2@@__crt_stdio_output@@AAE_NXZ@PAU1?1??234@AAE_NXZ@@?$standard_base@DV?$string_output_adapter@D@__crt_stdio_output@@@__crt_stdio_output@@IAE_NAAPAUansi_string@?1??type_case_Z@?$output_processor@DV?$string_output_adapter@D@__crt_stdio_output@@V?$format_validation_base@DV?$string_output_adapter@D@__crt_stdio_output@@@2@@1@AAE_NXZ@@Z 10047320 f i libucrtd:output.obj
 0001:00046350       ??$extract_argument_from_va_list@PAUansi_string@?1??type_case_Z@?$output_processor@DV?$string_output_adapter@D@__crt_stdio_output@@V?$positional_parameter_base@DV?$string_output_adapter@D@__crt_stdio_output@@@2@@__crt_stdio_output@@AAE_NXZ@PAU1?1??234@AAE_NXZ@@?$positional_parameter_base@DV?$string_output_adapter@D@__crt_stdio_output@@@__crt_stdio_output@@IAE_NAAPAUansi_string@?1??type_case_Z@?$output_processor@DV?$string_output_adapter@D@__crt_stdio_output@@V?$positional_parameter_base@DV?$string_output_adapter@D@__crt_stdio_output@@@2@@1@AAE_NXZ@@Z 10047350 f i libucrtd:output.obj
 0001:000464b0       ??$extract_argument_from_va_list@PAUansi_string@?1??type_case_Z@?$output_processor@DV?$string_output_adapter@D@__crt_stdio_output@@V?$positional_parameter_base@DV?$string_output_adapter@D@__crt_stdio_output@@@2@@__crt_stdio_output@@AAE_NXZ@PAU1?1??234@AAE_NXZ@@?$standard_base@DV?$string_output_adapter@D@__crt_stdio_output@@@__crt_stdio_output@@IAE_NAAPAUansi_string@?1??type_case_Z@?$output_processor@DV?$string_output_adapter@D@__crt_stdio_output@@V?$positional_parameter_base@DV?$string_output_adapter@D@__crt_stdio_output@@@2@@1@AAE_NXZ@@Z 100474b0 f i libucrtd:output.obj
 0001:000464e0       ??$extract_argument_from_va_list@PAUansi_string@?1??type_case_Z@?$output_processor@DV?$string_output_adapter@D@__crt_stdio_output@@V?$standard_base@DV?$string_output_adapter@D@__crt_stdio_output@@@2@@__crt_stdio_output@@AAE_NXZ@PAU1?1??234@AAE_NXZ@@?$standard_base@DV?$string_output_adapter@D@__crt_stdio_output@@@__crt_stdio_output@@IAE_NAAPAUansi_string@?1??type_case_Z@?$output_processor@DV?$string_output_adapter@D@__crt_stdio_output@@V?$standard_base@DV?$string_output_adapter@D@__crt_stdio_output@@@2@@1@AAE_NXZ@@Z 100474e0 f i libucrtd:output.obj
 0001:00046510       ??$extract_argument_from_va_list@PAUansi_string@?1??type_case_Z@?$output_processor@_WV?$stream_output_adapter@_W@__crt_stdio_output@@V?$format_validation_base@_WV?$stream_output_adapter@_W@__crt_stdio_output@@@2@@__crt_stdio_output@@AAE_NXZ@PAU1?1??234@AAE_NXZ@@?$standard_base@_WV?$stream_output_adapter@_W@__crt_stdio_output@@@__crt_stdio_output@@IAE_NAAPAUansi_string@?1??type_case_Z@?$output_processor@_WV?$stream_output_adapter@_W@__crt_stdio_output@@V?$format_validation_base@_WV?$stream_output_adapter@_W@__crt_stdio_output@@@2@@1@AAE_NXZ@@Z 10047510 f i libucrtd:output.obj
 0001:00046540       ??$extract_argument_from_va_list@PAUansi_string@?1??type_case_Z@?$output_processor@_WV?$stream_output_adapter@_W@__crt_stdio_output@@V?$positional_parameter_base@_WV?$stream_output_adapter@_W@__crt_stdio_output@@@2@@__crt_stdio_output@@AAE_NXZ@PAU1?1??234@AAE_NXZ@@?$positional_parameter_base@_WV?$stream_output_adapter@_W@__crt_stdio_output@@@__crt_stdio_output@@IAE_NAAPAUansi_string@?1??type_case_Z@?$output_processor@_WV?$stream_output_adapter@_W@__crt_stdio_output@@V?$positional_parameter_base@_WV?$stream_output_adapter@_W@__crt_stdio_output@@@2@@1@AAE_NXZ@@Z 10047540 f i libucrtd:output.obj
 0001:000466a0       ??$extract_argument_from_va_list@PAUansi_string@?1??type_case_Z@?$output_processor@_WV?$stream_output_adapter@_W@__crt_stdio_output@@V?$positional_parameter_base@_WV?$stream_output_adapter@_W@__crt_stdio_output@@@2@@__crt_stdio_output@@AAE_NXZ@PAU1?1??234@AAE_NXZ@@?$standard_base@_WV?$stream_output_adapter@_W@__crt_stdio_output@@@__crt_stdio_output@@IAE_NAAPAUansi_string@?1??type_case_Z@?$output_processor@_WV?$stream_output_adapter@_W@__crt_stdio_output@@V?$positional_parameter_base@_WV?$stream_output_adapter@_W@__crt_stdio_output@@@2@@1@AAE_NXZ@@Z 100476a0 f i libucrtd:output.obj
 0001:000466d0       ??$extract_argument_from_va_list@PAUansi_string@?1??type_case_Z@?$output_processor@_WV?$stream_output_adapter@_W@__crt_stdio_output@@V?$standard_base@_WV?$stream_output_adapter@_W@__crt_stdio_output@@@2@@__crt_stdio_output@@AAE_NXZ@PAU1?1??234@AAE_NXZ@@?$standard_base@_WV?$stream_output_adapter@_W@__crt_stdio_output@@@__crt_stdio_output@@IAE_NAAPAUansi_string@?1??type_case_Z@?$output_processor@_WV?$stream_output_adapter@_W@__crt_stdio_output@@V?$standard_base@_WV?$stream_output_adapter@_W@__crt_stdio_output@@@2@@1@AAE_NXZ@@Z 100476d0 f i libucrtd:output.obj
 0001:00046700       ??$extract_argument_from_va_list@PAUansi_string@?1??type_case_Z@?$output_processor@_WV?$string_output_adapter@_W@__crt_stdio_output@@V?$format_validation_base@_WV?$string_output_adapter@_W@__crt_stdio_output@@@2@@__crt_stdio_output@@AAE_NXZ@PAU1?1??234@AAE_NXZ@@?$standard_base@_WV?$string_output_adapter@_W@__crt_stdio_output@@@__crt_stdio_output@@IAE_NAAPAUansi_string@?1??type_case_Z@?$output_processor@_WV?$string_output_adapter@_W@__crt_stdio_output@@V?$format_validation_base@_WV?$string_output_adapter@_W@__crt_stdio_output@@@2@@1@AAE_NXZ@@Z 10047700 f i libucrtd:output.obj
 0001:00046730       ??$extract_argument_from_va_list@PAUansi_string@?1??type_case_Z@?$output_processor@_WV?$string_output_adapter@_W@__crt_stdio_output@@V?$positional_parameter_base@_WV?$string_output_adapter@_W@__crt_stdio_output@@@2@@__crt_stdio_output@@AAE_NXZ@PAU1?1??234@AAE_NXZ@@?$positional_parameter_base@_WV?$string_output_adapter@_W@__crt_stdio_output@@@__crt_stdio_output@@IAE_NAAPAUansi_string@?1??type_case_Z@?$output_processor@_WV?$string_output_adapter@_W@__crt_stdio_output@@V?$positional_parameter_base@_WV?$string_output_adapter@_W@__crt_stdio_output@@@2@@1@AAE_NXZ@@Z 10047730 f i libucrtd:output.obj
 0001:00046890       ??$extract_argument_from_va_list@PAUansi_string@?1??type_case_Z@?$output_processor@_WV?$string_output_adapter@_W@__crt_stdio_output@@V?$positional_parameter_base@_WV?$string_output_adapter@_W@__crt_stdio_output@@@2@@__crt_stdio_output@@AAE_NXZ@PAU1?1??234@AAE_NXZ@@?$standard_base@_WV?$string_output_adapter@_W@__crt_stdio_output@@@__crt_stdio_output@@IAE_NAAPAUansi_string@?1??type_case_Z@?$output_processor@_WV?$string_output_adapter@_W@__crt_stdio_output@@V?$positional_parameter_base@_WV?$string_output_adapter@_W@__crt_stdio_output@@@2@@1@AAE_NXZ@@Z 10047890 f i libucrtd:output.obj
 0001:000468c0       ??$extract_argument_from_va_list@PAUansi_string@?1??type_case_Z@?$output_processor@_WV?$string_output_adapter@_W@__crt_stdio_output@@V?$standard_base@_WV?$string_output_adapter@_W@__crt_stdio_output@@@2@@__crt_stdio_output@@AAE_NXZ@PAU1?1??234@AAE_NXZ@@?$standard_base@_WV?$string_output_adapter@_W@__crt_stdio_output@@@__crt_stdio_output@@IAE_NAAPAUansi_string@?1??type_case_Z@?$output_processor@_WV?$string_output_adapter@_W@__crt_stdio_output@@V?$standard_base@_WV?$string_output_adapter@_W@__crt_stdio_output@@@2@@1@AAE_NXZ@@Z 100478c0 f i libucrtd:output.obj
 0001:000468f0       ??$extract_argument_from_va_list@PAXPAX@?$positional_parameter_base@DV?$stream_output_adapter@D@__crt_stdio_output@@@__crt_stdio_output@@IAE_NAAPAX@Z 100478f0 f i libucrtd:output.obj
 0001:00046a50       ??$extract_argument_from_va_list@PAXPAX@?$positional_parameter_base@DV?$string_output_adapter@D@__crt_stdio_output@@@__crt_stdio_output@@IAE_NAAPAX@Z 10047a50 f i libucrtd:output.obj
 0001:00046bb0       ??$extract_argument_from_va_list@PAXPAX@?$positional_parameter_base@_WV?$stream_output_adapter@_W@__crt_stdio_output@@@__crt_stdio_output@@IAE_NAAPAX@Z 10047bb0 f i libucrtd:output.obj
 0001:00046d10       ??$extract_argument_from_va_list@PAXPAX@?$positional_parameter_base@_WV?$string_output_adapter@_W@__crt_stdio_output@@@__crt_stdio_output@@IAE_NAAPAX@Z 10047d10 f i libucrtd:output.obj
 0001:00046e70       ??$extract_argument_from_va_list@PAXPAX@?$standard_base@DV?$stream_output_adapter@D@__crt_stdio_output@@@__crt_stdio_output@@IAE_NAAPAX@Z 10047e70 f i libucrtd:output.obj
 0001:00046ea0       ??$extract_argument_from_va_list@PAXPAX@?$standard_base@DV?$string_output_adapter@D@__crt_stdio_output@@@__crt_stdio_output@@IAE_NAAPAX@Z 10047ea0 f i libucrtd:output.obj
 0001:00046ed0       ??$extract_argument_from_va_list@PAXPAX@?$standard_base@_WV?$stream_output_adapter@_W@__crt_stdio_output@@@__crt_stdio_output@@IAE_NAAPAX@Z 10047ed0 f i libucrtd:output.obj
 0001:00046f00       ??$extract_argument_from_va_list@PAXPAX@?$standard_base@_WV?$string_output_adapter@_W@__crt_stdio_output@@@__crt_stdio_output@@IAE_NAAPAX@Z 10047f00 f i libucrtd:output.obj
 0001:00046f30       ??$extract_argument_from_va_list@U_CRT_DOUBLE@@U1@@?$positional_parameter_base@DV?$stream_output_adapter@D@__crt_stdio_output@@@__crt_stdio_output@@IAE_NAAU_CRT_DOUBLE@@@Z 10047f30 f i libucrtd:output.obj
 0001:000470c0       ??$extract_argument_from_va_list@U_CRT_DOUBLE@@U1@@?$positional_parameter_base@DV?$string_output_adapter@D@__crt_stdio_output@@@__crt_stdio_output@@IAE_NAAU_CRT_DOUBLE@@@Z 100480c0 f i libucrtd:output.obj
 0001:00047250       ??$extract_argument_from_va_list@U_CRT_DOUBLE@@U1@@?$positional_parameter_base@_WV?$stream_output_adapter@_W@__crt_stdio_output@@@__crt_stdio_output@@IAE_NAAU_CRT_DOUBLE@@@Z 10048250 f i libucrtd:output.obj
 0001:000473e0       ??$extract_argument_from_va_list@U_CRT_DOUBLE@@U1@@?$positional_parameter_base@_WV?$string_output_adapter@_W@__crt_stdio_output@@@__crt_stdio_output@@IAE_NAAU_CRT_DOUBLE@@@Z 100483e0 f i libucrtd:output.obj
 0001:00047570       ??$extract_argument_from_va_list@U_CRT_DOUBLE@@U1@@?$standard_base@DV?$stream_output_adapter@D@__crt_stdio_output@@@__crt_stdio_output@@IAE_NAAU_CRT_DOUBLE@@@Z 10048570 f i libucrtd:output.obj
 0001:000475c0       ??$extract_argument_from_va_list@U_CRT_DOUBLE@@U1@@?$standard_base@DV?$string_output_adapter@D@__crt_stdio_output@@@__crt_stdio_output@@IAE_NAAU_CRT_DOUBLE@@@Z 100485c0 f i libucrtd:output.obj
 0001:00047610       ??$extract_argument_from_va_list@U_CRT_DOUBLE@@U1@@?$standard_base@_WV?$stream_output_adapter@_W@__crt_stdio_output@@@__crt_stdio_output@@IAE_NAAU_CRT_DOUBLE@@@Z 10048610 f i libucrtd:output.obj
 0001:00047660       ??$extract_argument_from_va_list@U_CRT_DOUBLE@@U1@@?$standard_base@_WV?$string_output_adapter@_W@__crt_stdio_output@@@__crt_stdio_output@@IAE_NAAU_CRT_DOUBLE@@@Z 10048660 f i libucrtd:output.obj
 0001:000476b0       ??$extract_argument_from_va_list@_J_J@?$positional_parameter_base@DV?$stream_output_adapter@D@__crt_stdio_output@@@__crt_stdio_output@@IAE_NAA_J@Z 100486b0 f i libucrtd:output.obj
 0001:00047810       ??$extract_argument_from_va_list@_J_J@?$positional_parameter_base@DV?$string_output_adapter@D@__crt_stdio_output@@@__crt_stdio_output@@IAE_NAA_J@Z 10048810 f i libucrtd:output.obj
 0001:00047970       ??$extract_argument_from_va_list@_J_J@?$positional_parameter_base@_WV?$stream_output_adapter@_W@__crt_stdio_output@@@__crt_stdio_output@@IAE_NAA_J@Z 10048970 f i libucrtd:output.obj
 0001:00047ad0       ??$extract_argument_from_va_list@_J_J@?$positional_parameter_base@_WV?$string_output_adapter@_W@__crt_stdio_output@@@__crt_stdio_output@@IAE_NAA_J@Z 10048ad0 f i libucrtd:output.obj
 0001:00047c30       ??$extract_argument_from_va_list@_J_J@?$standard_base@DV?$stream_output_adapter@D@__crt_stdio_output@@@__crt_stdio_output@@IAE_NAA_J@Z 10048c30 f i libucrtd:output.obj
 0001:00047c60       ??$extract_argument_from_va_list@_J_J@?$standard_base@DV?$string_output_adapter@D@__crt_stdio_output@@@__crt_stdio_output@@IAE_NAA_J@Z 10048c60 f i libucrtd:output.obj
 0001:00047c90       ??$extract_argument_from_va_list@_J_J@?$standard_base@_WV?$stream_output_adapter@_W@__crt_stdio_output@@@__crt_stdio_output@@IAE_NAA_J@Z 10048c90 f i libucrtd:output.obj
 0001:00047cc0       ??$extract_argument_from_va_list@_J_J@?$standard_base@_WV?$string_output_adapter@_W@__crt_stdio_output@@@__crt_stdio_output@@IAE_NAA_J@Z 10048cc0 f i libucrtd:output.obj
 0001:00047cf0       ??$extract_argument_from_va_list@_K_J@?$positional_parameter_base@DV?$stream_output_adapter@D@__crt_stdio_output@@@__crt_stdio_output@@IAE_NAA_J@Z 10048cf0 f i libucrtd:output.obj
 0001:00047e50       ??$extract_argument_from_va_list@_K_J@?$positional_parameter_base@DV?$string_output_adapter@D@__crt_stdio_output@@@__crt_stdio_output@@IAE_NAA_J@Z 10048e50 f i libucrtd:output.obj
 0001:00047fb0       ??$extract_argument_from_va_list@_K_J@?$positional_parameter_base@_WV?$stream_output_adapter@_W@__crt_stdio_output@@@__crt_stdio_output@@IAE_NAA_J@Z 10048fb0 f i libucrtd:output.obj
 0001:00048110       ??$extract_argument_from_va_list@_K_J@?$positional_parameter_base@_WV?$string_output_adapter@_W@__crt_stdio_output@@@__crt_stdio_output@@IAE_NAA_J@Z 10049110 f i libucrtd:output.obj
 0001:00048270       ??$extract_argument_from_va_list@_K_J@?$standard_base@DV?$stream_output_adapter@D@__crt_stdio_output@@@__crt_stdio_output@@IAE_NAA_J@Z 10049270 f i libucrtd:output.obj
 0001:000482a0       ??$extract_argument_from_va_list@_K_J@?$standard_base@DV?$string_output_adapter@D@__crt_stdio_output@@@__crt_stdio_output@@IAE_NAA_J@Z 100492a0 f i libucrtd:output.obj
 0001:000482d0       ??$extract_argument_from_va_list@_K_J@?$standard_base@_WV?$stream_output_adapter@_W@__crt_stdio_output@@@__crt_stdio_output@@IAE_NAA_J@Z 100492d0 f i libucrtd:output.obj
 0001:00048300       ??$extract_argument_from_va_list@_K_J@?$standard_base@_WV?$string_output_adapter@_W@__crt_stdio_output@@@__crt_stdio_output@@IAE_NAA_J@Z 10049300 f i libucrtd:output.obj
 0001:00048330       ??$extract_argument_from_va_list@_W_W@?$positional_parameter_base@DV?$stream_output_adapter@D@__crt_stdio_output@@@__crt_stdio_output@@IAE_NAA_W@Z 10049330 f i libucrtd:output.obj
 0001:00048490       ??$extract_argument_from_va_list@_W_W@?$positional_parameter_base@DV?$string_output_adapter@D@__crt_stdio_output@@@__crt_stdio_output@@IAE_NAA_W@Z 10049490 f i libucrtd:output.obj
 0001:000485f0       ??$extract_argument_from_va_list@_W_W@?$positional_parameter_base@_WV?$stream_output_adapter@_W@__crt_stdio_output@@@__crt_stdio_output@@IAE_NAA_W@Z 100495f0 f i libucrtd:output.obj
 0001:00048750       ??$extract_argument_from_va_list@_W_W@?$positional_parameter_base@_WV?$string_output_adapter@_W@__crt_stdio_output@@@__crt_stdio_output@@IAE_NAA_W@Z 10049750 f i libucrtd:output.obj
 0001:000488b0       ??$extract_argument_from_va_list@_W_W@?$standard_base@DV?$stream_output_adapter@D@__crt_stdio_output@@@__crt_stdio_output@@IAE_NAA_W@Z 100498b0 f i libucrtd:output.obj
 0001:000488e0       ??$extract_argument_from_va_list@_W_W@?$standard_base@DV?$string_output_adapter@D@__crt_stdio_output@@@__crt_stdio_output@@IAE_NAA_W@Z 100498e0 f i libucrtd:output.obj
 0001:00048910       ??$extract_argument_from_va_list@_W_W@?$standard_base@_WV?$stream_output_adapter@_W@__crt_stdio_output@@@__crt_stdio_output@@IAE_NAA_W@Z 10049910 f i libucrtd:output.obj
 0001:00048940       ??$extract_argument_from_va_list@_W_W@?$standard_base@_WV?$string_output_adapter@_W@__crt_stdio_output@@@__crt_stdio_output@@IAE_NAA_W@Z 10049940 f i libucrtd:output.obj
 0001:00048970       ??$get_parameter_type@D@?$positional_parameter_base@DV?$stream_output_adapter@D@__crt_stdio_output@@@__crt_stdio_output@@CA?AW4parameter_type@01@PAD@Z 10049970 f i libucrtd:output.obj
 0001:00048980       ??$get_parameter_type@D@?$positional_parameter_base@DV?$string_output_adapter@D@__crt_stdio_output@@@__crt_stdio_output@@CA?AW4parameter_type@01@PAD@Z 10049980 f i libucrtd:output.obj
 0001:00048990       ??$get_parameter_type@D@?$positional_parameter_base@_WV?$stream_output_adapter@_W@__crt_stdio_output@@@__crt_stdio_output@@CA?AW4parameter_type@01@PAD@Z 10049990 f i libucrtd:output.obj
 0001:000489a0       ??$get_parameter_type@D@?$positional_parameter_base@_WV?$string_output_adapter@_W@__crt_stdio_output@@@__crt_stdio_output@@CA?AW4parameter_type@01@PAD@Z 100499a0 f i libucrtd:output.obj
 0001:000489b0       ??$get_parameter_type@Uansi_string@?1??type_case_Z@?$output_processor@DV?$stream_output_adapter@D@__crt_stdio_output@@V?$positional_parameter_base@DV?$stream_output_adapter@D@__crt_stdio_output@@@2@@__crt_stdio_output@@AAE_NXZ@@?$positional_parameter_base@DV?$stream_output_adapter@D@__crt_stdio_output@@@__crt_stdio_output@@CA?AW4parameter_type@01@PAUansi_string@?1??type_case_Z@?$output_processor@DV?$stream_output_adapter@D@__crt_stdio_output@@V?$positional_parameter_base@DV?$stream_output_adapter@D@__crt_stdio_output@@@2@@1@AAE_NXZ@@Z 100499b0 f i libucrtd:output.obj
 0001:000489c0       ??$get_parameter_type@Uansi_string@?1??type_case_Z@?$output_processor@DV?$string_output_adapter@D@__crt_stdio_output@@V?$positional_parameter_base@DV?$string_output_adapter@D@__crt_stdio_output@@@2@@__crt_stdio_output@@AAE_NXZ@@?$positional_parameter_base@DV?$string_output_adapter@D@__crt_stdio_output@@@__crt_stdio_output@@CA?AW4parameter_type@01@PAUansi_string@?1??type_case_Z@?$output_processor@DV?$string_output_adapter@D@__crt_stdio_output@@V?$positional_parameter_base@DV?$string_output_adapter@D@__crt_stdio_output@@@2@@1@AAE_NXZ@@Z 100499c0 f i libucrtd:output.obj
 0001:000489d0       ??$get_parameter_type@Uansi_string@?1??type_case_Z@?$output_processor@_WV?$stream_output_adapter@_W@__crt_stdio_output@@V?$positional_parameter_base@_WV?$stream_output_adapter@_W@__crt_stdio_output@@@2@@__crt_stdio_output@@AAE_NXZ@@?$positional_parameter_base@_WV?$stream_output_adapter@_W@__crt_stdio_output@@@__crt_stdio_output@@CA?AW4parameter_type@01@PAUansi_string@?1??type_case_Z@?$output_processor@_WV?$stream_output_adapter@_W@__crt_stdio_output@@V?$positional_parameter_base@_WV?$stream_output_adapter@_W@__crt_stdio_output@@@2@@1@AAE_NXZ@@Z 100499d0 f i libucrtd:output.obj
 0001:000489e0       ??$get_parameter_type@Uansi_string@?1??type_case_Z@?$output_processor@_WV?$string_output_adapter@_W@__crt_stdio_output@@V?$positional_parameter_base@_WV?$string_output_adapter@_W@__crt_stdio_output@@@2@@__crt_stdio_output@@AAE_NXZ@@?$positional_parameter_base@_WV?$string_output_adapter@_W@__crt_stdio_output@@@__crt_stdio_output@@CA?AW4parameter_type@01@PAUansi_string@?1??type_case_Z@?$output_processor@_WV?$string_output_adapter@_W@__crt_stdio_output@@V?$positional_parameter_base@_WV?$string_output_adapter@_W@__crt_stdio_output@@@2@@1@AAE_NXZ@@Z 100499e0 f i libucrtd:output.obj
 0001:000489f0       ??$get_parameter_type@X@?$positional_parameter_base@DV?$stream_output_adapter@D@__crt_stdio_output@@@__crt_stdio_output@@CA?AW4parameter_type@01@PAX@Z 100499f0 f i libucrtd:output.obj
 0001:00048a00       ??$get_parameter_type@X@?$positional_parameter_base@DV?$string_output_adapter@D@__crt_stdio_output@@@__crt_stdio_output@@CA?AW4parameter_type@01@PAX@Z 10049a00 f i libucrtd:output.obj
 0001:00048a10       ??$get_parameter_type@X@?$positional_parameter_base@_WV?$stream_output_adapter@_W@__crt_stdio_output@@@__crt_stdio_output@@CA?AW4parameter_type@01@PAX@Z 10049a10 f i libucrtd:output.obj
 0001:00048a20       ??$get_parameter_type@X@?$positional_parameter_base@_WV?$string_output_adapter@_W@__crt_stdio_output@@@__crt_stdio_output@@CA?AW4parameter_type@01@PAX@Z 10049a20 f i libucrtd:output.obj
 0001:00048a30       ??$is_character_specifier@D@?$positional_parameter_base@DV?$stream_output_adapter@D@__crt_stdio_output@@@__crt_stdio_output@@CA_ND@Z 10049a30 f i libucrtd:output.obj
 0001:00048a60       ??$is_character_specifier@D@?$positional_parameter_base@DV?$string_output_adapter@D@__crt_stdio_output@@@__crt_stdio_output@@CA_ND@Z 10049a60 f i libucrtd:output.obj
 0001:00048a90       ??$is_character_specifier@_W@?$positional_parameter_base@_WV?$stream_output_adapter@_W@__crt_stdio_output@@@__crt_stdio_output@@CA_N_W@Z 10049a90 f i libucrtd:output.obj
 0001:00048ac0       ??$is_character_specifier@_W@?$positional_parameter_base@_WV?$string_output_adapter@_W@__crt_stdio_output@@@__crt_stdio_output@@CA_N_W@Z 10049ac0 f i libucrtd:output.obj
 0001:00048af0       ??$is_integral_specifier@D@?$positional_parameter_base@DV?$stream_output_adapter@D@__crt_stdio_output@@@__crt_stdio_output@@CA_ND@Z 10049af0 f i libucrtd:output.obj
 0001:00048b50       ??$is_integral_specifier@D@?$positional_parameter_base@DV?$string_output_adapter@D@__crt_stdio_output@@@__crt_stdio_output@@CA_ND@Z 10049b50 f i libucrtd:output.obj
 0001:00048bb0       ??$is_integral_specifier@_W@?$positional_parameter_base@_WV?$stream_output_adapter@_W@__crt_stdio_output@@@__crt_stdio_output@@CA_N_W@Z 10049bb0 f i libucrtd:output.obj
 0001:00048c10       ??$is_integral_specifier@_W@?$positional_parameter_base@_WV?$string_output_adapter@_W@__crt_stdio_output@@@__crt_stdio_output@@CA_N_W@Z 10049c10 f i libucrtd:output.obj
 0001:00048c70       ??$is_overflow_condition@K@__crt_strtox@@YA_NIK@Z 10049c70 f i libucrtd:output.obj
 0001:00048cd0       ??$is_pointer_specifier@D@?$positional_parameter_base@DV?$stream_output_adapter@D@__crt_stdio_output@@@__crt_stdio_output@@CA_ND@Z 10049cd0 f i libucrtd:output.obj
 0001:00048d00       ??$is_pointer_specifier@D@?$positional_parameter_base@DV?$string_output_adapter@D@__crt_stdio_output@@@__crt_stdio_output@@CA_ND@Z 10049d00 f i libucrtd:output.obj
 0001:00048d30       ??$is_pointer_specifier@_W@?$positional_parameter_base@_WV?$stream_output_adapter@_W@__crt_stdio_output@@@__crt_stdio_output@@CA_N_W@Z 10049d30 f i libucrtd:output.obj
 0001:00048d60       ??$is_pointer_specifier@_W@?$positional_parameter_base@_WV?$string_output_adapter@_W@__crt_stdio_output@@@__crt_stdio_output@@CA_N_W@Z 10049d60 f i libucrtd:output.obj
 0001:00048d90       ??$is_string_specifier@D@?$positional_parameter_base@DV?$stream_output_adapter@D@__crt_stdio_output@@@__crt_stdio_output@@CA_ND@Z 10049d90 f i libucrtd:output.obj
 0001:00048dc0       ??$is_string_specifier@D@?$positional_parameter_base@DV?$string_output_adapter@D@__crt_stdio_output@@@__crt_stdio_output@@CA_ND@Z 10049dc0 f i libucrtd:output.obj
 0001:00048df0       ??$is_string_specifier@_W@?$positional_parameter_base@_WV?$stream_output_adapter@_W@__crt_stdio_output@@@__crt_stdio_output@@CA_N_W@Z 10049df0 f i libucrtd:output.obj
 0001:00048e20       ??$is_string_specifier@_W@?$positional_parameter_base@_WV?$string_output_adapter@_W@__crt_stdio_output@@@__crt_stdio_output@@CA_N_W@Z 10049e20 f i libucrtd:output.obj
 0001:00048e50       ??$is_wide_character_specifier@D@__crt_stdio_output@@YA_N_KDW4length_modifier@0@@Z 10049e50 f i libucrtd:output.obj
 0001:00048ed0       ??$is_wide_character_specifier@_W@__crt_stdio_output@@YA_N_K_WW4length_modifier@0@@Z 10049ed0 f i libucrtd:output.obj
 0001:00048f90       ??$make_c_string_character_source@DPAPAD@__crt_strtox@@YA?AV?$c_string_character_source@D@0@QBDQAPAD@Z 10049f90 f i libucrtd:output.obj
 0001:00048fb0       ??$make_c_string_character_source@_WPAPA_W@__crt_strtox@@YA?AV?$c_string_character_source@_W@0@QB_WQAPA_W@Z 10049fb0 f i libucrtd:output.obj
 0001:00048fd0       ??$parse_integer@KV?$c_string_character_source@D@__crt_strtox@@$0A@@__crt_strtox@@YAKAAV__crt_cached_ptd_host@@V?$c_string_character_source@D@0@H_N@Z 10049fd0 f i libucrtd:output.obj
 0001:00049300       ??$parse_integer@KV?$c_string_character_source@_W@__crt_strtox@@$0A@@__crt_strtox@@YAKAAV__crt_cached_ptd_host@@V?$c_string_character_source@_W@0@H_N@Z 1004a300 f i libucrtd:output.obj
 0001:00049640       ??$peek_va_arg@C@__crt_stdio_output@@YACPAD@Z 1004a640 f i libucrtd:output.obj
 0001:00049660       ??$peek_va_arg@E@__crt_stdio_output@@YAEPAD@Z 1004a660 f i libucrtd:output.obj
 0001:00049680       ??$peek_va_arg@F@__crt_stdio_output@@YAFPAD@Z 1004a680 f i libucrtd:output.obj
 0001:000496a0       ??$peek_va_arg@G@__crt_stdio_output@@YAGPAD@Z 1004a6a0 f i libucrtd:output.obj
 0001:000496c0       ??$peek_va_arg@H@__crt_stdio_output@@YAHPAD@Z 1004a6c0 f i libucrtd:output.obj
 0001:000496e0       ??$peek_va_arg@I@__crt_stdio_output@@YAIPAD@Z 1004a6e0 f i libucrtd:output.obj
 0001:00049700       ??$peek_va_arg@PAD@__crt_stdio_output@@YAPADPAD@Z 1004a700 f i libucrtd:output.obj
 0001:00049720       ??$peek_va_arg@PAUansi_string@?1??type_case_Z@?$output_processor@DV?$stream_output_adapter@D@__crt_stdio_output@@V?$positional_parameter_base@DV?$stream_output_adapter@D@__crt_stdio_output@@@2@@__crt_stdio_output@@AAE_NXZ@@__crt_stdio_output@@YAPAUansi_string@?1??type_case_Z@?$output_processor@DV?$stream_output_adapter@D@__crt_stdio_output@@V?$positional_parameter_base@DV?$stream_output_adapter@D@__crt_stdio_output@@@2@@0@AAE_NXZ@PAD@Z 1004a720 f i libucrtd:output.obj
 0001:00049740       ??$peek_va_arg@PAUansi_string@?1??type_case_Z@?$output_processor@DV?$string_output_adapter@D@__crt_stdio_output@@V?$positional_parameter_base@DV?$string_output_adapter@D@__crt_stdio_output@@@2@@__crt_stdio_output@@AAE_NXZ@@__crt_stdio_output@@YAPAUansi_string@?1??type_case_Z@?$output_processor@DV?$string_output_adapter@D@__crt_stdio_output@@V?$positional_parameter_base@DV?$string_output_adapter@D@__crt_stdio_output@@@2@@0@AAE_NXZ@PAD@Z 1004a740 f i libucrtd:output.obj
 0001:00049760       ??$peek_va_arg@PAUansi_string@?1??type_case_Z@?$output_processor@_WV?$stream_output_adapter@_W@__crt_stdio_output@@V?$positional_parameter_base@_WV?$stream_output_adapter@_W@__crt_stdio_output@@@2@@__crt_stdio_output@@AAE_NXZ@@__crt_stdio_output@@YAPAUansi_string@?1??type_case_Z@?$output_processor@_WV?$stream_output_adapter@_W@__crt_stdio_output@@V?$positional_parameter_base@_WV?$stream_output_adapter@_W@__crt_stdio_output@@@2@@0@AAE_NXZ@PAD@Z 1004a760 f i libucrtd:output.obj
 0001:00049780       ??$peek_va_arg@PAUansi_string@?1??type_case_Z@?$output_processor@_WV?$string_output_adapter@_W@__crt_stdio_output@@V?$positional_parameter_base@_WV?$string_output_adapter@_W@__crt_stdio_output@@@2@@__crt_stdio_output@@AAE_NXZ@@__crt_stdio_output@@YAPAUansi_string@?1??type_case_Z@?$output_processor@_WV?$string_output_adapter@_W@__crt_stdio_output@@V?$positional_parameter_base@_WV?$string_output_adapter@_W@__crt_stdio_output@@@2@@0@AAE_NXZ@PAD@Z 1004a780 f i libucrtd:output.obj
 0001:000497a0       ??$peek_va_arg@PAX@__crt_stdio_output@@YAPAXPAD@Z 1004a7a0 f i libucrtd:output.obj
 0001:000497c0       ??$peek_va_arg@U_CRT_DOUBLE@@@__crt_stdio_output@@YA?AU_CRT_DOUBLE@@PAD@Z 1004a7c0 f i libucrtd:output.obj
 0001:000497e0       ??$peek_va_arg@_J@__crt_stdio_output@@YA_JPAD@Z 1004a7e0 f i libucrtd:output.obj
 0001:00049800       ??$peek_va_arg@_K@__crt_stdio_output@@YA_KPAD@Z 1004a800 f i libucrtd:output.obj
 0001:00049820       ??$peek_va_arg@_W@__crt_stdio_output@@YA_WPAD@Z 1004a820 f i libucrtd:output.obj
 0001:00049840       ??$puttc_nolock_internal@ABDPAU_iobuf@@AAV__crt_cached_ptd_host@@@?$__crt_char_traits@D@@SAHABD$$QAPAU_iobuf@@AAV__crt_cached_ptd_host@@@Z 1004a840 f i libucrtd:output.obj
 0001:00049860       ??$puttc_nolock_internal@AB_WPAU_iobuf@@AAV__crt_cached_ptd_host@@@?$__crt_char_traits@_W@@SAGAB_W$$QAPAU_iobuf@@AAV__crt_cached_ptd_host@@@Z 1004a860 f i libucrtd:output.obj
 0001:00049880       ??$read_va_arg@C@__crt_stdio_output@@YACAAPAD@Z 1004a880 f i libucrtd:output.obj
 0001:000498a0       ??$read_va_arg@E@__crt_stdio_output@@YAEAAPAD@Z 1004a8a0 f i libucrtd:output.obj
 0001:000498c0       ??$read_va_arg@F@__crt_stdio_output@@YAFAAPAD@Z 1004a8c0 f i libucrtd:output.obj
 0001:000498e0       ??$read_va_arg@G@__crt_stdio_output@@YAGAAPAD@Z 1004a8e0 f i libucrtd:output.obj
 0001:00049900       ??$read_va_arg@H@__crt_stdio_output@@YAHAAPAD@Z 1004a900 f i libucrtd:output.obj
 0001:00049920       ??$read_va_arg@I@__crt_stdio_output@@YAIAAPAD@Z 1004a920 f i libucrtd:output.obj
 0001:00049940       ??$read_va_arg@PAD@__crt_stdio_output@@YAPADAAPAD@Z 1004a940 f i libucrtd:output.obj
 0001:00049960       ??$read_va_arg@PAUansi_string@?1??type_case_Z@?$output_processor@DV?$stream_output_adapter@D@__crt_stdio_output@@V?$format_validation_base@DV?$stream_output_adapter@D@__crt_stdio_output@@@2@@__crt_stdio_output@@AAE_NXZ@@__crt_stdio_output@@YAPAUansi_string@?1??type_case_Z@?$output_processor@DV?$stream_output_adapter@D@__crt_stdio_output@@V?$format_validation_base@DV?$stream_output_adapter@D@__crt_stdio_output@@@2@@0@AAE_NXZ@AAPAD@Z 1004a960 f i libucrtd:output.obj
 0001:00049980       ??$read_va_arg@PAUansi_string@?1??type_case_Z@?$output_processor@DV?$stream_output_adapter@D@__crt_stdio_output@@V?$positional_parameter_base@DV?$stream_output_adapter@D@__crt_stdio_output@@@2@@__crt_stdio_output@@AAE_NXZ@@__crt_stdio_output@@YAPAUansi_string@?1??type_case_Z@?$output_processor@DV?$stream_output_adapter@D@__crt_stdio_output@@V?$positional_parameter_base@DV?$stream_output_adapter@D@__crt_stdio_output@@@2@@0@AAE_NXZ@AAPAD@Z 1004a980 f i libucrtd:output.obj
 0001:000499a0       ??$read_va_arg@PAUansi_string@?1??type_case_Z@?$output_processor@DV?$stream_output_adapter@D@__crt_stdio_output@@V?$standard_base@DV?$stream_output_adapter@D@__crt_stdio_output@@@2@@__crt_stdio_output@@AAE_NXZ@@__crt_stdio_output@@YAPAUansi_string@?1??type_case_Z@?$output_processor@DV?$stream_output_adapter@D@__crt_stdio_output@@V?$standard_base@DV?$stream_output_adapter@D@__crt_stdio_output@@@2@@0@AAE_NXZ@AAPAD@Z 1004a9a0 f i libucrtd:output.obj
 0001:000499c0       ??$read_va_arg@PAUansi_string@?1??type_case_Z@?$output_processor@DV?$string_output_adapter@D@__crt_stdio_output@@V?$format_validation_base@DV?$string_output_adapter@D@__crt_stdio_output@@@2@@__crt_stdio_output@@AAE_NXZ@@__crt_stdio_output@@YAPAUansi_string@?1??type_case_Z@?$output_processor@DV?$string_output_adapter@D@__crt_stdio_output@@V?$format_validation_base@DV?$string_output_adapter@D@__crt_stdio_output@@@2@@0@AAE_NXZ@AAPAD@Z 1004a9c0 f i libucrtd:output.obj
 0001:000499e0       ??$read_va_arg@PAUansi_string@?1??type_case_Z@?$output_processor@DV?$string_output_adapter@D@__crt_stdio_output@@V?$positional_parameter_base@DV?$string_output_adapter@D@__crt_stdio_output@@@2@@__crt_stdio_output@@AAE_NXZ@@__crt_stdio_output@@YAPAUansi_string@?1??type_case_Z@?$output_processor@DV?$string_output_adapter@D@__crt_stdio_output@@V?$positional_parameter_base@DV?$string_output_adapter@D@__crt_stdio_output@@@2@@0@AAE_NXZ@AAPAD@Z 1004a9e0 f i libucrtd:output.obj
 0001:00049a00       ??$read_va_arg@PAUansi_string@?1??type_case_Z@?$output_processor@DV?$string_output_adapter@D@__crt_stdio_output@@V?$standard_base@DV?$string_output_adapter@D@__crt_stdio_output@@@2@@__crt_stdio_output@@AAE_NXZ@@__crt_stdio_output@@YAPAUansi_string@?1??type_case_Z@?$output_processor@DV?$string_output_adapter@D@__crt_stdio_output@@V?$standard_base@DV?$string_output_adapter@D@__crt_stdio_output@@@2@@0@AAE_NXZ@AAPAD@Z 1004aa00 f i libucrtd:output.obj
 0001:00049a20       ??$read_va_arg@PAUansi_string@?1??type_case_Z@?$output_processor@_WV?$stream_output_adapter@_W@__crt_stdio_output@@V?$format_validation_base@_WV?$stream_output_adapter@_W@__crt_stdio_output@@@2@@__crt_stdio_output@@AAE_NXZ@@__crt_stdio_output@@YAPAUansi_string@?1??type_case_Z@?$output_processor@_WV?$stream_output_adapter@_W@__crt_stdio_output@@V?$format_validation_base@_WV?$stream_output_adapter@_W@__crt_stdio_output@@@2@@0@AAE_NXZ@AAPAD@Z 1004aa20 f i libucrtd:output.obj
 0001:00049a40       ??$read_va_arg@PAUansi_string@?1??type_case_Z@?$output_processor@_WV?$stream_output_adapter@_W@__crt_stdio_output@@V?$positional_parameter_base@_WV?$stream_output_adapter@_W@__crt_stdio_output@@@2@@__crt_stdio_output@@AAE_NXZ@@__crt_stdio_output@@YAPAUansi_string@?1??type_case_Z@?$output_processor@_WV?$stream_output_adapter@_W@__crt_stdio_output@@V?$positional_parameter_base@_WV?$stream_output_adapter@_W@__crt_stdio_output@@@2@@0@AAE_NXZ@AAPAD@Z 1004aa40 f i libucrtd:output.obj
 0001:00049a60       ??$read_va_arg@PAUansi_string@?1??type_case_Z@?$output_processor@_WV?$stream_output_adapter@_W@__crt_stdio_output@@V?$standard_base@_WV?$stream_output_adapter@_W@__crt_stdio_output@@@2@@__crt_stdio_output@@AAE_NXZ@@__crt_stdio_output@@YAPAUansi_string@?1??type_case_Z@?$output_processor@_WV?$stream_output_adapter@_W@__crt_stdio_output@@V?$standard_base@_WV?$stream_output_adapter@_W@__crt_stdio_output@@@2@@0@AAE_NXZ@AAPAD@Z 1004aa60 f i libucrtd:output.obj
 0001:00049a80       ??$read_va_arg@PAUansi_string@?1??type_case_Z@?$output_processor@_WV?$string_output_adapter@_W@__crt_stdio_output@@V?$format_validation_base@_WV?$string_output_adapter@_W@__crt_stdio_output@@@2@@__crt_stdio_output@@AAE_NXZ@@__crt_stdio_output@@YAPAUansi_string@?1??type_case_Z@?$output_processor@_WV?$string_output_adapter@_W@__crt_stdio_output@@V?$format_validation_base@_WV?$string_output_adapter@_W@__crt_stdio_output@@@2@@0@AAE_NXZ@AAPAD@Z 1004aa80 f i libucrtd:output.obj
 0001:00049aa0       ??$read_va_arg@PAUansi_string@?1??type_case_Z@?$output_processor@_WV?$string_output_adapter@_W@__crt_stdio_output@@V?$positional_parameter_base@_WV?$string_output_adapter@_W@__crt_stdio_output@@@2@@__crt_stdio_output@@AAE_NXZ@@__crt_stdio_output@@YAPAUansi_string@?1??type_case_Z@?$output_processor@_WV?$string_output_adapter@_W@__crt_stdio_output@@V?$positional_parameter_base@_WV?$string_output_adapter@_W@__crt_stdio_output@@@2@@0@AAE_NXZ@AAPAD@Z 1004aaa0 f i libucrtd:output.obj
 0001:00049ac0       ??$read_va_arg@PAUansi_string@?1??type_case_Z@?$output_processor@_WV?$string_output_adapter@_W@__crt_stdio_output@@V?$standard_base@_WV?$string_output_adapter@_W@__crt_stdio_output@@@2@@__crt_stdio_output@@AAE_NXZ@@__crt_stdio_output@@YAPAUansi_string@?1??type_case_Z@?$output_processor@_WV?$string_output_adapter@_W@__crt_stdio_output@@V?$standard_base@_WV?$string_output_adapter@_W@__crt_stdio_output@@@2@@0@AAE_NXZ@AAPAD@Z 1004aac0 f i libucrtd:output.obj
 0001:00049ae0       ??$read_va_arg@PAX@__crt_stdio_output@@YAPAXAAPAD@Z 1004aae0 f i libucrtd:output.obj
 0001:00049b00       ??$read_va_arg@U_CRT_DOUBLE@@@__crt_stdio_output@@YA?AU_CRT_DOUBLE@@AAPAD@Z 1004ab00 f i libucrtd:output.obj
 0001:00049b20       ??$read_va_arg@_J@__crt_stdio_output@@YA_JAAPAD@Z 1004ab20 f i libucrtd:output.obj
 0001:00049b40       ??$read_va_arg@_K@__crt_stdio_output@@YA_KAAPAD@Z 1004ab40 f i libucrtd:output.obj
 0001:00049b60       ??$read_va_arg@_W@__crt_stdio_output@@YA_WAAPAD@Z 1004ab60 f i libucrtd:output.obj
 0001:00049b80       ??$scratch_count@D@formatting_buffer@__crt_stdio_output@@QBEIXZ 1004ab80 f i libucrtd:output.obj
 0001:00049ba0       ??$scratch_data@D@formatting_buffer@__crt_stdio_output@@QAEPADXZ 1004aba0 f i libucrtd:output.obj
 0001:00049bf0       ??$type_case_integer@$07@?$output_processor@DV?$stream_output_adapter@D@__crt_stdio_output@@V?$format_validation_base@DV?$stream_output_adapter@D@__crt_stdio_output@@@2@@__crt_stdio_output@@AAE_N_N@Z 1004abf0 f i libucrtd:output.obj
 0001:00049f50       ??$type_case_integer@$07@?$output_processor@DV?$stream_output_adapter@D@__crt_stdio_output@@V?$positional_parameter_base@DV?$stream_output_adapter@D@__crt_stdio_output@@@2@@__crt_stdio_output@@AAE_N_N@Z 1004af50 f i libucrtd:output.obj
 0001:0004a2b0       ??$type_case_integer@$07@?$output_processor@DV?$stream_output_adapter@D@__crt_stdio_output@@V?$standard_base@DV?$stream_output_adapter@D@__crt_stdio_output@@@2@@__crt_stdio_output@@AAE_N_N@Z 1004b2b0 f i libucrtd:output.obj
 0001:0004a610       ??$type_case_integer@$07@?$output_processor@DV?$string_output_adapter@D@__crt_stdio_output@@V?$format_validation_base@DV?$string_output_adapter@D@__crt_stdio_output@@@2@@__crt_stdio_output@@AAE_N_N@Z 1004b610 f i libucrtd:output.obj
 0001:0004a970       ??$type_case_integer@$07@?$output_processor@DV?$string_output_adapter@D@__crt_stdio_output@@V?$positional_parameter_base@DV?$string_output_adapter@D@__crt_stdio_output@@@2@@__crt_stdio_output@@AAE_N_N@Z 1004b970 f i libucrtd:output.obj
 0001:0004acd0       ??$type_case_integer@$07@?$output_processor@DV?$string_output_adapter@D@__crt_stdio_output@@V?$standard_base@DV?$string_output_adapter@D@__crt_stdio_output@@@2@@__crt_stdio_output@@AAE_N_N@Z 1004bcd0 f i libucrtd:output.obj
 0001:0004b030       ??$type_case_integer@$07@?$output_processor@_WV?$stream_output_adapter@_W@__crt_stdio_output@@V?$format_validation_base@_WV?$stream_output_adapter@_W@__crt_stdio_output@@@2@@__crt_stdio_output@@AAE_N_N@Z 1004c030 f i libucrtd:output.obj
 0001:0004b390       ??$type_case_integer@$07@?$output_processor@_WV?$stream_output_adapter@_W@__crt_stdio_output@@V?$positional_parameter_base@_WV?$stream_output_adapter@_W@__crt_stdio_output@@@2@@__crt_stdio_output@@AAE_N_N@Z 1004c390 f i libucrtd:output.obj
 0001:0004b6f0       ??$type_case_integer@$07@?$output_processor@_WV?$stream_output_adapter@_W@__crt_stdio_output@@V?$standard_base@_WV?$stream_output_adapter@_W@__crt_stdio_output@@@2@@__crt_stdio_output@@AAE_N_N@Z 1004c6f0 f i libucrtd:output.obj
 0001:0004ba50       ??$type_case_integer@$07@?$output_processor@_WV?$string_output_adapter@_W@__crt_stdio_output@@V?$format_validation_base@_WV?$string_output_adapter@_W@__crt_stdio_output@@@2@@__crt_stdio_output@@AAE_N_N@Z 1004ca50 f i libucrtd:output.obj
 0001:0004bdb0       ??$type_case_integer@$07@?$output_processor@_WV?$string_output_adapter@_W@__crt_stdio_output@@V?$positional_parameter_base@_WV?$string_output_adapter@_W@__crt_stdio_output@@@2@@__crt_stdio_output@@AAE_N_N@Z 1004cdb0 f i libucrtd:output.obj
 0001:0004c110       ??$type_case_integer@$07@?$output_processor@_WV?$string_output_adapter@_W@__crt_stdio_output@@V?$standard_base@_WV?$string_output_adapter@_W@__crt_stdio_output@@@2@@__crt_stdio_output@@AAE_N_N@Z 1004d110 f i libucrtd:output.obj
 0001:0004c470       ??$type_case_integer@$09@?$output_processor@DV?$stream_output_adapter@D@__crt_stdio_output@@V?$format_validation_base@DV?$stream_output_adapter@D@__crt_stdio_output@@@2@@__crt_stdio_output@@AAE_N_N@Z 1004d470 f i libucrtd:output.obj
 0001:0004c7d0       ??$type_case_integer@$09@?$output_processor@DV?$stream_output_adapter@D@__crt_stdio_output@@V?$positional_parameter_base@DV?$stream_output_adapter@D@__crt_stdio_output@@@2@@__crt_stdio_output@@AAE_N_N@Z 1004d7d0 f i libucrtd:output.obj
 0001:0004cb30       ??$type_case_integer@$09@?$output_processor@DV?$stream_output_adapter@D@__crt_stdio_output@@V?$standard_base@DV?$stream_output_adapter@D@__crt_stdio_output@@@2@@__crt_stdio_output@@AAE_N_N@Z 1004db30 f i libucrtd:output.obj
 0001:0004ce90       ??$type_case_integer@$09@?$output_processor@DV?$string_output_adapter@D@__crt_stdio_output@@V?$format_validation_base@DV?$string_output_adapter@D@__crt_stdio_output@@@2@@__crt_stdio_output@@AAE_N_N@Z 1004de90 f i libucrtd:output.obj
 0001:0004d1f0       ??$type_case_integer@$09@?$output_processor@DV?$string_output_adapter@D@__crt_stdio_output@@V?$positional_parameter_base@DV?$string_output_adapter@D@__crt_stdio_output@@@2@@__crt_stdio_output@@AAE_N_N@Z 1004e1f0 f i libucrtd:output.obj
 0001:0004d550       ??$type_case_integer@$09@?$output_processor@DV?$string_output_adapter@D@__crt_stdio_output@@V?$standard_base@DV?$string_output_adapter@D@__crt_stdio_output@@@2@@__crt_stdio_output@@AAE_N_N@Z 1004e550 f i libucrtd:output.obj
 0001:0004d8b0       ??$type_case_integer@$09@?$output_processor@_WV?$stream_output_adapter@_W@__crt_stdio_output@@V?$format_validation_base@_WV?$stream_output_adapter@_W@__crt_stdio_output@@@2@@__crt_stdio_output@@AAE_N_N@Z 1004e8b0 f i libucrtd:output.obj
 0001:0004dc10       ??$type_case_integer@$09@?$output_processor@_WV?$stream_output_adapter@_W@__crt_stdio_output@@V?$positional_parameter_base@_WV?$stream_output_adapter@_W@__crt_stdio_output@@@2@@__crt_stdio_output@@AAE_N_N@Z 1004ec10 f i libucrtd:output.obj
 0001:0004df70       ??$type_case_integer@$09@?$output_processor@_WV?$stream_output_adapter@_W@__crt_stdio_output@@V?$standard_base@_WV?$stream_output_adapter@_W@__crt_stdio_output@@@2@@__crt_stdio_output@@AAE_N_N@Z 1004ef70 f i libucrtd:output.obj
 0001:0004e2d0       ??$type_case_integer@$09@?$output_processor@_WV?$string_output_adapter@_W@__crt_stdio_output@@V?$format_validation_base@_WV?$string_output_adapter@_W@__crt_stdio_output@@@2@@__crt_stdio_output@@AAE_N_N@Z 1004f2d0 f i libucrtd:output.obj
 0001:0004e630       ??$type_case_integer@$09@?$output_processor@_WV?$string_output_adapter@_W@__crt_stdio_output@@V?$positional_parameter_base@_WV?$string_output_adapter@_W@__crt_stdio_output@@@2@@__crt_stdio_output@@AAE_N_N@Z 1004f630 f i libucrtd:output.obj
 0001:0004e990       ??$type_case_integer@$09@?$output_processor@_WV?$string_output_adapter@_W@__crt_stdio_output@@V?$standard_base@_WV?$string_output_adapter@_W@__crt_stdio_output@@@2@@__crt_stdio_output@@AAE_N_N@Z 1004f990 f i libucrtd:output.obj
 0001:0004ecf0       ??$type_case_integer@$0BA@@?$output_processor@DV?$stream_output_adapter@D@__crt_stdio_output@@V?$format_validation_base@DV?$stream_output_adapter@D@__crt_stdio_output@@@2@@__crt_stdio_output@@AAE_N_N@Z 1004fcf0 f i libucrtd:output.obj
 0001:0004f050       ??$type_case_integer@$0BA@@?$output_processor@DV?$stream_output_adapter@D@__crt_stdio_output@@V?$positional_parameter_base@DV?$stream_output_adapter@D@__crt_stdio_output@@@2@@__crt_stdio_output@@AAE_N_N@Z 10050050 f i libucrtd:output.obj
 0001:0004f3b0       ??$type_case_integer@$0BA@@?$output_processor@DV?$stream_output_adapter@D@__crt_stdio_output@@V?$standard_base@DV?$stream_output_adapter@D@__crt_stdio_output@@@2@@__crt_stdio_output@@AAE_N_N@Z 100503b0 f i libucrtd:output.obj
 0001:0004f710       ??$type_case_integer@$0BA@@?$output_processor@DV?$string_output_adapter@D@__crt_stdio_output@@V?$format_validation_base@DV?$string_output_adapter@D@__crt_stdio_output@@@2@@__crt_stdio_output@@AAE_N_N@Z 10050710 f i libucrtd:output.obj
 0001:0004fa70       ??$type_case_integer@$0BA@@?$output_processor@DV?$string_output_adapter@D@__crt_stdio_output@@V?$positional_parameter_base@DV?$string_output_adapter@D@__crt_stdio_output@@@2@@__crt_stdio_output@@AAE_N_N@Z 10050a70 f i libucrtd:output.obj
 0001:0004fdd0       ??$type_case_integer@$0BA@@?$output_processor@DV?$string_output_adapter@D@__crt_stdio_output@@V?$standard_base@DV?$string_output_adapter@D@__crt_stdio_output@@@2@@__crt_stdio_output@@AAE_N_N@Z 10050dd0 f i libucrtd:output.obj
 0001:00050130       ??$type_case_integer@$0BA@@?$output_processor@_WV?$stream_output_adapter@_W@__crt_stdio_output@@V?$format_validation_base@_WV?$stream_output_adapter@_W@__crt_stdio_output@@@2@@__crt_stdio_output@@AAE_N_N@Z 10051130 f i libucrtd:output.obj
 0001:00050490       ??$type_case_integer@$0BA@@?$output_processor@_WV?$stream_output_adapter@_W@__crt_stdio_output@@V?$positional_parameter_base@_WV?$stream_output_adapter@_W@__crt_stdio_output@@@2@@__crt_stdio_output@@AAE_N_N@Z 10051490 f i libucrtd:output.obj
 0001:000507f0       ??$type_case_integer@$0BA@@?$output_processor@_WV?$stream_output_adapter@_W@__crt_stdio_output@@V?$standard_base@_WV?$stream_output_adapter@_W@__crt_stdio_output@@@2@@__crt_stdio_output@@AAE_N_N@Z 100517f0 f i libucrtd:output.obj
 0001:00050b50       ??$type_case_integer@$0BA@@?$output_processor@_WV?$string_output_adapter@_W@__crt_stdio_output@@V?$format_validation_base@_WV?$string_output_adapter@_W@__crt_stdio_output@@@2@@__crt_stdio_output@@AAE_N_N@Z 10051b50 f i libucrtd:output.obj
 0001:00050eb0       ??$type_case_integer@$0BA@@?$output_processor@_WV?$string_output_adapter@_W@__crt_stdio_output@@V?$positional_parameter_base@_WV?$string_output_adapter@_W@__crt_stdio_output@@@2@@__crt_stdio_output@@AAE_N_N@Z 10051eb0 f i libucrtd:output.obj
 0001:00051210       ??$type_case_integer@$0BA@@?$output_processor@_WV?$string_output_adapter@_W@__crt_stdio_output@@V?$standard_base@_WV?$string_output_adapter@_W@__crt_stdio_output@@@2@@__crt_stdio_output@@AAE_N_N@Z 10052210 f i libucrtd:output.obj
 0001:00051570       ??$type_case_integer_parse_into_buffer@I$07@?$output_processor@DV?$stream_output_adapter@D@__crt_stdio_output@@V?$format_validation_base@DV?$stream_output_adapter@D@__crt_stdio_output@@@2@@__crt_stdio_output@@AAEXI_N@Z 10052570 f i libucrtd:output.obj
 0001:00051640       ??$type_case_integer_parse_into_buffer@I$07@?$output_processor@DV?$stream_output_adapter@D@__crt_stdio_output@@V?$positional_parameter_base@DV?$stream_output_adapter@D@__crt_stdio_output@@@2@@__crt_stdio_output@@AAEXI_N@Z 10052640 f i libucrtd:output.obj
 0001:00051710       ??$type_case_integer_parse_into_buffer@I$07@?$output_processor@DV?$stream_output_adapter@D@__crt_stdio_output@@V?$standard_base@DV?$stream_output_adapter@D@__crt_stdio_output@@@2@@__crt_stdio_output@@AAEXI_N@Z 10052710 f i libucrtd:output.obj
 0001:000517e0       ??$type_case_integer_parse_into_buffer@I$07@?$output_processor@DV?$string_output_adapter@D@__crt_stdio_output@@V?$format_validation_base@DV?$string_output_adapter@D@__crt_stdio_output@@@2@@__crt_stdio_output@@AAEXI_N@Z 100527e0 f i libucrtd:output.obj
 0001:000518b0       ??$type_case_integer_parse_into_buffer@I$07@?$output_processor@DV?$string_output_adapter@D@__crt_stdio_output@@V?$positional_parameter_base@DV?$string_output_adapter@D@__crt_stdio_output@@@2@@__crt_stdio_output@@AAEXI_N@Z 100528b0 f i libucrtd:output.obj
 0001:00051980       ??$type_case_integer_parse_into_buffer@I$07@?$output_processor@DV?$string_output_adapter@D@__crt_stdio_output@@V?$standard_base@DV?$string_output_adapter@D@__crt_stdio_output@@@2@@__crt_stdio_output@@AAEXI_N@Z 10052980 f i libucrtd:output.obj
 0001:00051a50       ??$type_case_integer_parse_into_buffer@I$07@?$output_processor@_WV?$stream_output_adapter@_W@__crt_stdio_output@@V?$format_validation_base@_WV?$stream_output_adapter@_W@__crt_stdio_output@@@2@@__crt_stdio_output@@AAEXI_N@Z 10052a50 f i libucrtd:output.obj
 0001:00051b30       ??$type_case_integer_parse_into_buffer@I$07@?$output_processor@_WV?$stream_output_adapter@_W@__crt_stdio_output@@V?$positional_parameter_base@_WV?$stream_output_adapter@_W@__crt_stdio_output@@@2@@__crt_stdio_output@@AAEXI_N@Z 10052b30 f i libucrtd:output.obj
 0001:00051c10       ??$type_case_integer_parse_into_buffer@I$07@?$output_processor@_WV?$stream_output_adapter@_W@__crt_stdio_output@@V?$standard_base@_WV?$stream_output_adapter@_W@__crt_stdio_output@@@2@@__crt_stdio_output@@AAEXI_N@Z 10052c10 f i libucrtd:output.obj
 0001:00051cf0       ??$type_case_integer_parse_into_buffer@I$07@?$output_processor@_WV?$string_output_adapter@_W@__crt_stdio_output@@V?$format_validation_base@_WV?$string_output_adapter@_W@__crt_stdio_output@@@2@@__crt_stdio_output@@AAEXI_N@Z 10052cf0 f i libucrtd:output.obj
 0001:00051dd0       ??$type_case_integer_parse_into_buffer@I$07@?$output_processor@_WV?$string_output_adapter@_W@__crt_stdio_output@@V?$positional_parameter_base@_WV?$string_output_adapter@_W@__crt_stdio_output@@@2@@__crt_stdio_output@@AAEXI_N@Z 10052dd0 f i libucrtd:output.obj
 0001:00051eb0       ??$type_case_integer_parse_into_buffer@I$07@?$output_processor@_WV?$string_output_adapter@_W@__crt_stdio_output@@V?$standard_base@_WV?$string_output_adapter@_W@__crt_stdio_output@@@2@@__crt_stdio_output@@AAEXI_N@Z 10052eb0 f i libucrtd:output.obj
 0001:00051f90       ??$type_case_integer_parse_into_buffer@I$09@?$output_processor@DV?$stream_output_adapter@D@__crt_stdio_output@@V?$format_validation_base@DV?$stream_output_adapter@D@__crt_stdio_output@@@2@@__crt_stdio_output@@AAEXI_N@Z 10052f90 f i libucrtd:output.obj
 0001:00052070       ??$type_case_integer_parse_into_buffer@I$09@?$output_processor@DV?$stream_output_adapter@D@__crt_stdio_output@@V?$positional_parameter_base@DV?$stream_output_adapter@D@__crt_stdio_output@@@2@@__crt_stdio_output@@AAEXI_N@Z 10053070 f i libucrtd:output.obj
 0001:00052150       ??$type_case_integer_parse_into_buffer@I$09@?$output_processor@DV?$stream_output_adapter@D@__crt_stdio_output@@V?$standard_base@DV?$stream_output_adapter@D@__crt_stdio_output@@@2@@__crt_stdio_output@@AAEXI_N@Z 10053150 f i libucrtd:output.obj
 0001:00052230       ??$type_case_integer_parse_into_buffer@I$09@?$output_processor@DV?$string_output_adapter@D@__crt_stdio_output@@V?$format_validation_base@DV?$string_output_adapter@D@__crt_stdio_output@@@2@@__crt_stdio_output@@AAEXI_N@Z 10053230 f i libucrtd:output.obj
 0001:00052310       ??$type_case_integer_parse_into_buffer@I$09@?$output_processor@DV?$string_output_adapter@D@__crt_stdio_output@@V?$positional_parameter_base@DV?$string_output_adapter@D@__crt_stdio_output@@@2@@__crt_stdio_output@@AAEXI_N@Z 10053310 f i libucrtd:output.obj
 0001:000523f0       ??$type_case_integer_parse_into_buffer@I$09@?$output_processor@DV?$string_output_adapter@D@__crt_stdio_output@@V?$standard_base@DV?$string_output_adapter@D@__crt_stdio_output@@@2@@__crt_stdio_output@@AAEXI_N@Z 100533f0 f i libucrtd:output.obj
 0001:000524d0       ??$type_case_integer_parse_into_buffer@I$09@?$output_processor@_WV?$stream_output_adapter@_W@__crt_stdio_output@@V?$format_validation_base@_WV?$stream_output_adapter@_W@__crt_stdio_output@@@2@@__crt_stdio_output@@AAEXI_N@Z 100534d0 f i libucrtd:output.obj
 0001:000525c0       ??$type_case_integer_parse_into_buffer@I$09@?$output_processor@_WV?$stream_output_adapter@_W@__crt_stdio_output@@V?$positional_parameter_base@_WV?$stream_output_adapter@_W@__crt_stdio_output@@@2@@__crt_stdio_output@@AAEXI_N@Z 100535c0 f i libucrtd:output.obj
 0001:000526b0       ??$type_case_integer_parse_into_buffer@I$09@?$output_processor@_WV?$stream_output_adapter@_W@__crt_stdio_output@@V?$standard_base@_WV?$stream_output_adapter@_W@__crt_stdio_output@@@2@@__crt_stdio_output@@AAEXI_N@Z 100536b0 f i libucrtd:output.obj
 0001:000527a0       ??$type_case_integer_parse_into_buffer@I$09@?$output_processor@_WV?$string_output_adapter@_W@__crt_stdio_output@@V?$format_validation_base@_WV?$string_output_adapter@_W@__crt_stdio_output@@@2@@__crt_stdio_output@@AAEXI_N@Z 100537a0 f i libucrtd:output.obj
 0001:00052890       ??$type_case_integer_parse_into_buffer@I$09@?$output_processor@_WV?$string_output_adapter@_W@__crt_stdio_output@@V?$positional_parameter_base@_WV?$string_output_adapter@_W@__crt_stdio_output@@@2@@__crt_stdio_output@@AAEXI_N@Z 10053890 f i libucrtd:output.obj
 0001:00052980       ??$type_case_integer_parse_into_buffer@I$09@?$output_processor@_WV?$string_output_adapter@_W@__crt_stdio_output@@V?$standard_base@_WV?$string_output_adapter@_W@__crt_stdio_output@@@2@@__crt_stdio_output@@AAEXI_N@Z 10053980 f i libucrtd:output.obj
 0001:00052a70       ??$type_case_integer_parse_into_buffer@I$0BA@@?$output_processor@DV?$stream_output_adapter@D@__crt_stdio_output@@V?$format_validation_base@DV?$stream_output_adapter@D@__crt_stdio_output@@@2@@__crt_stdio_output@@AAEXI_N@Z 10053a70 f i libucrtd:output.obj
 0001:00052b40       ??$type_case_integer_parse_into_buffer@I$0BA@@?$output_processor@DV?$stream_output_adapter@D@__crt_stdio_output@@V?$positional_parameter_base@DV?$stream_output_adapter@D@__crt_stdio_output@@@2@@__crt_stdio_output@@AAEXI_N@Z 10053b40 f i libucrtd:output.obj
 0001:00052c10       ??$type_case_integer_parse_into_buffer@I$0BA@@?$output_processor@DV?$stream_output_adapter@D@__crt_stdio_output@@V?$standard_base@DV?$stream_output_adapter@D@__crt_stdio_output@@@2@@__crt_stdio_output@@AAEXI_N@Z 10053c10 f i libucrtd:output.obj
 0001:00052ce0       ??$type_case_integer_parse_into_buffer@I$0BA@@?$output_processor@DV?$string_output_adapter@D@__crt_stdio_output@@V?$format_validation_base@DV?$string_output_adapter@D@__crt_stdio_output@@@2@@__crt_stdio_output@@AAEXI_N@Z 10053ce0 f i libucrtd:output.obj
 0001:00052db0       ??$type_case_integer_parse_into_buffer@I$0BA@@?$output_processor@DV?$string_output_adapter@D@__crt_stdio_output@@V?$positional_parameter_base@DV?$string_output_adapter@D@__crt_stdio_output@@@2@@__crt_stdio_output@@AAEXI_N@Z 10053db0 f i libucrtd:output.obj
 0001:00052e80       ??$type_case_integer_parse_into_buffer@I$0BA@@?$output_processor@DV?$string_output_adapter@D@__crt_stdio_output@@V?$standard_base@DV?$string_output_adapter@D@__crt_stdio_output@@@2@@__crt_stdio_output@@AAEXI_N@Z 10053e80 f i libucrtd:output.obj
 0001:00052f50       ??$type_case_integer_parse_into_buffer@I$0BA@@?$output_processor@_WV?$stream_output_adapter@_W@__crt_stdio_output@@V?$format_validation_base@_WV?$stream_output_adapter@_W@__crt_stdio_output@@@2@@__crt_stdio_output@@AAEXI_N@Z 10053f50 f i libucrtd:output.obj
 0001:00053030       ??$type_case_integer_parse_into_buffer@I$0BA@@?$output_processor@_WV?$stream_output_adapter@_W@__crt_stdio_output@@V?$positional_parameter_base@_WV?$stream_output_adapter@_W@__crt_stdio_output@@@2@@__crt_stdio_output@@AAEXI_N@Z 10054030 f i libucrtd:output.obj
 0001:00053110       ??$type_case_integer_parse_into_buffer@I$0BA@@?$output_processor@_WV?$stream_output_adapter@_W@__crt_stdio_output@@V?$standard_base@_WV?$stream_output_adapter@_W@__crt_stdio_output@@@2@@__crt_stdio_output@@AAEXI_N@Z 10054110 f i libucrtd:output.obj
 0001:000531f0       ??$type_case_integer_parse_into_buffer@I$0BA@@?$output_processor@_WV?$string_output_adapter@_W@__crt_stdio_output@@V?$format_validation_base@_WV?$string_output_adapter@_W@__crt_stdio_output@@@2@@__crt_stdio_output@@AAEXI_N@Z 100541f0 f i libucrtd:output.obj
 0001:000532d0       ??$type_case_integer_parse_into_buffer@I$0BA@@?$output_processor@_WV?$string_output_adapter@_W@__crt_stdio_output@@V?$positional_parameter_base@_WV?$string_output_adapter@_W@__crt_stdio_output@@@2@@__crt_stdio_output@@AAEXI_N@Z 100542d0 f i libucrtd:output.obj
 0001:000533b0       ??$type_case_integer_parse_into_buffer@I$0BA@@?$output_processor@_WV?$string_output_adapter@_W@__crt_stdio_output@@V?$standard_base@_WV?$string_output_adapter@_W@__crt_stdio_output@@@2@@__crt_stdio_output@@AAEXI_N@Z 100543b0 f i libucrtd:output.obj
 0001:00053490       ??$type_case_integer_parse_into_buffer@_K$07@?$output_processor@DV?$stream_output_adapter@D@__crt_stdio_output@@V?$format_validation_base@DV?$stream_output_adapter@D@__crt_stdio_output@@@2@@__crt_stdio_output@@AAEX_K_N@Z 10054490 f i libucrtd:output.obj
 0001:00053580       ??$type_case_integer_parse_into_buffer@_K$07@?$output_processor@DV?$stream_output_adapter@D@__crt_stdio_output@@V?$positional_parameter_base@DV?$stream_output_adapter@D@__crt_stdio_output@@@2@@__crt_stdio_output@@AAEX_K_N@Z 10054580 f i libucrtd:output.obj
 0001:00053670       ??$type_case_integer_parse_into_buffer@_K$07@?$output_processor@DV?$stream_output_adapter@D@__crt_stdio_output@@V?$standard_base@DV?$stream_output_adapter@D@__crt_stdio_output@@@2@@__crt_stdio_output@@AAEX_K_N@Z 10054670 f i libucrtd:output.obj
 0001:00053760       ??$type_case_integer_parse_into_buffer@_K$07@?$output_processor@DV?$string_output_adapter@D@__crt_stdio_output@@V?$format_validation_base@DV?$string_output_adapter@D@__crt_stdio_output@@@2@@__crt_stdio_output@@AAEX_K_N@Z 10054760 f i libucrtd:output.obj
 0001:00053850       ??$type_case_integer_parse_into_buffer@_K$07@?$output_processor@DV?$string_output_adapter@D@__crt_stdio_output@@V?$positional_parameter_base@DV?$string_output_adapter@D@__crt_stdio_output@@@2@@__crt_stdio_output@@AAEX_K_N@Z 10054850 f i libucrtd:output.obj
 0001:00053940       ??$type_case_integer_parse_into_buffer@_K$07@?$output_processor@DV?$string_output_adapter@D@__crt_stdio_output@@V?$standard_base@DV?$string_output_adapter@D@__crt_stdio_output@@@2@@__crt_stdio_output@@AAEX_K_N@Z 10054940 f i libucrtd:output.obj
 0001:00053a30       ??$type_case_integer_parse_into_buffer@_K$07@?$output_processor@_WV?$stream_output_adapter@_W@__crt_stdio_output@@V?$format_validation_base@_WV?$stream_output_adapter@_W@__crt_stdio_output@@@2@@__crt_stdio_output@@AAEX_K_N@Z 10054a30 f i libucrtd:output.obj
 0001:00053b30       ??$type_case_integer_parse_into_buffer@_K$07@?$output_processor@_WV?$stream_output_adapter@_W@__crt_stdio_output@@V?$positional_parameter_base@_WV?$stream_output_adapter@_W@__crt_stdio_output@@@2@@__crt_stdio_output@@AAEX_K_N@Z 10054b30 f i libucrtd:output.obj
 0001:00053c30       ??$type_case_integer_parse_into_buffer@_K$07@?$output_processor@_WV?$stream_output_adapter@_W@__crt_stdio_output@@V?$standard_base@_WV?$stream_output_adapter@_W@__crt_stdio_output@@@2@@__crt_stdio_output@@AAEX_K_N@Z 10054c30 f i libucrtd:output.obj
 0001:00053d30       ??$type_case_integer_parse_into_buffer@_K$07@?$output_processor@_WV?$string_output_adapter@_W@__crt_stdio_output@@V?$format_validation_base@_WV?$string_output_adapter@_W@__crt_stdio_output@@@2@@__crt_stdio_output@@AAEX_K_N@Z 10054d30 f i libucrtd:output.obj
 0001:00053e30       ??$type_case_integer_parse_into_buffer@_K$07@?$output_processor@_WV?$string_output_adapter@_W@__crt_stdio_output@@V?$positional_parameter_base@_WV?$string_output_adapter@_W@__crt_stdio_output@@@2@@__crt_stdio_output@@AAEX_K_N@Z 10054e30 f i libucrtd:output.obj
 0001:00053f30       ??$type_case_integer_parse_into_buffer@_K$07@?$output_processor@_WV?$string_output_adapter@_W@__crt_stdio_output@@V?$standard_base@_WV?$string_output_adapter@_W@__crt_stdio_output@@@2@@__crt_stdio_output@@AAEX_K_N@Z 10054f30 f i libucrtd:output.obj
 0001:00054030       ??$type_case_integer_parse_into_buffer@_K$09@?$output_processor@DV?$stream_output_adapter@D@__crt_stdio_output@@V?$format_validation_base@DV?$stream_output_adapter@D@__crt_stdio_output@@@2@@__crt_stdio_output@@AAEX_K_N@Z 10055030 f i libucrtd:output.obj
 0001:00054120       ??$type_case_integer_parse_into_buffer@_K$09@?$output_processor@DV?$stream_output_adapter@D@__crt_stdio_output@@V?$positional_parameter_base@DV?$stream_output_adapter@D@__crt_stdio_output@@@2@@__crt_stdio_output@@AAEX_K_N@Z 10055120 f i libucrtd:output.obj
 0001:00054210       ??$type_case_integer_parse_into_buffer@_K$09@?$output_processor@DV?$stream_output_adapter@D@__crt_stdio_output@@V?$standard_base@DV?$stream_output_adapter@D@__crt_stdio_output@@@2@@__crt_stdio_output@@AAEX_K_N@Z 10055210 f i libucrtd:output.obj
 0001:00054300       ??$type_case_integer_parse_into_buffer@_K$09@?$output_processor@DV?$string_output_adapter@D@__crt_stdio_output@@V?$format_validation_base@DV?$string_output_adapter@D@__crt_stdio_output@@@2@@__crt_stdio_output@@AAEX_K_N@Z 10055300 f i libucrtd:output.obj
 0001:000543f0       ??$type_case_integer_parse_into_buffer@_K$09@?$output_processor@DV?$string_output_adapter@D@__crt_stdio_output@@V?$positional_parameter_base@DV?$string_output_adapter@D@__crt_stdio_output@@@2@@__crt_stdio_output@@AAEX_K_N@Z 100553f0 f i libucrtd:output.obj
 0001:000544e0       ??$type_case_integer_parse_into_buffer@_K$09@?$output_processor@DV?$string_output_adapter@D@__crt_stdio_output@@V?$standard_base@DV?$string_output_adapter@D@__crt_stdio_output@@@2@@__crt_stdio_output@@AAEX_K_N@Z 100554e0 f i libucrtd:output.obj
 0001:000545d0       ??$type_case_integer_parse_into_buffer@_K$09@?$output_processor@_WV?$stream_output_adapter@_W@__crt_stdio_output@@V?$format_validation_base@_WV?$stream_output_adapter@_W@__crt_stdio_output@@@2@@__crt_stdio_output@@AAEX_K_N@Z 100555d0 f i libucrtd:output.obj
 0001:000546d0       ??$type_case_integer_parse_into_buffer@_K$09@?$output_processor@_WV?$stream_output_adapter@_W@__crt_stdio_output@@V?$positional_parameter_base@_WV?$stream_output_adapter@_W@__crt_stdio_output@@@2@@__crt_stdio_output@@AAEX_K_N@Z 100556d0 f i libucrtd:output.obj
 0001:000547d0       ??$type_case_integer_parse_into_buffer@_K$09@?$output_processor@_WV?$stream_output_adapter@_W@__crt_stdio_output@@V?$standard_base@_WV?$stream_output_adapter@_W@__crt_stdio_output@@@2@@__crt_stdio_output@@AAEX_K_N@Z 100557d0 f i libucrtd:output.obj
 0001:000548d0       ??$type_case_integer_parse_into_buffer@_K$09@?$output_processor@_WV?$string_output_adapter@_W@__crt_stdio_output@@V?$format_validation_base@_WV?$string_output_adapter@_W@__crt_stdio_output@@@2@@__crt_stdio_output@@AAEX_K_N@Z 100558d0 f i libucrtd:output.obj
 0001:000549d0       ??$type_case_integer_parse_into_buffer@_K$09@?$output_processor@_WV?$string_output_adapter@_W@__crt_stdio_output@@V?$positional_parameter_base@_WV?$string_output_adapter@_W@__crt_stdio_output@@@2@@__crt_stdio_output@@AAEX_K_N@Z 100559d0 f i libucrtd:output.obj
 0001:00054ad0       ??$type_case_integer_parse_into_buffer@_K$09@?$output_processor@_WV?$string_output_adapter@_W@__crt_stdio_output@@V?$standard_base@_WV?$string_output_adapter@_W@__crt_stdio_output@@@2@@__crt_stdio_output@@AAEX_K_N@Z 10055ad0 f i libucrtd:output.obj
 0001:00054bd0       ??$type_case_integer_parse_into_buffer@_K$0BA@@?$output_processor@DV?$stream_output_adapter@D@__crt_stdio_output@@V?$format_validation_base@DV?$stream_output_adapter@D@__crt_stdio_output@@@2@@__crt_stdio_output@@AAEX_K_N@Z 10055bd0 f i libucrtd:output.obj
 0001:00054cc0       ??$type_case_integer_parse_into_buffer@_K$0BA@@?$output_processor@DV?$stream_output_adapter@D@__crt_stdio_output@@V?$positional_parameter_base@DV?$stream_output_adapter@D@__crt_stdio_output@@@2@@__crt_stdio_output@@AAEX_K_N@Z 10055cc0 f i libucrtd:output.obj
 0001:00054db0       ??$type_case_integer_parse_into_buffer@_K$0BA@@?$output_processor@DV?$stream_output_adapter@D@__crt_stdio_output@@V?$standard_base@DV?$stream_output_adapter@D@__crt_stdio_output@@@2@@__crt_stdio_output@@AAEX_K_N@Z 10055db0 f i libucrtd:output.obj
 0001:00054ea0       ??$type_case_integer_parse_into_buffer@_K$0BA@@?$output_processor@DV?$string_output_adapter@D@__crt_stdio_output@@V?$format_validation_base@DV?$string_output_adapter@D@__crt_stdio_output@@@2@@__crt_stdio_output@@AAEX_K_N@Z 10055ea0 f i libucrtd:output.obj
 0001:00054f90       ??$type_case_integer_parse_into_buffer@_K$0BA@@?$output_processor@DV?$string_output_adapter@D@__crt_stdio_output@@V?$positional_parameter_base@DV?$string_output_adapter@D@__crt_stdio_output@@@2@@__crt_stdio_output@@AAEX_K_N@Z 10055f90 f i libucrtd:output.obj
 0001:00055080       ??$type_case_integer_parse_into_buffer@_K$0BA@@?$output_processor@DV?$string_output_adapter@D@__crt_stdio_output@@V?$standard_base@DV?$string_output_adapter@D@__crt_stdio_output@@@2@@__crt_stdio_output@@AAEX_K_N@Z 10056080 f i libucrtd:output.obj
 0001:00055170       ??$type_case_integer_parse_into_buffer@_K$0BA@@?$output_processor@_WV?$stream_output_adapter@_W@__crt_stdio_output@@V?$format_validation_base@_WV?$stream_output_adapter@_W@__crt_stdio_output@@@2@@__crt_stdio_output@@AAEX_K_N@Z 10056170 f i libucrtd:output.obj
 0001:00055270       ??$type_case_integer_parse_into_buffer@_K$0BA@@?$output_processor@_WV?$stream_output_adapter@_W@__crt_stdio_output@@V?$positional_parameter_base@_WV?$stream_output_adapter@_W@__crt_stdio_output@@@2@@__crt_stdio_output@@AAEX_K_N@Z 10056270 f i libucrtd:output.obj
 0001:00055370       ??$type_case_integer_parse_into_buffer@_K$0BA@@?$output_processor@_WV?$stream_output_adapter@_W@__crt_stdio_output@@V?$standard_base@_WV?$stream_output_adapter@_W@__crt_stdio_output@@@2@@__crt_stdio_output@@AAEX_K_N@Z 10056370 f i libucrtd:output.obj
 0001:00055470       ??$type_case_integer_parse_into_buffer@_K$0BA@@?$output_processor@_WV?$string_output_adapter@_W@__crt_stdio_output@@V?$format_validation_base@_WV?$string_output_adapter@_W@__crt_stdio_output@@@2@@__crt_stdio_output@@AAEX_K_N@Z 10056470 f i libucrtd:output.obj
 0001:00055570       ??$type_case_integer_parse_into_buffer@_K$0BA@@?$output_processor@_WV?$string_output_adapter@_W@__crt_stdio_output@@V?$positional_parameter_base@_WV?$string_output_adapter@_W@__crt_stdio_output@@@2@@__crt_stdio_output@@AAEX_K_N@Z 10056570 f i libucrtd:output.obj
 0001:00055670       ??$type_case_integer_parse_into_buffer@_K$0BA@@?$output_processor@_WV?$string_output_adapter@_W@__crt_stdio_output@@V?$standard_base@_WV?$string_output_adapter@_W@__crt_stdio_output@@@2@@__crt_stdio_output@@AAEX_K_N@Z 10056670 f i libucrtd:output.obj
 0001:00055770       ??$write_multiple_characters@V?$stream_output_adapter@D@__crt_stdio_output@@D@__crt_stdio_output@@YAXABV?$stream_output_adapter@D@0@DHQAHAAV__crt_cached_ptd_host@@@Z 10056770 f i libucrtd:output.obj
 0001:000557c0       ??$write_multiple_characters@V?$stream_output_adapter@_W@__crt_stdio_output@@D@__crt_stdio_output@@YAXABV?$stream_output_adapter@_W@0@DHQAHAAV__crt_cached_ptd_host@@@Z 100567c0 f i libucrtd:output.obj
 0001:00055810       ??$write_multiple_characters@V?$string_output_adapter@D@__crt_stdio_output@@D@__crt_stdio_output@@YAXABV?$string_output_adapter@D@0@DHQAHAAV__crt_cached_ptd_host@@@Z 10056810 f i libucrtd:output.obj
 0001:00055860       ??$write_multiple_characters@V?$string_output_adapter@_W@__crt_stdio_output@@D@__crt_stdio_output@@YAXABV?$string_output_adapter@_W@0@DHQAHAAV__crt_cached_ptd_host@@@Z 10056860 f i libucrtd:output.obj
 0001:00055bb0       ??0?$c_string_character_source@D@__crt_strtox@@QAE@QBDQAPBD@Z 10056bb0 f i libucrtd:output.obj
 0001:00055bf0       ??0?$c_string_character_source@_W@__crt_strtox@@QAE@QB_WQAPB_W@Z 10056bf0 f i libucrtd:output.obj
 0001:00055c30       ??0?$cached@H@__crt_cached_ptd_host@@QAE@XZ 10056c30 f i libucrtd:output.obj
 0001:00055c50       ??0?$cached@K@__crt_cached_ptd_host@@QAE@XZ 10056c50 f i libucrtd:output.obj
 0001:00055c70       ??0?$common_data@D@__crt_stdio_output@@IAE@AAV__crt_cached_ptd_host@@@Z 10056c70 f i libucrtd:output.obj
 0001:00055d10       ??0?$common_data@_W@__crt_stdio_output@@IAE@AAV__crt_cached_ptd_host@@@Z 10056d10 f i libucrtd:output.obj
 0001:00055db0       ??0?$output_adapter_data@DV?$stream_output_adapter@D@__crt_stdio_output@@@__crt_stdio_output@@IAE@ABV?$stream_output_adapter@D@1@_KQBDAAV__crt_cached_ptd_host@@QAD@Z 10056db0 f i libucrtd:output.obj
 0001:00055e30       ??0?$output_adapter_data@DV?$string_output_adapter@D@__crt_stdio_output@@@__crt_stdio_output@@IAE@ABV?$string_output_adapter@D@1@_KQBDAAV__crt_cached_ptd_host@@QAD@Z 10056e30 f i libucrtd:output.obj
 0001:00055eb0       ??0?$output_adapter_data@_WV?$stream_output_adapter@_W@__crt_stdio_output@@@__crt_stdio_output@@IAE@ABV?$stream_output_adapter@_W@1@_KQB_WAAV__crt_cached_ptd_host@@QAD@Z 10056eb0 f i libucrtd:output.obj
 0001:00055f30       ??0?$output_adapter_data@_WV?$string_output_adapter@_W@__crt_stdio_output@@@__crt_stdio_output@@IAE@ABV?$string_output_adapter@_W@1@_KQB_WAAV__crt_cached_ptd_host@@QAD@Z 10056f30 f i libucrtd:output.obj
 0001:00055fb0       ??0?$output_processor@DV?$stream_output_adapter@D@__crt_stdio_output@@V?$format_validation_base@DV?$stream_output_adapter@D@__crt_stdio_output@@@2@@__crt_stdio_output@@QAE@ABV?$stream_output_adapter@D@1@_KQBDAAV__crt_cached_ptd_host@@QAD@Z 10056fb0 f i libucrtd:output.obj
 0001:00055fe0       ??0?$output_processor@DV?$stream_output_adapter@D@__crt_stdio_output@@V?$positional_parameter_base@DV?$stream_output_adapter@D@__crt_stdio_output@@@2@@__crt_stdio_output@@QAE@ABV?$stream_output_adapter@D@1@_KQBDAAV__crt_cached_ptd_host@@QAD@Z 10056fe0 f i libucrtd:output.obj
 0001:00056010       ??0?$output_processor@DV?$stream_output_adapter@D@__crt_stdio_output@@V?$standard_base@DV?$stream_output_adapter@D@__crt_stdio_output@@@2@@__crt_stdio_output@@QAE@ABV?$stream_output_adapter@D@1@_KQBDAAV__crt_cached_ptd_host@@QAD@Z 10057010 f i libucrtd:output.obj
 0001:00056040       ??0?$output_processor@DV?$string_output_adapter@D@__crt_stdio_output@@V?$format_validation_base@DV?$string_output_adapter@D@__crt_stdio_output@@@2@@__crt_stdio_output@@QAE@ABV?$string_output_adapter@D@1@_KQBDAAV__crt_cached_ptd_host@@QAD@Z 10057040 f i libucrtd:output.obj
 0001:00056070       ??0?$output_processor@DV?$string_output_adapter@D@__crt_stdio_output@@V?$positional_parameter_base@DV?$string_output_adapter@D@__crt_stdio_output@@@2@@__crt_stdio_output@@QAE@ABV?$string_output_adapter@D@1@_KQBDAAV__crt_cached_ptd_host@@QAD@Z 10057070 f i libucrtd:output.obj
 0001:000560a0       ??0?$output_processor@DV?$string_output_adapter@D@__crt_stdio_output@@V?$standard_base@DV?$string_output_adapter@D@__crt_stdio_output@@@2@@__crt_stdio_output@@QAE@ABV?$string_output_adapter@D@1@_KQBDAAV__crt_cached_ptd_host@@QAD@Z 100570a0 f i libucrtd:output.obj
 0001:000560d0       ??0?$output_processor@_WV?$stream_output_adapter@_W@__crt_stdio_output@@V?$format_validation_base@_WV?$stream_output_adapter@_W@__crt_stdio_output@@@2@@__crt_stdio_output@@QAE@ABV?$stream_output_adapter@_W@1@_KQB_WAAV__crt_cached_ptd_host@@QAD@Z 100570d0 f i libucrtd:output.obj
 0001:00056100       ??0?$output_processor@_WV?$stream_output_adapter@_W@__crt_stdio_output@@V?$positional_parameter_base@_WV?$stream_output_adapter@_W@__crt_stdio_output@@@2@@__crt_stdio_output@@QAE@ABV?$stream_output_adapter@_W@1@_KQB_WAAV__crt_cached_ptd_host@@QAD@Z 10057100 f i libucrtd:output.obj
 0001:00056130       ??0?$output_processor@_WV?$stream_output_adapter@_W@__crt_stdio_output@@V?$standard_base@_WV?$stream_output_adapter@_W@__crt_stdio_output@@@2@@__crt_stdio_output@@QAE@ABV?$stream_output_adapter@_W@1@_KQB_WAAV__crt_cached_ptd_host@@QAD@Z 10057130 f i libucrtd:output.obj
 0001:00056160       ??0?$output_processor@_WV?$string_output_adapter@_W@__crt_stdio_output@@V?$format_validation_base@_WV?$string_output_adapter@_W@__crt_stdio_output@@@2@@__crt_stdio_output@@QAE@ABV?$string_output_adapter@_W@1@_KQB_WAAV__crt_cached_ptd_host@@QAD@Z 10057160 f i libucrtd:output.obj
 0001:00056190       ??0?$output_processor@_WV?$string_output_adapter@_W@__crt_stdio_output@@V?$positional_parameter_base@_WV?$string_output_adapter@_W@__crt_stdio_output@@@2@@__crt_stdio_output@@QAE@ABV?$string_output_adapter@_W@1@_KQB_WAAV__crt_cached_ptd_host@@QAD@Z 10057190 f i libucrtd:output.obj
 0001:000561c0       ??0?$output_processor@_WV?$string_output_adapter@_W@__crt_stdio_output@@V?$standard_base@_WV?$string_output_adapter@_W@__crt_stdio_output@@@2@@__crt_stdio_output@@QAE@ABV?$string_output_adapter@_W@1@_KQB_WAAV__crt_cached_ptd_host@@QAD@Z 100571c0 f i libucrtd:output.obj
 0001:000561f0       ??0?$stream_output_adapter@D@__crt_stdio_output@@QAE@QAU_iobuf@@@Z 100571f0 f i libucrtd:output.obj
 0001:00056220       ??0?$stream_output_adapter@_W@__crt_stdio_output@@QAE@QAU_iobuf@@@Z 10057220 f i libucrtd:output.obj
 0001:00056250       ??0?$string_output_adapter@D@__crt_stdio_output@@QAE@QAU?$string_output_adapter_context@D@1@@Z 10057250 f i libucrtd:output.obj
 0001:00056270       ??0?$string_output_adapter@_W@__crt_stdio_output@@QAE@QAU?$string_output_adapter_context@_W@1@@Z 10057270 f i libucrtd:output.obj
 0001:00056290       ??0__acrt_stdio_temporary_buffering_guard@@QAE@QAU_iobuf@@AAV__crt_cached_ptd_host@@@Z 10057290 f i libucrtd:output.obj
 0001:000562d0       ??0__crt_cached_ptd_host@@QAE@QAU__crt_locale_pointers@@@Z 100572d0 f i libucrtd:output.obj
 0001:00056360       ??0__crt_scoped_get_last_error_reset@@QAE@XZ 10057360 f i libucrtd:output.obj
 0001:00056380       ??0__crt_stdio_stream@@QAE@QAU_iobuf@@@Z 10057380 f i libucrtd:output.obj
 0001:000563a0       ??0formatting_buffer@__crt_stdio_output@@QAE@XZ 100573a0 f i libucrtd:output.obj
 0001:000563e0       ??0guard@?$cached@H@__crt_cached_ptd_host@@QAE@AAU12@@Z 100573e0 f i libucrtd:output.obj
 0001:00056420       ??1?$c_string_character_source@D@__crt_strtox@@QAE@XZ 10057420 f i libucrtd:output.obj
 0001:00056450       ??1?$c_string_character_source@_W@__crt_strtox@@QAE@XZ 10057450 f i libucrtd:output.obj
 0001:00056480       ??1?$common_data@D@__crt_stdio_output@@QAE@XZ 10057480 f i libucrtd:output.obj
 0001:000564a0       ??1?$common_data@_W@__crt_stdio_output@@QAE@XZ 100574a0 f i libucrtd:output.obj
 0001:000564c0       ??1?$format_validation_base@DV?$stream_output_adapter@D@__crt_stdio_output@@@__crt_stdio_output@@QAE@XZ 100574c0 f i libucrtd:output.obj
 0001:000564e0       ??1?$format_validation_base@DV?$string_output_adapter@D@__crt_stdio_output@@@__crt_stdio_output@@QAE@XZ 100574e0 f i libucrtd:output.obj
 0001:00056500       ??1?$format_validation_base@_WV?$stream_output_adapter@_W@__crt_stdio_output@@@__crt_stdio_output@@QAE@XZ 10057500 f i libucrtd:output.obj
 0001:00056520       ??1?$format_validation_base@_WV?$string_output_adapter@_W@__crt_stdio_output@@@__crt_stdio_output@@QAE@XZ 10057520 f i libucrtd:output.obj
 0001:00056540       ??1?$output_adapter_data@DV?$stream_output_adapter@D@__crt_stdio_output@@@__crt_stdio_output@@QAE@XZ 10057540 f i libucrtd:output.obj
 0001:00056560       ??1?$output_adapter_data@DV?$string_output_adapter@D@__crt_stdio_output@@@__crt_stdio_output@@QAE@XZ 10057560 f i libucrtd:output.obj
 0001:00056580       ??1?$output_adapter_data@_WV?$stream_output_adapter@_W@__crt_stdio_output@@@__crt_stdio_output@@QAE@XZ 10057580 f i libucrtd:output.obj
 0001:000565a0       ??1?$output_adapter_data@_WV?$string_output_adapter@_W@__crt_stdio_output@@@__crt_stdio_output@@QAE@XZ 100575a0 f i libucrtd:output.obj
 0001:000565c0       ??1?$output_processor@DV?$stream_output_adapter@D@__crt_stdio_output@@V?$format_validation_base@DV?$stream_output_adapter@D@__crt_stdio_output@@@2@@__crt_stdio_output@@QAE@XZ 100575c0 f i libucrtd:output.obj
 0001:000565e0       ??1?$output_processor@DV?$stream_output_adapter@D@__crt_stdio_output@@V?$positional_parameter_base@DV?$stream_output_adapter@D@__crt_stdio_output@@@2@@__crt_stdio_output@@QAE@XZ 100575e0 f i libucrtd:output.obj
 0001:00056600       ??1?$output_processor@DV?$stream_output_adapter@D@__crt_stdio_output@@V?$standard_base@DV?$stream_output_adapter@D@__crt_stdio_output@@@2@@__crt_stdio_output@@QAE@XZ 10057600 f i libucrtd:output.obj
 0001:00056620       ??1?$output_processor@DV?$string_output_adapter@D@__crt_stdio_output@@V?$format_validation_base@DV?$string_output_adapter@D@__crt_stdio_output@@@2@@__crt_stdio_output@@QAE@XZ 10057620 f i libucrtd:output.obj
 0001:00056640       ??1?$output_processor@DV?$string_output_adapter@D@__crt_stdio_output@@V?$positional_parameter_base@DV?$string_output_adapter@D@__crt_stdio_output@@@2@@__crt_stdio_output@@QAE@XZ 10057640 f i libucrtd:output.obj
 0001:00056660       ??1?$output_processor@DV?$string_output_adapter@D@__crt_stdio_output@@V?$standard_base@DV?$string_output_adapter@D@__crt_stdio_output@@@2@@__crt_stdio_output@@QAE@XZ 10057660 f i libucrtd:output.obj
 0001:00056680       ??1?$output_processor@_WV?$stream_output_adapter@_W@__crt_stdio_output@@V?$format_validation_base@_WV?$stream_output_adapter@_W@__crt_stdio_output@@@2@@__crt_stdio_output@@QAE@XZ 10057680 f i libucrtd:output.obj
 0001:000566a0       ??1?$output_processor@_WV?$stream_output_adapter@_W@__crt_stdio_output@@V?$positional_parameter_base@_WV?$stream_output_adapter@_W@__crt_stdio_output@@@2@@__crt_stdio_output@@QAE@XZ 100576a0 f i libucrtd:output.obj
 0001:000566c0       ??1?$output_processor@_WV?$stream_output_adapter@_W@__crt_stdio_output@@V?$standard_base@_WV?$stream_output_adapter@_W@__crt_stdio_output@@@2@@__crt_stdio_output@@QAE@XZ 100576c0 f i libucrtd:output.obj
 0001:000566e0       ??1?$output_processor@_WV?$string_output_adapter@_W@__crt_stdio_output@@V?$format_validation_base@_WV?$string_output_adapter@_W@__crt_stdio_output@@@2@@__crt_stdio_output@@QAE@XZ 100576e0 f i libucrtd:output.obj
 0001:00056700       ??1?$output_processor@_WV?$string_output_adapter@_W@__crt_stdio_output@@V?$positional_parameter_base@_WV?$string_output_adapter@_W@__crt_stdio_output@@@2@@__crt_stdio_output@@QAE@XZ 10057700 f i libucrtd:output.obj
 0001:00056720       ??1?$output_processor@_WV?$string_output_adapter@_W@__crt_stdio_output@@V?$standard_base@_WV?$string_output_adapter@_W@__crt_stdio_output@@@2@@__crt_stdio_output@@QAE@XZ 10057720 f i libucrtd:output.obj
 0001:00056740       ??1?$positional_parameter_base@DV?$stream_output_adapter@D@__crt_stdio_output@@@__crt_stdio_output@@QAE@XZ 10057740 f i libucrtd:output.obj
 0001:00056760       ??1?$positional_parameter_base@DV?$string_output_adapter@D@__crt_stdio_output@@@__crt_stdio_output@@QAE@XZ 10057760 f i libucrtd:output.obj
 0001:00056780       ??1?$positional_parameter_base@_WV?$stream_output_adapter@_W@__crt_stdio_output@@@__crt_stdio_output@@QAE@XZ 10057780 f i libucrtd:output.obj
 0001:000567a0       ??1?$positional_parameter_base@_WV?$string_output_adapter@_W@__crt_stdio_output@@@__crt_stdio_output@@QAE@XZ 100577a0 f i libucrtd:output.obj
 0001:000567c0       ??1?$standard_base@DV?$stream_output_adapter@D@__crt_stdio_output@@@__crt_stdio_output@@QAE@XZ 100577c0 f i libucrtd:output.obj
 0001:000567e0       ??1?$standard_base@DV?$string_output_adapter@D@__crt_stdio_output@@@__crt_stdio_output@@QAE@XZ 100577e0 f i libucrtd:output.obj
 0001:00056800       ??1?$standard_base@_WV?$stream_output_adapter@_W@__crt_stdio_output@@@__crt_stdio_output@@QAE@XZ 10057800 f i libucrtd:output.obj
 0001:00056820       ??1?$standard_base@_WV?$string_output_adapter@_W@__crt_stdio_output@@@__crt_stdio_output@@QAE@XZ 10057820 f i libucrtd:output.obj
 0001:00056840       ??1__acrt_stdio_temporary_buffering_guard@@QAE@XZ 10057840 f i libucrtd:output.obj
 0001:00056870       ??1__crt_cached_ptd_host@@QAE@XZ 10057870 f i libucrtd:output.obj
 0001:00056900       ??1__crt_scoped_get_last_error_reset@@QAE@XZ 10057900 f i libucrtd:output.obj
 0001:00056920       ??1formatting_buffer@__crt_stdio_output@@QAE@XZ 10057920 f i libucrtd:output.obj
 0001:00056940       ??1guard@?$cached@H@__crt_cached_ptd_host@@QAE@XZ 10057940 f i libucrtd:output.obj
 0001:00056970       ??4?$__crt_unique_heap_ptr@DU__crt_internal_free_policy@@@@QAEAAV0@$$QAV0@@Z 10057970 f i libucrtd:output.obj
 0001:000569a0       ??A?$spectre_mitigated_lookup_table@Ustate_transition_pair@__crt_stdio_output@@$0IA@@__crt_stdio_output@@QBEABUstate_transition_pair@1@I@Z 100579a0 f i libucrtd:output.obj
 0001:000569c0       ??C__crt_stdio_stream@@QBEPAU__crt_stdio_stream_data@@XZ 100579c0 f i libucrtd:output.obj
 0001:00057220       ?adjust_hexit@?$output_processor@DV?$stream_output_adapter@D@__crt_stdio_output@@V?$format_validation_base@DV?$stream_output_adapter@D@__crt_stdio_output@@@2@@__crt_stdio_output@@CADH_N@Z 10058220 f i libucrtd:output.obj
 0001:00057260       ?adjust_hexit@?$output_processor@DV?$stream_output_adapter@D@__crt_stdio_output@@V?$positional_parameter_base@DV?$stream_output_adapter@D@__crt_stdio_output@@@2@@__crt_stdio_output@@CADH_N@Z 10058260 f i libucrtd:output.obj
 0001:000572a0       ?adjust_hexit@?$output_processor@DV?$stream_output_adapter@D@__crt_stdio_output@@V?$standard_base@DV?$stream_output_adapter@D@__crt_stdio_output@@@2@@__crt_stdio_output@@CADH_N@Z 100582a0 f i libucrtd:output.obj
 0001:000572e0       ?adjust_hexit@?$output_processor@DV?$string_output_adapter@D@__crt_stdio_output@@V?$format_validation_base@DV?$string_output_adapter@D@__crt_stdio_output@@@2@@__crt_stdio_output@@CADH_N@Z 100582e0 f i libucrtd:output.obj
 0001:00057320       ?adjust_hexit@?$output_processor@DV?$string_output_adapter@D@__crt_stdio_output@@V?$positional_parameter_base@DV?$string_output_adapter@D@__crt_stdio_output@@@2@@__crt_stdio_output@@CADH_N@Z 10058320 f i libucrtd:output.obj
 0001:00057360       ?adjust_hexit@?$output_processor@DV?$string_output_adapter@D@__crt_stdio_output@@V?$standard_base@DV?$string_output_adapter@D@__crt_stdio_output@@@2@@__crt_stdio_output@@CADH_N@Z 10058360 f i libucrtd:output.obj
 0001:000573a0       ?adjust_hexit@?$output_processor@_WV?$stream_output_adapter@_W@__crt_stdio_output@@V?$format_validation_base@_WV?$stream_output_adapter@_W@__crt_stdio_output@@@2@@__crt_stdio_output@@CADH_N@Z 100583a0 f i libucrtd:output.obj
 0001:000573e0       ?adjust_hexit@?$output_processor@_WV?$stream_output_adapter@_W@__crt_stdio_output@@V?$positional_parameter_base@_WV?$stream_output_adapter@_W@__crt_stdio_output@@@2@@__crt_stdio_output@@CADH_N@Z 100583e0 f i libucrtd:output.obj
 0001:00057420       ?adjust_hexit@?$output_processor@_WV?$stream_output_adapter@_W@__crt_stdio_output@@V?$standard_base@_WV?$stream_output_adapter@_W@__crt_stdio_output@@@2@@__crt_stdio_output@@CADH_N@Z 10058420 f i libucrtd:output.obj
 0001:00057460       ?adjust_hexit@?$output_processor@_WV?$string_output_adapter@_W@__crt_stdio_output@@V?$format_validation_base@_WV?$string_output_adapter@_W@__crt_stdio_output@@@2@@__crt_stdio_output@@CADH_N@Z 10058460 f i libucrtd:output.obj
 0001:000574a0       ?adjust_hexit@?$output_processor@_WV?$string_output_adapter@_W@__crt_stdio_output@@V?$positional_parameter_base@_WV?$string_output_adapter@_W@__crt_stdio_output@@@2@@__crt_stdio_output@@CADH_N@Z 100584a0 f i libucrtd:output.obj
 0001:000574e0       ?adjust_hexit@?$output_processor@_WV?$string_output_adapter@_W@__crt_stdio_output@@V?$standard_base@_WV?$string_output_adapter@_W@__crt_stdio_output@@@2@@__crt_stdio_output@@CADH_N@Z 100584e0 f i libucrtd:output.obj
 0001:00057520       ?advance_to_next_pass@?$positional_parameter_base@DV?$stream_output_adapter@D@__crt_stdio_output@@@__crt_stdio_output@@IAE_NXZ 10058520 f i libucrtd:output.obj
 0001:000575c0       ?advance_to_next_pass@?$positional_parameter_base@DV?$string_output_adapter@D@__crt_stdio_output@@@__crt_stdio_output@@IAE_NXZ 100585c0 f i libucrtd:output.obj
 0001:00057660       ?advance_to_next_pass@?$positional_parameter_base@_WV?$stream_output_adapter@_W@__crt_stdio_output@@@__crt_stdio_output@@IAE_NXZ 10058660 f i libucrtd:output.obj
 0001:00057700       ?advance_to_next_pass@?$positional_parameter_base@_WV?$string_output_adapter@_W@__crt_stdio_output@@@__crt_stdio_output@@IAE_NXZ 10058700 f i libucrtd:output.obj
 0001:000577a0       ?advance_to_next_pass@?$standard_base@DV?$stream_output_adapter@D@__crt_stdio_output@@@__crt_stdio_output@@IAE_NXZ 100587a0 f i libucrtd:output.obj
 0001:000577f0       ?advance_to_next_pass@?$standard_base@DV?$string_output_adapter@D@__crt_stdio_output@@@__crt_stdio_output@@IAE_NXZ 100587f0 f i libucrtd:output.obj
 0001:00057840       ?advance_to_next_pass@?$standard_base@_WV?$stream_output_adapter@_W@__crt_stdio_output@@@__crt_stdio_output@@IAE_NXZ 10058840 f i libucrtd:output.obj
 0001:00057890       ?advance_to_next_pass@?$standard_base@_WV?$string_output_adapter@_W@__crt_stdio_output@@@__crt_stdio_output@@IAE_NXZ 10058890 f i libucrtd:output.obj
 0001:000578e0       ?check@?$cached@H@__crt_cached_ptd_host@@QBE_NH@Z 100588e0 f i libucrtd:output.obj
 0001:00057920       ?check_synchronize_global_state_index@__crt_cached_ptd_host@@AAEIABV__crt_scoped_get_last_error_reset@@@Z 10058920 f i libucrtd:output.obj
 0001:00057950       ?check_synchronize_per_thread_data@__crt_cached_ptd_host@@AAEPAU__acrt_ptd@@XZ 10058950 f i libucrtd:output.obj
 0001:00057980       ?create_guard@?$cached@H@__crt_cached_ptd_host@@QAE?AVguard@12@XZ 10058980 f i libucrtd:output.obj
 0001:000579a0       ?crop_zeroes@__crt_stdio_output@@YAXPADQAU__crt_locale_pointers@@@Z 100589a0 f i libucrtd:output.obj
 0001:00057aa0       ?disable@guard@?$cached@H@__crt_cached_ptd_host@@QAEXXZ 10058aa0 f i libucrtd:output.obj
 0001:00057ac0       ?enable@guard@?$cached@H@__crt_cached_ptd_host@@QAEXXZ 10058ac0 f i libucrtd:output.obj
 0001:00057ae0       ?find_next_state@?$output_processor@DV?$stream_output_adapter@D@__crt_stdio_output@@V?$format_validation_base@DV?$stream_output_adapter@D@__crt_stdio_output@@@2@@__crt_stdio_output@@ABE?AW4state@2@DW432@@Z 10058ae0 f i libucrtd:output.obj
 0001:00057b80       ?find_next_state@?$output_processor@DV?$stream_output_adapter@D@__crt_stdio_output@@V?$positional_parameter_base@DV?$stream_output_adapter@D@__crt_stdio_output@@@2@@__crt_stdio_output@@ABE?AW4state@2@DW432@@Z 10058b80 f i libucrtd:output.obj
 0001:00057c20       ?find_next_state@?$output_processor@DV?$stream_output_adapter@D@__crt_stdio_output@@V?$standard_base@DV?$stream_output_adapter@D@__crt_stdio_output@@@2@@__crt_stdio_output@@ABE?AW4state@2@DW432@@Z 10058c20 f i libucrtd:output.obj
 0001:00057cc0       ?find_next_state@?$output_processor@DV?$string_output_adapter@D@__crt_stdio_output@@V?$format_validation_base@DV?$string_output_adapter@D@__crt_stdio_output@@@2@@__crt_stdio_output@@ABE?AW4state@2@DW432@@Z 10058cc0 f i libucrtd:output.obj
 0001:00057d60       ?find_next_state@?$output_processor@DV?$string_output_adapter@D@__crt_stdio_output@@V?$positional_parameter_base@DV?$string_output_adapter@D@__crt_stdio_output@@@2@@__crt_stdio_output@@ABE?AW4state@2@DW432@@Z 10058d60 f i libucrtd:output.obj
 0001:00057e00       ?find_next_state@?$output_processor@DV?$string_output_adapter@D@__crt_stdio_output@@V?$standard_base@DV?$string_output_adapter@D@__crt_stdio_output@@@2@@__crt_stdio_output@@ABE?AW4state@2@DW432@@Z 10058e00 f i libucrtd:output.obj
 0001:00057ea0       ?find_next_state@?$output_processor@_WV?$stream_output_adapter@_W@__crt_stdio_output@@V?$format_validation_base@_WV?$stream_output_adapter@_W@__crt_stdio_output@@@2@@__crt_stdio_output@@ABE?AW4state@2@_WW432@@Z 10058ea0 f i libucrtd:output.obj
 0001:00057f40       ?find_next_state@?$output_processor@_WV?$stream_output_adapter@_W@__crt_stdio_output@@V?$positional_parameter_base@_WV?$stream_output_adapter@_W@__crt_stdio_output@@@2@@__crt_stdio_output@@ABE?AW4state@2@_WW432@@Z 10058f40 f i libucrtd:output.obj
 0001:00057fe0       ?find_next_state@?$output_processor@_WV?$stream_output_adapter@_W@__crt_stdio_output@@V?$standard_base@_WV?$stream_output_adapter@_W@__crt_stdio_output@@@2@@__crt_stdio_output@@ABE?AW4state@2@_WW432@@Z 10058fe0 f i libucrtd:output.obj
 0001:00058080       ?find_next_state@?$output_processor@_WV?$string_output_adapter@_W@__crt_stdio_output@@V?$format_validation_base@_WV?$string_output_adapter@_W@__crt_stdio_output@@@2@@__crt_stdio_output@@ABE?AW4state@2@_WW432@@Z 10059080 f i libucrtd:output.obj
 0001:00058120       ?find_next_state@?$output_processor@_WV?$string_output_adapter@_W@__crt_stdio_output@@V?$positional_parameter_base@_WV?$string_output_adapter@_W@__crt_stdio_output@@@2@@__crt_stdio_output@@ABE?AW4state@2@_WW432@@Z 10059120 f i libucrtd:output.obj
 0001:000581c0       ?find_next_state@?$output_processor@_WV?$string_output_adapter@_W@__crt_stdio_output@@V?$standard_base@_WV?$string_output_adapter@_W@__crt_stdio_output@@@2@@__crt_stdio_output@@ABE?AW4state@2@_WW432@@Z 100591c0 f i libucrtd:output.obj
 0001:00058260       ?force_decimal_point@__crt_stdio_output@@YAXPADQAU__crt_locale_pointers@@@Z 10059260 f i libucrtd:output.obj
 0001:00058330       ?force_synchronize_global_state_index@__crt_cached_ptd_host@@AAEIABV__crt_scoped_get_last_error_reset@@@Z 10059330 f i libucrtd:output.obj
 0001:00058360       ?force_synchronize_per_thread_data@__crt_cached_ptd_host@@AAEPAU__acrt_ptd@@XZ 10059360 f i libucrtd:output.obj
 0001:000583b0       ?get@?$c_string_character_source@D@__crt_strtox@@QAEDXZ 100593b0 f i libucrtd:output.obj
 0001:000583e0       ?get@?$c_string_character_source@_W@__crt_strtox@@QAE_WXZ 100593e0 f i libucrtd:output.obj
 0001:00058410       ?get_current_state_index@__crt_state_management@@YAIABV__crt_scoped_get_last_error_reset@@@Z 10059410 f i libucrtd:output.obj
 0001:00058420       ?get_errno@__crt_cached_ptd_host@@QAEAAU?$cached@H@1@XZ 10059420 f i libucrtd:output.obj
 0001:00058440       ?get_flags@__crt_stdio_stream@@QBEJXZ 10059440 f i libucrtd:output.obj
 0001:00058460       ?get_locale@__crt_cached_ptd_host@@QAEPAU__crt_locale_pointers@@XZ 10059460 f i libucrtd:output.obj
 0001:00058480       ?get_parameter_type@?$positional_parameter_base@DV?$stream_output_adapter@D@__crt_stdio_output@@@__crt_stdio_output@@CA?AW4parameter_type@12@F@Z 10059480 f i libucrtd:output.obj
 0001:00058490       ?get_parameter_type@?$positional_parameter_base@DV?$stream_output_adapter@D@__crt_stdio_output@@@__crt_stdio_output@@CA?AW4parameter_type@12@G@Z 10059490 f i libucrtd:output.obj
 0001:000584a0       ?get_parameter_type@?$positional_parameter_base@DV?$stream_output_adapter@D@__crt_stdio_output@@@__crt_stdio_output@@CA?AW4parameter_type@12@H@Z 100594a0 f i libucrtd:output.obj
 0001:000584b0       ?get_parameter_type@?$positional_parameter_base@DV?$stream_output_adapter@D@__crt_stdio_output@@@__crt_stdio_output@@CA?AW4parameter_type@12@I@Z 100594b0 f i libucrtd:output.obj
 0001:000584c0       ?get_parameter_type@?$positional_parameter_base@DV?$stream_output_adapter@D@__crt_stdio_output@@@__crt_stdio_output@@CA?AW4parameter_type@12@U_CRT_DOUBLE@@@Z 100594c0 f i libucrtd:output.obj
 0001:000584d0       ?get_parameter_type@?$positional_parameter_base@DV?$stream_output_adapter@D@__crt_stdio_output@@@__crt_stdio_output@@CA?AW4parameter_type@12@_J@Z 100594d0 f i libucrtd:output.obj
 0001:000584e0       ?get_parameter_type@?$positional_parameter_base@DV?$stream_output_adapter@D@__crt_stdio_output@@@__crt_stdio_output@@CA?AW4parameter_type@12@_K@Z 100594e0 f i libucrtd:output.obj
 0001:000584f0       ?get_parameter_type@?$positional_parameter_base@DV?$stream_output_adapter@D@__crt_stdio_output@@@__crt_stdio_output@@CA?AW4parameter_type@12@_W@Z 100594f0 f i libucrtd:output.obj
 0001:00058500       ?get_parameter_type@?$positional_parameter_base@DV?$string_output_adapter@D@__crt_stdio_output@@@__crt_stdio_output@@CA?AW4parameter_type@12@F@Z 10059500 f i libucrtd:output.obj
 0001:00058510       ?get_parameter_type@?$positional_parameter_base@DV?$string_output_adapter@D@__crt_stdio_output@@@__crt_stdio_output@@CA?AW4parameter_type@12@G@Z 10059510 f i libucrtd:output.obj
 0001:00058520       ?get_parameter_type@?$positional_parameter_base@DV?$string_output_adapter@D@__crt_stdio_output@@@__crt_stdio_output@@CA?AW4parameter_type@12@H@Z 10059520 f i libucrtd:output.obj
 0001:00058530       ?get_parameter_type@?$positional_parameter_base@DV?$string_output_adapter@D@__crt_stdio_output@@@__crt_stdio_output@@CA?AW4parameter_type@12@I@Z 10059530 f i libucrtd:output.obj
 0001:00058540       ?get_parameter_type@?$positional_parameter_base@DV?$string_output_adapter@D@__crt_stdio_output@@@__crt_stdio_output@@CA?AW4parameter_type@12@U_CRT_DOUBLE@@@Z 10059540 f i libucrtd:output.obj
 0001:00058550       ?get_parameter_type@?$positional_parameter_base@DV?$string_output_adapter@D@__crt_stdio_output@@@__crt_stdio_output@@CA?AW4parameter_type@12@_J@Z 10059550 f i libucrtd:output.obj
 0001:00058560       ?get_parameter_type@?$positional_parameter_base@DV?$string_output_adapter@D@__crt_stdio_output@@@__crt_stdio_output@@CA?AW4parameter_type@12@_K@Z 10059560 f i libucrtd:output.obj
 0001:00058570       ?get_parameter_type@?$positional_parameter_base@DV?$string_output_adapter@D@__crt_stdio_output@@@__crt_stdio_output@@CA?AW4parameter_type@12@_W@Z 10059570 f i libucrtd:output.obj
 0001:00058580       ?get_parameter_type@?$positional_parameter_base@_WV?$stream_output_adapter@_W@__crt_stdio_output@@@__crt_stdio_output@@CA?AW4parameter_type@12@F@Z 10059580 f i libucrtd:output.obj
 0001:00058590       ?get_parameter_type@?$positional_parameter_base@_WV?$stream_output_adapter@_W@__crt_stdio_output@@@__crt_stdio_output@@CA?AW4parameter_type@12@G@Z 10059590 f i libucrtd:output.obj
 0001:000585a0       ?get_parameter_type@?$positional_parameter_base@_WV?$stream_output_adapter@_W@__crt_stdio_output@@@__crt_stdio_output@@CA?AW4parameter_type@12@H@Z 100595a0 f i libucrtd:output.obj
 0001:000585b0       ?get_parameter_type@?$positional_parameter_base@_WV?$stream_output_adapter@_W@__crt_stdio_output@@@__crt_stdio_output@@CA?AW4parameter_type@12@I@Z 100595b0 f i libucrtd:output.obj
 0001:000585c0       ?get_parameter_type@?$positional_parameter_base@_WV?$stream_output_adapter@_W@__crt_stdio_output@@@__crt_stdio_output@@CA?AW4parameter_type@12@U_CRT_DOUBLE@@@Z 100595c0 f i libucrtd:output.obj
 0001:000585d0       ?get_parameter_type@?$positional_parameter_base@_WV?$stream_output_adapter@_W@__crt_stdio_output@@@__crt_stdio_output@@CA?AW4parameter_type@12@_J@Z 100595d0 f i libucrtd:output.obj
 0001:000585e0       ?get_parameter_type@?$positional_parameter_base@_WV?$stream_output_adapter@_W@__crt_stdio_output@@@__crt_stdio_output@@CA?AW4parameter_type@12@_K@Z 100595e0 f i libucrtd:output.obj
 0001:000585f0       ?get_parameter_type@?$positional_parameter_base@_WV?$stream_output_adapter@_W@__crt_stdio_output@@@__crt_stdio_output@@CA?AW4parameter_type@12@_W@Z 100595f0 f i libucrtd:output.obj
 0001:00058600       ?get_parameter_type@?$positional_parameter_base@_WV?$string_output_adapter@_W@__crt_stdio_output@@@__crt_stdio_output@@CA?AW4parameter_type@12@F@Z 10059600 f i libucrtd:output.obj
 0001:00058610       ?get_parameter_type@?$positional_parameter_base@_WV?$string_output_adapter@_W@__crt_stdio_output@@@__crt_stdio_output@@CA?AW4parameter_type@12@G@Z 10059610 f i libucrtd:output.obj
 0001:00058620       ?get_parameter_type@?$positional_parameter_base@_WV?$string_output_adapter@_W@__crt_stdio_output@@@__crt_stdio_output@@CA?AW4parameter_type@12@H@Z 10059620 f i libucrtd:output.obj
 0001:00058630       ?get_parameter_type@?$positional_parameter_base@_WV?$string_output_adapter@_W@__crt_stdio_output@@@__crt_stdio_output@@CA?AW4parameter_type@12@I@Z 10059630 f i libucrtd:output.obj
 0001:00058640       ?get_parameter_type@?$positional_parameter_base@_WV?$string_output_adapter@_W@__crt_stdio_output@@@__crt_stdio_output@@CA?AW4parameter_type@12@U_CRT_DOUBLE@@@Z 10059640 f i libucrtd:output.obj
 0001:00058650       ?get_parameter_type@?$positional_parameter_base@_WV?$string_output_adapter@_W@__crt_stdio_output@@@__crt_stdio_output@@CA?AW4parameter_type@12@_J@Z 10059650 f i libucrtd:output.obj
 0001:00058660       ?get_parameter_type@?$positional_parameter_base@_WV?$string_output_adapter@_W@__crt_stdio_output@@@__crt_stdio_output@@CA?AW4parameter_type@12@_K@Z 10059660 f i libucrtd:output.obj
 0001:00058670       ?get_parameter_type@?$positional_parameter_base@_WV?$string_output_adapter@_W@__crt_stdio_output@@@__crt_stdio_output@@CA?AW4parameter_type@12@_W@Z 10059670 f i libucrtd:output.obj
 0001:00058680       ?get_raw_ptd@__crt_cached_ptd_host@@QAEPAU__acrt_ptd@@XZ 10059680 f i libucrtd:output.obj
 0001:000586a0       ?has_flag@?$output_processor@DV?$stream_output_adapter@D@__crt_stdio_output@@V?$format_validation_base@DV?$stream_output_adapter@D@__crt_stdio_output@@@2@@__crt_stdio_output@@ABE_NI@Z 100596a0 f i libucrtd:output.obj
 0001:000586d0       ?has_flag@?$output_processor@DV?$stream_output_adapter@D@__crt_stdio_output@@V?$positional_parameter_base@DV?$stream_output_adapter@D@__crt_stdio_output@@@2@@__crt_stdio_output@@ABE_NI@Z 100596d0 f i libucrtd:output.obj
 0001:00058700       ?has_flag@?$output_processor@DV?$stream_output_adapter@D@__crt_stdio_output@@V?$standard_base@DV?$stream_output_adapter@D@__crt_stdio_output@@@2@@__crt_stdio_output@@ABE_NI@Z 10059700 f i libucrtd:output.obj
 0001:00058730       ?has_flag@?$output_processor@DV?$string_output_adapter@D@__crt_stdio_output@@V?$format_validation_base@DV?$string_output_adapter@D@__crt_stdio_output@@@2@@__crt_stdio_output@@ABE_NI@Z 10059730 f i libucrtd:output.obj
 0001:00058760       ?has_flag@?$output_processor@DV?$string_output_adapter@D@__crt_stdio_output@@V?$positional_parameter_base@DV?$string_output_adapter@D@__crt_stdio_output@@@2@@__crt_stdio_output@@ABE_NI@Z 10059760 f i libucrtd:output.obj
 0001:00058790       ?has_flag@?$output_processor@DV?$string_output_adapter@D@__crt_stdio_output@@V?$standard_base@DV?$string_output_adapter@D@__crt_stdio_output@@@2@@__crt_stdio_output@@ABE_NI@Z 10059790 f i libucrtd:output.obj
 0001:000587c0       ?has_flag@?$output_processor@_WV?$stream_output_adapter@_W@__crt_stdio_output@@V?$format_validation_base@_WV?$stream_output_adapter@_W@__crt_stdio_output@@@2@@__crt_stdio_output@@ABE_NI@Z 100597c0 f i libucrtd:output.obj
 0001:000587f0       ?has_flag@?$output_processor@_WV?$stream_output_adapter@_W@__crt_stdio_output@@V?$positional_parameter_base@_WV?$stream_output_adapter@_W@__crt_stdio_output@@@2@@__crt_stdio_output@@ABE_NI@Z 100597f0 f i libucrtd:output.obj
 0001:00058820       ?has_flag@?$output_processor@_WV?$stream_output_adapter@_W@__crt_stdio_output@@V?$standard_base@_WV?$stream_output_adapter@_W@__crt_stdio_output@@@2@@__crt_stdio_output@@ABE_NI@Z 10059820 f i libucrtd:output.obj
 0001:00058850       ?has_flag@?$output_processor@_WV?$string_output_adapter@_W@__crt_stdio_output@@V?$format_validation_base@_WV?$string_output_adapter@_W@__crt_stdio_output@@@2@@__crt_stdio_output@@ABE_NI@Z 10059850 f i libucrtd:output.obj
 0001:00058880       ?has_flag@?$output_processor@_WV?$string_output_adapter@_W@__crt_stdio_output@@V?$positional_parameter_base@_WV?$string_output_adapter@_W@__crt_stdio_output@@@2@@__crt_stdio_output@@ABE_NI@Z 10059880 f i libucrtd:output.obj
 0001:000588b0       ?has_flag@?$output_processor@_WV?$string_output_adapter@_W@__crt_stdio_output@@V?$standard_base@_WV?$string_output_adapter@_W@__crt_stdio_output@@@2@@__crt_stdio_output@@ABE_NI@Z 100598b0 f i libucrtd:output.obj
 0001:000588e0       ?is_positional_parameter_reappearance_consistent@?$positional_parameter_base@DV?$stream_output_adapter@D@__crt_stdio_output@@@__crt_stdio_output@@AAE_NABUparameter_data@12@W4parameter_type@12@DW4length_modifier@2@@Z 100598e0 f i libucrtd:output.obj
 0001:00058b10       ?is_positional_parameter_reappearance_consistent@?$positional_parameter_base@DV?$string_output_adapter@D@__crt_stdio_output@@@__crt_stdio_output@@AAE_NABUparameter_data@12@W4parameter_type@12@DW4length_modifier@2@@Z 10059b10 f i libucrtd:output.obj
 0001:00058d40       ?is_positional_parameter_reappearance_consistent@?$positional_parameter_base@_WV?$stream_output_adapter@_W@__crt_stdio_output@@@__crt_stdio_output@@AAE_NABUparameter_data@12@W4parameter_type@12@_WW4length_modifier@2@@Z 10059d40 f i libucrtd:output.obj
 0001:00058f70       ?is_positional_parameter_reappearance_consistent@?$positional_parameter_base@_WV?$string_output_adapter@_W@__crt_stdio_output@@@__crt_stdio_output@@AAE_NABUparameter_data@12@W4parameter_type@12@_WW4length_modifier@2@@Z 10059f70 f i libucrtd:output.obj
 0001:000591a0       ?is_string_backed@__crt_stdio_stream@@QBE_NXZ 1005a1a0 f i libucrtd:output.obj
 0001:000591e0       ?maximum_signed_value@__crt_strtox@@YAJK@Z 1005a1e0 f i libucrtd:output.obj
 0001:000591f0       ?minimum_signed_value@__crt_strtox@@YAJK@Z 1005a1f0 f i libucrtd:output.obj
 0001:00059200       ?narrow_null_string@?$output_processor@DV?$stream_output_adapter@D@__crt_stdio_output@@V?$format_validation_base@DV?$stream_output_adapter@D@__crt_stdio_output@@@2@@__crt_stdio_output@@CAPADXZ 1005a200 f i libucrtd:output.obj
 0001:00059210       ?narrow_null_string@?$output_processor@DV?$stream_output_adapter@D@__crt_stdio_output@@V?$positional_parameter_base@DV?$stream_output_adapter@D@__crt_stdio_output@@@2@@__crt_stdio_output@@CAPADXZ 1005a210 f i libucrtd:output.obj
 0001:00059220       ?narrow_null_string@?$output_processor@DV?$stream_output_adapter@D@__crt_stdio_output@@V?$standard_base@DV?$stream_output_adapter@D@__crt_stdio_output@@@2@@__crt_stdio_output@@CAPADXZ 1005a220 f i libucrtd:output.obj
 0001:00059230       ?narrow_null_string@?$output_processor@DV?$string_output_adapter@D@__crt_stdio_output@@V?$format_validation_base@DV?$string_output_adapter@D@__crt_stdio_output@@@2@@__crt_stdio_output@@CAPADXZ 1005a230 f i libucrtd:output.obj
 0001:00059240       ?narrow_null_string@?$output_processor@DV?$string_output_adapter@D@__crt_stdio_output@@V?$positional_parameter_base@DV?$string_output_adapter@D@__crt_stdio_output@@@2@@__crt_stdio_output@@CAPADXZ 1005a240 f i libucrtd:output.obj
 0001:00059250       ?narrow_null_string@?$output_processor@DV?$string_output_adapter@D@__crt_stdio_output@@V?$standard_base@DV?$string_output_adapter@D@__crt_stdio_output@@@2@@__crt_stdio_output@@CAPADXZ 1005a250 f i libucrtd:output.obj
 0001:00059260       ?narrow_null_string@?$output_processor@_WV?$stream_output_adapter@_W@__crt_stdio_output@@V?$format_validation_base@_WV?$stream_output_adapter@_W@__crt_stdio_output@@@2@@__crt_stdio_output@@CAPADXZ 1005a260 f i libucrtd:output.obj
 0001:00059270       ?narrow_null_string@?$output_processor@_WV?$stream_output_adapter@_W@__crt_stdio_output@@V?$positional_parameter_base@_WV?$stream_output_adapter@_W@__crt_stdio_output@@@2@@__crt_stdio_output@@CAPADXZ 1005a270 f i libucrtd:output.obj
 0001:00059280       ?narrow_null_string@?$output_processor@_WV?$stream_output_adapter@_W@__crt_stdio_output@@V?$standard_base@_WV?$stream_output_adapter@_W@__crt_stdio_output@@@2@@__crt_stdio_output@@CAPADXZ 1005a280 f i libucrtd:output.obj
 0001:00059290       ?narrow_null_string@?$output_processor@_WV?$string_output_adapter@_W@__crt_stdio_output@@V?$format_validation_base@_WV?$string_output_adapter@_W@__crt_stdio_output@@@2@@__crt_stdio_output@@CAPADXZ 1005a290 f i libucrtd:output.obj
 0001:000592a0       ?narrow_null_string@?$output_processor@_WV?$string_output_adapter@_W@__crt_stdio_output@@V?$positional_parameter_base@_WV?$string_output_adapter@_W@__crt_stdio_output@@@2@@__crt_stdio_output@@CAPADXZ 1005a2a0 f i libucrtd:output.obj
 0001:000592b0       ?narrow_null_string@?$output_processor@_WV?$string_output_adapter@_W@__crt_stdio_output@@V?$standard_base@_WV?$string_output_adapter@_W@__crt_stdio_output@@@2@@__crt_stdio_output@@CAPADXZ 1005a2b0 f i libucrtd:output.obj
 0001:000592c0       ?parse_digit@__crt_strtox@@YAID@Z 1005a2c0 f i libucrtd:output.obj
 0001:00059320       ?parse_digit@__crt_strtox@@YAI_W@Z 1005a320 f i libucrtd:output.obj
 0001:00059370       ?parse_int_from_format_string@?$output_processor@DV?$stream_output_adapter@D@__crt_stdio_output@@V?$format_validation_base@DV?$stream_output_adapter@D@__crt_stdio_output@@@2@@__crt_stdio_output@@AAE_NQAH@Z 1005a370 f i libucrtd:output.obj
 0001:00059430       ?parse_int_from_format_string@?$output_processor@DV?$stream_output_adapter@D@__crt_stdio_output@@V?$positional_parameter_base@DV?$stream_output_adapter@D@__crt_stdio_output@@@2@@__crt_stdio_output@@AAE_NQAH@Z 1005a430 f i libucrtd:output.obj
 0001:000594f0       ?parse_int_from_format_string@?$output_processor@DV?$stream_output_adapter@D@__crt_stdio_output@@V?$standard_base@DV?$stream_output_adapter@D@__crt_stdio_output@@@2@@__crt_stdio_output@@AAE_NQAH@Z 1005a4f0 f i libucrtd:output.obj
 0001:000595b0       ?parse_int_from_format_string@?$output_processor@DV?$string_output_adapter@D@__crt_stdio_output@@V?$format_validation_base@DV?$string_output_adapter@D@__crt_stdio_output@@@2@@__crt_stdio_output@@AAE_NQAH@Z 1005a5b0 f i libucrtd:output.obj
 0001:00059670       ?parse_int_from_format_string@?$output_processor@DV?$string_output_adapter@D@__crt_stdio_output@@V?$positional_parameter_base@DV?$string_output_adapter@D@__crt_stdio_output@@@2@@__crt_stdio_output@@AAE_NQAH@Z 1005a670 f i libucrtd:output.obj
 0001:00059730       ?parse_int_from_format_string@?$output_processor@DV?$string_output_adapter@D@__crt_stdio_output@@V?$standard_base@DV?$string_output_adapter@D@__crt_stdio_output@@@2@@__crt_stdio_output@@AAE_NQAH@Z 1005a730 f i libucrtd:output.obj
 0001:000597f0       ?parse_int_from_format_string@?$output_processor@_WV?$stream_output_adapter@_W@__crt_stdio_output@@V?$format_validation_base@_WV?$stream_output_adapter@_W@__crt_stdio_output@@@2@@__crt_stdio_output@@AAE_NQAH@Z 1005a7f0 f i libucrtd:output.obj
 0001:000598b0       ?parse_int_from_format_string@?$output_processor@_WV?$stream_output_adapter@_W@__crt_stdio_output@@V?$positional_parameter_base@_WV?$stream_output_adapter@_W@__crt_stdio_output@@@2@@__crt_stdio_output@@AAE_NQAH@Z 1005a8b0 f i libucrtd:output.obj
 0001:00059970       ?parse_int_from_format_string@?$output_processor@_WV?$stream_output_adapter@_W@__crt_stdio_output@@V?$standard_base@_WV?$stream_output_adapter@_W@__crt_stdio_output@@@2@@__crt_stdio_output@@AAE_NQAH@Z 1005a970 f i libucrtd:output.obj
 0001:00059a30       ?parse_int_from_format_string@?$output_processor@_WV?$string_output_adapter@_W@__crt_stdio_output@@V?$format_validation_base@_WV?$string_output_adapter@_W@__crt_stdio_output@@@2@@__crt_stdio_output@@AAE_NQAH@Z 1005aa30 f i libucrtd:output.obj
 0001:00059af0       ?parse_int_from_format_string@?$output_processor@_WV?$string_output_adapter@_W@__crt_stdio_output@@V?$positional_parameter_base@_WV?$string_output_adapter@_W@__crt_stdio_output@@@2@@__crt_stdio_output@@AAE_NQAH@Z 1005aaf0 f i libucrtd:output.obj
 0001:00059bb0       ?parse_int_from_format_string@?$output_processor@_WV?$string_output_adapter@_W@__crt_stdio_output@@V?$standard_base@_WV?$string_output_adapter@_W@__crt_stdio_output@@@2@@__crt_stdio_output@@AAE_NQAH@Z 1005abb0 f i libucrtd:output.obj
 0001:00059c70       ?process@?$output_processor@DV?$stream_output_adapter@D@__crt_stdio_output@@V?$format_validation_base@DV?$stream_output_adapter@D@__crt_stdio_output@@@2@@__crt_stdio_output@@QAEHXZ 1005ac70 f i libucrtd:output.obj
 0001:00059f50       ?process@?$output_processor@DV?$stream_output_adapter@D@__crt_stdio_output@@V?$positional_parameter_base@DV?$stream_output_adapter@D@__crt_stdio_output@@@2@@__crt_stdio_output@@QAEHXZ 1005af50 f i libucrtd:output.obj
 0001:0005a230       ?process@?$output_processor@DV?$stream_output_adapter@D@__crt_stdio_output@@V?$standard_base@DV?$stream_output_adapter@D@__crt_stdio_output@@@2@@__crt_stdio_output@@QAEHXZ 1005b230 f i libucrtd:output.obj
 0001:0005a510       ?process@?$output_processor@DV?$string_output_adapter@D@__crt_stdio_output@@V?$format_validation_base@DV?$string_output_adapter@D@__crt_stdio_output@@@2@@__crt_stdio_output@@QAEHXZ 1005b510 f i libucrtd:output.obj
 0001:0005a7f0       ?process@?$output_processor@DV?$string_output_adapter@D@__crt_stdio_output@@V?$positional_parameter_base@DV?$string_output_adapter@D@__crt_stdio_output@@@2@@__crt_stdio_output@@QAEHXZ 1005b7f0 f i libucrtd:output.obj
 0001:0005aad0       ?process@?$output_processor@DV?$string_output_adapter@D@__crt_stdio_output@@V?$standard_base@DV?$string_output_adapter@D@__crt_stdio_output@@@2@@__crt_stdio_output@@QAEHXZ 1005bad0 f i libucrtd:output.obj
 0001:0005adb0       ?process@?$output_processor@_WV?$stream_output_adapter@_W@__crt_stdio_output@@V?$format_validation_base@_WV?$stream_output_adapter@_W@__crt_stdio_output@@@2@@__crt_stdio_output@@QAEHXZ 1005bdb0 f i libucrtd:output.obj
 0001:0005b090       ?process@?$output_processor@_WV?$stream_output_adapter@_W@__crt_stdio_output@@V?$positional_parameter_base@_WV?$stream_output_adapter@_W@__crt_stdio_output@@@2@@__crt_stdio_output@@QAEHXZ 1005c090 f i libucrtd:output.obj
 0001:0005b370       ?process@?$output_processor@_WV?$stream_output_adapter@_W@__crt_stdio_output@@V?$standard_base@_WV?$stream_output_adapter@_W@__crt_stdio_output@@@2@@__crt_stdio_output@@QAEHXZ 1005c370 f i libucrtd:output.obj
 0001:0005b650       ?process@?$output_processor@_WV?$string_output_adapter@_W@__crt_stdio_output@@V?$format_validation_base@_WV?$string_output_adapter@_W@__crt_stdio_output@@@2@@__crt_stdio_output@@QAEHXZ 1005c650 f i libucrtd:output.obj
 0001:0005b930       ?process@?$output_processor@_WV?$string_output_adapter@_W@__crt_stdio_output@@V?$positional_parameter_base@_WV?$string_output_adapter@_W@__crt_stdio_output@@@2@@__crt_stdio_output@@QAEHXZ 1005c930 f i libucrtd:output.obj
 0001:0005bc10       ?process@?$output_processor@_WV?$string_output_adapter@_W@__crt_stdio_output@@V?$standard_base@_WV?$string_output_adapter@_W@__crt_stdio_output@@@2@@__crt_stdio_output@@QAEHXZ 1005cc10 f i libucrtd:output.obj
 0001:0005bef0       ?public_stream@__crt_stdio_stream@@QBEPAU_iobuf@@XZ 1005cef0 f i libucrtd:output.obj
 0001:0005bf10       ?restore_state@?$c_string_character_source@D@__crt_strtox@@QAE_NQBD@Z 1005cf10 f i libucrtd:output.obj
 0001:0005bf30       ?restore_state@?$c_string_character_source@_W@__crt_strtox@@QAE_NQB_W@Z 1005cf30 f i libucrtd:output.obj
 0001:0005bf50       ?save_state@?$c_string_character_source@D@__crt_strtox@@QBEPBDXZ 1005cf50 f i libucrtd:output.obj
 0001:0005bf70       ?save_state@?$c_string_character_source@_W@__crt_strtox@@QBEPB_WXZ 1005cf70 f i libucrtd:output.obj
 0001:0005bf90       ?set@?$cached@H@__crt_cached_ptd_host@@QAEHH@Z 1005cf90 f i libucrtd:output.obj
 0001:0005bfc0       ?set_flag@?$output_processor@DV?$stream_output_adapter@D@__crt_stdio_output@@V?$format_validation_base@DV?$stream_output_adapter@D@__crt_stdio_output@@@2@@__crt_stdio_output@@AAEXI@Z 1005cfc0 f i libucrtd:output.obj
 0001:0005bfe0       ?set_flag@?$output_processor@DV?$stream_output_adapter@D@__crt_stdio_output@@V?$positional_parameter_base@DV?$stream_output_adapter@D@__crt_stdio_output@@@2@@__crt_stdio_output@@AAEXI@Z 1005cfe0 f i libucrtd:output.obj
 0001:0005c000       ?set_flag@?$output_processor@DV?$stream_output_adapter@D@__crt_stdio_output@@V?$standard_base@DV?$stream_output_adapter@D@__crt_stdio_output@@@2@@__crt_stdio_output@@AAEXI@Z 1005d000 f i libucrtd:output.obj
 0001:0005c020       ?set_flag@?$output_processor@DV?$string_output_adapter@D@__crt_stdio_output@@V?$format_validation_base@DV?$string_output_adapter@D@__crt_stdio_output@@@2@@__crt_stdio_output@@AAEXI@Z 1005d020 f i libucrtd:output.obj
 0001:0005c040       ?set_flag@?$output_processor@DV?$string_output_adapter@D@__crt_stdio_output@@V?$positional_parameter_base@DV?$string_output_adapter@D@__crt_stdio_output@@@2@@__crt_stdio_output@@AAEXI@Z 1005d040 f i libucrtd:output.obj
 0001:0005c060       ?set_flag@?$output_processor@DV?$string_output_adapter@D@__crt_stdio_output@@V?$standard_base@DV?$string_output_adapter@D@__crt_stdio_output@@@2@@__crt_stdio_output@@AAEXI@Z 1005d060 f i libucrtd:output.obj
 0001:0005c080       ?set_flag@?$output_processor@_WV?$stream_output_adapter@_W@__crt_stdio_output@@V?$format_validation_base@_WV?$stream_output_adapter@_W@__crt_stdio_output@@@2@@__crt_stdio_output@@AAEXI@Z 1005d080 f i libucrtd:output.obj
 0001:0005c0a0       ?set_flag@?$output_processor@_WV?$stream_output_adapter@_W@__crt_stdio_output@@V?$positional_parameter_base@_WV?$stream_output_adapter@_W@__crt_stdio_output@@@2@@__crt_stdio_output@@AAEXI@Z 1005d0a0 f i libucrtd:output.obj
 0001:0005c0c0       ?set_flag@?$output_processor@_WV?$stream_output_adapter@_W@__crt_stdio_output@@V?$standard_base@_WV?$stream_output_adapter@_W@__crt_stdio_output@@@2@@__crt_stdio_output@@AAEXI@Z 1005d0c0 f i libucrtd:output.obj
 0001:0005c0e0       ?set_flag@?$output_processor@_WV?$string_output_adapter@_W@__crt_stdio_output@@V?$format_validation_base@_WV?$string_output_adapter@_W@__crt_stdio_output@@@2@@__crt_stdio_output@@AAEXI@Z 1005d0e0 f i libucrtd:output.obj
 0001:0005c100       ?set_flag@?$output_processor@_WV?$string_output_adapter@_W@__crt_stdio_output@@V?$positional_parameter_base@_WV?$string_output_adapter@_W@__crt_stdio_output@@@2@@__crt_stdio_output@@AAEXI@Z 1005d100 f i libucrtd:output.obj
 0001:0005c120       ?set_flag@?$output_processor@_WV?$string_output_adapter@_W@__crt_stdio_output@@V?$standard_base@_WV?$string_output_adapter@_W@__crt_stdio_output@@@2@@__crt_stdio_output@@AAEXI@Z 1005d120 f i libucrtd:output.obj
 0001:0005c140       ?should_format@?$positional_parameter_base@DV?$stream_output_adapter@D@__crt_stdio_output@@@__crt_stdio_output@@IAE_NXZ 1005d140 f i libucrtd:output.obj
 0001:0005c180       ?should_format@?$positional_parameter_base@DV?$string_output_adapter@D@__crt_stdio_output@@@__crt_stdio_output@@IAE_NXZ 1005d180 f i libucrtd:output.obj
 0001:0005c1c0       ?should_format@?$positional_parameter_base@_WV?$stream_output_adapter@_W@__crt_stdio_output@@@__crt_stdio_output@@IAE_NXZ 1005d1c0 f i libucrtd:output.obj
 0001:0005c200       ?should_format@?$positional_parameter_base@_WV?$string_output_adapter@_W@__crt_stdio_output@@@__crt_stdio_output@@IAE_NXZ 1005d200 f i libucrtd:output.obj
 0001:0005c240       ?should_format@?$standard_base@DV?$stream_output_adapter@D@__crt_stdio_output@@@__crt_stdio_output@@IAE_NXZ 1005d240 f i libucrtd:output.obj
 0001:0005c250       ?should_format@?$standard_base@DV?$string_output_adapter@D@__crt_stdio_output@@@__crt_stdio_output@@IAE_NXZ 1005d250 f i libucrtd:output.obj
 0001:0005c260       ?should_format@?$standard_base@_WV?$stream_output_adapter@_W@__crt_stdio_output@@@__crt_stdio_output@@IAE_NXZ 1005d260 f i libucrtd:output.obj
 0001:0005c270       ?should_format@?$standard_base@_WV?$string_output_adapter@_W@__crt_stdio_output@@@__crt_stdio_output@@IAE_NXZ 1005d270 f i libucrtd:output.obj
 0001:0005c280       ?should_skip_normal_state_processing@?$positional_parameter_base@DV?$stream_output_adapter@D@__crt_stdio_output@@@__crt_stdio_output@@IAE_NXZ 1005d280 f i libucrtd:output.obj
 0001:0005c2d0       ?should_skip_normal_state_processing@?$positional_parameter_base@DV?$string_output_adapter@D@__crt_stdio_output@@@__crt_stdio_output@@IAE_NXZ 1005d2d0 f i libucrtd:output.obj
 0001:0005c320       ?should_skip_normal_state_processing@?$positional_parameter_base@_WV?$stream_output_adapter@_W@__crt_stdio_output@@@__crt_stdio_output@@IAE_NXZ 1005d320 f i libucrtd:output.obj
 0001:0005c370       ?should_skip_normal_state_processing@?$positional_parameter_base@_WV?$string_output_adapter@_W@__crt_stdio_output@@@__crt_stdio_output@@IAE_NXZ 1005d370 f i libucrtd:output.obj
 0001:0005c3c0       ?should_skip_normal_state_processing@?$standard_base@DV?$stream_output_adapter@D@__crt_stdio_output@@@__crt_stdio_output@@IAE_NXZ 1005d3c0 f i libucrtd:output.obj
 0001:0005c3d0       ?should_skip_normal_state_processing@?$standard_base@DV?$string_output_adapter@D@__crt_stdio_output@@@__crt_stdio_output@@IAE_NXZ 1005d3d0 f i libucrtd:output.obj
 0001:0005c3e0       ?should_skip_normal_state_processing@?$standard_base@_WV?$stream_output_adapter@_W@__crt_stdio_output@@@__crt_stdio_output@@IAE_NXZ 1005d3e0 f i libucrtd:output.obj
 0001:0005c3f0       ?should_skip_normal_state_processing@?$standard_base@_WV?$string_output_adapter@_W@__crt_stdio_output@@@__crt_stdio_output@@IAE_NXZ 1005d3f0 f i libucrtd:output.obj
 0001:0005c400       ?should_skip_type_state_output@?$positional_parameter_base@DV?$stream_output_adapter@D@__crt_stdio_output@@@__crt_stdio_output@@IBE_NXZ 1005d400 f i libucrtd:output.obj
 0001:0005c440       ?should_skip_type_state_output@?$positional_parameter_base@DV?$string_output_adapter@D@__crt_stdio_output@@@__crt_stdio_output@@IBE_NXZ 1005d440 f i libucrtd:output.obj
 0001:0005c480       ?should_skip_type_state_output@?$positional_parameter_base@_WV?$stream_output_adapter@_W@__crt_stdio_output@@@__crt_stdio_output@@IBE_NXZ 1005d480 f i libucrtd:output.obj
 0001:0005c4c0       ?should_skip_type_state_output@?$positional_parameter_base@_WV?$string_output_adapter@_W@__crt_stdio_output@@@__crt_stdio_output@@IBE_NXZ 1005d4c0 f i libucrtd:output.obj
 0001:0005c500       ?should_skip_type_state_output@?$standard_base@DV?$stream_output_adapter@D@__crt_stdio_output@@@__crt_stdio_output@@IBE_NXZ 1005d500 f i libucrtd:output.obj
 0001:0005c510       ?should_skip_type_state_output@?$standard_base@DV?$string_output_adapter@D@__crt_stdio_output@@@__crt_stdio_output@@IBE_NXZ 1005d510 f i libucrtd:output.obj
 0001:0005c520       ?should_skip_type_state_output@?$standard_base@_WV?$stream_output_adapter@_W@__crt_stdio_output@@@__crt_stdio_output@@IBE_NXZ 1005d520 f i libucrtd:output.obj
 0001:0005c530       ?should_skip_type_state_output@?$standard_base@_WV?$string_output_adapter@_W@__crt_stdio_output@@@__crt_stdio_output@@IBE_NXZ 1005d530 f i libucrtd:output.obj
 0001:0005c540       ?state_case_dot@?$output_processor@DV?$stream_output_adapter@D@__crt_stdio_output@@V?$format_validation_base@DV?$stream_output_adapter@D@__crt_stdio_output@@@2@@__crt_stdio_output@@AAE_NXZ 1005d540 f i libucrtd:output.obj
 0001:0005c560       ?state_case_dot@?$output_processor@DV?$stream_output_adapter@D@__crt_stdio_output@@V?$positional_parameter_base@DV?$stream_output_adapter@D@__crt_stdio_output@@@2@@__crt_stdio_output@@AAE_NXZ 1005d560 f i libucrtd:output.obj
 0001:0005c580       ?state_case_dot@?$output_processor@DV?$stream_output_adapter@D@__crt_stdio_output@@V?$standard_base@DV?$stream_output_adapter@D@__crt_stdio_output@@@2@@__crt_stdio_output@@AAE_NXZ 1005d580 f i libucrtd:output.obj
 0001:0005c5a0       ?state_case_dot@?$output_processor@DV?$string_output_adapter@D@__crt_stdio_output@@V?$format_validation_base@DV?$string_output_adapter@D@__crt_stdio_output@@@2@@__crt_stdio_output@@AAE_NXZ 1005d5a0 f i libucrtd:output.obj
 0001:0005c5c0       ?state_case_dot@?$output_processor@DV?$string_output_adapter@D@__crt_stdio_output@@V?$positional_parameter_base@DV?$string_output_adapter@D@__crt_stdio_output@@@2@@__crt_stdio_output@@AAE_NXZ 1005d5c0 f i libucrtd:output.obj
 0001:0005c5e0       ?state_case_dot@?$output_processor@DV?$string_output_adapter@D@__crt_stdio_output@@V?$standard_base@DV?$string_output_adapter@D@__crt_stdio_output@@@2@@__crt_stdio_output@@AAE_NXZ 1005d5e0 f i libucrtd:output.obj
 0001:0005c600       ?state_case_dot@?$output_processor@_WV?$stream_output_adapter@_W@__crt_stdio_output@@V?$format_validation_base@_WV?$stream_output_adapter@_W@__crt_stdio_output@@@2@@__crt_stdio_output@@AAE_NXZ 1005d600 f i libucrtd:output.obj
 0001:0005c620       ?state_case_dot@?$output_processor@_WV?$stream_output_adapter@_W@__crt_stdio_output@@V?$positional_parameter_base@_WV?$stream_output_adapter@_W@__crt_stdio_output@@@2@@__crt_stdio_output@@AAE_NXZ 1005d620 f i libucrtd:output.obj
 0001:0005c640       ?state_case_dot@?$output_processor@_WV?$stream_output_adapter@_W@__crt_stdio_output@@V?$standard_base@_WV?$stream_output_adapter@_W@__crt_stdio_output@@@2@@__crt_stdio_output@@AAE_NXZ 1005d640 f i libucrtd:output.obj
 0001:0005c660       ?state_case_dot@?$output_processor@_WV?$string_output_adapter@_W@__crt_stdio_output@@V?$format_validation_base@_WV?$string_output_adapter@_W@__crt_stdio_output@@@2@@__crt_stdio_output@@AAE_NXZ 1005d660 f i libucrtd:output.obj
 0001:0005c680       ?state_case_dot@?$output_processor@_WV?$string_output_adapter@_W@__crt_stdio_output@@V?$positional_parameter_base@_WV?$string_output_adapter@_W@__crt_stdio_output@@@2@@__crt_stdio_output@@AAE_NXZ 1005d680 f i libucrtd:output.obj
 0001:0005c6a0       ?state_case_dot@?$output_processor@_WV?$string_output_adapter@_W@__crt_stdio_output@@V?$standard_base@_WV?$string_output_adapter@_W@__crt_stdio_output@@@2@@__crt_stdio_output@@AAE_NXZ 1005d6a0 f i libucrtd:output.obj
 0001:0005c6c0       ?state_case_flag@?$output_processor@DV?$stream_output_adapter@D@__crt_stdio_output@@V?$format_validation_base@DV?$stream_output_adapter@D@__crt_stdio_output@@@2@@__crt_stdio_output@@AAE_NXZ 1005d6c0 f i libucrtd:output.obj
 0001:0005c770       ?state_case_flag@?$output_processor@DV?$stream_output_adapter@D@__crt_stdio_output@@V?$positional_parameter_base@DV?$stream_output_adapter@D@__crt_stdio_output@@@2@@__crt_stdio_output@@AAE_NXZ 1005d770 f i libucrtd:output.obj
 0001:0005c820       ?state_case_flag@?$output_processor@DV?$stream_output_adapter@D@__crt_stdio_output@@V?$standard_base@DV?$stream_output_adapter@D@__crt_stdio_output@@@2@@__crt_stdio_output@@AAE_NXZ 1005d820 f i libucrtd:output.obj
 0001:0005c8d0       ?state_case_flag@?$output_processor@DV?$string_output_adapter@D@__crt_stdio_output@@V?$format_validation_base@DV?$string_output_adapter@D@__crt_stdio_output@@@2@@__crt_stdio_output@@AAE_NXZ 1005d8d0 f i libucrtd:output.obj
 0001:0005c980       ?state_case_flag@?$output_processor@DV?$string_output_adapter@D@__crt_stdio_output@@V?$positional_parameter_base@DV?$string_output_adapter@D@__crt_stdio_output@@@2@@__crt_stdio_output@@AAE_NXZ 1005d980 f i libucrtd:output.obj
 0001:0005ca30       ?state_case_flag@?$output_processor@DV?$string_output_adapter@D@__crt_stdio_output@@V?$standard_base@DV?$string_output_adapter@D@__crt_stdio_output@@@2@@__crt_stdio_output@@AAE_NXZ 1005da30 f i libucrtd:output.obj
 0001:0005cae0       ?state_case_flag@?$output_processor@_WV?$stream_output_adapter@_W@__crt_stdio_output@@V?$format_validation_base@_WV?$stream_output_adapter@_W@__crt_stdio_output@@@2@@__crt_stdio_output@@AAE_NXZ 1005dae0 f i libucrtd:output.obj
 0001:0005cb90       ?state_case_flag@?$output_processor@_WV?$stream_output_adapter@_W@__crt_stdio_output@@V?$positional_parameter_base@_WV?$stream_output_adapter@_W@__crt_stdio_output@@@2@@__crt_stdio_output@@AAE_NXZ 1005db90 f i libucrtd:output.obj
 0001:0005cc40       ?state_case_flag@?$output_processor@_WV?$stream_output_adapter@_W@__crt_stdio_output@@V?$standard_base@_WV?$stream_output_adapter@_W@__crt_stdio_output@@@2@@__crt_stdio_output@@AAE_NXZ 1005dc40 f i libucrtd:output.obj
 0001:0005ccf0       ?state_case_flag@?$output_processor@_WV?$string_output_adapter@_W@__crt_stdio_output@@V?$format_validation_base@_WV?$string_output_adapter@_W@__crt_stdio_output@@@2@@__crt_stdio_output@@AAE_NXZ 1005dcf0 f i libucrtd:output.obj
 0001:0005cda0       ?state_case_flag@?$output_processor@_WV?$string_output_adapter@_W@__crt_stdio_output@@V?$positional_parameter_base@_WV?$string_output_adapter@_W@__crt_stdio_output@@@2@@__crt_stdio_output@@AAE_NXZ 1005dda0 f i libucrtd:output.obj
 0001:0005ce50       ?state_case_flag@?$output_processor@_WV?$string_output_adapter@_W@__crt_stdio_output@@V?$standard_base@_WV?$string_output_adapter@_W@__crt_stdio_output@@@2@@__crt_stdio_output@@AAE_NXZ 1005de50 f i libucrtd:output.obj
 0001:0005cf00       ?state_case_normal@?$output_processor@DV?$stream_output_adapter@D@__crt_stdio_output@@V?$format_validation_base@DV?$stream_output_adapter@D@__crt_stdio_output@@@2@@__crt_stdio_output@@AAE_NXZ 1005df00 f i libucrtd:output.obj
 0001:0005cfc0       ?state_case_normal@?$output_processor@DV?$stream_output_adapter@D@__crt_stdio_output@@V?$positional_parameter_base@DV?$stream_output_adapter@D@__crt_stdio_output@@@2@@__crt_stdio_output@@AAE_NXZ 1005dfc0 f i libucrtd:output.obj
 0001:0005d080       ?state_case_normal@?$output_processor@DV?$stream_output_adapter@D@__crt_stdio_output@@V?$standard_base@DV?$stream_output_adapter@D@__crt_stdio_output@@@2@@__crt_stdio_output@@AAE_NXZ 1005e080 f i libucrtd:output.obj
 0001:0005d140       ?state_case_normal@?$output_processor@DV?$string_output_adapter@D@__crt_stdio_output@@V?$format_validation_base@DV?$string_output_adapter@D@__crt_stdio_output@@@2@@__crt_stdio_output@@AAE_NXZ 1005e140 f i libucrtd:output.obj
 0001:0005d200       ?state_case_normal@?$output_processor@DV?$string_output_adapter@D@__crt_stdio_output@@V?$positional_parameter_base@DV?$string_output_adapter@D@__crt_stdio_output@@@2@@__crt_stdio_output@@AAE_NXZ 1005e200 f i libucrtd:output.obj
 0001:0005d2c0       ?state_case_normal@?$output_processor@DV?$string_output_adapter@D@__crt_stdio_output@@V?$standard_base@DV?$string_output_adapter@D@__crt_stdio_output@@@2@@__crt_stdio_output@@AAE_NXZ 1005e2c0 f i libucrtd:output.obj
 0001:0005d380       ?state_case_normal@?$output_processor@_WV?$stream_output_adapter@_W@__crt_stdio_output@@V?$format_validation_base@_WV?$stream_output_adapter@_W@__crt_stdio_output@@@2@@__crt_stdio_output@@AAE_NXZ 1005e380 f i libucrtd:output.obj
 0001:0005d440       ?state_case_normal@?$output_processor@_WV?$stream_output_adapter@_W@__crt_stdio_output@@V?$positional_parameter_base@_WV?$stream_output_adapter@_W@__crt_stdio_output@@@2@@__crt_stdio_output@@AAE_NXZ 1005e440 f i libucrtd:output.obj
 0001:0005d500       ?state_case_normal@?$output_processor@_WV?$stream_output_adapter@_W@__crt_stdio_output@@V?$standard_base@_WV?$stream_output_adapter@_W@__crt_stdio_output@@@2@@__crt_stdio_output@@AAE_NXZ 1005e500 f i libucrtd:output.obj
 0001:0005d5c0       ?state_case_normal@?$output_processor@_WV?$string_output_adapter@_W@__crt_stdio_output@@V?$format_validation_base@_WV?$string_output_adapter@_W@__crt_stdio_output@@@2@@__crt_stdio_output@@AAE_NXZ 1005e5c0 f i libucrtd:output.obj
 0001:0005d680       ?state_case_normal@?$output_processor@_WV?$string_output_adapter@_W@__crt_stdio_output@@V?$positional_parameter_base@_WV?$string_output_adapter@_W@__crt_stdio_output@@@2@@__crt_stdio_output@@AAE_NXZ 1005e680 f i libucrtd:output.obj
 0001:0005d740       ?state_case_normal@?$output_processor@_WV?$string_output_adapter@_W@__crt_stdio_output@@V?$standard_base@_WV?$string_output_adapter@_W@__crt_stdio_output@@@2@@__crt_stdio_output@@AAE_NXZ 1005e740 f i libucrtd:output.obj
 0001:0005d800       ?state_case_normal_common@?$output_processor@DV?$stream_output_adapter@D@__crt_stdio_output@@V?$format_validation_base@DV?$stream_output_adapter@D@__crt_stdio_output@@@2@@__crt_stdio_output@@AAE_NXZ 1005e800 f i libucrtd:output.obj
 0001:0005d850       ?state_case_normal_common@?$output_processor@DV?$stream_output_adapter@D@__crt_stdio_output@@V?$positional_parameter_base@DV?$stream_output_adapter@D@__crt_stdio_output@@@2@@__crt_stdio_output@@AAE_NXZ 1005e850 f i libucrtd:output.obj
 0001:0005d8a0       ?state_case_normal_common@?$output_processor@DV?$stream_output_adapter@D@__crt_stdio_output@@V?$standard_base@DV?$stream_output_adapter@D@__crt_stdio_output@@@2@@__crt_stdio_output@@AAE_NXZ 1005e8a0 f i libucrtd:output.obj
 0001:0005d8f0       ?state_case_normal_common@?$output_processor@DV?$string_output_adapter@D@__crt_stdio_output@@V?$format_validation_base@DV?$string_output_adapter@D@__crt_stdio_output@@@2@@__crt_stdio_output@@AAE_NXZ 1005e8f0 f i libucrtd:output.obj
 0001:0005d940       ?state_case_normal_common@?$output_processor@DV?$string_output_adapter@D@__crt_stdio_output@@V?$positional_parameter_base@DV?$string_output_adapter@D@__crt_stdio_output@@@2@@__crt_stdio_output@@AAE_NXZ 1005e940 f i libucrtd:output.obj
 0001:0005d990       ?state_case_normal_common@?$output_processor@DV?$string_output_adapter@D@__crt_stdio_output@@V?$standard_base@DV?$string_output_adapter@D@__crt_stdio_output@@@2@@__crt_stdio_output@@AAE_NXZ 1005e990 f i libucrtd:output.obj
 0001:0005d9e0       ?state_case_normal_common@?$output_processor@_WV?$stream_output_adapter@_W@__crt_stdio_output@@V?$format_validation_base@_WV?$stream_output_adapter@_W@__crt_stdio_output@@@2@@__crt_stdio_output@@AAE_NXZ 1005e9e0 f i libucrtd:output.obj
 0001:0005da30       ?state_case_normal_common@?$output_processor@_WV?$stream_output_adapter@_W@__crt_stdio_output@@V?$positional_parameter_base@_WV?$stream_output_adapter@_W@__crt_stdio_output@@@2@@__crt_stdio_output@@AAE_NXZ 1005ea30 f i libucrtd:output.obj
 0001:0005da80       ?state_case_normal_common@?$output_processor@_WV?$stream_output_adapter@_W@__crt_stdio_output@@V?$standard_base@_WV?$stream_output_adapter@_W@__crt_stdio_output@@@2@@__crt_stdio_output@@AAE_NXZ 1005ea80 f i libucrtd:output.obj
 0001:0005dad0       ?state_case_normal_common@?$output_processor@_WV?$string_output_adapter@_W@__crt_stdio_output@@V?$format_validation_base@_WV?$string_output_adapter@_W@__crt_stdio_output@@@2@@__crt_stdio_output@@AAE_NXZ 1005ead0 f i libucrtd:output.obj
 0001:0005db20       ?state_case_normal_common@?$output_processor@_WV?$string_output_adapter@_W@__crt_stdio_output@@V?$positional_parameter_base@_WV?$string_output_adapter@_W@__crt_stdio_output@@@2@@__crt_stdio_output@@AAE_NXZ 1005eb20 f i libucrtd:output.obj
 0001:0005db70       ?state_case_normal_common@?$output_processor@_WV?$string_output_adapter@_W@__crt_stdio_output@@V?$standard_base@_WV?$string_output_adapter@_W@__crt_stdio_output@@@2@@__crt_stdio_output@@AAE_NXZ 1005eb70 f i libucrtd:output.obj
 0001:0005dbc0       ?state_case_normal_tchar@?$output_processor@DV?$stream_output_adapter@D@__crt_stdio_output@@V?$format_validation_base@DV?$stream_output_adapter@D@__crt_stdio_output@@@2@@__crt_stdio_output@@AAE_ND@Z 1005ebc0 f i libucrtd:output.obj
 0001:0005dcf0       ?state_case_normal_tchar@?$output_processor@DV?$stream_output_adapter@D@__crt_stdio_output@@V?$positional_parameter_base@DV?$stream_output_adapter@D@__crt_stdio_output@@@2@@__crt_stdio_output@@AAE_ND@Z 1005ecf0 f i libucrtd:output.obj
 0001:0005de20       ?state_case_normal_tchar@?$output_processor@DV?$stream_output_adapter@D@__crt_stdio_output@@V?$standard_base@DV?$stream_output_adapter@D@__crt_stdio_output@@@2@@__crt_stdio_output@@AAE_ND@Z 1005ee20 f i libucrtd:output.obj
 0001:0005df50       ?state_case_normal_tchar@?$output_processor@DV?$string_output_adapter@D@__crt_stdio_output@@V?$format_validation_base@DV?$string_output_adapter@D@__crt_stdio_output@@@2@@__crt_stdio_output@@AAE_ND@Z 1005ef50 f i libucrtd:output.obj
 0001:0005e080       ?state_case_normal_tchar@?$output_processor@DV?$string_output_adapter@D@__crt_stdio_output@@V?$positional_parameter_base@DV?$string_output_adapter@D@__crt_stdio_output@@@2@@__crt_stdio_output@@AAE_ND@Z 1005f080 f i libucrtd:output.obj
 0001:0005e1b0       ?state_case_normal_tchar@?$output_processor@DV?$string_output_adapter@D@__crt_stdio_output@@V?$standard_base@DV?$string_output_adapter@D@__crt_stdio_output@@@2@@__crt_stdio_output@@AAE_ND@Z 1005f1b0 f i libucrtd:output.obj
 0001:0005e2e0       ?state_case_normal_tchar@?$output_processor@_WV?$stream_output_adapter@_W@__crt_stdio_output@@V?$format_validation_base@_WV?$stream_output_adapter@_W@__crt_stdio_output@@@2@@__crt_stdio_output@@AAE_N_W@Z 1005f2e0 f i libucrtd:output.obj
 0001:0005e300       ?state_case_normal_tchar@?$output_processor@_WV?$stream_output_adapter@_W@__crt_stdio_output@@V?$positional_parameter_base@_WV?$stream_output_adapter@_W@__crt_stdio_output@@@2@@__crt_stdio_output@@AAE_N_W@Z 1005f300 f i libucrtd:output.obj
 0001:0005e320       ?state_case_normal_tchar@?$output_processor@_WV?$stream_output_adapter@_W@__crt_stdio_output@@V?$standard_base@_WV?$stream_output_adapter@_W@__crt_stdio_output@@@2@@__crt_stdio_output@@AAE_N_W@Z 1005f320 f i libucrtd:output.obj
 0001:0005e340       ?state_case_normal_tchar@?$output_processor@_WV?$string_output_adapter@_W@__crt_stdio_output@@V?$format_validation_base@_WV?$string_output_adapter@_W@__crt_stdio_output@@@2@@__crt_stdio_output@@AAE_N_W@Z 1005f340 f i libucrtd:output.obj
 0001:0005e360       ?state_case_normal_tchar@?$output_processor@_WV?$string_output_adapter@_W@__crt_stdio_output@@V?$positional_parameter_base@_WV?$string_output_adapter@_W@__crt_stdio_output@@@2@@__crt_stdio_output@@AAE_N_W@Z 1005f360 f i libucrtd:output.obj
 0001:0005e380       ?state_case_normal_tchar@?$output_processor@_WV?$string_output_adapter@_W@__crt_stdio_output@@V?$standard_base@_WV?$string_output_adapter@_W@__crt_stdio_output@@@2@@__crt_stdio_output@@AAE_N_W@Z 1005f380 f i libucrtd:output.obj
 0001:0005e3a0       ?state_case_percent@?$output_processor@DV?$stream_output_adapter@D@__crt_stdio_output@@V?$format_validation_base@DV?$stream_output_adapter@D@__crt_stdio_output@@@2@@__crt_stdio_output@@AAE_NXZ 1005f3a0 f i libucrtd:output.obj
 0001:0005e3f0       ?state_case_percent@?$output_processor@DV?$stream_output_adapter@D@__crt_stdio_output@@V?$positional_parameter_base@DV?$stream_output_adapter@D@__crt_stdio_output@@@2@@__crt_stdio_output@@AAE_NXZ 1005f3f0 f i libucrtd:output.obj
 0001:0005e440       ?state_case_percent@?$output_processor@DV?$stream_output_adapter@D@__crt_stdio_output@@V?$standard_base@DV?$stream_output_adapter@D@__crt_stdio_output@@@2@@__crt_stdio_output@@AAE_NXZ 1005f440 f i libucrtd:output.obj
 0001:0005e490       ?state_case_percent@?$output_processor@DV?$string_output_adapter@D@__crt_stdio_output@@V?$format_validation_base@DV?$string_output_adapter@D@__crt_stdio_output@@@2@@__crt_stdio_output@@AAE_NXZ 1005f490 f i libucrtd:output.obj
 0001:0005e4e0       ?state_case_percent@?$output_processor@DV?$string_output_adapter@D@__crt_stdio_output@@V?$positional_parameter_base@DV?$string_output_adapter@D@__crt_stdio_output@@@2@@__crt_stdio_output@@AAE_NXZ 1005f4e0 f i libucrtd:output.obj
 0001:0005e530       ?state_case_percent@?$output_processor@DV?$string_output_adapter@D@__crt_stdio_output@@V?$standard_base@DV?$string_output_adapter@D@__crt_stdio_output@@@2@@__crt_stdio_output@@AAE_NXZ 1005f530 f i libucrtd:output.obj
 0001:0005e580       ?state_case_percent@?$output_processor@_WV?$stream_output_adapter@_W@__crt_stdio_output@@V?$format_validation_base@_WV?$stream_output_adapter@_W@__crt_stdio_output@@@2@@__crt_stdio_output@@AAE_NXZ 1005f580 f i libucrtd:output.obj
 0001:0005e5d0       ?state_case_percent@?$output_processor@_WV?$stream_output_adapter@_W@__crt_stdio_output@@V?$positional_parameter_base@_WV?$stream_output_adapter@_W@__crt_stdio_output@@@2@@__crt_stdio_output@@AAE_NXZ 1005f5d0 f i libucrtd:output.obj
 0001:0005e620       ?state_case_percent@?$output_processor@_WV?$stream_output_adapter@_W@__crt_stdio_output@@V?$standard_base@_WV?$stream_output_adapter@_W@__crt_stdio_output@@@2@@__crt_stdio_output@@AAE_NXZ 1005f620 f i libucrtd:output.obj
 0001:0005e670       ?state_case_percent@?$output_processor@_WV?$string_output_adapter@_W@__crt_stdio_output@@V?$format_validation_base@_WV?$string_output_adapter@_W@__crt_stdio_output@@@2@@__crt_stdio_output@@AAE_NXZ 1005f670 f i libucrtd:output.obj
 0001:0005e6c0       ?state_case_percent@?$output_processor@_WV?$string_output_adapter@_W@__crt_stdio_output@@V?$positional_parameter_base@_WV?$string_output_adapter@_W@__crt_stdio_output@@@2@@__crt_stdio_output@@AAE_NXZ 1005f6c0 f i libucrtd:output.obj
 0001:0005e710       ?state_case_percent@?$output_processor@_WV?$string_output_adapter@_W@__crt_stdio_output@@V?$standard_base@_WV?$string_output_adapter@_W@__crt_stdio_output@@@2@@__crt_stdio_output@@AAE_NXZ 1005f710 f i libucrtd:output.obj
 0001:0005e760       ?state_case_precision@?$output_processor@DV?$stream_output_adapter@D@__crt_stdio_output@@V?$format_validation_base@DV?$stream_output_adapter@D@__crt_stdio_output@@@2@@__crt_stdio_output@@AAE_NXZ 1005f760 f i libucrtd:output.obj
 0001:0005e7d0       ?state_case_precision@?$output_processor@DV?$stream_output_adapter@D@__crt_stdio_output@@V?$positional_parameter_base@DV?$stream_output_adapter@D@__crt_stdio_output@@@2@@__crt_stdio_output@@AAE_NXZ 1005f7d0 f i libucrtd:output.obj
 0001:0005e840       ?state_case_precision@?$output_processor@DV?$stream_output_adapter@D@__crt_stdio_output@@V?$standard_base@DV?$stream_output_adapter@D@__crt_stdio_output@@@2@@__crt_stdio_output@@AAE_NXZ 1005f840 f i libucrtd:output.obj
 0001:0005e8b0       ?state_case_precision@?$output_processor@DV?$string_output_adapter@D@__crt_stdio_output@@V?$format_validation_base@DV?$string_output_adapter@D@__crt_stdio_output@@@2@@__crt_stdio_output@@AAE_NXZ 1005f8b0 f i libucrtd:output.obj
 0001:0005e920       ?state_case_precision@?$output_processor@DV?$string_output_adapter@D@__crt_stdio_output@@V?$positional_parameter_base@DV?$string_output_adapter@D@__crt_stdio_output@@@2@@__crt_stdio_output@@AAE_NXZ 1005f920 f i libucrtd:output.obj
 0001:0005e990       ?state_case_precision@?$output_processor@DV?$string_output_adapter@D@__crt_stdio_output@@V?$standard_base@DV?$string_output_adapter@D@__crt_stdio_output@@@2@@__crt_stdio_output@@AAE_NXZ 1005f990 f i libucrtd:output.obj
 0001:0005ea00       ?state_case_precision@?$output_processor@_WV?$stream_output_adapter@_W@__crt_stdio_output@@V?$format_validation_base@_WV?$stream_output_adapter@_W@__crt_stdio_output@@@2@@__crt_stdio_output@@AAE_NXZ 1005fa00 f i libucrtd:output.obj
 0001:0005ea70       ?state_case_precision@?$output_processor@_WV?$stream_output_adapter@_W@__crt_stdio_output@@V?$positional_parameter_base@_WV?$stream_output_adapter@_W@__crt_stdio_output@@@2@@__crt_stdio_output@@AAE_NXZ 1005fa70 f i libucrtd:output.obj
 0001:0005eae0       ?state_case_precision@?$output_processor@_WV?$stream_output_adapter@_W@__crt_stdio_output@@V?$standard_base@_WV?$stream_output_adapter@_W@__crt_stdio_output@@@2@@__crt_stdio_output@@AAE_NXZ 1005fae0 f i libucrtd:output.obj
 0001:0005eb50       ?state_case_precision@?$output_processor@_WV?$string_output_adapter@_W@__crt_stdio_output@@V?$format_validation_base@_WV?$string_output_adapter@_W@__crt_stdio_output@@@2@@__crt_stdio_output@@AAE_NXZ 1005fb50 f i libucrtd:output.obj
 0001:0005ebc0       ?state_case_precision@?$output_processor@_WV?$string_output_adapter@_W@__crt_stdio_output@@V?$positional_parameter_base@_WV?$string_output_adapter@_W@__crt_stdio_output@@@2@@__crt_stdio_output@@AAE_NXZ 1005fbc0 f i libucrtd:output.obj
 0001:0005ec30       ?state_case_precision@?$output_processor@_WV?$string_output_adapter@_W@__crt_stdio_output@@V?$standard_base@_WV?$string_output_adapter@_W@__crt_stdio_output@@@2@@__crt_stdio_output@@AAE_NXZ 1005fc30 f i libucrtd:output.obj
 0001:0005eca0       ?state_case_size@?$output_processor@DV?$stream_output_adapter@D@__crt_stdio_output@@V?$format_validation_base@DV?$stream_output_adapter@D@__crt_stdio_output@@@2@@__crt_stdio_output@@AAE_NXZ 1005fca0 f i libucrtd:output.obj
 0001:0005f090       ?state_case_size@?$output_processor@DV?$stream_output_adapter@D@__crt_stdio_output@@V?$positional_parameter_base@DV?$stream_output_adapter@D@__crt_stdio_output@@@2@@__crt_stdio_output@@AAE_NXZ 10060090 f i libucrtd:output.obj
 0001:0005f480       ?state_case_size@?$output_processor@DV?$stream_output_adapter@D@__crt_stdio_output@@V?$standard_base@DV?$stream_output_adapter@D@__crt_stdio_output@@@2@@__crt_stdio_output@@AAE_NXZ 10060480 f i libucrtd:output.obj
 0001:0005f870       ?state_case_size@?$output_processor@DV?$string_output_adapter@D@__crt_stdio_output@@V?$format_validation_base@DV?$string_output_adapter@D@__crt_stdio_output@@@2@@__crt_stdio_output@@AAE_NXZ 10060870 f i libucrtd:output.obj
 0001:0005fc60       ?state_case_size@?$output_processor@DV?$string_output_adapter@D@__crt_stdio_output@@V?$positional_parameter_base@DV?$string_output_adapter@D@__crt_stdio_output@@@2@@__crt_stdio_output@@AAE_NXZ 10060c60 f i libucrtd:output.obj
 0001:00060050       ?state_case_size@?$output_processor@DV?$string_output_adapter@D@__crt_stdio_output@@V?$standard_base@DV?$string_output_adapter@D@__crt_stdio_output@@@2@@__crt_stdio_output@@AAE_NXZ 10061050 f i libucrtd:output.obj
 0001:00060440       ?state_case_size@?$output_processor@_WV?$stream_output_adapter@_W@__crt_stdio_output@@V?$format_validation_base@_WV?$stream_output_adapter@_W@__crt_stdio_output@@@2@@__crt_stdio_output@@AAE_NXZ 10061440 f i libucrtd:output.obj
 0001:00060830       ?state_case_size@?$output_processor@_WV?$stream_output_adapter@_W@__crt_stdio_output@@V?$positional_parameter_base@_WV?$stream_output_adapter@_W@__crt_stdio_output@@@2@@__crt_stdio_output@@AAE_NXZ 10061830 f i libucrtd:output.obj
 0001:00060c20       ?state_case_size@?$output_processor@_WV?$stream_output_adapter@_W@__crt_stdio_output@@V?$standard_base@_WV?$stream_output_adapter@_W@__crt_stdio_output@@@2@@__crt_stdio_output@@AAE_NXZ 10061c20 f i libucrtd:output.obj
 0001:00061010       ?state_case_size@?$output_processor@_WV?$string_output_adapter@_W@__crt_stdio_output@@V?$format_validation_base@_WV?$string_output_adapter@_W@__crt_stdio_output@@@2@@__crt_stdio_output@@AAE_NXZ 10062010 f i libucrtd:output.obj
 0001:00061400       ?state_case_size@?$output_processor@_WV?$string_output_adapter@_W@__crt_stdio_output@@V?$positional_parameter_base@_WV?$string_output_adapter@_W@__crt_stdio_output@@@2@@__crt_stdio_output@@AAE_NXZ 10062400 f i libucrtd:output.obj
 0001:000617f0       ?state_case_size@?$output_processor@_WV?$string_output_adapter@_W@__crt_stdio_output@@V?$standard_base@_WV?$string_output_adapter@_W@__crt_stdio_output@@@2@@__crt_stdio_output@@AAE_NXZ 100627f0 f i libucrtd:output.obj
 0001:00061be0       ?state_case_type@?$output_processor@DV?$stream_output_adapter@D@__crt_stdio_output@@V?$format_validation_base@DV?$stream_output_adapter@D@__crt_stdio_output@@@2@@__crt_stdio_output@@AAE_NXZ 10062be0 f i libucrtd:output.obj
 0001:00061fb0       ?state_case_type@?$output_processor@DV?$stream_output_adapter@D@__crt_stdio_output@@V?$positional_parameter_base@DV?$stream_output_adapter@D@__crt_stdio_output@@@2@@__crt_stdio_output@@AAE_NXZ 10062fb0 f i libucrtd:output.obj
 0001:00062380       ?state_case_type@?$output_processor@DV?$stream_output_adapter@D@__crt_stdio_output@@V?$standard_base@DV?$stream_output_adapter@D@__crt_stdio_output@@@2@@__crt_stdio_output@@AAE_NXZ 10063380 f i libucrtd:output.obj
 0001:00062750       ?state_case_type@?$output_processor@DV?$string_output_adapter@D@__crt_stdio_output@@V?$format_validation_base@DV?$string_output_adapter@D@__crt_stdio_output@@@2@@__crt_stdio_output@@AAE_NXZ 10063750 f i libucrtd:output.obj
 0001:00062b20       ?state_case_type@?$output_processor@DV?$string_output_adapter@D@__crt_stdio_output@@V?$positional_parameter_base@DV?$string_output_adapter@D@__crt_stdio_output@@@2@@__crt_stdio_output@@AAE_NXZ 10063b20 f i libucrtd:output.obj
 0001:00062ef0       ?state_case_type@?$output_processor@DV?$string_output_adapter@D@__crt_stdio_output@@V?$standard_base@DV?$string_output_adapter@D@__crt_stdio_output@@@2@@__crt_stdio_output@@AAE_NXZ 10063ef0 f i libucrtd:output.obj
 0001:000632c0       ?state_case_type@?$output_processor@_WV?$stream_output_adapter@_W@__crt_stdio_output@@V?$format_validation_base@_WV?$stream_output_adapter@_W@__crt_stdio_output@@@2@@__crt_stdio_output@@AAE_NXZ 100642c0 f i libucrtd:output.obj
 0001:000636c0       ?state_case_type@?$output_processor@_WV?$stream_output_adapter@_W@__crt_stdio_output@@V?$positional_parameter_base@_WV?$stream_output_adapter@_W@__crt_stdio_output@@@2@@__crt_stdio_output@@AAE_NXZ 100646c0 f i libucrtd:output.obj
 0001:00063ac0       ?state_case_type@?$output_processor@_WV?$stream_output_adapter@_W@__crt_stdio_output@@V?$standard_base@_WV?$stream_output_adapter@_W@__crt_stdio_output@@@2@@__crt_stdio_output@@AAE_NXZ 10064ac0 f i libucrtd:output.obj
 0001:00063ec0       ?state_case_type@?$output_processor@_WV?$string_output_adapter@_W@__crt_stdio_output@@V?$format_validation_base@_WV?$string_output_adapter@_W@__crt_stdio_output@@@2@@__crt_stdio_output@@AAE_NXZ 10064ec0 f i libucrtd:output.obj
 0001:000642c0       ?state_case_type@?$output_processor@_WV?$string_output_adapter@_W@__crt_stdio_output@@V?$positional_parameter_base@_WV?$string_output_adapter@_W@__crt_stdio_output@@@2@@__crt_stdio_output@@AAE_NXZ 100652c0 f i libucrtd:output.obj
 0001:000646c0       ?state_case_type@?$output_processor@_WV?$string_output_adapter@_W@__crt_stdio_output@@V?$standard_base@_WV?$string_output_adapter@_W@__crt_stdio_output@@@2@@__crt_stdio_output@@AAE_NXZ 100656c0 f i libucrtd:output.obj
 0001:00064ac0       ?state_case_width@?$output_processor@DV?$stream_output_adapter@D@__crt_stdio_output@@V?$format_validation_base@DV?$stream_output_adapter@D@__crt_stdio_output@@@2@@__crt_stdio_output@@AAE_NXZ 10065ac0 f i libucrtd:output.obj
 0001:00064b40       ?state_case_width@?$output_processor@DV?$stream_output_adapter@D@__crt_stdio_output@@V?$positional_parameter_base@DV?$stream_output_adapter@D@__crt_stdio_output@@@2@@__crt_stdio_output@@AAE_NXZ 10065b40 f i libucrtd:output.obj
 0001:00064bc0       ?state_case_width@?$output_processor@DV?$stream_output_adapter@D@__crt_stdio_output@@V?$standard_base@DV?$stream_output_adapter@D@__crt_stdio_output@@@2@@__crt_stdio_output@@AAE_NXZ 10065bc0 f i libucrtd:output.obj
 0001:00064c40       ?state_case_width@?$output_processor@DV?$string_output_adapter@D@__crt_stdio_output@@V?$format_validation_base@DV?$string_output_adapter@D@__crt_stdio_output@@@2@@__crt_stdio_output@@AAE_NXZ 10065c40 f i libucrtd:output.obj
 0001:00064cc0       ?state_case_width@?$output_processor@DV?$string_output_adapter@D@__crt_stdio_output@@V?$positional_parameter_base@DV?$string_output_adapter@D@__crt_stdio_output@@@2@@__crt_stdio_output@@AAE_NXZ 10065cc0 f i libucrtd:output.obj
 0001:00064d40       ?state_case_width@?$output_processor@DV?$string_output_adapter@D@__crt_stdio_output@@V?$standard_base@DV?$string_output_adapter@D@__crt_stdio_output@@@2@@__crt_stdio_output@@AAE_NXZ 10065d40 f i libucrtd:output.obj
 0001:00064dc0       ?state_case_width@?$output_processor@_WV?$stream_output_adapter@_W@__crt_stdio_output@@V?$format_validation_base@_WV?$stream_output_adapter@_W@__crt_stdio_output@@@2@@__crt_stdio_output@@AAE_NXZ 10065dc0 f i libucrtd:output.obj
 0001:00064e40       ?state_case_width@?$output_processor@_WV?$stream_output_adapter@_W@__crt_stdio_output@@V?$positional_parameter_base@_WV?$stream_output_adapter@_W@__crt_stdio_output@@@2@@__crt_stdio_output@@AAE_NXZ 10065e40 f i libucrtd:output.obj
 0001:00064ec0       ?state_case_width@?$output_processor@_WV?$stream_output_adapter@_W@__crt_stdio_output@@V?$standard_base@_WV?$stream_output_adapter@_W@__crt_stdio_output@@@2@@__crt_stdio_output@@AAE_NXZ 10065ec0 f i libucrtd:output.obj
 0001:00064f40       ?state_case_width@?$output_processor@_WV?$string_output_adapter@_W@__crt_stdio_output@@V?$format_validation_base@_WV?$string_output_adapter@_W@__crt_stdio_output@@@2@@__crt_stdio_output@@AAE_NXZ 10065f40 f i libucrtd:output.obj
 0001:00064fc0       ?state_case_width@?$output_processor@_WV?$string_output_adapter@_W@__crt_stdio_output@@V?$positional_parameter_base@_WV?$string_output_adapter@_W@__crt_stdio_output@@@2@@__crt_stdio_output@@AAE_NXZ 10065fc0 f i libucrtd:output.obj
 0001:00065040       ?state_case_width@?$output_processor@_WV?$string_output_adapter@_W@__crt_stdio_output@@V?$standard_base@_WV?$string_output_adapter@_W@__crt_stdio_output@@@2@@__crt_stdio_output@@AAE_NXZ 10066040 f i libucrtd:output.obj
 0001:000650c0       ?state_count@?$format_validation_base@DV?$stream_output_adapter@D@__crt_stdio_output@@@__crt_stdio_output@@KAIXZ 100660c0 f i libucrtd:output.obj
 0001:000650d0       ?state_count@?$format_validation_base@DV?$string_output_adapter@D@__crt_stdio_output@@@__crt_stdio_output@@KAIXZ 100660d0 f i libucrtd:output.obj
 0001:000650e0       ?state_count@?$format_validation_base@_WV?$stream_output_adapter@_W@__crt_stdio_output@@@__crt_stdio_output@@KAIXZ 100660e0 f i libucrtd:output.obj
 0001:000650f0       ?state_count@?$format_validation_base@_WV?$string_output_adapter@_W@__crt_stdio_output@@@__crt_stdio_output@@KAIXZ 100660f0 f i libucrtd:output.obj
 0001:00065100       ?state_count@?$standard_base@DV?$stream_output_adapter@D@__crt_stdio_output@@@__crt_stdio_output@@KAIXZ 10066100 f i libucrtd:output.obj
 0001:00065110       ?state_count@?$standard_base@DV?$string_output_adapter@D@__crt_stdio_output@@@__crt_stdio_output@@KAIXZ 10066110 f i libucrtd:output.obj
 0001:00065120       ?state_count@?$standard_base@_WV?$stream_output_adapter@_W@__crt_stdio_output@@@__crt_stdio_output@@KAIXZ 10066120 f i libucrtd:output.obj
 0001:00065130       ?state_count@?$standard_base@_WV?$string_output_adapter@_W@__crt_stdio_output@@@__crt_stdio_output@@KAIXZ 10066130 f i libucrtd:output.obj
 0001:00065140       ?state_transition_table@?$format_validation_base@DV?$stream_output_adapter@D@__crt_stdio_output@@@__crt_stdio_output@@KAABV?$spectre_mitigated_lookup_table@Ustate_transition_pair@__crt_stdio_output@@$0IA@@2@XZ 10066140 f i libucrtd:output.obj
 0001:00065150       ?state_transition_table@?$format_validation_base@DV?$string_output_adapter@D@__crt_stdio_output@@@__crt_stdio_output@@KAABV?$spectre_mitigated_lookup_table@Ustate_transition_pair@__crt_stdio_output@@$0IA@@2@XZ 10066150 f i libucrtd:output.obj
 0001:00065160       ?state_transition_table@?$format_validation_base@_WV?$stream_output_adapter@_W@__crt_stdio_output@@@__crt_stdio_output@@KAABV?$spectre_mitigated_lookup_table@Ustate_transition_pair@__crt_stdio_output@@$0IA@@2@XZ 10066160 f i libucrtd:output.obj
 0001:00065170       ?state_transition_table@?$format_validation_base@_WV?$string_output_adapter@_W@__crt_stdio_output@@@__crt_stdio_output@@KAABV?$spectre_mitigated_lookup_table@Ustate_transition_pair@__crt_stdio_output@@$0IA@@2@XZ 10066170 f i libucrtd:output.obj
 0001:00065180       ?state_transition_table@?$standard_base@DV?$stream_output_adapter@D@__crt_stdio_output@@@__crt_stdio_output@@KAABV?$spectre_mitigated_lookup_table@Ustate_transition_pair@__crt_stdio_output@@$0IA@@2@XZ 10066180 f i libucrtd:output.obj
 0001:00065190       ?state_transition_table@?$standard_base@DV?$string_output_adapter@D@__crt_stdio_output@@@__crt_stdio_output@@KAABV?$spectre_mitigated_lookup_table@Ustate_transition_pair@__crt_stdio_output@@$0IA@@2@XZ 10066190 f i libucrtd:output.obj
 0001:000651a0       ?state_transition_table@?$standard_base@_WV?$stream_output_adapter@_W@__crt_stdio_output@@@__crt_stdio_output@@KAABV?$spectre_mitigated_lookup_table@Ustate_transition_pair@__crt_stdio_output@@$0IA@@2@XZ 100661a0 f i libucrtd:output.obj
 0001:000651b0       ?state_transition_table@?$standard_base@_WV?$string_output_adapter@_W@__crt_stdio_output@@@__crt_stdio_output@@KAABV?$spectre_mitigated_lookup_table@Ustate_transition_pair@__crt_stdio_output@@$0IA@@2@XZ 100661b0 f i libucrtd:output.obj
 0001:000651c0       ?tchar_string@?$common_data@D@__crt_stdio_output@@IAEAAPADD@Z 100661c0 f i libucrtd:output.obj
 0001:000651e0       ?tchar_string@?$common_data@D@__crt_stdio_output@@IAEAAPADXZ 100661e0 f i libucrtd:output.obj
 0001:00065200       ?tchar_string@?$common_data@_W@__crt_stdio_output@@IAEAAPA_WXZ 10066200 f i libucrtd:output.obj
 0001:00065220       ?tchar_string@?$common_data@_W@__crt_stdio_output@@IAEAAPA_W_W@Z 10066220 f i libucrtd:output.obj
 0001:00065240       ?to_integer_size@__crt_stdio_output@@YAIW4length_modifier@1@@Z 10066240 f i libucrtd:output.obj
 0001:000652e0       ?type_case_X@?$output_processor@DV?$stream_output_adapter@D@__crt_stdio_output@@V?$format_validation_base@DV?$stream_output_adapter@D@__crt_stdio_output@@@2@@__crt_stdio_output@@AAE_NXZ 100662e0 f i libucrtd:output.obj
 0001:00065300       ?type_case_X@?$output_processor@DV?$stream_output_adapter@D@__crt_stdio_output@@V?$positional_parameter_base@DV?$stream_output_adapter@D@__crt_stdio_output@@@2@@__crt_stdio_output@@AAE_NXZ 10066300 f i libucrtd:output.obj
 0001:00065320       ?type_case_X@?$output_processor@DV?$stream_output_adapter@D@__crt_stdio_output@@V?$standard_base@DV?$stream_output_adapter@D@__crt_stdio_output@@@2@@__crt_stdio_output@@AAE_NXZ 10066320 f i libucrtd:output.obj
 0001:00065340       ?type_case_X@?$output_processor@DV?$string_output_adapter@D@__crt_stdio_output@@V?$format_validation_base@DV?$string_output_adapter@D@__crt_stdio_output@@@2@@__crt_stdio_output@@AAE_NXZ 10066340 f i libucrtd:output.obj
 0001:00065360       ?type_case_X@?$output_processor@DV?$string_output_adapter@D@__crt_stdio_output@@V?$positional_parameter_base@DV?$string_output_adapter@D@__crt_stdio_output@@@2@@__crt_stdio_output@@AAE_NXZ 10066360 f i libucrtd:output.obj
 0001:00065380       ?type_case_X@?$output_processor@DV?$string_output_adapter@D@__crt_stdio_output@@V?$standard_base@DV?$string_output_adapter@D@__crt_stdio_output@@@2@@__crt_stdio_output@@AAE_NXZ 10066380 f i libucrtd:output.obj
 0001:000653a0       ?type_case_X@?$output_processor@_WV?$stream_output_adapter@_W@__crt_stdio_output@@V?$format_validation_base@_WV?$stream_output_adapter@_W@__crt_stdio_output@@@2@@__crt_stdio_output@@AAE_NXZ 100663a0 f i libucrtd:output.obj
 0001:000653c0       ?type_case_X@?$output_processor@_WV?$stream_output_adapter@_W@__crt_stdio_output@@V?$positional_parameter_base@_WV?$stream_output_adapter@_W@__crt_stdio_output@@@2@@__crt_stdio_output@@AAE_NXZ 100663c0 f i libucrtd:output.obj
 0001:000653e0       ?type_case_X@?$output_processor@_WV?$stream_output_adapter@_W@__crt_stdio_output@@V?$standard_base@_WV?$stream_output_adapter@_W@__crt_stdio_output@@@2@@__crt_stdio_output@@AAE_NXZ 100663e0 f i libucrtd:output.obj
 0001:00065400       ?type_case_X@?$output_processor@_WV?$string_output_adapter@_W@__crt_stdio_output@@V?$format_validation_base@_WV?$string_output_adapter@_W@__crt_stdio_output@@@2@@__crt_stdio_output@@AAE_NXZ 10066400 f i libucrtd:output.obj
 0001:00065420       ?type_case_X@?$output_processor@_WV?$string_output_adapter@_W@__crt_stdio_output@@V?$positional_parameter_base@_WV?$string_output_adapter@_W@__crt_stdio_output@@@2@@__crt_stdio_output@@AAE_NXZ 10066420 f i libucrtd:output.obj
 0001:00065440       ?type_case_X@?$output_processor@_WV?$string_output_adapter@_W@__crt_stdio_output@@V?$standard_base@_WV?$string_output_adapter@_W@__crt_stdio_output@@@2@@__crt_stdio_output@@AAE_NXZ 10066440 f i libucrtd:output.obj
 0001:00065460       ?type_case_Z@?$output_processor@DV?$stream_output_adapter@D@__crt_stdio_output@@V?$format_validation_base@DV?$stream_output_adapter@D@__crt_stdio_output@@@2@@__crt_stdio_output@@AAE_NXZ 10066460 f i libucrtd:output.obj
 0001:00065550       ?type_case_Z@?$output_processor@DV?$stream_output_adapter@D@__crt_stdio_output@@V?$positional_parameter_base@DV?$stream_output_adapter@D@__crt_stdio_output@@@2@@__crt_stdio_output@@AAE_NXZ 10066550 f i libucrtd:output.obj
 0001:00065640       ?type_case_Z@?$output_processor@DV?$stream_output_adapter@D@__crt_stdio_output@@V?$standard_base@DV?$stream_output_adapter@D@__crt_stdio_output@@@2@@__crt_stdio_output@@AAE_NXZ 10066640 f i libucrtd:output.obj
 0001:00065730       ?type_case_Z@?$output_processor@DV?$string_output_adapter@D@__crt_stdio_output@@V?$format_validation_base@DV?$string_output_adapter@D@__crt_stdio_output@@@2@@__crt_stdio_output@@AAE_NXZ 10066730 f i libucrtd:output.obj
 0001:00065820       ?type_case_Z@?$output_processor@DV?$string_output_adapter@D@__crt_stdio_output@@V?$positional_parameter_base@DV?$string_output_adapter@D@__crt_stdio_output@@@2@@__crt_stdio_output@@AAE_NXZ 10066820 f i libucrtd:output.obj
 0001:00065910       ?type_case_Z@?$output_processor@DV?$string_output_adapter@D@__crt_stdio_output@@V?$standard_base@DV?$string_output_adapter@D@__crt_stdio_output@@@2@@__crt_stdio_output@@AAE_NXZ 10066910 f i libucrtd:output.obj
 0001:00065a00       ?type_case_Z@?$output_processor@_WV?$stream_output_adapter@_W@__crt_stdio_output@@V?$format_validation_base@_WV?$stream_output_adapter@_W@__crt_stdio_output@@@2@@__crt_stdio_output@@AAE_NXZ 10066a00 f i libucrtd:output.obj
 0001:00065af0       ?type_case_Z@?$output_processor@_WV?$stream_output_adapter@_W@__crt_stdio_output@@V?$positional_parameter_base@_WV?$stream_output_adapter@_W@__crt_stdio_output@@@2@@__crt_stdio_output@@AAE_NXZ 10066af0 f i libucrtd:output.obj
 0001:00065be0       ?type_case_Z@?$output_processor@_WV?$stream_output_adapter@_W@__crt_stdio_output@@V?$standard_base@_WV?$stream_output_adapter@_W@__crt_stdio_output@@@2@@__crt_stdio_output@@AAE_NXZ 10066be0 f i libucrtd:output.obj
 0001:00065cd0       ?type_case_Z@?$output_processor@_WV?$string_output_adapter@_W@__crt_stdio_output@@V?$format_validation_base@_WV?$string_output_adapter@_W@__crt_stdio_output@@@2@@__crt_stdio_output@@AAE_NXZ 10066cd0 f i libucrtd:output.obj
 0001:00065dc0       ?type_case_Z@?$output_processor@_WV?$string_output_adapter@_W@__crt_stdio_output@@V?$positional_parameter_base@_WV?$string_output_adapter@_W@__crt_stdio_output@@@2@@__crt_stdio_output@@AAE_NXZ 10066dc0 f i libucrtd:output.obj
 0001:00065eb0       ?type_case_Z@?$output_processor@_WV?$string_output_adapter@_W@__crt_stdio_output@@V?$standard_base@_WV?$string_output_adapter@_W@__crt_stdio_output@@@2@@__crt_stdio_output@@AAE_NXZ 10066eb0 f i libucrtd:output.obj
 0001:00065fa0       ?type_case_a@?$output_processor@DV?$stream_output_adapter@D@__crt_stdio_output@@V?$format_validation_base@DV?$stream_output_adapter@D@__crt_stdio_output@@@2@@__crt_stdio_output@@AAE_NXZ 10066fa0 f i libucrtd:output.obj
 0001:00066270       ?type_case_a@?$output_processor@DV?$stream_output_adapter@D@__crt_stdio_output@@V?$positional_parameter_base@DV?$stream_output_adapter@D@__crt_stdio_output@@@2@@__crt_stdio_output@@AAE_NXZ 10067270 f i libucrtd:output.obj
 0001:00066540       ?type_case_a@?$output_processor@DV?$stream_output_adapter@D@__crt_stdio_output@@V?$standard_base@DV?$stream_output_adapter@D@__crt_stdio_output@@@2@@__crt_stdio_output@@AAE_NXZ 10067540 f i libucrtd:output.obj
 0001:00066810       ?type_case_a@?$output_processor@DV?$string_output_adapter@D@__crt_stdio_output@@V?$format_validation_base@DV?$string_output_adapter@D@__crt_stdio_output@@@2@@__crt_stdio_output@@AAE_NXZ 10067810 f i libucrtd:output.obj
 0001:00066ae0       ?type_case_a@?$output_processor@DV?$string_output_adapter@D@__crt_stdio_output@@V?$positional_parameter_base@DV?$string_output_adapter@D@__crt_stdio_output@@@2@@__crt_stdio_output@@AAE_NXZ 10067ae0 f i libucrtd:output.obj
 0001:00066db0       ?type_case_a@?$output_processor@DV?$string_output_adapter@D@__crt_stdio_output@@V?$standard_base@DV?$string_output_adapter@D@__crt_stdio_output@@@2@@__crt_stdio_output@@AAE_NXZ 10067db0 f i libucrtd:output.obj
 0001:00067080       ?type_case_a@?$output_processor@_WV?$stream_output_adapter@_W@__crt_stdio_output@@V?$format_validation_base@_WV?$stream_output_adapter@_W@__crt_stdio_output@@@2@@__crt_stdio_output@@AAE_NXZ 10068080 f i libucrtd:output.obj
 0001:00067350       ?type_case_a@?$output_processor@_WV?$stream_output_adapter@_W@__crt_stdio_output@@V?$positional_parameter_base@_WV?$stream_output_adapter@_W@__crt_stdio_output@@@2@@__crt_stdio_output@@AAE_NXZ 10068350 f i libucrtd:output.obj
 0001:00067620       ?type_case_a@?$output_processor@_WV?$stream_output_adapter@_W@__crt_stdio_output@@V?$standard_base@_WV?$stream_output_adapter@_W@__crt_stdio_output@@@2@@__crt_stdio_output@@AAE_NXZ 10068620 f i libucrtd:output.obj
 0001:000678f0       ?type_case_a@?$output_processor@_WV?$string_output_adapter@_W@__crt_stdio_output@@V?$format_validation_base@_WV?$string_output_adapter@_W@__crt_stdio_output@@@2@@__crt_stdio_output@@AAE_NXZ 100688f0 f i libucrtd:output.obj
 0001:00067bc0       ?type_case_a@?$output_processor@_WV?$string_output_adapter@_W@__crt_stdio_output@@V?$positional_parameter_base@_WV?$string_output_adapter@_W@__crt_stdio_output@@@2@@__crt_stdio_output@@AAE_NXZ 10068bc0 f i libucrtd:output.obj
 0001:00067e90       ?type_case_a@?$output_processor@_WV?$string_output_adapter@_W@__crt_stdio_output@@V?$standard_base@_WV?$string_output_adapter@_W@__crt_stdio_output@@@2@@__crt_stdio_output@@AAE_NXZ 10068e90 f i libucrtd:output.obj
 0001:00068160       ?type_case_c@?$output_processor@DV?$stream_output_adapter@D@__crt_stdio_output@@V?$format_validation_base@DV?$stream_output_adapter@D@__crt_stdio_output@@@2@@__crt_stdio_output@@AAE_NXZ 10069160 f i libucrtd:output.obj
 0001:00068180       ?type_case_c@?$output_processor@DV?$stream_output_adapter@D@__crt_stdio_output@@V?$positional_parameter_base@DV?$stream_output_adapter@D@__crt_stdio_output@@@2@@__crt_stdio_output@@AAE_NXZ 10069180 f i libucrtd:output.obj
 0001:000681a0       ?type_case_c@?$output_processor@DV?$stream_output_adapter@D@__crt_stdio_output@@V?$standard_base@DV?$stream_output_adapter@D@__crt_stdio_output@@@2@@__crt_stdio_output@@AAE_NXZ 100691a0 f i libucrtd:output.obj
 0001:000681c0       ?type_case_c@?$output_processor@DV?$string_output_adapter@D@__crt_stdio_output@@V?$format_validation_base@DV?$string_output_adapter@D@__crt_stdio_output@@@2@@__crt_stdio_output@@AAE_NXZ 100691c0 f i libucrtd:output.obj
 0001:000681e0       ?type_case_c@?$output_processor@DV?$string_output_adapter@D@__crt_stdio_output@@V?$positional_parameter_base@DV?$string_output_adapter@D@__crt_stdio_output@@@2@@__crt_stdio_output@@AAE_NXZ 100691e0 f i libucrtd:output.obj
 0001:00068200       ?type_case_c@?$output_processor@DV?$string_output_adapter@D@__crt_stdio_output@@V?$standard_base@DV?$string_output_adapter@D@__crt_stdio_output@@@2@@__crt_stdio_output@@AAE_NXZ 10069200 f i libucrtd:output.obj
 0001:00068220       ?type_case_c@?$output_processor@_WV?$stream_output_adapter@_W@__crt_stdio_output@@V?$format_validation_base@_WV?$stream_output_adapter@_W@__crt_stdio_output@@@2@@__crt_stdio_output@@AAE_NXZ 10069220 f i libucrtd:output.obj
 0001:00068240       ?type_case_c@?$output_processor@_WV?$stream_output_adapter@_W@__crt_stdio_output@@V?$positional_parameter_base@_WV?$stream_output_adapter@_W@__crt_stdio_output@@@2@@__crt_stdio_output@@AAE_NXZ 10069240 f i libucrtd:output.obj
 0001:00068260       ?type_case_c@?$output_processor@_WV?$stream_output_adapter@_W@__crt_stdio_output@@V?$standard_base@_WV?$stream_output_adapter@_W@__crt_stdio_output@@@2@@__crt_stdio_output@@AAE_NXZ 10069260 f i libucrtd:output.obj
 0001:00068280       ?type_case_c@?$output_processor@_WV?$string_output_adapter@_W@__crt_stdio_output@@V?$format_validation_base@_WV?$string_output_adapter@_W@__crt_stdio_output@@@2@@__crt_stdio_output@@AAE_NXZ 10069280 f i libucrtd:output.obj
 0001:000682a0       ?type_case_c@?$output_processor@_WV?$string_output_adapter@_W@__crt_stdio_output@@V?$positional_parameter_base@_WV?$string_output_adapter@_W@__crt_stdio_output@@@2@@__crt_stdio_output@@AAE_NXZ 100692a0 f i libucrtd:output.obj
 0001:000682c0       ?type_case_c@?$output_processor@_WV?$string_output_adapter@_W@__crt_stdio_output@@V?$standard_base@_WV?$string_output_adapter@_W@__crt_stdio_output@@@2@@__crt_stdio_output@@AAE_NXZ 100692c0 f i libucrtd:output.obj
 0001:000682e0       ?type_case_c_tchar@?$output_processor@DV?$stream_output_adapter@D@__crt_stdio_output@@V?$format_validation_base@DV?$stream_output_adapter@D@__crt_stdio_output@@@2@@__crt_stdio_output@@AAE_ND@Z 100692e0 f i libucrtd:output.obj
 0001:00068410       ?type_case_c_tchar@?$output_processor@DV?$stream_output_adapter@D@__crt_stdio_output@@V?$positional_parameter_base@DV?$stream_output_adapter@D@__crt_stdio_output@@@2@@__crt_stdio_output@@AAE_ND@Z 10069410 f i libucrtd:output.obj
 0001:00068540       ?type_case_c_tchar@?$output_processor@DV?$stream_output_adapter@D@__crt_stdio_output@@V?$standard_base@DV?$stream_output_adapter@D@__crt_stdio_output@@@2@@__crt_stdio_output@@AAE_ND@Z 10069540 f i libucrtd:output.obj
 0001:00068670       ?type_case_c_tchar@?$output_processor@DV?$string_output_adapter@D@__crt_stdio_output@@V?$format_validation_base@DV?$string_output_adapter@D@__crt_stdio_output@@@2@@__crt_stdio_output@@AAE_ND@Z 10069670 f i libucrtd:output.obj
 0001:000687a0       ?type_case_c_tchar@?$output_processor@DV?$string_output_adapter@D@__crt_stdio_output@@V?$positional_parameter_base@DV?$string_output_adapter@D@__crt_stdio_output@@@2@@__crt_stdio_output@@AAE_ND@Z 100697a0 f i libucrtd:output.obj
 0001:000688d0       ?type_case_c_tchar@?$output_processor@DV?$string_output_adapter@D@__crt_stdio_output@@V?$standard_base@DV?$string_output_adapter@D@__crt_stdio_output@@@2@@__crt_stdio_output@@AAE_ND@Z 100698d0 f i libucrtd:output.obj
 0001:00068a00       ?type_case_c_tchar@?$output_processor@_WV?$stream_output_adapter@_W@__crt_stdio_output@@V?$format_validation_base@_WV?$stream_output_adapter@_W@__crt_stdio_output@@@2@@__crt_stdio_output@@AAE_N_W@Z 10069a00 f i libucrtd:output.obj
 0001:00068b20       ?type_case_c_tchar@?$output_processor@_WV?$stream_output_adapter@_W@__crt_stdio_output@@V?$positional_parameter_base@_WV?$stream_output_adapter@_W@__crt_stdio_output@@@2@@__crt_stdio_output@@AAE_N_W@Z 10069b20 f i libucrtd:output.obj
 0001:00068c40       ?type_case_c_tchar@?$output_processor@_WV?$stream_output_adapter@_W@__crt_stdio_output@@V?$standard_base@_WV?$stream_output_adapter@_W@__crt_stdio_output@@@2@@__crt_stdio_output@@AAE_N_W@Z 10069c40 f i libucrtd:output.obj
 0001:00068d60       ?type_case_c_tchar@?$output_processor@_WV?$string_output_adapter@_W@__crt_stdio_output@@V?$format_validation_base@_WV?$string_output_adapter@_W@__crt_stdio_output@@@2@@__crt_stdio_output@@AAE_N_W@Z 10069d60 f i libucrtd:output.obj
 0001:00068e80       ?type_case_c_tchar@?$output_processor@_WV?$string_output_adapter@_W@__crt_stdio_output@@V?$positional_parameter_base@_WV?$string_output_adapter@_W@__crt_stdio_output@@@2@@__crt_stdio_output@@AAE_N_W@Z 10069e80 f i libucrtd:output.obj
 0001:00068fa0       ?type_case_c_tchar@?$output_processor@_WV?$string_output_adapter@_W@__crt_stdio_output@@V?$standard_base@_WV?$string_output_adapter@_W@__crt_stdio_output@@@2@@__crt_stdio_output@@AAE_N_W@Z 10069fa0 f i libucrtd:output.obj
 0001:000690c0       ?type_case_d@?$output_processor@DV?$stream_output_adapter@D@__crt_stdio_output@@V?$format_validation_base@DV?$stream_output_adapter@D@__crt_stdio_output@@@2@@__crt_stdio_output@@AAE_NXZ 1006a0c0 f i libucrtd:output.obj
 0001:000690f0       ?type_case_d@?$output_processor@DV?$stream_output_adapter@D@__crt_stdio_output@@V?$positional_parameter_base@DV?$stream_output_adapter@D@__crt_stdio_output@@@2@@__crt_stdio_output@@AAE_NXZ 1006a0f0 f i libucrtd:output.obj
 0001:00069120       ?type_case_d@?$output_processor@DV?$stream_output_adapter@D@__crt_stdio_output@@V?$standard_base@DV?$stream_output_adapter@D@__crt_stdio_output@@@2@@__crt_stdio_output@@AAE_NXZ 1006a120 f i libucrtd:output.obj
 0001:00069150       ?type_case_d@?$output_processor@DV?$string_output_adapter@D@__crt_stdio_output@@V?$format_validation_base@DV?$string_output_adapter@D@__crt_stdio_output@@@2@@__crt_stdio_output@@AAE_NXZ 1006a150 f i libucrtd:output.obj
 0001:00069180       ?type_case_d@?$output_processor@DV?$string_output_adapter@D@__crt_stdio_output@@V?$positional_parameter_base@DV?$string_output_adapter@D@__crt_stdio_output@@@2@@__crt_stdio_output@@AAE_NXZ 1006a180 f i libucrtd:output.obj
 0001:000691b0       ?type_case_d@?$output_processor@DV?$string_output_adapter@D@__crt_stdio_output@@V?$standard_base@DV?$string_output_adapter@D@__crt_stdio_output@@@2@@__crt_stdio_output@@AAE_NXZ 1006a1b0 f i libucrtd:output.obj
 0001:000691e0       ?type_case_d@?$output_processor@_WV?$stream_output_adapter@_W@__crt_stdio_output@@V?$format_validation_base@_WV?$stream_output_adapter@_W@__crt_stdio_output@@@2@@__crt_stdio_output@@AAE_NXZ 1006a1e0 f i libucrtd:output.obj
 0001:00069210       ?type_case_d@?$output_processor@_WV?$stream_output_adapter@_W@__crt_stdio_output@@V?$positional_parameter_base@_WV?$stream_output_adapter@_W@__crt_stdio_output@@@2@@__crt_stdio_output@@AAE_NXZ 1006a210 f i libucrtd:output.obj
 0001:00069240       ?type_case_d@?$output_processor@_WV?$stream_output_adapter@_W@__crt_stdio_output@@V?$standard_base@_WV?$stream_output_adapter@_W@__crt_stdio_output@@@2@@__crt_stdio_output@@AAE_NXZ 1006a240 f i libucrtd:output.obj
 0001:00069270       ?type_case_d@?$output_processor@_WV?$string_output_adapter@_W@__crt_stdio_output@@V?$format_validation_base@_WV?$string_output_adapter@_W@__crt_stdio_output@@@2@@__crt_stdio_output@@AAE_NXZ 1006a270 f i libucrtd:output.obj
 0001:000692a0       ?type_case_d@?$output_processor@_WV?$string_output_adapter@_W@__crt_stdio_output@@V?$positional_parameter_base@_WV?$string_output_adapter@_W@__crt_stdio_output@@@2@@__crt_stdio_output@@AAE_NXZ 1006a2a0 f i libucrtd:output.obj
 0001:000692d0       ?type_case_d@?$output_processor@_WV?$string_output_adapter@_W@__crt_stdio_output@@V?$standard_base@_WV?$string_output_adapter@_W@__crt_stdio_output@@@2@@__crt_stdio_output@@AAE_NXZ 1006a2d0 f i libucrtd:output.obj
 0001:00069300       ?type_case_n@?$output_processor@DV?$stream_output_adapter@D@__crt_stdio_output@@V?$format_validation_base@DV?$stream_output_adapter@D@__crt_stdio_output@@@2@@__crt_stdio_output@@AAE_NXZ 1006a300 f i libucrtd:output.obj
 0001:00069520       ?type_case_n@?$output_processor@DV?$stream_output_adapter@D@__crt_stdio_output@@V?$positional_parameter_base@DV?$stream_output_adapter@D@__crt_stdio_output@@@2@@__crt_stdio_output@@AAE_NXZ 1006a520 f i libucrtd:output.obj
 0001:00069740       ?type_case_n@?$output_processor@DV?$stream_output_adapter@D@__crt_stdio_output@@V?$standard_base@DV?$stream_output_adapter@D@__crt_stdio_output@@@2@@__crt_stdio_output@@AAE_NXZ 1006a740 f i libucrtd:output.obj
 0001:00069960       ?type_case_n@?$output_processor@DV?$string_output_adapter@D@__crt_stdio_output@@V?$format_validation_base@DV?$string_output_adapter@D@__crt_stdio_output@@@2@@__crt_stdio_output@@AAE_NXZ 1006a960 f i libucrtd:output.obj
 0001:00069b80       ?type_case_n@?$output_processor@DV?$string_output_adapter@D@__crt_stdio_output@@V?$positional_parameter_base@DV?$string_output_adapter@D@__crt_stdio_output@@@2@@__crt_stdio_output@@AAE_NXZ 1006ab80 f i libucrtd:output.obj
 0001:00069da0       ?type_case_n@?$output_processor@DV?$string_output_adapter@D@__crt_stdio_output@@V?$standard_base@DV?$string_output_adapter@D@__crt_stdio_output@@@2@@__crt_stdio_output@@AAE_NXZ 1006ada0 f i libucrtd:output.obj
 0001:00069fc0       ?type_case_n@?$output_processor@_WV?$stream_output_adapter@_W@__crt_stdio_output@@V?$format_validation_base@_WV?$stream_output_adapter@_W@__crt_stdio_output@@@2@@__crt_stdio_output@@AAE_NXZ 1006afc0 f i libucrtd:output.obj
 0001:0006a1e0       ?type_case_n@?$output_processor@_WV?$stream_output_adapter@_W@__crt_stdio_output@@V?$positional_parameter_base@_WV?$stream_output_adapter@_W@__crt_stdio_output@@@2@@__crt_stdio_output@@AAE_NXZ 1006b1e0 f i libucrtd:output.obj
 0001:0006a400       ?type_case_n@?$output_processor@_WV?$stream_output_adapter@_W@__crt_stdio_output@@V?$standard_base@_WV?$stream_output_adapter@_W@__crt_stdio_output@@@2@@__crt_stdio_output@@AAE_NXZ 1006b400 f i libucrtd:output.obj
 0001:0006a620       ?type_case_n@?$output_processor@_WV?$string_output_adapter@_W@__crt_stdio_output@@V?$format_validation_base@_WV?$string_output_adapter@_W@__crt_stdio_output@@@2@@__crt_stdio_output@@AAE_NXZ 1006b620 f i libucrtd:output.obj
 0001:0006a840       ?type_case_n@?$output_processor@_WV?$string_output_adapter@_W@__crt_stdio_output@@V?$positional_parameter_base@_WV?$string_output_adapter@_W@__crt_stdio_output@@@2@@__crt_stdio_output@@AAE_NXZ 1006b840 f i libucrtd:output.obj
 0001:0006aa60       ?type_case_n@?$output_processor@_WV?$string_output_adapter@_W@__crt_stdio_output@@V?$standard_base@_WV?$string_output_adapter@_W@__crt_stdio_output@@@2@@__crt_stdio_output@@AAE_NXZ 1006ba60 f i libucrtd:output.obj
 0001:0006ac80       ?type_case_o@?$output_processor@DV?$stream_output_adapter@D@__crt_stdio_output@@V?$format_validation_base@DV?$stream_output_adapter@D@__crt_stdio_output@@@2@@__crt_stdio_output@@AAE_NXZ 1006bc80 f i libucrtd:output.obj
 0001:0006acc0       ?type_case_o@?$output_processor@DV?$stream_output_adapter@D@__crt_stdio_output@@V?$positional_parameter_base@DV?$stream_output_adapter@D@__crt_stdio_output@@@2@@__crt_stdio_output@@AAE_NXZ 1006bcc0 f i libucrtd:output.obj
 0001:0006ad00       ?type_case_o@?$output_processor@DV?$stream_output_adapter@D@__crt_stdio_output@@V?$standard_base@DV?$stream_output_adapter@D@__crt_stdio_output@@@2@@__crt_stdio_output@@AAE_NXZ 1006bd00 f i libucrtd:output.obj
 0001:0006ad40       ?type_case_o@?$output_processor@DV?$string_output_adapter@D@__crt_stdio_output@@V?$format_validation_base@DV?$string_output_adapter@D@__crt_stdio_output@@@2@@__crt_stdio_output@@AAE_NXZ 1006bd40 f i libucrtd:output.obj
 0001:0006ad80       ?type_case_o@?$output_processor@DV?$string_output_adapter@D@__crt_stdio_output@@V?$positional_parameter_base@DV?$string_output_adapter@D@__crt_stdio_output@@@2@@__crt_stdio_output@@AAE_NXZ 1006bd80 f i libucrtd:output.obj
 0001:0006adc0       ?type_case_o@?$output_processor@DV?$string_output_adapter@D@__crt_stdio_output@@V?$standard_base@DV?$string_output_adapter@D@__crt_stdio_output@@@2@@__crt_stdio_output@@AAE_NXZ 1006bdc0 f i libucrtd:output.obj
 0001:0006ae00       ?type_case_o@?$output_processor@_WV?$stream_output_adapter@_W@__crt_stdio_output@@V?$format_validation_base@_WV?$stream_output_adapter@_W@__crt_stdio_output@@@2@@__crt_stdio_output@@AAE_NXZ 1006be00 f i libucrtd:output.obj
 0001:0006ae40       ?type_case_o@?$output_processor@_WV?$stream_output_adapter@_W@__crt_stdio_output@@V?$positional_parameter_base@_WV?$stream_output_adapter@_W@__crt_stdio_output@@@2@@__crt_stdio_output@@AAE_NXZ 1006be40 f i libucrtd:output.obj
 0001:0006ae80       ?type_case_o@?$output_processor@_WV?$stream_output_adapter@_W@__crt_stdio_output@@V?$standard_base@_WV?$stream_output_adapter@_W@__crt_stdio_output@@@2@@__crt_stdio_output@@AAE_NXZ 1006be80 f i libucrtd:output.obj
 0001:0006aec0       ?type_case_o@?$output_processor@_WV?$string_output_adapter@_W@__crt_stdio_output@@V?$format_validation_base@_WV?$string_output_adapter@_W@__crt_stdio_output@@@2@@__crt_stdio_output@@AAE_NXZ 1006bec0 f i libucrtd:output.obj
 0001:0006af00       ?type_case_o@?$output_processor@_WV?$string_output_adapter@_W@__crt_stdio_output@@V?$positional_parameter_base@_WV?$string_output_adapter@_W@__crt_stdio_output@@@2@@__crt_stdio_output@@AAE_NXZ 1006bf00 f i libucrtd:output.obj
 0001:0006af40       ?type_case_o@?$output_processor@_WV?$string_output_adapter@_W@__crt_stdio_output@@V?$standard_base@_WV?$string_output_adapter@_W@__crt_stdio_output@@@2@@__crt_stdio_output@@AAE_NXZ 1006bf40 f i libucrtd:output.obj
 0001:0006af80       ?type_case_p@?$output_processor@DV?$stream_output_adapter@D@__crt_stdio_output@@V?$format_validation_base@DV?$stream_output_adapter@D@__crt_stdio_output@@@2@@__crt_stdio_output@@AAE_NXZ 1006bf80 f i libucrtd:output.obj
 0001:0006afb0       ?type_case_p@?$output_processor@DV?$stream_output_adapter@D@__crt_stdio_output@@V?$positional_parameter_base@DV?$stream_output_adapter@D@__crt_stdio_output@@@2@@__crt_stdio_output@@AAE_NXZ 1006bfb0 f i libucrtd:output.obj
 0001:0006afe0       ?type_case_p@?$output_processor@DV?$stream_output_adapter@D@__crt_stdio_output@@V?$standard_base@DV?$stream_output_adapter@D@__crt_stdio_output@@@2@@__crt_stdio_output@@AAE_NXZ 1006bfe0 f i libucrtd:output.obj
 0001:0006b010       ?type_case_p@?$output_processor@DV?$string_output_adapter@D@__crt_stdio_output@@V?$format_validation_base@DV?$string_output_adapter@D@__crt_stdio_output@@@2@@__crt_stdio_output@@AAE_NXZ 1006c010 f i libucrtd:output.obj
 0001:0006b040       ?type_case_p@?$output_processor@DV?$string_output_adapter@D@__crt_stdio_output@@V?$positional_parameter_base@DV?$string_output_adapter@D@__crt_stdio_output@@@2@@__crt_stdio_output@@AAE_NXZ 1006c040 f i libucrtd:output.obj
 0001:0006b070       ?type_case_p@?$output_processor@DV?$string_output_adapter@D@__crt_stdio_output@@V?$standard_base@DV?$string_output_adapter@D@__crt_stdio_output@@@2@@__crt_stdio_output@@AAE_NXZ 1006c070 f i libucrtd:output.obj
 0001:0006b0a0       ?type_case_p@?$output_processor@_WV?$stream_output_adapter@_W@__crt_stdio_output@@V?$format_validation_base@_WV?$stream_output_adapter@_W@__crt_stdio_output@@@2@@__crt_stdio_output@@AAE_NXZ 1006c0a0 f i libucrtd:output.obj
 0001:0006b0d0       ?type_case_p@?$output_processor@_WV?$stream_output_adapter@_W@__crt_stdio_output@@V?$positional_parameter_base@_WV?$stream_output_adapter@_W@__crt_stdio_output@@@2@@__crt_stdio_output@@AAE_NXZ 1006c0d0 f i libucrtd:output.obj
 0001:0006b100       ?type_case_p@?$output_processor@_WV?$stream_output_adapter@_W@__crt_stdio_output@@V?$standard_base@_WV?$stream_output_adapter@_W@__crt_stdio_output@@@2@@__crt_stdio_output@@AAE_NXZ 1006c100 f i libucrtd:output.obj
 0001:0006b130       ?type_case_p@?$output_processor@_WV?$string_output_adapter@_W@__crt_stdio_output@@V?$format_validation_base@_WV?$string_output_adapter@_W@__crt_stdio_output@@@2@@__crt_stdio_output@@AAE_NXZ 1006c130 f i libucrtd:output.obj
 0001:0006b160       ?type_case_p@?$output_processor@_WV?$string_output_adapter@_W@__crt_stdio_output@@V?$positional_parameter_base@_WV?$string_output_adapter@_W@__crt_stdio_output@@@2@@__crt_stdio_output@@AAE_NXZ 1006c160 f i libucrtd:output.obj
 0001:0006b190       ?type_case_p@?$output_processor@_WV?$string_output_adapter@_W@__crt_stdio_output@@V?$standard_base@_WV?$string_output_adapter@_W@__crt_stdio_output@@@2@@__crt_stdio_output@@AAE_NXZ 1006c190 f i libucrtd:output.obj
 0001:0006b1c0       ?type_case_s@?$output_processor@DV?$stream_output_adapter@D@__crt_stdio_output@@V?$format_validation_base@DV?$stream_output_adapter@D@__crt_stdio_output@@@2@@__crt_stdio_output@@AAE_NXZ 1006c1c0 f i libucrtd:output.obj
 0001:0006b2b0       ?type_case_s@?$output_processor@DV?$stream_output_adapter@D@__crt_stdio_output@@V?$positional_parameter_base@DV?$stream_output_adapter@D@__crt_stdio_output@@@2@@__crt_stdio_output@@AAE_NXZ 1006c2b0 f i libucrtd:output.obj
 0001:0006b3a0       ?type_case_s@?$output_processor@DV?$stream_output_adapter@D@__crt_stdio_output@@V?$standard_base@DV?$stream_output_adapter@D@__crt_stdio_output@@@2@@__crt_stdio_output@@AAE_NXZ 1006c3a0 f i libucrtd:output.obj
 0001:0006b490       ?type_case_s@?$output_processor@DV?$string_output_adapter@D@__crt_stdio_output@@V?$format_validation_base@DV?$string_output_adapter@D@__crt_stdio_output@@@2@@__crt_stdio_output@@AAE_NXZ 1006c490 f i libucrtd:output.obj
 0001:0006b580       ?type_case_s@?$output_processor@DV?$string_output_adapter@D@__crt_stdio_output@@V?$positional_parameter_base@DV?$string_output_adapter@D@__crt_stdio_output@@@2@@__crt_stdio_output@@AAE_NXZ 1006c580 f i libucrtd:output.obj
 0001:0006b670       ?type_case_s@?$output_processor@DV?$string_output_adapter@D@__crt_stdio_output@@V?$standard_base@DV?$string_output_adapter@D@__crt_stdio_output@@@2@@__crt_stdio_output@@AAE_NXZ 1006c670 f i libucrtd:output.obj
 0001:0006b760       ?type_case_s@?$output_processor@_WV?$stream_output_adapter@_W@__crt_stdio_output@@V?$format_validation_base@_WV?$stream_output_adapter@_W@__crt_stdio_output@@@2@@__crt_stdio_output@@AAE_NXZ 1006c760 f i libucrtd:output.obj
 0001:0006b850       ?type_case_s@?$output_processor@_WV?$stream_output_adapter@_W@__crt_stdio_output@@V?$positional_parameter_base@_WV?$stream_output_adapter@_W@__crt_stdio_output@@@2@@__crt_stdio_output@@AAE_NXZ 1006c850 f i libucrtd:output.obj
 0001:0006b940       ?type_case_s@?$output_processor@_WV?$stream_output_adapter@_W@__crt_stdio_output@@V?$standard_base@_WV?$stream_output_adapter@_W@__crt_stdio_output@@@2@@__crt_stdio_output@@AAE_NXZ 1006c940 f i libucrtd:output.obj
 0001:0006ba30       ?type_case_s@?$output_processor@_WV?$string_output_adapter@_W@__crt_stdio_output@@V?$format_validation_base@_WV?$string_output_adapter@_W@__crt_stdio_output@@@2@@__crt_stdio_output@@AAE_NXZ 1006ca30 f i libucrtd:output.obj
 0001:0006bb20       ?type_case_s@?$output_processor@_WV?$string_output_adapter@_W@__crt_stdio_output@@V?$positional_parameter_base@_WV?$string_output_adapter@_W@__crt_stdio_output@@@2@@__crt_stdio_output@@AAE_NXZ 1006cb20 f i libucrtd:output.obj
 0001:0006bc10       ?type_case_s@?$output_processor@_WV?$string_output_adapter@_W@__crt_stdio_output@@V?$standard_base@_WV?$string_output_adapter@_W@__crt_stdio_output@@@2@@__crt_stdio_output@@AAE_NXZ 1006cc10 f i libucrtd:output.obj
 0001:0006bd00       ?type_case_s_compute_narrow_string_length@?$output_processor@DV?$stream_output_adapter@D@__crt_stdio_output@@V?$format_validation_base@DV?$stream_output_adapter@D@__crt_stdio_output@@@2@@__crt_stdio_output@@AAEHHD@Z 1006cd00 f i libucrtd:output.obj
 0001:0006bd30       ?type_case_s_compute_narrow_string_length@?$output_processor@DV?$stream_output_adapter@D@__crt_stdio_output@@V?$positional_parameter_base@DV?$stream_output_adapter@D@__crt_stdio_output@@@2@@__crt_stdio_output@@AAEHHD@Z 1006cd30 f i libucrtd:output.obj
 0001:0006bd60       ?type_case_s_compute_narrow_string_length@?$output_processor@DV?$stream_output_adapter@D@__crt_stdio_output@@V?$standard_base@DV?$stream_output_adapter@D@__crt_stdio_output@@@2@@__crt_stdio_output@@AAEHHD@Z 1006cd60 f i libucrtd:output.obj
 0001:0006bd90       ?type_case_s_compute_narrow_string_length@?$output_processor@DV?$string_output_adapter@D@__crt_stdio_output@@V?$format_validation_base@DV?$string_output_adapter@D@__crt_stdio_output@@@2@@__crt_stdio_output@@AAEHHD@Z 1006cd90 f i libucrtd:output.obj
 0001:0006bdc0       ?type_case_s_compute_narrow_string_length@?$output_processor@DV?$string_output_adapter@D@__crt_stdio_output@@V?$positional_parameter_base@DV?$string_output_adapter@D@__crt_stdio_output@@@2@@__crt_stdio_output@@AAEHHD@Z 1006cdc0 f i libucrtd:output.obj
 0001:0006bdf0       ?type_case_s_compute_narrow_string_length@?$output_processor@DV?$string_output_adapter@D@__crt_stdio_output@@V?$standard_base@DV?$string_output_adapter@D@__crt_stdio_output@@@2@@__crt_stdio_output@@AAEHHD@Z 1006cdf0 f i libucrtd:output.obj
 0001:0006be20       ?type_case_s_compute_narrow_string_length@?$output_processor@_WV?$stream_output_adapter@_W@__crt_stdio_output@@V?$format_validation_base@_WV?$stream_output_adapter@_W@__crt_stdio_output@@@2@@__crt_stdio_output@@AAEHH_W@Z 1006ce20 f i libucrtd:output.obj
 0001:0006bea0       ?type_case_s_compute_narrow_string_length@?$output_processor@_WV?$stream_output_adapter@_W@__crt_stdio_output@@V?$positional_parameter_base@_WV?$stream_output_adapter@_W@__crt_stdio_output@@@2@@__crt_stdio_output@@AAEHH_W@Z 1006cea0 f i libucrtd:output.obj
 0001:0006bf20       ?type_case_s_compute_narrow_string_length@?$output_processor@_WV?$stream_output_adapter@_W@__crt_stdio_output@@V?$standard_base@_WV?$stream_output_adapter@_W@__crt_stdio_output@@@2@@__crt_stdio_output@@AAEHH_W@Z 1006cf20 f i libucrtd:output.obj
 0001:0006bfa0       ?type_case_s_compute_narrow_string_length@?$output_processor@_WV?$string_output_adapter@_W@__crt_stdio_output@@V?$format_validation_base@_WV?$string_output_adapter@_W@__crt_stdio_output@@@2@@__crt_stdio_output@@AAEHH_W@Z 1006cfa0 f i libucrtd:output.obj
 0001:0006c020       ?type_case_s_compute_narrow_string_length@?$output_processor@_WV?$string_output_adapter@_W@__crt_stdio_output@@V?$positional_parameter_base@_WV?$string_output_adapter@_W@__crt_stdio_output@@@2@@__crt_stdio_output@@AAEHH_W@Z 1006d020 f i libucrtd:output.obj
 0001:0006c0a0       ?type_case_s_compute_narrow_string_length@?$output_processor@_WV?$string_output_adapter@_W@__crt_stdio_output@@V?$standard_base@_WV?$string_output_adapter@_W@__crt_stdio_output@@@2@@__crt_stdio_output@@AAEHH_W@Z 1006d0a0 f i libucrtd:output.obj
 0001:0006c120       ?type_case_u@?$output_processor@DV?$stream_output_adapter@D@__crt_stdio_output@@V?$format_validation_base@DV?$stream_output_adapter@D@__crt_stdio_output@@@2@@__crt_stdio_output@@AAE_NXZ 1006d120 f i libucrtd:output.obj
 0001:0006c140       ?type_case_u@?$output_processor@DV?$stream_output_adapter@D@__crt_stdio_output@@V?$positional_parameter_base@DV?$stream_output_adapter@D@__crt_stdio_output@@@2@@__crt_stdio_output@@AAE_NXZ 1006d140 f i libucrtd:output.obj
 0001:0006c160       ?type_case_u@?$output_processor@DV?$stream_output_adapter@D@__crt_stdio_output@@V?$standard_base@DV?$stream_output_adapter@D@__crt_stdio_output@@@2@@__crt_stdio_output@@AAE_NXZ 1006d160 f i libucrtd:output.obj
 0001:0006c180       ?type_case_u@?$output_processor@DV?$string_output_adapter@D@__crt_stdio_output@@V?$format_validation_base@DV?$string_output_adapter@D@__crt_stdio_output@@@2@@__crt_stdio_output@@AAE_NXZ 1006d180 f i libucrtd:output.obj
 0001:0006c1a0       ?type_case_u@?$output_processor@DV?$string_output_adapter@D@__crt_stdio_output@@V?$positional_parameter_base@DV?$string_output_adapter@D@__crt_stdio_output@@@2@@__crt_stdio_output@@AAE_NXZ 1006d1a0 f i libucrtd:output.obj
 0001:0006c1c0       ?type_case_u@?$output_processor@DV?$string_output_adapter@D@__crt_stdio_output@@V?$standard_base@DV?$string_output_adapter@D@__crt_stdio_output@@@2@@__crt_stdio_output@@AAE_NXZ 1006d1c0 f i libucrtd:output.obj
 0001:0006c1e0       ?type_case_u@?$output_processor@_WV?$stream_output_adapter@_W@__crt_stdio_output@@V?$format_validation_base@_WV?$stream_output_adapter@_W@__crt_stdio_output@@@2@@__crt_stdio_output@@AAE_NXZ 1006d1e0 f i libucrtd:output.obj
 0001:0006c200       ?type_case_u@?$output_processor@_WV?$stream_output_adapter@_W@__crt_stdio_output@@V?$positional_parameter_base@_WV?$stream_output_adapter@_W@__crt_stdio_output@@@2@@__crt_stdio_output@@AAE_NXZ 1006d200 f i libucrtd:output.obj
 0001:0006c220       ?type_case_u@?$output_processor@_WV?$stream_output_adapter@_W@__crt_stdio_output@@V?$standard_base@_WV?$stream_output_adapter@_W@__crt_stdio_output@@@2@@__crt_stdio_output@@AAE_NXZ 1006d220 f i libucrtd:output.obj
 0001:0006c240       ?type_case_u@?$output_processor@_WV?$string_output_adapter@_W@__crt_stdio_output@@V?$format_validation_base@_WV?$string_output_adapter@_W@__crt_stdio_output@@@2@@__crt_stdio_output@@AAE_NXZ 1006d240 f i libucrtd:output.obj
 0001:0006c260       ?type_case_u@?$output_processor@_WV?$string_output_adapter@_W@__crt_stdio_output@@V?$positional_parameter_base@_WV?$string_output_adapter@_W@__crt_stdio_output@@@2@@__crt_stdio_output@@AAE_NXZ 1006d260 f i libucrtd:output.obj
 0001:0006c280       ?type_case_u@?$output_processor@_WV?$string_output_adapter@_W@__crt_stdio_output@@V?$standard_base@_WV?$string_output_adapter@_W@__crt_stdio_output@@@2@@__crt_stdio_output@@AAE_NXZ 1006d280 f i libucrtd:output.obj
 0001:0006c2a0       ?type_case_x@?$output_processor@DV?$stream_output_adapter@D@__crt_stdio_output@@V?$format_validation_base@DV?$stream_output_adapter@D@__crt_stdio_output@@@2@@__crt_stdio_output@@AAE_NXZ 1006d2a0 f i libucrtd:output.obj
 0001:0006c2c0       ?type_case_x@?$output_processor@DV?$stream_output_adapter@D@__crt_stdio_output@@V?$positional_parameter_base@DV?$stream_output_adapter@D@__crt_stdio_output@@@2@@__crt_stdio_output@@AAE_NXZ 1006d2c0 f i libucrtd:output.obj
 0001:0006c2e0       ?type_case_x@?$output_processor@DV?$stream_output_adapter@D@__crt_stdio_output@@V?$standard_base@DV?$stream_output_adapter@D@__crt_stdio_output@@@2@@__crt_stdio_output@@AAE_NXZ 1006d2e0 f i libucrtd:output.obj
 0001:0006c300       ?type_case_x@?$output_processor@DV?$string_output_adapter@D@__crt_stdio_output@@V?$format_validation_base@DV?$string_output_adapter@D@__crt_stdio_output@@@2@@__crt_stdio_output@@AAE_NXZ 1006d300 f i libucrtd:output.obj
 0001:0006c320       ?type_case_x@?$output_processor@DV?$string_output_adapter@D@__crt_stdio_output@@V?$positional_parameter_base@DV?$string_output_adapter@D@__crt_stdio_output@@@2@@__crt_stdio_output@@AAE_NXZ 1006d320 f i libucrtd:output.obj
 0001:0006c340       ?type_case_x@?$output_processor@DV?$string_output_adapter@D@__crt_stdio_output@@V?$standard_base@DV?$string_output_adapter@D@__crt_stdio_output@@@2@@__crt_stdio_output@@AAE_NXZ 1006d340 f i libucrtd:output.obj
 0001:0006c360       ?type_case_x@?$output_processor@_WV?$stream_output_adapter@_W@__crt_stdio_output@@V?$format_validation_base@_WV?$stream_output_adapter@_W@__crt_stdio_output@@@2@@__crt_stdio_output@@AAE_NXZ 1006d360 f i libucrtd:output.obj
 0001:0006c380       ?type_case_x@?$output_processor@_WV?$stream_output_adapter@_W@__crt_stdio_output@@V?$positional_parameter_base@_WV?$stream_output_adapter@_W@__crt_stdio_output@@@2@@__crt_stdio_output@@AAE_NXZ 1006d380 f i libucrtd:output.obj
 0001:0006c3a0       ?type_case_x@?$output_processor@_WV?$stream_output_adapter@_W@__crt_stdio_output@@V?$standard_base@_WV?$stream_output_adapter@_W@__crt_stdio_output@@@2@@__crt_stdio_output@@AAE_NXZ 1006d3a0 f i libucrtd:output.obj
 0001:0006c3c0       ?type_case_x@?$output_processor@_WV?$string_output_adapter@_W@__crt_stdio_output@@V?$format_validation_base@_WV?$string_output_adapter@_W@__crt_stdio_output@@@2@@__crt_stdio_output@@AAE_NXZ 1006d3c0 f i libucrtd:output.obj
 0001:0006c3e0       ?type_case_x@?$output_processor@_WV?$string_output_adapter@_W@__crt_stdio_output@@V?$positional_parameter_base@_WV?$string_output_adapter@_W@__crt_stdio_output@@@2@@__crt_stdio_output@@AAE_NXZ 1006d3e0 f i libucrtd:output.obj
 0001:0006c400       ?type_case_x@?$output_processor@_WV?$string_output_adapter@_W@__crt_stdio_output@@V?$standard_base@_WV?$string_output_adapter@_W@__crt_stdio_output@@@2@@__crt_stdio_output@@AAE_NXZ 1006d400 f i libucrtd:output.obj
 0001:0006c420       ?unget@?$c_string_character_source@D@__crt_strtox@@QAEXD@Z 1006d420 f i libucrtd:output.obj
 0001:0006c4d0       ?unget@?$c_string_character_source@_W@__crt_strtox@@QAEX_W@Z 1006d4d0 f i libucrtd:output.obj
 0001:0006c580       ?unsafe_value@?$cached@H@__crt_cached_ptd_host@@QAEHXZ 1006d580 f i libucrtd:output.obj
 0001:0006c5a0       ?unsafe_value@?$cached@K@__crt_cached_ptd_host@@QAEKXZ 1006d5a0 f i libucrtd:output.obj
 0001:0006c5c0       ?unset_flag@?$output_processor@DV?$stream_output_adapter@D@__crt_stdio_output@@V?$format_validation_base@DV?$stream_output_adapter@D@__crt_stdio_output@@@2@@__crt_stdio_output@@AAEXI@Z 1006d5c0 f i libucrtd:output.obj
 0001:0006c5e0       ?unset_flag@?$output_processor@DV?$stream_output_adapter@D@__crt_stdio_output@@V?$positional_parameter_base@DV?$stream_output_adapter@D@__crt_stdio_output@@@2@@__crt_stdio_output@@AAEXI@Z 1006d5e0 f i libucrtd:output.obj
 0001:0006c600       ?unset_flag@?$output_processor@DV?$stream_output_adapter@D@__crt_stdio_output@@V?$standard_base@DV?$stream_output_adapter@D@__crt_stdio_output@@@2@@__crt_stdio_output@@AAEXI@Z 1006d600 f i libucrtd:output.obj
 0001:0006c620       ?unset_flag@?$output_processor@DV?$string_output_adapter@D@__crt_stdio_output@@V?$format_validation_base@DV?$string_output_adapter@D@__crt_stdio_output@@@2@@__crt_stdio_output@@AAEXI@Z 1006d620 f i libucrtd:output.obj
 0001:0006c640       ?unset_flag@?$output_processor@DV?$string_output_adapter@D@__crt_stdio_output@@V?$positional_parameter_base@DV?$string_output_adapter@D@__crt_stdio_output@@@2@@__crt_stdio_output@@AAEXI@Z 1006d640 f i libucrtd:output.obj
 0001:0006c660       ?unset_flag@?$output_processor@DV?$string_output_adapter@D@__crt_stdio_output@@V?$standard_base@DV?$string_output_adapter@D@__crt_stdio_output@@@2@@__crt_stdio_output@@AAEXI@Z 1006d660 f i libucrtd:output.obj
 0001:0006c680       ?unset_flag@?$output_processor@_WV?$stream_output_adapter@_W@__crt_stdio_output@@V?$format_validation_base@_WV?$stream_output_adapter@_W@__crt_stdio_output@@@2@@__crt_stdio_output@@AAEXI@Z 1006d680 f i libucrtd:output.obj
 0001:0006c6a0       ?unset_flag@?$output_processor@_WV?$stream_output_adapter@_W@__crt_stdio_output@@V?$positional_parameter_base@_WV?$stream_output_adapter@_W@__crt_stdio_output@@@2@@__crt_stdio_output@@AAEXI@Z 1006d6a0 f i libucrtd:output.obj
 0001:0006c6c0       ?unset_flag@?$output_processor@_WV?$stream_output_adapter@_W@__crt_stdio_output@@V?$standard_base@_WV?$stream_output_adapter@_W@__crt_stdio_output@@@2@@__crt_stdio_output@@AAEXI@Z 1006d6c0 f i libucrtd:output.obj
 0001:0006c6e0       ?unset_flag@?$output_processor@_WV?$string_output_adapter@_W@__crt_stdio_output@@V?$format_validation_base@_WV?$string_output_adapter@_W@__crt_stdio_output@@@2@@__crt_stdio_output@@AAEXI@Z 1006d6e0 f i libucrtd:output.obj
 0001:0006c700       ?unset_flag@?$output_processor@_WV?$string_output_adapter@_W@__crt_stdio_output@@V?$positional_parameter_base@_WV?$string_output_adapter@_W@__crt_stdio_output@@@2@@__crt_stdio_output@@AAEXI@Z 1006d700 f i libucrtd:output.obj
 0001:0006c720       ?unset_flag@?$output_processor@_WV?$string_output_adapter@_W@__crt_stdio_output@@V?$standard_base@_WV?$string_output_adapter@_W@__crt_stdio_output@@@2@@__crt_stdio_output@@AAEXI@Z 1006d720 f i libucrtd:output.obj
 0001:0006c740       ?update_field_width@?$positional_parameter_base@DV?$stream_output_adapter@D@__crt_stdio_output@@@__crt_stdio_output@@IAE_NXZ 1006d740 f i libucrtd:output.obj
 0001:0006c8d0       ?update_field_width@?$positional_parameter_base@DV?$string_output_adapter@D@__crt_stdio_output@@@__crt_stdio_output@@IAE_NXZ 1006d8d0 f i libucrtd:output.obj
 0001:0006ca60       ?update_field_width@?$positional_parameter_base@_WV?$stream_output_adapter@_W@__crt_stdio_output@@@__crt_stdio_output@@IAE_NXZ 1006da60 f i libucrtd:output.obj
 0001:0006cbf0       ?update_field_width@?$positional_parameter_base@_WV?$string_output_adapter@_W@__crt_stdio_output@@@__crt_stdio_output@@IAE_NXZ 1006dbf0 f i libucrtd:output.obj
 0001:0006cd80       ?update_field_width@?$standard_base@DV?$stream_output_adapter@D@__crt_stdio_output@@@__crt_stdio_output@@IAE_NXZ 1006dd80 f i libucrtd:output.obj
 0001:0006cdb0       ?update_field_width@?$standard_base@DV?$string_output_adapter@D@__crt_stdio_output@@@__crt_stdio_output@@IAE_NXZ 1006ddb0 f i libucrtd:output.obj
 0001:0006cde0       ?update_field_width@?$standard_base@_WV?$stream_output_adapter@_W@__crt_stdio_output@@@__crt_stdio_output@@IAE_NXZ 1006dde0 f i libucrtd:output.obj
 0001:0006ce10       ?update_field_width@?$standard_base@_WV?$string_output_adapter@_W@__crt_stdio_output@@@__crt_stdio_output@@IAE_NXZ 1006de10 f i libucrtd:output.obj
 0001:0006ce40       ?update_locale@__crt_cached_ptd_host@@AAEXXZ 1006de40 f i libucrtd:output.obj
 0001:0006ce60       ?update_locale_slow@__crt_cached_ptd_host@@AAEXXZ 1006de60 f i libucrtd:output.obj
 0001:0006cef0       ?update_precision@?$positional_parameter_base@DV?$stream_output_adapter@D@__crt_stdio_output@@@__crt_stdio_output@@IAE_NXZ 1006def0 f i libucrtd:output.obj
 0001:0006d080       ?update_precision@?$positional_parameter_base@DV?$string_output_adapter@D@__crt_stdio_output@@@__crt_stdio_output@@IAE_NXZ 1006e080 f i libucrtd:output.obj
 0001:0006d210       ?update_precision@?$positional_parameter_base@_WV?$stream_output_adapter@_W@__crt_stdio_output@@@__crt_stdio_output@@IAE_NXZ 1006e210 f i libucrtd:output.obj
 0001:0006d3a0       ?update_precision@?$positional_parameter_base@_WV?$string_output_adapter@_W@__crt_stdio_output@@@__crt_stdio_output@@IAE_NXZ 1006e3a0 f i libucrtd:output.obj
 0001:0006d530       ?update_precision@?$standard_base@DV?$stream_output_adapter@D@__crt_stdio_output@@@__crt_stdio_output@@IAE_NXZ 1006e530 f i libucrtd:output.obj
 0001:0006d560       ?update_precision@?$standard_base@DV?$string_output_adapter@D@__crt_stdio_output@@@__crt_stdio_output@@IAE_NXZ 1006e560 f i libucrtd:output.obj
 0001:0006d590       ?update_precision@?$standard_base@_WV?$stream_output_adapter@_W@__crt_stdio_output@@@__crt_stdio_output@@IAE_NXZ 1006e590 f i libucrtd:output.obj
 0001:0006d5c0       ?update_precision@?$standard_base@_WV?$string_output_adapter@_W@__crt_stdio_output@@@__crt_stdio_output@@IAE_NXZ 1006e5c0 f i libucrtd:output.obj
 0001:0006d5f0       ?valid@?$cached@H@__crt_cached_ptd_host@@QBE_NXZ 1006e5f0 f i libucrtd:output.obj
 0001:0006d610       ?valid@?$cached@K@__crt_cached_ptd_host@@QBE_NXZ 1006e610 f i libucrtd:output.obj
 0001:0006d630       ?valid@__crt_stdio_stream@@QBE_NXZ 1006e630 f i libucrtd:output.obj
 0001:0006d660       ?validate@?$c_string_character_source@D@__crt_strtox@@QBE_NXZ 1006e660 f i libucrtd:output.obj
 0001:0006d6f0       ?validate@?$c_string_character_source@_W@__crt_strtox@@QBE_NXZ 1006e6f0 f i libucrtd:output.obj
 0001:0006d780       ?validate@?$stream_output_adapter@D@__crt_stdio_output@@QBE_NAAV__crt_cached_ptd_host@@@Z 1006e780 f i libucrtd:output.obj
 0001:0006d840       ?validate@?$stream_output_adapter@_W@__crt_stdio_output@@QBE_NAAV__crt_cached_ptd_host@@@Z 1006e840 f i libucrtd:output.obj
 0001:0006d900       ?validate@?$string_output_adapter@D@__crt_stdio_output@@QBE_NAAV__crt_cached_ptd_host@@@Z 1006e900 f i libucrtd:output.obj
 0001:0006d9a0       ?validate@?$string_output_adapter@_W@__crt_stdio_output@@QBE_NAAV__crt_cached_ptd_host@@@Z 1006e9a0 f i libucrtd:output.obj
 0001:0006da40       ?validate_and_store_parameter_data@?$positional_parameter_base@DV?$stream_output_adapter@D@__crt_stdio_output@@@__crt_stdio_output@@AAE_NAAUparameter_data@12@W4parameter_type@12@DW4length_modifier@2@@Z 1006ea40 f i libucrtd:output.obj
 0001:0006db30       ?validate_and_store_parameter_data@?$positional_parameter_base@DV?$string_output_adapter@D@__crt_stdio_output@@@__crt_stdio_output@@AAE_NAAUparameter_data@12@W4parameter_type@12@DW4length_modifier@2@@Z 1006eb30 f i libucrtd:output.obj
 0001:0006dc20       ?validate_and_store_parameter_data@?$positional_parameter_base@_WV?$stream_output_adapter@_W@__crt_stdio_output@@@__crt_stdio_output@@AAE_NAAUparameter_data@12@W4parameter_type@12@_WW4length_modifier@2@@Z 1006ec20 f i libucrtd:output.obj
 0001:0006dd10       ?validate_and_store_parameter_data@?$positional_parameter_base@_WV?$string_output_adapter@_W@__crt_stdio_output@@@__crt_stdio_output@@AAE_NAAUparameter_data@12@W4parameter_type@12@_WW4length_modifier@2@@Z 1006ed10 f i libucrtd:output.obj
 0001:0006de00       ?validate_and_update_state_at_beginning_of_format_character@?$positional_parameter_base@DV?$stream_output_adapter@D@__crt_stdio_output@@@__crt_stdio_output@@IAE_NXZ 1006ee00 f i libucrtd:output.obj
 0001:0006e030       ?validate_and_update_state_at_beginning_of_format_character@?$positional_parameter_base@DV?$string_output_adapter@D@__crt_stdio_output@@@__crt_stdio_output@@IAE_NXZ 1006f030 f i libucrtd:output.obj
 0001:0006e260       ?validate_and_update_state_at_beginning_of_format_character@?$positional_parameter_base@_WV?$stream_output_adapter@_W@__crt_stdio_output@@@__crt_stdio_output@@IAE_NXZ 1006f260 f i libucrtd:output.obj
 0001:0006e490       ?validate_and_update_state_at_beginning_of_format_character@?$positional_parameter_base@_WV?$string_output_adapter@_W@__crt_stdio_output@@@__crt_stdio_output@@IAE_NXZ 1006f490 f i libucrtd:output.obj
 0001:0006e6c0       ?validate_and_update_state_at_beginning_of_format_character@?$standard_base@DV?$stream_output_adapter@D@__crt_stdio_output@@@__crt_stdio_output@@IAE_NXZ 1006f6c0 f i libucrtd:output.obj
 0001:0006e6d0       ?validate_and_update_state_at_beginning_of_format_character@?$standard_base@DV?$string_output_adapter@D@__crt_stdio_output@@@__crt_stdio_output@@IAE_NXZ 1006f6d0 f i libucrtd:output.obj
 0001:0006e6e0       ?validate_and_update_state_at_beginning_of_format_character@?$standard_base@_WV?$stream_output_adapter@_W@__crt_stdio_output@@@__crt_stdio_output@@IAE_NXZ 1006f6e0 f i libucrtd:output.obj
 0001:0006e6f0       ?validate_and_update_state_at_beginning_of_format_character@?$standard_base@_WV?$string_output_adapter@_W@__crt_stdio_output@@@__crt_stdio_output@@IAE_NXZ 1006f6f0 f i libucrtd:output.obj
 0001:0006e700       ?validate_and_update_state_at_end_of_format_string@?$format_validation_base@DV?$stream_output_adapter@D@__crt_stdio_output@@@__crt_stdio_output@@IAE_NXZ 1006f700 f i libucrtd:output.obj
 0001:0006e7b0       ?validate_and_update_state_at_end_of_format_string@?$format_validation_base@DV?$string_output_adapter@D@__crt_stdio_output@@@__crt_stdio_output@@IAE_NXZ 1006f7b0 f i libucrtd:output.obj
 0001:0006e860       ?validate_and_update_state_at_end_of_format_string@?$format_validation_base@_WV?$stream_output_adapter@_W@__crt_stdio_output@@@__crt_stdio_output@@IAE_NXZ 1006f860 f i libucrtd:output.obj
 0001:0006e910       ?validate_and_update_state_at_end_of_format_string@?$format_validation_base@_WV?$string_output_adapter@_W@__crt_stdio_output@@@__crt_stdio_output@@IAE_NXZ 1006f910 f i libucrtd:output.obj
 0001:0006e9c0       ?validate_and_update_state_at_end_of_format_string@?$positional_parameter_base@DV?$stream_output_adapter@D@__crt_stdio_output@@@__crt_stdio_output@@IAE_NXZ 1006f9c0 f i libucrtd:output.obj
 0001:0006eb70       ?validate_and_update_state_at_end_of_format_string@?$positional_parameter_base@DV?$string_output_adapter@D@__crt_stdio_output@@@__crt_stdio_output@@IAE_NXZ 1006fb70 f i libucrtd:output.obj
 0001:0006ed20       ?validate_and_update_state_at_end_of_format_string@?$positional_parameter_base@_WV?$stream_output_adapter@_W@__crt_stdio_output@@@__crt_stdio_output@@IAE_NXZ 1006fd20 f i libucrtd:output.obj
 0001:0006eed0       ?validate_and_update_state_at_end_of_format_string@?$positional_parameter_base@_WV?$string_output_adapter@_W@__crt_stdio_output@@@__crt_stdio_output@@IAE_NXZ 1006fed0 f i libucrtd:output.obj
 0001:0006f080       ?validate_and_update_state_at_end_of_format_string@?$standard_base@DV?$stream_output_adapter@D@__crt_stdio_output@@@__crt_stdio_output@@IBE_NXZ 10070080 f i libucrtd:output.obj
 0001:0006f090       ?validate_and_update_state_at_end_of_format_string@?$standard_base@DV?$string_output_adapter@D@__crt_stdio_output@@@__crt_stdio_output@@IBE_NXZ 10070090 f i libucrtd:output.obj
 0001:0006f0a0       ?validate_and_update_state_at_end_of_format_string@?$standard_base@_WV?$stream_output_adapter@_W@__crt_stdio_output@@@__crt_stdio_output@@IBE_NXZ 100700a0 f i libucrtd:output.obj
 0001:0006f0b0       ?validate_and_update_state_at_end_of_format_string@?$standard_base@_WV?$string_output_adapter@_W@__crt_stdio_output@@@__crt_stdio_output@@IBE_NXZ 100700b0 f i libucrtd:output.obj
 0001:0006f0c0       ?validate_state_for_type_case_a@?$positional_parameter_base@DV?$stream_output_adapter@D@__crt_stdio_output@@@__crt_stdio_output@@IAE_NXZ 100700c0 f i libucrtd:output.obj
 0001:0006f1d0       ?validate_state_for_type_case_a@?$positional_parameter_base@DV?$string_output_adapter@D@__crt_stdio_output@@@__crt_stdio_output@@IAE_NXZ 100701d0 f i libucrtd:output.obj
 0001:0006f2e0       ?validate_state_for_type_case_a@?$positional_parameter_base@_WV?$stream_output_adapter@_W@__crt_stdio_output@@@__crt_stdio_output@@IAE_NXZ 100702e0 f i libucrtd:output.obj
 0001:0006f3f0       ?validate_state_for_type_case_a@?$positional_parameter_base@_WV?$string_output_adapter@_W@__crt_stdio_output@@@__crt_stdio_output@@IAE_NXZ 100703f0 f i libucrtd:output.obj
 0001:0006f500       ?validate_state_for_type_case_a@?$standard_base@DV?$stream_output_adapter@D@__crt_stdio_output@@@__crt_stdio_output@@IBE_NXZ 10070500 f i libucrtd:output.obj
 0001:0006f510       ?validate_state_for_type_case_a@?$standard_base@DV?$string_output_adapter@D@__crt_stdio_output@@@__crt_stdio_output@@IBE_NXZ 10070510 f i libucrtd:output.obj
 0001:0006f520       ?validate_state_for_type_case_a@?$standard_base@_WV?$stream_output_adapter@_W@__crt_stdio_output@@@__crt_stdio_output@@IBE_NXZ 10070520 f i libucrtd:output.obj
 0001:0006f530       ?validate_state_for_type_case_a@?$standard_base@_WV?$string_output_adapter@_W@__crt_stdio_output@@@__crt_stdio_output@@IBE_NXZ 10070530 f i libucrtd:output.obj
 0001:0006f540       ?validate_stream_is_ansi_if_required@?$__acrt_stdio_char_traits@D@@SA_NQAU_iobuf@@@Z 10070540 f i libucrtd:output.obj
 0001:0006f670       ?validate_stream_is_ansi_if_required@?$__acrt_stdio_char_traits@_W@@SA_NQAU_iobuf@@@Z 10070670 f i libucrtd:output.obj
 0001:0006f680       ?wide_character_to_digit@__crt_strtox@@YAH_W@Z 10070680 f i libucrtd:output.obj
 0001:0006f9b0       ?wide_null_string@?$output_processor@DV?$stream_output_adapter@D@__crt_stdio_output@@V?$format_validation_base@DV?$stream_output_adapter@D@__crt_stdio_output@@@2@@__crt_stdio_output@@CAPA_WXZ 100709b0 f i libucrtd:output.obj
 0001:0006f9c0       ?wide_null_string@?$output_processor@DV?$stream_output_adapter@D@__crt_stdio_output@@V?$positional_parameter_base@DV?$stream_output_adapter@D@__crt_stdio_output@@@2@@__crt_stdio_output@@CAPA_WXZ 100709c0 f i libucrtd:output.obj
 0001:0006f9d0       ?wide_null_string@?$output_processor@DV?$stream_output_adapter@D@__crt_stdio_output@@V?$standard_base@DV?$stream_output_adapter@D@__crt_stdio_output@@@2@@__crt_stdio_output@@CAPA_WXZ 100709d0 f i libucrtd:output.obj
 0001:0006f9e0       ?wide_null_string@?$output_processor@DV?$string_output_adapter@D@__crt_stdio_output@@V?$format_validation_base@DV?$string_output_adapter@D@__crt_stdio_output@@@2@@__crt_stdio_output@@CAPA_WXZ 100709e0 f i libucrtd:output.obj
 0001:0006f9f0       ?wide_null_string@?$output_processor@DV?$string_output_adapter@D@__crt_stdio_output@@V?$positional_parameter_base@DV?$string_output_adapter@D@__crt_stdio_output@@@2@@__crt_stdio_output@@CAPA_WXZ 100709f0 f i libucrtd:output.obj
 0001:0006fa00       ?wide_null_string@?$output_processor@DV?$string_output_adapter@D@__crt_stdio_output@@V?$standard_base@DV?$string_output_adapter@D@__crt_stdio_output@@@2@@__crt_stdio_output@@CAPA_WXZ 10070a00 f i libucrtd:output.obj
 0001:0006fa10       ?wide_null_string@?$output_processor@_WV?$stream_output_adapter@_W@__crt_stdio_output@@V?$format_validation_base@_WV?$stream_output_adapter@_W@__crt_stdio_output@@@2@@__crt_stdio_output@@CAPA_WXZ 10070a10 f i libucrtd:output.obj
 0001:0006fa20       ?wide_null_string@?$output_processor@_WV?$stream_output_adapter@_W@__crt_stdio_output@@V?$positional_parameter_base@_WV?$stream_output_adapter@_W@__crt_stdio_output@@@2@@__crt_stdio_output@@CAPA_WXZ 10070a20 f i libucrtd:output.obj
 0001:0006fa30       ?wide_null_string@?$output_processor@_WV?$stream_output_adapter@_W@__crt_stdio_output@@V?$standard_base@_WV?$stream_output_adapter@_W@__crt_stdio_output@@@2@@__crt_stdio_output@@CAPA_WXZ 10070a30 f i libucrtd:output.obj
 0001:0006fa40       ?wide_null_string@?$output_processor@_WV?$string_output_adapter@_W@__crt_stdio_output@@V?$format_validation_base@_WV?$string_output_adapter@_W@__crt_stdio_output@@@2@@__crt_stdio_output@@CAPA_WXZ 10070a40 f i libucrtd:output.obj
 0001:0006fa50       ?wide_null_string@?$output_processor@_WV?$string_output_adapter@_W@__crt_stdio_output@@V?$positional_parameter_base@_WV?$string_output_adapter@_W@__crt_stdio_output@@@2@@__crt_stdio_output@@CAPA_WXZ 10070a50 f i libucrtd:output.obj
 0001:0006fa60       ?wide_null_string@?$output_processor@_WV?$string_output_adapter@_W@__crt_stdio_output@@V?$standard_base@_WV?$string_output_adapter@_W@__crt_stdio_output@@@2@@__crt_stdio_output@@CAPA_WXZ 10070a60 f i libucrtd:output.obj
 0001:0006fa70       ?write_character@?$output_adapter_common@DV?$stream_output_adapter@D@__crt_stdio_output@@@__crt_stdio_output@@QBEXDQAHAAV__crt_cached_ptd_host@@@Z 10070a70 f i libucrtd:output.obj
 0001:0006fab0       ?write_character@?$output_adapter_common@_WV?$stream_output_adapter@_W@__crt_stdio_output@@@__crt_stdio_output@@QBEX_WQAHAAV__crt_cached_ptd_host@@@Z 10070ab0 f i libucrtd:output.obj
 0001:0006faf0       ?write_character@?$string_output_adapter@D@__crt_stdio_output@@QBE_NDQAHAAV__crt_cached_ptd_host@@@Z 10070af0 f i libucrtd:output.obj
 0001:0006fb80       ?write_character@?$string_output_adapter@_W@__crt_stdio_output@@QBE_N_WQAHAAV__crt_cached_ptd_host@@@Z 10070b80 f i libucrtd:output.obj
 0001:0006fc20       ?write_character_without_count_update@?$stream_output_adapter@D@__crt_stdio_output@@QBE_NDAAV__crt_cached_ptd_host@@@Z 10070c20 f i libucrtd:output.obj
 0001:0006fc90       ?write_character_without_count_update@?$stream_output_adapter@_W@__crt_stdio_output@@QBE_N_WAAV__crt_cached_ptd_host@@@Z 10070c90 f i libucrtd:output.obj
 0001:0006fd00       ?write_stored_string_tchar@?$output_processor@DV?$stream_output_adapter@D@__crt_stdio_output@@V?$format_validation_base@DV?$stream_output_adapter@D@__crt_stdio_output@@@2@@__crt_stdio_output@@AAE_ND@Z 10070d00 f i libucrtd:output.obj
 0001:0006fe20       ?write_stored_string_tchar@?$output_processor@DV?$stream_output_adapter@D@__crt_stdio_output@@V?$positional_parameter_base@DV?$stream_output_adapter@D@__crt_stdio_output@@@2@@__crt_stdio_output@@AAE_ND@Z 10070e20 f i libucrtd:output.obj
 0001:0006ff40       ?write_stored_string_tchar@?$output_processor@DV?$stream_output_adapter@D@__crt_stdio_output@@V?$standard_base@DV?$stream_output_adapter@D@__crt_stdio_output@@@2@@__crt_stdio_output@@AAE_ND@Z 10070f40 f i libucrtd:output.obj
 0001:00070060       ?write_stored_string_tchar@?$output_processor@DV?$string_output_adapter@D@__crt_stdio_output@@V?$format_validation_base@DV?$string_output_adapter@D@__crt_stdio_output@@@2@@__crt_stdio_output@@AAE_ND@Z 10071060 f i libucrtd:output.obj
 0001:00070180       ?write_stored_string_tchar@?$output_processor@DV?$string_output_adapter@D@__crt_stdio_output@@V?$positional_parameter_base@DV?$string_output_adapter@D@__crt_stdio_output@@@2@@__crt_stdio_output@@AAE_ND@Z 10071180 f i libucrtd:output.obj
 0001:000702a0       ?write_stored_string_tchar@?$output_processor@DV?$string_output_adapter@D@__crt_stdio_output@@V?$standard_base@DV?$string_output_adapter@D@__crt_stdio_output@@@2@@__crt_stdio_output@@AAE_ND@Z 100712a0 f i libucrtd:output.obj
 0001:000703c0       ?write_stored_string_tchar@?$output_processor@_WV?$stream_output_adapter@_W@__crt_stdio_output@@V?$format_validation_base@_WV?$stream_output_adapter@_W@__crt_stdio_output@@@2@@__crt_stdio_output@@AAE_N_W@Z 100713c0 f i libucrtd:output.obj
 0001:000704d0       ?write_stored_string_tchar@?$output_processor@_WV?$stream_output_adapter@_W@__crt_stdio_output@@V?$positional_parameter_base@_WV?$stream_output_adapter@_W@__crt_stdio_output@@@2@@__crt_stdio_output@@AAE_N_W@Z 100714d0 f i libucrtd:output.obj
 0001:000705e0       ?write_stored_string_tchar@?$output_processor@_WV?$stream_output_adapter@_W@__crt_stdio_output@@V?$standard_base@_WV?$stream_output_adapter@_W@__crt_stdio_output@@@2@@__crt_stdio_output@@AAE_N_W@Z 100715e0 f i libucrtd:output.obj
 0001:000706f0       ?write_stored_string_tchar@?$output_processor@_WV?$string_output_adapter@_W@__crt_stdio_output@@V?$format_validation_base@_WV?$string_output_adapter@_W@__crt_stdio_output@@@2@@__crt_stdio_output@@AAE_N_W@Z 100716f0 f i libucrtd:output.obj
 0001:00070800       ?write_stored_string_tchar@?$output_processor@_WV?$string_output_adapter@_W@__crt_stdio_output@@V?$positional_parameter_base@_WV?$string_output_adapter@_W@__crt_stdio_output@@@2@@__crt_stdio_output@@AAE_N_W@Z 10071800 f i libucrtd:output.obj
 0001:00070910       ?write_stored_string_tchar@?$output_processor@_WV?$string_output_adapter@_W@__crt_stdio_output@@V?$standard_base@_WV?$string_output_adapter@_W@__crt_stdio_output@@@2@@__crt_stdio_output@@AAE_N_W@Z 10071910 f i libucrtd:output.obj
 0001:00070a20       ?write_string@?$stream_output_adapter@D@__crt_stdio_output@@QBEXQBDHQAHAAV__crt_cached_ptd_host@@@Z 10071a20 f i libucrtd:output.obj
 0001:00070a80       ?write_string@?$stream_output_adapter@_W@__crt_stdio_output@@QBEXQB_WHQAHAAV__crt_cached_ptd_host@@@Z 10071a80 f i libucrtd:output.obj
 0001:00070ae0       ?write_string@?$string_output_adapter@D@__crt_stdio_output@@QBEXQBDHQAHAAV__crt_cached_ptd_host@@@Z 10071ae0 f i libucrtd:output.obj
 0001:00070be0       ?write_string@?$string_output_adapter@_W@__crt_stdio_output@@QBEXQB_WHQAHAAV__crt_cached_ptd_host@@@Z 10071be0 f i libucrtd:output.obj
 0001:00070cf0       ?write_string_impl@?$output_adapter_common@DV?$stream_output_adapter@D@__crt_stdio_output@@@__crt_stdio_output@@IBEXQBDHQAHAAV__crt_cached_ptd_host@@@Z 10071cf0 f i libucrtd:output.obj
 0001:00070db0       ?write_string_impl@?$output_adapter_common@_WV?$stream_output_adapter@_W@__crt_stdio_output@@@__crt_stdio_output@@IBEXQB_WHQAHAAV__crt_cached_ptd_host@@@Z 10071db0 f i libucrtd:output.obj
 0001:00070e70       ___acrt_disable_global_locale_sync 10071e70 f i libucrtd:output.obj
 0001:00070e90       ___acrt_enable_global_locale_sync 10071e90 f i libucrtd:output.obj
 0001:00070eb0       ___acrt_isleadbyte_l_noupdate 10071eb0 f i libucrtd:output.obj
 0001:00070ed0       ___acrt_locale_changed     10071ed0 f i libucrtd:output.obj
 0001:00070f00       ___acrt_locale_get_ctype_array_value 10071f00 f i libucrtd:output.obj
 0001:00070f30       ___ascii_iswalpha          10071f30 f i libucrtd:output.obj
 0001:00070f70       ___ascii_toupper           10071f70 f i libucrtd:output.obj
 0001:00070f90       ___ascii_towupper          10071f90 f i libucrtd:output.obj
 0001:00070fb0       ___stdio_common_vfprintf   10071fb0 f   libucrtd:output.obj
 0001:00071000       ___stdio_common_vfprintf_p 10072000 f   libucrtd:output.obj
 0001:00071050       ___stdio_common_vfprintf_s 10072050 f   libucrtd:output.obj
 0001:000710a0       ___stdio_common_vfwprintf  100720a0 f   libucrtd:output.obj
 0001:000710f0       ___stdio_common_vfwprintf_p 100720f0 f   libucrtd:output.obj
 0001:00071140       ___stdio_common_vfwprintf_s 10072140 f   libucrtd:output.obj
 0001:00071190       ___stdio_common_vsnprintf_s 10072190 f   libucrtd:output.obj
 0001:000711e0       ___stdio_common_vsnwprintf_s 100721e0 f   libucrtd:output.obj
 0001:00071230       ___stdio_common_vsprintf   10072230 f   libucrtd:output.obj
 0001:00071280       ___stdio_common_vsprintf_p 10072280 f   libucrtd:output.obj
 0001:000712d0       ___stdio_common_vsprintf_s 100722d0 f   libucrtd:output.obj
 0001:00071320       ___stdio_common_vswprintf  10072320 f   libucrtd:output.obj
 0001:00071370       ___stdio_common_vswprintf_p 10072370 f   libucrtd:output.obj
 0001:000713c0       ___stdio_common_vswprintf_s 100723c0 f   libucrtd:output.obj
 0001:00071410       __ctype_fast_check_internal 10072410 f i libucrtd:output.obj
 0001:00071430       __isdigit_fast_internal    10072430 f i libucrtd:output.obj
 0001:00071450       __tolower_fast_internal    10072450 f i libucrtd:output.obj
 0001:00071470       _free                      10072470 f   libucrtd:free.obj
 0001:000714a0       _malloc                    100724a0 f   libucrtd:malloc.obj
 0001:000714c0       ??$?RU?$__crt_report_hook_node@D@@@__crt_internal_free_policy@@QBEXQBU?$__crt_report_hook_node@D@@@Z 100724c0 f i libucrtd:dbgrpt.obj
 0001:000714e0       ??$?RU?$__crt_report_hook_node@_W@@@__crt_internal_free_policy@@QBEXQBU?$__crt_report_hook_node@_W@@@Z 100724e0 f i libucrtd:dbgrpt.obj
 0001:000723b0       ??$get_module_file_name@AAPAUHINSTANCE__@@AAY0BAF@DK@?$__crt_char_traits@D@@SAKAAPAUHINSTANCE__@@AAY0BAF@D$$QAK@Z 100733b0 f i libucrtd:dbgrpt.obj
 0001:000723d0       ??$get_module_file_name@AAPAUHINSTANCE__@@AAY0BAF@_WK@?$__crt_char_traits@_W@@SAKAAPAUHINSTANCE__@@AAY0BAF@_W$$QAK@Z 100733d0 f i libucrtd:dbgrpt.obj
 0001:000723f0       ??$tcscpy_s@AAY0BAF@DIPBD@?$__crt_char_traits@D@@SAHAAY0BAF@D$$QAI$$QAPBD@Z 100733f0 f i libucrtd:dbgrpt.obj
 0001:00072410       ??$tcscpy_s@AAY0BAF@_WIPB_W@?$__crt_char_traits@_W@@SAHAAY0BAF@_W$$QAI$$QAPB_W@Z 10073410 f i libucrtd:dbgrpt.obj
 0001:00072430       ??$tcslen@AAY0BAF@D@?$__crt_char_traits@D@@SAIAAY0BAF@D@Z 10073430 f i libucrtd:dbgrpt.obj
 0001:00072450       ??$tcslen@AAY0BAF@_W@?$__crt_char_traits@_W@@SAIAAY0BAF@_W@Z 10073450 f i libucrtd:dbgrpt.obj
 0001:00072470       ??$tcslen@ABQBD@?$__crt_char_traits@D@@SAIABQBD@Z 10073470 f i libucrtd:dbgrpt.obj
 0001:00072490       ??$tcslen@ABQB_W@?$__crt_char_traits@_W@@SAIABQB_W@Z 10073490 f i libucrtd:dbgrpt.obj
 0001:00072590       ??0?$__crt_unique_heap_ptr@U?$__crt_report_hook_node@D@@U__crt_internal_free_policy@@@@QAE@QAU?$__crt_report_hook_node@D@@@Z 10073590 f i libucrtd:dbgrpt.obj
 0001:000725b0       ??0?$__crt_unique_heap_ptr@U?$__crt_report_hook_node@_W@@U__crt_internal_free_policy@@@@QAE@QAU?$__crt_report_hook_node@_W@@@Z 100735b0 f i libucrtd:dbgrpt.obj
 0001:000725d0       ??1?$__crt_unique_heap_ptr@U?$__crt_report_hook_node@D@@U__crt_internal_free_policy@@@@QAE@XZ 100735d0 f i libucrtd:dbgrpt.obj
 0001:000725f0       ??1?$__crt_unique_heap_ptr@U?$__crt_report_hook_node@_W@@U__crt_internal_free_policy@@@@QAE@XZ 100735f0 f i libucrtd:dbgrpt.obj
 0001:00072610       ??B?$__crt_unique_heap_ptr@U?$__crt_report_hook_node@D@@U__crt_internal_free_policy@@@@QBE_NXZ 10073610 f i libucrtd:dbgrpt.obj
 0001:00072630       ??B?$__crt_unique_heap_ptr@U?$__crt_report_hook_node@_W@@U__crt_internal_free_policy@@@@QBE_NXZ 10073630 f i libucrtd:dbgrpt.obj
 0001:00072b90       ?detach@?$__crt_unique_heap_ptr@U?$__crt_report_hook_node@D@@U__crt_internal_free_policy@@@@QAEPAU?$__crt_report_hook_node@D@@XZ 10073b90 f i libucrtd:dbgrpt.obj
 0001:00072bc0       ?detach@?$__crt_unique_heap_ptr@U?$__crt_report_hook_node@_W@@U__crt_internal_free_policy@@@@QAEPAU?$__crt_report_hook_node@_W@@XZ 10073bc0 f i libucrtd:dbgrpt.obj
 0001:00072bf0       ?get@?$__crt_unique_heap_ptr@U?$__crt_report_hook_node@D@@U__crt_internal_free_policy@@@@QBEPAU?$__crt_report_hook_node@D@@XZ 10073bf0 f i libucrtd:dbgrpt.obj
 0001:00072c10       ?get@?$__crt_unique_heap_ptr@U?$__crt_report_hook_node@_W@@U__crt_internal_free_policy@@@@QBEPAU?$__crt_report_hook_node@_W@@XZ 10073c10 f i libucrtd:dbgrpt.obj
 0001:00072c90       ?is_valid@?$__crt_unique_heap_ptr@U?$__crt_report_hook_node@D@@U__crt_internal_free_policy@@@@QBE_NXZ 10073c90 f i libucrtd:dbgrpt.obj
 0001:00072cc0       ?is_valid@?$__crt_unique_heap_ptr@U?$__crt_report_hook_node@_W@@U__crt_internal_free_policy@@@@QBE_NXZ 10073cc0 f i libucrtd:dbgrpt.obj
 0001:00072cf0       ?release@?$__crt_unique_heap_ptr@U?$__crt_report_hook_node@D@@U__crt_internal_free_policy@@@@QAEXXZ 10073cf0 f i libucrtd:dbgrpt.obj
 0001:00072d20       ?release@?$__crt_unique_heap_ptr@U?$__crt_report_hook_node@_W@@U__crt_internal_free_policy@@@@QAEXXZ 10073d20 f i libucrtd:dbgrpt.obj
 0001:00072d50       __CrtDbgReport             10073d50 f   libucrtd:dbgrpt.obj
 0001:00072da0       __CrtDbgReportW            10073da0 f   libucrtd:dbgrpt.obj
 0001:00072df0       __CrtSetReportHook2        10073df0 f   libucrtd:dbgrpt.obj
 0001:00072e10       __CrtSetReportHookW2       10073e10 f   libucrtd:dbgrpt.obj
 0001:00072e30       ___acrt_MessageWindowA     10073e30 f   libucrtd:dbgrpt.obj
 0001:00072e60       ___acrt_MessageWindowW     10073e60 f   libucrtd:dbgrpt.obj
 0001:00072e90       __invoke_watson_if_error   10073e90 f i libucrtd:dbgrpt.obj
 0001:00072ec0       __invoke_watson_if_oneof   10073ec0 f i libucrtd:dbgrpt.obj
 0001:00072f00       __snwprintf_s              10073f00 f i libucrtd:dbgrpt.obj
 0001:00072f40       __vsnwprintf_s_l           10073f40 f i libucrtd:dbgrpt.obj
 0001:000732c0       _wcscpy_s                  100742c0 f   libucrtd:wcscpy_s.obj
 0001:00073fe0       ??1?$__crt_simd_cleanup_guard@$00@@QAE@XZ 10074fe0 f i libucrtd:strnlen.obj
 0001:00073ff0       ??1?$__crt_simd_cleanup_guard@$0A@@@QAE@XZ 10074ff0 f i libucrtd:strnlen.obj
 0001:00074000       ?compare_equals@?$__crt_simd_traits@$00E@@SA?AT__m256i@@T2@0@Z 10075000 f i libucrtd:strnlen.obj
 0001:00074040       ?compare_equals@?$__crt_simd_traits@$00G@@SA?AT__m256i@@T2@0@Z 10075040 f i libucrtd:strnlen.obj
 0001:00074080       ?compare_equals@?$__crt_simd_traits@$0A@E@@SA?AT__m128i@@T2@0@Z 10075080 f i libucrtd:strnlen.obj
 0001:000740c0       ?compare_equals@?$__crt_simd_traits@$0A@G@@SA?AT__m128i@@T2@0@Z 100750c0 f i libucrtd:strnlen.obj
 0001:00074100       ?compute_byte_mask@?$__crt_simd_pack_traits@$00@@SAHT__m256i@@@Z 10075100 f i libucrtd:strnlen.obj
 0001:00074130       ?compute_byte_mask@?$__crt_simd_pack_traits@$0A@@@SAHT__m128i@@@Z 10075130 f i libucrtd:strnlen.obj
 0001:00074160       ?get_zero_pack@?$__crt_simd_pack_traits@$00@@SA?AT__m256i@@XZ 10075160 f i libucrtd:strnlen.obj
 0001:00074190       ?get_zero_pack@?$__crt_simd_pack_traits@$0A@@@SA?AT__m128i@@XZ 10075190 f i libucrtd:strnlen.obj
 0001:000741c0       _strnlen                   100751c0 f   libucrtd:strnlen.obj
 0001:000741e0       _wcslen                    100751e0 f   libucrtd:strnlen.obj
 0001:00074200       _wcsnlen                   10075200 f   libucrtd:strnlen.obj
 0001:00074220       ??$__crt_fast_decode_pointer@P6AXPB_W00II@Z@@YAP6AXPB_W00II@ZQ6AX000II@Z@Z 10075220 f i libucrtd:invalid_parameter.obj
 0001:00074250       ??$__crt_fast_encode_pointer@P6AXPB_W00II@Z@@YAP6AXPB_W00II@ZQ6AX000II@Z@Z 10075250 f i libucrtd:invalid_parameter.obj
 0001:00074280       ??$initialize_from_array@$$BY00Q6AXPB_W00II@Z@?$dual_state_global@P6AXPB_W00II@Z@__crt_state_management@@QAAXAAY00Q6AXPB_W00II@Z@Z 10075280 f i libucrtd:invalid_parameter.obj
 0001:000742d0       ?__crt_rotate_pointer_value@@YAIIH@Z 100752d0 f i libucrtd:invalid_parameter.obj
 0001:000742e0       ?check_synchronize_global_state_index@__crt_cached_ptd_host@@AAEIXZ 100752e0 f i libucrtd:invalid_parameter.obj
 0001:00074330       ?dangerous_get_state_array@?$dual_state_global@P6AXPB_W00II@Z@__crt_state_management@@QAEPAP6AXPB_W00II@ZXZ 10075330 f i libucrtd:invalid_parameter.obj
 0001:00074340       ?get_current_global_state_index@__crt_cached_ptd_host@@QAEIXZ 10075340 f i libucrtd:invalid_parameter.obj
 0001:00074360       ?get_current_state_index@__crt_state_management@@YAIXZ 10075360 f i libucrtd:invalid_parameter.obj
 0001:00074370       ?get_raw_ptd_noexit@__crt_cached_ptd_host@@QAEPAU__acrt_ptd@@XZ 10075370 f i libucrtd:invalid_parameter.obj
 0001:00074390       ?try_synchronize_per_thread_data@__crt_cached_ptd_host@@AAEPAU__acrt_ptd@@XZ 10075390 f i libucrtd:invalid_parameter.obj
 0001:000743c0       ?value@?$dual_state_global@P6AXPB_W00II@Z@__crt_state_management@@QAEAAP6AXPB_W00II@ZAAV__crt_cached_ptd_host@@@Z 100753c0 f i libucrtd:invalid_parameter.obj
 0001:000743e0       ?value@?$dual_state_global@P6AXPB_W00II@Z@__crt_state_management@@QAEAAP6AXPB_W00II@ZXZ 100753e0 f i libucrtd:invalid_parameter.obj
 0001:00074400       ___acrt_call_reportfault   10075400 f   libucrtd:invalid_parameter.obj
 0001:00074560       ___acrt_initialize_invalid_parameter_handler 10075560 f   libucrtd:invalid_parameter.obj
 0001:00074590       __get_invalid_parameter_handler 10075590 f   libucrtd:invalid_parameter.obj
 0001:000745b0       __get_thread_local_invalid_parameter_handler 100755b0 f   libucrtd:invalid_parameter.obj
 0001:000745e0       __invalid_parameter        100755e0 f   libucrtd:invalid_parameter.obj
 0001:00074620       __invalid_parameter_internal 10075620 f   libucrtd:invalid_parameter.obj
 0001:000746f0       __invalid_parameter_noinfo 100756f0 f   libucrtd:invalid_parameter.obj
 0001:00074710       __invalid_parameter_noinfo_noreturn 10075710 f   libucrtd:invalid_parameter.obj
 0001:00074740       __invoke_watson            10075740 f   libucrtd:invalid_parameter.obj
 0001:00074780       __set_invalid_parameter_handler 10075780 f   libucrtd:invalid_parameter.obj
 0001:000747d0       __set_thread_local_invalid_parameter_handler 100757d0 f   libucrtd:invalid_parameter.obj
 0001:00074800       ?get_doserrno@__crt_cached_ptd_host@@QAEAAU?$cached@K@1@XZ 10075800 f i libucrtd:errno.obj
 0001:00074820       ?set@?$cached@K@__crt_cached_ptd_host@@QAEKK@Z 10075820 f i libucrtd:errno.obj
 0001:00074850       ___acrt_errno_from_os_error 10075850 f   libucrtd:errno.obj
 0001:000748d0       ___acrt_errno_map_os_error 100758d0 f   libucrtd:errno.obj
 0001:00074900       ___acrt_errno_map_os_error_ptd 10075900 f   libucrtd:errno.obj
 0001:00074950       ___doserrno                10075950 f   libucrtd:errno.obj
 0001:00074980       __errno                    10075980 f   libucrtd:errno.obj
 0001:000749b0       __get_doserrno             100759b0 f   libucrtd:errno.obj
 0001:00074a40       __get_errno                10075a40 f   libucrtd:errno.obj
 0001:00074ad0       __set_doserrno             10075ad0 f   libucrtd:errno.obj
 0001:00074b00       __set_errno                10075b00 f   libucrtd:errno.obj
 0001:00074b30       _calloc                    10075b30 f   libucrtd:calloc.obj
 0001:00074b50       __recalloc                 10075b50 f   libucrtd:recalloc.obj
 0001:00074b80       __recalloc_base            10075b80 f   libucrtd:recalloc.obj
 0001:00074c20       __resetstkoflw             10075c20 f   libucrtd:resetstk.obj
 0001:00075180       _wcscat_s                  10076180 f   libucrtd:wcscat_s.obj
 0001:000755d0       _wcsncpy_s                 100765d0 f   libucrtd:wcsncpy_s.obj
 0001:00075710       ___isascii                 10076710 f   libucrtd:_ctype.obj
 0001:00075740       ___iscsym                  10076740 f   libucrtd:_ctype.obj
 0001:00075780       ___iscsymf                 10076780 f   libucrtd:_ctype.obj
 0001:000757c0       ___toascii                 100767c0 f   libucrtd:_ctype.obj
 0001:000757d0       __isalnum_l                100767d0 f   libucrtd:_ctype.obj
 0001:000757f0       __isalpha_l                100767f0 f   libucrtd:_ctype.obj
 0001:00075810       __isblank_l                10076810 f   libucrtd:_ctype.obj
 0001:00075830       __iscntrl_l                10076830 f   libucrtd:_ctype.obj
 0001:00075850       __iscsym_l                 10076850 f   libucrtd:_ctype.obj
 0001:00075890       __iscsymf_l                10076890 f   libucrtd:_ctype.obj
 0001:000758d0       __isdigit_l                100768d0 f   libucrtd:_ctype.obj
 0001:000758f0       __isgraph_l                100768f0 f   libucrtd:_ctype.obj
 0001:00075910       __islower_l                10076910 f   libucrtd:_ctype.obj
 0001:00075930       __isprint_l                10076930 f   libucrtd:_ctype.obj
 0001:00075950       __ispunct_l                10076950 f   libucrtd:_ctype.obj
 0001:00075970       __isspace_l                10076970 f   libucrtd:_ctype.obj
 0001:00075990       __isupper_l                10076990 f   libucrtd:_ctype.obj
 0001:000759b0       __isxdigit_l               100769b0 f   libucrtd:_ctype.obj
 0001:000759d0       _isalnum                   100769d0 f   libucrtd:_ctype.obj
 0001:000759f0       _isalpha                   100769f0 f   libucrtd:_ctype.obj
 0001:00075a10       _isblank                   10076a10 f   libucrtd:_ctype.obj
 0001:00075a40       _iscntrl                   10076a40 f   libucrtd:_ctype.obj
 0001:00075a60       _isdigit                   10076a60 f   libucrtd:_ctype.obj
 0001:00075a80       _isgraph                   10076a80 f   libucrtd:_ctype.obj
 0001:00075aa0       _islower                   10076aa0 f   libucrtd:_ctype.obj
 0001:00075ac0       _isprint                   10076ac0 f   libucrtd:_ctype.obj
 0001:00075ae0       _ispunct                   10076ae0 f   libucrtd:_ctype.obj
 0001:00075b00       _isspace                   10076b00 f   libucrtd:_ctype.obj
 0001:00075b20       _isupper                   10076b20 f   libucrtd:_ctype.obj
 0001:00075b40       _isxdigit                  10076b40 f   libucrtd:_ctype.obj
 0001:00075b60       _wcscat                    10076b60 f   libucrtd:wcscat.obj
 0001:00075bc0       _wcscpy                    10076bc0 f   libucrtd:wcscpy.obj
 0001:00076250       ??$open_file@ABQBDABQBDABHPAU_iobuf@@@?$__crt_char_traits@D@@SAPAU_iobuf@@ABQBD0ABH$$QAPAU1@@Z 10077250 f i libucrtd:fopen.obj
 0001:00076280       ??$open_file@ABQB_WABQB_WABHPAU_iobuf@@@?$__crt_char_traits@_W@@SAPAU_iobuf@@ABQB_W0ABH$$QAPAU1@@Z 10077280 f i libucrtd:fopen.obj
 0001:000762b0       ?unlock@__crt_stdio_stream@@QBEXXZ 100772b0 f i libucrtd:fopen.obj
 0001:000762d0       __fsopen                   100772d0 f   libucrtd:fopen.obj
 0001:000762f0       __wfopen                   100772f0 f   libucrtd:fopen.obj
 0001:00076310       __wfopen_s                 10077310 f   libucrtd:fopen.obj
 0001:00076330       __wfsopen                  10077330 f   libucrtd:fopen.obj
 0001:00076350       _fopen                     10077350 f   libucrtd:fopen.obj
 0001:00076370       _fopen_s                   10077370 f   libucrtd:fopen.obj
 0001:00076650       ?is_in_use@__crt_stdio_stream@@QBE_NXZ 10077650 f i libucrtd:fclose.obj
 0001:00076690       __fclose_nolock            10077690 f   libucrtd:fclose.obj
 0001:000766d0       _fclose                    100776d0 f   libucrtd:fclose.obj
 0001:00076970       __fputc_nolock             10077970 f   libucrtd:fputc.obj
 0001:000769b0       __fputc_nolock_internal    100779b0 f   libucrtd:fputc.obj
 0001:00076a40       __fputchar                 10077a40 f   libucrtd:fputc.obj
 0001:00076a60       __putc_nolock              10077a60 f   libucrtd:fputc.obj
 0001:00076a80       _fputc                     10077a80 f   libucrtd:fputc.obj
 0001:00076ac0       _putc                      10077ac0 f   libucrtd:fputc.obj
 0001:00076ae0       _putchar                   10077ae0 f   libucrtd:fputc.obj
 0001:00076b50       __seh_filter_dll           10077b50 f   libucrtd:exception_filter.obj
 0001:00076b80       __seh_filter_exe           10077b80 f   libucrtd:exception_filter.obj
 0001:00076da0       ??$?B$$A6GXPAXK0@Z@__crt_fast_encoded_nullptr_t@@QBEP6GXPAXK0@ZXZ 10077da0 f i libucrtd:exit.obj
 0001:00076eb0       ??$__crt_fast_decode_pointer@P6GXPAXK0@Z@@YAP6GXPAXK0@ZQ6GX0K0@Z@Z 10077eb0 f i libucrtd:exit.obj
 0001:00076ee0       ??$__crt_fast_encode_pointer@P6GXPAXK0@Z@@YAP6GXPAXK0@ZQ6GX0K0@Z@Z 10077ee0 f i libucrtd:exit.obj
 0001:00076f10       ??$__crt_get_proc_address@P6GXI@Z@@YAP6GXI@ZQAUHINSTANCE__@@QBD@Z 10077f10 f i libucrtd:exit.obj
 0001:00076fa0       ??0?$__crt_unique_handle_t@U__crt_hmodule_traits@@@@QAE@QAUHINSTANCE__@@@Z 10077fa0 f i libucrtd:exit.obj
 0001:00076fc0       ??1?$__crt_unique_handle_t@U__crt_hmodule_traits@@@@QAE@XZ 10077fc0 f i libucrtd:exit.obj
 0001:00077180       ?__acrt_select_exit_lock@@YA?AW4__acrt_lock_id@@XZ 10078180 f i libucrtd:exit.obj
 0001:00077190       ?__crt_fast_encode_pointer@@YA?AU__crt_fast_encoded_nullptr_t@@$$T@Z 10078190 f i libucrtd:exit.obj
 0001:000771c0       ?close@?$__crt_unique_handle_t@U__crt_hmodule_traits@@@@QAEXXZ 100781c0 f i libucrtd:exit.obj
 0001:00077200       ?close@__crt_hmodule_traits@@SA_NPAUHINSTANCE__@@@Z 10078200 f i libucrtd:exit.obj
 0001:00077330       ?get@?$__crt_unique_handle_t@U__crt_hmodule_traits@@@@QBEPAUHINSTANCE__@@XZ 10078330 f i libucrtd:exit.obj
 0001:00077350       ?get_address_of@?$__crt_unique_handle_t@U__crt_hmodule_traits@@@@QAEPAPAUHINSTANCE__@@XZ 10078350 f i libucrtd:exit.obj
 0001:00077360       ?get_invalid_value@__crt_hmodule_traits@@SAPAUHINSTANCE__@@XZ 10078360 f i libucrtd:exit.obj
 0001:00077510       __Exit                     10078510 f   libucrtd:exit.obj
 0001:00077530       ___acrt_initialize_thread_local_exit_callback 10078530 f   libucrtd:exit.obj
 0001:00077540       __c_exit                   10078540 f   libucrtd:exit.obj
 0001:00077560       __cexit                    10078560 f   libucrtd:exit.obj
 0001:00077580       __exit                     10078580 f   libucrtd:exit.obj
 0001:000775a0       __is_c_termination_complete 100785a0 f   libucrtd:exit.obj
 0001:000775c0       __register_thread_local_exe_atexit_callback 100785c0 f   libucrtd:exit.obj
 0001:00077600       _exit                      10078600 f   libucrtd:exit.obj
 0001:00077620       _quick_exit                10078620 f   libucrtd:exit.obj
 0001:00077640       ??$?RE@__crt_internal_free_policy@@QBEXQBE@Z 10078640 f i libucrtd:argv_parsing.obj
 0001:00077660       ??$?RPAD@__crt_internal_free_policy@@QBEXQBQAD@Z 10078660 f i libucrtd:argv_parsing.obj
 0001:00077680       ??$?RPA_W@__crt_internal_free_policy@@QBEXQBQA_W@Z 10078680 f i libucrtd:argv_parsing.obj
 0001:00077c40       ??$get_module_file_name@$$TAAY0BAF@DH@?$__crt_char_traits@D@@SAK$$QA$$TAAY0BAF@D$$QAH@Z 10078c40 f i libucrtd:argv_parsing.obj
 0001:00077c60       ??$get_module_file_name@$$TAAY0BAF@_WH@?$__crt_char_traits@_W@@SAK$$QA$$TAAY0BAF@_W$$QAH@Z 10078c60 f i libucrtd:argv_parsing.obj
 0001:000783a0       ??$set_program_name@PAD@?$__crt_char_traits@D@@SAX$$QAPAD@Z 100793a0 f i libucrtd:argv_parsing.obj
 0001:000783c0       ??$set_program_name@PA_W@?$__crt_char_traits@_W@@SAX$$QAPA_W@Z 100793c0 f i libucrtd:argv_parsing.obj
 0001:00078420       ??0?$__crt_unique_heap_ptr@EU__crt_internal_free_policy@@@@QAE@QAE@Z 10079420 f i libucrtd:argv_parsing.obj
 0001:00078440       ??0?$__crt_unique_heap_ptr@PADU__crt_internal_free_policy@@@@QAE@QAPAD@Z 10079440 f i libucrtd:argv_parsing.obj
 0001:00078460       ??0?$__crt_unique_heap_ptr@PA_WU__crt_internal_free_policy@@@@QAE@QAPA_W@Z 10079460 f i libucrtd:argv_parsing.obj
 0001:00078480       ??1?$__crt_unique_heap_ptr@EU__crt_internal_free_policy@@@@QAE@XZ 10079480 f i libucrtd:argv_parsing.obj
 0001:000784a0       ??1?$__crt_unique_heap_ptr@PADU__crt_internal_free_policy@@@@QAE@XZ 100794a0 f i libucrtd:argv_parsing.obj
 0001:000784c0       ??1?$__crt_unique_heap_ptr@PA_WU__crt_internal_free_policy@@@@QAE@XZ 100794c0 f i libucrtd:argv_parsing.obj
 0001:000784e0       ??B?$__crt_unique_heap_ptr@EU__crt_internal_free_policy@@@@QBE_NXZ 100794e0 f i libucrtd:argv_parsing.obj
 0001:000785a0       ?detach@?$__crt_unique_heap_ptr@EU__crt_internal_free_policy@@@@QAEPAEXZ 100795a0 f i libucrtd:argv_parsing.obj
 0001:000785d0       ?detach@?$__crt_unique_heap_ptr@PADU__crt_internal_free_policy@@@@QAEPAPADXZ 100795d0 f i libucrtd:argv_parsing.obj
 0001:00078600       ?detach@?$__crt_unique_heap_ptr@PA_WU__crt_internal_free_policy@@@@QAEPAPA_WXZ 10079600 f i libucrtd:argv_parsing.obj
 0001:00078690       ?get@?$__crt_unique_heap_ptr@EU__crt_internal_free_policy@@@@QBEPAEXZ 10079690 f i libucrtd:argv_parsing.obj
 0001:000786b0       ?get@?$__crt_unique_heap_ptr@PADU__crt_internal_free_policy@@@@QBEPAPADXZ 100796b0 f i libucrtd:argv_parsing.obj
 0001:000786d0       ?get@?$__crt_unique_heap_ptr@PA_WU__crt_internal_free_policy@@@@QBEPAPA_WXZ 100796d0 f i libucrtd:argv_parsing.obj
 0001:000786f0       ?get_address_of@?$__crt_unique_heap_ptr@PADU__crt_internal_free_policy@@@@QAEPAPAPADXZ 100796f0 f i libucrtd:argv_parsing.obj
 0001:00078700       ?get_address_of@?$__crt_unique_heap_ptr@PA_WU__crt_internal_free_policy@@@@QAEPAPAPA_WXZ 10079700 f i libucrtd:argv_parsing.obj
 0001:00078750       ?is_valid@?$__crt_unique_heap_ptr@EU__crt_internal_free_policy@@@@QBE_NXZ 10079750 f i libucrtd:argv_parsing.obj
 0001:00078780       ?release@?$__crt_unique_heap_ptr@EU__crt_internal_free_policy@@@@QAEXXZ 10079780 f i libucrtd:argv_parsing.obj
 0001:000787b0       ?release@?$__crt_unique_heap_ptr@PADU__crt_internal_free_policy@@@@QAEXXZ 100797b0 f i libucrtd:argv_parsing.obj
 0001:000787e0       ?release@?$__crt_unique_heap_ptr@PA_WU__crt_internal_free_policy@@@@QAEXXZ 100797e0 f i libucrtd:argv_parsing.obj
 0001:00078850       ___acrt_allocate_buffer_for_argv 10079850 f   libucrtd:argv_parsing.obj
 0001:00078910       __configure_narrow_argv    10079910 f   libucrtd:argv_parsing.obj
 0001:00078930       __configure_wide_argv      10079930 f   libucrtd:argv_parsing.obj
 0001:00078950       __set_pgmptr               10079950 f i libucrtd:argv_parsing.obj
 0001:00078960       __set_wpgmptr              10079960 f i libucrtd:argv_parsing.obj
 0001:00078970       ??$?R_W@__crt_internal_free_policy@@QBEXQB_W@Z 10079970 f i libucrtd:environment_initialization.obj
 0001:00079150       ??$get_environment_from_os@$$V@?$__crt_char_traits@D@@SAPADXZ 1007a150 f i libucrtd:environment_initialization.obj
 0001:00079160       ??$get_environment_from_os@$$V@?$__crt_char_traits@_W@@SAPA_WXZ 1007a160 f i libucrtd:environment_initialization.obj
 0001:00079430       ??$set_variable_in_environment_nolock@PADH@?$__crt_char_traits@D@@SAH$$QAPAD$$QAH@Z 1007a430 f i libucrtd:environment_initialization.obj
 0001:00079450       ??$set_variable_in_environment_nolock@PA_WH@?$__crt_char_traits@_W@@SAH$$QAPA_W$$QAH@Z 1007a450 f i libucrtd:environment_initialization.obj
 0001:00079470       ??$tcscpy_s@PADABIAAPAD@?$__crt_char_traits@D@@SAH$$QAPADABIAAPAD@Z 1007a470 f i libucrtd:environment_initialization.obj
 0001:000794a0       ??$tcscpy_s@PA_WABIAAPA_W@?$__crt_char_traits@_W@@SAH$$QAPA_WABIAAPA_W@Z 1007a4a0 f i libucrtd:environment_initialization.obj
 0001:000794d0       ??$tcslen@AAPAD@?$__crt_char_traits@D@@SAIAAPAD@Z 1007a4d0 f i libucrtd:environment_initialization.obj
 0001:000794f0       ??$tcslen@AAPA_W@?$__crt_char_traits@_W@@SAIAAPA_W@Z 1007a4f0 f i libucrtd:environment_initialization.obj
 0001:00079510       ??$uninitialize@A6AXAAPAPAD@_E@?$dual_state_global@PAPAD@__crt_state_management@@QAEXA6AXAAPAPAD@_E@Z 1007a510 f i libucrtd:environment_initialization.obj
 0001:00079590       ??$uninitialize@A6AXAAPAPA_W@_E@?$dual_state_global@PAPA_W@__crt_state_management@@QAEXA6AXAAPAPA_W@_E@Z 1007a590 f i libucrtd:environment_initialization.obj
 0001:00079670       ??0?$__crt_unique_heap_ptr@_WU__crt_internal_free_policy@@@@QAE@QA_W@Z 1007a670 f i libucrtd:environment_initialization.obj
 0001:00079690       ??1?$__crt_unique_heap_ptr@_WU__crt_internal_free_policy@@@@QAE@XZ 1007a690 f i libucrtd:environment_initialization.obj
 0001:000796b0       ??B?$__crt_unique_heap_ptr@PADU__crt_internal_free_policy@@@@QBE_NXZ 1007a6b0 f i libucrtd:environment_initialization.obj
 0001:000796d0       ??B?$__crt_unique_heap_ptr@PA_WU__crt_internal_free_policy@@@@QBE_NXZ 1007a6d0 f i libucrtd:environment_initialization.obj
 0001:000796f0       ??B?$__crt_unique_heap_ptr@_WU__crt_internal_free_policy@@@@QBE_NXZ 1007a6f0 f i libucrtd:environment_initialization.obj
 0001:00079710       ?__crt_compute_required_transform_buffer_count@@YAIIQBD@Z 1007a710 f i libucrtd:environment_initialization.obj
 0001:00079730       ?__crt_compute_required_transform_buffer_count@@YAIIQB_W@Z 1007a730 f i libucrtd:environment_initialization.obj
 0001:00079760       ?__crt_transform_string@@YAIIQBDQA_WI@Z 1007a760 f i libucrtd:environment_initialization.obj
 0001:00079790       ?__crt_transform_string@@YAIIQB_WQADI@Z 1007a790 f i libucrtd:environment_initialization.obj
 0001:000797c0       ?detach@?$__crt_unique_heap_ptr@DU__crt_internal_free_policy@@@@QAEPADXZ 1007a7c0 f i libucrtd:environment_initialization.obj
 0001:000797f0       ?detach@?$__crt_unique_heap_ptr@_WU__crt_internal_free_policy@@@@QAEPA_WXZ 1007a7f0 f i libucrtd:environment_initialization.obj
 0001:00079820       ?get@?$__crt_unique_heap_ptr@_WU__crt_internal_free_policy@@@@QBEPA_WXZ 1007a820 f i libucrtd:environment_initialization.obj
 0001:000798c0       ?initialize@?$dual_state_global@PAPAD@__crt_state_management@@QAEXQAPAD@Z 1007a8c0 f i libucrtd:environment_initialization.obj
 0001:00079900       ?initialize@?$dual_state_global@PAPA_W@__crt_state_management@@QAEXQAPA_W@Z 1007a900 f i libucrtd:environment_initialization.obj
 0001:00079940       ?is_valid@?$__crt_unique_heap_ptr@PADU__crt_internal_free_policy@@@@QBE_NXZ 1007a940 f i libucrtd:environment_initialization.obj
 0001:00079970       ?is_valid@?$__crt_unique_heap_ptr@PA_WU__crt_internal_free_policy@@@@QBE_NXZ 1007a970 f i libucrtd:environment_initialization.obj
 0001:000799a0       ?is_valid@?$__crt_unique_heap_ptr@_WU__crt_internal_free_policy@@@@QBE_NXZ 1007a9a0 f i libucrtd:environment_initialization.obj
 0001:000799f0       ?release@?$__crt_unique_heap_ptr@_WU__crt_internal_free_policy@@@@QAEXXZ 1007a9f0 f i libucrtd:environment_initialization.obj
 0001:00079a20       ?value@?$dual_state_global@PAPAD@__crt_state_management@@QAEAAPAPADXZ 1007aa20 f i libucrtd:environment_initialization.obj
 0001:00079a40       ?value@?$dual_state_global@PAPA_W@__crt_state_management@@QAEAAPAPA_WXZ 1007aa40 f i libucrtd:environment_initialization.obj
 0001:00079a60       ___dcrt_get_or_create_narrow_environment_nolock 1007aa60 f   libucrtd:environment_initialization.obj
 0001:00079a70       ___dcrt_get_or_create_wide_environment_nolock 1007aa70 f   libucrtd:environment_initialization.obj
 0001:00079a80       ___dcrt_uninitialize_environments_nolock 1007aa80 f   libucrtd:environment_initialization.obj
 0001:00079ad0       ___p__environ              1007aad0 f   libucrtd:environment_initialization.obj
 0001:00079af0       ___p__wenviron             1007aaf0 f   libucrtd:environment_initialization.obj
 0001:00079b10       __get_initial_narrow_environment 1007ab10 f   libucrtd:environment_initialization.obj
 0001:00079b20       __get_initial_wide_environment 1007ab20 f   libucrtd:environment_initialization.obj
 0001:00079b30       __initialize_narrow_environment 1007ab30 f   libucrtd:environment_initialization.obj
 0001:00079b40       __initialize_wide_environment 1007ab40 f   libucrtd:environment_initialization.obj
 0001:00079b50       ??$?B$$A6AXXZ@__crt_fast_encoded_nullptr_t@@QBEP6AXXZXZ 1007ab50 f i libucrtd:onexit.obj
 0001:00079b70       ??$?BP6AXXZ@__crt_fast_encoded_nullptr_t@@QBEPAP6AXXZXZ 1007ab70 f i libucrtd:onexit.obj
 0001:00079b90       ??$?RP6AXXZ@__crt_internal_free_policy@@QBEXQBQ6AXXZ@Z 1007ab90 f i libucrtd:onexit.obj
 0001:00079db0       ??$__crt_fast_decode_pointer@P6AXXZ@@YAP6AXXZQ6AXXZ@Z 1007adb0 f i libucrtd:onexit.obj
 0001:00079de0       ??$__crt_fast_decode_pointer@PAP6AXXZ@@YAPAP6AXXZQAP6AXXZ@Z 1007ade0 f i libucrtd:onexit.obj
 0001:00079e10       ??$__crt_fast_encode_pointer@P6AHXZ@@YAP6AHXZQ6AHXZ@Z 1007ae10 f i libucrtd:onexit.obj
 0001:00079e40       ??$__crt_fast_encode_pointer@P6AXXZ@@YAP6AXXZQ6AXXZ@Z 1007ae40 f i libucrtd:onexit.obj
 0001:00079e70       ??$__crt_fast_encode_pointer@PAP6AXXZ@@YAPAP6AXXZQAP6AXXZ@Z 1007ae70 f i libucrtd:onexit.obj
 0001:00079f70       ??0?$__crt_unique_heap_ptr@P6AXXZU__crt_internal_free_policy@@@@QAE@QAP6AXXZ@Z 1007af70 f i libucrtd:onexit.obj
 0001:00079f90       ??1?$__crt_unique_heap_ptr@P6AXXZU__crt_internal_free_policy@@@@QAE@XZ 1007af90 f i libucrtd:onexit.obj
 0001:00079fb0       ??1scoped_global_state_reset@__crt_state_management@@QAE@XZ 1007afb0 f i libucrtd:onexit.obj
 0001:0007a430       ?detach@?$__crt_unique_heap_ptr@P6AXXZU__crt_internal_free_policy@@@@QAEPAP6AXXZXZ 1007b430 f i libucrtd:onexit.obj
 0001:0007a460       ?release@?$__crt_unique_heap_ptr@P6AXXZU__crt_internal_free_policy@@@@QAEXXZ 1007b460 f i libucrtd:onexit.obj
 0001:0007a490       __crt_at_quick_exit        1007b490 f   libucrtd:onexit.obj
 0001:0007a4b0       __crt_atexit               1007b4b0 f   libucrtd:onexit.obj
 0001:0007a4d0       __execute_onexit_table     1007b4d0 f   libucrtd:onexit.obj
 0001:0007a510       __initialize_onexit_table  1007b510 f   libucrtd:onexit.obj
 0001:0007a570       __register_onexit_function 1007b570 f   libucrtd:onexit.obj
 0001:0007a7c0       ??$?BX@__crt_fast_encoded_nullptr_t@@QBEPAXXZ 1007b7c0 f i libucrtd:initialization.obj
 0001:0007a7e0       ??$__crt_fast_encode_pointer@PAX@@YAPAXQAX@Z 1007b7e0 f i libucrtd:initialization.obj
 0001:0007a8d0       ?initialize@?$dual_state_global@PAU__crt_locale_data@@@__crt_state_management@@QAEXQAU__crt_locale_data@@@Z 1007b8d0 f i libucrtd:initialization.obj
 0001:0007a910       ___acrt_initialize         1007b910 f   libucrtd:initialization.obj
 0001:0007a930       ___acrt_thread_attach      1007b930 f   libucrtd:initialization.obj
 0001:0007a950       ___acrt_thread_detach      1007b950 f   libucrtd:initialization.obj
 0001:0007a960       ___acrt_uninitialize       1007b960 f   libucrtd:initialization.obj
 0001:0007a980       ___acrt_uninitialize_critical 1007b980 f   libucrtd:initialization.obj
 0001:0007a9a0       ??0_LocaleUpdate@@QAE@QAU__crt_locale_pointers@@@Z 1007b9a0 f i libucrtd:debug_heap.obj
 0001:0007aa70       ??1_LocaleUpdate@@QAE@XZ   1007ba70 f i libucrtd:debug_heap.obj
 0001:0007aaa0       ?GetLocaleT@_LocaleUpdate@@QAEPAU__crt_locale_pointers@@XZ 1007baa0 f i libucrtd:debug_heap.obj
 0001:0007c4f0       __CrtCheckMemory           1007d4f0 f   libucrtd:debug_heap.obj
 0001:0007c680       __CrtDoForAllClientObjects 1007d680 f   libucrtd:debug_heap.obj
 0001:0007c7e0       __CrtDumpMemoryLeaks       1007d7e0 f   libucrtd:debug_heap.obj
 0001:0007c880       __CrtGetAllocHook          1007d880 f   libucrtd:debug_heap.obj
 0001:0007c890       __CrtGetDumpClient         1007d890 f   libucrtd:debug_heap.obj
 0001:0007c8a0       __CrtIsMemoryBlock         1007d8a0 f   libucrtd:debug_heap.obj
 0001:0007c9f0       __CrtIsValidHeapPointer    1007d9f0 f   libucrtd:debug_heap.obj
 0001:0007ca30       __CrtIsValidPointer        1007da30 f   libucrtd:debug_heap.obj
 0001:0007ca60       __CrtMemCheckpoint         1007da60 f   libucrtd:debug_heap.obj
 0001:0007cc90       __CrtMemDifference         1007dc90 f   libucrtd:debug_heap.obj
 0001:0007cf00       __CrtMemDumpAllObjectsSince 1007df00 f   libucrtd:debug_heap.obj
 0001:0007cfa0       __CrtMemDumpStatistics     1007dfa0 f   libucrtd:debug_heap.obj
 0001:0007d0d0       __CrtReportBlockType       1007e0d0 f   libucrtd:debug_heap.obj
 0001:0007d100       __CrtSetAllocHook          1007e100 f   libucrtd:debug_heap.obj
 0001:0007d120       __CrtSetBreakAlloc         1007e120 f   libucrtd:debug_heap.obj
 0001:0007d140       __CrtSetDbgBlockType       1007e140 f   libucrtd:debug_heap.obj
 0001:0007d220       __CrtSetDbgFlag            1007e220 f   libucrtd:debug_heap.obj
 0001:0007d390       __CrtSetDumpClient         1007e390 f   libucrtd:debug_heap.obj
 0001:0007d3b0       ___acrt_get_locale_data_prefix 1007e3b0 f i libucrtd:debug_heap.obj
 0001:0007d3d0       ___p__crtBreakAlloc        1007e3d0 f   libucrtd:debug_heap.obj
 0001:0007d3e0       ___p__crtDbgFlag           1007e3e0 f   libucrtd:debug_heap.obj
 0001:0007d3f0       __aligned_free_dbg         1007e3f0 f   libucrtd:debug_heap.obj
 0001:0007d4a0       __aligned_malloc_dbg       1007e4a0 f   libucrtd:debug_heap.obj
 0001:0007d4d0       __aligned_msize_dbg        1007e4d0 f   libucrtd:debug_heap.obj
 0001:0007d600       __aligned_offset_malloc_dbg 1007e600 f   libucrtd:debug_heap.obj
 0001:0007d7e0       __aligned_offset_realloc_dbg 1007e7e0 f   libucrtd:debug_heap.obj
 0001:0007daf0       __aligned_offset_recalloc_dbg 1007eaf0 f   libucrtd:debug_heap.obj
 0001:0007dbb0       __aligned_realloc_dbg      1007ebb0 f   libucrtd:debug_heap.obj
 0001:0007dbe0       __aligned_recalloc_dbg     1007ebe0 f   libucrtd:debug_heap.obj
 0001:0007dc10       __calloc_dbg               1007ec10 f   libucrtd:debug_heap.obj
 0001:0007dc80       __chvalidchk_l             1007ec80 f i libucrtd:debug_heap.obj
 0001:0007dca0       __expand_dbg               1007eca0 f   libucrtd:debug_heap.obj
 0001:0007ddd0       __free_dbg                 1007edd0 f   libucrtd:debug_heap.obj
 0001:0007de80       __ischartype_l             1007ee80 f i libucrtd:debug_heap.obj
 0001:0007df00       __malloc_dbg               1007ef00 f   libucrtd:debug_heap.obj
 0001:0007df20       __msize_dbg                1007ef20 f   libucrtd:debug_heap.obj
 0001:0007e0b0       __realloc_dbg              1007f0b0 f   libucrtd:debug_heap.obj
 0001:0007e150       __recalloc_dbg             1007f150 f   libucrtd:debug_heap.obj
 0001:0007e200       __initterm                 1007f200 f   libucrtd:initterm.obj
 0001:0007e250       __initterm_e               1007f250 f   libucrtd:initterm.obj
 0001:0007e5c0       _strcpy_s                  1007f5c0 f   libucrtd:strcpy_s.obj
 0001:0007e9f0       _strcat_s                  1007f9f0 f   libucrtd:strcat_s.obj
 0001:0007ea10       ??$?B$$A6AHI@Z@__crt_fast_encoded_nullptr_t@@QBEP6AHI@ZXZ 1007fa10 f i libucrtd:new_handler.obj
 0001:0007ea30       ??$__crt_fast_decode_pointer@P6AHI@Z@@YAP6AHI@ZQ6AHI@Z@Z 1007fa30 f i libucrtd:new_handler.obj
 0001:0007ea60       ??$__crt_fast_encode_pointer@P6AHI@Z@@YAP6AHI@ZQ6AHI@Z@Z 1007fa60 f i libucrtd:new_handler.obj
 0001:0007ea90       ?_set_new_handler@@YAP6AHI@ZH@Z 1007fa90 f   libucrtd:new_handler.obj
 0001:0007eaf0       ?initialize@?$dual_state_global@P6AHI@Z@__crt_state_management@@QAEXQ6AHI@Z@Z 1007faf0 f i libucrtd:new_handler.obj
 0001:0007eb30       ?value@?$dual_state_global@P6AHI@Z@__crt_state_management@@QAEAAP6AHI@ZXZ 1007fb30 f i libucrtd:new_handler.obj
 0001:0007eb50       ___acrt_initialize_new_handler 1007fb50 f   libucrtd:new_handler.obj
 0001:0007eb70       __callnewh                 1007fb70 f   libucrtd:new_handler.obj
 0001:0007ebc0       __query_new_handler        1007fbc0 f   libucrtd:new_handler.obj
 0001:0007ec50       __set_new_handler          1007fc50 f   libucrtd:new_handler.obj
 0001:0007ed30       __get_terminate            1007fd30 f   libucrtd:terminate.obj
 0001:0007ed50       _set_terminate             1007fd50 f   libucrtd:terminate.obj
 0001:0007ed80       _terminate                 1007fd80 f   libucrtd:terminate.obj
 0001:0007f780       __makepath                 10080780 f   libucrtd:makepath.obj
 0001:0007f7b0       __makepath_s               100807b0 f   libucrtd:makepath.obj
 0001:0007f7e0       __wmakepath                100807e0 f   libucrtd:makepath.obj
 0001:0007f810       __wmakepath_s              10080810 f   libucrtd:makepath.obj
 0001:000812e0       ??$tcsncpy_s@AAPADIAAPBDABI@?$__crt_char_traits@D@@SAHAAPAD$$QAIAAPBDABI@Z 100822e0 f i libucrtd:splitpath.obj
 0001:00081310       ??$tcsncpy_s@AAPADIAAPBDH@?$__crt_char_traits@D@@SAHAAPAD$$QAIAAPBD$$QAH@Z 10082310 f i libucrtd:splitpath.obj
 0001:00081340       ??$tcsncpy_s@AAPA_WIAAPB_WABI@?$__crt_char_traits@_W@@SAHAAPA_W$$QAIAAPB_WABI@Z 10082340 f i libucrtd:splitpath.obj
 0001:00081370       ??$tcsncpy_s@AAPA_WIAAPB_WH@?$__crt_char_traits@_W@@SAHAAPA_W$$QAIAAPB_W$$QAH@Z 10082370 f i libucrtd:splitpath.obj
 0001:000815b0       __splitpath                100825b0 f   libucrtd:splitpath.obj
 0001:000815e0       __splitpath_s              100825e0 f   libucrtd:splitpath.obj
 0001:00081630       __wsplitpath               10082630 f   libucrtd:splitpath.obj
 0001:00081660       __wsplitpath_s             10082660 f   libucrtd:splitpath.obj
 0001:000816b0       __set_abort_behavior       100826b0 f   libucrtd:abort.obj
 0001:000816e0       _abort                     100826e0 f   libucrtd:abort.obj
 0001:00081750       _strcmp                    10082750 f   libucrtd:strcmp.obj
 0001:000817e0       _strlen                    100827e0 f   libucrtd:strlen.obj
 0001:00081870       ??$is_overflow_condition@_K@__crt_strtox@@YA_NI_K@Z 10082870 f i libucrtd:atox.obj
 0001:00081900       ??$make_c_string_character_source@D$$T@__crt_strtox@@YA?AV?$c_string_character_source@D@0@QBD$$T@Z 10082900 f i libucrtd:atox.obj
 0001:00081920       ??$make_c_string_character_source@_W$$T@__crt_strtox@@YA?AV?$c_string_character_source@_W@0@QB_W$$T@Z 10082920 f i libucrtd:atox.obj
 0001:00081940       ??$parse_integer@KV?$c_string_character_source@D@__crt_strtox@@$00@__crt_strtox@@YAKAAV__crt_cached_ptd_host@@V?$c_string_character_source@D@0@H_N@Z 10082940 f i libucrtd:atox.obj
 0001:00081ca0       ??$parse_integer@KV?$c_string_character_source@_W@__crt_strtox@@$00@__crt_strtox@@YAKAAV__crt_cached_ptd_host@@V?$c_string_character_source@_W@0@H_N@Z 10082ca0 f i libucrtd:atox.obj
 0001:00082010       ??$parse_integer@_KV?$c_string_character_source@D@__crt_strtox@@$00@__crt_strtox@@YA_KAAV__crt_cached_ptd_host@@V?$c_string_character_source@D@0@H_N@Z 10083010 f i libucrtd:atox.obj
 0001:00082400       ??$parse_integer@_KV?$c_string_character_source@_W@__crt_strtox@@$00@__crt_strtox@@YA_KAAV__crt_cached_ptd_host@@V?$c_string_character_source@_W@0@H_N@Z 10083400 f i libucrtd:atox.obj
 0001:000827f0       ??$parse_integer_from_string@JD$$T@__crt_strtox@@YAJQBD$$THQAU__crt_locale_pointers@@@Z 100837f0 f i libucrtd:atox.obj
 0001:00082850       ??$parse_integer_from_string@J_W$$T@__crt_strtox@@YAJQB_W$$THQAU__crt_locale_pointers@@@Z 10083850 f i libucrtd:atox.obj
 0001:000828b0       ??$parse_integer_from_string@_JD$$T@__crt_strtox@@YA_JQBD$$THQAU__crt_locale_pointers@@@Z 100838b0 f i libucrtd:atox.obj
 0001:00082910       ??$parse_integer_from_string@_J_W$$T@__crt_strtox@@YA_JQB_W$$THQAU__crt_locale_pointers@@@Z 10083910 f i libucrtd:atox.obj
 0001:00082970       ?is_space@__crt_strtox@@YA_NDQAU__crt_locale_pointers@@@Z 10083970 f i libucrtd:atox.obj
 0001:000829b0       ?is_space@__crt_strtox@@YA_N_WPAU__crt_locale_pointers@@@Z 100839b0 f i libucrtd:atox.obj
 0001:000829e0       ?maximum_signed_value@__crt_strtox@@YA_J_K@Z 100839e0 f i libucrtd:atox.obj
 0001:000829f0       ?minimum_signed_value@__crt_strtox@@YA_J_K@Z 100839f0 f i libucrtd:atox.obj
 0001:00082a00       __atoi64                   10083a00 f   libucrtd:atox.obj
 0001:00082a20       __atoi64_l                 10083a20 f   libucrtd:atox.obj
 0001:00082a40       __atoi_l                   10083a40 f   libucrtd:atox.obj
 0001:00082a60       __atol_l                   10083a60 f   libucrtd:atox.obj
 0001:00082a80       __atoll_l                  10083a80 f   libucrtd:atox.obj
 0001:00082aa0       __wtoi                     10083aa0 f   libucrtd:atox.obj
 0001:00082ac0       __wtoi64                   10083ac0 f   libucrtd:atox.obj
 0001:00082ae0       __wtoi64_l                 10083ae0 f   libucrtd:atox.obj
 0001:00082b00       __wtoi_l                   10083b00 f   libucrtd:atox.obj
 0001:00082b20       __wtol                     10083b20 f   libucrtd:atox.obj
 0001:00082b40       __wtol_l                   10083b40 f   libucrtd:atox.obj
 0001:00082b60       __wtoll                    10083b60 f   libucrtd:atox.obj
 0001:00082b80       __wtoll_l                  10083b80 f   libucrtd:atox.obj
 0001:00082ba0       _atoi                      10083ba0 f   libucrtd:atox.obj
 0001:00082bc0       _atol                      10083bc0 f   libucrtd:atox.obj
 0001:00082be0       _atoll                     10083be0 f   libucrtd:atox.obj
 0001:00082c00       _strncmp                   10083c00 f   libucrtd:strncmp.obj
 0001:00082c80       _wcsncmp                   10083c80 f   libucrtd:wcsncmp.obj
 0001:00082ce0       __CrtGetDebugFillThreshold 10083ce0 f   libucrtd:debug_fill_threshold.obj
 0001:00082cf0       __CrtSetDebugFillThreshold 10083cf0 f   libucrtd:debug_fill_threshold.obj
 0001:00082d10       ?value@?$dual_state_global@PAU__crt_locale_data@@@__crt_state_management@@QAEAAPAU__crt_locale_data@@XZ 10083d10 f i libucrtd:locale_update.obj
 0001:00082d30       ?value@?$dual_state_global@PAU__crt_multibyte_data@@@__crt_state_management@@QAEAAPAU__crt_multibyte_data@@XZ 10083d30 f i libucrtd:locale_update.obj
 0001:00082d50       ?value_explicit@?$dual_state_global@PAU__crt_locale_data@@@__crt_state_management@@QAEAAPAU__crt_locale_data@@I@Z 10083d50 f i libucrtd:locale_update.obj
 0001:00082d70       ?value_explicit@?$dual_state_global@PAU__crt_multibyte_data@@@__crt_state_management@@QAEAAPAU__crt_multibyte_data@@I@Z 10083d70 f i libucrtd:locale_update.obj
 0001:00082d90       ___acrt_should_sync_with_global_locale 10083d90 f i libucrtd:locale_update.obj
 0001:00082dc0       ___acrt_update_locale_info 10083dc0 f   libucrtd:locale_update.obj
 0001:00082e00       ___acrt_update_locale_info_explicit 10083e00 f   libucrtd:locale_update.obj
 0001:00082e40       ___acrt_update_multibyte_info 10083e40 f   libucrtd:locale_update.obj
 0001:00082e80       ___acrt_update_multibyte_info_explicit 10083e80 f   libucrtd:locale_update.obj
 0001:00082ec0       ?__acrt_fp_classify@@YA?AW4__acrt_fp_class@@ABN@Z 10083ec0 f i libucrtd:cvt.obj
 0001:00082fe0       ?__acrt_fp_is_negative@@YA_NABN@Z 10083fe0 f i libucrtd:cvt.obj
 0001:000841f0       ?strrchr@@YAPADQADH@Z      100851f0 f i libucrtd:cvt.obj
 0001:00084210       ___acrt_fp_format          10085210 f   libucrtd:cvt.obj
 0001:00084690       ?value_or@?$cached@H@__crt_cached_ptd_host@@QBEHH@Z 10085690 f i libucrtd:wctomb.obj
 0001:000846c0       __wctomb_internal          100856c0 f   libucrtd:wctomb.obj
 0001:00084a40       __wctomb_l                 10085a40 f   libucrtd:wctomb.obj
 0001:00084ac0       __wctomb_s_l               10085ac0 f   libucrtd:wctomb.obj
 0001:00084b10       _wctomb                    10085b10 f   libucrtd:wctomb.obj
 0001:00084b80       _wctomb_s                  10085b80 f   libucrtd:wctomb.obj
 0001:00084bd0       __isleadbyte_fast_internal 10085bd0 f i libucrtd:mbtowc.obj
 0001:00084bf0       __mbtowc_internal          10085bf0 f   libucrtd:mbtowc.obj
 0001:00084e80       __mbtowc_l                 10085e80 f   libucrtd:mbtowc.obj
 0001:00084ec0       _mbtowc                    10085ec0 f   libucrtd:mbtowc.obj
 0001:00084f00       ?lowio_handle@__crt_stdio_stream@@QBEHXZ 10085f00 f i libucrtd:fileno.obj
 0001:00084f20       __fileno                   10085f20 f   libucrtd:fileno.obj
 0001:00084fc0       ??$?RPAU__crt_stdio_stream_data@@@__crt_internal_free_policy@@QBEXQBQAU__crt_stdio_stream_data@@@Z 10085fc0 f i libucrtd:_file.obj
 0001:00084fe0       ??0?$__crt_unique_heap_ptr@PAU__crt_stdio_stream_data@@U__crt_internal_free_policy@@@@QAE@QAPAU__crt_stdio_stream_data@@@Z 10085fe0 f i libucrtd:_file.obj
 0001:00085000       ??1?$__crt_unique_heap_ptr@PAU__crt_stdio_stream_data@@U__crt_internal_free_policy@@@@QAE@XZ 10086000 f i libucrtd:_file.obj
 0001:00085020       ?detach@?$__crt_unique_heap_ptr@PAU__crt_stdio_stream_data@@U__crt_internal_free_policy@@@@QAEPAPAU__crt_stdio_stream_data@@XZ 10086020 f i libucrtd:_file.obj
 0001:00085050       ?release@?$__crt_unique_heap_ptr@PAU__crt_stdio_stream_data@@U__crt_internal_free_policy@@@@QAEXXZ 10086050 f i libucrtd:_file.obj
 0001:00085080       ___acrt_initialize_stdio   10086080 f   libucrtd:_file.obj
 0001:000851f0       ___acrt_iob_func           100861f0 f   libucrtd:_file.obj
 0001:00085200       ___acrt_uninitialize_stdio 10086200 f   libucrtd:_file.obj
 0001:00085280       __get_stream_buffer_pointers 10086280 f   libucrtd:_file.obj
 0001:00085360       __lock_file                10086360 f   libucrtd:_file.obj
 0001:00085390       __unlock_file              10086390 f   libucrtd:_file.obj
 0001:000853c0       __get_printf_count_output  100863c0 f   libucrtd:printf_count_output.obj
 0001:000853f0       __set_printf_count_output  100863f0 f   libucrtd:printf_count_output.obj
 0001:000855f0       __fputwc_nolock            100865f0 f   libucrtd:fputwc.obj
 0001:00085630       __fputwc_nolock_internal   10086630 f   libucrtd:fputwc.obj
 0001:00085840       __fputwchar                10086840 f   libucrtd:fputwc.obj
 0001:00085860       __putwc_nolock             10086860 f   libucrtd:fputwc.obj
 0001:00085880       _fputwc                    10086880 f   libucrtd:fputwc.obj
 0001:000858c0       _putwc                     100868c0 f   libucrtd:fputwc.obj
 0001:000858e0       _putwchar                  100868e0 f   libucrtd:fputwc.obj
 0001:00085900       ?has_any_buffer@__crt_stdio_stream@@QBE_NXZ 10086900 f i libucrtd:_sftbuf.obj
 0001:00085920       ?has_any_of@__crt_stdio_stream@@QBE_NJ@Z 10086920 f i libucrtd:_sftbuf.obj
 0001:00085960       ?has_temporary_buffer@__crt_stdio_stream@@QBE_NXZ 10086960 f i libucrtd:_sftbuf.obj
 0001:00085980       ?set_flags@__crt_stdio_stream@@QBE_NJ@Z 10086980 f i libucrtd:_sftbuf.obj
 0001:000859d0       ?unset_flags@__crt_stdio_stream@@QBE_NJ@Z 100869d0 f i libucrtd:_sftbuf.obj
 0001:00085a20       ___acrt_should_use_temporary_buffer 10086a20 f   libucrtd:_sftbuf.obj
 0001:00085a70       ___acrt_stdio_begin_temporary_buffering_nolock 10086a70 f   libucrtd:_sftbuf.obj
 0001:00085c40       ___acrt_stdio_end_temporary_buffering_nolock 10086c40 f   libucrtd:_sftbuf.obj
 0001:00085cc0       ??$?RU__acrt_ptd@@@__crt_internal_free_policy@@QBEXQBU__acrt_ptd@@@Z 10086cc0 f i libucrtd:per_thread_data.obj
 0001:00086230       ??0?$__crt_unique_heap_ptr@U__acrt_ptd@@U__crt_internal_free_policy@@@@QAE@QAU__acrt_ptd@@@Z 10087230 f i libucrtd:per_thread_data.obj
 0001:00086250       ??1?$__crt_unique_heap_ptr@U__acrt_ptd@@U__crt_internal_free_policy@@@@QAE@XZ 10087250 f i libucrtd:per_thread_data.obj
 0001:00086270       ??B?$__crt_unique_heap_ptr@U__acrt_ptd@@U__crt_internal_free_policy@@@@QBE_NXZ 10087270 f i libucrtd:per_thread_data.obj
 0001:00086580       ?dangerous_get_state_array@?$dual_state_global@PAU__crt_locale_data@@@__crt_state_management@@QAEPAPAU__crt_locale_data@@XZ 10087580 f i libucrtd:per_thread_data.obj
 0001:00086720       ?detach@?$__crt_unique_heap_ptr@U__acrt_ptd@@U__crt_internal_free_policy@@@@QAEPAU__acrt_ptd@@XZ 10087720 f i libucrtd:per_thread_data.obj
 0001:00086750       ?get@?$__crt_unique_heap_ptr@U__acrt_ptd@@U__crt_internal_free_policy@@@@QBEPAU__acrt_ptd@@XZ 10087750 f i libucrtd:per_thread_data.obj
 0001:000868f0       ?is_valid@?$__crt_unique_heap_ptr@U__acrt_ptd@@U__crt_internal_free_policy@@@@QBE_NXZ 100878f0 f i libucrtd:per_thread_data.obj
 0001:00086920       ?release@?$__crt_unique_heap_ptr@U__acrt_ptd@@U__crt_internal_free_policy@@@@QAEXXZ 10087920 f i libucrtd:per_thread_data.obj
 0001:00086a10       ___acrt_freeptd            10087a10 f   libucrtd:per_thread_data.obj
 0001:00086a40       ___acrt_getptd             10087a40 f   libucrtd:per_thread_data.obj
 0001:00086a60       ___acrt_getptd_head        10087a60 f   libucrtd:per_thread_data.obj
 0001:00086a80       ___acrt_getptd_noexit      10087a80 f   libucrtd:per_thread_data.obj
 0001:00086a90       ___acrt_getptd_noexit_explicit 10087a90 f   libucrtd:per_thread_data.obj
 0001:00086ab0       ___acrt_initialize_ptd     10087ab0 f   libucrtd:per_thread_data.obj
 0001:00086af0       ___acrt_uninitialize_ptd   10087af0 f   libucrtd:per_thread_data.obj
 0001:00086b20       ___threadhandle            10087b20 f   libucrtd:per_thread_data.obj
 0001:00086b30       ___threadid                10087b30 f   libucrtd:per_thread_data.obj
 0001:00086b50       ??$?RU__crt_locale_data@@@__crt_internal_free_policy@@QBEXQBU__crt_locale_data@@@Z 10087b50 f i libucrtd:wsetlocale.obj
 0001:00086b70       ??$?RU__crt_locale_pointers@@@__crt_internal_free_policy@@QBEXQBU__crt_locale_pointers@@@Z 10087b70 f i libucrtd:wsetlocale.obj
 0001:00086b90       ??$?RU__crt_multibyte_data@@@__crt_internal_free_policy@@QBEXQBU__crt_multibyte_data@@@Z 10087b90 f i libucrtd:wsetlocale.obj
 0001:00087270       ??0?$__crt_unique_heap_ptr@U__crt_locale_data@@U__crt_internal_free_policy@@@@QAE@QAU__crt_locale_data@@@Z 10088270 f i libucrtd:wsetlocale.obj
 0001:00087290       ??0?$__crt_unique_heap_ptr@U__crt_locale_pointers@@U__crt_internal_free_policy@@@@QAE@QAU__crt_locale_pointers@@@Z 10088290 f i libucrtd:wsetlocale.obj
 0001:000872b0       ??0?$__crt_unique_heap_ptr@U__crt_multibyte_data@@U__crt_internal_free_policy@@@@QAE@QAU__crt_multibyte_data@@@Z 100882b0 f i libucrtd:wsetlocale.obj
 0001:000872d0       ??0_expandlocale_locale_name_cache@@QAE@QA_WIQAU__crt_qualified_locale_data@@@Z 100882d0 f i libucrtd:wsetlocale.obj
 0001:00087340       ??1?$__crt_unique_heap_ptr@U__crt_locale_data@@U__crt_internal_free_policy@@@@QAE@XZ 10088340 f i libucrtd:wsetlocale.obj
 0001:00087360       ??1?$__crt_unique_heap_ptr@U__crt_locale_pointers@@U__crt_internal_free_policy@@@@QAE@XZ 10088360 f i libucrtd:wsetlocale.obj
 0001:00087380       ??1?$__crt_unique_heap_ptr@U__crt_multibyte_data@@U__crt_internal_free_policy@@@@QAE@XZ 10088380 f i libucrtd:wsetlocale.obj
 0001:000873a0       ??1_expandlocale_locale_name_cache@@QAE@XZ 100883a0 f i libucrtd:wsetlocale.obj
 0001:00087400       ??B?$__crt_unique_heap_ptr@U__crt_locale_data@@U__crt_internal_free_policy@@@@QBE_NXZ 10088400 f i libucrtd:wsetlocale.obj
 0001:00087420       ??B?$__crt_unique_heap_ptr@U__crt_locale_pointers@@U__crt_internal_free_policy@@@@QBE_NXZ 10088420 f i libucrtd:wsetlocale.obj
 0001:00087440       ??B?$__crt_unique_heap_ptr@U__crt_multibyte_data@@U__crt_internal_free_policy@@@@QBE_NXZ 10088440 f i libucrtd:wsetlocale.obj
 0001:00087830       ?commit_locale_name@_expandlocale_locale_name_cache@@QAEXQB_WI@Z 10088830 f i libucrtd:wsetlocale.obj
 0001:00087890       ?commit_locale_name_cache_already_updated@_expandlocale_locale_name_cache@@QAEXQB_WI@Z 10088890 f i libucrtd:wsetlocale.obj
 0001:000878f0       ?detach@?$__crt_unique_heap_ptr@U__crt_locale_data@@U__crt_internal_free_policy@@@@QAEPAU__crt_locale_data@@XZ 100888f0 f i libucrtd:wsetlocale.obj
 0001:00087920       ?detach@?$__crt_unique_heap_ptr@U__crt_locale_pointers@@U__crt_internal_free_policy@@@@QAEPAU__crt_locale_pointers@@XZ 10088920 f i libucrtd:wsetlocale.obj
 0001:00087950       ?detach@?$__crt_unique_heap_ptr@U__crt_multibyte_data@@U__crt_internal_free_policy@@@@QAEPAU__crt_multibyte_data@@XZ 10088950 f i libucrtd:wsetlocale.obj
 0001:00087980       ?get@?$__crt_unique_heap_ptr@U__crt_locale_data@@U__crt_internal_free_policy@@@@QBEPAU__crt_locale_data@@XZ 10088980 f i libucrtd:wsetlocale.obj
 0001:000879a0       ?get@?$__crt_unique_heap_ptr@U__crt_locale_pointers@@U__crt_internal_free_policy@@@@QBEPAU__crt_locale_pointers@@XZ 100889a0 f i libucrtd:wsetlocale.obj
 0001:000879c0       ?get@?$__crt_unique_heap_ptr@U__crt_multibyte_data@@U__crt_internal_free_policy@@@@QBEPAU__crt_multibyte_data@@XZ 100889c0 f i libucrtd:wsetlocale.obj
 0001:000879e0       ?is_valid@?$__crt_unique_heap_ptr@U__crt_locale_data@@U__crt_internal_free_policy@@@@QBE_NXZ 100889e0 f i libucrtd:wsetlocale.obj
 0001:00087a10       ?is_valid@?$__crt_unique_heap_ptr@U__crt_locale_pointers@@U__crt_internal_free_policy@@@@QBE_NXZ 10088a10 f i libucrtd:wsetlocale.obj
 0001:00087a40       ?is_valid@?$__crt_unique_heap_ptr@U__crt_multibyte_data@@U__crt_internal_free_policy@@@@QBE_NXZ 10088a40 f i libucrtd:wsetlocale.obj
 0001:00087a70       ?release@?$__crt_unique_heap_ptr@U__crt_locale_data@@U__crt_internal_free_policy@@@@QAEXXZ 10088a70 f i libucrtd:wsetlocale.obj
 0001:00087aa0       ?release@?$__crt_unique_heap_ptr@U__crt_locale_pointers@@U__crt_internal_free_policy@@@@QAEXXZ 10088aa0 f i libucrtd:wsetlocale.obj
 0001:00087ad0       ?release@?$__crt_unique_heap_ptr@U__crt_multibyte_data@@U__crt_internal_free_policy@@@@QAEXXZ 10088ad0 f i libucrtd:wsetlocale.obj
 0001:00087b00       ___acrt_copy_locale_name   10088b00 f   libucrtd:wsetlocale.obj
 0001:00087ba0       ___acrt_set_locale_changed 10088ba0 f   libucrtd:wsetlocale.obj
 0001:00087bc0       ___acrt_uninitialize_locale 10088bc0 f   libucrtd:wsetlocale.obj
 0001:00087be0       ___ascii_tolower           10088be0 f i libucrtd:wsetlocale.obj
 0001:00087c00       ___ascii_towlower          10088c00 f i libucrtd:wsetlocale.obj
 0001:00087c20       ___lc_lctowcs              10088c20 f   libucrtd:wsetlocale.obj
 0001:00087cd0       ___lc_wcstolc              10088cd0 f   libucrtd:wsetlocale.obj
 0001:00087f00       __configthreadlocale       10088f00 f   libucrtd:wsetlocale.obj
 0001:00088080       __create_locale            10089080 f   libucrtd:wsetlocale.obj
 0001:000886c0       __free_locale              100896c0 f   libucrtd:wsetlocale.obj
 0001:000887f0       __get_current_locale       100897f0 f   libucrtd:wsetlocale.obj
 0001:000888d0       __wcreate_locale           100898d0 f   libucrtd:wsetlocale.obj
 0001:00088b20       __wcscats                  10089b20 f   libucrtd:wsetlocale.obj
 0001:00088ba0       __wsetlocale               10089ba0 f   libucrtd:wsetlocale.obj
 0001:0008a2b0       ___p___mb_cur_max          1008b2b0 f   libucrtd:nlsdata.obj
 0001:0008a5b0       ___acrt_initialize_lowio   1008b5b0 f   libucrtd:ioinit.obj
 0001:0008a650       ___acrt_uninitialize_lowio 1008b650 f   libucrtd:ioinit.obj
 0001:0008a6b0       __CrtGetReportHook         1008b6b0 f   libucrtd:dbgrptt.obj
 0001:0008a6c0       __CrtSetReportFile         1008b6c0 f   libucrtd:dbgrptt.obj
 0001:0008a7c0       __CrtSetReportHook         1008b7c0 f   libucrtd:dbgrptt.obj
 0001:0008a7e0       __CrtSetReportMode         1008b7e0 f   libucrtd:dbgrptt.obj
 0001:0008a920       __VCrtDbgReportA           1008b920 f   libucrtd:dbgrptt.obj
 0001:0008b1f0       __VCrtDbgReportW           1008c1f0 f   libucrtd:dbgrptt.obj
 0001:0008bc10       __snprintf_s               1008cc10 f i libucrtd:dbgrptt.obj
 0001:0008bc50       __vsnprintf_s              1008cc50 f i libucrtd:dbgrptt.obj
 0001:0008bc80       __vsnprintf_s_l            1008cc80 f i libucrtd:dbgrptt.obj
 0001:0008bce0       ??$__acrt_convert_wcs_mbs_cp@_WDV<lambda_0fec1a7b3f42a53036604e18c2d5e07e>@@U__crt_win32_buffer_no_resizing@@@@YAHQB_WAAV?$__crt_win32_buffer@DU__crt_win32_buffer_no_resizing@@@@ABV<lambda_0fec1a7b3f42a53036604e18c2d5e07e>@@I@Z 1008cce0 f i libucrtd:getmodulefilenamea.obj
 0001:0008be20       ??$__acrt_wcs_to_mbs_cp@U__crt_win32_buffer_no_resizing@@@@YAHQB_WAAV?$__crt_win32_buffer@DU__crt_win32_buffer_no_resizing@@@@I@Z 1008ce20 f i libucrtd:getmodulefilenamea.obj
 0001:0008be50       ??0?$__crt_win32_buffer@DU__crt_win32_buffer_no_resizing@@@@QAE@QADI@Z 1008ce50 f i libucrtd:getmodulefilenamea.obj
 0001:0008bea0       ??1?$__crt_win32_buffer@DU__crt_win32_buffer_no_resizing@@@@QAE@XZ 1008cea0 f i libucrtd:getmodulefilenamea.obj
 0001:0008bef0       ??R<lambda_0fec1a7b3f42a53036604e18c2d5e07e>@@QBEHIQB_WQADI@Z 1008cef0 f i libucrtd:getmodulefilenamea.obj
 0001:0008bf20       ?__acrt_get_utf8_acp_compatibility_codepage@@YAIXZ 1008cf20 f i libucrtd:getmodulefilenamea.obj
 0001:0008bfb0       ?_deallocate@?$__crt_win32_buffer@DU__crt_win32_buffer_no_resizing@@@@AAEXXZ 1008cfb0 f i libucrtd:getmodulefilenamea.obj
 0001:0008c000       ?allocate@?$__crt_win32_buffer@DU__crt_win32_buffer_no_resizing@@@@QAEHI@Z 1008d000 f i libucrtd:getmodulefilenamea.obj
 0001:0008c070       ?allocate@__crt_win32_buffer_no_resizing@@SAHQAPAXIABV__crt_win32_buffer_empty_debug_info@@@Z 1008d070 f i libucrtd:getmodulefilenamea.obj
 0001:0008c090       ?capacity@?$__crt_win32_buffer@DU__crt_win32_buffer_no_resizing@@@@QBEIXZ 1008d090 f i libucrtd:getmodulefilenamea.obj
 0001:0008c0b0       ?data@?$__crt_win32_buffer@DU__crt_win32_buffer_no_resizing@@@@QAEPADXZ 1008d0b0 f i libucrtd:getmodulefilenamea.obj
 0001:0008c0d0       ?deallocate@__crt_win32_buffer_no_resizing@@SAXQAXABV__crt_win32_buffer_empty_debug_info@@@Z 1008d0d0 f i libucrtd:getmodulefilenamea.obj
 0001:0008c0e0       ?debug_info@?$__crt_win32_buffer@DU__crt_win32_buffer_no_resizing@@@@QBEABV__crt_win32_buffer_empty_debug_info@@XZ 1008d0e0 f i libucrtd:getmodulefilenamea.obj
 0001:0008c0f0       ?set_to_nullptr@?$__crt_win32_buffer@DU__crt_win32_buffer_no_resizing@@@@QAEXXZ 1008d0f0 f i libucrtd:getmodulefilenamea.obj
 0001:0008c130       ?size@?$__crt_win32_buffer@DU__crt_win32_buffer_no_resizing@@@@QAEXI@Z 1008d130 f i libucrtd:getmodulefilenamea.obj
 0001:0008c150       ?size@?$__crt_win32_buffer@DU__crt_win32_buffer_no_resizing@@@@QBEIXZ 1008d150 f i libucrtd:getmodulefilenamea.obj
 0001:0008c170       ___acrt_GetModuleFileNameA 1008d170 f   libucrtd:getmodulefilenamea.obj
 0001:0008c450       ??$message_box@$$TABQBDABQBDK@?$__crt_char_traits@D@@SAH$$QA$$TABQBD1$$QAK@Z 1008d450 f i libucrtd:crtmbox.obj
 0001:0008c480       ??$message_box@$$TABQB_WABQB_WK@?$__crt_char_traits@_W@@SAH$$QA$$TABQB_W1$$QAK@Z 1008d480 f i libucrtd:crtmbox.obj
 0001:0008c4b0       ??$message_box@PAUHWND__@@ABQBDABQBDABI@?$__crt_char_traits@D@@SAH$$QAPAUHWND__@@ABQBD1ABI@Z 1008d4b0 f i libucrtd:crtmbox.obj
 0001:0008c4e0       ??$message_box@PAUHWND__@@ABQB_WABQB_WABI@?$__crt_char_traits@_W@@SAH$$QAPAUHWND__@@ABQB_W1ABI@Z 1008d4e0 f i libucrtd:crtmbox.obj
 0001:0008c510       ??$output_debug_string@ABQBD@?$__crt_char_traits@D@@SAXABQBD@Z 1008d510 f i libucrtd:crtmbox.obj
 0001:0008c530       ??$output_debug_string@ABQB_W@?$__crt_char_traits@_W@@SAXABQB_W@Z 1008d530 f i libucrtd:crtmbox.obj
 0001:0008c550       ___acrt_show_narrow_message_box 1008d550 f   libucrtd:crtmbox.obj
 0001:0008c570       ___acrt_show_wide_message_box 1008d570 f   libucrtd:crtmbox.obj
 0001:0008c590       ___acrt_initialize_locks   1008d590 f   libucrtd:locks.obj
 0001:0008c5f0       ___acrt_lock               1008d5f0 f   libucrtd:locks.obj
 0001:0008c610       ___acrt_uninitialize_locks 1008d610 f   libucrtd:locks.obj
 0001:0008c660       ___acrt_unlock             1008d660 f   libucrtd:locks.obj
 0001:0008c680       __lock_locales             1008d680 f   libucrtd:locks.obj
 0001:0008c6a0       __unlock_locales           1008d6a0 f   libucrtd:locks.obj
 0001:0008c6c0       ??$?B$$A6AXH@Z@__crt_fast_encoded_nullptr_t@@QBEP6AXH@ZXZ 1008d6c0 f i libucrtd:signal.obj
 0001:0008c7e0       ??$__crt_fast_decode_pointer@P6AXH@Z@@YAP6AXH@ZQ6AXH@Z@Z 1008d7e0 f i libucrtd:signal.obj
 0001:0008c810       ??$__crt_fast_encode_pointer@P6AXH@Z@@YAP6AXH@ZQ6AXH@Z@Z 1008d810 f i libucrtd:signal.obj
 0001:0008cac0       ?initialize@?$dual_state_global@P6AXH@Z@__crt_state_management@@QAEXQ6AXH@Z@Z 1008dac0 f i libucrtd:signal.obj
 0001:0008cc00       ?value@?$dual_state_global@P6AXH@Z@__crt_state_management@@QAEAAP6AXH@ZXZ 1008dc00 f i libucrtd:signal.obj
 0001:0008cc20       ___acrt_get_sigabrt_handler 1008dc20 f   libucrtd:signal.obj
 0001:0008cc40       ___acrt_initialize_signal_handlers 1008dc40 f   libucrtd:signal.obj
 0001:0008cc80       ___fpecode                 1008dc80 f   libucrtd:signal.obj
 0001:0008cc90       ___pxcptinfoptrs           1008dc90 f   libucrtd:signal.obj
 0001:0008cca0       _raise                     1008dca0 f   libucrtd:signal.obj
 0001:0008d080       _signal                    1008e080 f   libucrtd:signal.obj
 0001:0008d310       __msize                    1008e310 f   libucrtd:msize.obj
 0001:0008d330       __msize_base               1008e330 f   libucrtd:msize.obj
 0001:0008d3d0       __realloc_base             1008e3d0 f   libucrtd:realloc_base.obj
 0001:0008d490       ??$?B$$A6GHPA_WKJ@Z@__crt_fast_encoded_nullptr_t@@QBEP6GHPA_WKJ@ZXZ 1008e490 f i libucrtd:winapi_thunks.obj
 0001:0008d5b0       ??$__crt_fast_decode_pointer@P6GHPA_WKJ@Z@@YAP6GHPA_WKJ@ZQ6GH0KJ@Z@Z 1008e5b0 f i libucrtd:winapi_thunks.obj
 0001:0008d5e0       ??$__crt_fast_decode_pointer@PAX@@YAPAXQAX@Z 1008e5e0 f i libucrtd:winapi_thunks.obj
 0001:0008d610       ??$__crt_fast_encode_pointer@P6GHPA_WKJ@Z@@YAP6GHPA_WKJ@ZQ6GH0KJ@Z@Z 1008e610 f i libucrtd:winapi_thunks.obj
 0001:0008df70       _GetCurrentThreadEffectiveToken 1008ef70 f i libucrtd:winapi_thunks.obj
 0001:0008df80       ___acrt_AppPolicyGetProcessTerminationMethodInternal@4 1008ef80 f   libucrtd:winapi_thunks.obj
 0001:0008dfd0       ___acrt_AppPolicyGetShowDeveloperDiagnosticInternal@4 1008efd0 f   libucrtd:winapi_thunks.obj
 0001:0008e020       ___acrt_AppPolicyGetThreadInitializationTypeInternal@4 1008f020 f   libucrtd:winapi_thunks.obj
 0001:0008e070       ___acrt_AppPolicyGetWindowingModelInternal@4 1008f070 f   libucrtd:winapi_thunks.obj
 0001:0008e0c0       ___acrt_AreFileApisANSI@0  1008f0c0 f   libucrtd:winapi_thunks.obj
 0001:0008e100       ___acrt_CompareStringEx@36 1008f100 f   libucrtd:winapi_thunks.obj
 0001:0008e190       ___acrt_EnumSystemLocalesEx@16 1008f190 f   libucrtd:winapi_thunks.obj
 0001:0008e1f0       ___acrt_FlsAlloc@4         1008f1f0 f   libucrtd:winapi_thunks.obj
 0001:0008e230       ___acrt_FlsFree@4          1008f230 f   libucrtd:winapi_thunks.obj
 0001:0008e280       ___acrt_FlsGetValue@4      1008f280 f   libucrtd:winapi_thunks.obj
 0001:0008e2d0       ___acrt_FlsSetValue@8      1008f2d0 f   libucrtd:winapi_thunks.obj
 0001:0008e320       ___acrt_GetDateFormatEx@28 1008f320 f   libucrtd:winapi_thunks.obj
 0001:0008e3a0       ___acrt_GetEnabledXStateFeatures@0 1008f3a0 f   libucrtd:winapi_thunks.obj
 0001:0008e3e0       ___acrt_GetLocaleInfoEx@16 1008f3e0 f   libucrtd:winapi_thunks.obj
 0001:0008e450       ___acrt_GetSystemTimePreciseAsFileTime@4 1008f450 f   libucrtd:winapi_thunks.obj
 0001:0008e4a0       ___acrt_GetTimeFormatEx@24 1008f4a0 f   libucrtd:winapi_thunks.obj
 0001:0008e520       ___acrt_GetUserDefaultLocaleName@8 1008f520 f   libucrtd:winapi_thunks.obj
 0001:0008e580       ___acrt_GetXStateFeaturesMask@8 1008f580 f   libucrtd:winapi_thunks.obj
 0001:0008e5d0       ___acrt_InitializeCriticalSectionEx@12 1008f5d0 f   libucrtd:winapi_thunks.obj
 0001:0008e620       ___acrt_IsValidLocaleName@4 1008f620 f   libucrtd:winapi_thunks.obj
 0001:0008e670       ___acrt_LCIDToLocaleName@16 1008f670 f   libucrtd:winapi_thunks.obj
 0001:0008e6d0       ___acrt_LCMapStringEx@36   1008f6d0 f   libucrtd:winapi_thunks.obj
 0001:0008e750       ___acrt_LocaleNameToLCID@8 1008f750 f   libucrtd:winapi_thunks.obj
 0001:0008e7a0       ___acrt_LocateXStateFeature@12 1008f7a0 f   libucrtd:winapi_thunks.obj
 0001:0008e7f0       ___acrt_MessageBoxA@16     1008f7f0 f   libucrtd:winapi_thunks.obj
 0001:0008e840       ___acrt_MessageBoxW@16     1008f840 f   libucrtd:winapi_thunks.obj
 0001:0008e890       ___acrt_RoInitialize@4     1008f890 f   libucrtd:winapi_thunks.obj
 0001:0008e8d0       ___acrt_RoUninitialize@0   1008f8d0 f   libucrtd:winapi_thunks.obj
 0001:0008e900       ___acrt_RtlGenRandom@8     1008f900 f   libucrtd:winapi_thunks.obj
 0001:0008e950       ___acrt_SetThreadStackGuarantee@4 1008f950 f   libucrtd:winapi_thunks.obj
 0001:0008e990       ___acrt_can_show_message_box 1008f990 f   libucrtd:winapi_thunks.obj
 0001:0008e9d0       ___acrt_can_use_vista_locale_apis 1008f9d0 f   libucrtd:winapi_thunks.obj
 0001:0008ea00       ___acrt_can_use_xstate_apis 1008fa00 f   libucrtd:winapi_thunks.obj
 0001:0008ea30       ___acrt_eagerly_load_locale_apis 1008fa30 f   libucrtd:winapi_thunks.obj
 0001:0008ea70       ___acrt_get_parent_window  1008fa70 f   libucrtd:winapi_thunks.obj
 0001:0008eae0       ___acrt_initialize_winapi_thunks 1008fae0 f   libucrtd:winapi_thunks.obj
 0001:0008eb50       ___acrt_is_interactive     1008fb50 f   libucrtd:winapi_thunks.obj
 0001:0008ec00       ___acrt_uninitialize_winapi_thunks 1008fc00 f   libucrtd:winapi_thunks.obj
 0001:0008ec70       __chvalidator              1008fc70 f   libucrtd:isctype.obj
 0001:0008ecc0       __chvalidator_l            1008fcc0 f   libucrtd:isctype.obj
 0001:0008ed40       __isctype                  1008fd40 f   libucrtd:isctype.obj
 0001:0008ed80       __isctype_l                1008fd80 f   libucrtd:isctype.obj
 0001:0008ef10       ??$?RU__crt_stdio_stream_data@@@__crt_internal_free_policy@@QBEXQBU__crt_stdio_stream_data@@@Z 1008ff10 f i libucrtd:stream.obj
 0001:0008ef30       ??0?$__crt_unique_heap_ptr@U__crt_stdio_stream_data@@U__crt_internal_free_policy@@@@QAE@QAU__crt_stdio_stream_data@@@Z 1008ff30 f i libucrtd:stream.obj
 0001:0008ef50       ??0__crt_stdio_stream@@QAE@QAU__crt_stdio_stream_data@@@Z 1008ff50 f i libucrtd:stream.obj
 0001:0008ef70       ??0__crt_stdio_stream@@QAE@XZ 1008ff70 f i libucrtd:stream.obj
 0001:0008ef90       ??1?$__crt_unique_heap_ptr@U__crt_stdio_stream_data@@U__crt_internal_free_policy@@@@QAE@XZ 1008ff90 f i libucrtd:stream.obj
 0001:0008efb0       ?__acrt_stdio_allocate_stream@@YA?AV__crt_stdio_stream@@XZ 1008ffb0 f   libucrtd:stream.obj
 0001:0008f0a0       ?__acrt_stdio_free_stream@@YAXV__crt_stdio_stream@@@Z 100900a0 f   libucrtd:stream.obj
 0001:0008f120       ?deallocate@__crt_stdio_stream@@QAEXXZ 10090120 f i libucrtd:stream.obj
 0001:0008f140       ?detach@?$__crt_unique_heap_ptr@U__crt_stdio_stream_data@@U__crt_internal_free_policy@@@@QAEPAU__crt_stdio_stream_data@@XZ 10090140 f i libucrtd:stream.obj
 0001:0008f2b0       ?lock@__crt_stdio_stream@@QBEXXZ 100902b0 f i libucrtd:stream.obj
 0001:0008f2d0       ?release@?$__crt_unique_heap_ptr@U__crt_stdio_stream_data@@U__crt_internal_free_policy@@@@QAEXXZ 100902d0 f i libucrtd:stream.obj
 0001:0008f300       ?try_allocate@__crt_stdio_stream@@QAE_NXZ 10090300 f i libucrtd:stream.obj
 0001:0008f350       ??$__acrt_stdio_parse_mode@D@@YA?AU__acrt_stdio_stream_mode@@QBD@Z 10090350 f i libucrtd:openfile.obj
 0001:0008fbc0       ??$__acrt_stdio_parse_mode@_W@@YA?AU__acrt_stdio_stream_mode@@QB_W@Z 10090bc0 f i libucrtd:openfile.obj
 0001:00090750       ??$tcsncmp@AAPBDAAY02$$CBDI@?$__crt_char_traits@D@@SAHAAPBDAAY02$$CBD$$QAI@Z 10091750 f i libucrtd:openfile.obj
 0001:00090770       ??$tcsncmp@AAPB_WAAY02$$CB_WI@?$__crt_char_traits@_W@@SAHAAPB_WAAY02$$CB_W$$QAI@Z 10091770 f i libucrtd:openfile.obj
 0001:00090790       ??$tcsnicmp@AAPBDAAY04$$CBDI@?$__crt_char_traits@D@@SAHAAPBDAAY04$$CBD$$QAI@Z 10091790 f i libucrtd:openfile.obj
 0001:000907b0       ??$tcsnicmp@AAPBDAAY06$$CBDI@?$__crt_char_traits@D@@SAHAAPBDAAY06$$CBD$$QAI@Z 100917b0 f i libucrtd:openfile.obj
 0001:000907d0       ??$tcsnicmp@AAPBDAAY07$$CBDI@?$__crt_char_traits@D@@SAHAAPBDAAY07$$CBD$$QAI@Z 100917d0 f i libucrtd:openfile.obj
 0001:000907f0       ??$tcsnicmp@AAPB_WAAY04$$CB_WI@?$__crt_char_traits@_W@@SAHAAPB_WAAY04$$CB_W$$QAI@Z 100917f0 f i libucrtd:openfile.obj
 0001:00090810       ??$tcsnicmp@AAPB_WAAY06$$CB_WI@?$__crt_char_traits@_W@@SAHAAPB_WAAY06$$CB_W$$QAI@Z 10091810 f i libucrtd:openfile.obj
 0001:00090830       ??$tcsnicmp@AAPB_WAAY07$$CB_WI@?$__crt_char_traits@_W@@SAHAAPB_WAAY07$$CB_W$$QAI@Z 10091830 f i libucrtd:openfile.obj
 0001:00090850       ??$tsopen_s@PAHABQBDABHABHH@?$__crt_char_traits@D@@SAH$$QAPAHABQBDABH2$$QAH@Z 10091850 f i libucrtd:openfile.obj
 0001:00090880       ??$tsopen_s@PAHABQB_WABHABHH@?$__crt_char_traits@_W@@SAH$$QAPAHABQB_WABH2$$QAH@Z 10091880 f i libucrtd:openfile.obj
 0001:000908b0       ?__acrt_stdio_parse_mode_D@@YA_NAAU__acrt_stdio_stream_mode@@@Z 100918b0 f i libucrtd:openfile.obj
 0001:000908e0       ?__acrt_stdio_parse_mode_N@@YA_NAAU__acrt_stdio_stream_mode@@@Z 100918e0 f i libucrtd:openfile.obj
 0001:00090900       ?__acrt_stdio_parse_mode_R@@YA_NAAU__acrt_stdio_stream_mode@@AA_N@Z 10091900 f i libucrtd:openfile.obj
 0001:00090930       ?__acrt_stdio_parse_mode_S@@YA_NAAU__acrt_stdio_stream_mode@@AA_N@Z 10091930 f i libucrtd:openfile.obj
 0001:00090960       ?__acrt_stdio_parse_mode_T@@YA_NAAU__acrt_stdio_stream_mode@@@Z 10091960 f i libucrtd:openfile.obj
