 OPOSCheckScanner

 Timestamp is 61a75ccb (Wed Dec  1 20:30:19 2021)

 Preferred load address is 10000000

 Start         Length     Name                   Class
 0001:00000000 00000d90H .text$di                CODE
 0001:00000d90 000b7770H .text$mn                CODE
 0001:000b8500 00000cb0H .text$x                 CODE
 0001:000b91b0 00000120H .text$yd                CODE
 0002:00000000 00000358H .idata$5                DATA
 0002:00000358 0000000cH .00cfg                  DATA
 0002:00000364 00000004H .CRT$XCA                DATA
 0002:00000368 00000004H .CRT$XCL                DATA
 0002:0000036c 0000006cH .CRT$XCU                DATA
 0002:000003d8 00000004H .CRT$XCZ                DATA
 0002:000003dc 00000004H .CRT$XIA                DATA
 0002:000003e0 00000014H .CRT$XIC                DATA
 0002:000003f4 00000004H .CRT$XIZ                DATA
 0002:000003f8 00000004H .CRT$XLA                DATA
 0002:000003fc 00000004H .CRT$XLZ                DATA
 0002:00000400 00000004H .CRT$XPA                DATA
 0002:00000404 00000008H .CRT$XPX                DATA
 0002:0000040c 00000004H .CRT$XPXA               DATA
 0002:00000410 00000004H .CRT$XPZ                DATA
 0002:00000414 00000004H .CRT$XTA                DATA
 0002:00000418 00000008H .CRT$XTZ                DATA
 0002:0000041c 00000000H .gfids$y                DATA
 0002:00000420 0002f920H .rdata                  DATA
 0002:0002fd40 00000040H .rdata$CastGuardVftablesA DATA
 0002:0002fd80 00000040H .rdata$CastGuardVftablesC DATA
 0002:0002fdc0 00000018H .rdata$T                DATA
 0002:0002fdd8 0000033cH .rdata$r                DATA
 0002:00030114 000001a0H .rdata$sxdata           DATA
 0002:000302b4 00000170H .rdata$voltmd           DATA
 0002:00030424 0000047cH .rdata$zzzdbg           DATA
 0002:000308a0 00000004H .rtc$IAA                DATA
 0002:000308a4 00000018H .rtc$IMZ                DATA
 0002:000308bc 00000004H .rtc$IZZ                DATA
 0002:000308c0 00000004H .rtc$TAA                DATA
 0002:000308c4 00000018H .rtc$TMZ                DATA
 0002:000308dc 00000004H .rtc$TZZ                DATA
 0002:000308e0 00000004H .tls                    DATA
 0002:000308e4 00000004H .tls$                   DATA
 0002:000308e8 00000008H .tls$ZZZ                DATA
 0002:000308f0 00001a4cH .xdata$x                DATA
 0002:0003233c 00000004H ATL$__a                 DATA
 0002:00032340 00000010H ATL$__z                 DATA
 0002:00032350 000000b0H .edata                  DATA
 0002:00032400 00000078H .idata$2                DATA
 0002:00032478 00000014H .idata$3                DATA
 0002:0003248c 00000358H .idata$4                DATA
 0002:000327e4 00000d56H .idata$6                DATA
 0003:00000000 00000bd0H .data                   DATA
 0003:00000bd0 00000080H .data$r                 DATA
 0003:00000c50 000000b8H .data$rs                DATA
 0003:00000d08 00003580H .bss                    DATA
 0004:00000000 00000220H .rsrc$01                DATA
 0004:00000220 00005120H .rsrc$02                DATA

  Address         Publics by Value              Rva+Base       Lib:Object

 0000:00000000       ___guard_eh_cont_table     00000000     <absolute>
 0000:00000000       ___guard_fids_count        00000000     <absolute>
 0000:00000000       __except_list              00000000     <absolute>
 0000:00000000       ___arm64x_extra_rfe_table  00000000     <absolute>
 0000:00000000       ___guard_longjmp_count     00000000     <absolute>
 0000:00000000       ___arm64x_redirection_metadata 00000000     <absolute>
 0000:00000000       ___guard_fids_table        00000000     <absolute>
 0000:00000000       ___enclave_config          00000000     <absolute>
 0000:00000000       ___guard_iat_count         00000000     <absolute>
 0000:00000000       ___hybrid_code_map         00000000     <absolute>
 0000:00000000       ___guard_check_icall_a64n_fptr 00000000     <absolute>
 0000:00000000       ___arm64x_redirection_metadata_count 00000000     <absolute>
 0000:00000000       ___hybrid_auxiliary_iat    00000000     <absolute>
 0000:00000000       ___dynamic_value_reloc_table 00000000     <absolute>
 0000:00000000       ___x64_code_ranges_to_entry_points 00000000     <absolute>
 0000:00000000       ___hybrid_auxiliary_iat_copy 00000000     <absolute>
 0000:00000000       ___guard_iat_table         00000000     <absolute>
 0000:00000000       ___guard_longjmp_table     00000000     <absolute>
 0000:00000000       ___guard_eh_cont_count     00000000     <absolute>
 0000:00000000       ___AbsoluteZero            00000000     <absolute>
 0000:00000000       ___x64_code_ranges_to_entry_points_count 00000000     <absolute>
 0000:00000000       ___hybrid_code_map_count   00000000     <absolute>
 0000:00000000       ___arm64x_extra_rfe_table_size 00000000     <absolute>
 0000:00000000       ___arm64x_native_entrypoint 00000000     <absolute>
 0000:0000002c       __tls_array                0000002c     <absolute>
 0000:00000068       ___safe_se_handler_count   00000068     <absolute>
 0000:00000100       ___guard_flags             00000100     <absolute>
 0000:00000000       ___ImageBase               10000000     <linker-defined>
 0001:00000d90       ?_assert@@YAXPB_W0I@Z      10001d90 f   Assert.obj
 0001:00000ec0       ___local_stdio_printf_options 10001ec0 f i Assert.obj
 0001:00000ed0       ___vswprintf_l             10001ed0 f i Assert.obj
 0001:00000f00       __swprintf                 10001f00 f i Assert.obj
 0001:00000f60       __vswprintf_c_l            10001f60 f i Assert.obj
 0001:00000fd0       __vswprintf_l              10001fd0 f i Assert.obj
 0001:00001000       ?cw_memcpy@@YGHPADPB_WH@Z  10002000 f   CWString.obj
 0001:00001060       ?cw_memcpy@@YGHPA_WPBDH@Z  10002060 f   CWString.obj
 0001:000010c0       ?cw_memcpy@@YGHPADPBDH@Z   100020c0 f   CWString.obj
 0001:00001110       ?cw_memcpy@@YGHPA_WPB_WH@Z 10002110 f   CWString.obj
 0001:00001150       ?cw_memset@@YAXPADDH@Z     10002150 f   CWString.obj
 0001:00001170       ?cw_memset@@YAXPA_W_WH@Z   10002170 f   CWString.obj
 0001:00001190       ?cw_strlen@@YAHPBD@Z       10002190 f   CWString.obj
 0001:000011d0       ?cw_strlen@@YAHPB_W@Z      100021d0 f   CWString.obj
 0001:00001210       ?cw_strcpy@@YAHPADPB_W@Z   10002210 f   CWString.obj
 0001:00001230       ?cw_strcpy@@YAHPA_WPBD@Z   10002230 f   CWString.obj
 0001:00001250       ?cw_strcpy@@YAHPADPBD@Z    10002250 f   CWString.obj
 0001:00001270       ?cw_strcpy@@YAHPA_WPB_W@Z  10002270 f   CWString.obj
 0001:00001290       ?cw_strcat@@YAHPADPB_W@Z   10002290 f   CWString.obj
 0001:000012c0       ?cw_strcat@@YAHPA_WPBD@Z   100022c0 f   CWString.obj
 0001:000012f0       ?cw_strcat@@YAHPADPBD@Z    100022f0 f   CWString.obj
 0001:00001320       ?cw_strcat@@YAHPA_WPB_W@Z  10002320 f   CWString.obj
 0001:00001350       ?cw_dup@@YGXPBDAAHAAPA_W1@Z 10002350 f   CWString.obj
 0001:00001410       ?cw_dup@@YGXPB_WAAHAAPAD1@Z 10002410 f   CWString.obj
 0001:000014c0       ?DupChar@_CW@@AAEXXZ       100024c0 f   CWString.obj
 0001:00001510       ?DupWide@_CW@@AAEXXZ       10002510 f   CWString.obj
 0001:00001560       ?GetCharsMbcs@_CW@@QAEHXZ  10002560 f   CWString.obj
 0001:000015c0       ?GetCharsWide@_CW@@QAEHXZ  100025c0 f   CWString.obj
 0001:00001620       ?SetVARIANT_BOOL@OposVariant@@QAEXF@Z 10002620 f   OposVariant.obj
 0001:00001680       ?SetVARIANT_BOOL_Ptr@OposVariant@@QAEXPAFAAJ@Z 10002680 f   OposVariant.obj
 0001:000016d0       ?GetLONG@OposVariant@@QAEJXZ 100026d0 f   OposVariant.obj
 0001:00001760       ?ChangeLONG@OposVariant@@QAEXPAJAAJ@Z 10002760 f   OposVariant.obj
 0001:00001820       ?SetLONG@OposVariant@@QAEXJ@Z 10002820 f   OposVariant.obj
 0001:00001860       ?SetLONG_Ptr@OposVariant@@QAEXPAJAAJ@Z 10002860 f   OposVariant.obj
 0001:000018b0       ?ChangeCURRENCY@OposVariant@@QAEXPATtagCY@@AAJ@Z 100028b0 f   OposVariant.obj
 0001:00001970       ?SetCURRENCY@OposVariant@@QAEXTtagCY@@@Z 10002970 f   OposVariant.obj
 0001:000019b0       ?SetCURRENCY_Ptr@OposVariant@@QAEXPATtagCY@@AAJ@Z 100029b0 f   OposVariant.obj
 0001:00001a00       ?ChangeBSTR@OposVariant@@QAEXPAPA_WAAJ@Z 10002a00 f   OposVariant.obj
 0001:00001ac0       ?SetBSTR@OposVariant@@QAEXPA_WAAJ@Z 10002ac0 f   OposVariant.obj
 0001:00001b10       ?SetBSTR_Copy@OposVariant@@QAEXPA_WAAJ@Z 10002b10 f   OposVariant.obj
 0001:00001bb0       ?SetBSTR_OutPtr@OposVariant@@QAE_NPAPA_WAAJ@Z 10002bb0 f   OposVariant.obj
 0001:00001c00       ?SetBSTR_InOutPtr@OposVariant@@QAE_NPAPA_WAAJ@Z 10002c00 f   OposVariant.obj
 0001:00001c50       ?SetVARIANT@OposVariant@@QAEXAAUtagVARIANT@@GAAJ@Z 10002c50 f   OposVariant.obj
 0001:00001cd0       ?SetVARIANT_Ptr@OposVariant@@QAEXAAPAUtagVARIANT@@GAAJ@Z 10002cd0 f   OposVariant.obj
 0001:00001d70       ?SetString@OposVariant@@QAEXPB_WAAJ@Z 10002d70 f   OposVariant.obj
 0001:00001e00       ?SetDispatch_Ptr@OposVariant@@QAEXPAUIDispatch@@AAJ@Z 10002e00 f   OposVariant.obj
 0001:00001e70       ??0OposDispParms@@QAE@PAVOposVariant@@H@Z 10002e70 f   OposVariant.obj
 0001:00001f40       ??1OposDispParms@@QAE@XZ   10002f40 f   OposVariant.obj
 0001:00001f90       ??$AtlMultiply@I@ATL@@YAJPAIII@Z 10002f90 f i OposVariant.obj
 0001:00001ff0       ??0?$CHeapPtr@_WVCCRTAllocator@ATL@@@ATL@@QAE@XZ 10002ff0 f i OposVariant.obj
 0001:00002020       ??0?$CHeapPtrBase@_WVCCRTAllocator@ATL@@@ATL@@IAE@XZ 10003020 f i OposVariant.obj
 0001:00002040       ??0?$CSimpleArray@GV?$CSimpleArrayEqualHelper@G@ATL@@@ATL@@QAE@XZ 10003040 f i OposVariant.obj
 0001:00002070       ??0?$CTraceCategoryEx@$00$0A@@ATL@@QAE@PB_W@Z 10003070 f i OposVariant.obj
 0001:000020a0       ??0?$CTraceCategoryEx@$01$0A@@ATL@@QAE@PB_W@Z 100030a0 f i OposVariant.obj
 0001:000020d0       ??0?$CTraceCategoryEx@$03$0A@@ATL@@QAE@PB_W@Z 100030d0 f i OposVariant.obj
 0001:00002100       ??0?$CTraceCategoryEx@$07$0A@@ATL@@QAE@PB_W@Z 10003100 f i OposVariant.obj
 0001:00002130       ??0?$CTraceCategoryEx@$0BA@$0A@@ATL@@QAE@PB_W@Z 10003130 f i OposVariant.obj
 0001:00002160       ??0?$CTraceCategoryEx@$0BAA@$0A@@ATL@@QAE@PB_W@Z 10003160 f i OposVariant.obj
 0001:000021a0       ??0?$CTraceCategoryEx@$0BAAA@$0A@@ATL@@QAE@PB_W@Z 100031a0 f i OposVariant.obj
 0001:000021e0       ??0?$CTraceCategoryEx@$0BAAAA@$0A@@ATL@@QAE@PB_W@Z 100031e0 f i OposVariant.obj
 0001:00002220       ??0?$CTraceCategoryEx@$0BAAAAA@$0A@@ATL@@QAE@PB_W@Z 10003220 f i OposVariant.obj
 0001:00002260       ??0?$CTraceCategoryEx@$0CA@$0A@@ATL@@QAE@PB_W@Z 10003260 f i OposVariant.obj
 0001:00002290       ??0?$CTraceCategoryEx@$0CAA@$0A@@ATL@@QAE@PB_W@Z 10003290 f i OposVariant.obj
 0001:000022d0       ??0?$CTraceCategoryEx@$0CAAA@$0A@@ATL@@QAE@PB_W@Z 100032d0 f i OposVariant.obj
 0001:00002310       ??0?$CTraceCategoryEx@$0CAAAA@$0A@@ATL@@QAE@PB_W@Z 10003310 f i OposVariant.obj
 0001:00002350       ??0?$CTraceCategoryEx@$0CAAAAA@$0A@@ATL@@QAE@PB_W@Z 10003350 f i OposVariant.obj
 0001:00002390       ??0?$CTraceCategoryEx@$0EA@$0A@@ATL@@QAE@PB_W@Z 10003390 f i OposVariant.obj
 0001:000023c0       ??0?$CTraceCategoryEx@$0EAA@$0A@@ATL@@QAE@PB_W@Z 100033c0 f i OposVariant.obj
 0001:00002400       ??0?$CTraceCategoryEx@$0EAAA@$0A@@ATL@@QAE@PB_W@Z 10003400 f i OposVariant.obj
 0001:00002440       ??0?$CTraceCategoryEx@$0EAAAA@$0A@@ATL@@QAE@PB_W@Z 10003440 f i OposVariant.obj
 0001:00002480       ??0?$CTraceCategoryEx@$0EAAAAA@$0A@@ATL@@QAE@PB_W@Z 10003480 f i OposVariant.obj
 0001:000024c0       ??0?$CTraceCategoryEx@$0IA@$0A@@ATL@@QAE@PB_W@Z 100034c0 f i OposVariant.obj
 0001:00002500       ??0?$CTraceCategoryEx@$0IAA@$0A@@ATL@@QAE@PB_W@Z 10003500 f i OposVariant.obj
 0001:00002540       ??0?$CTraceCategoryEx@$0IAAA@$0A@@ATL@@QAE@PB_W@Z 10003540 f i OposVariant.obj
 0001:00002580       ??0?$CTraceCategoryEx@$0IAAAA@$0A@@ATL@@QAE@PB_W@Z 10003580 f i OposVariant.obj
 0001:000025c0       ??0CAtlComModule@ATL@@QAE@XZ 100035c0 f i OposVariant.obj
 0001:000026a0       ??0CAtlWinModule@ATL@@QAE@XZ 100036a0 f i OposVariant.obj
 0001:00002730       ??0CComCriticalSection@ATL@@QAE@XZ 10003730 f i OposVariant.obj
 0001:00002760       ??0CPreserveLastError@ATL@@QAE@XZ 10003760 f i OposVariant.obj
 0001:000027a0       ??0CTraceFileAndLineInfo@ATL@@QAE@PBDH@Z 100037a0 f i OposVariant.obj
 0001:000027d0       ??0_ATL_COM_MODULE70@ATL@@QAE@XZ 100037d0 f i OposVariant.obj
 0001:00002800       ??0_ATL_WIN_MODULE70@ATL@@QAE@XZ 10003800 f i OposVariant.obj
 0001:00002840       ??1?$CHeapPtr@_WVCCRTAllocator@ATL@@@ATL@@QAE@XZ 10003840 f i OposVariant.obj
 0001:00002870       ??1?$CHeapPtrBase@_WVCCRTAllocator@ATL@@@ATL@@QAE@XZ 10003870 f i OposVariant.obj
 0001:000028a0       ??1?$CSimpleArray@GV?$CSimpleArrayEqualHelper@G@ATL@@@ATL@@QAE@XZ 100038a0 f i OposVariant.obj
 0001:000028d0       ??1CAtlComModule@ATL@@QAE@XZ 100038d0 f i OposVariant.obj
 0001:00002900       ??1CAtlWinModule@ATL@@QAE@XZ 10003900 f i OposVariant.obj
 0001:00002930       ??1CComBSTR@ATL@@QAE@XZ    10003930 f i OposVariant.obj
 0001:00002970       ??1CComCriticalSection@ATL@@QAE@XZ 10003970 f i OposVariant.obj
 0001:00002980       ??1CPreserveLastError@ATL@@QAE@XZ 10003980 f i OposVariant.obj
 0001:000029c0       ??1_ATL_COM_MODULE70@ATL@@QAE@XZ 100039c0 f i OposVariant.obj
 0001:000029f0       ??1_ATL_WIN_MODULE70@ATL@@QAE@XZ 100039f0 f i OposVariant.obj
 0001:00002a30       ??1stringdispid@CComTypeInfoHolder@ATL@@QAE@XZ 10003a30 f i OposVariant.obj
 0001:00002a60       ??A?$CSimpleArray@GV?$CSimpleArrayEqualHelper@G@ATL@@@ATL@@QAEAAGH@Z 10003a60 f i OposVariant.obj
 0001:00002ae0       ??B?$CHeapPtrBase@_WVCCRTAllocator@ATL@@@ATL@@QBEPA_WXZ 10003ae0 f i OposVariant.obj
 0001:00002af0       ??B?$CTraceCategoryEx@$01$0A@@ATL@@QAEIXZ 10003af0 f i OposVariant.obj
 0001:00002b00       ??B?$CTraceCategoryEx@$0CA@$0A@@ATL@@QAEIXZ 10003b00 f i OposVariant.obj
 0001:00002b10       ??RCTraceFileAndLineInfo@ATL@@QBAXHIPB_WZZ 10003b10 f i OposVariant.obj
 0001:00002bb0       ??_Estringdispid@CComTypeInfoHolder@ATL@@QAEPAXI@Z 10003bb0 f i OposVariant.obj
 0001:00002c40       ??_H@YGXPAXIIP6EPAX0@Z@Z   10003c40 f i OposVariant.obj
 0001:00002cb0       ??_I@YGXPAXIIP6EX0@Z@Z     10003cb0 f i OposVariant.obj
 0001:00002d30       ?Allocate@?$CHeapPtr@_WVCCRTAllocator@ATL@@@ATL@@QAE_NI@Z 10003d30 f i OposVariant.obj
 0001:00002dc0       ?Allocate@CCRTAllocator@ATL@@SAPAXI@Z 10003dc0 f i OposVariant.obj
 0001:00002de0       ?AllocateBytes@?$CHeapPtrBase@_WVCCRTAllocator@ATL@@@ATL@@QAE_NI@Z 10003de0 f i OposVariant.obj
 0001:00002e50       ?AtlWinModuleInit@ATL@@YGJPAU_ATL_WIN_MODULE70@1@@Z 10003e50 f i OposVariant.obj
 0001:00002f20       ?AtlWinModuleTerm@ATL@@YGJPAU_ATL_WIN_MODULE70@1@PAUHINSTANCE__@@@Z 10003f20 f i OposVariant.obj
 0001:00002fe0       ?Clear@OposVariant@@QAEJXZ 10003fe0 f i OposVariant.obj
 0001:00003020       ?Free@?$CHeapPtrBase@_WVCCRTAllocator@ATL@@@ATL@@QAEXXZ 10004020 f i OposVariant.obj
 0001:00003060       ?Free@CCRTAllocator@ATL@@SAXPAX@Z 10004060 f i OposVariant.obj
 0001:00003080       ?GetCategoryName@CTrace@ATL@@CAPA_WI@Z 10004080 f i OposVariant.obj
 0001:000030d0       ?GetModuleInstance@CAtlBaseModule@ATL@@QAEPAUHINSTANCE__@@XZ 100040d0 f i OposVariant.obj
 0001:000030f0       ?GetSize@?$CSimpleArray@GV?$CSimpleArrayEqualHelper@G@ATL@@@ATL@@QBEHXZ 100040f0 f i OposVariant.obj
 0001:00003110       ?Init@CComCriticalSection@ATL@@QAEJXZ 10004110 f i OposVariant.obj
 0001:00003170       ?RegisterCategory@CTrace@ATL@@SAXPB_WI@Z 10004170 f i OposVariant.obj
 0001:00003200       ?RemoveAll@?$CSimpleArray@GV?$CSimpleArrayEqualHelper@G@ATL@@@ATL@@QAEXXZ 10004200 f i OposVariant.obj
 0001:00003280       ?Term@CAtlComModule@ATL@@QAEXXZ 10004280 f i OposVariant.obj
 0001:00003340       ?Term@CAtlWinModule@ATL@@QAEXXZ 10004340 f i OposVariant.obj
 0001:00003370       ?Term@CComCriticalSection@ATL@@QAEJXZ 10004370 f i OposVariant.obj
 0001:000033b0       ?TraceV@CTrace@ATL@@CAXPBDHIIPB_W@Z 100043b0 f i OposVariant.obj
 0001:00003630       ?TraceV@CTrace@ATL@@SAXPBDHIIPB_WPAD@Z 10004630 f i OposVariant.obj
 0001:00003770       ?_AtlInitializeCriticalSectionEx@ATL@@YAHPAU_RTL_CRITICAL_SECTION@@KK@Z 10004770 f i OposVariant.obj
 0001:000037a0       ?_AtlRaiseException@ATL@@YAXKK@Z 100047a0 f i OposVariant.obj
 0001:000037d0       _HRESULT_FROM_WIN32        100047d0 f i OposVariant.obj
 0001:00003810       __vswprintf_s_l            10004810 f i OposVariant.obj
 0001:00003880       _swprintf_s                10004880 f i OposVariant.obj
 0001:000038e0       ?ObjectMain@CComObjectRootBase@ATL@@SGX_N@Z 100048e0 f i CheckScanner.obj
 0001:000038f0       ?GetCategoryMap@CComObjectRootBase@ATL@@SAPBU_ATL_CATMAP_ENTRY@2@XZ 100048f0 f i CheckScanner.obj
 0001:00003900       ?GetObjectDescription@?$CComCoClass@VCOPOSCheckScanner@@$1?CLSID_OPOSCheckScanner@@3U_GUID@@B@ATL@@SGPB_WXZ 10004900 f i CheckScanner.obj
 0001:00003910       ?UpdateRegistry@COPOSCheckScanner@@SGJH@Z 10004910 f i CheckScanner.obj
 0001:00003930       ?CreateInstance@?$CComCreator@V?$CComObjectCached@VCComClassFactory@ATL@@@ATL@@@ATL@@SGJPAXABU_GUID@@PAPAX@Z 10004930 f i CheckScanner.obj
 0001:00003ab0       ?CreateInstance@?$CComCreator2@V?$CComCreator@V?$CComObject@VCOPOSCheckScanner@@@ATL@@@ATL@@V?$CComCreator@V?$CComAggObject@VCOPOSCheckScanner@@@ATL@@@2@@ATL@@SGJPAXABU_GUID@@PAPAX@Z 10004ab0 f i CheckScanner.obj
 0001:00003c60       _DllGetClassObject@12      10004c60 f   CheckScanner.obj
 0001:00003c90       _DllCanUnloadNow@0         10004c90 f   CheckScanner.obj
 0001:00003cd0       _DllRegisterServer@0       10004cd0 f   CheckScanner.obj
 0001:00003cf0       _DllUnregisterServer@0     10004cf0 f   CheckScanner.obj
 0001:00003e80       _DllMain@12                10004e80 f   CheckScanner.obj
 0001:00003ee0       ??$?2G@Wrapper@?$CSimpleArray@GV?$CSimpleArrayEqualHelper@G@ATL@@@ATL@@SAPAXIPAG@Z 10004ee0 f i CheckScanner.obj
 0001:00003ef0       ??$?2PA_W@?$Wrapper@PA_W@?$CSimpleMap@PA_WPA_WVCExpansionVectorEqualHelper@ATL@@@ATL@@SAPAXIPAPA_W@Z 10004ef0 f i CheckScanner.obj
 0001:00003f00       ??$?4UITypeInfo2@@@?$CComPtr@UITypeInfo@@@ATL@@QAEPAUITypeInfo@@ABV?$CComPtr@UITypeInfo2@@@1@@Z 10004f00 f i CheckScanner.obj
 0001:00003f60       ??$AtlAdd@K@ATL@@YAJPAKKK@Z 10004f60 f i CheckScanner.obj
 0001:00003fa0       ??$AtlAdd@_K@ATL@@YAJPA_K_K1@Z 10004fa0 f i CheckScanner.obj
 0001:00004010       ??$AtlAddThrow@K@ATL@@YAKKK@Z 10005010 f i CheckScanner.obj
 0001:00004090       ??$AtlModuleRegisterWndClassInfoT@VAtlModuleRegisterWndClassInfoParamW@ATL@@@ATL@@YAGPAU_ATL_BASE_MODULE70@0@PAU_ATL_WIN_MODULE70@0@PAU_ATL_WNDCLASSINFOW@0@PAP6GJPAUHWND__@@IIJ@ZVAtlModuleRegisterWndClassInfoParamW@0@@Z 10005090 f i CheckScanner.obj
 0001:000044a0       ??$AtlMultiply@H@ATL@@YAJPAHHH@Z 100054a0 f i CheckScanner.obj
 0001:00004520       ??$AtlMultiply@K@ATL@@YAJPAKKK@Z 10005520 f i CheckScanner.obj
 0001:00004580       ??$AtlMultiplyThrow@I@ATL@@YAIII@Z 10005580 f i CheckScanner.obj
 0001:00004600       ??$QueryInterface@UIPersistStream@@@IUnknown@@QAGJPAPAUIPersistStream@@@Z 10005600 f i CheckScanner.obj
 0001:00004630       ??$QueryInterface@UITypeInfo2@@@IUnknown@@QAGJPAPAUITypeInfo2@@@Z 10005630 f i CheckScanner.obj
 0001:00004660       ??0?$CAtlModuleT@VCComModule@ATL@@@ATL@@QAE@XZ 10005660 f i CheckScanner.obj
 0001:00004690       ??0?$CAtlSafeAllocBufferManager@VCCRTAllocator@ATL@@@_ATL_SAFE_ALLOCA_IMPL@ATL@@QAE@XZ 10005690 f i CheckScanner.obj
 0001:000046b0       ??0?$CAutoVectorPtr@_W@ATL@@QAE@XZ 100056b0 f i CheckScanner.obj
 0001:000046d0       ??0?$CComAggObject@VCOPOSCheckScanner@@@ATL@@QAE@PAX@Z 100056d0 f i CheckScanner.obj
 0001:00004740       ??0?$CComContainedObject@VCOPOSCheckScanner@@@ATL@@QAE@PAX@Z 10005740 f i CheckScanner.obj
 0001:00004850       ??0?$CComCritSecLock@VCComCriticalSection@ATL@@@ATL@@QAE@AAVCComCriticalSection@1@_N@Z 10005850 f i CheckScanner.obj
 0001:000048b0       ??0?$CComEnum@UIEnumConnectionPoints@@$1?_GUID_b196b285_bab4_101a_b69c_00aa00341d07@@3U__s_GUID@@BPAUIConnectionPoint@@V?$_CopyInterface@UIConnectionPoint@@@ATL@@VCComSingleThreadModel@6@@ATL@@QAE@XZ 100058b0 f i CheckScanner.obj
 0001:000048f0       ??0?$CComEnum@UIEnumConnections@@$1?_GUID_b196b287_bab4_101a_b69c_00aa00341d07@@3U__s_GUID@@BUtagCONNECTDATA@@V?$_Copy@UtagCONNECTDATA@@@ATL@@VCComSingleThreadModel@6@@ATL@@QAE@XZ 100058f0 f i CheckScanner.obj
 0001:00004930       ??0?$CComEnumImpl@UIEnumConnectionPoints@@$1?_GUID_b196b285_bab4_101a_b69c_00aa00341d07@@3U__s_GUID@@BPAUIConnectionPoint@@V?$_CopyInterface@UIConnectionPoint@@@ATL@@@ATL@@QAE@XZ 10005930 f i CheckScanner.obj
 0001:00004990       ??0?$CComEnumImpl@UIEnumConnections@@$1?_GUID_b196b287_bab4_101a_b69c_00aa00341d07@@3U__s_GUID@@BUtagCONNECTDATA@@V?$_Copy@UtagCONNECTDATA@@@ATL@@@ATL@@QAE@XZ 10005990 f i CheckScanner.obj
 0001:000049f0       ??0?$CComObject@V?$CComEnum@UIEnumConnectionPoints@@$1?_GUID_b196b285_bab4_101a_b69c_00aa00341d07@@3U__s_GUID@@BPAUIConnectionPoint@@V?$_CopyInterface@UIConnectionPoint@@@ATL@@VCComSingleThreadModel@6@@ATL@@@ATL@@QAE@PAX@Z 100059f0 f i CheckScanner.obj
 0001:00004a40       ??0?$CComObject@V?$CComEnum@UIEnumConnections@@$1?_GUID_b196b287_bab4_101a_b69c_00aa00341d07@@3U__s_GUID@@BUtagCONNECTDATA@@V?$_Copy@UtagCONNECTDATA@@@ATL@@VCComSingleThreadModel@6@@ATL@@@ATL@@QAE@PAX@Z 10005a40 f i CheckScanner.obj
 0001:00004a90       ??0?$CComObject@VCOPOSCheckScanner@@@ATL@@QAE@PAX@Z 10005a90 f i CheckScanner.obj
 0001:00004bb0       ??0?$CComObjectCached@VCComClassFactory@ATL@@@ATL@@QAE@PAX@Z 10005bb0 f i CheckScanner.obj
 0001:00004bf0       ??0?$CComObjectRootEx@VCComMultiThreadModel@ATL@@@ATL@@QAE@XZ 10005bf0 f i CheckScanner.obj
 0001:00004c30       ??0?$CComObjectRootEx@VCComSingleThreadModel@ATL@@@ATL@@QAE@XZ 10005c30 f i CheckScanner.obj
 0001:00004c60       ??0?$CComPtr@UIAdviseSink@@@ATL@@QAE@PAUIAdviseSink@@@Z 10005c60 f i CheckScanner.obj
 0001:00004c90       ??0?$CComPtr@UICatRegister@@@ATL@@QAE@XZ 10005c90 f i CheckScanner.obj
 0001:00004cc0       ??0?$CComPtr@UIConnectionPoint@@@ATL@@QAE@XZ 10005cc0 f i CheckScanner.obj
 0001:00004cf0       ??0?$CComPtr@UIConnectionPointContainer@@@ATL@@QAE@XZ 10005cf0 f i CheckScanner.obj
 0001:00004d20       ??0?$CComPtr@UIDataObject@@@ATL@@QAE@XZ 10005d20 f i CheckScanner.obj
 0001:00004d50       ??0?$CComPtr@UIDispatch@@@ATL@@QAE@XZ 10005d50 f i CheckScanner.obj
 0001:00004d80       ??0?$CComPtr@UIOleClientSite@@@ATL@@QAE@PAUIOleClientSite@@@Z 10005d80 f i CheckScanner.obj
 0001:00004db0       ??0?$CComPtr@UIOleControlSite@@@ATL@@QAE@XZ 10005db0 f i CheckScanner.obj
 0001:00004de0       ??0?$CComPtr@UIOleInPlaceActiveObject@@@ATL@@QAE@XZ 10005de0 f i CheckScanner.obj
 0001:00004e10       ??0?$CComPtr@UIOleInPlaceFrame@@@ATL@@QAE@XZ 10005e10 f i CheckScanner.obj
 0001:00004e40       ??0?$CComPtr@UIOleInPlaceObject@@@ATL@@QAE@XZ 10005e40 f i CheckScanner.obj
 0001:00004e70       ??0?$CComPtr@UIOleInPlaceUIWindow@@@ATL@@QAE@XZ 10005e70 f i CheckScanner.obj
 0001:00004ea0       ??0?$CComPtr@UIOleObject@@@ATL@@QAE@XZ 10005ea0 f i CheckScanner.obj
 0001:00004ed0       ??0?$CComPtr@UIPersistStream@@@ATL@@QAE@XZ 10005ed0 f i CheckScanner.obj
 0001:00004f00       ??0?$CComPtr@UIPersistStreamInit@@@ATL@@QAE@XZ 10005f00 f i CheckScanner.obj
 0001:00004f30       ??0?$CComPtr@UIPointerInactive@@@ATL@@QAE@XZ 10005f30 f i CheckScanner.obj
 0001:00004f60       ??0?$CComPtr@UIProvideClassInfo2@@@ATL@@QAE@XZ 10005f60 f i CheckScanner.obj
 0001:00004f90       ??0?$CComPtr@UISpecifyPropertyPages@@@ATL@@QAE@XZ 10005f90 f i CheckScanner.obj
 0001:00004fc0       ??0?$CComPtr@UIStream@@@ATL@@QAE@XZ 10005fc0 f i CheckScanner.obj
 0001:00004ff0       ??0?$CComPtr@UITypeInfo2@@@ATL@@QAE@XZ 10005ff0 f i CheckScanner.obj
 0001:00005020       ??0?$CComPtr@UITypeInfo@@@ATL@@QAE@ABV01@@Z 10006020 f i CheckScanner.obj
 0001:00005050       ??0?$CComPtr@UITypeInfo@@@ATL@@QAE@XZ 10006050 f i CheckScanner.obj
 0001:00005080       ??0?$CComPtr@UITypeLib@@@ATL@@QAE@XZ 10006080 f i CheckScanner.obj
 0001:000050b0       ??0?$CComPtr@UIUnknown@@@ATL@@QAE@ABV01@@Z 100060b0 f i CheckScanner.obj
 0001:000050e0       ??0?$CComPtr@UIUnknown@@@ATL@@QAE@PAUIUnknown@@@Z 100060e0 f i CheckScanner.obj
 0001:00005110       ??0?$CComPtr@UIUnknown@@@ATL@@QAE@XZ 10006110 f i CheckScanner.obj
 0001:00005140       ??0?$CComPtr@UIViewObjectEx@@@ATL@@QAE@XZ 10006140 f i CheckScanner.obj
 0001:00005170       ??0?$CComPtrBase@UIAdviseSink@@@ATL@@IAE@PAUIAdviseSink@@@Z 10006170 f i CheckScanner.obj
 0001:000051c0       ??0?$CComPtrBase@UICatRegister@@@ATL@@IAE@XZ 100061c0 f i CheckScanner.obj
 0001:000051e0       ??0?$CComPtrBase@UIConnectionPoint@@@ATL@@IAE@XZ 100061e0 f i CheckScanner.obj
 0001:00005200       ??0?$CComPtrBase@UIConnectionPointContainer@@@ATL@@IAE@XZ 10006200 f i CheckScanner.obj
 0001:00005220       ??0?$CComPtrBase@UIDataObject@@@ATL@@IAE@XZ 10006220 f i CheckScanner.obj
 0001:00005240       ??0?$CComPtrBase@UIDispatch@@@ATL@@IAE@XZ 10006240 f i CheckScanner.obj
 0001:00005260       ??0?$CComPtrBase@UIOleClientSite@@@ATL@@IAE@PAUIOleClientSite@@@Z 10006260 f i CheckScanner.obj
 0001:000052b0       ??0?$CComPtrBase@UIOleControlSite@@@ATL@@IAE@XZ 100062b0 f i CheckScanner.obj
 0001:000052d0       ??0?$CComPtrBase@UIOleInPlaceActiveObject@@@ATL@@IAE@XZ 100062d0 f i CheckScanner.obj
 0001:000052f0       ??0?$CComPtrBase@UIOleInPlaceFrame@@@ATL@@IAE@XZ 100062f0 f i CheckScanner.obj
 0001:00005310       ??0?$CComPtrBase@UIOleInPlaceObject@@@ATL@@IAE@XZ 10006310 f i CheckScanner.obj
 0001:00005330       ??0?$CComPtrBase@UIOleInPlaceUIWindow@@@ATL@@IAE@XZ 10006330 f i CheckScanner.obj
 0001:00005350       ??0?$CComPtrBase@UIOleObject@@@ATL@@IAE@XZ 10006350 f i CheckScanner.obj
 0001:00005370       ??0?$CComPtrBase@UIPersistStream@@@ATL@@IAE@XZ 10006370 f i CheckScanner.obj
 0001:00005390       ??0?$CComPtrBase@UIPersistStreamInit@@@ATL@@IAE@XZ 10006390 f i CheckScanner.obj
 0001:000053b0       ??0?$CComPtrBase@UIPointerInactive@@@ATL@@IAE@XZ 100063b0 f i CheckScanner.obj
 0001:000053d0       ??0?$CComPtrBase@UIProvideClassInfo2@@@ATL@@IAE@XZ 100063d0 f i CheckScanner.obj
 0001:000053f0       ??0?$CComPtrBase@UISpecifyPropertyPages@@@ATL@@IAE@XZ 100063f0 f i CheckScanner.obj
 0001:00005410       ??0?$CComPtrBase@UIStream@@@ATL@@IAE@XZ 10006410 f i CheckScanner.obj
 0001:00005430       ??0?$CComPtrBase@UITypeInfo2@@@ATL@@IAE@XZ 10006430 f i CheckScanner.obj
 0001:00005450       ??0?$CComPtrBase@UITypeInfo@@@ATL@@IAE@PAUITypeInfo@@@Z 10006450 f i CheckScanner.obj
 0001:000054a0       ??0?$CComPtrBase@UITypeInfo@@@ATL@@IAE@XZ 100064a0 f i CheckScanner.obj
 0001:000054c0       ??0?$CComPtrBase@UITypeLib@@@ATL@@IAE@XZ 100064c0 f i CheckScanner.obj
 0001:000054e0       ??0?$CComPtrBase@UIUnknown@@@ATL@@IAE@PAUIUnknown@@@Z 100064e0 f i CheckScanner.obj
 0001:00005530       ??0?$CComPtrBase@UIUnknown@@@ATL@@IAE@XZ 10006530 f i CheckScanner.obj
 0001:00005550       ??0?$CComPtrBase@UIViewObjectEx@@@ATL@@IAE@XZ 10006550 f i CheckScanner.obj
 0001:00005570       ??0?$CComQIPtr@UIOleControlSite@@$1?_GUID_b196b289_bab4_101a_b69c_00aa00341d07@@3U__s_GUID@@B@ATL@@QAE@PAUIUnknown@@@Z 10006570 f i CheckScanner.obj
 0001:000055d0       ??0?$CComQIPtr@UIOleObject@@$1?_GUID_00000112_0000_0000_c000_000000000046@@3U__s_GUID@@B@ATL@@QAE@XZ 100065d0 f i CheckScanner.obj
 0001:00005600       ??0?$CComQIPtr@UISpecifyPropertyPages@@$1?_GUID_b196b28b_bab4_101a_b69c_00aa00341d07@@3U__s_GUID@@B@ATL@@QAE@XZ 10006600 f i CheckScanner.obj
 0001:00005630       ??0?$CSimpleMap@PA_WPA_WVCExpansionVectorEqualHelper@ATL@@@ATL@@QAE@XZ 10006630 f i CheckScanner.obj
 0001:00005660       ??0?$CTempBuffer@E$0BAA@VCCRTAllocator@ATL@@@ATL@@QAE@XZ 10006660 f i CheckScanner.obj
 0001:00005680       ??0?$CTempBuffer@_W$0BAA@VCCRTAllocator@ATL@@@ATL@@QAE@XZ 10006680 f i CheckScanner.obj
 0001:000056a0       ??0?$CTempBuffer@_W$0EAA@VCCRTAllocator@ATL@@@ATL@@QAE@XZ 100066a0 f i CheckScanner.obj
 0001:000056c0       ??0?$Wrapper@PA_W@?$CSimpleMap@PA_WPA_WVCExpansionVectorEqualHelper@ATL@@@ATL@@QAE@ABQA_W@Z 100066c0 f i CheckScanner.obj
 0001:000056e0       ??0CAtlModule@ATL@@QAE@XZ  100066e0 f i CheckScanner.obj
 0001:00005800       ??0CComAutoDeleteCriticalSection@ATL@@QAE@XZ 10006800 f i CheckScanner.obj
 0001:00005830       ??0CComBSTR@ATL@@QAE@XZ    10006830 f i CheckScanner.obj
 0001:00005850       ??0CComClassFactory@ATL@@QAE@XZ 10006850 f i CheckScanner.obj
 0001:00005890       ??0CComModule@ATL@@QAE@XZ  10006890 f i CheckScanner.obj
 0001:00005900       ??0CComObjectRootBase@ATL@@QAE@XZ 10006900 f i CheckScanner.obj
 0001:00005920       ??0CComSafeDeleteCriticalSection@ATL@@QAE@XZ 10006920 f i CheckScanner.obj
 0001:00005950       ??0CComVariant@ATL@@QAE@XZ 10006950 f i CheckScanner.obj
 0001:000059a0       ??0CExpansionVector@ATL@@QAE@XZ 100069a0 f i CheckScanner.obj
 0001:000059d0       ??0CParseBuffer@CRegParser@ATL@@QAE@H@Z 100069d0 f i CheckScanner.obj
 0001:00005a40       ??0CRegKey@ATL@@QAE@PAUHKEY__@@@Z 10006a40 f i CheckScanner.obj
 0001:00005a70       ??0CRegKey@ATL@@QAE@PAVCAtlTransactionManager@1@@Z 10006a70 f i CheckScanner.obj
 0001:00005aa0       ??0CRegObject@ATL@@QAE@XZ  10006aa0 f i CheckScanner.obj
 0001:00005ae0       ??0CRegParser@ATL@@QAE@PAVCRegObject@1@@Z 10006ae0 f i CheckScanner.obj
 0001:00005b10       ??0IClassFactory@@QAE@XZ   10006b10 f i CheckScanner.obj
 0001:00005b40       ??0IEnumConnectionPoints@@QAE@XZ 10006b40 f i CheckScanner.obj
 0001:00005b70       ??0IEnumConnections@@QAE@XZ 10006b70 f i CheckScanner.obj
 0001:00005ba0       ??0IRegistrarBase@@QAE@XZ  10006ba0 f i CheckScanner.obj
 0001:00005bd0       ??0IUnknown@@QAE@XZ        10006bd0 f i CheckScanner.obj
 0001:00005be0       ??0ModuleLockHelper@ATL@@QAE@XZ 10006be0 f i CheckScanner.obj
 0001:00005c20       ??0OposVariant@@QAE@XZ     10006c20 f i CheckScanner.obj
 0001:00005c40       ??0Wrapper@?$CSimpleArray@GV?$CSimpleArrayEqualHelper@G@ATL@@@ATL@@QAE@ABG@Z 10006c40 f i CheckScanner.obj
 0001:00005c60       ??0_ATL_MODULE70@ATL@@QAE@XZ 10006c60 f i CheckScanner.obj
 0001:00005c90       ??0_ATL_MSG@ATL@@QAE@PAUHWND__@@IIJH@Z 10006c90 f i CheckScanner.obj
 0001:00005d00       ??0_U_MENUorID@ATL@@QAE@I@Z 10006d00 f i CheckScanner.obj
 0001:00005d20       ??0_U_RECT@ATL@@QAE@AAUtagRECT@@@Z 10006d20 f i CheckScanner.obj
 0001:00005d40       ??0stringdispid@CComTypeInfoHolder@ATL@@QAE@XZ 10006d40 f i CheckScanner.obj
 0001:00005d80       ??1?$CAtlModuleT@VCComModule@ATL@@@ATL@@UAE@XZ 10006d80 f i CheckScanner.obj
 0001:00005db0       ??1?$CAtlSafeAllocBufferManager@VCCRTAllocator@ATL@@@_ATL_SAFE_ALLOCA_IMPL@ATL@@QAE@XZ 10006db0 f i CheckScanner.obj
 0001:00005e00       ??1?$CAutoVectorPtr@_W@ATL@@QAE@XZ 10006e00 f i CheckScanner.obj
 0001:00005e30       ??1?$CComAggObject@VCOPOSCheckScanner@@@ATL@@UAE@XZ 10006e30 f i CheckScanner.obj
 0001:00005ea0       ??1?$CComContainedObject@VCOPOSCheckScanner@@@ATL@@UAE@XZ 10006ea0 f i CheckScanner.obj
 0001:00005ed0       ??1?$CComCritSecLock@VCComCriticalSection@ATL@@@ATL@@QAE@XZ 10006ed0 f i CheckScanner.obj
 0001:00005f00       ??1?$CComEnum@UIEnumConnectionPoints@@$1?_GUID_b196b285_bab4_101a_b69c_00aa00341d07@@3U__s_GUID@@BPAUIConnectionPoint@@V?$_CopyInterface@UIConnectionPoint@@@ATL@@VCComSingleThreadModel@6@@ATL@@UAE@XZ 10006f00 f i CheckScanner.obj
 0001:00005f30       ??1?$CComEnum@UIEnumConnections@@$1?_GUID_b196b287_bab4_101a_b69c_00aa00341d07@@3U__s_GUID@@BUtagCONNECTDATA@@V?$_Copy@UtagCONNECTDATA@@@ATL@@VCComSingleThreadModel@6@@ATL@@UAE@XZ 10006f30 f i CheckScanner.obj
 0001:00005f60       ??1?$CComEnumImpl@UIEnumConnectionPoints@@$1?_GUID_b196b285_bab4_101a_b69c_00aa00341d07@@3U__s_GUID@@BPAUIConnectionPoint@@V?$_CopyInterface@UIConnectionPoint@@@ATL@@@ATL@@UAE@XZ 10006f60 f i CheckScanner.obj
 0001:00005ff0       ??1?$CComEnumImpl@UIEnumConnections@@$1?_GUID_b196b287_bab4_101a_b69c_00aa00341d07@@3U__s_GUID@@BUtagCONNECTDATA@@V?$_Copy@UtagCONNECTDATA@@@ATL@@@ATL@@UAE@XZ 10006ff0 f i CheckScanner.obj
 0001:00006080       ??1?$CComObject@V?$CComEnum@UIEnumConnectionPoints@@$1?_GUID_b196b285_bab4_101a_b69c_00aa00341d07@@3U__s_GUID@@BPAUIConnectionPoint@@V?$_CopyInterface@UIConnectionPoint@@@ATL@@VCComSingleThreadModel@6@@ATL@@@ATL@@UAE@XZ 10007080 f i CheckScanner.obj
 0001:000060e0       ??1?$CComObject@V?$CComEnum@UIEnumConnections@@$1?_GUID_b196b287_bab4_101a_b69c_00aa00341d07@@3U__s_GUID@@BUtagCONNECTDATA@@V?$_Copy@UtagCONNECTDATA@@@ATL@@VCComSingleThreadModel@6@@ATL@@@ATL@@UAE@XZ 100070e0 f i CheckScanner.obj
 0001:00006140       ??1?$CComObject@VCOPOSCheckScanner@@@ATL@@UAE@XZ 10007140 f i CheckScanner.obj
 0001:00006280       ??1?$CComObjectCached@VCComClassFactory@ATL@@@ATL@@UAE@XZ 10007280 f i CheckScanner.obj
 0001:000062d0       ??1?$CComObjectRootEx@VCComMultiThreadModel@ATL@@@ATL@@QAE@XZ 100072d0 f i CheckScanner.obj
 0001:00006300       ??1?$CComObjectRootEx@VCComSingleThreadModel@ATL@@@ATL@@QAE@XZ 10007300 f i CheckScanner.obj
 0001:00006330       ??1?$CComPtr@UIAdviseSink@@@ATL@@QAE@XZ 10007330 f i CheckScanner.obj
 0001:00006360       ??1?$CComPtr@UICatRegister@@@ATL@@QAE@XZ 10007360 f i CheckScanner.obj
 0001:00006390       ??1?$CComPtr@UIConnectionPoint@@@ATL@@QAE@XZ 10007390 f i CheckScanner.obj
 0001:000063c0       ??1?$CComPtr@UIConnectionPointContainer@@@ATL@@QAE@XZ 100073c0 f i CheckScanner.obj
 0001:000063f0       ??1?$CComPtr@UIDataObject@@@ATL@@QAE@XZ 100073f0 f i CheckScanner.obj
 0001:00006420       ??1?$CComPtr@UIDispatch@@@ATL@@QAE@XZ 10007420 f i CheckScanner.obj
 0001:00006450       ??1?$CComPtr@UIOleClientSite@@@ATL@@QAE@XZ 10007450 f i CheckScanner.obj
 0001:00006480       ??1?$CComPtr@UIOleControlSite@@@ATL@@QAE@XZ 10007480 f i CheckScanner.obj
 0001:000064b0       ??1?$CComPtr@UIOleInPlaceActiveObject@@@ATL@@QAE@XZ 100074b0 f i CheckScanner.obj
 0001:000064e0       ??1?$CComPtr@UIOleInPlaceFrame@@@ATL@@QAE@XZ 100074e0 f i CheckScanner.obj
 0001:00006510       ??1?$CComPtr@UIOleInPlaceObject@@@ATL@@QAE@XZ 10007510 f i CheckScanner.obj
 0001:00006540       ??1?$CComPtr@UIOleInPlaceUIWindow@@@ATL@@QAE@XZ 10007540 f i CheckScanner.obj
 0001:00006570       ??1?$CComPtr@UIOleObject@@@ATL@@QAE@XZ 10007570 f i CheckScanner.obj
 0001:000065a0       ??1?$CComPtr@UIPersistStream@@@ATL@@QAE@XZ 100075a0 f i CheckScanner.obj
 0001:000065d0       ??1?$CComPtr@UIPersistStreamInit@@@ATL@@QAE@XZ 100075d0 f i CheckScanner.obj
 0001:00006600       ??1?$CComPtr@UIPointerInactive@@@ATL@@QAE@XZ 10007600 f i CheckScanner.obj
 0001:00006630       ??1?$CComPtr@UIProvideClassInfo2@@@ATL@@QAE@XZ 10007630 f i CheckScanner.obj
 0001:00006660       ??1?$CComPtr@UISpecifyPropertyPages@@@ATL@@QAE@XZ 10007660 f i CheckScanner.obj
 0001:00006690       ??1?$CComPtr@UIStream@@@ATL@@QAE@XZ 10007690 f i CheckScanner.obj
 0001:000066c0       ??1?$CComPtr@UITypeInfo2@@@ATL@@QAE@XZ 100076c0 f i CheckScanner.obj
 0001:000066f0       ??1?$CComPtr@UITypeInfo@@@ATL@@QAE@XZ 100076f0 f i CheckScanner.obj
 0001:00006720       ??1?$CComPtr@UITypeLib@@@ATL@@QAE@XZ 10007720 f i CheckScanner.obj
 0001:00006750       ??1?$CComPtr@UIUnknown@@@ATL@@QAE@XZ 10007750 f i CheckScanner.obj
 0001:00006780       ??1?$CComPtr@UIViewObjectEx@@@ATL@@QAE@XZ 10007780 f i CheckScanner.obj
 0001:000067b0       ??1?$CComPtrBase@UIAdviseSink@@@ATL@@QAE@XZ 100077b0 f i CheckScanner.obj
 0001:00006800       ??1?$CComPtrBase@UICatRegister@@@ATL@@QAE@XZ 10007800 f i CheckScanner.obj
 0001:00006850       ??1?$CComPtrBase@UIConnectionPoint@@@ATL@@QAE@XZ 10007850 f i CheckScanner.obj
 0001:000068a0       ??1?$CComPtrBase@UIConnectionPointContainer@@@ATL@@QAE@XZ 100078a0 f i CheckScanner.obj
 0001:000068f0       ??1?$CComPtrBase@UIDataObject@@@ATL@@QAE@XZ 100078f0 f i CheckScanner.obj
 0001:00006940       ??1?$CComPtrBase@UIDispatch@@@ATL@@QAE@XZ 10007940 f i CheckScanner.obj
 0001:00006990       ??1?$CComPtrBase@UIOleClientSite@@@ATL@@QAE@XZ 10007990 f i CheckScanner.obj
 0001:000069e0       ??1?$CComPtrBase@UIOleControlSite@@@ATL@@QAE@XZ 100079e0 f i CheckScanner.obj
 0001:00006a30       ??1?$CComPtrBase@UIOleInPlaceActiveObject@@@ATL@@QAE@XZ 10007a30 f i CheckScanner.obj
 0001:00006a80       ??1?$CComPtrBase@UIOleInPlaceFrame@@@ATL@@QAE@XZ 10007a80 f i CheckScanner.obj
 0001:00006ad0       ??1?$CComPtrBase@UIOleInPlaceObject@@@ATL@@QAE@XZ 10007ad0 f i CheckScanner.obj
 0001:00006b20       ??1?$CComPtrBase@UIOleInPlaceUIWindow@@@ATL@@QAE@XZ 10007b20 f i CheckScanner.obj
 0001:00006b70       ??1?$CComPtrBase@UIOleObject@@@ATL@@QAE@XZ 10007b70 f i CheckScanner.obj
 0001:00006bc0       ??1?$CComPtrBase@UIPersistStream@@@ATL@@QAE@XZ 10007bc0 f i CheckScanner.obj
 0001:00006c10       ??1?$CComPtrBase@UIPersistStreamInit@@@ATL@@QAE@XZ 10007c10 f i CheckScanner.obj
 0001:00006c60       ??1?$CComPtrBase@UIPointerInactive@@@ATL@@QAE@XZ 10007c60 f i CheckScanner.obj
 0001:00006cb0       ??1?$CComPtrBase@UIProvideClassInfo2@@@ATL@@QAE@XZ 10007cb0 f i CheckScanner.obj
 0001:00006d00       ??1?$CComPtrBase@UISpecifyPropertyPages@@@ATL@@QAE@XZ 10007d00 f i CheckScanner.obj
 0001:00006d50       ??1?$CComPtrBase@UIStream@@@ATL@@QAE@XZ 10007d50 f i CheckScanner.obj
 0001:00006da0       ??1?$CComPtrBase@UITypeInfo2@@@ATL@@QAE@XZ 10007da0 f i CheckScanner.obj
 0001:00006df0       ??1?$CComPtrBase@UITypeInfo@@@ATL@@QAE@XZ 10007df0 f i CheckScanner.obj
 0001:00006e40       ??1?$CComPtrBase@UITypeLib@@@ATL@@QAE@XZ 10007e40 f i CheckScanner.obj
 0001:00006e90       ??1?$CComPtrBase@UIUnknown@@@ATL@@QAE@XZ 10007e90 f i CheckScanner.obj
 0001:00006ee0       ??1?$CComPtrBase@UIViewObjectEx@@@ATL@@QAE@XZ 10007ee0 f i CheckScanner.obj
 0001:00006f30       ??1?$CComQIPtr@UIOleControlSite@@$1?_GUID_b196b289_bab4_101a_b69c_00aa00341d07@@3U__s_GUID@@B@ATL@@QAE@XZ 10007f30 f i CheckScanner.obj
 0001:00006f60       ??1?$CComQIPtr@UIOleObject@@$1?_GUID_00000112_0000_0000_c000_000000000046@@3U__s_GUID@@B@ATL@@QAE@XZ 10007f60 f i CheckScanner.obj
 0001:00006f90       ??1?$CComQIPtr@UISpecifyPropertyPages@@$1?_GUID_b196b28b_bab4_101a_b69c_00aa00341d07@@3U__s_GUID@@B@ATL@@QAE@XZ 10007f90 f i CheckScanner.obj
 0001:00006fc0       ??1?$CSimpleMap@PA_WPA_WVCExpansionVectorEqualHelper@ATL@@@ATL@@QAE@XZ 10007fc0 f i CheckScanner.obj
 0001:00006ff0       ??1?$CTempBuffer@E$0BAA@VCCRTAllocator@ATL@@@ATL@@QAE@XZ 10007ff0 f i CheckScanner.obj
 0001:00007030       ??1?$CTempBuffer@_W$0BAA@VCCRTAllocator@ATL@@@ATL@@QAE@XZ 10008030 f i CheckScanner.obj
 0001:00007070       ??1?$CTempBuffer@_W$0EAA@VCCRTAllocator@ATL@@@ATL@@QAE@XZ 10008070 f i CheckScanner.obj
 0001:000070b0       ??1CAtlModule@ATL@@UAE@XZ  100080b0 f i CheckScanner.obj
 0001:000070e0       ??1CComAutoDeleteCriticalSection@ATL@@QAE@XZ 100080e0 f i CheckScanner.obj
 0001:00007110       ??1CComClassFactory@ATL@@UAE@XZ 10008110 f i CheckScanner.obj
 0001:00007140       ??1CComModule@ATL@@UAE@XZ  10008140 f i CheckScanner.obj
 0001:00007170       ??1CComObjectRootBase@ATL@@QAE@XZ 10008170 f i CheckScanner.obj
 0001:00007180       ??1CComSafeDeleteCriticalSection@ATL@@QAE@XZ 10008180 f i CheckScanner.obj
 0001:000071c0       ??1CComVariant@ATL@@QAE@XZ 100081c0 f i CheckScanner.obj
 0001:00007220       ??1CExpansionVector@ATL@@QAE@XZ 10008220 f i CheckScanner.obj
 0001:00007250       ??1CParseBuffer@CRegParser@ATL@@QAE@XZ 10008250 f i CheckScanner.obj
 0001:00007290       ??1CRegKey@ATL@@QAE@XZ     10008290 f i CheckScanner.obj
 0001:000072c0       ??1CRegObject@ATL@@UAE@XZ  100082c0 f i CheckScanner.obj
 0001:00007300       ??1ModuleLockHelper@ATL@@QAE@XZ 10008300 f i CheckScanner.obj
 0001:00007340       ??1OposVariant@@QAE@XZ     10008340 f i CheckScanner.obj
 0001:00007370       ??1_ATL_MODULE70@ATL@@QAE@XZ 10008370 f i CheckScanner.obj
 0001:000073a0       ??4?$CComPtr@UIAdviseSink@@@ATL@@QAEPAUIAdviseSink@@PAU2@@Z 100083a0 f i CheckScanner.obj
 0001:00007400       ??4?$CComPtr@UIOleClientSite@@@ATL@@QAEPAUIOleClientSite@@PAU2@@Z 10008400 f i CheckScanner.obj
 0001:00007460       ??4?$CComPtr@UIUnknown@@@ATL@@QAEPAUIUnknown@@PAU2@@Z 10008460 f i CheckScanner.obj
 0001:000074c0       ??4?$CComQIPtr@UIOleObject@@$1?_GUID_00000112_0000_0000_c000_000000000046@@3U__s_GUID@@B@ATL@@QAEPAUIOleObject@@PAUIUnknown@@@Z 100084c0 f i CheckScanner.obj
 0001:00007510       ??4?$CComQIPtr@UISpecifyPropertyPages@@$1?_GUID_b196b28b_bab4_101a_b69c_00aa00341d07@@3U__s_GUID@@B@ATL@@QAEPAUISpecifyPropertyPages@@PAUIUnknown@@@Z 10008510 f i CheckScanner.obj
 0001:00007560       ??7?$CComPtrBase@UIOleClientSite@@@ATL@@QBE_NXZ 10008560 f i CheckScanner.obj
 0001:00007590       ??7?$CComPtrBase@UIOleInPlaceSiteWindowless@@@ATL@@QBE_NXZ 10008590 f i CheckScanner.obj
 0001:000075c0       ??7CComBSTR@ATL@@QBE_NXZ   100085c0 f i CheckScanner.obj
 0001:000075f0       ??8?$CComPtrBase@UIConnectionPointContainer@@@ATL@@QBE_NPAUIConnectionPointContainer@@@Z 100085f0 f i CheckScanner.obj
 0001:00007620       ??8?$CComPtrBase@UIDataAdviseHolder@@@ATL@@QBE_NPAUIDataAdviseHolder@@@Z 10008620 f i CheckScanner.obj
 0001:00007650       ??8?$CComPtrBase@UIOleAdviseHolder@@@ATL@@QBE_NPAUIOleAdviseHolder@@@Z 10008650 f i CheckScanner.obj
 0001:00007680       ??8?$CComPtrBase@UIOleClientSite@@@ATL@@QBE_NPAUIOleClientSite@@@Z 10008680 f i CheckScanner.obj
 0001:000076b0       ??8?$CComPtrBase@UIOleControlSite@@@ATL@@QBE_NPAUIOleControlSite@@@Z 100086b0 f i CheckScanner.obj
 0001:000076e0       ??8?$CComPtrBase@UIOleInPlaceObject@@@ATL@@QBE_NPAUIOleInPlaceObject@@@Z 100086e0 f i CheckScanner.obj
 0001:00007710       ??8?$CComPtrBase@UIOleInPlaceSiteWindowless@@@ATL@@QBE_NPAUIOleInPlaceSiteWindowless@@@Z 10008710 f i CheckScanner.obj
 0001:00007740       ??8?$CComPtrBase@UIOleObject@@@ATL@@QBE_NPAUIOleObject@@@Z 10008740 f i CheckScanner.obj
 0001:00007770       ??8?$CComPtrBase@UIPersistStream@@@ATL@@QBE_NPAUIPersistStream@@@Z 10008770 f i CheckScanner.obj
 0001:000077a0       ??8?$CComPtrBase@UIPersistStreamInit@@@ATL@@QBE_NPAUIPersistStreamInit@@@Z 100087a0 f i CheckScanner.obj
 0001:000077d0       ??8?$CComPtrBase@UIPointerInactive@@@ATL@@QBE_NPAUIPointerInactive@@@Z 100087d0 f i CheckScanner.obj
 0001:00007800       ??8?$CComPtrBase@UIUnknown@@@ATL@@QBE_NPAUIUnknown@@@Z 10008800 f i CheckScanner.obj
 0001:00007830       ??8?$CComPtrBase@UIViewObjectEx@@@ATL@@QBE_NPAUIViewObjectEx@@@Z 10008830 f i CheckScanner.obj
 0001:00007860       ??8CComBSTR@ATL@@QBE_NH@Z  10008860 f i CheckScanner.obj
 0001:000078c0       ??9?$CComPtrBase@UIConnectionPointContainer@@@ATL@@QBE_NPAUIConnectionPointContainer@@@Z 100088c0 f i CheckScanner.obj
 0001:00007910       ??9?$CComPtrBase@UIDataAdviseHolder@@@ATL@@QBE_NPAUIDataAdviseHolder@@@Z 10008910 f i CheckScanner.obj
 0001:00007960       ??9?$CComPtrBase@UIOleAdviseHolder@@@ATL@@QBE_NPAUIOleAdviseHolder@@@Z 10008960 f i CheckScanner.obj
 0001:000079b0       ??9?$CComPtrBase@UIOleClientSite@@@ATL@@QBE_NPAUIOleClientSite@@@Z 100089b0 f i CheckScanner.obj
 0001:00007a00       ??9?$CComPtrBase@UIOleControlSite@@@ATL@@QBE_NPAUIOleControlSite@@@Z 10008a00 f i CheckScanner.obj
 0001:00007a50       ??9?$CComPtrBase@UIOleInPlaceObject@@@ATL@@QBE_NPAUIOleInPlaceObject@@@Z 10008a50 f i CheckScanner.obj
 0001:00007aa0       ??9?$CComPtrBase@UIOleInPlaceSiteWindowless@@@ATL@@QBE_NPAUIOleInPlaceSiteWindowless@@@Z 10008aa0 f i CheckScanner.obj
 0001:00007af0       ??9?$CComPtrBase@UIOleObject@@@ATL@@QBE_NPAUIOleObject@@@Z 10008af0 f i CheckScanner.obj
 0001:00007b40       ??9?$CComPtrBase@UIPersistStream@@@ATL@@QBE_NPAUIPersistStream@@@Z 10008b40 f i CheckScanner.obj
 0001:00007b90       ??9?$CComPtrBase@UIPersistStreamInit@@@ATL@@QBE_NPAUIPersistStreamInit@@@Z 10008b90 f i CheckScanner.obj
 0001:00007be0       ??9?$CComPtrBase@UIPointerInactive@@@ATL@@QBE_NPAUIPointerInactive@@@Z 10008be0 f i CheckScanner.obj
 0001:00007c30       ??9?$CComPtrBase@UIUnknown@@@ATL@@QBE_NPAUIUnknown@@@Z 10008c30 f i CheckScanner.obj
 0001:00007c80       ??9?$CComPtrBase@UIViewObjectEx@@@ATL@@QBE_NPAUIViewObjectEx@@@Z 10008c80 f i CheckScanner.obj
 0001:00007cd0       ??9CComBSTR@ATL@@QBE_NH@Z  10008cd0 f i CheckScanner.obj
 0001:00007d20       ??B?$CComPtrBase@UIAdviseSink@@@ATL@@QBEPAUIAdviseSink@@XZ 10008d20 f i CheckScanner.obj
 0001:00007d30       ??B?$CComPtrBase@UIDataAdviseHolder@@@ATL@@QBEPAUIDataAdviseHolder@@XZ 10008d30 f i CheckScanner.obj
 0001:00007d40       ??B?$CComPtrBase@UIDataObject@@@ATL@@QBEPAUIDataObject@@XZ 10008d40 f i CheckScanner.obj
 0001:00007d50       ??B?$CComPtrBase@UIOleAdviseHolder@@@ATL@@QBEPAUIOleAdviseHolder@@XZ 10008d50 f i CheckScanner.obj
 0001:00007d60       ??B?$CComPtrBase@UIOleClientSite@@@ATL@@QBEPAUIOleClientSite@@XZ 10008d60 f i CheckScanner.obj
 0001:00007d70       ??B?$CComPtrBase@UIOleControlSite@@@ATL@@QBEPAUIOleControlSite@@XZ 10008d70 f i CheckScanner.obj
 0001:00007d80       ??B?$CComPtrBase@UIOleInPlaceActiveObject@@@ATL@@QBEPAUIOleInPlaceActiveObject@@XZ 10008d80 f i CheckScanner.obj
 0001:00007d90       ??B?$CComPtrBase@UIOleInPlaceFrame@@@ATL@@QBEPAUIOleInPlaceFrame@@XZ 10008d90 f i CheckScanner.obj
 0001:00007da0       ??B?$CComPtrBase@UIOleInPlaceSiteWindowless@@@ATL@@QBEPAUIOleInPlaceSiteWindowless@@XZ 10008da0 f i CheckScanner.obj
 0001:00007db0       ??B?$CComPtrBase@UIOleInPlaceUIWindow@@@ATL@@QBEPAUIOleInPlaceUIWindow@@XZ 10008db0 f i CheckScanner.obj
 0001:00007dc0       ??B?$CComPtrBase@UIOleObject@@@ATL@@QBEPAUIOleObject@@XZ 10008dc0 f i CheckScanner.obj
 0001:00007dd0       ??B?$CComPtrBase@UIPersistStream@@@ATL@@QBEPAUIPersistStream@@XZ 10008dd0 f i CheckScanner.obj
 0001:00007de0       ??B?$CComPtrBase@UIProvideClassInfo2@@@ATL@@QBEPAUIProvideClassInfo2@@XZ 10008de0 f i CheckScanner.obj
 0001:00007df0       ??B?$CComPtrBase@UISpecifyPropertyPages@@@ATL@@QBEPAUISpecifyPropertyPages@@XZ 10008df0 f i CheckScanner.obj
 0001:00007e00       ??B?$CComPtrBase@UIStream@@@ATL@@QBEPAUIStream@@XZ 10008e00 f i CheckScanner.obj
 0001:00007e10       ??B?$CComPtrBase@UITypeInfo2@@@ATL@@QBEPAUITypeInfo2@@XZ 10008e10 f i CheckScanner.obj
 0001:00007e20       ??B?$CComPtrBase@UITypeInfo@@@ATL@@QBEPAUITypeInfo@@XZ 10008e20 f i CheckScanner.obj
 0001:00007e30       ??B?$CComPtrBase@UITypeLib@@@ATL@@QBEPAUITypeLib@@XZ 10008e30 f i CheckScanner.obj
 0001:00007e40       ??B?$CComPtrBase@UIUnknown@@@ATL@@QBEPAUIUnknown@@XZ 10008e40 f i CheckScanner.obj
 0001:00007e50       ??B?$CTempBuffer@E$0BAA@VCCRTAllocator@ATL@@@ATL@@QBEPAEXZ 10008e50 f i CheckScanner.obj
 0001:00007e60       ??B?$CTempBuffer@_W$0BAA@VCCRTAllocator@ATL@@@ATL@@QBEPA_WXZ 10008e60 f i CheckScanner.obj
 0001:00007e70       ??B?$CTempBuffer@_W$0EAA@VCCRTAllocator@ATL@@@ATL@@QBEPA_WXZ 10008e70 f i CheckScanner.obj
 0001:00007e80       ??B?$CTraceCategoryEx@$00$0A@@ATL@@QAEIXZ 10008e80 f i CheckScanner.obj
 0001:00007e90       ??B?$CTraceCategoryEx@$07$0A@@ATL@@QAEIXZ 10008e90 f i CheckScanner.obj
 0001:00007ea0       ??B?$CTraceCategoryEx@$0CAAA@$0A@@ATL@@QAEIXZ 10008ea0 f i CheckScanner.obj
 0001:00007eb0       ??B?$CTraceCategoryEx@$0EA@$0A@@ATL@@QAEIXZ 10008eb0 f i CheckScanner.obj
 0001:00007ec0       ??B?$CTraceCategoryEx@$0IAA@$0A@@ATL@@QAEIXZ 10008ec0 f i CheckScanner.obj
 0001:00007ed0       ??BCComBSTR@ATL@@QBEPA_WXZ 10008ed0 f i CheckScanner.obj
 0001:00007ee0       ??BCRegKey@ATL@@QBEPAUHKEY__@@XZ 10008ee0 f i CheckScanner.obj
 0001:00007ef0       ??C?$CComPtrBase@UIAdviseSink@@@ATL@@QBEPAV?$_NoAddRefReleaseOnCComPtr@UIAdviseSink@@@1@XZ 10008ef0 f i CheckScanner.obj
 0001:00007f40       ??C?$CComPtrBase@UICatRegister@@@ATL@@QBEPAV?$_NoAddRefReleaseOnCComPtr@UICatRegister@@@1@XZ 10008f40 f i CheckScanner.obj
 0001:00007f90       ??C?$CComPtrBase@UIConnectionPoint@@@ATL@@QBEPAV?$_NoAddRefReleaseOnCComPtr@UIConnectionPoint@@@1@XZ 10008f90 f i CheckScanner.obj
 0001:00007fe0       ??C?$CComPtrBase@UIConnectionPointContainer@@@ATL@@QBEPAV?$_NoAddRefReleaseOnCComPtr@UIConnectionPointContainer@@@1@XZ 10008fe0 f i CheckScanner.obj
 0001:00008030       ??C?$CComPtrBase@UIDataAdviseHolder@@@ATL@@QBEPAV?$_NoAddRefReleaseOnCComPtr@UIDataAdviseHolder@@@1@XZ 10009030 f i CheckScanner.obj
 0001:00008080       ??C?$CComPtrBase@UIOleAdviseHolder@@@ATL@@QBEPAV?$_NoAddRefReleaseOnCComPtr@UIOleAdviseHolder@@@1@XZ 10009080 f i CheckScanner.obj
 0001:000080d0       ??C?$CComPtrBase@UIOleClientSite@@@ATL@@QBEPAV?$_NoAddRefReleaseOnCComPtr@UIOleClientSite@@@1@XZ 100090d0 f i CheckScanner.obj
 0001:00008120       ??C?$CComPtrBase@UIOleControlSite@@@ATL@@QBEPAV?$_NoAddRefReleaseOnCComPtr@UIOleControlSite@@@1@XZ 10009120 f i CheckScanner.obj
 0001:00008170       ??C?$CComPtrBase@UIOleInPlaceFrame@@@ATL@@QBEPAV?$_NoAddRefReleaseOnCComPtr@UIOleInPlaceFrame@@@1@XZ 10009170 f i CheckScanner.obj
 0001:000081c0       ??C?$CComPtrBase@UIOleInPlaceObject@@@ATL@@QBEPAV?$_NoAddRefReleaseOnCComPtr@UIOleInPlaceObject@@@1@XZ 100091c0 f i CheckScanner.obj
 0001:00008210       ??C?$CComPtrBase@UIOleInPlaceSiteWindowless@@@ATL@@QBEPAV?$_NoAddRefReleaseOnCComPtr@UIOleInPlaceSiteWindowless@@@1@XZ 10009210 f i CheckScanner.obj
 0001:00008260       ??C?$CComPtrBase@UIOleInPlaceUIWindow@@@ATL@@QBEPAV?$_NoAddRefReleaseOnCComPtr@UIOleInPlaceUIWindow@@@1@XZ 10009260 f i CheckScanner.obj
 0001:000082b0       ??C?$CComPtrBase@UIOleObject@@@ATL@@QBEPAV?$_NoAddRefReleaseOnCComPtr@UIOleObject@@@1@XZ 100092b0 f i CheckScanner.obj
 0001:00008300       ??C?$CComPtrBase@UIPersistStream@@@ATL@@QBEPAV?$_NoAddRefReleaseOnCComPtr@UIPersistStream@@@1@XZ 10009300 f i CheckScanner.obj
 0001:00008350       ??C?$CComPtrBase@UIPersistStreamInit@@@ATL@@QBEPAV?$_NoAddRefReleaseOnCComPtr@UIPersistStreamInit@@@1@XZ 10009350 f i CheckScanner.obj
 0001:000083a0       ??C?$CComPtrBase@UIPointerInactive@@@ATL@@QBEPAV?$_NoAddRefReleaseOnCComPtr@UIPointerInactive@@@1@XZ 100093a0 f i CheckScanner.obj
 0001:000083f0       ??C?$CComPtrBase@UIProvideClassInfo2@@@ATL@@QBEPAV?$_NoAddRefReleaseOnCComPtr@UIProvideClassInfo2@@@1@XZ 100093f0 f i CheckScanner.obj
 0001:00008440       ??C?$CComPtrBase@UISpecifyPropertyPages@@@ATL@@QBEPAV?$_NoAddRefReleaseOnCComPtr@UISpecifyPropertyPages@@@1@XZ 10009440 f i CheckScanner.obj
 0001:00008490       ??C?$CComPtrBase@UITypeInfo@@@ATL@@QBEPAV?$_NoAddRefReleaseOnCComPtr@UITypeInfo@@@1@XZ 10009490 f i CheckScanner.obj
 0001:000084e0       ??C?$CComPtrBase@UITypeLib@@@ATL@@QBEPAV?$_NoAddRefReleaseOnCComPtr@UITypeLib@@@1@XZ 100094e0 f i CheckScanner.obj
 0001:00008530       ??C?$CComPtrBase@UIUnknown@@@ATL@@QBEPAV?$_NoAddRefReleaseOnCComPtr@UIUnknown@@@1@XZ 10009530 f i CheckScanner.obj
 0001:00008580       ??C?$CComPtrBase@UIViewObjectEx@@@ATL@@QBEPAV?$_NoAddRefReleaseOnCComPtr@UIViewObjectEx@@@1@XZ 10009580 f i CheckScanner.obj
 0001:000085d0       ??I?$CComPtrBase@UICatRegister@@@ATL@@QAEPAPAUICatRegister@@XZ 100095d0 f i CheckScanner.obj
 0001:00008620       ??I?$CComPtrBase@UIConnectionPoint@@@ATL@@QAEPAPAUIConnectionPoint@@XZ 10009620 f i CheckScanner.obj
 0001:00008670       ??I?$CComPtrBase@UIConnectionPointContainer@@@ATL@@QAEPAPAUIConnectionPointContainer@@XZ 10009670 f i CheckScanner.obj
 0001:000086c0       ??I?$CComPtrBase@UIDataAdviseHolder@@@ATL@@QAEPAPAUIDataAdviseHolder@@XZ 100096c0 f i CheckScanner.obj
 0001:00008710       ??I?$CComPtrBase@UIDataObject@@@ATL@@QAEPAPAUIDataObject@@XZ 10009710 f i CheckScanner.obj
 0001:00008760       ??I?$CComPtrBase@UIDispatch@@@ATL@@QAEPAPAUIDispatch@@XZ 10009760 f i CheckScanner.obj
 0001:000087b0       ??I?$CComPtrBase@UIOleAdviseHolder@@@ATL@@QAEPAPAUIOleAdviseHolder@@XZ 100097b0 f i CheckScanner.obj
 0001:00008800       ??I?$CComPtrBase@UIOleControlSite@@@ATL@@QAEPAPAUIOleControlSite@@XZ 10009800 f i CheckScanner.obj
 0001:00008850       ??I?$CComPtrBase@UIOleInPlaceActiveObject@@@ATL@@QAEPAPAUIOleInPlaceActiveObject@@XZ 10009850 f i CheckScanner.obj
 0001:000088a0       ??I?$CComPtrBase@UIOleInPlaceFrame@@@ATL@@QAEPAPAUIOleInPlaceFrame@@XZ 100098a0 f i CheckScanner.obj
 0001:000088f0       ??I?$CComPtrBase@UIOleInPlaceObject@@@ATL@@QAEPAPAUIOleInPlaceObject@@XZ 100098f0 f i CheckScanner.obj
 0001:00008940       ??I?$CComPtrBase@UIOleInPlaceSiteWindowless@@@ATL@@QAEPAPAUIOleInPlaceSiteWindowless@@XZ 10009940 f i CheckScanner.obj
 0001:00008990       ??I?$CComPtrBase@UIOleInPlaceUIWindow@@@ATL@@QAEPAPAUIOleInPlaceUIWindow@@XZ 10009990 f i CheckScanner.obj
 0001:000089e0       ??I?$CComPtrBase@UIOleObject@@@ATL@@QAEPAPAUIOleObject@@XZ 100099e0 f i CheckScanner.obj
 0001:00008a30       ??I?$CComPtrBase@UIPersistStream@@@ATL@@QAEPAPAUIPersistStream@@XZ 10009a30 f i CheckScanner.obj
 0001:00008a80       ??I?$CComPtrBase@UIPointerInactive@@@ATL@@QAEPAPAUIPointerInactive@@XZ 10009a80 f i CheckScanner.obj
 0001:00008ad0       ??I?$CComPtrBase@UIProvideClassInfo2@@@ATL@@QAEPAPAUIProvideClassInfo2@@XZ 10009ad0 f i CheckScanner.obj
 0001:00008b20       ??I?$CComPtrBase@UIStream@@@ATL@@QAEPAPAUIStream@@XZ 10009b20 f i CheckScanner.obj
 0001:00008b70       ??I?$CComPtrBase@UITypeInfo2@@@ATL@@QAEPAPAUITypeInfo2@@XZ 10009b70 f i CheckScanner.obj
 0001:00008bc0       ??I?$CComPtrBase@UITypeInfo@@@ATL@@QAEPAPAUITypeInfo@@XZ 10009bc0 f i CheckScanner.obj
 0001:00008c10       ??I?$CComPtrBase@UITypeLib@@@ATL@@QAEPAPAUITypeLib@@XZ 10009c10 f i CheckScanner.obj
 0001:00008c60       ??I?$CComPtrBase@UIUnknown@@@ATL@@QAEPAPAUIUnknown@@XZ 10009c60 f i CheckScanner.obj
 0001:00008cb0       ??I?$CComPtrBase@UIViewObjectEx@@@ATL@@QAEPAPAUIViewObjectEx@@XZ 10009cb0 f i CheckScanner.obj
 0001:00008d00       ??ICComBSTR@ATL@@QAEPAPA_WXZ 10009d00 f i CheckScanner.obj
 0001:00008d0e       ??_E?$CComContainedObject@VCOPOSCheckScanner@@@ATL@@W3AEPAXI@Z 10009d0e f i CheckScanner.obj
 0001:00008d16       ??_E?$CComContainedObject@VCOPOSCheckScanner@@@ATL@@WEM@AEPAXI@Z 10009d16 f i CheckScanner.obj
 0001:00008d1e       ??_E?$CComObject@VCOPOSCheckScanner@@@ATL@@W3AEPAXI@Z 10009d1e f i CheckScanner.obj
 0001:00008d26       ??_E?$CComObject@VCOPOSCheckScanner@@@ATL@@WEM@AEPAXI@Z 10009d26 f i CheckScanner.obj
 0001:00008d30       ??_G?$CComAggObject@VCOPOSCheckScanner@@@ATL@@UAEPAXI@Z 10009d30 f i CheckScanner.obj
 0001:00008d30       ??_E?$CComAggObject@VCOPOSCheckScanner@@@ATL@@UAEPAXI@Z 10009d30 f i CheckScanner.obj
 0001:00008d80       ??_E?$CComContainedObject@VCOPOSCheckScanner@@@ATL@@UAEPAXI@Z 10009d80 f i CheckScanner.obj
 0001:00008d80       ??_G?$CComContainedObject@VCOPOSCheckScanner@@@ATL@@UAEPAXI@Z 10009d80 f i CheckScanner.obj
 0001:00008dd0       ??_G?$CComObject@V?$CComEnum@UIEnumConnectionPoints@@$1?_GUID_b196b285_bab4_101a_b69c_00aa00341d07@@3U__s_GUID@@BPAUIConnectionPoint@@V?$_CopyInterface@UIConnectionPoint@@@ATL@@VCComSingleThreadModel@6@@ATL@@@ATL@@UAEPAXI@Z 10009dd0 f i CheckScanner.obj
 0001:00008dd0       ??_E?$CComObject@V?$CComEnum@UIEnumConnectionPoints@@$1?_GUID_b196b285_bab4_101a_b69c_00aa00341d07@@3U__s_GUID@@BPAUIConnectionPoint@@V?$_CopyInterface@UIConnectionPoint@@@ATL@@VCComSingleThreadModel@6@@ATL@@@ATL@@UAEPAXI@Z 10009dd0 f i CheckScanner.obj
 0001:00008e10       ??_G?$CComObject@V?$CComEnum@UIEnumConnections@@$1?_GUID_b196b287_bab4_101a_b69c_00aa00341d07@@3U__s_GUID@@BUtagCONNECTDATA@@V?$_Copy@UtagCONNECTDATA@@@ATL@@VCComSingleThreadModel@6@@ATL@@@ATL@@UAEPAXI@Z 10009e10 f i CheckScanner.obj
 0001:00008e10       ??_E?$CComObject@V?$CComEnum@UIEnumConnections@@$1?_GUID_b196b287_bab4_101a_b69c_00aa00341d07@@3U__s_GUID@@BUtagCONNECTDATA@@V?$_Copy@UtagCONNECTDATA@@@ATL@@VCComSingleThreadModel@6@@ATL@@@ATL@@UAEPAXI@Z 10009e10 f i CheckScanner.obj
 0001:00008e50       ??_E?$CComObject@VCOPOSCheckScanner@@@ATL@@UAEPAXI@Z 10009e50 f i CheckScanner.obj
 0001:00008e50       ??_G?$CComObject@VCOPOSCheckScanner@@@ATL@@UAEPAXI@Z 10009e50 f i CheckScanner.obj
 0001:00008ea0       ??_E?$CComObjectCached@VCComClassFactory@ATL@@@ATL@@UAEPAXI@Z 10009ea0 f i CheckScanner.obj
 0001:00008ea0       ??_G?$CComObjectCached@VCComClassFactory@ATL@@@ATL@@UAEPAXI@Z 10009ea0 f i CheckScanner.obj
 0001:00008ee0       ??_ECComClassFactory@ATL@@UAEPAXI@Z 10009ee0 f i CheckScanner.obj
 0001:00008ee0       ??_GCComClassFactory@ATL@@UAEPAXI@Z 10009ee0 f i CheckScanner.obj
 0001:00008f20       ??_ECComModule@ATL@@UAEPAXI@Z 10009f20 f i CheckScanner.obj
 0001:00008f20       ??_GCComModule@ATL@@UAEPAXI@Z 10009f20 f i CheckScanner.obj
 0001:00008f60       ??_GCRegObject@ATL@@UAEPAXI@Z 10009f60 f i CheckScanner.obj
 0001:00008f60       ??_ECRegObject@ATL@@UAEPAXI@Z 10009f60 f i CheckScanner.obj
 0001:00008fa0       ?Add@?$CSimpleArray@GV?$CSimpleArrayEqualHelper@G@ATL@@@ATL@@QAEHABG@Z 10009fa0 f i CheckScanner.obj
 0001:000090f0       ?Add@?$CSimpleMap@PA_WPA_WVCExpansionVectorEqualHelper@ATL@@@ATL@@QAEHABQA_W0@Z 1000a0f0 f i CheckScanner.obj
 0001:000091b0       ?Add@CComDynamicUnkArray@ATL@@QAEKPAUIUnknown@@@Z 1000a1b0 f i CheckScanner.obj
 0001:00009350       ?Add@CExpansionVector@ATL@@QAEHPB_W0@Z 1000a350 f i CheckScanner.obj
 0001:000095e0       ?AddChar@CParseBuffer@CRegParser@ATL@@QAEHPB_W@Z 1000a5e0 f i CheckScanner.obj
 0001:00009620       ?AddCommonRGSReplacements@?$CAtlModuleT@VCComModule@ATL@@@ATL@@UAEJPAUIRegistrarBase@@@Z 1000a620 f i CheckScanner.obj
 0001:00009670       ?AddCreateWndData@CAtlWinModule@ATL@@QAEXPAU_AtlCreateWndData@2@PAX@Z 1000a670 f i CheckScanner.obj
 0001:000096a0       ?AddRef@?$CComAggObject@VCOPOSCheckScanner@@@ATL@@UAGKXZ 1000a6a0 f i CheckScanner.obj
 0001:000096c0       ?AddRef@?$CComContainedObject@VCOPOSCheckScanner@@@ATL@@UAGKXZ 1000a6c0 f i CheckScanner.obj
 0001:000096dc       ?AddRef@?$CComContainedObject@VCOPOSCheckScanner@@@ATL@@WHA@AGKXZ 1000a6dc f i CheckScanner.obj
 0001:000096e6       ?AddRef@?$CComContainedObject@VCOPOSCheckScanner@@@ATL@@WHE@AGKXZ 1000a6e6 f i CheckScanner.obj
 0001:000096f0       ?AddRef@?$CComContainedObject@VCOPOSCheckScanner@@@ATL@@WHI@AGKXZ 1000a6f0 f i CheckScanner.obj
 0001:000096fa       ?AddRef@?$CComContainedObject@VCOPOSCheckScanner@@@ATL@@WHM@AGKXZ 1000a6fa f i CheckScanner.obj
 0001:00009704       ?AddRef@?$CComContainedObject@VCOPOSCheckScanner@@@ATL@@WIA@AGKXZ 1000a704 f i CheckScanner.obj
 0001:00009711       ?AddRef@?$CComContainedObject@VCOPOSCheckScanner@@@ATL@@WIE@AGKXZ 1000a711 f i CheckScanner.obj
 0001:0000971e       ?AddRef@?$CComContainedObject@VCOPOSCheckScanner@@@ATL@@WII@AGKXZ 1000a71e f i CheckScanner.obj
 0001:0000972b       ?AddRef@?$CComContainedObject@VCOPOSCheckScanner@@@ATL@@WIM@AGKXZ 1000a72b f i CheckScanner.obj
 0001:00009738       ?AddRef@?$CComContainedObject@VCOPOSCheckScanner@@@ATL@@WJA@AGKXZ 1000a738 f i CheckScanner.obj
 0001:00009745       ?AddRef@?$CComContainedObject@VCOPOSCheckScanner@@@ATL@@WJE@AGKXZ 1000a745 f i CheckScanner.obj
 0001:00009752       ?AddRef@?$CComContainedObject@VCOPOSCheckScanner@@@ATL@@WJI@AGKXZ 1000a752 f i CheckScanner.obj
 0001:0000975f       ?AddRef@?$CComContainedObject@VCOPOSCheckScanner@@@ATL@@WJM@AGKXZ 1000a75f f i CheckScanner.obj
 0001:0000976c       ?AddRef@?$CComContainedObject@VCOPOSCheckScanner@@@ATL@@WKA@AGKXZ 1000a76c f i CheckScanner.obj
 0001:00009779       ?AddRef@?$CComContainedObject@VCOPOSCheckScanner@@@ATL@@WKI@AGKXZ 1000a779 f i CheckScanner.obj
 0001:00009786       ?AddRef@?$CComContainedObject@VCOPOSCheckScanner@@@ATL@@WLE@AGKXZ 1000a786 f i CheckScanner.obj
 0001:000097a0       ?AddRef@?$CComObject@V?$CComEnum@UIEnumConnectionPoints@@$1?_GUID_b196b285_bab4_101a_b69c_00aa00341d07@@3U__s_GUID@@BPAUIConnectionPoint@@V?$_CopyInterface@UIConnectionPoint@@@ATL@@VCComSingleThreadModel@6@@ATL@@@ATL@@UAGKXZ 1000a7a0 f i CheckScanner.obj
 0001:000097c0       ?AddRef@?$CComObject@V?$CComEnum@UIEnumConnections@@$1?_GUID_b196b287_bab4_101a_b69c_00aa00341d07@@3U__s_GUID@@BUtagCONNECTDATA@@V?$_Copy@UtagCONNECTDATA@@@ATL@@VCComSingleThreadModel@6@@ATL@@@ATL@@UAGKXZ 1000a7c0 f i CheckScanner.obj
 0001:000097e0       ?AddRef@?$CComObject@VCOPOSCheckScanner@@@ATL@@UAGKXZ 1000a7e0 f i CheckScanner.obj
 0001:000097fc       ?AddRef@?$CComObject@VCOPOSCheckScanner@@@ATL@@WHA@AGKXZ 1000a7fc f i CheckScanner.obj
 0001:00009806       ?AddRef@?$CComObject@VCOPOSCheckScanner@@@ATL@@WHE@AGKXZ 1000a806 f i CheckScanner.obj
 0001:00009810       ?AddRef@?$CComObject@VCOPOSCheckScanner@@@ATL@@WHI@AGKXZ 1000a810 f i CheckScanner.obj
 0001:0000981a       ?AddRef@?$CComObject@VCOPOSCheckScanner@@@ATL@@WHM@AGKXZ 1000a81a f i CheckScanner.obj
 0001:00009824       ?AddRef@?$CComObject@VCOPOSCheckScanner@@@ATL@@WIA@AGKXZ 1000a824 f i CheckScanner.obj
 0001:00009831       ?AddRef@?$CComObject@VCOPOSCheckScanner@@@ATL@@WIE@AGKXZ 1000a831 f i CheckScanner.obj
 0001:0000983e       ?AddRef@?$CComObject@VCOPOSCheckScanner@@@ATL@@WII@AGKXZ 1000a83e f i CheckScanner.obj
 0001:0000984b       ?AddRef@?$CComObject@VCOPOSCheckScanner@@@ATL@@WIM@AGKXZ 1000a84b f i CheckScanner.obj
 0001:00009858       ?AddRef@?$CComObject@VCOPOSCheckScanner@@@ATL@@WJA@AGKXZ 1000a858 f i CheckScanner.obj
 0001:00009865       ?AddRef@?$CComObject@VCOPOSCheckScanner@@@ATL@@WJE@AGKXZ 1000a865 f i CheckScanner.obj
 0001:00009872       ?AddRef@?$CComObject@VCOPOSCheckScanner@@@ATL@@WJI@AGKXZ 1000a872 f i CheckScanner.obj
 0001:0000987f       ?AddRef@?$CComObject@VCOPOSCheckScanner@@@ATL@@WJM@AGKXZ 1000a87f f i CheckScanner.obj
 0001:0000988c       ?AddRef@?$CComObject@VCOPOSCheckScanner@@@ATL@@WKA@AGKXZ 1000a88c f i CheckScanner.obj
 0001:00009899       ?AddRef@?$CComObject@VCOPOSCheckScanner@@@ATL@@WKI@AGKXZ 1000a899 f i CheckScanner.obj
 0001:000098a6       ?AddRef@?$CComObject@VCOPOSCheckScanner@@@ATL@@WLE@AGKXZ 1000a8a6 f i CheckScanner.obj
 0001:000098c0       ?AddRef@?$CComObjectCached@VCComClassFactory@ATL@@@ATL@@UAGKXZ 1000a8c0 f i CheckScanner.obj
 0001:00009910       ?AddRef@CRegObject@ATL@@UAGKXZ 1000a910 f i CheckScanner.obj
 0001:00009960       ?AddReplacement@CRegObject@ATL@@UAGJPB_W0@Z 1000a960 f i CheckScanner.obj
 0001:00009a70       ?AddString@CParseBuffer@CRegParser@ATL@@QAEHPB_W@Z 1000aa70 f i CheckScanner.obj
 0001:00009b60       ?AddTermFunc@CAtlModule@ATL@@QAEJP6GXK@ZK@Z 1000ab60 f i CheckScanner.obj
 0001:00009bb0       ?AddValue@CRegParser@ATL@@IAEJAAVCRegKey@2@PB_WPA_W@Z 1000abb0 f i CheckScanner.obj
 0001:0000a340       ?Advise@?$CProxy_IOPOSEvents@VCOPOSCheckScanner@@@@UAGJPAUIUnknown@@PAK@Z 1000b340 f i CheckScanner.obj
 0001:0000a390       ?Advise@?$IConnectionPointImpl@VCOPOSCheckScanner@@$1?DIID__IOPOSCheckScannerEvents@@3U_GUID@@BVCComDynamicUnkArray@ATL@@@ATL@@UAGJPAUIUnknown@@PAK@Z 1000b390 f i CheckScanner.obj
 0001:0000a530       ?Advise@?$IConnectionPointImpl@VCOPOSCheckScanner@@$1?IID_IPropertyNotifySink@@3U_GUID@@BVCComDynamicUnkArray@ATL@@@ATL@@UAGJPAUIUnknown@@PAK@Z 1000b530 f i CheckScanner.obj
 0001:0000a6d0       ?Advise@?$IOleObjectImpl@VCOPOSCheckScanner@@@ATL@@UAGJPAUIAdviseSink@@PAK@Z 1000b6d0 f i CheckScanner.obj
 0001:0000a760       ?Allocate@?$CAtlSafeAllocBufferManager@VCCRTAllocator@ATL@@@_ATL_SAFE_ALLOCA_IMPL@ATL@@QAEPAXK@Z 1000b760 f i CheckScanner.obj
 0001:0000a7d0       ?Allocate@?$CTempBuffer@E$0BAA@VCCRTAllocator@ATL@@@ATL@@QAEPAEI@Z 1000b7d0 f i CheckScanner.obj
 0001:0000a810       ?Allocate@?$CTempBuffer@_W$0BAA@VCCRTAllocator@ATL@@@ATL@@QAEPA_WI@Z 1000b810 f i CheckScanner.obj
 0001:0000a850       ?Allocate@?$CTempBuffer@_W$0EAA@VCCRTAllocator@ATL@@@ATL@@QAEPA_WI@Z 1000b850 f i CheckScanner.obj
 0001:0000a890       ?AllocateBytes@?$CTempBuffer@E$0BAA@VCCRTAllocator@ATL@@@ATL@@QAEPAEI@Z 1000b890 f i CheckScanner.obj
 0001:0000a910       ?AllocateBytes@?$CTempBuffer@_W$0BAA@VCCRTAllocator@ATL@@@ATL@@QAEPA_WI@Z 1000b910 f i CheckScanner.obj
 0001:0000a990       ?AllocateBytes@?$CTempBuffer@_W$0EAA@VCCRTAllocator@ATL@@@ATL@@QAEPA_WI@Z 1000b990 f i CheckScanner.obj
 0001:0000aa10       ?AllocateHeap@?$CTempBuffer@E$0BAA@VCCRTAllocator@ATL@@@ATL@@AAEXI@Z 1000ba10 f i CheckScanner.obj
 0001:0000aa60       ?AllocateHeap@?$CTempBuffer@_W$0BAA@VCCRTAllocator@ATL@@@ATL@@AAEXI@Z 1000ba60 f i CheckScanner.obj
 0001:0000aab0       ?AllocateHeap@?$CTempBuffer@_W$0EAA@VCCRTAllocator@ATL@@@ATL@@AAEXI@Z 1000bab0 f i CheckScanner.obj
 0001:0000ab00       ?Append@CParseBuffer@CRegParser@ATL@@QAEHPB_WH@Z 1000bb00 f i CheckScanner.obj
 0001:0000aca0       ?AtlCallTermFunc@ATL@@YGXPAU_ATL_MODULE70@1@@Z 1000bca0 f i CheckScanner.obj
 0001:0000ad40       ?AtlCoTaskMemCAlloc@ATL@@YAPAXKK@Z 1000bd40 f i CheckScanner.obj
 0001:0000add0       ?AtlCoTaskMemRecalloc@ATL@@YAPAXPAXKK@Z 1000bdd0 f i CheckScanner.obj
 0001:0000ae70       ?AtlComModuleGetClassObject@ATL@@YGJPAU_ATL_COM_MODULE70@1@ABU_GUID@@1PAPAX@Z 1000be70 f i CheckScanner.obj
 0001:0000b100       ?AtlComModuleRegisterServer@ATL@@YGJPAU_ATL_COM_MODULE70@1@HPBU_GUID@@@Z 1000c100 f i CheckScanner.obj
 0001:0000b290       ?AtlComModuleUnregisterServer@ATL@@YGJPAU_ATL_COM_MODULE70@1@HPBU_GUID@@@Z 1000c290 f i CheckScanner.obj
 0001:0000b3c0       ?AtlComQIPtrAssign2@ATL@@YAXPAPAUIUnknown@@PAU2@ABU_GUID@@@Z 1000c3c0 f i CheckScanner.obj
 0001:0000b440       ?AtlCreateTargetDC@ATL@@YGPAUHDC__@@PAU2@PAUtagDVTARGETDEVICE@@@Z 1000c440 f i CheckScanner.obj
 0001:0000b5e0       ?AtlCrtErrorCheck@ATL@@YAHH@Z 1000c5e0 f i CheckScanner.obj
 0001:0000b6b0       ?AtlGetPerUserRegistration@ATL@@YGJPA_N@Z 1000c6b0 f i CheckScanner.obj
 0001:0000b6e0       ?AtlHiMetricToPixel@ATL@@YGXPBUtagSIZE@@PAU2@@Z 1000c6e0 f i CheckScanner.obj
 0001:0000b8b0       ?AtlHresultFromLastError@ATL@@YAJXZ 1000c8b0 f i CheckScanner.obj
 0001:0000b8f0       ?AtlHresultFromWin32@ATL@@YAJK@Z 1000c8f0 f i CheckScanner.obj
 0001:0000b910       ?AtlIPersistStreamInit_Load@ATL@@YGJPAUIStream@@PBUATL_PROPMAP_ENTRY@1@PAXPAUIUnknown@@@Z 1000c910 f i CheckScanner.obj
 0001:0000bd70       ?AtlIPersistStreamInit_Save@ATL@@YGJPAUIStream@@HPBUATL_PROPMAP_ENTRY@1@PAXPAUIUnknown@@@Z 1000cd70 f i CheckScanner.obj
 0001:0000c150       ?AtlInternalOleLoadFromStream@ATL@@YAJPAUIStream@@ABU_GUID@@PAPAXTClassesAllowedInStream@1@K@Z 1000d150 f i CheckScanner.obj
 0001:0000c3f0       ?AtlInternalQueryInterface@ATL@@YGJPAXPBU_ATL_INTMAP_ENTRY@1@ABU_GUID@@PAPAX@Z 1000d3f0 f i CheckScanner.obj
 0001:0000c620       ?AtlLoadTypeLib@ATL@@YGJPAUHINSTANCE__@@PB_WPAPA_WPAPAUITypeLib@@@Z 1000d620 f i CheckScanner.obj
 0001:0000ca80       ?AtlModuleAddTermFunc@ATL@@YGJPAU_ATL_MODULE70@1@P6GXK@ZK@Z 1000da80 f i CheckScanner.obj
 0001:0000cbe0       ?AtlRegisterClassCategoriesHelper@ATL@@YGJABU_GUID@@PBU_ATL_CATMAP_ENTRY@1@H@Z 1000dbe0 f i CheckScanner.obj
 0001:0000d2c0       ?AtlRegisterTypeLib@ATL@@YGJPAUHINSTANCE__@@PB_W@Z 1000e2c0 f i CheckScanner.obj
 0001:0000d600       ?AtlThrowImpl@ATL@@YGXJ@Z  1000e600 f i CheckScanner.obj
 0001:0000d6b0       ?AtlUnRegisterTypeLib@ATL@@YGJPAUHINSTANCE__@@PB_W@Z 1000e6b0 f i CheckScanner.obj
 0001:0000d8c0       ?AtlWinModuleAddCreateWndData@ATL@@YGXPAU_ATL_WIN_MODULE70@1@PAU_AtlCreateWndData@1@PAX@Z 1000e8c0 f i CheckScanner.obj
 0001:0000da30       ?AtlWinModuleExtractCreateWndData@ATL@@YGPAXPAU_ATL_WIN_MODULE70@1@@Z 1000ea30 f i CheckScanner.obj
 0001:0000dbb0       ?AtlWinModuleRegisterClassExW@ATL@@YGGPAU_ATL_WIN_MODULE70@1@PBUtagWNDCLASSEXW@@@Z 1000ebb0 f i CheckScanner.obj
 0001:0000dc80       ?AtlWinModuleRegisterWndClassInfoW@ATL@@YGGPAU_ATL_WIN_MODULE70@1@PAU_ATL_BASE_MODULE70@1@PAU_ATL_WNDCLASSINFOW@1@PAP6GJPAUHWND__@@IIJ@Z@Z 1000ec80 f i CheckScanner.obj
 0001:0000dd10       ?Attach@?$CAutoVectorPtr@_W@ATL@@QAEXPA_W@Z 1000ed10 f i CheckScanner.obj
 0001:0000dd70       ?Attach@CComBSTR@ATL@@QAEXPA_W@Z 1000ed70 f i CheckScanner.obj
 0001:0000ddc0       ?Attach@CRegKey@ATL@@QAEXPAUHKEY__@@@Z 1000edc0 f i CheckScanner.obj
 0001:0000de30       ?CanForceRemoveKey@CRegParser@ATL@@IAEHPB_W@Z 1000ee30 f i CheckScanner.obj
 0001:0000dea0       ?ChToByte@CRegParser@ATL@@KAE_W@Z 1000eea0 f i CheckScanner.obj
 0001:0000dfc0       ?ChangeType@CComVariant@ATL@@QAEJGPBUtagVARIANT@@@Z 1000efc0 f i CheckScanner.obj
 0001:0000e020       ?Cleanup@CComTypeInfoHolder@ATL@@SGXK@Z 1000f020 f i CheckScanner.obj
 0001:0000e0f0       ?Clear@CComVariant@ATL@@QAEJXZ 1000f0f0 f i CheckScanner.obj
 0001:0000e130       ?ClearReplacements@CExpansionVector@ATL@@QAEJXZ 1000f130 f i CheckScanner.obj
 0001:0000e1c0       ?ClearReplacements@CRegObject@ATL@@UAGJXZ 1000f1c0 f i CheckScanner.obj
 0001:0000e210       ?Clone@?$CComEnumImpl@UIEnumConnectionPoints@@$1?_GUID_b196b285_bab4_101a_b69c_00aa00341d07@@3U__s_GUID@@BPAUIConnectionPoint@@V?$_CopyInterface@UIConnectionPoint@@@ATL@@@ATL@@UAGJPAPAUIEnumConnectionPoints@@@Z 1000f210 f i CheckScanner.obj
 0001:0000e380       ?Clone@?$CComEnumImpl@UIEnumConnections@@$1?_GUID_b196b287_bab4_101a_b69c_00aa00341d07@@3U__s_GUID@@BUtagCONNECTDATA@@V?$_Copy@UtagCONNECTDATA@@@ATL@@@ATL@@UAGJPAPAUIEnumConnections@@@Z 1000f380 f i CheckScanner.obj
 0001:0000e4f0       ?Close@?$IOleObjectImpl@VCOPOSCheckScanner@@@ATL@@UAGJK@Z 1000f4f0 f i CheckScanner.obj
 0001:0000e580       ?Close@CRegKey@ATL@@QAEJXZ 1000f580 f i CheckScanner.obj
 0001:0000e5f0       ?ContextSensitiveHelp@?$IOleInPlaceActiveObjectImpl@VCOPOSCheckScanner@@@ATL@@UAGJH@Z 1000f5f0 f i CheckScanner.obj
 0001:0000e660       ?ContextSensitiveHelp@?$IOleInPlaceObjectWindowlessImpl@VCOPOSCheckScanner@@@ATL@@UAGJH@Z 1000f660 f i CheckScanner.obj
 0001:0000e6d0       ?ControlQueryInterface@?$CComControl@VCOPOSCheckScanner@@V?$CWindowImpl@VCOPOSCheckScanner@@VCWindow@ATL@@V?$CWinTraits@$0FGAAAAAA@$0A@@3@@ATL@@@ATL@@UAEJABU_GUID@@PAPAX@Z 1000f6d0 f i CheckScanner.obj
 0001:0000e750       ?CreateControlWindow@?$CComControl@VCOPOSCheckScanner@@V?$CWindowImpl@VCOPOSCheckScanner@@VCWindow@ATL@@V?$CWinTraits@$0FGAAAAAA@$0A@@3@@ATL@@@ATL@@UAEPAUHWND__@@PAU3@AAUtagRECT@@@Z 1000f750 f i CheckScanner.obj
 0001:0000e7d0       ?CreateInstance@?$CComCreator@V?$CComAggObject@VCOPOSCheckScanner@@@ATL@@@ATL@@SGJPAXABU_GUID@@PAPAX@Z 1000f7d0 f i CheckScanner.obj
 0001:0000e950       ?CreateInstance@?$CComCreator@V?$CComObject@VCOPOSCheckScanner@@@ATL@@@ATL@@SGJPAXABU_GUID@@PAPAX@Z 1000f950 f i CheckScanner.obj
 0001:0000eae0       ?CreateInstance@?$CComObject@V?$CComEnum@UIEnumConnectionPoints@@$1?_GUID_b196b285_bab4_101a_b69c_00aa00341d07@@3U__s_GUID@@BPAUIConnectionPoint@@V?$_CopyInterface@UIConnectionPoint@@@ATL@@VCComSingleThreadModel@6@@ATL@@@ATL@@SGJPAPAV12@@Z 1000fae0 f i CheckScanner.obj
 0001:0000ec50       ?CreateInstance@?$CComObject@V?$CComEnum@UIEnumConnections@@$1?_GUID_b196b287_bab4_101a_b69c_00aa00341d07@@3U__s_GUID@@BUtagCONNECTDATA@@V?$_Copy@UtagCONNECTDATA@@@ATL@@VCComSingleThreadModel@6@@ATL@@@ATL@@SGJPAPAV12@@Z 1000fc50 f i CheckScanner.obj
 0001:0000edc0       ?CreateInstance@CComClassFactory@ATL@@UAGJPAUIUnknown@@ABU_GUID@@PAPAX@Z 1000fdc0 f i CheckScanner.obj
 0001:0000eeb0       ?DAdvise@?$IDataObjectImpl@VCOPOSCheckScanner@@@ATL@@UAGJPAUtagFORMATETC@@KPAUIAdviseSink@@PAK@Z 1000feb0 f i CheckScanner.obj
 0001:0000efb0       ?DEVMODEOLE2T_EX@@YAPAU_devicemodeW@@PAU1@@Z 1000ffb0 f i CheckScanner.obj
 0001:0000efc0       ?DUnadvise@?$IDataObjectImpl@VCOPOSCheckScanner@@@ATL@@UAGJK@Z 1000ffc0 f i CheckScanner.obj
 0001:0000f090       ?Decrement@CComMultiThreadModel@ATL@@SGKPAJ@Z 10010090 f i CheckScanner.obj
 0001:0000f0b0       ?Decrement@CComSingleThreadModel@ATL@@SGKPAJ@Z 100100b0 f i CheckScanner.obj
 0001:0000f0d0       ?DefWindowProcW@?$CWindowImplBaseT@VCWindow@ATL@@V?$CWinTraits@$0FGAAAAAA@$0A@@2@@ATL@@QAEJIIJ@Z 100100d0 f i CheckScanner.obj
 0001:0000f120       ?DefaultReflectionHandler@?$CWindowImplRoot@VCWindow@ATL@@@ATL@@SAHPAUHWND__@@IIJAAJ@Z 10010120 f i CheckScanner.obj
 0001:0000f3b0       ?DeleteSubKey@CRegKey@ATL@@QAEJPB_W@Z 100103b0 f i CheckScanner.obj
 0001:0000f4c0       ?DeleteValue@CRegKey@ATL@@QAEJPB_W@Z 100104c0 f i CheckScanner.obj
 0001:0000f530       ?Detach@?$CAutoVectorPtr@_W@ATL@@QAEPA_WXZ 10010530 f i CheckScanner.obj
 0001:0000f560       ?Detach@?$CComPtrBase@UIPersistStream@@@ATL@@QAEPAUIPersistStream@@XZ 10010560 f i CheckScanner.obj
 0001:0000f590       ?Detach@?$CComPtrBase@UITypeInfo@@@ATL@@QAEPAUITypeInfo@@XZ 10010590 f i CheckScanner.obj
 0001:0000f5c0       ?Detach@?$CComPtrBase@UIUnknown@@@ATL@@QAEPAUIUnknown@@XZ 100105c0 f i CheckScanner.obj
 0001:0000f5f0       ?Detach@CComBSTR@ATL@@QAEPA_WXZ 100105f0 f i CheckScanner.obj
 0001:0000f620       ?Detach@CParseBuffer@CRegParser@ATL@@QAEPA_WXZ 10010620 f i CheckScanner.obj
 0001:0000f660       ?Detach@CRegKey@ATL@@QAEPAUHKEY__@@XZ 10010660 f i CheckScanner.obj
 0001:0000f6a0       ?DoEvent@COPOSCheckScanner@@IAEXIIJ@Z 100106a0 f i CheckScanner.obj
 0001:0000f7e0       ?DoVerb@?$IOleObjectImpl@VCOPOSCheckScanner@@@ATL@@UAGJJPAUtagMSG@@PAUIOleClientSite@@JPAUHWND__@@PBUtagRECT@@@Z 100107e0 f i CheckScanner.obj
 0001:0000f9f0       ?DoVerbDiscardUndo@?$IOleObjectImpl@VCOPOSCheckScanner@@@ATL@@QAEJPBUtagRECT@@PAUHWND__@@@Z 100109f0 f i CheckScanner.obj
 0001:0000fa60       ?DoVerbHide@?$IOleObjectImpl@VCOPOSCheckScanner@@@ATL@@QAEJPBUtagRECT@@PAUHWND__@@@Z 10010a60 f i CheckScanner.obj
 0001:0000fb10       ?DoVerbInPlaceActivate@?$IOleObjectImpl@VCOPOSCheckScanner@@@ATL@@QAEJPBUtagRECT@@PAUHWND__@@@Z 10010b10 f i CheckScanner.obj
 0001:0000fbb0       ?DoVerbOpen@?$IOleObjectImpl@VCOPOSCheckScanner@@@ATL@@QAEJPBUtagRECT@@PAUHWND__@@@Z 10010bb0 f i CheckScanner.obj
 0001:0000fc20       ?DoVerbPrimary@?$IOleObjectImpl@VCOPOSCheckScanner@@@ATL@@QAEJPBUtagRECT@@PAUHWND__@@@Z 10010c20 f i CheckScanner.obj
 0001:0000fd30       ?DoVerbProperties@CComControlBase@ATL@@QAEJPBUtagRECT@@PAUHWND__@@@Z 10010d30 f i CheckScanner.obj
 0001:00010050       ?DoVerbShow@?$IOleObjectImpl@VCOPOSCheckScanner@@@ATL@@QAEJPBUtagRECT@@PAUHWND__@@@Z 10011050 f i CheckScanner.obj
 0001:000100e0       ?DoVerbUIActivate@?$IOleObjectImpl@VCOPOSCheckScanner@@@ATL@@QAEJPBUtagRECT@@PAUHWND__@@@Z 100110e0 f i CheckScanner.obj
 0001:00010180       ?DoesVerbActivate@CComControlBase@ATL@@QAEHJ@Z 10011180 f i CheckScanner.obj
 0001:000101e0       ?DoesVerbUIActivate@CComControlBase@ATL@@QAEHJ@Z 100111e0 f i CheckScanner.obj
 0001:00010260       ?Draw@?$IViewObjectExImpl@VCOPOSCheckScanner@@@ATL@@UAGJKJPAXPAUtagDVTARGETDEVICE@@PAUHDC__@@2PBU_RECTL@@3P6GHK@ZK@Z 10011260 f i CheckScanner.obj
 0001:00010300       ?Empty@CComBSTR@ATL@@QAEXXZ 10011300 f i CheckScanner.obj
 0001:00010340       ?EnableModeless@?$IOleInPlaceActiveObjectImpl@VCOPOSCheckScanner@@@ATL@@UAGJH@Z 10011340 f i CheckScanner.obj
 0001:000103a0       ?EndOfVar@CRegParser@ATL@@IAEHXZ 100113a0 f i CheckScanner.obj
 0001:00010410       ?EnsureTI@CComTypeInfoHolder@ATL@@QAEJK@Z 10011410 f i CheckScanner.obj
 0001:00010470       ?EnumAdvise@?$IOleObjectImpl@VCOPOSCheckScanner@@@ATL@@UAGJPAPAUIEnumSTATDATA@@@Z 10011470 f i CheckScanner.obj
 0001:00010580       ?EnumConnectionPoints@?$IConnectionPointContainerImpl@VCOPOSCheckScanner@@@ATL@@UAGJPAPAUIEnumConnectionPoints@@@Z 10011580 f i CheckScanner.obj
 0001:000109b0       ?EnumConnections@?$IConnectionPointImpl@VCOPOSCheckScanner@@$1?DIID__IOPOSCheckScannerEvents@@3U_GUID@@BVCComDynamicUnkArray@ATL@@@ATL@@UAGJPAPAUIEnumConnections@@@Z 100119b0 f i CheckScanner.obj
 0001:00010c00       ?EnumConnections@?$IConnectionPointImpl@VCOPOSCheckScanner@@$1?IID_IPropertyNotifySink@@3U_GUID@@BVCComDynamicUnkArray@ATL@@@ATL@@UAGJPAPAUIEnumConnections@@@Z 10011c00 f i CheckScanner.obj
 0001:00010e50       ?EnumDAdvise@?$IDataObjectImpl@VCOPOSCheckScanner@@@ATL@@UAGJPAPAUIEnumSTATDATA@@@Z 10011e50 f i CheckScanner.obj
 0001:00010f50       ?EnumFormatEtc@?$IDataObjectImpl@VCOPOSCheckScanner@@@ATL@@UAGJKPAPAUIEnumFORMATETC@@@Z 10011f50 f i CheckScanner.obj
 0001:00010fc0       ?EnumVerbs@?$IOleObjectImpl@VCOPOSCheckScanner@@@ATL@@UAGJPAPAUIEnumOLEVERB@@@Z 10011fc0 f i CheckScanner.obj
 0001:00011070       ?EscapeSingleQuote@CAtlModule@ATL@@SAXPA_WIPB_W@Z 10012070 f i CheckScanner.obj
 0001:00011110       ?ExtractCreateWndData@CAtlWinModule@ATL@@QAEPAXXZ 10012110 f i CheckScanner.obj
 0001:00011140       ?FAccessAllowed@?$IObjectSafetyImpl@VCOPOSCheckScanner@@$02@ATL@@MAEHXZ 10012140 f i CheckScanner.obj
 0001:00011150       ?FinalConstruct@?$CComAggObject@VCOPOSCheckScanner@@@ATL@@QAEJXZ 10012150 f i CheckScanner.obj
 0001:00011190       ?FinalConstruct@CComObjectRootBase@ATL@@QAEJXZ 10012190 f i CheckScanner.obj
 0001:000111a0       ?FinalConstruct@CRegObject@ATL@@QAEJXZ 100121a0 f i CheckScanner.obj
 0001:000111d0       ?FinalRelease@?$CComAggObject@VCOPOSCheckScanner@@@ATL@@QAEXXZ 100121d0 f i CheckScanner.obj
 0001:00011210       ?FinalRelease@CComObjectRootBase@ATL@@QAEXXZ 10012210 f i CheckScanner.obj
 0001:00011220       ?FindConnectionPoint@?$IConnectionPointContainerImpl@VCOPOSCheckScanner@@@ATL@@UAGJABU_GUID@@PAPAUIConnectionPoint@@@Z 10012220 f i CheckScanner.obj
 0001:00011370       ?FindKey@?$CSimpleMap@PA_WPA_WVCExpansionVectorEqualHelper@ATL@@@ATL@@QBEHABQA_W@Z 10012370 f i CheckScanner.obj
 0001:000113e0       ?FireTheEvent@?$CProxy_IOPOSEvents@VCOPOSCheckScanner@@@@IAEXPAUIUnknown@@PAVOposVariant@@IAAJPB_WJ@Z 100123e0 f i CheckScanner.obj
 0001:00011550       ?FireViewChange@CComControlBase@ATL@@QAEJXZ 10012550 f i CheckScanner.obj
 0001:00011610       ?Fire_DataEvent@?$CProxy_IOPOSEvents@VCOPOSCheckScanner@@@@QAEXJ@Z 10012610 f i CheckScanner.obj
 0001:00011770       ?Fire_DirectIOEvent@?$CProxy_IOPOSEvents@VCOPOSCheckScanner@@@@QAEXJPAJPAPA_W@Z 10012770 f i CheckScanner.obj
 0001:00011940       ?Fire_ErrorEvent@?$CProxy_IOPOSEvents@VCOPOSCheckScanner@@@@QAEXJJJPAJ@Z 10012940 f i CheckScanner.obj
 0001:00011b30       ?Fire_StatusUpdateEvent@?$CProxy_IOPOSEvents@VCOPOSCheckScanner@@@@QAEXJ@Z 10012b30 f i CheckScanner.obj
 0001:00011c90       ?FormatWindowClassName@AtlModuleRegisterWndClassInfoParamW@ATL@@SAXPA_WKPAX@Z 10012c90 f i CheckScanner.obj
 0001:00011cc0       ?Free@?$CAutoVectorPtr@_W@ATL@@QAEXXZ 10012cc0 f i CheckScanner.obj
 0001:00011d10       ?FreeHeap@?$CTempBuffer@E$0BAA@VCCRTAllocator@ATL@@@ATL@@AAEXXZ 10012d10 f i CheckScanner.obj
 0001:00011d40       ?FreeHeap@?$CTempBuffer@_W$0BAA@VCCRTAllocator@ATL@@@ATL@@AAEXXZ 10012d40 f i CheckScanner.obj
 0001:00011d70       ?FreeHeap@?$CTempBuffer@_W$0EAA@VCCRTAllocator@ATL@@@ATL@@AAEXXZ 10012d70 f i CheckScanner.obj
 0001:00011da0       ?Freeze@?$IViewObjectExImpl@VCOPOSCheckScanner@@@ATL@@UAGJKJPAXPAK@Z 10012da0 f i CheckScanner.obj
 0001:00011e10       ?GenerateError@CRegParser@ATL@@IAEJI@Z 10012e10 f i CheckScanner.obj
 0001:00011e30       ?GetAdvise@?$IViewObjectExImpl@VCOPOSCheckScanner@@@ATL@@UAGJPAK0PAPAUIAdviseSink@@@Z 10012e30 f i CheckScanner.obj
 0001:00011f30       ?GetAmbientLocaleID@CComControlBase@ATL@@QAEJAAK@Z 10012f30 f i CheckScanner.obj
 0001:00012010       ?GetAmbientProperty@CComControlBase@ATL@@QAEJJAAUtagVARIANT@@@Z 10013010 f i CheckScanner.obj
 0001:00012060       ?GetAmbientUserMode@CComControlBase@ATL@@QAEJAAH@Z 10013060 f i CheckScanner.obj
 0001:00012160       ?GetAppId@?$CAtlModuleT@VCComModule@ATL@@@ATL@@SAPB_WXZ 10013160 f i CheckScanner.obj
 0001:00012170       ?GetAt@CComDynamicUnkArray@ATL@@QAEPAUIUnknown@@H@Z 10013170 f i CheckScanner.obj
 0001:000121f0       ?GetCanonicalFormatEtc@?$IDataObjectImpl@VCOPOSCheckScanner@@@ATL@@UAGJPAUtagFORMATETC@@0@Z 100131f0 f i CheckScanner.obj
 0001:00012260       ?GetClassID@?$IPersistStorageImpl@VCOPOSCheckScanner@@@ATL@@UAGJPAU_GUID@@@Z 10013260 f i CheckScanner.obj
 0001:000122e0       ?GetClassID@?$IPersistStreamInitImpl@VCOPOSCheckScanner@@@ATL@@UAGJPAU_GUID@@@Z 100132e0 f i CheckScanner.obj
 0001:00012360       ?GetClassInfoExW@AtlModuleRegisterWndClassInfoParamW@ATL@@SAHPAUHINSTANCE__@@PB_WPAUtagWNDCLASSEXW@@@Z 10013360 f i CheckScanner.obj
 0001:00012390       ?GetClassInfoW@?$IProvideClassInfo2Impl@$1?CLSID_OPOSCheckScanner@@3U_GUID@@B$1?DIID__IOPOSCheckScannerEvents@@3U2@B$1?LIBID_OposCheckScanner_CCO@@3U2@B$00$0A@VCComTypeInfoHolder@ATL@@@ATL@@UAGJPAPAUITypeInfo@@@Z 10013390 f i CheckScanner.obj
 0001:000123b0       ?GetClassObject@CComModule@ATL@@QAEJABU_GUID@@0PAPAX@Z 100133b0 f i CheckScanner.obj
 0001:000125b0       ?GetClientSite@?$IOleObjectImpl@VCOPOSCheckScanner@@@ATL@@UAGJPAPAUIOleClientSite@@@Z 100135b0 f i CheckScanner.obj
 0001:00012640       ?GetClipboardData@?$IOleObjectImpl@VCOPOSCheckScanner@@@ATL@@UAGJKPAPAUIDataObject@@@Z 10013640 f i CheckScanner.obj
 0001:000126b0       ?GetCodeAddress@CDynamicStdCallThunk2@ATL@@QAEPAXXZ 100136b0 f i CheckScanner.obj
 0001:000126e0       ?GetColorSet@?$IViewObjectExImpl@VCOPOSCheckScanner@@@ATL@@UAGJKJPAXPAUtagDVTARGETDEVICE@@PAUHDC__@@PAPAUtagLOGPALETTE@@@Z 100136e0 f i CheckScanner.obj
 0001:00012750       ?GetConnMap@COPOSCheckScanner@@SAPBU_ATL_CONNMAP_ENTRY@ATL@@PAH@Z 10013750 f i CheckScanner.obj
 0001:00012890       ?GetConnectionInterface@?$IConnectionPointImpl@VCOPOSCheckScanner@@$1?DIID__IOPOSCheckScannerEvents@@3U_GUID@@BVCComDynamicUnkArray@ATL@@@ATL@@UAGJPAU_GUID@@@Z 10013890 f i CheckScanner.obj
 0001:000128d0       ?GetConnectionInterface@?$IConnectionPointImpl@VCOPOSCheckScanner@@$1?IID_IPropertyNotifySink@@3U_GUID@@BVCComDynamicUnkArray@ATL@@@ATL@@UAGJPAU_GUID@@@Z 100138d0 f i CheckScanner.obj
 0001:00012910       ?GetConnectionPointContainer@?$IConnectionPointImpl@VCOPOSCheckScanner@@$1?DIID__IOPOSCheckScannerEvents@@3U_GUID@@BVCComDynamicUnkArray@ATL@@@ATL@@UAGJPAPAUIConnectionPointContainer@@@Z 10013910 f i CheckScanner.obj
 0001:00012980       ?GetConnectionPointContainer@?$IConnectionPointImpl@VCOPOSCheckScanner@@$1?IID_IPropertyNotifySink@@3U_GUID@@BVCComDynamicUnkArray@ATL@@@ATL@@UAGJPAPAUIConnectionPointContainer@@@Z 10013980 f i CheckScanner.obj
 0001:000129f0       ?GetContentExtent@?$IQuickActivateImpl@VCOPOSCheckScanner@@@ATL@@UAGJPAUtagSIZE@@@Z 100139f0 f i CheckScanner.obj
 0001:00012a80       ?GetControlInfo@?$IOleControlImpl@VCOPOSCheckScanner@@@ATL@@UAGJPAUtagCONTROLINFO@@@Z 10013a80 f i CheckScanner.obj
 0001:00012af0       ?GetCookie@CComDynamicUnkArray@ATL@@QAGKPAPAUIUnknown@@@Z 10013af0 f i CheckScanner.obj
 0001:00012bb0       ?GetData@?$IDataObjectImpl@VCOPOSCheckScanner@@@ATL@@UAGJPAUtagFORMATETC@@PAUtagSTGMEDIUM@@@Z 10013bb0 f i CheckScanner.obj
 0001:00012c40       ?GetData@CAtlSafeAllocBufferNode@?$CAtlSafeAllocBufferManager@VCCRTAllocator@ATL@@@_ATL_SAFE_ALLOCA_IMPL@ATL@@QAEPAXXZ 10013c40 f i CheckScanner.obj
 0001:00012c60       ?GetDataHere@?$IDataObjectImpl@VCOPOSCheckScanner@@@ATL@@UAGJPAUtagFORMATETC@@PAUtagSTGMEDIUM@@@Z 10013c60 f i CheckScanner.obj
 0001:00012cd0       ?GetDropTarget@?$IOleInPlaceObjectWindowlessImpl@VCOPOSCheckScanner@@@ATL@@UAGJPAPAUIDropTarget@@@Z 10013cd0 f i CheckScanner.obj
 0001:00012d40       ?GetExtent@?$IOleObjectImpl@VCOPOSCheckScanner@@@ATL@@UAGJKPAUtagSIZE@@@Z 10013d40 f i CheckScanner.obj
 0001:00012de0       ?GetExtent@?$IViewObjectExImpl@VCOPOSCheckScanner@@@ATL@@UAGJKJPAUtagDVTARGETDEVICE@@PAUtagSIZE@@@Z 10013de0 f i CheckScanner.obj
 0001:00012eb0       ?GetGITPtr@CAtlModule@ATL@@UAEJPAPAUIGlobalInterfaceTable@@@Z 10013eb0 f i CheckScanner.obj
 0001:00012fb0       ?GetGUID@?$IProvideClassInfo2Impl@$1?CLSID_OPOSCheckScanner@@3U_GUID@@B$1?DIID__IOPOSCheckScannerEvents@@3U2@B$1?LIBID_OposCheckScanner_CCO@@3U2@B$00$0A@VCComTypeInfoHolder@ATL@@@ATL@@UAGJKPAU_GUID@@@Z 10013fb0 f i CheckScanner.obj
 0001:00013030       ?GetIDsOfNames@?$IDispatchImpl@UIOPOSCheckScanner@@$1?IID_IOPOSCheckScanner@@3U_GUID@@B$1?LIBID_OposCheckScanner_CCO@@3U3@B$00$0A@VCComTypeInfoHolder@ATL@@@ATL@@UAGJABU_GUID@@PAPA_WIKPAJ@Z 10014030 f i CheckScanner.obj
 0001:00013060       ?GetIDsOfNames@CComTypeInfoHolder@ATL@@QAEJABU_GUID@@PAPA_WIKPAJ@Z 10014060 f i CheckScanner.obj
 0001:00013210       ?GetInterfaceSafetyOptions@?$IObjectSafetyImpl@VCOPOSCheckScanner@@$02@ATL@@UAGJABU_GUID@@PAK1@Z 10014210 f i CheckScanner.obj
 0001:00013380       ?GetKeyAt@?$CSimpleMap@PA_WPA_WVCExpansionVectorEqualHelper@ATL@@@ATL@@QBEAAPA_WH@Z 10014380 f i CheckScanner.obj
 0001:00013400       ?GetLockCount@CAtlModule@ATL@@UAEJXZ 10014400 f i CheckScanner.obj
 0001:00013420       ?GetMiscStatus@?$IOleObjectImpl@VCOPOSCheckScanner@@@ATL@@UAGJKPAK@Z 10014420 f i CheckScanner.obj
 0001:00013490       ?GetMoniker@?$IOleObjectImpl@VCOPOSCheckScanner@@@ATL@@UAGJKKPAPAUIMoniker@@@Z 10014490 f i CheckScanner.obj
 0001:00013500       ?GetNaturalExtent@?$IViewObjectExImpl@VCOPOSCheckScanner@@@ATL@@UAGJKJPAUtagDVTARGETDEVICE@@PAUHDC__@@PAUtagExtentInfo@@PAUtagSIZE@@@Z 10014500 f i CheckScanner.obj
 0001:00013620       ?GetObjectCLSID@?$CComCoClass@VCOPOSCheckScanner@@$1?CLSID_OPOSCheckScanner@@3U_GUID@@B@ATL@@SGABU_GUID@@XZ 10014620 f i CheckScanner.obj
 0001:00013630       ?GetPages@?$ISpecifyPropertyPagesImpl@VCOPOSCheckScanner@@@ATL@@UAGJPAUtagCAUUID@@@Z 10014630 f i CheckScanner.obj
 0001:000136a0       ?GetPagesHelper@?$ISpecifyPropertyPagesImpl@VCOPOSCheckScanner@@@ATL@@IAEJPAUtagCAUUID@@PBUATL_PROPMAP_ENTRY@2@@Z 100146a0 f i CheckScanner.obj
 0001:000138a0       ?GetProperty@?$CComPtr@UIDispatch@@@ATL@@QAEJJPAUtagVARIANT@@@Z 100148a0 f i CheckScanner.obj
 0001:000138e0       ?GetProperty@?$CComPtr@UIDispatch@@@ATL@@SAJPAUIDispatch@@JPAUtagVARIANT@@@Z 100148e0 f i CheckScanner.obj
 0001:00013a40       ?GetPropertyMap@COPOSCheckScanner@@SAPBUATL_PROPMAP_ENTRY@ATL@@XZ 10014a40 f i CheckScanner.obj
 0001:00013a50       ?GetRect@?$IViewObjectExImpl@VCOPOSCheckScanner@@@ATL@@UAGJKPAU_RECTL@@@Z 10014a50 f i CheckScanner.obj
 0001:00013ac0       ?GetSize@?$CSimpleMap@PA_WPA_WVCExpansionVectorEqualHelper@ATL@@@ATL@@QBEHXZ 10014ac0 f i CheckScanner.obj
 0001:00013ae0       ?GetSize@CComDynamicUnkArray@ATL@@QBEHXZ 10014ae0 f i CheckScanner.obj
 0001:00013b00       ?GetSizeMax@?$IPersistStreamInitImpl@VCOPOSCheckScanner@@@ATL@@UAGJPAT_ULARGE_INTEGER@@@Z 10014b00 f i CheckScanner.obj
 0001:00014070       ?GetSizeMax@CComVariant@ATL@@QBEJPAT_ULARGE_INTEGER@@@Z 10015070 f i CheckScanner.obj
 0001:000143f0       ?GetStreamSize@CComBSTR@ATL@@SAKPA_W@Z 100153f0 f i CheckScanner.obj
 0001:00014440       ?GetTI@CComTypeInfoHolder@ATL@@QAEJK@Z 10015440 f i CheckScanner.obj
 0001:00014c50       ?GetTI@CComTypeInfoHolder@ATL@@QAEJKPAPAUITypeInfo@@@Z 10015c50 f i CheckScanner.obj
 0001:00014d10       ?GetTypeInfo@?$IDispatchImpl@UIOPOSCheckScanner@@$1?IID_IOPOSCheckScanner@@3U_GUID@@B$1?LIBID_OposCheckScanner_CCO@@3U3@B$00$0A@VCComTypeInfoHolder@ATL@@@ATL@@UAGJIKPAPAUITypeInfo@@@Z 10015d10 f i CheckScanner.obj
 0001:00014d40       ?GetTypeInfo@CComTypeInfoHolder@ATL@@QAEJIKPAPAUITypeInfo@@@Z 10015d40 f i CheckScanner.obj
 0001:00014d80       ?GetTypeInfoCount@?$IDispatchImpl@UIOPOSCheckScanner@@$1?IID_IOPOSCheckScanner@@3U_GUID@@B$1?LIBID_OposCheckScanner_CCO@@3U3@B$00$0A@VCComTypeInfoHolder@ATL@@@ATL@@UAGJPAI@Z 10015d80 f i CheckScanner.obj
 0001:00014da0       ?GetUnknown@CComDynamicUnkArray@ATL@@QAGPAUIUnknown@@K@Z 10015da0 f i CheckScanner.obj
 0001:00014e10       ?GetUnknown@COPOSCheckScanner@@QAEPAUIUnknown@@XZ 10015e10 f i CheckScanner.obj
 0001:00014e40       ?GetUserClassID@?$IOleObjectImpl@VCOPOSCheckScanner@@@ATL@@UAGJPAU_GUID@@@Z 10015e40 f i CheckScanner.obj
 0001:00014ef0       ?GetUserType@?$IOleObjectImpl@VCOPOSCheckScanner@@@ATL@@UAGJKPAPA_W@Z 10015ef0 f i CheckScanner.obj
 0001:00014f60       ?GetValueAt@?$CSimpleMap@PA_WPA_WVCExpansionVectorEqualHelper@ATL@@@ATL@@QBEAAPA_WH@Z 10015f60 f i CheckScanner.obj
 0001:00014fe0       ?GetViewStatus@?$IViewObjectExImpl@VCOPOSCheckScanner@@@ATL@@UAGJPAK@Z 10015fe0 f i CheckScanner.obj
 0001:000150a0       ?GetWNDPROC@CWndProcThunk@ATL@@QAEP6GJPAUHWND__@@IIJ@ZXZ 100160a0 f i CheckScanner.obj
 0001:000150d0       ?GetWindow@?$IOleInPlaceActiveObjectImpl@VCOPOSCheckScanner@@@ATL@@UAGJPAPAUHWND__@@@Z 100160d0 f i CheckScanner.obj
 0001:000151a0       ?GetWindow@?$IOleInPlaceObjectWindowlessImpl@VCOPOSCheckScanner@@@ATL@@UAGJPAPAUHWND__@@@Z 100161a0 f i CheckScanner.obj
 0001:00015270       ?GetWindowLongPtrW@@YAJPAUHWND__@@H@Z 10016270 f i CheckScanner.obj
 0001:000152a0       ?GetWindowProc@?$CWindowImplBaseT@VCWindow@ATL@@V?$CWinTraits@$0FGAAAAAA@$0A@@2@@ATL@@UAEP6GJPAUHWND__@@IIJ@ZXZ 100162a0 f i CheckScanner.obj
 0001:000152b0       ?GetWndCaption@?$CWindowImpl@VCOPOSCheckScanner@@VCWindow@ATL@@V?$CWinTraits@$0FGAAAAAA@$0A@@3@@ATL@@SAPB_WXZ 100162b0 f i CheckScanner.obj
 0001:000152c0       ?GetWndClassInfo@?$CWindowImpl@VCOPOSCheckScanner@@VCWindow@ATL@@V?$CWinTraits@$0FGAAAAAA@$0A@@3@@ATL@@SAAAU_ATL_WNDCLASSINFOW@2@XZ 100162c0 f i CheckScanner.obj
 0001:000152d0       ?GetWndClassName@CWindow@ATL@@SAPB_WXZ 100162d0 f i CheckScanner.obj
 0001:000152e0       ?GetWndExStyle@?$CWinTraits@$0FGAAAAAA@$0A@@ATL@@SAKK@Z 100162e0 f i CheckScanner.obj
 0001:00015300       ?GetWndExStyle@?$CWindowImplBaseT@VCWindow@ATL@@V?$CWinTraits@$0FGAAAAAA@$0A@@2@@ATL@@SAKK@Z 10016300 f i CheckScanner.obj
 0001:00015320       ?GetWndStyle@?$CWinTraits@$0FGAAAAAA@$0A@@ATL@@SAKK@Z 10016320 f i CheckScanner.obj
 0001:00015340       ?GetWndStyle@?$CWindowImplBaseT@VCWindow@ATL@@V?$CWinTraits@$0FGAAAAAA@$0A@@2@@ATL@@SAKK@Z 10016340 f i CheckScanner.obj
 0001:00015360       ?GetZoomInfo@CComControlBase@ATL@@QAEXAAUATL_DRAWINFO@@@Z 10016360 f i CheckScanner.obj
 0001:000154d0       ?HKeyFromString@CRegParser@ATL@@KAPAUHKEY__@@PA_W@Z 100164d0 f i CheckScanner.obj
 0001:00015540       ?HandsOffStorage@?$IPersistStorageImpl@VCOPOSCheckScanner@@@ATL@@UAGJXZ 10016540 f i CheckScanner.obj
 0001:000155a0       ?HasSubKeys@CRegParser@ATL@@IAEHPAUHKEY__@@@Z 100165a0 f i CheckScanner.obj
 0001:000156b0       ?IDataObject_GetData@CComControlBase@ATL@@QAEJPAUtagFORMATETC@@PAUtagSTGMEDIUM@@@Z 100166b0 f i CheckScanner.obj
 0001:00015ad0       ?IOleInPlaceObject_InPlaceDeactivate@CComControlBase@ATL@@QAEJXZ 10016ad0 f i CheckScanner.obj
 0001:00015cd0       ?IOleInPlaceObject_SetObjectRects@CComControlBase@ATL@@QAEJPBUtagRECT@@0@Z 10016cd0 f i CheckScanner.obj
 0001:00015e90       ?IOleInPlaceObject_UIDeactivate@CComControlBase@ATL@@QAEJXZ 10016e90 f i CheckScanner.obj
 0001:00016100       ?IOleObject_Advise@CComControlBase@ATL@@QAEJPAUIAdviseSink@@PAK@Z 10017100 f i CheckScanner.obj
 0001:000161b0       ?IOleObject_Close@CComControlBase@ATL@@QAEJK@Z 100171b0 f i CheckScanner.obj
 0001:00016460       ?IOleObject_GetClientSite@CComControlBase@ATL@@QAEJPAPAUIOleClientSite@@@Z 10017460 f i CheckScanner.obj
 0001:00016500       ?IOleObject_SetClientSite@CComControlBase@ATL@@QAEJPAUIOleClientSite@@@Z 10017500 f i CheckScanner.obj
 0001:000165d0       ?IOleObject_SetExtent@CComControlBase@ATL@@QAEJKPAUtagSIZE@@@Z 100175d0 f i CheckScanner.obj
 0001:00016710       ?IPSI_GetIPersistStreamInit@?$IPersistStorageImpl@VCOPOSCheckScanner@@@ATL@@AAEPAUIPersistStreamInit@@XZ 10017710 f i CheckScanner.obj
 0001:000167e0       ?IPersistStreamInit_Load@?$IPersistStreamInitImpl@VCOPOSCheckScanner@@@ATL@@QAEJPAUIStream@@PBUATL_PROPMAP_ENTRY@2@@Z 100177e0 f i CheckScanner.obj
 0001:00016860       ?IPersistStreamInit_Save@?$IPersistStreamInitImpl@VCOPOSCheckScanner@@@ATL@@QAEJPAUIStream@@HPBUATL_PROPMAP_ENTRY@2@@Z 10017860 f i CheckScanner.obj
 0001:000168f0       ?IQuickActivate_QuickActivate@CComControlBase@ATL@@QAEJPAUtagQACONTAINER@@PAUtagQACONTROL@@@Z 100178f0 f i CheckScanner.obj
 0001:00016f40       ?IViewObject_Draw@CComControlBase@ATL@@QAEJKJPAXPAUtagDVTARGETDEVICE@@PAUHDC__@@2PBU_RECTL@@3@Z 10017f40 f i CheckScanner.obj
 0001:000171e0       ?InPlaceActivate@CComControlBase@ATL@@QAEJJPBUtagRECT@@@Z 100181e0 f i CheckScanner.obj
 0001:00017b70       ?InPlaceDeactivate@?$IOleInPlaceObjectWindowlessImpl@VCOPOSCheckScanner@@@ATL@@UAGJXZ 10018b70 f i CheckScanner.obj
 0001:00017bf0       ?Increment@CComMultiThreadModel@ATL@@SGKPAJ@Z 10018bf0 f i CheckScanner.obj
 0001:00017c10       ?Increment@CComSingleThreadModel@ATL@@SGKPAJ@Z 10018c10 f i CheckScanner.obj
 0001:00017c30       ?Init@?$CComEnumImpl@UIEnumConnectionPoints@@$1?_GUID_b196b285_bab4_101a_b69c_00aa00341d07@@3U__s_GUID@@BPAUIConnectionPoint@@V?$_CopyInterface@UIConnectionPoint@@@ATL@@@ATL@@QAEJPAPAUIConnectionPoint@@0PAUIUnknown@@W4CComEnumFlags@2@@Z 10018c30 f i CheckScanner.obj
 0001:00017e10       ?Init@?$CComEnumImpl@UIEnumConnections@@$1?_GUID_b196b287_bab4_101a_b69c_00aa00341d07@@3U__s_GUID@@BUtagCONNECTDATA@@V?$_Copy@UtagCONNECTDATA@@@ATL@@@ATL@@QAEJPAUtagCONNECTDATA@@0PAUIUnknown@@W4CComEnumFlags@2@@Z 10018e10 f i CheckScanner.obj
 0001:00017ff0       ?Init@CComFakeCriticalSection@ATL@@QAEJXZ 10018ff0 f i CheckScanner.obj
 0001:00018000       ?Init@CComModule@ATL@@QAEJPAU_ATL_OBJMAP_ENTRY30@2@PAUHINSTANCE__@@PBU_GUID@@@Z 10019000 f i CheckScanner.obj
 0001:000180f0       ?Init@CComSafeDeleteCriticalSection@ATL@@QAEJXZ 100190f0 f i CheckScanner.obj
 0001:00018170       ?Init@CDynamicStdCallThunk2@ATL@@QAEHKPAX@Z 10019170 f i CheckScanner.obj
 0001:000181d0       ?Init@CWndProcThunk@ATL@@QAEHP6GJPAUHWND__@@IIJ@ZPAX@Z 100191d0 f i CheckScanner.obj
 0001:00018210       ?InitFromData@?$IOleObjectImpl@VCOPOSCheckScanner@@@ATL@@UAGJPAUIDataObject@@HK@Z 10019210 f i CheckScanner.obj
 0001:00018280       ?InitLibId@?$CAtlModuleT@VCComModule@ATL@@@ATL@@SAXXZ 10019280 f i CheckScanner.obj
 0001:00018290       ?InitNew@?$IPersistStorageImpl@VCOPOSCheckScanner@@@ATL@@UAGJPAUIStorage@@@Z 10019290 f i CheckScanner.obj
 0001:00018380       ?InitNew@?$IPersistStreamInitImpl@VCOPOSCheckScanner@@@ATL@@UAGJXZ 10019380 f i CheckScanner.obj
 0001:00018410       ?InlineIsEqualUnknown@ATL@@YGHABU_GUID@@@Z 10019410 f i CheckScanner.obj
 0001:00018480       ?InternalAddRef@?$CComObjectRootEx@VCComMultiThreadModel@ATL@@@ATL@@QAEKXZ 10019480 f i CheckScanner.obj
 0001:000184e0       ?InternalAddRef@?$CComObjectRootEx@VCComSingleThreadModel@ATL@@@ATL@@QAEKXZ 100194e0 f i CheckScanner.obj
 0001:00018540       ?InternalFinalConstructAddRef@CComObjectRootBase@ATL@@QAEXXZ 10019540 f i CheckScanner.obj
 0001:00018550       ?InternalFinalConstructAddRef@COPOSCheckScanner@@QAEXXZ 10019550 f i CheckScanner.obj
 0001:00018580       ?InternalFinalConstructRelease@CComObjectRootBase@ATL@@QAEXXZ 10019580 f i CheckScanner.obj
 0001:000185d0       ?InternalFinalConstructRelease@COPOSCheckScanner@@QAEXXZ 100195d0 f i CheckScanner.obj
 0001:00018600       ?InternalGetSite@CComControlBase@ATL@@QAEJABU_GUID@@PAPAX@Z 10019600 f i CheckScanner.obj
 0001:000186c0       ?InternalQueryInterface@CComObjectRootBase@ATL@@SGJPAXPBU_ATL_INTMAP_ENTRY@2@ABU_GUID@@PAPAX@Z 100196c0 f i CheckScanner.obj
 0001:00018780       ?InternalRelease@?$CComObjectRootEx@VCComMultiThreadModel@ATL@@@ATL@@QAEKXZ 10019780 f i CheckScanner.obj
 0001:000187f0       ?InternalRelease@?$CComObjectRootEx@VCComSingleThreadModel@ATL@@@ATL@@QAEKXZ 100197f0 f i CheckScanner.obj
 0001:00018860       ?InternalSetAtIndex@?$CSimpleArray@GV?$CSimpleArrayEqualHelper@G@ATL@@@ATL@@QAEXHABG@Z 10019860 f i CheckScanner.obj
 0001:000188d0       ?InternalSetAtIndex@?$CSimpleMap@PA_WPA_WVCExpansionVectorEqualHelper@ATL@@@ATL@@QAEXHABQA_W0@Z 100198d0 f i CheckScanner.obj
 0001:00018970       ?Invoke@?$IDispatchImpl@UIOPOSCheckScanner@@$1?IID_IOPOSCheckScanner@@3U_GUID@@B$1?LIBID_OposCheckScanner_CCO@@3U3@B$00$0A@VCComTypeInfoHolder@ATL@@@ATL@@UAGJJABU_GUID@@KGPAUtagDISPPARAMS@@PAUtagVARIANT@@PAUtagEXCEPINFO@@PAI@Z 10019970 f i CheckScanner.obj
 0001:000189b0       ?Invoke@CComTypeInfoHolder@ATL@@QAEJPAUIDispatch@@JABU_GUID@@KGPAUtagDISPPARAMS@@PAUtagVARIANT@@PAUtagEXCEPINFO@@PAI@Z 100199b0 f i CheckScanner.obj
 0001:00018a40       ?IsDirty@?$IPersistStorageImpl@VCOPOSCheckScanner@@@ATL@@UAGJXZ 10019a40 f i CheckScanner.obj
 0001:00018b30       ?IsDirty@?$IPersistStreamInitImpl@VCOPOSCheckScanner@@@ATL@@UAGJXZ 10019b30 f i CheckScanner.obj
 0001:00018bd0       ?IsEqualKey@CExpansionVectorEqualHelper@ATL@@SA_NQA_W0@Z 10019bd0 f i CheckScanner.obj
 0001:00018c00       ?IsEqualObject@?$CComPtrBase@UIOleClientSite@@@ATL@@QAE_NPAUIUnknown@@@Z 10019c00 f i CheckScanner.obj
 0001:00018d30       ?IsEqualObject@?$CComPtrBase@UITypeInfo@@@ATL@@QAE_NPAUIUnknown@@@Z 10019d30 f i CheckScanner.obj
 0001:00018e60       ?IsSpace@CRegParser@ATL@@IAEH_W@Z 10019e60 f i CheckScanner.obj
 0001:00018ec0       ?IsUpToDate@?$IOleObjectImpl@VCOPOSCheckScanner@@@ATL@@UAGJXZ 10019ec0 f i CheckScanner.obj
 0001:00018f20       ?Length@CComBSTR@ATL@@QBEIXZ 10019f20 f i CheckScanner.obj
 0001:00018f60       ?Load@?$IPersistStorageImpl@VCOPOSCheckScanner@@@ATL@@UAGJPAUIStorage@@@Z 10019f60 f i CheckScanner.obj
 0001:000190c0       ?Load@?$IPersistStreamInitImpl@VCOPOSCheckScanner@@@ATL@@UAGJPAUIStream@@@Z 1001a0c0 f i CheckScanner.obj
 0001:00019150       ?LoadCursorW@AtlModuleRegisterWndClassInfoParamW@ATL@@SAPAUHICON__@@PAUHINSTANCE__@@PB_W@Z 1001a150 f i CheckScanner.obj
 0001:00019180       ?LoadNameCache@CComTypeInfoHolder@ATL@@QAEJPAUITypeInfo@@@Z 1001a180 f i CheckScanner.obj
 0001:00019410       ?Lock@?$CComCritSecLock@VCComCriticalSection@ATL@@@ATL@@QAEJXZ 1001a410 f i CheckScanner.obj
 0001:000194c0       ?Lock@?$CComObjectRootEx@VCComSingleThreadModel@ATL@@@ATL@@QAEXXZ 1001a4c0 f i CheckScanner.obj
 0001:000194d0       ?Lock@CAtlModule@ATL@@UAEJXZ 1001a4d0 f i CheckScanner.obj
 0001:00019500       ?Lock@CComCriticalSection@ATL@@QAEJXZ 1001a500 f i CheckScanner.obj
 0001:00019540       ?Lock@CComFakeCriticalSection@ATL@@QAEJXZ 1001a540 f i CheckScanner.obj
 0001:00019550       ?LockServer@CComClassFactory@ATL@@UAGJH@Z 1001a550 f i CheckScanner.obj
 0001:000195b0       ?Lookup@?$CSimpleMap@PA_WPA_WVCExpansionVectorEqualHelper@ATL@@@ATL@@QBEPA_WABQA_W@Z 1001a5b0 f i CheckScanner.obj
 0001:00019600       ?Next@?$CComEnumImpl@UIEnumConnectionPoints@@$1?_GUID_b196b285_bab4_101a_b69c_00aa00341d07@@3U__s_GUID@@BPAUIConnectionPoint@@V?$_CopyInterface@UIConnectionPoint@@@ATL@@@ATL@@UAGJKPAPAUIConnectionPoint@@PAK@Z 1001a600 f i CheckScanner.obj
 0001:00019770       ?Next@?$CComEnumImpl@UIEnumConnections@@$1?_GUID_b196b287_bab4_101a_b69c_00aa00341d07@@3U__s_GUID@@BUtagCONNECTDATA@@V?$_Copy@UtagCONNECTDATA@@@ATL@@@ATL@@UAGJKPAUtagCONNECTDATA@@PAK@Z 1001a770 f i CheckScanner.obj
 0001:000198e0       ?NextToken@CRegParser@ATL@@IAEJPA_W@Z 1001a8e0 f i CheckScanner.obj
 0001:00019b80       ?OLE2CT_EX@@YAPB_WPB_WI@Z  1001ab80 f i CheckScanner.obj
 0001:00019b90       ?OLE2CT_EX_DEF@@YAPB_WPB_W@Z 1001ab90 f i CheckScanner.obj
 0001:00019ba0       ?OLE2T_EX@@YAPA_WPA_WI@Z   1001aba0 f i CheckScanner.obj
 0001:00019bb0       ?OnAmbientPropertyChange@?$IOleControlImpl@VCOPOSCheckScanner@@@ATL@@UAGJJ@Z 1001abb0 f i CheckScanner.obj
 0001:00019c40       ?OnDocWindowActivate@?$IOleInPlaceActiveObjectImpl@VCOPOSCheckScanner@@@ATL@@UAGJH@Z 1001ac40 f i CheckScanner.obj
 0001:00019cd0       ?OnDrawAdvanced@CComControlBase@ATL@@UAEJAAUATL_DRAWINFO@@@Z 1001acd0 f i CheckScanner.obj
 0001:00019ef0       ?OnFinalMessage@?$CWindowImplBaseT@VCWindow@ATL@@V?$CWinTraits@$0FGAAAAAA@$0A@@2@@ATL@@UAEXPAUHWND__@@@Z 1001aef0 f i CheckScanner.obj
 0001:00019f00       ?OnFrameWindowActivate@?$IOleInPlaceActiveObjectImpl@VCOPOSCheckScanner@@@ATL@@UAGJH@Z 1001af00 f i CheckScanner.obj
 0001:00019f60       ?OnKillFocus@CComControlBase@ATL@@QAEJIIJAAH@Z 1001af60 f i CheckScanner.obj
 0001:0001a060       ?OnMnemonic@?$IOleControlImpl@VCOPOSCheckScanner@@@ATL@@UAGJPAUtagMSG@@@Z 1001b060 f i CheckScanner.obj
 0001:0001a0d0       ?OnMouseActivate@CComControlBase@ATL@@QAEJIIJAAH@Z 1001b0d0 f i CheckScanner.obj
 0001:0001a220       ?OnPaint@CComControlBase@ATL@@QAEJIIJAAH@Z 1001b220 f i CheckScanner.obj
 0001:0001a3a0       ?OnPostVerbDiscardUndo@?$IOleObjectImpl@VCOPOSCheckScanner@@@ATL@@QAEJXZ 1001b3a0 f i CheckScanner.obj
 0001:0001a3b0       ?OnPostVerbHide@?$IOleObjectImpl@VCOPOSCheckScanner@@@ATL@@QAEJXZ 1001b3b0 f i CheckScanner.obj
 0001:0001a3c0       ?OnPostVerbInPlaceActivate@?$IOleObjectImpl@VCOPOSCheckScanner@@@ATL@@QAEJXZ 1001b3c0 f i CheckScanner.obj
 0001:0001a3d0       ?OnPostVerbOpen@?$IOleObjectImpl@VCOPOSCheckScanner@@@ATL@@QAEJXZ 1001b3d0 f i CheckScanner.obj
 0001:0001a3e0       ?OnPostVerbShow@?$IOleObjectImpl@VCOPOSCheckScanner@@@ATL@@QAEJXZ 1001b3e0 f i CheckScanner.obj
 0001:0001a3f0       ?OnPostVerbUIActivate@?$IOleObjectImpl@VCOPOSCheckScanner@@@ATL@@QAEJXZ 1001b3f0 f i CheckScanner.obj
 0001:0001a400       ?OnPreVerbDiscardUndo@?$IOleObjectImpl@VCOPOSCheckScanner@@@ATL@@QAEJXZ 1001b400 f i CheckScanner.obj
 0001:0001a410       ?OnPreVerbHide@?$IOleObjectImpl@VCOPOSCheckScanner@@@ATL@@QAEJXZ 1001b410 f i CheckScanner.obj
 0001:0001a420       ?OnPreVerbInPlaceActivate@?$IOleObjectImpl@VCOPOSCheckScanner@@@ATL@@QAEJXZ 1001b420 f i CheckScanner.obj
 0001:0001a430       ?OnPreVerbOpen@?$IOleObjectImpl@VCOPOSCheckScanner@@@ATL@@QAEJXZ 1001b430 f i CheckScanner.obj
 0001:0001a440       ?OnPreVerbShow@?$IOleObjectImpl@VCOPOSCheckScanner@@@ATL@@QAEJXZ 1001b440 f i CheckScanner.obj
 0001:0001a450       ?OnPreVerbUIActivate@?$IOleObjectImpl@VCOPOSCheckScanner@@@ATL@@QAEJXZ 1001b450 f i CheckScanner.obj
 0001:0001a460       ?OnSetFocus@CComControlBase@ATL@@QAEJIIJAAH@Z 1001b460 f i CheckScanner.obj
 0001:0001a5f0       ?OnWindowMessage@?$IOleInPlaceObjectWindowlessImpl@VCOPOSCheckScanner@@@ATL@@UAGJIIJPAJ@Z 1001b5f0 f i CheckScanner.obj
 0001:0001a750       ?Open@CRegKey@ATL@@QAEJPAUHKEY__@@PB_WK@Z 1001b750 f i CheckScanner.obj
 0001:0001a8a0       ?OuterAddRef@CComObjectRootBase@ATL@@QAEKXZ 1001b8a0 f i CheckScanner.obj
 0001:0001a8e0       ?OuterQueryInterface@CComObjectRootBase@ATL@@QAEJABU_GUID@@PAPAX@Z 1001b8e0 f i CheckScanner.obj
 0001:0001a930       ?OuterRelease@CComObjectRootBase@ATL@@QAEKXZ 1001b930 f i CheckScanner.obj
 0001:0001a970       ?PreProcessBuffer@CRegParser@ATL@@QAEJPA_WPAPA_W@Z 1001b970 f i CheckScanner.obj
 0001:0001aeb0       ?PreTranslateAccelerator@CComControlBase@ATL@@QAEHPAUtagMSG@@AAJ@Z 1001beb0 f i CheckScanner.obj
 0001:0001aec0       ?ProcessWindowMessage@?$CComControl@VCOPOSCheckScanner@@V?$CWindowImpl@VCOPOSCheckScanner@@VCWindow@ATL@@V?$CWinTraits@$0FGAAAAAA@$0A@@3@@ATL@@@ATL@@UAEHPAUHWND__@@IIJAAJK@Z 1001bec0 f i CheckScanner.obj
 0001:0001b090       ?ProcessWindowMessage@COPOSCheckScanner@@UAEHPAUHWND__@@IIJAAJK@Z 1001c090 f i CheckScanner.obj
 0001:0001b190       ?PutProperty@?$CComPtr@UIDispatch@@@ATL@@QAEJJPAUtagVARIANT@@@Z 1001c190 f i CheckScanner.obj
 0001:0001b1d0       ?PutProperty@?$CComPtr@UIDispatch@@@ATL@@SAJPAUIDispatch@@JPAUtagVARIANT@@@Z 1001c1d0 f i CheckScanner.obj
 0001:0001b3c0       ?QueryGetData@?$IDataObjectImpl@VCOPOSCheckScanner@@@ATL@@UAGJPAUtagFORMATETC@@@Z 1001c3c0 f i CheckScanner.obj
 0001:0001b430       ?QueryHitPoint@?$IViewObjectExImpl@VCOPOSCheckScanner@@@ATL@@UAGJKPBUtagRECT@@UtagPOINT@@JPAK@Z 1001c430 f i CheckScanner.obj
 0001:0001b540       ?QueryHitRect@?$IViewObjectExImpl@VCOPOSCheckScanner@@@ATL@@UAGJKPBUtagRECT@@0JPAK@Z 1001c540 f i CheckScanner.obj
 0001:0001b690       ?QueryInterface@?$CComAggObject@VCOPOSCheckScanner@@@ATL@@UAGJABU_GUID@@PAPAX@Z 1001c690 f i CheckScanner.obj
 0001:0001b740       ?QueryInterface@?$CComContainedObject@VCOPOSCheckScanner@@@ATL@@UAGJABU_GUID@@PAPAX@Z 1001c740 f i CheckScanner.obj
 0001:0001b764       ?QueryInterface@?$CComContainedObject@VCOPOSCheckScanner@@@ATL@@WHA@AGJABU_GUID@@PAPAX@Z 1001c764 f i CheckScanner.obj
 0001:0001b76e       ?QueryInterface@?$CComContainedObject@VCOPOSCheckScanner@@@ATL@@WHE@AGJABU_GUID@@PAPAX@Z 1001c76e f i CheckScanner.obj
 0001:0001b778       ?QueryInterface@?$CComContainedObject@VCOPOSCheckScanner@@@ATL@@WHI@AGJABU_GUID@@PAPAX@Z 1001c778 f i CheckScanner.obj
 0001:0001b782       ?QueryInterface@?$CComContainedObject@VCOPOSCheckScanner@@@ATL@@WHM@AGJABU_GUID@@PAPAX@Z 1001c782 f i CheckScanner.obj
 0001:0001b78c       ?QueryInterface@?$CComContainedObject@VCOPOSCheckScanner@@@ATL@@WIA@AGJABU_GUID@@PAPAX@Z 1001c78c f i CheckScanner.obj
 0001:0001b799       ?QueryInterface@?$CComContainedObject@VCOPOSCheckScanner@@@ATL@@WIE@AGJABU_GUID@@PAPAX@Z 1001c799 f i CheckScanner.obj
 0001:0001b7a6       ?QueryInterface@?$CComContainedObject@VCOPOSCheckScanner@@@ATL@@WII@AGJABU_GUID@@PAPAX@Z 1001c7a6 f i CheckScanner.obj
 0001:0001b7b3       ?QueryInterface@?$CComContainedObject@VCOPOSCheckScanner@@@ATL@@WIM@AGJABU_GUID@@PAPAX@Z 1001c7b3 f i CheckScanner.obj
 0001:0001b7c0       ?QueryInterface@?$CComContainedObject@VCOPOSCheckScanner@@@ATL@@WJA@AGJABU_GUID@@PAPAX@Z 1001c7c0 f i CheckScanner.obj
 0001:0001b7cd       ?QueryInterface@?$CComContainedObject@VCOPOSCheckScanner@@@ATL@@WJE@AGJABU_GUID@@PAPAX@Z 1001c7cd f i CheckScanner.obj
 0001:0001b7da       ?QueryInterface@?$CComContainedObject@VCOPOSCheckScanner@@@ATL@@WJI@AGJABU_GUID@@PAPAX@Z 1001c7da f i CheckScanner.obj
 0001:0001b7e7       ?QueryInterface@?$CComContainedObject@VCOPOSCheckScanner@@@ATL@@WJM@AGJABU_GUID@@PAPAX@Z 1001c7e7 f i CheckScanner.obj
 0001:0001b7f4       ?QueryInterface@?$CComContainedObject@VCOPOSCheckScanner@@@ATL@@WKA@AGJABU_GUID@@PAPAX@Z 1001c7f4 f i CheckScanner.obj
 0001:0001b810       ?QueryInterface@?$CComObject@V?$CComEnum@UIEnumConnectionPoints@@$1?_GUID_b196b285_bab4_101a_b69c_00aa00341d07@@3U__s_GUID@@BPAUIConnectionPoint@@V?$_CopyInterface@UIConnectionPoint@@@ATL@@VCComSingleThreadModel@6@@ATL@@@ATL@@UAGJABU_GUID@@PAPAX@Z 1001c810 f i CheckScanner.obj
 0001:0001b830       ?QueryInterface@?$CComObject@V?$CComEnum@UIEnumConnections@@$1?_GUID_b196b287_bab4_101a_b69c_00aa00341d07@@3U__s_GUID@@BUtagCONNECTDATA@@V?$_Copy@UtagCONNECTDATA@@@ATL@@VCComSingleThreadModel@6@@ATL@@@ATL@@UAGJABU_GUID@@PAPAX@Z 1001c830 f i CheckScanner.obj
 0001:0001b850       ?QueryInterface@?$CComObject@VCOPOSCheckScanner@@@ATL@@UAGJABU_GUID@@PAPAX@Z 1001c850 f i CheckScanner.obj
 0001:0001b86e       ?QueryInterface@?$CComObject@VCOPOSCheckScanner@@@ATL@@WHA@AGJABU_GUID@@PAPAX@Z 1001c86e f i CheckScanner.obj
 0001:0001b878       ?QueryInterface@?$CComObject@VCOPOSCheckScanner@@@ATL@@WHE@AGJABU_GUID@@PAPAX@Z 1001c878 f i CheckScanner.obj
 0001:0001b882       ?QueryInterface@?$CComObject@VCOPOSCheckScanner@@@ATL@@WHI@AGJABU_GUID@@PAPAX@Z 1001c882 f i CheckScanner.obj
 0001:0001b88c       ?QueryInterface@?$CComObject@VCOPOSCheckScanner@@@ATL@@WHM@AGJABU_GUID@@PAPAX@Z 1001c88c f i CheckScanner.obj
 0001:0001b896       ?QueryInterface@?$CComObject@VCOPOSCheckScanner@@@ATL@@WIA@AGJABU_GUID@@PAPAX@Z 1001c896 f i CheckScanner.obj
 0001:0001b8a3       ?QueryInterface@?$CComObject@VCOPOSCheckScanner@@@ATL@@WIE@AGJABU_GUID@@PAPAX@Z 1001c8a3 f i CheckScanner.obj
 0001:0001b8b0       ?QueryInterface@?$CComObject@VCOPOSCheckScanner@@@ATL@@WII@AGJABU_GUID@@PAPAX@Z 1001c8b0 f i CheckScanner.obj
 0001:0001b8bd       ?QueryInterface@?$CComObject@VCOPOSCheckScanner@@@ATL@@WIM@AGJABU_GUID@@PAPAX@Z 1001c8bd f i CheckScanner.obj
 0001:0001b8ca       ?QueryInterface@?$CComObject@VCOPOSCheckScanner@@@ATL@@WJA@AGJABU_GUID@@PAPAX@Z 1001c8ca f i CheckScanner.obj
 0001:0001b8d7       ?QueryInterface@?$CComObject@VCOPOSCheckScanner@@@ATL@@WJE@AGJABU_GUID@@PAPAX@Z 1001c8d7 f i CheckScanner.obj
 0001:0001b8e4       ?QueryInterface@?$CComObject@VCOPOSCheckScanner@@@ATL@@WJI@AGJABU_GUID@@PAPAX@Z 1001c8e4 f i CheckScanner.obj
 0001:0001b8f1       ?QueryInterface@?$CComObject@VCOPOSCheckScanner@@@ATL@@WJM@AGJABU_GUID@@PAPAX@Z 1001c8f1 f i CheckScanner.obj
 0001:0001b8fe       ?QueryInterface@?$CComObject@VCOPOSCheckScanner@@@ATL@@WKA@AGJABU_GUID@@PAPAX@Z 1001c8fe f i CheckScanner.obj
 0001:0001b910       ?QueryInterface@?$CComObjectCached@VCComClassFactory@ATL@@@ATL@@UAGJABU_GUID@@PAPAX@Z 1001c910 f i CheckScanner.obj
 0001:0001b930       ?QueryInterface@CRegObject@ATL@@UAGJABU_GUID@@PAPAX@Z 1001c930 f i CheckScanner.obj
 0001:0001b980       ?QuickActivate@?$IQuickActivateImpl@VCOPOSCheckScanner@@@ATL@@UAGJPAUtagQACONTAINER@@PAUtagQACONTROL@@@Z 1001c980 f i CheckScanner.obj
 0001:0001ba10       ?ReactivateAndUndo@?$IOleInPlaceObjectWindowlessImpl@VCOPOSCheckScanner@@@ATL@@UAGJXZ 1001ca10 f i CheckScanner.obj
 0001:0001ba80       ?ReadFromStream@CComBSTR@ATL@@QAEJPAUIStream@@@Z 1001ca80 f i CheckScanner.obj
 0001:0001be80       ?ReadFromStream@CComVariant@ATL@@QAEJPAUIStream@@GTClassesAllowedInStream@2@K@Z 1001ce80 f i CheckScanner.obj
 0001:0001c200       ?RecurseDeleteKey@CRegKey@ATL@@QAEJPB_W@Z 1001d200 f i CheckScanner.obj
 0001:0001c3e0       ?RegCreateKeyExW@CAtlTransactionManager@ATL@@QAEJPAUHKEY__@@PB_WKPA_WKKQAU_SECURITY_ATTRIBUTES@@PAPAU3@PAK@Z 1001d3e0 f i CheckScanner.obj
 0001:0001c510       ?RegDeleteKeyW@CAtlTransactionManager@ATL@@QAEJPAUHKEY__@@PB_W@Z 1001d510 f i CheckScanner.obj
 0001:0001c610       ?RegOpenKeyExW@CAtlTransactionManager@ATL@@QAEJPAUHKEY__@@PB_WKKPAPAU3@@Z 1001d610 f i CheckScanner.obj
 0001:0001c720       ?Register@_ATL_WNDCLASSINFOW@ATL@@QAEGPAP6GJPAUHWND__@@IIJ@Z@Z 1001d720 f i CheckScanner.obj
 0001:0001c760       ?RegisterBuffer@CRegParser@ATL@@QAEJPA_WH@Z 1001d760 f i CheckScanner.obj
 0001:0001ca90       ?RegisterClassExW@AtlModuleRegisterWndClassInfoParamW@ATL@@SAGPAU_ATL_WIN_MODULE70@2@PBUtagWNDCLASSEXW@@@Z 1001da90 f i CheckScanner.obj
 0001:0001cab0       ?RegisterFromResource@CRegObject@ATL@@IAEJPB_W00H@Z 1001dab0 f i CheckScanner.obj
 0001:0001ce40       ?RegisterServer@?$CAtlModuleT@VCComModule@ATL@@@ATL@@QAEJHPBU_GUID@@@Z 1001de40 f i CheckScanner.obj
 0001:0001cec0       ?RegisterServer@CAtlComModule@ATL@@QAEJHPBU_GUID@@@Z 1001dec0 f i CheckScanner.obj
 0001:0001cef0       ?RegisterServer@CComModule@ATL@@QAEJHPBU_GUID@@@Z 1001def0 f i CheckScanner.obj
 0001:0001cfd0       ?RegisterSubkeys@CRegParser@ATL@@IAEJPA_WPAUHKEY__@@HH@Z 1001dfd0 f i CheckScanner.obj
 0001:0001daf0       ?Release@?$CComAggObject@VCOPOSCheckScanner@@@ATL@@UAGKXZ 1001eaf0 f i CheckScanner.obj
 0001:0001dbb0       ?Release@?$CComContainedObject@VCOPOSCheckScanner@@@ATL@@UAGKXZ 1001ebb0 f i CheckScanner.obj
 0001:0001dbcc       ?Release@?$CComContainedObject@VCOPOSCheckScanner@@@ATL@@WHA@AGKXZ 1001ebcc f i CheckScanner.obj
 0001:0001dbd6       ?Release@?$CComContainedObject@VCOPOSCheckScanner@@@ATL@@WHE@AGKXZ 1001ebd6 f i CheckScanner.obj
 0001:0001dbe0       ?Release@?$CComContainedObject@VCOPOSCheckScanner@@@ATL@@WHI@AGKXZ 1001ebe0 f i CheckScanner.obj
 0001:0001dbea       ?Release@?$CComContainedObject@VCOPOSCheckScanner@@@ATL@@WHM@AGKXZ 1001ebea f i CheckScanner.obj
 0001:0001dbf4       ?Release@?$CComContainedObject@VCOPOSCheckScanner@@@ATL@@WIA@AGKXZ 1001ebf4 f i CheckScanner.obj
 0001:0001dc01       ?Release@?$CComContainedObject@VCOPOSCheckScanner@@@ATL@@WIE@AGKXZ 1001ec01 f i CheckScanner.obj
 0001:0001dc0e       ?Release@?$CComContainedObject@VCOPOSCheckScanner@@@ATL@@WII@AGKXZ 1001ec0e f i CheckScanner.obj
 0001:0001dc1b       ?Release@?$CComContainedObject@VCOPOSCheckScanner@@@ATL@@WIM@AGKXZ 1001ec1b f i CheckScanner.obj
 0001:0001dc28       ?Release@?$CComContainedObject@VCOPOSCheckScanner@@@ATL@@WJA@AGKXZ 1001ec28 f i CheckScanner.obj
 0001:0001dc35       ?Release@?$CComContainedObject@VCOPOSCheckScanner@@@ATL@@WJE@AGKXZ 1001ec35 f i CheckScanner.obj
 0001:0001dc42       ?Release@?$CComContainedObject@VCOPOSCheckScanner@@@ATL@@WJI@AGKXZ 1001ec42 f i CheckScanner.obj
 0001:0001dc4f       ?Release@?$CComContainedObject@VCOPOSCheckScanner@@@ATL@@WJM@AGKXZ 1001ec4f f i CheckScanner.obj
 0001:0001dc5c       ?Release@?$CComContainedObject@VCOPOSCheckScanner@@@ATL@@WKA@AGKXZ 1001ec5c f i CheckScanner.obj
 0001:0001dc69       ?Release@?$CComContainedObject@VCOPOSCheckScanner@@@ATL@@WKI@AGKXZ 1001ec69 f i CheckScanner.obj
 0001:0001dc76       ?Release@?$CComContainedObject@VCOPOSCheckScanner@@@ATL@@WLE@AGKXZ 1001ec76 f i CheckScanner.obj
 0001:0001dc90       ?Release@?$CComObject@V?$CComEnum@UIEnumConnectionPoints@@$1?_GUID_b196b285_bab4_101a_b69c_00aa00341d07@@3U__s_GUID@@BPAUIConnectionPoint@@V?$_CopyInterface@UIConnectionPoint@@@ATL@@VCComSingleThreadModel@6@@ATL@@@ATL@@UAGKXZ 1001ec90 f i CheckScanner.obj
 0001:0001dd50       ?Release@?$CComObject@V?$CComEnum@UIEnumConnections@@$1?_GUID_b196b287_bab4_101a_b69c_00aa00341d07@@3U__s_GUID@@BUtagCONNECTDATA@@V?$_Copy@UtagCONNECTDATA@@@ATL@@VCComSingleThreadModel@6@@ATL@@@ATL@@UAGKXZ 1001ed50 f i CheckScanner.obj
 0001:0001de10       ?Release@?$CComObject@VCOPOSCheckScanner@@@ATL@@UAGKXZ 1001ee10 f i CheckScanner.obj
 0001:0001dec9       ?Release@?$CComObject@VCOPOSCheckScanner@@@ATL@@WHA@AGKXZ 1001eec9 f i CheckScanner.obj
 0001:0001ded3       ?Release@?$CComObject@VCOPOSCheckScanner@@@ATL@@WHE@AGKXZ 1001eed3 f i CheckScanner.obj
 0001:0001dedd       ?Release@?$CComObject@VCOPOSCheckScanner@@@ATL@@WHI@AGKXZ 1001eedd f i CheckScanner.obj
 0001:0001dee7       ?Release@?$CComObject@VCOPOSCheckScanner@@@ATL@@WHM@AGKXZ 1001eee7 f i CheckScanner.obj
 0001:0001def1       ?Release@?$CComObject@VCOPOSCheckScanner@@@ATL@@WIA@AGKXZ 1001eef1 f i CheckScanner.obj
 0001:0001defe       ?Release@?$CComObject@VCOPOSCheckScanner@@@ATL@@WIE@AGKXZ 1001eefe f i CheckScanner.obj
 0001:0001df0b       ?Release@?$CComObject@VCOPOSCheckScanner@@@ATL@@WII@AGKXZ 1001ef0b f i CheckScanner.obj
 0001:0001df18       ?Release@?$CComObject@VCOPOSCheckScanner@@@ATL@@WIM@AGKXZ 1001ef18 f i CheckScanner.obj
 0001:0001df25       ?Release@?$CComObject@VCOPOSCheckScanner@@@ATL@@WJA@AGKXZ 1001ef25 f i CheckScanner.obj
 0001:0001df32       ?Release@?$CComObject@VCOPOSCheckScanner@@@ATL@@WJE@AGKXZ 1001ef32 f i CheckScanner.obj
 0001:0001df3f       ?Release@?$CComObject@VCOPOSCheckScanner@@@ATL@@WJI@AGKXZ 1001ef3f f i CheckScanner.obj
 0001:0001df4c       ?Release@?$CComObject@VCOPOSCheckScanner@@@ATL@@WJM@AGKXZ 1001ef4c f i CheckScanner.obj
 0001:0001df59       ?Release@?$CComObject@VCOPOSCheckScanner@@@ATL@@WKA@AGKXZ 1001ef59 f i CheckScanner.obj
 0001:0001df66       ?Release@?$CComObject@VCOPOSCheckScanner@@@ATL@@WKI@AGKXZ 1001ef66 f i CheckScanner.obj
 0001:0001df73       ?Release@?$CComObject@VCOPOSCheckScanner@@@ATL@@WLE@AGKXZ 1001ef73 f i CheckScanner.obj
 0001:0001df80       ?Release@?$CComObjectCached@VCComClassFactory@ATL@@@ATL@@UAGKXZ 1001ef80 f i CheckScanner.obj
 0001:0001e020       ?Release@?$CComPtrBase@UIAdviseSink@@@ATL@@QAEXXZ 1001f020 f i CheckScanner.obj
 0001:0001e080       ?Release@?$CComPtrBase@UIDispatch@@@ATL@@QAEXXZ 1001f080 f i CheckScanner.obj
 0001:0001e0e0       ?Release@?$CComPtrBase@UIOleInPlaceSiteWindowless@@@ATL@@QAEXXZ 1001f0e0 f i CheckScanner.obj
 0001:0001e140       ?Release@CRegObject@ATL@@UAGKXZ 1001f140 f i CheckScanner.obj
 0001:0001e180       ?Remove@CComDynamicUnkArray@ATL@@QAEHK@Z 1001f180 f i CheckScanner.obj
 0001:0001e230       ?RemoveAll@?$CSimpleMap@PA_WPA_WVCExpansionVectorEqualHelper@ATL@@@ATL@@QAEXXZ 1001f230 f i CheckScanner.obj
 0001:0001e2c0       ?Reset@?$CComEnumImpl@UIEnumConnectionPoints@@$1?_GUID_b196b285_bab4_101a_b69c_00aa00341d07@@3U__s_GUID@@BPAUIConnectionPoint@@V?$_CopyInterface@UIConnectionPoint@@@ATL@@@ATL@@UAGJXZ 1001f2c0 f i CheckScanner.obj
 0001:0001e2e0       ?Reset@?$CComEnumImpl@UIEnumConnections@@$1?_GUID_b196b287_bab4_101a_b69c_00aa00341d07@@3U__s_GUID@@BUtagCONNECTDATA@@V?$_Copy@UtagCONNECTDATA@@@ATL@@@ATL@@UAGJXZ 1001f2e0 f i CheckScanner.obj
 0001:0001e300       ?ResizeBorder@?$IOleInPlaceActiveObjectImpl@VCOPOSCheckScanner@@@ATL@@UAGJPBUtagRECT@@PAUIOleInPlaceUIWindow@@H@Z 1001f300 f i CheckScanner.obj
 0001:0001e360       ?ResourceRegister@CRegObject@ATL@@QAGJPB_WI0@Z 1001f360 f i CheckScanner.obj
 0001:0001e440       ?ResourceRegisterSz@CRegObject@ATL@@QAGJPB_W00@Z 1001f440 f i CheckScanner.obj
 0001:0001e540       ?ResourceUnregister@CRegObject@ATL@@QAGJPB_WI0@Z 1001f540 f i CheckScanner.obj
 0001:0001e620       ?ResourceUnregisterSz@CRegObject@ATL@@QAGJPB_W00@Z 1001f620 f i CheckScanner.obj
 0001:0001e720       ?SOData@COPOSCheckScanner@@MAGJJ@Z 1001f720 f i CheckScanner.obj
 0001:0001e7a0       ?SODirectIO@COPOSCheckScanner@@MAGJJPAJPAPA_W@Z 1001f7a0 f i CheckScanner.obj
 0001:0001e960       ?SOError@COPOSCheckScanner@@MAGJJJJPAJ@Z 1001f960 f i CheckScanner.obj
 0001:0001ea20       ?SOOutputCompleteDummy@COPOSCheckScanner@@MAGJJ@Z 1001fa20 f i CheckScanner.obj
 0001:0001ea30       ?SOStatusUpdate@COPOSCheckScanner@@MAGJJ@Z 1001fa30 f i CheckScanner.obj
 0001:0001eab0       ?Save@?$IPersistStorageImpl@VCOPOSCheckScanner@@@ATL@@UAGJPAUIStorage@@H@Z 1001fab0 f i CheckScanner.obj
 0001:0001ec10       ?Save@?$IPersistStreamInitImpl@VCOPOSCheckScanner@@@ATL@@UAGJPAUIStream@@H@Z 1001fc10 f i CheckScanner.obj
 0001:0001eca0       ?SaveCompleted@?$IPersistStorageImpl@VCOPOSCheckScanner@@@ATL@@UAGJPAUIStorage@@@Z 1001fca0 f i CheckScanner.obj
 0001:0001ed00       ?SendOnDataChange@CComControlBase@ATL@@QAEJK@Z 1001fd00 f i CheckScanner.obj
 0001:0001edf0       ?SendOnSave@CComControlBase@ATL@@QAEJXZ 1001fdf0 f i CheckScanner.obj
 0001:0001ee60       ?SendOnViewChange@CComControlBase@ATL@@QAEJKJ@Z 1001fe60 f i CheckScanner.obj
 0001:0001eed0       ?SetAdvise@?$IViewObjectExImpl@VCOPOSCheckScanner@@@ATL@@UAGJKKPAUIAdviseSink@@@Z 1001fed0 f i CheckScanner.obj
 0001:0001ef60       ?SetClientSite@?$IOleObjectImpl@VCOPOSCheckScanner@@@ATL@@UAGJPAUIOleClientSite@@@Z 1001ff60 f i CheckScanner.obj
 0001:0001eff0       ?SetColorScheme@?$IOleObjectImpl@VCOPOSCheckScanner@@@ATL@@UAGJPAUtagLOGPALETTE@@@Z 1001fff0 f i CheckScanner.obj
 0001:0001f060       ?SetContentExtent@?$IQuickActivateImpl@VCOPOSCheckScanner@@@ATL@@UAGJPAUtagSIZE@@@Z 10020060 f i CheckScanner.obj
 0001:0001f0f0       ?SetControlFocus@CComControlBase@ATL@@QAEHH@Z 100200f0 f i CheckScanner.obj
 0001:0001f270       ?SetDWORDValue@CRegKey@ATL@@QAEJPB_WK@Z 10020270 f i CheckScanner.obj
 0001:0001f2f0       ?SetData@?$IDataObjectImpl@VCOPOSCheckScanner@@@ATL@@UAGJPAUtagFORMATETC@@PAUtagSTGMEDIUM@@H@Z 100202f0 f i CheckScanner.obj
 0001:0001f360       ?SetExtent@?$IOleObjectImpl@VCOPOSCheckScanner@@@ATL@@UAGJKPAUtagSIZE@@@Z 10020360 f i CheckScanner.obj
 0001:0001f3f0       ?SetHostNames@?$IOleObjectImpl@VCOPOSCheckScanner@@@ATL@@UAGJPB_W0@Z 100203f0 f i CheckScanner.obj
 0001:0001f450       ?SetInterfaceSafetyOptions@?$IObjectSafetyImpl@VCOPOSCheckScanner@@$02@ATL@@UAGJABU_GUID@@KK@Z 10020450 f i CheckScanner.obj
 0001:0001f5c0       ?SetMoniker@?$IOleObjectImpl@VCOPOSCheckScanner@@@ATL@@UAGJKPAUIMoniker@@@Z 100205c0 f i CheckScanner.obj
 0001:0001f630       ?SetMultiStringValue@CRegKey@ATL@@QAEJPB_W0@Z 10020630 f i CheckScanner.obj
 0001:0001f750       ?SetObjectRects@?$IOleInPlaceObjectWindowlessImpl@VCOPOSCheckScanner@@@ATL@@UAGJPBUtagRECT@@0@Z 10020750 f i CheckScanner.obj
 0001:0001f7e0       ?SetStringValue@CRegKey@ATL@@QAEJPB_W0K@Z 100207e0 f i CheckScanner.obj
 0001:0001f910       ?SetVoid@CComClassFactory@ATL@@QAEXPAX@Z 10020910 f i CheckScanner.obj
 0001:0001f930       ?SetVoid@CComObjectRootBase@ATL@@QAEXPAX@Z 10020930 f i CheckScanner.obj
 0001:0001f940       ?SetWindowLongPtrW@@YAJPAUHWND__@@HJ@Z 10020940 f i CheckScanner.obj
 0001:0001f970       ?ShowWindow@CWindow@ATL@@QAEHH@Z 10020970 f i CheckScanner.obj
 0001:0001f9f0       ?Skip@?$CComEnumImpl@UIEnumConnectionPoints@@$1?_GUID_b196b285_bab4_101a_b69c_00aa00341d07@@3U__s_GUID@@BPAUIConnectionPoint@@V?$_CopyInterface@UIConnectionPoint@@@ATL@@@ATL@@UAGJK@Z 100209f0 f i CheckScanner.obj
 0001:0001fa60       ?Skip@?$CComEnumImpl@UIEnumConnections@@$1?_GUID_b196b287_bab4_101a_b69c_00aa00341d07@@3U__s_GUID@@BUtagCONNECTDATA@@V?$_Copy@UtagCONNECTDATA@@@ATL@@@ATL@@UAGJK@Z 10020a60 f i CheckScanner.obj
 0001:0001fad0       ?SkipAssignment@CRegParser@ATL@@IAEJPA_W@Z 10020ad0 f i CheckScanner.obj
 0001:0001fbb0       ?SkipWhiteSpace@CRegParser@ATL@@IAEXXZ 10020bb0 f i CheckScanner.obj
 0001:0001fc00       ?StartWindowProc@?$CWindowImplBaseT@VCWindow@ATL@@V?$CWinTraits@$0FGAAAAAA@$0A@@2@@ATL@@SGJPAUHWND__@@IIJ@Z 10020c00 f i CheckScanner.obj
 0001:0001fd20       ?StrChrW@CRegParser@ATL@@KAPA_WPA_W_W@Z 10020d20 f i CheckScanner.obj
 0001:0001fd90       ?StrFromMap@CRegObject@ATL@@QAEPB_WPA_W@Z 10020d90 f i CheckScanner.obj
 0001:0001fe20       ?Swap@?$CComPtrBase@UIAdviseSink@@@ATL@@IAEXAAV12@@Z 10020e20 f i CheckScanner.obj
 0001:0001fe50       ?Swap@?$CComPtrBase@UIOleClientSite@@@ATL@@IAEXAAV12@@Z 10020e50 f i CheckScanner.obj
 0001:0001fe80       ?Swap@?$CComPtrBase@UIUnknown@@@ATL@@IAEXAAV12@@Z 10020e80 f i CheckScanner.obj
 0001:0001feb0       ?T2COLE_EX@@YAPB_WPB_WI@Z  10020eb0 f i CheckScanner.obj
 0001:0001fec0       ?T2OLE_EX@@YAPA_WPA_WI@Z   10020ec0 f i CheckScanner.obj
 0001:0001fed0       ?Term@CAtlModule@ATL@@QAEXXZ 10020ed0 f i CheckScanner.obj
 0001:0001ff80       ?Term@CComModule@ATL@@QAEXXZ 10020f80 f i CheckScanner.obj
 0001:00020070       ?TranslateAcceleratorW@?$IOleInPlaceActiveObjectImpl@VCOPOSCheckScanner@@@ATL@@UAGJPAUtagMSG@@@Z 10021070 f i CheckScanner.obj
 0001:00020270       ?UIDeactivate@?$IOleInPlaceObjectWindowlessImpl@VCOPOSCheckScanner@@@ATL@@UAGJXZ 10021270 f i CheckScanner.obj
 0001:000202f0       ?Unadvise@?$CProxy_IOPOSEvents@VCOPOSCheckScanner@@@@UAGJK@Z 100212f0 f i CheckScanner.obj
 0001:00020330       ?Unadvise@?$IConnectionPointImpl@VCOPOSCheckScanner@@$1?DIID__IOPOSCheckScannerEvents@@3U_GUID@@BVCComDynamicUnkArray@ATL@@@ATL@@UAGJK@Z 10021330 f i CheckScanner.obj
 0001:00020400       ?Unadvise@?$IConnectionPointImpl@VCOPOSCheckScanner@@$1?IID_IPropertyNotifySink@@3U_GUID@@BVCComDynamicUnkArray@ATL@@@ATL@@UAGJK@Z 10021400 f i CheckScanner.obj
 0001:000204d0       ?Unadvise@?$IOleObjectImpl@VCOPOSCheckScanner@@@ATL@@UAGJK@Z 100214d0 f i CheckScanner.obj
 0001:000205a0       ?Unfreeze@?$IViewObjectExImpl@VCOPOSCheckScanner@@@ATL@@UAGJK@Z 100215a0 f i CheckScanner.obj
 0001:00020610       ?Unlock@?$CComCritSecLock@VCComCriticalSection@ATL@@@ATL@@QAEXXZ 10021610 f i CheckScanner.obj
 0001:00020680       ?Unlock@?$CComObjectRootEx@VCComSingleThreadModel@ATL@@@ATL@@QAEXXZ 10021680 f i CheckScanner.obj
 0001:00020690       ?Unlock@CAtlModule@ATL@@UAEJXZ 10021690 f i CheckScanner.obj
 0001:000206c0       ?Unlock@CComCriticalSection@ATL@@QAEJXZ 100216c0 f i CheckScanner.obj
 0001:00020700       ?Unlock@CComFakeCriticalSection@ATL@@QAEJXZ 10021700 f i CheckScanner.obj
 0001:00020710       ?UnregisterServer@?$CAtlModuleT@VCComModule@ATL@@@ATL@@QAEJHPBU_GUID@@@Z 10021710 f i CheckScanner.obj
 0001:00020780       ?UnregisterServer@CAtlComModule@ATL@@QAEJHPBU_GUID@@@Z 10021780 f i CheckScanner.obj
 0001:000207b0       ?UnregisterServer@CComModule@ATL@@QAEJHPBU_GUID@@@Z 100217b0 f i CheckScanner.obj
 0001:00020890       ?Update@?$IOleObjectImpl@VCOPOSCheckScanner@@@ATL@@UAGJXZ 10021890 f i CheckScanner.obj
 0001:000208f0       ?UpdateRegistryFromResource@CAtlModule@ATL@@QAGJIHPAU_ATL_REGMAP_ENTRY@2@@Z 100218f0 f i CheckScanner.obj
 0001:00020dc0       ?UpdateRegistryFromResource@CAtlModule@ATL@@QAGJPB_WHPAU_ATL_REGMAP_ENTRY@2@@Z 10021dc0 f i CheckScanner.obj
 0001:000212b0       ?UpdateRegistryFromResource@CComModule@ATL@@UAGJIHPAU_ATL_REGMAP_ENTRY@2@@Z 100222b0 f i CheckScanner.obj
 0001:000212e0       ?UpdateRegistryFromResource@CComModule@ATL@@UAGJPB_WHPAU_ATL_REGMAP_ENTRY@2@@Z 100222e0 f i CheckScanner.obj
 0001:00021310       ?UpdateRegistryFromResourceD@CComModule@ATL@@UAGJIHPAU_ATL_REGMAP_ENTRY@2@@Z 10022310 f i CheckScanner.obj
 0001:00021320       ?UpdateRegistryFromResourceD@CComModule@ATL@@UAGJPB_WHPAU_ATL_REGMAP_ENTRY@2@@Z 10022320 f i CheckScanner.obj
 0001:00021330       ?VTFromRegType@CRegParser@ATL@@KAHPB_WAAG@Z 10022330 f i CheckScanner.obj
 0001:00021410       ?WindowProc@?$CWindowImplBaseT@VCWindow@ATL@@V?$CWinTraits@$0FGAAAAAA@$0A@@2@@ATL@@SGJPAUHWND__@@IIJ@Z 10022410 f i CheckScanner.obj
 0001:00021620       ?WriteToStream@CComBSTR@ATL@@QAEJPAUIStream@@@Z 10022620 f i CheckScanner.obj
 0001:00021780       ?WriteToStream@CComVariant@ATL@@QAEJPAUIStream@@@Z 10022780 f i CheckScanner.obj
 0001:00021ae0       ?WriteToStream@CComVariant@ATL@@QAEJPAUIStream@@G@Z 10022ae0 f i CheckScanner.obj
 0001:00021bb0       ?_AtlFinalConstruct@CComObjectRootBase@ATL@@QAEJXZ 10022bb0 f i CheckScanner.obj
 0001:00021bc0       ?_AtlGetConversionACP@ATL@@YGIXZ 10022bc0 f i CheckScanner.obj
 0001:00021bd0       ?_AtlInitialConstruct@?$CComAggObject@VCOPOSCheckScanner@@@ATL@@QAEJXZ 10022bd0 f i CheckScanner.obj
 0001:00021c20       ?_AtlInitialConstruct@?$CComObjectRootEx@VCComMultiThreadModel@ATL@@@ATL@@QAEJXZ 10022c20 f i CheckScanner.obj
 0001:00021c50       ?_AtlInitialConstruct@?$CComObjectRootEx@VCComSingleThreadModel@ATL@@@ATL@@QAEJXZ 10022c50 f i CheckScanner.obj
 0001:00021c60       ?_AtlVerifyStackAvailable@_ATL_SAFE_ALLOCA_IMPL@ATL@@YA_NK@Z 10022c60 f i CheckScanner.obj
 0001:00021e10       ?_GetEntries@?$CComEnum@UIEnumConnectionPoints@@$1?_GUID_b196b285_bab4_101a_b69c_00aa00341d07@@3U__s_GUID@@BPAUIConnectionPoint@@V?$_CopyInterface@UIConnectionPoint@@@ATL@@VCComSingleThreadModel@6@@ATL@@SGPBU_ATL_INTMAP_ENTRY@2@XZ 10022e10 f i CheckScanner.obj
 0001:00021e30       ?_GetEntries@?$CComEnum@UIEnumConnections@@$1?_GUID_b196b287_bab4_101a_b69c_00aa00341d07@@3U__s_GUID@@BUtagCONNECTDATA@@V?$_Copy@UtagCONNECTDATA@@@ATL@@VCComSingleThreadModel@6@@ATL@@SGPBU_ATL_INTMAP_ENTRY@2@XZ 10022e30 f i CheckScanner.obj
 0001:00021e50       ?_GetEntries@CComClassFactory@ATL@@SGPBU_ATL_INTMAP_ENTRY@2@XZ 10022e50 f i CheckScanner.obj
 0001:00021e70       ?_GetEntries@COPOSCheckScanner@@SGPBU_ATL_INTMAP_ENTRY@ATL@@XZ 10022e70 f i CheckScanner.obj
 0001:00021e90       ?_GetRawUnknown@COPOSCheckScanner@@QAEPAUIUnknown@@XZ 10022e90 f i CheckScanner.obj
 0001:00021f00       ?_GetViewStatus@COPOSCheckScanner@@QAEKXZ 10022f00 f i CheckScanner.obj
 0001:00021f10       ?_InternalQueryInterface@?$CComEnum@UIEnumConnectionPoints@@$1?_GUID_b196b285_bab4_101a_b69c_00aa00341d07@@3U__s_GUID@@BPAUIConnectionPoint@@V?$_CopyInterface@UIConnectionPoint@@@ATL@@VCComSingleThreadModel@6@@ATL@@QAEJABU_GUID@@PAPAX@Z 10022f10 f i CheckScanner.obj
 0001:00021f50       ?_InternalQueryInterface@?$CComEnum@UIEnumConnections@@$1?_GUID_b196b287_bab4_101a_b69c_00aa00341d07@@3U__s_GUID@@BUtagCONNECTDATA@@V?$_Copy@UtagCONNECTDATA@@@ATL@@VCComSingleThreadModel@6@@ATL@@QAEJABU_GUID@@PAPAX@Z 10022f50 f i CheckScanner.obj
 0001:00021f90       ?_InternalQueryInterface@CComClassFactory@ATL@@QAEJABU_GUID@@PAPAX@Z 10022f90 f i CheckScanner.obj
 0001:00021fd0       ?_InternalQueryInterface@COPOSCheckScanner@@QAEJABU_GUID@@PAPAX@Z 10022fd0 f i CheckScanner.obj
 0001:00022010       ?_LocCPQueryInterface@?$IConnectionPointImpl@VCOPOSCheckScanner@@$1?DIID__IOPOSCheckScannerEvents@@3U_GUID@@BVCComDynamicUnkArray@ATL@@@ATL@@UAGJABU_GUID@@PAPAX@Z 10023010 f i CheckScanner.obj
 0001:000220b0       ?_LocCPQueryInterface@?$IConnectionPointImpl@VCOPOSCheckScanner@@$1?IID_IPropertyNotifySink@@3U_GUID@@BVCComDynamicUnkArray@ATL@@@ATL@@UAGJABU_GUID@@PAPAX@Z 100230b0 f i CheckScanner.obj
 0001:00022150       ?atlCreate@?$CWindowImpl@VCOPOSCheckScanner@@VCWindow@ATL@@V?$CWinTraits@$0FGAAAAAA@$0A@@3@@ATL@@QAEPAUHWND__@@PAU3@V_U_RECT@2@PB_WKKV_U_MENUorID@2@PAX@Z 10023150 f i CheckScanner.obj
 0001:00022200       ?atlCreate@?$CWindowImplBaseT@VCWindow@ATL@@V?$CWinTraits@$0FGAAAAAA@$0A@@2@@ATL@@QAEPAUHWND__@@PAU3@V_U_RECT@2@PB_WKKV_U_MENUorID@2@GPAX@Z 10023200 f i CheckScanner.obj
 0001:00022380       ?atlCreate@CRegKey@ATL@@QAEJPAUHKEY__@@PB_WPA_WKKPAU_SECURITY_ATTRIBUTES@@PAK@Z 10023380 f i CheckScanner.obj
 0001:000224e0       ?begin@CComDynamicUnkArray@ATL@@QAEPAPAUIUnknown@@XZ 100234e0 f i CheckScanner.obj
 0001:000224f0       ?copy@?$_Copy@UtagCONNECTDATA@@@ATL@@SAJPAUtagCONNECTDATA@@PBU3@@Z 100234f0 f i CheckScanner.obj
 0001:000225b0       ?copy@?$_CopyInterface@UIConnectionPoint@@@ATL@@SAJPAPAUIConnectionPoint@@PBQAU3@@Z 100235b0 f i CheckScanner.obj
 0001:00022670       ?destroy@?$_Copy@UtagCONNECTDATA@@@ATL@@SAXPAUtagCONNECTDATA@@@Z 10023670 f i CheckScanner.obj
 0001:000226b0       ?destroy@?$_CopyInterface@UIConnectionPoint@@@ATL@@SAXPAPAUIConnectionPoint@@@Z 100236b0 f i CheckScanner.obj
 0001:000226f0       ?end@CComDynamicUnkArray@ATL@@QAEPAPAUIUnknown@@XZ 100236f0 f i CheckScanner.obj
 0001:00022710       ?init@?$_Copy@UtagCONNECTDATA@@@ATL@@SAXPAUtagCONNECTDATA@@@Z 10023710 f i CheckScanner.obj
 0001:00022720       ?init@?$_CopyInterface@UIConnectionPoint@@@ATL@@SAXPAPAUIConnectionPoint@@@Z 10023720 f i CheckScanner.obj
 0001:00022730       ?memcpy_s@Checked@ATL@@YAXPAXIPBXI@Z 10023730 f i CheckScanner.obj
 0001:00022760       ?ocscpy_s@@YA_NPA_WIPB_W@Z 10023760 f i CheckScanner.obj
 0001:000227c0       ?ocslen@@YAHPB_W@Z         100237c0 f i CheckScanner.obj
 0001:000227f0       ?tcsncpy_s@Checked@ATL@@YAHPA_WIPB_WI@Z 100237f0 f i CheckScanner.obj
 0001:00022820       ?wcscat_s@Checked@ATL@@YAXPA_WIPB_W@Z 10023820 f i CheckScanner.obj
 0001:00022850       ?wcscpy_s@Checked@ATL@@YAXPA_WIPB_W@Z 10023850 f i CheckScanner.obj
 0001:00022880       ?wcsncpy_s@Checked@ATL@@YAHPA_WIPB_WI@Z 10023880 f i CheckScanner.obj
 0001:000228b0       ?wcsstr@@YAPA_WPA_WPB_W@Z  100238b0 f i CheckScanner.obj
 0001:000228d0       _InlineIsEqualGUID         100238d0 f i CheckScanner.obj
 0001:00022970       _IsEqualGUID               10023970 f i CheckScanner.obj
 0001:000229c0       ??0COPOSCheckScanner@@QAE@XZ 100239c0 f   CheckScannerImpl.obj
 0001:00022ad0       ?FinalConstruct@COPOSCheckScanner@@QAEJXZ 10023ad0 f   CheckScannerImpl.obj
 0001:00022ba0       ??1COPOSCheckScanner@@UAE@XZ 10023ba0 f   CheckScannerImpl.obj
 0001:00022c80       ?WriteTrace@COPOSCheckScanner@@QAAXPB_WZZ 10023c80 f   CheckScannerImpl.obj
 0001:00022d30       ?WriteTraceString@COPOSCheckScanner@@QAEXPB_WPA_W@Z 10023d30 f   CheckScannerImpl.obj
 0001:000230a0       ?WriteTraceString@COPOSCheckScanner@@QAAXPAXHHHPB_WZZ 100240a0 f   CheckScannerImpl.obj
 0001:000232d0       ?WriteTraceError@COPOSCheckScanner@@QAEXPB_WK@Z 100242d0 f   CheckScannerImpl.obj
 0001:000233c0       ?WriteTraceMethods@COPOSCheckScanner@@QAEXPAJH@Z 100243c0 f   CheckScannerImpl.obj
 0001:00023430       ?GetOposProp@COPOSCheckScanner@@IAEJPBDJPAJJ@Z 10024430 f   CheckScannerImpl.obj
 0001:000236a0       ?SetOposProp@COPOSCheckScanner@@IAEJPBDJJJ@Z 100246a0 f   CheckScannerImpl.obj
 0001:00023930       ?GetOposProp@COPOSCheckScanner@@IAEJPBDJPAFJ@Z 10024930 f   CheckScannerImpl.obj
 0001:000239d0       ?SetOposProp@COPOSCheckScanner@@IAEJPBDJFJ@Z 100249d0 f   CheckScannerImpl.obj
 0001:00023a30       ?GetOposProp@COPOSCheckScanner@@IAEJPBDJPAPA_WJ@Z 10024a30 f   CheckScannerImpl.obj
 0001:00023cb0       ?SetOposProp@COPOSCheckScanner@@IAEJPBDJPA_WJ@Z 10024cb0 f   CheckScannerImpl.obj
 0001:00023ff0       ?DoInvoke@COPOSCheckScanner@@IAEJPBDJPAVOposVariant@@IHPAJ_N@Z 10024ff0 f   CheckScannerImpl.obj
 0001:00024920       ?SetCOFreezeEvents@COPOSCheckScanner@@IAEXF@Z 10025920 f   CheckScannerImpl.obj
 0001:00024a60       ?FreezeEvents@COPOSCheckScanner@@MAGJH@Z 10025a60 f   CheckScannerImpl.obj
 0001:00024b40       ?OnDraw@COPOSCheckScanner@@MAEJAAUATL_DRAWINFO@@@Z 10025b40 f   CheckScannerImpl.obj
 0001:00024ce0       ?SOProcessID@COPOSCheckScanner@@UAGJPAJ@Z 10025ce0 f   CheckScannerImpl.obj
 0001:00024d20       ?get_OpenResult@COPOSCheckScanner@@UAGJPAJ@Z 10025d20 f   CheckScannerImpl.obj
 0001:00024d60       ?get_AutoDisable@COPOSCheckScanner@@UAGJPAF@Z 10025d60 f   CheckScannerImpl.obj
 0001:00024d90       ?put_AutoDisable@COPOSCheckScanner@@UAGJF@Z 10025d90 f   CheckScannerImpl.obj
 0001:00024dc0       ?get_BinaryConversion@COPOSCheckScanner@@UAGJPAJ@Z 10025dc0 f   CheckScannerImpl.obj
 0001:00024df0       ?put_BinaryConversion@COPOSCheckScanner@@UAGJJ@Z 10025df0 f   CheckScannerImpl.obj
 0001:00024e20       ?get_CapPowerReporting@COPOSCheckScanner@@UAGJPAJ@Z 10025e20 f   CheckScannerImpl.obj
 0001:00024e50       ?get_CheckHealthText@COPOSCheckScanner@@UAGJPAPA_W@Z 10025e50 f   CheckScannerImpl.obj
 0001:00024e80       ?get_Claimed@COPOSCheckScanner@@UAGJPAF@Z 10025e80 f   CheckScannerImpl.obj
 0001:00024eb0       ?get_DataCount@COPOSCheckScanner@@UAGJPAJ@Z 10025eb0 f   CheckScannerImpl.obj
 0001:00024ee0       ?get_DataEventEnabled@COPOSCheckScanner@@UAGJPAF@Z 10025ee0 f   CheckScannerImpl.obj
 0001:00024f10       ?put_DataEventEnabled@COPOSCheckScanner@@UAGJF@Z 10025f10 f   CheckScannerImpl.obj
 0001:00024f40       ?get_DeviceEnabled@COPOSCheckScanner@@UAGJPAF@Z 10025f40 f   CheckScannerImpl.obj
 0001:00024f70       ?put_DeviceEnabled@COPOSCheckScanner@@UAGJF@Z 10025f70 f   CheckScannerImpl.obj
 0001:00024fa0       ?get_FreezeEvents@COPOSCheckScanner@@UAGJPAF@Z 10025fa0 f   CheckScannerImpl.obj
 0001:00024fd0       ?put_FreezeEvents@COPOSCheckScanner@@UAGJF@Z 10025fd0 f   CheckScannerImpl.obj
 0001:00025060       ?get_PowerNotify@COPOSCheckScanner@@UAGJPAJ@Z 10026060 f   CheckScannerImpl.obj
 0001:00025090       ?put_PowerNotify@COPOSCheckScanner@@UAGJJ@Z 10026090 f   CheckScannerImpl.obj
 0001:000250c0       ?get_PowerState@COPOSCheckScanner@@UAGJPAJ@Z 100260c0 f   CheckScannerImpl.obj
 0001:000250f0       ?get_ResultCode@COPOSCheckScanner@@UAGJPAJ@Z 100260f0 f   CheckScannerImpl.obj
 0001:00025180       ?get_ResultCodeExtended@COPOSCheckScanner@@UAGJPAJ@Z 10026180 f   CheckScannerImpl.obj
 0001:000251b0       ?get_State@COPOSCheckScanner@@UAGJPAJ@Z 100261b0 f   CheckScannerImpl.obj
 0001:00025200       ?get_ControlObjectDescription@COPOSCheckScanner@@UAGJPAPA_W@Z 10026200 f   CheckScannerImpl.obj
 0001:00025280       ?get_ControlObjectVersion@COPOSCheckScanner@@UAGJPAJ@Z 10026280 f   CheckScannerImpl.obj
 0001:000252c0       ?get_ServiceObjectDescription@COPOSCheckScanner@@UAGJPAPA_W@Z 100262c0 f   CheckScannerImpl.obj
 0001:000252f0       ?get_ServiceObjectVersion@COPOSCheckScanner@@UAGJPAJ@Z 100262f0 f   CheckScannerImpl.obj
 0001:00025320       ?get_DeviceDescription@COPOSCheckScanner@@UAGJPAPA_W@Z 10026320 f   CheckScannerImpl.obj
 0001:00025350       ?get_DeviceName@COPOSCheckScanner@@UAGJPAPA_W@Z 10026350 f   CheckScannerImpl.obj
 0001:00025380       ?CheckHealth@COPOSCheckScanner@@UAGJJPAJ@Z 10026380 f   CheckScannerImpl.obj
 0001:00025420       ?ClaimDevice@COPOSCheckScanner@@UAGJJPAJ@Z 10026420 f   CheckScannerImpl.obj
 0001:00025500       ?ClearInput@COPOSCheckScanner@@UAGJPAJ@Z 10026500 f   CheckScannerImpl.obj
 0001:00025530       ?Close@COPOSCheckScanner@@UAGJPAJ@Z 10026530 f   CheckScannerImpl.obj
 0001:00025600       ?DirectIO@COPOSCheckScanner@@UAGJJPAJPAPA_W0@Z 10026600 f   CheckScannerImpl.obj
 0001:00025710       ?Open@COPOSCheckScanner@@UAGJPA_WPAJ@Z 10026710 f   CheckScannerImpl.obj
 0001:00026900       ?ReleaseDevice@COPOSCheckScanner@@UAGJPAJ@Z 10027900 f   CheckScannerImpl.obj
 0001:00026970       ?get_CapAutoGenerateFileID@COPOSCheckScanner@@UAGJPAF@Z 10027970 f   CheckScannerImpl.obj
 0001:000269a0       ?get_CapAutoGenerateImageTagData@COPOSCheckScanner@@UAGJPAF@Z 100279a0 f   CheckScannerImpl.obj
 0001:000269d0       ?get_CapAutoSize@COPOSCheckScanner@@UAGJPAF@Z 100279d0 f   CheckScannerImpl.obj
 0001:00026a00       ?get_CapColor@COPOSCheckScanner@@UAGJPAJ@Z 10027a00 f   CheckScannerImpl.obj
 0001:00026a30       ?get_CapConcurrentMICR@COPOSCheckScanner@@UAGJPAF@Z 10027a30 f   CheckScannerImpl.obj
 0001:00026a60       ?get_CapDefineCropArea@COPOSCheckScanner@@UAGJPAF@Z 10027a60 f   CheckScannerImpl.obj
 0001:00026a90       ?get_CapImageFormat@COPOSCheckScanner@@UAGJPAJ@Z 10027a90 f   CheckScannerImpl.obj
 0001:00026ac0       ?get_CapImageTagData@COPOSCheckScanner@@UAGJPAF@Z 10027ac0 f   CheckScannerImpl.obj
 0001:00026af0       ?get_CapMICRDevice@COPOSCheckScanner@@UAGJPAF@Z 10027af0 f   CheckScannerImpl.obj
 0001:00026b20       ?get_CapStoreImageFiles@COPOSCheckScanner@@UAGJPAF@Z 10027b20 f   CheckScannerImpl.obj
 0001:00026b50       ?get_CapValidationDevice@COPOSCheckScanner@@UAGJPAF@Z 10027b50 f   CheckScannerImpl.obj
 0001:00026b80       ?get_Color@COPOSCheckScanner@@UAGJPAJ@Z 10027b80 f   CheckScannerImpl.obj
 0001:00026bb0       ?put_Color@COPOSCheckScanner@@UAGJJ@Z 10027bb0 f   CheckScannerImpl.obj
 0001:00026be0       ?get_ConcurrentMICR@COPOSCheckScanner@@UAGJPAF@Z 10027be0 f   CheckScannerImpl.obj
 0001:00026c10       ?put_ConcurrentMICR@COPOSCheckScanner@@UAGJF@Z 10027c10 f   CheckScannerImpl.obj
 0001:00026c40       ?get_CropAreaCount@COPOSCheckScanner@@UAGJPAJ@Z 10027c40 f   CheckScannerImpl.obj
 0001:00026c70       ?get_DocumentHeight@COPOSCheckScanner@@UAGJPAJ@Z 10027c70 f   CheckScannerImpl.obj
 0001:00026ca0       ?put_DocumentHeight@COPOSCheckScanner@@UAGJJ@Z 10027ca0 f   CheckScannerImpl.obj
 0001:00026cd0       ?get_DocumentWidth@COPOSCheckScanner@@UAGJPAJ@Z 10027cd0 f   CheckScannerImpl.obj
 0001:00026d00       ?put_DocumentWidth@COPOSCheckScanner@@UAGJJ@Z 10027d00 f   CheckScannerImpl.obj
 0001:00026d30       ?get_FileID@COPOSCheckScanner@@UAGJPAPA_W@Z 10027d30 f   CheckScannerImpl.obj
 0001:00026d60       ?put_FileID@COPOSCheckScanner@@UAGJPA_W@Z 10027d60 f   CheckScannerImpl.obj
 0001:00026d90       ?get_FileIndex@COPOSCheckScanner@@UAGJPAJ@Z 10027d90 f   CheckScannerImpl.obj
 0001:00026dc0       ?put_FileIndex@COPOSCheckScanner@@UAGJJ@Z 10027dc0 f   CheckScannerImpl.obj
 0001:00026df0       ?get_ImageData@COPOSCheckScanner@@UAGJPAPA_W@Z 10027df0 f   CheckScannerImpl.obj
 0001:00026e20       ?get_ImageFormat@COPOSCheckScanner@@UAGJPAJ@Z 10027e20 f   CheckScannerImpl.obj
 0001:00026e50       ?put_ImageFormat@COPOSCheckScanner@@UAGJJ@Z 10027e50 f   CheckScannerImpl.obj
 0001:00026e80       ?get_ImageMemoryStatus@COPOSCheckScanner@@UAGJPAJ@Z 10027e80 f   CheckScannerImpl.obj
 0001:00026eb0       ?get_ImageTagData@COPOSCheckScanner@@UAGJPAPA_W@Z 10027eb0 f   CheckScannerImpl.obj
 0001:00026ee0       ?put_ImageTagData@COPOSCheckScanner@@UAGJPA_W@Z 10027ee0 f   CheckScannerImpl.obj
 0001:00026f10       ?get_MapMode@COPOSCheckScanner@@UAGJPAJ@Z 10027f10 f   CheckScannerImpl.obj
 0001:00026f40       ?put_MapMode@COPOSCheckScanner@@UAGJJ@Z 10027f40 f   CheckScannerImpl.obj
 0001:00026f70       ?get_MaxCropAreas@COPOSCheckScanner@@UAGJPAJ@Z 10027f70 f   CheckScannerImpl.obj
 0001:00026fa0       ?get_Quality@COPOSCheckScanner@@UAGJPAJ@Z 10027fa0 f   CheckScannerImpl.obj
 0001:00026fd0       ?put_Quality@COPOSCheckScanner@@UAGJJ@Z 10027fd0 f   CheckScannerImpl.obj
 0001:00027000       ?get_QualityList@COPOSCheckScanner@@UAGJPAPA_W@Z 10028000 f   CheckScannerImpl.obj
 0001:00027030       ?get_RemainingImagesEstimate@COPOSCheckScanner@@UAGJPAJ@Z 10028030 f   CheckScannerImpl.obj
 0001:00027060       ?BeginInsertion@COPOSCheckScanner@@UAGJJPAJ@Z 10028060 f   CheckScannerImpl.obj
 0001:00027100       ?BeginRemoval@COPOSCheckScanner@@UAGJJPAJ@Z 10028100 f   CheckScannerImpl.obj
 0001:000271a0       ?ClearImage@COPOSCheckScanner@@UAGJJPAJ@Z 100281a0 f   CheckScannerImpl.obj
 0001:00027240       ?DefineCropArea@COPOSCheckScanner@@UAGJJJJJJPAJ@Z 10028240 f   CheckScannerImpl.obj
 0001:00027370       ?EndInsertion@COPOSCheckScanner@@UAGJPAJ@Z 10028370 f   CheckScannerImpl.obj
 0001:000273a0       ?EndRemoval@COPOSCheckScanner@@UAGJPAJ@Z 100283a0 f   CheckScannerImpl.obj
 0001:000273d0       ?RetrieveImage@COPOSCheckScanner@@UAGJJPAJ@Z 100283d0 f   CheckScannerImpl.obj
 0001:00027470       ?RetrieveMemory@COPOSCheckScanner@@UAGJJPAJ@Z 10028470 f   CheckScannerImpl.obj
 0001:00027510       ?StoreImage@COPOSCheckScanner@@UAGJJPAJ@Z 10028510 f   CheckScannerImpl.obj
 0001:000275b0       ?get_CapStatisticsReporting@COPOSCheckScanner@@UAGJPAF@Z 100285b0 f   CheckScannerImpl.obj
 0001:000275e0       ?get_CapUpdateStatistics@COPOSCheckScanner@@UAGJPAF@Z 100285e0 f   CheckScannerImpl.obj
 0001:00027610       ?ResetStatistics@COPOSCheckScanner@@UAGJPA_WPAJ@Z 10028610 f   CheckScannerImpl.obj
 0001:000276c0       ?RetrieveStatistics@COPOSCheckScanner@@UAGJPAPA_WPAJ@Z 100286c0 f   CheckScannerImpl.obj
 0001:00027770       ?UpdateStatistics@COPOSCheckScanner@@UAGJPA_WPAJ@Z 10028770 f   CheckScannerImpl.obj
 0001:00027820       ?get_CapCompareFirmwareVersion@COPOSCheckScanner@@UAGJPAF@Z 10028820 f   CheckScannerImpl.obj
 0001:00027850       ?get_CapUpdateFirmware@COPOSCheckScanner@@UAGJPAF@Z 10028850 f   CheckScannerImpl.obj
 0001:00027880       ?CompareFirmwareVersion@COPOSCheckScanner@@UAGJPA_WPAJ1@Z 10028880 f   CheckScannerImpl.obj
 0001:00027970       ?UpdateFirmware@COPOSCheckScanner@@UAGJPA_WPAJ@Z 10028970 f   CheckScannerImpl.obj
 0001:00027a20       ?get_CapAutoContrast@COPOSCheckScanner@@UAGJPAF@Z 10028a20 f   CheckScannerImpl.obj
 0001:00027a50       ?get_CapContrast@COPOSCheckScanner@@UAGJPAF@Z 10028a50 f   CheckScannerImpl.obj
 0001:00027a80       ?get_Contrast@COPOSCheckScanner@@UAGJPAJ@Z 10028a80 f   CheckScannerImpl.obj
 0001:00027ab0       ?put_Contrast@COPOSCheckScanner@@UAGJJ@Z 10028ab0 f   CheckScannerImpl.obj
 0001:00027ae0       ?ClearInputProperties@COPOSCheckScanner@@UAGJPAJ@Z 10028ae0 f   CheckScannerImpl.obj
 0001:00027b10       ??0?$CComControl@VCOPOSCheckScanner@@V?$CWindowImpl@VCOPOSCheckScanner@@VCWindow@ATL@@V?$CWinTraits@$0FGAAAAAA@$0A@@3@@ATL@@@ATL@@QAE@XZ 10028b10 f i CheckScannerImpl.obj
 0001:00027b50       ??0?$CComPtr@UIAdviseSink@@@ATL@@QAE@XZ 10028b50 f i CheckScannerImpl.obj
 0001:00027b80       ??0?$CComPtr@UIDataAdviseHolder@@@ATL@@QAE@XZ 10028b80 f i CheckScannerImpl.obj
 0001:00027bb0       ??0?$CComPtr@UIOleAdviseHolder@@@ATL@@QAE@XZ 10028bb0 f i CheckScannerImpl.obj
 0001:00027be0       ??0?$CComPtr@UIOleClientSite@@@ATL@@QAE@XZ 10028be0 f i CheckScannerImpl.obj
 0001:00027c10       ??0?$CComPtr@UIOleInPlaceSiteWindowless@@@ATL@@QAE@XZ 10028c10 f i CheckScannerImpl.obj
 0001:00027c40       ??0?$CComPtrBase@UIAdviseSink@@@ATL@@IAE@XZ 10028c40 f i CheckScannerImpl.obj
 0001:00027c60       ??0?$CComPtrBase@UIDataAdviseHolder@@@ATL@@IAE@XZ 10028c60 f i CheckScannerImpl.obj
 0001:00027c80       ??0?$CComPtrBase@UIOleAdviseHolder@@@ATL@@IAE@XZ 10028c80 f i CheckScannerImpl.obj
 0001:00027ca0       ??0?$CComPtrBase@UIOleClientSite@@@ATL@@IAE@XZ 10028ca0 f i CheckScannerImpl.obj
 0001:00027cc0       ??0?$CComPtrBase@UIOleInPlaceSiteWindowless@@@ATL@@IAE@XZ 10028cc0 f i CheckScannerImpl.obj
 0001:00027ce0       ??0?$CComQIPtr@UIDispatch@@$1?_GUID_00020400_0000_0000_c000_000000000046@@3U__s_GUID@@B@ATL@@QAE@XZ 10028ce0 f i CheckScannerImpl.obj
 0001:00027d10       ??0?$CProxy_IOPOSEvents@VCOPOSCheckScanner@@@@QAE@PAVCOPOSCheckScanner@@@Z 10028d10 f i CheckScannerImpl.obj
 0001:00027d80       ??0?$CWindowImpl@VCOPOSCheckScanner@@VCWindow@ATL@@V?$CWinTraits@$0FGAAAAAA@$0A@@3@@ATL@@QAE@XZ 10028d80 f i CheckScannerImpl.obj
 0001:00027db0       ??0?$CWindowImplBaseT@VCWindow@ATL@@V?$CWinTraits@$0FGAAAAAA@$0A@@2@@ATL@@QAE@XZ 10028db0 f i CheckScannerImpl.obj
 0001:00027df0       ??0?$CWindowImplRoot@VCWindow@ATL@@@ATL@@QAE@XZ 10028df0 f i CheckScannerImpl.obj
 0001:00027e50       ??0?$IConnectionPointContainerImpl@VCOPOSCheckScanner@@@ATL@@QAE@XZ 10028e50 f i CheckScannerImpl.obj
 0001:00027e80       ??0?$IConnectionPointImpl@VCOPOSCheckScanner@@$1?DIID__IOPOSCheckScannerEvents@@3U_GUID@@BVCComDynamicUnkArray@ATL@@@ATL@@QAE@XZ 10028e80 f i CheckScannerImpl.obj
 0001:00027ec0       ??0?$IConnectionPointImpl@VCOPOSCheckScanner@@$1?IID_IPropertyNotifySink@@3U_GUID@@BVCComDynamicUnkArray@ATL@@@ATL@@QAE@XZ 10028ec0 f i CheckScannerImpl.obj
 0001:00027f00       ??0?$IDataObjectImpl@VCOPOSCheckScanner@@@ATL@@QAE@XZ 10028f00 f i CheckScannerImpl.obj
 0001:00027f30       ??0?$IDispatchImpl@UIOPOSCheckScanner@@$1?IID_IOPOSCheckScanner@@3U_GUID@@B$1?LIBID_OposCheckScanner_CCO@@3U3@B$00$0A@VCComTypeInfoHolder@ATL@@@ATL@@QAE@XZ 10028f30 f i CheckScannerImpl.obj
 0001:00027f60       ??0?$IObjectSafetyImpl@VCOPOSCheckScanner@@$02@ATL@@QAE@XZ 10028f60 f i CheckScannerImpl.obj
 0001:00027fa0       ??0?$IOleControlImpl@VCOPOSCheckScanner@@@ATL@@QAE@XZ 10028fa0 f i CheckScannerImpl.obj
 0001:00027fd0       ??0?$IOleInPlaceActiveObjectImpl@VCOPOSCheckScanner@@@ATL@@QAE@XZ 10028fd0 f i CheckScannerImpl.obj
 0001:00028000       ??0?$IOleInPlaceObjectWindowlessImpl@VCOPOSCheckScanner@@@ATL@@QAE@XZ 10029000 f i CheckScannerImpl.obj
 0001:00028030       ??0?$IOleObjectImpl@VCOPOSCheckScanner@@@ATL@@QAE@XZ 10029030 f i CheckScannerImpl.obj
 0001:00028060       ??0?$IPersistStorageImpl@VCOPOSCheckScanner@@@ATL@@QAE@XZ 10029060 f i CheckScannerImpl.obj
 0001:00028090       ??0?$IPersistStreamInitImpl@VCOPOSCheckScanner@@@ATL@@QAE@XZ 10029090 f i CheckScannerImpl.obj
 0001:000280c0       ??0?$IPropertyNotifySinkCP@VCOPOSCheckScanner@@VCComDynamicUnkArray@ATL@@@ATL@@QAE@XZ 100290c0 f i CheckScannerImpl.obj
 0001:000280f0       ??0?$IProvideClassInfo2Impl@$1?CLSID_OPOSCheckScanner@@3U_GUID@@B$1?DIID__IOPOSCheckScannerEvents@@3U2@B$1?LIBID_OposCheckScanner_CCO@@3U2@B$00$0A@VCComTypeInfoHolder@ATL@@@ATL@@QAE@XZ 100290f0 f i CheckScannerImpl.obj
 0001:00028120       ??0?$IQuickActivateImpl@VCOPOSCheckScanner@@@ATL@@QAE@XZ 10029120 f i CheckScannerImpl.obj
 0001:00028150       ??0?$ISpecifyPropertyPagesImpl@VCOPOSCheckScanner@@@ATL@@QAE@XZ 10029150 f i CheckScannerImpl.obj
 0001:00028180       ??0?$IViewObjectExImpl@VCOPOSCheckScanner@@@ATL@@QAE@XZ 10029180 f i CheckScannerImpl.obj
 0001:000281b0       ??0?$_ICPLocator@$1?DIID__IOPOSCheckScannerEvents@@3U_GUID@@B@ATL@@QAE@XZ 100291b0 f i CheckScannerImpl.obj
 0001:000281c0       ??0?$_ICPLocator@$1?IID_IPropertyNotifySink@@3U_GUID@@B@ATL@@QAE@XZ 100291c0 f i CheckScannerImpl.obj
 0001:000281d0       ??0CComControlBase@ATL@@QAE@AAPAUHWND__@@@Z 100291d0 f i CheckScannerImpl.obj
 0001:00028380       ??0CComDynamicUnkArray@ATL@@QAE@XZ 10029380 f i CheckScannerImpl.obj
 0001:000283b0       ??0CDynamicStdCallThunk2@ATL@@QAE@XZ 100293b0 f i CheckScannerImpl.obj
 0001:000283d0       ??0CMessageMap@ATL@@QAE@XZ 100293d0 f i CheckScannerImpl.obj
 0001:000283e0       ??0CWindow@ATL@@QAE@PAUHWND__@@@Z 100293e0 f i CheckScannerImpl.obj
 0001:00028400       ??0CWndProcThunk@ATL@@QAE@XZ 10029400 f i CheckScannerImpl.obj
 0001:00028430       ??0IConnectionPointContainer@@QAE@XZ 10029430 f i CheckScannerImpl.obj
 0001:00028460       ??0IDataObject@@QAE@XZ     10029460 f i CheckScannerImpl.obj
 0001:00028490       ??0IDispatch@@QAE@XZ       10029490 f i CheckScannerImpl.obj
 0001:000284c0       ??0IOPOSCheckScanner@@QAE@XZ 100294c0 f i CheckScannerImpl.obj
 0001:000284f0       ??0IOPOSCheckScanner_1_10@@QAE@XZ 100294f0 f i CheckScannerImpl.obj
 0001:00028520       ??0IOPOSCheckScanner_1_7@@QAE@XZ 10029520 f i CheckScannerImpl.obj
 0001:00028550       ??0IOPOSCheckScanner_1_8@@QAE@XZ 10029550 f i CheckScannerImpl.obj
 0001:00028580       ??0IOPOSCheckScanner_1_9@@QAE@XZ 10029580 f i CheckScannerImpl.obj
 0001:000285b0       ??0IObjectSafety@@QAE@XZ   100295b0 f i CheckScannerImpl.obj
 0001:000285e0       ??0IOleControl@@QAE@XZ     100295e0 f i CheckScannerImpl.obj
 0001:00028610       ??0IOleInPlaceActiveObject@@QAE@XZ 10029610 f i CheckScannerImpl.obj
 0001:00028640       ??0IOleInPlaceObject@@QAE@XZ 10029640 f i CheckScannerImpl.obj
 0001:00028670       ??0IOleInPlaceObjectWindowless@@QAE@XZ 10029670 f i CheckScannerImpl.obj
 0001:000286a0       ??0IOleObject@@QAE@XZ      100296a0 f i CheckScannerImpl.obj
 0001:000286d0       ??0IOleWindow@@QAE@XZ      100296d0 f i CheckScannerImpl.obj
 0001:00028700       ??0IPersist@@QAE@XZ        10029700 f i CheckScannerImpl.obj
 0001:00028730       ??0IPersistStorage@@QAE@XZ 10029730 f i CheckScannerImpl.obj
 0001:00028760       ??0IPersistStreamInit@@QAE@XZ 10029760 f i CheckScannerImpl.obj
 0001:00028790       ??0IProvideClassInfo2@@QAE@XZ 10029790 f i CheckScannerImpl.obj
 0001:000287c0       ??0IProvideClassInfo@@QAE@XZ 100297c0 f i CheckScannerImpl.obj
 0001:000287f0       ??0IQuickActivate@@QAE@XZ  100297f0 f i CheckScannerImpl.obj
 0001:00028820       ??0ISpecifyPropertyPages@@QAE@XZ 10029820 f i CheckScannerImpl.obj
 0001:00028850       ??0IViewObject2@@QAE@XZ    10029850 f i CheckScannerImpl.obj
 0001:00028880       ??0IViewObject@@QAE@XZ     10029880 f i CheckScannerImpl.obj
 0001:000288b0       ??0IViewObjectEx@@QAE@XZ   100298b0 f i CheckScannerImpl.obj
 0001:000288e0       ??0OposVariantResult@@QAE@XZ 100298e0 f i CheckScannerImpl.obj
 0001:00028910       ??0_CW@@QAE@PBD@Z          10029910 f i CheckScannerImpl.obj
 0001:00028950       ??0_CW@@QAE@PB_W@Z         10029950 f i CheckScannerImpl.obj
 0001:00028990       ??0_CWNCC@@QAE@PBD@Z       10029990 f i CheckScannerImpl.obj
 0001:000289c0       ??1?$CComControl@VCOPOSCheckScanner@@V?$CWindowImpl@VCOPOSCheckScanner@@VCWindow@ATL@@V?$CWinTraits@$0FGAAAAAA@$0A@@3@@ATL@@@ATL@@UAE@XZ 100299c0 f i CheckScannerImpl.obj
 0001:000289f0       ??1?$CComPtr@UIDataAdviseHolder@@@ATL@@QAE@XZ 100299f0 f i CheckScannerImpl.obj
 0001:00028a20       ??1?$CComPtr@UIOleAdviseHolder@@@ATL@@QAE@XZ 10029a20 f i CheckScannerImpl.obj
 0001:00028a50       ??1?$CComPtr@UIOleInPlaceSiteWindowless@@@ATL@@QAE@XZ 10029a50 f i CheckScannerImpl.obj
 0001:00028a80       ??1?$CComPtrBase@UIDataAdviseHolder@@@ATL@@QAE@XZ 10029a80 f i CheckScannerImpl.obj
 0001:00028ad0       ??1?$CComPtrBase@UIOleAdviseHolder@@@ATL@@QAE@XZ 10029ad0 f i CheckScannerImpl.obj
 0001:00028b20       ??1?$CComPtrBase@UIOleInPlaceSiteWindowless@@@ATL@@QAE@XZ 10029b20 f i CheckScannerImpl.obj
 0001:00028b70       ??1?$CComQIPtr@UIDispatch@@$1?_GUID_00020400_0000_0000_c000_000000000046@@3U__s_GUID@@B@ATL@@QAE@XZ 10029b70 f i CheckScannerImpl.obj
 0001:00028ba0       ??1?$CProxy_IOPOSEvents@VCOPOSCheckScanner@@@@QAE@XZ 10029ba0 f i CheckScannerImpl.obj
 0001:00028bd0       ??1?$CWindowImpl@VCOPOSCheckScanner@@VCWindow@ATL@@V?$CWinTraits@$0FGAAAAAA@$0A@@3@@ATL@@UAE@XZ 10029bd0 f i CheckScannerImpl.obj
 0001:00028c00       ??1?$CWindowImplBaseT@VCWindow@ATL@@V?$CWinTraits@$0FGAAAAAA@$0A@@2@@ATL@@UAE@XZ 10029c00 f i CheckScannerImpl.obj
 0001:00028c30       ??1?$CWindowImplRoot@VCWindow@ATL@@@ATL@@UAE@XZ 10029c30 f i CheckScannerImpl.obj
 0001:00028cd0       ??1?$IConnectionPointImpl@VCOPOSCheckScanner@@$1?DIID__IOPOSCheckScannerEvents@@3U_GUID@@BVCComDynamicUnkArray@ATL@@@ATL@@QAE@XZ 10029cd0 f i CheckScannerImpl.obj
 0001:00028d50       ??1?$IConnectionPointImpl@VCOPOSCheckScanner@@$1?IID_IPropertyNotifySink@@3U_GUID@@BVCComDynamicUnkArray@ATL@@@ATL@@QAE@XZ 10029d50 f i CheckScannerImpl.obj
 0001:00028dd0       ??1?$IPropertyNotifySinkCP@VCOPOSCheckScanner@@VCComDynamicUnkArray@ATL@@@ATL@@QAE@XZ 10029dd0 f i CheckScannerImpl.obj
 0001:00028e00       ??1CComControlBase@ATL@@UAE@XZ 10029e00 f i CheckScannerImpl.obj
 0001:00028ec0       ??1CComDynamicUnkArray@ATL@@QAE@XZ 10029ec0 f i CheckScannerImpl.obj
 0001:00028f00       ??1CDynamicStdCallThunk2@ATL@@QAE@XZ 10029f00 f i CheckScannerImpl.obj
 0001:00028f30       ??1CWndProcThunk@ATL@@QAE@XZ 10029f30 f i CheckScannerImpl.obj
 0001:00028f60       ??1OposVariantResult@@QAE@XZ 10029f60 f i CheckScannerImpl.obj
 0001:00028f90       ??1_CW@@QAE@XZ             10029f90 f i CheckScannerImpl.obj
 0001:00029000       ??1_CWNCC@@QAE@XZ          1002a000 f i CheckScannerImpl.obj
 0001:00029030       ??B_CW@@QAEPB_WXZ          1002a030 f i CheckScannerImpl.obj
 0001:00029070       ??B_CWNCC@@QAEPA_WXZ       1002a070 f i CheckScannerImpl.obj
 0001:000290a0       ??_EOposVariant@@QAEPAXI@Z 1002a0a0 f i CheckScannerImpl.obj
 0001:00029130       ?EventClaim@COPOSCheckScanner@@IAEXXZ 1002a130 f i CheckScannerImpl.obj
 0001:00029170       ?EventClose@COPOSCheckScanner@@IAEXXZ 1002a170 f i CheckScannerImpl.obj
 0001:00029210       ?EventInit@COPOSCheckScanner@@IAEJXZ 1002a210 f i CheckScannerImpl.obj
 0001:00029440       ?EventOpen@COPOSCheckScanner@@IAEXXZ 1002a440 f i CheckScannerImpl.obj
 0001:00029480       ?EventPreCloseRelease@COPOSCheckScanner@@IAEXXZ 1002a480 f i CheckScannerImpl.obj
 0001:00029500       ?EventUninit@COPOSCheckScanner@@IAEXXZ 1002a500 f i CheckScannerImpl.obj
 0001:00029630       ?EventWindowProc@COPOSCheckScanner@@IAGJIIJ@Z 1002a630 f i CheckScannerImpl.obj
 0001:000297c0       ?FireEventCleanup@COPOSCheckScanner@@IAEXXZ 1002a7c0 f i CheckScannerImpl.obj
 0001:00029810       ?FireEventSetup@COPOSCheckScanner@@IAE_NXZ 1002a810 f i CheckScannerImpl.obj
 0001:00029880       ?GetModuleInstance@CComModule@ATL@@QAEPAUHINSTANCE__@@XZ 1002a880 f i CheckScannerImpl.obj
 0001:00029890       ?SetRC@COPOSCheckScanner@@IAEJJ@Z 1002a890 f i CheckScannerImpl.obj
 0001:000298b0       ?s_EventWindowProc@COPOSCheckScanner@@KGJPAUHWND__@@IIJ@Z 1002a8b0 f i CheckScannerImpl.obj
 0001:00029950       __snwprintf                1002a950 f i CheckScannerImpl.obj
 0001:000299b0       __vfwprintf_l              1002a9b0 f i CheckScannerImpl.obj
 0001:000299e0       __vsnwprintf               1002a9e0 f i CheckScannerImpl.obj
 0001:00029a10       __vsnwprintf_l             1002aa10 f i CheckScannerImpl.obj
 0001:00029a80       _vfwprintf                 1002aa80 f i CheckScannerImpl.obj
 0001:00029aa2       _DebugBreak@0              1002aaa2 f   kernel32:KERNEL32.dll
 0001:00029aa8       _Sleep@4                   1002aaa8 f   kernel32:KERNEL32.dll
 0001:00029aae       _GetCurrentProcess@0       1002aaae f   kernel32:KERNEL32.dll
 0001:00029ab4       _TerminateProcess@8        1002aab4 f   kernel32:KERNEL32.dll
 0001:00029aba       _MultiByteToWideChar@24    1002aaba f   kernel32:KERNEL32.dll
 0001:00029ac0       _WideCharToMultiByte@32    1002aac0 f   kernel32:KERNEL32.dll
 0001:00029ac6       _DecodePointer@4           1002aac6 f   kernel32:KERNEL32.dll
 0001:00029acc       _RaiseException@16         1002aacc f   kernel32:KERNEL32.dll
 0001:00029ad2       _GetLastError@0            1002aad2 f   kernel32:KERNEL32.dll
 0001:00029ad8       _SetLastError@4            1002aad8 f   kernel32:KERNEL32.dll
 0001:00029ade       _InitializeCriticalSectionEx@12 1002aade f   kernel32:KERNEL32.dll
 0001:00029ae4       _DeleteCriticalSection@4   1002aae4 f   kernel32:KERNEL32.dll
 0001:00029aea       _EncodePointer@4           1002aaea f   kernel32:KERNEL32.dll
 0001:00029af0       _EnterCriticalSection@4    1002aaf0 f   kernel32:KERNEL32.dll
 0001:00029af6       _LeaveCriticalSection@4    1002aaf6 f   kernel32:KERNEL32.dll
 0001:00029afc       _ResetEvent@4              1002aafc f   kernel32:KERNEL32.dll
 0001:00029b02       _ReleaseMutex@4            1002ab02 f   kernel32:KERNEL32.dll
 0001:00029b08       _WaitForSingleObject@8     1002ab08 f   kernel32:KERNEL32.dll
 0001:00029b0e       _GetCurrentThreadId@0      1002ab0e f   kernel32:KERNEL32.dll
 0001:00029b14       _DisableThreadLibraryCalls@4 1002ab14 f   kernel32:KERNEL32.dll
 0001:00029b1a       _FreeLibrary@4             1002ab1a f   kernel32:KERNEL32.dll
 0001:00029b20       _GetModuleFileNameW@12     1002ab20 f   kernel32:KERNEL32.dll
 0001:00029b26       _GetModuleHandleW@4        1002ab26 f   kernel32:KERNEL32.dll
 0001:00029b2c       _GetProcAddress@8          1002ab2c f   kernel32:KERNEL32.dll
 0001:00029b32       _LoadLibraryExW@12         1002ab32 f   kernel32:KERNEL32.dll
 0001:00029b38       _LoadResource@8            1002ab38 f   kernel32:KERNEL32.dll
 0001:00029b3e       _SizeofResource@8          1002ab3e f   kernel32:KERNEL32.dll
 0001:00029b44       _FindResourceW@12          1002ab44 f   kernel32:KERNEL32.dll
 0001:00029b4a       _GlobalAlloc@8             1002ab4a f   kernel32:KERNEL32.dll
 0001:00029b50       _GlobalUnlock@4            1002ab50 f   kernel32:KERNEL32.dll
 0001:00029b56       _GlobalLock@4              1002ab56 f   kernel32:KERNEL32.dll
 0001:00029b5c       _MulDiv@12                 1002ab5c f   kernel32:KERNEL32.dll
 0001:00029b62       _lstrcmpiW@8               1002ab62 f   kernel32:KERNEL32.dll
 0001:00029b68       _DeleteFileW@4             1002ab68 f   kernel32:KERNEL32.dll
 0001:00029b6e       _CloseHandle@4             1002ab6e f   kernel32:KERNEL32.dll
 0001:00029b74       _SetEvent@4                1002ab74 f   kernel32:KERNEL32.dll
 0001:00029b7a       _CreateMutexW@12           1002ab7a f   kernel32:KERNEL32.dll
 0001:00029b80       _CreateEventW@16           1002ab80 f   kernel32:KERNEL32.dll
 0001:00029b86       _GetCurrentProcessId@0     1002ab86 f   kernel32:KERNEL32.dll
 0001:00029b8c       _LocalFree@4               1002ab8c f   kernel32:KERNEL32.dll
 0001:00029b92       _FormatMessageW@28         1002ab92 f   kernel32:KERNEL32.dll
 0001:00029b98       _GetActiveWindow@0         1002ab98 f   user32:USER32.dll
 0001:00029b9e       _MessageBoxW@16            1002ab9e f   user32:USER32.dll
 0001:00029ba4       _UnregisterClassW@8        1002aba4 f   user32:USER32.dll
 0001:00029baa       _PostMessageW@16           1002abaa f   user32:USER32.dll
 0001:00029bb0       _DefWindowProcW@16         1002abb0 f   user32:USER32.dll
 0001:00029bb6       _CallWindowProcW@20        1002abb6 f   user32:USER32.dll
 0001:00029bbc       _RegisterClassExW@4        1002abbc f   user32:USER32.dll
 0001:00029bc2       _GetClassInfoExW@12        1002abc2 f   user32:USER32.dll
 0001:00029bc8       _CreateWindowExW@48        1002abc8 f   user32:USER32.dll
 0001:00029bce       _IsWindow@4                1002abce f   user32:USER32.dll
 0001:00029bd4       _IsChild@8                 1002abd4 f   user32:USER32.dll
 0001:00029bda       _DestroyWindow@4           1002abda f   user32:USER32.dll
 0001:00029be0       _ShowWindow@8              1002abe0 f   user32:USER32.dll
 0001:00029be6       _SetWindowPos@28           1002abe6 f   user32:USER32.dll
 0001:00029bec       _CharNextW@4               1002abec f   user32:USER32.dll
 0001:00029bf2       _SetFocus@4                1002abf2 f   user32:USER32.dll
 0001:00029bf8       _GetFocus@0                1002abf8 f   user32:USER32.dll
 0001:00029bfe       _GetKeyState@4             1002abfe f   user32:USER32.dll
 0001:00029c04       _GetDC@4                   1002ac04 f   user32:USER32.dll
 0001:00029c0a       _ReleaseDC@8               1002ac0a f   user32:USER32.dll
 0001:00029c10       _BeginPaint@8              1002ac10 f   user32:USER32.dll
 0001:00029c16       _EndPaint@8                1002ac16 f   user32:USER32.dll
 0001:00029c1c       _SetWindowRgn@12           1002ac1c f   user32:USER32.dll
 0001:00029c22       _InvalidateRect@12         1002ac22 f   user32:USER32.dll
 0001:00029c28       _GetClientRect@8           1002ac28 f   user32:USER32.dll
 0001:00029c2e       _IntersectRect@12          1002ac2e f   user32:USER32.dll
 0001:00029c34       _UnionRect@12              1002ac34 f   user32:USER32.dll
 0001:00029c3a       _OffsetRect@12             1002ac3a f   user32:USER32.dll
 0001:00029c40       _EqualRect@8               1002ac40 f   user32:USER32.dll
 0001:00029c46       _PtInRect@12               1002ac46 f   user32:USER32.dll
 0001:00029c4c       _GetWindowLongW@8          1002ac4c f   user32:USER32.dll
 0001:00029c52       _SetWindowLongW@12         1002ac52 f   user32:USER32.dll
 0001:00029c58       _GetParent@4               1002ac58 f   user32:USER32.dll
 0001:00029c5e       _LoadCursorW@8             1002ac5e f   user32:USER32.dll
 0001:00029c64       _PeekMessageW@20           1002ac64 f   user32:USER32.dll
 0001:00029c6a       _RegisterClassW@4          1002ac6a f   user32:USER32.dll
 0001:00029c70       _LoadBitmapW@8             1002ac70 f   user32:USER32.dll
 0001:00029c76       _CloseMetaFile@4           1002ac76 f   gdi32:GDI32.dll
 0001:00029c7c       _CreateDCW@16              1002ac7c f   gdi32:GDI32.dll
 0001:00029c82       _CreateMetaFileW@4         1002ac82 f   gdi32:GDI32.dll
 0001:00029c88       _CreateRectRgnIndirect@4   1002ac88 f   gdi32:GDI32.dll
 0001:00029c8e       _DeleteDC@4                1002ac8e f   gdi32:GDI32.dll
 0001:00029c94       _DeleteMetaFile@4          1002ac94 f   gdi32:GDI32.dll
 0001:00029c9a       _GetDeviceCaps@8           1002ac9a f   gdi32:GDI32.dll
 0001:00029ca0       _RestoreDC@8               1002aca0 f   gdi32:GDI32.dll
 0001:00029ca6       _SaveDC@4                  1002aca6 f   gdi32:GDI32.dll
 0001:00029cac       _SetMapMode@8              1002acac f   gdi32:GDI32.dll
 0001:00029cb2       _LPtoDP@12                 1002acb2 f   gdi32:GDI32.dll
 0001:00029cb8       _SetViewportOrgEx@16       1002acb8 f   gdi32:GDI32.dll
 0001:00029cbe       _SetWindowExtEx@16         1002acbe f   gdi32:GDI32.dll
 0001:00029cc4       _SetWindowOrgEx@16         1002acc4 f   gdi32:GDI32.dll
 0001:00029cca       _BitBlt@36                 1002acca f   gdi32:GDI32.dll
 0001:00029cd0       _CreateCompatibleDC@4      1002acd0 f   gdi32:GDI32.dll
 0001:00029cd6       _DeleteObject@4            1002acd6 f   gdi32:GDI32.dll
 0001:00029cdc       _SelectObject@8            1002acdc f   gdi32:GDI32.dll
 0001:00029ce2       _GetObjectW@12             1002ace2 f   gdi32:GDI32.dll
 0001:00029ce8       _RegCloseKey@4             1002ace8 f   advapi32:ADVAPI32.dll
 0001:00029cee       _RegCreateKeyExW@36        1002acee f   advapi32:ADVAPI32.dll
 0001:00029cf4       _RegDeleteKeyW@8           1002acf4 f   advapi32:ADVAPI32.dll
 0001:00029cfa       _RegDeleteValueW@8         1002acfa f   advapi32:ADVAPI32.dll
 0001:00029d00       _RegEnumKeyExW@32          1002ad00 f   advapi32:ADVAPI32.dll
 0001:00029d06       _RegOpenKeyExW@20          1002ad06 f   advapi32:ADVAPI32.dll
 0001:00029d0c       _RegQueryInfoKeyW@48       1002ad0c f   advapi32:ADVAPI32.dll
 0001:00029d12       _RegSetValueExW@24         1002ad12 f   advapi32:ADVAPI32.dll
 0001:00029d18       _RegQueryValueExW@24       1002ad18 f   advapi32:ADVAPI32.dll
 0001:00029d1e       _CoCreateInstance@20       1002ad1e f   ole32:ole32.dll
 0001:00029d24       _StringFromGUID2@12        1002ad24 f   ole32:ole32.dll
 0001:00029d2a       _CoTaskMemAlloc@4          1002ad2a f   ole32:ole32.dll
 0001:00029d30       _CoTaskMemRealloc@8        1002ad30 f   ole32:ole32.dll
 0001:00029d36       _CoTaskMemFree@4           1002ad36 f   ole32:ole32.dll
 0001:00029d3c       _ReadClassStm@8            1002ad3c f   ole32:ole32.dll
 0001:00029d42       _WriteClassStm@8           1002ad42 f   ole32:ole32.dll
 0001:00029d48       _CreateDataAdviseHolder@4  1002ad48 f   ole32:ole32.dll
 0001:00029d4e       _OleSaveToStream@8         1002ad4e f   ole32:ole32.dll
 0001:00029d54       _CreateOleAdviseHolder@4   1002ad54 f   ole32:ole32.dll
 0001:00029d5a       _OleRegGetUserType@12      1002ad5a f   ole32:ole32.dll
 0001:00029d60       _OleRegGetMiscStatus@12    1002ad60 f   ole32:ole32.dll
 0001:00029d66       _OleRegEnumVerbs@8         1002ad66 f   ole32:ole32.dll
 0001:00029d6c       _CLSIDFromProgID@8         1002ad6c f   ole32:ole32.dll
 0001:00029d72       _SysAllocString@4          1002ad72 f   oleaut32:OLEAUT32.dll
 0001:00029d78       _SysAllocStringLen@8       1002ad78 f   oleaut32:OLEAUT32.dll
 0001:00029d7e       _SysFreeString@4           1002ad7e f   oleaut32:OLEAUT32.dll
 0001:00029d84       _SysStringLen@4            1002ad84 f   oleaut32:OLEAUT32.dll
 0001:00029d8a       _VariantClear@4            1002ad8a f   oleaut32:OLEAUT32.dll
 0001:00029d90       _VariantCopyInd@8          1002ad90 f   oleaut32:OLEAUT32.dll
 0001:00029d96       _VariantChangeType@16      1002ad96 f   oleaut32:OLEAUT32.dll
 0001:00029d9c       _SysStringByteLen@4        1002ad9c f   oleaut32:OLEAUT32.dll
 0001:00029da2       _SysAllocStringByteLen@8   1002ada2 f   oleaut32:OLEAUT32.dll
 0001:00029da8       _VariantInit@4             1002ada8 f   oleaut32:OLEAUT32.dll
 0001:00029dae       _VarUI4FromStr@16          1002adae f   oleaut32:OLEAUT32.dll
 0001:00029db4       _LoadTypeLib@8             1002adb4 f   oleaut32:OLEAUT32.dll
 0001:00029dba       _LoadRegTypeLib@20         1002adba f   oleaut32:OLEAUT32.dll
 0001:00029dc0       _RegisterTypeLib@12        1002adc0 f   oleaut32:OLEAUT32.dll
 0001:00029dc6       _UnRegisterTypeLib@20      1002adc6 f   oleaut32:OLEAUT32.dll
 0001:00029dcc       _OleCreatePropertyFrame@44 1002adcc f   oleaut32:OLEAUT32.dll
 0001:00029de0       @_RTC_AllocaHelper@12      1002ade0 f   LIBCMTD:stack.obj
 0001:00029e20       @_RTC_CheckStackVars2@12   1002ae20 f   LIBCMTD:stack.obj
 0001:00029f00       @_RTC_CheckStackVars@8     1002af00 f   LIBCMTD:stack.obj
 0001:00029f60       __RTC_CheckEsp             1002af60 f   LIBCMTD:stack.obj
 0001:00029f90       @__security_check_cookie@4 1002af90 f   LIBCMTD:secchk.obj
 0001:00029fa0       __CRT_RTC_INIT             1002afa0 f   LIBCMTD:init.obj
 0001:00029fb0       __CRT_RTC_INITW            1002afb0 f   LIBCMTD:init.obj
 0001:00029fc0       __RTC_InitBase             1002afc0 f   LIBCMTD:init.obj
 0001:00029ff0       __RTC_Shutdown             1002aff0 f   LIBCMTD:init.obj
 0001:0002a010       ??_U@YAPAXI@Z              1002b010 f   LIBCMTD:new_array.obj
 0001:0002a030       ??3@YAXPAXI@Z              1002b030 f   LIBCMTD:delete_scalar_size.obj
 0001:0002a050       ??_V@YAXPAX@Z              1002b050 f   LIBCMTD:delete_array.obj
 0001:0002a070       ??_V@YAXPAXI@Z             1002b070 f   LIBCMTD:delete_array_size.obj
 0001:0002a090       ?configure_argv@__scrt_narrow_argv_policy@@SAHXZ 1002b090 f i LIBCMTD:utility.obj
 0001:0002a140       ?initialize_environment@__scrt_narrow_environment_policy@@SAHXZ 1002b140 f i LIBCMTD:utility.obj
 0001:0002a1c0       _NtCurrentTeb              1002b1c0 f i LIBCMTD:utility.obj
 0001:0002a1d0       ___scrt_acquire_startup_lock 1002b1d0 f   LIBCMTD:utility.obj
 0001:0002a220       ___scrt_dllmain_after_initialize_c 1002b220 f   LIBCMTD:utility.obj
 0001:0002a250       ___scrt_dllmain_before_initialize_c 1002b250 f   LIBCMTD:utility.obj
 0001:0002a270       ___scrt_dllmain_crt_thread_attach 1002b270 f   LIBCMTD:utility.obj
 0001:0002a2a0       ___scrt_dllmain_crt_thread_detach 1002b2a0 f   LIBCMTD:utility.obj
 0001:0002a2c0       ___scrt_dllmain_exception_filter 1002b2c0 f   LIBCMTD:utility.obj
 0001:0002a310       ___scrt_dllmain_uninitialize_c 1002b310 f   LIBCMTD:utility.obj
 0001:0002a340       ___scrt_dllmain_uninitialize_critical 1002b340 f   LIBCMTD:utility.obj
 0001:0002a360       ___scrt_initialize_crt     1002b360 f   LIBCMTD:utility.obj
 0001:0002a3b0       ___scrt_initialize_onexit_tables 1002b3b0 f   LIBCMTD:utility.obj
 0001:0002a490       ___scrt_is_nonwritable_in_current_image 1002b490 f   LIBCMTD:utility.obj
 0001:0002a5c0       ___scrt_release_startup_lock 1002b5c0 f   LIBCMTD:utility.obj
 0001:0002a5f0       ___scrt_uninitialize_crt   1002b5f0 f   LIBCMTD:utility.obj
 0001:0002a630       __onexit                   1002b630 f   LIBCMTD:utility.obj
 0001:0002a6a0       _at_quick_exit             1002b6a0 f   LIBCMTD:utility.obj
 0001:0002a6e0       _atexit                    1002b6e0 f   LIBCMTD:utility.obj
 0001:0002a710       ??3@YAXPAX@Z               1002b710 f   LIBCMTD:delete_scalar.obj
 0001:0002a730       ___raise_securityfailure   1002b730 f   LIBCMTD:gs_report.obj
 0001:0002a760       ___report_gsfailure        1002b760 f   LIBCMTD:gs_report.obj
 0001:0002a870       ___report_rangecheckfailure 1002b870 f   LIBCMTD:gs_report.obj
 0001:0002a880       ___report_securityfailure  1002b880 f   LIBCMTD:gs_report.obj
 0001:0002a960       ___report_securityfailureEx 1002b960 f   LIBCMTD:gs_report.obj
 0001:0002abb0       __Init_thread_abort        1002bbb0 f   LIBCMTD:thread_safe_statics.obj
 0001:0002abd0       __Init_thread_footer       1002bbd0 f   LIBCMTD:thread_safe_statics.obj
 0001:0002ac20       __Init_thread_header       1002bc20 f   LIBCMTD:thread_safe_statics.obj
 0001:0002ac90       __Init_thread_lock         1002bc90 f   LIBCMTD:thread_safe_statics.obj
 0001:0002aca0       __Init_thread_notify       1002bca0 f   LIBCMTD:thread_safe_statics.obj
 0001:0002acf0       __Init_thread_unlock       1002bcf0 f   LIBCMTD:thread_safe_statics.obj
 0001:0002ad00       __Init_thread_wait         1002bd00 f   LIBCMTD:thread_safe_statics.obj
 0001:0002ad90       ??2@YAPAXIABUnothrow_t@std@@@Z 1002bd90 f   LIBCMTD:new_scalar_nothrow.obj
 0001:0002ae20       ??_U@YAPAXIABUnothrow_t@std@@@Z 1002be20 f   LIBCMTD:new_array_nothrow.obj
 0001:0002ae40       __allmul                   1002be40 f   LIBCMTD:llmul.obj
 0001:0002ae80       __alloca_probe_16          1002be80 f   LIBCMTD:alloca16.obj
 0001:0002ae96       __alloca_probe_8           1002be96     LIBCMTD:alloca16.obj
 0001:0002aeb0       __alloca_probe             1002beb0 f   LIBCMTD:chkstk.obj
 0001:0002aeb0       __chkstk                   1002beb0 f   LIBCMTD:chkstk.obj
 0001:0002b3b0       __CRT_INIT@12              1002c3b0 f   LIBCMTD:dll_dllmain.obj
 0001:0002b3d0       __DllMainCRTStartup@12     1002c3d0 f   LIBCMTD:dll_dllmain.obj
 0001:0002b490       ?_RTC_AllocaFailure@@YAXPAXPAU_RTC_ALLOCA_NODE@@H@Z 1002c490 f   LIBCMTD:error.obj
 0001:0002b580       ?_RTC_Failure@@YAXPAXH@Z   1002c580 f   LIBCMTD:error.obj
 0001:0002b5d0       ?_RTC_StackFailure@@YAXPAXPBD@Z 1002c5d0 f   LIBCMTD:error.obj
 0001:0002b990       __RTC_UninitUse            1002c990 f   LIBCMTD:error.obj
 0001:0002ba40       __vsprintf_s_l             1002ca40 f i LIBCMTD:error.obj
 0001:0002ba70       _sprintf_s                 1002ca70 f i LIBCMTD:error.obj
 0001:0002ba90       ?_RTC_GetErrorFunc@@YAP6AHHPBDH00ZZPBX@Z 1002ca90 f   LIBCMTD:userapi.obj
 0001:0002baa0       ?_RTC_GetErrorFuncW@@YAP6AHHPB_WH00ZZPBX@Z 1002caa0 f   LIBCMTD:userapi.obj
 0001:0002bab0       __RTC_GetErrDesc           1002cab0 f   LIBCMTD:userapi.obj
 0001:0002bad0       __RTC_NumErrors            1002cad0 f   LIBCMTD:userapi.obj
 0001:0002bae0       __RTC_SetErrorFunc         1002cae0 f   LIBCMTD:userapi.obj
 0001:0002bb00       __RTC_SetErrorFuncW        1002cb00 f   LIBCMTD:userapi.obj
 0001:0002bb20       __RTC_SetErrorType         1002cb20 f   LIBCMTD:userapi.obj
 0001:0002bb50       ??2@YAPAXI@Z               1002cb50 f   LIBCMTD:new_scalar.obj
 0001:0002bba0       ___isa_available_init      1002cba0 f   LIBCMTD:cpu_disp.obj
 0001:0002bee0       __get_startup_argv_mode    1002cee0 f   LIBCMTD:argv_mode.obj
 0001:0002bef0       ___scrt_is_ucrt_dll_in_use 1002cef0 f   LIBCMTD:ucrt_detection.obj
 0001:0002bf20       ___scrt_fastfail           1002cf20 f   LIBCMTD:utility_desktop.obj
 0001:0002c060       ___scrt_get_show_window_mode 1002d060 f   LIBCMTD:utility_desktop.obj
 0001:0002c0a0       ___scrt_initialize_mta     1002d0a0 f   LIBCMTD:utility_desktop.obj
 0001:0002c0b0       ___scrt_initialize_winrt   1002d0b0 f   LIBCMTD:utility_desktop.obj
 0001:0002c0c0       ___scrt_is_managed_app     1002d0c0 f   LIBCMTD:utility_desktop.obj
 0001:0002c150       ___scrt_set_unhandled_exception_filter 1002d150 f   LIBCMTD:utility_desktop.obj
 0001:0002c160       ___scrt_stub_for_initialize_mta 1002d160 f   LIBCMTD:utility_desktop.obj
 0001:0002c160       ___scrt_exe_initialize_mta 1002d160 f   LIBCMTD:utility_desktop.obj
 0001:0002c170       ___scrt_unhandled_exception_filter@4 1002d170 f   LIBCMTD:utility_desktop.obj
 0001:0002c1f0       __crt_debugger_hook        1002d1f0 f   LIBCMTD:utility_desktop.obj
 0001:0002c200       @_guard_check_icall_nop@4  1002d200 f i LIBCMTD:guard_support.obj
 0001:0002c210       _ReadNoFence               1002d210 f i LIBCMTD:guard_support.obj
 0001:0002c230       _ReadPointerNoFence        1002d230 f i LIBCMTD:guard_support.obj
 0001:0002c250       ___castguard_check_failure_debugbreak 1002d250 f i LIBCMTD:guard_support.obj
 0001:0002c270       ___castguard_check_failure_fastfail 1002d270 f i LIBCMTD:guard_support.obj
 0001:0002c290       ___castguard_check_failure_nop 1002d290 f i LIBCMTD:guard_support.obj
 0001:0002c2a0       ___castguard_check_failure_os_handled 1002d2a0 f i LIBCMTD:guard_support.obj
 0001:0002c330       ___castguard_slow_path_check_debugbreak 1002d330 f i LIBCMTD:guard_support.obj
 0001:0002c360       ___castguard_slow_path_check_fastfail 1002d360 f i LIBCMTD:guard_support.obj
 0001:0002c3a0       ___castguard_slow_path_check_nop 1002d3a0 f i LIBCMTD:guard_support.obj
 0001:0002c3b0       ___castguard_slow_path_check_os_handled 1002d3b0 f i LIBCMTD:guard_support.obj
 0001:0002c430       __guard_icall_checks_enforced 1002d430 f i LIBCMTD:guard_support.obj
 0001:0002c4d0       ___security_init_cookie    1002d4d0 f   LIBCMTD:gs_support.obj
 0001:0002c550       ?__scrt_initialize_type_info@@YAXXZ 1002d550 f   LIBCMTD:tncleanup.obj
 0001:0002c560       ?__scrt_uninitialize_type_info@@YAXXZ 1002d560 f   LIBCMTD:tncleanup.obj
 0001:0002c580       ___local_stdio_scanf_options 1002d580 f i LIBCMTD:default_local_stdio_options.obj
 0001:0002c590       ___scrt_initialize_default_local_stdio_options 1002d590 f   LIBCMTD:default_local_stdio_options.obj
 0001:0002c5d0       ___scrt_get_dyn_tls_init_callback 1002d5d0 f   LIBCMTD:dyn_tls_init.obj
 0001:0002c5e0       __RTC_Initialize           1002d5e0 f   LIBCMTD:initsect.obj
 0001:0002c610       __RTC_Terminate            1002d610 f   LIBCMTD:initsect.obj
 0001:0002cac0       ?_RTC_GetSrcLine@@YAHPAEPA_WKPAH1K@Z 1002dac0 f   LIBCMTD:pdblkup.obj
 0001:0002ce40       __except_handler4_noexcept 1002de40 f   LIBCMTD:chandler4_noexcept.obj
 0001:0002cea0       ??0bad_alloc@std@@AAE@QBD@Z 1002dea0 f i LIBCMTD:throw_bad_alloc.obj
 0001:0002ced0       ??0bad_alloc@std@@QAE@ABV01@@Z 1002ded0 f i LIBCMTD:throw_bad_alloc.obj
 0001:0002cf00       ??0bad_alloc@std@@QAE@XZ   1002df00 f i LIBCMTD:throw_bad_alloc.obj
 0001:0002cf30       ??0bad_array_new_length@std@@QAE@ABV01@@Z 1002df30 f i LIBCMTD:throw_bad_alloc.obj
 0001:0002cf60       ??0bad_array_new_length@std@@QAE@XZ 1002df60 f i LIBCMTD:throw_bad_alloc.obj
 0001:0002cf90       ??0exception@std@@QAE@ABV01@@Z 1002df90 f i LIBCMTD:throw_bad_alloc.obj
 0001:0002cfd0       ??0exception@std@@QAE@QBDH@Z 1002dfd0 f i LIBCMTD:throw_bad_alloc.obj
 0001:0002d000       ??1bad_alloc@std@@UAE@XZ   1002e000 f i LIBCMTD:throw_bad_alloc.obj
 0001:0002d020       ??1bad_array_new_length@std@@UAE@XZ 1002e020 f i LIBCMTD:throw_bad_alloc.obj
 0001:0002d040       ??1exception@std@@UAE@XZ   1002e040 f i LIBCMTD:throw_bad_alloc.obj
 0001:0002d070       ??_Gbad_alloc@std@@UAEPAXI@Z 1002e070 f i LIBCMTD:throw_bad_alloc.obj
 0001:0002d070       ??_Ebad_alloc@std@@UAEPAXI@Z 1002e070 f i LIBCMTD:throw_bad_alloc.obj
 0001:0002d0a0       ??_Ebad_array_new_length@std@@UAEPAXI@Z 1002e0a0 f i LIBCMTD:throw_bad_alloc.obj
 0001:0002d0a0       ??_Gbad_array_new_length@std@@UAEPAXI@Z 1002e0a0 f i LIBCMTD:throw_bad_alloc.obj
 0001:0002d0d0       ??_Gexception@std@@UAEPAXI@Z 1002e0d0 f i LIBCMTD:throw_bad_alloc.obj
 0001:0002d0d0       ??_Eexception@std@@UAEPAXI@Z 1002e0d0 f i LIBCMTD:throw_bad_alloc.obj
 0001:0002d100       ?__scrt_throw_std_bad_alloc@@YAXXZ 1002e100 f   LIBCMTD:throw_bad_alloc.obj
 0001:0002d120       ?__scrt_throw_std_bad_array_new_length@@YAXXZ 1002e120 f   LIBCMTD:throw_bad_alloc.obj
 0001:0002d140       ?what@exception@std@@UBEPBDXZ 1002e140 f i LIBCMTD:throw_bad_alloc.obj
 0001:0002d170       ??1type_info@@UAE@XZ       1002e170 f   LIBCMTD:std_type_info_static.obj
 0001:0002d190       ??_Etype_info@@UAEPAXI@Z   1002e190 f i LIBCMTD:std_type_info_static.obj
 0001:0002d190       ??_Gtype_info@@UAEPAXI@Z   1002e190 f i LIBCMTD:std_type_info_static.obj
 0001:0002d1be       ??$?2PAUHINSTANCE__@@@Wrapper@?$CSimpleArray@PAUHINSTANCE__@@V?$CSimpleArrayEqualHelper@PAUHINSTANCE__@@@ATL@@@ATL@@SAPAXIPAPAUHINSTANCE__@@@Z 1002e1be f i atls:atlbase.obj
 0001:0002d1c6       ??0?$CSimpleArray@PAUHINSTANCE__@@V?$CSimpleArrayEqualHelper@PAUHINSTANCE__@@@ATL@@@ATL@@QAE@XZ 1002e1c6 f i atls:atlbase.obj
 0001:0002d1d3       ??0CAtlBaseModule@ATL@@QAE@XZ 1002e1d3 f   atls:atlbase.obj
 0001:0002d226       ??0Wrapper@?$CSimpleArray@PAUHINSTANCE__@@V?$CSimpleArrayEqualHelper@PAUHINSTANCE__@@@ATL@@@ATL@@QAE@ABQAUHINSTANCE__@@@Z 1002e226 f i atls:atlbase.obj
 0001:0002d236       ??0_ATL_BASE_MODULE70@ATL@@QAE@XZ 1002e236 f i atls:atlbase.obj
 0001:0002d259       ??1?$CSimpleArray@PAUHINSTANCE__@@V?$CSimpleArrayEqualHelper@PAUHINSTANCE__@@@ATL@@@ATL@@QAE@XZ 1002e259 f i atls:atlbase.obj
 0001:0002d25e       ??1CAtlBaseModule@ATL@@QAE@XZ 1002e25e f   atls:atlbase.obj
 0001:0002d274       ??1_ATL_BASE_MODULE70@ATL@@QAE@XZ 1002e274 f i atls:atlbase.obj
 0001:0002d27c       ??A?$CSimpleArray@PAUHINSTANCE__@@V?$CSimpleArrayEqualHelper@PAUHINSTANCE__@@@ATL@@@ATL@@QAEAAPAUHINSTANCE__@@H@Z 1002e27c f i atls:atlbase.obj
 0001:0002d2a1       ?Add@?$CSimpleArray@PAUHINSTANCE__@@V?$CSimpleArrayEqualHelper@PAUHINSTANCE__@@@ATL@@@ATL@@QAEHABQAUHINSTANCE__@@@Z 1002e2a1 f i atls:atlbase.obj
 0001:0002d319       ?AddResourceInstance@CAtlBaseModule@ATL@@QAE_NPAUHINSTANCE__@@@Z 1002e319 f   atls:atlbase.obj
 0001:0002d34c       ?GetHInstanceAt@CAtlBaseModule@ATL@@QAEPAUHINSTANCE__@@H@Z 1002e34c f   atls:atlbase.obj
 0001:0002d391       ?GetSize@?$CSimpleArray@PAUHINSTANCE__@@V?$CSimpleArrayEqualHelper@PAUHINSTANCE__@@@ATL@@@ATL@@QBEHXZ 1002e391 f i atls:atlbase.obj
 0001:0002d395       ?InternalSetAtIndex@?$CSimpleArray@PAUHINSTANCE__@@V?$CSimpleArrayEqualHelper@PAUHINSTANCE__@@@ATL@@@ATL@@QAEXHABQAUHINSTANCE__@@@Z 1002e395 f i atls:atlbase.obj
 0001:0002d3af       ?RemoveAll@?$CSimpleArray@PAUHINSTANCE__@@V?$CSimpleArrayEqualHelper@PAUHINSTANCE__@@@ATL@@@ATL@@QAEXXZ 1002e3af f i atls:atlbase.obj
 0001:0002d3cc       ?RemoveAt@?$CSimpleArray@PAUHINSTANCE__@@V?$CSimpleArrayEqualHelper@PAUHINSTANCE__@@@ATL@@@ATL@@QAEHH@Z 1002e3cc f i atls:atlbase.obj
 0001:0002d414       ?RemoveResourceInstance@CAtlBaseModule@ATL@@QAE_NPAUHINSTANCE__@@@Z 1002e414 f   atls:atlbase.obj
 0001:0002d471       ?memmove_s@Checked@ATL@@YAXPAXIPBXI@Z 1002e471 f i atls:atlbase.obj
 0001:0002d7ce       ?GetCodeAddress@_stdcallthunk@ATL@@QAEPAXXZ 1002e7ce f i atls:atlthunk.obj
 0001:0002d7f8       ?Init@_stdcallthunk@ATL@@QAEHKPAX@Z 1002e7f8 f i atls:atlthunk.obj
 0001:0002d82d       ?__AllocStdCallThunk@@YGPAXXZ 1002e82d f   atls:atlthunk.obj
 0001:0002d832       ?__AllocStdCallThunk@ATL@@YGPAXXZ 1002e832 f   atls:atlthunk.obj
 0001:0002d837       ?__AllocStdCallThunk_cmn@@YAPAXXZ 1002e837 f   atls:atlthunk.obj
 0001:0002d8fd       ?__FreeStdCallThunk@@YGXPAX@Z 1002e8fd f   atls:atlthunk.obj
 0001:0002d90d       ?__FreeStdCallThunk@ATL@@YGXPAX@Z 1002e90d f   atls:atlthunk.obj
 0001:0002d91d       ?__FreeStdCallThunk_cmn@@YAXPAX@Z 1002e91d f   atls:atlthunk.obj
 0001:0002d9b9       _AtlThunk_AllocateData@0   1002e9b9 f   atls:atlthunk.obj
 0001:0002da1e       _AtlThunk_DataToCode@4     1002ea1e f   atls:atlthunk.obj
 0001:0002da65       _AtlThunk_FreeData@4       1002ea65 f   atls:atlthunk.obj
 0001:0002dabb       _AtlThunk_InitData@12      1002eabb f   atls:atlthunk.obj
 0001:0002db0a       _MemoryBarrier             1002eb0a f i atls:atlthunk.obj
 0001:0002db18       __InlineInterlockedCompareExchangePointer 1002eb18 f i atls:atlthunk.obj
 0001:0002db30       _memset                    1002eb30 f   libvcruntimed:memset.obj
 0001:0002dc90       ??$__crt_interlocked_exchange_pointer@$$A6AXXZP6AXXZ@@YAP6AXXZPDS6AXXZQ6AXXZ@Z 1002ec90 f i libvcruntimed:purevirt.obj
 0001:0002dca0       ??$__crt_interlocked_read_pointer@$$A6AXXZ@@YAP6AXXZPDS6AXXZ@Z 1002eca0 f i libvcruntimed:purevirt.obj
 0001:0002dcc0       ?__crt_interlocked_read_32@@YAHPDH@Z 1002ecc0 f i libvcruntimed:purevirt.obj
 0001:0002dce0       __get_purecall_handler     1002ece0 f   libvcruntimed:purevirt.obj
 0001:0002dd00       __purecall                 1002ed00 f   libvcruntimed:purevirt.obj
 0001:0002dd30       __set_purecall_handler     1002ed30 f   libvcruntimed:purevirt.obj
 0001:0002df00       _memcmp                    1002ef00 f   libvcruntimed:memcmp.obj
 0001:0002e7d0       _memcpy                    1002f7d0 f   libvcruntimed:memcpy.obj
 0001:0002ed50       _wcsstr                    1002fd50 f   libvcruntimed:wcsstr.obj
 0001:0002f280       __except_handler4          10030280 f   libvcruntimed:chandler4.obj
 0001:0002f470       ___vcrt_initialize         10030470 f   libvcruntimed:initialization.obj
 0001:0002f4b0       ___vcrt_thread_attach      100304b0 f   libvcruntimed:initialization.obj
 0001:0002f4d0       ___vcrt_thread_detach      100304d0 f   libvcruntimed:initialization.obj
 0001:0002f4f0       ___vcrt_uninitialize       100304f0 f   libvcruntimed:initialization.obj
 0001:0002f510       ___vcrt_uninitialize_critical 10030510 f   libvcruntimed:initialization.obj
 0001:0002f530       ??$?0AAViterator@TryBlockMap@__FrameHandler3@@AAV012@$0A@@?$pair@Viterator@TryBlockMap@__FrameHandler3@@V123@@std@@QAE@AAViterator@TryBlockMap@__FrameHandler3@@0@Z 10030530 f i libvcruntimed:trnsctrl.obj
 0001:0002f580       ??$forward@AAViterator@TryBlockMap@__FrameHandler3@@@std@@YAAAViterator@TryBlockMap@__FrameHandler3@@AAV123@@Z 10030580 f i libvcruntimed:trnsctrl.obj
 0001:0002f590       ??0iterator@TryBlockMap@__FrameHandler3@@QAE@AAV12@I@Z 10030590 f i libvcruntimed:trnsctrl.obj
 0001:0002f5c0       ?GetRangeOfTrysToCheck@__FrameHandler3@@SA?AU?$pair@Viterator@TryBlockMap@__FrameHandler3@@V123@@std@@AAVTryBlockMap@1@HPAXPBU_s_FuncInfo@@H@Z 100305c0 f   libvcruntimed:trnsctrl.obj
 0001:0002f6a0       ?_CallCatchBlock2@@YAPAXPAUEHRegistrationNode@@PBU_s_FuncInfo@@PAXHK@Z 100306a0 f   libvcruntimed:trnsctrl.obj
 0001:0002f710       ?_CallSETranslator@@YAHPAUEHExceptionRecord@@PAUEHRegistrationNode@@PAX2PBU_s_FuncInfo@@H1@Z 10030710 f   libvcruntimed:trnsctrl.obj
 0001:0002f820       ?_JumpToContinuation@@YGXPAXPAUEHRegistrationNode@@@Z 10030820 f   libvcruntimed:trnsctrl.obj
 0001:0002f860       ?_UnwindNestedFrames@@YGXPAUEHRegistrationNode@@PAUEHExceptionRecord@@@Z 10030860 f   libvcruntimed:trnsctrl.obj
 0001:0002f8c0       __CatchGuardHandler        100308c0 f   libvcruntimed:trnsctrl.obj
 0001:0002f910       __CreateFrameInfo          10030910 f   libvcruntimed:trnsctrl.obj
 0001:0002f940       __FindAndUnlinkFrame       10030940 f   libvcruntimed:trnsctrl.obj
 0001:0002f9b0       __TranslatorGuardHandler   100309b0 f   libvcruntimed:trnsctrl.obj
 0001:0002fa60       ___CxxFrameHandler         10030a60 f   libvcruntimed:trnsctrl.obj
 0001:0002faa0       ___CxxFrameHandler2        10030aa0 f   libvcruntimed:trnsctrl.obj
 0001:0002fae0       ___CxxFrameHandler3        10030ae0 f   libvcruntimed:trnsctrl.obj
 0001:0002fb20       ___CxxLongjmpUnwind@4      10030b20 f   libvcruntimed:trnsctrl.obj
 0001:0002fb60       ___DestructExceptionObject 10030b60 f   libvcruntimed:ehhelpers.obj
 0001:0002fc80       ?_CallMemberFunction0@@YGXQAX0@Z 10030c80 f i libvcruntimed:ehhelpers.obj
 0001:0002fd20       ?raw_name@type_info@@QBEPBDXZ 10030d20 f i libvcruntimed:ehhelpers.obj
 0001:0002fd40       __IsExceptionObjectToBeDestroyed 10030d40 f   libvcruntimed:ehhelpers.obj
 0001:0002fd80       __SetWinRTOutOfMemoryExceptionCallback 10030d80 f   libvcruntimed:ehhelpers.obj
 0001:0002fd90       ___AdjustPointer           10030d90 f   libvcruntimed:ehhelpers.obj
 0001:0002fde0       ___FrameUnwindFilter       10030de0 f   libvcruntimed:ehhelpers.obj
 0001:0002fe70       ___GetPlatformExceptionInfo 10030e70 f   libvcruntimed:ehhelpers.obj
 0001:0002fef0       ___current_exception       10030ef0 f   libvcruntimed:ehhelpers.obj
 0001:0002ff00       ___current_exception_context 10030f00 f   libvcruntimed:ehhelpers.obj
 0001:0002ff10       ___processing_throw        10030f10 f   libvcruntimed:ehhelpers.obj
 0001:0002ff20       ___std_terminate           10030f20 f   libvcruntimed:ehhelpers.obj
 0001:0002ff30       __is_exception_typeof      10030f30 f   libvcruntimed:ehhelpers.obj
 0001:00030030       ??$?RD@__crt_internal_free_policy@@QBEXQBD@Z 10031030 f i libvcruntimed:std_type_info.obj
 0001:00030050       ??$?RX@__crt_internal_free_policy@@QBEXQBX@Z 10031050 f i libvcruntimed:std_type_info.obj
 0001:00030070       ??$__crt_interlocked_compare_exchange_pointer@$$CBDPAD$$T@@YAPBDPDSBDQAD$$T@Z 10031070 f i libvcruntimed:std_type_info.obj
 0001:00030090       ??$__crt_interlocked_read_pointer@$$CBD@@YAPBDPDSBD@Z 10031090 f i libvcruntimed:std_type_info.obj
 0001:000300b0       ??0?$__crt_unique_heap_ptr@DU__crt_internal_free_policy@@@@QAE@QAD@Z 100310b0 f i libvcruntimed:std_type_info.obj
 0001:000300d0       ??0?$__crt_unique_heap_ptr@XU__crt_internal_free_policy@@@@QAE@QAX@Z 100310d0 f i libvcruntimed:std_type_info.obj
 0001:000300f0       ??1?$__crt_unique_heap_ptr@DU__crt_internal_free_policy@@@@QAE@XZ 100310f0 f i libvcruntimed:std_type_info.obj
 0001:00030110       ??1?$__crt_unique_heap_ptr@XU__crt_internal_free_policy@@@@QAE@XZ 10031110 f i libvcruntimed:std_type_info.obj
 0001:00030130       ??B?$__crt_unique_heap_ptr@DU__crt_internal_free_policy@@@@QBE_NXZ 10031130 f i libvcruntimed:std_type_info.obj
 0001:00030150       ??B?$__crt_unique_heap_ptr@XU__crt_internal_free_policy@@@@QBE_NXZ 10031150 f i libvcruntimed:std_type_info.obj
 0001:000301e0       ?detach@?$__crt_unique_heap_ptr@XU__crt_internal_free_policy@@@@QAEPAXXZ 100311e0 f i libvcruntimed:std_type_info.obj
 0001:00030210       ?get@?$__crt_unique_heap_ptr@DU__crt_internal_free_policy@@@@QBEPADXZ 10031210 f i libvcruntimed:std_type_info.obj
 0001:00030220       ?get@?$__crt_unique_heap_ptr@XU__crt_internal_free_policy@@@@QBEPAXXZ 10031220 f i libvcruntimed:std_type_info.obj
 0001:00030230       ?is_valid@?$__crt_unique_heap_ptr@DU__crt_internal_free_policy@@@@QBE_NXZ 10031230 f i libvcruntimed:std_type_info.obj
 0001:00030260       ?is_valid@?$__crt_unique_heap_ptr@XU__crt_internal_free_policy@@@@QBE_NXZ 10031260 f i libvcruntimed:std_type_info.obj
 0001:00030290       ?release@?$__crt_unique_heap_ptr@DU__crt_internal_free_policy@@@@QAEXXZ 10031290 f i libvcruntimed:std_type_info.obj
 0001:000302c0       ?release@?$__crt_unique_heap_ptr@XU__crt_internal_free_policy@@@@QAEXXZ 100312c0 f i libvcruntimed:std_type_info.obj
 0001:000302f0       ___std_type_info_compare   100312f0 f   libvcruntimed:std_type_info.obj
 0001:00030320       ___std_type_info_destroy_list 10031320 f   libvcruntimed:std_type_info.obj
 0001:00030360       ___std_type_info_hash      10031360 f   libvcruntimed:std_type_info.obj
 0001:000303c0       ___std_type_info_name      100313c0 f   libvcruntimed:std_type_info.obj
 0001:000305a0       ___vcrt_GetModuleFileNameW 100315a0 f   libvcruntimed:winapi_thunks.obj
 0001:000305c0       ___vcrt_GetModuleHandleW   100315c0 f   libvcruntimed:winapi_thunks.obj
 0001:000305d0       ___vcrt_LoadLibraryExW     100315d0 f   libvcruntimed:winapi_thunks.obj
 0001:000305f0       ??$?RD@__crt_public_free_policy@@QBEXQBD@Z 100315f0 f i libvcruntimed:std_exception.obj
 0001:00030610       ??0?$__crt_unique_heap_ptr@DU__crt_public_free_policy@@@@QAE@QAD@Z 10031610 f i libvcruntimed:std_exception.obj
 0001:00030630       ??1?$__crt_unique_heap_ptr@DU__crt_public_free_policy@@@@QAE@XZ 10031630 f i libvcruntimed:std_exception.obj
 0001:00030650       ??B?$__crt_unique_heap_ptr@DU__crt_public_free_policy@@@@QBE_NXZ 10031650 f i libvcruntimed:std_exception.obj
 0001:00030670       ?detach@?$__crt_unique_heap_ptr@DU__crt_public_free_policy@@@@QAEPADXZ 10031670 f i libvcruntimed:std_exception.obj
 0001:000306a0       ?get@?$__crt_unique_heap_ptr@DU__crt_public_free_policy@@@@QBEPADXZ 100316a0 f i libvcruntimed:std_exception.obj
 0001:000306b0       ?is_valid@?$__crt_unique_heap_ptr@DU__crt_public_free_policy@@@@QBE_NXZ 100316b0 f i libvcruntimed:std_exception.obj
 0001:000306e0       ?release@?$__crt_unique_heap_ptr@DU__crt_public_free_policy@@@@QAEXXZ 100316e0 f i libvcruntimed:std_exception.obj
 0001:00030710       ___std_exception_copy      10031710 f   libvcruntimed:std_exception.obj
 0001:00030800       ___std_exception_destroy   10031800 f   libvcruntimed:std_exception.obj
 0001:00030830       __CxxThrowException@8      10031830 f   libvcruntimed:throw.obj
 0001:000308e0       _memmove                   100318e0 f   libvcruntimed:memmove.obj
 0001:00030e60       __local_unwind4            10031e60 f   libvcruntimed:exsup4.obj
 0001:00030f50       __seh_longjmp_unwind4@4    10031f50 f   libvcruntimed:exsup4.obj
 0001:00030f80       @_EH4_CallFilterFunc@8     10031f80 f   libvcruntimed:exsup4.obj
 0001:00030fa0       @_EH4_TransferToHandler@8  10031fa0 f   libvcruntimed:exsup4.obj
 0001:00030fc0       @_EH4_GlobalUnwind2@8      10031fc0 f   libvcruntimed:exsup4.obj
 0001:00030fe0       @_EH4_LocalUnwind@16       10031fe0 f   libvcruntimed:exsup4.obj
 0001:00031010       ___except_validate_context_record 10032010 f   libvcruntimed:jbcxrval.obj
 0001:00031060       ___except_validate_jump_buffer 10032060 f   libvcruntimed:jbcxrval.obj
 0001:00031080       ___except_validate_jump_buffer_common 10032080 f i libvcruntimed:jbcxrval.obj
 0001:000310e0       ??$?RU__vcrt_ptd@@@__crt_internal_free_policy@@QBEXQBU__vcrt_ptd@@@Z 100320e0 f i libvcruntimed:per_thread_data.obj
 0001:00031100       ??0?$__crt_unique_heap_ptr@U__vcrt_ptd@@U__crt_internal_free_policy@@@@QAE@QAU__vcrt_ptd@@@Z 10032100 f i libvcruntimed:per_thread_data.obj
 0001:00031140       ??1?$__crt_unique_heap_ptr@U__vcrt_ptd@@U__crt_internal_free_policy@@@@QAE@XZ 10032140 f i libvcruntimed:per_thread_data.obj
 0001:00031180       ??B?$__crt_unique_heap_ptr@U__vcrt_ptd@@U__crt_internal_free_policy@@@@QBE_NXZ 10032180 f i libvcruntimed:per_thread_data.obj
 0001:000311a0       ?detach@?$__crt_unique_heap_ptr@U__vcrt_ptd@@U__crt_internal_free_policy@@@@QAEPAU__vcrt_ptd@@XZ 100321a0 f i libvcruntimed:per_thread_data.obj
 0001:000311d0       ?get@?$__crt_unique_heap_ptr@U__vcrt_ptd@@U__crt_internal_free_policy@@@@QBEPAU__vcrt_ptd@@XZ 100321d0 f i libvcruntimed:per_thread_data.obj
 0001:000311e0       ?is_valid@?$__crt_unique_heap_ptr@U__vcrt_ptd@@U__crt_internal_free_policy@@@@QBE_NXZ 100321e0 f i libvcruntimed:per_thread_data.obj
 0001:00031210       ?release@?$__crt_unique_heap_ptr@U__vcrt_ptd@@U__crt_internal_free_policy@@@@QAEXXZ 10032210 f i libvcruntimed:per_thread_data.obj
 0001:00031270       ___vcrt_freefls@4          10032270 f   libvcruntimed:per_thread_data.obj
 0001:000312a0       ___vcrt_freeptd            100322a0 f   libvcruntimed:per_thread_data.obj
 0001:00031300       ___vcrt_getptd             10032300 f   libvcruntimed:per_thread_data.obj
 0001:00031320       ___vcrt_getptd_noexit      10032320 f   libvcruntimed:per_thread_data.obj
 0001:00031480       ___vcrt_getptd_noinit      10032480 f   libvcruntimed:per_thread_data.obj
 0001:000314e0       ___vcrt_initialize_ptd     100324e0 f   libvcruntimed:per_thread_data.obj
 0001:00031530       ___vcrt_uninitialize_ptd   10032530 f   libvcruntimed:per_thread_data.obj
 0001:00031560       ___vcrt_initialize_locks   10032560 f   libvcruntimed:locks.obj
 0001:000315c0       ___vcrt_lock               100325c0 f   libvcruntimed:locks.obj
 0001:000315e0       ___vcrt_uninitialize_locks 100325e0 f   libvcruntimed:locks.obj
 0001:00031630       ___vcrt_unlock             10032630 f   libvcruntimed:locks.obj
 0001:000321a0       ??$TypeMatchHelper@V__FrameHandler3@@@@YAHPBU_s_HandlerType@@PBU_s_CatchableType@@PBU_s_ThrowInfo@@@Z 100331a0 f i libvcruntimed:frame.obj
 0001:00032280       ??$__InternalCxxFrameHandler@V__FrameHandler3@@@@YA?AW4_EXCEPTION_DISPOSITION@@PAUEHExceptionRecord@@PAUEHRegistrationNode@@PAU_CONTEXT@@PAXPBU_s_FuncInfo@@H1E@Z 10033280 f i libvcruntimed:frame.obj
 0001:00032440       ??0HandlerMap@__FrameHandler3@@QAE@PBU_s_TryBlockMapEntry@@II@Z 10033440 f i libvcruntimed:frame.obj
 0001:00032470       ??0TryBlockMap@__FrameHandler3@@QAE@PBU_s_FuncInfo@@I@Z 10033470 f i libvcruntimed:frame.obj
 0001:000324a0       ??0bad_exception@std@@QAE@ABV01@@Z 100334a0 f i libvcruntimed:frame.obj
 0001:000324d0       ??0bad_exception@std@@QAE@XZ 100334d0 f i libvcruntimed:frame.obj
 0001:00032500       ??0iterator@HandlerMap@__FrameHandler3@@QAE@AAV12@I@Z 10033500 f i libvcruntimed:frame.obj
 0001:00032530       ??1bad_exception@std@@UAE@XZ 10033530 f i libvcruntimed:frame.obj
 0001:00032550       ??8iterator@HandlerMap@__FrameHandler3@@QBE_NABV012@@Z 10033550 f i libvcruntimed:frame.obj
 0001:00032580       ??8type_info@@QBE_NABV0@@Z 10033580 f i libvcruntimed:frame.obj
 0001:000325c0       ??9iterator@HandlerMap@__FrameHandler3@@QBE_NABV012@@Z 100335c0 f i libvcruntimed:frame.obj
 0001:00032600       ??Diterator@HandlerMap@__FrameHandler3@@QAE?BU_s_HandlerType@@XZ 10033600 f i libvcruntimed:frame.obj
 0001:00032640       ??Diterator@TryBlockMap@__FrameHandler3@@QAE?BU_s_TryBlockMapEntry@@XZ 10033640 f i libvcruntimed:frame.obj
 0001:00032690       ??Eiterator@HandlerMap@__FrameHandler3@@QAEAAV012@XZ 10033690 f i libvcruntimed:frame.obj
 0001:000326b0       ??Eiterator@TryBlockMap@__FrameHandler3@@QAEAAV012@XZ 100336b0 f i libvcruntimed:frame.obj
 0001:000326d0       ??Miterator@TryBlockMap@__FrameHandler3@@QBE_NABV012@@Z 100336d0 f i libvcruntimed:frame.obj
 0001:00032700       ??_Ebad_exception@std@@UAEPAXI@Z 10033700 f i libvcruntimed:frame.obj
 0001:00032700       ??_Gbad_exception@std@@UAEPAXI@Z 10033700 f i libvcruntimed:frame.obj
 0001:00032730       ?BuildCatchObject@__FrameHandler3@@SAXPAUEHExceptionRecord@@PAXPBU_s_HandlerType@@PBU_s_CatchableType@@@Z 10033730 f   libvcruntimed:frame.obj
 0001:00032750       ?BuildCatchObjectHelper@__FrameHandler3@@SAHPAUEHExceptionRecord@@PAXPBU_s_HandlerType@@PBU_s_CatchableType@@@Z 10033750 f   libvcruntimed:frame.obj
 0001:00032af0       ?FrameUnwindToEmptyState@__FrameHandler3@@SAXPAUEHRegistrationNode@@PAXPBU_s_FuncInfo@@@Z 10033af0 f   libvcruntimed:frame.obj
 0001:00032b10       ?FrameUnwindToState@__FrameHandler3@@SAXPAUEHRegistrationNode@@PAXPBU_s_FuncInfo@@H@Z 10033b10 f   libvcruntimed:frame.obj
 0001:00032c90       ?GetMaxState@__FrameHandler3@@SAHPAXPBU_s_FuncInfo@@@Z 10033c90 f i libvcruntimed:frame.obj
 0001:00032db0       ?TypeMatch@__FrameHandler3@@SAHPBU_s_HandlerType@@PBU_s_CatchableType@@PBU_s_ThrowInfo@@@Z 10033db0 f   libvcruntimed:frame.obj
 0001:00032dd0       ?_CallMemberFunction1@@YGXQAX00@Z 10033dd0 f i libvcruntimed:frame.obj
 0001:00032e00       ?_CallMemberFunction2@@YGXQAX00H@Z 10033e00 f i libvcruntimed:frame.obj
 0001:00032e30       ?begin@HandlerMap@__FrameHandler3@@QAE?AViterator@12@XZ 10033e30 f i libvcruntimed:frame.obj
 0001:00032e50       ?end@HandlerMap@__FrameHandler3@@QAE?AViterator@12@XZ 10033e50 f i libvcruntimed:frame.obj
 0001:00032e80       ?getESTypes@__FrameHandler3@@SAPBU_s_ESTypeList@@PBU_s_FuncInfo@@@Z 10033e80 f i libvcruntimed:frame.obj
 0001:00032e90       ?getLastEntry@HandlerMap@__FrameHandler3@@QAEPBU_s_HandlerType@@XZ 10033e90 f i libvcruntimed:frame.obj
 0001:00032eb0       ?getMagicNum@__FrameHandler3@@SAIPBU_s_FuncInfo@@@Z 10033eb0 f i libvcruntimed:frame.obj
 0001:00032ec0       ?getNumTryBlocks@TryBlockMap@__FrameHandler3@@QAEIXZ 10033ec0 f i libvcruntimed:frame.obj
 0001:00032ee0       ?isEHs@__FrameHandler3@@SA_NPBU_s_FuncInfo@@@Z 10033ee0 f i libvcruntimed:frame.obj
 0001:00032f10       ?isNoExcept@__FrameHandler3@@SA_NPBU_s_FuncInfo@@@Z 10033f10 f i libvcruntimed:frame.obj
 0001:00032f40       ___BuildCatchObject        10033f40 f   libvcruntimed:frame.obj
 0001:00032f60       ___BuildCatchObjectHelper  10033f60 f   libvcruntimed:frame.obj
 0001:00032f80       ___TypeMatch               10033f80 f   libvcruntimed:frame.obj
 0001:00032fa0       ___vcrt_EncodePointer      10033fa0 f i libvcruntimed:frame.obj
 0001:00032fb0       __CallSettingFrame@12      10033fb0 f   libvcruntimed:lowhelpr.obj
 0001:00032fd7       __NLG_Return               10033fd7     libvcruntimed:lowhelpr.obj
 0001:00033000       ??$?0$00@DName@@QAE@PBDU?$StringLifeSelector@$00@@@Z 10034000 f i libvcruntimed:undname.obj
 0001:00033050       ??$?0$00@pcharNode@@QAE@PBDHU?$StringLifeSelector@$00@@@Z 10034050 f i libvcruntimed:undname.obj
 0001:00033090       ??$?0$01@DName@@QAE@PBDU?$StringLifeSelector@$01@@@Z 10034090 f i libvcruntimed:undname.obj
 0001:000330e0       ??$?0$01@pcharNode@@QAE@PBDHU?$StringLifeSelector@$01@@@Z 100340e0 f i libvcruntimed:undname.obj
 0001:00033160       ??$?0$0A@@DName@@QAE@PBDU?$StringLifeSelector@$0A@@@@Z 10034160 f i libvcruntimed:undname.obj
 0001:000331b0       ??$?0$0A@@pcharNode@@QAE@PBDHU?$StringLifeSelector@$0A@@@@Z 100341b0 f i libvcruntimed:undname.obj
 0001:00033230       ??$?0_K$0A@@?$optional@_K@std@@QAE@$$QA_K@Z 10034230 f i libvcruntimed:undname.obj
 0001:00033270       ??$?0_K@?$_Optional_construct_base@_K@std@@QAE@Uin_place_t@1@$$QA_K@Z 10034270 f i libvcruntimed:undname.obj
 0001:000332a0       ??$?0_K@?$_Optional_destruct_base@_K$00@std@@QAE@Uin_place_t@1@$$QA_K@Z 100342a0 f i libvcruntimed:undname.obj
 0001:000332d0       ??$append@VDNameNode@@@DName@@AAEXPBVDNameNode@@@Z 100342d0 f i libvcruntimed:undname.obj
 0001:00033360       ??$append@VDNameStatusNode@@@DName@@AAEXPBVDNameStatusNode@@@Z 10034360 f i libvcruntimed:undname.obj
 0001:000333f0       ??$append@VcharNode@@@DName@@AAEXPBVcharNode@@@Z 100343f0 f i libvcruntimed:undname.obj
 0001:00033480       ??$append@VpDNameNode@@@DName@@AAEXPBVpDNameNode@@@Z 10034480 f i libvcruntimed:undname.obj
 0001:00033510       ??$append@VpcharNode@@@DName@@AAEXPBVpcharNode@@@Z 10034510 f i libvcruntimed:undname.obj
 0001:000335a0       ??$doPchar@$00@DName@@AAEXPBDH@Z 100345a0 f i libvcruntimed:undname.obj
 0001:000336b0       ??$doPchar@$01@DName@@AAEXPBDH@Z 100346b0 f i libvcruntimed:undname.obj
 0001:000337c0       ??$doPchar@$0A@@DName@@AAEXPBDH@Z 100347c0 f i libvcruntimed:undname.obj
 0001:000338d0       ??$forward@_K@std@@YA$$QA_KAA_K@Z 100348d0 f i libvcruntimed:undname.obj
 0001:000338e0       ??$size@D$04@std@@YAIAAY04$$CBD@Z 100348e0 f i libvcruntimed:undname.obj
 0001:000338f0       ??$size@D$0EB@@std@@YAIAAY0EB@$$CBD@Z 100348f0 f i libvcruntimed:undname.obj
 0001:00033900       ??0?$_Optional_construct_base@_K@std@@QAE@XZ 10034900 f i libvcruntimed:undname.obj
 0001:00033920       ??0?$_Optional_destruct_base@_K$00@std@@QAE@XZ 10034920 f i libvcruntimed:undname.obj
 0001:00033940       ??0?$optional@_K@std@@QAE@XZ 10034940 f i libvcruntimed:undname.obj
 0001:00033960       ??0Block@_HeapManager@@QAE@XZ 10034960 f i libvcruntimed:undname.obj
 0001:00033980       ??0DName@@QAE@AAPBDD@Z     10034980 f   libvcruntimed:undname.obj
 0001:00033af0       ??0DName@@QAE@ABUStringLiteral@@@Z 10034af0 f   libvcruntimed:undname.obj
 0001:00033b40       ??0DName@@QAE@ABV0@@Z      10034b40 f i libvcruntimed:undname.obj
 0001:00033b70       ??0DName@@QAE@D@Z          10034b70 f   libvcruntimed:undname.obj
 0001:00033ba0       ??0DName@@QAE@PAV0@@Z      10034ba0 f   libvcruntimed:undname.obj
 0001:00033c50       ??0DName@@QAE@W4DNameStatus@@@Z 10034c50 f   libvcruntimed:undname.obj
 0001:00033cf0       ??0DName@@QAE@XZ           10034cf0 f i libvcruntimed:undname.obj
 0001:00033d20       ??0DName@@QAE@_J@Z         10034d20 f   libvcruntimed:undname.obj
 0001:00033e10       ??0DName@@QAE@_K@Z         10034e10 f   libvcruntimed:undname.obj
 0001:00033ec0       ??0DNameNode@@IAE@XZ       10034ec0 f i libvcruntimed:undname.obj
 0001:00033ee0       ??0Replicator@@QAE@XZ      10034ee0 f i libvcruntimed:undname.obj
 0001:00033f20       ??0UnDecorator@@QAE@PBDP6APADJ@ZK@Z 10034f20 f i libvcruntimed:undname.obj
 0001:00033fa0       ??0_Nontrivial_dummy_type@std@@QAE@XZ 10034fa0 f i libvcruntimed:undname.obj
 0001:00033fb0       ??0charNode@@QAE@D@Z       10034fb0 f i libvcruntimed:undname.obj
 0001:00033fe0       ??0pDNameNode@@QAE@PAVDName@@@Z 10034fe0 f   libvcruntimed:undname.obj
 0001:00034040       ??0pairNode@@QAE@PBVDNameNode@@0@Z 10035040 f i libvcruntimed:undname.obj
 0001:000340a0       ??2@YAPAXIAAV_HeapManager@@H@Z 100350a0 f   libvcruntimed:undname.obj
 0001:000340e0       ??4DName@@QAEAAV0@ABUStringLiteral@@@Z 100350e0 f   libvcruntimed:undname.obj
 0001:00034120       ??4DName@@QAEAAV0@ABV0@@Z  10035120 f   libvcruntimed:undname.obj
 0001:00034150       ??4DName@@QAEAAV0@D@Z      10035150 f i libvcruntimed:undname.obj
 0001:00034180       ??4DName@@QAEAAV0@PAV0@@Z  10035180 f   libvcruntimed:undname.obj
 0001:00034220       ??4DName@@QAEAAV0@W4DNameStatus@@@Z 10035220 f   libvcruntimed:undname.obj
 0001:000342a0       ??AReplicator@@QBE?AVDName@@H@Z 100352a0 f   libvcruntimed:undname.obj
 0001:00034310       ??B?$optional@_K@std@@QBE_NXZ 10035310 f i libvcruntimed:undname.obj
 0001:00034330       ??D?$optional@_K@std@@QGAEAA_KXZ 10035330 f i libvcruntimed:undname.obj
 0001:000343a0       ??H@YA?AVDName@@ABUStringLiteral@@ABV0@@Z 100353a0 f i libvcruntimed:undname.obj
 0001:000343d0       ??H@YA?AVDName@@DABV0@@Z   100353d0 f i libvcruntimed:undname.obj
 0001:00034400       ??H@YA?AVDName@@W4DNameStatus@@ABV0@@Z 10035400 f i libvcruntimed:undname.obj
 0001:00034430       ??HDName@@QBE?AV0@ABUStringLiteral@@@Z 10035430 f   libvcruntimed:undname.obj
 0001:00034470       ??HDName@@QBE?AV0@ABV0@@Z  10035470 f   libvcruntimed:undname.obj
 0001:000344b0       ??HDName@@QBE?AV0@D@Z      100354b0 f   libvcruntimed:undname.obj
 0001:000344f0       ??HDName@@QBE?AV0@PAV0@@Z  100354f0 f   libvcruntimed:undname.obj
 0001:00034530       ??HDName@@QBE?AV0@W4DNameStatus@@@Z 10035530 f   libvcruntimed:undname.obj
 0001:00034570       ??HStringLiteral@@QBE?AU0@H@Z 10035570 f i libvcruntimed:undname.obj
 0001:000345a0       ??YDName@@QAEAAV0@ABUStringLiteral@@@Z 100355a0 f   libvcruntimed:undname.obj
 0001:00034640       ??YDName@@QAEAAV0@ABV0@@Z  10035640 f   libvcruntimed:undname.obj
 0001:000346e0       ??YDName@@QAEAAV0@D@Z      100356e0 f   libvcruntimed:undname.obj
 0001:00034760       ??YDName@@QAEAAV0@PAV0@@Z  10035760 f   libvcruntimed:undname.obj
 0001:00034810       ??YDName@@QAEAAV0@W4DNameStatus@@@Z 10035810 f   libvcruntimed:undname.obj
 0001:00034870       ??YReplicator@@QAEAAV0@ABVDName@@@Z 10035870 f   libvcruntimed:undname.obj
 0001:00034900       ??_5DName@@QAEAAV0@ABV0@@Z 10035900 f   libvcruntimed:undname.obj
 0001:00034960       ??__K_l@@YA?AUStringLiteral@@PBDI@Z 10035960 f i libvcruntimed:undname.obj
 0001:00034980       ?Constructor@_HeapManager@@QAEXP6APAXI@ZP6AXPAX@Z@Z 10035980 f i libvcruntimed:undname.obj
 0001:000349c0       ?Destructor@_HeapManager@@QAEXXZ 100359c0 f i libvcruntimed:undname.obj
 0001:00034a30       ?UScore@UnDecorator@@SA?AUStringLiteral@@W4Tokens@@@Z 10035a30 f   libvcruntimed:undname.obj
 0001:00034a80       ?composeDeclaration@UnDecorator@@CA?AVDName@@ABV2@@Z 10035a80 f i libvcruntimed:undname.obj
 0001:000369f0       ?dbGetString@DName@@QBEPADXZ 100379f0 f   libvcruntimed:undname.obj
 0001:00036a10       ?doAccessSpecifiers@UnDecorator@@SAHXZ 10037a10 f i libvcruntimed:undname.obj
 0001:00036a40       ?doAllocationLanguage@UnDecorator@@SAHXZ 10037a40 f i libvcruntimed:undname.obj
 0001:00036a70       ?doAllocationModel@UnDecorator@@SAHXZ 10037a70 f i libvcruntimed:undname.obj
 0001:00036aa0       ?doEcsu@UnDecorator@@SAHXZ 10037aa0 f i libvcruntimed:undname.obj
 0001:00036ad0       ?doEllipsis@UnDecorator@@SAHXZ 10037ad0 f i libvcruntimed:undname.obj
 0001:00036b00       ?doFunctionReturns@UnDecorator@@SAHXZ 10037b00 f i libvcruntimed:undname.obj
 0001:00036b30       ?doMSKeywords@UnDecorator@@SAHXZ 10037b30 f i libvcruntimed:undname.obj
 0001:00036b60       ?doMemberTypes@UnDecorator@@SAHXZ 10037b60 f i libvcruntimed:undname.obj
 0001:00036b90       ?doNameOnly@UnDecorator@@SAHXZ 10037b90 f i libvcruntimed:undname.obj
 0001:00036ba0       ?doNoIdentCharCheck@UnDecorator@@SAHXZ 10037ba0 f i libvcruntimed:undname.obj
 0001:00036bb0       ?doPchar@DName@@AAEXD@Z    10037bb0 f   libvcruntimed:undname.obj
 0001:00036c20       ?doPtr64@UnDecorator@@SAHXZ 10037c20 f i libvcruntimed:undname.obj
 0001:00036c50       ?doRestrictionSpec@UnDecorator@@SAHXZ 10037c50 f i libvcruntimed:undname.obj
 0001:00036c80       ?doThisTypes@UnDecorator@@SAHXZ 10037c80 f i libvcruntimed:undname.obj
 0001:00036cb0       ?doThrowTypes@UnDecorator@@SAHXZ 10037cb0 f i libvcruntimed:undname.obj
 0001:00036ce0       ?doTypeOnly@UnDecorator@@SAHXZ 10037ce0 f i libvcruntimed:undname.obj
 0001:00036cf0       ?doUnderScore@UnDecorator@@SAHXZ 10037cf0 f i libvcruntimed:undname.obj
 0001:00036d20       ?getAddressOf@UnDecorator@@CA?AVDName@@XZ 10037d20 f   libvcruntimed:undname.obj
 0001:00036da0       ?getArgumentList@UnDecorator@@CA?AVDName@@XZ 10037da0 f   libvcruntimed:undname.obj
 0001:00036ef0       ?getArgumentTypes@UnDecorator@@CA?AVDName@@XZ 10037ef0 f   libvcruntimed:undname.obj
 0001:000370c0       ?getArrayAccess@UnDecorator@@CA?AVDName@@XZ 100380c0 f   libvcruntimed:undname.obj
 0001:00037160       ?getArrayObject@UnDecorator@@CA?AVDName@@XZ 10038160 f   libvcruntimed:undname.obj
 0001:00037240       ?getArrayType@UnDecorator@@CA?AVDName@@ABV2@@Z 10038240 f i libvcruntimed:undname.obj
 0001:000374e0       ?getBasedType@UnDecorator@@CA?AVDName@@XZ 100384e0 f   libvcruntimed:undname.obj
 0001:000375d0       ?getBasicDataType@UnDecorator@@CA?AVDName@@ABV2@@Z 100385d0 f   libvcruntimed:undname.obj
 0001:00037f40       ?getCHPEName@UnDecorator@@QAEPADPADH@Z 10038f40 f i libvcruntimed:undname.obj
 0001:000380a0       ?getCallIndex@UnDecorator@@CA?AVDName@@XZ 100390a0 f i libvcruntimed:undname.obj
 0001:000380c0       ?getCallingConvention@UnDecorator@@CA?AVDName@@XZ 100390c0 f   libvcruntimed:undname.obj
 0001:00038320       ?getDataIndirectType@UnDecorator@@CA?AVDName@@ABV2@W4IndirectionKind@@0H@Z 10039320 f   libvcruntimed:undname.obj
 0001:00038c40       ?getDataIndirectType@UnDecorator@@CA?AVDName@@XZ 10039c40 f i libvcruntimed:undname.obj
 0001:00038c80       ?getDataType@UnDecorator@@CA?AVDName@@PAV2@@Z 10039c80 f   libvcruntimed:undname.obj
 0001:00038dc0       ?getDecoratedName@UnDecorator@@CA?AVDName@@XZ 10039dc0 f   libvcruntimed:undname.obj
 0001:00039200       ?getDimension@UnDecorator@@CA?AVDName@@_N@Z 1003a200 f   libvcruntimed:undname.obj
 0001:00039460       ?getDispatchTarget@UnDecorator@@CA?AVDName@@XZ 1003a460 f   libvcruntimed:undname.obj
 0001:00039500       ?getDisplacement@UnDecorator@@CA?AVDName@@XZ 1003a500 f i libvcruntimed:undname.obj
 0001:00039520       ?getECSUDataType@UnDecorator@@CA?AVDName@@XZ 1003a520 f   libvcruntimed:undname.obj
 0001:00039780       ?getECSUName@UnDecorator@@CA?AVDName@@XZ 1003a780 f i libvcruntimed:undname.obj
 0001:000397a0       ?getEnumType@UnDecorator@@CA?AVDName@@XZ 1003a7a0 f i libvcruntimed:undname.obj
 0001:00039960       ?getExtendedDataIndirectType@UnDecorator@@CA?AVDName@@AAW4IndirectionKind@@AA_NH@Z 1003a960 f   libvcruntimed:undname.obj
 0001:00039bb0       ?getExternalDataType@UnDecorator@@CA?AVDName@@ABV2@@Z 1003abb0 f i libvcruntimed:undname.obj
 0001:00039c50       ?getFloatingPoint@UnDecorator@@CA?AVDName@@H@Z 1003ac50 f   libvcruntimed:undname.obj
 0001:00039e10       ?getFunctionIndirectType@UnDecorator@@CA?AVDName@@ABV2@@Z 1003ae10 f   libvcruntimed:undname.obj
 0001:0003a2f0       ?getGuardNumber@UnDecorator@@CA?AVDName@@XZ 1003b2f0 f i libvcruntimed:undname.obj
 0001:0003a310       ?getLastChar@DName@@QBEDXZ 1003b310 f i libvcruntimed:undname.obj
 0001:0003a350       ?getLastChar@DNameStatusNode@@UBEDXZ 1003b350 f i libvcruntimed:undname.obj
 0001:0003a380       ?getLastChar@charNode@@UBEDXZ 1003b380 f i libvcruntimed:undname.obj
 0001:0003a3a0       ?getLastChar@pDNameNode@@UBEDXZ 1003b3a0 f i libvcruntimed:undname.obj
 0001:0003a3d0       ?getLastChar@pairNode@@UBEDXZ 1003b3d0 f i libvcruntimed:undname.obj
 0001:0003a440       ?getLastChar@pcharNode@@UBEDXZ 1003b440 f i libvcruntimed:undname.obj
 0001:0003a480       ?getLexicalFrame@UnDecorator@@CA?AVDName@@XZ 1003b480 f i libvcruntimed:undname.obj
 0001:0003a4c0       ?getMemberAccess@UnDecorator@@CA?AVDName@@XZ 1003b4c0 f   libvcruntimed:undname.obj
 0001:0003a550       ?getMemoryWithBuffer@_HeapManager@@QAEPAXI@Z 1003b550 f   libvcruntimed:undname.obj
 0001:0003a640       ?getMemoryWithoutBuffer@_HeapManager@@QAEPAXI@Z 1003b640 f   libvcruntimed:undname.obj
 0001:0003a680       ?getNoexcept@UnDecorator@@CA?AVDName@@XZ 1003b680 f   libvcruntimed:undname.obj
 0001:0003a700       ?getNumberOfDimensions@UnDecorator@@CAHXZ 1003b700 f   libvcruntimed:undname.obj
 0001:0003a800       ?getOperatorName@UnDecorator@@CA?AVDName@@_NPA_N@Z 1003b800 f i libvcruntimed:undname.obj
 0001:0003b300       ?getPointerToMember@UnDecorator@@CA?AVDName@@XZ 1003c300 f   libvcruntimed:undname.obj
 0001:0003b3f0       ?getPointerType@UnDecorator@@CA?AVDName@@ABV2@0@Z 1003c3f0 f i libvcruntimed:undname.obj
 0001:0003b410       ?getPointerTypeArray@UnDecorator@@CA?AVDName@@ABV2@0@Z 1003c410 f i libvcruntimed:undname.obj
 0001:0003b430       ?getPrimaryDataType@UnDecorator@@CA?AVDName@@ABV2@@Z 1003c430 f   libvcruntimed:undname.obj
 0001:0003b8c0       ?getPtrRefDataType@UnDecorator@@CA?AVDName@@ABV2@H@Z 1003c8c0 f   libvcruntimed:undname.obj
 0001:0003bb70       ?getPtrRefType@UnDecorator@@CA?AVDName@@ABV2@0W4IndirectionKind@@@Z 1003cb70 f   libvcruntimed:undname.obj
 0001:0003bcf0       ?getReferenceType@UnDecorator@@CA?AVDName@@ABV2@0W4IndirectionKind@@@Z 1003ccf0 f i libvcruntimed:undname.obj
 0001:0003bd10       ?getRestrictionSpec@UnDecorator@@CA?AVDName@@XZ 1003cd10 f   libvcruntimed:undname.obj
 0001:0003bed0       ?getReturnType@UnDecorator@@CA?AVDName@@PAV2@@Z 1003ced0 f   libvcruntimed:undname.obj
 0001:0003bf20       ?getScope@UnDecorator@@CA?AVDName@@XZ 1003cf20 f   libvcruntimed:undname.obj
 0001:0003c4b0       ?getScopedName@UnDecorator@@CA?AVDName@@XZ 1003d4b0 f   libvcruntimed:undname.obj
 0001:0003c600       ?getSignedDimension@UnDecorator@@CA?AVDName@@XZ 1003d600 f   libvcruntimed:undname.obj
 0001:0003c680       ?getStorageConvention@UnDecorator@@CA?AVDName@@XZ 1003d680 f i libvcruntimed:undname.obj
 0001:0003c6a0       ?getString@DName@@QBEPADPAD0@Z 1003d6a0 f i libvcruntimed:undname.obj
 0001:0003c700       ?getString@DName@@QBEPADPADH@Z 1003d700 f i libvcruntimed:undname.obj
 0001:0003c790       ?getString@DNameStatusNode@@UBEPADPAD0@Z 1003d790 f i libvcruntimed:undname.obj
 0001:0003c7d0       ?getString@charNode@@UBEPADPAD0@Z 1003d7d0 f i libvcruntimed:undname.obj
 0001:0003c800       ?getString@pDNameNode@@UBEPADPAD0@Z 1003d800 f i libvcruntimed:undname.obj
 0001:0003c840       ?getString@pairNode@@UBEPADPAD0@Z 1003d840 f i libvcruntimed:undname.obj
 0001:0003c8d0       ?getString@pcharNode@@UBEPADPAD0@Z 1003d8d0 f i libvcruntimed:undname.obj
 0001:0003c900       ?getStringEncoding@UnDecorator@@CA?AVDName@@W4PrefixKind@@H@Z 1003d900 f   libvcruntimed:undname.obj
 0001:0003ca10       ?getStringHelper@@YAPADPADPBD1H@Z 1003da10 f i libvcruntimed:undname.obj
 0001:0003ca50       ?getStringObject@UnDecorator@@CA?AVDName@@XZ 1003da50 f   libvcruntimed:undname.obj
 0001:0003cb00       ?getSymbolName@UnDecorator@@CA?AVDName@@XZ 1003db00 f i libvcruntimed:undname.obj
 0001:0003cb90       ?getTemplateArgumentList@UnDecorator@@CA?AVDName@@XZ 1003db90 f   libvcruntimed:undname.obj
 0001:0003ce80       ?getTemplateName@UnDecorator@@CA?AVDName@@_N@Z 1003de80 f   libvcruntimed:undname.obj
 0001:0003d040       ?getTemplateNonTypeArgument@UnDecorator@@CA?AVDName@@XZ 1003e040 f   libvcruntimed:undname.obj
 0001:0003d680       ?getTemplateTypeArgument@UnDecorator@@CA?AVDName@@XZ 1003e680 f   libvcruntimed:undname.obj
 0001:0003d820       ?getThisType@UnDecorator@@CA?AVDName@@XZ 1003e820 f i libvcruntimed:undname.obj
 0001:0003d860       ?getThrowTypes@UnDecorator@@CA?AVDName@@XZ 1003e860 f   libvcruntimed:undname.obj
 0001:0003d8a0       ?getTypeEncoding@UnDecorator@@CAHXZ 1003e8a0 f i libvcruntimed:undname.obj
 0001:0003e360       ?getUndecoratedName@UnDecorator@@QAEPADPADH@Z 1003f360 f i libvcruntimed:undname.obj
 0001:0003e4c0       ?getUnionObject@UnDecorator@@CA?AVDName@@XZ 1003f4c0 f   libvcruntimed:undname.obj
 0001:0003e590       ?getVCallThunkType@UnDecorator@@CA?AVDName@@XZ 1003f590 f i libvcruntimed:undname.obj
 0001:0003e610       ?getValue@UnDecorator@@CA?AV?$optional@_K@std@@XZ 1003f610 f   libvcruntimed:undname.obj
 0001:0003e6d0       ?getValueObject@UnDecorator@@CA?AVDName@@XZ 1003f6d0 f   libvcruntimed:undname.obj
 0001:0003e8b0       ?getVbTableType@UnDecorator@@CA?AVDName@@ABV2@@Z 1003f8b0 f i libvcruntimed:undname.obj
 0001:0003e8d0       ?getVdispMapType@UnDecorator@@CA?AVDName@@ABV2@@Z 1003f8d0 f i libvcruntimed:undname.obj
 0001:0003e960       ?getVfTableType@UnDecorator@@CA?AVDName@@ABV2@@Z 1003f960 f i libvcruntimed:undname.obj
 0001:0003eb60       ?getZName@UnDecorator@@CA?AVDName@@_N0@Z 1003fb60 f   libvcruntimed:undname.obj
 0001:0003ee90       ?haveTemplateParameters@UnDecorator@@SAHXZ 1003fe90 f i libvcruntimed:undname.obj
 0001:0003eea0       ?isArray@DName@@QBEHXZ     1003fea0 f i libvcruntimed:undname.obj
 0001:0003eec0       ?isComArray@DName@@QBEHXZ  1003fec0 f i libvcruntimed:undname.obj
 0001:0003eee0       ?isEmpty@DName@@QBEHXZ     1003fee0 f i libvcruntimed:undname.obj
 0001:0003ef10       ?isFull@Replicator@@QBEHXZ 1003ff10 f i libvcruntimed:undname.obj
 0001:0003ef40       ?isNoTE@DName@@QBEHXZ      1003ff40 f i libvcruntimed:undname.obj
 0001:0003ef60       ?isPinPtr@DName@@QBEHXZ    1003ff60 f i libvcruntimed:undname.obj
 0001:0003ef80       ?isPtrRef@DName@@QBEHXZ    1003ff80 f i libvcruntimed:undname.obj
 0001:0003efa0       ?isUDC@DName@@QBEHXZ       1003ffa0 f i libvcruntimed:undname.obj
 0001:0003efe0       ?isUDTThunk@DName@@QBEHXZ  1003ffe0 f i libvcruntimed:undname.obj
 0001:0003f020       ?isVCallThunk@DName@@QBEHXZ 10040020 f i libvcruntimed:undname.obj
 0001:0003f040       ?isValid@DName@@QBEHXZ     10040040 f i libvcruntimed:undname.obj
 0001:0003f080       ?length@DName@@QBEHXZ      10040080 f i libvcruntimed:undname.obj
 0001:0003f0c0       ?length@DNameStatusNode@@UBEHXZ 100400c0 f i libvcruntimed:undname.obj
 0001:0003f0e0       ?length@charNode@@UBEHXZ   100400e0 f i libvcruntimed:undname.obj
 0001:0003f0f0       ?length@pDNameNode@@UBEHXZ 100400f0 f i libvcruntimed:undname.obj
 0001:0003f120       ?length@pairNode@@UBEHXZ   10040120 f i libvcruntimed:undname.obj
 0001:0003f190       ?length@pcharNode@@UBEHXZ  10040190 f i libvcruntimed:undname.obj
 0001:0003f1b0       ?make@DNameStatusNode@@SAPBV1@W4DNameStatus@@@Z 100401b0 f i libvcruntimed:undname.obj
 0001:0003f1e0       ?parseDecoratedName@UnDecorator@@CA?AVDName@@XZ 100401e0 f   libvcruntimed:undname.obj
 0001:0003f370       ?raw_length@DNameStatusNode@@UBEHXZ 10040370 f i libvcruntimed:undname.obj
 0001:0003f390       ?raw_length@charNode@@UBEHXZ 10040390 f i libvcruntimed:undname.obj
 0001:0003f3b0       ?raw_length@pDNameNode@@UBEHXZ 100403b0 f i libvcruntimed:undname.obj
 0001:0003f3c0       ?raw_length@pairNode@@UBEHXZ 100403c0 f i libvcruntimed:undname.obj
 0001:0003f3e0       ?raw_length@pcharNode@@UBEHXZ 100403e0 f i libvcruntimed:undname.obj
 0001:0003f400       ?setIsArray@DName@@QAEXXZ  10040400 f i libvcruntimed:undname.obj
 0001:0003f420       ?setIsComArray@DName@@QAEXXZ 10040420 f i libvcruntimed:undname.obj
 0001:0003f440       ?setIsNoTE@DName@@QAEXXZ   10040440 f i libvcruntimed:undname.obj
 0001:0003f460       ?setIsPinPtr@DName@@QAEXXZ 10040460 f i libvcruntimed:undname.obj
 0001:0003f480       ?setIsUDC@DName@@QAEXXZ    10040480 f i libvcruntimed:undname.obj
 0001:0003f4b0       ?setIsVCallThunk@DName@@QAEXXZ 100404b0 f i libvcruntimed:undname.obj
 0001:0003f4d0       ?setPtrRef@DName@@QAEAAV1@XZ 100404d0 f i libvcruntimed:undname.obj
 0001:0003f4f0       ?status@DName@@QBE?AW4DNameStatus@@XZ 100404f0 f i libvcruntimed:undname.obj
 0001:0003f5f0       ___unDName                 100405f0 f   libvcruntimed:undname.obj
 0001:0003f620       ___unDNameEx               10040620 f   libvcruntimed:undname.obj
 0001:0003f6f0       _unDNameGenerateCHPE       100406f0 f   libvcruntimed:undname.obj
 0001:0003f750       __global_unwind2           10040750 f   libvcruntimed:exsup.obj
 0001:0003f7d0       __local_unwind2            100407d0 f   libvcruntimed:exsup.obj
 0001:0003f870       __abnormal_termination     10040870 f   libvcruntimed:exsup.obj
 0001:0003f8a0       __NLG_Notify1              100408a0 f   libvcruntimed:exsup.obj
 0001:0003f8b0       __NLG_Notify               100408b0 f   libvcruntimed:exsup.obj
 0001:0003f8c7       __NLG_Dispatch             100408c7     libvcruntimed:exsup.obj
 0001:0003f8c7       __NLG_Dispatch2            100408c7     libvcruntimed:exsup.obj
 0001:0003f8d0       __NLG_Call                 100408d0 f   libvcruntimed:exsup.obj
 0001:0003f8d2       __NLG_Return2              100408d2     libvcruntimed:exsup.obj
 0001:0003f8e0       ??$__crt_interlocked_exchange_pointer@UHINSTANCE__@@PAU1@@@YAPAUHINSTANCE__@@PDSAU0@QAU0@@Z 100408e0 f i libvcruntimed:winapi_downlevel.obj
 0001:0003f8f0       ??$__crt_interlocked_exchange_pointer@UHINSTANCE__@@PAX@@YAPAUHINSTANCE__@@PDSAU0@QAX@Z 100408f0 f i libvcruntimed:winapi_downlevel.obj
 0001:0003f900       ??$__crt_interlocked_exchange_pointer@XPAX@@YAPAXPDSAXQAX@Z 10040900 f i libvcruntimed:winapi_downlevel.obj
 0001:0003f910       ??$__crt_interlocked_read_pointer@UHINSTANCE__@@@@YAPAUHINSTANCE__@@PDSAU0@@Z 10040910 f i libvcruntimed:winapi_downlevel.obj
 0001:0003f930       ??$__crt_interlocked_read_pointer@X@@YAPAXPDSAX@Z 10040930 f i libvcruntimed:winapi_downlevel.obj
 0001:0003fd00       ___vcrt_FlsAlloc           10040d00 f   libvcruntimed:winapi_downlevel.obj
 0001:0003fd40       ___vcrt_FlsFree            10040d40 f   libvcruntimed:winapi_downlevel.obj
 0001:0003fd80       ___vcrt_FlsGetValue        10040d80 f   libvcruntimed:winapi_downlevel.obj
 0001:0003fdc0       ___vcrt_FlsSetValue        10040dc0 f   libvcruntimed:winapi_downlevel.obj
 0001:0003fe10       ___vcrt_InitializeCriticalSectionEx 10040e10 f   libvcruntimed:winapi_downlevel.obj
 0001:0003fe90       __get_unexpected           10040e90 f   libvcruntimed:unexpected.obj
 0001:0003feb0       _set_unexpected            10040eb0 f   libvcruntimed:unexpected.obj
 0001:0003fee0       _unexpected                10040ee0 f   libvcruntimed:unexpected.obj
 0001:0003ff20       ?GetCurrentState@__FrameHandler3@@SAHPAUEHRegistrationNode@@PAXPBU_s_FuncInfo@@@Z 10040f20 f   libvcruntimed:ehstate.obj
 0001:0003ff50       ?SetState@__FrameHandler3@@SAXPAUEHRegistrationNode@@PBU_s_FuncInfo@@H@Z 10040f50 f   libvcruntimed:ehstate.obj
 0001:0003ff60       ??$?0ABV?$stream_output_adapter@D@__crt_stdio_output@@AB_KABQBDAAV__crt_cached_ptd_host@@ABQAD@?$format_validation_base@DV?$stream_output_adapter@D@__crt_stdio_output@@@__crt_stdio_output@@IAE@ABV?$stream_output_adapter@D@1@AB_KABQBDAAV__crt_cached_ptd_host@@ABQAD@Z 10040f60 f i libucrtd:output.obj
 0001:0003ff90       ??$?0ABV?$stream_output_adapter@D@__crt_stdio_output@@AB_KABQBDAAV__crt_cached_ptd_host@@ABQAD@?$positional_parameter_base@DV?$stream_output_adapter@D@__crt_stdio_output@@@__crt_stdio_output@@IAE@ABV?$stream_output_adapter@D@1@AB_KABQBDAAV__crt_cached_ptd_host@@ABQAD@Z 10040f90 f i libucrtd:output.obj
 0001:00040010       ??$?0ABV?$stream_output_adapter@D@__crt_stdio_output@@AB_KABQBDAAV__crt_cached_ptd_host@@ABQAD@?$standard_base@DV?$stream_output_adapter@D@__crt_stdio_output@@@__crt_stdio_output@@IAE@ABV?$stream_output_adapter@D@1@AB_KABQBDAAV__crt_cached_ptd_host@@ABQAD@Z 10041010 f i libucrtd:output.obj
 0001:00040060       ??$?0ABV?$stream_output_adapter@_W@__crt_stdio_output@@AB_KABQB_WAAV__crt_cached_ptd_host@@ABQAD@?$format_validation_base@_WV?$stream_output_adapter@_W@__crt_stdio_output@@@__crt_stdio_output@@IAE@ABV?$stream_output_adapter@_W@1@AB_KABQB_WAAV__crt_cached_ptd_host@@ABQAD@Z 10041060 f i libucrtd:output.obj
 0001:00040090       ??$?0ABV?$stream_output_adapter@_W@__crt_stdio_output@@AB_KABQB_WAAV__crt_cached_ptd_host@@ABQAD@?$positional_parameter_base@_WV?$stream_output_adapter@_W@__crt_stdio_output@@@__crt_stdio_output@@IAE@ABV?$stream_output_adapter@_W@1@AB_KABQB_WAAV__crt_cached_ptd_host@@ABQAD@Z 10041090 f i libucrtd:output.obj
 0001:00040110       ??$?0ABV?$stream_output_adapter@_W@__crt_stdio_output@@AB_KABQB_WAAV__crt_cached_ptd_host@@ABQAD@?$standard_base@_WV?$stream_output_adapter@_W@__crt_stdio_output@@@__crt_stdio_output@@IAE@ABV?$stream_output_adapter@_W@1@AB_KABQB_WAAV__crt_cached_ptd_host@@ABQAD@Z 10041110 f i libucrtd:output.obj
 0001:00040160       ??$?0ABV?$string_output_adapter@D@__crt_stdio_output@@AB_KABQBDAAV__crt_cached_ptd_host@@ABQAD@?$format_validation_base@DV?$string_output_adapter@D@__crt_stdio_output@@@__crt_stdio_output@@IAE@ABV?$string_output_adapter@D@1@AB_KABQBDAAV__crt_cached_ptd_host@@ABQAD@Z 10041160 f i libucrtd:output.obj
 0001:00040190       ??$?0ABV?$string_output_adapter@D@__crt_stdio_output@@AB_KABQBDAAV__crt_cached_ptd_host@@ABQAD@?$positional_parameter_base@DV?$string_output_adapter@D@__crt_stdio_output@@@__crt_stdio_output@@IAE@ABV?$string_output_adapter@D@1@AB_KABQBDAAV__crt_cached_ptd_host@@ABQAD@Z 10041190 f i libucrtd:output.obj
 0001:00040210       ??$?0ABV?$string_output_adapter@D@__crt_stdio_output@@AB_KABQBDAAV__crt_cached_ptd_host@@ABQAD@?$standard_base@DV?$string_output_adapter@D@__crt_stdio_output@@@__crt_stdio_output@@IAE@ABV?$string_output_adapter@D@1@AB_KABQBDAAV__crt_cached_ptd_host@@ABQAD@Z 10041210 f i libucrtd:output.obj
 0001:00040260       ??$?0ABV?$string_output_adapter@_W@__crt_stdio_output@@AB_KABQB_WAAV__crt_cached_ptd_host@@ABQAD@?$format_validation_base@_WV?$string_output_adapter@_W@__crt_stdio_output@@@__crt_stdio_output@@IAE@ABV?$string_output_adapter@_W@1@AB_KABQB_WAAV__crt_cached_ptd_host@@ABQAD@Z 10041260 f i libucrtd:output.obj
 0001:00040290       ??$?0ABV?$string_output_adapter@_W@__crt_stdio_output@@AB_KABQB_WAAV__crt_cached_ptd_host@@ABQAD@?$positional_parameter_base@_WV?$string_output_adapter@_W@__crt_stdio_output@@@__crt_stdio_output@@IAE@ABV?$string_output_adapter@_W@1@AB_KABQB_WAAV__crt_cached_ptd_host@@ABQAD@Z 10041290 f i libucrtd:output.obj
 0001:00040310       ??$?0ABV?$string_output_adapter@_W@__crt_stdio_output@@AB_KABQB_WAAV__crt_cached_ptd_host@@ABQAD@?$standard_base@_WV?$string_output_adapter@_W@__crt_stdio_output@@@__crt_stdio_output@@IAE@ABV?$string_output_adapter@_W@1@AB_KABQB_WAAV__crt_cached_ptd_host@@ABQAD@Z 10041310 f i libucrtd:output.obj
 0001:00040960       ??$__crt_interlocked_read@J@@YAJPDJ@Z 10041960 f i libucrtd:output.obj
 0001:00040980       ??$_tcstol_internal@DPAPAD$0A@@@YAJAAV__crt_cached_ptd_host@@QBDQAPADH@Z 10041980 f i libucrtd:output.obj
 0001:000409c0       ??$_tcstol_internal@_WPAPA_W$0A@@@YAJAAV__crt_cached_ptd_host@@QB_WQAPA_WH@Z 100419c0 f i libucrtd:output.obj
 0001:00043960       ??$count@D@formatting_buffer@__crt_stdio_output@@QBEIXZ 10044960 f i libucrtd:output.obj
 0001:000439a0       ??$count@_W@formatting_buffer@__crt_stdio_output@@QBEIXZ 100449a0 f i libucrtd:output.obj
 0001:000439e0       ??$data@D@formatting_buffer@__crt_stdio_output@@QAEPADXZ 100449e0 f i libucrtd:output.obj
 0001:00043a20       ??$data@_W@formatting_buffer@__crt_stdio_output@@QAEPA_WXZ 10044a20 f i libucrtd:output.obj
 0001:00043a60       ??$ensure_buffer_is_big_enough@D@formatting_buffer@__crt_stdio_output@@QAE_NIAAV__crt_cached_ptd_host@@@Z 10044a60 f i libucrtd:output.obj
 0001:00043b50       ??$ensure_buffer_is_big_enough@_W@formatting_buffer@__crt_stdio_output@@QAE_NIAAV__crt_cached_ptd_host@@@Z 10044b50 f i libucrtd:output.obj
 0001:00043c40       ??$extract_argument_from_va_list@C_J@?$positional_parameter_base@DV?$stream_output_adapter@D@__crt_stdio_output@@@__crt_stdio_output@@IAE_NAA_J@Z 10044c40 f i libucrtd:output.obj
 0001:00043da0       ??$extract_argument_from_va_list@C_J@?$positional_parameter_base@DV?$string_output_adapter@D@__crt_stdio_output@@@__crt_stdio_output@@IAE_NAA_J@Z 10044da0 f i libucrtd:output.obj
 0001:00043f00       ??$extract_argument_from_va_list@C_J@?$positional_parameter_base@_WV?$stream_output_adapter@_W@__crt_stdio_output@@@__crt_stdio_output@@IAE_NAA_J@Z 10044f00 f i libucrtd:output.obj
 0001:00044070       ??$extract_argument_from_va_list@C_J@?$positional_parameter_base@_WV?$string_output_adapter@_W@__crt_stdio_output@@@__crt_stdio_output@@IAE_NAA_J@Z 10045070 f i libucrtd:output.obj
 0001:000441e0       ??$extract_argument_from_va_list@C_J@?$standard_base@DV?$stream_output_adapter@D@__crt_stdio_output@@@__crt_stdio_output@@IAE_NAA_J@Z 100451e0 f i libucrtd:output.obj
 0001:00044210       ??$extract_argument_from_va_list@C_J@?$standard_base@DV?$string_output_adapter@D@__crt_stdio_output@@@__crt_stdio_output@@IAE_NAA_J@Z 10045210 f i libucrtd:output.obj
 0001:00044240       ??$extract_argument_from_va_list@C_J@?$standard_base@_WV?$stream_output_adapter@_W@__crt_stdio_output@@@__crt_stdio_output@@IAE_NAA_J@Z 10045240 f i libucrtd:output.obj
 0001:00044270       ??$extract_argument_from_va_list@C_J@?$standard_base@_WV?$string_output_adapter@_W@__crt_stdio_output@@@__crt_stdio_output@@IAE_NAA_J@Z 10045270 f i libucrtd:output.obj
 0001:000442a0       ??$extract_argument_from_va_list@E_J@?$positional_parameter_base@DV?$stream_output_adapter@D@__crt_stdio_output@@@__crt_stdio_output@@IAE_NAA_J@Z 100452a0 f i libucrtd:output.obj
 0001:00044400       ??$extract_argument_from_va_list@E_J@?$positional_parameter_base@DV?$string_output_adapter@D@__crt_stdio_output@@@__crt_stdio_output@@IAE_NAA_J@Z 10045400 f i libucrtd:output.obj
 0001:00044560       ??$extract_argument_from_va_list@E_J@?$positional_parameter_base@_WV?$stream_output_adapter@_W@__crt_stdio_output@@@__crt_stdio_output@@IAE_NAA_J@Z 10045560 f i libucrtd:output.obj
 0001:000446d0       ??$extract_argument_from_va_list@E_J@?$positional_parameter_base@_WV?$string_output_adapter@_W@__crt_stdio_output@@@__crt_stdio_output@@IAE_NAA_J@Z 100456d0 f i libucrtd:output.obj
 0001:00044840       ??$extract_argument_from_va_list@E_J@?$standard_base@DV?$stream_output_adapter@D@__crt_stdio_output@@@__crt_stdio_output@@IAE_NAA_J@Z 10045840 f i libucrtd:output.obj
 0001:00044870       ??$extract_argument_from_va_list@E_J@?$standard_base@DV?$string_output_adapter@D@__crt_stdio_output@@@__crt_stdio_output@@IAE_NAA_J@Z 10045870 f i libucrtd:output.obj
 0001:000448a0       ??$extract_argument_from_va_list@E_J@?$standard_base@_WV?$stream_output_adapter@_W@__crt_stdio_output@@@__crt_stdio_output@@IAE_NAA_J@Z 100458a0 f i libucrtd:output.obj
 0001:000448d0       ??$extract_argument_from_va_list@E_J@?$standard_base@_WV?$string_output_adapter@_W@__crt_stdio_output@@@__crt_stdio_output@@IAE_NAA_J@Z 100458d0 f i libucrtd:output.obj
 0001:00044900       ??$extract_argument_from_va_list@F_J@?$positional_parameter_base@DV?$stream_output_adapter@D@__crt_stdio_output@@@__crt_stdio_output@@IAE_NAA_J@Z 10045900 f i libucrtd:output.obj
 0001:00044a60       ??$extract_argument_from_va_list@F_J@?$positional_parameter_base@DV?$string_output_adapter@D@__crt_stdio_output@@@__crt_stdio_output@@IAE_NAA_J@Z 10045a60 f i libucrtd:output.obj
 0001:00044bc0       ??$extract_argument_from_va_list@F_J@?$positional_parameter_base@_WV?$stream_output_adapter@_W@__crt_stdio_output@@@__crt_stdio_output@@IAE_NAA_J@Z 10045bc0 f i libucrtd:output.obj
 0001:00044d20       ??$extract_argument_from_va_list@F_J@?$positional_parameter_base@_WV?$string_output_adapter@_W@__crt_stdio_output@@@__crt_stdio_output@@IAE_NAA_J@Z 10045d20 f i libucrtd:output.obj
 0001:00044e80       ??$extract_argument_from_va_list@F_J@?$standard_base@DV?$stream_output_adapter@D@__crt_stdio_output@@@__crt_stdio_output@@IAE_NAA_J@Z 10045e80 f i libucrtd:output.obj
 0001:00044eb0       ??$extract_argument_from_va_list@F_J@?$standard_base@DV?$string_output_adapter@D@__crt_stdio_output@@@__crt_stdio_output@@IAE_NAA_J@Z 10045eb0 f i libucrtd:output.obj
 0001:00044ee0       ??$extract_argument_from_va_list@F_J@?$standard_base@_WV?$stream_output_adapter@_W@__crt_stdio_output@@@__crt_stdio_output@@IAE_NAA_J@Z 10045ee0 f i libucrtd:output.obj
 0001:00044f10       ??$extract_argument_from_va_list@F_J@?$standard_base@_WV?$string_output_adapter@_W@__crt_stdio_output@@@__crt_stdio_output@@IAE_NAA_J@Z 10045f10 f i libucrtd:output.obj
 0001:00044f40       ??$extract_argument_from_va_list@GD@?$positional_parameter_base@DV?$stream_output_adapter@D@__crt_stdio_output@@@__crt_stdio_output@@IAE_NAAD@Z 10045f40 f i libucrtd:output.obj
 0001:000450a0       ??$extract_argument_from_va_list@GD@?$positional_parameter_base@DV?$string_output_adapter@D@__crt_stdio_output@@@__crt_stdio_output@@IAE_NAAD@Z 100460a0 f i libucrtd:output.obj
 0001:00045200       ??$extract_argument_from_va_list@GD@?$standard_base@DV?$stream_output_adapter@D@__crt_stdio_output@@@__crt_stdio_output@@IAE_NAAD@Z 10046200 f i libucrtd:output.obj
 0001:00045230       ??$extract_argument_from_va_list@GD@?$standard_base@DV?$string_output_adapter@D@__crt_stdio_output@@@__crt_stdio_output@@IAE_NAAD@Z 10046230 f i libucrtd:output.obj
 0001:00045260       ??$extract_argument_from_va_list@G_J@?$positional_parameter_base@DV?$stream_output_adapter@D@__crt_stdio_output@@@__crt_stdio_output@@IAE_NAA_J@Z 10046260 f i libucrtd:output.obj
 0001:000453c0       ??$extract_argument_from_va_list@G_J@?$positional_parameter_base@DV?$string_output_adapter@D@__crt_stdio_output@@@__crt_stdio_output@@IAE_NAA_J@Z 100463c0 f i libucrtd:output.obj
 0001:00045520       ??$extract_argument_from_va_list@G_J@?$positional_parameter_base@_WV?$stream_output_adapter@_W@__crt_stdio_output@@@__crt_stdio_output@@IAE_NAA_J@Z 10046520 f i libucrtd:output.obj
 0001:00045690       ??$extract_argument_from_va_list@G_J@?$positional_parameter_base@_WV?$string_output_adapter@_W@__crt_stdio_output@@@__crt_stdio_output@@IAE_NAA_J@Z 10046690 f i libucrtd:output.obj
 0001:00045800       ??$extract_argument_from_va_list@G_J@?$standard_base@DV?$stream_output_adapter@D@__crt_stdio_output@@@__crt_stdio_output@@IAE_NAA_J@Z 10046800 f i libucrtd:output.obj
 0001:00045830       ??$extract_argument_from_va_list@G_J@?$standard_base@DV?$string_output_adapter@D@__crt_stdio_output@@@__crt_stdio_output@@IAE_NAA_J@Z 10046830 f i libucrtd:output.obj
 0001:00045860       ??$extract_argument_from_va_list@G_J@?$standard_base@_WV?$stream_output_adapter@_W@__crt_stdio_output@@@__crt_stdio_output@@IAE_NAA_J@Z 10046860 f i libucrtd:output.obj
 0001:00045890       ??$extract_argument_from_va_list@G_J@?$standard_base@_WV?$string_output_adapter@_W@__crt_stdio_output@@@__crt_stdio_output@@IAE_NAA_J@Z 10046890 f i libucrtd:output.obj
 0001:000458c0       ??$extract_argument_from_va_list@H_J@?$positional_parameter_base@DV?$stream_output_adapter@D@__crt_stdio_output@@@__crt_stdio_output@@IAE_NAA_J@Z 100468c0 f i libucrtd:output.obj
 0001:00045a20       ??$extract_argument_from_va_list@H_J@?$positional_parameter_base@DV?$string_output_adapter@D@__crt_stdio_output@@@__crt_stdio_output@@IAE_NAA_J@Z 10046a20 f i libucrtd:output.obj
 0001:00045b80       ??$extract_argument_from_va_list@H_J@?$positional_parameter_base@_WV?$stream_output_adapter@_W@__crt_stdio_output@@@__crt_stdio_output@@IAE_NAA_J@Z 10046b80 f i libucrtd:output.obj
 0001:00045ce0       ??$extract_argument_from_va_list@H_J@?$positional_parameter_base@_WV?$string_output_adapter@_W@__crt_stdio_output@@@__crt_stdio_output@@IAE_NAA_J@Z 10046ce0 f i libucrtd:output.obj
 0001:00045e40       ??$extract_argument_from_va_list@H_J@?$standard_base@DV?$stream_output_adapter@D@__crt_stdio_output@@@__crt_stdio_output@@IAE_NAA_J@Z 10046e40 f i libucrtd:output.obj
 0001:00045e70       ??$extract_argument_from_va_list@H_J@?$standard_base@DV?$string_output_adapter@D@__crt_stdio_output@@@__crt_stdio_output@@IAE_NAA_J@Z 10046e70 f i libucrtd:output.obj
 0001:00045ea0       ??$extract_argument_from_va_list@H_J@?$standard_base@_WV?$stream_output_adapter@_W@__crt_stdio_output@@@__crt_stdio_output@@IAE_NAA_J@Z 10046ea0 f i libucrtd:output.obj
 0001:00045ed0       ??$extract_argument_from_va_list@H_J@?$standard_base@_WV?$string_output_adapter@_W@__crt_stdio_output@@@__crt_stdio_output@@IAE_NAA_J@Z 10046ed0 f i libucrtd:output.obj
 0001:00045f00       ??$extract_argument_from_va_list@I_J@?$positional_parameter_base@DV?$stream_output_adapter@D@__crt_stdio_output@@@__crt_stdio_output@@IAE_NAA_J@Z 10046f00 f i libucrtd:output.obj
 0001:00046060       ??$extract_argument_from_va_list@I_J@?$positional_parameter_base@DV?$string_output_adapter@D@__crt_stdio_output@@@__crt_stdio_output@@IAE_NAA_J@Z 10047060 f i libucrtd:output.obj
 0001:000461c0       ??$extract_argument_from_va_list@I_J@?$positional_parameter_base@_WV?$stream_output_adapter@_W@__crt_stdio_output@@@__crt_stdio_output@@IAE_NAA_J@Z 100471c0 f i libucrtd:output.obj
 0001:00046320       ??$extract_argument_from_va_list@I_J@?$positional_parameter_base@_WV?$string_output_adapter@_W@__crt_stdio_output@@@__crt_stdio_output@@IAE_NAA_J@Z 10047320 f i libucrtd:output.obj
 0001:00046480       ??$extract_argument_from_va_list@I_J@?$standard_base@DV?$stream_output_adapter@D@__crt_stdio_output@@@__crt_stdio_output@@IAE_NAA_J@Z 10047480 f i libucrtd:output.obj
 0001:000464b0       ??$extract_argument_from_va_list@I_J@?$standard_base@DV?$string_output_adapter@D@__crt_stdio_output@@@__crt_stdio_output@@IAE_NAA_J@Z 100474b0 f i libucrtd:output.obj
 0001:000464e0       ??$extract_argument_from_va_list@I_J@?$standard_base@_WV?$stream_output_adapter@_W@__crt_stdio_output@@@__crt_stdio_output@@IAE_NAA_J@Z 100474e0 f i libucrtd:output.obj
 0001:00046510       ??$extract_argument_from_va_list@I_J@?$standard_base@_WV?$string_output_adapter@_W@__crt_stdio_output@@@__crt_stdio_output@@IAE_NAA_J@Z 10047510 f i libucrtd:output.obj
 0001:00046540       ??$extract_argument_from_va_list@PADPAD@?$positional_parameter_base@DV?$stream_output_adapter@D@__crt_stdio_output@@@__crt_stdio_output@@IAE_NAAPAD@Z 10047540 f i libucrtd:output.obj
 0001:000466a0       ??$extract_argument_from_va_list@PADPAD@?$positional_parameter_base@DV?$string_output_adapter@D@__crt_stdio_output@@@__crt_stdio_output@@IAE_NAAPAD@Z 100476a0 f i libucrtd:output.obj
 0001:00046800       ??$extract_argument_from_va_list@PADPAD@?$positional_parameter_base@_WV?$stream_output_adapter@_W@__crt_stdio_output@@@__crt_stdio_output@@IAE_NAAPAD@Z 10047800 f i libucrtd:output.obj
 0001:00046960       ??$extract_argument_from_va_list@PADPAD@?$positional_parameter_base@_WV?$string_output_adapter@_W@__crt_stdio_output@@@__crt_stdio_output@@IAE_NAAPAD@Z 10047960 f i libucrtd:output.obj
 0001:00046ac0       ??$extract_argument_from_va_list@PADPAD@?$standard_base@DV?$stream_output_adapter@D@__crt_stdio_output@@@__crt_stdio_output@@IAE_NAAPAD@Z 10047ac0 f i libucrtd:output.obj
 0001:00046af0       ??$extract_argument_from_va_list@PADPAD@?$standard_base@DV?$string_output_adapter@D@__crt_stdio_output@@@__crt_stdio_output@@IAE_NAAPAD@Z 10047af0 f i libucrtd:output.obj
 0001:00046b20       ??$extract_argument_from_va_list@PADPAD@?$standard_base@_WV?$stream_output_adapter@_W@__crt_stdio_output@@@__crt_stdio_output@@IAE_NAAPAD@Z 10047b20 f i libucrtd:output.obj
 0001:00046b50       ??$extract_argument_from_va_list@PADPAD@?$standard_base@_WV?$string_output_adapter@_W@__crt_stdio_output@@@__crt_stdio_output@@IAE_NAAPAD@Z 10047b50 f i libucrtd:output.obj
 0001:00046b80       ??$extract_argument_from_va_list@PAUansi_string@?1??type_case_Z@?$output_processor@DV?$stream_output_adapter@D@__crt_stdio_output@@V?$format_validation_base@DV?$stream_output_adapter@D@__crt_stdio_output@@@2@@__crt_stdio_output@@AAE_NXZ@PAU1?1??234@AAE_NXZ@@?$standard_base@DV?$stream_output_adapter@D@__crt_stdio_output@@@__crt_stdio_output@@IAE_NAAPAUansi_string@?1??type_case_Z@?$output_processor@DV?$stream_output_adapter@D@__crt_stdio_output@@V?$format_validation_base@DV?$stream_output_adapter@D@__crt_stdio_output@@@2@@1@AAE_NXZ@@Z 10047b80 f i libucrtd:output.obj
 0001:00046bb0       ??$extract_argument_from_va_list@PAUansi_string@?1??type_case_Z@?$output_processor@DV?$stream_output_adapter@D@__crt_stdio_output@@V?$positional_parameter_base@DV?$stream_output_adapter@D@__crt_stdio_output@@@2@@__crt_stdio_output@@AAE_NXZ@PAU1?1??234@AAE_NXZ@@?$positional_parameter_base@DV?$stream_output_adapter@D@__crt_stdio_output@@@__crt_stdio_output@@IAE_NAAPAUansi_string@?1??type_case_Z@?$output_processor@DV?$stream_output_adapter@D@__crt_stdio_output@@V?$positional_parameter_base@DV?$stream_output_adapter@D@__crt_stdio_output@@@2@@1@AAE_NXZ@@Z 10047bb0 f i libucrtd:output.obj
 0001:00046d10       ??$extract_argument_from_va_list@PAUansi_string@?1??type_case_Z@?$output_processor@DV?$stream_output_adapter@D@__crt_stdio_output@@V?$positional_parameter_base@DV?$stream_output_adapter@D@__crt_stdio_output@@@2@@__crt_stdio_output@@AAE_NXZ@PAU1?1??234@AAE_NXZ@@?$standard_base@DV?$stream_output_adapter@D@__crt_stdio_output@@@__crt_stdio_output@@IAE_NAAPAUansi_string@?1??type_case_Z@?$output_processor@DV?$stream_output_adapter@D@__crt_stdio_output@@V?$positional_parameter_base@DV?$stream_output_adapter@D@__crt_stdio_output@@@2@@1@AAE_NXZ@@Z 10047d10 f i libucrtd:output.obj
 0001:00046d40       ??$extract_argument_from_va_list@PAUansi_string@?1??type_case_Z@?$output_processor@DV?$stream_output_adapter@D@__crt_stdio_output@@V?$standard_base@DV?$stream_output_adapter@D@__crt_stdio_output@@@2@@__crt_stdio_output@@AAE_NXZ@PAU1?1??234@AAE_NXZ@@?$standard_base@DV?$stream_output_adapter@D@__crt_stdio_output@@@__crt_stdio_output@@IAE_NAAPAUansi_string@?1??type_case_Z@?$output_processor@DV?$stream_output_adapter@D@__crt_stdio_output@@V?$standard_base@DV?$stream_output_adapter@D@__crt_stdio_output@@@2@@1@AAE_NXZ@@Z 10047d40 f i libucrtd:output.obj
 0001:00046d70       ??$extract_argument_from_va_list@PAUansi_string@?1??type_case_Z@?$output_processor@DV?$string_output_adapter@D@__crt_stdio_output@@V?$format_validation_base@DV?$string_output_adapter@D@__crt_stdio_output@@@2@@__crt_stdio_output@@AAE_NXZ@PAU1?1??234@AAE_NXZ@@?$standard_base@DV?$string_output_adapter@D@__crt_stdio_output@@@__crt_stdio_output@@IAE_NAAPAUansi_string@?1??type_case_Z@?$output_processor@DV?$string_output_adapter@D@__crt_stdio_output@@V?$format_validation_base@DV?$string_output_adapter@D@__crt_stdio_output@@@2@@1@AAE_NXZ@@Z 10047d70 f i libucrtd:output.obj
 0001:00046da0       ??$extract_argument_from_va_list@PAUansi_string@?1??type_case_Z@?$output_processor@DV?$string_output_adapter@D@__crt_stdio_output@@V?$positional_parameter_base@DV?$string_output_adapter@D@__crt_stdio_output@@@2@@__crt_stdio_output@@AAE_NXZ@PAU1?1??234@AAE_NXZ@@?$positional_parameter_base@DV?$string_output_adapter@D@__crt_stdio_output@@@__crt_stdio_output@@IAE_NAAPAUansi_string@?1??type_case_Z@?$output_processor@DV?$string_output_adapter@D@__crt_stdio_output@@V?$positional_parameter_base@DV?$string_output_adapter@D@__crt_stdio_output@@@2@@1@AAE_NXZ@@Z 10047da0 f i libucrtd:output.obj
 0001:00046f00       ??$extract_argument_from_va_list@PAUansi_string@?1??type_case_Z@?$output_processor@DV?$string_output_adapter@D@__crt_stdio_output@@V?$positional_parameter_base@DV?$string_output_adapter@D@__crt_stdio_output@@@2@@__crt_stdio_output@@AAE_NXZ@PAU1?1??234@AAE_NXZ@@?$standard_base@DV?$string_output_adapter@D@__crt_stdio_output@@@__crt_stdio_output@@IAE_NAAPAUansi_string@?1??type_case_Z@?$output_processor@DV?$string_output_adapter@D@__crt_stdio_output@@V?$positional_parameter_base@DV?$string_output_adapter@D@__crt_stdio_output@@@2@@1@AAE_NXZ@@Z 10047f00 f i libucrtd:output.obj
 0001:00046f30       ??$extract_argument_from_va_list@PAUansi_string@?1??type_case_Z@?$output_processor@DV?$string_output_adapter@D@__crt_stdio_output@@V?$standard_base@DV?$string_output_adapter@D@__crt_stdio_output@@@2@@__crt_stdio_output@@AAE_NXZ@PAU1?1??234@AAE_NXZ@@?$standard_base@DV?$string_output_adapter@D@__crt_stdio_output@@@__crt_stdio_output@@IAE_NAAPAUansi_string@?1??type_case_Z@?$output_processor@DV?$string_output_adapter@D@__crt_stdio_output@@V?$standard_base@DV?$string_output_adapter@D@__crt_stdio_output@@@2@@1@AAE_NXZ@@Z 10047f30 f i libucrtd:output.obj
 0001:00046f60       ??$extract_argument_from_va_list@PAUansi_string@?1??type_case_Z@?$output_processor@_WV?$stream_output_adapter@_W@__crt_stdio_output@@V?$format_validation_base@_WV?$stream_output_adapter@_W@__crt_stdio_output@@@2@@__crt_stdio_output@@AAE_NXZ@PAU1?1??234@AAE_NXZ@@?$standard_base@_WV?$stream_output_adapter@_W@__crt_stdio_output@@@__crt_stdio_output@@IAE_NAAPAUansi_string@?1??type_case_Z@?$output_processor@_WV?$stream_output_adapter@_W@__crt_stdio_output@@V?$format_validation_base@_WV?$stream_output_adapter@_W@__crt_stdio_output@@@2@@1@AAE_NXZ@@Z 10047f60 f i libucrtd:output.obj
 0001:00046f90       ??$extract_argument_from_va_list@PAUansi_string@?1??type_case_Z@?$output_processor@_WV?$stream_output_adapter@_W@__crt_stdio_output@@V?$positional_parameter_base@_WV?$stream_output_adapter@_W@__crt_stdio_output@@@2@@__crt_stdio_output@@AAE_NXZ@PAU1?1??234@AAE_NXZ@@?$positional_parameter_base@_WV?$stream_output_adapter@_W@__crt_stdio_output@@@__crt_stdio_output@@IAE_NAAPAUansi_string@?1??type_case_Z@?$output_processor@_WV?$stream_output_adapter@_W@__crt_stdio_output@@V?$positional_parameter_base@_WV?$stream_output_adapter@_W@__crt_stdio_output@@@2@@1@AAE_NXZ@@Z 10047f90 f i libucrtd:output.obj
 0001:000470f0       ??$extract_argument_from_va_list@PAUansi_string@?1??type_case_Z@?$output_processor@_WV?$stream_output_adapter@_W@__crt_stdio_output@@V?$positional_parameter_base@_WV?$stream_output_adapter@_W@__crt_stdio_output@@@2@@__crt_stdio_output@@AAE_NXZ@PAU1?1??234@AAE_NXZ@@?$standard_base@_WV?$stream_output_adapter@_W@__crt_stdio_output@@@__crt_stdio_output@@IAE_NAAPAUansi_string@?1??type_case_Z@?$output_processor@_WV?$stream_output_adapter@_W@__crt_stdio_output@@V?$positional_parameter_base@_WV?$stream_output_adapter@_W@__crt_stdio_output@@@2@@1@AAE_NXZ@@Z 100480f0 f i libucrtd:output.obj
 0001:00047120       ??$extract_argument_from_va_list@PAUansi_string@?1??type_case_Z@?$output_processor@_WV?$stream_output_adapter@_W@__crt_stdio_output@@V?$standard_base@_WV?$stream_output_adapter@_W@__crt_stdio_output@@@2@@__crt_stdio_output@@AAE_NXZ@PAU1?1??234@AAE_NXZ@@?$standard_base@_WV?$stream_output_adapter@_W@__crt_stdio_output@@@__crt_stdio_output@@IAE_NAAPAUansi_string@?1??type_case_Z@?$output_processor@_WV?$stream_output_adapter@_W@__crt_stdio_output@@V?$standard_base@_WV?$stream_output_adapter@_W@__crt_stdio_output@@@2@@1@AAE_NXZ@@Z 10048120 f i libucrtd:output.obj
 0001:00047150       ??$extract_argument_from_va_list@PAUansi_string@?1??type_case_Z@?$output_processor@_WV?$string_output_adapter@_W@__crt_stdio_output@@V?$format_validation_base@_WV?$string_output_adapter@_W@__crt_stdio_output@@@2@@__crt_stdio_output@@AAE_NXZ@PAU1?1??234@AAE_NXZ@@?$standard_base@_WV?$string_output_adapter@_W@__crt_stdio_output@@@__crt_stdio_output@@IAE_NAAPAUansi_string@?1??type_case_Z@?$output_processor@_WV?$string_output_adapter@_W@__crt_stdio_output@@V?$format_validation_base@_WV?$string_output_adapter@_W@__crt_stdio_output@@@2@@1@AAE_NXZ@@Z 10048150 f i libucrtd:output.obj
 0001:00047180       ??$extract_argument_from_va_list@PAUansi_string@?1??type_case_Z@?$output_processor@_WV?$string_output_adapter@_W@__crt_stdio_output@@V?$positional_parameter_base@_WV?$string_output_adapter@_W@__crt_stdio_output@@@2@@__crt_stdio_output@@AAE_NXZ@PAU1?1??234@AAE_NXZ@@?$positional_parameter_base@_WV?$string_output_adapter@_W@__crt_stdio_output@@@__crt_stdio_output@@IAE_NAAPAUansi_string@?1??type_case_Z@?$output_processor@_WV?$string_output_adapter@_W@__crt_stdio_output@@V?$positional_parameter_base@_WV?$string_output_adapter@_W@__crt_stdio_output@@@2@@1@AAE_NXZ@@Z 10048180 f i libucrtd:output.obj
 0001:000472e0       ??$extract_argument_from_va_list@PAUansi_string@?1??type_case_Z@?$output_processor@_WV?$string_output_adapter@_W@__crt_stdio_output@@V?$positional_parameter_base@_WV?$string_output_adapter@_W@__crt_stdio_output@@@2@@__crt_stdio_output@@AAE_NXZ@PAU1?1??234@AAE_NXZ@@?$standard_base@_WV?$string_output_adapter@_W@__crt_stdio_output@@@__crt_stdio_output@@IAE_NAAPAUansi_string@?1??type_case_Z@?$output_processor@_WV?$string_output_adapter@_W@__crt_stdio_output@@V?$positional_parameter_base@_WV?$string_output_adapter@_W@__crt_stdio_output@@@2@@1@AAE_NXZ@@Z 100482e0 f i libucrtd:output.obj
 0001:00047310       ??$extract_argument_from_va_list@PAUansi_string@?1??type_case_Z@?$output_processor@_WV?$string_output_adapter@_W@__crt_stdio_output@@V?$standard_base@_WV?$string_output_adapter@_W@__crt_stdio_output@@@2@@__crt_stdio_output@@AAE_NXZ@PAU1?1??234@AAE_NXZ@@?$standard_base@_WV?$string_output_adapter@_W@__crt_stdio_output@@@__crt_stdio_output@@IAE_NAAPAUansi_string@?1??type_case_Z@?$output_processor@_WV?$string_output_adapter@_W@__crt_stdio_output@@V?$standard_base@_WV?$string_output_adapter@_W@__crt_stdio_output@@@2@@1@AAE_NXZ@@Z 10048310 f i libucrtd:output.obj
 0001:00047340       ??$extract_argument_from_va_list@PAXPAX@?$positional_parameter_base@DV?$stream_output_adapter@D@__crt_stdio_output@@@__crt_stdio_output@@IAE_NAAPAX@Z 10048340 f i libucrtd:output.obj
 0001:000474a0       ??$extract_argument_from_va_list@PAXPAX@?$positional_parameter_base@DV?$string_output_adapter@D@__crt_stdio_output@@@__crt_stdio_output@@IAE_NAAPAX@Z 100484a0 f i libucrtd:output.obj
 0001:00047600       ??$extract_argument_from_va_list@PAXPAX@?$positional_parameter_base@_WV?$stream_output_adapter@_W@__crt_stdio_output@@@__crt_stdio_output@@IAE_NAAPAX@Z 10048600 f i libucrtd:output.obj
 0001:00047760       ??$extract_argument_from_va_list@PAXPAX@?$positional_parameter_base@_WV?$string_output_adapter@_W@__crt_stdio_output@@@__crt_stdio_output@@IAE_NAAPAX@Z 10048760 f i libucrtd:output.obj
 0001:000478c0       ??$extract_argument_from_va_list@PAXPAX@?$standard_base@DV?$stream_output_adapter@D@__crt_stdio_output@@@__crt_stdio_output@@IAE_NAAPAX@Z 100488c0 f i libucrtd:output.obj
 0001:000478f0       ??$extract_argument_from_va_list@PAXPAX@?$standard_base@DV?$string_output_adapter@D@__crt_stdio_output@@@__crt_stdio_output@@IAE_NAAPAX@Z 100488f0 f i libucrtd:output.obj
 0001:00047920       ??$extract_argument_from_va_list@PAXPAX@?$standard_base@_WV?$stream_output_adapter@_W@__crt_stdio_output@@@__crt_stdio_output@@IAE_NAAPAX@Z 10048920 f i libucrtd:output.obj
 0001:00047950       ??$extract_argument_from_va_list@PAXPAX@?$standard_base@_WV?$string_output_adapter@_W@__crt_stdio_output@@@__crt_stdio_output@@IAE_NAAPAX@Z 10048950 f i libucrtd:output.obj
 0001:00047980       ??$extract_argument_from_va_list@U_CRT_DOUBLE@@U1@@?$positional_parameter_base@DV?$stream_output_adapter@D@__crt_stdio_output@@@__crt_stdio_output@@IAE_NAAU_CRT_DOUBLE@@@Z 10048980 f i libucrtd:output.obj
 0001:00047b10       ??$extract_argument_from_va_list@U_CRT_DOUBLE@@U1@@?$positional_parameter_base@DV?$string_output_adapter@D@__crt_stdio_output@@@__crt_stdio_output@@IAE_NAAU_CRT_DOUBLE@@@Z 10048b10 f i libucrtd:output.obj
 0001:00047ca0       ??$extract_argument_from_va_list@U_CRT_DOUBLE@@U1@@?$positional_parameter_base@_WV?$stream_output_adapter@_W@__crt_stdio_output@@@__crt_stdio_output@@IAE_NAAU_CRT_DOUBLE@@@Z 10048ca0 f i libucrtd:output.obj
 0001:00047e30       ??$extract_argument_from_va_list@U_CRT_DOUBLE@@U1@@?$positional_parameter_base@_WV?$string_output_adapter@_W@__crt_stdio_output@@@__crt_stdio_output@@IAE_NAAU_CRT_DOUBLE@@@Z 10048e30 f i libucrtd:output.obj
 0001:00047fc0       ??$extract_argument_from_va_list@U_CRT_DOUBLE@@U1@@?$standard_base@DV?$stream_output_adapter@D@__crt_stdio_output@@@__crt_stdio_output@@IAE_NAAU_CRT_DOUBLE@@@Z 10048fc0 f i libucrtd:output.obj
 0001:00048010       ??$extract_argument_from_va_list@U_CRT_DOUBLE@@U1@@?$standard_base@DV?$string_output_adapter@D@__crt_stdio_output@@@__crt_stdio_output@@IAE_NAAU_CRT_DOUBLE@@@Z 10049010 f i libucrtd:output.obj
 0001:00048060       ??$extract_argument_from_va_list@U_CRT_DOUBLE@@U1@@?$standard_base@_WV?$stream_output_adapter@_W@__crt_stdio_output@@@__crt_stdio_output@@IAE_NAAU_CRT_DOUBLE@@@Z 10049060 f i libucrtd:output.obj
 0001:000480b0       ??$extract_argument_from_va_list@U_CRT_DOUBLE@@U1@@?$standard_base@_WV?$string_output_adapter@_W@__crt_stdio_output@@@__crt_stdio_output@@IAE_NAAU_CRT_DOUBLE@@@Z 100490b0 f i libucrtd:output.obj
 0001:00048100       ??$extract_argument_from_va_list@_J_J@?$positional_parameter_base@DV?$stream_output_adapter@D@__crt_stdio_output@@@__crt_stdio_output@@IAE_NAA_J@Z 10049100 f i libucrtd:output.obj
 0001:00048260       ??$extract_argument_from_va_list@_J_J@?$positional_parameter_base@DV?$string_output_adapter@D@__crt_stdio_output@@@__crt_stdio_output@@IAE_NAA_J@Z 10049260 f i libucrtd:output.obj
 0001:000483c0       ??$extract_argument_from_va_list@_J_J@?$positional_parameter_base@_WV?$stream_output_adapter@_W@__crt_stdio_output@@@__crt_stdio_output@@IAE_NAA_J@Z 100493c0 f i libucrtd:output.obj
 0001:00048520       ??$extract_argument_from_va_list@_J_J@?$positional_parameter_base@_WV?$string_output_adapter@_W@__crt_stdio_output@@@__crt_stdio_output@@IAE_NAA_J@Z 10049520 f i libucrtd:output.obj
 0001:00048680       ??$extract_argument_from_va_list@_J_J@?$standard_base@DV?$stream_output_adapter@D@__crt_stdio_output@@@__crt_stdio_output@@IAE_NAA_J@Z 10049680 f i libucrtd:output.obj
 0001:000486b0       ??$extract_argument_from_va_list@_J_J@?$standard_base@DV?$string_output_adapter@D@__crt_stdio_output@@@__crt_stdio_output@@IAE_NAA_J@Z 100496b0 f i libucrtd:output.obj
 0001:000486e0       ??$extract_argument_from_va_list@_J_J@?$standard_base@_WV?$stream_output_adapter@_W@__crt_stdio_output@@@__crt_stdio_output@@IAE_NAA_J@Z 100496e0 f i libucrtd:output.obj
 0001:00048710       ??$extract_argument_from_va_list@_J_J@?$standard_base@_WV?$string_output_adapter@_W@__crt_stdio_output@@@__crt_stdio_output@@IAE_NAA_J@Z 10049710 f i libucrtd:output.obj
 0001:00048740       ??$extract_argument_from_va_list@_K_J@?$positional_parameter_base@DV?$stream_output_adapter@D@__crt_stdio_output@@@__crt_stdio_output@@IAE_NAA_J@Z 10049740 f i libucrtd:output.obj
 0001:000488a0       ??$extract_argument_from_va_list@_K_J@?$positional_parameter_base@DV?$string_output_adapter@D@__crt_stdio_output@@@__crt_stdio_output@@IAE_NAA_J@Z 100498a0 f i libucrtd:output.obj
 0001:00048a00       ??$extract_argument_from_va_list@_K_J@?$positional_parameter_base@_WV?$stream_output_adapter@_W@__crt_stdio_output@@@__crt_stdio_output@@IAE_NAA_J@Z 10049a00 f i libucrtd:output.obj
 0001:00048b60       ??$extract_argument_from_va_list@_K_J@?$positional_parameter_base@_WV?$string_output_adapter@_W@__crt_stdio_output@@@__crt_stdio_output@@IAE_NAA_J@Z 10049b60 f i libucrtd:output.obj
 0001:00048cc0       ??$extract_argument_from_va_list@_K_J@?$standard_base@DV?$stream_output_adapter@D@__crt_stdio_output@@@__crt_stdio_output@@IAE_NAA_J@Z 10049cc0 f i libucrtd:output.obj
 0001:00048cf0       ??$extract_argument_from_va_list@_K_J@?$standard_base@DV?$string_output_adapter@D@__crt_stdio_output@@@__crt_stdio_output@@IAE_NAA_J@Z 10049cf0 f i libucrtd:output.obj
 0001:00048d20       ??$extract_argument_from_va_list@_K_J@?$standard_base@_WV?$stream_output_adapter@_W@__crt_stdio_output@@@__crt_stdio_output@@IAE_NAA_J@Z 10049d20 f i libucrtd:output.obj
 0001:00048d50       ??$extract_argument_from_va_list@_K_J@?$standard_base@_WV?$string_output_adapter@_W@__crt_stdio_output@@@__crt_stdio_output@@IAE_NAA_J@Z 10049d50 f i libucrtd:output.obj
 0001:00048d80       ??$extract_argument_from_va_list@_W_W@?$positional_parameter_base@DV?$stream_output_adapter@D@__crt_stdio_output@@@__crt_stdio_output@@IAE_NAA_W@Z 10049d80 f i libucrtd:output.obj
 0001:00048ee0       ??$extract_argument_from_va_list@_W_W@?$positional_parameter_base@DV?$string_output_adapter@D@__crt_stdio_output@@@__crt_stdio_output@@IAE_NAA_W@Z 10049ee0 f i libucrtd:output.obj
 0001:00049040       ??$extract_argument_from_va_list@_W_W@?$positional_parameter_base@_WV?$stream_output_adapter@_W@__crt_stdio_output@@@__crt_stdio_output@@IAE_NAA_W@Z 1004a040 f i libucrtd:output.obj
 0001:000491a0       ??$extract_argument_from_va_list@_W_W@?$positional_parameter_base@_WV?$string_output_adapter@_W@__crt_stdio_output@@@__crt_stdio_output@@IAE_NAA_W@Z 1004a1a0 f i libucrtd:output.obj
 0001:00049300       ??$extract_argument_from_va_list@_W_W@?$standard_base@DV?$stream_output_adapter@D@__crt_stdio_output@@@__crt_stdio_output@@IAE_NAA_W@Z 1004a300 f i libucrtd:output.obj
 0001:00049330       ??$extract_argument_from_va_list@_W_W@?$standard_base@DV?$string_output_adapter@D@__crt_stdio_output@@@__crt_stdio_output@@IAE_NAA_W@Z 1004a330 f i libucrtd:output.obj
 0001:00049360       ??$extract_argument_from_va_list@_W_W@?$standard_base@_WV?$stream_output_adapter@_W@__crt_stdio_output@@@__crt_stdio_output@@IAE_NAA_W@Z 1004a360 f i libucrtd:output.obj
 0001:00049390       ??$extract_argument_from_va_list@_W_W@?$standard_base@_WV?$string_output_adapter@_W@__crt_stdio_output@@@__crt_stdio_output@@IAE_NAA_W@Z 1004a390 f i libucrtd:output.obj
 0001:000493c0       ??$get_parameter_type@D@?$positional_parameter_base@DV?$stream_output_adapter@D@__crt_stdio_output@@@__crt_stdio_output@@CA?AW4parameter_type@01@PAD@Z 1004a3c0 f i libucrtd:output.obj
 0001:000493d0       ??$get_parameter_type@D@?$positional_parameter_base@DV?$string_output_adapter@D@__crt_stdio_output@@@__crt_stdio_output@@CA?AW4parameter_type@01@PAD@Z 1004a3d0 f i libucrtd:output.obj
 0001:000493e0       ??$get_parameter_type@D@?$positional_parameter_base@_WV?$stream_output_adapter@_W@__crt_stdio_output@@@__crt_stdio_output@@CA?AW4parameter_type@01@PAD@Z 1004a3e0 f i libucrtd:output.obj
 0001:000493f0       ??$get_parameter_type@D@?$positional_parameter_base@_WV?$string_output_adapter@_W@__crt_stdio_output@@@__crt_stdio_output@@CA?AW4parameter_type@01@PAD@Z 1004a3f0 f i libucrtd:output.obj
 0001:00049400       ??$get_parameter_type@Uansi_string@?1??type_case_Z@?$output_processor@DV?$stream_output_adapter@D@__crt_stdio_output@@V?$positional_parameter_base@DV?$stream_output_adapter@D@__crt_stdio_output@@@2@@__crt_stdio_output@@AAE_NXZ@@?$positional_parameter_base@DV?$stream_output_adapter@D@__crt_stdio_output@@@__crt_stdio_output@@CA?AW4parameter_type@01@PAUansi_string@?1??type_case_Z@?$output_processor@DV?$stream_output_adapter@D@__crt_stdio_output@@V?$positional_parameter_base@DV?$stream_output_adapter@D@__crt_stdio_output@@@2@@1@AAE_NXZ@@Z 1004a400 f i libucrtd:output.obj
 0001:00049410       ??$get_parameter_type@Uansi_string@?1??type_case_Z@?$output_processor@DV?$string_output_adapter@D@__crt_stdio_output@@V?$positional_parameter_base@DV?$string_output_adapter@D@__crt_stdio_output@@@2@@__crt_stdio_output@@AAE_NXZ@@?$positional_parameter_base@DV?$string_output_adapter@D@__crt_stdio_output@@@__crt_stdio_output@@CA?AW4parameter_type@01@PAUansi_string@?1??type_case_Z@?$output_processor@DV?$string_output_adapter@D@__crt_stdio_output@@V?$positional_parameter_base@DV?$string_output_adapter@D@__crt_stdio_output@@@2@@1@AAE_NXZ@@Z 1004a410 f i libucrtd:output.obj
 0001:00049420       ??$get_parameter_type@Uansi_string@?1??type_case_Z@?$output_processor@_WV?$stream_output_adapter@_W@__crt_stdio_output@@V?$positional_parameter_base@_WV?$stream_output_adapter@_W@__crt_stdio_output@@@2@@__crt_stdio_output@@AAE_NXZ@@?$positional_parameter_base@_WV?$stream_output_adapter@_W@__crt_stdio_output@@@__crt_stdio_output@@CA?AW4parameter_type@01@PAUansi_string@?1??type_case_Z@?$output_processor@_WV?$stream_output_adapter@_W@__crt_stdio_output@@V?$positional_parameter_base@_WV?$stream_output_adapter@_W@__crt_stdio_output@@@2@@1@AAE_NXZ@@Z 1004a420 f i libucrtd:output.obj
 0001:00049430       ??$get_parameter_type@Uansi_string@?1??type_case_Z@?$output_processor@_WV?$string_output_adapter@_W@__crt_stdio_output@@V?$positional_parameter_base@_WV?$string_output_adapter@_W@__crt_stdio_output@@@2@@__crt_stdio_output@@AAE_NXZ@@?$positional_parameter_base@_WV?$string_output_adapter@_W@__crt_stdio_output@@@__crt_stdio_output@@CA?AW4parameter_type@01@PAUansi_string@?1??type_case_Z@?$output_processor@_WV?$string_output_adapter@_W@__crt_stdio_output@@V?$positional_parameter_base@_WV?$string_output_adapter@_W@__crt_stdio_output@@@2@@1@AAE_NXZ@@Z 1004a430 f i libucrtd:output.obj
 0001:00049440       ??$get_parameter_type@X@?$positional_parameter_base@DV?$stream_output_adapter@D@__crt_stdio_output@@@__crt_stdio_output@@CA?AW4parameter_type@01@PAX@Z 1004a440 f i libucrtd:output.obj
 0001:00049450       ??$get_parameter_type@X@?$positional_parameter_base@DV?$string_output_adapter@D@__crt_stdio_output@@@__crt_stdio_output@@CA?AW4parameter_type@01@PAX@Z 1004a450 f i libucrtd:output.obj
 0001:00049460       ??$get_parameter_type@X@?$positional_parameter_base@_WV?$stream_output_adapter@_W@__crt_stdio_output@@@__crt_stdio_output@@CA?AW4parameter_type@01@PAX@Z 1004a460 f i libucrtd:output.obj
 0001:00049470       ??$get_parameter_type@X@?$positional_parameter_base@_WV?$string_output_adapter@_W@__crt_stdio_output@@@__crt_stdio_output@@CA?AW4parameter_type@01@PAX@Z 1004a470 f i libucrtd:output.obj
 0001:00049480       ??$is_character_specifier@D@?$positional_parameter_base@DV?$stream_output_adapter@D@__crt_stdio_output@@@__crt_stdio_output@@CA_ND@Z 1004a480 f i libucrtd:output.obj
 0001:000494b0       ??$is_character_specifier@D@?$positional_parameter_base@DV?$string_output_adapter@D@__crt_stdio_output@@@__crt_stdio_output@@CA_ND@Z 1004a4b0 f i libucrtd:output.obj
 0001:000494e0       ??$is_character_specifier@_W@?$positional_parameter_base@_WV?$stream_output_adapter@_W@__crt_stdio_output@@@__crt_stdio_output@@CA_N_W@Z 1004a4e0 f i libucrtd:output.obj
 0001:00049510       ??$is_character_specifier@_W@?$positional_parameter_base@_WV?$string_output_adapter@_W@__crt_stdio_output@@@__crt_stdio_output@@CA_N_W@Z 1004a510 f i libucrtd:output.obj
 0001:00049540       ??$is_integral_specifier@D@?$positional_parameter_base@DV?$stream_output_adapter@D@__crt_stdio_output@@@__crt_stdio_output@@CA_ND@Z 1004a540 f i libucrtd:output.obj
 0001:000495a0       ??$is_integral_specifier@D@?$positional_parameter_base@DV?$string_output_adapter@D@__crt_stdio_output@@@__crt_stdio_output@@CA_ND@Z 1004a5a0 f i libucrtd:output.obj
 0001:00049600       ??$is_integral_specifier@_W@?$positional_parameter_base@_WV?$stream_output_adapter@_W@__crt_stdio_output@@@__crt_stdio_output@@CA_N_W@Z 1004a600 f i libucrtd:output.obj
 0001:00049660       ??$is_integral_specifier@_W@?$positional_parameter_base@_WV?$string_output_adapter@_W@__crt_stdio_output@@@__crt_stdio_output@@CA_N_W@Z 1004a660 f i libucrtd:output.obj
 0001:000496c0       ??$is_overflow_condition@K@__crt_strtox@@YA_NIK@Z 1004a6c0 f i libucrtd:output.obj
 0001:00049720       ??$is_pointer_specifier@D@?$positional_parameter_base@DV?$stream_output_adapter@D@__crt_stdio_output@@@__crt_stdio_output@@CA_ND@Z 1004a720 f i libucrtd:output.obj
 0001:00049750       ??$is_pointer_specifier@D@?$positional_parameter_base@DV?$string_output_adapter@D@__crt_stdio_output@@@__crt_stdio_output@@CA_ND@Z 1004a750 f i libucrtd:output.obj
 0001:00049780       ??$is_pointer_specifier@_W@?$positional_parameter_base@_WV?$stream_output_adapter@_W@__crt_stdio_output@@@__crt_stdio_output@@CA_N_W@Z 1004a780 f i libucrtd:output.obj
 0001:000497b0       ??$is_pointer_specifier@_W@?$positional_parameter_base@_WV?$string_output_adapter@_W@__crt_stdio_output@@@__crt_stdio_output@@CA_N_W@Z 1004a7b0 f i libucrtd:output.obj
 0001:000497e0       ??$is_string_specifier@D@?$positional_parameter_base@DV?$stream_output_adapter@D@__crt_stdio_output@@@__crt_stdio_output@@CA_ND@Z 1004a7e0 f i libucrtd:output.obj
 0001:00049810       ??$is_string_specifier@D@?$positional_parameter_base@DV?$string_output_adapter@D@__crt_stdio_output@@@__crt_stdio_output@@CA_ND@Z 1004a810 f i libucrtd:output.obj
 0001:00049840       ??$is_string_specifier@_W@?$positional_parameter_base@_WV?$stream_output_adapter@_W@__crt_stdio_output@@@__crt_stdio_output@@CA_N_W@Z 1004a840 f i libucrtd:output.obj
 0001:00049870       ??$is_string_specifier@_W@?$positional_parameter_base@_WV?$string_output_adapter@_W@__crt_stdio_output@@@__crt_stdio_output@@CA_N_W@Z 1004a870 f i libucrtd:output.obj
 0001:000498a0       ??$is_wide_character_specifier@D@__crt_stdio_output@@YA_N_KDW4length_modifier@0@@Z 1004a8a0 f i libucrtd:output.obj
 0001:00049920       ??$is_wide_character_specifier@_W@__crt_stdio_output@@YA_N_K_WW4length_modifier@0@@Z 1004a920 f i libucrtd:output.obj
 0001:000499e0       ??$make_c_string_character_source@DPAPAD@__crt_strtox@@YA?AV?$c_string_character_source@D@0@QBDQAPAD@Z 1004a9e0 f i libucrtd:output.obj
 0001:00049a00       ??$make_c_string_character_source@_WPAPA_W@__crt_strtox@@YA?AV?$c_string_character_source@_W@0@QB_WQAPA_W@Z 1004aa00 f i libucrtd:output.obj
 0001:00049a20       ??$parse_integer@KV?$c_string_character_source@D@__crt_strtox@@$0A@@__crt_strtox@@YAKAAV__crt_cached_ptd_host@@V?$c_string_character_source@D@0@H_N@Z 1004aa20 f i libucrtd:output.obj
 0001:00049d50       ??$parse_integer@KV?$c_string_character_source@_W@__crt_strtox@@$0A@@__crt_strtox@@YAKAAV__crt_cached_ptd_host@@V?$c_string_character_source@_W@0@H_N@Z 1004ad50 f i libucrtd:output.obj
 0001:0004a090       ??$peek_va_arg@C@__crt_stdio_output@@YACPAD@Z 1004b090 f i libucrtd:output.obj
 0001:0004a0b0       ??$peek_va_arg@E@__crt_stdio_output@@YAEPAD@Z 1004b0b0 f i libucrtd:output.obj
 0001:0004a0d0       ??$peek_va_arg@F@__crt_stdio_output@@YAFPAD@Z 1004b0d0 f i libucrtd:output.obj
 0001:0004a0f0       ??$peek_va_arg@G@__crt_stdio_output@@YAGPAD@Z 1004b0f0 f i libucrtd:output.obj
 0001:0004a110       ??$peek_va_arg@H@__crt_stdio_output@@YAHPAD@Z 1004b110 f i libucrtd:output.obj
 0001:0004a130       ??$peek_va_arg@I@__crt_stdio_output@@YAIPAD@Z 1004b130 f i libucrtd:output.obj
 0001:0004a150       ??$peek_va_arg@PAD@__crt_stdio_output@@YAPADPAD@Z 1004b150 f i libucrtd:output.obj
 0001:0004a170       ??$peek_va_arg@PAUansi_string@?1??type_case_Z@?$output_processor@DV?$stream_output_adapter@D@__crt_stdio_output@@V?$positional_parameter_base@DV?$stream_output_adapter@D@__crt_stdio_output@@@2@@__crt_stdio_output@@AAE_NXZ@@__crt_stdio_output@@YAPAUansi_string@?1??type_case_Z@?$output_processor@DV?$stream_output_adapter@D@__crt_stdio_output@@V?$positional_parameter_base@DV?$stream_output_adapter@D@__crt_stdio_output@@@2@@0@AAE_NXZ@PAD@Z 1004b170 f i libucrtd:output.obj
 0001:0004a190       ??$peek_va_arg@PAUansi_string@?1??type_case_Z@?$output_processor@DV?$string_output_adapter@D@__crt_stdio_output@@V?$positional_parameter_base@DV?$string_output_adapter@D@__crt_stdio_output@@@2@@__crt_stdio_output@@AAE_NXZ@@__crt_stdio_output@@YAPAUansi_string@?1??type_case_Z@?$output_processor@DV?$string_output_adapter@D@__crt_stdio_output@@V?$positional_parameter_base@DV?$string_output_adapter@D@__crt_stdio_output@@@2@@0@AAE_NXZ@PAD@Z 1004b190 f i libucrtd:output.obj
 0001:0004a1b0       ??$peek_va_arg@PAUansi_string@?1??type_case_Z@?$output_processor@_WV?$stream_output_adapter@_W@__crt_stdio_output@@V?$positional_parameter_base@_WV?$stream_output_adapter@_W@__crt_stdio_output@@@2@@__crt_stdio_output@@AAE_NXZ@@__crt_stdio_output@@YAPAUansi_string@?1??type_case_Z@?$output_processor@_WV?$stream_output_adapter@_W@__crt_stdio_output@@V?$positional_parameter_base@_WV?$stream_output_adapter@_W@__crt_stdio_output@@@2@@0@AAE_NXZ@PAD@Z 1004b1b0 f i libucrtd:output.obj
 0001:0004a1d0       ??$peek_va_arg@PAUansi_string@?1??type_case_Z@?$output_processor@_WV?$string_output_adapter@_W@__crt_stdio_output@@V?$positional_parameter_base@_WV?$string_output_adapter@_W@__crt_stdio_output@@@2@@__crt_stdio_output@@AAE_NXZ@@__crt_stdio_output@@YAPAUansi_string@?1??type_case_Z@?$output_processor@_WV?$string_output_adapter@_W@__crt_stdio_output@@V?$positional_parameter_base@_WV?$string_output_adapter@_W@__crt_stdio_output@@@2@@0@AAE_NXZ@PAD@Z 1004b1d0 f i libucrtd:output.obj
 0001:0004a1f0       ??$peek_va_arg@PAX@__crt_stdio_output@@YAPAXPAD@Z 1004b1f0 f i libucrtd:output.obj
 0001:0004a210       ??$peek_va_arg@U_CRT_DOUBLE@@@__crt_stdio_output@@YA?AU_CRT_DOUBLE@@PAD@Z 1004b210 f i libucrtd:output.obj
 0001:0004a230       ??$peek_va_arg@_J@__crt_stdio_output@@YA_JPAD@Z 1004b230 f i libucrtd:output.obj
 0001:0004a250       ??$peek_va_arg@_K@__crt_stdio_output@@YA_KPAD@Z 1004b250 f i libucrtd:output.obj
 0001:0004a270       ??$peek_va_arg@_W@__crt_stdio_output@@YA_WPAD@Z 1004b270 f i libucrtd:output.obj
 0001:0004a290       ??$puttc_nolock_internal@ABDPAU_iobuf@@AAV__crt_cached_ptd_host@@@?$__crt_char_traits@D@@SAHABD$$QAPAU_iobuf@@AAV__crt_cached_ptd_host@@@Z 1004b290 f i libucrtd:output.obj
 0001:0004a2b0       ??$puttc_nolock_internal@AB_WPAU_iobuf@@AAV__crt_cached_ptd_host@@@?$__crt_char_traits@_W@@SAGAB_W$$QAPAU_iobuf@@AAV__crt_cached_ptd_host@@@Z 1004b2b0 f i libucrtd:output.obj
 0001:0004a2d0       ??$read_va_arg@C@__crt_stdio_output@@YACAAPAD@Z 1004b2d0 f i libucrtd:output.obj
 0001:0004a2f0       ??$read_va_arg@E@__crt_stdio_output@@YAEAAPAD@Z 1004b2f0 f i libucrtd:output.obj
 0001:0004a310       ??$read_va_arg@F@__crt_stdio_output@@YAFAAPAD@Z 1004b310 f i libucrtd:output.obj
 0001:0004a330       ??$read_va_arg@G@__crt_stdio_output@@YAGAAPAD@Z 1004b330 f i libucrtd:output.obj
 0001:0004a350       ??$read_va_arg@H@__crt_stdio_output@@YAHAAPAD@Z 1004b350 f i libucrtd:output.obj
 0001:0004a370       ??$read_va_arg@I@__crt_stdio_output@@YAIAAPAD@Z 1004b370 f i libucrtd:output.obj
 0001:0004a390       ??$read_va_arg@PAD@__crt_stdio_output@@YAPADAAPAD@Z 1004b390 f i libucrtd:output.obj
 0001:0004a3b0       ??$read_va_arg@PAUansi_string@?1??type_case_Z@?$output_processor@DV?$stream_output_adapter@D@__crt_stdio_output@@V?$format_validation_base@DV?$stream_output_adapter@D@__crt_stdio_output@@@2@@__crt_stdio_output@@AAE_NXZ@@__crt_stdio_output@@YAPAUansi_string@?1??type_case_Z@?$output_processor@DV?$stream_output_adapter@D@__crt_stdio_output@@V?$format_validation_base@DV?$stream_output_adapter@D@__crt_stdio_output@@@2@@0@AAE_NXZ@AAPAD@Z 1004b3b0 f i libucrtd:output.obj
 0001:0004a3d0       ??$read_va_arg@PAUansi_string@?1??type_case_Z@?$output_processor@DV?$stream_output_adapter@D@__crt_stdio_output@@V?$positional_parameter_base@DV?$stream_output_adapter@D@__crt_stdio_output@@@2@@__crt_stdio_output@@AAE_NXZ@@__crt_stdio_output@@YAPAUansi_string@?1??type_case_Z@?$output_processor@DV?$stream_output_adapter@D@__crt_stdio_output@@V?$positional_parameter_base@DV?$stream_output_adapter@D@__crt_stdio_output@@@2@@0@AAE_NXZ@AAPAD@Z 1004b3d0 f i libucrtd:output.obj
 0001:0004a3f0       ??$read_va_arg@PAUansi_string@?1??type_case_Z@?$output_processor@DV?$stream_output_adapter@D@__crt_stdio_output@@V?$standard_base@DV?$stream_output_adapter@D@__crt_stdio_output@@@2@@__crt_stdio_output@@AAE_NXZ@@__crt_stdio_output@@YAPAUansi_string@?1??type_case_Z@?$output_processor@DV?$stream_output_adapter@D@__crt_stdio_output@@V?$standard_base@DV?$stream_output_adapter@D@__crt_stdio_output@@@2@@0@AAE_NXZ@AAPAD@Z 1004b3f0 f i libucrtd:output.obj
 0001:0004a410       ??$read_va_arg@PAUansi_string@?1??type_case_Z@?$output_processor@DV?$string_output_adapter@D@__crt_stdio_output@@V?$format_validation_base@DV?$string_output_adapter@D@__crt_stdio_output@@@2@@__crt_stdio_output@@AAE_NXZ@@__crt_stdio_output@@YAPAUansi_string@?1??type_case_Z@?$output_processor@DV?$string_output_adapter@D@__crt_stdio_output@@V?$format_validation_base@DV?$string_output_adapter@D@__crt_stdio_output@@@2@@0@AAE_NXZ@AAPAD@Z 1004b410 f i libucrtd:output.obj
 0001:0004a430       ??$read_va_arg@PAUansi_string@?1??type_case_Z@?$output_processor@DV?$string_output_adapter@D@__crt_stdio_output@@V?$positional_parameter_base@DV?$string_output_adapter@D@__crt_stdio_output@@@2@@__crt_stdio_output@@AAE_NXZ@@__crt_stdio_output@@YAPAUansi_string@?1??type_case_Z@?$output_processor@DV?$string_output_adapter@D@__crt_stdio_output@@V?$positional_parameter_base@DV?$string_output_adapter@D@__crt_stdio_output@@@2@@0@AAE_NXZ@AAPAD@Z 1004b430 f i libucrtd:output.obj
 0001:0004a450       ??$read_va_arg@PAUansi_string@?1??type_case_Z@?$output_processor@DV?$string_output_adapter@D@__crt_stdio_output@@V?$standard_base@DV?$string_output_adapter@D@__crt_stdio_output@@@2@@__crt_stdio_output@@AAE_NXZ@@__crt_stdio_output@@YAPAUansi_string@?1??type_case_Z@?$output_processor@DV?$string_output_adapter@D@__crt_stdio_output@@V?$standard_base@DV?$string_output_adapter@D@__crt_stdio_output@@@2@@0@AAE_NXZ@AAPAD@Z 1004b450 f i libucrtd:output.obj
 0001:0004a470       ??$read_va_arg@PAUansi_string@?1??type_case_Z@?$output_processor@_WV?$stream_output_adapter@_W@__crt_stdio_output@@V?$format_validation_base@_WV?$stream_output_adapter@_W@__crt_stdio_output@@@2@@__crt_stdio_output@@AAE_NXZ@@__crt_stdio_output@@YAPAUansi_string@?1??type_case_Z@?$output_processor@_WV?$stream_output_adapter@_W@__crt_stdio_output@@V?$format_validation_base@_WV?$stream_output_adapter@_W@__crt_stdio_output@@@2@@0@AAE_NXZ@AAPAD@Z 1004b470 f i libucrtd:output.obj
 0001:0004a490       ??$read_va_arg@PAUansi_string@?1??type_case_Z@?$output_processor@_WV?$stream_output_adapter@_W@__crt_stdio_output@@V?$positional_parameter_base@_WV?$stream_output_adapter@_W@__crt_stdio_output@@@2@@__crt_stdio_output@@AAE_NXZ@@__crt_stdio_output@@YAPAUansi_string@?1??type_case_Z@?$output_processor@_WV?$stream_output_adapter@_W@__crt_stdio_output@@V?$positional_parameter_base@_WV?$stream_output_adapter@_W@__crt_stdio_output@@@2@@0@AAE_NXZ@AAPAD@Z 1004b490 f i libucrtd:output.obj
 0001:0004a4b0       ??$read_va_arg@PAUansi_string@?1??type_case_Z@?$output_processor@_WV?$stream_output_adapter@_W@__crt_stdio_output@@V?$standard_base@_WV?$stream_output_adapter@_W@__crt_stdio_output@@@2@@__crt_stdio_output@@AAE_NXZ@@__crt_stdio_output@@YAPAUansi_string@?1??type_case_Z@?$output_processor@_WV?$stream_output_adapter@_W@__crt_stdio_output@@V?$standard_base@_WV?$stream_output_adapter@_W@__crt_stdio_output@@@2@@0@AAE_NXZ@AAPAD@Z 1004b4b0 f i libucrtd:output.obj
 0001:0004a4d0       ??$read_va_arg@PAUansi_string@?1??type_case_Z@?$output_processor@_WV?$string_output_adapter@_W@__crt_stdio_output@@V?$format_validation_base@_WV?$string_output_adapter@_W@__crt_stdio_output@@@2@@__crt_stdio_output@@AAE_NXZ@@__crt_stdio_output@@YAPAUansi_string@?1??type_case_Z@?$output_processor@_WV?$string_output_adapter@_W@__crt_stdio_output@@V?$format_validation_base@_WV?$string_output_adapter@_W@__crt_stdio_output@@@2@@0@AAE_NXZ@AAPAD@Z 1004b4d0 f i libucrtd:output.obj
 0001:0004a4f0       ??$read_va_arg@PAUansi_string@?1??type_case_Z@?$output_processor@_WV?$string_output_adapter@_W@__crt_stdio_output@@V?$positional_parameter_base@_WV?$string_output_adapter@_W@__crt_stdio_output@@@2@@__crt_stdio_output@@AAE_NXZ@@__crt_stdio_output@@YAPAUansi_string@?1??type_case_Z@?$output_processor@_WV?$string_output_adapter@_W@__crt_stdio_output@@V?$positional_parameter_base@_WV?$string_output_adapter@_W@__crt_stdio_output@@@2@@0@AAE_NXZ@AAPAD@Z 1004b4f0 f i libucrtd:output.obj
 0001:0004a510       ??$read_va_arg@PAUansi_string@?1??type_case_Z@?$output_processor@_WV?$string_output_adapter@_W@__crt_stdio_output@@V?$standard_base@_WV?$string_output_adapter@_W@__crt_stdio_output@@@2@@__crt_stdio_output@@AAE_NXZ@@__crt_stdio_output@@YAPAUansi_string@?1??type_case_Z@?$output_processor@_WV?$string_output_adapter@_W@__crt_stdio_output@@V?$standard_base@_WV?$string_output_adapter@_W@__crt_stdio_output@@@2@@0@AAE_NXZ@AAPAD@Z 1004b510 f i libucrtd:output.obj
 0001:0004a530       ??$read_va_arg@PAX@__crt_stdio_output@@YAPAXAAPAD@Z 1004b530 f i libucrtd:output.obj
 0001:0004a550       ??$read_va_arg@U_CRT_DOUBLE@@@__crt_stdio_output@@YA?AU_CRT_DOUBLE@@AAPAD@Z 1004b550 f i libucrtd:output.obj
 0001:0004a570       ??$read_va_arg@_J@__crt_stdio_output@@YA_JAAPAD@Z 1004b570 f i libucrtd:output.obj
 0001:0004a590       ??$read_va_arg@_K@__crt_stdio_output@@YA_KAAPAD@Z 1004b590 f i libucrtd:output.obj
 0001:0004a5b0       ??$read_va_arg@_W@__crt_stdio_output@@YA_WAAPAD@Z 1004b5b0 f i libucrtd:output.obj
 0001:0004a5d0       ??$scratch_count@D@formatting_buffer@__crt_stdio_output@@QBEIXZ 1004b5d0 f i libucrtd:output.obj
 0001:0004a5f0       ??$scratch_data@D@formatting_buffer@__crt_stdio_output@@QAEPADXZ 1004b5f0 f i libucrtd:output.obj
 0001:0004a640       ??$type_case_integer@$07@?$output_processor@DV?$stream_output_adapter@D@__crt_stdio_output@@V?$format_validation_base@DV?$stream_output_adapter@D@__crt_stdio_output@@@2@@__crt_stdio_output@@AAE_N_N@Z 1004b640 f i libucrtd:output.obj
 0001:0004a9a0       ??$type_case_integer@$07@?$output_processor@DV?$stream_output_adapter@D@__crt_stdio_output@@V?$positional_parameter_base@DV?$stream_output_adapter@D@__crt_stdio_output@@@2@@__crt_stdio_output@@AAE_N_N@Z 1004b9a0 f i libucrtd:output.obj
 0001:0004ad00       ??$type_case_integer@$07@?$output_processor@DV?$stream_output_adapter@D@__crt_stdio_output@@V?$standard_base@DV?$stream_output_adapter@D@__crt_stdio_output@@@2@@__crt_stdio_output@@AAE_N_N@Z 1004bd00 f i libucrtd:output.obj
 0001:0004b060       ??$type_case_integer@$07@?$output_processor@DV?$string_output_adapter@D@__crt_stdio_output@@V?$format_validation_base@DV?$string_output_adapter@D@__crt_stdio_output@@@2@@__crt_stdio_output@@AAE_N_N@Z 1004c060 f i libucrtd:output.obj
 0001:0004b3c0       ??$type_case_integer@$07@?$output_processor@DV?$string_output_adapter@D@__crt_stdio_output@@V?$positional_parameter_base@DV?$string_output_adapter@D@__crt_stdio_output@@@2@@__crt_stdio_output@@AAE_N_N@Z 1004c3c0 f i libucrtd:output.obj
 0001:0004b720       ??$type_case_integer@$07@?$output_processor@DV?$string_output_adapter@D@__crt_stdio_output@@V?$standard_base@DV?$string_output_adapter@D@__crt_stdio_output@@@2@@__crt_stdio_output@@AAE_N_N@Z 1004c720 f i libucrtd:output.obj
 0001:0004ba80       ??$type_case_integer@$07@?$output_processor@_WV?$stream_output_adapter@_W@__crt_stdio_output@@V?$format_validation_base@_WV?$stream_output_adapter@_W@__crt_stdio_output@@@2@@__crt_stdio_output@@AAE_N_N@Z 1004ca80 f i libucrtd:output.obj
 0001:0004bde0       ??$type_case_integer@$07@?$output_processor@_WV?$stream_output_adapter@_W@__crt_stdio_output@@V?$positional_parameter_base@_WV?$stream_output_adapter@_W@__crt_stdio_output@@@2@@__crt_stdio_output@@AAE_N_N@Z 1004cde0 f i libucrtd:output.obj
 0001:0004c140       ??$type_case_integer@$07@?$output_processor@_WV?$stream_output_adapter@_W@__crt_stdio_output@@V?$standard_base@_WV?$stream_output_adapter@_W@__crt_stdio_output@@@2@@__crt_stdio_output@@AAE_N_N@Z 1004d140 f i libucrtd:output.obj
 0001:0004c4a0       ??$type_case_integer@$07@?$output_processor@_WV?$string_output_adapter@_W@__crt_stdio_output@@V?$format_validation_base@_WV?$string_output_adapter@_W@__crt_stdio_output@@@2@@__crt_stdio_output@@AAE_N_N@Z 1004d4a0 f i libucrtd:output.obj
 0001:0004c800       ??$type_case_integer@$07@?$output_processor@_WV?$string_output_adapter@_W@__crt_stdio_output@@V?$positional_parameter_base@_WV?$string_output_adapter@_W@__crt_stdio_output@@@2@@__crt_stdio_output@@AAE_N_N@Z 1004d800 f i libucrtd:output.obj
 0001:0004cb60       ??$type_case_integer@$07@?$output_processor@_WV?$string_output_adapter@_W@__crt_stdio_output@@V?$standard_base@_WV?$string_output_adapter@_W@__crt_stdio_output@@@2@@__crt_stdio_output@@AAE_N_N@Z 1004db60 f i libucrtd:output.obj
 0001:0004cec0       ??$type_case_integer@$09@?$output_processor@DV?$stream_output_adapter@D@__crt_stdio_output@@V?$format_validation_base@DV?$stream_output_adapter@D@__crt_stdio_output@@@2@@__crt_stdio_output@@AAE_N_N@Z 1004dec0 f i libucrtd:output.obj
 0001:0004d220       ??$type_case_integer@$09@?$output_processor@DV?$stream_output_adapter@D@__crt_stdio_output@@V?$positional_parameter_base@DV?$stream_output_adapter@D@__crt_stdio_output@@@2@@__crt_stdio_output@@AAE_N_N@Z 1004e220 f i libucrtd:output.obj
 0001:0004d580       ??$type_case_integer@$09@?$output_processor@DV?$stream_output_adapter@D@__crt_stdio_output@@V?$standard_base@DV?$stream_output_adapter@D@__crt_stdio_output@@@2@@__crt_stdio_output@@AAE_N_N@Z 1004e580 f i libucrtd:output.obj
 0001:0004d8e0       ??$type_case_integer@$09@?$output_processor@DV?$string_output_adapter@D@__crt_stdio_output@@V?$format_validation_base@DV?$string_output_adapter@D@__crt_stdio_output@@@2@@__crt_stdio_output@@AAE_N_N@Z 1004e8e0 f i libucrtd:output.obj
 0001:0004dc40       ??$type_case_integer@$09@?$output_processor@DV?$string_output_adapter@D@__crt_stdio_output@@V?$positional_parameter_base@DV?$string_output_adapter@D@__crt_stdio_output@@@2@@__crt_stdio_output@@AAE_N_N@Z 1004ec40 f i libucrtd:output.obj
 0001:0004dfa0       ??$type_case_integer@$09@?$output_processor@DV?$string_output_adapter@D@__crt_stdio_output@@V?$standard_base@DV?$string_output_adapter@D@__crt_stdio_output@@@2@@__crt_stdio_output@@AAE_N_N@Z 1004efa0 f i libucrtd:output.obj
 0001:0004e300       ??$type_case_integer@$09@?$output_processor@_WV?$stream_output_adapter@_W@__crt_stdio_output@@V?$format_validation_base@_WV?$stream_output_adapter@_W@__crt_stdio_output@@@2@@__crt_stdio_output@@AAE_N_N@Z 1004f300 f i libucrtd:output.obj
 0001:0004e660       ??$type_case_integer@$09@?$output_processor@_WV?$stream_output_adapter@_W@__crt_stdio_output@@V?$positional_parameter_base@_WV?$stream_output_adapter@_W@__crt_stdio_output@@@2@@__crt_stdio_output@@AAE_N_N@Z 1004f660 f i libucrtd:output.obj
 0001:0004e9c0       ??$type_case_integer@$09@?$output_processor@_WV?$stream_output_adapter@_W@__crt_stdio_output@@V?$standard_base@_WV?$stream_output_adapter@_W@__crt_stdio_output@@@2@@__crt_stdio_output@@AAE_N_N@Z 1004f9c0 f i libucrtd:output.obj
 0001:0004ed20       ??$type_case_integer@$09@?$output_processor@_WV?$string_output_adapter@_W@__crt_stdio_output@@V?$format_validation_base@_WV?$string_output_adapter@_W@__crt_stdio_output@@@2@@__crt_stdio_output@@AAE_N_N@Z 1004fd20 f i libucrtd:output.obj
 0001:0004f080       ??$type_case_integer@$09@?$output_processor@_WV?$string_output_adapter@_W@__crt_stdio_output@@V?$positional_parameter_base@_WV?$string_output_adapter@_W@__crt_stdio_output@@@2@@__crt_stdio_output@@AAE_N_N@Z 10050080 f i libucrtd:output.obj
 0001:0004f3e0       ??$type_case_integer@$09@?$output_processor@_WV?$string_output_adapter@_W@__crt_stdio_output@@V?$standard_base@_WV?$string_output_adapter@_W@__crt_stdio_output@@@2@@__crt_stdio_output@@AAE_N_N@Z 100503e0 f i libucrtd:output.obj
 0001:0004f740       ??$type_case_integer@$0BA@@?$output_processor@DV?$stream_output_adapter@D@__crt_stdio_output@@V?$format_validation_base@DV?$stream_output_adapter@D@__crt_stdio_output@@@2@@__crt_stdio_output@@AAE_N_N@Z 10050740 f i libucrtd:output.obj
 0001:0004faa0       ??$type_case_integer@$0BA@@?$output_processor@DV?$stream_output_adapter@D@__crt_stdio_output@@V?$positional_parameter_base@DV?$stream_output_adapter@D@__crt_stdio_output@@@2@@__crt_stdio_output@@AAE_N_N@Z 10050aa0 f i libucrtd:output.obj
 0001:0004fe00       ??$type_case_integer@$0BA@@?$output_processor@DV?$stream_output_adapter@D@__crt_stdio_output@@V?$standard_base@DV?$stream_output_adapter@D@__crt_stdio_output@@@2@@__crt_stdio_output@@AAE_N_N@Z 10050e00 f i libucrtd:output.obj
 0001:00050160       ??$type_case_integer@$0BA@@?$output_processor@DV?$string_output_adapter@D@__crt_stdio_output@@V?$format_validation_base@DV?$string_output_adapter@D@__crt_stdio_output@@@2@@__crt_stdio_output@@AAE_N_N@Z 10051160 f i libucrtd:output.obj
 0001:000504c0       ??$type_case_integer@$0BA@@?$output_processor@DV?$string_output_adapter@D@__crt_stdio_output@@V?$positional_parameter_base@DV?$string_output_adapter@D@__crt_stdio_output@@@2@@__crt_stdio_output@@AAE_N_N@Z 100514c0 f i libucrtd:output.obj
 0001:00050820       ??$type_case_integer@$0BA@@?$output_processor@DV?$string_output_adapter@D@__crt_stdio_output@@V?$standard_base@DV?$string_output_adapter@D@__crt_stdio_output@@@2@@__crt_stdio_output@@AAE_N_N@Z 10051820 f i libucrtd:output.obj
 0001:00050b80       ??$type_case_integer@$0BA@@?$output_processor@_WV?$stream_output_adapter@_W@__crt_stdio_output@@V?$format_validation_base@_WV?$stream_output_adapter@_W@__crt_stdio_output@@@2@@__crt_stdio_output@@AAE_N_N@Z 10051b80 f i libucrtd:output.obj
 0001:00050ee0       ??$type_case_integer@$0BA@@?$output_processor@_WV?$stream_output_adapter@_W@__crt_stdio_output@@V?$positional_parameter_base@_WV?$stream_output_adapter@_W@__crt_stdio_output@@@2@@__crt_stdio_output@@AAE_N_N@Z 10051ee0 f i libucrtd:output.obj
 0001:00051240       ??$type_case_integer@$0BA@@?$output_processor@_WV?$stream_output_adapter@_W@__crt_stdio_output@@V?$standard_base@_WV?$stream_output_adapter@_W@__crt_stdio_output@@@2@@__crt_stdio_output@@AAE_N_N@Z 10052240 f i libucrtd:output.obj
 0001:000515a0       ??$type_case_integer@$0BA@@?$output_processor@_WV?$string_output_adapter@_W@__crt_stdio_output@@V?$format_validation_base@_WV?$string_output_adapter@_W@__crt_stdio_output@@@2@@__crt_stdio_output@@AAE_N_N@Z 100525a0 f i libucrtd:output.obj
 0001:00051900       ??$type_case_integer@$0BA@@?$output_processor@_WV?$string_output_adapter@_W@__crt_stdio_output@@V?$positional_parameter_base@_WV?$string_output_adapter@_W@__crt_stdio_output@@@2@@__crt_stdio_output@@AAE_N_N@Z 10052900 f i libucrtd:output.obj
 0001:00051c60       ??$type_case_integer@$0BA@@?$output_processor@_WV?$string_output_adapter@_W@__crt_stdio_output@@V?$standard_base@_WV?$string_output_adapter@_W@__crt_stdio_output@@@2@@__crt_stdio_output@@AAE_N_N@Z 10052c60 f i libucrtd:output.obj
 0001:00051fc0       ??$type_case_integer_parse_into_buffer@I$07@?$output_processor@DV?$stream_output_adapter@D@__crt_stdio_output@@V?$format_validation_base@DV?$stream_output_adapter@D@__crt_stdio_output@@@2@@__crt_stdio_output@@AAEXI_N@Z 10052fc0 f i libucrtd:output.obj
 0001:00052090       ??$type_case_integer_parse_into_buffer@I$07@?$output_processor@DV?$stream_output_adapter@D@__crt_stdio_output@@V?$positional_parameter_base@DV?$stream_output_adapter@D@__crt_stdio_output@@@2@@__crt_stdio_output@@AAEXI_N@Z 10053090 f i libucrtd:output.obj
 0001:00052160       ??$type_case_integer_parse_into_buffer@I$07@?$output_processor@DV?$stream_output_adapter@D@__crt_stdio_output@@V?$standard_base@DV?$stream_output_adapter@D@__crt_stdio_output@@@2@@__crt_stdio_output@@AAEXI_N@Z 10053160 f i libucrtd:output.obj
 0001:00052230       ??$type_case_integer_parse_into_buffer@I$07@?$output_processor@DV?$string_output_adapter@D@__crt_stdio_output@@V?$format_validation_base@DV?$string_output_adapter@D@__crt_stdio_output@@@2@@__crt_stdio_output@@AAEXI_N@Z 10053230 f i libucrtd:output.obj
 0001:00052300       ??$type_case_integer_parse_into_buffer@I$07@?$output_processor@DV?$string_output_adapter@D@__crt_stdio_output@@V?$positional_parameter_base@DV?$string_output_adapter@D@__crt_stdio_output@@@2@@__crt_stdio_output@@AAEXI_N@Z 10053300 f i libucrtd:output.obj
 0001:000523d0       ??$type_case_integer_parse_into_buffer@I$07@?$output_processor@DV?$string_output_adapter@D@__crt_stdio_output@@V?$standard_base@DV?$string_output_adapter@D@__crt_stdio_output@@@2@@__crt_stdio_output@@AAEXI_N@Z 100533d0 f i libucrtd:output.obj
 0001:000524a0       ??$type_case_integer_parse_into_buffer@I$07@?$output_processor@_WV?$stream_output_adapter@_W@__crt_stdio_output@@V?$format_validation_base@_WV?$stream_output_adapter@_W@__crt_stdio_output@@@2@@__crt_stdio_output@@AAEXI_N@Z 100534a0 f i libucrtd:output.obj
 0001:00052580       ??$type_case_integer_parse_into_buffer@I$07@?$output_processor@_WV?$stream_output_adapter@_W@__crt_stdio_output@@V?$positional_parameter_base@_WV?$stream_output_adapter@_W@__crt_stdio_output@@@2@@__crt_stdio_output@@AAEXI_N@Z 10053580 f i libucrtd:output.obj
 0001:00052660       ??$type_case_integer_parse_into_buffer@I$07@?$output_processor@_WV?$stream_output_adapter@_W@__crt_stdio_output@@V?$standard_base@_WV?$stream_output_adapter@_W@__crt_stdio_output@@@2@@__crt_stdio_output@@AAEXI_N@Z 10053660 f i libucrtd:output.obj
 0001:00052740       ??$type_case_integer_parse_into_buffer@I$07@?$output_processor@_WV?$string_output_adapter@_W@__crt_stdio_output@@V?$format_validation_base@_WV?$string_output_adapter@_W@__crt_stdio_output@@@2@@__crt_stdio_output@@AAEXI_N@Z 10053740 f i libucrtd:output.obj
 0001:00052820       ??$type_case_integer_parse_into_buffer@I$07@?$output_processor@_WV?$string_output_adapter@_W@__crt_stdio_output@@V?$positional_parameter_base@_WV?$string_output_adapter@_W@__crt_stdio_output@@@2@@__crt_stdio_output@@AAEXI_N@Z 10053820 f i libucrtd:output.obj
 0001:00052900       ??$type_case_integer_parse_into_buffer@I$07@?$output_processor@_WV?$string_output_adapter@_W@__crt_stdio_output@@V?$standard_base@_WV?$string_output_adapter@_W@__crt_stdio_output@@@2@@__crt_stdio_output@@AAEXI_N@Z 10053900 f i libucrtd:output.obj
 0001:000529e0       ??$type_case_integer_parse_into_buffer@I$09@?$output_processor@DV?$stream_output_adapter@D@__crt_stdio_output@@V?$format_validation_base@DV?$stream_output_adapter@D@__crt_stdio_output@@@2@@__crt_stdio_output@@AAEXI_N@Z 100539e0 f i libucrtd:output.obj
 0001:00052ac0       ??$type_case_integer_parse_into_buffer@I$09@?$output_processor@DV?$stream_output_adapter@D@__crt_stdio_output@@V?$positional_parameter_base@DV?$stream_output_adapter@D@__crt_stdio_output@@@2@@__crt_stdio_output@@AAEXI_N@Z 10053ac0 f i libucrtd:output.obj
 0001:00052ba0       ??$type_case_integer_parse_into_buffer@I$09@?$output_processor@DV?$stream_output_adapter@D@__crt_stdio_output@@V?$standard_base@DV?$stream_output_adapter@D@__crt_stdio_output@@@2@@__crt_stdio_output@@AAEXI_N@Z 10053ba0 f i libucrtd:output.obj
 0001:00052c80       ??$type_case_integer_parse_into_buffer@I$09@?$output_processor@DV?$string_output_adapter@D@__crt_stdio_output@@V?$format_validation_base@DV?$string_output_adapter@D@__crt_stdio_output@@@2@@__crt_stdio_output@@AAEXI_N@Z 10053c80 f i libucrtd:output.obj
 0001:00052d60       ??$type_case_integer_parse_into_buffer@I$09@?$output_processor@DV?$string_output_adapter@D@__crt_stdio_output@@V?$positional_parameter_base@DV?$string_output_adapter@D@__crt_stdio_output@@@2@@__crt_stdio_output@@AAEXI_N@Z 10053d60 f i libucrtd:output.obj
 0001:00052e40       ??$type_case_integer_parse_into_buffer@I$09@?$output_processor@DV?$string_output_adapter@D@__crt_stdio_output@@V?$standard_base@DV?$string_output_adapter@D@__crt_stdio_output@@@2@@__crt_stdio_output@@AAEXI_N@Z 10053e40 f i libucrtd:output.obj
 0001:00052f20       ??$type_case_integer_parse_into_buffer@I$09@?$output_processor@_WV?$stream_output_adapter@_W@__crt_stdio_output@@V?$format_validation_base@_WV?$stream_output_adapter@_W@__crt_stdio_output@@@2@@__crt_stdio_output@@AAEXI_N@Z 10053f20 f i libucrtd:output.obj
 0001:00053010       ??$type_case_integer_parse_into_buffer@I$09@?$output_processor@_WV?$stream_output_adapter@_W@__crt_stdio_output@@V?$positional_parameter_base@_WV?$stream_output_adapter@_W@__crt_stdio_output@@@2@@__crt_stdio_output@@AAEXI_N@Z 10054010 f i libucrtd:output.obj
 0001:00053100       ??$type_case_integer_parse_into_buffer@I$09@?$output_processor@_WV?$stream_output_adapter@_W@__crt_stdio_output@@V?$standard_base@_WV?$stream_output_adapter@_W@__crt_stdio_output@@@2@@__crt_stdio_output@@AAEXI_N@Z 10054100 f i libucrtd:output.obj
 0001:000531f0       ??$type_case_integer_parse_into_buffer@I$09@?$output_processor@_WV?$string_output_adapter@_W@__crt_stdio_output@@V?$format_validation_base@_WV?$string_output_adapter@_W@__crt_stdio_output@@@2@@__crt_stdio_output@@AAEXI_N@Z 100541f0 f i libucrtd:output.obj
 0001:000532e0       ??$type_case_integer_parse_into_buffer@I$09@?$output_processor@_WV?$string_output_adapter@_W@__crt_stdio_output@@V?$positional_parameter_base@_WV?$string_output_adapter@_W@__crt_stdio_output@@@2@@__crt_stdio_output@@AAEXI_N@Z 100542e0 f i libucrtd:output.obj
 0001:000533d0       ??$type_case_integer_parse_into_buffer@I$09@?$output_processor@_WV?$string_output_adapter@_W@__crt_stdio_output@@V?$standard_base@_WV?$string_output_adapter@_W@__crt_stdio_output@@@2@@__crt_stdio_output@@AAEXI_N@Z 100543d0 f i libucrtd:output.obj
 0001:000534c0       ??$type_case_integer_parse_into_buffer@I$0BA@@?$output_processor@DV?$stream_output_adapter@D@__crt_stdio_output@@V?$format_validation_base@DV?$stream_output_adapter@D@__crt_stdio_output@@@2@@__crt_stdio_output@@AAEXI_N@Z 100544c0 f i libucrtd:output.obj
 0001:00053590       ??$type_case_integer_parse_into_buffer@I$0BA@@?$output_processor@DV?$stream_output_adapter@D@__crt_stdio_output@@V?$positional_parameter_base@DV?$stream_output_adapter@D@__crt_stdio_output@@@2@@__crt_stdio_output@@AAEXI_N@Z 10054590 f i libucrtd:output.obj
 0001:00053660       ??$type_case_integer_parse_into_buffer@I$0BA@@?$output_processor@DV?$stream_output_adapter@D@__crt_stdio_output@@V?$standard_base@DV?$stream_output_adapter@D@__crt_stdio_output@@@2@@__crt_stdio_output@@AAEXI_N@Z 10054660 f i libucrtd:output.obj
 0001:00053730       ??$type_case_integer_parse_into_buffer@I$0BA@@?$output_processor@DV?$string_output_adapter@D@__crt_stdio_output@@V?$format_validation_base@DV?$string_output_adapter@D@__crt_stdio_output@@@2@@__crt_stdio_output@@AAEXI_N@Z 10054730 f i libucrtd:output.obj
 0001:00053800       ??$type_case_integer_parse_into_buffer@I$0BA@@?$output_processor@DV?$string_output_adapter@D@__crt_stdio_output@@V?$positional_parameter_base@DV?$string_output_adapter@D@__crt_stdio_output@@@2@@__crt_stdio_output@@AAEXI_N@Z 10054800 f i libucrtd:output.obj
 0001:000538d0       ??$type_case_integer_parse_into_buffer@I$0BA@@?$output_processor@DV?$string_output_adapter@D@__crt_stdio_output@@V?$standard_base@DV?$string_output_adapter@D@__crt_stdio_output@@@2@@__crt_stdio_output@@AAEXI_N@Z 100548d0 f i libucrtd:output.obj
 0001:000539a0       ??$type_case_integer_parse_into_buffer@I$0BA@@?$output_processor@_WV?$stream_output_adapter@_W@__crt_stdio_output@@V?$format_validation_base@_WV?$stream_output_adapter@_W@__crt_stdio_output@@@2@@__crt_stdio_output@@AAEXI_N@Z 100549a0 f i libucrtd:output.obj
 0001:00053a80       ??$type_case_integer_parse_into_buffer@I$0BA@@?$output_processor@_WV?$stream_output_adapter@_W@__crt_stdio_output@@V?$positional_parameter_base@_WV?$stream_output_adapter@_W@__crt_stdio_output@@@2@@__crt_stdio_output@@AAEXI_N@Z 10054a80 f i libucrtd:output.obj
 0001:00053b60       ??$type_case_integer_parse_into_buffer@I$0BA@@?$output_processor@_WV?$stream_output_adapter@_W@__crt_stdio_output@@V?$standard_base@_WV?$stream_output_adapter@_W@__crt_stdio_output@@@2@@__crt_stdio_output@@AAEXI_N@Z 10054b60 f i libucrtd:output.obj
 0001:00053c40       ??$type_case_integer_parse_into_buffer@I$0BA@@?$output_processor@_WV?$string_output_adapter@_W@__crt_stdio_output@@V?$format_validation_base@_WV?$string_output_adapter@_W@__crt_stdio_output@@@2@@__crt_stdio_output@@AAEXI_N@Z 10054c40 f i libucrtd:output.obj
 0001:00053d20       ??$type_case_integer_parse_into_buffer@I$0BA@@?$output_processor@_WV?$string_output_adapter@_W@__crt_stdio_output@@V?$positional_parameter_base@_WV?$string_output_adapter@_W@__crt_stdio_output@@@2@@__crt_stdio_output@@AAEXI_N@Z 10054d20 f i libucrtd:output.obj
 0001:00053e00       ??$type_case_integer_parse_into_buffer@I$0BA@@?$output_processor@_WV?$string_output_adapter@_W@__crt_stdio_output@@V?$standard_base@_WV?$string_output_adapter@_W@__crt_stdio_output@@@2@@__crt_stdio_output@@AAEXI_N@Z 10054e00 f i libucrtd:output.obj
 0001:00053ee0       ??$type_case_integer_parse_into_buffer@_K$07@?$output_processor@DV?$stream_output_adapter@D@__crt_stdio_output@@V?$format_validation_base@DV?$stream_output_adapter@D@__crt_stdio_output@@@2@@__crt_stdio_output@@AAEX_K_N@Z 10054ee0 f i libucrtd:output.obj
 0001:00053fd0       ??$type_case_integer_parse_into_buffer@_K$07@?$output_processor@DV?$stream_output_adapter@D@__crt_stdio_output@@V?$positional_parameter_base@DV?$stream_output_adapter@D@__crt_stdio_output@@@2@@__crt_stdio_output@@AAEX_K_N@Z 10054fd0 f i libucrtd:output.obj
 0001:000540c0       ??$type_case_integer_parse_into_buffer@_K$07@?$output_processor@DV?$stream_output_adapter@D@__crt_stdio_output@@V?$standard_base@DV?$stream_output_adapter@D@__crt_stdio_output@@@2@@__crt_stdio_output@@AAEX_K_N@Z 100550c0 f i libucrtd:output.obj
 0001:000541b0       ??$type_case_integer_parse_into_buffer@_K$07@?$output_processor@DV?$string_output_adapter@D@__crt_stdio_output@@V?$format_validation_base@DV?$string_output_adapter@D@__crt_stdio_output@@@2@@__crt_stdio_output@@AAEX_K_N@Z 100551b0 f i libucrtd:output.obj
 0001:000542a0       ??$type_case_integer_parse_into_buffer@_K$07@?$output_processor@DV?$string_output_adapter@D@__crt_stdio_output@@V?$positional_parameter_base@DV?$string_output_adapter@D@__crt_stdio_output@@@2@@__crt_stdio_output@@AAEX_K_N@Z 100552a0 f i libucrtd:output.obj
 0001:00054390       ??$type_case_integer_parse_into_buffer@_K$07@?$output_processor@DV?$string_output_adapter@D@__crt_stdio_output@@V?$standard_base@DV?$string_output_adapter@D@__crt_stdio_output@@@2@@__crt_stdio_output@@AAEX_K_N@Z 10055390 f i libucrtd:output.obj
 0001:00054480       ??$type_case_integer_parse_into_buffer@_K$07@?$output_processor@_WV?$stream_output_adapter@_W@__crt_stdio_output@@V?$format_validation_base@_WV?$stream_output_adapter@_W@__crt_stdio_output@@@2@@__crt_stdio_output@@AAEX_K_N@Z 10055480 f i libucrtd:output.obj
 0001:00054580       ??$type_case_integer_parse_into_buffer@_K$07@?$output_processor@_WV?$stream_output_adapter@_W@__crt_stdio_output@@V?$positional_parameter_base@_WV?$stream_output_adapter@_W@__crt_stdio_output@@@2@@__crt_stdio_output@@AAEX_K_N@Z 10055580 f i libucrtd:output.obj
 0001:00054680       ??$type_case_integer_parse_into_buffer@_K$07@?$output_processor@_WV?$stream_output_adapter@_W@__crt_stdio_output@@V?$standard_base@_WV?$stream_output_adapter@_W@__crt_stdio_output@@@2@@__crt_stdio_output@@AAEX_K_N@Z 10055680 f i libucrtd:output.obj
 0001:00054780       ??$type_case_integer_parse_into_buffer@_K$07@?$output_processor@_WV?$string_output_adapter@_W@__crt_stdio_output@@V?$format_validation_base@_WV?$string_output_adapter@_W@__crt_stdio_output@@@2@@__crt_stdio_output@@AAEX_K_N@Z 10055780 f i libucrtd:output.obj
 0001:00054880       ??$type_case_integer_parse_into_buffer@_K$07@?$output_processor@_WV?$string_output_adapter@_W@__crt_stdio_output@@V?$positional_parameter_base@_WV?$string_output_adapter@_W@__crt_stdio_output@@@2@@__crt_stdio_output@@AAEX_K_N@Z 10055880 f i libucrtd:output.obj
 0001:00054980       ??$type_case_integer_parse_into_buffer@_K$07@?$output_processor@_WV?$string_output_adapter@_W@__crt_stdio_output@@V?$standard_base@_WV?$string_output_adapter@_W@__crt_stdio_output@@@2@@__crt_stdio_output@@AAEX_K_N@Z 10055980 f i libucrtd:output.obj
 0001:00054a80       ??$type_case_integer_parse_into_buffer@_K$09@?$output_processor@DV?$stream_output_adapter@D@__crt_stdio_output@@V?$format_validation_base@DV?$stream_output_adapter@D@__crt_stdio_output@@@2@@__crt_stdio_output@@AAEX_K_N@Z 10055a80 f i libucrtd:output.obj
 0001:00054b70       ??$type_case_integer_parse_into_buffer@_K$09@?$output_processor@DV?$stream_output_adapter@D@__crt_stdio_output@@V?$positional_parameter_base@DV?$stream_output_adapter@D@__crt_stdio_output@@@2@@__crt_stdio_output@@AAEX_K_N@Z 10055b70 f i libucrtd:output.obj
 0001:00054c60       ??$type_case_integer_parse_into_buffer@_K$09@?$output_processor@DV?$stream_output_adapter@D@__crt_stdio_output@@V?$standard_base@DV?$stream_output_adapter@D@__crt_stdio_output@@@2@@__crt_stdio_output@@AAEX_K_N@Z 10055c60 f i libucrtd:output.obj
 0001:00054d50       ??$type_case_integer_parse_into_buffer@_K$09@?$output_processor@DV?$string_output_adapter@D@__crt_stdio_output@@V?$format_validation_base@DV?$string_output_adapter@D@__crt_stdio_output@@@2@@__crt_stdio_output@@AAEX_K_N@Z 10055d50 f i libucrtd:output.obj
 0001:00054e40       ??$type_case_integer_parse_into_buffer@_K$09@?$output_processor@DV?$string_output_adapter@D@__crt_stdio_output@@V?$positional_parameter_base@DV?$string_output_adapter@D@__crt_stdio_output@@@2@@__crt_stdio_output@@AAEX_K_N@Z 10055e40 f i libucrtd:output.obj
 0001:00054f30       ??$type_case_integer_parse_into_buffer@_K$09@?$output_processor@DV?$string_output_adapter@D@__crt_stdio_output@@V?$standard_base@DV?$string_output_adapter@D@__crt_stdio_output@@@2@@__crt_stdio_output@@AAEX_K_N@Z 10055f30 f i libucrtd:output.obj
 0001:00055020       ??$type_case_integer_parse_into_buffer@_K$09@?$output_processor@_WV?$stream_output_adapter@_W@__crt_stdio_output@@V?$format_validation_base@_WV?$stream_output_adapter@_W@__crt_stdio_output@@@2@@__crt_stdio_output@@AAEX_K_N@Z 10056020 f i libucrtd:output.obj
 0001:00055120       ??$type_case_integer_parse_into_buffer@_K$09@?$output_processor@_WV?$stream_output_adapter@_W@__crt_stdio_output@@V?$positional_parameter_base@_WV?$stream_output_adapter@_W@__crt_stdio_output@@@2@@__crt_stdio_output@@AAEX_K_N@Z 10056120 f i libucrtd:output.obj
 0001:00055220       ??$type_case_integer_parse_into_buffer@_K$09@?$output_processor@_WV?$stream_output_adapter@_W@__crt_stdio_output@@V?$standard_base@_WV?$stream_output_adapter@_W@__crt_stdio_output@@@2@@__crt_stdio_output@@AAEX_K_N@Z 10056220 f i libucrtd:output.obj
 0001:00055320       ??$type_case_integer_parse_into_buffer@_K$09@?$output_processor@_WV?$string_output_adapter@_W@__crt_stdio_output@@V?$format_validation_base@_WV?$string_output_adapter@_W@__crt_stdio_output@@@2@@__crt_stdio_output@@AAEX_K_N@Z 10056320 f i libucrtd:output.obj
 0001:00055420       ??$type_case_integer_parse_into_buffer@_K$09@?$output_processor@_WV?$string_output_adapter@_W@__crt_stdio_output@@V?$positional_parameter_base@_WV?$string_output_adapter@_W@__crt_stdio_output@@@2@@__crt_stdio_output@@AAEX_K_N@Z 10056420 f i libucrtd:output.obj
 0001:00055520       ??$type_case_integer_parse_into_buffer@_K$09@?$output_processor@_WV?$string_output_adapter@_W@__crt_stdio_output@@V?$standard_base@_WV?$string_output_adapter@_W@__crt_stdio_output@@@2@@__crt_stdio_output@@AAEX_K_N@Z 10056520 f i libucrtd:output.obj
 0001:00055620       ??$type_case_integer_parse_into_buffer@_K$0BA@@?$output_processor@DV?$stream_output_adapter@D@__crt_stdio_output@@V?$format_validation_base@DV?$stream_output_adapter@D@__crt_stdio_output@@@2@@__crt_stdio_output@@AAEX_K_N@Z 10056620 f i libucrtd:output.obj
 0001:00055710       ??$type_case_integer_parse_into_buffer@_K$0BA@@?$output_processor@DV?$stream_output_adapter@D@__crt_stdio_output@@V?$positional_parameter_base@DV?$stream_output_adapter@D@__crt_stdio_output@@@2@@__crt_stdio_output@@AAEX_K_N@Z 10056710 f i libucrtd:output.obj
 0001:00055800       ??$type_case_integer_parse_into_buffer@_K$0BA@@?$output_processor@DV?$stream_output_adapter@D@__crt_stdio_output@@V?$standard_base@DV?$stream_output_adapter@D@__crt_stdio_output@@@2@@__crt_stdio_output@@AAEX_K_N@Z 10056800 f i libucrtd:output.obj
 0001:000558f0       ??$type_case_integer_parse_into_buffer@_K$0BA@@?$output_processor@DV?$string_output_adapter@D@__crt_stdio_output@@V?$format_validation_base@DV?$string_output_adapter@D@__crt_stdio_output@@@2@@__crt_stdio_output@@AAEX_K_N@Z 100568f0 f i libucrtd:output.obj
 0001:000559e0       ??$type_case_integer_parse_into_buffer@_K$0BA@@?$output_processor@DV?$string_output_adapter@D@__crt_stdio_output@@V?$positional_parameter_base@DV?$string_output_adapter@D@__crt_stdio_output@@@2@@__crt_stdio_output@@AAEX_K_N@Z 100569e0 f i libucrtd:output.obj
 0001:00055ad0       ??$type_case_integer_parse_into_buffer@_K$0BA@@?$output_processor@DV?$string_output_adapter@D@__crt_stdio_output@@V?$standard_base@DV?$string_output_adapter@D@__crt_stdio_output@@@2@@__crt_stdio_output@@AAEX_K_N@Z 10056ad0 f i libucrtd:output.obj
 0001:00055bc0       ??$type_case_integer_parse_into_buffer@_K$0BA@@?$output_processor@_WV?$stream_output_adapter@_W@__crt_stdio_output@@V?$format_validation_base@_WV?$stream_output_adapter@_W@__crt_stdio_output@@@2@@__crt_stdio_output@@AAEX_K_N@Z 10056bc0 f i libucrtd:output.obj
 0001:00055cc0       ??$type_case_integer_parse_into_buffer@_K$0BA@@?$output_processor@_WV?$stream_output_adapter@_W@__crt_stdio_output@@V?$positional_parameter_base@_WV?$stream_output_adapter@_W@__crt_stdio_output@@@2@@__crt_stdio_output@@AAEX_K_N@Z 10056cc0 f i libucrtd:output.obj
 0001:00055dc0       ??$type_case_integer_parse_into_buffer@_K$0BA@@?$output_processor@_WV?$stream_output_adapter@_W@__crt_stdio_output@@V?$standard_base@_WV?$stream_output_adapter@_W@__crt_stdio_output@@@2@@__crt_stdio_output@@AAEX_K_N@Z 10056dc0 f i libucrtd:output.obj
 0001:00055ec0       ??$type_case_integer_parse_into_buffer@_K$0BA@@?$output_processor@_WV?$string_output_adapter@_W@__crt_stdio_output@@V?$format_validation_base@_WV?$string_output_adapter@_W@__crt_stdio_output@@@2@@__crt_stdio_output@@AAEX_K_N@Z 10056ec0 f i libucrtd:output.obj
 0001:00055fc0       ??$type_case_integer_parse_into_buffer@_K$0BA@@?$output_processor@_WV?$string_output_adapter@_W@__crt_stdio_output@@V?$positional_parameter_base@_WV?$string_output_adapter@_W@__crt_stdio_output@@@2@@__crt_stdio_output@@AAEX_K_N@Z 10056fc0 f i libucrtd:output.obj
 0001:000560c0       ??$type_case_integer_parse_into_buffer@_K$0BA@@?$output_processor@_WV?$string_output_adapter@_W@__crt_stdio_output@@V?$standard_base@_WV?$string_output_adapter@_W@__crt_stdio_output@@@2@@__crt_stdio_output@@AAEX_K_N@Z 100570c0 f i libucrtd:output.obj
 0001:000561c0       ??$write_multiple_characters@V?$stream_output_adapter@D@__crt_stdio_output@@D@__crt_stdio_output@@YAXABV?$stream_output_adapter@D@0@DHQAHAAV__crt_cached_ptd_host@@@Z 100571c0 f i libucrtd:output.obj
 0001:00056210       ??$write_multiple_characters@V?$stream_output_adapter@_W@__crt_stdio_output@@D@__crt_stdio_output@@YAXABV?$stream_output_adapter@_W@0@DHQAHAAV__crt_cached_ptd_host@@@Z 10057210 f i libucrtd:output.obj
 0001:00056260       ??$write_multiple_characters@V?$string_output_adapter@D@__crt_stdio_output@@D@__crt_stdio_output@@YAXABV?$string_output_adapter@D@0@DHQAHAAV__crt_cached_ptd_host@@@Z 10057260 f i libucrtd:output.obj
 0001:000562b0       ??$write_multiple_characters@V?$string_output_adapter@_W@__crt_stdio_output@@D@__crt_stdio_output@@YAXABV?$string_output_adapter@_W@0@DHQAHAAV__crt_cached_ptd_host@@@Z 100572b0 f i libucrtd:output.obj
 0001:00056600       ??0?$c_string_character_source@D@__crt_strtox@@QAE@QBDQAPBD@Z 10057600 f i libucrtd:output.obj
 0001:00056640       ??0?$c_string_character_source@_W@__crt_strtox@@QAE@QB_WQAPB_W@Z 10057640 f i libucrtd:output.obj
 0001:00056680       ??0?$cached@H@__crt_cached_ptd_host@@QAE@XZ 10057680 f i libucrtd:output.obj
 0001:000566a0       ??0?$cached@K@__crt_cached_ptd_host@@QAE@XZ 100576a0 f i libucrtd:output.obj
 0001:000566c0       ??0?$common_data@D@__crt_stdio_output@@IAE@AAV__crt_cached_ptd_host@@@Z 100576c0 f i libucrtd:output.obj
 0001:00056760       ??0?$common_data@_W@__crt_stdio_output@@IAE@AAV__crt_cached_ptd_host@@@Z 10057760 f i libucrtd:output.obj
 0001:00056800       ??0?$output_adapter_data@DV?$stream_output_adapter@D@__crt_stdio_output@@@__crt_stdio_output@@IAE@ABV?$stream_output_adapter@D@1@_KQBDAAV__crt_cached_ptd_host@@QAD@Z 10057800 f i libucrtd:output.obj
 0001:00056880       ??0?$output_adapter_data@DV?$string_output_adapter@D@__crt_stdio_output@@@__crt_stdio_output@@IAE@ABV?$string_output_adapter@D@1@_KQBDAAV__crt_cached_ptd_host@@QAD@Z 10057880 f i libucrtd:output.obj
 0001:00056900       ??0?$output_adapter_data@_WV?$stream_output_adapter@_W@__crt_stdio_output@@@__crt_stdio_output@@IAE@ABV?$stream_output_adapter@_W@1@_KQB_WAAV__crt_cached_ptd_host@@QAD@Z 10057900 f i libucrtd:output.obj
 0001:00056980       ??0?$output_adapter_data@_WV?$string_output_adapter@_W@__crt_stdio_output@@@__crt_stdio_output@@IAE@ABV?$string_output_adapter@_W@1@_KQB_WAAV__crt_cached_ptd_host@@QAD@Z 10057980 f i libucrtd:output.obj
 0001:00056a00       ??0?$output_processor@DV?$stream_output_adapter@D@__crt_stdio_output@@V?$format_validation_base@DV?$stream_output_adapter@D@__crt_stdio_output@@@2@@__crt_stdio_output@@QAE@ABV?$stream_output_adapter@D@1@_KQBDAAV__crt_cached_ptd_host@@QAD@Z 10057a00 f i libucrtd:output.obj
 0001:00056a30       ??0?$output_processor@DV?$stream_output_adapter@D@__crt_stdio_output@@V?$positional_parameter_base@DV?$stream_output_adapter@D@__crt_stdio_output@@@2@@__crt_stdio_output@@QAE@ABV?$stream_output_adapter@D@1@_KQBDAAV__crt_cached_ptd_host@@QAD@Z 10057a30 f i libucrtd:output.obj
 0001:00056a60       ??0?$output_processor@DV?$stream_output_adapter@D@__crt_stdio_output@@V?$standard_base@DV?$stream_output_adapter@D@__crt_stdio_output@@@2@@__crt_stdio_output@@QAE@ABV?$stream_output_adapter@D@1@_KQBDAAV__crt_cached_ptd_host@@QAD@Z 10057a60 f i libucrtd:output.obj
 0001:00056a90       ??0?$output_processor@DV?$string_output_adapter@D@__crt_stdio_output@@V?$format_validation_base@DV?$string_output_adapter@D@__crt_stdio_output@@@2@@__crt_stdio_output@@QAE@ABV?$string_output_adapter@D@1@_KQBDAAV__crt_cached_ptd_host@@QAD@Z 10057a90 f i libucrtd:output.obj
 0001:00056ac0       ??0?$output_processor@DV?$string_output_adapter@D@__crt_stdio_output@@V?$positional_parameter_base@DV?$string_output_adapter@D@__crt_stdio_output@@@2@@__crt_stdio_output@@QAE@ABV?$string_output_adapter@D@1@_KQBDAAV__crt_cached_ptd_host@@QAD@Z 10057ac0 f i libucrtd:output.obj
 0001:00056af0       ??0?$output_processor@DV?$string_output_adapter@D@__crt_stdio_output@@V?$standard_base@DV?$string_output_adapter@D@__crt_stdio_output@@@2@@__crt_stdio_output@@QAE@ABV?$string_output_adapter@D@1@_KQBDAAV__crt_cached_ptd_host@@QAD@Z 10057af0 f i libucrtd:output.obj
 0001:00056b20       ??0?$output_processor@_WV?$stream_output_adapter@_W@__crt_stdio_output@@V?$format_validation_base@_WV?$stream_output_adapter@_W@__crt_stdio_output@@@2@@__crt_stdio_output@@QAE@ABV?$stream_output_adapter@_W@1@_KQB_WAAV__crt_cached_ptd_host@@QAD@Z 10057b20 f i libucrtd:output.obj
 0001:00056b50       ??0?$output_processor@_WV?$stream_output_adapter@_W@__crt_stdio_output@@V?$positional_parameter_base@_WV?$stream_output_adapter@_W@__crt_stdio_output@@@2@@__crt_stdio_output@@QAE@ABV?$stream_output_adapter@_W@1@_KQB_WAAV__crt_cached_ptd_host@@QAD@Z 10057b50 f i libucrtd:output.obj
 0001:00056b80       ??0?$output_processor@_WV?$stream_output_adapter@_W@__crt_stdio_output@@V?$standard_base@_WV?$stream_output_adapter@_W@__crt_stdio_output@@@2@@__crt_stdio_output@@QAE@ABV?$stream_output_adapter@_W@1@_KQB_WAAV__crt_cached_ptd_host@@QAD@Z 10057b80 f i libucrtd:output.obj
 0001:00056bb0       ??0?$output_processor@_WV?$string_output_adapter@_W@__crt_stdio_output@@V?$format_validation_base@_WV?$string_output_adapter@_W@__crt_stdio_output@@@2@@__crt_stdio_output@@QAE@ABV?$string_output_adapter@_W@1@_KQB_WAAV__crt_cached_ptd_host@@QAD@Z 10057bb0 f i libucrtd:output.obj
 0001:00056be0       ??0?$output_processor@_WV?$string_output_adapter@_W@__crt_stdio_output@@V?$positional_parameter_base@_WV?$string_output_adapter@_W@__crt_stdio_output@@@2@@__crt_stdio_output@@QAE@ABV?$string_output_adapter@_W@1@_KQB_WAAV__crt_cached_ptd_host@@QAD@Z 10057be0 f i libucrtd:output.obj
 0001:00056c10       ??0?$output_processor@_WV?$string_output_adapter@_W@__crt_stdio_output@@V?$standard_base@_WV?$string_output_adapter@_W@__crt_stdio_output@@@2@@__crt_stdio_output@@QAE@ABV?$string_output_adapter@_W@1@_KQB_WAAV__crt_cached_ptd_host@@QAD@Z 10057c10 f i libucrtd:output.obj
 0001:00056c40       ??0?$stream_output_adapter@D@__crt_stdio_output@@QAE@QAU_iobuf@@@Z 10057c40 f i libucrtd:output.obj
 0001:00056c70       ??0?$stream_output_adapter@_W@__crt_stdio_output@@QAE@QAU_iobuf@@@Z 10057c70 f i libucrtd:output.obj
 0001:00056ca0       ??0?$string_output_adapter@D@__crt_stdio_output@@QAE@QAU?$string_output_adapter_context@D@1@@Z 10057ca0 f i libucrtd:output.obj
 0001:00056cc0       ??0?$string_output_adapter@_W@__crt_stdio_output@@QAE@QAU?$string_output_adapter_context@_W@1@@Z 10057cc0 f i libucrtd:output.obj
 0001:00056ce0       ??0__acrt_stdio_temporary_buffering_guard@@QAE@QAU_iobuf@@AAV__crt_cached_ptd_host@@@Z 10057ce0 f i libucrtd:output.obj
 0001:00056d20       ??0__crt_cached_ptd_host@@QAE@QAU__crt_locale_pointers@@@Z 10057d20 f i libucrtd:output.obj
 0001:00056db0       ??0__crt_scoped_get_last_error_reset@@QAE@XZ 10057db0 f i libucrtd:output.obj
 0001:00056dd0       ??0__crt_stdio_stream@@QAE@QAU_iobuf@@@Z 10057dd0 f i libucrtd:output.obj
 0001:00056df0       ??0formatting_buffer@__crt_stdio_output@@QAE@XZ 10057df0 f i libucrtd:output.obj
 0001:00056e30       ??0guard@?$cached@H@__crt_cached_ptd_host@@QAE@AAU12@@Z 10057e30 f i libucrtd:output.obj
 0001:00056e70       ??1?$c_string_character_source@D@__crt_strtox@@QAE@XZ 10057e70 f i libucrtd:output.obj
 0001:00056ea0       ??1?$c_string_character_source@_W@__crt_strtox@@QAE@XZ 10057ea0 f i libucrtd:output.obj
 0001:00056ed0       ??1?$common_data@D@__crt_stdio_output@@QAE@XZ 10057ed0 f i libucrtd:output.obj
 0001:00056ef0       ??1?$common_data@_W@__crt_stdio_output@@QAE@XZ 10057ef0 f i libucrtd:output.obj
 0001:00056f10       ??1?$format_validation_base@DV?$stream_output_adapter@D@__crt_stdio_output@@@__crt_stdio_output@@QAE@XZ 10057f10 f i libucrtd:output.obj
 0001:00056f30       ??1?$format_validation_base@DV?$string_output_adapter@D@__crt_stdio_output@@@__crt_stdio_output@@QAE@XZ 10057f30 f i libucrtd:output.obj
 0001:00056f50       ??1?$format_validation_base@_WV?$stream_output_adapter@_W@__crt_stdio_output@@@__crt_stdio_output@@QAE@XZ 10057f50 f i libucrtd:output.obj
 0001:00056f70       ??1?$format_validation_base@_WV?$string_output_adapter@_W@__crt_stdio_output@@@__crt_stdio_output@@QAE@XZ 10057f70 f i libucrtd:output.obj
 0001:00056f90       ??1?$output_adapter_data@DV?$stream_output_adapter@D@__crt_stdio_output@@@__crt_stdio_output@@QAE@XZ 10057f90 f i libucrtd:output.obj
 0001:00056fb0       ??1?$output_adapter_data@DV?$string_output_adapter@D@__crt_stdio_output@@@__crt_stdio_output@@QAE@XZ 10057fb0 f i libucrtd:output.obj
 0001:00056fd0       ??1?$output_adapter_data@_WV?$stream_output_adapter@_W@__crt_stdio_output@@@__crt_stdio_output@@QAE@XZ 10057fd0 f i libucrtd:output.obj
 0001:00056ff0       ??1?$output_adapter_data@_WV?$string_output_adapter@_W@__crt_stdio_output@@@__crt_stdio_output@@QAE@XZ 10057ff0 f i libucrtd:output.obj
 0001:00057010       ??1?$output_processor@DV?$stream_output_adapter@D@__crt_stdio_output@@V?$format_validation_base@DV?$stream_output_adapter@D@__crt_stdio_output@@@2@@__crt_stdio_output@@QAE@XZ 10058010 f i libucrtd:output.obj
 0001:00057030       ??1?$output_processor@DV?$stream_output_adapter@D@__crt_stdio_output@@V?$positional_parameter_base@DV?$stream_output_adapter@D@__crt_stdio_output@@@2@@__crt_stdio_output@@QAE@XZ 10058030 f i libucrtd:output.obj
 0001:00057050       ??1?$output_processor@DV?$stream_output_adapter@D@__crt_stdio_output@@V?$standard_base@DV?$stream_output_adapter@D@__crt_stdio_output@@@2@@__crt_stdio_output@@QAE@XZ 10058050 f i libucrtd:output.obj
 0001:00057070       ??1?$output_processor@DV?$string_output_adapter@D@__crt_stdio_output@@V?$format_validation_base@DV?$string_output_adapter@D@__crt_stdio_output@@@2@@__crt_stdio_output@@QAE@XZ 10058070 f i libucrtd:output.obj
 0001:00057090       ??1?$output_processor@DV?$string_output_adapter@D@__crt_stdio_output@@V?$positional_parameter_base@DV?$string_output_adapter@D@__crt_stdio_output@@@2@@__crt_stdio_output@@QAE@XZ 10058090 f i libucrtd:output.obj
 0001:000570b0       ??1?$output_processor@DV?$string_output_adapter@D@__crt_stdio_output@@V?$standard_base@DV?$string_output_adapter@D@__crt_stdio_output@@@2@@__crt_stdio_output@@QAE@XZ 100580b0 f i libucrtd:output.obj
 0001:000570d0       ??1?$output_processor@_WV?$stream_output_adapter@_W@__crt_stdio_output@@V?$format_validation_base@_WV?$stream_output_adapter@_W@__crt_stdio_output@@@2@@__crt_stdio_output@@QAE@XZ 100580d0 f i libucrtd:output.obj
 0001:000570f0       ??1?$output_processor@_WV?$stream_output_adapter@_W@__crt_stdio_output@@V?$positional_parameter_base@_WV?$stream_output_adapter@_W@__crt_stdio_output@@@2@@__crt_stdio_output@@QAE@XZ 100580f0 f i libucrtd:output.obj
 0001:00057110       ??1?$output_processor@_WV?$stream_output_adapter@_W@__crt_stdio_output@@V?$standard_base@_WV?$stream_output_adapter@_W@__crt_stdio_output@@@2@@__crt_stdio_output@@QAE@XZ 10058110 f i libucrtd:output.obj
 0001:00057130       ??1?$output_processor@_WV?$string_output_adapter@_W@__crt_stdio_output@@V?$format_validation_base@_WV?$string_output_adapter@_W@__crt_stdio_output@@@2@@__crt_stdio_output@@QAE@XZ 10058130 f i libucrtd:output.obj
 0001:00057150       ??1?$output_processor@_WV?$string_output_adapter@_W@__crt_stdio_output@@V?$positional_parameter_base@_WV?$string_output_adapter@_W@__crt_stdio_output@@@2@@__crt_stdio_output@@QAE@XZ 10058150 f i libucrtd:output.obj
 0001:00057170       ??1?$output_processor@_WV?$string_output_adapter@_W@__crt_stdio_output@@V?$standard_base@_WV?$string_output_adapter@_W@__crt_stdio_output@@@2@@__crt_stdio_output@@QAE@XZ 10058170 f i libucrtd:output.obj
 0001:00057190       ??1?$positional_parameter_base@DV?$stream_output_adapter@D@__crt_stdio_output@@@__crt_stdio_output@@QAE@XZ 10058190 f i libucrtd:output.obj
 0001:000571b0       ??1?$positional_parameter_base@DV?$string_output_adapter@D@__crt_stdio_output@@@__crt_stdio_output@@QAE@XZ 100581b0 f i libucrtd:output.obj
 0001:000571d0       ??1?$positional_parameter_base@_WV?$stream_output_adapter@_W@__crt_stdio_output@@@__crt_stdio_output@@QAE@XZ 100581d0 f i libucrtd:output.obj
 0001:000571f0       ??1?$positional_parameter_base@_WV?$string_output_adapter@_W@__crt_stdio_output@@@__crt_stdio_output@@QAE@XZ 100581f0 f i libucrtd:output.obj
 0001:00057210       ??1?$standard_base@DV?$stream_output_adapter@D@__crt_stdio_output@@@__crt_stdio_output@@QAE@XZ 10058210 f i libucrtd:output.obj
 0001:00057230       ??1?$standard_base@DV?$string_output_adapter@D@__crt_stdio_output@@@__crt_stdio_output@@QAE@XZ 10058230 f i libucrtd:output.obj
 0001:00057250       ??1?$standard_base@_WV?$stream_output_adapter@_W@__crt_stdio_output@@@__crt_stdio_output@@QAE@XZ 10058250 f i libucrtd:output.obj
 0001:00057270       ??1?$standard_base@_WV?$string_output_adapter@_W@__crt_stdio_output@@@__crt_stdio_output@@QAE@XZ 10058270 f i libucrtd:output.obj
 0001:00057290       ??1__acrt_stdio_temporary_buffering_guard@@QAE@XZ 10058290 f i libucrtd:output.obj
 0001:000572c0       ??1__crt_cached_ptd_host@@QAE@XZ 100582c0 f i libucrtd:output.obj
 0001:00057350       ??1__crt_scoped_get_last_error_reset@@QAE@XZ 10058350 f i libucrtd:output.obj
 0001:00057370       ??1formatting_buffer@__crt_stdio_output@@QAE@XZ 10058370 f i libucrtd:output.obj
 0001:00057390       ??1guard@?$cached@H@__crt_cached_ptd_host@@QAE@XZ 10058390 f i libucrtd:output.obj
 0001:000573c0       ??4?$__crt_unique_heap_ptr@DU__crt_internal_free_policy@@@@QAEAAV0@$$QAV0@@Z 100583c0 f i libucrtd:output.obj
 0001:000573f0       ??A?$spectre_mitigated_lookup_table@Ustate_transition_pair@__crt_stdio_output@@$0IA@@__crt_stdio_output@@QBEABUstate_transition_pair@1@I@Z 100583f0 f i libucrtd:output.obj
 0001:00057410       ??C__crt_stdio_stream@@QBEPAU__crt_stdio_stream_data@@XZ 10058410 f i libucrtd:output.obj
 0001:00057c70       ?adjust_hexit@?$output_processor@DV?$stream_output_adapter@D@__crt_stdio_output@@V?$format_validation_base@DV?$stream_output_adapter@D@__crt_stdio_output@@@2@@__crt_stdio_output@@CADH_N@Z 10058c70 f i libucrtd:output.obj
 0001:00057cb0       ?adjust_hexit@?$output_processor@DV?$stream_output_adapter@D@__crt_stdio_output@@V?$positional_parameter_base@DV?$stream_output_adapter@D@__crt_stdio_output@@@2@@__crt_stdio_output@@CADH_N@Z 10058cb0 f i libucrtd:output.obj
 0001:00057cf0       ?adjust_hexit@?$output_processor@DV?$stream_output_adapter@D@__crt_stdio_output@@V?$standard_base@DV?$stream_output_adapter@D@__crt_stdio_output@@@2@@__crt_stdio_output@@CADH_N@Z 10058cf0 f i libucrtd:output.obj
 0001:00057d30       ?adjust_hexit@?$output_processor@DV?$string_output_adapter@D@__crt_stdio_output@@V?$format_validation_base@DV?$string_output_adapter@D@__crt_stdio_output@@@2@@__crt_stdio_output@@CADH_N@Z 10058d30 f i libucrtd:output.obj
 0001:00057d70       ?adjust_hexit@?$output_processor@DV?$string_output_adapter@D@__crt_stdio_output@@V?$positional_parameter_base@DV?$string_output_adapter@D@__crt_stdio_output@@@2@@__crt_stdio_output@@CADH_N@Z 10058d70 f i libucrtd:output.obj
 0001:00057db0       ?adjust_hexit@?$output_processor@DV?$string_output_adapter@D@__crt_stdio_output@@V?$standard_base@DV?$string_output_adapter@D@__crt_stdio_output@@@2@@__crt_stdio_output@@CADH_N@Z 10058db0 f i libucrtd:output.obj
 0001:00057df0       ?adjust_hexit@?$output_processor@_WV?$stream_output_adapter@_W@__crt_stdio_output@@V?$format_validation_base@_WV?$stream_output_adapter@_W@__crt_stdio_output@@@2@@__crt_stdio_output@@CADH_N@Z 10058df0 f i libucrtd:output.obj
 0001:00057e30       ?adjust_hexit@?$output_processor@_WV?$stream_output_adapter@_W@__crt_stdio_output@@V?$positional_parameter_base@_WV?$stream_output_adapter@_W@__crt_stdio_output@@@2@@__crt_stdio_output@@CADH_N@Z 10058e30 f i libucrtd:output.obj
 0001:00057e70       ?adjust_hexit@?$output_processor@_WV?$stream_output_adapter@_W@__crt_stdio_output@@V?$standard_base@_WV?$stream_output_adapter@_W@__crt_stdio_output@@@2@@__crt_stdio_output@@CADH_N@Z 10058e70 f i libucrtd:output.obj
 0001:00057eb0       ?adjust_hexit@?$output_processor@_WV?$string_output_adapter@_W@__crt_stdio_output@@V?$format_validation_base@_WV?$string_output_adapter@_W@__crt_stdio_output@@@2@@__crt_stdio_output@@CADH_N@Z 10058eb0 f i libucrtd:output.obj
 0001:00057ef0       ?adjust_hexit@?$output_processor@_WV?$string_output_adapter@_W@__crt_stdio_output@@V?$positional_parameter_base@_WV?$string_output_adapter@_W@__crt_stdio_output@@@2@@__crt_stdio_output@@CADH_N@Z 10058ef0 f i libucrtd:output.obj
 0001:00057f30       ?adjust_hexit@?$output_processor@_WV?$string_output_adapter@_W@__crt_stdio_output@@V?$standard_base@_WV?$string_output_adapter@_W@__crt_stdio_output@@@2@@__crt_stdio_output@@CADH_N@Z 10058f30 f i libucrtd:output.obj
 0001:00057f70       ?advance_to_next_pass@?$positional_parameter_base@DV?$stream_output_adapter@D@__crt_stdio_output@@@__crt_stdio_output@@IAE_NXZ 10058f70 f i libucrtd:output.obj
 0001:00058010       ?advance_to_next_pass@?$positional_parameter_base@DV?$string_output_adapter@D@__crt_stdio_output@@@__crt_stdio_output@@IAE_NXZ 10059010 f i libucrtd:output.obj
 0001:000580b0       ?advance_to_next_pass@?$positional_parameter_base@_WV?$stream_output_adapter@_W@__crt_stdio_output@@@__crt_stdio_output@@IAE_NXZ 100590b0 f i libucrtd:output.obj
 0001:00058150       ?advance_to_next_pass@?$positional_parameter_base@_WV?$string_output_adapter@_W@__crt_stdio_output@@@__crt_stdio_output@@IAE_NXZ 10059150 f i libucrtd:output.obj
 0001:000581f0       ?advance_to_next_pass@?$standard_base@DV?$stream_output_adapter@D@__crt_stdio_output@@@__crt_stdio_output@@IAE_NXZ 100591f0 f i libucrtd:output.obj
 0001:00058240       ?advance_to_next_pass@?$standard_base@DV?$string_output_adapter@D@__crt_stdio_output@@@__crt_stdio_output@@IAE_NXZ 10059240 f i libucrtd:output.obj
 0001:00058290       ?advance_to_next_pass@?$standard_base@_WV?$stream_output_adapter@_W@__crt_stdio_output@@@__crt_stdio_output@@IAE_NXZ 10059290 f i libucrtd:output.obj
 0001:000582e0       ?advance_to_next_pass@?$standard_base@_WV?$string_output_adapter@_W@__crt_stdio_output@@@__crt_stdio_output@@IAE_NXZ 100592e0 f i libucrtd:output.obj
 0001:00058330       ?check@?$cached@H@__crt_cached_ptd_host@@QBE_NH@Z 10059330 f i libucrtd:output.obj
 0001:00058370       ?check_synchronize_global_state_index@__crt_cached_ptd_host@@AAEIABV__crt_scoped_get_last_error_reset@@@Z 10059370 f i libucrtd:output.obj
 0001:000583a0       ?check_synchronize_per_thread_data@__crt_cached_ptd_host@@AAEPAU__acrt_ptd@@XZ 100593a0 f i libucrtd:output.obj
 0001:000583d0       ?create_guard@?$cached@H@__crt_cached_ptd_host@@QAE?AVguard@12@XZ 100593d0 f i libucrtd:output.obj
 0001:000583f0       ?crop_zeroes@__crt_stdio_output@@YAXPADQAU__crt_locale_pointers@@@Z 100593f0 f i libucrtd:output.obj
 0001:000584f0       ?disable@guard@?$cached@H@__crt_cached_ptd_host@@QAEXXZ 100594f0 f i libucrtd:output.obj
 0001:00058510       ?enable@guard@?$cached@H@__crt_cached_ptd_host@@QAEXXZ 10059510 f i libucrtd:output.obj
 0001:00058530       ?find_next_state@?$output_processor@DV?$stream_output_adapter@D@__crt_stdio_output@@V?$format_validation_base@DV?$stream_output_adapter@D@__crt_stdio_output@@@2@@__crt_stdio_output@@ABE?AW4state@2@DW432@@Z 10059530 f i libucrtd:output.obj
 0001:000585d0       ?find_next_state@?$output_processor@DV?$stream_output_adapter@D@__crt_stdio_output@@V?$positional_parameter_base@DV?$stream_output_adapter@D@__crt_stdio_output@@@2@@__crt_stdio_output@@ABE?AW4state@2@DW432@@Z 100595d0 f i libucrtd:output.obj
 0001:00058670       ?find_next_state@?$output_processor@DV?$stream_output_adapter@D@__crt_stdio_output@@V?$standard_base@DV?$stream_output_adapter@D@__crt_stdio_output@@@2@@__crt_stdio_output@@ABE?AW4state@2@DW432@@Z 10059670 f i libucrtd:output.obj
 0001:00058710       ?find_next_state@?$output_processor@DV?$string_output_adapter@D@__crt_stdio_output@@V?$format_validation_base@DV?$string_output_adapter@D@__crt_stdio_output@@@2@@__crt_stdio_output@@ABE?AW4state@2@DW432@@Z 10059710 f i libucrtd:output.obj
 0001:000587b0       ?find_next_state@?$output_processor@DV?$string_output_adapter@D@__crt_stdio_output@@V?$positional_parameter_base@DV?$string_output_adapter@D@__crt_stdio_output@@@2@@__crt_stdio_output@@ABE?AW4state@2@DW432@@Z 100597b0 f i libucrtd:output.obj
 0001:00058850       ?find_next_state@?$output_processor@DV?$string_output_adapter@D@__crt_stdio_output@@V?$standard_base@DV?$string_output_adapter@D@__crt_stdio_output@@@2@@__crt_stdio_output@@ABE?AW4state@2@DW432@@Z 10059850 f i libucrtd:output.obj
 0001:000588f0       ?find_next_state@?$output_processor@_WV?$stream_output_adapter@_W@__crt_stdio_output@@V?$format_validation_base@_WV?$stream_output_adapter@_W@__crt_stdio_output@@@2@@__crt_stdio_output@@ABE?AW4state@2@_WW432@@Z 100598f0 f i libucrtd:output.obj
 0001:00058990       ?find_next_state@?$output_processor@_WV?$stream_output_adapter@_W@__crt_stdio_output@@V?$positional_parameter_base@_WV?$stream_output_adapter@_W@__crt_stdio_output@@@2@@__crt_stdio_output@@ABE?AW4state@2@_WW432@@Z 10059990 f i libucrtd:output.obj
 0001:00058a30       ?find_next_state@?$output_processor@_WV?$stream_output_adapter@_W@__crt_stdio_output@@V?$standard_base@_WV?$stream_output_adapter@_W@__crt_stdio_output@@@2@@__crt_stdio_output@@ABE?AW4state@2@_WW432@@Z 10059a30 f i libucrtd:output.obj
 0001:00058ad0       ?find_next_state@?$output_processor@_WV?$string_output_adapter@_W@__crt_stdio_output@@V?$format_validation_base@_WV?$string_output_adapter@_W@__crt_stdio_output@@@2@@__crt_stdio_output@@ABE?AW4state@2@_WW432@@Z 10059ad0 f i libucrtd:output.obj
 0001:00058b70       ?find_next_state@?$output_processor@_WV?$string_output_adapter@_W@__crt_stdio_output@@V?$positional_parameter_base@_WV?$string_output_adapter@_W@__crt_stdio_output@@@2@@__crt_stdio_output@@ABE?AW4state@2@_WW432@@Z 10059b70 f i libucrtd:output.obj
 0001:00058c10       ?find_next_state@?$output_processor@_WV?$string_output_adapter@_W@__crt_stdio_output@@V?$standard_base@_WV?$string_output_adapter@_W@__crt_stdio_output@@@2@@__crt_stdio_output@@ABE?AW4state@2@_WW432@@Z 10059c10 f i libucrtd:output.obj
 0001:00058cb0       ?force_decimal_point@__crt_stdio_output@@YAXPADQAU__crt_locale_pointers@@@Z 10059cb0 f i libucrtd:output.obj
 0001:00058d80       ?force_synchronize_global_state_index@__crt_cached_ptd_host@@AAEIABV__crt_scoped_get_last_error_reset@@@Z 10059d80 f i libucrtd:output.obj
 0001:00058db0       ?force_synchronize_per_thread_data@__crt_cached_ptd_host@@AAEPAU__acrt_ptd@@XZ 10059db0 f i libucrtd:output.obj
 0001:00058e00       ?get@?$c_string_character_source@D@__crt_strtox@@QAEDXZ 10059e00 f i libucrtd:output.obj
 0001:00058e30       ?get@?$c_string_character_source@_W@__crt_strtox@@QAE_WXZ 10059e30 f i libucrtd:output.obj
 0001:00058e60       ?get_current_state_index@__crt_state_management@@YAIABV__crt_scoped_get_last_error_reset@@@Z 10059e60 f i libucrtd:output.obj
 0001:00058e70       ?get_errno@__crt_cached_ptd_host@@QAEAAU?$cached@H@1@XZ 10059e70 f i libucrtd:output.obj
 0001:00058e90       ?get_flags@__crt_stdio_stream@@QBEJXZ 10059e90 f i libucrtd:output.obj
 0001:00058eb0       ?get_locale@__crt_cached_ptd_host@@QAEPAU__crt_locale_pointers@@XZ 10059eb0 f i libucrtd:output.obj
 0001:00058ed0       ?get_parameter_type@?$positional_parameter_base@DV?$stream_output_adapter@D@__crt_stdio_output@@@__crt_stdio_output@@CA?AW4parameter_type@12@F@Z 10059ed0 f i libucrtd:output.obj
 0001:00058ee0       ?get_parameter_type@?$positional_parameter_base@DV?$stream_output_adapter@D@__crt_stdio_output@@@__crt_stdio_output@@CA?AW4parameter_type@12@G@Z 10059ee0 f i libucrtd:output.obj
 0001:00058ef0       ?get_parameter_type@?$positional_parameter_base@DV?$stream_output_adapter@D@__crt_stdio_output@@@__crt_stdio_output@@CA?AW4parameter_type@12@H@Z 10059ef0 f i libucrtd:output.obj
 0001:00058f00       ?get_parameter_type@?$positional_parameter_base@DV?$stream_output_adapter@D@__crt_stdio_output@@@__crt_stdio_output@@CA?AW4parameter_type@12@I@Z 10059f00 f i libucrtd:output.obj
 0001:00058f10       ?get_parameter_type@?$positional_parameter_base@DV?$stream_output_adapter@D@__crt_stdio_output@@@__crt_stdio_output@@CA?AW4parameter_type@12@U_CRT_DOUBLE@@@Z 10059f10 f i libucrtd:output.obj
 0001:00058f20       ?get_parameter_type@?$positional_parameter_base@DV?$stream_output_adapter@D@__crt_stdio_output@@@__crt_stdio_output@@CA?AW4parameter_type@12@_J@Z 10059f20 f i libucrtd:output.obj
 0001:00058f30       ?get_parameter_type@?$positional_parameter_base@DV?$stream_output_adapter@D@__crt_stdio_output@@@__crt_stdio_output@@CA?AW4parameter_type@12@_K@Z 10059f30 f i libucrtd:output.obj
 0001:00058f40       ?get_parameter_type@?$positional_parameter_base@DV?$stream_output_adapter@D@__crt_stdio_output@@@__crt_stdio_output@@CA?AW4parameter_type@12@_W@Z 10059f40 f i libucrtd:output.obj
 0001:00058f50       ?get_parameter_type@?$positional_parameter_base@DV?$string_output_adapter@D@__crt_stdio_output@@@__crt_stdio_output@@CA?AW4parameter_type@12@F@Z 10059f50 f i libucrtd:output.obj
 0001:00058f60       ?get_parameter_type@?$positional_parameter_base@DV?$string_output_adapter@D@__crt_stdio_output@@@__crt_stdio_output@@CA?AW4parameter_type@12@G@Z 10059f60 f i libucrtd:output.obj
 0001:00058f70       ?get_parameter_type@?$positional_parameter_base@DV?$string_output_adapter@D@__crt_stdio_output@@@__crt_stdio_output@@CA?AW4parameter_type@12@H@Z 10059f70 f i libucrtd:output.obj
 0001:00058f80       ?get_parameter_type@?$positional_parameter_base@DV?$string_output_adapter@D@__crt_stdio_output@@@__crt_stdio_output@@CA?AW4parameter_type@12@I@Z 10059f80 f i libucrtd:output.obj
 0001:00058f90       ?get_parameter_type@?$positional_parameter_base@DV?$string_output_adapter@D@__crt_stdio_output@@@__crt_stdio_output@@CA?AW4parameter_type@12@U_CRT_DOUBLE@@@Z 10059f90 f i libucrtd:output.obj
 0001:00058fa0       ?get_parameter_type@?$positional_parameter_base@DV?$string_output_adapter@D@__crt_stdio_output@@@__crt_stdio_output@@CA?AW4parameter_type@12@_J@Z 10059fa0 f i libucrtd:output.obj
 0001:00058fb0       ?get_parameter_type@?$positional_parameter_base@DV?$string_output_adapter@D@__crt_stdio_output@@@__crt_stdio_output@@CA?AW4parameter_type@12@_K@Z 10059fb0 f i libucrtd:output.obj
 0001:00058fc0       ?get_parameter_type@?$positional_parameter_base@DV?$string_output_adapter@D@__crt_stdio_output@@@__crt_stdio_output@@CA?AW4parameter_type@12@_W@Z 10059fc0 f i libucrtd:output.obj
 0001:00058fd0       ?get_parameter_type@?$positional_parameter_base@_WV?$stream_output_adapter@_W@__crt_stdio_output@@@__crt_stdio_output@@CA?AW4parameter_type@12@F@Z 10059fd0 f i libucrtd:output.obj
 0001:00058fe0       ?get_parameter_type@?$positional_parameter_base@_WV?$stream_output_adapter@_W@__crt_stdio_output@@@__crt_stdio_output@@CA?AW4parameter_type@12@G@Z 10059fe0 f i libucrtd:output.obj
 0001:00058ff0       ?get_parameter_type@?$positional_parameter_base@_WV?$stream_output_adapter@_W@__crt_stdio_output@@@__crt_stdio_output@@CA?AW4parameter_type@12@H@Z 10059ff0 f i libucrtd:output.obj
 0001:00059000       ?get_parameter_type@?$positional_parameter_base@_WV?$stream_output_adapter@_W@__crt_stdio_output@@@__crt_stdio_output@@CA?AW4parameter_type@12@I@Z 1005a000 f i libucrtd:output.obj
 0001:00059010       ?get_parameter_type@?$positional_parameter_base@_WV?$stream_output_adapter@_W@__crt_stdio_output@@@__crt_stdio_output@@CA?AW4parameter_type@12@U_CRT_DOUBLE@@@Z 1005a010 f i libucrtd:output.obj
 0001:00059020       ?get_parameter_type@?$positional_parameter_base@_WV?$stream_output_adapter@_W@__crt_stdio_output@@@__crt_stdio_output@@CA?AW4parameter_type@12@_J@Z 1005a020 f i libucrtd:output.obj
 0001:00059030       ?get_parameter_type@?$positional_parameter_base@_WV?$stream_output_adapter@_W@__crt_stdio_output@@@__crt_stdio_output@@CA?AW4parameter_type@12@_K@Z 1005a030 f i libucrtd:output.obj
 0001:00059040       ?get_parameter_type@?$positional_parameter_base@_WV?$stream_output_adapter@_W@__crt_stdio_output@@@__crt_stdio_output@@CA?AW4parameter_type@12@_W@Z 1005a040 f i libucrtd:output.obj
 0001:00059050       ?get_parameter_type@?$positional_parameter_base@_WV?$string_output_adapter@_W@__crt_stdio_output@@@__crt_stdio_output@@CA?AW4parameter_type@12@F@Z 1005a050 f i libucrtd:output.obj
 0001:00059060       ?get_parameter_type@?$positional_parameter_base@_WV?$string_output_adapter@_W@__crt_stdio_output@@@__crt_stdio_output@@CA?AW4parameter_type@12@G@Z 1005a060 f i libucrtd:output.obj
 0001:00059070       ?get_parameter_type@?$positional_parameter_base@_WV?$string_output_adapter@_W@__crt_stdio_output@@@__crt_stdio_output@@CA?AW4parameter_type@12@H@Z 1005a070 f i libucrtd:output.obj
 0001:00059080       ?get_parameter_type@?$positional_parameter_base@_WV?$string_output_adapter@_W@__crt_stdio_output@@@__crt_stdio_output@@CA?AW4parameter_type@12@I@Z 1005a080 f i libucrtd:output.obj
 0001:00059090       ?get_parameter_type@?$positional_parameter_base@_WV?$string_output_adapter@_W@__crt_stdio_output@@@__crt_stdio_output@@CA?AW4parameter_type@12@U_CRT_DOUBLE@@@Z 1005a090 f i libucrtd:output.obj
 0001:000590a0       ?get_parameter_type@?$positional_parameter_base@_WV?$string_output_adapter@_W@__crt_stdio_output@@@__crt_stdio_output@@CA?AW4parameter_type@12@_J@Z 1005a0a0 f i libucrtd:output.obj
 0001:000590b0       ?get_parameter_type@?$positional_parameter_base@_WV?$string_output_adapter@_W@__crt_stdio_output@@@__crt_stdio_output@@CA?AW4parameter_type@12@_K@Z 1005a0b0 f i libucrtd:output.obj
 0001:000590c0       ?get_parameter_type@?$positional_parameter_base@_WV?$string_output_adapter@_W@__crt_stdio_output@@@__crt_stdio_output@@CA?AW4parameter_type@12@_W@Z 1005a0c0 f i libucrtd:output.obj
 0001:000590d0       ?get_raw_ptd@__crt_cached_ptd_host@@QAEPAU__acrt_ptd@@XZ 1005a0d0 f i libucrtd:output.obj
 0001:000590f0       ?has_flag@?$output_processor@DV?$stream_output_adapter@D@__crt_stdio_output@@V?$format_validation_base@DV?$stream_output_adapter@D@__crt_stdio_output@@@2@@__crt_stdio_output@@ABE_NI@Z 1005a0f0 f i libucrtd:output.obj
 0001:00059120       ?has_flag@?$output_processor@DV?$stream_output_adapter@D@__crt_stdio_output@@V?$positional_parameter_base@DV?$stream_output_adapter@D@__crt_stdio_output@@@2@@__crt_stdio_output@@ABE_NI@Z 1005a120 f i libucrtd:output.obj
 0001:00059150       ?has_flag@?$output_processor@DV?$stream_output_adapter@D@__crt_stdio_output@@V?$standard_base@DV?$stream_output_adapter@D@__crt_stdio_output@@@2@@__crt_stdio_output@@ABE_NI@Z 1005a150 f i libucrtd:output.obj
 0001:00059180       ?has_flag@?$output_processor@DV?$string_output_adapter@D@__crt_stdio_output@@V?$format_validation_base@DV?$string_output_adapter@D@__crt_stdio_output@@@2@@__crt_stdio_output@@ABE_NI@Z 1005a180 f i libucrtd:output.obj
 0001:000591b0       ?has_flag@?$output_processor@DV?$string_output_adapter@D@__crt_stdio_output@@V?$positional_parameter_base@DV?$string_output_adapter@D@__crt_stdio_output@@@2@@__crt_stdio_output@@ABE_NI@Z 1005a1b0 f i libucrtd:output.obj
 0001:000591e0       ?has_flag@?$output_processor@DV?$string_output_adapter@D@__crt_stdio_output@@V?$standard_base@DV?$string_output_adapter@D@__crt_stdio_output@@@2@@__crt_stdio_output@@ABE_NI@Z 1005a1e0 f i libucrtd:output.obj
 0001:00059210       ?has_flag@?$output_processor@_WV?$stream_output_adapter@_W@__crt_stdio_output@@V?$format_validation_base@_WV?$stream_output_adapter@_W@__crt_stdio_output@@@2@@__crt_stdio_output@@ABE_NI@Z 1005a210 f i libucrtd:output.obj
 0001:00059240       ?has_flag@?$output_processor@_WV?$stream_output_adapter@_W@__crt_stdio_output@@V?$positional_parameter_base@_WV?$stream_output_adapter@_W@__crt_stdio_output@@@2@@__crt_stdio_output@@ABE_NI@Z 1005a240 f i libucrtd:output.obj
 0001:00059270       ?has_flag@?$output_processor@_WV?$stream_output_adapter@_W@__crt_stdio_output@@V?$standard_base@_WV?$stream_output_adapter@_W@__crt_stdio_output@@@2@@__crt_stdio_output@@ABE_NI@Z 1005a270 f i libucrtd:output.obj
 0001:000592a0       ?has_flag@?$output_processor@_WV?$string_output_adapter@_W@__crt_stdio_output@@V?$format_validation_base@_WV?$string_output_adapter@_W@__crt_stdio_output@@@2@@__crt_stdio_output@@ABE_NI@Z 1005a2a0 f i libucrtd:output.obj
 0001:000592d0       ?has_flag@?$output_processor@_WV?$string_output_adapter@_W@__crt_stdio_output@@V?$positional_parameter_base@_WV?$string_output_adapter@_W@__crt_stdio_output@@@2@@__crt_stdio_output@@ABE_NI@Z 1005a2d0 f i libucrtd:output.obj
 0001:00059300       ?has_flag@?$output_processor@_WV?$string_output_adapter@_W@__crt_stdio_output@@V?$standard_base@_WV?$string_output_adapter@_W@__crt_stdio_output@@@2@@__crt_stdio_output@@ABE_NI@Z 1005a300 f i libucrtd:output.obj
 0001:00059330       ?is_positional_parameter_reappearance_consistent@?$positional_parameter_base@DV?$stream_output_adapter@D@__crt_stdio_output@@@__crt_stdio_output@@AAE_NABUparameter_data@12@W4parameter_type@12@DW4length_modifier@2@@Z 1005a330 f i libucrtd:output.obj
 0001:00059560       ?is_positional_parameter_reappearance_consistent@?$positional_parameter_base@DV?$string_output_adapter@D@__crt_stdio_output@@@__crt_stdio_output@@AAE_NABUparameter_data@12@W4parameter_type@12@DW4length_modifier@2@@Z 1005a560 f i libucrtd:output.obj
 0001:00059790       ?is_positional_parameter_reappearance_consistent@?$positional_parameter_base@_WV?$stream_output_adapter@_W@__crt_stdio_output@@@__crt_stdio_output@@AAE_NABUparameter_data@12@W4parameter_type@12@_WW4length_modifier@2@@Z 1005a790 f i libucrtd:output.obj
 0001:000599c0       ?is_positional_parameter_reappearance_consistent@?$positional_parameter_base@_WV?$string_output_adapter@_W@__crt_stdio_output@@@__crt_stdio_output@@AAE_NABUparameter_data@12@W4parameter_type@12@_WW4length_modifier@2@@Z 1005a9c0 f i libucrtd:output.obj
 0001:00059bf0       ?is_string_backed@__crt_stdio_stream@@QBE_NXZ 1005abf0 f i libucrtd:output.obj
 0001:00059c30       ?maximum_signed_value@__crt_strtox@@YAJK@Z 1005ac30 f i libucrtd:output.obj
 0001:00059c40       ?minimum_signed_value@__crt_strtox@@YAJK@Z 1005ac40 f i libucrtd:output.obj
 0001:00059c50       ?narrow_null_string@?$output_processor@DV?$stream_output_adapter@D@__crt_stdio_output@@V?$format_validation_base@DV?$stream_output_adapter@D@__crt_stdio_output@@@2@@__crt_stdio_output@@CAPADXZ 1005ac50 f i libucrtd:output.obj
 0001:00059c60       ?narrow_null_string@?$output_processor@DV?$stream_output_adapter@D@__crt_stdio_output@@V?$positional_parameter_base@DV?$stream_output_adapter@D@__crt_stdio_output@@@2@@__crt_stdio_output@@CAPADXZ 1005ac60 f i libucrtd:output.obj
 0001:00059c70       ?narrow_null_string@?$output_processor@DV?$stream_output_adapter@D@__crt_stdio_output@@V?$standard_base@DV?$stream_output_adapter@D@__crt_stdio_output@@@2@@__crt_stdio_output@@CAPADXZ 1005ac70 f i libucrtd:output.obj
 0001:00059c80       ?narrow_null_string@?$output_processor@DV?$string_output_adapter@D@__crt_stdio_output@@V?$format_validation_base@DV?$string_output_adapter@D@__crt_stdio_output@@@2@@__crt_stdio_output@@CAPADXZ 1005ac80 f i libucrtd:output.obj
 0001:00059c90       ?narrow_null_string@?$output_processor@DV?$string_output_adapter@D@__crt_stdio_output@@V?$positional_parameter_base@DV?$string_output_adapter@D@__crt_stdio_output@@@2@@__crt_stdio_output@@CAPADXZ 1005ac90 f i libucrtd:output.obj
 0001:00059ca0       ?narrow_null_string@?$output_processor@DV?$string_output_adapter@D@__crt_stdio_output@@V?$standard_base@DV?$string_output_adapter@D@__crt_stdio_output@@@2@@__crt_stdio_output@@CAPADXZ 1005aca0 f i libucrtd:output.obj
 0001:00059cb0       ?narrow_null_string@?$output_processor@_WV?$stream_output_adapter@_W@__crt_stdio_output@@V?$format_validation_base@_WV?$stream_output_adapter@_W@__crt_stdio_output@@@2@@__crt_stdio_output@@CAPADXZ 1005acb0 f i libucrtd:output.obj
 0001:00059cc0       ?narrow_null_string@?$output_processor@_WV?$stream_output_adapter@_W@__crt_stdio_output@@V?$positional_parameter_base@_WV?$stream_output_adapter@_W@__crt_stdio_output@@@2@@__crt_stdio_output@@CAPADXZ 1005acc0 f i libucrtd:output.obj
 0001:00059cd0       ?narrow_null_string@?$output_processor@_WV?$stream_output_adapter@_W@__crt_stdio_output@@V?$standard_base@_WV?$stream_output_adapter@_W@__crt_stdio_output@@@2@@__crt_stdio_output@@CAPADXZ 1005acd0 f i libucrtd:output.obj
 0001:00059ce0       ?narrow_null_string@?$output_processor@_WV?$string_output_adapter@_W@__crt_stdio_output@@V?$format_validation_base@_WV?$string_output_adapter@_W@__crt_stdio_output@@@2@@__crt_stdio_output@@CAPADXZ 1005ace0 f i libucrtd:output.obj
 0001:00059cf0       ?narrow_null_string@?$output_processor@_WV?$string_output_adapter@_W@__crt_stdio_output@@V?$positional_parameter_base@_WV?$string_output_adapter@_W@__crt_stdio_output@@@2@@__crt_stdio_output@@CAPADXZ 1005acf0 f i libucrtd:output.obj
 0001:00059d00       ?narrow_null_string@?$output_processor@_WV?$string_output_adapter@_W@__crt_stdio_output@@V?$standard_base@_WV?$string_output_adapter@_W@__crt_stdio_output@@@2@@__crt_stdio_output@@CAPADXZ 1005ad00 f i libucrtd:output.obj
 0001:00059d10       ?parse_digit@__crt_strtox@@YAID@Z 1005ad10 f i libucrtd:output.obj
 0001:00059d70       ?parse_digit@__crt_strtox@@YAI_W@Z 1005ad70 f i libucrtd:output.obj
 0001:00059dc0       ?parse_int_from_format_string@?$output_processor@DV?$stream_output_adapter@D@__crt_stdio_output@@V?$format_validation_base@DV?$stream_output_adapter@D@__crt_stdio_output@@@2@@__crt_stdio_output@@AAE_NQAH@Z 1005adc0 f i libucrtd:output.obj
 0001:00059e80       ?parse_int_from_format_string@?$output_processor@DV?$stream_output_adapter@D@__crt_stdio_output@@V?$positional_parameter_base@DV?$stream_output_adapter@D@__crt_stdio_output@@@2@@__crt_stdio_output@@AAE_NQAH@Z 1005ae80 f i libucrtd:output.obj
 0001:00059f40       ?parse_int_from_format_string@?$output_processor@DV?$stream_output_adapter@D@__crt_stdio_output@@V?$standard_base@DV?$stream_output_adapter@D@__crt_stdio_output@@@2@@__crt_stdio_output@@AAE_NQAH@Z 1005af40 f i libucrtd:output.obj
 0001:0005a000       ?parse_int_from_format_string@?$output_processor@DV?$string_output_adapter@D@__crt_stdio_output@@V?$format_validation_base@DV?$string_output_adapter@D@__crt_stdio_output@@@2@@__crt_stdio_output@@AAE_NQAH@Z 1005b000 f i libucrtd:output.obj
 0001:0005a0c0       ?parse_int_from_format_string@?$output_processor@DV?$string_output_adapter@D@__crt_stdio_output@@V?$positional_parameter_base@DV?$string_output_adapter@D@__crt_stdio_output@@@2@@__crt_stdio_output@@AAE_NQAH@Z 1005b0c0 f i libucrtd:output.obj
 0001:0005a180       ?parse_int_from_format_string@?$output_processor@DV?$string_output_adapter@D@__crt_stdio_output@@V?$standard_base@DV?$string_output_adapter@D@__crt_stdio_output@@@2@@__crt_stdio_output@@AAE_NQAH@Z 1005b180 f i libucrtd:output.obj
 0001:0005a240       ?parse_int_from_format_string@?$output_processor@_WV?$stream_output_adapter@_W@__crt_stdio_output@@V?$format_validation_base@_WV?$stream_output_adapter@_W@__crt_stdio_output@@@2@@__crt_stdio_output@@AAE_NQAH@Z 1005b240 f i libucrtd:output.obj
 0001:0005a300       ?parse_int_from_format_string@?$output_processor@_WV?$stream_output_adapter@_W@__crt_stdio_output@@V?$positional_parameter_base@_WV?$stream_output_adapter@_W@__crt_stdio_output@@@2@@__crt_stdio_output@@AAE_NQAH@Z 1005b300 f i libucrtd:output.obj
 0001:0005a3c0       ?parse_int_from_format_string@?$output_processor@_WV?$stream_output_adapter@_W@__crt_stdio_output@@V?$standard_base@_WV?$stream_output_adapter@_W@__crt_stdio_output@@@2@@__crt_stdio_output@@AAE_NQAH@Z 1005b3c0 f i libucrtd:output.obj
 0001:0005a480       ?parse_int_from_format_string@?$output_processor@_WV?$string_output_adapter@_W@__crt_stdio_output@@V?$format_validation_base@_WV?$string_output_adapter@_W@__crt_stdio_output@@@2@@__crt_stdio_output@@AAE_NQAH@Z 1005b480 f i libucrtd:output.obj
 0001:0005a540       ?parse_int_from_format_string@?$output_processor@_WV?$string_output_adapter@_W@__crt_stdio_output@@V?$positional_parameter_base@_WV?$string_output_adapter@_W@__crt_stdio_output@@@2@@__crt_stdio_output@@AAE_NQAH@Z 1005b540 f i libucrtd:output.obj
 0001:0005a600       ?parse_int_from_format_string@?$output_processor@_WV?$string_output_adapter@_W@__crt_stdio_output@@V?$standard_base@_WV?$string_output_adapter@_W@__crt_stdio_output@@@2@@__crt_stdio_output@@AAE_NQAH@Z 1005b600 f i libucrtd:output.obj
 0001:0005a6c0       ?process@?$output_processor@DV?$stream_output_adapter@D@__crt_stdio_output@@V?$format_validation_base@DV?$stream_output_adapter@D@__crt_stdio_output@@@2@@__crt_stdio_output@@QAEHXZ 1005b6c0 f i libucrtd:output.obj
 0001:0005a9a0       ?process@?$output_processor@DV?$stream_output_adapter@D@__crt_stdio_output@@V?$positional_parameter_base@DV?$stream_output_adapter@D@__crt_stdio_output@@@2@@__crt_stdio_output@@QAEHXZ 1005b9a0 f i libucrtd:output.obj
 0001:0005ac80       ?process@?$output_processor@DV?$stream_output_adapter@D@__crt_stdio_output@@V?$standard_base@DV?$stream_output_adapter@D@__crt_stdio_output@@@2@@__crt_stdio_output@@QAEHXZ 1005bc80 f i libucrtd:output.obj
 0001:0005af60       ?process@?$output_processor@DV?$string_output_adapter@D@__crt_stdio_output@@V?$format_validation_base@DV?$string_output_adapter@D@__crt_stdio_output@@@2@@__crt_stdio_output@@QAEHXZ 1005bf60 f i libucrtd:output.obj
 0001:0005b240       ?process@?$output_processor@DV?$string_output_adapter@D@__crt_stdio_output@@V?$positional_parameter_base@DV?$string_output_adapter@D@__crt_stdio_output@@@2@@__crt_stdio_output@@QAEHXZ 1005c240 f i libucrtd:output.obj
 0001:0005b520       ?process@?$output_processor@DV?$string_output_adapter@D@__crt_stdio_output@@V?$standard_base@DV?$string_output_adapter@D@__crt_stdio_output@@@2@@__crt_stdio_output@@QAEHXZ 1005c520 f i libucrtd:output.obj
 0001:0005b800       ?process@?$output_processor@_WV?$stream_output_adapter@_W@__crt_stdio_output@@V?$format_validation_base@_WV?$stream_output_adapter@_W@__crt_stdio_output@@@2@@__crt_stdio_output@@QAEHXZ 1005c800 f i libucrtd:output.obj
 0001:0005bae0       ?process@?$output_processor@_WV?$stream_output_adapter@_W@__crt_stdio_output@@V?$positional_parameter_base@_WV?$stream_output_adapter@_W@__crt_stdio_output@@@2@@__crt_stdio_output@@QAEHXZ 1005cae0 f i libucrtd:output.obj
 0001:0005bdc0       ?process@?$output_processor@_WV?$stream_output_adapter@_W@__crt_stdio_output@@V?$standard_base@_WV?$stream_output_adapter@_W@__crt_stdio_output@@@2@@__crt_stdio_output@@QAEHXZ 1005cdc0 f i libucrtd:output.obj
 0001:0005c0a0       ?process@?$output_processor@_WV?$string_output_adapter@_W@__crt_stdio_output@@V?$format_validation_base@_WV?$string_output_adapter@_W@__crt_stdio_output@@@2@@__crt_stdio_output@@QAEHXZ 1005d0a0 f i libucrtd:output.obj
 0001:0005c380       ?process@?$output_processor@_WV?$string_output_adapter@_W@__crt_stdio_output@@V?$positional_parameter_base@_WV?$string_output_adapter@_W@__crt_stdio_output@@@2@@__crt_stdio_output@@QAEHXZ 1005d380 f i libucrtd:output.obj
 0001:0005c660       ?process@?$output_processor@_WV?$string_output_adapter@_W@__crt_stdio_output@@V?$standard_base@_WV?$string_output_adapter@_W@__crt_stdio_output@@@2@@__crt_stdio_output@@QAEHXZ 1005d660 f i libucrtd:output.obj
 0001:0005c940       ?public_stream@__crt_stdio_stream@@QBEPAU_iobuf@@XZ 1005d940 f i libucrtd:output.obj
 0001:0005c960       ?restore_state@?$c_string_character_source@D@__crt_strtox@@QAE_NQBD@Z 1005d960 f i libucrtd:output.obj
 0001:0005c980       ?restore_state@?$c_string_character_source@_W@__crt_strtox@@QAE_NQB_W@Z 1005d980 f i libucrtd:output.obj
 0001:0005c9a0       ?save_state@?$c_string_character_source@D@__crt_strtox@@QBEPBDXZ 1005d9a0 f i libucrtd:output.obj
 0001:0005c9c0       ?save_state@?$c_string_character_source@_W@__crt_strtox@@QBEPB_WXZ 1005d9c0 f i libucrtd:output.obj
 0001:0005c9e0       ?set@?$cached@H@__crt_cached_ptd_host@@QAEHH@Z 1005d9e0 f i libucrtd:output.obj
 0001:0005ca10       ?set_flag@?$output_processor@DV?$stream_output_adapter@D@__crt_stdio_output@@V?$format_validation_base@DV?$stream_output_adapter@D@__crt_stdio_output@@@2@@__crt_stdio_output@@AAEXI@Z 1005da10 f i libucrtd:output.obj
 0001:0005ca30       ?set_flag@?$output_processor@DV?$stream_output_adapter@D@__crt_stdio_output@@V?$positional_parameter_base@DV?$stream_output_adapter@D@__crt_stdio_output@@@2@@__crt_stdio_output@@AAEXI@Z 1005da30 f i libucrtd:output.obj
 0001:0005ca50       ?set_flag@?$output_processor@DV?$stream_output_adapter@D@__crt_stdio_output@@V?$standard_base@DV?$stream_output_adapter@D@__crt_stdio_output@@@2@@__crt_stdio_output@@AAEXI@Z 1005da50 f i libucrtd:output.obj
 0001:0005ca70       ?set_flag@?$output_processor@DV?$string_output_adapter@D@__crt_stdio_output@@V?$format_validation_base@DV?$string_output_adapter@D@__crt_stdio_output@@@2@@__crt_stdio_output@@AAEXI@Z 1005da70 f i libucrtd:output.obj
 0001:0005ca90       ?set_flag@?$output_processor@DV?$string_output_adapter@D@__crt_stdio_output@@V?$positional_parameter_base@DV?$string_output_adapter@D@__crt_stdio_output@@@2@@__crt_stdio_output@@AAEXI@Z 1005da90 f i libucrtd:output.obj
 0001:0005cab0       ?set_flag@?$output_processor@DV?$string_output_adapter@D@__crt_stdio_output@@V?$standard_base@DV?$string_output_adapter@D@__crt_stdio_output@@@2@@__crt_stdio_output@@AAEXI@Z 1005dab0 f i libucrtd:output.obj
 0001:0005cad0       ?set_flag@?$output_processor@_WV?$stream_output_adapter@_W@__crt_stdio_output@@V?$format_validation_base@_WV?$stream_output_adapter@_W@__crt_stdio_output@@@2@@__crt_stdio_output@@AAEXI@Z 1005dad0 f i libucrtd:output.obj
 0001:0005caf0       ?set_flag@?$output_processor@_WV?$stream_output_adapter@_W@__crt_stdio_output@@V?$positional_parameter_base@_WV?$stream_output_adapter@_W@__crt_stdio_output@@@2@@__crt_stdio_output@@AAEXI@Z 1005daf0 f i libucrtd:output.obj
 0001:0005cb10       ?set_flag@?$output_processor@_WV?$stream_output_adapter@_W@__crt_stdio_output@@V?$standard_base@_WV?$stream_output_adapter@_W@__crt_stdio_output@@@2@@__crt_stdio_output@@AAEXI@Z 1005db10 f i libucrtd:output.obj
 0001:0005cb30       ?set_flag@?$output_processor@_WV?$string_output_adapter@_W@__crt_stdio_output@@V?$format_validation_base@_WV?$string_output_adapter@_W@__crt_stdio_output@@@2@@__crt_stdio_output@@AAEXI@Z 1005db30 f i libucrtd:output.obj
 0001:0005cb50       ?set_flag@?$output_processor@_WV?$string_output_adapter@_W@__crt_stdio_output@@V?$positional_parameter_base@_WV?$string_output_adapter@_W@__crt_stdio_output@@@2@@__crt_stdio_output@@AAEXI@Z 1005db50 f i libucrtd:output.obj
 0001:0005cb70       ?set_flag@?$output_processor@_WV?$string_output_adapter@_W@__crt_stdio_output@@V?$standard_base@_WV?$string_output_adapter@_W@__crt_stdio_output@@@2@@__crt_stdio_output@@AAEXI@Z 1005db70 f i libucrtd:output.obj
 0001:0005cb90       ?should_format@?$positional_parameter_base@DV?$stream_output_adapter@D@__crt_stdio_output@@@__crt_stdio_output@@IAE_NXZ 1005db90 f i libucrtd:output.obj
 0001:0005cbd0       ?should_format@?$positional_parameter_base@DV?$string_output_adapter@D@__crt_stdio_output@@@__crt_stdio_output@@IAE_NXZ 1005dbd0 f i libucrtd:output.obj
 0001:0005cc10       ?should_format@?$positional_parameter_base@_WV?$stream_output_adapter@_W@__crt_stdio_output@@@__crt_stdio_output@@IAE_NXZ 1005dc10 f i libucrtd:output.obj
 0001:0005cc50       ?should_format@?$positional_parameter_base@_WV?$string_output_adapter@_W@__crt_stdio_output@@@__crt_stdio_output@@IAE_NXZ 1005dc50 f i libucrtd:output.obj
 0001:0005cc90       ?should_format@?$standard_base@DV?$stream_output_adapter@D@__crt_stdio_output@@@__crt_stdio_output@@IAE_NXZ 1005dc90 f i libucrtd:output.obj
 0001:0005cca0       ?should_format@?$standard_base@DV?$string_output_adapter@D@__crt_stdio_output@@@__crt_stdio_output@@IAE_NXZ 1005dca0 f i libucrtd:output.obj
 0001:0005ccb0       ?should_format@?$standard_base@_WV?$stream_output_adapter@_W@__crt_stdio_output@@@__crt_stdio_output@@IAE_NXZ 1005dcb0 f i libucrtd:output.obj
 0001:0005ccc0       ?should_format@?$standard_base@_WV?$string_output_adapter@_W@__crt_stdio_output@@@__crt_stdio_output@@IAE_NXZ 1005dcc0 f i libucrtd:output.obj
 0001:0005ccd0       ?should_skip_normal_state_processing@?$positional_parameter_base@DV?$stream_output_adapter@D@__crt_stdio_output@@@__crt_stdio_output@@IAE_NXZ 1005dcd0 f i libucrtd:output.obj
 0001:0005cd20       ?should_skip_normal_state_processing@?$positional_parameter_base@DV?$string_output_adapter@D@__crt_stdio_output@@@__crt_stdio_output@@IAE_NXZ 1005dd20 f i libucrtd:output.obj
 0001:0005cd70       ?should_skip_normal_state_processing@?$positional_parameter_base@_WV?$stream_output_adapter@_W@__crt_stdio_output@@@__crt_stdio_output@@IAE_NXZ 1005dd70 f i libucrtd:output.obj
 0001:0005cdc0       ?should_skip_normal_state_processing@?$positional_parameter_base@_WV?$string_output_adapter@_W@__crt_stdio_output@@@__crt_stdio_output@@IAE_NXZ 1005ddc0 f i libucrtd:output.obj
 0001:0005ce10       ?should_skip_normal_state_processing@?$standard_base@DV?$stream_output_adapter@D@__crt_stdio_output@@@__crt_stdio_output@@IAE_NXZ 1005de10 f i libucrtd:output.obj
 0001:0005ce20       ?should_skip_normal_state_processing@?$standard_base@DV?$string_output_adapter@D@__crt_stdio_output@@@__crt_stdio_output@@IAE_NXZ 1005de20 f i libucrtd:output.obj
 0001:0005ce30       ?should_skip_normal_state_processing@?$standard_base@_WV?$stream_output_adapter@_W@__crt_stdio_output@@@__crt_stdio_output@@IAE_NXZ 1005de30 f i libucrtd:output.obj
 0001:0005ce40       ?should_skip_normal_state_processing@?$standard_base@_WV?$string_output_adapter@_W@__crt_stdio_output@@@__crt_stdio_output@@IAE_NXZ 1005de40 f i libucrtd:output.obj
 0001:0005ce50       ?should_skip_type_state_output@?$positional_parameter_base@DV?$stream_output_adapter@D@__crt_stdio_output@@@__crt_stdio_output@@IBE_NXZ 1005de50 f i libucrtd:output.obj
 0001:0005ce90       ?should_skip_type_state_output@?$positional_parameter_base@DV?$string_output_adapter@D@__crt_stdio_output@@@__crt_stdio_output@@IBE_NXZ 1005de90 f i libucrtd:output.obj
 0001:0005ced0       ?should_skip_type_state_output@?$positional_parameter_base@_WV?$stream_output_adapter@_W@__crt_stdio_output@@@__crt_stdio_output@@IBE_NXZ 1005ded0 f i libucrtd:output.obj
 0001:0005cf10       ?should_skip_type_state_output@?$positional_parameter_base@_WV?$string_output_adapter@_W@__crt_stdio_output@@@__crt_stdio_output@@IBE_NXZ 1005df10 f i libucrtd:output.obj
 0001:0005cf50       ?should_skip_type_state_output@?$standard_base@DV?$stream_output_adapter@D@__crt_stdio_output@@@__crt_stdio_output@@IBE_NXZ 1005df50 f i libucrtd:output.obj
 0001:0005cf60       ?should_skip_type_state_output@?$standard_base@DV?$string_output_adapter@D@__crt_stdio_output@@@__crt_stdio_output@@IBE_NXZ 1005df60 f i libucrtd:output.obj
 0001:0005cf70       ?should_skip_type_state_output@?$standard_base@_WV?$stream_output_adapter@_W@__crt_stdio_output@@@__crt_stdio_output@@IBE_NXZ 1005df70 f i libucrtd:output.obj
 0001:0005cf80       ?should_skip_type_state_output@?$standard_base@_WV?$string_output_adapter@_W@__crt_stdio_output@@@__crt_stdio_output@@IBE_NXZ 1005df80 f i libucrtd:output.obj
 0001:0005cf90       ?state_case_dot@?$output_processor@DV?$stream_output_adapter@D@__crt_stdio_output@@V?$format_validation_base@DV?$stream_output_adapter@D@__crt_stdio_output@@@2@@__crt_stdio_output@@AAE_NXZ 1005df90 f i libucrtd:output.obj
 0001:0005cfb0       ?state_case_dot@?$output_processor@DV?$stream_output_adapter@D@__crt_stdio_output@@V?$positional_parameter_base@DV?$stream_output_adapter@D@__crt_stdio_output@@@2@@__crt_stdio_output@@AAE_NXZ 1005dfb0 f i libucrtd:output.obj
 0001:0005cfd0       ?state_case_dot@?$output_processor@DV?$stream_output_adapter@D@__crt_stdio_output@@V?$standard_base@DV?$stream_output_adapter@D@__crt_stdio_output@@@2@@__crt_stdio_output@@AAE_NXZ 1005dfd0 f i libucrtd:output.obj
 0001:0005cff0       ?state_case_dot@?$output_processor@DV?$string_output_adapter@D@__crt_stdio_output@@V?$format_validation_base@DV?$string_output_adapter@D@__crt_stdio_output@@@2@@__crt_stdio_output@@AAE_NXZ 1005dff0 f i libucrtd:output.obj
 0001:0005d010       ?state_case_dot@?$output_processor@DV?$string_output_adapter@D@__crt_stdio_output@@V?$positional_parameter_base@DV?$string_output_adapter@D@__crt_stdio_output@@@2@@__crt_stdio_output@@AAE_NXZ 1005e010 f i libucrtd:output.obj
 0001:0005d030       ?state_case_dot@?$output_processor@DV?$string_output_adapter@D@__crt_stdio_output@@V?$standard_base@DV?$string_output_adapter@D@__crt_stdio_output@@@2@@__crt_stdio_output@@AAE_NXZ 1005e030 f i libucrtd:output.obj
 0001:0005d050       ?state_case_dot@?$output_processor@_WV?$stream_output_adapter@_W@__crt_stdio_output@@V?$format_validation_base@_WV?$stream_output_adapter@_W@__crt_stdio_output@@@2@@__crt_stdio_output@@AAE_NXZ 1005e050 f i libucrtd:output.obj
 0001:0005d070       ?state_case_dot@?$output_processor@_WV?$stream_output_adapter@_W@__crt_stdio_output@@V?$positional_parameter_base@_WV?$stream_output_adapter@_W@__crt_stdio_output@@@2@@__crt_stdio_output@@AAE_NXZ 1005e070 f i libucrtd:output.obj
 0001:0005d090       ?state_case_dot@?$output_processor@_WV?$stream_output_adapter@_W@__crt_stdio_output@@V?$standard_base@_WV?$stream_output_adapter@_W@__crt_stdio_output@@@2@@__crt_stdio_output@@AAE_NXZ 1005e090 f i libucrtd:output.obj
 0001:0005d0b0       ?state_case_dot@?$output_processor@_WV?$string_output_adapter@_W@__crt_stdio_output@@V?$format_validation_base@_WV?$string_output_adapter@_W@__crt_stdio_output@@@2@@__crt_stdio_output@@AAE_NXZ 1005e0b0 f i libucrtd:output.obj
 0001:0005d0d0       ?state_case_dot@?$output_processor@_WV?$string_output_adapter@_W@__crt_stdio_output@@V?$positional_parameter_base@_WV?$string_output_adapter@_W@__crt_stdio_output@@@2@@__crt_stdio_output@@AAE_NXZ 1005e0d0 f i libucrtd:output.obj
 0001:0005d0f0       ?state_case_dot@?$output_processor@_WV?$string_output_adapter@_W@__crt_stdio_output@@V?$standard_base@_WV?$string_output_adapter@_W@__crt_stdio_output@@@2@@__crt_stdio_output@@AAE_NXZ 1005e0f0 f i libucrtd:output.obj
 0001:0005d110       ?state_case_flag@?$output_processor@DV?$stream_output_adapter@D@__crt_stdio_output@@V?$format_validation_base@DV?$stream_output_adapter@D@__crt_stdio_output@@@2@@__crt_stdio_output@@AAE_NXZ 1005e110 f i libucrtd:output.obj
 0001:0005d1c0       ?state_case_flag@?$output_processor@DV?$stream_output_adapter@D@__crt_stdio_output@@V?$positional_parameter_base@DV?$stream_output_adapter@D@__crt_stdio_output@@@2@@__crt_stdio_output@@AAE_NXZ 1005e1c0 f i libucrtd:output.obj
 0001:0005d270       ?state_case_flag@?$output_processor@DV?$stream_output_adapter@D@__crt_stdio_output@@V?$standard_base@DV?$stream_output_adapter@D@__crt_stdio_output@@@2@@__crt_stdio_output@@AAE_NXZ 1005e270 f i libucrtd:output.obj
 0001:0005d320       ?state_case_flag@?$output_processor@DV?$string_output_adapter@D@__crt_stdio_output@@V?$format_validation_base@DV?$string_output_adapter@D@__crt_stdio_output@@@2@@__crt_stdio_output@@AAE_NXZ 1005e320 f i libucrtd:output.obj
 0001:0005d3d0       ?state_case_flag@?$output_processor@DV?$string_output_adapter@D@__crt_stdio_output@@V?$positional_parameter_base@DV?$string_output_adapter@D@__crt_stdio_output@@@2@@__crt_stdio_output@@AAE_NXZ 1005e3d0 f i libucrtd:output.obj
 0001:0005d480       ?state_case_flag@?$output_processor@DV?$string_output_adapter@D@__crt_stdio_output@@V?$standard_base@DV?$string_output_adapter@D@__crt_stdio_output@@@2@@__crt_stdio_output@@AAE_NXZ 1005e480 f i libucrtd:output.obj
 0001:0005d530       ?state_case_flag@?$output_processor@_WV?$stream_output_adapter@_W@__crt_stdio_output@@V?$format_validation_base@_WV?$stream_output_adapter@_W@__crt_stdio_output@@@2@@__crt_stdio_output@@AAE_NXZ 1005e530 f i libucrtd:output.obj
 0001:0005d5e0       ?state_case_flag@?$output_processor@_WV?$stream_output_adapter@_W@__crt_stdio_output@@V?$positional_parameter_base@_WV?$stream_output_adapter@_W@__crt_stdio_output@@@2@@__crt_stdio_output@@AAE_NXZ 1005e5e0 f i libucrtd:output.obj
 0001:0005d690       ?state_case_flag@?$output_processor@_WV?$stream_output_adapter@_W@__crt_stdio_output@@V?$standard_base@_WV?$stream_output_adapter@_W@__crt_stdio_output@@@2@@__crt_stdio_output@@AAE_NXZ 1005e690 f i libucrtd:output.obj
 0001:0005d740       ?state_case_flag@?$output_processor@_WV?$string_output_adapter@_W@__crt_stdio_output@@V?$format_validation_base@_WV?$string_output_adapter@_W@__crt_stdio_output@@@2@@__crt_stdio_output@@AAE_NXZ 1005e740 f i libucrtd:output.obj
 0001:0005d7f0       ?state_case_flag@?$output_processor@_WV?$string_output_adapter@_W@__crt_stdio_output@@V?$positional_parameter_base@_WV?$string_output_adapter@_W@__crt_stdio_output@@@2@@__crt_stdio_output@@AAE_NXZ 1005e7f0 f i libucrtd:output.obj
 0001:0005d8a0       ?state_case_flag@?$output_processor@_WV?$string_output_adapter@_W@__crt_stdio_output@@V?$standard_base@_WV?$string_output_adapter@_W@__crt_stdio_output@@@2@@__crt_stdio_output@@AAE_NXZ 1005e8a0 f i libucrtd:output.obj
 0001:0005d950       ?state_case_normal@?$output_processor@DV?$stream_output_adapter@D@__crt_stdio_output@@V?$format_validation_base@DV?$stream_output_adapter@D@__crt_stdio_output@@@2@@__crt_stdio_output@@AAE_NXZ 1005e950 f i libucrtd:output.obj
 0001:0005da10       ?state_case_normal@?$output_processor@DV?$stream_output_adapter@D@__crt_stdio_output@@V?$positional_parameter_base@DV?$stream_output_adapter@D@__crt_stdio_output@@@2@@__crt_stdio_output@@AAE_NXZ 1005ea10 f i libucrtd:output.obj
 0001:0005dad0       ?state_case_normal@?$output_processor@DV?$stream_output_adapter@D@__crt_stdio_output@@V?$standard_base@DV?$stream_output_adapter@D@__crt_stdio_output@@@2@@__crt_stdio_output@@AAE_NXZ 1005ead0 f i libucrtd:output.obj
 0001:0005db90       ?state_case_normal@?$output_processor@DV?$string_output_adapter@D@__crt_stdio_output@@V?$format_validation_base@DV?$string_output_adapter@D@__crt_stdio_output@@@2@@__crt_stdio_output@@AAE_NXZ 1005eb90 f i libucrtd:output.obj
 0001:0005dc50       ?state_case_normal@?$output_processor@DV?$string_output_adapter@D@__crt_stdio_output@@V?$positional_parameter_base@DV?$string_output_adapter@D@__crt_stdio_output@@@2@@__crt_stdio_output@@AAE_NXZ 1005ec50 f i libucrtd:output.obj
 0001:0005dd10       ?state_case_normal@?$output_processor@DV?$string_output_adapter@D@__crt_stdio_output@@V?$standard_base@DV?$string_output_adapter@D@__crt_stdio_output@@@2@@__crt_stdio_output@@AAE_NXZ 1005ed10 f i libucrtd:output.obj
 0001:0005ddd0       ?state_case_normal@?$output_processor@_WV?$stream_output_adapter@_W@__crt_stdio_output@@V?$format_validation_base@_WV?$stream_output_adapter@_W@__crt_stdio_output@@@2@@__crt_stdio_output@@AAE_NXZ 1005edd0 f i libucrtd:output.obj
 0001:0005de90       ?state_case_normal@?$output_processor@_WV?$stream_output_adapter@_W@__crt_stdio_output@@V?$positional_parameter_base@_WV?$stream_output_adapter@_W@__crt_stdio_output@@@2@@__crt_stdio_output@@AAE_NXZ 1005ee90 f i libucrtd:output.obj
 0001:0005df50       ?state_case_normal@?$output_processor@_WV?$stream_output_adapter@_W@__crt_stdio_output@@V?$standard_base@_WV?$stream_output_adapter@_W@__crt_stdio_output@@@2@@__crt_stdio_output@@AAE_NXZ 1005ef50 f i libucrtd:output.obj
 0001:0005e010       ?state_case_normal@?$output_processor@_WV?$string_output_adapter@_W@__crt_stdio_output@@V?$format_validation_base@_WV?$string_output_adapter@_W@__crt_stdio_output@@@2@@__crt_stdio_output@@AAE_NXZ 1005f010 f i libucrtd:output.obj
 0001:0005e0d0       ?state_case_normal@?$output_processor@_WV?$string_output_adapter@_W@__crt_stdio_output@@V?$positional_parameter_base@_WV?$string_output_adapter@_W@__crt_stdio_output@@@2@@__crt_stdio_output@@AAE_NXZ 1005f0d0 f i libucrtd:output.obj
 0001:0005e190       ?state_case_normal@?$output_processor@_WV?$string_output_adapter@_W@__crt_stdio_output@@V?$standard_base@_WV?$string_output_adapter@_W@__crt_stdio_output@@@2@@__crt_stdio_output@@AAE_NXZ 1005f190 f i libucrtd:output.obj
 0001:0005e250       ?state_case_normal_common@?$output_processor@DV?$stream_output_adapter@D@__crt_stdio_output@@V?$format_validation_base@DV?$stream_output_adapter@D@__crt_stdio_output@@@2@@__crt_stdio_output@@AAE_NXZ 1005f250 f i libucrtd:output.obj
 0001:0005e2a0       ?state_case_normal_common@?$output_processor@DV?$stream_output_adapter@D@__crt_stdio_output@@V?$positional_parameter_base@DV?$stream_output_adapter@D@__crt_stdio_output@@@2@@__crt_stdio_output@@AAE_NXZ 1005f2a0 f i libucrtd:output.obj
 0001:0005e2f0       ?state_case_normal_common@?$output_processor@DV?$stream_output_adapter@D@__crt_stdio_output@@V?$standard_base@DV?$stream_output_adapter@D@__crt_stdio_output@@@2@@__crt_stdio_output@@AAE_NXZ 1005f2f0 f i libucrtd:output.obj
 0001:0005e340       ?state_case_normal_common@?$output_processor@DV?$string_output_adapter@D@__crt_stdio_output@@V?$format_validation_base@DV?$string_output_adapter@D@__crt_stdio_output@@@2@@__crt_stdio_output@@AAE_NXZ 1005f340 f i libucrtd:output.obj
 0001:0005e390       ?state_case_normal_common@?$output_processor@DV?$string_output_adapter@D@__crt_stdio_output@@V?$positional_parameter_base@DV?$string_output_adapter@D@__crt_stdio_output@@@2@@__crt_stdio_output@@AAE_NXZ 1005f390 f i libucrtd:output.obj
 0001:0005e3e0       ?state_case_normal_common@?$output_processor@DV?$string_output_adapter@D@__crt_stdio_output@@V?$standard_base@DV?$string_output_adapter@D@__crt_stdio_output@@@2@@__crt_stdio_output@@AAE_NXZ 1005f3e0 f i libucrtd:output.obj
 0001:0005e430       ?state_case_normal_common@?$output_processor@_WV?$stream_output_adapter@_W@__crt_stdio_output@@V?$format_validation_base@_WV?$stream_output_adapter@_W@__crt_stdio_output@@@2@@__crt_stdio_output@@AAE_NXZ 1005f430 f i libucrtd:output.obj
 0001:0005e480       ?state_case_normal_common@?$output_processor@_WV?$stream_output_adapter@_W@__crt_stdio_output@@V?$positional_parameter_base@_WV?$stream_output_adapter@_W@__crt_stdio_output@@@2@@__crt_stdio_output@@AAE_NXZ 1005f480 f i libucrtd:output.obj
 0001:0005e4d0       ?state_case_normal_common@?$output_processor@_WV?$stream_output_adapter@_W@__crt_stdio_output@@V?$standard_base@_WV?$stream_output_adapter@_W@__crt_stdio_output@@@2@@__crt_stdio_output@@AAE_NXZ 1005f4d0 f i libucrtd:output.obj
 0001:0005e520       ?state_case_normal_common@?$output_processor@_WV?$string_output_adapter@_W@__crt_stdio_output@@V?$format_validation_base@_WV?$string_output_adapter@_W@__crt_stdio_output@@@2@@__crt_stdio_output@@AAE_NXZ 1005f520 f i libucrtd:output.obj
 0001:0005e570       ?state_case_normal_common@?$output_processor@_WV?$string_output_adapter@_W@__crt_stdio_output@@V?$positional_parameter_base@_WV?$string_output_adapter@_W@__crt_stdio_output@@@2@@__crt_stdio_output@@AAE_NXZ 1005f570 f i libucrtd:output.obj
 0001:0005e5c0       ?state_case_normal_common@?$output_processor@_WV?$string_output_adapter@_W@__crt_stdio_output@@V?$standard_base@_WV?$string_output_adapter@_W@__crt_stdio_output@@@2@@__crt_stdio_output@@AAE_NXZ 1005f5c0 f i libucrtd:output.obj
 0001:0005e610       ?state_case_normal_tchar@?$output_processor@DV?$stream_output_adapter@D@__crt_stdio_output@@V?$format_validation_base@DV?$stream_output_adapter@D@__crt_stdio_output@@@2@@__crt_stdio_output@@AAE_ND@Z 1005f610 f i libucrtd:output.obj
 0001:0005e740       ?state_case_normal_tchar@?$output_processor@DV?$stream_output_adapter@D@__crt_stdio_output@@V?$positional_parameter_base@DV?$stream_output_adapter@D@__crt_stdio_output@@@2@@__crt_stdio_output@@AAE_ND@Z 1005f740 f i libucrtd:output.obj
 0001:0005e870       ?state_case_normal_tchar@?$output_processor@DV?$stream_output_adapter@D@__crt_stdio_output@@V?$standard_base@DV?$stream_output_adapter@D@__crt_stdio_output@@@2@@__crt_stdio_output@@AAE_ND@Z 1005f870 f i libucrtd:output.obj
 0001:0005e9a0       ?state_case_normal_tchar@?$output_processor@DV?$string_output_adapter@D@__crt_stdio_output@@V?$format_validation_base@DV?$string_output_adapter@D@__crt_stdio_output@@@2@@__crt_stdio_output@@AAE_ND@Z 1005f9a0 f i libucrtd:output.obj
 0001:0005ead0       ?state_case_normal_tchar@?$output_processor@DV?$string_output_adapter@D@__crt_stdio_output@@V?$positional_parameter_base@DV?$string_output_adapter@D@__crt_stdio_output@@@2@@__crt_stdio_output@@AAE_ND@Z 1005fad0 f i libucrtd:output.obj
 0001:0005ec00       ?state_case_normal_tchar@?$output_processor@DV?$string_output_adapter@D@__crt_stdio_output@@V?$standard_base@DV?$string_output_adapter@D@__crt_stdio_output@@@2@@__crt_stdio_output@@AAE_ND@Z 1005fc00 f i libucrtd:output.obj
 0001:0005ed30       ?state_case_normal_tchar@?$output_processor@_WV?$stream_output_adapter@_W@__crt_stdio_output@@V?$format_validation_base@_WV?$stream_output_adapter@_W@__crt_stdio_output@@@2@@__crt_stdio_output@@AAE_N_W@Z 1005fd30 f i libucrtd:output.obj
 0001:0005ed50       ?state_case_normal_tchar@?$output_processor@_WV?$stream_output_adapter@_W@__crt_stdio_output@@V?$positional_parameter_base@_WV?$stream_output_adapter@_W@__crt_stdio_output@@@2@@__crt_stdio_output@@AAE_N_W@Z 1005fd50 f i libucrtd:output.obj
 0001:0005ed70       ?state_case_normal_tchar@?$output_processor@_WV?$stream_output_adapter@_W@__crt_stdio_output@@V?$standard_base@_WV?$stream_output_adapter@_W@__crt_stdio_output@@@2@@__crt_stdio_output@@AAE_N_W@Z 1005fd70 f i libucrtd:output.obj
 0001:0005ed90       ?state_case_normal_tchar@?$output_processor@_WV?$string_output_adapter@_W@__crt_stdio_output@@V?$format_validation_base@_WV?$string_output_adapter@_W@__crt_stdio_output@@@2@@__crt_stdio_output@@AAE_N_W@Z 1005fd90 f i libucrtd:output.obj
 0001:0005edb0       ?state_case_normal_tchar@?$output_processor@_WV?$string_output_adapter@_W@__crt_stdio_output@@V?$positional_parameter_base@_WV?$string_output_adapter@_W@__crt_stdio_output@@@2@@__crt_stdio_output@@AAE_N_W@Z 1005fdb0 f i libucrtd:output.obj
 0001:0005edd0       ?state_case_normal_tchar@?$output_processor@_WV?$string_output_adapter@_W@__crt_stdio_output@@V?$standard_base@_WV?$string_output_adapter@_W@__crt_stdio_output@@@2@@__crt_stdio_output@@AAE_N_W@Z 1005fdd0 f i libucrtd:output.obj
 0001:0005edf0       ?state_case_percent@?$output_processor@DV?$stream_output_adapter@D@__crt_stdio_output@@V?$format_validation_base@DV?$stream_output_adapter@D@__crt_stdio_output@@@2@@__crt_stdio_output@@AAE_NXZ 1005fdf0 f i libucrtd:output.obj
 0001:0005ee40       ?state_case_percent@?$output_processor@DV?$stream_output_adapter@D@__crt_stdio_output@@V?$positional_parameter_base@DV?$stream_output_adapter@D@__crt_stdio_output@@@2@@__crt_stdio_output@@AAE_NXZ 1005fe40 f i libucrtd:output.obj
 0001:0005ee90       ?state_case_percent@?$output_processor@DV?$stream_output_adapter@D@__crt_stdio_output@@V?$standard_base@DV?$stream_output_adapter@D@__crt_stdio_output@@@2@@__crt_stdio_output@@AAE_NXZ 1005fe90 f i libucrtd:output.obj
 0001:0005eee0       ?state_case_percent@?$output_processor@DV?$string_output_adapter@D@__crt_stdio_output@@V?$format_validation_base@DV?$string_output_adapter@D@__crt_stdio_output@@@2@@__crt_stdio_output@@AAE_NXZ 1005fee0 f i libucrtd:output.obj
 0001:0005ef30       ?state_case_percent@?$output_processor@DV?$string_output_adapter@D@__crt_stdio_output@@V?$positional_parameter_base@DV?$string_output_adapter@D@__crt_stdio_output@@@2@@__crt_stdio_output@@AAE_NXZ 1005ff30 f i libucrtd:output.obj
 0001:0005ef80       ?state_case_percent@?$output_processor@DV?$string_output_adapter@D@__crt_stdio_output@@V?$standard_base@DV?$string_output_adapter@D@__crt_stdio_output@@@2@@__crt_stdio_output@@AAE_NXZ 1005ff80 f i libucrtd:output.obj
 0001:0005efd0       ?state_case_percent@?$output_processor@_WV?$stream_output_adapter@_W@__crt_stdio_output@@V?$format_validation_base@_WV?$stream_output_adapter@_W@__crt_stdio_output@@@2@@__crt_stdio_output@@AAE_NXZ 1005ffd0 f i libucrtd:output.obj
 0001:0005f020       ?state_case_percent@?$output_processor@_WV?$stream_output_adapter@_W@__crt_stdio_output@@V?$positional_parameter_base@_WV?$stream_output_adapter@_W@__crt_stdio_output@@@2@@__crt_stdio_output@@AAE_NXZ 10060020 f i libucrtd:output.obj
 0001:0005f070       ?state_case_percent@?$output_processor@_WV?$stream_output_adapter@_W@__crt_stdio_output@@V?$standard_base@_WV?$stream_output_adapter@_W@__crt_stdio_output@@@2@@__crt_stdio_output@@AAE_NXZ 10060070 f i libucrtd:output.obj
 0001:0005f0c0       ?state_case_percent@?$output_processor@_WV?$string_output_adapter@_W@__crt_stdio_output@@V?$format_validation_base@_WV?$string_output_adapter@_W@__crt_stdio_output@@@2@@__crt_stdio_output@@AAE_NXZ 100600c0 f i libucrtd:output.obj
 0001:0005f110       ?state_case_percent@?$output_processor@_WV?$string_output_adapter@_W@__crt_stdio_output@@V?$positional_parameter_base@_WV?$string_output_adapter@_W@__crt_stdio_output@@@2@@__crt_stdio_output@@AAE_NXZ 10060110 f i libucrtd:output.obj
 0001:0005f160       ?state_case_percent@?$output_processor@_WV?$string_output_adapter@_W@__crt_stdio_output@@V?$standard_base@_WV?$string_output_adapter@_W@__crt_stdio_output@@@2@@__crt_stdio_output@@AAE_NXZ 10060160 f i libucrtd:output.obj
 0001:0005f1b0       ?state_case_precision@?$output_processor@DV?$stream_output_adapter@D@__crt_stdio_output@@V?$format_validation_base@DV?$stream_output_adapter@D@__crt_stdio_output@@@2@@__crt_stdio_output@@AAE_NXZ 100601b0 f i libucrtd:output.obj
 0001:0005f220       ?state_case_precision@?$output_processor@DV?$stream_output_adapter@D@__crt_stdio_output@@V?$positional_parameter_base@DV?$stream_output_adapter@D@__crt_stdio_output@@@2@@__crt_stdio_output@@AAE_NXZ 10060220 f i libucrtd:output.obj
 0001:0005f290       ?state_case_precision@?$output_processor@DV?$stream_output_adapter@D@__crt_stdio_output@@V?$standard_base@DV?$stream_output_adapter@D@__crt_stdio_output@@@2@@__crt_stdio_output@@AAE_NXZ 10060290 f i libucrtd:output.obj
 0001:0005f300       ?state_case_precision@?$output_processor@DV?$string_output_adapter@D@__crt_stdio_output@@V?$format_validation_base@DV?$string_output_adapter@D@__crt_stdio_output@@@2@@__crt_stdio_output@@AAE_NXZ 10060300 f i libucrtd:output.obj
 0001:0005f370       ?state_case_precision@?$output_processor@DV?$string_output_adapter@D@__crt_stdio_output@@V?$positional_parameter_base@DV?$string_output_adapter@D@__crt_stdio_output@@@2@@__crt_stdio_output@@AAE_NXZ 10060370 f i libucrtd:output.obj
 0001:0005f3e0       ?state_case_precision@?$output_processor@DV?$string_output_adapter@D@__crt_stdio_output@@V?$standard_base@DV?$string_output_adapter@D@__crt_stdio_output@@@2@@__crt_stdio_output@@AAE_NXZ 100603e0 f i libucrtd:output.obj
 0001:0005f450       ?state_case_precision@?$output_processor@_WV?$stream_output_adapter@_W@__crt_stdio_output@@V?$format_validation_base@_WV?$stream_output_adapter@_W@__crt_stdio_output@@@2@@__crt_stdio_output@@AAE_NXZ 10060450 f i libucrtd:output.obj
 0001:0005f4c0       ?state_case_precision@?$output_processor@_WV?$stream_output_adapter@_W@__crt_stdio_output@@V?$positional_parameter_base@_WV?$stream_output_adapter@_W@__crt_stdio_output@@@2@@__crt_stdio_output@@AAE_NXZ 100604c0 f i libucrtd:output.obj
 0001:0005f530       ?state_case_precision@?$output_processor@_WV?$stream_output_adapter@_W@__crt_stdio_output@@V?$standard_base@_WV?$stream_output_adapter@_W@__crt_stdio_output@@@2@@__crt_stdio_output@@AAE_NXZ 10060530 f i libucrtd:output.obj
 0001:0005f5a0       ?state_case_precision@?$output_processor@_WV?$string_output_adapter@_W@__crt_stdio_output@@V?$format_validation_base@_WV?$string_output_adapter@_W@__crt_stdio_output@@@2@@__crt_stdio_output@@AAE_NXZ 100605a0 f i libucrtd:output.obj
 0001:0005f610       ?state_case_precision@?$output_processor@_WV?$string_output_adapter@_W@__crt_stdio_output@@V?$positional_parameter_base@_WV?$string_output_adapter@_W@__crt_stdio_output@@@2@@__crt_stdio_output@@AAE_NXZ 10060610 f i libucrtd:output.obj
 0001:0005f680       ?state_case_precision@?$output_processor@_WV?$string_output_adapter@_W@__crt_stdio_output@@V?$standard_base@_WV?$string_output_adapter@_W@__crt_stdio_output@@@2@@__crt_stdio_output@@AAE_NXZ 10060680 f i libucrtd:output.obj
 0001:0005f6f0       ?state_case_size@?$output_processor@DV?$stream_output_adapter@D@__crt_stdio_output@@V?$format_validation_base@DV?$stream_output_adapter@D@__crt_stdio_output@@@2@@__crt_stdio_output@@AAE_NXZ 100606f0 f i libucrtd:output.obj
 0001:0005fae0       ?state_case_size@?$output_processor@DV?$stream_output_adapter@D@__crt_stdio_output@@V?$positional_parameter_base@DV?$stream_output_adapter@D@__crt_stdio_output@@@2@@__crt_stdio_output@@AAE_NXZ 10060ae0 f i libucrtd:output.obj
 0001:0005fed0       ?state_case_size@?$output_processor@DV?$stream_output_adapter@D@__crt_stdio_output@@V?$standard_base@DV?$stream_output_adapter@D@__crt_stdio_output@@@2@@__crt_stdio_output@@AAE_NXZ 10060ed0 f i libucrtd:output.obj
 0001:000602c0       ?state_case_size@?$output_processor@DV?$string_output_adapter@D@__crt_stdio_output@@V?$format_validation_base@DV?$string_output_adapter@D@__crt_stdio_output@@@2@@__crt_stdio_output@@AAE_NXZ 100612c0 f i libucrtd:output.obj
 0001:000606b0       ?state_case_size@?$output_processor@DV?$string_output_adapter@D@__crt_stdio_output@@V?$positional_parameter_base@DV?$string_output_adapter@D@__crt_stdio_output@@@2@@__crt_stdio_output@@AAE_NXZ 100616b0 f i libucrtd:output.obj
 0001:00060aa0       ?state_case_size@?$output_processor@DV?$string_output_adapter@D@__crt_stdio_output@@V?$standard_base@DV?$string_output_adapter@D@__crt_stdio_output@@@2@@__crt_stdio_output@@AAE_NXZ 10061aa0 f i libucrtd:output.obj
 0001:00060e90       ?state_case_size@?$output_processor@_WV?$stream_output_adapter@_W@__crt_stdio_output@@V?$format_validation_base@_WV?$stream_output_adapter@_W@__crt_stdio_output@@@2@@__crt_stdio_output@@AAE_NXZ 10061e90 f i libucrtd:output.obj
 0001:00061280       ?state_case_size@?$output_processor@_WV?$stream_output_adapter@_W@__crt_stdio_output@@V?$positional_parameter_base@_WV?$stream_output_adapter@_W@__crt_stdio_output@@@2@@__crt_stdio_output@@AAE_NXZ 10062280 f i libucrtd:output.obj
 0001:00061670       ?state_case_size@?$output_processor@_WV?$stream_output_adapter@_W@__crt_stdio_output@@V?$standard_base@_WV?$stream_output_adapter@_W@__crt_stdio_output@@@2@@__crt_stdio_output@@AAE_NXZ 10062670 f i libucrtd:output.obj
 0001:00061a60       ?state_case_size@?$output_processor@_WV?$string_output_adapter@_W@__crt_stdio_output@@V?$format_validation_base@_WV?$string_output_adapter@_W@__crt_stdio_output@@@2@@__crt_stdio_output@@AAE_NXZ 10062a60 f i libucrtd:output.obj
 0001:00061e50       ?state_case_size@?$output_processor@_WV?$string_output_adapter@_W@__crt_stdio_output@@V?$positional_parameter_base@_WV?$string_output_adapter@_W@__crt_stdio_output@@@2@@__crt_stdio_output@@AAE_NXZ 10062e50 f i libucrtd:output.obj
 0001:00062240       ?state_case_size@?$output_processor@_WV?$string_output_adapter@_W@__crt_stdio_output@@V?$standard_base@_WV?$string_output_adapter@_W@__crt_stdio_output@@@2@@__crt_stdio_output@@AAE_NXZ 10063240 f i libucrtd:output.obj
 0001:00062630       ?state_case_type@?$output_processor@DV?$stream_output_adapter@D@__crt_stdio_output@@V?$format_validation_base@DV?$stream_output_adapter@D@__crt_stdio_output@@@2@@__crt_stdio_output@@AAE_NXZ 10063630 f i libucrtd:output.obj
 0001:00062a00       ?state_case_type@?$output_processor@DV?$stream_output_adapter@D@__crt_stdio_output@@V?$positional_parameter_base@DV?$stream_output_adapter@D@__crt_stdio_output@@@2@@__crt_stdio_output@@AAE_NXZ 10063a00 f i libucrtd:output.obj
 0001:00062dd0       ?state_case_type@?$output_processor@DV?$stream_output_adapter@D@__crt_stdio_output@@V?$standard_base@DV?$stream_output_adapter@D@__crt_stdio_output@@@2@@__crt_stdio_output@@AAE_NXZ 10063dd0 f i libucrtd:output.obj
 0001:000631a0       ?state_case_type@?$output_processor@DV?$string_output_adapter@D@__crt_stdio_output@@V?$format_validation_base@DV?$string_output_adapter@D@__crt_stdio_output@@@2@@__crt_stdio_output@@AAE_NXZ 100641a0 f i libucrtd:output.obj
 0001:00063570       ?state_case_type@?$output_processor@DV?$string_output_adapter@D@__crt_stdio_output@@V?$positional_parameter_base@DV?$string_output_adapter@D@__crt_stdio_output@@@2@@__crt_stdio_output@@AAE_NXZ 10064570 f i libucrtd:output.obj
 0001:00063940       ?state_case_type@?$output_processor@DV?$string_output_adapter@D@__crt_stdio_output@@V?$standard_base@DV?$string_output_adapter@D@__crt_stdio_output@@@2@@__crt_stdio_output@@AAE_NXZ 10064940 f i libucrtd:output.obj
 0001:00063d10       ?state_case_type@?$output_processor@_WV?$stream_output_adapter@_W@__crt_stdio_output@@V?$format_validation_base@_WV?$stream_output_adapter@_W@__crt_stdio_output@@@2@@__crt_stdio_output@@AAE_NXZ 10064d10 f i libucrtd:output.obj
 0001:00064110       ?state_case_type@?$output_processor@_WV?$stream_output_adapter@_W@__crt_stdio_output@@V?$positional_parameter_base@_WV?$stream_output_adapter@_W@__crt_stdio_output@@@2@@__crt_stdio_output@@AAE_NXZ 10065110 f i libucrtd:output.obj
 0001:00064510       ?state_case_type@?$output_processor@_WV?$stream_output_adapter@_W@__crt_stdio_output@@V?$standard_base@_WV?$stream_output_adapter@_W@__crt_stdio_output@@@2@@__crt_stdio_output@@AAE_NXZ 10065510 f i libucrtd:output.obj
 0001:00064910       ?state_case_type@?$output_processor@_WV?$string_output_adapter@_W@__crt_stdio_output@@V?$format_validation_base@_WV?$string_output_adapter@_W@__crt_stdio_output@@@2@@__crt_stdio_output@@AAE_NXZ 10065910 f i libucrtd:output.obj
 0001:00064d10       ?state_case_type@?$output_processor@_WV?$string_output_adapter@_W@__crt_stdio_output@@V?$positional_parameter_base@_WV?$string_output_adapter@_W@__crt_stdio_output@@@2@@__crt_stdio_output@@AAE_NXZ 10065d10 f i libucrtd:output.obj
 0001:00065110       ?state_case_type@?$output_processor@_WV?$string_output_adapter@_W@__crt_stdio_output@@V?$standard_base@_WV?$string_output_adapter@_W@__crt_stdio_output@@@2@@__crt_stdio_output@@AAE_NXZ 10066110 f i libucrtd:output.obj
 0001:00065510       ?state_case_width@?$output_processor@DV?$stream_output_adapter@D@__crt_stdio_output@@V?$format_validation_base@DV?$stream_output_adapter@D@__crt_stdio_output@@@2@@__crt_stdio_output@@AAE_NXZ 10066510 f i libucrtd:output.obj
 0001:00065590       ?state_case_width@?$output_processor@DV?$stream_output_adapter@D@__crt_stdio_output@@V?$positional_parameter_base@DV?$stream_output_adapter@D@__crt_stdio_output@@@2@@__crt_stdio_output@@AAE_NXZ 10066590 f i libucrtd:output.obj
 0001:00065610       ?state_case_width@?$output_processor@DV?$stream_output_adapter@D@__crt_stdio_output@@V?$standard_base@DV?$stream_output_adapter@D@__crt_stdio_output@@@2@@__crt_stdio_output@@AAE_NXZ 10066610 f i libucrtd:output.obj
 0001:00065690       ?state_case_width@?$output_processor@DV?$string_output_adapter@D@__crt_stdio_output@@V?$format_validation_base@DV?$string_output_adapter@D@__crt_stdio_output@@@2@@__crt_stdio_output@@AAE_NXZ 10066690 f i libucrtd:output.obj
 0001:00065710       ?state_case_width@?$output_processor@DV?$string_output_adapter@D@__crt_stdio_output@@V?$positional_parameter_base@DV?$string_output_adapter@D@__crt_stdio_output@@@2@@__crt_stdio_output@@AAE_NXZ 10066710 f i libucrtd:output.obj
 0001:00065790       ?state_case_width@?$output_processor@DV?$string_output_adapter@D@__crt_stdio_output@@V?$standard_base@DV?$string_output_adapter@D@__crt_stdio_output@@@2@@__crt_stdio_output@@AAE_NXZ 10066790 f i libucrtd:output.obj
 0001:00065810       ?state_case_width@?$output_processor@_WV?$stream_output_adapter@_W@__crt_stdio_output@@V?$format_validation_base@_WV?$stream_output_adapter@_W@__crt_stdio_output@@@2@@__crt_stdio_output@@AAE_NXZ 10066810 f i libucrtd:output.obj
 0001:00065890       ?state_case_width@?$output_processor@_WV?$stream_output_adapter@_W@__crt_stdio_output@@V?$positional_parameter_base@_WV?$stream_output_adapter@_W@__crt_stdio_output@@@2@@__crt_stdio_output@@AAE_NXZ 10066890 f i libucrtd:output.obj
 0001:00065910       ?state_case_width@?$output_processor@_WV?$stream_output_adapter@_W@__crt_stdio_output@@V?$standard_base@_WV?$stream_output_adapter@_W@__crt_stdio_output@@@2@@__crt_stdio_output@@AAE_NXZ 10066910 f i libucrtd:output.obj
 0001:00065990       ?state_case_width@?$output_processor@_WV?$string_output_adapter@_W@__crt_stdio_output@@V?$format_validation_base@_WV?$string_output_adapter@_W@__crt_stdio_output@@@2@@__crt_stdio_output@@AAE_NXZ 10066990 f i libucrtd:output.obj
 0001:00065a10       ?state_case_width@?$output_processor@_WV?$string_output_adapter@_W@__crt_stdio_output@@V?$positional_parameter_base@_WV?$string_output_adapter@_W@__crt_stdio_output@@@2@@__crt_stdio_output@@AAE_NXZ 10066a10 f i libucrtd:output.obj
 0001:00065a90       ?state_case_width@?$output_processor@_WV?$string_output_adapter@_W@__crt_stdio_output@@V?$standard_base@_WV?$string_output_adapter@_W@__crt_stdio_output@@@2@@__crt_stdio_output@@AAE_NXZ 10066a90 f i libucrtd:output.obj
 0001:00065b10       ?state_count@?$format_validation_base@DV?$stream_output_adapter@D@__crt_stdio_output@@@__crt_stdio_output@@KAIXZ 10066b10 f i libucrtd:output.obj
 0001:00065b20       ?state_count@?$format_validation_base@DV?$string_output_adapter@D@__crt_stdio_output@@@__crt_stdio_output@@KAIXZ 10066b20 f i libucrtd:output.obj
 0001:00065b30       ?state_count@?$format_validation_base@_WV?$stream_output_adapter@_W@__crt_stdio_output@@@__crt_stdio_output@@KAIXZ 10066b30 f i libucrtd:output.obj
 0001:00065b40       ?state_count@?$format_validation_base@_WV?$string_output_adapter@_W@__crt_stdio_output@@@__crt_stdio_output@@KAIXZ 10066b40 f i libucrtd:output.obj
 0001:00065b50       ?state_count@?$standard_base@DV?$stream_output_adapter@D@__crt_stdio_output@@@__crt_stdio_output@@KAIXZ 10066b50 f i libucrtd:output.obj
 0001:00065b60       ?state_count@?$standard_base@DV?$string_output_adapter@D@__crt_stdio_output@@@__crt_stdio_output@@KAIXZ 10066b60 f i libucrtd:output.obj
 0001:00065b70       ?state_count@?$standard_base@_WV?$stream_output_adapter@_W@__crt_stdio_output@@@__crt_stdio_output@@KAIXZ 10066b70 f i libucrtd:output.obj
 0001:00065b80       ?state_count@?$standard_base@_WV?$string_output_adapter@_W@__crt_stdio_output@@@__crt_stdio_output@@KAIXZ 10066b80 f i libucrtd:output.obj
 0001:00065b90       ?state_transition_table@?$format_validation_base@DV?$stream_output_adapter@D@__crt_stdio_output@@@__crt_stdio_output@@KAABV?$spectre_mitigated_lookup_table@Ustate_transition_pair@__crt_stdio_output@@$0IA@@2@XZ 10066b90 f i libucrtd:output.obj
 0001:00065ba0       ?state_transition_table@?$format_validation_base@DV?$string_output_adapter@D@__crt_stdio_output@@@__crt_stdio_output@@KAABV?$spectre_mitigated_lookup_table@Ustate_transition_pair@__crt_stdio_output@@$0IA@@2@XZ 10066ba0 f i libucrtd:output.obj
 0001:00065bb0       ?state_transition_table@?$format_validation_base@_WV?$stream_output_adapter@_W@__crt_stdio_output@@@__crt_stdio_output@@KAABV?$spectre_mitigated_lookup_table@Ustate_transition_pair@__crt_stdio_output@@$0IA@@2@XZ 10066bb0 f i libucrtd:output.obj
 0001:00065bc0       ?state_transition_table@?$format_validation_base@_WV?$string_output_adapter@_W@__crt_stdio_output@@@__crt_stdio_output@@KAABV?$spectre_mitigated_lookup_table@Ustate_transition_pair@__crt_stdio_output@@$0IA@@2@XZ 10066bc0 f i libucrtd:output.obj
 0001:00065bd0       ?state_transition_table@?$standard_base@DV?$stream_output_adapter@D@__crt_stdio_output@@@__crt_stdio_output@@KAABV?$spectre_mitigated_lookup_table@Ustate_transition_pair@__crt_stdio_output@@$0IA@@2@XZ 10066bd0 f i libucrtd:output.obj
 0001:00065be0       ?state_transition_table@?$standard_base@DV?$string_output_adapter@D@__crt_stdio_output@@@__crt_stdio_output@@KAABV?$spectre_mitigated_lookup_table@Ustate_transition_pair@__crt_stdio_output@@$0IA@@2@XZ 10066be0 f i libucrtd:output.obj
 0001:00065bf0       ?state_transition_table@?$standard_base@_WV?$stream_output_adapter@_W@__crt_stdio_output@@@__crt_stdio_output@@KAABV?$spectre_mitigated_lookup_table@Ustate_transition_pair@__crt_stdio_output@@$0IA@@2@XZ 10066bf0 f i libucrtd:output.obj
 0001:00065c00       ?state_transition_table@?$standard_base@_WV?$string_output_adapter@_W@__crt_stdio_output@@@__crt_stdio_output@@KAABV?$spectre_mitigated_lookup_table@Ustate_transition_pair@__crt_stdio_output@@$0IA@@2@XZ 10066c00 f i libucrtd:output.obj
 0001:00065c10       ?tchar_string@?$common_data@D@__crt_stdio_output@@IAEAAPADD@Z 10066c10 f i libucrtd:output.obj
 0001:00065c30       ?tchar_string@?$common_data@D@__crt_stdio_output@@IAEAAPADXZ 10066c30 f i libucrtd:output.obj
 0001:00065c50       ?tchar_string@?$common_data@_W@__crt_stdio_output@@IAEAAPA_WXZ 10066c50 f i libucrtd:output.obj
 0001:00065c70       ?tchar_string@?$common_data@_W@__crt_stdio_output@@IAEAAPA_W_W@Z 10066c70 f i libucrtd:output.obj
 0001:00065c90       ?to_integer_size@__crt_stdio_output@@YAIW4length_modifier@1@@Z 10066c90 f i libucrtd:output.obj
 0001:00065d30       ?type_case_X@?$output_processor@DV?$stream_output_adapter@D@__crt_stdio_output@@V?$format_validation_base@DV?$stream_output_adapter@D@__crt_stdio_output@@@2@@__crt_stdio_output@@AAE_NXZ 10066d30 f i libucrtd:output.obj
 0001:00065d50       ?type_case_X@?$output_processor@DV?$stream_output_adapter@D@__crt_stdio_output@@V?$positional_parameter_base@DV?$stream_output_adapter@D@__crt_stdio_output@@@2@@__crt_stdio_output@@AAE_NXZ 10066d50 f i libucrtd:output.obj
 0001:00065d70       ?type_case_X@?$output_processor@DV?$stream_output_adapter@D@__crt_stdio_output@@V?$standard_base@DV?$stream_output_adapter@D@__crt_stdio_output@@@2@@__crt_stdio_output@@AAE_NXZ 10066d70 f i libucrtd:output.obj
 0001:00065d90       ?type_case_X@?$output_processor@DV?$string_output_adapter@D@__crt_stdio_output@@V?$format_validation_base@DV?$string_output_adapter@D@__crt_stdio_output@@@2@@__crt_stdio_output@@AAE_NXZ 10066d90 f i libucrtd:output.obj
 0001:00065db0       ?type_case_X@?$output_processor@DV?$string_output_adapter@D@__crt_stdio_output@@V?$positional_parameter_base@DV?$string_output_adapter@D@__crt_stdio_output@@@2@@__crt_stdio_output@@AAE_NXZ 10066db0 f i libucrtd:output.obj
 0001:00065dd0       ?type_case_X@?$output_processor@DV?$string_output_adapter@D@__crt_stdio_output@@V?$standard_base@DV?$string_output_adapter@D@__crt_stdio_output@@@2@@__crt_stdio_output@@AAE_NXZ 10066dd0 f i libucrtd:output.obj
 0001:00065df0       ?type_case_X@?$output_processor@_WV?$stream_output_adapter@_W@__crt_stdio_output@@V?$format_validation_base@_WV?$stream_output_adapter@_W@__crt_stdio_output@@@2@@__crt_stdio_output@@AAE_NXZ 10066df0 f i libucrtd:output.obj
 0001:00065e10       ?type_case_X@?$output_processor@_WV?$stream_output_adapter@_W@__crt_stdio_output@@V?$positional_parameter_base@_WV?$stream_output_adapter@_W@__crt_stdio_output@@@2@@__crt_stdio_output@@AAE_NXZ 10066e10 f i libucrtd:output.obj
 0001:00065e30       ?type_case_X@?$output_processor@_WV?$stream_output_adapter@_W@__crt_stdio_output@@V?$standard_base@_WV?$stream_output_adapter@_W@__crt_stdio_output@@@2@@__crt_stdio_output@@AAE_NXZ 10066e30 f i libucrtd:output.obj
 0001:00065e50       ?type_case_X@?$output_processor@_WV?$string_output_adapter@_W@__crt_stdio_output@@V?$format_validation_base@_WV?$string_output_adapter@_W@__crt_stdio_output@@@2@@__crt_stdio_output@@AAE_NXZ 10066e50 f i libucrtd:output.obj
 0001:00065e70       ?type_case_X@?$output_processor@_WV?$string_output_adapter@_W@__crt_stdio_output@@V?$positional_parameter_base@_WV?$string_output_adapter@_W@__crt_stdio_output@@@2@@__crt_stdio_output@@AAE_NXZ 10066e70 f i libucrtd:output.obj
 0001:00065e90       ?type_case_X@?$output_processor@_WV?$string_output_adapter@_W@__crt_stdio_output@@V?$standard_base@_WV?$string_output_adapter@_W@__crt_stdio_output@@@2@@__crt_stdio_output@@AAE_NXZ 10066e90 f i libucrtd:output.obj
 0001:00065eb0       ?type_case_Z@?$output_processor@DV?$stream_output_adapter@D@__crt_stdio_output@@V?$format_validation_base@DV?$stream_output_adapter@D@__crt_stdio_output@@@2@@__crt_stdio_output@@AAE_NXZ 10066eb0 f i libucrtd:output.obj
 0001:00065fa0       ?type_case_Z@?$output_processor@DV?$stream_output_adapter@D@__crt_stdio_output@@V?$positional_parameter_base@DV?$stream_output_adapter@D@__crt_stdio_output@@@2@@__crt_stdio_output@@AAE_NXZ 10066fa0 f i libucrtd:output.obj
 0001:00066090       ?type_case_Z@?$output_processor@DV?$stream_output_adapter@D@__crt_stdio_output@@V?$standard_base@DV?$stream_output_adapter@D@__crt_stdio_output@@@2@@__crt_stdio_output@@AAE_NXZ 10067090 f i libucrtd:output.obj
 0001:00066180       ?type_case_Z@?$output_processor@DV?$string_output_adapter@D@__crt_stdio_output@@V?$format_validation_base@DV?$string_output_adapter@D@__crt_stdio_output@@@2@@__crt_stdio_output@@AAE_NXZ 10067180 f i libucrtd:output.obj
 0001:00066270       ?type_case_Z@?$output_processor@DV?$string_output_adapter@D@__crt_stdio_output@@V?$positional_parameter_base@DV?$string_output_adapter@D@__crt_stdio_output@@@2@@__crt_stdio_output@@AAE_NXZ 10067270 f i libucrtd:output.obj
 0001:00066360       ?type_case_Z@?$output_processor@DV?$string_output_adapter@D@__crt_stdio_output@@V?$standard_base@DV?$string_output_adapter@D@__crt_stdio_output@@@2@@__crt_stdio_output@@AAE_NXZ 10067360 f i libucrtd:output.obj
 0001:00066450       ?type_case_Z@?$output_processor@_WV?$stream_output_adapter@_W@__crt_stdio_output@@V?$format_validation_base@_WV?$stream_output_adapter@_W@__crt_stdio_output@@@2@@__crt_stdio_output@@AAE_NXZ 10067450 f i libucrtd:output.obj
 0001:00066540       ?type_case_Z@?$output_processor@_WV?$stream_output_adapter@_W@__crt_stdio_output@@V?$positional_parameter_base@_WV?$stream_output_adapter@_W@__crt_stdio_output@@@2@@__crt_stdio_output@@AAE_NXZ 10067540 f i libucrtd:output.obj
 0001:00066630       ?type_case_Z@?$output_processor@_WV?$stream_output_adapter@_W@__crt_stdio_output@@V?$standard_base@_WV?$stream_output_adapter@_W@__crt_stdio_output@@@2@@__crt_stdio_output@@AAE_NXZ 10067630 f i libucrtd:output.obj
 0001:00066720       ?type_case_Z@?$output_processor@_WV?$string_output_adapter@_W@__crt_stdio_output@@V?$format_validation_base@_WV?$string_output_adapter@_W@__crt_stdio_output@@@2@@__crt_stdio_output@@AAE_NXZ 10067720 f i libucrtd:output.obj
 0001:00066810       ?type_case_Z@?$output_processor@_WV?$string_output_adapter@_W@__crt_stdio_output@@V?$positional_parameter_base@_WV?$string_output_adapter@_W@__crt_stdio_output@@@2@@__crt_stdio_output@@AAE_NXZ 10067810 f i libucrtd:output.obj
 0001:00066900       ?type_case_Z@?$output_processor@_WV?$string_output_adapter@_W@__crt_stdio_output@@V?$standard_base@_WV?$string_output_adapter@_W@__crt_stdio_output@@@2@@__crt_stdio_output@@AAE_NXZ 10067900 f i libucrtd:output.obj
 0001:000669f0       ?type_case_a@?$output_processor@DV?$stream_output_adapter@D@__crt_stdio_output@@V?$format_validation_base@DV?$stream_output_adapter@D@__crt_stdio_output@@@2@@__crt_stdio_output@@AAE_NXZ 100679f0 f i libucrtd:output.obj
 0001:00066cc0       ?type_case_a@?$output_processor@DV?$stream_output_adapter@D@__crt_stdio_output@@V?$positional_parameter_base@DV?$stream_output_adapter@D@__crt_stdio_output@@@2@@__crt_stdio_output@@AAE_NXZ 10067cc0 f i libucrtd:output.obj
 0001:00066f90       ?type_case_a@?$output_processor@DV?$stream_output_adapter@D@__crt_stdio_output@@V?$standard_base@DV?$stream_output_adapter@D@__crt_stdio_output@@@2@@__crt_stdio_output@@AAE_NXZ 10067f90 f i libucrtd:output.obj
 0001:00067260       ?type_case_a@?$output_processor@DV?$string_output_adapter@D@__crt_stdio_output@@V?$format_validation_base@DV?$string_output_adapter@D@__crt_stdio_output@@@2@@__crt_stdio_output@@AAE_NXZ 10068260 f i libucrtd:output.obj
 0001:00067530       ?type_case_a@?$output_processor@DV?$string_output_adapter@D@__crt_stdio_output@@V?$positional_parameter_base@DV?$string_output_adapter@D@__crt_stdio_output@@@2@@__crt_stdio_output@@AAE_NXZ 10068530 f i libucrtd:output.obj
 0001:00067800       ?type_case_a@?$output_processor@DV?$string_output_adapter@D@__crt_stdio_output@@V?$standard_base@DV?$string_output_adapter@D@__crt_stdio_output@@@2@@__crt_stdio_output@@AAE_NXZ 10068800 f i libucrtd:output.obj
 0001:00067ad0       ?type_case_a@?$output_processor@_WV?$stream_output_adapter@_W@__crt_stdio_output@@V?$format_validation_base@_WV?$stream_output_adapter@_W@__crt_stdio_output@@@2@@__crt_stdio_output@@AAE_NXZ 10068ad0 f i libucrtd:output.obj
 0001:00067da0       ?type_case_a@?$output_processor@_WV?$stream_output_adapter@_W@__crt_stdio_output@@V?$positional_parameter_base@_WV?$stream_output_adapter@_W@__crt_stdio_output@@@2@@__crt_stdio_output@@AAE_NXZ 10068da0 f i libucrtd:output.obj
 0001:00068070       ?type_case_a@?$output_processor@_WV?$stream_output_adapter@_W@__crt_stdio_output@@V?$standard_base@_WV?$stream_output_adapter@_W@__crt_stdio_output@@@2@@__crt_stdio_output@@AAE_NXZ 10069070 f i libucrtd:output.obj
 0001:00068340       ?type_case_a@?$output_processor@_WV?$string_output_adapter@_W@__crt_stdio_output@@V?$format_validation_base@_WV?$string_output_adapter@_W@__crt_stdio_output@@@2@@__crt_stdio_output@@AAE_NXZ 10069340 f i libucrtd:output.obj
 0001:00068610       ?type_case_a@?$output_processor@_WV?$string_output_adapter@_W@__crt_stdio_output@@V?$positional_parameter_base@_WV?$string_output_adapter@_W@__crt_stdio_output@@@2@@__crt_stdio_output@@AAE_NXZ 10069610 f i libucrtd:output.obj
 0001:000688e0       ?type_case_a@?$output_processor@_WV?$string_output_adapter@_W@__crt_stdio_output@@V?$standard_base@_WV?$string_output_adapter@_W@__crt_stdio_output@@@2@@__crt_stdio_output@@AAE_NXZ 100698e0 f i libucrtd:output.obj
 0001:00068bb0       ?type_case_c@?$output_processor@DV?$stream_output_adapter@D@__crt_stdio_output@@V?$format_validation_base@DV?$stream_output_adapter@D@__crt_stdio_output@@@2@@__crt_stdio_output@@AAE_NXZ 10069bb0 f i libucrtd:output.obj
 0001:00068bd0       ?type_case_c@?$output_processor@DV?$stream_output_adapter@D@__crt_stdio_output@@V?$positional_parameter_base@DV?$stream_output_adapter@D@__crt_stdio_output@@@2@@__crt_stdio_output@@AAE_NXZ 10069bd0 f i libucrtd:output.obj
 0001:00068bf0       ?type_case_c@?$output_processor@DV?$stream_output_adapter@D@__crt_stdio_output@@V?$standard_base@DV?$stream_output_adapter@D@__crt_stdio_output@@@2@@__crt_stdio_output@@AAE_NXZ 10069bf0 f i libucrtd:output.obj
 0001:00068c10       ?type_case_c@?$output_processor@DV?$string_output_adapter@D@__crt_stdio_output@@V?$format_validation_base@DV?$string_output_adapter@D@__crt_stdio_output@@@2@@__crt_stdio_output@@AAE_NXZ 10069c10 f i libucrtd:output.obj
 0001:00068c30       ?type_case_c@?$output_processor@DV?$string_output_adapter@D@__crt_stdio_output@@V?$positional_parameter_base@DV?$string_output_adapter@D@__crt_stdio_output@@@2@@__crt_stdio_output@@AAE_NXZ 10069c30 f i libucrtd:output.obj
 0001:00068c50       ?type_case_c@?$output_processor@DV?$string_output_adapter@D@__crt_stdio_output@@V?$standard_base@DV?$string_output_adapter@D@__crt_stdio_output@@@2@@__crt_stdio_output@@AAE_NXZ 10069c50 f i libucrtd:output.obj
 0001:00068c70       ?type_case_c@?$output_processor@_WV?$stream_output_adapter@_W@__crt_stdio_output@@V?$format_validation_base@_WV?$stream_output_adapter@_W@__crt_stdio_output@@@2@@__crt_stdio_output@@AAE_NXZ 10069c70 f i libucrtd:output.obj
 0001:00068c90       ?type_case_c@?$output_processor@_WV?$stream_output_adapter@_W@__crt_stdio_output@@V?$positional_parameter_base@_WV?$stream_output_adapter@_W@__crt_stdio_output@@@2@@__crt_stdio_output@@AAE_NXZ 10069c90 f i libucrtd:output.obj
 0001:00068cb0       ?type_case_c@?$output_processor@_WV?$stream_output_adapter@_W@__crt_stdio_output@@V?$standard_base@_WV?$stream_output_adapter@_W@__crt_stdio_output@@@2@@__crt_stdio_output@@AAE_NXZ 10069cb0 f i libucrtd:output.obj
 0001:00068cd0       ?type_case_c@?$output_processor@_WV?$string_output_adapter@_W@__crt_stdio_output@@V?$format_validation_base@_WV?$string_output_adapter@_W@__crt_stdio_output@@@2@@__crt_stdio_output@@AAE_NXZ 10069cd0 f i libucrtd:output.obj
 0001:00068cf0       ?type_case_c@?$output_processor@_WV?$string_output_adapter@_W@__crt_stdio_output@@V?$positional_parameter_base@_WV?$string_output_adapter@_W@__crt_stdio_output@@@2@@__crt_stdio_output@@AAE_NXZ 10069cf0 f i libucrtd:output.obj
 0001:00068d10       ?type_case_c@?$output_processor@_WV?$string_output_adapter@_W@__crt_stdio_output@@V?$standard_base@_WV?$string_output_adapter@_W@__crt_stdio_output@@@2@@__crt_stdio_output@@AAE_NXZ 10069d10 f i libucrtd:output.obj
 0001:00068d30       ?type_case_c_tchar@?$output_processor@DV?$stream_output_adapter@D@__crt_stdio_output@@V?$format_validation_base@DV?$stream_output_adapter@D@__crt_stdio_output@@@2@@__crt_stdio_output@@AAE_ND@Z 10069d30 f i libucrtd:output.obj
 0001:00068e60       ?type_case_c_tchar@?$output_processor@DV?$stream_output_adapter@D@__crt_stdio_output@@V?$positional_parameter_base@DV?$stream_output_adapter@D@__crt_stdio_output@@@2@@__crt_stdio_output@@AAE_ND@Z 10069e60 f i libucrtd:output.obj
 0001:00068f90       ?type_case_c_tchar@?$output_processor@DV?$stream_output_adapter@D@__crt_stdio_output@@V?$standard_base@DV?$stream_output_adapter@D@__crt_stdio_output@@@2@@__crt_stdio_output@@AAE_ND@Z 10069f90 f i libucrtd:output.obj
 0001:000690c0       ?type_case_c_tchar@?$output_processor@DV?$string_output_adapter@D@__crt_stdio_output@@V?$format_validation_base@DV?$string_output_adapter@D@__crt_stdio_output@@@2@@__crt_stdio_output@@AAE_ND@Z 1006a0c0 f i libucrtd:output.obj
 0001:000691f0       ?type_case_c_tchar@?$output_processor@DV?$string_output_adapter@D@__crt_stdio_output@@V?$positional_parameter_base@DV?$string_output_adapter@D@__crt_stdio_output@@@2@@__crt_stdio_output@@AAE_ND@Z 1006a1f0 f i libucrtd:output.obj
 0001:00069320       ?type_case_c_tchar@?$output_processor@DV?$string_output_adapter@D@__crt_stdio_output@@V?$standard_base@DV?$string_output_adapter@D@__crt_stdio_output@@@2@@__crt_stdio_output@@AAE_ND@Z 1006a320 f i libucrtd:output.obj
 0001:00069450       ?type_case_c_tchar@?$output_processor@_WV?$stream_output_adapter@_W@__crt_stdio_output@@V?$format_validation_base@_WV?$stream_output_adapter@_W@__crt_stdio_output@@@2@@__crt_stdio_output@@AAE_N_W@Z 1006a450 f i libucrtd:output.obj
 0001:00069570       ?type_case_c_tchar@?$output_processor@_WV?$stream_output_adapter@_W@__crt_stdio_output@@V?$positional_parameter_base@_WV?$stream_output_adapter@_W@__crt_stdio_output@@@2@@__crt_stdio_output@@AAE_N_W@Z 1006a570 f i libucrtd:output.obj
 0001:00069690       ?type_case_c_tchar@?$output_processor@_WV?$stream_output_adapter@_W@__crt_stdio_output@@V?$standard_base@_WV?$stream_output_adapter@_W@__crt_stdio_output@@@2@@__crt_stdio_output@@AAE_N_W@Z 1006a690 f i libucrtd:output.obj
 0001:000697b0       ?type_case_c_tchar@?$output_processor@_WV?$string_output_adapter@_W@__crt_stdio_output@@V?$format_validation_base@_WV?$string_output_adapter@_W@__crt_stdio_output@@@2@@__crt_stdio_output@@AAE_N_W@Z 1006a7b0 f i libucrtd:output.obj
 0001:000698d0       ?type_case_c_tchar@?$output_processor@_WV?$string_output_adapter@_W@__crt_stdio_output@@V?$positional_parameter_base@_WV?$string_output_adapter@_W@__crt_stdio_output@@@2@@__crt_stdio_output@@AAE_N_W@Z 1006a8d0 f i libucrtd:output.obj
 0001:000699f0       ?type_case_c_tchar@?$output_processor@_WV?$string_output_adapter@_W@__crt_stdio_output@@V?$standard_base@_WV?$string_output_adapter@_W@__crt_stdio_output@@@2@@__crt_stdio_output@@AAE_N_W@Z 1006a9f0 f i libucrtd:output.obj
 0001:00069b10       ?type_case_d@?$output_processor@DV?$stream_output_adapter@D@__crt_stdio_output@@V?$format_validation_base@DV?$stream_output_adapter@D@__crt_stdio_output@@@2@@__crt_stdio_output@@AAE_NXZ 1006ab10 f i libucrtd:output.obj
 0001:00069b40       ?type_case_d@?$output_processor@DV?$stream_output_adapter@D@__crt_stdio_output@@V?$positional_parameter_base@DV?$stream_output_adapter@D@__crt_stdio_output@@@2@@__crt_stdio_output@@AAE_NXZ 1006ab40 f i libucrtd:output.obj
 0001:00069b70       ?type_case_d@?$output_processor@DV?$stream_output_adapter@D@__crt_stdio_output@@V?$standard_base@DV?$stream_output_adapter@D@__crt_stdio_output@@@2@@__crt_stdio_output@@AAE_NXZ 1006ab70 f i libucrtd:output.obj
 0001:00069ba0       ?type_case_d@?$output_processor@DV?$string_output_adapter@D@__crt_stdio_output@@V?$format_validation_base@DV?$string_output_adapter@D@__crt_stdio_output@@@2@@__crt_stdio_output@@AAE_NXZ 1006aba0 f i libucrtd:output.obj
 0001:00069bd0       ?type_case_d@?$output_processor@DV?$string_output_adapter@D@__crt_stdio_output@@V?$positional_parameter_base@DV?$string_output_adapter@D@__crt_stdio_output@@@2@@__crt_stdio_output@@AAE_NXZ 1006abd0 f i libucrtd:output.obj
 0001:00069c00       ?type_case_d@?$output_processor@DV?$string_output_adapter@D@__crt_stdio_output@@V?$standard_base@DV?$string_output_adapter@D@__crt_stdio_output@@@2@@__crt_stdio_output@@AAE_NXZ 1006ac00 f i libucrtd:output.obj
 0001:00069c30       ?type_case_d@?$output_processor@_WV?$stream_output_adapter@_W@__crt_stdio_output@@V?$format_validation_base@_WV?$stream_output_adapter@_W@__crt_stdio_output@@@2@@__crt_stdio_output@@AAE_NXZ 1006ac30 f i libucrtd:output.obj
 0001:00069c60       ?type_case_d@?$output_processor@_WV?$stream_output_adapter@_W@__crt_stdio_output@@V?$positional_parameter_base@_WV?$stream_output_adapter@_W@__crt_stdio_output@@@2@@__crt_stdio_output@@AAE_NXZ 1006ac60 f i libucrtd:output.obj
 0001:00069c90       ?type_case_d@?$output_processor@_WV?$stream_output_adapter@_W@__crt_stdio_output@@V?$standard_base@_WV?$stream_output_adapter@_W@__crt_stdio_output@@@2@@__crt_stdio_output@@AAE_NXZ 1006ac90 f i libucrtd:output.obj
 0001:00069cc0       ?type_case_d@?$output_processor@_WV?$string_output_adapter@_W@__crt_stdio_output@@V?$format_validation_base@_WV?$string_output_adapter@_W@__crt_stdio_output@@@2@@__crt_stdio_output@@AAE_NXZ 1006acc0 f i libucrtd:output.obj
 0001:00069cf0       ?type_case_d@?$output_processor@_WV?$string_output_adapter@_W@__crt_stdio_output@@V?$positional_parameter_base@_WV?$string_output_adapter@_W@__crt_stdio_output@@@2@@__crt_stdio_output@@AAE_NXZ 1006acf0 f i libucrtd:output.obj
 0001:00069d20       ?type_case_d@?$output_processor@_WV?$string_output_adapter@_W@__crt_stdio_output@@V?$standard_base@_WV?$string_output_adapter@_W@__crt_stdio_output@@@2@@__crt_stdio_output@@AAE_NXZ 1006ad20 f i libucrtd:output.obj
 0001:00069d50       ?type_case_n@?$output_processor@DV?$stream_output_adapter@D@__crt_stdio_output@@V?$format_validation_base@DV?$stream_output_adapter@D@__crt_stdio_output@@@2@@__crt_stdio_output@@AAE_NXZ 1006ad50 f i libucrtd:output.obj
 0001:00069f70       ?type_case_n@?$output_processor@DV?$stream_output_adapter@D@__crt_stdio_output@@V?$positional_parameter_base@DV?$stream_output_adapter@D@__crt_stdio_output@@@2@@__crt_stdio_output@@AAE_NXZ 1006af70 f i libucrtd:output.obj
 0001:0006a190       ?type_case_n@?$output_processor@DV?$stream_output_adapter@D@__crt_stdio_output@@V?$standard_base@DV?$stream_output_adapter@D@__crt_stdio_output@@@2@@__crt_stdio_output@@AAE_NXZ 1006b190 f i libucrtd:output.obj
 0001:0006a3b0       ?type_case_n@?$output_processor@DV?$string_output_adapter@D@__crt_stdio_output@@V?$format_validation_base@DV?$string_output_adapter@D@__crt_stdio_output@@@2@@__crt_stdio_output@@AAE_NXZ 1006b3b0 f i libucrtd:output.obj
 0001:0006a5d0       ?type_case_n@?$output_processor@DV?$string_output_adapter@D@__crt_stdio_output@@V?$positional_parameter_base@DV?$string_output_adapter@D@__crt_stdio_output@@@2@@__crt_stdio_output@@AAE_NXZ 1006b5d0 f i libucrtd:output.obj
 0001:0006a7f0       ?type_case_n@?$output_processor@DV?$string_output_adapter@D@__crt_stdio_output@@V?$standard_base@DV?$string_output_adapter@D@__crt_stdio_output@@@2@@__crt_stdio_output@@AAE_NXZ 1006b7f0 f i libucrtd:output.obj
 0001:0006aa10       ?type_case_n@?$output_processor@_WV?$stream_output_adapter@_W@__crt_stdio_output@@V?$format_validation_base@_WV?$stream_output_adapter@_W@__crt_stdio_output@@@2@@__crt_stdio_output@@AAE_NXZ 1006ba10 f i libucrtd:output.obj
 0001:0006ac30       ?type_case_n@?$output_processor@_WV?$stream_output_adapter@_W@__crt_stdio_output@@V?$positional_parameter_base@_WV?$stream_output_adapter@_W@__crt_stdio_output@@@2@@__crt_stdio_output@@AAE_NXZ 1006bc30 f i libucrtd:output.obj
 0001:0006ae50       ?type_case_n@?$output_processor@_WV?$stream_output_adapter@_W@__crt_stdio_output@@V?$standard_base@_WV?$stream_output_adapter@_W@__crt_stdio_output@@@2@@__crt_stdio_output@@AAE_NXZ 1006be50 f i libucrtd:output.obj
 0001:0006b070       ?type_case_n@?$output_processor@_WV?$string_output_adapter@_W@__crt_stdio_output@@V?$format_validation_base@_WV?$string_output_adapter@_W@__crt_stdio_output@@@2@@__crt_stdio_output@@AAE_NXZ 1006c070 f i libucrtd:output.obj
 0001:0006b290       ?type_case_n@?$output_processor@_WV?$string_output_adapter@_W@__crt_stdio_output@@V?$positional_parameter_base@_WV?$string_output_adapter@_W@__crt_stdio_output@@@2@@__crt_stdio_output@@AAE_NXZ 1006c290 f i libucrtd:output.obj
 0001:0006b4b0       ?type_case_n@?$output_processor@_WV?$string_output_adapter@_W@__crt_stdio_output@@V?$standard_base@_WV?$string_output_adapter@_W@__crt_stdio_output@@@2@@__crt_stdio_output@@AAE_NXZ 1006c4b0 f i libucrtd:output.obj
 0001:0006b6d0       ?type_case_o@?$output_processor@DV?$stream_output_adapter@D@__crt_stdio_output@@V?$format_validation_base@DV?$stream_output_adapter@D@__crt_stdio_output@@@2@@__crt_stdio_output@@AAE_NXZ 1006c6d0 f i libucrtd:output.obj
 0001:0006b710       ?type_case_o@?$output_processor@DV?$stream_output_adapter@D@__crt_stdio_output@@V?$positional_parameter_base@DV?$stream_output_adapter@D@__crt_stdio_output@@@2@@__crt_stdio_output@@AAE_NXZ 1006c710 f i libucrtd:output.obj
 0001:0006b750       ?type_case_o@?$output_processor@DV?$stream_output_adapter@D@__crt_stdio_output@@V?$standard_base@DV?$stream_output_adapter@D@__crt_stdio_output@@@2@@__crt_stdio_output@@AAE_NXZ 1006c750 f i libucrtd:output.obj
 0001:0006b790       ?type_case_o@?$output_processor@DV?$string_output_adapter@D@__crt_stdio_output@@V?$format_validation_base@DV?$string_output_adapter@D@__crt_stdio_output@@@2@@__crt_stdio_output@@AAE_NXZ 1006c790 f i libucrtd:output.obj
 0001:0006b7d0       ?type_case_o@?$output_processor@DV?$string_output_adapter@D@__crt_stdio_output@@V?$positional_parameter_base@DV?$string_output_adapter@D@__crt_stdio_output@@@2@@__crt_stdio_output@@AAE_NXZ 1006c7d0 f i libucrtd:output.obj
 0001:0006b810       ?type_case_o@?$output_processor@DV?$string_output_adapter@D@__crt_stdio_output@@V?$standard_base@DV?$string_output_adapter@D@__crt_stdio_output@@@2@@__crt_stdio_output@@AAE_NXZ 1006c810 f i libucrtd:output.obj
 0001:0006b850       ?type_case_o@?$output_processor@_WV?$stream_output_adapter@_W@__crt_stdio_output@@V?$format_validation_base@_WV?$stream_output_adapter@_W@__crt_stdio_output@@@2@@__crt_stdio_output@@AAE_NXZ 1006c850 f i libucrtd:output.obj
 0001:0006b890       ?type_case_o@?$output_processor@_WV?$stream_output_adapter@_W@__crt_stdio_output@@V?$positional_parameter_base@_WV?$stream_output_adapter@_W@__crt_stdio_output@@@2@@__crt_stdio_output@@AAE_NXZ 1006c890 f i libucrtd:output.obj
 0001:0006b8d0       ?type_case_o@?$output_processor@_WV?$stream_output_adapter@_W@__crt_stdio_output@@V?$standard_base@_WV?$stream_output_adapter@_W@__crt_stdio_output@@@2@@__crt_stdio_output@@AAE_NXZ 1006c8d0 f i libucrtd:output.obj
 0001:0006b910       ?type_case_o@?$output_processor@_WV?$string_output_adapter@_W@__crt_stdio_output@@V?$format_validation_base@_WV?$string_output_adapter@_W@__crt_stdio_output@@@2@@__crt_stdio_output@@AAE_NXZ 1006c910 f i libucrtd:output.obj
 0001:0006b950       ?type_case_o@?$output_processor@_WV?$string_output_adapter@_W@__crt_stdio_output@@V?$positional_parameter_base@_WV?$string_output_adapter@_W@__crt_stdio_output@@@2@@__crt_stdio_output@@AAE_NXZ 1006c950 f i libucrtd:output.obj
 0001:0006b990       ?type_case_o@?$output_processor@_WV?$string_output_adapter@_W@__crt_stdio_output@@V?$standard_base@_WV?$string_output_adapter@_W@__crt_stdio_output@@@2@@__crt_stdio_output@@AAE_NXZ 1006c990 f i libucrtd:output.obj
 0001:0006b9d0       ?type_case_p@?$output_processor@DV?$stream_output_adapter@D@__crt_stdio_output@@V?$format_validation_base@DV?$stream_output_adapter@D@__crt_stdio_output@@@2@@__crt_stdio_output@@AAE_NXZ 1006c9d0 f i libucrtd:output.obj
 0001:0006ba00       ?type_case_p@?$output_processor@DV?$stream_output_adapter@D@__crt_stdio_output@@V?$positional_parameter_base@DV?$stream_output_adapter@D@__crt_stdio_output@@@2@@__crt_stdio_output@@AAE_NXZ 1006ca00 f i libucrtd:output.obj
 0001:0006ba30       ?type_case_p@?$output_processor@DV?$stream_output_adapter@D@__crt_stdio_output@@V?$standard_base@DV?$stream_output_adapter@D@__crt_stdio_output@@@2@@__crt_stdio_output@@AAE_NXZ 1006ca30 f i libucrtd:output.obj
 0001:0006ba60       ?type_case_p@?$output_processor@DV?$string_output_adapter@D@__crt_stdio_output@@V?$format_validation_base@DV?$string_output_adapter@D@__crt_stdio_output@@@2@@__crt_stdio_output@@AAE_NXZ 1006ca60 f i libucrtd:output.obj
 0001:0006ba90       ?type_case_p@?$output_processor@DV?$string_output_adapter@D@__crt_stdio_output@@V?$positional_parameter_base@DV?$string_output_adapter@D@__crt_stdio_output@@@2@@__crt_stdio_output@@AAE_NXZ 1006ca90 f i libucrtd:output.obj
 0001:0006bac0       ?type_case_p@?$output_processor@DV?$string_output_adapter@D@__crt_stdio_output@@V?$standard_base@DV?$string_output_adapter@D@__crt_stdio_output@@@2@@__crt_stdio_output@@AAE_NXZ 1006cac0 f i libucrtd:output.obj
 0001:0006baf0       ?type_case_p@?$output_processor@_WV?$stream_output_adapter@_W@__crt_stdio_output@@V?$format_validation_base@_WV?$stream_output_adapter@_W@__crt_stdio_output@@@2@@__crt_stdio_output@@AAE_NXZ 1006caf0 f i libucrtd:output.obj
 0001:0006bb20       ?type_case_p@?$output_processor@_WV?$stream_output_adapter@_W@__crt_stdio_output@@V?$positional_parameter_base@_WV?$stream_output_adapter@_W@__crt_stdio_output@@@2@@__crt_stdio_output@@AAE_NXZ 1006cb20 f i libucrtd:output.obj
 0001:0006bb50       ?type_case_p@?$output_processor@_WV?$stream_output_adapter@_W@__crt_stdio_output@@V?$standard_base@_WV?$stream_output_adapter@_W@__crt_stdio_output@@@2@@__crt_stdio_output@@AAE_NXZ 1006cb50 f i libucrtd:output.obj
 0001:0006bb80       ?type_case_p@?$output_processor@_WV?$string_output_adapter@_W@__crt_stdio_output@@V?$format_validation_base@_WV?$string_output_adapter@_W@__crt_stdio_output@@@2@@__crt_stdio_output@@AAE_NXZ 1006cb80 f i libucrtd:output.obj
 0001:0006bbb0       ?type_case_p@?$output_processor@_WV?$string_output_adapter@_W@__crt_stdio_output@@V?$positional_parameter_base@_WV?$string_output_adapter@_W@__crt_stdio_output@@@2@@__crt_stdio_output@@AAE_NXZ 1006cbb0 f i libucrtd:output.obj
 0001:0006bbe0       ?type_case_p@?$output_processor@_WV?$string_output_adapter@_W@__crt_stdio_output@@V?$standard_base@_WV?$string_output_adapter@_W@__crt_stdio_output@@@2@@__crt_stdio_output@@AAE_NXZ 1006cbe0 f i libucrtd:output.obj
 0001:0006bc10       ?type_case_s@?$output_processor@DV?$stream_output_adapter@D@__crt_stdio_output@@V?$format_validation_base@DV?$stream_output_adapter@D@__crt_stdio_output@@@2@@__crt_stdio_output@@AAE_NXZ 1006cc10 f i libucrtd:output.obj
 0001:0006bd00       ?type_case_s@?$output_processor@DV?$stream_output_adapter@D@__crt_stdio_output@@V?$positional_parameter_base@DV?$stream_output_adapter@D@__crt_stdio_output@@@2@@__crt_stdio_output@@AAE_NXZ 1006cd00 f i libucrtd:output.obj
 0001:0006bdf0       ?type_case_s@?$output_processor@DV?$stream_output_adapter@D@__crt_stdio_output@@V?$standard_base@DV?$stream_output_adapter@D@__crt_stdio_output@@@2@@__crt_stdio_output@@AAE_NXZ 1006cdf0 f i libucrtd:output.obj
 0001:0006bee0       ?type_case_s@?$output_processor@DV?$string_output_adapter@D@__crt_stdio_output@@V?$format_validation_base@DV?$string_output_adapter@D@__crt_stdio_output@@@2@@__crt_stdio_output@@AAE_NXZ 1006cee0 f i libucrtd:output.obj
 0001:0006bfd0       ?type_case_s@?$output_processor@DV?$string_output_adapter@D@__crt_stdio_output@@V?$positional_parameter_base@DV?$string_output_adapter@D@__crt_stdio_output@@@2@@__crt_stdio_output@@AAE_NXZ 1006cfd0 f i libucrtd:output.obj
 0001:0006c0c0       ?type_case_s@?$output_processor@DV?$string_output_adapter@D@__crt_stdio_output@@V?$standard_base@DV?$string_output_adapter@D@__crt_stdio_output@@@2@@__crt_stdio_output@@AAE_NXZ 1006d0c0 f i libucrtd:output.obj
 0001:0006c1b0       ?type_case_s@?$output_processor@_WV?$stream_output_adapter@_W@__crt_stdio_output@@V?$format_validation_base@_WV?$stream_output_adapter@_W@__crt_stdio_output@@@2@@__crt_stdio_output@@AAE_NXZ 1006d1b0 f i libucrtd:output.obj
 0001:0006c2a0       ?type_case_s@?$output_processor@_WV?$stream_output_adapter@_W@__crt_stdio_output@@V?$positional_parameter_base@_WV?$stream_output_adapter@_W@__crt_stdio_output@@@2@@__crt_stdio_output@@AAE_NXZ 1006d2a0 f i libucrtd:output.obj
 0001:0006c390       ?type_case_s@?$output_processor@_WV?$stream_output_adapter@_W@__crt_stdio_output@@V?$standard_base@_WV?$stream_output_adapter@_W@__crt_stdio_output@@@2@@__crt_stdio_output@@AAE_NXZ 1006d390 f i libucrtd:output.obj
 0001:0006c480       ?type_case_s@?$output_processor@_WV?$string_output_adapter@_W@__crt_stdio_output@@V?$format_validation_base@_WV?$string_output_adapter@_W@__crt_stdio_output@@@2@@__crt_stdio_output@@AAE_NXZ 1006d480 f i libucrtd:output.obj
 0001:0006c570       ?type_case_s@?$output_processor@_WV?$string_output_adapter@_W@__crt_stdio_output@@V?$positional_parameter_base@_WV?$string_output_adapter@_W@__crt_stdio_output@@@2@@__crt_stdio_output@@AAE_NXZ 1006d570 f i libucrtd:output.obj
 0001:0006c660       ?type_case_s@?$output_processor@_WV?$string_output_adapter@_W@__crt_stdio_output@@V?$standard_base@_WV?$string_output_adapter@_W@__crt_stdio_output@@@2@@__crt_stdio_output@@AAE_NXZ 1006d660 f i libucrtd:output.obj
 0001:0006c750       ?type_case_s_compute_narrow_string_length@?$output_processor@DV?$stream_output_adapter@D@__crt_stdio_output@@V?$format_validation_base@DV?$stream_output_adapter@D@__crt_stdio_output@@@2@@__crt_stdio_output@@AAEHHD@Z 1006d750 f i libucrtd:output.obj
 0001:0006c780       ?type_case_s_compute_narrow_string_length@?$output_processor@DV?$stream_output_adapter@D@__crt_stdio_output@@V?$positional_parameter_base@DV?$stream_output_adapter@D@__crt_stdio_output@@@2@@__crt_stdio_output@@AAEHHD@Z 1006d780 f i libucrtd:output.obj
 0001:0006c7b0       ?type_case_s_compute_narrow_string_length@?$output_processor@DV?$stream_output_adapter@D@__crt_stdio_output@@V?$standard_base@DV?$stream_output_adapter@D@__crt_stdio_output@@@2@@__crt_stdio_output@@AAEHHD@Z 1006d7b0 f i libucrtd:output.obj
 0001:0006c7e0       ?type_case_s_compute_narrow_string_length@?$output_processor@DV?$string_output_adapter@D@__crt_stdio_output@@V?$format_validation_base@DV?$string_output_adapter@D@__crt_stdio_output@@@2@@__crt_stdio_output@@AAEHHD@Z 1006d7e0 f i libucrtd:output.obj
 0001:0006c810       ?type_case_s_compute_narrow_string_length@?$output_processor@DV?$string_output_adapter@D@__crt_stdio_output@@V?$positional_parameter_base@DV?$string_output_adapter@D@__crt_stdio_output@@@2@@__crt_stdio_output@@AAEHHD@Z 1006d810 f i libucrtd:output.obj
 0001:0006c840       ?type_case_s_compute_narrow_string_length@?$output_processor@DV?$string_output_adapter@D@__crt_stdio_output@@V?$standard_base@DV?$string_output_adapter@D@__crt_stdio_output@@@2@@__crt_stdio_output@@AAEHHD@Z 1006d840 f i libucrtd:output.obj
 0001:0006c870       ?type_case_s_compute_narrow_string_length@?$output_processor@_WV?$stream_output_adapter@_W@__crt_stdio_output@@V?$format_validation_base@_WV?$stream_output_adapter@_W@__crt_stdio_output@@@2@@__crt_stdio_output@@AAEHH_W@Z 1006d870 f i libucrtd:output.obj
 0001:0006c8f0       ?type_case_s_compute_narrow_string_length@?$output_processor@_WV?$stream_output_adapter@_W@__crt_stdio_output@@V?$positional_parameter_base@_WV?$stream_output_adapter@_W@__crt_stdio_output@@@2@@__crt_stdio_output@@AAEHH_W@Z 1006d8f0 f i libucrtd:output.obj
 0001:0006c970       ?type_case_s_compute_narrow_string_length@?$output_processor@_WV?$stream_output_adapter@_W@__crt_stdio_output@@V?$standard_base@_WV?$stream_output_adapter@_W@__crt_stdio_output@@@2@@__crt_stdio_output@@AAEHH_W@Z 1006d970 f i libucrtd:output.obj
 0001:0006c9f0       ?type_case_s_compute_narrow_string_length@?$output_processor@_WV?$string_output_adapter@_W@__crt_stdio_output@@V?$format_validation_base@_WV?$string_output_adapter@_W@__crt_stdio_output@@@2@@__crt_stdio_output@@AAEHH_W@Z 1006d9f0 f i libucrtd:output.obj
 0001:0006ca70       ?type_case_s_compute_narrow_string_length@?$output_processor@_WV?$string_output_adapter@_W@__crt_stdio_output@@V?$positional_parameter_base@_WV?$string_output_adapter@_W@__crt_stdio_output@@@2@@__crt_stdio_output@@AAEHH_W@Z 1006da70 f i libucrtd:output.obj
 0001:0006caf0       ?type_case_s_compute_narrow_string_length@?$output_processor@_WV?$string_output_adapter@_W@__crt_stdio_output@@V?$standard_base@_WV?$string_output_adapter@_W@__crt_stdio_output@@@2@@__crt_stdio_output@@AAEHH_W@Z 1006daf0 f i libucrtd:output.obj
 0001:0006cb70       ?type_case_u@?$output_processor@DV?$stream_output_adapter@D@__crt_stdio_output@@V?$format_validation_base@DV?$stream_output_adapter@D@__crt_stdio_output@@@2@@__crt_stdio_output@@AAE_NXZ 1006db70 f i libucrtd:output.obj
 0001:0006cb90       ?type_case_u@?$output_processor@DV?$stream_output_adapter@D@__crt_stdio_output@@V?$positional_parameter_base@DV?$stream_output_adapter@D@__crt_stdio_output@@@2@@__crt_stdio_output@@AAE_NXZ 1006db90 f i libucrtd:output.obj
 0001:0006cbb0       ?type_case_u@?$output_processor@DV?$stream_output_adapter@D@__crt_stdio_output@@V?$standard_base@DV?$stream_output_adapter@D@__crt_stdio_output@@@2@@__crt_stdio_output@@AAE_NXZ 1006dbb0 f i libucrtd:output.obj
 0001:0006cbd0       ?type_case_u@?$output_processor@DV?$string_output_adapter@D@__crt_stdio_output@@V?$format_validation_base@DV?$string_output_adapter@D@__crt_stdio_output@@@2@@__crt_stdio_output@@AAE_NXZ 1006dbd0 f i libucrtd:output.obj
 0001:0006cbf0       ?type_case_u@?$output_processor@DV?$string_output_adapter@D@__crt_stdio_output@@V?$positional_parameter_base@DV?$string_output_adapter@D@__crt_stdio_output@@@2@@__crt_stdio_output@@AAE_NXZ 1006dbf0 f i libucrtd:output.obj
 0001:0006cc10       ?type_case_u@?$output_processor@DV?$string_output_adapter@D@__crt_stdio_output@@V?$standard_base@DV?$string_output_adapter@D@__crt_stdio_output@@@2@@__crt_stdio_output@@AAE_NXZ 1006dc10 f i libucrtd:output.obj
 0001:0006cc30       ?type_case_u@?$output_processor@_WV?$stream_output_adapter@_W@__crt_stdio_output@@V?$format_validation_base@_WV?$stream_output_adapter@_W@__crt_stdio_output@@@2@@__crt_stdio_output@@AAE_NXZ 1006dc30 f i libucrtd:output.obj
 0001:0006cc50       ?type_case_u@?$output_processor@_WV?$stream_output_adapter@_W@__crt_stdio_output@@V?$positional_parameter_base@_WV?$stream_output_adapter@_W@__crt_stdio_output@@@2@@__crt_stdio_output@@AAE_NXZ 1006dc50 f i libucrtd:output.obj
 0001:0006cc70       ?type_case_u@?$output_processor@_WV?$stream_output_adapter@_W@__crt_stdio_output@@V?$standard_base@_WV?$stream_output_adapter@_W@__crt_stdio_output@@@2@@__crt_stdio_output@@AAE_NXZ 1006dc70 f i libucrtd:output.obj
 0001:0006cc90       ?type_case_u@?$output_processor@_WV?$string_output_adapter@_W@__crt_stdio_output@@V?$format_validation_base@_WV?$string_output_adapter@_W@__crt_stdio_output@@@2@@__crt_stdio_output@@AAE_NXZ 1006dc90 f i libucrtd:output.obj
 0001:0006ccb0       ?type_case_u@?$output_processor@_WV?$string_output_adapter@_W@__crt_stdio_output@@V?$positional_parameter_base@_WV?$string_output_adapter@_W@__crt_stdio_output@@@2@@__crt_stdio_output@@AAE_NXZ 1006dcb0 f i libucrtd:output.obj
 0001:0006ccd0       ?type_case_u@?$output_processor@_WV?$string_output_adapter@_W@__crt_stdio_output@@V?$standard_base@_WV?$string_output_adapter@_W@__crt_stdio_output@@@2@@__crt_stdio_output@@AAE_NXZ 1006dcd0 f i libucrtd:output.obj
 0001:0006ccf0       ?type_case_x@?$output_processor@DV?$stream_output_adapter@D@__crt_stdio_output@@V?$format_validation_base@DV?$stream_output_adapter@D@__crt_stdio_output@@@2@@__crt_stdio_output@@AAE_NXZ 1006dcf0 f i libucrtd:output.obj
 0001:0006cd10       ?type_case_x@?$output_processor@DV?$stream_output_adapter@D@__crt_stdio_output@@V?$positional_parameter_base@DV?$stream_output_adapter@D@__crt_stdio_output@@@2@@__crt_stdio_output@@AAE_NXZ 1006dd10 f i libucrtd:output.obj
 0001:0006cd30       ?type_case_x@?$output_processor@DV?$stream_output_adapter@D@__crt_stdio_output@@V?$standard_base@DV?$stream_output_adapter@D@__crt_stdio_output@@@2@@__crt_stdio_output@@AAE_NXZ 1006dd30 f i libucrtd:output.obj
 0001:0006cd50       ?type_case_x@?$output_processor@DV?$string_output_adapter@D@__crt_stdio_output@@V?$format_validation_base@DV?$string_output_adapter@D@__crt_stdio_output@@@2@@__crt_stdio_output@@AAE_NXZ 1006dd50 f i libucrtd:output.obj
 0001:0006cd70       ?type_case_x@?$output_processor@DV?$string_output_adapter@D@__crt_stdio_output@@V?$positional_parameter_base@DV?$string_output_adapter@D@__crt_stdio_output@@@2@@__crt_stdio_output@@AAE_NXZ 1006dd70 f i libucrtd:output.obj
 0001:0006cd90       ?type_case_x@?$output_processor@DV?$string_output_adapter@D@__crt_stdio_output@@V?$standard_base@DV?$string_output_adapter@D@__crt_stdio_output@@@2@@__crt_stdio_output@@AAE_NXZ 1006dd90 f i libucrtd:output.obj
 0001:0006cdb0       ?type_case_x@?$output_processor@_WV?$stream_output_adapter@_W@__crt_stdio_output@@V?$format_validation_base@_WV?$stream_output_adapter@_W@__crt_stdio_output@@@2@@__crt_stdio_output@@AAE_NXZ 1006ddb0 f i libucrtd:output.obj
 0001:0006cdd0       ?type_case_x@?$output_processor@_WV?$stream_output_adapter@_W@__crt_stdio_output@@V?$positional_parameter_base@_WV?$stream_output_adapter@_W@__crt_stdio_output@@@2@@__crt_stdio_output@@AAE_NXZ 1006ddd0 f i libucrtd:output.obj
 0001:0006cdf0       ?type_case_x@?$output_processor@_WV?$stream_output_adapter@_W@__crt_stdio_output@@V?$standard_base@_WV?$stream_output_adapter@_W@__crt_stdio_output@@@2@@__crt_stdio_output@@AAE_NXZ 1006ddf0 f i libucrtd:output.obj
 0001:0006ce10       ?type_case_x@?$output_processor@_WV?$string_output_adapter@_W@__crt_stdio_output@@V?$format_validation_base@_WV?$string_output_adapter@_W@__crt_stdio_output@@@2@@__crt_stdio_output@@AAE_NXZ 1006de10 f i libucrtd:output.obj
 0001:0006ce30       ?type_case_x@?$output_processor@_WV?$string_output_adapter@_W@__crt_stdio_output@@V?$positional_parameter_base@_WV?$string_output_adapter@_W@__crt_stdio_output@@@2@@__crt_stdio_output@@AAE_NXZ 1006de30 f i libucrtd:output.obj
 0001:0006ce50       ?type_case_x@?$output_processor@_WV?$string_output_adapter@_W@__crt_stdio_output@@V?$standard_base@_WV?$string_output_adapter@_W@__crt_stdio_output@@@2@@__crt_stdio_output@@AAE_NXZ 1006de50 f i libucrtd:output.obj
 0001:0006ce70       ?unget@?$c_string_character_source@D@__crt_strtox@@QAEXD@Z 1006de70 f i libucrtd:output.obj
 0001:0006cf20       ?unget@?$c_string_character_source@_W@__crt_strtox@@QAEX_W@Z 1006df20 f i libucrtd:output.obj
 0001:0006cfd0       ?unsafe_value@?$cached@H@__crt_cached_ptd_host@@QAEHXZ 1006dfd0 f i libucrtd:output.obj
 0001:0006cff0       ?unsafe_value@?$cached@K@__crt_cached_ptd_host@@QAEKXZ 1006dff0 f i libucrtd:output.obj
 0001:0006d010       ?unset_flag@?$output_processor@DV?$stream_output_adapter@D@__crt_stdio_output@@V?$format_validation_base@DV?$stream_output_adapter@D@__crt_stdio_output@@@2@@__crt_stdio_output@@AAEXI@Z 1006e010 f i libucrtd:output.obj
 0001:0006d030       ?unset_flag@?$output_processor@DV?$stream_output_adapter@D@__crt_stdio_output@@V?$positional_parameter_base@DV?$stream_output_adapter@D@__crt_stdio_output@@@2@@__crt_stdio_output@@AAEXI@Z 1006e030 f i libucrtd:output.obj
 0001:0006d050       ?unset_flag@?$output_processor@DV?$stream_output_adapter@D@__crt_stdio_output@@V?$standard_base@DV?$stream_output_adapter@D@__crt_stdio_output@@@2@@__crt_stdio_output@@AAEXI@Z 1006e050 f i libucrtd:output.obj
 0001:0006d070       ?unset_flag@?$output_processor@DV?$string_output_adapter@D@__crt_stdio_output@@V?$format_validation_base@DV?$string_output_adapter@D@__crt_stdio_output@@@2@@__crt_stdio_output@@AAEXI@Z 1006e070 f i libucrtd:output.obj
 0001:0006d090       ?unset_flag@?$output_processor@DV?$string_output_adapter@D@__crt_stdio_output@@V?$positional_parameter_base@DV?$string_output_adapter@D@__crt_stdio_output@@@2@@__crt_stdio_output@@AAEXI@Z 1006e090 f i libucrtd:output.obj
 0001:0006d0b0       ?unset_flag@?$output_processor@DV?$string_output_adapter@D@__crt_stdio_output@@V?$standard_base@DV?$string_output_adapter@D@__crt_stdio_output@@@2@@__crt_stdio_output@@AAEXI@Z 1006e0b0 f i libucrtd:output.obj
 0001:0006d0d0       ?unset_flag@?$output_processor@_WV?$stream_output_adapter@_W@__crt_stdio_output@@V?$format_validation_base@_WV?$stream_output_adapter@_W@__crt_stdio_output@@@2@@__crt_stdio_output@@AAEXI@Z 1006e0d0 f i libucrtd:output.obj
 0001:0006d0f0       ?unset_flag@?$output_processor@_WV?$stream_output_adapter@_W@__crt_stdio_output@@V?$positional_parameter_base@_WV?$stream_output_adapter@_W@__crt_stdio_output@@@2@@__crt_stdio_output@@AAEXI@Z 1006e0f0 f i libucrtd:output.obj
 0001:0006d110       ?unset_flag@?$output_processor@_WV?$stream_output_adapter@_W@__crt_stdio_output@@V?$standard_base@_WV?$stream_output_adapter@_W@__crt_stdio_output@@@2@@__crt_stdio_output@@AAEXI@Z 1006e110 f i libucrtd:output.obj
 0001:0006d130       ?unset_flag@?$output_processor@_WV?$string_output_adapter@_W@__crt_stdio_output@@V?$format_validation_base@_WV?$string_output_adapter@_W@__crt_stdio_output@@@2@@__crt_stdio_output@@AAEXI@Z 1006e130 f i libucrtd:output.obj
 0001:0006d150       ?unset_flag@?$output_processor@_WV?$string_output_adapter@_W@__crt_stdio_output@@V?$positional_parameter_base@_WV?$string_output_adapter@_W@__crt_stdio_output@@@2@@__crt_stdio_output@@AAEXI@Z 1006e150 f i libucrtd:output.obj
 0001:0006d170       ?unset_flag@?$output_processor@_WV?$string_output_adapter@_W@__crt_stdio_output@@V?$standard_base@_WV?$string_output_adapter@_W@__crt_stdio_output@@@2@@__crt_stdio_output@@AAEXI@Z 1006e170 f i libucrtd:output.obj
 0001:0006d190       ?update_field_width@?$positional_parameter_base@DV?$stream_output_adapter@D@__crt_stdio_output@@@__crt_stdio_output@@IAE_NXZ 1006e190 f i libucrtd:output.obj
 0001:0006d320       ?update_field_width@?$positional_parameter_base@DV?$string_output_adapter@D@__crt_stdio_output@@@__crt_stdio_output@@IAE_NXZ 1006e320 f i libucrtd:output.obj
 0001:0006d4b0       ?update_field_width@?$positional_parameter_base@_WV?$stream_output_adapter@_W@__crt_stdio_output@@@__crt_stdio_output@@IAE_NXZ 1006e4b0 f i libucrtd:output.obj
 0001:0006d640       ?update_field_width@?$positional_parameter_base@_WV?$string_output_adapter@_W@__crt_stdio_output@@@__crt_stdio_output@@IAE_NXZ 1006e640 f i libucrtd:output.obj
 0001:0006d7d0       ?update_field_width@?$standard_base@DV?$stream_output_adapter@D@__crt_stdio_output@@@__crt_stdio_output@@IAE_NXZ 1006e7d0 f i libucrtd:output.obj
 0001:0006d800       ?update_field_width@?$standard_base@DV?$string_output_adapter@D@__crt_stdio_output@@@__crt_stdio_output@@IAE_NXZ 1006e800 f i libucrtd:output.obj
 0001:0006d830       ?update_field_width@?$standard_base@_WV?$stream_output_adapter@_W@__crt_stdio_output@@@__crt_stdio_output@@IAE_NXZ 1006e830 f i libucrtd:output.obj
 0001:0006d860       ?update_field_width@?$standard_base@_WV?$string_output_adapter@_W@__crt_stdio_output@@@__crt_stdio_output@@IAE_NXZ 1006e860 f i libucrtd:output.obj
 0001:0006d890       ?update_locale@__crt_cached_ptd_host@@AAEXXZ 1006e890 f i libucrtd:output.obj
 0001:0006d8b0       ?update_locale_slow@__crt_cached_ptd_host@@AAEXXZ 1006e8b0 f i libucrtd:output.obj
 0001:0006d940       ?update_precision@?$positional_parameter_base@DV?$stream_output_adapter@D@__crt_stdio_output@@@__crt_stdio_output@@IAE_NXZ 1006e940 f i libucrtd:output.obj
 0001:0006dad0       ?update_precision@?$positional_parameter_base@DV?$string_output_adapter@D@__crt_stdio_output@@@__crt_stdio_output@@IAE_NXZ 1006ead0 f i libucrtd:output.obj
 0001:0006dc60       ?update_precision@?$positional_parameter_base@_WV?$stream_output_adapter@_W@__crt_stdio_output@@@__crt_stdio_output@@IAE_NXZ 1006ec60 f i libucrtd:output.obj
 0001:0006ddf0       ?update_precision@?$positional_parameter_base@_WV?$string_output_adapter@_W@__crt_stdio_output@@@__crt_stdio_output@@IAE_NXZ 1006edf0 f i libucrtd:output.obj
 0001:0006df80       ?update_precision@?$standard_base@DV?$stream_output_adapter@D@__crt_stdio_output@@@__crt_stdio_output@@IAE_NXZ 1006ef80 f i libucrtd:output.obj
 0001:0006dfb0       ?update_precision@?$standard_base@DV?$string_output_adapter@D@__crt_stdio_output@@@__crt_stdio_output@@IAE_NXZ 1006efb0 f i libucrtd:output.obj
 0001:0006dfe0       ?update_precision@?$standard_base@_WV?$stream_output_adapter@_W@__crt_stdio_output@@@__crt_stdio_output@@IAE_NXZ 1006efe0 f i libucrtd:output.obj
 0001:0006e010       ?update_precision@?$standard_base@_WV?$string_output_adapter@_W@__crt_stdio_output@@@__crt_stdio_output@@IAE_NXZ 1006f010 f i libucrtd:output.obj
 0001:0006e040       ?valid@?$cached@H@__crt_cached_ptd_host@@QBE_NXZ 1006f040 f i libucrtd:output.obj
 0001:0006e060       ?valid@?$cached@K@__crt_cached_ptd_host@@QBE_NXZ 1006f060 f i libucrtd:output.obj
 0001:0006e080       ?valid@__crt_stdio_stream@@QBE_NXZ 1006f080 f i libucrtd:output.obj
 0001:0006e0b0       ?validate@?$c_string_character_source@D@__crt_strtox@@QBE_NXZ 1006f0b0 f i libucrtd:output.obj
 0001:0006e140       ?validate@?$c_string_character_source@_W@__crt_strtox@@QBE_NXZ 1006f140 f i libucrtd:output.obj
 0001:0006e1d0       ?validate@?$stream_output_adapter@D@__crt_stdio_output@@QBE_NAAV__crt_cached_ptd_host@@@Z 1006f1d0 f i libucrtd:output.obj
 0001:0006e290       ?validate@?$stream_output_adapter@_W@__crt_stdio_output@@QBE_NAAV__crt_cached_ptd_host@@@Z 1006f290 f i libucrtd:output.obj
 0001:0006e350       ?validate@?$string_output_adapter@D@__crt_stdio_output@@QBE_NAAV__crt_cached_ptd_host@@@Z 1006f350 f i libucrtd:output.obj
 0001:0006e3f0       ?validate@?$string_output_adapter@_W@__crt_stdio_output@@QBE_NAAV__crt_cached_ptd_host@@@Z 1006f3f0 f i libucrtd:output.obj
 0001:0006e490       ?validate_and_store_parameter_data@?$positional_parameter_base@DV?$stream_output_adapter@D@__crt_stdio_output@@@__crt_stdio_output@@AAE_NAAUparameter_data@12@W4parameter_type@12@DW4length_modifier@2@@Z 1006f490 f i libucrtd:output.obj
 0001:0006e580       ?validate_and_store_parameter_data@?$positional_parameter_base@DV?$string_output_adapter@D@__crt_stdio_output@@@__crt_stdio_output@@AAE_NAAUparameter_data@12@W4parameter_type@12@DW4length_modifier@2@@Z 1006f580 f i libucrtd:output.obj
 0001:0006e670       ?validate_and_store_parameter_data@?$positional_parameter_base@_WV?$stream_output_adapter@_W@__crt_stdio_output@@@__crt_stdio_output@@AAE_NAAUparameter_data@12@W4parameter_type@12@_WW4length_modifier@2@@Z 1006f670 f i libucrtd:output.obj
 0001:0006e760       ?validate_and_store_parameter_data@?$positional_parameter_base@_WV?$string_output_adapter@_W@__crt_stdio_output@@@__crt_stdio_output@@AAE_NAAUparameter_data@12@W4parameter_type@12@_WW4length_modifier@2@@Z 1006f760 f i libucrtd:output.obj
 0001:0006e850       ?validate_and_update_state_at_beginning_of_format_character@?$positional_parameter_base@DV?$stream_output_adapter@D@__crt_stdio_output@@@__crt_stdio_output@@IAE_NXZ 1006f850 f i libucrtd:output.obj
 0001:0006ea80       ?validate_and_update_state_at_beginning_of_format_character@?$positional_parameter_base@DV?$string_output_adapter@D@__crt_stdio_output@@@__crt_stdio_output@@IAE_NXZ 1006fa80 f i libucrtd:output.obj
 0001:0006ecb0       ?validate_and_update_state_at_beginning_of_format_character@?$positional_parameter_base@_WV?$stream_output_adapter@_W@__crt_stdio_output@@@__crt_stdio_output@@IAE_NXZ 1006fcb0 f i libucrtd:output.obj
 0001:0006eee0       ?validate_and_update_state_at_beginning_of_format_character@?$positional_parameter_base@_WV?$string_output_adapter@_W@__crt_stdio_output@@@__crt_stdio_output@@IAE_NXZ 1006fee0 f i libucrtd:output.obj
 0001:0006f110       ?validate_and_update_state_at_beginning_of_format_character@?$standard_base@DV?$stream_output_adapter@D@__crt_stdio_output@@@__crt_stdio_output@@IAE_NXZ 10070110 f i libucrtd:output.obj
 0001:0006f120       ?validate_and_update_state_at_beginning_of_format_character@?$standard_base@DV?$string_output_adapter@D@__crt_stdio_output@@@__crt_stdio_output@@IAE_NXZ 10070120 f i libucrtd:output.obj
 0001:0006f130       ?validate_and_update_state_at_beginning_of_format_character@?$standard_base@_WV?$stream_output_adapter@_W@__crt_stdio_output@@@__crt_stdio_output@@IAE_NXZ 10070130 f i libucrtd:output.obj
 0001:0006f140       ?validate_and_update_state_at_beginning_of_format_character@?$standard_base@_WV?$string_output_adapter@_W@__crt_stdio_output@@@__crt_stdio_output@@IAE_NXZ 10070140 f i libucrtd:output.obj
 0001:0006f150       ?validate_and_update_state_at_end_of_format_string@?$format_validation_base@DV?$stream_output_adapter@D@__crt_stdio_output@@@__crt_stdio_output@@IAE_NXZ 10070150 f i libucrtd:output.obj
 0001:0006f200       ?validate_and_update_state_at_end_of_format_string@?$format_validation_base@DV?$string_output_adapter@D@__crt_stdio_output@@@__crt_stdio_output@@IAE_NXZ 10070200 f i libucrtd:output.obj
 0001:0006f2b0       ?validate_and_update_state_at_end_of_format_string@?$format_validation_base@_WV?$stream_output_adapter@_W@__crt_stdio_output@@@__crt_stdio_output@@IAE_NXZ 100702b0 f i libucrtd:output.obj
 0001:0006f360       ?validate_and_update_state_at_end_of_format_string@?$format_validation_base@_WV?$string_output_adapter@_W@__crt_stdio_output@@@__crt_stdio_output@@IAE_NXZ 10070360 f i libucrtd:output.obj
 0001:0006f410       ?validate_and_update_state_at_end_of_format_string@?$positional_parameter_base@DV?$stream_output_adapter@D@__crt_stdio_output@@@__crt_stdio_output@@IAE_NXZ 10070410 f i libucrtd:output.obj
 0001:0006f5c0       ?validate_and_update_state_at_end_of_format_string@?$positional_parameter_base@DV?$string_output_adapter@D@__crt_stdio_output@@@__crt_stdio_output@@IAE_NXZ 100705c0 f i libucrtd:output.obj
 0001:0006f770       ?validate_and_update_state_at_end_of_format_string@?$positional_parameter_base@_WV?$stream_output_adapter@_W@__crt_stdio_output@@@__crt_stdio_output@@IAE_NXZ 10070770 f i libucrtd:output.obj
 0001:0006f920       ?validate_and_update_state_at_end_of_format_string@?$positional_parameter_base@_WV?$string_output_adapter@_W@__crt_stdio_output@@@__crt_stdio_output@@IAE_NXZ 10070920 f i libucrtd:output.obj
 0001:0006fad0       ?validate_and_update_state_at_end_of_format_string@?$standard_base@DV?$stream_output_adapter@D@__crt_stdio_output@@@__crt_stdio_output@@IBE_NXZ 10070ad0 f i libucrtd:output.obj
 0001:0006fae0       ?validate_and_update_state_at_end_of_format_string@?$standard_base@DV?$string_output_adapter@D@__crt_stdio_output@@@__crt_stdio_output@@IBE_NXZ 10070ae0 f i libucrtd:output.obj
 0001:0006faf0       ?validate_and_update_state_at_end_of_format_string@?$standard_base@_WV?$stream_output_adapter@_W@__crt_stdio_output@@@__crt_stdio_output@@IBE_NXZ 10070af0 f i libucrtd:output.obj
 0001:0006fb00       ?validate_and_update_state_at_end_of_format_string@?$standard_base@_WV?$string_output_adapter@_W@__crt_stdio_output@@@__crt_stdio_output@@IBE_NXZ 10070b00 f i libucrtd:output.obj
 0001:0006fb10       ?validate_state_for_type_case_a@?$positional_parameter_base@DV?$stream_output_adapter@D@__crt_stdio_output@@@__crt_stdio_output@@IAE_NXZ 10070b10 f i libucrtd:output.obj
 0001:0006fc20       ?validate_state_for_type_case_a@?$positional_parameter_base@DV?$string_output_adapter@D@__crt_stdio_output@@@__crt_stdio_output@@IAE_NXZ 10070c20 f i libucrtd:output.obj
 0001:0006fd30       ?validate_state_for_type_case_a@?$positional_parameter_base@_WV?$stream_output_adapter@_W@__crt_stdio_output@@@__crt_stdio_output@@IAE_NXZ 10070d30 f i libucrtd:output.obj
 0001:0006fe40       ?validate_state_for_type_case_a@?$positional_parameter_base@_WV?$string_output_adapter@_W@__crt_stdio_output@@@__crt_stdio_output@@IAE_NXZ 10070e40 f i libucrtd:output.obj
 0001:0006ff50       ?validate_state_for_type_case_a@?$standard_base@DV?$stream_output_adapter@D@__crt_stdio_output@@@__crt_stdio_output@@IBE_NXZ 10070f50 f i libucrtd:output.obj
 0001:0006ff60       ?validate_state_for_type_case_a@?$standard_base@DV?$string_output_adapter@D@__crt_stdio_output@@@__crt_stdio_output@@IBE_NXZ 10070f60 f i libucrtd:output.obj
 0001:0006ff70       ?validate_state_for_type_case_a@?$standard_base@_WV?$stream_output_adapter@_W@__crt_stdio_output@@@__crt_stdio_output@@IBE_NXZ 10070f70 f i libucrtd:output.obj
 0001:0006ff80       ?validate_state_for_type_case_a@?$standard_base@_WV?$string_output_adapter@_W@__crt_stdio_output@@@__crt_stdio_output@@IBE_NXZ 10070f80 f i libucrtd:output.obj
 0001:0006ff90       ?validate_stream_is_ansi_if_required@?$__acrt_stdio_char_traits@D@@SA_NQAU_iobuf@@@Z 10070f90 f i libucrtd:output.obj
 0001:000700c0       ?validate_stream_is_ansi_if_required@?$__acrt_stdio_char_traits@_W@@SA_NQAU_iobuf@@@Z 100710c0 f i libucrtd:output.obj
 0001:000700d0       ?wide_character_to_digit@__crt_strtox@@YAH_W@Z 100710d0 f i libucrtd:output.obj
 0001:00070400       ?wide_null_string@?$output_processor@DV?$stream_output_adapter@D@__crt_stdio_output@@V?$format_validation_base@DV?$stream_output_adapter@D@__crt_stdio_output@@@2@@__crt_stdio_output@@CAPA_WXZ 10071400 f i libucrtd:output.obj
 0001:00070410       ?wide_null_string@?$output_processor@DV?$stream_output_adapter@D@__crt_stdio_output@@V?$positional_parameter_base@DV?$stream_output_adapter@D@__crt_stdio_output@@@2@@__crt_stdio_output@@CAPA_WXZ 10071410 f i libucrtd:output.obj
 0001:00070420       ?wide_null_string@?$output_processor@DV?$stream_output_adapter@D@__crt_stdio_output@@V?$standard_base@DV?$stream_output_adapter@D@__crt_stdio_output@@@2@@__crt_stdio_output@@CAPA_WXZ 10071420 f i libucrtd:output.obj
 0001:00070430       ?wide_null_string@?$output_processor@DV?$string_output_adapter@D@__crt_stdio_output@@V?$format_validation_base@DV?$string_output_adapter@D@__crt_stdio_output@@@2@@__crt_stdio_output@@CAPA_WXZ 10071430 f i libucrtd:output.obj
 0001:00070440       ?wide_null_string@?$output_processor@DV?$string_output_adapter@D@__crt_stdio_output@@V?$positional_parameter_base@DV?$string_output_adapter@D@__crt_stdio_output@@@2@@__crt_stdio_output@@CAPA_WXZ 10071440 f i libucrtd:output.obj
 0001:00070450       ?wide_null_string@?$output_processor@DV?$string_output_adapter@D@__crt_stdio_output@@V?$standard_base@DV?$string_output_adapter@D@__crt_stdio_output@@@2@@__crt_stdio_output@@CAPA_WXZ 10071450 f i libucrtd:output.obj
 0001:00070460       ?wide_null_string@?$output_processor@_WV?$stream_output_adapter@_W@__crt_stdio_output@@V?$format_validation_base@_WV?$stream_output_adapter@_W@__crt_stdio_output@@@2@@__crt_stdio_output@@CAPA_WXZ 10071460 f i libucrtd:output.obj
 0001:00070470       ?wide_null_string@?$output_processor@_WV?$stream_output_adapter@_W@__crt_stdio_output@@V?$positional_parameter_base@_WV?$stream_output_adapter@_W@__crt_stdio_output@@@2@@__crt_stdio_output@@CAPA_WXZ 10071470 f i libucrtd:output.obj
 0001:00070480       ?wide_null_string@?$output_processor@_WV?$stream_output_adapter@_W@__crt_stdio_output@@V?$standard_base@_WV?$stream_output_adapter@_W@__crt_stdio_output@@@2@@__crt_stdio_output@@CAPA_WXZ 10071480 f i libucrtd:output.obj
 0001:00070490       ?wide_null_string@?$output_processor@_WV?$string_output_adapter@_W@__crt_stdio_output@@V?$format_validation_base@_WV?$string_output_adapter@_W@__crt_stdio_output@@@2@@__crt_stdio_output@@CAPA_WXZ 10071490 f i libucrtd:output.obj
 0001:000704a0       ?wide_null_string@?$output_processor@_WV?$string_output_adapter@_W@__crt_stdio_output@@V?$positional_parameter_base@_WV?$string_output_adapter@_W@__crt_stdio_output@@@2@@__crt_stdio_output@@CAPA_WXZ 100714a0 f i libucrtd:output.obj
 0001:000704b0       ?wide_null_string@?$output_processor@_WV?$string_output_adapter@_W@__crt_stdio_output@@V?$standard_base@_WV?$string_output_adapter@_W@__crt_stdio_output@@@2@@__crt_stdio_output@@CAPA_WXZ 100714b0 f i libucrtd:output.obj
 0001:000704c0       ?write_character@?$output_adapter_common@DV?$stream_output_adapter@D@__crt_stdio_output@@@__crt_stdio_output@@QBEXDQAHAAV__crt_cached_ptd_host@@@Z 100714c0 f i libucrtd:output.obj
 0001:00070500       ?write_character@?$output_adapter_common@_WV?$stream_output_adapter@_W@__crt_stdio_output@@@__crt_stdio_output@@QBEX_WQAHAAV__crt_cached_ptd_host@@@Z 10071500 f i libucrtd:output.obj
 0001:00070540       ?write_character@?$string_output_adapter@D@__crt_stdio_output@@QBE_NDQAHAAV__crt_cached_ptd_host@@@Z 10071540 f i libucrtd:output.obj
 0001:000705d0       ?write_character@?$string_output_adapter@_W@__crt_stdio_output@@QBE_N_WQAHAAV__crt_cached_ptd_host@@@Z 100715d0 f i libucrtd:output.obj
 0001:00070670       ?write_character_without_count_update@?$stream_output_adapter@D@__crt_stdio_output@@QBE_NDAAV__crt_cached_ptd_host@@@Z 10071670 f i libucrtd:output.obj
 0001:000706e0       ?write_character_without_count_update@?$stream_output_adapter@_W@__crt_stdio_output@@QBE_N_WAAV__crt_cached_ptd_host@@@Z 100716e0 f i libucrtd:output.obj
 0001:00070750       ?write_stored_string_tchar@?$output_processor@DV?$stream_output_adapter@D@__crt_stdio_output@@V?$format_validation_base@DV?$stream_output_adapter@D@__crt_stdio_output@@@2@@__crt_stdio_output@@AAE_ND@Z 10071750 f i libucrtd:output.obj
 0001:00070870       ?write_stored_string_tchar@?$output_processor@DV?$stream_output_adapter@D@__crt_stdio_output@@V?$positional_parameter_base@DV?$stream_output_adapter@D@__crt_stdio_output@@@2@@__crt_stdio_output@@AAE_ND@Z 10071870 f i libucrtd:output.obj
 0001:00070990       ?write_stored_string_tchar@?$output_processor@DV?$stream_output_adapter@D@__crt_stdio_output@@V?$standard_base@DV?$stream_output_adapter@D@__crt_stdio_output@@@2@@__crt_stdio_output@@AAE_ND@Z 10071990 f i libucrtd:output.obj
 0001:00070ab0       ?write_stored_string_tchar@?$output_processor@DV?$string_output_adapter@D@__crt_stdio_output@@V?$format_validation_base@DV?$string_output_adapter@D@__crt_stdio_output@@@2@@__crt_stdio_output@@AAE_ND@Z 10071ab0 f i libucrtd:output.obj
 0001:00070bd0       ?write_stored_string_tchar@?$output_processor@DV?$string_output_adapter@D@__crt_stdio_output@@V?$positional_parameter_base@DV?$string_output_adapter@D@__crt_stdio_output@@@2@@__crt_stdio_output@@AAE_ND@Z 10071bd0 f i libucrtd:output.obj
 0001:00070cf0       ?write_stored_string_tchar@?$output_processor@DV?$string_output_adapter@D@__crt_stdio_output@@V?$standard_base@DV?$string_output_adapter@D@__crt_stdio_output@@@2@@__crt_stdio_output@@AAE_ND@Z 10071cf0 f i libucrtd:output.obj
 0001:00070e10       ?write_stored_string_tchar@?$output_processor@_WV?$stream_output_adapter@_W@__crt_stdio_output@@V?$format_validation_base@_WV?$stream_output_adapter@_W@__crt_stdio_output@@@2@@__crt_stdio_output@@AAE_N_W@Z 10071e10 f i libucrtd:output.obj
 0001:00070f20       ?write_stored_string_tchar@?$output_processor@_WV?$stream_output_adapter@_W@__crt_stdio_output@@V?$positional_parameter_base@_WV?$stream_output_adapter@_W@__crt_stdio_output@@@2@@__crt_stdio_output@@AAE_N_W@Z 10071f20 f i libucrtd:output.obj
 0001:00071030       ?write_stored_string_tchar@?$output_processor@_WV?$stream_output_adapter@_W@__crt_stdio_output@@V?$standard_base@_WV?$stream_output_adapter@_W@__crt_stdio_output@@@2@@__crt_stdio_output@@AAE_N_W@Z 10072030 f i libucrtd:output.obj
 0001:00071140       ?write_stored_string_tchar@?$output_processor@_WV?$string_output_adapter@_W@__crt_stdio_output@@V?$format_validation_base@_WV?$string_output_adapter@_W@__crt_stdio_output@@@2@@__crt_stdio_output@@AAE_N_W@Z 10072140 f i libucrtd:output.obj
 0001:00071250       ?write_stored_string_tchar@?$output_processor@_WV?$string_output_adapter@_W@__crt_stdio_output@@V?$positional_parameter_base@_WV?$string_output_adapter@_W@__crt_stdio_output@@@2@@__crt_stdio_output@@AAE_N_W@Z 10072250 f i libucrtd:output.obj
 0001:00071360       ?write_stored_string_tchar@?$output_processor@_WV?$string_output_adapter@_W@__crt_stdio_output@@V?$standard_base@_WV?$string_output_adapter@_W@__crt_stdio_output@@@2@@__crt_stdio_output@@AAE_N_W@Z 10072360 f i libucrtd:output.obj
 0001:00071470       ?write_string@?$stream_output_adapter@D@__crt_stdio_output@@QBEXQBDHQAHAAV__crt_cached_ptd_host@@@Z 10072470 f i libucrtd:output.obj
 0001:000714d0       ?write_string@?$stream_output_adapter@_W@__crt_stdio_output@@QBEXQB_WHQAHAAV__crt_cached_ptd_host@@@Z 100724d0 f i libucrtd:output.obj
 0001:00071530       ?write_string@?$string_output_adapter@D@__crt_stdio_output@@QBEXQBDHQAHAAV__crt_cached_ptd_host@@@Z 10072530 f i libucrtd:output.obj
 0001:00071630       ?write_string@?$string_output_adapter@_W@__crt_stdio_output@@QBEXQB_WHQAHAAV__crt_cached_ptd_host@@@Z 10072630 f i libucrtd:output.obj
 0001:00071740       ?write_string_impl@?$output_adapter_common@DV?$stream_output_adapter@D@__crt_stdio_output@@@__crt_stdio_output@@IBEXQBDHQAHAAV__crt_cached_ptd_host@@@Z 10072740 f i libucrtd:output.obj
 0001:00071800       ?write_string_impl@?$output_adapter_common@_WV?$stream_output_adapter@_W@__crt_stdio_output@@@__crt_stdio_output@@IBEXQB_WHQAHAAV__crt_cached_ptd_host@@@Z 10072800 f i libucrtd:output.obj
 0001:000718c0       ___acrt_disable_global_locale_sync 100728c0 f i libucrtd:output.obj
 0001:000718e0       ___acrt_enable_global_locale_sync 100728e0 f i libucrtd:output.obj
 0001:00071900       ___acrt_isleadbyte_l_noupdate 10072900 f i libucrtd:output.obj
 0001:00071920       ___acrt_locale_changed     10072920 f i libucrtd:output.obj
 0001:00071950       ___acrt_locale_get_ctype_array_value 10072950 f i libucrtd:output.obj
 0001:00071980       ___ascii_iswalpha          10072980 f i libucrtd:output.obj
 0001:000719c0       ___ascii_toupper           100729c0 f i libucrtd:output.obj
 0001:000719e0       ___ascii_towupper          100729e0 f i libucrtd:output.obj
 0001:00071a00       ___stdio_common_vfprintf   10072a00 f   libucrtd:output.obj
 0001:00071a50       ___stdio_common_vfprintf_p 10072a50 f   libucrtd:output.obj
 0001:00071aa0       ___stdio_common_vfprintf_s 10072aa0 f   libucrtd:output.obj
 0001:00071af0       ___stdio_common_vfwprintf  10072af0 f   libucrtd:output.obj
 0001:00071b40       ___stdio_common_vfwprintf_p 10072b40 f   libucrtd:output.obj
 0001:00071b90       ___stdio_common_vfwprintf_s 10072b90 f   libucrtd:output.obj
 0001:00071be0       ___stdio_common_vsnprintf_s 10072be0 f   libucrtd:output.obj
 0001:00071c30       ___stdio_common_vsnwprintf_s 10072c30 f   libucrtd:output.obj
 0001:00071c80       ___stdio_common_vsprintf   10072c80 f   libucrtd:output.obj
 0001:00071cd0       ___stdio_common_vsprintf_p 10072cd0 f   libucrtd:output.obj
 0001:00071d20       ___stdio_common_vsprintf_s 10072d20 f   libucrtd:output.obj
 0001:00071d70       ___stdio_common_vswprintf  10072d70 f   libucrtd:output.obj
 0001:00071dc0       ___stdio_common_vswprintf_p 10072dc0 f   libucrtd:output.obj
 0001:00071e10       ___stdio_common_vswprintf_s 10072e10 f   libucrtd:output.obj
 0001:00071e60       __ctype_fast_check_internal 10072e60 f i libucrtd:output.obj
 0001:00071e80       __isdigit_fast_internal    10072e80 f i libucrtd:output.obj
 0001:00071ea0       __tolower_fast_internal    10072ea0 f i libucrtd:output.obj
 0001:00071ec0       _free                      10072ec0 f   libucrtd:free.obj
 0001:00071ef0       _malloc                    10072ef0 f   libucrtd:malloc.obj
 0001:00071f10       ??$?RU?$__crt_report_hook_node@D@@@__crt_internal_free_policy@@QBEXQBU?$__crt_report_hook_node@D@@@Z 10072f10 f i libucrtd:dbgrpt.obj
 0001:00071f30       ??$?RU?$__crt_report_hook_node@_W@@@__crt_internal_free_policy@@QBEXQBU?$__crt_report_hook_node@_W@@@Z 10072f30 f i libucrtd:dbgrpt.obj
 0001:00072e00       ??$get_module_file_name@AAPAUHINSTANCE__@@AAY0BAF@DK@?$__crt_char_traits@D@@SAKAAPAUHINSTANCE__@@AAY0BAF@D$$QAK@Z 10073e00 f i libucrtd:dbgrpt.obj
 0001:00072e20       ??$get_module_file_name@AAPAUHINSTANCE__@@AAY0BAF@_WK@?$__crt_char_traits@_W@@SAKAAPAUHINSTANCE__@@AAY0BAF@_W$$QAK@Z 10073e20 f i libucrtd:dbgrpt.obj
 0001:00072e40       ??$tcscpy_s@AAY0BAF@DIPBD@?$__crt_char_traits@D@@SAHAAY0BAF@D$$QAI$$QAPBD@Z 10073e40 f i libucrtd:dbgrpt.obj
 0001:00072e60       ??$tcscpy_s@AAY0BAF@_WIPB_W@?$__crt_char_traits@_W@@SAHAAY0BAF@_W$$QAI$$QAPB_W@Z 10073e60 f i libucrtd:dbgrpt.obj
 0001:00072e80       ??$tcslen@AAY0BAF@D@?$__crt_char_traits@D@@SAIAAY0BAF@D@Z 10073e80 f i libucrtd:dbgrpt.obj
 0001:00072ea0       ??$tcslen@AAY0BAF@_W@?$__crt_char_traits@_W@@SAIAAY0BAF@_W@Z 10073ea0 f i libucrtd:dbgrpt.obj
 0001:00072ec0       ??$tcslen@ABQBD@?$__crt_char_traits@D@@SAIABQBD@Z 10073ec0 f i libucrtd:dbgrpt.obj
 0001:00072ee0       ??$tcslen@ABQB_W@?$__crt_char_traits@_W@@SAIABQB_W@Z 10073ee0 f i libucrtd:dbgrpt.obj
 0001:00072fe0       ??0?$__crt_unique_heap_ptr@U?$__crt_report_hook_node@D@@U__crt_internal_free_policy@@@@QAE@QAU?$__crt_report_hook_node@D@@@Z 10073fe0 f i libucrtd:dbgrpt.obj
 0001:00073000       ??0?$__crt_unique_heap_ptr@U?$__crt_report_hook_node@_W@@U__crt_internal_free_policy@@@@QAE@QAU?$__crt_report_hook_node@_W@@@Z 10074000 f i libucrtd:dbgrpt.obj
 0001:00073020       ??1?$__crt_unique_heap_ptr@U?$__crt_report_hook_node@D@@U__crt_internal_free_policy@@@@QAE@XZ 10074020 f i libucrtd:dbgrpt.obj
 0001:00073040       ??1?$__crt_unique_heap_ptr@U?$__crt_report_hook_node@_W@@U__crt_internal_free_policy@@@@QAE@XZ 10074040 f i libucrtd:dbgrpt.obj
 0001:00073060       ??B?$__crt_unique_heap_ptr@U?$__crt_report_hook_node@D@@U__crt_internal_free_policy@@@@QBE_NXZ 10074060 f i libucrtd:dbgrpt.obj
 0001:00073080       ??B?$__crt_unique_heap_ptr@U?$__crt_report_hook_node@_W@@U__crt_internal_free_policy@@@@QBE_NXZ 10074080 f i libucrtd:dbgrpt.obj
 0001:000735e0       ?detach@?$__crt_unique_heap_ptr@U?$__crt_report_hook_node@D@@U__crt_internal_free_policy@@@@QAEPAU?$__crt_report_hook_node@D@@XZ 100745e0 f i libucrtd:dbgrpt.obj
 0001:00073610       ?detach@?$__crt_unique_heap_ptr@U?$__crt_report_hook_node@_W@@U__crt_internal_free_policy@@@@QAEPAU?$__crt_report_hook_node@_W@@XZ 10074610 f i libucrtd:dbgrpt.obj
 0001:00073640       ?get@?$__crt_unique_heap_ptr@U?$__crt_report_hook_node@D@@U__crt_internal_free_policy@@@@QBEPAU?$__crt_report_hook_node@D@@XZ 10074640 f i libucrtd:dbgrpt.obj
 0001:00073660       ?get@?$__crt_unique_heap_ptr@U?$__crt_report_hook_node@_W@@U__crt_internal_free_policy@@@@QBEPAU?$__crt_report_hook_node@_W@@XZ 10074660 f i libucrtd:dbgrpt.obj
 0001:000736e0       ?is_valid@?$__crt_unique_heap_ptr@U?$__crt_report_hook_node@D@@U__crt_internal_free_policy@@@@QBE_NXZ 100746e0 f i libucrtd:dbgrpt.obj
 0001:00073710       ?is_valid@?$__crt_unique_heap_ptr@U?$__crt_report_hook_node@_W@@U__crt_internal_free_policy@@@@QBE_NXZ 10074710 f i libucrtd:dbgrpt.obj
 0001:00073740       ?release@?$__crt_unique_heap_ptr@U?$__crt_report_hook_node@D@@U__crt_internal_free_policy@@@@QAEXXZ 10074740 f i libucrtd:dbgrpt.obj
 0001:00073770       ?release@?$__crt_unique_heap_ptr@U?$__crt_report_hook_node@_W@@U__crt_internal_free_policy@@@@QAEXXZ 10074770 f i libucrtd:dbgrpt.obj
 0001:000737a0       __CrtDbgReport             100747a0 f   libucrtd:dbgrpt.obj
 0001:000737f0       __CrtDbgReportW            100747f0 f   libucrtd:dbgrpt.obj
 0001:00073840       __CrtSetReportHook2        10074840 f   libucrtd:dbgrpt.obj
 0001:00073860       __CrtSetReportHookW2       10074860 f   libucrtd:dbgrpt.obj
 0001:00073880       ___acrt_MessageWindowA     10074880 f   libucrtd:dbgrpt.obj
 0001:000738b0       ___acrt_MessageWindowW     100748b0 f   libucrtd:dbgrpt.obj
 0001:000738e0       __invoke_watson_if_error   100748e0 f i libucrtd:dbgrpt.obj
 0001:00073910       __invoke_watson_if_oneof   10074910 f i libucrtd:dbgrpt.obj
 0001:00073950       __snwprintf_s              10074950 f i libucrtd:dbgrpt.obj
 0001:00073990       __vsnwprintf_s_l           10074990 f i libucrtd:dbgrpt.obj
 0001:00073d10       _wcscpy_s                  10074d10 f   libucrtd:wcscpy_s.obj
 0001:00074a30       ??1?$__crt_simd_cleanup_guard@$00@@QAE@XZ 10075a30 f i libucrtd:strnlen.obj
 0001:00074a40       ??1?$__crt_simd_cleanup_guard@$0A@@@QAE@XZ 10075a40 f i libucrtd:strnlen.obj
 0001:00074a50       ?compare_equals@?$__crt_simd_traits@$00E@@SA?AT__m256i@@T2@0@Z 10075a50 f i libucrtd:strnlen.obj
 0001:00074a90       ?compare_equals@?$__crt_simd_traits@$00G@@SA?AT__m256i@@T2@0@Z 10075a90 f i libucrtd:strnlen.obj
 0001:00074ad0       ?compare_equals@?$__crt_simd_traits@$0A@E@@SA?AT__m128i@@T2@0@Z 10075ad0 f i libucrtd:strnlen.obj
 0001:00074b10       ?compare_equals@?$__crt_simd_traits@$0A@G@@SA?AT__m128i@@T2@0@Z 10075b10 f i libucrtd:strnlen.obj
 0001:00074b50       ?compute_byte_mask@?$__crt_simd_pack_traits@$00@@SAHT__m256i@@@Z 10075b50 f i libucrtd:strnlen.obj
 0001:00074b80       ?compute_byte_mask@?$__crt_simd_pack_traits@$0A@@@SAHT__m128i@@@Z 10075b80 f i libucrtd:strnlen.obj
 0001:00074bb0       ?get_zero_pack@?$__crt_simd_pack_traits@$00@@SA?AT__m256i@@XZ 10075bb0 f i libucrtd:strnlen.obj
 0001:00074be0       ?get_zero_pack@?$__crt_simd_pack_traits@$0A@@@SA?AT__m128i@@XZ 10075be0 f i libucrtd:strnlen.obj
 0001:00074c10       _strnlen                   10075c10 f   libucrtd:strnlen.obj
 0001:00074c30       _wcslen                    10075c30 f   libucrtd:strnlen.obj
 0001:00074c50       _wcsnlen                   10075c50 f   libucrtd:strnlen.obj
 0001:00074c70       ??$__crt_fast_decode_pointer@P6AXPB_W00II@Z@@YAP6AXPB_W00II@ZQ6AX000II@Z@Z 10075c70 f i libucrtd:invalid_parameter.obj
 0001:00074ca0       ??$__crt_fast_encode_pointer@P6AXPB_W00II@Z@@YAP6AXPB_W00II@ZQ6AX000II@Z@Z 10075ca0 f i libucrtd:invalid_parameter.obj
 0001:00074cd0       ??$initialize_from_array@$$BY00Q6AXPB_W00II@Z@?$dual_state_global@P6AXPB_W00II@Z@__crt_state_management@@QAAXAAY00Q6AXPB_W00II@Z@Z 10075cd0 f i libucrtd:invalid_parameter.obj
 0001:00074d20       ?__crt_rotate_pointer_value@@YAIIH@Z 10075d20 f i libucrtd:invalid_parameter.obj
 0001:00074d30       ?check_synchronize_global_state_index@__crt_cached_ptd_host@@AAEIXZ 10075d30 f i libucrtd:invalid_parameter.obj
 0001:00074d80       ?dangerous_get_state_array@?$dual_state_global@P6AXPB_W00II@Z@__crt_state_management@@QAEPAP6AXPB_W00II@ZXZ 10075d80 f i libucrtd:invalid_parameter.obj
 0001:00074d90       ?get_current_global_state_index@__crt_cached_ptd_host@@QAEIXZ 10075d90 f i libucrtd:invalid_parameter.obj
 0001:00074db0       ?get_current_state_index@__crt_state_management@@YAIXZ 10075db0 f i libucrtd:invalid_parameter.obj
 0001:00074dc0       ?get_raw_ptd_noexit@__crt_cached_ptd_host@@QAEPAU__acrt_ptd@@XZ 10075dc0 f i libucrtd:invalid_parameter.obj
 0001:00074de0       ?try_synchronize_per_thread_data@__crt_cached_ptd_host@@AAEPAU__acrt_ptd@@XZ 10075de0 f i libucrtd:invalid_parameter.obj
 0001:00074e10       ?value@?$dual_state_global@P6AXPB_W00II@Z@__crt_state_management@@QAEAAP6AXPB_W00II@ZAAV__crt_cached_ptd_host@@@Z 10075e10 f i libucrtd:invalid_parameter.obj
 0001:00074e30       ?value@?$dual_state_global@P6AXPB_W00II@Z@__crt_state_management@@QAEAAP6AXPB_W00II@ZXZ 10075e30 f i libucrtd:invalid_parameter.obj
 0001:00074e50       ___acrt_call_reportfault   10075e50 f   libucrtd:invalid_parameter.obj
 0001:00074fb0       ___acrt_initialize_invalid_parameter_handler 10075fb0 f   libucrtd:invalid_parameter.obj
 0001:00074fe0       __get_invalid_parameter_handler 10075fe0 f   libucrtd:invalid_parameter.obj
 0001:00075000       __get_thread_local_invalid_parameter_handler 10076000 f   libucrtd:invalid_parameter.obj
 0001:00075030       __invalid_parameter        10076030 f   libucrtd:invalid_parameter.obj
 0001:00075070       __invalid_parameter_internal 10076070 f   libucrtd:invalid_parameter.obj
 0001:00075140       __invalid_parameter_noinfo 10076140 f   libucrtd:invalid_parameter.obj
 0001:00075160       __invalid_parameter_noinfo_noreturn 10076160 f   libucrtd:invalid_parameter.obj
 0001:00075190       __invoke_watson            10076190 f   libucrtd:invalid_parameter.obj
 0001:000751d0       __set_invalid_parameter_handler 100761d0 f   libucrtd:invalid_parameter.obj
 0001:00075220       __set_thread_local_invalid_parameter_handler 10076220 f   libucrtd:invalid_parameter.obj
 0001:00075250       ?get_doserrno@__crt_cached_ptd_host@@QAEAAU?$cached@K@1@XZ 10076250 f i libucrtd:errno.obj
 0001:00075270       ?set@?$cached@K@__crt_cached_ptd_host@@QAEKK@Z 10076270 f i libucrtd:errno.obj
 0001:000752a0       ___acrt_errno_from_os_error 100762a0 f   libucrtd:errno.obj
 0001:00075320       ___acrt_errno_map_os_error 10076320 f   libucrtd:errno.obj
 0001:00075350       ___acrt_errno_map_os_error_ptd 10076350 f   libucrtd:errno.obj
 0001:000753a0       ___doserrno                100763a0 f   libucrtd:errno.obj
 0001:000753d0       __errno                    100763d0 f   libucrtd:errno.obj
 0001:00075400       __get_doserrno             10076400 f   libucrtd:errno.obj
 0001:00075490       __get_errno                10076490 f   libucrtd:errno.obj
 0001:00075520       __set_doserrno             10076520 f   libucrtd:errno.obj
 0001:00075550       __set_errno                10076550 f   libucrtd:errno.obj
 0001:00075580       _calloc                    10076580 f   libucrtd:calloc.obj
 0001:000755a0       __recalloc                 100765a0 f   libucrtd:recalloc.obj
 0001:000755d0       __recalloc_base            100765d0 f   libucrtd:recalloc.obj
 0001:00075670       __resetstkoflw             10076670 f   libucrtd:resetstk.obj
 0001:00075bd0       _wcscat_s                  10076bd0 f   libucrtd:wcscat_s.obj
 0001:00076020       _wcsncpy_s                 10077020 f   libucrtd:wcsncpy_s.obj
 0001:00076160       ___isascii                 10077160 f   libucrtd:_ctype.obj
 0001:00076190       ___iscsym                  10077190 f   libucrtd:_ctype.obj
 0001:000761d0       ___iscsymf                 100771d0 f   libucrtd:_ctype.obj
 0001:00076210       ___toascii                 10077210 f   libucrtd:_ctype.obj
 0001:00076220       __isalnum_l                10077220 f   libucrtd:_ctype.obj
 0001:00076240       __isalpha_l                10077240 f   libucrtd:_ctype.obj
 0001:00076260       __isblank_l                10077260 f   libucrtd:_ctype.obj
 0001:00076280       __iscntrl_l                10077280 f   libucrtd:_ctype.obj
 0001:000762a0       __iscsym_l                 100772a0 f   libucrtd:_ctype.obj
 0001:000762e0       __iscsymf_l                100772e0 f   libucrtd:_ctype.obj
 0001:00076320       __isdigit_l                10077320 f   libucrtd:_ctype.obj
 0001:00076340       __isgraph_l                10077340 f   libucrtd:_ctype.obj
 0001:00076360       __islower_l                10077360 f   libucrtd:_ctype.obj
 0001:00076380       __isprint_l                10077380 f   libucrtd:_ctype.obj
 0001:000763a0       __ispunct_l                100773a0 f   libucrtd:_ctype.obj
 0001:000763c0       __isspace_l                100773c0 f   libucrtd:_ctype.obj
 0001:000763e0       __isupper_l                100773e0 f   libucrtd:_ctype.obj
 0001:00076400       __isxdigit_l               10077400 f   libucrtd:_ctype.obj
 0001:00076420       _isalnum                   10077420 f   libucrtd:_ctype.obj
 0001:00076440       _isalpha                   10077440 f   libucrtd:_ctype.obj
 0001:00076460       _isblank                   10077460 f   libucrtd:_ctype.obj
 0001:00076490       _iscntrl                   10077490 f   libucrtd:_ctype.obj
 0001:000764b0       _isdigit                   100774b0 f   libucrtd:_ctype.obj
 0001:000764d0       _isgraph                   100774d0 f   libucrtd:_ctype.obj
 0001:000764f0       _islower                   100774f0 f   libucrtd:_ctype.obj
 0001:00076510       _isprint                   10077510 f   libucrtd:_ctype.obj
 0001:00076530       _ispunct                   10077530 f   libucrtd:_ctype.obj
 0001:00076550       _isspace                   10077550 f   libucrtd:_ctype.obj
 0001:00076570       _isupper                   10077570 f   libucrtd:_ctype.obj
 0001:00076590       _isxdigit                  10077590 f   libucrtd:_ctype.obj
 0001:000765b0       _wcscat                    100775b0 f   libucrtd:wcscat.obj
 0001:00076610       _wcscpy                    10077610 f   libucrtd:wcscpy.obj
 0001:00076ca0       ??$open_file@ABQBDABQBDABHPAU_iobuf@@@?$__crt_char_traits@D@@SAPAU_iobuf@@ABQBD0ABH$$QAPAU1@@Z 10077ca0 f i libucrtd:fopen.obj
 0001:00076cd0       ??$open_file@ABQB_WABQB_WABHPAU_iobuf@@@?$__crt_char_traits@_W@@SAPAU_iobuf@@ABQB_W0ABH$$QAPAU1@@Z 10077cd0 f i libucrtd:fopen.obj
 0001:00076d00       ?unlock@__crt_stdio_stream@@QBEXXZ 10077d00 f i libucrtd:fopen.obj
 0001:00076d20       __fsopen                   10077d20 f   libucrtd:fopen.obj
 0001:00076d40       __wfopen                   10077d40 f   libucrtd:fopen.obj
 0001:00076d60       __wfopen_s                 10077d60 f   libucrtd:fopen.obj
 0001:00076d80       __wfsopen                  10077d80 f   libucrtd:fopen.obj
 0001:00076da0       _fopen                     10077da0 f   libucrtd:fopen.obj
 0001:00076dc0       _fopen_s                   10077dc0 f   libucrtd:fopen.obj
 0001:000770a0       ?is_in_use@__crt_stdio_stream@@QBE_NXZ 100780a0 f i libucrtd:fclose.obj
 0001:000770e0       __fclose_nolock            100780e0 f   libucrtd:fclose.obj
 0001:00077120       _fclose                    10078120 f   libucrtd:fclose.obj
 0001:000773c0       __fputc_nolock             100783c0 f   libucrtd:fputc.obj
 0001:00077400       __fputc_nolock_internal    10078400 f   libucrtd:fputc.obj
 0001:00077490       __fputchar                 10078490 f   libucrtd:fputc.obj
 0001:000774b0       __putc_nolock              100784b0 f   libucrtd:fputc.obj
 0001:000774d0       _fputc                     100784d0 f   libucrtd:fputc.obj
 0001:00077510       _putc                      10078510 f   libucrtd:fputc.obj
 0001:00077530       _putchar                   10078530 f   libucrtd:fputc.obj
 0001:000775a0       __seh_filter_dll           100785a0 f   libucrtd:exception_filter.obj
 0001:000775d0       __seh_filter_exe           100785d0 f   libucrtd:exception_filter.obj
 0001:000777f0       ??$?B$$A6GXPAXK0@Z@__crt_fast_encoded_nullptr_t@@QBEP6GXPAXK0@ZXZ 100787f0 f i libucrtd:exit.obj
 0001:00077900       ??$__crt_fast_decode_pointer@P6GXPAXK0@Z@@YAP6GXPAXK0@ZQ6GX0K0@Z@Z 10078900 f i libucrtd:exit.obj
 0001:00077930       ??$__crt_fast_encode_pointer@P6GXPAXK0@Z@@YAP6GXPAXK0@ZQ6GX0K0@Z@Z 10078930 f i libucrtd:exit.obj
 0001:00077960       ??$__crt_get_proc_address@P6GXI@Z@@YAP6GXI@ZQAUHINSTANCE__@@QBD@Z 10078960 f i libucrtd:exit.obj
 0001:000779f0       ??0?$__crt_unique_handle_t@U__crt_hmodule_traits@@@@QAE@QAUHINSTANCE__@@@Z 100789f0 f i libucrtd:exit.obj
 0001:00077a10       ??1?$__crt_unique_handle_t@U__crt_hmodule_traits@@@@QAE@XZ 10078a10 f i libucrtd:exit.obj
 0001:00077bd0       ?__acrt_select_exit_lock@@YA?AW4__acrt_lock_id@@XZ 10078bd0 f i libucrtd:exit.obj
 0001:00077be0       ?__crt_fast_encode_pointer@@YA?AU__crt_fast_encoded_nullptr_t@@$$T@Z 10078be0 f i libucrtd:exit.obj
 0001:00077c10       ?close@?$__crt_unique_handle_t@U__crt_hmodule_traits@@@@QAEXXZ 10078c10 f i libucrtd:exit.obj
 0001:00077c50       ?close@__crt_hmodule_traits@@SA_NPAUHINSTANCE__@@@Z 10078c50 f i libucrtd:exit.obj
 0001:00077d80       ?get@?$__crt_unique_handle_t@U__crt_hmodule_traits@@@@QBEPAUHINSTANCE__@@XZ 10078d80 f i libucrtd:exit.obj
 0001:00077da0       ?get_address_of@?$__crt_unique_handle_t@U__crt_hmodule_traits@@@@QAEPAPAUHINSTANCE__@@XZ 10078da0 f i libucrtd:exit.obj
 0001:00077db0       ?get_invalid_value@__crt_hmodule_traits@@SAPAUHINSTANCE__@@XZ 10078db0 f i libucrtd:exit.obj
 0001:00077f60       __Exit                     10078f60 f   libucrtd:exit.obj
 0001:00077f80       ___acrt_initialize_thread_local_exit_callback 10078f80 f   libucrtd:exit.obj
 0001:00077f90       __c_exit                   10078f90 f   libucrtd:exit.obj
 0001:00077fb0       __cexit                    10078fb0 f   libucrtd:exit.obj
 0001:00077fd0       __exit                     10078fd0 f   libucrtd:exit.obj
 0001:00077ff0       __is_c_termination_complete 10078ff0 f   libucrtd:exit.obj
 0001:00078010       __register_thread_local_exe_atexit_callback 10079010 f   libucrtd:exit.obj
 0001:00078050       _exit                      10079050 f   libucrtd:exit.obj
 0001:00078070       _quick_exit                10079070 f   libucrtd:exit.obj
 0001:00078090       ??$?RE@__crt_internal_free_policy@@QBEXQBE@Z 10079090 f i libucrtd:argv_parsing.obj
 0001:000780b0       ??$?RPAD@__crt_internal_free_policy@@QBEXQBQAD@Z 100790b0 f i libucrtd:argv_parsing.obj
 0001:000780d0       ??$?RPA_W@__crt_internal_free_policy@@QBEXQBQA_W@Z 100790d0 f i libucrtd:argv_parsing.obj
 0001:00078690       ??$get_module_file_name@$$TAAY0BAF@DH@?$__crt_char_traits@D@@SAK$$QA$$TAAY0BAF@D$$QAH@Z 10079690 f i libucrtd:argv_parsing.obj
 0001:000786b0       ??$get_module_file_name@$$TAAY0BAF@_WH@?$__crt_char_traits@_W@@SAK$$QA$$TAAY0BAF@_W$$QAH@Z 100796b0 f i libucrtd:argv_parsing.obj
 0001:00078df0       ??$set_program_name@PAD@?$__crt_char_traits@D@@SAX$$QAPAD@Z 10079df0 f i libucrtd:argv_parsing.obj
 0001:00078e10       ??$set_program_name@PA_W@?$__crt_char_traits@_W@@SAX$$QAPA_W@Z 10079e10 f i libucrtd:argv_parsing.obj
 0001:00078e70       ??0?$__crt_unique_heap_ptr@EU__crt_internal_free_policy@@@@QAE@QAE@Z 10079e70 f i libucrtd:argv_parsing.obj
 0001:00078e90       ??0?$__crt_unique_heap_ptr@PADU__crt_internal_free_policy@@@@QAE@QAPAD@Z 10079e90 f i libucrtd:argv_parsing.obj
 0001:00078eb0       ??0?$__crt_unique_heap_ptr@PA_WU__crt_internal_free_policy@@@@QAE@QAPA_W@Z 10079eb0 f i libucrtd:argv_parsing.obj
 0001:00078ed0       ??1?$__crt_unique_heap_ptr@EU__crt_internal_free_policy@@@@QAE@XZ 10079ed0 f i libucrtd:argv_parsing.obj
 0001:00078ef0       ??1?$__crt_unique_heap_ptr@PADU__crt_internal_free_policy@@@@QAE@XZ 10079ef0 f i libucrtd:argv_parsing.obj
 0001:00078f10       ??1?$__crt_unique_heap_ptr@PA_WU__crt_internal_free_policy@@@@QAE@XZ 10079f10 f i libucrtd:argv_parsing.obj
 0001:00078f30       ??B?$__crt_unique_heap_ptr@EU__crt_internal_free_policy@@@@QBE_NXZ 10079f30 f i libucrtd:argv_parsing.obj
 0001:00078ff0       ?detach@?$__crt_unique_heap_ptr@EU__crt_internal_free_policy@@@@QAEPAEXZ 10079ff0 f i libucrtd:argv_parsing.obj
 0001:00079020       ?detach@?$__crt_unique_heap_ptr@PADU__crt_internal_free_policy@@@@QAEPAPADXZ 1007a020 f i libucrtd:argv_parsing.obj
 0001:00079050       ?detach@?$__crt_unique_heap_ptr@PA_WU__crt_internal_free_policy@@@@QAEPAPA_WXZ 1007a050 f i libucrtd:argv_parsing.obj
 0001:000790e0       ?get@?$__crt_unique_heap_ptr@EU__crt_internal_free_policy@@@@QBEPAEXZ 1007a0e0 f i libucrtd:argv_parsing.obj
 0001:00079100       ?get@?$__crt_unique_heap_ptr@PADU__crt_internal_free_policy@@@@QBEPAPADXZ 1007a100 f i libucrtd:argv_parsing.obj
 0001:00079120       ?get@?$__crt_unique_heap_ptr@PA_WU__crt_internal_free_policy@@@@QBEPAPA_WXZ 1007a120 f i libucrtd:argv_parsing.obj
 0001:00079140       ?get_address_of@?$__crt_unique_heap_ptr@PADU__crt_internal_free_policy@@@@QAEPAPAPADXZ 1007a140 f i libucrtd:argv_parsing.obj
 0001:00079150       ?get_address_of@?$__crt_unique_heap_ptr@PA_WU__crt_internal_free_policy@@@@QAEPAPAPA_WXZ 1007a150 f i libucrtd:argv_parsing.obj
 0001:000791a0       ?is_valid@?$__crt_unique_heap_ptr@EU__crt_internal_free_policy@@@@QBE_NXZ 1007a1a0 f i libucrtd:argv_parsing.obj
 0001:000791d0       ?release@?$__crt_unique_heap_ptr@EU__crt_internal_free_policy@@@@QAEXXZ 1007a1d0 f i libucrtd:argv_parsing.obj
 0001:00079200       ?release@?$__crt_unique_heap_ptr@PADU__crt_internal_free_policy@@@@QAEXXZ 1007a200 f i libucrtd:argv_parsing.obj
 0001:00079230       ?release@?$__crt_unique_heap_ptr@PA_WU__crt_internal_free_policy@@@@QAEXXZ 1007a230 f i libucrtd:argv_parsing.obj
 0001:000792a0       ___acrt_allocate_buffer_for_argv 1007a2a0 f   libucrtd:argv_parsing.obj
 0001:00079360       __configure_narrow_argv    1007a360 f   libucrtd:argv_parsing.obj
 0001:00079380       __configure_wide_argv      1007a380 f   libucrtd:argv_parsing.obj
 0001:000793a0       __set_pgmptr               1007a3a0 f i libucrtd:argv_parsing.obj
 0001:000793b0       __set_wpgmptr              1007a3b0 f i libucrtd:argv_parsing.obj
 0001:000793c0       ??$?R_W@__crt_internal_free_policy@@QBEXQB_W@Z 1007a3c0 f i libucrtd:environment_initialization.obj
 0001:00079ba0       ??$get_environment_from_os@$$V@?$__crt_char_traits@D@@SAPADXZ 1007aba0 f i libucrtd:environment_initialization.obj
 0001:00079bb0       ??$get_environment_from_os@$$V@?$__crt_char_traits@_W@@SAPA_WXZ 1007abb0 f i libucrtd:environment_initialization.obj
 0001:00079e80       ??$set_variable_in_environment_nolock@PADH@?$__crt_char_traits@D@@SAH$$QAPAD$$QAH@Z 1007ae80 f i libucrtd:environment_initialization.obj
 0001:00079ea0       ??$set_variable_in_environment_nolock@PA_WH@?$__crt_char_traits@_W@@SAH$$QAPA_W$$QAH@Z 1007aea0 f i libucrtd:environment_initialization.obj
 0001:00079ec0       ??$tcscpy_s@PADABIAAPAD@?$__crt_char_traits@D@@SAH$$QAPADABIAAPAD@Z 1007aec0 f i libucrtd:environment_initialization.obj
 0001:00079ef0       ??$tcscpy_s@PA_WABIAAPA_W@?$__crt_char_traits@_W@@SAH$$QAPA_WABIAAPA_W@Z 1007aef0 f i libucrtd:environment_initialization.obj
 0001:00079f20       ??$tcslen@AAPAD@?$__crt_char_traits@D@@SAIAAPAD@Z 1007af20 f i libucrtd:environment_initialization.obj
 0001:00079f40       ??$tcslen@AAPA_W@?$__crt_char_traits@_W@@SAIAAPA_W@Z 1007af40 f i libucrtd:environment_initialization.obj
 0001:00079f60       ??$uninitialize@A6AXAAPAPAD@_E@?$dual_state_global@PAPAD@__crt_state_management@@QAEXA6AXAAPAPAD@_E@Z 1007af60 f i libucrtd:environment_initialization.obj
 0001:00079fe0       ??$uninitialize@A6AXAAPAPA_W@_E@?$dual_state_global@PAPA_W@__crt_state_management@@QAEXA6AXAAPAPA_W@_E@Z 1007afe0 f i libucrtd:environment_initialization.obj
 0001:0007a0c0       ??0?$__crt_unique_heap_ptr@_WU__crt_internal_free_policy@@@@QAE@QA_W@Z 1007b0c0 f i libucrtd:environment_initialization.obj
 0001:0007a0e0       ??1?$__crt_unique_heap_ptr@_WU__crt_internal_free_policy@@@@QAE@XZ 1007b0e0 f i libucrtd:environment_initialization.obj
 0001:0007a100       ??B?$__crt_unique_heap_ptr@PADU__crt_internal_free_policy@@@@QBE_NXZ 1007b100 f i libucrtd:environment_initialization.obj
 0001:0007a120       ??B?$__crt_unique_heap_ptr@PA_WU__crt_internal_free_policy@@@@QBE_NXZ 1007b120 f i libucrtd:environment_initialization.obj
 0001:0007a140       ??B?$__crt_unique_heap_ptr@_WU__crt_internal_free_policy@@@@QBE_NXZ 1007b140 f i libucrtd:environment_initialization.obj
 0001:0007a160       ?__crt_compute_required_transform_buffer_count@@YAIIQBD@Z 1007b160 f i libucrtd:environment_initialization.obj
 0001:0007a180       ?__crt_compute_required_transform_buffer_count@@YAIIQB_W@Z 1007b180 f i libucrtd:environment_initialization.obj
 0001:0007a1b0       ?__crt_transform_string@@YAIIQBDQA_WI@Z 1007b1b0 f i libucrtd:environment_initialization.obj
 0001:0007a1e0       ?__crt_transform_string@@YAIIQB_WQADI@Z 1007b1e0 f i libucrtd:environment_initialization.obj
 0001:0007a210       ?detach@?$__crt_unique_heap_ptr@DU__crt_internal_free_policy@@@@QAEPADXZ 1007b210 f i libucrtd:environment_initialization.obj
 0001:0007a240       ?detach@?$__crt_unique_heap_ptr@_WU__crt_internal_free_policy@@@@QAEPA_WXZ 1007b240 f i libucrtd:environment_initialization.obj
 0001:0007a270       ?get@?$__crt_unique_heap_ptr@_WU__crt_internal_free_policy@@@@QBEPA_WXZ 1007b270 f i libucrtd:environment_initialization.obj
 0001:0007a310       ?initialize@?$dual_state_global@PAPAD@__crt_state_management@@QAEXQAPAD@Z 1007b310 f i libucrtd:environment_initialization.obj
 0001:0007a350       ?initialize@?$dual_state_global@PAPA_W@__crt_state_management@@QAEXQAPA_W@Z 1007b350 f i libucrtd:environment_initialization.obj
 0001:0007a390       ?is_valid@?$__crt_unique_heap_ptr@PADU__crt_internal_free_policy@@@@QBE_NXZ 1007b390 f i libucrtd:environment_initialization.obj
 0001:0007a3c0       ?is_valid@?$__crt_unique_heap_ptr@PA_WU__crt_internal_free_policy@@@@QBE_NXZ 1007b3c0 f i libucrtd:environment_initialization.obj
 0001:0007a3f0       ?is_valid@?$__crt_unique_heap_ptr@_WU__crt_internal_free_policy@@@@QBE_NXZ 1007b3f0 f i libucrtd:environment_initialization.obj
 0001:0007a440       ?release@?$__crt_unique_heap_ptr@_WU__crt_internal_free_policy@@@@QAEXXZ 1007b440 f i libucrtd:environment_initialization.obj
 0001:0007a470       ?value@?$dual_state_global@PAPAD@__crt_state_management@@QAEAAPAPADXZ 1007b470 f i libucrtd:environment_initialization.obj
 0001:0007a490       ?value@?$dual_state_global@PAPA_W@__crt_state_management@@QAEAAPAPA_WXZ 1007b490 f i libucrtd:environment_initialization.obj
 0001:0007a4b0       ___dcrt_get_or_create_narrow_environment_nolock 1007b4b0 f   libucrtd:environment_initialization.obj
 0001:0007a4c0       ___dcrt_get_or_create_wide_environment_nolock 1007b4c0 f   libucrtd:environment_initialization.obj
 0001:0007a4d0       ___dcrt_uninitialize_environments_nolock 1007b4d0 f   libucrtd:environment_initialization.obj
 0001:0007a520       ___p__environ              1007b520 f   libucrtd:environment_initialization.obj
 0001:0007a540       ___p__wenviron             1007b540 f   libucrtd:environment_initialization.obj
 0001:0007a560       __get_initial_narrow_environment 1007b560 f   libucrtd:environment_initialization.obj
 0001:0007a570       __get_initial_wide_environment 1007b570 f   libucrtd:environment_initialization.obj
 0001:0007a580       __initialize_narrow_environment 1007b580 f   libucrtd:environment_initialization.obj
 0001:0007a590       __initialize_wide_environment 1007b590 f   libucrtd:environment_initialization.obj
 0001:0007a5a0       ??$?B$$A6AXXZ@__crt_fast_encoded_nullptr_t@@QBEP6AXXZXZ 1007b5a0 f i libucrtd:onexit.obj
 0001:0007a5c0       ??$?BP6AXXZ@__crt_fast_encoded_nullptr_t@@QBEPAP6AXXZXZ 1007b5c0 f i libucrtd:onexit.obj
 0001:0007a5e0       ??$?RP6AXXZ@__crt_internal_free_policy@@QBEXQBQ6AXXZ@Z 1007b5e0 f i libucrtd:onexit.obj
 0001:0007a800       ??$__crt_fast_decode_pointer@P6AXXZ@@YAP6AXXZQ6AXXZ@Z 1007b800 f i libucrtd:onexit.obj
 0001:0007a830       ??$__crt_fast_decode_pointer@PAP6AXXZ@@YAPAP6AXXZQAP6AXXZ@Z 1007b830 f i libucrtd:onexit.obj
 0001:0007a860       ??$__crt_fast_encode_pointer@P6AHXZ@@YAP6AHXZQ6AHXZ@Z 1007b860 f i libucrtd:onexit.obj
 0001:0007a890       ??$__crt_fast_encode_pointer@P6AXXZ@@YAP6AXXZQ6AXXZ@Z 1007b890 f i libucrtd:onexit.obj
 0001:0007a8c0       ??$__crt_fast_encode_pointer@PAP6AXXZ@@YAPAP6AXXZQAP6AXXZ@Z 1007b8c0 f i libucrtd:onexit.obj
 0001:0007a9c0       ??0?$__crt_unique_heap_ptr@P6AXXZU__crt_internal_free_policy@@@@QAE@QAP6AXXZ@Z 1007b9c0 f i libucrtd:onexit.obj
 0001:0007a9e0       ??1?$__crt_unique_heap_ptr@P6AXXZU__crt_internal_free_policy@@@@QAE@XZ 1007b9e0 f i libucrtd:onexit.obj
 0001:0007aa00       ??1scoped_global_state_reset@__crt_state_management@@QAE@XZ 1007ba00 f i libucrtd:onexit.obj
 0001:0007ae80       ?detach@?$__crt_unique_heap_ptr@P6AXXZU__crt_internal_free_policy@@@@QAEPAP6AXXZXZ 1007be80 f i libucrtd:onexit.obj
 0001:0007aeb0       ?release@?$__crt_unique_heap_ptr@P6AXXZU__crt_internal_free_policy@@@@QAEXXZ 1007beb0 f i libucrtd:onexit.obj
 0001:0007aee0       __crt_at_quick_exit        1007bee0 f   libucrtd:onexit.obj
 0001:0007af00       __crt_atexit               1007bf00 f   libucrtd:onexit.obj
 0001:0007af20       __execute_onexit_table     1007bf20 f   libucrtd:onexit.obj
 0001:0007af60       __initialize_onexit_table  1007bf60 f   libucrtd:onexit.obj
 0001:0007afc0       __register_onexit_function 1007bfc0 f   libucrtd:onexit.obj
 0001:0007b210       ??$?BX@__crt_fast_encoded_nullptr_t@@QBEPAXXZ 1007c210 f i libucrtd:initialization.obj
 0001:0007b230       ??$__crt_fast_encode_pointer@PAX@@YAPAXQAX@Z 1007c230 f i libucrtd:initialization.obj
 0001:0007b320       ?initialize@?$dual_state_global@PAU__crt_locale_data@@@__crt_state_management@@QAEXQAU__crt_locale_data@@@Z 1007c320 f i libucrtd:initialization.obj
 0001:0007b360       ___acrt_initialize         1007c360 f   libucrtd:initialization.obj
 0001:0007b380       ___acrt_thread_attach      1007c380 f   libucrtd:initialization.obj
 0001:0007b3a0       ___acrt_thread_detach      1007c3a0 f   libucrtd:initialization.obj
 0001:0007b3b0       ___acrt_uninitialize       1007c3b0 f   libucrtd:initialization.obj
 0001:0007b3d0       ___acrt_uninitialize_critical 1007c3d0 f   libucrtd:initialization.obj
 0001:0007b3f0       ??0_LocaleUpdate@@QAE@QAU__crt_locale_pointers@@@Z 1007c3f0 f i libucrtd:debug_heap.obj
 0001:0007b4c0       ??1_LocaleUpdate@@QAE@XZ   1007c4c0 f i libucrtd:debug_heap.obj
 0001:0007b4f0       ?GetLocaleT@_LocaleUpdate@@QAEPAU__crt_locale_pointers@@XZ 1007c4f0 f i libucrtd:debug_heap.obj
 0001:0007cf40       __CrtCheckMemory           1007df40 f   libucrtd:debug_heap.obj
 0001:0007d0d0       __CrtDoForAllClientObjects 1007e0d0 f   libucrtd:debug_heap.obj
 0001:0007d230       __CrtDumpMemoryLeaks       1007e230 f   libucrtd:debug_heap.obj
 0001:0007d2d0       __CrtGetAllocHook          1007e2d0 f   libucrtd:debug_heap.obj
 0001:0007d2e0       __CrtGetDumpClient         1007e2e0 f   libucrtd:debug_heap.obj
 0001:0007d2f0       __CrtIsMemoryBlock         1007e2f0 f   libucrtd:debug_heap.obj
 0001:0007d440       __CrtIsValidHeapPointer    1007e440 f   libucrtd:debug_heap.obj
 0001:0007d480       __CrtIsValidPointer        1007e480 f   libucrtd:debug_heap.obj
 0001:0007d4b0       __CrtMemCheckpoint         1007e4b0 f   libucrtd:debug_heap.obj
 0001:0007d6e0       __CrtMemDifference         1007e6e0 f   libucrtd:debug_heap.obj
 0001:0007d950       __CrtMemDumpAllObjectsSince 1007e950 f   libucrtd:debug_heap.obj
 0001:0007d9f0       __CrtMemDumpStatistics     1007e9f0 f   libucrtd:debug_heap.obj
 0001:0007db20       __CrtReportBlockType       1007eb20 f   libucrtd:debug_heap.obj
 0001:0007db50       __CrtSetAllocHook          1007eb50 f   libucrtd:debug_heap.obj
 0001:0007db70       __CrtSetBreakAlloc         1007eb70 f   libucrtd:debug_heap.obj
 0001:0007db90       __CrtSetDbgBlockType       1007eb90 f   libucrtd:debug_heap.obj
 0001:0007dc70       __CrtSetDbgFlag            1007ec70 f   libucrtd:debug_heap.obj
 0001:0007dde0       __CrtSetDumpClient         1007ede0 f   libucrtd:debug_heap.obj
 0001:0007de00       ___acrt_get_locale_data_prefix 1007ee00 f i libucrtd:debug_heap.obj
 0001:0007de20       ___p__crtBreakAlloc        1007ee20 f   libucrtd:debug_heap.obj
 0001:0007de30       ___p__crtDbgFlag           1007ee30 f   libucrtd:debug_heap.obj
 0001:0007de40       __aligned_free_dbg         1007ee40 f   libucrtd:debug_heap.obj
 0001:0007def0       __aligned_malloc_dbg       1007eef0 f   libucrtd:debug_heap.obj
 0001:0007df20       __aligned_msize_dbg        1007ef20 f   libucrtd:debug_heap.obj
 0001:0007e050       __aligned_offset_malloc_dbg 1007f050 f   libucrtd:debug_heap.obj
 0001:0007e230       __aligned_offset_realloc_dbg 1007f230 f   libucrtd:debug_heap.obj
 0001:0007e540       __aligned_offset_recalloc_dbg 1007f540 f   libucrtd:debug_heap.obj
 0001:0007e600       __aligned_realloc_dbg      1007f600 f   libucrtd:debug_heap.obj
 0001:0007e630       __aligned_recalloc_dbg     1007f630 f   libucrtd:debug_heap.obj
 0001:0007e660       __calloc_dbg               1007f660 f   libucrtd:debug_heap.obj
 0001:0007e6d0       __chvalidchk_l             1007f6d0 f i libucrtd:debug_heap.obj
 0001:0007e6f0       __expand_dbg               1007f6f0 f   libucrtd:debug_heap.obj
 0001:0007e820       __free_dbg                 1007f820 f   libucrtd:debug_heap.obj
 0001:0007e8d0       __ischartype_l             1007f8d0 f i libucrtd:debug_heap.obj
 0001:0007e950       __malloc_dbg               1007f950 f   libucrtd:debug_heap.obj
 0001:0007e970       __msize_dbg                1007f970 f   libucrtd:debug_heap.obj
 0001:0007eb00       __realloc_dbg              1007fb00 f   libucrtd:debug_heap.obj
 0001:0007eba0       __recalloc_dbg             1007fba0 f   libucrtd:debug_heap.obj
 0001:0007ec50       __initterm                 1007fc50 f   libucrtd:initterm.obj
 0001:0007eca0       __initterm_e               1007fca0 f   libucrtd:initterm.obj
 0001:0007f010       _strcpy_s                  10080010 f   libucrtd:strcpy_s.obj
 0001:0007f440       _strcat_s                  10080440 f   libucrtd:strcat_s.obj
 0001:0007f460       ??$?B$$A6AHI@Z@__crt_fast_encoded_nullptr_t@@QBEP6AHI@ZXZ 10080460 f i libucrtd:new_handler.obj
 0001:0007f480       ??$__crt_fast_decode_pointer@P6AHI@Z@@YAP6AHI@ZQ6AHI@Z@Z 10080480 f i libucrtd:new_handler.obj
 0001:0007f4b0       ??$__crt_fast_encode_pointer@P6AHI@Z@@YAP6AHI@ZQ6AHI@Z@Z 100804b0 f i libucrtd:new_handler.obj
 0001:0007f4e0       ?_set_new_handler@@YAP6AHI@ZH@Z 100804e0 f   libucrtd:new_handler.obj
 0001:0007f540       ?initialize@?$dual_state_global@P6AHI@Z@__crt_state_management@@QAEXQ6AHI@Z@Z 10080540 f i libucrtd:new_handler.obj
 0001:0007f580       ?value@?$dual_state_global@P6AHI@Z@__crt_state_management@@QAEAAP6AHI@ZXZ 10080580 f i libucrtd:new_handler.obj
 0001:0007f5a0       ___acrt_initialize_new_handler 100805a0 f   libucrtd:new_handler.obj
 0001:0007f5c0       __callnewh                 100805c0 f   libucrtd:new_handler.obj
 0001:0007f610       __query_new_handler        10080610 f   libucrtd:new_handler.obj
 0001:0007f6a0       __set_new_handler          100806a0 f   libucrtd:new_handler.obj
 0001:0007f780       __get_terminate            10080780 f   libucrtd:terminate.obj
 0001:0007f7a0       _set_terminate             100807a0 f   libucrtd:terminate.obj
 0001:0007f7d0       _terminate                 100807d0 f   libucrtd:terminate.obj
 0001:000801d0       __makepath                 100811d0 f   libucrtd:makepath.obj
 0001:00080200       __makepath_s               10081200 f   libucrtd:makepath.obj
 0001:00080230       __wmakepath                10081230 f   libucrtd:makepath.obj
 0001:00080260       __wmakepath_s              10081260 f   libucrtd:makepath.obj
 0001:00081d30       ??$tcsncpy_s@AAPADIAAPBDABI@?$__crt_char_traits@D@@SAHAAPAD$$QAIAAPBDABI@Z 10082d30 f i libucrtd:splitpath.obj
 0001:00081d60       ??$tcsncpy_s@AAPADIAAPBDH@?$__crt_char_traits@D@@SAHAAPAD$$QAIAAPBD$$QAH@Z 10082d60 f i libucrtd:splitpath.obj
 0001:00081d90       ??$tcsncpy_s@AAPA_WIAAPB_WABI@?$__crt_char_traits@_W@@SAHAAPA_W$$QAIAAPB_WABI@Z 10082d90 f i libucrtd:splitpath.obj
 0001:00081dc0       ??$tcsncpy_s@AAPA_WIAAPB_WH@?$__crt_char_traits@_W@@SAHAAPA_W$$QAIAAPB_W$$QAH@Z 10082dc0 f i libucrtd:splitpath.obj
 0001:00082000       __splitpath                10083000 f   libucrtd:splitpath.obj
 0001:00082030       __splitpath_s              10083030 f   libucrtd:splitpath.obj
 0001:00082080       __wsplitpath               10083080 f   libucrtd:splitpath.obj
 0001:000820b0       __wsplitpath_s             100830b0 f   libucrtd:splitpath.obj
 0001:00082100       __set_abort_behavior       10083100 f   libucrtd:abort.obj
 0001:00082130       _abort                     10083130 f   libucrtd:abort.obj
 0001:000821a0       _strcmp                    100831a0 f   libucrtd:strcmp.obj
 0001:00082230       _strlen                    10083230 f   libucrtd:strlen.obj
 0001:000822c0       ??$is_overflow_condition@_K@__crt_strtox@@YA_NI_K@Z 100832c0 f i libucrtd:atox.obj
 0001:00082350       ??$make_c_string_character_source@D$$T@__crt_strtox@@YA?AV?$c_string_character_source@D@0@QBD$$T@Z 10083350 f i libucrtd:atox.obj
 0001:00082370       ??$make_c_string_character_source@_W$$T@__crt_strtox@@YA?AV?$c_string_character_source@_W@0@QB_W$$T@Z 10083370 f i libucrtd:atox.obj
 0001:00082390       ??$parse_integer@KV?$c_string_character_source@D@__crt_strtox@@$00@__crt_strtox@@YAKAAV__crt_cached_ptd_host@@V?$c_string_character_source@D@0@H_N@Z 10083390 f i libucrtd:atox.obj
 0001:000826f0       ??$parse_integer@KV?$c_string_character_source@_W@__crt_strtox@@$00@__crt_strtox@@YAKAAV__crt_cached_ptd_host@@V?$c_string_character_source@_W@0@H_N@Z 100836f0 f i libucrtd:atox.obj
 0001:00082a60       ??$parse_integer@_KV?$c_string_character_source@D@__crt_strtox@@$00@__crt_strtox@@YA_KAAV__crt_cached_ptd_host@@V?$c_string_character_source@D@0@H_N@Z 10083a60 f i libucrtd:atox.obj
 0001:00082e50       ??$parse_integer@_KV?$c_string_character_source@_W@__crt_strtox@@$00@__crt_strtox@@YA_KAAV__crt_cached_ptd_host@@V?$c_string_character_source@_W@0@H_N@Z 10083e50 f i libucrtd:atox.obj
 0001:00083240       ??$parse_integer_from_string@JD$$T@__crt_strtox@@YAJQBD$$THQAU__crt_locale_pointers@@@Z 10084240 f i libucrtd:atox.obj
 0001:000832a0       ??$parse_integer_from_string@J_W$$T@__crt_strtox@@YAJQB_W$$THQAU__crt_locale_pointers@@@Z 100842a0 f i libucrtd:atox.obj
 0001:00083300       ??$parse_integer_from_string@_JD$$T@__crt_strtox@@YA_JQBD$$THQAU__crt_locale_pointers@@@Z 10084300 f i libucrtd:atox.obj
 0001:00083360       ??$parse_integer_from_string@_J_W$$T@__crt_strtox@@YA_JQB_W$$THQAU__crt_locale_pointers@@@Z 10084360 f i libucrtd:atox.obj
 0001:000833c0       ?is_space@__crt_strtox@@YA_NDQAU__crt_locale_pointers@@@Z 100843c0 f i libucrtd:atox.obj
 0001:00083400       ?is_space@__crt_strtox@@YA_N_WPAU__crt_locale_pointers@@@Z 10084400 f i libucrtd:atox.obj
 0001:00083430       ?maximum_signed_value@__crt_strtox@@YA_J_K@Z 10084430 f i libucrtd:atox.obj
 0001:00083440       ?minimum_signed_value@__crt_strtox@@YA_J_K@Z 10084440 f i libucrtd:atox.obj
 0001:00083450       __atoi64                   10084450 f   libucrtd:atox.obj
 0001:00083470       __atoi64_l                 10084470 f   libucrtd:atox.obj
 0001:00083490       __atoi_l                   10084490 f   libucrtd:atox.obj
 0001:000834b0       __atol_l                   100844b0 f   libucrtd:atox.obj
 0001:000834d0       __atoll_l                  100844d0 f   libucrtd:atox.obj
 0001:000834f0       __wtoi                     100844f0 f   libucrtd:atox.obj
 0001:00083510       __wtoi64                   10084510 f   libucrtd:atox.obj
 0001:00083530       __wtoi64_l                 10084530 f   libucrtd:atox.obj
 0001:00083550       __wtoi_l                   10084550 f   libucrtd:atox.obj
 0001:00083570       __wtol                     10084570 f   libucrtd:atox.obj
 0001:00083590       __wtol_l                   10084590 f   libucrtd:atox.obj
 0001:000835b0       __wtoll                    100845b0 f   libucrtd:atox.obj
 0001:000835d0       __wtoll_l                  100845d0 f   libucrtd:atox.obj
 0001:000835f0       _atoi                      100845f0 f   libucrtd:atox.obj
 0001:00083610       _atol                      10084610 f   libucrtd:atox.obj
 0001:00083630       _atoll                     10084630 f   libucrtd:atox.obj
 0001:00083650       _strncmp                   10084650 f   libucrtd:strncmp.obj
 0001:000836d0       _wcsncmp                   100846d0 f   libucrtd:wcsncmp.obj
 0001:00083730       __CrtGetDebugFillThreshold 10084730 f   libucrtd:debug_fill_threshold.obj
 0001:00083740       __CrtSetDebugFillThreshold 10084740 f   libucrtd:debug_fill_threshold.obj
 0001:00083760       ?value@?$dual_state_global@PAU__crt_locale_data@@@__crt_state_management@@QAEAAPAU__crt_locale_data@@XZ 10084760 f i libucrtd:locale_update.obj
 0001:00083780       ?value@?$dual_state_global@PAU__crt_multibyte_data@@@__crt_state_management@@QAEAAPAU__crt_multibyte_data@@XZ 10084780 f i libucrtd:locale_update.obj
 0001:000837a0       ?value_explicit@?$dual_state_global@PAU__crt_locale_data@@@__crt_state_management@@QAEAAPAU__crt_locale_data@@I@Z 100847a0 f i libucrtd:locale_update.obj
 0001:000837c0       ?value_explicit@?$dual_state_global@PAU__crt_multibyte_data@@@__crt_state_management@@QAEAAPAU__crt_multibyte_data@@I@Z 100847c0 f i libucrtd:locale_update.obj
 0001:000837e0       ___acrt_should_sync_with_global_locale 100847e0 f i libucrtd:locale_update.obj
 0001:00083810       ___acrt_update_locale_info 10084810 f   libucrtd:locale_update.obj
 0001:00083850       ___acrt_update_locale_info_explicit 10084850 f   libucrtd:locale_update.obj
 0001:00083890       ___acrt_update_multibyte_info 10084890 f   libucrtd:locale_update.obj
 0001:000838d0       ___acrt_update_multibyte_info_explicit 100848d0 f   libucrtd:locale_update.obj
 0001:00083910       ?__acrt_fp_classify@@YA?AW4__acrt_fp_class@@ABN@Z 10084910 f i libucrtd:cvt.obj
 0001:00083a30       ?__acrt_fp_is_negative@@YA_NABN@Z 10084a30 f i libucrtd:cvt.obj
 0001:00084c40       ?strrchr@@YAPADQADH@Z      10085c40 f i libucrtd:cvt.obj
 0001:00084c60       ___acrt_fp_format          10085c60 f   libucrtd:cvt.obj
 0001:000850e0       ?value_or@?$cached@H@__crt_cached_ptd_host@@QBEHH@Z 100860e0 f i libucrtd:wctomb.obj
 0001:00085110       __wctomb_internal          10086110 f   libucrtd:wctomb.obj
 0001:00085490       __wctomb_l                 10086490 f   libucrtd:wctomb.obj
 0001:00085510       __wctomb_s_l               10086510 f   libucrtd:wctomb.obj
 0001:00085560       _wctomb                    10086560 f   libucrtd:wctomb.obj
 0001:000855d0       _wctomb_s                  100865d0 f   libucrtd:wctomb.obj
 0001:00085620       __isleadbyte_fast_internal 10086620 f i libucrtd:mbtowc.obj
 0001:00085640       __mbtowc_internal          10086640 f   libucrtd:mbtowc.obj
 0001:000858d0       __mbtowc_l                 100868d0 f   libucrtd:mbtowc.obj
 0001:00085910       _mbtowc                    10086910 f   libucrtd:mbtowc.obj
 0001:00085950       ?lowio_handle@__crt_stdio_stream@@QBEHXZ 10086950 f i libucrtd:fileno.obj
 0001:00085970       __fileno                   10086970 f   libucrtd:fileno.obj
 0001:00085a10       ??$?RPAU__crt_stdio_stream_data@@@__crt_internal_free_policy@@QBEXQBQAU__crt_stdio_stream_data@@@Z 10086a10 f i libucrtd:_file.obj
 0001:00085a30       ??0?$__crt_unique_heap_ptr@PAU__crt_stdio_stream_data@@U__crt_internal_free_policy@@@@QAE@QAPAU__crt_stdio_stream_data@@@Z 10086a30 f i libucrtd:_file.obj
 0001:00085a50       ??1?$__crt_unique_heap_ptr@PAU__crt_stdio_stream_data@@U__crt_internal_free_policy@@@@QAE@XZ 10086a50 f i libucrtd:_file.obj
 0001:00085a70       ?detach@?$__crt_unique_heap_ptr@PAU__crt_stdio_stream_data@@U__crt_internal_free_policy@@@@QAEPAPAU__crt_stdio_stream_data@@XZ 10086a70 f i libucrtd:_file.obj
 0001:00085aa0       ?release@?$__crt_unique_heap_ptr@PAU__crt_stdio_stream_data@@U__crt_internal_free_policy@@@@QAEXXZ 10086aa0 f i libucrtd:_file.obj
 0001:00085ad0       ___acrt_initialize_stdio   10086ad0 f   libucrtd:_file.obj
 0001:00085c40       ___acrt_iob_func           10086c40 f   libucrtd:_file.obj
 0001:00085c50       ___acrt_uninitialize_stdio 10086c50 f   libucrtd:_file.obj
 0001:00085cd0       __get_stream_buffer_pointers 10086cd0 f   libucrtd:_file.obj
 0001:00085db0       __lock_file                10086db0 f   libucrtd:_file.obj
 0001:00085de0       __unlock_file              10086de0 f   libucrtd:_file.obj
 0001:00085e10       __get_printf_count_output  10086e10 f   libucrtd:printf_count_output.obj
 0001:00085e40       __set_printf_count_output  10086e40 f   libucrtd:printf_count_output.obj
 0001:00086040       __fputwc_nolock            10087040 f   libucrtd:fputwc.obj
 0001:00086080       __fputwc_nolock_internal   10087080 f   libucrtd:fputwc.obj
 0001:00086290       __fputwchar                10087290 f   libucrtd:fputwc.obj
 0001:000862b0       __putwc_nolock             100872b0 f   libucrtd:fputwc.obj
 0001:000862d0       _fputwc                    100872d0 f   libucrtd:fputwc.obj
 0001:00086310       _putwc                     10087310 f   libucrtd:fputwc.obj
 0001:00086330       _putwchar                  10087330 f   libucrtd:fputwc.obj
 0001:00086350       ?has_any_buffer@__crt_stdio_stream@@QBE_NXZ 10087350 f i libucrtd:_sftbuf.obj
 0001:00086370       ?has_any_of@__crt_stdio_stream@@QBE_NJ@Z 10087370 f i libucrtd:_sftbuf.obj
 0001:000863b0       ?has_temporary_buffer@__crt_stdio_stream@@QBE_NXZ 100873b0 f i libucrtd:_sftbuf.obj
 0001:000863d0       ?set_flags@__crt_stdio_stream@@QBE_NJ@Z 100873d0 f i libucrtd:_sftbuf.obj
 0001:00086420       ?unset_flags@__crt_stdio_stream@@QBE_NJ@Z 10087420 f i libucrtd:_sftbuf.obj
 0001:00086470       ___acrt_should_use_temporary_buffer 10087470 f   libucrtd:_sftbuf.obj
 0001:000864c0       ___acrt_stdio_begin_temporary_buffering_nolock 100874c0 f   libucrtd:_sftbuf.obj
 0001:00086690       ___acrt_stdio_end_temporary_buffering_nolock 10087690 f   libucrtd:_sftbuf.obj
 0001:00086710       ??$?RU__acrt_ptd@@@__crt_internal_free_policy@@QBEXQBU__acrt_ptd@@@Z 10087710 f i libucrtd:per_thread_data.obj
 0001:00086c80       ??0?$__crt_unique_heap_ptr@U__acrt_ptd@@U__crt_internal_free_policy@@@@QAE@QAU__acrt_ptd@@@Z 10087c80 f i libucrtd:per_thread_data.obj
 0001:00086ca0       ??1?$__crt_unique_heap_ptr@U__acrt_ptd@@U__crt_internal_free_policy@@@@QAE@XZ 10087ca0 f i libucrtd:per_thread_data.obj
 0001:00086cc0       ??B?$__crt_unique_heap_ptr@U__acrt_ptd@@U__crt_internal_free_policy@@@@QBE_NXZ 10087cc0 f i libucrtd:per_thread_data.obj
 0001:00086fd0       ?dangerous_get_state_array@?$dual_state_global@PAU__crt_locale_data@@@__crt_state_management@@QAEPAPAU__crt_locale_data@@XZ 10087fd0 f i libucrtd:per_thread_data.obj
 0001:00087170       ?detach@?$__crt_unique_heap_ptr@U__acrt_ptd@@U__crt_internal_free_policy@@@@QAEPAU__acrt_ptd@@XZ 10088170 f i libucrtd:per_thread_data.obj
 0001:000871a0       ?get@?$__crt_unique_heap_ptr@U__acrt_ptd@@U__crt_internal_free_policy@@@@QBEPAU__acrt_ptd@@XZ 100881a0 f i libucrtd:per_thread_data.obj
 0001:00087340       ?is_valid@?$__crt_unique_heap_ptr@U__acrt_ptd@@U__crt_internal_free_policy@@@@QBE_NXZ 10088340 f i libucrtd:per_thread_data.obj
 0001:00087370       ?release@?$__crt_unique_heap_ptr@U__acrt_ptd@@U__crt_internal_free_policy@@@@QAEXXZ 10088370 f i libucrtd:per_thread_data.obj
 0001:00087460       ___acrt_freeptd            10088460 f   libucrtd:per_thread_data.obj
 0001:00087490       ___acrt_getptd             10088490 f   libucrtd:per_thread_data.obj
 0001:000874b0       ___acrt_getptd_head        100884b0 f   libucrtd:per_thread_data.obj
 0001:000874d0       ___acrt_getptd_noexit      100884d0 f   libucrtd:per_thread_data.obj
 0001:000874e0       ___acrt_getptd_noexit_explicit 100884e0 f   libucrtd:per_thread_data.obj
 0001:00087500       ___acrt_initialize_ptd     10088500 f   libucrtd:per_thread_data.obj
 0001:00087540       ___acrt_uninitialize_ptd   10088540 f   libucrtd:per_thread_data.obj
 0001:00087570       ___threadhandle            10088570 f   libucrtd:per_thread_data.obj
 0001:00087580       ___threadid                10088580 f   libucrtd:per_thread_data.obj
 0001:000875a0       ??$?RU__crt_locale_data@@@__crt_internal_free_policy@@QBEXQBU__crt_locale_data@@@Z 100885a0 f i libucrtd:wsetlocale.obj
 0001:000875c0       ??$?RU__crt_locale_pointers@@@__crt_internal_free_policy@@QBEXQBU__crt_locale_pointers@@@Z 100885c0 f i libucrtd:wsetlocale.obj
 0001:000875e0       ??$?RU__crt_multibyte_data@@@__crt_internal_free_policy@@QBEXQBU__crt_multibyte_data@@@Z 100885e0 f i libucrtd:wsetlocale.obj
 0001:00087cc0       ??0?$__crt_unique_heap_ptr@U__crt_locale_data@@U__crt_internal_free_policy@@@@QAE@QAU__crt_locale_data@@@Z 10088cc0 f i libucrtd:wsetlocale.obj
 0001:00087ce0       ??0?$__crt_unique_heap_ptr@U__crt_locale_pointers@@U__crt_internal_free_policy@@@@QAE@QAU__crt_locale_pointers@@@Z 10088ce0 f i libucrtd:wsetlocale.obj
 0001:00087d00       ??0?$__crt_unique_heap_ptr@U__crt_multibyte_data@@U__crt_internal_free_policy@@@@QAE@QAU__crt_multibyte_data@@@Z 10088d00 f i libucrtd:wsetlocale.obj
 0001:00087d20       ??0_expandlocale_locale_name_cache@@QAE@QA_WIQAU__crt_qualified_locale_data@@@Z 10088d20 f i libucrtd:wsetlocale.obj
 0001:00087d90       ??1?$__crt_unique_heap_ptr@U__crt_locale_data@@U__crt_internal_free_policy@@@@QAE@XZ 10088d90 f i libucrtd:wsetlocale.obj
 0001:00087db0       ??1?$__crt_unique_heap_ptr@U__crt_locale_pointers@@U__crt_internal_free_policy@@@@QAE@XZ 10088db0 f i libucrtd:wsetlocale.obj
 0001:00087dd0       ??1?$__crt_unique_heap_ptr@U__crt_multibyte_data@@U__crt_internal_free_policy@@@@QAE@XZ 10088dd0 f i libucrtd:wsetlocale.obj
 0001:00087df0       ??1_expandlocale_locale_name_cache@@QAE@XZ 10088df0 f i libucrtd:wsetlocale.obj
 0001:00087e50       ??B?$__crt_unique_heap_ptr@U__crt_locale_data@@U__crt_internal_free_policy@@@@QBE_NXZ 10088e50 f i libucrtd:wsetlocale.obj
 0001:00087e70       ??B?$__crt_unique_heap_ptr@U__crt_locale_pointers@@U__crt_internal_free_policy@@@@QBE_NXZ 10088e70 f i libucrtd:wsetlocale.obj
 0001:00087e90       ??B?$__crt_unique_heap_ptr@U__crt_multibyte_data@@U__crt_internal_free_policy@@@@QBE_NXZ 10088e90 f i libucrtd:wsetlocale.obj
 0001:00088280       ?commit_locale_name@_expandlocale_locale_name_cache@@QAEXQB_WI@Z 10089280 f i libucrtd:wsetlocale.obj
 0001:000882e0       ?commit_locale_name_cache_already_updated@_expandlocale_locale_name_cache@@QAEXQB_WI@Z 100892e0 f i libucrtd:wsetlocale.obj
 0001:00088340       ?detach@?$__crt_unique_heap_ptr@U__crt_locale_data@@U__crt_internal_free_policy@@@@QAEPAU__crt_locale_data@@XZ 10089340 f i libucrtd:wsetlocale.obj
 0001:00088370       ?detach@?$__crt_unique_heap_ptr@U__crt_locale_pointers@@U__crt_internal_free_policy@@@@QAEPAU__crt_locale_pointers@@XZ 10089370 f i libucrtd:wsetlocale.obj
 0001:000883a0       ?detach@?$__crt_unique_heap_ptr@U__crt_multibyte_data@@U__crt_internal_free_policy@@@@QAEPAU__crt_multibyte_data@@XZ 100893a0 f i libucrtd:wsetlocale.obj
 0001:000883d0       ?get@?$__crt_unique_heap_ptr@U__crt_locale_data@@U__crt_internal_free_policy@@@@QBEPAU__crt_locale_data@@XZ 100893d0 f i libucrtd:wsetlocale.obj
 0001:000883f0       ?get@?$__crt_unique_heap_ptr@U__crt_locale_pointers@@U__crt_internal_free_policy@@@@QBEPAU__crt_locale_pointers@@XZ 100893f0 f i libucrtd:wsetlocale.obj
 0001:00088410       ?get@?$__crt_unique_heap_ptr@U__crt_multibyte_data@@U__crt_internal_free_policy@@@@QBEPAU__crt_multibyte_data@@XZ 10089410 f i libucrtd:wsetlocale.obj
 0001:00088430       ?is_valid@?$__crt_unique_heap_ptr@U__crt_locale_data@@U__crt_internal_free_policy@@@@QBE_NXZ 10089430 f i libucrtd:wsetlocale.obj
 0001:00088460       ?is_valid@?$__crt_unique_heap_ptr@U__crt_locale_pointers@@U__crt_internal_free_policy@@@@QBE_NXZ 10089460 f i libucrtd:wsetlocale.obj
 0001:00088490       ?is_valid@?$__crt_unique_heap_ptr@U__crt_multibyte_data@@U__crt_internal_free_policy@@@@QBE_NXZ 10089490 f i libucrtd:wsetlocale.obj
 0001:000884c0       ?release@?$__crt_unique_heap_ptr@U__crt_locale_data@@U__crt_internal_free_policy@@@@QAEXXZ 100894c0 f i libucrtd:wsetlocale.obj
 0001:000884f0       ?release@?$__crt_unique_heap_ptr@U__crt_locale_pointers@@U__crt_internal_free_policy@@@@QAEXXZ 100894f0 f i libucrtd:wsetlocale.obj
 0001:00088520       ?release@?$__crt_unique_heap_ptr@U__crt_multibyte_data@@U__crt_internal_free_policy@@@@QAEXXZ 10089520 f i libucrtd:wsetlocale.obj
 0001:00088550       ___acrt_copy_locale_name   10089550 f   libucrtd:wsetlocale.obj
 0001:000885f0       ___acrt_set_locale_changed 100895f0 f   libucrtd:wsetlocale.obj
 0001:00088610       ___acrt_uninitialize_locale 10089610 f   libucrtd:wsetlocale.obj
 0001:00088630       ___ascii_tolower           10089630 f i libucrtd:wsetlocale.obj
 0001:00088650       ___ascii_towlower          10089650 f i libucrtd:wsetlocale.obj
 0001:00088670       ___lc_lctowcs              10089670 f   libucrtd:wsetlocale.obj
 0001:00088720       ___lc_wcstolc              10089720 f   libucrtd:wsetlocale.obj
 0001:00088950       __configthreadlocale       10089950 f   libucrtd:wsetlocale.obj
 0001:00088ad0       __create_locale            10089ad0 f   libucrtd:wsetlocale.obj
 0001:00089110       __free_locale              1008a110 f   libucrtd:wsetlocale.obj
 0001:00089240       __get_current_locale       1008a240 f   libucrtd:wsetlocale.obj
 0001:00089320       __wcreate_locale           1008a320 f   libucrtd:wsetlocale.obj
 0001:00089570       __wcscats                  1008a570 f   libucrtd:wsetlocale.obj
 0001:000895f0       __wsetlocale               1008a5f0 f   libucrtd:wsetlocale.obj
 0001:0008ad00       ___p___mb_cur_max          1008bd00 f   libucrtd:nlsdata.obj
 0001:0008b000       ___acrt_initialize_lowio   1008c000 f   libucrtd:ioinit.obj
 0001:0008b0a0       ___acrt_uninitialize_lowio 1008c0a0 f   libucrtd:ioinit.obj
 0001:0008b100       __CrtGetReportHook         1008c100 f   libucrtd:dbgrptt.obj
 0001:0008b110       __CrtSetReportFile         1008c110 f   libucrtd:dbgrptt.obj
 0001:0008b210       __CrtSetReportHook         1008c210 f   libucrtd:dbgrptt.obj
 0001:0008b230       __CrtSetReportMode         1008c230 f   libucrtd:dbgrptt.obj
 0001:0008b370       __VCrtDbgReportA           1008c370 f   libucrtd:dbgrptt.obj
 0001:0008bc40       __VCrtDbgReportW           1008cc40 f   libucrtd:dbgrptt.obj
 0001:0008c660       __snprintf_s               1008d660 f i libucrtd:dbgrptt.obj
 0001:0008c6a0       __vsnprintf_s              1008d6a0 f i libucrtd:dbgrptt.obj
 0001:0008c6d0       __vsnprintf_s_l            1008d6d0 f i libucrtd:dbgrptt.obj
 0001:0008c730       ??$__acrt_convert_wcs_mbs_cp@_WDV<lambda_0fec1a7b3f42a53036604e18c2d5e07e>@@U__crt_win32_buffer_no_resizing@@@@YAHQB_WAAV?$__crt_win32_buffer@DU__crt_win32_buffer_no_resizing@@@@ABV<lambda_0fec1a7b3f42a53036604e18c2d5e07e>@@I@Z 1008d730 f i libucrtd:getmodulefilenamea.obj
 0001:0008c870       ??$__acrt_wcs_to_mbs_cp@U__crt_win32_buffer_no_resizing@@@@YAHQB_WAAV?$__crt_win32_buffer@DU__crt_win32_buffer_no_resizing@@@@I@Z 1008d870 f i libucrtd:getmodulefilenamea.obj
