 OPOSPINPad

 Timestamp is 5c43fef0 (Sun Jan 20 13:54:08 2019)

 Preferred load address is 10000000

 Start         Length     Name                   Class
 0001:00000000 00000d90H .text$di                CODE
 0001:00000d90 000a2870H .text$mn                CODE
 0001:000a3600 00000140H .text$x                 CODE
 0001:000a3740 00000120H .text$yd                CODE
 0002:00000000 0000036cH .idata$5                DATA
 0002:0000036c 00000004H .00cfg                  DATA
 0002:00000370 00000004H .CRT$XCA                DATA
 0002:00000374 00000004H .CRT$XCL                DATA
 0002:00000378 0000006cH .CRT$XCU                DATA
 0002:000003e4 00000004H .CRT$XCZ                DATA
 0002:000003e8 00000004H .CRT$XIA                DATA
 0002:000003ec 00000010H .CRT$XIC                DATA
 0002:000003fc 00000004H .CRT$XIZ                DATA
 0002:00000400 00000004H .CRT$XLA                DATA
 0002:00000404 00000004H .CRT$XLZ                DATA
 0002:00000408 00000004H .CRT$XPA                DATA
 0002:0000040c 00000008H .CRT$XPX                DATA
 0002:00000414 00000004H .CRT$XPXA               DATA
 0002:00000418 00000004H .CRT$XPZ                DATA
 0002:0000041c 00000004H .CRT$XTA                DATA
 0002:00000420 00000010H .CRT$XTZ                DATA
 0002:00000424 00000000H .gfids$x                DATA
 0002:00000424 00000000H .gfids$y                DATA
 0002:00000430 0002e358H .rdata                  DATA
 0002:0002e788 00000018H .rdata$T                DATA
 0002:0002e7a0 00000340H .rdata$r                DATA
 0002:0002eae0 00000038H .rdata$sxdata           DATA
 0002:0002eb18 00000400H .rdata$zzzdbg           DATA
 0002:0002ef18 00000004H .rtc$IAA                DATA
 0002:0002ef1c 00000018H .rtc$IMZ                DATA
 0002:0002ef34 00000004H .rtc$IZZ                DATA
 0002:0002ef38 00000004H .rtc$TAA                DATA
 0002:0002ef3c 00000018H .rtc$TMZ                DATA
 0002:0002ef54 00000004H .rtc$TZZ                DATA
 0002:0002ef58 00000004H .tls                    DATA
 0002:0002ef5c 00000004H .tls$                   DATA
 0002:0002ef60 00000008H .tls$ZZZ                DATA
 0002:0002ef68 00000d94H .xdata$x                DATA
 0002:0002fcfc 00000004H ATL$__a                 DATA
 0002:0002fd00 00000010H ATL$__z                 DATA
 0002:0002fd10 000000a8H .edata                  DATA
 0002:0002fdb8 00000078H .idata$2                DATA
 0002:0002fe30 00000014H .idata$3                DATA
 0002:0002fe44 0000036cH .idata$4                DATA
 0002:000301b0 00000dbaH .idata$6                DATA
 0003:00000000 00000b80H .data                   DATA
 0003:00000b80 00000138H .data$r                 DATA
 0003:00000cb8 00003570H .bss                    DATA
 0004:00000000 00000220H .rsrc$01                DATA
 0004:00000220 00004b40H .rsrc$02                DATA

  Address         Publics by Value              Rva+Base       Lib:Object

 0000:00000000       ___guard_fids_count        00000000     <absolute>
 0000:00000000       ___guard_longjmp_count     00000000     <absolute>
 0000:00000000       ___dynamic_value_reloc_table 00000000     <absolute>
 0000:00000000       ___volatile_metadata       00000000     <absolute>
 0000:00000000       ___hybrid_auxiliary_iat    00000000     <absolute>
 0000:00000000       ___guard_longjmp_table     00000000     <absolute>
 0000:00000000       ___hybrid_code_map_count   00000000     <absolute>
 0000:00000000       ___hybrid_code_map         00000000     <absolute>
 0000:00000000       ___enclave_config          00000000     <absolute>
 0000:00000000       __except_list              00000000     <absolute>
 0000:00000000       ___guard_fids_table        00000000     <absolute>
 0000:00000000       ___guard_iat_table         00000000     <absolute>
 0000:00000000       ___guard_iat_count         00000000     <absolute>
 0000:0000000e       ___safe_se_handler_count   0000000e     <absolute>
 0000:0000002c       __tls_array                0000002c     <absolute>
 0000:00000100       ___guard_flags             00000100     <absolute>
 0000:00000000       ___ImageBase               10000000     <linker-defined>
 0001:00000d90       ?_assert@@YAXPB_W0I@Z      10001d90 f   Assert.obj
 0001:00000ec0       ___local_stdio_printf_options 10001ec0 f i Assert.obj
 0001:00000ed0       ___vswprintf_l             10001ed0 f i Assert.obj
 0001:00000f00       __swprintf                 10001f00 f i Assert.obj
 0001:00000f60       __vswprintf_c_l            10001f60 f i Assert.obj
 0001:00000fd0       __vswprintf_l              10001fd0 f i Assert.obj
 0001:00001000       ?cw_memcpy@@YGHPADPB_WH@Z  10002000 f   CWString.obj
 0001:00001060       ?cw_memcpy@@YGHPA_WPBDH@Z  10002060 f   CWString.obj
 0001:000010c0       ?cw_memcpy@@YGHPADPBDH@Z   100020c0 f   CWString.obj
 0001:00001110       ?cw_memcpy@@YGHPA_WPB_WH@Z 10002110 f   CWString.obj
 0001:00001150       ?cw_memset@@YAXPADDH@Z     10002150 f   CWString.obj
 0001:00001170       ?cw_memset@@YAXPA_W_WH@Z   10002170 f   CWString.obj
 0001:00001190       ?cw_strlen@@YAHPBD@Z       10002190 f   CWString.obj
 0001:000011e0       ?cw_strlen@@YAHPB_W@Z      100021e0 f   CWString.obj
 0001:00001230       ?cw_strcpy@@YAHPADPB_W@Z   10002230 f   CWString.obj
 0001:00001250       ?cw_strcpy@@YAHPA_WPBD@Z   10002250 f   CWString.obj
 0001:00001270       ?cw_strcpy@@YAHPADPBD@Z    10002270 f   CWString.obj
 0001:00001290       ?cw_strcpy@@YAHPA_WPB_W@Z  10002290 f   CWString.obj
 0001:000012b0       ?cw_strcat@@YAHPADPB_W@Z   100022b0 f   CWString.obj
 0001:000012e0       ?cw_strcat@@YAHPA_WPBD@Z   100022e0 f   CWString.obj
 0001:00001310       ?cw_strcat@@YAHPADPBD@Z    10002310 f   CWString.obj
 0001:00001340       ?cw_strcat@@YAHPA_WPB_W@Z  10002340 f   CWString.obj
 0001:00001370       ?cw_dup@@YGXPBDAAHAAPA_W1@Z 10002370 f   CWString.obj
 0001:00001430       ?cw_dup@@YGXPB_WAAHAAPAD1@Z 10002430 f   CWString.obj
 0001:000014e0       ?DupChar@_CW@@AAEXXZ       100024e0 f   CWString.obj
 0001:00001530       ?DupWide@_CW@@AAEXXZ       10002530 f   CWString.obj
 0001:00001580       ?GetCharsMbcs@_CW@@QAEHXZ  10002580 f   CWString.obj
 0001:000015e0       ?GetCharsWide@_CW@@QAEHXZ  100025e0 f   CWString.obj
 0001:00001640       ?SetVARIANT_BOOL@OposVariant@@QAEXF@Z 10002640 f   OposVariant.obj
 0001:000016a0       ?SetVARIANT_BOOL_Ptr@OposVariant@@QAEXPAFAAJ@Z 100026a0 f   OposVariant.obj
 0001:000016f0       ?GetLONG@OposVariant@@QAEJXZ 100026f0 f   OposVariant.obj
 0001:00001780       ?ChangeLONG@OposVariant@@QAEXPAJAAJ@Z 10002780 f   OposVariant.obj
 0001:00001840       ?SetLONG@OposVariant@@QAEXJ@Z 10002840 f   OposVariant.obj
 0001:00001880       ?SetLONG_Ptr@OposVariant@@QAEXPAJAAJ@Z 10002880 f   OposVariant.obj
 0001:000018d0       ?ChangeCURRENCY@OposVariant@@QAEXPATtagCY@@AAJ@Z 100028d0 f   OposVariant.obj
 0001:00001990       ?SetCURRENCY@OposVariant@@QAEXTtagCY@@@Z 10002990 f   OposVariant.obj
 0001:000019d0       ?SetCURRENCY_Ptr@OposVariant@@QAEXPATtagCY@@AAJ@Z 100029d0 f   OposVariant.obj
 0001:00001a20       ?ChangeBSTR@OposVariant@@QAEXPAPA_WAAJ@Z 10002a20 f   OposVariant.obj
 0001:00001ae0       ?SetBSTR@OposVariant@@QAEXPA_WAAJ@Z 10002ae0 f   OposVariant.obj
 0001:00001b30       ?SetBSTR_Copy@OposVariant@@QAEXPA_WAAJ@Z 10002b30 f   OposVariant.obj
 0001:00001bd0       ?SetBSTR_OutPtr@OposVariant@@QAE_NPAPA_WAAJ@Z 10002bd0 f   OposVariant.obj
 0001:00001c20       ?SetBSTR_InOutPtr@OposVariant@@QAE_NPAPA_WAAJ@Z 10002c20 f   OposVariant.obj
 0001:00001c70       ?SetVARIANT@OposVariant@@QAEXAAUtagVARIANT@@GAAJ@Z 10002c70 f   OposVariant.obj
 0001:00001cf0       ?SetVARIANT_Ptr@OposVariant@@QAEXAAPAUtagVARIANT@@GAAJ@Z 10002cf0 f   OposVariant.obj
 0001:00001d90       ?SetString@OposVariant@@QAEXPB_WAAJ@Z 10002d90 f   OposVariant.obj
 0001:00001e20       ?SetDispatch_Ptr@OposVariant@@QAEXPAUIDispatch@@AAJ@Z 10002e20 f   OposVariant.obj
 0001:00001e90       ??0OposDispParms@@QAE@PAVOposVariant@@H@Z 10002e90 f   OposVariant.obj
 0001:00001f60       ??1OposDispParms@@QAE@XZ   10002f60 f   OposVariant.obj
 0001:00001fb0       ??$AtlMultiply@I@ATL@@YAJPAIII@Z 10002fb0 f i OposVariant.obj
 0001:00002010       ??0?$CHeapPtr@_WVCCRTAllocator@ATL@@@ATL@@QAE@XZ 10003010 f i OposVariant.obj
 0001:00002040       ??0?$CHeapPtrBase@_WVCCRTAllocator@ATL@@@ATL@@IAE@XZ 10003040 f i OposVariant.obj
 0001:00002060       ??0?$CSimpleArray@GV?$CSimpleArrayEqualHelper@G@ATL@@@ATL@@QAE@XZ 10003060 f i OposVariant.obj
 0001:000020a0       ??0?$CTraceCategoryEx@$00$0A@@ATL@@QAE@PB_W@Z 100030a0 f i OposVariant.obj
 0001:000020d0       ??0?$CTraceCategoryEx@$01$0A@@ATL@@QAE@PB_W@Z 100030d0 f i OposVariant.obj
 0001:00002100       ??0?$CTraceCategoryEx@$03$0A@@ATL@@QAE@PB_W@Z 10003100 f i OposVariant.obj
 0001:00002130       ??0?$CTraceCategoryEx@$07$0A@@ATL@@QAE@PB_W@Z 10003130 f i OposVariant.obj
 0001:00002160       ??0?$CTraceCategoryEx@$0BA@$0A@@ATL@@QAE@PB_W@Z 10003160 f i OposVariant.obj
 0001:00002190       ??0?$CTraceCategoryEx@$0BAA@$0A@@ATL@@QAE@PB_W@Z 10003190 f i OposVariant.obj
 0001:000021d0       ??0?$CTraceCategoryEx@$0BAAA@$0A@@ATL@@QAE@PB_W@Z 100031d0 f i OposVariant.obj
 0001:00002210       ??0?$CTraceCategoryEx@$0BAAAA@$0A@@ATL@@QAE@PB_W@Z 10003210 f i OposVariant.obj
 0001:00002250       ??0?$CTraceCategoryEx@$0BAAAAA@$0A@@ATL@@QAE@PB_W@Z 10003250 f i OposVariant.obj
 0001:00002290       ??0?$CTraceCategoryEx@$0CA@$0A@@ATL@@QAE@PB_W@Z 10003290 f i OposVariant.obj
 0001:000022c0       ??0?$CTraceCategoryEx@$0CAA@$0A@@ATL@@QAE@PB_W@Z 100032c0 f i OposVariant.obj
 0001:00002300       ??0?$CTraceCategoryEx@$0CAAA@$0A@@ATL@@QAE@PB_W@Z 10003300 f i OposVariant.obj
 0001:00002340       ??0?$CTraceCategoryEx@$0CAAAA@$0A@@ATL@@QAE@PB_W@Z 10003340 f i OposVariant.obj
 0001:00002380       ??0?$CTraceCategoryEx@$0CAAAAA@$0A@@ATL@@QAE@PB_W@Z 10003380 f i OposVariant.obj
 0001:000023c0       ??0?$CTraceCategoryEx@$0EA@$0A@@ATL@@QAE@PB_W@Z 100033c0 f i OposVariant.obj
 0001:000023f0       ??0?$CTraceCategoryEx@$0EAA@$0A@@ATL@@QAE@PB_W@Z 100033f0 f i OposVariant.obj
 0001:00002430       ??0?$CTraceCategoryEx@$0EAAA@$0A@@ATL@@QAE@PB_W@Z 10003430 f i OposVariant.obj
 0001:00002470       ??0?$CTraceCategoryEx@$0EAAAA@$0A@@ATL@@QAE@PB_W@Z 10003470 f i OposVariant.obj
 0001:000024b0       ??0?$CTraceCategoryEx@$0EAAAAA@$0A@@ATL@@QAE@PB_W@Z 100034b0 f i OposVariant.obj
 0001:000024f0       ??0?$CTraceCategoryEx@$0IA@$0A@@ATL@@QAE@PB_W@Z 100034f0 f i OposVariant.obj
 0001:00002530       ??0?$CTraceCategoryEx@$0IAA@$0A@@ATL@@QAE@PB_W@Z 10003530 f i OposVariant.obj
 0001:00002570       ??0?$CTraceCategoryEx@$0IAAA@$0A@@ATL@@QAE@PB_W@Z 10003570 f i OposVariant.obj
 0001:000025b0       ??0?$CTraceCategoryEx@$0IAAAA@$0A@@ATL@@QAE@PB_W@Z 100035b0 f i OposVariant.obj
 0001:000025f0       ??0CAtlComModule@ATL@@QAE@XZ 100035f0 f i OposVariant.obj
 0001:000026d0       ??0CAtlWinModule@ATL@@QAE@XZ 100036d0 f i OposVariant.obj
 0001:00002760       ??0CComCriticalSection@ATL@@QAE@XZ 10003760 f i OposVariant.obj
 0001:00002790       ??0CPreserveLastError@ATL@@QAE@XZ 10003790 f i OposVariant.obj
 0001:000027d0       ??0CTraceFileAndLineInfo@ATL@@QAE@PBDH@Z 100037d0 f i OposVariant.obj
 0001:00002800       ??0_ATL_COM_MODULE70@ATL@@QAE@XZ 10003800 f i OposVariant.obj
 0001:00002830       ??0_ATL_WIN_MODULE70@ATL@@QAE@XZ 10003830 f i OposVariant.obj
 0001:00002870       ??1?$CHeapPtr@_WVCCRTAllocator@ATL@@@ATL@@QAE@XZ 10003870 f i OposVariant.obj
 0001:000028a0       ??1?$CHeapPtrBase@_WVCCRTAllocator@ATL@@@ATL@@QAE@XZ 100038a0 f i OposVariant.obj
 0001:000028d0       ??1?$CSimpleArray@GV?$CSimpleArrayEqualHelper@G@ATL@@@ATL@@QAE@XZ 100038d0 f i OposVariant.obj
 0001:00002900       ??1CAtlComModule@ATL@@QAE@XZ 10003900 f i OposVariant.obj
 0001:00002930       ??1CAtlWinModule@ATL@@QAE@XZ 10003930 f i OposVariant.obj
 0001:00002960       ??1CComBSTR@ATL@@QAE@XZ    10003960 f i OposVariant.obj
 0001:000029a0       ??1CComCriticalSection@ATL@@QAE@XZ 100039a0 f i OposVariant.obj
 0001:000029c0       ??1CPreserveLastError@ATL@@QAE@XZ 100039c0 f i OposVariant.obj
 0001:00002a00       ??1_ATL_COM_MODULE70@ATL@@QAE@XZ 10003a00 f i OposVariant.obj
 0001:00002a30       ??1_ATL_WIN_MODULE70@ATL@@QAE@XZ 10003a30 f i OposVariant.obj
 0001:00002a70       ??1stringdispid@CComTypeInfoHolder@ATL@@QAE@XZ 10003a70 f i OposVariant.obj
 0001:00002aa0       ??A?$CSimpleArray@GV?$CSimpleArrayEqualHelper@G@ATL@@@ATL@@QAEAAGH@Z 10003aa0 f i OposVariant.obj
 0001:00002b20       ??B?$CHeapPtrBase@_WVCCRTAllocator@ATL@@@ATL@@QBEPA_WXZ 10003b20 f i OposVariant.obj
 0001:00002b40       ??B?$CTraceCategoryEx@$01$0A@@ATL@@QAEIXZ 10003b40 f i OposVariant.obj
 0001:00002b60       ??B?$CTraceCategoryEx@$0CA@$0A@@ATL@@QAEIXZ 10003b60 f i OposVariant.obj
 0001:00002b80       ??RCTraceFileAndLineInfo@ATL@@QBAXHIPB_WZZ 10003b80 f i OposVariant.obj
 0001:00002c20       ??_Estringdispid@CComTypeInfoHolder@ATL@@QAEPAXI@Z 10003c20 f i OposVariant.obj
 0001:00002cb0       ??_H@YGXPAXIIP6EPAX0@Z@Z   10003cb0 f i OposVariant.obj
 0001:00002d20       ??_I@YGXPAXIIP6EX0@Z@Z     10003d20 f i OposVariant.obj
 0001:00002da0       ?Allocate@?$CHeapPtr@_WVCCRTAllocator@ATL@@@ATL@@QAE_NI@Z 10003da0 f i OposVariant.obj
 0001:00002e30       ?Allocate@CCRTAllocator@ATL@@SAPAXI@Z 10003e30 f i OposVariant.obj
 0001:00002e50       ?AllocateBytes@?$CHeapPtrBase@_WVCCRTAllocator@ATL@@@ATL@@QAE_NI@Z 10003e50 f i OposVariant.obj
 0001:00002ec0       ?AtlWinModuleInit@ATL@@YGJPAU_ATL_WIN_MODULE70@1@@Z 10003ec0 f i OposVariant.obj
 0001:00002f90       ?AtlWinModuleTerm@ATL@@YGJPAU_ATL_WIN_MODULE70@1@PAUHINSTANCE__@@@Z 10003f90 f i OposVariant.obj
 0001:00003050       ?Clear@OposVariant@@QAEJXZ 10004050 f i OposVariant.obj
 0001:00003090       ?Free@?$CHeapPtrBase@_WVCCRTAllocator@ATL@@@ATL@@QAEXXZ 10004090 f i OposVariant.obj
 0001:000030d0       ?Free@CCRTAllocator@ATL@@SAXPAX@Z 100040d0 f i OposVariant.obj
 0001:000030f0       ?GetCategoryName@CTrace@ATL@@CAPA_WI@Z 100040f0 f i OposVariant.obj
 0001:00003140       ?GetModuleInstance@CAtlBaseModule@ATL@@QAEPAUHINSTANCE__@@XZ 10004140 f i OposVariant.obj
 0001:00003160       ?GetSize@?$CSimpleArray@GV?$CSimpleArrayEqualHelper@G@ATL@@@ATL@@QBEHXZ 10004160 f i OposVariant.obj
 0001:00003180       ?Init@CComCriticalSection@ATL@@QAEJXZ 10004180 f i OposVariant.obj
 0001:000031e0       ?RegisterCategory@CTrace@ATL@@SAXPB_WI@Z 100041e0 f i OposVariant.obj
 0001:00003270       ?RemoveAll@?$CSimpleArray@GV?$CSimpleArrayEqualHelper@G@ATL@@@ATL@@QAEXXZ 10004270 f i OposVariant.obj
 0001:000032f0       ?Term@CAtlComModule@ATL@@QAEXXZ 100042f0 f i OposVariant.obj
 0001:000033b0       ?Term@CAtlWinModule@ATL@@QAEXXZ 100043b0 f i OposVariant.obj
 0001:000033e0       ?Term@CComCriticalSection@ATL@@QAEJXZ 100043e0 f i OposVariant.obj
 0001:00003420       ?TraceV@CTrace@ATL@@CAXPBDHIIPB_W@Z 10004420 f i OposVariant.obj
 0001:000036a0       ?TraceV@CTrace@ATL@@SAXPBDHIIPB_WPAD@Z 100046a0 f i OposVariant.obj
 0001:000037e0       ?_AtlInitializeCriticalSectionEx@ATL@@YAHPAU_RTL_CRITICAL_SECTION@@KK@Z 100047e0 f i OposVariant.obj
 0001:00003810       ?_AtlRaiseException@ATL@@YAXKK@Z 10004810 f i OposVariant.obj
 0001:00003840       _HRESULT_FROM_WIN32        10004840 f i OposVariant.obj
 0001:00003880       __vswprintf_s_l            10004880 f i OposVariant.obj
 0001:000038f0       _swprintf_s                100048f0 f i OposVariant.obj
 0001:00003950       ?CreateInstance@?$CComCreator@V?$CComObjectCached@VCComClassFactory@ATL@@@ATL@@@ATL@@SGJPAXABU_GUID@@PAPAX@Z 10004950 f i PINPad.obj
 0001:00003ae0       ?CreateInstance@?$CComCreator2@V?$CComCreator@V?$CComObject@VCOPOSPINPad@@@ATL@@@ATL@@V?$CComCreator@V?$CComAggObject@VCOPOSPINPad@@@ATL@@@2@@ATL@@SGJPAXABU_GUID@@PAPAX@Z 10004ae0 f i PINPad.obj
 0001:00003b60       ?ObjectMain@CComObjectRootBase@ATL@@SGX_N@Z 10004b60 f i PINPad.obj
 0001:00003b70       ?GetCategoryMap@CComObjectRootBase@ATL@@SAPBU_ATL_CATMAP_ENTRY@2@XZ 10004b70 f i PINPad.obj
 0001:00003b80       ?GetObjectDescription@?$CComCoClass@VCOPOSPINPad@@$1?CLSID_OPOSPINPad@@3U_GUID@@B@ATL@@SGPB_WXZ 10004b80 f i PINPad.obj
 0001:00003b90       ?UpdateRegistry@COPOSPINPad@@SGJH@Z 10004b90 f i PINPad.obj
 0001:00003ce0       _DllGetClassObject@12      10004ce0 f   PINPad.obj
 0001:00003d10       _DllCanUnloadNow@0         10004d10 f   PINPad.obj
 0001:00003d50       _DllRegisterServer@0       10004d50 f   PINPad.obj
 0001:00003d70       _DllUnregisterServer@0     10004d70 f   PINPad.obj
 0001:00003f00       _DllMain@12                10004f00 f   PINPad.obj
 0001:00003f60       ??$?2G@Wrapper@?$CSimpleArray@GV?$CSimpleArrayEqualHelper@G@ATL@@@ATL@@SAPAXIPAG@Z 10004f60 f i PINPad.obj
 0001:00003f70       ??$?2PA_W@?$Wrapper@PA_W@?$CSimpleMap@PA_WPA_WVCExpansionVectorEqualHelper@ATL@@@ATL@@SAPAXIPAPA_W@Z 10004f70 f i PINPad.obj
 0001:00003f80       ??$?4UITypeInfo2@@@?$CComPtr@UITypeInfo@@@ATL@@QAEPAUITypeInfo@@ABV?$CComPtr@UITypeInfo2@@@1@@Z 10004f80 f i PINPad.obj
 0001:00003fe0       ??$AtlAdd@K@ATL@@YAJPAKKK@Z 10004fe0 f i PINPad.obj
 0001:00004020       ??$AtlAdd@_K@ATL@@YAJPA_K_K1@Z 10005020 f i PINPad.obj
 0001:00004090       ??$AtlAddThrow@K@ATL@@YAKKK@Z 10005090 f i PINPad.obj
 0001:00004110       ??$AtlModuleRegisterWndClassInfoT@VAtlModuleRegisterWndClassInfoParamW@ATL@@@ATL@@YAGPAU_ATL_BASE_MODULE70@0@PAU_ATL_WIN_MODULE70@0@PAU_ATL_WNDCLASSINFOW@0@PAP6GJPAUHWND__@@IIJ@ZVAtlModuleRegisterWndClassInfoParamW@0@@Z 10005110 f i PINPad.obj
 0001:00004520       ??$AtlMultiply@H@ATL@@YAJPAHHH@Z 10005520 f i PINPad.obj
 0001:000045a0       ??$AtlMultiply@K@ATL@@YAJPAKKK@Z 100055a0 f i PINPad.obj
 0001:00004600       ??$AtlMultiplyThrow@I@ATL@@YAIII@Z 10005600 f i PINPad.obj
 0001:00004680       ??$QueryInterface@UIPersistStream@@@IUnknown@@QAGJPAPAUIPersistStream@@@Z 10005680 f i PINPad.obj
 0001:000046b0       ??$QueryInterface@UITypeInfo2@@@IUnknown@@QAGJPAPAUITypeInfo2@@@Z 100056b0 f i PINPad.obj
 0001:000046e0       ??0?$CAtlModuleT@VCComModule@ATL@@@ATL@@QAE@XZ 100056e0 f i PINPad.obj
 0001:00004710       ??0?$CAtlSafeAllocBufferManager@VCCRTAllocator@ATL@@@_ATL_SAFE_ALLOCA_IMPL@ATL@@QAE@XZ 10005710 f i PINPad.obj
 0001:00004730       ??0?$CAutoVectorPtr@_W@ATL@@QAE@XZ 10005730 f i PINPad.obj
 0001:00004750       ??0?$CComAggObject@VCOPOSPINPad@@@ATL@@QAE@PAX@Z 10005750 f i PINPad.obj
 0001:000047c0       ??0?$CComContainedObject@VCOPOSPINPad@@@ATL@@QAE@PAX@Z 100057c0 f i PINPad.obj
 0001:000048d0       ??0?$CComCritSecLock@VCComCriticalSection@ATL@@@ATL@@QAE@AAVCComCriticalSection@1@_N@Z 100058d0 f i PINPad.obj
 0001:00004930       ??0?$CComEnum@UIEnumConnectionPoints@@$1?_GUID_b196b285_bab4_101a_b69c_00aa00341d07@@3U__s_GUID@@BPAUIConnectionPoint@@V?$_CopyInterface@UIConnectionPoint@@@ATL@@VCComSingleThreadModel@6@@ATL@@QAE@XZ 10005930 f i PINPad.obj
 0001:00004970       ??0?$CComEnum@UIEnumConnections@@$1?_GUID_b196b287_bab4_101a_b69c_00aa00341d07@@3U__s_GUID@@BUtagCONNECTDATA@@V?$_Copy@UtagCONNECTDATA@@@ATL@@VCComSingleThreadModel@6@@ATL@@QAE@XZ 10005970 f i PINPad.obj
 0001:000049b0       ??0?$CComEnumImpl@UIEnumConnectionPoints@@$1?_GUID_b196b285_bab4_101a_b69c_00aa00341d07@@3U__s_GUID@@BPAUIConnectionPoint@@V?$_CopyInterface@UIConnectionPoint@@@ATL@@@ATL@@QAE@XZ 100059b0 f i PINPad.obj
 0001:00004a10       ??0?$CComEnumImpl@UIEnumConnections@@$1?_GUID_b196b287_bab4_101a_b69c_00aa00341d07@@3U__s_GUID@@BUtagCONNECTDATA@@V?$_Copy@UtagCONNECTDATA@@@ATL@@@ATL@@QAE@XZ 10005a10 f i PINPad.obj
 0001:00004a70       ??0?$CComObject@V?$CComEnum@UIEnumConnectionPoints@@$1?_GUID_b196b285_bab4_101a_b69c_00aa00341d07@@3U__s_GUID@@BPAUIConnectionPoint@@V?$_CopyInterface@UIConnectionPoint@@@ATL@@VCComSingleThreadModel@6@@ATL@@@ATL@@QAE@PAX@Z 10005a70 f i PINPad.obj
 0001:00004ac0       ??0?$CComObject@V?$CComEnum@UIEnumConnections@@$1?_GUID_b196b287_bab4_101a_b69c_00aa00341d07@@3U__s_GUID@@BUtagCONNECTDATA@@V?$_Copy@UtagCONNECTDATA@@@ATL@@VCComSingleThreadModel@6@@ATL@@@ATL@@QAE@PAX@Z 10005ac0 f i PINPad.obj
 0001:00004b10       ??0?$CComObject@VCOPOSPINPad@@@ATL@@QAE@PAX@Z 10005b10 f i PINPad.obj
 0001:00004c30       ??0?$CComObjectCached@VCComClassFactory@ATL@@@ATL@@QAE@PAX@Z 10005c30 f i PINPad.obj
 0001:00004c70       ??0?$CComObjectRootEx@VCComMultiThreadModel@ATL@@@ATL@@QAE@XZ 10005c70 f i PINPad.obj
 0001:00004cb0       ??0?$CComObjectRootEx@VCComSingleThreadModel@ATL@@@ATL@@QAE@XZ 10005cb0 f i PINPad.obj
 0001:00004ce0       ??0?$CComPtr@UIAdviseSink@@@ATL@@QAE@PAUIAdviseSink@@@Z 10005ce0 f i PINPad.obj
 0001:00004d10       ??0?$CComPtr@UICatRegister@@@ATL@@QAE@XZ 10005d10 f i PINPad.obj
 0001:00004d40       ??0?$CComPtr@UIConnectionPoint@@@ATL@@QAE@XZ 10005d40 f i PINPad.obj
 0001:00004d70       ??0?$CComPtr@UIConnectionPointContainer@@@ATL@@QAE@XZ 10005d70 f i PINPad.obj
 0001:00004da0       ??0?$CComPtr@UIDataObject@@@ATL@@QAE@XZ 10005da0 f i PINPad.obj
 0001:00004dd0       ??0?$CComPtr@UIDispatch@@@ATL@@QAE@XZ 10005dd0 f i PINPad.obj
 0001:00004e00       ??0?$CComPtr@UIOleClientSite@@@ATL@@QAE@PAUIOleClientSite@@@Z 10005e00 f i PINPad.obj
 0001:00004e30       ??0?$CComPtr@UIOleControlSite@@@ATL@@QAE@XZ 10005e30 f i PINPad.obj
 0001:00004e60       ??0?$CComPtr@UIOleInPlaceActiveObject@@@ATL@@QAE@XZ 10005e60 f i PINPad.obj
 0001:00004e90       ??0?$CComPtr@UIOleInPlaceFrame@@@ATL@@QAE@XZ 10005e90 f i PINPad.obj
 0001:00004ec0       ??0?$CComPtr@UIOleInPlaceObject@@@ATL@@QAE@XZ 10005ec0 f i PINPad.obj
 0001:00004ef0       ??0?$CComPtr@UIOleInPlaceUIWindow@@@ATL@@QAE@XZ 10005ef0 f i PINPad.obj
 0001:00004f20       ??0?$CComPtr@UIOleObject@@@ATL@@QAE@XZ 10005f20 f i PINPad.obj
 0001:00004f50       ??0?$CComPtr@UIPersistStream@@@ATL@@QAE@XZ 10005f50 f i PINPad.obj
 0001:00004f80       ??0?$CComPtr@UIPersistStreamInit@@@ATL@@QAE@XZ 10005f80 f i PINPad.obj
 0001:00004fb0       ??0?$CComPtr@UIPointerInactive@@@ATL@@QAE@XZ 10005fb0 f i PINPad.obj
 0001:00004fe0       ??0?$CComPtr@UIProvideClassInfo2@@@ATL@@QAE@XZ 10005fe0 f i PINPad.obj
 0001:00005010       ??0?$CComPtr@UISpecifyPropertyPages@@@ATL@@QAE@XZ 10006010 f i PINPad.obj
 0001:00005040       ??0?$CComPtr@UIStream@@@ATL@@QAE@XZ 10006040 f i PINPad.obj
 0001:00005070       ??0?$CComPtr@UITypeInfo2@@@ATL@@QAE@XZ 10006070 f i PINPad.obj
 0001:000050a0       ??0?$CComPtr@UITypeInfo@@@ATL@@QAE@ABV01@@Z 100060a0 f i PINPad.obj
 0001:000050d0       ??0?$CComPtr@UITypeInfo@@@ATL@@QAE@XZ 100060d0 f i PINPad.obj
 0001:00005100       ??0?$CComPtr@UITypeLib@@@ATL@@QAE@XZ 10006100 f i PINPad.obj
 0001:00005130       ??0?$CComPtr@UIUnknown@@@ATL@@QAE@ABV01@@Z 10006130 f i PINPad.obj
 0001:00005160       ??0?$CComPtr@UIUnknown@@@ATL@@QAE@PAUIUnknown@@@Z 10006160 f i PINPad.obj
 0001:00005190       ??0?$CComPtr@UIUnknown@@@ATL@@QAE@XZ 10006190 f i PINPad.obj
 0001:000051c0       ??0?$CComPtr@UIViewObjectEx@@@ATL@@QAE@XZ 100061c0 f i PINPad.obj
 0001:000051f0       ??0?$CComPtrBase@UIAdviseSink@@@ATL@@IAE@PAUIAdviseSink@@@Z 100061f0 f i PINPad.obj
 0001:00005240       ??0?$CComPtrBase@UICatRegister@@@ATL@@IAE@XZ 10006240 f i PINPad.obj
 0001:00005260       ??0?$CComPtrBase@UIConnectionPoint@@@ATL@@IAE@XZ 10006260 f i PINPad.obj
 0001:00005280       ??0?$CComPtrBase@UIConnectionPointContainer@@@ATL@@IAE@XZ 10006280 f i PINPad.obj
 0001:000052a0       ??0?$CComPtrBase@UIDataObject@@@ATL@@IAE@XZ 100062a0 f i PINPad.obj
 0001:000052c0       ??0?$CComPtrBase@UIDispatch@@@ATL@@IAE@XZ 100062c0 f i PINPad.obj
 0001:000052e0       ??0?$CComPtrBase@UIOleClientSite@@@ATL@@IAE@PAUIOleClientSite@@@Z 100062e0 f i PINPad.obj
 0001:00005330       ??0?$CComPtrBase@UIOleControlSite@@@ATL@@IAE@XZ 10006330 f i PINPad.obj
 0001:00005350       ??0?$CComPtrBase@UIOleInPlaceActiveObject@@@ATL@@IAE@XZ 10006350 f i PINPad.obj
 0001:00005370       ??0?$CComPtrBase@UIOleInPlaceFrame@@@ATL@@IAE@XZ 10006370 f i PINPad.obj
 0001:00005390       ??0?$CComPtrBase@UIOleInPlaceObject@@@ATL@@IAE@XZ 10006390 f i PINPad.obj
 0001:000053b0       ??0?$CComPtrBase@UIOleInPlaceUIWindow@@@ATL@@IAE@XZ 100063b0 f i PINPad.obj
 0001:000053d0       ??0?$CComPtrBase@UIOleObject@@@ATL@@IAE@XZ 100063d0 f i PINPad.obj
 0001:000053f0       ??0?$CComPtrBase@UIPersistStream@@@ATL@@IAE@XZ 100063f0 f i PINPad.obj
 0001:00005410       ??0?$CComPtrBase@UIPersistStreamInit@@@ATL@@IAE@XZ 10006410 f i PINPad.obj
 0001:00005430       ??0?$CComPtrBase@UIPointerInactive@@@ATL@@IAE@XZ 10006430 f i PINPad.obj
 0001:00005450       ??0?$CComPtrBase@UIProvideClassInfo2@@@ATL@@IAE@XZ 10006450 f i PINPad.obj
 0001:00005470       ??0?$CComPtrBase@UISpecifyPropertyPages@@@ATL@@IAE@XZ 10006470 f i PINPad.obj
 0001:00005490       ??0?$CComPtrBase@UIStream@@@ATL@@IAE@XZ 10006490 f i PINPad.obj
 0001:000054b0       ??0?$CComPtrBase@UITypeInfo2@@@ATL@@IAE@XZ 100064b0 f i PINPad.obj
 0001:000054d0       ??0?$CComPtrBase@UITypeInfo@@@ATL@@IAE@PAUITypeInfo@@@Z 100064d0 f i PINPad.obj
 0001:00005520       ??0?$CComPtrBase@UITypeInfo@@@ATL@@IAE@XZ 10006520 f i PINPad.obj
 0001:00005540       ??0?$CComPtrBase@UITypeLib@@@ATL@@IAE@XZ 10006540 f i PINPad.obj
 0001:00005560       ??0?$CComPtrBase@UIUnknown@@@ATL@@IAE@PAUIUnknown@@@Z 10006560 f i PINPad.obj
 0001:000055b0       ??0?$CComPtrBase@UIUnknown@@@ATL@@IAE@XZ 100065b0 f i PINPad.obj
 0001:000055d0       ??0?$CComPtrBase@UIViewObjectEx@@@ATL@@IAE@XZ 100065d0 f i PINPad.obj
 0001:000055f0       ??0?$CComQIPtr@UIOleControlSite@@$1?_GUID_b196b289_bab4_101a_b69c_00aa00341d07@@3U__s_GUID@@B@ATL@@QAE@PAUIUnknown@@@Z 100065f0 f i PINPad.obj
 0001:00005650       ??0?$CComQIPtr@UIOleObject@@$1?_GUID_00000112_0000_0000_c000_000000000046@@3U__s_GUID@@B@ATL@@QAE@XZ 10006650 f i PINPad.obj
 0001:00005680       ??0?$CComQIPtr@UISpecifyPropertyPages@@$1?_GUID_b196b28b_bab4_101a_b69c_00aa00341d07@@3U__s_GUID@@B@ATL@@QAE@XZ 10006680 f i PINPad.obj
 0001:000056b0       ??0?$CSimpleMap@PA_WPA_WVCExpansionVectorEqualHelper@ATL@@@ATL@@QAE@XZ 100066b0 f i PINPad.obj
 0001:000056f0       ??0?$CTempBuffer@E$0BAA@VCCRTAllocator@ATL@@@ATL@@QAE@XZ 100066f0 f i PINPad.obj
 0001:00005710       ??0?$CTempBuffer@_W$0BAA@VCCRTAllocator@ATL@@@ATL@@QAE@XZ 10006710 f i PINPad.obj
 0001:00005730       ??0?$CTempBuffer@_W$0EAA@VCCRTAllocator@ATL@@@ATL@@QAE@XZ 10006730 f i PINPad.obj
 0001:00005750       ??0?$Wrapper@PA_W@?$CSimpleMap@PA_WPA_WVCExpansionVectorEqualHelper@ATL@@@ATL@@QAE@ABQA_W@Z 10006750 f i PINPad.obj
 0001:00005780       ??0CAtlModule@ATL@@QAE@XZ  10006780 f i PINPad.obj
 0001:000058a0       ??0CComAutoDeleteCriticalSection@ATL@@QAE@XZ 100068a0 f i PINPad.obj
 0001:000058d0       ??0CComBSTR@ATL@@QAE@XZ    100068d0 f i PINPad.obj
 0001:000058f0       ??0CComClassFactory@ATL@@QAE@XZ 100068f0 f i PINPad.obj
 0001:00005930       ??0CComModule@ATL@@QAE@XZ  10006930 f i PINPad.obj
 0001:000059a0       ??0CComObjectRootBase@ATL@@QAE@XZ 100069a0 f i PINPad.obj
 0001:000059c0       ??0CComSafeDeleteCriticalSection@ATL@@QAE@XZ 100069c0 f i PINPad.obj
 0001:000059f0       ??0CComVariant@ATL@@QAE@XZ 100069f0 f i PINPad.obj
 0001:00005a40       ??0CExpansionVector@ATL@@QAE@XZ 10006a40 f i PINPad.obj
 0001:00005a70       ??0CParseBuffer@CRegParser@ATL@@QAE@H@Z 10006a70 f i PINPad.obj
 0001:00005ae0       ??0CRegKey@ATL@@QAE@PAUHKEY__@@@Z 10006ae0 f i PINPad.obj
 0001:00005b20       ??0CRegKey@ATL@@QAE@PAVCAtlTransactionManager@1@@Z 10006b20 f i PINPad.obj
 0001:00005b60       ??0CRegObject@ATL@@QAE@XZ  10006b60 f i PINPad.obj
 0001:00005ba0       ??0CRegParser@ATL@@QAE@PAVCRegObject@1@@Z 10006ba0 f i PINPad.obj
 0001:00005bd0       ??0IClassFactory@@QAE@XZ   10006bd0 f i PINPad.obj
 0001:00005c00       ??0IEnumConnectionPoints@@QAE@XZ 10006c00 f i PINPad.obj
 0001:00005c30       ??0IEnumConnections@@QAE@XZ 10006c30 f i PINPad.obj
 0001:00005c60       ??0IRegistrarBase@@QAE@XZ  10006c60 f i PINPad.obj
 0001:00005c90       ??0IUnknown@@QAE@XZ        10006c90 f i PINPad.obj
 0001:00005cb0       ??0ModuleLockHelper@ATL@@QAE@XZ 10006cb0 f i PINPad.obj
 0001:00005cf0       ??0OposVariant@@QAE@XZ     10006cf0 f i PINPad.obj
 0001:00005d20       ??0Wrapper@?$CSimpleArray@GV?$CSimpleArrayEqualHelper@G@ATL@@@ATL@@QAE@ABG@Z 10006d20 f i PINPad.obj
 0001:00005d50       ??0_ATL_MODULE70@ATL@@QAE@XZ 10006d50 f i PINPad.obj
 0001:00005d80       ??0_ATL_MSG@ATL@@QAE@PAUHWND__@@IIJH@Z 10006d80 f i PINPad.obj
 0001:00005df0       ??0_U_MENUorID@ATL@@QAE@I@Z 10006df0 f i PINPad.obj
 0001:00005e10       ??0_U_RECT@ATL@@QAE@AAUtagRECT@@@Z 10006e10 f i PINPad.obj
 0001:00005e30       ??0stringdispid@CComTypeInfoHolder@ATL@@QAE@XZ 10006e30 f i PINPad.obj
 0001:00005e70       ??1?$CAtlModuleT@VCComModule@ATL@@@ATL@@UAE@XZ 10006e70 f i PINPad.obj
 0001:00005ea0       ??1?$CAtlSafeAllocBufferManager@VCCRTAllocator@ATL@@@_ATL_SAFE_ALLOCA_IMPL@ATL@@QAE@XZ 10006ea0 f i PINPad.obj
 0001:00005ef0       ??1?$CAutoVectorPtr@_W@ATL@@QAE@XZ 10006ef0 f i PINPad.obj
 0001:00005f20       ??1?$CComAggObject@VCOPOSPINPad@@@ATL@@UAE@XZ 10006f20 f i PINPad.obj
 0001:00005f90       ??1?$CComContainedObject@VCOPOSPINPad@@@ATL@@UAE@XZ 10006f90 f i PINPad.obj
 0001:00005fc0       ??1?$CComCritSecLock@VCComCriticalSection@ATL@@@ATL@@QAE@XZ 10006fc0 f i PINPad.obj
 0001:00005ff0       ??1?$CComEnum@UIEnumConnectionPoints@@$1?_GUID_b196b285_bab4_101a_b69c_00aa00341d07@@3U__s_GUID@@BPAUIConnectionPoint@@V?$_CopyInterface@UIConnectionPoint@@@ATL@@VCComSingleThreadModel@6@@ATL@@UAE@XZ 10006ff0 f i PINPad.obj
 0001:00006020       ??1?$CComEnum@UIEnumConnections@@$1?_GUID_b196b287_bab4_101a_b69c_00aa00341d07@@3U__s_GUID@@BUtagCONNECTDATA@@V?$_Copy@UtagCONNECTDATA@@@ATL@@VCComSingleThreadModel@6@@ATL@@UAE@XZ 10007020 f i PINPad.obj
 0001:00006050       ??1?$CComEnumImpl@UIEnumConnectionPoints@@$1?_GUID_b196b285_bab4_101a_b69c_00aa00341d07@@3U__s_GUID@@BPAUIConnectionPoint@@V?$_CopyInterface@UIConnectionPoint@@@ATL@@@ATL@@UAE@XZ 10007050 f i PINPad.obj
 0001:000060e0       ??1?$CComEnumImpl@UIEnumConnections@@$1?_GUID_b196b287_bab4_101a_b69c_00aa00341d07@@3U__s_GUID@@BUtagCONNECTDATA@@V?$_Copy@UtagCONNECTDATA@@@ATL@@@ATL@@UAE@XZ 100070e0 f i PINPad.obj
 0001:00006170       ??1?$CComObject@V?$CComEnum@UIEnumConnectionPoints@@$1?_GUID_b196b285_bab4_101a_b69c_00aa00341d07@@3U__s_GUID@@BPAUIConnectionPoint@@V?$_CopyInterface@UIConnectionPoint@@@ATL@@VCComSingleThreadModel@6@@ATL@@@ATL@@UAE@XZ 10007170 f i PINPad.obj
 0001:000061d0       ??1?$CComObject@V?$CComEnum@UIEnumConnections@@$1?_GUID_b196b287_bab4_101a_b69c_00aa00341d07@@3U__s_GUID@@BUtagCONNECTDATA@@V?$_Copy@UtagCONNECTDATA@@@ATL@@VCComSingleThreadModel@6@@ATL@@@ATL@@UAE@XZ 100071d0 f i PINPad.obj
 0001:00006230       ??1?$CComObject@VCOPOSPINPad@@@ATL@@UAE@XZ 10007230 f i PINPad.obj
 0001:00006370       ??1?$CComObjectCached@VCComClassFactory@ATL@@@ATL@@UAE@XZ 10007370 f i PINPad.obj
 0001:000063c0       ??1?$CComObjectRootEx@VCComMultiThreadModel@ATL@@@ATL@@QAE@XZ 100073c0 f i PINPad.obj
 0001:000063f0       ??1?$CComObjectRootEx@VCComSingleThreadModel@ATL@@@ATL@@QAE@XZ 100073f0 f i PINPad.obj
 0001:00006420       ??1?$CComPtr@UIAdviseSink@@@ATL@@QAE@XZ 10007420 f i PINPad.obj
 0001:00006450       ??1?$CComPtr@UICatRegister@@@ATL@@QAE@XZ 10007450 f i PINPad.obj
 0001:00006480       ??1?$CComPtr@UIConnectionPoint@@@ATL@@QAE@XZ 10007480 f i PINPad.obj
 0001:000064b0       ??1?$CComPtr@UIConnectionPointContainer@@@ATL@@QAE@XZ 100074b0 f i PINPad.obj
 0001:000064e0       ??1?$CComPtr@UIDataObject@@@ATL@@QAE@XZ 100074e0 f i PINPad.obj
 0001:00006510       ??1?$CComPtr@UIDispatch@@@ATL@@QAE@XZ 10007510 f i PINPad.obj
 0001:00006540       ??1?$CComPtr@UIOleClientSite@@@ATL@@QAE@XZ 10007540 f i PINPad.obj
 0001:00006570       ??1?$CComPtr@UIOleControlSite@@@ATL@@QAE@XZ 10007570 f i PINPad.obj
 0001:000065a0       ??1?$CComPtr@UIOleInPlaceActiveObject@@@ATL@@QAE@XZ 100075a0 f i PINPad.obj
 0001:000065d0       ??1?$CComPtr@UIOleInPlaceFrame@@@ATL@@QAE@XZ 100075d0 f i PINPad.obj
 0001:00006600       ??1?$CComPtr@UIOleInPlaceObject@@@ATL@@QAE@XZ 10007600 f i PINPad.obj
 0001:00006630       ??1?$CComPtr@UIOleInPlaceUIWindow@@@ATL@@QAE@XZ 10007630 f i PINPad.obj
 0001:00006660       ??1?$CComPtr@UIOleObject@@@ATL@@QAE@XZ 10007660 f i PINPad.obj
 0001:00006690       ??1?$CComPtr@UIPersistStream@@@ATL@@QAE@XZ 10007690 f i PINPad.obj
 0001:000066c0       ??1?$CComPtr@UIPersistStreamInit@@@ATL@@QAE@XZ 100076c0 f i PINPad.obj
 0001:000066f0       ??1?$CComPtr@UIPointerInactive@@@ATL@@QAE@XZ 100076f0 f i PINPad.obj
 0001:00006720       ??1?$CComPtr@UIProvideClassInfo2@@@ATL@@QAE@XZ 10007720 f i PINPad.obj
 0001:00006750       ??1?$CComPtr@UISpecifyPropertyPages@@@ATL@@QAE@XZ 10007750 f i PINPad.obj
 0001:00006780       ??1?$CComPtr@UIStream@@@ATL@@QAE@XZ 10007780 f i PINPad.obj
 0001:000067b0       ??1?$CComPtr@UITypeInfo2@@@ATL@@QAE@XZ 100077b0 f i PINPad.obj
 0001:000067e0       ??1?$CComPtr@UITypeInfo@@@ATL@@QAE@XZ 100077e0 f i PINPad.obj
 0001:00006810       ??1?$CComPtr@UITypeLib@@@ATL@@QAE@XZ 10007810 f i PINPad.obj
 0001:00006840       ??1?$CComPtr@UIUnknown@@@ATL@@QAE@XZ 10007840 f i PINPad.obj
 0001:00006870       ??1?$CComPtr@UIViewObjectEx@@@ATL@@QAE@XZ 10007870 f i PINPad.obj
 0001:000068a0       ??1?$CComPtrBase@UIAdviseSink@@@ATL@@QAE@XZ 100078a0 f i PINPad.obj
 0001:000068f0       ??1?$CComPtrBase@UICatRegister@@@ATL@@QAE@XZ 100078f0 f i PINPad.obj
 0001:00006940       ??1?$CComPtrBase@UIConnectionPoint@@@ATL@@QAE@XZ 10007940 f i PINPad.obj
 0001:00006990       ??1?$CComPtrBase@UIConnectionPointContainer@@@ATL@@QAE@XZ 10007990 f i PINPad.obj
 0001:000069e0       ??1?$CComPtrBase@UIDataObject@@@ATL@@QAE@XZ 100079e0 f i PINPad.obj
 0001:00006a30       ??1?$CComPtrBase@UIDispatch@@@ATL@@QAE@XZ 10007a30 f i PINPad.obj
 0001:00006a80       ??1?$CComPtrBase@UIOleClientSite@@@ATL@@QAE@XZ 10007a80 f i PINPad.obj
 0001:00006ad0       ??1?$CComPtrBase@UIOleControlSite@@@ATL@@QAE@XZ 10007ad0 f i PINPad.obj
 0001:00006b20       ??1?$CComPtrBase@UIOleInPlaceActiveObject@@@ATL@@QAE@XZ 10007b20 f i PINPad.obj
 0001:00006b70       ??1?$CComPtrBase@UIOleInPlaceFrame@@@ATL@@QAE@XZ 10007b70 f i PINPad.obj
 0001:00006bc0       ??1?$CComPtrBase@UIOleInPlaceObject@@@ATL@@QAE@XZ 10007bc0 f i PINPad.obj
 0001:00006c10       ??1?$CComPtrBase@UIOleInPlaceUIWindow@@@ATL@@QAE@XZ 10007c10 f i PINPad.obj
 0001:00006c60       ??1?$CComPtrBase@UIOleObject@@@ATL@@QAE@XZ 10007c60 f i PINPad.obj
 0001:00006cb0       ??1?$CComPtrBase@UIPersistStream@@@ATL@@QAE@XZ 10007cb0 f i PINPad.obj
 0001:00006d00       ??1?$CComPtrBase@UIPersistStreamInit@@@ATL@@QAE@XZ 10007d00 f i PINPad.obj
 0001:00006d50       ??1?$CComPtrBase@UIPointerInactive@@@ATL@@QAE@XZ 10007d50 f i PINPad.obj
 0001:00006da0       ??1?$CComPtrBase@UIProvideClassInfo2@@@ATL@@QAE@XZ 10007da0 f i PINPad.obj
 0001:00006df0       ??1?$CComPtrBase@UISpecifyPropertyPages@@@ATL@@QAE@XZ 10007df0 f i PINPad.obj
 0001:00006e40       ??1?$CComPtrBase@UIStream@@@ATL@@QAE@XZ 10007e40 f i PINPad.obj
 0001:00006e90       ??1?$CComPtrBase@UITypeInfo2@@@ATL@@QAE@XZ 10007e90 f i PINPad.obj
 0001:00006ee0       ??1?$CComPtrBase@UITypeInfo@@@ATL@@QAE@XZ 10007ee0 f i PINPad.obj
 0001:00006f30       ??1?$CComPtrBase@UITypeLib@@@ATL@@QAE@XZ 10007f30 f i PINPad.obj
 0001:00006f80       ??1?$CComPtrBase@UIUnknown@@@ATL@@QAE@XZ 10007f80 f i PINPad.obj
 0001:00006fd0       ??1?$CComPtrBase@UIViewObjectEx@@@ATL@@QAE@XZ 10007fd0 f i PINPad.obj
 0001:00007020       ??1?$CComQIPtr@UIOleControlSite@@$1?_GUID_b196b289_bab4_101a_b69c_00aa00341d07@@3U__s_GUID@@B@ATL@@QAE@XZ 10008020 f i PINPad.obj
 0001:00007050       ??1?$CComQIPtr@UIOleObject@@$1?_GUID_00000112_0000_0000_c000_000000000046@@3U__s_GUID@@B@ATL@@QAE@XZ 10008050 f i PINPad.obj
 0001:00007080       ??1?$CComQIPtr@UISpecifyPropertyPages@@$1?_GUID_b196b28b_bab4_101a_b69c_00aa00341d07@@3U__s_GUID@@B@ATL@@QAE@XZ 10008080 f i PINPad.obj
 0001:000070b0       ??1?$CSimpleMap@PA_WPA_WVCExpansionVectorEqualHelper@ATL@@@ATL@@QAE@XZ 100080b0 f i PINPad.obj
 0001:000070e0       ??1?$CTempBuffer@E$0BAA@VCCRTAllocator@ATL@@@ATL@@QAE@XZ 100080e0 f i PINPad.obj
 0001:00007120       ??1?$CTempBuffer@_W$0BAA@VCCRTAllocator@ATL@@@ATL@@QAE@XZ 10008120 f i PINPad.obj
 0001:00007160       ??1?$CTempBuffer@_W$0EAA@VCCRTAllocator@ATL@@@ATL@@QAE@XZ 10008160 f i PINPad.obj
 0001:000071a0       ??1CAtlModule@ATL@@UAE@XZ  100081a0 f i PINPad.obj
 0001:000071d0       ??1CComAutoDeleteCriticalSection@ATL@@QAE@XZ 100081d0 f i PINPad.obj
 0001:00007200       ??1CComClassFactory@ATL@@UAE@XZ 10008200 f i PINPad.obj
 0001:00007230       ??1CComModule@ATL@@UAE@XZ  10008230 f i PINPad.obj
 0001:00007260       ??1CComObjectRootBase@ATL@@QAE@XZ 10008260 f i PINPad.obj
 0001:00007280       ??1CComSafeDeleteCriticalSection@ATL@@QAE@XZ 10008280 f i PINPad.obj
 0001:000072c0       ??1CComVariant@ATL@@QAE@XZ 100082c0 f i PINPad.obj
 0001:00007320       ??1CExpansionVector@ATL@@QAE@XZ 10008320 f i PINPad.obj
 0001:00007350       ??1CParseBuffer@CRegParser@ATL@@QAE@XZ 10008350 f i PINPad.obj
 0001:00007390       ??1CRegKey@ATL@@QAE@XZ     10008390 f i PINPad.obj
 0001:000073c0       ??1CRegObject@ATL@@UAE@XZ  100083c0 f i PINPad.obj
 0001:00007400       ??1ModuleLockHelper@ATL@@QAE@XZ 10008400 f i PINPad.obj
 0001:00007440       ??1OposVariant@@QAE@XZ     10008440 f i PINPad.obj
 0001:00007470       ??1_ATL_MODULE70@ATL@@QAE@XZ 10008470 f i PINPad.obj
 0001:000074a0       ??4?$CComPtr@UIAdviseSink@@@ATL@@QAEPAUIAdviseSink@@PAU2@@Z 100084a0 f i PINPad.obj
 0001:00007510       ??4?$CComPtr@UIOleClientSite@@@ATL@@QAEPAUIOleClientSite@@PAU2@@Z 10008510 f i PINPad.obj
 0001:00007580       ??4?$CComPtr@UIUnknown@@@ATL@@QAEPAUIUnknown@@PAU2@@Z 10008580 f i PINPad.obj
 0001:000075f0       ??4?$CComQIPtr@UIOleObject@@$1?_GUID_00000112_0000_0000_c000_000000000046@@3U__s_GUID@@B@ATL@@QAEPAUIOleObject@@PAUIUnknown@@@Z 100085f0 f i PINPad.obj
 0001:00007640       ??4?$CComQIPtr@UISpecifyPropertyPages@@$1?_GUID_b196b28b_bab4_101a_b69c_00aa00341d07@@3U__s_GUID@@B@ATL@@QAEPAUISpecifyPropertyPages@@PAUIUnknown@@@Z 10008640 f i PINPad.obj
 0001:00007690       ??7?$CComPtrBase@UIOleClientSite@@@ATL@@QBE_NXZ 10008690 f i PINPad.obj
 0001:000076d0       ??7?$CComPtrBase@UIOleInPlaceSiteWindowless@@@ATL@@QBE_NXZ 100086d0 f i PINPad.obj
 0001:00007710       ??7CComBSTR@ATL@@QBE_NXZ   10008710 f i PINPad.obj
 0001:00007750       ??8?$CComPtrBase@UIAdviseSink@@@ATL@@QBE_NPAUIAdviseSink@@@Z 10008750 f i PINPad.obj
 0001:00007790       ??8?$CComPtrBase@UIConnectionPointContainer@@@ATL@@QBE_NPAUIConnectionPointContainer@@@Z 10008790 f i PINPad.obj
 0001:000077d0       ??8?$CComPtrBase@UIDataAdviseHolder@@@ATL@@QBE_NPAUIDataAdviseHolder@@@Z 100087d0 f i PINPad.obj
 0001:00007810       ??8?$CComPtrBase@UIOleAdviseHolder@@@ATL@@QBE_NPAUIOleAdviseHolder@@@Z 10008810 f i PINPad.obj
 0001:00007850       ??8?$CComPtrBase@UIOleClientSite@@@ATL@@QBE_NPAUIOleClientSite@@@Z 10008850 f i PINPad.obj
 0001:00007890       ??8?$CComPtrBase@UIOleControlSite@@@ATL@@QBE_NPAUIOleControlSite@@@Z 10008890 f i PINPad.obj
 0001:000078d0       ??8?$CComPtrBase@UIOleInPlaceObject@@@ATL@@QBE_NPAUIOleInPlaceObject@@@Z 100088d0 f i PINPad.obj
 0001:00007910       ??8?$CComPtrBase@UIOleInPlaceSiteWindowless@@@ATL@@QBE_NPAUIOleInPlaceSiteWindowless@@@Z 10008910 f i PINPad.obj
 0001:00007950       ??8?$CComPtrBase@UIOleObject@@@ATL@@QBE_NPAUIOleObject@@@Z 10008950 f i PINPad.obj
 0001:00007990       ??8?$CComPtrBase@UIPersistStream@@@ATL@@QBE_NPAUIPersistStream@@@Z 10008990 f i PINPad.obj
 0001:000079d0       ??8?$CComPtrBase@UIPersistStreamInit@@@ATL@@QBE_NPAUIPersistStreamInit@@@Z 100089d0 f i PINPad.obj
 0001:00007a10       ??8?$CComPtrBase@UIPointerInactive@@@ATL@@QBE_NPAUIPointerInactive@@@Z 10008a10 f i PINPad.obj
 0001:00007a50       ??8?$CComPtrBase@UIUnknown@@@ATL@@QBE_NPAUIUnknown@@@Z 10008a50 f i PINPad.obj
 0001:00007a90       ??8?$CComPtrBase@UIViewObjectEx@@@ATL@@QBE_NPAUIViewObjectEx@@@Z 10008a90 f i PINPad.obj
 0001:00007ad0       ??8CComBSTR@ATL@@QBE_NH@Z  10008ad0 f i PINPad.obj
 0001:00007b30       ??9?$CComPtrBase@UIAdviseSink@@@ATL@@QBE_NPAUIAdviseSink@@@Z 10008b30 f i PINPad.obj
 0001:00007b80       ??9?$CComPtrBase@UIConnectionPointContainer@@@ATL@@QBE_NPAUIConnectionPointContainer@@@Z 10008b80 f i PINPad.obj
 0001:00007bd0       ??9?$CComPtrBase@UIDataAdviseHolder@@@ATL@@QBE_NPAUIDataAdviseHolder@@@Z 10008bd0 f i PINPad.obj
 0001:00007c20       ??9?$CComPtrBase@UIOleAdviseHolder@@@ATL@@QBE_NPAUIOleAdviseHolder@@@Z 10008c20 f i PINPad.obj
 0001:00007c70       ??9?$CComPtrBase@UIOleClientSite@@@ATL@@QBE_NPAUIOleClientSite@@@Z 10008c70 f i PINPad.obj
 0001:00007cc0       ??9?$CComPtrBase@UIOleControlSite@@@ATL@@QBE_NPAUIOleControlSite@@@Z 10008cc0 f i PINPad.obj
 0001:00007d10       ??9?$CComPtrBase@UIOleInPlaceObject@@@ATL@@QBE_NPAUIOleInPlaceObject@@@Z 10008d10 f i PINPad.obj
 0001:00007d60       ??9?$CComPtrBase@UIOleInPlaceSiteWindowless@@@ATL@@QBE_NPAUIOleInPlaceSiteWindowless@@@Z 10008d60 f i PINPad.obj
 0001:00007db0       ??9?$CComPtrBase@UIOleObject@@@ATL@@QBE_NPAUIOleObject@@@Z 10008db0 f i PINPad.obj
 0001:00007e00       ??9?$CComPtrBase@UIPersistStream@@@ATL@@QBE_NPAUIPersistStream@@@Z 10008e00 f i PINPad.obj
 0001:00007e50       ??9?$CComPtrBase@UIPersistStreamInit@@@ATL@@QBE_NPAUIPersistStreamInit@@@Z 10008e50 f i PINPad.obj
 0001:00007ea0       ??9?$CComPtrBase@UIPointerInactive@@@ATL@@QBE_NPAUIPointerInactive@@@Z 10008ea0 f i PINPad.obj
 0001:00007ef0       ??9?$CComPtrBase@UIUnknown@@@ATL@@QBE_NPAUIUnknown@@@Z 10008ef0 f i PINPad.obj
 0001:00007f40       ??9?$CComPtrBase@UIViewObjectEx@@@ATL@@QBE_NPAUIViewObjectEx@@@Z 10008f40 f i PINPad.obj
 0001:00007f90       ??9CComBSTR@ATL@@QBE_NH@Z  10008f90 f i PINPad.obj
 0001:00007fe0       ??B?$CComPtrBase@UIAdviseSink@@@ATL@@QBEPAUIAdviseSink@@XZ 10008fe0 f i PINPad.obj
 0001:00008000       ??B?$CComPtrBase@UIDataAdviseHolder@@@ATL@@QBEPAUIDataAdviseHolder@@XZ 10009000 f i PINPad.obj
 0001:00008020       ??B?$CComPtrBase@UIDataObject@@@ATL@@QBEPAUIDataObject@@XZ 10009020 f i PINPad.obj
 0001:00008040       ??B?$CComPtrBase@UIOleAdviseHolder@@@ATL@@QBEPAUIOleAdviseHolder@@XZ 10009040 f i PINPad.obj
 0001:00008060       ??B?$CComPtrBase@UIOleClientSite@@@ATL@@QBEPAUIOleClientSite@@XZ 10009060 f i PINPad.obj
 0001:00008080       ??B?$CComPtrBase@UIOleControlSite@@@ATL@@QBEPAUIOleControlSite@@XZ 10009080 f i PINPad.obj
 0001:000080a0       ??B?$CComPtrBase@UIOleInPlaceActiveObject@@@ATL@@QBEPAUIOleInPlaceActiveObject@@XZ 100090a0 f i PINPad.obj
 0001:000080c0       ??B?$CComPtrBase@UIOleInPlaceFrame@@@ATL@@QBEPAUIOleInPlaceFrame@@XZ 100090c0 f i PINPad.obj
 0001:000080e0       ??B?$CComPtrBase@UIOleInPlaceSiteWindowless@@@ATL@@QBEPAUIOleInPlaceSiteWindowless@@XZ 100090e0 f i PINPad.obj
 0001:00008100       ??B?$CComPtrBase@UIOleInPlaceUIWindow@@@ATL@@QBEPAUIOleInPlaceUIWindow@@XZ 10009100 f i PINPad.obj
 0001:00008120       ??B?$CComPtrBase@UIOleObject@@@ATL@@QBEPAUIOleObject@@XZ 10009120 f i PINPad.obj
 0001:00008140       ??B?$CComPtrBase@UIPersistStream@@@ATL@@QBEPAUIPersistStream@@XZ 10009140 f i PINPad.obj
 0001:00008160       ??B?$CComPtrBase@UIProvideClassInfo2@@@ATL@@QBEPAUIProvideClassInfo2@@XZ 10009160 f i PINPad.obj
 0001:00008180       ??B?$CComPtrBase@UISpecifyPropertyPages@@@ATL@@QBEPAUISpecifyPropertyPages@@XZ 10009180 f i PINPad.obj
 0001:000081a0       ??B?$CComPtrBase@UIStream@@@ATL@@QBEPAUIStream@@XZ 100091a0 f i PINPad.obj
 0001:000081c0       ??B?$CComPtrBase@UITypeInfo2@@@ATL@@QBEPAUITypeInfo2@@XZ 100091c0 f i PINPad.obj
 0001:000081e0       ??B?$CComPtrBase@UITypeInfo@@@ATL@@QBEPAUITypeInfo@@XZ 100091e0 f i PINPad.obj
 0001:00008200       ??B?$CComPtrBase@UITypeLib@@@ATL@@QBEPAUITypeLib@@XZ 10009200 f i PINPad.obj
 0001:00008220       ??B?$CComPtrBase@UIUnknown@@@ATL@@QBEPAUIUnknown@@XZ 10009220 f i PINPad.obj
 0001:00008240       ??B?$CTempBuffer@E$0BAA@VCCRTAllocator@ATL@@@ATL@@QBEPAEXZ 10009240 f i PINPad.obj
 0001:00008260       ??B?$CTempBuffer@_W$0BAA@VCCRTAllocator@ATL@@@ATL@@QBEPA_WXZ 10009260 f i PINPad.obj
 0001:00008280       ??B?$CTempBuffer@_W$0EAA@VCCRTAllocator@ATL@@@ATL@@QBEPA_WXZ 10009280 f i PINPad.obj
 0001:000082a0       ??B?$CTraceCategoryEx@$00$0A@@ATL@@QAEIXZ 100092a0 f i PINPad.obj
 0001:000082c0       ??B?$CTraceCategoryEx@$07$0A@@ATL@@QAEIXZ 100092c0 f i PINPad.obj
 0001:000082e0       ??B?$CTraceCategoryEx@$0CAAA@$0A@@ATL@@QAEIXZ 100092e0 f i PINPad.obj
 0001:00008300       ??B?$CTraceCategoryEx@$0EA@$0A@@ATL@@QAEIXZ 10009300 f i PINPad.obj
 0001:00008320       ??B?$CTraceCategoryEx@$0IAA@$0A@@ATL@@QAEIXZ 10009320 f i PINPad.obj
 0001:00008340       ??BCComBSTR@ATL@@QBEPA_WXZ 10009340 f i PINPad.obj
 0001:00008360       ??BCRegKey@ATL@@QBEPAUHKEY__@@XZ 10009360 f i PINPad.obj
 0001:00008380       ??C?$CComPtrBase@UIAdviseSink@@@ATL@@QBEPAV?$_NoAddRefReleaseOnCComPtr@UIAdviseSink@@@1@XZ 10009380 f i PINPad.obj
 0001:000083d0       ??C?$CComPtrBase@UICatRegister@@@ATL@@QBEPAV?$_NoAddRefReleaseOnCComPtr@UICatRegister@@@1@XZ 100093d0 f i PINPad.obj
 0001:00008420       ??C?$CComPtrBase@UIConnectionPoint@@@ATL@@QBEPAV?$_NoAddRefReleaseOnCComPtr@UIConnectionPoint@@@1@XZ 10009420 f i PINPad.obj
 0001:00008470       ??C?$CComPtrBase@UIConnectionPointContainer@@@ATL@@QBEPAV?$_NoAddRefReleaseOnCComPtr@UIConnectionPointContainer@@@1@XZ 10009470 f i PINPad.obj
 0001:000084c0       ??C?$CComPtrBase@UIDataAdviseHolder@@@ATL@@QBEPAV?$_NoAddRefReleaseOnCComPtr@UIDataAdviseHolder@@@1@XZ 100094c0 f i PINPad.obj
 0001:00008510       ??C?$CComPtrBase@UIOleAdviseHolder@@@ATL@@QBEPAV?$_NoAddRefReleaseOnCComPtr@UIOleAdviseHolder@@@1@XZ 10009510 f i PINPad.obj
 0001:00008560       ??C?$CComPtrBase@UIOleClientSite@@@ATL@@QBEPAV?$_NoAddRefReleaseOnCComPtr@UIOleClientSite@@@1@XZ 10009560 f i PINPad.obj
 0001:000085b0       ??C?$CComPtrBase@UIOleControlSite@@@ATL@@QBEPAV?$_NoAddRefReleaseOnCComPtr@UIOleControlSite@@@1@XZ 100095b0 f i PINPad.obj
 0001:00008600       ??C?$CComPtrBase@UIOleInPlaceFrame@@@ATL@@QBEPAV?$_NoAddRefReleaseOnCComPtr@UIOleInPlaceFrame@@@1@XZ 10009600 f i PINPad.obj
 0001:00008650       ??C?$CComPtrBase@UIOleInPlaceObject@@@ATL@@QBEPAV?$_NoAddRefReleaseOnCComPtr@UIOleInPlaceObject@@@1@XZ 10009650 f i PINPad.obj
 0001:000086a0       ??C?$CComPtrBase@UIOleInPlaceSiteWindowless@@@ATL@@QBEPAV?$_NoAddRefReleaseOnCComPtr@UIOleInPlaceSiteWindowless@@@1@XZ 100096a0 f i PINPad.obj
 0001:000086f0       ??C?$CComPtrBase@UIOleInPlaceUIWindow@@@ATL@@QBEPAV?$_NoAddRefReleaseOnCComPtr@UIOleInPlaceUIWindow@@@1@XZ 100096f0 f i PINPad.obj
 0001:00008740       ??C?$CComPtrBase@UIOleObject@@@ATL@@QBEPAV?$_NoAddRefReleaseOnCComPtr@UIOleObject@@@1@XZ 10009740 f i PINPad.obj
 0001:00008790       ??C?$CComPtrBase@UIPersistStream@@@ATL@@QBEPAV?$_NoAddRefReleaseOnCComPtr@UIPersistStream@@@1@XZ 10009790 f i PINPad.obj
 0001:000087e0       ??C?$CComPtrBase@UIPersistStreamInit@@@ATL@@QBEPAV?$_NoAddRefReleaseOnCComPtr@UIPersistStreamInit@@@1@XZ 100097e0 f i PINPad.obj
 0001:00008830       ??C?$CComPtrBase@UIPointerInactive@@@ATL@@QBEPAV?$_NoAddRefReleaseOnCComPtr@UIPointerInactive@@@1@XZ 10009830 f i PINPad.obj
 0001:00008880       ??C?$CComPtrBase@UIProvideClassInfo2@@@ATL@@QBEPAV?$_NoAddRefReleaseOnCComPtr@UIProvideClassInfo2@@@1@XZ 10009880 f i PINPad.obj
 0001:000088d0       ??C?$CComPtrBase@UISpecifyPropertyPages@@@ATL@@QBEPAV?$_NoAddRefReleaseOnCComPtr@UISpecifyPropertyPages@@@1@XZ 100098d0 f i PINPad.obj
 0001:00008920       ??C?$CComPtrBase@UITypeInfo@@@ATL@@QBEPAV?$_NoAddRefReleaseOnCComPtr@UITypeInfo@@@1@XZ 10009920 f i PINPad.obj
 0001:00008970       ??C?$CComPtrBase@UITypeLib@@@ATL@@QBEPAV?$_NoAddRefReleaseOnCComPtr@UITypeLib@@@1@XZ 10009970 f i PINPad.obj
 0001:000089c0       ??C?$CComPtrBase@UIUnknown@@@ATL@@QBEPAV?$_NoAddRefReleaseOnCComPtr@UIUnknown@@@1@XZ 100099c0 f i PINPad.obj
 0001:00008a10       ??C?$CComPtrBase@UIViewObjectEx@@@ATL@@QBEPAV?$_NoAddRefReleaseOnCComPtr@UIViewObjectEx@@@1@XZ 10009a10 f i PINPad.obj
 0001:00008a60       ??I?$CComPtrBase@UICatRegister@@@ATL@@QAEPAPAUICatRegister@@XZ 10009a60 f i PINPad.obj
 0001:00008ab0       ??I?$CComPtrBase@UIConnectionPoint@@@ATL@@QAEPAPAUIConnectionPoint@@XZ 10009ab0 f i PINPad.obj
 0001:00008b00       ??I?$CComPtrBase@UIConnectionPointContainer@@@ATL@@QAEPAPAUIConnectionPointContainer@@XZ 10009b00 f i PINPad.obj
 0001:00008b50       ??I?$CComPtrBase@UIDataAdviseHolder@@@ATL@@QAEPAPAUIDataAdviseHolder@@XZ 10009b50 f i PINPad.obj
 0001:00008ba0       ??I?$CComPtrBase@UIDataObject@@@ATL@@QAEPAPAUIDataObject@@XZ 10009ba0 f i PINPad.obj
 0001:00008bf0       ??I?$CComPtrBase@UIDispatch@@@ATL@@QAEPAPAUIDispatch@@XZ 10009bf0 f i PINPad.obj
 0001:00008c40       ??I?$CComPtrBase@UIOleAdviseHolder@@@ATL@@QAEPAPAUIOleAdviseHolder@@XZ 10009c40 f i PINPad.obj
 0001:00008c90       ??I?$CComPtrBase@UIOleControlSite@@@ATL@@QAEPAPAUIOleControlSite@@XZ 10009c90 f i PINPad.obj
 0001:00008ce0       ??I?$CComPtrBase@UIOleInPlaceActiveObject@@@ATL@@QAEPAPAUIOleInPlaceActiveObject@@XZ 10009ce0 f i PINPad.obj
 0001:00008d30       ??I?$CComPtrBase@UIOleInPlaceFrame@@@ATL@@QAEPAPAUIOleInPlaceFrame@@XZ 10009d30 f i PINPad.obj
 0001:00008d80       ??I?$CComPtrBase@UIOleInPlaceObject@@@ATL@@QAEPAPAUIOleInPlaceObject@@XZ 10009d80 f i PINPad.obj
 0001:00008dd0       ??I?$CComPtrBase@UIOleInPlaceSiteWindowless@@@ATL@@QAEPAPAUIOleInPlaceSiteWindowless@@XZ 10009dd0 f i PINPad.obj
 0001:00008e20       ??I?$CComPtrBase@UIOleInPlaceUIWindow@@@ATL@@QAEPAPAUIOleInPlaceUIWindow@@XZ 10009e20 f i PINPad.obj
 0001:00008e70       ??I?$CComPtrBase@UIOleObject@@@ATL@@QAEPAPAUIOleObject@@XZ 10009e70 f i PINPad.obj
 0001:00008ec0       ??I?$CComPtrBase@UIPersistStream@@@ATL@@QAEPAPAUIPersistStream@@XZ 10009ec0 f i PINPad.obj
 0001:00008f10       ??I?$CComPtrBase@UIPointerInactive@@@ATL@@QAEPAPAUIPointerInactive@@XZ 10009f10 f i PINPad.obj
 0001:00008f60       ??I?$CComPtrBase@UIProvideClassInfo2@@@ATL@@QAEPAPAUIProvideClassInfo2@@XZ 10009f60 f i PINPad.obj
 0001:00008fb0       ??I?$CComPtrBase@UIStream@@@ATL@@QAEPAPAUIStream@@XZ 10009fb0 f i PINPad.obj
 0001:00009000       ??I?$CComPtrBase@UITypeInfo2@@@ATL@@QAEPAPAUITypeInfo2@@XZ 1000a000 f i PINPad.obj
 0001:00009050       ??I?$CComPtrBase@UITypeInfo@@@ATL@@QAEPAPAUITypeInfo@@XZ 1000a050 f i PINPad.obj
 0001:000090a0       ??I?$CComPtrBase@UITypeLib@@@ATL@@QAEPAPAUITypeLib@@XZ 1000a0a0 f i PINPad.obj
 0001:000090f0       ??I?$CComPtrBase@UIUnknown@@@ATL@@QAEPAPAUIUnknown@@XZ 1000a0f0 f i PINPad.obj
 0001:00009140       ??I?$CComPtrBase@UIViewObjectEx@@@ATL@@QAEPAPAUIViewObjectEx@@XZ 1000a140 f i PINPad.obj
 0001:00009190       ??ICComBSTR@ATL@@QAEPAPA_WXZ 1000a190 f i PINPad.obj
 0001:000091a5       ??_E?$CComContainedObject@VCOPOSPINPad@@@ATL@@W3AEPAXI@Z 1000a1a5 f i PINPad.obj
 0001:000091ad       ??_E?$CComContainedObject@VCOPOSPINPad@@@ATL@@WEM@AEPAXI@Z 1000a1ad f i PINPad.obj
 0001:000091b5       ??_E?$CComObject@VCOPOSPINPad@@@ATL@@W3AEPAXI@Z 1000a1b5 f i PINPad.obj
 0001:000091bd       ??_E?$CComObject@VCOPOSPINPad@@@ATL@@WEM@AEPAXI@Z 1000a1bd f i PINPad.obj
 0001:000091d0       ??_E?$CComAggObject@VCOPOSPINPad@@@ATL@@UAEPAXI@Z 1000a1d0 f i PINPad.obj
 0001:000091d0       ??_G?$CComAggObject@VCOPOSPINPad@@@ATL@@UAEPAXI@Z 1000a1d0 f i PINPad.obj
 0001:00009220       ??_E?$CComContainedObject@VCOPOSPINPad@@@ATL@@UAEPAXI@Z 1000a220 f i PINPad.obj
 0001:00009220       ??_G?$CComContainedObject@VCOPOSPINPad@@@ATL@@UAEPAXI@Z 1000a220 f i PINPad.obj
 0001:00009270       ??_E?$CComObject@V?$CComEnum@UIEnumConnectionPoints@@$1?_GUID_b196b285_bab4_101a_b69c_00aa00341d07@@3U__s_GUID@@BPAUIConnectionPoint@@V?$_CopyInterface@UIConnectionPoint@@@ATL@@VCComSingleThreadModel@6@@ATL@@@ATL@@UAEPAXI@Z 1000a270 f i PINPad.obj
 0001:00009270       ??_G?$CComObject@V?$CComEnum@UIEnumConnectionPoints@@$1?_GUID_b196b285_bab4_101a_b69c_00aa00341d07@@3U__s_GUID@@BPAUIConnectionPoint@@V?$_CopyInterface@UIConnectionPoint@@@ATL@@VCComSingleThreadModel@6@@ATL@@@ATL@@UAEPAXI@Z 1000a270 f i PINPad.obj
 0001:000092b0       ??_E?$CComObject@V?$CComEnum@UIEnumConnections@@$1?_GUID_b196b287_bab4_101a_b69c_00aa00341d07@@3U__s_GUID@@BUtagCONNECTDATA@@V?$_Copy@UtagCONNECTDATA@@@ATL@@VCComSingleThreadModel@6@@ATL@@@ATL@@UAEPAXI@Z 1000a2b0 f i PINPad.obj
 0001:000092b0       ??_G?$CComObject@V?$CComEnum@UIEnumConnections@@$1?_GUID_b196b287_bab4_101a_b69c_00aa00341d07@@3U__s_GUID@@BUtagCONNECTDATA@@V?$_Copy@UtagCONNECTDATA@@@ATL@@VCComSingleThreadModel@6@@ATL@@@ATL@@UAEPAXI@Z 1000a2b0 f i PINPad.obj
 0001:000092f0       ??_E?$CComObject@VCOPOSPINPad@@@ATL@@UAEPAXI@Z 1000a2f0 f i PINPad.obj
 0001:000092f0       ??_G?$CComObject@VCOPOSPINPad@@@ATL@@UAEPAXI@Z 1000a2f0 f i PINPad.obj
 0001:00009340       ??_E?$CComObjectCached@VCComClassFactory@ATL@@@ATL@@UAEPAXI@Z 1000a340 f i PINPad.obj
 0001:00009340       ??_G?$CComObjectCached@VCComClassFactory@ATL@@@ATL@@UAEPAXI@Z 1000a340 f i PINPad.obj
 0001:00009380       ??_ECComClassFactory@ATL@@UAEPAXI@Z 1000a380 f i PINPad.obj
 0001:00009380       ??_GCComClassFactory@ATL@@UAEPAXI@Z 1000a380 f i PINPad.obj
 0001:000093c0       ??_ECComModule@ATL@@UAEPAXI@Z 1000a3c0 f i PINPad.obj
 0001:000093c0       ??_GCComModule@ATL@@UAEPAXI@Z 1000a3c0 f i PINPad.obj
 0001:00009400       ??_GCRegObject@ATL@@UAEPAXI@Z 1000a400 f i PINPad.obj
 0001:00009400       ??_ECRegObject@ATL@@UAEPAXI@Z 1000a400 f i PINPad.obj
 0001:00009440       ?Add@?$CSimpleArray@GV?$CSimpleArrayEqualHelper@G@ATL@@@ATL@@QAEHABG@Z 1000a440 f i PINPad.obj
 0001:00009590       ?Add@?$CSimpleMap@PA_WPA_WVCExpansionVectorEqualHelper@ATL@@@ATL@@QAEHABQA_W0@Z 1000a590 f i PINPad.obj
 0001:00009650       ?Add@CComDynamicUnkArray@ATL@@QAEKPAUIUnknown@@@Z 1000a650 f i PINPad.obj
 0001:000097f0       ?Add@CExpansionVector@ATL@@QAEHPB_W0@Z 1000a7f0 f i PINPad.obj
 0001:00009a80       ?AddChar@CParseBuffer@CRegParser@ATL@@QAEHPB_W@Z 1000aa80 f i PINPad.obj
 0001:00009ac0       ?AddCommonRGSReplacements@?$CAtlModuleT@VCComModule@ATL@@@ATL@@UAEJPAUIRegistrarBase@@@Z 1000aac0 f i PINPad.obj
 0001:00009b10       ?AddCreateWndData@CAtlWinModule@ATL@@QAEXPAU_AtlCreateWndData@2@PAX@Z 1000ab10 f i PINPad.obj
 0001:00009b40       ?AddRef@?$CComAggObject@VCOPOSPINPad@@@ATL@@UAGKXZ 1000ab40 f i PINPad.obj
 0001:00009b60       ?AddRef@?$CComContainedObject@VCOPOSPINPad@@@ATL@@UAGKXZ 1000ab60 f i PINPad.obj
 0001:00009b7c       ?AddRef@?$CComContainedObject@VCOPOSPINPad@@@ATL@@WHA@AGKXZ 1000ab7c f i PINPad.obj
 0001:00009b86       ?AddRef@?$CComContainedObject@VCOPOSPINPad@@@ATL@@WHE@AGKXZ 1000ab86 f i PINPad.obj
 0001:00009b90       ?AddRef@?$CComContainedObject@VCOPOSPINPad@@@ATL@@WHI@AGKXZ 1000ab90 f i PINPad.obj
 0001:00009b9a       ?AddRef@?$CComContainedObject@VCOPOSPINPad@@@ATL@@WHM@AGKXZ 1000ab9a f i PINPad.obj
 0001:00009ba4       ?AddRef@?$CComContainedObject@VCOPOSPINPad@@@ATL@@WIA@AGKXZ 1000aba4 f i PINPad.obj
 0001:00009bb1       ?AddRef@?$CComContainedObject@VCOPOSPINPad@@@ATL@@WIE@AGKXZ 1000abb1 f i PINPad.obj
 0001:00009bbe       ?AddRef@?$CComContainedObject@VCOPOSPINPad@@@ATL@@WII@AGKXZ 1000abbe f i PINPad.obj
 0001:00009bcb       ?AddRef@?$CComContainedObject@VCOPOSPINPad@@@ATL@@WIM@AGKXZ 1000abcb f i PINPad.obj
 0001:00009bd8       ?AddRef@?$CComContainedObject@VCOPOSPINPad@@@ATL@@WJA@AGKXZ 1000abd8 f i PINPad.obj
 0001:00009be5       ?AddRef@?$CComContainedObject@VCOPOSPINPad@@@ATL@@WJE@AGKXZ 1000abe5 f i PINPad.obj
 0001:00009bf2       ?AddRef@?$CComContainedObject@VCOPOSPINPad@@@ATL@@WJI@AGKXZ 1000abf2 f i PINPad.obj
 0001:00009bff       ?AddRef@?$CComContainedObject@VCOPOSPINPad@@@ATL@@WJM@AGKXZ 1000abff f i PINPad.obj
 0001:00009c0c       ?AddRef@?$CComContainedObject@VCOPOSPINPad@@@ATL@@WKA@AGKXZ 1000ac0c f i PINPad.obj
 0001:00009c19       ?AddRef@?$CComContainedObject@VCOPOSPINPad@@@ATL@@WKI@AGKXZ 1000ac19 f i PINPad.obj
 0001:00009c26       ?AddRef@?$CComContainedObject@VCOPOSPINPad@@@ATL@@WLE@AGKXZ 1000ac26 f i PINPad.obj
 0001:00009c40       ?AddRef@?$CComObject@V?$CComEnum@UIEnumConnectionPoints@@$1?_GUID_b196b285_bab4_101a_b69c_00aa00341d07@@3U__s_GUID@@BPAUIConnectionPoint@@V?$_CopyInterface@UIConnectionPoint@@@ATL@@VCComSingleThreadModel@6@@ATL@@@ATL@@UAGKXZ 1000ac40 f i PINPad.obj
 0001:00009c60       ?AddRef@?$CComObject@V?$CComEnum@UIEnumConnections@@$1?_GUID_b196b287_bab4_101a_b69c_00aa00341d07@@3U__s_GUID@@BUtagCONNECTDATA@@V?$_Copy@UtagCONNECTDATA@@@ATL@@VCComSingleThreadModel@6@@ATL@@@ATL@@UAGKXZ 1000ac60 f i PINPad.obj
 0001:00009c80       ?AddRef@?$CComObject@VCOPOSPINPad@@@ATL@@UAGKXZ 1000ac80 f i PINPad.obj
 0001:00009c9c       ?AddRef@?$CComObject@VCOPOSPINPad@@@ATL@@WHA@AGKXZ 1000ac9c f i PINPad.obj
 0001:00009ca6       ?AddRef@?$CComObject@VCOPOSPINPad@@@ATL@@WHE@AGKXZ 1000aca6 f i PINPad.obj
 0001:00009cb0       ?AddRef@?$CComObject@VCOPOSPINPad@@@ATL@@WHI@AGKXZ 1000acb0 f i PINPad.obj
 0001:00009cba       ?AddRef@?$CComObject@VCOPOSPINPad@@@ATL@@WHM@AGKXZ 1000acba f i PINPad.obj
 0001:00009cc4       ?AddRef@?$CComObject@VCOPOSPINPad@@@ATL@@WIA@AGKXZ 1000acc4 f i PINPad.obj
 0001:00009cd1       ?AddRef@?$CComObject@VCOPOSPINPad@@@ATL@@WIE@AGKXZ 1000acd1 f i PINPad.obj
 0001:00009cde       ?AddRef@?$CComObject@VCOPOSPINPad@@@ATL@@WII@AGKXZ 1000acde f i PINPad.obj
 0001:00009ceb       ?AddRef@?$CComObject@VCOPOSPINPad@@@ATL@@WIM@AGKXZ 1000aceb f i PINPad.obj
 0001:00009cf8       ?AddRef@?$CComObject@VCOPOSPINPad@@@ATL@@WJA@AGKXZ 1000acf8 f i PINPad.obj
 0001:00009d05       ?AddRef@?$CComObject@VCOPOSPINPad@@@ATL@@WJE@AGKXZ 1000ad05 f i PINPad.obj
 0001:00009d12       ?AddRef@?$CComObject@VCOPOSPINPad@@@ATL@@WJI@AGKXZ 1000ad12 f i PINPad.obj
 0001:00009d1f       ?AddRef@?$CComObject@VCOPOSPINPad@@@ATL@@WJM@AGKXZ 1000ad1f f i PINPad.obj
 0001:00009d2c       ?AddRef@?$CComObject@VCOPOSPINPad@@@ATL@@WKA@AGKXZ 1000ad2c f i PINPad.obj
 0001:00009d39       ?AddRef@?$CComObject@VCOPOSPINPad@@@ATL@@WKI@AGKXZ 1000ad39 f i PINPad.obj
 0001:00009d46       ?AddRef@?$CComObject@VCOPOSPINPad@@@ATL@@WLE@AGKXZ 1000ad46 f i PINPad.obj
 0001:00009d60       ?AddRef@?$CComObjectCached@VCComClassFactory@ATL@@@ATL@@UAGKXZ 1000ad60 f i PINPad.obj
 0001:00009db0       ?AddRef@CRegObject@ATL@@UAGKXZ 1000adb0 f i PINPad.obj
 0001:00009e00       ?AddReplacement@CRegObject@ATL@@UAGJPB_W0@Z 1000ae00 f i PINPad.obj
 0001:00009f10       ?AddString@CParseBuffer@CRegParser@ATL@@QAEHPB_W@Z 1000af10 f i PINPad.obj
 0001:0000a000       ?AddTermFunc@CAtlModule@ATL@@QAEJP6GXK@ZK@Z 1000b000 f i PINPad.obj
 0001:0000a050       ?AddValue@CRegParser@ATL@@IAEJAAVCRegKey@2@PB_WPA_W@Z 1000b050 f i PINPad.obj
 0001:0000a7e0       ?Advise@?$CProxy_IOPOSEvents@VCOPOSPINPad@@@@UAGJPAUIUnknown@@PAK@Z 1000b7e0 f i PINPad.obj
 0001:0000a830       ?Advise@?$IConnectionPointImpl@VCOPOSPINPad@@$1?DIID__IOPOSPINPadEvents@@3U_GUID@@BVCComDynamicUnkArray@ATL@@@ATL@@UAGJPAUIUnknown@@PAK@Z 1000b830 f i PINPad.obj
 0001:0000a9d0       ?Advise@?$IConnectionPointImpl@VCOPOSPINPad@@$1?IID_IPropertyNotifySink@@3U_GUID@@BVCComDynamicUnkArray@ATL@@@ATL@@UAGJPAUIUnknown@@PAK@Z 1000b9d0 f i PINPad.obj
 0001:0000ab70       ?Advise@?$IOleObjectImpl@VCOPOSPINPad@@@ATL@@UAGJPAUIAdviseSink@@PAK@Z 1000bb70 f i PINPad.obj
 0001:0000ac00       ?Allocate@?$CAtlSafeAllocBufferManager@VCCRTAllocator@ATL@@@_ATL_SAFE_ALLOCA_IMPL@ATL@@QAEPAXK@Z 1000bc00 f i PINPad.obj
 0001:0000ac70       ?Allocate@?$CTempBuffer@E$0BAA@VCCRTAllocator@ATL@@@ATL@@QAEPAEI@Z 1000bc70 f i PINPad.obj
 0001:0000acb0       ?Allocate@?$CTempBuffer@_W$0BAA@VCCRTAllocator@ATL@@@ATL@@QAEPA_WI@Z 1000bcb0 f i PINPad.obj
 0001:0000acf0       ?Allocate@?$CTempBuffer@_W$0EAA@VCCRTAllocator@ATL@@@ATL@@QAEPA_WI@Z 1000bcf0 f i PINPad.obj
 0001:0000ad30       ?AllocateBytes@?$CTempBuffer@E$0BAA@VCCRTAllocator@ATL@@@ATL@@QAEPAEI@Z 1000bd30 f i PINPad.obj
 0001:0000adb0       ?AllocateBytes@?$CTempBuffer@_W$0BAA@VCCRTAllocator@ATL@@@ATL@@QAEPA_WI@Z 1000bdb0 f i PINPad.obj
 0001:0000ae30       ?AllocateBytes@?$CTempBuffer@_W$0EAA@VCCRTAllocator@ATL@@@ATL@@QAEPA_WI@Z 1000be30 f i PINPad.obj
 0001:0000aeb0       ?AllocateHeap@?$CTempBuffer@E$0BAA@VCCRTAllocator@ATL@@@ATL@@AAEXI@Z 1000beb0 f i PINPad.obj
 0001:0000af00       ?AllocateHeap@?$CTempBuffer@_W$0BAA@VCCRTAllocator@ATL@@@ATL@@AAEXI@Z 1000bf00 f i PINPad.obj
 0001:0000af50       ?AllocateHeap@?$CTempBuffer@_W$0EAA@VCCRTAllocator@ATL@@@ATL@@AAEXI@Z 1000bf50 f i PINPad.obj
 0001:0000afa0       ?Append@CParseBuffer@CRegParser@ATL@@QAEHPB_WH@Z 1000bfa0 f i PINPad.obj
 0001:0000b140       ?AtlCallTermFunc@ATL@@YGXPAU_ATL_MODULE70@1@@Z 1000c140 f i PINPad.obj
 0001:0000b1e0       ?AtlCoTaskMemCAlloc@ATL@@YAPAXKK@Z 1000c1e0 f i PINPad.obj
 0001:0000b270       ?AtlCoTaskMemRecalloc@ATL@@YAPAXPAXKK@Z 1000c270 f i PINPad.obj
 0001:0000b310       ?AtlComModuleGetClassObject@ATL@@YGJPAU_ATL_COM_MODULE70@1@ABU_GUID@@1PAPAX@Z 1000c310 f i PINPad.obj
 0001:0000b5a0       ?AtlComModuleRegisterServer@ATL@@YGJPAU_ATL_COM_MODULE70@1@HPBU_GUID@@@Z 1000c5a0 f i PINPad.obj
 0001:0000b730       ?AtlComModuleUnregisterServer@ATL@@YGJPAU_ATL_COM_MODULE70@1@HPBU_GUID@@@Z 1000c730 f i PINPad.obj
 0001:0000b860       ?AtlComQIPtrAssign2@ATL@@YAXPAPAUIUnknown@@PAU2@ABU_GUID@@@Z 1000c860 f i PINPad.obj
 0001:0000b8e0       ?AtlCreateTargetDC@ATL@@YGPAUHDC__@@PAU2@PAUtagDVTARGETDEVICE@@@Z 1000c8e0 f i PINPad.obj
 0001:0000ba80       ?AtlCrtErrorCheck@ATL@@YAHH@Z 1000ca80 f i PINPad.obj
 0001:0000bb50       ?AtlGetPerUserRegistration@ATL@@YGJPA_N@Z 1000cb50 f i PINPad.obj
 0001:0000bb80       ?AtlHiMetricToPixel@ATL@@YGXPBUtagSIZE@@PAU2@@Z 1000cb80 f i PINPad.obj
 0001:0000bd50       ?AtlHresultFromLastError@ATL@@YAJXZ 1000cd50 f i PINPad.obj
 0001:0000bd90       ?AtlHresultFromWin32@ATL@@YAJK@Z 1000cd90 f i PINPad.obj
 0001:0000bdb0       ?AtlIPersistStreamInit_Load@ATL@@YGJPAUIStream@@PBUATL_PROPMAP_ENTRY@1@PAXPAUIUnknown@@@Z 1000cdb0 f i PINPad.obj
 0001:0000c210       ?AtlIPersistStreamInit_Save@ATL@@YGJPAUIStream@@HPBUATL_PROPMAP_ENTRY@1@PAXPAUIUnknown@@@Z 1000d210 f i PINPad.obj
 0001:0000c5f0       ?AtlInternalOleLoadFromStream@ATL@@YAJPAUIStream@@ABU_GUID@@PAPAXTClassesAllowedInStream@1@K@Z 1000d5f0 f i PINPad.obj
 0001:0000c890       ?AtlInternalQueryInterface@ATL@@YGJPAXPBU_ATL_INTMAP_ENTRY@1@ABU_GUID@@PAPAX@Z 1000d890 f i PINPad.obj
 0001:0000cac0       ?AtlLoadTypeLib@ATL@@YGJPAUHINSTANCE__@@PB_WPAPA_WPAPAUITypeLib@@@Z 1000dac0 f i PINPad.obj
 0001:0000cf20       ?AtlModuleAddTermFunc@ATL@@YGJPAU_ATL_MODULE70@1@P6GXK@ZK@Z 1000df20 f i PINPad.obj
 0001:0000d080       ?AtlRegisterClassCategoriesHelper@ATL@@YGJABU_GUID@@PBU_ATL_CATMAP_ENTRY@1@H@Z 1000e080 f i PINPad.obj
 0001:0000d760       ?AtlRegisterTypeLib@ATL@@YGJPAUHINSTANCE__@@PB_W@Z 1000e760 f i PINPad.obj
 0001:0000daa0       ?AtlThrowImpl@ATL@@YGXJ@Z  1000eaa0 f i PINPad.obj
 0001:0000db50       ?AtlUnRegisterTypeLib@ATL@@YGJPAUHINSTANCE__@@PB_W@Z 1000eb50 f i PINPad.obj
 0001:0000dd60       ?AtlWinModuleAddCreateWndData@ATL@@YGXPAU_ATL_WIN_MODULE70@1@PAU_AtlCreateWndData@1@PAX@Z 1000ed60 f i PINPad.obj
 0001:0000ded0       ?AtlWinModuleExtractCreateWndData@ATL@@YGPAXPAU_ATL_WIN_MODULE70@1@@Z 1000eed0 f i PINPad.obj
 0001:0000e050       ?AtlWinModuleRegisterClassExW@ATL@@YGGPAU_ATL_WIN_MODULE70@1@PBUtagWNDCLASSEXW@@@Z 1000f050 f i PINPad.obj
 0001:0000e120       ?AtlWinModuleRegisterWndClassInfoW@ATL@@YGGPAU_ATL_WIN_MODULE70@1@PAU_ATL_BASE_MODULE70@1@PAU_ATL_WNDCLASSINFOW@1@PAP6GJPAUHWND__@@IIJ@Z@Z 1000f120 f i PINPad.obj
 0001:0000e1b0       ?Attach@?$CAutoVectorPtr@_W@ATL@@QAEXPA_W@Z 1000f1b0 f i PINPad.obj
 0001:0000e210       ?Attach@CComBSTR@ATL@@QAEXPA_W@Z 1000f210 f i PINPad.obj
 0001:0000e260       ?Attach@CRegKey@ATL@@QAEXPAUHKEY__@@@Z 1000f260 f i PINPad.obj
 0001:0000e2d0       ?CanForceRemoveKey@CRegParser@ATL@@IAEHPB_W@Z 1000f2d0 f i PINPad.obj
 0001:0000e340       ?ChToByte@CRegParser@ATL@@KAE_W@Z 1000f340 f i PINPad.obj
 0001:0000e460       ?ChangeType@CComVariant@ATL@@QAEJGPBUtagVARIANT@@@Z 1000f460 f i PINPad.obj
 0001:0000e4c0       ?Cleanup@CComTypeInfoHolder@ATL@@SGXK@Z 1000f4c0 f i PINPad.obj
 0001:0000e590       ?Clear@CComVariant@ATL@@QAEJXZ 1000f590 f i PINPad.obj
 0001:0000e5d0       ?ClearReplacements@CExpansionVector@ATL@@QAEJXZ 1000f5d0 f i PINPad.obj
 0001:0000e660       ?ClearReplacements@CRegObject@ATL@@UAGJXZ 1000f660 f i PINPad.obj
 0001:0000e6b0       ?Clone@?$CComEnumImpl@UIEnumConnectionPoints@@$1?_GUID_b196b285_bab4_101a_b69c_00aa00341d07@@3U__s_GUID@@BPAUIConnectionPoint@@V?$_CopyInterface@UIConnectionPoint@@@ATL@@@ATL@@UAGJPAPAUIEnumConnectionPoints@@@Z 1000f6b0 f i PINPad.obj
 0001:0000e830       ?Clone@?$CComEnumImpl@UIEnumConnections@@$1?_GUID_b196b287_bab4_101a_b69c_00aa00341d07@@3U__s_GUID@@BUtagCONNECTDATA@@V?$_Copy@UtagCONNECTDATA@@@ATL@@@ATL@@UAGJPAPAUIEnumConnections@@@Z 1000f830 f i PINPad.obj
 0001:0000e9b0       ?Close@?$IOleObjectImpl@VCOPOSPINPad@@@ATL@@UAGJK@Z 1000f9b0 f i PINPad.obj
 0001:0000ea40       ?Close@CRegKey@ATL@@QAEJXZ 1000fa40 f i PINPad.obj
 0001:0000eab0       ?ContextSensitiveHelp@?$IOleInPlaceActiveObjectImpl@VCOPOSPINPad@@@ATL@@UAGJH@Z 1000fab0 f i PINPad.obj
 0001:0000eb20       ?ContextSensitiveHelp@?$IOleInPlaceObjectWindowlessImpl@VCOPOSPINPad@@@ATL@@UAGJH@Z 1000fb20 f i PINPad.obj
 0001:0000eb90       ?ControlQueryInterface@?$CComControl@VCOPOSPINPad@@V?$CWindowImpl@VCOPOSPINPad@@VCWindow@ATL@@V?$CWinTraits@$0FGAAAAAA@$0A@@3@@ATL@@@ATL@@UAEJABU_GUID@@PAPAX@Z 1000fb90 f i PINPad.obj
 0001:0000ec10       ?CreateControlWindow@?$CComControl@VCOPOSPINPad@@V?$CWindowImpl@VCOPOSPINPad@@VCWindow@ATL@@V?$CWinTraits@$0FGAAAAAA@$0A@@3@@ATL@@@ATL@@UAEPAUHWND__@@PAU3@AAUtagRECT@@@Z 1000fc10 f i PINPad.obj
 0001:0000ec90       ?CreateInstance@?$CComCreator@V?$CComAggObject@VCOPOSPINPad@@@ATL@@@ATL@@SGJPAXABU_GUID@@PAPAX@Z 1000fc90 f i PINPad.obj
 0001:0000ee20       ?CreateInstance@?$CComCreator@V?$CComObject@VCOPOSPINPad@@@ATL@@@ATL@@SGJPAXABU_GUID@@PAPAX@Z 1000fe20 f i PINPad.obj
 0001:0000efb0       ?CreateInstance@?$CComObject@V?$CComEnum@UIEnumConnectionPoints@@$1?_GUID_b196b285_bab4_101a_b69c_00aa00341d07@@3U__s_GUID@@BPAUIConnectionPoint@@V?$_CopyInterface@UIConnectionPoint@@@ATL@@VCComSingleThreadModel@6@@ATL@@@ATL@@SGJPAPAV12@@Z 1000ffb0 f i PINPad.obj
 0001:0000f120       ?CreateInstance@?$CComObject@V?$CComEnum@UIEnumConnections@@$1?_GUID_b196b287_bab4_101a_b69c_00aa00341d07@@3U__s_GUID@@BUtagCONNECTDATA@@V?$_Copy@UtagCONNECTDATA@@@ATL@@VCComSingleThreadModel@6@@ATL@@@ATL@@SGJPAPAV12@@Z 10010120 f i PINPad.obj
 0001:0000f290       ?CreateInstance@CComClassFactory@ATL@@UAGJPAUIUnknown@@ABU_GUID@@PAPAX@Z 10010290 f i PINPad.obj
 0001:0000f380       ?DAdvise@?$IDataObjectImpl@VCOPOSPINPad@@@ATL@@UAGJPAUtagFORMATETC@@KPAUIAdviseSink@@PAK@Z 10010380 f i PINPad.obj
 0001:0000f480       ?DEVMODEOLE2T_EX@@YAPAU_devicemodeW@@PAU1@@Z 10010480 f i PINPad.obj
 0001:0000f490       ?DUnadvise@?$IDataObjectImpl@VCOPOSPINPad@@@ATL@@UAGJK@Z 10010490 f i PINPad.obj
 0001:0000f560       ?Decrement@CComMultiThreadModel@ATL@@SGKPAJ@Z 10010560 f i PINPad.obj
 0001:0000f580       ?Decrement@CComSingleThreadModel@ATL@@SGKPAJ@Z 10010580 f i PINPad.obj
 0001:0000f5a0       ?DefWindowProcW@?$CWindowImplBaseT@VCWindow@ATL@@V?$CWinTraits@$0FGAAAAAA@$0A@@2@@ATL@@QAEJIIJ@Z 100105a0 f i PINPad.obj
 0001:0000f5f0       ?DefaultReflectionHandler@?$CWindowImplRoot@VCWindow@ATL@@@ATL@@SAHPAUHWND__@@IIJAAJ@Z 100105f0 f i PINPad.obj
 0001:0000f7e0       ?DeleteSubKey@CRegKey@ATL@@QAEJPB_W@Z 100107e0 f i PINPad.obj
 0001:0000f8f0       ?DeleteValue@CRegKey@ATL@@QAEJPB_W@Z 100108f0 f i PINPad.obj
 0001:0000f960       ?Detach@?$CAutoVectorPtr@_W@ATL@@QAEPA_WXZ 10010960 f i PINPad.obj
 0001:0000f990       ?Detach@?$CComPtrBase@UIPersistStream@@@ATL@@QAEPAUIPersistStream@@XZ 10010990 f i PINPad.obj
 0001:0000f9c0       ?Detach@?$CComPtrBase@UITypeInfo@@@ATL@@QAEPAUITypeInfo@@XZ 100109c0 f i PINPad.obj
 0001:0000f9f0       ?Detach@?$CComPtrBase@UIUnknown@@@ATL@@QAEPAUIUnknown@@XZ 100109f0 f i PINPad.obj
 0001:0000fa20       ?Detach@CComBSTR@ATL@@QAEPA_WXZ 10010a20 f i PINPad.obj
 0001:0000fa50       ?Detach@CParseBuffer@CRegParser@ATL@@QAEPA_WXZ 10010a50 f i PINPad.obj
 0001:0000faa0       ?Detach@CRegKey@ATL@@QAEPAUHKEY__@@XZ 10010aa0 f i PINPad.obj
 0001:0000faf0       ?DoEvent@COPOSPINPad@@IAEXIIJ@Z 10010af0 f i PINPad.obj
 0001:0000fc30       ?DoVerb@?$IOleObjectImpl@VCOPOSPINPad@@@ATL@@UAGJJPAUtagMSG@@PAUIOleClientSite@@JPAUHWND__@@PBUtagRECT@@@Z 10010c30 f i PINPad.obj
 0001:0000fe40       ?DoVerbDiscardUndo@?$IOleObjectImpl@VCOPOSPINPad@@@ATL@@QAEJPBUtagRECT@@PAUHWND__@@@Z 10010e40 f i PINPad.obj
 0001:0000feb0       ?DoVerbHide@?$IOleObjectImpl@VCOPOSPINPad@@@ATL@@QAEJPBUtagRECT@@PAUHWND__@@@Z 10010eb0 f i PINPad.obj
 0001:0000ff60       ?DoVerbInPlaceActivate@?$IOleObjectImpl@VCOPOSPINPad@@@ATL@@QAEJPBUtagRECT@@PAUHWND__@@@Z 10010f60 f i PINPad.obj
 0001:00010000       ?DoVerbOpen@?$IOleObjectImpl@VCOPOSPINPad@@@ATL@@QAEJPBUtagRECT@@PAUHWND__@@@Z 10011000 f i PINPad.obj
 0001:00010070       ?DoVerbPrimary@?$IOleObjectImpl@VCOPOSPINPad@@@ATL@@QAEJPBUtagRECT@@PAUHWND__@@@Z 10011070 f i PINPad.obj
 0001:00010180       ?DoVerbProperties@CComControlBase@ATL@@QAEJPBUtagRECT@@PAUHWND__@@@Z 10011180 f i PINPad.obj
 0001:000104a0       ?DoVerbShow@?$IOleObjectImpl@VCOPOSPINPad@@@ATL@@QAEJPBUtagRECT@@PAUHWND__@@@Z 100114a0 f i PINPad.obj
 0001:00010530       ?DoVerbUIActivate@?$IOleObjectImpl@VCOPOSPINPad@@@ATL@@QAEJPBUtagRECT@@PAUHWND__@@@Z 10011530 f i PINPad.obj
 0001:000105d0       ?DoesVerbActivate@CComControlBase@ATL@@QAEHJ@Z 100115d0 f i PINPad.obj
 0001:00010640       ?DoesVerbUIActivate@CComControlBase@ATL@@QAEHJ@Z 10011640 f i PINPad.obj
 0001:000106c0       ?Draw@?$IViewObjectExImpl@VCOPOSPINPad@@@ATL@@UAGJKJPAXPAUtagDVTARGETDEVICE@@PAUHDC__@@2PBU_RECTL@@3P6GHK@ZK@Z 100116c0 f i PINPad.obj
 0001:00010760       ?Empty@CComBSTR@ATL@@QAEXXZ 10011760 f i PINPad.obj
 0001:000107a0       ?EnableModeless@?$IOleInPlaceActiveObjectImpl@VCOPOSPINPad@@@ATL@@UAGJH@Z 100117a0 f i PINPad.obj
 0001:00010800       ?EndOfVar@CRegParser@ATL@@IAEHXZ 10011800 f i PINPad.obj
 0001:00010870       ?EnsureTI@CComTypeInfoHolder@ATL@@QAEJK@Z 10011870 f i PINPad.obj
 0001:000108d0       ?EnumAdvise@?$IOleObjectImpl@VCOPOSPINPad@@@ATL@@UAGJPAPAUIEnumSTATDATA@@@Z 100118d0 f i PINPad.obj
 0001:000109e0       ?EnumConnectionPoints@?$IConnectionPointContainerImpl@VCOPOSPINPad@@@ATL@@UAGJPAPAUIEnumConnectionPoints@@@Z 100119e0 f i PINPad.obj
 0001:00010e40       ?EnumConnections@?$IConnectionPointImpl@VCOPOSPINPad@@$1?DIID__IOPOSPINPadEvents@@3U_GUID@@BVCComDynamicUnkArray@ATL@@@ATL@@UAGJPAPAUIEnumConnections@@@Z 10011e40 f i PINPad.obj
 0001:00011090       ?EnumConnections@?$IConnectionPointImpl@VCOPOSPINPad@@$1?IID_IPropertyNotifySink@@3U_GUID@@BVCComDynamicUnkArray@ATL@@@ATL@@UAGJPAPAUIEnumConnections@@@Z 10012090 f i PINPad.obj
 0001:000112e0       ?EnumDAdvise@?$IDataObjectImpl@VCOPOSPINPad@@@ATL@@UAGJPAPAUIEnumSTATDATA@@@Z 100122e0 f i PINPad.obj
 0001:000113e0       ?EnumFormatEtc@?$IDataObjectImpl@VCOPOSPINPad@@@ATL@@UAGJKPAPAUIEnumFORMATETC@@@Z 100123e0 f i PINPad.obj
 0001:00011450       ?EnumVerbs@?$IOleObjectImpl@VCOPOSPINPad@@@ATL@@UAGJPAPAUIEnumOLEVERB@@@Z 10012450 f i PINPad.obj
 0001:00011500       ?EscapeSingleQuote@CAtlModule@ATL@@SAXPA_WIPB_W@Z 10012500 f i PINPad.obj
 0001:000115b0       ?ExtractCreateWndData@CAtlWinModule@ATL@@QAEPAXXZ 100125b0 f i PINPad.obj
 0001:000115e0       ?FAccessAllowed@?$IObjectSafetyImpl@VCOPOSPINPad@@$02@ATL@@MAEHXZ 100125e0 f i PINPad.obj
 0001:00011600       ?FinalConstruct@?$CComAggObject@VCOPOSPINPad@@@ATL@@QAEJXZ 10012600 f i PINPad.obj
 0001:00011640       ?FinalConstruct@CComObjectRootBase@ATL@@QAEJXZ 10012640 f i PINPad.obj
 0001:00011660       ?FinalConstruct@CRegObject@ATL@@QAEJXZ 10012660 f i PINPad.obj
 0001:00011690       ?FinalRelease@?$CComAggObject@VCOPOSPINPad@@@ATL@@QAEXXZ 10012690 f i PINPad.obj
 0001:000116d0       ?FinalRelease@CComObjectRootBase@ATL@@QAEXXZ 100126d0 f i PINPad.obj
 0001:000116f0       ?FindConnectionPoint@?$IConnectionPointContainerImpl@VCOPOSPINPad@@@ATL@@UAGJABU_GUID@@PAPAUIConnectionPoint@@@Z 100126f0 f i PINPad.obj
 0001:00011840       ?FindKey@?$CSimpleMap@PA_WPA_WVCExpansionVectorEqualHelper@ATL@@@ATL@@QBEHABQA_W@Z 10012840 f i PINPad.obj
 0001:000118b0       ?FireTheEvent@?$CProxy_IOPOSEvents@VCOPOSPINPad@@@@IAEXPAUIUnknown@@PAVOposVariant@@IAAJPB_WJ@Z 100128b0 f i PINPad.obj
 0001:00011a20       ?FireViewChange@CComControlBase@ATL@@QAEJXZ 10012a20 f i PINPad.obj
 0001:00011ae0       ?Fire_DataEvent@?$CProxy_IOPOSEvents@VCOPOSPINPad@@@@QAEXJ@Z 10012ae0 f i PINPad.obj
 0001:00011c40       ?Fire_DirectIOEvent@?$CProxy_IOPOSEvents@VCOPOSPINPad@@@@QAEXJPAJPAPA_W@Z 10012c40 f i PINPad.obj
 0001:00011e10       ?Fire_ErrorEvent@?$CProxy_IOPOSEvents@VCOPOSPINPad@@@@QAEXJJJPAJ@Z 10012e10 f i PINPad.obj
 0001:00012000       ?Fire_StatusUpdateEvent@?$CProxy_IOPOSEvents@VCOPOSPINPad@@@@QAEXJ@Z 10013000 f i PINPad.obj
 0001:00012160       ?FormatWindowClassName@AtlModuleRegisterWndClassInfoParamW@ATL@@SAXPA_WKPAX@Z 10013160 f i PINPad.obj
 0001:00012190       ?Free@?$CAutoVectorPtr@_W@ATL@@QAEXXZ 10013190 f i PINPad.obj
 0001:000121e0       ?FreeHeap@?$CTempBuffer@E$0BAA@VCCRTAllocator@ATL@@@ATL@@AAEXXZ 100131e0 f i PINPad.obj
 0001:00012210       ?FreeHeap@?$CTempBuffer@_W$0BAA@VCCRTAllocator@ATL@@@ATL@@AAEXXZ 10013210 f i PINPad.obj
 0001:00012240       ?FreeHeap@?$CTempBuffer@_W$0EAA@VCCRTAllocator@ATL@@@ATL@@AAEXXZ 10013240 f i PINPad.obj
 0001:00012270       ?Freeze@?$IViewObjectExImpl@VCOPOSPINPad@@@ATL@@UAGJKJPAXPAK@Z 10013270 f i PINPad.obj
 0001:000122e0       ?GenerateError@CRegParser@ATL@@IAEJI@Z 100132e0 f i PINPad.obj
 0001:00012300       ?GetAdvise@?$IViewObjectExImpl@VCOPOSPINPad@@@ATL@@UAGJPAK0PAPAUIAdviseSink@@@Z 10013300 f i PINPad.obj
 0001:00012400       ?GetAmbientLocaleID@CComControlBase@ATL@@QAEJAAK@Z 10013400 f i PINPad.obj
 0001:000124e0       ?GetAmbientProperty@CComControlBase@ATL@@QAEJJAAUtagVARIANT@@@Z 100134e0 f i PINPad.obj
 0001:00012530       ?GetAmbientUserMode@CComControlBase@ATL@@QAEJAAH@Z 10013530 f i PINPad.obj
 0001:00012630       ?GetAppId@?$CAtlModuleT@VCComModule@ATL@@@ATL@@SAPB_WXZ 10013630 f i PINPad.obj
 0001:00012640       ?GetAt@CComDynamicUnkArray@ATL@@QAEPAUIUnknown@@H@Z 10013640 f i PINPad.obj
 0001:000126c0       ?GetCanonicalFormatEtc@?$IDataObjectImpl@VCOPOSPINPad@@@ATL@@UAGJPAUtagFORMATETC@@0@Z 100136c0 f i PINPad.obj
 0001:00012730       ?GetClassID@?$IPersistStorageImpl@VCOPOSPINPad@@@ATL@@UAGJPAU_GUID@@@Z 10013730 f i PINPad.obj
 0001:000127b0       ?GetClassID@?$IPersistStreamInitImpl@VCOPOSPINPad@@@ATL@@UAGJPAU_GUID@@@Z 100137b0 f i PINPad.obj
 0001:00012830       ?GetClassInfoExW@AtlModuleRegisterWndClassInfoParamW@ATL@@SAHPAUHINSTANCE__@@PB_WPAUtagWNDCLASSEXW@@@Z 10013830 f i PINPad.obj
 0001:00012860       ?GetClassInfoW@?$IProvideClassInfo2Impl@$1?CLSID_OPOSPINPad@@3U_GUID@@B$1?DIID__IOPOSPINPadEvents@@3U2@B$1?LIBID_OposPINPad_CCO@@3U2@B$00$0A@VCComTypeInfoHolder@ATL@@@ATL@@UAGJPAPAUITypeInfo@@@Z 10013860 f i PINPad.obj
 0001:00012880       ?GetClassObject@CComModule@ATL@@QAEJABU_GUID@@0PAPAX@Z 10013880 f i PINPad.obj
 0001:00012a80       ?GetClientSite@?$IOleObjectImpl@VCOPOSPINPad@@@ATL@@UAGJPAPAUIOleClientSite@@@Z 10013a80 f i PINPad.obj
 0001:00012b10       ?GetClipboardData@?$IOleObjectImpl@VCOPOSPINPad@@@ATL@@UAGJKPAPAUIDataObject@@@Z 10013b10 f i PINPad.obj
 0001:00012b80       ?GetCodeAddress@CDynamicStdCallThunk2@ATL@@QAEPAXXZ 10013b80 f i PINPad.obj
 0001:00012bb0       ?GetColorSet@?$IViewObjectExImpl@VCOPOSPINPad@@@ATL@@UAGJKJPAXPAUtagDVTARGETDEVICE@@PAUHDC__@@PAPAUtagLOGPALETTE@@@Z 10013bb0 f i PINPad.obj
 0001:00012c20       ?GetConnMap@COPOSPINPad@@SAPBU_ATL_CONNMAP_ENTRY@ATL@@PAH@Z 10013c20 f i PINPad.obj
 0001:00012d60       ?GetConnectionInterface@?$IConnectionPointImpl@VCOPOSPINPad@@$1?DIID__IOPOSPINPadEvents@@3U_GUID@@BVCComDynamicUnkArray@ATL@@@ATL@@UAGJPAU_GUID@@@Z 10013d60 f i PINPad.obj
 0001:00012da0       ?GetConnectionInterface@?$IConnectionPointImpl@VCOPOSPINPad@@$1?IID_IPropertyNotifySink@@3U_GUID@@BVCComDynamicUnkArray@ATL@@@ATL@@UAGJPAU_GUID@@@Z 10013da0 f i PINPad.obj
 0001:00012de0       ?GetConnectionPointContainer@?$IConnectionPointImpl@VCOPOSPINPad@@$1?DIID__IOPOSPINPadEvents@@3U_GUID@@BVCComDynamicUnkArray@ATL@@@ATL@@UAGJPAPAUIConnectionPointContainer@@@Z 10013de0 f i PINPad.obj
 0001:00012e50       ?GetConnectionPointContainer@?$IConnectionPointImpl@VCOPOSPINPad@@$1?IID_IPropertyNotifySink@@3U_GUID@@BVCComDynamicUnkArray@ATL@@@ATL@@UAGJPAPAUIConnectionPointContainer@@@Z 10013e50 f i PINPad.obj
 0001:00012ec0       ?GetContentExtent@?$IQuickActivateImpl@VCOPOSPINPad@@@ATL@@UAGJPAUtagSIZE@@@Z 10013ec0 f i PINPad.obj
 0001:00012f50       ?GetControlInfo@?$IOleControlImpl@VCOPOSPINPad@@@ATL@@UAGJPAUtagCONTROLINFO@@@Z 10013f50 f i PINPad.obj
 0001:00012fc0       ?GetCookie@CComDynamicUnkArray@ATL@@QAGKPAPAUIUnknown@@@Z 10013fc0 f i PINPad.obj
 0001:00013080       ?GetData@?$IDataObjectImpl@VCOPOSPINPad@@@ATL@@UAGJPAUtagFORMATETC@@PAUtagSTGMEDIUM@@@Z 10014080 f i PINPad.obj
 0001:00013110       ?GetData@CAtlSafeAllocBufferNode@?$CAtlSafeAllocBufferManager@VCCRTAllocator@ATL@@@_ATL_SAFE_ALLOCA_IMPL@ATL@@QAEPAXXZ 10014110 f i PINPad.obj
 0001:00013130       ?GetDataHere@?$IDataObjectImpl@VCOPOSPINPad@@@ATL@@UAGJPAUtagFORMATETC@@PAUtagSTGMEDIUM@@@Z 10014130 f i PINPad.obj
 0001:000131a0       ?GetDropTarget@?$IOleInPlaceObjectWindowlessImpl@VCOPOSPINPad@@@ATL@@UAGJPAPAUIDropTarget@@@Z 100141a0 f i PINPad.obj
 0001:00013210       ?GetExtent@?$IOleObjectImpl@VCOPOSPINPad@@@ATL@@UAGJKPAUtagSIZE@@@Z 10014210 f i PINPad.obj
 0001:000132b0       ?GetExtent@?$IViewObjectExImpl@VCOPOSPINPad@@@ATL@@UAGJKJPAUtagDVTARGETDEVICE@@PAUtagSIZE@@@Z 100142b0 f i PINPad.obj
 0001:00013380       ?GetGITPtr@CAtlModule@ATL@@UAEJPAPAUIGlobalInterfaceTable@@@Z 10014380 f i PINPad.obj
 0001:00013480       ?GetGUID@?$IProvideClassInfo2Impl@$1?CLSID_OPOSPINPad@@3U_GUID@@B$1?DIID__IOPOSPINPadEvents@@3U2@B$1?LIBID_OposPINPad_CCO@@3U2@B$00$0A@VCComTypeInfoHolder@ATL@@@ATL@@UAGJKPAU_GUID@@@Z 10014480 f i PINPad.obj
 0001:00013500       ?GetIDsOfNames@?$IDispatchImpl@UIOPOSPINPad@@$1?IID_IOPOSPINPad@@3U_GUID@@B$1?LIBID_OposPINPad_CCO@@3U3@B$00$0A@VCComTypeInfoHolder@ATL@@@ATL@@UAGJABU_GUID@@PAPA_WIKPAJ@Z 10014500 f i PINPad.obj
 0001:00013530       ?GetIDsOfNames@CComTypeInfoHolder@ATL@@QAEJABU_GUID@@PAPA_WIKPAJ@Z 10014530 f i PINPad.obj
 0001:000136e0       ?GetInterfaceSafetyOptions@?$IObjectSafetyImpl@VCOPOSPINPad@@$02@ATL@@UAGJABU_GUID@@PAK1@Z 100146e0 f i PINPad.obj
 0001:00013850       ?GetKeyAt@?$CSimpleMap@PA_WPA_WVCExpansionVectorEqualHelper@ATL@@@ATL@@QBEAAPA_WH@Z 10014850 f i PINPad.obj
 0001:000138d0       ?GetLockCount@CAtlModule@ATL@@UAEJXZ 100148d0 f i PINPad.obj
 0001:000138f0       ?GetMiscStatus@?$IOleObjectImpl@VCOPOSPINPad@@@ATL@@UAGJKPAK@Z 100148f0 f i PINPad.obj
 0001:00013960       ?GetMoniker@?$IOleObjectImpl@VCOPOSPINPad@@@ATL@@UAGJKKPAPAUIMoniker@@@Z 10014960 f i PINPad.obj
 0001:000139d0       ?GetNaturalExtent@?$IViewObjectExImpl@VCOPOSPINPad@@@ATL@@UAGJKJPAUtagDVTARGETDEVICE@@PAUHDC__@@PAUtagExtentInfo@@PAUtagSIZE@@@Z 100149d0 f i PINPad.obj
 0001:00013af0       ?GetObjectCLSID@?$CComCoClass@VCOPOSPINPad@@$1?CLSID_OPOSPINPad@@3U_GUID@@B@ATL@@SGABU_GUID@@XZ 10014af0 f i PINPad.obj
 0001:00013b00       ?GetPages@?$ISpecifyPropertyPagesImpl@VCOPOSPINPad@@@ATL@@UAGJPAUtagCAUUID@@@Z 10014b00 f i PINPad.obj
 0001:00013b70       ?GetPagesHelper@?$ISpecifyPropertyPagesImpl@VCOPOSPINPad@@@ATL@@IAEJPAUtagCAUUID@@PBUATL_PROPMAP_ENTRY@2@@Z 10014b70 f i PINPad.obj
 0001:00013d70       ?GetProperty@?$CComPtr@UIDispatch@@@ATL@@QAEJJPAUtagVARIANT@@@Z 10014d70 f i PINPad.obj
 0001:00013db0       ?GetProperty@?$CComPtr@UIDispatch@@@ATL@@SAJPAUIDispatch@@JPAUtagVARIANT@@@Z 10014db0 f i PINPad.obj
 0001:00013f10       ?GetPropertyMap@COPOSPINPad@@SAPBUATL_PROPMAP_ENTRY@ATL@@XZ 10014f10 f i PINPad.obj
 0001:00013f20       ?GetRect@?$IViewObjectExImpl@VCOPOSPINPad@@@ATL@@UAGJKPAU_RECTL@@@Z 10014f20 f i PINPad.obj
 0001:00013f90       ?GetSize@?$CSimpleMap@PA_WPA_WVCExpansionVectorEqualHelper@ATL@@@ATL@@QBEHXZ 10014f90 f i PINPad.obj
 0001:00013fb0       ?GetSize@CComDynamicUnkArray@ATL@@QBEHXZ 10014fb0 f i PINPad.obj
 0001:00013fd0       ?GetSizeMax@?$IPersistStreamInitImpl@VCOPOSPINPad@@@ATL@@UAGJPAT_ULARGE_INTEGER@@@Z 10014fd0 f i PINPad.obj
 0001:00014540       ?GetSizeMax@CComVariant@ATL@@QBEJPAT_ULARGE_INTEGER@@@Z 10015540 f i PINPad.obj
 0001:000148a0       ?GetStreamSize@CComBSTR@ATL@@SAKPA_W@Z 100158a0 f i PINPad.obj
 0001:000148f0       ?GetTI@CComTypeInfoHolder@ATL@@QAEJK@Z 100158f0 f i PINPad.obj
 0001:00015100       ?GetTI@CComTypeInfoHolder@ATL@@QAEJKPAPAUITypeInfo@@@Z 10016100 f i PINPad.obj
 0001:000151c0       ?GetTypeInfo@?$IDispatchImpl@UIOPOSPINPad@@$1?IID_IOPOSPINPad@@3U_GUID@@B$1?LIBID_OposPINPad_CCO@@3U3@B$00$0A@VCComTypeInfoHolder@ATL@@@ATL@@UAGJIKPAPAUITypeInfo@@@Z 100161c0 f i PINPad.obj
 0001:000151f0       ?GetTypeInfo@CComTypeInfoHolder@ATL@@QAEJIKPAPAUITypeInfo@@@Z 100161f0 f i PINPad.obj
 0001:00015230       ?GetTypeInfoCount@?$IDispatchImpl@UIOPOSPINPad@@$1?IID_IOPOSPINPad@@3U_GUID@@B$1?LIBID_OposPINPad_CCO@@3U3@B$00$0A@VCComTypeInfoHolder@ATL@@@ATL@@UAGJPAI@Z 10016230 f i PINPad.obj
 0001:00015250       ?GetUnknown@CComDynamicUnkArray@ATL@@QAGPAUIUnknown@@K@Z 10016250 f i PINPad.obj
 0001:000152c0       ?GetUnknown@COPOSPINPad@@QAEPAUIUnknown@@XZ 100162c0 f i PINPad.obj
 0001:000152f0       ?GetUserClassID@?$IOleObjectImpl@VCOPOSPINPad@@@ATL@@UAGJPAU_GUID@@@Z 100162f0 f i PINPad.obj
 0001:000153a0       ?GetUserType@?$IOleObjectImpl@VCOPOSPINPad@@@ATL@@UAGJKPAPA_W@Z 100163a0 f i PINPad.obj
 0001:00015410       ?GetValueAt@?$CSimpleMap@PA_WPA_WVCExpansionVectorEqualHelper@ATL@@@ATL@@QBEAAPA_WH@Z 10016410 f i PINPad.obj
 0001:00015490       ?GetViewStatus@?$IViewObjectExImpl@VCOPOSPINPad@@@ATL@@UAGJPAK@Z 10016490 f i PINPad.obj
 0001:00015550       ?GetWNDPROC@CWndProcThunk@ATL@@QAEP6GJPAUHWND__@@IIJ@ZXZ 10016550 f i PINPad.obj
 0001:00015580       ?GetWindow@?$IOleInPlaceActiveObjectImpl@VCOPOSPINPad@@@ATL@@UAGJPAPAUHWND__@@@Z 10016580 f i PINPad.obj
 0001:00015650       ?GetWindow@?$IOleInPlaceObjectWindowlessImpl@VCOPOSPINPad@@@ATL@@UAGJPAPAUHWND__@@@Z 10016650 f i PINPad.obj
 0001:00015720       ?GetWindowLongPtrW@@YAJPAUHWND__@@H@Z 10016720 f i PINPad.obj
 0001:00015750       ?GetWindowProc@?$CWindowImplBaseT@VCWindow@ATL@@V?$CWinTraits@$0FGAAAAAA@$0A@@2@@ATL@@UAEP6GJPAUHWND__@@IIJ@ZXZ 10016750 f i PINPad.obj
 0001:00015770       ?GetWndCaption@?$CWindowImpl@VCOPOSPINPad@@VCWindow@ATL@@V?$CWinTraits@$0FGAAAAAA@$0A@@3@@ATL@@SAPB_WXZ 10016770 f i PINPad.obj
 0001:00015780       ?GetWndClassInfo@?$CWindowImpl@VCOPOSPINPad@@VCWindow@ATL@@V?$CWinTraits@$0FGAAAAAA@$0A@@3@@ATL@@SAAAU_ATL_WNDCLASSINFOW@2@XZ 10016780 f i PINPad.obj
 0001:00015790       ?GetWndClassName@CWindow@ATL@@SAPB_WXZ 10016790 f i PINPad.obj
 0001:000157a0       ?GetWndExStyle@?$CWinTraits@$0FGAAAAAA@$0A@@ATL@@SAKK@Z 100167a0 f i PINPad.obj
 0001:000157d0       ?GetWndExStyle@?$CWindowImplBaseT@VCWindow@ATL@@V?$CWinTraits@$0FGAAAAAA@$0A@@2@@ATL@@SAKK@Z 100167d0 f i PINPad.obj
 0001:000157f0       ?GetWndStyle@?$CWinTraits@$0FGAAAAAA@$0A@@ATL@@SAKK@Z 100167f0 f i PINPad.obj
 0001:00015820       ?GetWndStyle@?$CWindowImplBaseT@VCWindow@ATL@@V?$CWinTraits@$0FGAAAAAA@$0A@@2@@ATL@@SAKK@Z 10016820 f i PINPad.obj
 0001:00015840       ?GetZoomInfo@CComControlBase@ATL@@QAEXAAUATL_DRAWINFO@@@Z 10016840 f i PINPad.obj
 0001:000159b0       ?HKeyFromString@CRegParser@ATL@@KAPAUHKEY__@@PA_W@Z 100169b0 f i PINPad.obj
 0001:00015a20       ?HandsOffStorage@?$IPersistStorageImpl@VCOPOSPINPad@@@ATL@@UAGJXZ 10016a20 f i PINPad.obj
 0001:00015a80       ?HasSubKeys@CRegParser@ATL@@IAEHPAUHKEY__@@@Z 10016a80 f i PINPad.obj
 0001:00015b90       ?IDataObject_GetData@CComControlBase@ATL@@QAEJPAUtagFORMATETC@@PAUtagSTGMEDIUM@@@Z 10016b90 f i PINPad.obj
 0001:00015fb0       ?IOleInPlaceObject_InPlaceDeactivate@CComControlBase@ATL@@QAEJXZ 10016fb0 f i PINPad.obj
 0001:000161b0       ?IOleInPlaceObject_SetObjectRects@CComControlBase@ATL@@QAEJPBUtagRECT@@0@Z 100171b0 f i PINPad.obj
 0001:00016370       ?IOleInPlaceObject_UIDeactivate@CComControlBase@ATL@@QAEJXZ 10017370 f i PINPad.obj
 0001:000165e0       ?IOleObject_Advise@CComControlBase@ATL@@QAEJPAUIAdviseSink@@PAK@Z 100175e0 f i PINPad.obj
 0001:00016690       ?IOleObject_Close@CComControlBase@ATL@@QAEJK@Z 10017690 f i PINPad.obj
 0001:00016940       ?IOleObject_GetClientSite@CComControlBase@ATL@@QAEJPAPAUIOleClientSite@@@Z 10017940 f i PINPad.obj
 0001:000169e0       ?IOleObject_SetClientSite@CComControlBase@ATL@@QAEJPAUIOleClientSite@@@Z 100179e0 f i PINPad.obj
 0001:00016ab0       ?IOleObject_SetExtent@CComControlBase@ATL@@QAEJKPAUtagSIZE@@@Z 10017ab0 f i PINPad.obj
 0001:00016bf0       ?IPSI_GetIPersistStreamInit@?$IPersistStorageImpl@VCOPOSPINPad@@@ATL@@AAEPAUIPersistStreamInit@@XZ 10017bf0 f i PINPad.obj
 0001:00016cc0       ?IPersistStreamInit_Load@?$IPersistStreamInitImpl@VCOPOSPINPad@@@ATL@@QAEJPAUIStream@@PBUATL_PROPMAP_ENTRY@2@@Z 10017cc0 f i PINPad.obj
 0001:00016d40       ?IPersistStreamInit_Save@?$IPersistStreamInitImpl@VCOPOSPINPad@@@ATL@@QAEJPAUIStream@@HPBUATL_PROPMAP_ENTRY@2@@Z 10017d40 f i PINPad.obj
 0001:00016dd0       ?IQuickActivate_QuickActivate@CComControlBase@ATL@@QAEJPAUtagQACONTAINER@@PAUtagQACONTROL@@@Z 10017dd0 f i PINPad.obj
 0001:00017420       ?IViewObject_Draw@CComControlBase@ATL@@QAEJKJPAXPAUtagDVTARGETDEVICE@@PAUHDC__@@2PBU_RECTL@@3@Z 10018420 f i PINPad.obj
 0001:000176c0       ?InPlaceActivate@CComControlBase@ATL@@QAEJJPBUtagRECT@@@Z 100186c0 f i PINPad.obj
 0001:00018050       ?InPlaceDeactivate@?$IOleInPlaceObjectWindowlessImpl@VCOPOSPINPad@@@ATL@@UAGJXZ 10019050 f i PINPad.obj
 0001:000180d0       ?Increment@CComMultiThreadModel@ATL@@SGKPAJ@Z 100190d0 f i PINPad.obj
 0001:000180f0       ?Increment@CComSingleThreadModel@ATL@@SGKPAJ@Z 100190f0 f i PINPad.obj
 0001:00018110       ?Init@?$CComEnumImpl@UIEnumConnectionPoints@@$1?_GUID_b196b285_bab4_101a_b69c_00aa00341d07@@3U__s_GUID@@BPAUIConnectionPoint@@V?$_CopyInterface@UIConnectionPoint@@@ATL@@@ATL@@QAEJPAPAUIConnectionPoint@@0PAUIUnknown@@W4CComEnumFlags@2@@Z 10019110 f i PINPad.obj
 0001:000182f0       ?Init@?$CComEnumImpl@UIEnumConnections@@$1?_GUID_b196b287_bab4_101a_b69c_00aa00341d07@@3U__s_GUID@@BUtagCONNECTDATA@@V?$_Copy@UtagCONNECTDATA@@@ATL@@@ATL@@QAEJPAUtagCONNECTDATA@@0PAUIUnknown@@W4CComEnumFlags@2@@Z 100192f0 f i PINPad.obj
 0001:000184d0       ?Init@CComFakeCriticalSection@ATL@@QAEJXZ 100194d0 f i PINPad.obj
 0001:000184f0       ?Init@CComModule@ATL@@QAEJPAU_ATL_OBJMAP_ENTRY30@2@PAUHINSTANCE__@@PBU_GUID@@@Z 100194f0 f i PINPad.obj
 0001:000185e0       ?Init@CComSafeDeleteCriticalSection@ATL@@QAEJXZ 100195e0 f i PINPad.obj
 0001:00018660       ?Init@CDynamicStdCallThunk2@ATL@@QAEHKPAX@Z 10019660 f i PINPad.obj
 0001:000186c0       ?Init@CWndProcThunk@ATL@@QAEHP6GJPAUHWND__@@IIJ@ZPAX@Z 100196c0 f i PINPad.obj
 0001:00018700       ?InitFromData@?$IOleObjectImpl@VCOPOSPINPad@@@ATL@@UAGJPAUIDataObject@@HK@Z 10019700 f i PINPad.obj
 0001:00018770       ?InitLibId@?$CAtlModuleT@VCComModule@ATL@@@ATL@@SAXXZ 10019770 f i PINPad.obj
 0001:00018780       ?InitNew@?$IPersistStorageImpl@VCOPOSPINPad@@@ATL@@UAGJPAUIStorage@@@Z 10019780 f i PINPad.obj
 0001:00018870       ?InitNew@?$IPersistStreamInitImpl@VCOPOSPINPad@@@ATL@@UAGJXZ 10019870 f i PINPad.obj
 0001:00018900       ?InlineIsEqualUnknown@ATL@@YGHABU_GUID@@@Z 10019900 f i PINPad.obj
 0001:00018970       ?InternalAddRef@?$CComObjectRootEx@VCComMultiThreadModel@ATL@@@ATL@@QAEKXZ 10019970 f i PINPad.obj
 0001:000189d0       ?InternalAddRef@?$CComObjectRootEx@VCComSingleThreadModel@ATL@@@ATL@@QAEKXZ 100199d0 f i PINPad.obj
 0001:00018a30       ?InternalFinalConstructAddRef@CComObjectRootBase@ATL@@QAEXXZ 10019a30 f i PINPad.obj
 0001:00018a50       ?InternalFinalConstructAddRef@COPOSPINPad@@QAEXXZ 10019a50 f i PINPad.obj
 0001:00018a80       ?InternalFinalConstructRelease@CComObjectRootBase@ATL@@QAEXXZ 10019a80 f i PINPad.obj
 0001:00018ad0       ?InternalFinalConstructRelease@COPOSPINPad@@QAEXXZ 10019ad0 f i PINPad.obj
 0001:00018b00       ?InternalGetSite@CComControlBase@ATL@@QAEJABU_GUID@@PAPAX@Z 10019b00 f i PINPad.obj
 0001:00018bc0       ?InternalQueryInterface@CComObjectRootBase@ATL@@SGJPAXPBU_ATL_INTMAP_ENTRY@2@ABU_GUID@@PAPAX@Z 10019bc0 f i PINPad.obj
 0001:00018c80       ?InternalRelease@?$CComObjectRootEx@VCComMultiThreadModel@ATL@@@ATL@@QAEKXZ 10019c80 f i PINPad.obj
 0001:00018cf0       ?InternalRelease@?$CComObjectRootEx@VCComSingleThreadModel@ATL@@@ATL@@QAEKXZ 10019cf0 f i PINPad.obj
 0001:00018d60       ?InternalSetAtIndex@?$CSimpleArray@GV?$CSimpleArrayEqualHelper@G@ATL@@@ATL@@QAEXHABG@Z 10019d60 f i PINPad.obj
 0001:00018dd0       ?InternalSetAtIndex@?$CSimpleMap@PA_WPA_WVCExpansionVectorEqualHelper@ATL@@@ATL@@QAEXHABQA_W0@Z 10019dd0 f i PINPad.obj
 0001:00018e70       ?Invoke@?$IDispatchImpl@UIOPOSPINPad@@$1?IID_IOPOSPINPad@@3U_GUID@@B$1?LIBID_OposPINPad_CCO@@3U3@B$00$0A@VCComTypeInfoHolder@ATL@@@ATL@@UAGJJABU_GUID@@KGPAUtagDISPPARAMS@@PAUtagVARIANT@@PAUtagEXCEPINFO@@PAI@Z 10019e70 f i PINPad.obj
 0001:00018eb0       ?Invoke@CComTypeInfoHolder@ATL@@QAEJPAUIDispatch@@JABU_GUID@@KGPAUtagDISPPARAMS@@PAUtagVARIANT@@PAUtagEXCEPINFO@@PAI@Z 10019eb0 f i PINPad.obj
 0001:00018f40       ?IsDirty@?$IPersistStorageImpl@VCOPOSPINPad@@@ATL@@UAGJXZ 10019f40 f i PINPad.obj
 0001:00019030       ?IsDirty@?$IPersistStreamInitImpl@VCOPOSPINPad@@@ATL@@UAGJXZ 1001a030 f i PINPad.obj
 0001:000190d0       ?IsEqualKey@CExpansionVectorEqualHelper@ATL@@SA_NQA_W0@Z 1001a0d0 f i PINPad.obj
 0001:00019100       ?IsEqualObject@?$CComPtrBase@UIOleClientSite@@@ATL@@QAE_NPAUIUnknown@@@Z 1001a100 f i PINPad.obj
 0001:00019230       ?IsEqualObject@?$CComPtrBase@UITypeInfo@@@ATL@@QAE_NPAUIUnknown@@@Z 1001a230 f i PINPad.obj
 0001:00019360       ?IsSpace@CRegParser@ATL@@IAEH_W@Z 1001a360 f i PINPad.obj
 0001:000193d0       ?IsUpToDate@?$IOleObjectImpl@VCOPOSPINPad@@@ATL@@UAGJXZ 1001a3d0 f i PINPad.obj
 0001:00019430       ?Length@CComBSTR@ATL@@QBEIXZ 1001a430 f i PINPad.obj
 0001:00019470       ?Load@?$IPersistStorageImpl@VCOPOSPINPad@@@ATL@@UAGJPAUIStorage@@@Z 1001a470 f i PINPad.obj
 0001:000195d0       ?Load@?$IPersistStreamInitImpl@VCOPOSPINPad@@@ATL@@UAGJPAUIStream@@@Z 1001a5d0 f i PINPad.obj
 0001:00019660       ?LoadCursorW@AtlModuleRegisterWndClassInfoParamW@ATL@@SAPAUHICON__@@PAUHINSTANCE__@@PB_W@Z 1001a660 f i PINPad.obj
 0001:00019690       ?LoadNameCache@CComTypeInfoHolder@ATL@@QAEJPAUITypeInfo@@@Z 1001a690 f i PINPad.obj
 0001:00019920       ?Lock@?$CComCritSecLock@VCComCriticalSection@ATL@@@ATL@@QAEJXZ 1001a920 f i PINPad.obj
 0001:000199d0       ?Lock@?$CComObjectRootEx@VCComSingleThreadModel@ATL@@@ATL@@QAEXXZ 1001a9d0 f i PINPad.obj
 0001:000199f0       ?Lock@CAtlModule@ATL@@UAEJXZ 1001a9f0 f i PINPad.obj
 0001:00019a20       ?Lock@CComCriticalSection@ATL@@QAEJXZ 1001aa20 f i PINPad.obj
 0001:00019a60       ?Lock@CComFakeCriticalSection@ATL@@QAEJXZ 1001aa60 f i PINPad.obj
 0001:00019a80       ?LockServer@CComClassFactory@ATL@@UAGJH@Z 1001aa80 f i PINPad.obj
 0001:00019ae0       ?Lookup@?$CSimpleMap@PA_WPA_WVCExpansionVectorEqualHelper@ATL@@@ATL@@QBEPA_WABQA_W@Z 1001aae0 f i PINPad.obj
 0001:00019b30       ?Next@?$CComEnumImpl@UIEnumConnectionPoints@@$1?_GUID_b196b285_bab4_101a_b69c_00aa00341d07@@3U__s_GUID@@BPAUIConnectionPoint@@V?$_CopyInterface@UIConnectionPoint@@@ATL@@@ATL@@UAGJKPAPAUIConnectionPoint@@PAK@Z 1001ab30 f i PINPad.obj
 0001:00019ca0       ?Next@?$CComEnumImpl@UIEnumConnections@@$1?_GUID_b196b287_bab4_101a_b69c_00aa00341d07@@3U__s_GUID@@BUtagCONNECTDATA@@V?$_Copy@UtagCONNECTDATA@@@ATL@@@ATL@@UAGJKPAUtagCONNECTDATA@@PAK@Z 1001aca0 f i PINPad.obj
 0001:00019e10       ?NextToken@CRegParser@ATL@@IAEJPA_W@Z 1001ae10 f i PINPad.obj
 0001:0001a0b0       ?OLE2CT_EX@@YAPB_WPB_WI@Z  1001b0b0 f i PINPad.obj
 0001:0001a0c0       ?OLE2CT_EX_DEF@@YAPB_WPB_W@Z 1001b0c0 f i PINPad.obj
 0001:0001a0d0       ?OLE2T_EX@@YAPA_WPA_WI@Z   1001b0d0 f i PINPad.obj
 0001:0001a0e0       ?OnAmbientPropertyChange@?$IOleControlImpl@VCOPOSPINPad@@@ATL@@UAGJJ@Z 1001b0e0 f i PINPad.obj
 0001:0001a170       ?OnDocWindowActivate@?$IOleInPlaceActiveObjectImpl@VCOPOSPINPad@@@ATL@@UAGJH@Z 1001b170 f i PINPad.obj
 0001:0001a200       ?OnDrawAdvanced@CComControlBase@ATL@@UAEJAAUATL_DRAWINFO@@@Z 1001b200 f i PINPad.obj
 0001:0001a420       ?OnFinalMessage@?$CWindowImplBaseT@VCWindow@ATL@@V?$CWinTraits@$0FGAAAAAA@$0A@@2@@ATL@@UAEXPAUHWND__@@@Z 1001b420 f i PINPad.obj
 0001:0001a440       ?OnFrameWindowActivate@?$IOleInPlaceActiveObjectImpl@VCOPOSPINPad@@@ATL@@UAGJH@Z 1001b440 f i PINPad.obj
 0001:0001a4a0       ?OnKillFocus@CComControlBase@ATL@@QAEJIIJAAH@Z 1001b4a0 f i PINPad.obj
 0001:0001a5a0       ?OnMnemonic@?$IOleControlImpl@VCOPOSPINPad@@@ATL@@UAGJPAUtagMSG@@@Z 1001b5a0 f i PINPad.obj
 0001:0001a610       ?OnMouseActivate@CComControlBase@ATL@@QAEJIIJAAH@Z 1001b610 f i PINPad.obj
 0001:0001a760       ?OnPaint@CComControlBase@ATL@@QAEJIIJAAH@Z 1001b760 f i PINPad.obj
 0001:0001a8e0       ?OnPostVerbDiscardUndo@?$IOleObjectImpl@VCOPOSPINPad@@@ATL@@QAEJXZ 1001b8e0 f i PINPad.obj
 0001:0001a900       ?OnPostVerbHide@?$IOleObjectImpl@VCOPOSPINPad@@@ATL@@QAEJXZ 1001b900 f i PINPad.obj
 0001:0001a920       ?OnPostVerbInPlaceActivate@?$IOleObjectImpl@VCOPOSPINPad@@@ATL@@QAEJXZ 1001b920 f i PINPad.obj
 0001:0001a940       ?OnPostVerbOpen@?$IOleObjectImpl@VCOPOSPINPad@@@ATL@@QAEJXZ 1001b940 f i PINPad.obj
 0001:0001a960       ?OnPostVerbShow@?$IOleObjectImpl@VCOPOSPINPad@@@ATL@@QAEJXZ 1001b960 f i PINPad.obj
 0001:0001a980       ?OnPostVerbUIActivate@?$IOleObjectImpl@VCOPOSPINPad@@@ATL@@QAEJXZ 1001b980 f i PINPad.obj
 0001:0001a9a0       ?OnPreVerbDiscardUndo@?$IOleObjectImpl@VCOPOSPINPad@@@ATL@@QAEJXZ 1001b9a0 f i PINPad.obj
 0001:0001a9c0       ?OnPreVerbHide@?$IOleObjectImpl@VCOPOSPINPad@@@ATL@@QAEJXZ 1001b9c0 f i PINPad.obj
 0001:0001a9e0       ?OnPreVerbInPlaceActivate@?$IOleObjectImpl@VCOPOSPINPad@@@ATL@@QAEJXZ 1001b9e0 f i PINPad.obj
 0001:0001aa00       ?OnPreVerbOpen@?$IOleObjectImpl@VCOPOSPINPad@@@ATL@@QAEJXZ 1001ba00 f i PINPad.obj
 0001:0001aa20       ?OnPreVerbShow@?$IOleObjectImpl@VCOPOSPINPad@@@ATL@@QAEJXZ 1001ba20 f i PINPad.obj
 0001:0001aa40       ?OnPreVerbUIActivate@?$IOleObjectImpl@VCOPOSPINPad@@@ATL@@QAEJXZ 1001ba40 f i PINPad.obj
 0001:0001aa60       ?OnSetFocus@CComControlBase@ATL@@QAEJIIJAAH@Z 1001ba60 f i PINPad.obj
 0001:0001abf0       ?OnWindowMessage@?$IOleInPlaceObjectWindowlessImpl@VCOPOSPINPad@@@ATL@@UAGJIIJPAJ@Z 1001bbf0 f i PINPad.obj
 0001:0001ad50       ?Open@CRegKey@ATL@@QAEJPAUHKEY__@@PB_WK@Z 1001bd50 f i PINPad.obj
 0001:0001aea0       ?OuterAddRef@CComObjectRootBase@ATL@@QAEKXZ 1001bea0 f i PINPad.obj
 0001:0001aee0       ?OuterQueryInterface@CComObjectRootBase@ATL@@QAEJABU_GUID@@PAPAX@Z 1001bee0 f i PINPad.obj
 0001:0001af30       ?OuterRelease@CComObjectRootBase@ATL@@QAEKXZ 1001bf30 f i PINPad.obj
 0001:0001af70       ?PreProcessBuffer@CRegParser@ATL@@QAEJPA_WPAPA_W@Z 1001bf70 f i PINPad.obj
 0001:0001b4b0       ?PreTranslateAccelerator@CComControlBase@ATL@@QAEHPAUtagMSG@@AAJ@Z 1001c4b0 f i PINPad.obj
 0001:0001b4d0       ?ProcessWindowMessage@?$CComControl@VCOPOSPINPad@@V?$CWindowImpl@VCOPOSPINPad@@VCWindow@ATL@@V?$CWinTraits@$0FGAAAAAA@$0A@@3@@ATL@@@ATL@@UAEHPAUHWND__@@IIJAAJK@Z 1001c4d0 f i PINPad.obj
 0001:0001b6a0       ?ProcessWindowMessage@COPOSPINPad@@UAEHPAUHWND__@@IIJAAJK@Z 1001c6a0 f i PINPad.obj
 0001:0001b7a0       ?PutProperty@?$CComPtr@UIDispatch@@@ATL@@QAEJJPAUtagVARIANT@@@Z 1001c7a0 f i PINPad.obj
 0001:0001b7e0       ?PutProperty@?$CComPtr@UIDispatch@@@ATL@@SAJPAUIDispatch@@JPAUtagVARIANT@@@Z 1001c7e0 f i PINPad.obj
 0001:0001b9d0       ?QueryGetData@?$IDataObjectImpl@VCOPOSPINPad@@@ATL@@UAGJPAUtagFORMATETC@@@Z 1001c9d0 f i PINPad.obj
 0001:0001ba40       ?QueryHitPoint@?$IViewObjectExImpl@VCOPOSPINPad@@@ATL@@UAGJKPBUtagRECT@@UtagPOINT@@JPAK@Z 1001ca40 f i PINPad.obj
 0001:0001bb50       ?QueryHitRect@?$IViewObjectExImpl@VCOPOSPINPad@@@ATL@@UAGJKPBUtagRECT@@0JPAK@Z 1001cb50 f i PINPad.obj
 0001:0001bca0       ?QueryInterface@?$CComAggObject@VCOPOSPINPad@@@ATL@@UAGJABU_GUID@@PAPAX@Z 1001cca0 f i PINPad.obj
 0001:0001bd50       ?QueryInterface@?$CComContainedObject@VCOPOSPINPad@@@ATL@@UAGJABU_GUID@@PAPAX@Z 1001cd50 f i PINPad.obj
 0001:0001bd74       ?QueryInterface@?$CComContainedObject@VCOPOSPINPad@@@ATL@@WHA@AGJABU_GUID@@PAPAX@Z 1001cd74 f i PINPad.obj
 0001:0001bd7e       ?QueryInterface@?$CComContainedObject@VCOPOSPINPad@@@ATL@@WHE@AGJABU_GUID@@PAPAX@Z 1001cd7e f i PINPad.obj
 0001:0001bd88       ?QueryInterface@?$CComContainedObject@VCOPOSPINPad@@@ATL@@WHI@AGJABU_GUID@@PAPAX@Z 1001cd88 f i PINPad.obj
 0001:0001bd92       ?QueryInterface@?$CComContainedObject@VCOPOSPINPad@@@ATL@@WHM@AGJABU_GUID@@PAPAX@Z 1001cd92 f i PINPad.obj
 0001:0001bd9c       ?QueryInterface@?$CComContainedObject@VCOPOSPINPad@@@ATL@@WIA@AGJABU_GUID@@PAPAX@Z 1001cd9c f i PINPad.obj
 0001:0001bda9       ?QueryInterface@?$CComContainedObject@VCOPOSPINPad@@@ATL@@WIE@AGJABU_GUID@@PAPAX@Z 1001cda9 f i PINPad.obj
 0001:0001bdb6       ?QueryInterface@?$CComContainedObject@VCOPOSPINPad@@@ATL@@WII@AGJABU_GUID@@PAPAX@Z 1001cdb6 f i PINPad.obj
 0001:0001bdc3       ?QueryInterface@?$CComContainedObject@VCOPOSPINPad@@@ATL@@WIM@AGJABU_GUID@@PAPAX@Z 1001cdc3 f i PINPad.obj
 0001:0001bdd0       ?QueryInterface@?$CComContainedObject@VCOPOSPINPad@@@ATL@@WJA@AGJABU_GUID@@PAPAX@Z 1001cdd0 f i PINPad.obj
 0001:0001bddd       ?QueryInterface@?$CComContainedObject@VCOPOSPINPad@@@ATL@@WJE@AGJABU_GUID@@PAPAX@Z 1001cddd f i PINPad.obj
 0001:0001bdea       ?QueryInterface@?$CComContainedObject@VCOPOSPINPad@@@ATL@@WJI@AGJABU_GUID@@PAPAX@Z 1001cdea f i PINPad.obj
 0001:0001bdf7       ?QueryInterface@?$CComContainedObject@VCOPOSPINPad@@@ATL@@WJM@AGJABU_GUID@@PAPAX@Z 1001cdf7 f i PINPad.obj
 0001:0001be04       ?QueryInterface@?$CComContainedObject@VCOPOSPINPad@@@ATL@@WKA@AGJABU_GUID@@PAPAX@Z 1001ce04 f i PINPad.obj
 0001:0001be20       ?QueryInterface@?$CComObject@V?$CComEnum@UIEnumConnectionPoints@@$1?_GUID_b196b285_bab4_101a_b69c_00aa00341d07@@3U__s_GUID@@BPAUIConnectionPoint@@V?$_CopyInterface@UIConnectionPoint@@@ATL@@VCComSingleThreadModel@6@@ATL@@@ATL@@UAGJABU_GUID@@PAPAX@Z 1001ce20 f i PINPad.obj
 0001:0001be40       ?QueryInterface@?$CComObject@V?$CComEnum@UIEnumConnections@@$1?_GUID_b196b287_bab4_101a_b69c_00aa00341d07@@3U__s_GUID@@BUtagCONNECTDATA@@V?$_Copy@UtagCONNECTDATA@@@ATL@@VCComSingleThreadModel@6@@ATL@@@ATL@@UAGJABU_GUID@@PAPAX@Z 1001ce40 f i PINPad.obj
 0001:0001be60       ?QueryInterface@?$CComObject@VCOPOSPINPad@@@ATL@@UAGJABU_GUID@@PAPAX@Z 1001ce60 f i PINPad.obj
 0001:0001be7e       ?QueryInterface@?$CComObject@VCOPOSPINPad@@@ATL@@WHA@AGJABU_GUID@@PAPAX@Z 1001ce7e f i PINPad.obj
 0001:0001be88       ?QueryInterface@?$CComObject@VCOPOSPINPad@@@ATL@@WHE@AGJABU_GUID@@PAPAX@Z 1001ce88 f i PINPad.obj
 0001:0001be92       ?QueryInterface@?$CComObject@VCOPOSPINPad@@@ATL@@WHI@AGJABU_GUID@@PAPAX@Z 1001ce92 f i PINPad.obj
 0001:0001be9c       ?QueryInterface@?$CComObject@VCOPOSPINPad@@@ATL@@WHM@AGJABU_GUID@@PAPAX@Z 1001ce9c f i PINPad.obj
 0001:0001bea6       ?QueryInterface@?$CComObject@VCOPOSPINPad@@@ATL@@WIA@AGJABU_GUID@@PAPAX@Z 1001cea6 f i PINPad.obj
 0001:0001beb3       ?QueryInterface@?$CComObject@VCOPOSPINPad@@@ATL@@WIE@AGJABU_GUID@@PAPAX@Z 1001ceb3 f i PINPad.obj
 0001:0001bec0       ?QueryInterface@?$CComObject@VCOPOSPINPad@@@ATL@@WII@AGJABU_GUID@@PAPAX@Z 1001cec0 f i PINPad.obj
 0001:0001becd       ?QueryInterface@?$CComObject@VCOPOSPINPad@@@ATL@@WIM@AGJABU_GUID@@PAPAX@Z 1001cecd f i PINPad.obj
 0001:0001beda       ?QueryInterface@?$CComObject@VCOPOSPINPad@@@ATL@@WJA@AGJABU_GUID@@PAPAX@Z 1001ceda f i PINPad.obj
 0001:0001bee7       ?QueryInterface@?$CComObject@VCOPOSPINPad@@@ATL@@WJE@AGJABU_GUID@@PAPAX@Z 1001cee7 f i PINPad.obj
 0001:0001bef4       ?QueryInterface@?$CComObject@VCOPOSPINPad@@@ATL@@WJI@AGJABU_GUID@@PAPAX@Z 1001cef4 f i PINPad.obj
 0001:0001bf01       ?QueryInterface@?$CComObject@VCOPOSPINPad@@@ATL@@WJM@AGJABU_GUID@@PAPAX@Z 1001cf01 f i PINPad.obj
 0001:0001bf0e       ?QueryInterface@?$CComObject@VCOPOSPINPad@@@ATL@@WKA@AGJABU_GUID@@PAPAX@Z 1001cf0e f i PINPad.obj
 0001:0001bf20       ?QueryInterface@?$CComObjectCached@VCComClassFactory@ATL@@@ATL@@UAGJABU_GUID@@PAPAX@Z 1001cf20 f i PINPad.obj
 0001:0001bf40       ?QueryInterface@CRegObject@ATL@@UAGJABU_GUID@@PAPAX@Z 1001cf40 f i PINPad.obj
 0001:0001bf90       ?QuickActivate@?$IQuickActivateImpl@VCOPOSPINPad@@@ATL@@UAGJPAUtagQACONTAINER@@PAUtagQACONTROL@@@Z 1001cf90 f i PINPad.obj
 0001:0001c020       ?ReactivateAndUndo@?$IOleInPlaceObjectWindowlessImpl@VCOPOSPINPad@@@ATL@@UAGJXZ 1001d020 f i PINPad.obj
 0001:0001c090       ?ReadFromStream@CComBSTR@ATL@@QAEJPAUIStream@@@Z 1001d090 f i PINPad.obj
 0001:0001c490       ?ReadFromStream@CComVariant@ATL@@QAEJPAUIStream@@GTClassesAllowedInStream@2@K@Z 1001d490 f i PINPad.obj
 0001:0001c7f0       ?RecurseDeleteKey@CRegKey@ATL@@QAEJPB_W@Z 1001d7f0 f i PINPad.obj
 0001:0001c9d0       ?RegCreateKeyExW@CAtlTransactionManager@ATL@@QAEJPAUHKEY__@@PB_WKPA_WKKQAU_SECURITY_ATTRIBUTES@@PAPAU3@PAK@Z 1001d9d0 f i PINPad.obj
 0001:0001cb00       ?RegDeleteKeyW@CAtlTransactionManager@ATL@@QAEJPAUHKEY__@@PB_W@Z 1001db00 f i PINPad.obj
 0001:0001cc00       ?RegOpenKeyExW@CAtlTransactionManager@ATL@@QAEJPAUHKEY__@@PB_WKKPAPAU3@@Z 1001dc00 f i PINPad.obj
 0001:0001cd10       ?Register@_ATL_WNDCLASSINFOW@ATL@@QAEGPAP6GJPAUHWND__@@IIJ@Z@Z 1001dd10 f i PINPad.obj
 0001:0001cd50       ?RegisterBuffer@CRegParser@ATL@@QAEJPA_WH@Z 1001dd50 f i PINPad.obj
 0001:0001d080       ?RegisterClassExW@AtlModuleRegisterWndClassInfoParamW@ATL@@SAGPAU_ATL_WIN_MODULE70@2@PBUtagWNDCLASSEXW@@@Z 1001e080 f i PINPad.obj
 0001:0001d0a0       ?RegisterFromResource@CRegObject@ATL@@IAEJPB_W00H@Z 1001e0a0 f i PINPad.obj
 0001:0001d430       ?RegisterServer@?$CAtlModuleT@VCComModule@ATL@@@ATL@@QAEJHPBU_GUID@@@Z 1001e430 f i PINPad.obj
 0001:0001d4b0       ?RegisterServer@CAtlComModule@ATL@@QAEJHPBU_GUID@@@Z 1001e4b0 f i PINPad.obj
 0001:0001d4e0       ?RegisterServer@CComModule@ATL@@QAEJHPBU_GUID@@@Z 1001e4e0 f i PINPad.obj
 0001:0001d5c0       ?RegisterSubkeys@CRegParser@ATL@@IAEJPA_WPAUHKEY__@@HH@Z 1001e5c0 f i PINPad.obj
 0001:0001e0e0       ?Release@?$CComAggObject@VCOPOSPINPad@@@ATL@@UAGKXZ 1001f0e0 f i PINPad.obj
 0001:0001e1a0       ?Release@?$CComContainedObject@VCOPOSPINPad@@@ATL@@UAGKXZ 1001f1a0 f i PINPad.obj
 0001:0001e1bc       ?Release@?$CComContainedObject@VCOPOSPINPad@@@ATL@@WHA@AGKXZ 1001f1bc f i PINPad.obj
 0001:0001e1c6       ?Release@?$CComContainedObject@VCOPOSPINPad@@@ATL@@WHE@AGKXZ 1001f1c6 f i PINPad.obj
 0001:0001e1d0       ?Release@?$CComContainedObject@VCOPOSPINPad@@@ATL@@WHI@AGKXZ 1001f1d0 f i PINPad.obj
 0001:0001e1da       ?Release@?$CComContainedObject@VCOPOSPINPad@@@ATL@@WHM@AGKXZ 1001f1da f i PINPad.obj
 0001:0001e1e4       ?Release@?$CComContainedObject@VCOPOSPINPad@@@ATL@@WIA@AGKXZ 1001f1e4 f i PINPad.obj
 0001:0001e1f1       ?Release@?$CComContainedObject@VCOPOSPINPad@@@ATL@@WIE@AGKXZ 1001f1f1 f i PINPad.obj
 0001:0001e1fe       ?Release@?$CComContainedObject@VCOPOSPINPad@@@ATL@@WII@AGKXZ 1001f1fe f i PINPad.obj
 0001:0001e20b       ?Release@?$CComContainedObject@VCOPOSPINPad@@@ATL@@WIM@AGKXZ 1001f20b f i PINPad.obj
 0001:0001e218       ?Release@?$CComContainedObject@VCOPOSPINPad@@@ATL@@WJA@AGKXZ 1001f218 f i PINPad.obj
 0001:0001e225       ?Release@?$CComContainedObject@VCOPOSPINPad@@@ATL@@WJE@AGKXZ 1001f225 f i PINPad.obj
 0001:0001e232       ?Release@?$CComContainedObject@VCOPOSPINPad@@@ATL@@WJI@AGKXZ 1001f232 f i PINPad.obj
 0001:0001e23f       ?Release@?$CComContainedObject@VCOPOSPINPad@@@ATL@@WJM@AGKXZ 1001f23f f i PINPad.obj
 0001:0001e24c       ?Release@?$CComContainedObject@VCOPOSPINPad@@@ATL@@WKA@AGKXZ 1001f24c f i PINPad.obj
 0001:0001e259       ?Release@?$CComContainedObject@VCOPOSPINPad@@@ATL@@WKI@AGKXZ 1001f259 f i PINPad.obj
 0001:0001e266       ?Release@?$CComContainedObject@VCOPOSPINPad@@@ATL@@WLE@AGKXZ 1001f266 f i PINPad.obj
 0001:0001e280       ?Release@?$CComObject@V?$CComEnum@UIEnumConnectionPoints@@$1?_GUID_b196b285_bab4_101a_b69c_00aa00341d07@@3U__s_GUID@@BPAUIConnectionPoint@@V?$_CopyInterface@UIConnectionPoint@@@ATL@@VCComSingleThreadModel@6@@ATL@@@ATL@@UAGKXZ 1001f280 f i PINPad.obj
 0001:0001e340       ?Release@?$CComObject@V?$CComEnum@UIEnumConnections@@$1?_GUID_b196b287_bab4_101a_b69c_00aa00341d07@@3U__s_GUID@@BUtagCONNECTDATA@@V?$_Copy@UtagCONNECTDATA@@@ATL@@VCComSingleThreadModel@6@@ATL@@@ATL@@UAGKXZ 1001f340 f i PINPad.obj
 0001:0001e400       ?Release@?$CComObject@VCOPOSPINPad@@@ATL@@UAGKXZ 1001f400 f i PINPad.obj
 0001:0001e4c1       ?Release@?$CComObject@VCOPOSPINPad@@@ATL@@WHA@AGKXZ 1001f4c1 f i PINPad.obj
 0001:0001e4cb       ?Release@?$CComObject@VCOPOSPINPad@@@ATL@@WHE@AGKXZ 1001f4cb f i PINPad.obj
 0001:0001e4d5       ?Release@?$CComObject@VCOPOSPINPad@@@ATL@@WHI@AGKXZ 1001f4d5 f i PINPad.obj
 0001:0001e4df       ?Release@?$CComObject@VCOPOSPINPad@@@ATL@@WHM@AGKXZ 1001f4df f i PINPad.obj
 0001:0001e4e9       ?Release@?$CComObject@VCOPOSPINPad@@@ATL@@WIA@AGKXZ 1001f4e9 f i PINPad.obj
 0001:0001e4f6       ?Release@?$CComObject@VCOPOSPINPad@@@ATL@@WIE@AGKXZ 1001f4f6 f i PINPad.obj
 0001:0001e503       ?Release@?$CComObject@VCOPOSPINPad@@@ATL@@WII@AGKXZ 1001f503 f i PINPad.obj
 0001:0001e510       ?Release@?$CComObject@VCOPOSPINPad@@@ATL@@WIM@AGKXZ 1001f510 f i PINPad.obj
 0001:0001e51d       ?Release@?$CComObject@VCOPOSPINPad@@@ATL@@WJA@AGKXZ 1001f51d f i PINPad.obj
 0001:0001e52a       ?Release@?$CComObject@VCOPOSPINPad@@@ATL@@WJE@AGKXZ 1001f52a f i PINPad.obj
 0001:0001e537       ?Release@?$CComObject@VCOPOSPINPad@@@ATL@@WJI@AGKXZ 1001f537 f i PINPad.obj
 0001:0001e544       ?Release@?$CComObject@VCOPOSPINPad@@@ATL@@WJM@AGKXZ 1001f544 f i PINPad.obj
 0001:0001e551       ?Release@?$CComObject@VCOPOSPINPad@@@ATL@@WKA@AGKXZ 1001f551 f i PINPad.obj
 0001:0001e55e       ?Release@?$CComObject@VCOPOSPINPad@@@ATL@@WKI@AGKXZ 1001f55e f i PINPad.obj
 0001:0001e56b       ?Release@?$CComObject@VCOPOSPINPad@@@ATL@@WLE@AGKXZ 1001f56b f i PINPad.obj
 0001:0001e580       ?Release@?$CComObjectCached@VCComClassFactory@ATL@@@ATL@@UAGKXZ 1001f580 f i PINPad.obj
 0001:0001e620       ?Release@?$CComPtrBase@UIAdviseSink@@@ATL@@QAEXXZ 1001f620 f i PINPad.obj
 0001:0001e680       ?Release@?$CComPtrBase@UIDispatch@@@ATL@@QAEXXZ 1001f680 f i PINPad.obj
 0001:0001e6e0       ?Release@?$CComPtrBase@UIOleInPlaceSiteWindowless@@@ATL@@QAEXXZ 1001f6e0 f i PINPad.obj
 0001:0001e740       ?Release@CRegObject@ATL@@UAGKXZ 1001f740 f i PINPad.obj
 0001:0001e780       ?Remove@CComDynamicUnkArray@ATL@@QAEHK@Z 1001f780 f i PINPad.obj
 0001:0001e830       ?RemoveAll@?$CSimpleMap@PA_WPA_WVCExpansionVectorEqualHelper@ATL@@@ATL@@QAEXXZ 1001f830 f i PINPad.obj
 0001:0001e8c0       ?Reset@?$CComEnumImpl@UIEnumConnectionPoints@@$1?_GUID_b196b285_bab4_101a_b69c_00aa00341d07@@3U__s_GUID@@BPAUIConnectionPoint@@V?$_CopyInterface@UIConnectionPoint@@@ATL@@@ATL@@UAGJXZ 1001f8c0 f i PINPad.obj
 0001:0001e8e0       ?Reset@?$CComEnumImpl@UIEnumConnections@@$1?_GUID_b196b287_bab4_101a_b69c_00aa00341d07@@3U__s_GUID@@BUtagCONNECTDATA@@V?$_Copy@UtagCONNECTDATA@@@ATL@@@ATL@@UAGJXZ 1001f8e0 f i PINPad.obj
 0001:0001e900       ?ResizeBorder@?$IOleInPlaceActiveObjectImpl@VCOPOSPINPad@@@ATL@@UAGJPBUtagRECT@@PAUIOleInPlaceUIWindow@@H@Z 1001f900 f i PINPad.obj
 0001:0001e960       ?ResourceRegister@CRegObject@ATL@@QAGJPB_WI0@Z 1001f960 f i PINPad.obj
 0001:0001ea40       ?ResourceRegisterSz@CRegObject@ATL@@QAGJPB_W00@Z 1001fa40 f i PINPad.obj
 0001:0001eb40       ?ResourceUnregister@CRegObject@ATL@@QAGJPB_WI0@Z 1001fb40 f i PINPad.obj
 0001:0001ec20       ?ResourceUnregisterSz@CRegObject@ATL@@QAGJPB_W00@Z 1001fc20 f i PINPad.obj
 0001:0001ed20       ?SOData@COPOSPINPad@@MAGJJ@Z 1001fd20 f i PINPad.obj
 0001:0001eda0       ?SODirectIO@COPOSPINPad@@MAGJJPAJPAPA_W@Z 1001fda0 f i PINPad.obj
 0001:0001ef60       ?SOError@COPOSPINPad@@MAGJJJJPAJ@Z 1001ff60 f i PINPad.obj
 0001:0001f020       ?SOOutputCompleteDummy@COPOSPINPad@@MAGJJ@Z 10020020 f i PINPad.obj
 0001:0001f030       ?SOStatusUpdate@COPOSPINPad@@MAGJJ@Z 10020030 f i PINPad.obj
 0001:0001f0b0       ?Save@?$IPersistStorageImpl@VCOPOSPINPad@@@ATL@@UAGJPAUIStorage@@H@Z 100200b0 f i PINPad.obj
 0001:0001f210       ?Save@?$IPersistStreamInitImpl@VCOPOSPINPad@@@ATL@@UAGJPAUIStream@@H@Z 10020210 f i PINPad.obj
 0001:0001f2a0       ?SaveCompleted@?$IPersistStorageImpl@VCOPOSPINPad@@@ATL@@UAGJPAUIStorage@@@Z 100202a0 f i PINPad.obj
 0001:0001f300       ?SendOnDataChange@CComControlBase@ATL@@QAEJK@Z 10020300 f i PINPad.obj
 0001:0001f3f0       ?SendOnSave@CComControlBase@ATL@@QAEJXZ 100203f0 f i PINPad.obj
 0001:0001f460       ?SendOnViewChange@CComControlBase@ATL@@QAEJKJ@Z 10020460 f i PINPad.obj
 0001:0001f4d0       ?SetAdvise@?$IViewObjectExImpl@VCOPOSPINPad@@@ATL@@UAGJKKPAUIAdviseSink@@@Z 100204d0 f i PINPad.obj
 0001:0001f560       ?SetClientSite@?$IOleObjectImpl@VCOPOSPINPad@@@ATL@@UAGJPAUIOleClientSite@@@Z 10020560 f i PINPad.obj
 0001:0001f5f0       ?SetColorScheme@?$IOleObjectImpl@VCOPOSPINPad@@@ATL@@UAGJPAUtagLOGPALETTE@@@Z 100205f0 f i PINPad.obj
 0001:0001f660       ?SetContentExtent@?$IQuickActivateImpl@VCOPOSPINPad@@@ATL@@UAGJPAUtagSIZE@@@Z 10020660 f i PINPad.obj
 0001:0001f6f0       ?SetControlFocus@CComControlBase@ATL@@QAEHH@Z 100206f0 f i PINPad.obj
 0001:0001f870       ?SetDWORDValue@CRegKey@ATL@@QAEJPB_WK@Z 10020870 f i PINPad.obj
 0001:0001f8f0       ?SetData@?$IDataObjectImpl@VCOPOSPINPad@@@ATL@@UAGJPAUtagFORMATETC@@PAUtagSTGMEDIUM@@H@Z 100208f0 f i PINPad.obj
 0001:0001f960       ?SetExtent@?$IOleObjectImpl@VCOPOSPINPad@@@ATL@@UAGJKPAUtagSIZE@@@Z 10020960 f i PINPad.obj
 0001:0001f9f0       ?SetHostNames@?$IOleObjectImpl@VCOPOSPINPad@@@ATL@@UAGJPB_W0@Z 100209f0 f i PINPad.obj
 0001:0001fa50       ?SetInterfaceSafetyOptions@?$IObjectSafetyImpl@VCOPOSPINPad@@$02@ATL@@UAGJABU_GUID@@KK@Z 10020a50 f i PINPad.obj
 0001:0001fbc0       ?SetMoniker@?$IOleObjectImpl@VCOPOSPINPad@@@ATL@@UAGJKPAUIMoniker@@@Z 10020bc0 f i PINPad.obj
 0001:0001fc30       ?SetMultiStringValue@CRegKey@ATL@@QAEJPB_W0@Z 10020c30 f i PINPad.obj
 0001:0001fd50       ?SetObjectRects@?$IOleInPlaceObjectWindowlessImpl@VCOPOSPINPad@@@ATL@@UAGJPBUtagRECT@@0@Z 10020d50 f i PINPad.obj
 0001:0001fde0       ?SetStringValue@CRegKey@ATL@@QAEJPB_W0K@Z 10020de0 f i PINPad.obj
 0001:0001ff10       ?SetVoid@CComClassFactory@ATL@@QAEXPAX@Z 10020f10 f i PINPad.obj
 0001:0001ff30       ?SetVoid@CComObjectRootBase@ATL@@QAEXPAX@Z 10020f30 f i PINPad.obj
 0001:0001ff50       ?SetWindowLongPtrW@@YAJPAUHWND__@@HJ@Z 10020f50 f i PINPad.obj
 0001:0001ff80       ?ShowWindow@CWindow@ATL@@QAEHH@Z 10020f80 f i PINPad.obj
 0001:00020000       ?Skip@?$CComEnumImpl@UIEnumConnectionPoints@@$1?_GUID_b196b285_bab4_101a_b69c_00aa00341d07@@3U__s_GUID@@BPAUIConnectionPoint@@V?$_CopyInterface@UIConnectionPoint@@@ATL@@@ATL@@UAGJK@Z 10021000 f i PINPad.obj
 0001:00020080       ?Skip@?$CComEnumImpl@UIEnumConnections@@$1?_GUID_b196b287_bab4_101a_b69c_00aa00341d07@@3U__s_GUID@@BUtagCONNECTDATA@@V?$_Copy@UtagCONNECTDATA@@@ATL@@@ATL@@UAGJK@Z 10021080 f i PINPad.obj
 0001:00020100       ?SkipAssignment@CRegParser@ATL@@IAEJPA_W@Z 10021100 f i PINPad.obj
 0001:000201e0       ?SkipWhiteSpace@CRegParser@ATL@@IAEXXZ 100211e0 f i PINPad.obj
 0001:00020230       ?StartWindowProc@?$CWindowImplBaseT@VCWindow@ATL@@V?$CWinTraits@$0FGAAAAAA@$0A@@2@@ATL@@SGJPAUHWND__@@IIJ@Z 10021230 f i PINPad.obj
 0001:00020350       ?StrChrW@CRegParser@ATL@@KAPA_WPA_W_W@Z 10021350 f i PINPad.obj
 0001:000203c0       ?StrFromMap@CRegObject@ATL@@QAEPB_WPA_W@Z 100213c0 f i PINPad.obj
 0001:00020450       ?Swap@?$CComPtrBase@UIAdviseSink@@@ATL@@IAEXAAV12@@Z 10021450 f i PINPad.obj
 0001:00020490       ?Swap@?$CComPtrBase@UIOleClientSite@@@ATL@@IAEXAAV12@@Z 10021490 f i PINPad.obj
 0001:000204d0       ?Swap@?$CComPtrBase@UIUnknown@@@ATL@@IAEXAAV12@@Z 100214d0 f i PINPad.obj
 0001:00020510       ?T2COLE_EX@@YAPB_WPB_WI@Z  10021510 f i PINPad.obj
 0001:00020520       ?T2OLE_EX@@YAPA_WPA_WI@Z   10021520 f i PINPad.obj
 0001:00020530       ?Term@CAtlModule@ATL@@QAEXXZ 10021530 f i PINPad.obj
 0001:000205e0       ?Term@CComModule@ATL@@QAEXXZ 100215e0 f i PINPad.obj
 0001:000206d0       ?TranslateAcceleratorW@?$IOleInPlaceActiveObjectImpl@VCOPOSPINPad@@@ATL@@UAGJPAUtagMSG@@@Z 100216d0 f i PINPad.obj
 0001:000208d0       ?UIDeactivate@?$IOleInPlaceObjectWindowlessImpl@VCOPOSPINPad@@@ATL@@UAGJXZ 100218d0 f i PINPad.obj
 0001:00020950       ?Unadvise@?$CProxy_IOPOSEvents@VCOPOSPINPad@@@@UAGJK@Z 10021950 f i PINPad.obj
 0001:00020990       ?Unadvise@?$IConnectionPointImpl@VCOPOSPINPad@@$1?DIID__IOPOSPINPadEvents@@3U_GUID@@BVCComDynamicUnkArray@ATL@@@ATL@@UAGJK@Z 10021990 f i PINPad.obj
 0001:00020a60       ?Unadvise@?$IConnectionPointImpl@VCOPOSPINPad@@$1?IID_IPropertyNotifySink@@3U_GUID@@BVCComDynamicUnkArray@ATL@@@ATL@@UAGJK@Z 10021a60 f i PINPad.obj
 0001:00020b30       ?Unadvise@?$IOleObjectImpl@VCOPOSPINPad@@@ATL@@UAGJK@Z 10021b30 f i PINPad.obj
 0001:00020c00       ?Unfreeze@?$IViewObjectExImpl@VCOPOSPINPad@@@ATL@@UAGJK@Z 10021c00 f i PINPad.obj
 0001:00020c70       ?Unlock@?$CComCritSecLock@VCComCriticalSection@ATL@@@ATL@@QAEXXZ 10021c70 f i PINPad.obj
 0001:00020ce0       ?Unlock@?$CComObjectRootEx@VCComSingleThreadModel@ATL@@@ATL@@QAEXXZ 10021ce0 f i PINPad.obj
 0001:00020d00       ?Unlock@CAtlModule@ATL@@UAEJXZ 10021d00 f i PINPad.obj
 0001:00020d30       ?Unlock@CComCriticalSection@ATL@@QAEJXZ 10021d30 f i PINPad.obj
 0001:00020d70       ?Unlock@CComFakeCriticalSection@ATL@@QAEJXZ 10021d70 f i PINPad.obj
 0001:00020d90       ?UnregisterServer@?$CAtlModuleT@VCComModule@ATL@@@ATL@@QAEJHPBU_GUID@@@Z 10021d90 f i PINPad.obj
 0001:00020e00       ?UnregisterServer@CAtlComModule@ATL@@QAEJHPBU_GUID@@@Z 10021e00 f i PINPad.obj
 0001:00020e30       ?UnregisterServer@CComModule@ATL@@QAEJHPBU_GUID@@@Z 10021e30 f i PINPad.obj
 0001:00020f10       ?Update@?$IOleObjectImpl@VCOPOSPINPad@@@ATL@@UAGJXZ 10021f10 f i PINPad.obj
 0001:00020f70       ?UpdateRegistryFromResource@CAtlModule@ATL@@QAGJIHPAU_ATL_REGMAP_ENTRY@2@@Z 10021f70 f i PINPad.obj
 0001:00021440       ?UpdateRegistryFromResource@CAtlModule@ATL@@QAGJPB_WHPAU_ATL_REGMAP_ENTRY@2@@Z 10022440 f i PINPad.obj
 0001:00021930       ?UpdateRegistryFromResource@CComModule@ATL@@UAGJIHPAU_ATL_REGMAP_ENTRY@2@@Z 10022930 f i PINPad.obj
 0001:00021960       ?UpdateRegistryFromResource@CComModule@ATL@@UAGJPB_WHPAU_ATL_REGMAP_ENTRY@2@@Z 10022960 f i PINPad.obj
 0001:00021990       ?UpdateRegistryFromResourceD@CComModule@ATL@@UAGJIHPAU_ATL_REGMAP_ENTRY@2@@Z 10022990 f i PINPad.obj
 0001:000219a0       ?UpdateRegistryFromResourceD@CComModule@ATL@@UAGJPB_WHPAU_ATL_REGMAP_ENTRY@2@@Z 100229a0 f i PINPad.obj
 0001:000219b0       ?VTFromRegType@CRegParser@ATL@@KAHPB_WAAG@Z 100229b0 f i PINPad.obj
 0001:00021a90       ?WindowProc@?$CWindowImplBaseT@VCWindow@ATL@@V?$CWinTraits@$0FGAAAAAA@$0A@@2@@ATL@@SGJPAUHWND__@@IIJ@Z 10022a90 f i PINPad.obj
 0001:00021ca0       ?WriteToStream@CComBSTR@ATL@@QAEJPAUIStream@@@Z 10022ca0 f i PINPad.obj
 0001:00021e00       ?WriteToStream@CComVariant@ATL@@QAEJPAUIStream@@@Z 10022e00 f i PINPad.obj
 0001:00022140       ?WriteToStream@CComVariant@ATL@@QAEJPAUIStream@@G@Z 10023140 f i PINPad.obj
 0001:00022210       ?_AtlFinalConstruct@CComObjectRootBase@ATL@@QAEJXZ 10023210 f i PINPad.obj
 0001:00022230       ?_AtlGetConversionACP@ATL@@YGIXZ 10023230 f i PINPad.obj
 0001:00022240       ?_AtlInitialConstruct@?$CComAggObject@VCOPOSPINPad@@@ATL@@QAEJXZ 10023240 f i PINPad.obj
 0001:00022290       ?_AtlInitialConstruct@?$CComObjectRootEx@VCComMultiThreadModel@ATL@@@ATL@@QAEJXZ 10023290 f i PINPad.obj
 0001:000222c0       ?_AtlInitialConstruct@?$CComObjectRootEx@VCComSingleThreadModel@ATL@@@ATL@@QAEJXZ 100232c0 f i PINPad.obj
 0001:000222e0       ?_AtlVerifyStackAvailable@_ATL_SAFE_ALLOCA_IMPL@ATL@@YA_NK@Z 100232e0 f i PINPad.obj
 0001:00022490       ?_GetEntries@?$CComEnum@UIEnumConnectionPoints@@$1?_GUID_b196b285_bab4_101a_b69c_00aa00341d07@@3U__s_GUID@@BPAUIConnectionPoint@@V?$_CopyInterface@UIConnectionPoint@@@ATL@@VCComSingleThreadModel@6@@ATL@@SGPBU_ATL_INTMAP_ENTRY@2@XZ 10023490 f i PINPad.obj
 0001:000224b0       ?_GetEntries@?$CComEnum@UIEnumConnections@@$1?_GUID_b196b287_bab4_101a_b69c_00aa00341d07@@3U__s_GUID@@BUtagCONNECTDATA@@V?$_Copy@UtagCONNECTDATA@@@ATL@@VCComSingleThreadModel@6@@ATL@@SGPBU_ATL_INTMAP_ENTRY@2@XZ 100234b0 f i PINPad.obj
 0001:000224d0       ?_GetEntries@CComClassFactory@ATL@@SGPBU_ATL_INTMAP_ENTRY@2@XZ 100234d0 f i PINPad.obj
 0001:000224f0       ?_GetEntries@COPOSPINPad@@SGPBU_ATL_INTMAP_ENTRY@ATL@@XZ 100234f0 f i PINPad.obj
 0001:00022510       ?_GetRawUnknown@COPOSPINPad@@QAEPAUIUnknown@@XZ 10023510 f i PINPad.obj
 0001:00022580       ?_GetViewStatus@COPOSPINPad@@QAEKXZ 10023580 f i PINPad.obj
 0001:000225a0       ?_InternalQueryInterface@?$CComEnum@UIEnumConnectionPoints@@$1?_GUID_b196b285_bab4_101a_b69c_00aa00341d07@@3U__s_GUID@@BPAUIConnectionPoint@@V?$_CopyInterface@UIConnectionPoint@@@ATL@@VCComSingleThreadModel@6@@ATL@@QAEJABU_GUID@@PAPAX@Z 100235a0 f i PINPad.obj
 0001:000225e0       ?_InternalQueryInterface@?$CComEnum@UIEnumConnections@@$1?_GUID_b196b287_bab4_101a_b69c_00aa00341d07@@3U__s_GUID@@BUtagCONNECTDATA@@V?$_Copy@UtagCONNECTDATA@@@ATL@@VCComSingleThreadModel@6@@ATL@@QAEJABU_GUID@@PAPAX@Z 100235e0 f i PINPad.obj
 0001:00022620       ?_InternalQueryInterface@CComClassFactory@ATL@@QAEJABU_GUID@@PAPAX@Z 10023620 f i PINPad.obj
 0001:00022660       ?_InternalQueryInterface@COPOSPINPad@@QAEJABU_GUID@@PAPAX@Z 10023660 f i PINPad.obj
 0001:000226a0       ?_LocCPQueryInterface@?$IConnectionPointImpl@VCOPOSPINPad@@$1?DIID__IOPOSPINPadEvents@@3U_GUID@@BVCComDynamicUnkArray@ATL@@@ATL@@UAGJABU_GUID@@PAPAX@Z 100236a0 f i PINPad.obj
 0001:00022740       ?_LocCPQueryInterface@?$IConnectionPointImpl@VCOPOSPINPad@@$1?IID_IPropertyNotifySink@@3U_GUID@@BVCComDynamicUnkArray@ATL@@@ATL@@UAGJABU_GUID@@PAPAX@Z 10023740 f i PINPad.obj
 0001:000227e0       ?atlCreate@?$CWindowImpl@VCOPOSPINPad@@VCWindow@ATL@@V?$CWinTraits@$0FGAAAAAA@$0A@@3@@ATL@@QAEPAUHWND__@@PAU3@V_U_RECT@2@PB_WKKV_U_MENUorID@2@PAX@Z 100237e0 f i PINPad.obj
 0001:00022890       ?atlCreate@?$CWindowImplBaseT@VCWindow@ATL@@V?$CWinTraits@$0FGAAAAAA@$0A@@2@@ATL@@QAEPAUHWND__@@PAU3@V_U_RECT@2@PB_WKKV_U_MENUorID@2@GPAX@Z 10023890 f i PINPad.obj
 0001:00022a10       ?atlCreate@CRegKey@ATL@@QAEJPAUHKEY__@@PB_WPA_WKKPAU_SECURITY_ATTRIBUTES@@PAK@Z 10023a10 f i PINPad.obj
 0001:00022b70       ?begin@CComDynamicUnkArray@ATL@@QAEPAPAUIUnknown@@XZ 10023b70 f i PINPad.obj
 0001:00022b90       ?copy@?$_Copy@UtagCONNECTDATA@@@ATL@@SAJPAUtagCONNECTDATA@@PBU3@@Z 10023b90 f i PINPad.obj
 0001:00022c50       ?copy@?$_CopyInterface@UIConnectionPoint@@@ATL@@SAJPAPAUIConnectionPoint@@PBQAU3@@Z 10023c50 f i PINPad.obj
 0001:00022d10       ?destroy@?$_Copy@UtagCONNECTDATA@@@ATL@@SAXPAUtagCONNECTDATA@@@Z 10023d10 f i PINPad.obj
 0001:00022d50       ?destroy@?$_CopyInterface@UIConnectionPoint@@@ATL@@SAXPAPAUIConnectionPoint@@@Z 10023d50 f i PINPad.obj
 0001:00022d90       ?end@CComDynamicUnkArray@ATL@@QAEPAPAUIUnknown@@XZ 10023d90 f i PINPad.obj
 0001:00022db0       ?init@?$_Copy@UtagCONNECTDATA@@@ATL@@SAXPAUtagCONNECTDATA@@@Z 10023db0 f i PINPad.obj
 0001:00022dc0       ?init@?$_CopyInterface@UIConnectionPoint@@@ATL@@SAXPAPAUIConnectionPoint@@@Z 10023dc0 f i PINPad.obj
 0001:00022dd0       ?memcpy_s@Checked@ATL@@YAXPAXIPBXI@Z 10023dd0 f i PINPad.obj
 0001:00022e00       ?ocscpy_s@@YA_NPA_WIPB_W@Z 10023e00 f i PINPad.obj
 0001:00022e60       ?ocslen@@YAHPB_W@Z         10023e60 f i PINPad.obj
 0001:00022e90       ?tcsncpy_s@Checked@ATL@@YAHPA_WIPB_WI@Z 10023e90 f i PINPad.obj
 0001:00022ec0       ?wcscat_s@Checked@ATL@@YAXPA_WIPB_W@Z 10023ec0 f i PINPad.obj
 0001:00022ef0       ?wcscpy_s@Checked@ATL@@YAXPA_WIPB_W@Z 10023ef0 f i PINPad.obj
 0001:00022f20       ?wcsncpy_s@Checked@ATL@@YAHPA_WIPB_WI@Z 10023f20 f i PINPad.obj
 0001:00022f50       ?wcsstr@@YAPA_WPA_WPB_W@Z  10023f50 f i PINPad.obj
 0001:00022f70       _InlineIsEqualGUID         10023f70 f i PINPad.obj
 0001:00023010       _IsEqualGUID               10024010 f i PINPad.obj
 0001:00023060       ??0COPOSPINPad@@QAE@XZ     10024060 f   PINPadImpl.obj
 0001:00023170       ?FinalConstruct@COPOSPINPad@@QAEJXZ 10024170 f   PINPadImpl.obj
 0001:00023240       ??1COPOSPINPad@@UAE@XZ     10024240 f   PINPadImpl.obj
 0001:00023320       ?WriteTrace@COPOSPINPad@@QAAXPB_WZZ 10024320 f   PINPadImpl.obj
 0001:000233d0       ?WriteTraceString@COPOSPINPad@@QAEXPB_WPA_W@Z 100243d0 f   PINPadImpl.obj
 0001:00023740       ?WriteTraceString@COPOSPINPad@@QAAXPAXHHHPB_WZZ 10024740 f   PINPadImpl.obj
 0001:00023970       ?WriteTraceError@COPOSPINPad@@QAEXPB_WK@Z 10024970 f   PINPadImpl.obj
 0001:00023a60       ?WriteTraceMethods@COPOSPINPad@@QAEXPAJH@Z 10024a60 f   PINPadImpl.obj
 0001:00023ad0       ?FormatCurrency@COPOSPINPad@@QAEPB_WTtagCY@@@Z 10024ad0 f   PINPadImpl.obj
 0001:00023bf0       ?GetOposProp@COPOSPINPad@@IAEJPBDJPAJJ@Z 10024bf0 f   PINPadImpl.obj
 0001:00023e60       ?SetOposProp@COPOSPINPad@@IAEJPBDJJJ@Z 10024e60 f   PINPadImpl.obj
 0001:000240f0       ?GetOposProp@COPOSPINPad@@IAEJPBDJPAFJ@Z 100250f0 f   PINPadImpl.obj
 0001:00024190       ?SetOposProp@COPOSPINPad@@IAEJPBDJFJ@Z 10025190 f   PINPadImpl.obj
 0001:000241f0       ?GetOposProp@COPOSPINPad@@IAEJPBDJPAPA_WJ@Z 100251f0 f   PINPadImpl.obj
 0001:00024470       ?SetOposProp@COPOSPINPad@@IAEJPBDJPA_WJ@Z 10025470 f   PINPadImpl.obj
 0001:000247b0       ?DoInvoke@COPOSPINPad@@IAEJPBDJPAVOposVariant@@IHPAJ_N@Z 100257b0 f   PINPadImpl.obj
 0001:000251d0       ?SetCOFreezeEvents@COPOSPINPad@@IAEXF@Z 100261d0 f   PINPadImpl.obj
 0001:00025310       ?FreezeEvents@COPOSPINPad@@MAGJH@Z 10026310 f   PINPadImpl.obj
 0001:000253f0       ?OnDraw@COPOSPINPad@@MAEJAAUATL_DRAWINFO@@@Z 100263f0 f   PINPadImpl.obj
 0001:00025590       ?SOProcessID@COPOSPINPad@@UAGJPAJ@Z 10026590 f   PINPadImpl.obj
 0001:000255d0       ?get_OpenResult@COPOSPINPad@@UAGJPAJ@Z 100265d0 f   PINPadImpl.obj
 0001:00025610       ?get_BinaryConversion@COPOSPINPad@@UAGJPAJ@Z 10026610 f   PINPadImpl.obj
 0001:00025640       ?put_BinaryConversion@COPOSPINPad@@UAGJJ@Z 10026640 f   PINPadImpl.obj
 0001:00025670       ?get_CapPowerReporting@COPOSPINPad@@UAGJPAJ@Z 10026670 f   PINPadImpl.obj
 0001:000256a0       ?get_CheckHealthText@COPOSPINPad@@UAGJPAPA_W@Z 100266a0 f   PINPadImpl.obj
 0001:000256d0       ?get_Claimed@COPOSPINPad@@UAGJPAF@Z 100266d0 f   PINPadImpl.obj
 0001:00025700       ?get_DataCount@COPOSPINPad@@UAGJPAJ@Z 10026700 f   PINPadImpl.obj
 0001:00025730       ?get_DataEventEnabled@COPOSPINPad@@UAGJPAF@Z 10026730 f   PINPadImpl.obj
 0001:00025760       ?put_DataEventEnabled@COPOSPINPad@@UAGJF@Z 10026760 f   PINPadImpl.obj
 0001:00025790       ?get_DeviceEnabled@COPOSPINPad@@UAGJPAF@Z 10026790 f   PINPadImpl.obj
 0001:000257c0       ?put_DeviceEnabled@COPOSPINPad@@UAGJF@Z 100267c0 f   PINPadImpl.obj
 0001:000257f0       ?get_FreezeEvents@COPOSPINPad@@UAGJPAF@Z 100267f0 f   PINPadImpl.obj
 0001:00025820       ?put_FreezeEvents@COPOSPINPad@@UAGJF@Z 10026820 f   PINPadImpl.obj
 0001:000258b0       ?get_PowerNotify@COPOSPINPad@@UAGJPAJ@Z 100268b0 f   PINPadImpl.obj
 0001:000258e0       ?put_PowerNotify@COPOSPINPad@@UAGJJ@Z 100268e0 f   PINPadImpl.obj
 0001:00025910       ?get_PowerState@COPOSPINPad@@UAGJPAJ@Z 10026910 f   PINPadImpl.obj
 0001:00025940       ?get_ResultCode@COPOSPINPad@@UAGJPAJ@Z 10026940 f   PINPadImpl.obj
 0001:000259d0       ?get_ResultCodeExtended@COPOSPINPad@@UAGJPAJ@Z 100269d0 f   PINPadImpl.obj
 0001:00025a00       ?get_State@COPOSPINPad@@UAGJPAJ@Z 10026a00 f   PINPadImpl.obj
 0001:00025a50       ?get_ControlObjectDescription@COPOSPINPad@@UAGJPAPA_W@Z 10026a50 f   PINPadImpl.obj
 0001:00025ad0       ?get_ControlObjectVersion@COPOSPINPad@@UAGJPAJ@Z 10026ad0 f   PINPadImpl.obj
 0001:00025b10       ?get_ServiceObjectDescription@COPOSPINPad@@UAGJPAPA_W@Z 10026b10 f   PINPadImpl.obj
 0001:00025b40       ?get_ServiceObjectVersion@COPOSPINPad@@UAGJPAJ@Z 10026b40 f   PINPadImpl.obj
 0001:00025b70       ?get_DeviceDescription@COPOSPINPad@@UAGJPAPA_W@Z 10026b70 f   PINPadImpl.obj
 0001:00025ba0       ?get_DeviceName@COPOSPINPad@@UAGJPAPA_W@Z 10026ba0 f   PINPadImpl.obj
 0001:00025bd0       ?CheckHealth@COPOSPINPad@@UAGJJPAJ@Z 10026bd0 f   PINPadImpl.obj
 0001:00025c70       ?ClaimDevice@COPOSPINPad@@UAGJJPAJ@Z 10026c70 f   PINPadImpl.obj
 0001:00025d50       ?ClearInput@COPOSPINPad@@UAGJPAJ@Z 10026d50 f   PINPadImpl.obj
 0001:00025d80       ?Close@COPOSPINPad@@UAGJPAJ@Z 10026d80 f   PINPadImpl.obj
 0001:00025e50       ?DirectIO@COPOSPINPad@@UAGJJPAJPAPA_W0@Z 10026e50 f   PINPadImpl.obj
 0001:00025f60       ?Open@COPOSPINPad@@UAGJPA_WPAJ@Z 10026f60 f   PINPadImpl.obj
 0001:00027150       ?ReleaseDevice@COPOSPINPad@@UAGJPAJ@Z 10028150 f   PINPadImpl.obj
 0001:000271c0       ?get_AccountNumber@COPOSPINPad@@UAGJPAPA_W@Z 100281c0 f   PINPadImpl.obj
 0001:000271f0       ?put_AccountNumber@COPOSPINPad@@UAGJPA_W@Z 100281f0 f   PINPadImpl.obj
 0001:00027220       ?get_AdditionalSecurityInformation@COPOSPINPad@@UAGJPAPA_W@Z 10028220 f   PINPadImpl.obj
 0001:00027250       ?get_Amount@COPOSPINPad@@UAGJPATtagCY@@@Z 10028250 f   PINPadImpl.obj
 0001:00027440       ?put_Amount@COPOSPINPad@@UAGJTtagCY@@@Z 10028440 f   PINPadImpl.obj
 0001:00027630       ?get_AvailableLanguagesList@COPOSPINPad@@UAGJPAPA_W@Z 10028630 f   PINPadImpl.obj
 0001:00027660       ?get_AvailablePromptsList@COPOSPINPad@@UAGJPAPA_W@Z 10028660 f   PINPadImpl.obj
 0001:00027690       ?get_CapDisplay@COPOSPINPad@@UAGJPAJ@Z 10028690 f   PINPadImpl.obj
 0001:000276c0       ?get_CapKeyboard@COPOSPINPad@@UAGJPAF@Z 100286c0 f   PINPadImpl.obj
 0001:000276f0       ?get_CapLanguage@COPOSPINPad@@UAGJPAJ@Z 100286f0 f   PINPadImpl.obj
 0001:00027720       ?get_CapMACCalculation@COPOSPINPad@@UAGJPAF@Z 10028720 f   PINPadImpl.obj
 0001:00027750       ?get_CapTone@COPOSPINPad@@UAGJPAF@Z 10028750 f   PINPadImpl.obj
 0001:00027780       ?get_EncryptedPIN@COPOSPINPad@@UAGJPAPA_W@Z 10028780 f   PINPadImpl.obj
 0001:000277b0       ?get_MaximumPINLength@COPOSPINPad@@UAGJPAJ@Z 100287b0 f   PINPadImpl.obj
 0001:000277e0       ?put_MaximumPINLength@COPOSPINPad@@UAGJJ@Z 100287e0 f   PINPadImpl.obj
 0001:00027810       ?get_MerchantID@COPOSPINPad@@UAGJPAPA_W@Z 10028810 f   PINPadImpl.obj
 0001:00027840       ?put_MerchantID@COPOSPINPad@@UAGJPA_W@Z 10028840 f   PINPadImpl.obj
 0001:00027870       ?get_MinimumPINLength@COPOSPINPad@@UAGJPAJ@Z 10028870 f   PINPadImpl.obj
 0001:000278a0       ?put_MinimumPINLength@COPOSPINPad@@UAGJJ@Z 100288a0 f   PINPadImpl.obj
 0001:000278d0       ?get_PINEntryEnabled@COPOSPINPad@@UAGJPAF@Z 100288d0 f   PINPadImpl.obj
 0001:00027900       ?get_Prompt@COPOSPINPad@@UAGJPAJ@Z 10028900 f   PINPadImpl.obj
 0001:00027930       ?put_Prompt@COPOSPINPad@@UAGJJ@Z 10028930 f   PINPadImpl.obj
 0001:00027960       ?get_PromptLanguage@COPOSPINPad@@UAGJPAJ@Z 10028960 f   PINPadImpl.obj
 0001:00027990       ?put_PromptLanguage@COPOSPINPad@@UAGJJ@Z 10028990 f   PINPadImpl.obj
 0001:000279c0       ?get_TerminalID@COPOSPINPad@@UAGJPAPA_W@Z 100289c0 f   PINPadImpl.obj
 0001:000279f0       ?put_TerminalID@COPOSPINPad@@UAGJPA_W@Z 100289f0 f   PINPadImpl.obj
 0001:00027a20       ?get_Track1Data@COPOSPINPad@@UAGJPAPA_W@Z 10028a20 f   PINPadImpl.obj
 0001:00027a50       ?put_Track1Data@COPOSPINPad@@UAGJPA_W@Z 10028a50 f   PINPadImpl.obj
 0001:00027a80       ?get_Track2Data@COPOSPINPad@@UAGJPAPA_W@Z 10028a80 f   PINPadImpl.obj
 0001:00027ab0       ?put_Track2Data@COPOSPINPad@@UAGJPA_W@Z 10028ab0 f   PINPadImpl.obj
 0001:00027ae0       ?get_Track3Data@COPOSPINPad@@UAGJPAPA_W@Z 10028ae0 f   PINPadImpl.obj
 0001:00027b10       ?put_Track3Data@COPOSPINPad@@UAGJPA_W@Z 10028b10 f   PINPadImpl.obj
 0001:00027b40       ?get_TransactionType@COPOSPINPad@@UAGJPAJ@Z 10028b40 f   PINPadImpl.obj
 0001:00027b70       ?put_TransactionType@COPOSPINPad@@UAGJJ@Z 10028b70 f   PINPadImpl.obj
 0001:00027ba0       ?BeginEFTTransaction@COPOSPINPad@@UAGJPA_WJPAJ@Z 10028ba0 f   PINPadImpl.obj
 0001:00027c90       ?ComputeMAC@COPOSPINPad@@UAGJPA_WPAPA_WPAJ@Z 10028c90 f   PINPadImpl.obj
 0001:00027d80       ?EnablePINEntry@COPOSPINPad@@UAGJPAJ@Z 10028d80 f   PINPadImpl.obj
 0001:00027db0       ?EndEFTTransaction@COPOSPINPad@@UAGJJPAJ@Z 10028db0 f   PINPadImpl.obj
 0001:00027e50       ?UpdateKey@COPOSPINPad@@UAGJJPA_WPAJ@Z 10028e50 f   PINPadImpl.obj
 0001:00027f40       ?VerifyMAC@COPOSPINPad@@UAGJPA_WPAJ@Z 10028f40 f   PINPadImpl.obj
 0001:00027ff0       ?get_Track4Data@COPOSPINPad@@UAGJPAPA_W@Z 10028ff0 f   PINPadImpl.obj
 0001:00028020       ?put_Track4Data@COPOSPINPad@@UAGJPA_W@Z 10029020 f   PINPadImpl.obj
 0001:00028050       ?get_CapStatisticsReporting@COPOSPINPad@@UAGJPAF@Z 10029050 f   PINPadImpl.obj
 0001:00028080       ?get_CapUpdateStatistics@COPOSPINPad@@UAGJPAF@Z 10029080 f   PINPadImpl.obj
 0001:000280b0       ?ResetStatistics@COPOSPINPad@@UAGJPA_WPAJ@Z 100290b0 f   PINPadImpl.obj
 0001:00028160       ?RetrieveStatistics@COPOSPINPad@@UAGJPAPA_WPAJ@Z 10029160 f   PINPadImpl.obj
 0001:00028210       ?UpdateStatistics@COPOSPINPad@@UAGJPA_WPAJ@Z 10029210 f   PINPadImpl.obj
 0001:000282c0       ?get_CapCompareFirmwareVersion@COPOSPINPad@@UAGJPAF@Z 100292c0 f   PINPadImpl.obj
 0001:000282f0       ?get_CapUpdateFirmware@COPOSPINPad@@UAGJPAF@Z 100292f0 f   PINPadImpl.obj
 0001:00028320       ?CompareFirmwareVersion@COPOSPINPad@@UAGJPA_WPAJ1@Z 10029320 f   PINPadImpl.obj
 0001:00028410       ?UpdateFirmware@COPOSPINPad@@UAGJPA_WPAJ@Z 10029410 f   PINPadImpl.obj
 0001:000284c0       ?ClearInputProperties@COPOSPINPad@@UAGJPAJ@Z 100294c0 f   PINPadImpl.obj
 0001:000284f0       ??0?$CComControl@VCOPOSPINPad@@V?$CWindowImpl@VCOPOSPINPad@@VCWindow@ATL@@V?$CWinTraits@$0FGAAAAAA@$0A@@3@@ATL@@@ATL@@QAE@XZ 100294f0 f i PINPadImpl.obj
 0001:00028530       ??0?$CComPtr@UIAdviseSink@@@ATL@@QAE@XZ 10029530 f i PINPadImpl.obj
 0001:00028560       ??0?$CComPtr@UIDataAdviseHolder@@@ATL@@QAE@XZ 10029560 f i PINPadImpl.obj
 0001:00028590       ??0?$CComPtr@UIOleAdviseHolder@@@ATL@@QAE@XZ 10029590 f i PINPadImpl.obj
 0001:000285c0       ??0?$CComPtr@UIOleClientSite@@@ATL@@QAE@XZ 100295c0 f i PINPadImpl.obj
 0001:000285f0       ??0?$CComPtr@UIOleInPlaceSiteWindowless@@@ATL@@QAE@XZ 100295f0 f i PINPadImpl.obj
 0001:00028620       ??0?$CComPtrBase@UIAdviseSink@@@ATL@@IAE@XZ 10029620 f i PINPadImpl.obj
 0001:00028640       ??0?$CComPtrBase@UIDataAdviseHolder@@@ATL@@IAE@XZ 10029640 f i PINPadImpl.obj
 0001:00028660       ??0?$CComPtrBase@UIOleAdviseHolder@@@ATL@@IAE@XZ 10029660 f i PINPadImpl.obj
 0001:00028680       ??0?$CComPtrBase@UIOleClientSite@@@ATL@@IAE@XZ 10029680 f i PINPadImpl.obj
 0001:000286a0       ??0?$CComPtrBase@UIOleInPlaceSiteWindowless@@@ATL@@IAE@XZ 100296a0 f i PINPadImpl.obj
 0001:000286c0       ??0?$CComQIPtr@UIDispatch@@$1?_GUID_00020400_0000_0000_c000_000000000046@@3U__s_GUID@@B@ATL@@QAE@XZ 100296c0 f i PINPadImpl.obj
 0001:000286f0       ??0?$CProxy_IOPOSEvents@VCOPOSPINPad@@@@QAE@PAVCOPOSPINPad@@@Z 100296f0 f i PINPadImpl.obj
 0001:00028760       ??0?$CWindowImpl@VCOPOSPINPad@@VCWindow@ATL@@V?$CWinTraits@$0FGAAAAAA@$0A@@3@@ATL@@QAE@XZ 10029760 f i PINPadImpl.obj
 0001:00028790       ??0?$CWindowImplBaseT@VCWindow@ATL@@V?$CWinTraits@$0FGAAAAAA@$0A@@2@@ATL@@QAE@XZ 10029790 f i PINPadImpl.obj
 0001:000287d0       ??0?$CWindowImplRoot@VCWindow@ATL@@@ATL@@QAE@XZ 100297d0 f i PINPadImpl.obj
 0001:00028830       ??0?$IConnectionPointContainerImpl@VCOPOSPINPad@@@ATL@@QAE@XZ 10029830 f i PINPadImpl.obj
 0001:00028860       ??0?$IConnectionPointImpl@VCOPOSPINPad@@$1?DIID__IOPOSPINPadEvents@@3U_GUID@@BVCComDynamicUnkArray@ATL@@@ATL@@QAE@XZ 10029860 f i PINPadImpl.obj
 0001:000288a0       ??0?$IConnectionPointImpl@VCOPOSPINPad@@$1?IID_IPropertyNotifySink@@3U_GUID@@BVCComDynamicUnkArray@ATL@@@ATL@@QAE@XZ 100298a0 f i PINPadImpl.obj
 0001:000288e0       ??0?$IDataObjectImpl@VCOPOSPINPad@@@ATL@@QAE@XZ 100298e0 f i PINPadImpl.obj
 0001:00028910       ??0?$IDispatchImpl@UIOPOSPINPad@@$1?IID_IOPOSPINPad@@3U_GUID@@B$1?LIBID_OposPINPad_CCO@@3U3@B$00$0A@VCComTypeInfoHolder@ATL@@@ATL@@QAE@XZ 10029910 f i PINPadImpl.obj
 0001:00028940       ??0?$IObjectSafetyImpl@VCOPOSPINPad@@$02@ATL@@QAE@XZ 10029940 f i PINPadImpl.obj
 0001:00028980       ??0?$IOleControlImpl@VCOPOSPINPad@@@ATL@@QAE@XZ 10029980 f i PINPadImpl.obj
 0001:000289b0       ??0?$IOleInPlaceActiveObjectImpl@VCOPOSPINPad@@@ATL@@QAE@XZ 100299b0 f i PINPadImpl.obj
 0001:000289e0       ??0?$IOleInPlaceObjectWindowlessImpl@VCOPOSPINPad@@@ATL@@QAE@XZ 100299e0 f i PINPadImpl.obj
 0001:00028a10       ??0?$IOleObjectImpl@VCOPOSPINPad@@@ATL@@QAE@XZ 10029a10 f i PINPadImpl.obj
 0001:00028a40       ??0?$IPersistStorageImpl@VCOPOSPINPad@@@ATL@@QAE@XZ 10029a40 f i PINPadImpl.obj
 0001:00028a70       ??0?$IPersistStreamInitImpl@VCOPOSPINPad@@@ATL@@QAE@XZ 10029a70 f i PINPadImpl.obj
 0001:00028aa0       ??0?$IPropertyNotifySinkCP@VCOPOSPINPad@@VCComDynamicUnkArray@ATL@@@ATL@@QAE@XZ 10029aa0 f i PINPadImpl.obj
 0001:00028ad0       ??0?$IProvideClassInfo2Impl@$1?CLSID_OPOSPINPad@@3U_GUID@@B$1?DIID__IOPOSPINPadEvents@@3U2@B$1?LIBID_OposPINPad_CCO@@3U2@B$00$0A@VCComTypeInfoHolder@ATL@@@ATL@@QAE@XZ 10029ad0 f i PINPadImpl.obj
 0001:00028b00       ??0?$IQuickActivateImpl@VCOPOSPINPad@@@ATL@@QAE@XZ 10029b00 f i PINPadImpl.obj
 0001:00028b30       ??0?$ISpecifyPropertyPagesImpl@VCOPOSPINPad@@@ATL@@QAE@XZ 10029b30 f i PINPadImpl.obj
 0001:00028b60       ??0?$IViewObjectExImpl@VCOPOSPINPad@@@ATL@@QAE@XZ 10029b60 f i PINPadImpl.obj
 0001:00028b90       ??0?$_ICPLocator@$1?DIID__IOPOSPINPadEvents@@3U_GUID@@B@ATL@@QAE@XZ 10029b90 f i PINPadImpl.obj
 0001:00028bb0       ??0?$_ICPLocator@$1?IID_IPropertyNotifySink@@3U_GUID@@B@ATL@@QAE@XZ 10029bb0 f i PINPadImpl.obj
 0001:00028bd0       ??0CComControlBase@ATL@@QAE@AAPAUHWND__@@@Z 10029bd0 f i PINPadImpl.obj
 0001:00028d80       ??0CComDynamicUnkArray@ATL@@QAE@XZ 10029d80 f i PINPadImpl.obj
 0001:00028db0       ??0CDynamicStdCallThunk2@ATL@@QAE@XZ 10029db0 f i PINPadImpl.obj
 0001:00028dd0       ??0CMessageMap@ATL@@QAE@XZ 10029dd0 f i PINPadImpl.obj
 0001:00028df0       ??0CWindow@ATL@@QAE@PAUHWND__@@@Z 10029df0 f i PINPadImpl.obj
 0001:00028e10       ??0CWndProcThunk@ATL@@QAE@XZ 10029e10 f i PINPadImpl.obj
 0001:00028e40       ??0IConnectionPointContainer@@QAE@XZ 10029e40 f i PINPadImpl.obj
 0001:00028e70       ??0IDataObject@@QAE@XZ     10029e70 f i PINPadImpl.obj
 0001:00028ea0       ??0IDispatch@@QAE@XZ       10029ea0 f i PINPadImpl.obj
 0001:00028ed0       ??0IOPOSPINPad@@QAE@XZ     10029ed0 f i PINPadImpl.obj
 0001:00028f00       ??0IOPOSPINPad_1_10@@QAE@XZ 10029f00 f i PINPadImpl.obj
 0001:00028f30       ??0IOPOSPINPad_1_5@@QAE@XZ 10029f30 f i PINPadImpl.obj
 0001:00028f60       ??0IOPOSPINPad_1_8@@QAE@XZ 10029f60 f i PINPadImpl.obj
 0001:00028f90       ??0IOPOSPINPad_1_9@@QAE@XZ 10029f90 f i PINPadImpl.obj
 0001:00028fc0       ??0IObjectSafety@@QAE@XZ   10029fc0 f i PINPadImpl.obj
 0001:00028ff0       ??0IOleControl@@QAE@XZ     10029ff0 f i PINPadImpl.obj
 0001:00029020       ??0IOleInPlaceActiveObject@@QAE@XZ 1002a020 f i PINPadImpl.obj
 0001:00029050       ??0IOleInPlaceObject@@QAE@XZ 1002a050 f i PINPadImpl.obj
 0001:00029080       ??0IOleInPlaceObjectWindowless@@QAE@XZ 1002a080 f i PINPadImpl.obj
 0001:000290b0       ??0IOleObject@@QAE@XZ      1002a0b0 f i PINPadImpl.obj
 0001:000290e0       ??0IOleWindow@@QAE@XZ      1002a0e0 f i PINPadImpl.obj
 0001:00029110       ??0IPersist@@QAE@XZ        1002a110 f i PINPadImpl.obj
 0001:00029140       ??0IPersistStorage@@QAE@XZ 1002a140 f i PINPadImpl.obj
 0001:00029170       ??0IPersistStreamInit@@QAE@XZ 1002a170 f i PINPadImpl.obj
 0001:000291a0       ??0IProvideClassInfo2@@QAE@XZ 1002a1a0 f i PINPadImpl.obj
 0001:000291d0       ??0IProvideClassInfo@@QAE@XZ 1002a1d0 f i PINPadImpl.obj
 0001:00029200       ??0IQuickActivate@@QAE@XZ  1002a200 f i PINPadImpl.obj
 0001:00029230       ??0ISpecifyPropertyPages@@QAE@XZ 1002a230 f i PINPadImpl.obj
 0001:00029260       ??0IViewObject2@@QAE@XZ    1002a260 f i PINPadImpl.obj
 0001:00029290       ??0IViewObject@@QAE@XZ     1002a290 f i PINPadImpl.obj
 0001:000292c0       ??0IViewObjectEx@@QAE@XZ   1002a2c0 f i PINPadImpl.obj
 0001:000292f0       ??0OposVariantResult@@QAE@XZ 1002a2f0 f i PINPadImpl.obj
 0001:00029320       ??0_CW@@QAE@PBD@Z          1002a320 f i PINPadImpl.obj
 0001:00029360       ??0_CW@@QAE@PB_W@Z         1002a360 f i PINPadImpl.obj
 0001:000293a0       ??0_CWNCC@@QAE@PBD@Z       1002a3a0 f i PINPadImpl.obj
 0001:000293d0       ??1?$CComControl@VCOPOSPINPad@@V?$CWindowImpl@VCOPOSPINPad@@VCWindow@ATL@@V?$CWinTraits@$0FGAAAAAA@$0A@@3@@ATL@@@ATL@@UAE@XZ 1002a3d0 f i PINPadImpl.obj
 0001:00029400       ??1?$CComPtr@UIDataAdviseHolder@@@ATL@@QAE@XZ 1002a400 f i PINPadImpl.obj
 0001:00029430       ??1?$CComPtr@UIOleAdviseHolder@@@ATL@@QAE@XZ 1002a430 f i PINPadImpl.obj
 0001:00029460       ??1?$CComPtr@UIOleInPlaceSiteWindowless@@@ATL@@QAE@XZ 1002a460 f i PINPadImpl.obj
 0001:00029490       ??1?$CComPtrBase@UIDataAdviseHolder@@@ATL@@QAE@XZ 1002a490 f i PINPadImpl.obj
 0001:000294e0       ??1?$CComPtrBase@UIOleAdviseHolder@@@ATL@@QAE@XZ 1002a4e0 f i PINPadImpl.obj
 0001:00029530       ??1?$CComPtrBase@UIOleInPlaceSiteWindowless@@@ATL@@QAE@XZ 1002a530 f i PINPadImpl.obj
 0001:00029580       ??1?$CComQIPtr@UIDispatch@@$1?_GUID_00020400_0000_0000_c000_000000000046@@3U__s_GUID@@B@ATL@@QAE@XZ 1002a580 f i PINPadImpl.obj
 0001:000295b0       ??1?$CProxy_IOPOSEvents@VCOPOSPINPad@@@@QAE@XZ 1002a5b0 f i PINPadImpl.obj
 0001:000295e0       ??1?$CWindowImpl@VCOPOSPINPad@@VCWindow@ATL@@V?$CWinTraits@$0FGAAAAAA@$0A@@3@@ATL@@UAE@XZ 1002a5e0 f i PINPadImpl.obj
 0001:00029610       ??1?$CWindowImplBaseT@VCWindow@ATL@@V?$CWinTraits@$0FGAAAAAA@$0A@@2@@ATL@@UAE@XZ 1002a610 f i PINPadImpl.obj
 0001:00029640       ??1?$CWindowImplRoot@VCWindow@ATL@@@ATL@@UAE@XZ 1002a640 f i PINPadImpl.obj
 0001:000296e0       ??1?$IConnectionPointImpl@VCOPOSPINPad@@$1?DIID__IOPOSPINPadEvents@@3U_GUID@@BVCComDynamicUnkArray@ATL@@@ATL@@QAE@XZ 1002a6e0 f i PINPadImpl.obj
 0001:00029760       ??1?$IConnectionPointImpl@VCOPOSPINPad@@$1?IID_IPropertyNotifySink@@3U_GUID@@BVCComDynamicUnkArray@ATL@@@ATL@@QAE@XZ 1002a760 f i PINPadImpl.obj
 0001:000297e0       ??1?$IPropertyNotifySinkCP@VCOPOSPINPad@@VCComDynamicUnkArray@ATL@@@ATL@@QAE@XZ 1002a7e0 f i PINPadImpl.obj
 0001:00029810       ??1CComControlBase@ATL@@UAE@XZ 1002a810 f i PINPadImpl.obj
 0001:000298d0       ??1CComDynamicUnkArray@ATL@@QAE@XZ 1002a8d0 f i PINPadImpl.obj
 0001:00029910       ??1CDynamicStdCallThunk2@ATL@@QAE@XZ 1002a910 f i PINPadImpl.obj
 0001:00029940       ??1CWndProcThunk@ATL@@QAE@XZ 1002a940 f i PINPadImpl.obj
 0001:00029970       ??1OposVariantResult@@QAE@XZ 1002a970 f i PINPadImpl.obj
 0001:000299a0       ??1_CW@@QAE@XZ             1002a9a0 f i PINPadImpl.obj
 0001:00029a10       ??1_CWNCC@@QAE@XZ          1002aa10 f i PINPadImpl.obj
 0001:00029a40       ??B_CW@@QAEPB_WXZ          1002aa40 f i PINPadImpl.obj
 0001:00029a80       ??B_CWNCC@@QAEPA_WXZ       1002aa80 f i PINPadImpl.obj
 0001:00029ab0       ??_EOposVariant@@QAEPAXI@Z 1002aab0 f i PINPadImpl.obj
 0001:00029b40       ?EventClaim@COPOSPINPad@@IAEXXZ 1002ab40 f i PINPadImpl.obj
 0001:00029b80       ?EventClose@COPOSPINPad@@IAEXXZ 1002ab80 f i PINPadImpl.obj
 0001:00029c20       ?EventInit@COPOSPINPad@@IAEJXZ 1002ac20 f i PINPadImpl.obj
 0001:00029e50       ?EventOpen@COPOSPINPad@@IAEXXZ 1002ae50 f i PINPadImpl.obj
 0001:00029e90       ?EventPreCloseRelease@COPOSPINPad@@IAEXXZ 1002ae90 f i PINPadImpl.obj
 0001:00029f10       ?EventUninit@COPOSPINPad@@IAEXXZ 1002af10 f i PINPadImpl.obj
 0001:0002a040       ?EventWindowProc@COPOSPINPad@@IAGJIIJ@Z 1002b040 f i PINPadImpl.obj
 0001:0002a1d0       ?FireEventCleanup@COPOSPINPad@@IAEXXZ 1002b1d0 f i PINPadImpl.obj
 0001:0002a220       ?FireEventSetup@COPOSPINPad@@IAE_NXZ 1002b220 f i PINPadImpl.obj
 0001:0002a290       ?GetModuleInstance@CComModule@ATL@@QAEPAUHINSTANCE__@@XZ 1002b290 f i PINPadImpl.obj
 0001:0002a2b0       ?SetRC@COPOSPINPad@@IAEJJ@Z 1002b2b0 f i PINPadImpl.obj
 0001:0002a2e0       ?s_EventWindowProc@COPOSPINPad@@KGJPAUHWND__@@IIJ@Z 1002b2e0 f i PINPadImpl.obj
 0001:0002a380       __snwprintf                1002b380 f i PINPadImpl.obj
 0001:0002a3e0       __vfwprintf_l              1002b3e0 f i PINPadImpl.obj
 0001:0002a410       __vsnwprintf               1002b410 f i PINPadImpl.obj
 0001:0002a440       __vsnwprintf_l             1002b440 f i PINPadImpl.obj
 0001:0002a4b0       _vfwprintf                 1002b4b0 f i PINPadImpl.obj
 0001:0002a4d2       _DebugBreak@0              1002b4d2 f   kernel32:KERNEL32.dll
 0001:0002a4d8       _Sleep@4                   1002b4d8 f   kernel32:KERNEL32.dll
 0001:0002a4de       _GetCurrentProcess@0       1002b4de f   kernel32:KERNEL32.dll
 0001:0002a4e4       _TerminateProcess@8        1002b4e4 f   kernel32:KERNEL32.dll
 0001:0002a4ea       _MultiByteToWideChar@24    1002b4ea f   kernel32:KERNEL32.dll
 0001:0002a4f0       _WideCharToMultiByte@32    1002b4f0 f   kernel32:KERNEL32.dll
 0001:0002a4f6       _DecodePointer@4           1002b4f6 f   kernel32:KERNEL32.dll
 0001:0002a4fc       _RaiseException@16         1002b4fc f   kernel32:KERNEL32.dll
 0001:0002a502       _GetLastError@0            1002b502 f   kernel32:KERNEL32.dll
 0001:0002a508       _SetLastError@4            1002b508 f   kernel32:KERNEL32.dll
 0001:0002a50e       _InitializeCriticalSectionEx@12 1002b50e f   kernel32:KERNEL32.dll
 0001:0002a514       _DeleteCriticalSection@4   1002b514 f   kernel32:KERNEL32.dll
 0001:0002a51a       _EncodePointer@4           1002b51a f   kernel32:KERNEL32.dll
 0001:0002a520       _EnterCriticalSection@4    1002b520 f   kernel32:KERNEL32.dll
 0001:0002a526       _LeaveCriticalSection@4    1002b526 f   kernel32:KERNEL32.dll
 0001:0002a52c       _ResetEvent@4              1002b52c f   kernel32:KERNEL32.dll
 0001:0002a532       _ReleaseMutex@4            1002b532 f   kernel32:KERNEL32.dll
 0001:0002a538       _WaitForSingleObject@8     1002b538 f   kernel32:KERNEL32.dll
 0001:0002a53e       _GetCurrentThreadId@0      1002b53e f   kernel32:KERNEL32.dll
 0001:0002a544       _DisableThreadLibraryCalls@4 1002b544 f   kernel32:KERNEL32.dll
 0001:0002a54a       _FreeLibrary@4             1002b54a f   kernel32:KERNEL32.dll
 0001:0002a550       _GetModuleFileNameW@12     1002b550 f   kernel32:KERNEL32.dll
 0001:0002a556       _GetModuleHandleW@4        1002b556 f   kernel32:KERNEL32.dll
 0001:0002a55c       _GetProcAddress@8          1002b55c f   kernel32:KERNEL32.dll
 0001:0002a562       _LoadLibraryExW@12         1002b562 f   kernel32:KERNEL32.dll
 0001:0002a568       _LoadResource@8            1002b568 f   kernel32:KERNEL32.dll
 0001:0002a56e       _SizeofResource@8          1002b56e f   kernel32:KERNEL32.dll
 0001:0002a574       _GlobalAlloc@8             1002b574 f   kernel32:KERNEL32.dll
 0001:0002a57a       _GlobalLock@4              1002b57a f   kernel32:KERNEL32.dll
 0001:0002a580       _GlobalUnlock@4            1002b580 f   kernel32:KERNEL32.dll
 0001:0002a586       _MulDiv@12                 1002b586 f   kernel32:KERNEL32.dll
 0001:0002a58c       _lstrcmpiW@8               1002b58c f   kernel32:KERNEL32.dll
 0001:0002a592       _FindResourceW@12          1002b592 f   kernel32:KERNEL32.dll
 0001:0002a598       _DeleteFileW@4             1002b598 f   kernel32:KERNEL32.dll
 0001:0002a59e       _CloseHandle@4             1002b59e f   kernel32:KERNEL32.dll
 0001:0002a5a4       _SetEvent@4                1002b5a4 f   kernel32:KERNEL32.dll
 0001:0002a5aa       _CreateMutexW@12           1002b5aa f   kernel32:KERNEL32.dll
 0001:0002a5b0       _CreateEventW@16           1002b5b0 f   kernel32:KERNEL32.dll
 0001:0002a5b6       _GetCurrentProcessId@0     1002b5b6 f   kernel32:KERNEL32.dll
 0001:0002a5bc       _LocalFree@4               1002b5bc f   kernel32:KERNEL32.dll
 0001:0002a5c2       _FormatMessageW@28         1002b5c2 f   kernel32:KERNEL32.dll
 0001:0002a5c8       _GetActiveWindow@0         1002b5c8 f   user32:USER32.dll
 0001:0002a5ce       _MessageBoxW@16            1002b5ce f   user32:USER32.dll
 0001:0002a5d4       _UnregisterClassW@8        1002b5d4 f   user32:USER32.dll
 0001:0002a5da       _PostMessageW@16           1002b5da f   user32:USER32.dll
 0001:0002a5e0       _DefWindowProcW@16         1002b5e0 f   user32:USER32.dll
 0001:0002a5e6       _CallWindowProcW@20        1002b5e6 f   user32:USER32.dll
 0001:0002a5ec       _RegisterClassExW@4        1002b5ec f   user32:USER32.dll
 0001:0002a5f2       _GetClassInfoExW@12        1002b5f2 f   user32:USER32.dll
 0001:0002a5f8       _CreateWindowExW@48        1002b5f8 f   user32:USER32.dll
 0001:0002a5fe       _IsWindow@4                1002b5fe f   user32:USER32.dll
 0001:0002a604       _IsChild@8                 1002b604 f   user32:USER32.dll
 0001:0002a60a       _DestroyWindow@4           1002b60a f   user32:USER32.dll
 0001:0002a610       _ShowWindow@8              1002b610 f   user32:USER32.dll
 0001:0002a616       _SetWindowPos@28           1002b616 f   user32:USER32.dll
 0001:0002a61c       _CharNextW@4               1002b61c f   user32:USER32.dll
 0001:0002a622       _SetFocus@4                1002b622 f   user32:USER32.dll
 0001:0002a628       _GetFocus@0                1002b628 f   user32:USER32.dll
 0001:0002a62e       _GetKeyState@4             1002b62e f   user32:USER32.dll
 0001:0002a634       _GetDC@4                   1002b634 f   user32:USER32.dll
 0001:0002a63a       _ReleaseDC@8               1002b63a f   user32:USER32.dll
 0001:0002a640       _BeginPaint@8              1002b640 f   user32:USER32.dll
 0001:0002a646       _EndPaint@8                1002b646 f   user32:USER32.dll
 0001:0002a64c       _SetWindowRgn@12           1002b64c f   user32:USER32.dll
 0001:0002a652       _InvalidateRect@12         1002b652 f   user32:USER32.dll
 0001:0002a658       _GetClientRect@8           1002b658 f   user32:USER32.dll
 0001:0002a65e       _IntersectRect@12          1002b65e f   user32:USER32.dll
 0001:0002a664       _UnionRect@12              1002b664 f   user32:USER32.dll
 0001:0002a66a       _OffsetRect@12             1002b66a f   user32:USER32.dll
 0001:0002a670       _EqualRect@8               1002b670 f   user32:USER32.dll
 0001:0002a676       _PtInRect@12               1002b676 f   user32:USER32.dll
 0001:0002a67c       _GetWindowLongW@8          1002b67c f   user32:USER32.dll
 0001:0002a682       _SetWindowLongW@12         1002b682 f   user32:USER32.dll
 0001:0002a688       _GetParent@4               1002b688 f   user32:USER32.dll
 0001:0002a68e       _LoadCursorW@8             1002b68e f   user32:USER32.dll
 0001:0002a694       _PeekMessageW@20           1002b694 f   user32:USER32.dll
 0001:0002a69a       _RegisterClassW@4          1002b69a f   user32:USER32.dll
 0001:0002a6a0       _LoadBitmapW@8             1002b6a0 f   user32:USER32.dll
 0001:0002a6a6       _CloseMetaFile@4           1002b6a6 f   gdi32:GDI32.dll
 0001:0002a6ac       _CreateDCW@16              1002b6ac f   gdi32:GDI32.dll
 0001:0002a6b2       _CreateMetaFileW@4         1002b6b2 f   gdi32:GDI32.dll
 0001:0002a6b8       _CreateRectRgnIndirect@4   1002b6b8 f   gdi32:GDI32.dll
 0001:0002a6be       _DeleteDC@4                1002b6be f   gdi32:GDI32.dll
 0001:0002a6c4       _DeleteMetaFile@4          1002b6c4 f   gdi32:GDI32.dll
 0001:0002a6ca       _GetDeviceCaps@8           1002b6ca f   gdi32:GDI32.dll
 0001:0002a6d0       _RestoreDC@8               1002b6d0 f   gdi32:GDI32.dll
 0001:0002a6d6       _SaveDC@4                  1002b6d6 f   gdi32:GDI32.dll
 0001:0002a6dc       _SetMapMode@8              1002b6dc f   gdi32:GDI32.dll
 0001:0002a6e2       _LPtoDP@12                 1002b6e2 f   gdi32:GDI32.dll
 0001:0002a6e8       _SetViewportOrgEx@16       1002b6e8 f   gdi32:GDI32.dll
 0001:0002a6ee       _SetWindowExtEx@16         1002b6ee f   gdi32:GDI32.dll
 0001:0002a6f4       _SetWindowOrgEx@16         1002b6f4 f   gdi32:GDI32.dll
 0001:0002a6fa       _BitBlt@36                 1002b6fa f   gdi32:GDI32.dll
 0001:0002a700       _CreateCompatibleDC@4      1002b700 f   gdi32:GDI32.dll
 0001:0002a706       _DeleteObject@4            1002b706 f   gdi32:GDI32.dll
 0001:0002a70c       _SelectObject@8            1002b70c f   gdi32:GDI32.dll
 0001:0002a712       _GetObjectW@12             1002b712 f   gdi32:GDI32.dll
 0001:0002a718       _RegCloseKey@4             1002b718 f   advapi32:ADVAPI32.dll
 0001:0002a71e       _RegCreateKeyExW@36        1002b71e f   advapi32:ADVAPI32.dll
 0001:0002a724       _RegDeleteKeyW@8           1002b724 f   advapi32:ADVAPI32.dll
 0001:0002a72a       _RegDeleteValueW@8         1002b72a f   advapi32:ADVAPI32.dll
 0001:0002a730       _RegEnumKeyExW@32          1002b730 f   advapi32:ADVAPI32.dll
 0001:0002a736       _RegOpenKeyExW@20          1002b736 f   advapi32:ADVAPI32.dll
 0001:0002a73c       _RegQueryInfoKeyW@48       1002b73c f   advapi32:ADVAPI32.dll
 0001:0002a742       _RegSetValueExW@24         1002b742 f   advapi32:ADVAPI32.dll
 0001:0002a748       _RegQueryValueExW@24       1002b748 f   advapi32:ADVAPI32.dll
 0001:0002a74e       _CoCreateInstance@20       1002b74e f   ole32:ole32.dll
 0001:0002a754       _StringFromGUID2@12        1002b754 f   ole32:ole32.dll
 0001:0002a75a       _CoTaskMemAlloc@4          1002b75a f   ole32:ole32.dll
 0001:0002a760       _CoTaskMemRealloc@8        1002b760 f   ole32:ole32.dll
 0001:0002a766       _CoTaskMemFree@4           1002b766 f   ole32:ole32.dll
 0001:0002a76c       _CreateDataAdviseHolder@4  1002b76c f   ole32:ole32.dll
 0001:0002a772       _ReadClassStm@8            1002b772 f   ole32:ole32.dll
 0001:0002a778       _WriteClassStm@8           1002b778 f   ole32:ole32.dll
 0001:0002a77e       _OleSaveToStream@8         1002b77e f   ole32:ole32.dll
 0001:0002a784       _CreateOleAdviseHolder@4   1002b784 f   ole32:ole32.dll
 0001:0002a78a       _OleRegGetUserType@12      1002b78a f   ole32:ole32.dll
 0001:0002a790       _OleRegGetMiscStatus@12    1002b790 f   ole32:ole32.dll
 0001:0002a796       _OleRegEnumVerbs@8         1002b796 f   ole32:ole32.dll
 0001:0002a79c       _CLSIDFromProgID@8         1002b79c f   ole32:ole32.dll
 0001:0002a7a2       _SysAllocString@4          1002b7a2 f   oleaut32:OLEAUT32.dll
 0001:0002a7a8       _SysAllocStringLen@8       1002b7a8 f   oleaut32:OLEAUT32.dll
 0001:0002a7ae       _SysFreeString@4           1002b7ae f   oleaut32:OLEAUT32.dll
 0001:0002a7b4       _SysStringLen@4            1002b7b4 f   oleaut32:OLEAUT32.dll
 0001:0002a7ba       _VariantClear@4            1002b7ba f   oleaut32:OLEAUT32.dll
 0001:0002a7c0       _VariantCopyInd@8          1002b7c0 f   oleaut32:OLEAUT32.dll
 0001:0002a7c6       _VariantChangeType@16      1002b7c6 f   oleaut32:OLEAUT32.dll
 0001:0002a7cc       _SysStringByteLen@4        1002b7cc f   oleaut32:OLEAUT32.dll
 0001:0002a7d2       _SysAllocStringByteLen@8   1002b7d2 f   oleaut32:OLEAUT32.dll
 0001:0002a7d8       _VariantInit@4             1002b7d8 f   oleaut32:OLEAUT32.dll
 0001:0002a7de       _VarUI4FromStr@16          1002b7de f   oleaut32:OLEAUT32.dll
 0001:0002a7e4       _LoadTypeLib@8             1002b7e4 f   oleaut32:OLEAUT32.dll
 0001:0002a7ea       _LoadRegTypeLib@20         1002b7ea f   oleaut32:OLEAUT32.dll
 0001:0002a7f0       _RegisterTypeLib@12        1002b7f0 f   oleaut32:OLEAUT32.dll
 0001:0002a7f6       _UnRegisterTypeLib@20      1002b7f6 f   oleaut32:OLEAUT32.dll
 0001:0002a7fc       _OleCreatePropertyFrame@44 1002b7fc f   oleaut32:OLEAUT32.dll
 0001:0002a810       @_RTC_AllocaHelper@12      1002b810 f   LIBCMTD:stack.obj
 0001:0002a850       @_RTC_CheckStackVars2@12   1002b850 f   LIBCMTD:stack.obj
 0001:0002a930       @_RTC_CheckStackVars@8     1002b930 f   LIBCMTD:stack.obj
 0001:0002a9a0       __RTC_CheckEsp             1002b9a0 f   LIBCMTD:stack.obj
 0001:0002a9e0       @__security_check_cookie@4 1002b9e0 f   LIBCMTD:secchk.obj
 0001:0002aa00       __CRT_RTC_INIT             1002ba00 f   LIBCMTD:init.obj
 0001:0002aa10       __CRT_RTC_INITW            1002ba10 f   LIBCMTD:init.obj
 0001:0002aa20       __RTC_InitBase             1002ba20 f   LIBCMTD:init.obj
 0001:0002aa50       __RTC_Shutdown             1002ba50 f   LIBCMTD:init.obj
 0001:0002aa70       ??_U@YAPAXI@Z              1002ba70 f   LIBCMTD:new_array.obj
 0001:0002aa90       ??3@YAXPAXI@Z              1002ba90 f   LIBCMTD:delete_scalar_size.obj
 0001:0002aab0       ??_V@YAXPAX@Z              1002bab0 f   LIBCMTD:delete_array.obj
 0001:0002aad0       ??_V@YAXPAXI@Z             1002bad0 f   LIBCMTD:delete_array_size.obj
 0001:0002aaf0       ??$__crt_fast_decode_pointer@PAP6AXXZ@@YAPAP6AXXZQAP6AXXZ@Z 1002baf0 f i LIBCMTD:utility.obj
 0001:0002ab20       ??$__crt_fast_encode_pointer@PAP6AXXZ@@YAPAP6AXXZQAP6AXXZ@Z 1002bb20 f i LIBCMTD:utility.obj
 0001:0002ab50       ?__crt_rotate_pointer_value@@YAIIH@Z 1002bb50 f i LIBCMTD:utility.obj
 0001:0002ab60       ?configure_argv@__scrt_narrow_argv_policy@@SAHXZ 1002bb60 f i LIBCMTD:utility.obj
 0001:0002ac10       ?initialize_environment@__scrt_narrow_environment_policy@@SAHXZ 1002bc10 f i LIBCMTD:utility.obj
 0001:0002ac90       _NtCurrentTeb              1002bc90 f i LIBCMTD:utility.obj
 0001:0002aca0       ___scrt_acquire_startup_lock 1002bca0 f   LIBCMTD:utility.obj
 0001:0002acf0       ___scrt_dllmain_after_initialize_c 1002bcf0 f   LIBCMTD:utility.obj
 0001:0002ad20       ___scrt_dllmain_before_initialize_c 1002bd20 f   LIBCMTD:utility.obj
 0001:0002ad40       ___scrt_dllmain_crt_thread_attach 1002bd40 f   LIBCMTD:utility.obj
 0001:0002ad70       ___scrt_dllmain_crt_thread_detach 1002bd70 f   LIBCMTD:utility.obj
 0001:0002ad90       ___scrt_dllmain_exception_filter 1002bd90 f   LIBCMTD:utility.obj
 0001:0002ade0       ___scrt_dllmain_uninitialize_c 1002bde0 f   LIBCMTD:utility.obj
 0001:0002ae10       ___scrt_dllmain_uninitialize_critical 1002be10 f   LIBCMTD:utility.obj
 0001:0002ae30       ___scrt_initialize_crt     1002be30 f   LIBCMTD:utility.obj
 0001:0002ae80       ___scrt_initialize_onexit_tables 1002be80 f   LIBCMTD:utility.obj
 0001:0002af60       ___scrt_is_nonwritable_in_current_image 1002bf60 f   LIBCMTD:utility.obj
 0001:0002b090       ___scrt_release_startup_lock 1002c090 f   LIBCMTD:utility.obj
 0001:0002b0c0       ___scrt_uninitialize_crt   1002c0c0 f   LIBCMTD:utility.obj
 0001:0002b100       __onexit                   1002c100 f   LIBCMTD:utility.obj
 0001:0002b170       _at_quick_exit             1002c170 f   LIBCMTD:utility.obj
 0001:0002b1c0       _atexit                    1002c1c0 f   LIBCMTD:utility.obj
 0001:0002b1f0       ??3@YAXPAX@Z               1002c1f0 f   LIBCMTD:delete_scalar.obj
 0001:0002b210       ___raise_securityfailure   1002c210 f   LIBCMTD:gs_report.obj
 0001:0002b240       ___report_gsfailure        1002c240 f   LIBCMTD:gs_report.obj
 0001:0002b350       ___report_rangecheckfailure 1002c350 f   LIBCMTD:gs_report.obj
 0001:0002b360       ___report_securityfailure  1002c360 f   LIBCMTD:gs_report.obj
 0001:0002b440       ___report_securityfailureEx 1002c440 f   LIBCMTD:gs_report.obj
 0001:0002b5b0       ??$__crt_fast_decode_pointer@P6GHPAU_RTL_CONDITION_VARIABLE@@PAU_RTL_CRITICAL_SECTION@@K@Z@@YAP6GHPAU_RTL_CONDITION_VARIABLE@@PAU_RTL_CRITICAL_SECTION@@K@ZQ6GH01K@Z@Z 1002c5b0 f i LIBCMTD:thread_safe_statics.obj
 0001:0002b5e0       ??$__crt_fast_decode_pointer@P6GXPAU_RTL_CONDITION_VARIABLE@@@Z@@YAP6GXPAU_RTL_CONDITION_VARIABLE@@@ZQ6GX0@Z@Z 1002c5e0 f i LIBCMTD:thread_safe_statics.obj
 0001:0002b610       ??$__crt_fast_encode_pointer@P6GHPAU_RTL_CONDITION_VARIABLE@@PAU_RTL_CRITICAL_SECTION@@K@Z@@YAP6GHPAU_RTL_CONDITION_VARIABLE@@PAU_RTL_CRITICAL_SECTION@@K@ZQ6GH01K@Z@Z 1002c610 f i LIBCMTD:thread_safe_statics.obj
 0001:0002b640       ??$__crt_fast_encode_pointer@P6GXPAU_RTL_CONDITION_VARIABLE@@@Z@@YAP6GXPAU_RTL_CONDITION_VARIABLE@@@ZQ6GX0@Z@Z 1002c640 f i LIBCMTD:thread_safe_statics.obj
 0001:0002b7a0       ?__scrt_is_event_api_used@@YA_NQAX@Z 1002c7a0 f i LIBCMTD:thread_safe_statics.obj
 0001:0002b830       __Init_thread_abort        1002c830 f   LIBCMTD:thread_safe_statics.obj
 0001:0002b850       __Init_thread_footer       1002c850 f   LIBCMTD:thread_safe_statics.obj
 0001:0002b8a0       __Init_thread_header       1002c8a0 f   LIBCMTD:thread_safe_statics.obj
 0001:0002b910       __Init_thread_lock         1002c910 f   LIBCMTD:thread_safe_statics.obj
 0001:0002b920       __Init_thread_notify       1002c920 f   LIBCMTD:thread_safe_statics.obj
 0001:0002b990       __Init_thread_unlock       1002c990 f   LIBCMTD:thread_safe_statics.obj
 0001:0002b9a0       __Init_thread_wait         1002c9a0 f   LIBCMTD:thread_safe_statics.obj
 0001:0002ba40       ??2@YAPAXIABUnothrow_t@std@@@Z 1002ca40 f   LIBCMTD:new_scalar_nothrow.obj
 0001:0002bac0       ??_U@YAPAXIABUnothrow_t@std@@@Z 1002cac0 f   LIBCMTD:new_array_nothrow.obj
 0001:0002bae0       __allmul                   1002cae0 f   LIBCMTD:llmul.obj
 0001:0002bb20       __alloca_probe_16          1002cb20 f   LIBCMTD:alloca16.obj
 0001:0002bb36       __alloca_probe_8           1002cb36     LIBCMTD:alloca16.obj
 0001:0002bb50       __chkstk                   1002cb50 f   LIBCMTD:chkstk.obj
 0001:0002bb50       __alloca_probe             1002cb50 f   LIBCMTD:chkstk.obj
 0001:0002bb80       __alldiv                   1002cb80 f   LIBCMTD:lldiv.obj
 0001:0002bc30       __allrem                   1002cc30 f   LIBCMTD:llrem.obj
 0001:0002c190       __CRT_INIT@12              1002d190 f   LIBCMTD:dll_dllmain.obj
 0001:0002c1b0       __DllMainCRTStartup@12     1002d1b0 f   LIBCMTD:dll_dllmain.obj
 0001:0002c270       ?_RTC_AllocaFailure@@YAXPAXPAU_RTC_ALLOCA_NODE@@H@Z 1002d270 f   LIBCMTD:error.obj
 0001:0002c360       ?_RTC_Failure@@YAXPAXH@Z   1002d360 f   LIBCMTD:error.obj
 0001:0002c3b0       ?_RTC_StackFailure@@YAXPAXPBD@Z 1002d3b0 f   LIBCMTD:error.obj
 0001:0002c770       __RTC_UninitUse            1002d770 f   LIBCMTD:error.obj
 0001:0002c820       __vsprintf_s_l             1002d820 f i LIBCMTD:error.obj
 0001:0002c850       _sprintf_s                 1002d850 f i LIBCMTD:error.obj
 0001:0002c870       ?_RTC_GetErrorFunc@@YAP6AHHPBDH00ZZPBX@Z 1002d870 f   LIBCMTD:userapi.obj
 0001:0002c880       ?_RTC_GetErrorFuncW@@YAP6AHHPB_WH00ZZPBX@Z 1002d880 f   LIBCMTD:userapi.obj
 0001:0002c890       __RTC_GetErrDesc           1002d890 f   LIBCMTD:userapi.obj
 0001:0002c8b0       __RTC_NumErrors            1002d8b0 f   LIBCMTD:userapi.obj
 0001:0002c8c0       __RTC_SetErrorFunc         1002d8c0 f   LIBCMTD:userapi.obj
 0001:0002c8e0       __RTC_SetErrorFuncW        1002d8e0 f   LIBCMTD:userapi.obj
 0001:0002c900       __RTC_SetErrorType         1002d900 f   LIBCMTD:userapi.obj
 0001:0002c930       ??2@YAPAXI@Z               1002d930 f   LIBCMTD:new_scalar.obj
 0001:0002c980       ___isa_available_init      1002d980 f   LIBCMTD:cpu_disp.obj
 0001:0002cc60       __get_startup_argv_mode    1002dc60 f   LIBCMTD:argv_mode.obj
 0001:0002cc70       ___scrt_is_ucrt_dll_in_use 1002dc70 f   LIBCMTD:ucrt_detection.obj
 0001:0002cca0       ___scrt_fastfail           1002dca0 f   LIBCMTD:utility_desktop.obj
 0001:0002cde0       ___scrt_get_show_window_mode 1002dde0 f   LIBCMTD:utility_desktop.obj
 0001:0002ce20       ___scrt_initialize_mta     1002de20 f   LIBCMTD:utility_desktop.obj
 0001:0002ce30       ___scrt_initialize_winrt   1002de30 f   LIBCMTD:utility_desktop.obj
 0001:0002ce40       ___scrt_is_managed_app     1002de40 f   LIBCMTD:utility_desktop.obj
 0001:0002ced0       ___scrt_set_unhandled_exception_filter 1002ded0 f   LIBCMTD:utility_desktop.obj
 0001:0002cee0       ___scrt_exe_initialize_mta 1002dee0 f   LIBCMTD:utility_desktop.obj
 0001:0002cee0       ___scrt_stub_for_initialize_mta 1002dee0 f   LIBCMTD:utility_desktop.obj
 0001:0002cef0       ___scrt_unhandled_exception_filter@4 1002def0 f   LIBCMTD:utility_desktop.obj
 0001:0002cf50       __crt_debugger_hook        1002df50 f   LIBCMTD:utility_desktop.obj
 0001:0002cf60       @_guard_check_icall_nop@4  1002df60 f i LIBCMTD:guard_support.obj
 0001:0002cf70       _ReadNoFence               1002df70 f i LIBCMTD:guard_support.obj
 0001:0002cf90       _ReadPointerNoFence        1002df90 f i LIBCMTD:guard_support.obj
 0001:0002cfb0       __guard_icall_checks_enforced 1002dfb0 f i LIBCMTD:guard_support.obj
 0001:0002d050       ___security_init_cookie    1002e050 f   LIBCMTD:gs_support.obj
 0001:0002d0d0       ?__scrt_initialize_type_info@@YAXXZ 1002e0d0 f   LIBCMTD:tncleanup.obj
 0001:0002d0e0       ?__scrt_uninitialize_type_info@@YAXXZ 1002e0e0 f   LIBCMTD:tncleanup.obj
 0001:0002d100       ___local_stdio_scanf_options 1002e100 f i LIBCMTD:default_local_stdio_options.obj
 0001:0002d110       ___scrt_initialize_default_local_stdio_options 1002e110 f   LIBCMTD:default_local_stdio_options.obj
 0001:0002d150       ___scrt_get_dyn_tls_init_callback 1002e150 f   LIBCMTD:dyn_tls_init.obj
 0001:0002d160       __RTC_Initialize           1002e160 f   LIBCMTD:initsect.obj
 0001:0002d190       __RTC_Terminate            1002e190 f   LIBCMTD:initsect.obj
 0001:0002d640       ?_RTC_GetSrcLine@@YAHPAEPA_WKPAH1K@Z 1002e640 f   LIBCMTD:pdblkup.obj
 0001:0002d9d0       __except_handler4_noexcept 1002e9d0 f   LIBCMTD:chandler4_noexcept.obj
 0001:0002da20       ??0bad_alloc@std@@AAE@QBD@Z 1002ea20 f i LIBCMTD:throw_bad_alloc.obj
 0001:0002da50       ??0bad_alloc@std@@QAE@ABV01@@Z 1002ea50 f i LIBCMTD:throw_bad_alloc.obj
 0001:0002da80       ??0bad_alloc@std@@QAE@XZ   1002ea80 f i LIBCMTD:throw_bad_alloc.obj
 0001:0002dab0       ??0bad_array_new_length@std@@QAE@ABV01@@Z 1002eab0 f i LIBCMTD:throw_bad_alloc.obj
 0001:0002dae0       ??0bad_array_new_length@std@@QAE@XZ 1002eae0 f i LIBCMTD:throw_bad_alloc.obj
 0001:0002db10       ??0exception@std@@QAE@ABV01@@Z 1002eb10 f i LIBCMTD:throw_bad_alloc.obj
 0001:0002db50       ??0exception@std@@QAE@QBDH@Z 1002eb50 f i LIBCMTD:throw_bad_alloc.obj
 0001:0002db80       ??1bad_alloc@std@@UAE@XZ   1002eb80 f i LIBCMTD:throw_bad_alloc.obj
 0001:0002dba0       ??1bad_array_new_length@std@@UAE@XZ 1002eba0 f i LIBCMTD:throw_bad_alloc.obj
 0001:0002dbc0       ??1exception@std@@UAE@XZ   1002ebc0 f i LIBCMTD:throw_bad_alloc.obj
 0001:0002dbf0       ??_Gbad_alloc@std@@UAEPAXI@Z 1002ebf0 f i LIBCMTD:throw_bad_alloc.obj
 0001:0002dbf0       ??_Ebad_alloc@std@@UAEPAXI@Z 1002ebf0 f i LIBCMTD:throw_bad_alloc.obj
 0001:0002dc20       ??_Ebad_array_new_length@std@@UAEPAXI@Z 1002ec20 f i LIBCMTD:throw_bad_alloc.obj
 0001:0002dc20       ??_Gbad_array_new_length@std@@UAEPAXI@Z 1002ec20 f i LIBCMTD:throw_bad_alloc.obj
 0001:0002dc50       ??_Eexception@std@@UAEPAXI@Z 1002ec50 f i LIBCMTD:throw_bad_alloc.obj
 0001:0002dc50       ??_Gexception@std@@UAEPAXI@Z 1002ec50 f i LIBCMTD:throw_bad_alloc.obj
 0001:0002dc80       ?__scrt_throw_std_bad_alloc@@YAXXZ 1002ec80 f   LIBCMTD:throw_bad_alloc.obj
 0001:0002dca0       ?__scrt_throw_std_bad_array_new_length@@YAXXZ 1002eca0 f   LIBCMTD:throw_bad_alloc.obj
 0001:0002dcc0       ?what@exception@std@@UBEPBDXZ 1002ecc0 f i LIBCMTD:throw_bad_alloc.obj
 0001:0002dcf0       ??1type_info@@UAE@XZ       1002ecf0 f   LIBCMTD:std_type_info_static.obj
 0001:0002dd10       ??_Gtype_info@@UAEPAXI@Z   1002ed10 f i LIBCMTD:std_type_info_static.obj
 0001:0002dd10       ??_Etype_info@@UAEPAXI@Z   1002ed10 f i LIBCMTD:std_type_info_static.obj
 0001:0002dd3e       ??$?2PAUHINSTANCE__@@@Wrapper@?$CSimpleArray@PAUHINSTANCE__@@V?$CSimpleArrayEqualHelper@PAUHINSTANCE__@@@ATL@@@ATL@@SAPAXIPAPAUHINSTANCE__@@@Z 1002ed3e f i atls:atlbase.obj
 0001:0002dd46       ??0?$CSimpleArray@PAUHINSTANCE__@@V?$CSimpleArrayEqualHelper@PAUHINSTANCE__@@@ATL@@@ATL@@QAE@XZ 1002ed46 f i atls:atlbase.obj
 0001:0002dd53       ??0CAtlBaseModule@ATL@@QAE@XZ 1002ed53 f   atls:atlbase.obj
 0001:0002dda6       ??0Wrapper@?$CSimpleArray@PAUHINSTANCE__@@V?$CSimpleArrayEqualHelper@PAUHINSTANCE__@@@ATL@@@ATL@@QAE@ABQAUHINSTANCE__@@@Z 1002eda6 f i atls:atlbase.obj
 0001:0002ddb6       ??0_ATL_BASE_MODULE70@ATL@@QAE@XZ 1002edb6 f i atls:atlbase.obj
 0001:0002ddd9       ??1?$CSimpleArray@PAUHINSTANCE__@@V?$CSimpleArrayEqualHelper@PAUHINSTANCE__@@@ATL@@@ATL@@QAE@XZ 1002edd9 f i atls:atlbase.obj
 0001:0002ddde       ??1CAtlBaseModule@ATL@@QAE@XZ 1002edde f   atls:atlbase.obj
 0001:0002ddf4       ??1_ATL_BASE_MODULE70@ATL@@QAE@XZ 1002edf4 f i atls:atlbase.obj
 0001:0002ddfc       ??A?$CSimpleArray@PAUHINSTANCE__@@V?$CSimpleArrayEqualHelper@PAUHINSTANCE__@@@ATL@@@ATL@@QAEAAPAUHINSTANCE__@@H@Z 1002edfc f i atls:atlbase.obj
 0001:0002de21       ?Add@?$CSimpleArray@PAUHINSTANCE__@@V?$CSimpleArrayEqualHelper@PAUHINSTANCE__@@@ATL@@@ATL@@QAEHABQAUHINSTANCE__@@@Z 1002ee21 f i atls:atlbase.obj
 0001:0002dea3       ?AddResourceInstance@CAtlBaseModule@ATL@@QAE_NPAUHINSTANCE__@@@Z 1002eea3 f   atls:atlbase.obj
 0001:0002ded6       ?GetHInstanceAt@CAtlBaseModule@ATL@@QAEPAUHINSTANCE__@@H@Z 1002eed6 f   atls:atlbase.obj
 0001:0002df1b       ?GetSize@?$CSimpleArray@PAUHINSTANCE__@@V?$CSimpleArrayEqualHelper@PAUHINSTANCE__@@@ATL@@@ATL@@QBEHXZ 1002ef1b f i atls:atlbase.obj
 0001:0002df1f       ?InternalSetAtIndex@?$CSimpleArray@PAUHINSTANCE__@@V?$CSimpleArrayEqualHelper@PAUHINSTANCE__@@@ATL@@@ATL@@QAEXHABQAUHINSTANCE__@@@Z 1002ef1f f i atls:atlbase.obj
 0001:0002df39       ?RemoveAll@?$CSimpleArray@PAUHINSTANCE__@@V?$CSimpleArrayEqualHelper@PAUHINSTANCE__@@@ATL@@@ATL@@QAEXXZ 1002ef39 f i atls:atlbase.obj
 0001:0002df56       ?RemoveAt@?$CSimpleArray@PAUHINSTANCE__@@V?$CSimpleArrayEqualHelper@PAUHINSTANCE__@@@ATL@@@ATL@@QAEHH@Z 1002ef56 f i atls:atlbase.obj
 0001:0002dfa4       ?RemoveResourceInstance@CAtlBaseModule@ATL@@QAE_NPAUHINSTANCE__@@@Z 1002efa4 f   atls:atlbase.obj
 0001:0002e001       ?memmove_s@Checked@ATL@@YAXPAXIPBXI@Z 1002f001 f i atls:atlbase.obj
 0001:0002e35e       ?GetCodeAddress@_stdcallthunk@ATL@@QAEPAXXZ 1002f35e f i atls:atlthunk.obj
 0001:0002e388       ?Init@_stdcallthunk@ATL@@QAEHKPAX@Z 1002f388 f i atls:atlthunk.obj
 0001:0002e3bd       ?__AllocStdCallThunk@@YGPAXXZ 1002f3bd f   atls:atlthunk.obj
 0001:0002e3c2       ?__AllocStdCallThunk@ATL@@YGPAXXZ 1002f3c2 f   atls:atlthunk.obj
 0001:0002e3c7       ?__AllocStdCallThunk_cmn@@YAPAXXZ 1002f3c7 f   atls:atlthunk.obj
 0001:0002e48d       ?__FreeStdCallThunk@@YGXPAX@Z 1002f48d f   atls:atlthunk.obj
 0001:0002e49d       ?__FreeStdCallThunk@ATL@@YGXPAX@Z 1002f49d f   atls:atlthunk.obj
 0001:0002e4ad       ?__FreeStdCallThunk_cmn@@YAXPAX@Z 1002f4ad f   atls:atlthunk.obj
 0001:0002e548       _AtlThunk_AllocateData@0   1002f548 f   atls:atlthunk.obj
 0001:0002e5ad       _AtlThunk_DataToCode@4     1002f5ad f   atls:atlthunk.obj
 0001:0002e5f4       _AtlThunk_FreeData@4       1002f5f4 f   atls:atlthunk.obj
 0001:0002e64a       _AtlThunk_InitData@12      1002f64a f   atls:atlthunk.obj
 0001:0002e699       _MemoryBarrier             1002f699 f i atls:atlthunk.obj
 0001:0002e6a7       __InlineInterlockedCompareExchangePointer 1002f6a7 f i atls:atlthunk.obj
 0001:0002e6c0       _memset                    1002f6c0 f   libvcruntimed:memset.obj
 0001:0002e820       ??$__crt_fast_decode_pointer@P6AXXZ@@YAP6AXXZQ6AXXZ@Z 1002f820 f i libvcruntimed:purevirt.obj
 0001:0002e850       ??$__crt_fast_encode_pointer@P6AXXZ@@YAP6AXXZQ6AXXZ@Z 1002f850 f i libvcruntimed:purevirt.obj
 0001:0002e880       ??$__crt_interlocked_exchange_pointer@$$A6AXXZP6AXXZ@@YAP6AXXZPDS6AXXZQ6AXXZ@Z 1002f880 f i libvcruntimed:purevirt.obj
 0001:0002e890       ??$__crt_interlocked_read_pointer@$$A6AXXZ@@YAP6AXXZPDS6AXXZ@Z 1002f890 f i libvcruntimed:purevirt.obj
 0001:0002e8b0       ?__crt_interlocked_read_32@@YAHPDH@Z 1002f8b0 f i libvcruntimed:purevirt.obj
 0001:0002e8d0       __get_purecall_handler     1002f8d0 f   libvcruntimed:purevirt.obj
 0001:0002e8f0       __purecall                 1002f8f0 f   libvcruntimed:purevirt.obj
 0001:0002e920       __set_purecall_handler     1002f920 f   libvcruntimed:purevirt.obj
 0001:0002eb00       _memcmp                    1002fb00 f   libvcruntimed:memcmp.obj
 0001:0002f3d0       _memcpy                    100303d0 f   libvcruntimed:memcpy.obj
 0001:0002f950       _wcsstr                    10030950 f   libvcruntimed:wcsstr.obj
 0001:0002fe80       __except_handler4          10030e80 f   libvcruntimed:chandler4.obj
 0001:00030050       ___vcrt_initialize         10031050 f   libvcruntimed:initialization.obj
 0001:00030090       ___vcrt_thread_attach      10031090 f   libvcruntimed:initialization.obj
 0001:000300b0       ___vcrt_thread_detach      100310b0 f   libvcruntimed:initialization.obj
 0001:000300d0       ___vcrt_uninitialize       100310d0 f   libvcruntimed:initialization.obj
 0001:000300f0       ___vcrt_uninitialize_critical 100310f0 f   libvcruntimed:initialization.obj
 0001:00030110       ??$?0AAViterator@TryBlockMap@__FrameHandler3@@AAV012@$0A@@?$pair@Viterator@TryBlockMap@__FrameHandler3@@V123@@std@@QAE@AAViterator@TryBlockMap@__FrameHandler3@@0@Z 10031110 f i libvcruntimed:trnsctrl.obj
 0001:00030160       ??$forward@AAViterator@TryBlockMap@__FrameHandler3@@@std@@YAAAViterator@TryBlockMap@__FrameHandler3@@AAV123@@Z 10031160 f i libvcruntimed:trnsctrl.obj
 0001:00030170       ??0iterator@TryBlockMap@__FrameHandler3@@QAE@AAV12@I@Z 10031170 f i libvcruntimed:trnsctrl.obj
 0001:000301a0       ?GetRangeOfTrysToCheck@__FrameHandler3@@SA?AU?$pair@Viterator@TryBlockMap@__FrameHandler3@@V123@@std@@AAVTryBlockMap@1@HH@Z 100311a0 f   libvcruntimed:trnsctrl.obj
 0001:00030290       ?_CallCatchBlock2@@YAPAXPAUEHRegistrationNode@@PBU_s_FuncInfo@@PAXHK@Z 10031290 f   libvcruntimed:trnsctrl.obj
 0001:00030300       ?_CallSETranslator@@YAHPAUEHExceptionRecord@@PAUEHRegistrationNode@@PAX2PBU_s_FuncInfo@@H1@Z 10031300 f   libvcruntimed:trnsctrl.obj
 0001:000303f0       ?_JumpToContinuation@@YGXPAXPAUEHRegistrationNode@@@Z 100313f0 f   libvcruntimed:trnsctrl.obj
 0001:00030430       ?_UnwindNestedFrames@@YGXPAUEHRegistrationNode@@PAUEHExceptionRecord@@@Z 10031430 f   libvcruntimed:trnsctrl.obj
 0001:00030490       ?getFuncInfo@TryBlockMap@__FrameHandler3@@QAEPBU_s_FuncInfo@@XZ 10031490 f i libvcruntimed:trnsctrl.obj
 0001:000304a0       __CatchGuardHandler        100314a0 f   libvcruntimed:trnsctrl.obj
 0001:000304f0       __CreateFrameInfo          100314f0 f   libvcruntimed:trnsctrl.obj
 0001:00030520       __FindAndUnlinkFrame       10031520 f   libvcruntimed:trnsctrl.obj
 0001:00030590       __TranslatorGuardHandler   10031590 f   libvcruntimed:trnsctrl.obj
 0001:00030640       ___CxxFrameHandler         10031640 f   libvcruntimed:trnsctrl.obj
 0001:00030680       ___CxxFrameHandler2        10031680 f   libvcruntimed:trnsctrl.obj
 0001:000306c0       ___CxxFrameHandler3        100316c0 f   libvcruntimed:trnsctrl.obj
 0001:00030700       ___CxxLongjmpUnwind@4      10031700 f   libvcruntimed:trnsctrl.obj
 0001:00030760       ??$?RD@__crt_internal_free_policy@@QBEXQBD@Z 10031760 f i libvcruntimed:std_type_info.obj
 0001:00030780       ??$?RX@__crt_internal_free_policy@@QBEXQBX@Z 10031780 f i libvcruntimed:std_type_info.obj
 0001:000307a0       ??$__crt_interlocked_compare_exchange_pointer@$$CBDPAD$$T@@YAPBDPDSBDQAD$$T@Z 100317a0 f i libvcruntimed:std_type_info.obj
 0001:000307c0       ??$__crt_interlocked_read_pointer@$$CBD@@YAPBDPDSBD@Z 100317c0 f i libvcruntimed:std_type_info.obj
 0001:000307e0       ??0?$__crt_unique_heap_ptr@DU__crt_internal_free_policy@@@@QAE@QAD@Z 100317e0 f i libvcruntimed:std_type_info.obj
 0001:00030800       ??0?$__crt_unique_heap_ptr@XU__crt_internal_free_policy@@@@QAE@QAX@Z 10031800 f i libvcruntimed:std_type_info.obj
 0001:00030820       ??1?$__crt_unique_heap_ptr@DU__crt_internal_free_policy@@@@QAE@XZ 10031820 f i libvcruntimed:std_type_info.obj
 0001:00030840       ??1?$__crt_unique_heap_ptr@XU__crt_internal_free_policy@@@@QAE@XZ 10031840 f i libvcruntimed:std_type_info.obj
 0001:00030880       ??B?$__crt_unique_heap_ptr@DU__crt_internal_free_policy@@@@QBE_NXZ 10031880 f i libvcruntimed:std_type_info.obj
 0001:000308a0       ??B?$__crt_unique_heap_ptr@XU__crt_internal_free_policy@@@@QBE_NXZ 100318a0 f i libvcruntimed:std_type_info.obj
 0001:00030910       ?detach@?$__crt_unique_heap_ptr@XU__crt_internal_free_policy@@@@QAEPAXXZ 10031910 f i libvcruntimed:std_type_info.obj
 0001:00030940       ?get@?$__crt_unique_heap_ptr@DU__crt_internal_free_policy@@@@QBEPADXZ 10031940 f i libvcruntimed:std_type_info.obj
 0001:00030950       ?get@?$__crt_unique_heap_ptr@XU__crt_internal_free_policy@@@@QBEPAXXZ 10031950 f i libvcruntimed:std_type_info.obj
 0001:00030960       ?is_valid@?$__crt_unique_heap_ptr@DU__crt_internal_free_policy@@@@QBE_NXZ 10031960 f i libvcruntimed:std_type_info.obj
 0001:00030990       ?is_valid@?$__crt_unique_heap_ptr@XU__crt_internal_free_policy@@@@QBE_NXZ 10031990 f i libvcruntimed:std_type_info.obj
 0001:000309c0       ?release@?$__crt_unique_heap_ptr@DU__crt_internal_free_policy@@@@QAEXXZ 100319c0 f i libvcruntimed:std_type_info.obj
 0001:000309f0       ?release@?$__crt_unique_heap_ptr@XU__crt_internal_free_policy@@@@QAEXXZ 100319f0 f i libvcruntimed:std_type_info.obj
 0001:00030a20       ___std_type_info_compare   10031a20 f   libvcruntimed:std_type_info.obj
 0001:00030a50       ___std_type_info_destroy_list 10031a50 f   libvcruntimed:std_type_info.obj
 0001:00030a90       ___std_type_info_hash      10031a90 f   libvcruntimed:std_type_info.obj
 0001:00030af0       ___std_type_info_name      10031af0 f   libvcruntimed:std_type_info.obj
 0001:00030cd0       ___vcrt_GetModuleFileNameW 10031cd0 f   libvcruntimed:winapi_thunks.obj
 0001:00030cf0       ___vcrt_GetModuleHandleW   10031cf0 f   libvcruntimed:winapi_thunks.obj
 0001:00030d00       ___vcrt_LoadLibraryExW     10031d00 f   libvcruntimed:winapi_thunks.obj
 0001:00030d20       ??$?RD@__crt_public_free_policy@@QBEXQBD@Z 10031d20 f i libvcruntimed:std_exception.obj
 0001:00030d40       ??0?$__crt_unique_heap_ptr@DU__crt_public_free_policy@@@@QAE@QAD@Z 10031d40 f i libvcruntimed:std_exception.obj
 0001:00030d60       ??1?$__crt_unique_heap_ptr@DU__crt_public_free_policy@@@@QAE@XZ 10031d60 f i libvcruntimed:std_exception.obj
 0001:00030d80       ??B?$__crt_unique_heap_ptr@DU__crt_public_free_policy@@@@QBE_NXZ 10031d80 f i libvcruntimed:std_exception.obj
 0001:00030da0       ?detach@?$__crt_unique_heap_ptr@DU__crt_public_free_policy@@@@QAEPADXZ 10031da0 f i libvcruntimed:std_exception.obj
 0001:00030dd0       ?get@?$__crt_unique_heap_ptr@DU__crt_public_free_policy@@@@QBEPADXZ 10031dd0 f i libvcruntimed:std_exception.obj
 0001:00030de0       ?is_valid@?$__crt_unique_heap_ptr@DU__crt_public_free_policy@@@@QBE_NXZ 10031de0 f i libvcruntimed:std_exception.obj
 0001:00030e10       ?release@?$__crt_unique_heap_ptr@DU__crt_public_free_policy@@@@QAEXXZ 10031e10 f i libvcruntimed:std_exception.obj
 0001:00030e40       ___std_exception_copy      10031e40 f   libvcruntimed:std_exception.obj
 0001:00030f20       ___std_exception_destroy   10031f20 f   libvcruntimed:std_exception.obj
 0001:00030f50       __CxxThrowException@8      10031f50 f   libvcruntimed:throw.obj
 0001:00031010       _memmove                   10032010 f   libvcruntimed:memmove.obj
 0001:00031590       ??$?B$$A6AXXZ@__crt_fast_encoded_nullptr_t@@QBEP6AXXZXZ 10032590 f i libvcruntimed:purevirt_data.obj
 0001:000315b0       ?__crt_fast_encode_pointer@@YA?AU__crt_fast_encoded_nullptr_t@@$$T@Z 100325b0 f i libvcruntimed:purevirt_data.obj
 0001:000315c0       ___vcrt_initialize_pure_virtual_call_handler 100325c0 f   libvcruntimed:purevirt_data.obj
 0001:000315f0       __local_unwind4            100325f0 f   libvcruntimed:exsup4.obj
 0001:000316c8       __seh_longjmp_unwind4@4    100326c8 f   libvcruntimed:exsup4.obj
 0001:000316f0       @_EH4_CallFilterFunc@8     100326f0 f   libvcruntimed:exsup4.obj
 0001:00031708       @_EH4_TransferToHandler@8  10032708 f   libvcruntimed:exsup4.obj
 0001:00031724       @_EH4_GlobalUnwind2@8      10032724 f   libvcruntimed:exsup4.obj
 0001:00031740       @_EH4_LocalUnwind@16       10032740 f   libvcruntimed:exsup4.obj
 0001:00031770       ___except_validate_context_record 10032770 f   libvcruntimed:jbcxrval.obj
 0001:000317c0       ___except_validate_jump_buffer 100327c0 f   libvcruntimed:jbcxrval.obj
 0001:000317e0       ___except_validate_jump_buffer_common 100327e0 f i libvcruntimed:jbcxrval.obj
 0001:00031840       ??$?RU__vcrt_ptd@@@__crt_internal_free_policy@@QBEXQBU__vcrt_ptd@@@Z 10032840 f i libvcruntimed:per_thread_data.obj
 0001:00031860       ??0?$__crt_unique_heap_ptr@U__vcrt_ptd@@U__crt_internal_free_policy@@@@QAE@QAU__vcrt_ptd@@@Z 10032860 f i libvcruntimed:per_thread_data.obj
 0001:000318a0       ??1?$__crt_unique_heap_ptr@U__vcrt_ptd@@U__crt_internal_free_policy@@@@QAE@XZ 100328a0 f i libvcruntimed:per_thread_data.obj
 0001:000318e0       ??B?$__crt_unique_heap_ptr@U__vcrt_ptd@@U__crt_internal_free_policy@@@@QBE_NXZ 100328e0 f i libvcruntimed:per_thread_data.obj
 0001:00031900       ?detach@?$__crt_unique_heap_ptr@U__vcrt_ptd@@U__crt_internal_free_policy@@@@QAEPAU__vcrt_ptd@@XZ 10032900 f i libvcruntimed:per_thread_data.obj
 0001:00031930       ?get@?$__crt_unique_heap_ptr@U__vcrt_ptd@@U__crt_internal_free_policy@@@@QBEPAU__vcrt_ptd@@XZ 10032930 f i libvcruntimed:per_thread_data.obj
 0001:00031940       ?is_valid@?$__crt_unique_heap_ptr@U__vcrt_ptd@@U__crt_internal_free_policy@@@@QBE_NXZ 10032940 f i libvcruntimed:per_thread_data.obj
 0001:00031970       ?release@?$__crt_unique_heap_ptr@U__vcrt_ptd@@U__crt_internal_free_policy@@@@QAEXXZ 10032970 f i libvcruntimed:per_thread_data.obj
 0001:000319d0       ___vcrt_freefls@4          100329d0 f   libvcruntimed:per_thread_data.obj
 0001:00031a00       ___vcrt_freeptd            10032a00 f   libvcruntimed:per_thread_data.obj
 0001:00031a60       ___vcrt_getptd             10032a60 f   libvcruntimed:per_thread_data.obj
 0001:00031a80       ___vcrt_getptd_noexit      10032a80 f   libvcruntimed:per_thread_data.obj
 0001:00031be0       ___vcrt_getptd_noinit      10032be0 f   libvcruntimed:per_thread_data.obj
 0001:00031c40       ___vcrt_initialize_ptd     10032c40 f   libvcruntimed:per_thread_data.obj
 0001:00031c90       ___vcrt_uninitialize_ptd   10032c90 f   libvcruntimed:per_thread_data.obj
 0001:00031cc0       ___vcrt_initialize_locks   10032cc0 f   libvcruntimed:locks.obj
 0001:00031d20       ___vcrt_lock               10032d20 f   libvcruntimed:locks.obj
 0001:00031d40       ___vcrt_uninitialize_locks 10032d40 f   libvcruntimed:locks.obj
 0001:00031d90       ___vcrt_unlock             10032d90 f   libvcruntimed:locks.obj
 0001:00031db0       ??$?BX@__crt_fast_encoded_nullptr_t@@QBEPAXXZ 10032db0 f i libvcruntimed:winapi_downlevel.obj
 0001:00031dd0       ??$__crt_fast_decode_pointer@PAX@@YAPAXQAX@Z 10032dd0 f i libvcruntimed:winapi_downlevel.obj
 0001:00031e00       ??$__crt_fast_encode_pointer@PAX@@YAPAXQAX@Z 10032e00 f i libvcruntimed:winapi_downlevel.obj
 0001:00031e30       ??$__crt_interlocked_exchange_pointer@UHINSTANCE__@@PAU1@@@YAPAUHINSTANCE__@@PDSAU0@QAU0@@Z 10032e30 f i libvcruntimed:winapi_downlevel.obj
 0001:00031e40       ??$__crt_interlocked_exchange_pointer@UHINSTANCE__@@PAX@@YAPAUHINSTANCE__@@PDSAU0@QAX@Z 10032e40 f i libvcruntimed:winapi_downlevel.obj
 0001:00031e50       ??$__crt_interlocked_exchange_pointer@XPAX@@YAPAXPDSAXQAX@Z 10032e50 f i libvcruntimed:winapi_downlevel.obj
 0001:00031e60       ??$__crt_interlocked_read_pointer@UHINSTANCE__@@@@YAPAUHINSTANCE__@@PDSAU0@@Z 10032e60 f i libvcruntimed:winapi_downlevel.obj
 0001:00031e80       ??$__crt_interlocked_read_pointer@X@@YAPAXPDSAX@Z 10032e80 f i libvcruntimed:winapi_downlevel.obj
 0001:00032290       ___vcrt_FlsAlloc           10033290 f   libvcruntimed:winapi_downlevel.obj
 0001:000322d0       ___vcrt_FlsFree            100332d0 f   libvcruntimed:winapi_downlevel.obj
 0001:00032310       ___vcrt_FlsGetValue        10033310 f   libvcruntimed:winapi_downlevel.obj
 0001:00032350       ___vcrt_FlsSetValue        10033350 f   libvcruntimed:winapi_downlevel.obj
 0001:000323a0       ___vcrt_InitializeCriticalSectionEx 100333a0 f   libvcruntimed:winapi_downlevel.obj
 0001:000323f0       ___vcrt_initialize_winapi_thunks 100333f0 f   libvcruntimed:winapi_downlevel.obj
 0001:00032450       ___vcrt_uninitialize_winapi_thunks 10033450 f   libvcruntimed:winapi_downlevel.obj
 0001:00033090       ??$TypeMatchHelper@V__FrameHandler3@@@@YAHPBU_s_HandlerType@@PBU_s_CatchableType@@PBU_s_ThrowInfo@@@Z 10034090 f i libvcruntimed:frame.obj
 0001:00033170       ??$__InternalCxxFrameHandler@V__FrameHandler3@@@@YA?AW4_EXCEPTION_DISPOSITION@@PAUEHExceptionRecord@@PAUEHRegistrationNode@@PAU_CONTEXT@@PAXPBU_s_FuncInfo@@H1E@Z 10034170 f i libvcruntimed:frame.obj
 0001:00033350       ??0HandlerMap@__FrameHandler3@@QAE@PBU_s_TryBlockMapEntry@@PAX@Z 10034350 f i libvcruntimed:frame.obj
 0001:00033380       ??0TryBlockMap@__FrameHandler3@@QAE@PBU_s_FuncInfo@@PAX@Z 10034380 f i libvcruntimed:frame.obj
 0001:000333b0       ??0bad_exception@std@@QAE@ABV01@@Z 100343b0 f i libvcruntimed:frame.obj
 0001:000333e0       ??0bad_exception@std@@QAE@XZ 100343e0 f i libvcruntimed:frame.obj
 0001:00033410       ??0iterator@HandlerMap@__FrameHandler3@@QAE@AAV12@I@Z 10034410 f i libvcruntimed:frame.obj
 0001:00033440       ??1bad_exception@std@@UAE@XZ 10034440 f i libvcruntimed:frame.obj
 0001:00033460       ??8iterator@HandlerMap@__FrameHandler3@@QBE_NABV012@@Z 10034460 f i libvcruntimed:frame.obj
 0001:00033490       ??8type_info@@QBE_NABV0@@Z 10034490 f i libvcruntimed:frame.obj
 0001:000334d0       ??9iterator@HandlerMap@__FrameHandler3@@QBE_NABV012@@Z 100344d0 f i libvcruntimed:frame.obj
 0001:00033510       ??Diterator@HandlerMap@__FrameHandler3@@QAEPBU_s_HandlerType@@XZ 10034510 f i libvcruntimed:frame.obj
 0001:00033530       ??Diterator@TryBlockMap@__FrameHandler3@@QAEPBU_s_TryBlockMapEntry@@XZ 10034530 f i libvcruntimed:frame.obj
 0001:00033550       ??Eiterator@HandlerMap@__FrameHandler3@@QAEAAV012@XZ 10034550 f i libvcruntimed:frame.obj
 0001:00033570       ??Eiterator@TryBlockMap@__FrameHandler3@@QAEAAV012@XZ 10034570 f i libvcruntimed:frame.obj
 0001:00033590       ??Miterator@TryBlockMap@__FrameHandler3@@QBE_NABV012@@Z 10034590 f i libvcruntimed:frame.obj
 0001:000335c0       ??_Ebad_exception@std@@UAEPAXI@Z 100345c0 f i libvcruntimed:frame.obj
 0001:000335c0       ??_Gbad_exception@std@@UAEPAXI@Z 100345c0 f i libvcruntimed:frame.obj
 0001:000335f0       ?BuildCatchObject@__FrameHandler3@@SAXPAUEHExceptionRecord@@PAXPBU_s_HandlerType@@PBU_s_CatchableType@@@Z 100345f0 f   libvcruntimed:frame.obj
 0001:00033610       ?BuildCatchObjectHelper@__FrameHandler3@@SAHPAUEHExceptionRecord@@PAXPBU_s_HandlerType@@PBU_s_CatchableType@@@Z 10034610 f   libvcruntimed:frame.obj
 0001:000339b0       ?FrameUnwindToEmptyState@__FrameHandler3@@SAXPAUEHRegistrationNode@@PAXPBU_s_FuncInfo@@@Z 100349b0 f   libvcruntimed:frame.obj
 0001:000339d0       ?FrameUnwindToState@__FrameHandler3@@SAXPAUEHRegistrationNode@@PAXPBU_s_FuncInfo@@H@Z 100349d0 f   libvcruntimed:frame.obj
 0001:00033b50       ?GetMaxState@__FrameHandler3@@SAHPAXPBU_s_FuncInfo@@@Z 10034b50 f i libvcruntimed:frame.obj
 0001:00033c80       ?TypeMatch@__FrameHandler3@@SAHPBU_s_HandlerType@@PBU_s_CatchableType@@PBU_s_ThrowInfo@@@Z 10034c80 f   libvcruntimed:frame.obj
 0001:00033ca0       ?_CallMemberFunction1@@YGXQAX00@Z 10034ca0 f i libvcruntimed:frame.obj
 0001:00033cc0       ?_CallMemberFunction2@@YGXQAX00H@Z 10034cc0 f i libvcruntimed:frame.obj
 0001:00033ce0       ?_ValidateExecute@@YA_NP6GHXZ@Z 10034ce0 f i libvcruntimed:frame.obj
 0001:00033d00       ?_ValidateRead@@YA_NPBXI@Z 10034d00 f i libvcruntimed:frame.obj
 0001:00033d20       ?_ValidateWrite@@YA_NPAXI@Z 10034d20 f i libvcruntimed:frame.obj
 0001:00033d40       ?begin@HandlerMap@__FrameHandler3@@QAE?AViterator@12@XZ 10034d40 f i libvcruntimed:frame.obj
 0001:00033d60       ?end@HandlerMap@__FrameHandler3@@QAE?AViterator@12@XZ 10034d60 f i libvcruntimed:frame.obj
 0001:00033d90       ?getESTypes@__FrameHandler3@@SAPBU_s_ESTypeList@@PBU_s_FuncInfo@@@Z 10034d90 f i libvcruntimed:frame.obj
 0001:00033da0       ?getLastEntry@HandlerMap@__FrameHandler3@@QAEPBU_s_HandlerType@@XZ 10034da0 f i libvcruntimed:frame.obj
 0001:00033dc0       ?getMagicNum@__FrameHandler3@@SAIPBU_s_FuncInfo@@@Z 10034dc0 f i libvcruntimed:frame.obj
 0001:00033dd0       ?getNumTryBlocks@TryBlockMap@__FrameHandler3@@QAEIXZ 10034dd0 f i libvcruntimed:frame.obj
 0001:00033df0       ?isEHs@__FrameHandler3@@SA_NPBU_s_FuncInfo@@@Z 10034df0 f i libvcruntimed:frame.obj
 0001:00033e20       ?isNoExcept@__FrameHandler3@@SA_NPBU_s_FuncInfo@@@Z 10034e20 f i libvcruntimed:frame.obj
 0001:00033e50       ___BuildCatchObject        10034e50 f   libvcruntimed:frame.obj
 0001:00033e70       ___BuildCatchObjectHelper  10034e70 f   libvcruntimed:frame.obj
 0001:00033e90       ___TypeMatch               10034e90 f   libvcruntimed:frame.obj
 0001:00033eb0       ___vcrt_EncodePointer      10034eb0 f i libvcruntimed:frame.obj
 0001:00033ec0       __CallSettingFrame@12      10034ec0 f   libvcruntimed:lowhelpr.obj
 0001:00033ee7       __NLG_Return               10034ee7     libvcruntimed:lowhelpr.obj
 0001:00033f10       ??0Block@_HeapManager@@QAE@XZ 10034f10 f i libvcruntimed:undname.obj
 0001:00033f30       ??0DName@@QAE@AAPBDD@Z     10034f30 f   libvcruntimed:undname.obj
 0001:00034160       ??0DName@@QAE@ABV0@@Z      10035160 f i libvcruntimed:undname.obj
 0001:00034190       ??0DName@@QAE@D@Z          10035190 f   libvcruntimed:undname.obj
 0001:000341d0       ??0DName@@QAE@PAV0@@Z      100351d0 f   libvcruntimed:undname.obj
 0001:00034280       ??0DName@@QAE@PBD@Z        10035280 f   libvcruntimed:undname.obj
 0001:000342d0       ??0DName@@QAE@W4DNameStatus@@@Z 100352d0 f   libvcruntimed:undname.obj
 0001:00034370       ??0DName@@QAE@XZ           10035370 f i libvcruntimed:undname.obj
 0001:000343a0       ??0DName@@QAE@_J@Z         100353a0 f   libvcruntimed:undname.obj
 0001:00034490       ??0DName@@QAE@_K@Z         10035490 f   libvcruntimed:undname.obj
 0001:00034540       ??0DNameNode@@IAE@XZ       10035540 f i libvcruntimed:undname.obj
 0001:00034560       ??0Replicator@@QAE@XZ      10035560 f i libvcruntimed:undname.obj
 0001:000345a0       ??0UnDecorator@@QAE@PBDP6APADJ@ZK@Z 100355a0 f i libvcruntimed:undname.obj
 0001:00034620       ??0charNode@@QAE@D@Z       10035620 f i libvcruntimed:undname.obj
 0001:00034650       ??0pDNameNode@@QAE@PAVDName@@@Z 10035650 f   libvcruntimed:undname.obj
 0001:000346b0       ??0pairNode@@QAE@PBVDNameNode@@0@Z 100356b0 f i libvcruntimed:undname.obj
 0001:000346f0       ??0pcharNode@@QAE@PBDH@Z   100356f0 f   libvcruntimed:undname.obj
 0001:000347b0       ??2@YAPAXIAAV_HeapManager@@H@Z 100357b0 f i libvcruntimed:undname.obj
 0001:000347d0       ??4DName@@QAEAAV0@ABV0@@Z  100357d0 f   libvcruntimed:undname.obj
 0001:00034800       ??4DName@@QAEAAV0@D@Z      10035800 f i libvcruntimed:undname.obj
 0001:00034840       ??4DName@@QAEAAV0@PAV0@@Z  10035840 f   libvcruntimed:undname.obj
 0001:000348e0       ??4DName@@QAEAAV0@PBD@Z    100358e0 f   libvcruntimed:undname.obj
 0001:00034920       ??4DName@@QAEAAV0@W4DNameStatus@@@Z 10035920 f   libvcruntimed:undname.obj
 0001:000349a0       ??AReplicator@@QBE?AVDName@@H@Z 100359a0 f   libvcruntimed:undname.obj
 0001:00034a10       ??H@YA?AVDName@@DABV0@@Z   10035a10 f i libvcruntimed:undname.obj
 0001:00034a40       ??H@YA?AVDName@@PBDABV0@@Z 10035a40 f i libvcruntimed:undname.obj
 0001:00034a70       ??H@YA?AVDName@@W4DNameStatus@@ABV0@@Z 10035a70 f i libvcruntimed:undname.obj
 0001:00034aa0       ??HDName@@QBE?AV0@ABV0@@Z  10035aa0 f   libvcruntimed:undname.obj
 0001:00034ae0       ??HDName@@QBE?AV0@D@Z      10035ae0 f   libvcruntimed:undname.obj
 0001:00034b20       ??HDName@@QBE?AV0@PAV0@@Z  10035b20 f   libvcruntimed:undname.obj
 0001:00034b60       ??HDName@@QBE?AV0@PBD@Z    10035b60 f   libvcruntimed:undname.obj
 0001:00034ba0       ??HDName@@QBE?AV0@W4DNameStatus@@@Z 10035ba0 f   libvcruntimed:undname.obj
 0001:00034be0       ??YDName@@QAEAAV0@ABV0@@Z  10035be0 f   libvcruntimed:undname.obj
 0001:00034c50       ??YDName@@QAEAAV0@D@Z      10035c50 f   libvcruntimed:undname.obj
 0001:00034cd0       ??YDName@@QAEAAV0@PAV0@@Z  10035cd0 f   libvcruntimed:undname.obj
 0001:00034d90       ??YDName@@QAEAAV0@PBD@Z    10035d90 f   libvcruntimed:undname.obj
 0001:00034e30       ??YDName@@QAEAAV0@W4DNameStatus@@@Z 10035e30 f   libvcruntimed:undname.obj
 0001:00034e90       ??YReplicator@@QAEAAV0@ABVDName@@@Z 10035e90 f   libvcruntimed:undname.obj
 0001:00034f20       ??_5DName@@QAEAAV0@ABV0@@Z 10035f20 f   libvcruntimed:undname.obj
 0001:00034f80       ?Constructor@_HeapManager@@QAEXP6APAXI@ZP6AXPAX@Z@Z 10035f80 f i libvcruntimed:undname.obj
 0001:00034fc0       ?Destructor@_HeapManager@@QAEXXZ 10035fc0 f i libvcruntimed:undname.obj
 0001:00035020       ?UScore@UnDecorator@@SAPBDW4Tokens@@@Z 10036020 f   libvcruntimed:undname.obj
 0001:00035050       ?append@DName@@AAEXPBVDNameNode@@@Z 10036050 f   libvcruntimed:undname.obj
 0001:000350e0       ?composeDeclaration@UnDecorator@@CA?AVDName@@ABV2@@Z 100360e0 f i libvcruntimed:undname.obj
 0001:00037000       ?dbGetString@DName@@QBEPADXZ 10038000 f   libvcruntimed:undname.obj
 0001:00037020       ?doAccessSpecifiers@UnDecorator@@SAHXZ 10038020 f i libvcruntimed:undname.obj
 0001:00037050       ?doAllocationLanguage@UnDecorator@@SAHXZ 10038050 f i libvcruntimed:undname.obj
 0001:00037080       ?doAllocationModel@UnDecorator@@SAHXZ 10038080 f i libvcruntimed:undname.obj
 0001:000370b0       ?doEcsu@UnDecorator@@SAHXZ 100380b0 f i libvcruntimed:undname.obj
 0001:000370e0       ?doEllipsis@UnDecorator@@SAHXZ 100380e0 f i libvcruntimed:undname.obj
 0001:00037110       ?doFunctionReturns@UnDecorator@@SAHXZ 10038110 f i libvcruntimed:undname.obj
 0001:00037140       ?doMSKeywords@UnDecorator@@SAHXZ 10038140 f i libvcruntimed:undname.obj
 0001:00037170       ?doMemberTypes@UnDecorator@@SAHXZ 10038170 f i libvcruntimed:undname.obj
 0001:000371a0       ?doNameOnly@UnDecorator@@SAHXZ 100381a0 f i libvcruntimed:undname.obj
 0001:000371b0       ?doNoIdentCharCheck@UnDecorator@@SAHXZ 100381b0 f i libvcruntimed:undname.obj
 0001:000371c0       ?doPchar@DName@@AAEXPBDH@Z 100381c0 f   libvcruntimed:undname.obj
 0001:00037300       ?doPtr64@UnDecorator@@SAHXZ 10038300 f i libvcruntimed:undname.obj
 0001:00037330       ?doRestrictionSpec@UnDecorator@@SAHXZ 10038330 f i libvcruntimed:undname.obj
 0001:00037360       ?doThisTypes@UnDecorator@@SAHXZ 10038360 f i libvcruntimed:undname.obj
 0001:00037390       ?doThrowTypes@UnDecorator@@SAHXZ 10038390 f i libvcruntimed:undname.obj
 0001:000373c0       ?doTypeOnly@UnDecorator@@SAHXZ 100383c0 f i libvcruntimed:undname.obj
 0001:000373d0       ?doUnderScore@UnDecorator@@SAHXZ 100383d0 f i libvcruntimed:undname.obj
 0001:00037400       ?getArgumentList@UnDecorator@@CA?AVDName@@XZ 10038400 f   libvcruntimed:undname.obj
 0001:00037550       ?getArgumentTypes@UnDecorator@@CA?AVDName@@XZ 10038550 f   libvcruntimed:undname.obj
 0001:000376a0       ?getArrayType@UnDecorator@@CA?AVDName@@ABV2@@Z 100386a0 f i libvcruntimed:undname.obj
 0001:00037920       ?getBasedType@UnDecorator@@CA?AVDName@@XZ 10038920 f   libvcruntimed:undname.obj
 0001:000379f0       ?getBasicDataType@UnDecorator@@CA?AVDName@@ABV2@@Z 100389f0 f   libvcruntimed:undname.obj
 0001:00038010       ?getCHPEName@UnDecorator@@QAEPADPADH@Z 10039010 f i libvcruntimed:undname.obj
 0001:00038170       ?getCallIndex@UnDecorator@@CA?AVDName@@XZ 10039170 f i libvcruntimed:undname.obj
 0001:00038190       ?getCallingConvention@UnDecorator@@CA?AVDName@@XZ 10039190 f   libvcruntimed:undname.obj
 0001:000383b0       ?getDataIndirectType@UnDecorator@@CA?AVDName@@ABV2@PBD0H@Z 100393b0 f   libvcruntimed:undname.obj
 0001:00038cb0       ?getDataIndirectType@UnDecorator@@CA?AVDName@@XZ 10039cb0 f i libvcruntimed:undname.obj
 0001:00038cf0       ?getDataType@UnDecorator@@CA?AVDName@@PAV2@@Z 10039cf0 f   libvcruntimed:undname.obj
 0001:00038e10       ?getDecoratedName@UnDecorator@@CA?AVDName@@XZ 10039e10 f   libvcruntimed:undname.obj
 0001:00039240       ?getDimension@UnDecorator@@CA?AVDName@@_N@Z 1003a240 f   libvcruntimed:undname.obj
 0001:000394f0       ?getDispatchTarget@UnDecorator@@CA?AVDName@@XZ 1003a4f0 f   libvcruntimed:undname.obj
 0001:00039590       ?getDisplacement@UnDecorator@@CA?AVDName@@XZ 1003a590 f i libvcruntimed:undname.obj
 0001:000395b0       ?getECSUDataType@UnDecorator@@CA?AVDName@@XZ 1003a5b0 f   libvcruntimed:undname.obj
 0001:00039790       ?getECSUName@UnDecorator@@CA?AVDName@@XZ 1003a790 f i libvcruntimed:undname.obj
 0001:000397b0       ?getEnumType@UnDecorator@@CA?AVDName@@XZ 1003a7b0 f i libvcruntimed:undname.obj
 0001:00039900       ?getExtendedDataIndirectType@UnDecorator@@CA?AVDName@@AAPBDAA_NH@Z 1003a900 f   libvcruntimed:undname.obj
 0001:00039b60       ?getExternalDataType@UnDecorator@@CA?AVDName@@ABV2@@Z 1003ab60 f i libvcruntimed:undname.obj
 0001:00039c00       ?getFunctionIndirectType@UnDecorator@@CA?AVDName@@ABV2@@Z 1003ac00 f   libvcruntimed:undname.obj
 0001:0003a150       ?getGuardNumber@UnDecorator@@CA?AVDName@@XZ 1003b150 f i libvcruntimed:undname.obj
 0001:0003a170       ?getLastChar@DName@@QBEDXZ 1003b170 f i libvcruntimed:undname.obj
 0001:0003a1b0       ?getLastChar@DNameStatusNode@@UBEDXZ 1003b1b0 f i libvcruntimed:undname.obj
 0001:0003a1e0       ?getLastChar@charNode@@UBEDXZ 1003b1e0 f i libvcruntimed:undname.obj
 0001:0003a200       ?getLastChar@pDNameNode@@UBEDXZ 1003b200 f i libvcruntimed:undname.obj
 0001:0003a230       ?getLastChar@pairNode@@UBEDXZ 1003b230 f i libvcruntimed:undname.obj
 0001:0003a2a0       ?getLastChar@pcharNode@@UBEDXZ 1003b2a0 f i libvcruntimed:undname.obj
 0001:0003a2e0       ?getLexicalFrame@UnDecorator@@CA?AVDName@@XZ 1003b2e0 f i libvcruntimed:undname.obj
 0001:0003a320       ?getMemory@_HeapManager@@QAEPAXIH@Z 1003b320 f   libvcruntimed:undname.obj
 0001:0003a440       ?getNoexcept@UnDecorator@@CA?AVDName@@XZ 1003b440 f   libvcruntimed:undname.obj
 0001:0003a4b0       ?getNumberOfDimensions@UnDecorator@@CAHXZ 1003b4b0 f   libvcruntimed:undname.obj
 0001:0003a5b0       ?getOperatorName@UnDecorator@@CA?AVDName@@_NPA_N@Z 1003b5b0 f i libvcruntimed:undname.obj
 0001:0003b0a0       ?getPointerType@UnDecorator@@CA?AVDName@@ABV2@0@Z 1003c0a0 f i libvcruntimed:undname.obj
 0001:0003b0d0       ?getPointerTypeArray@UnDecorator@@CA?AVDName@@ABV2@0@Z 1003c0d0 f i libvcruntimed:undname.obj
 0001:0003b100       ?getPrimaryDataType@UnDecorator@@CA?AVDName@@ABV2@@Z 1003c100 f   libvcruntimed:undname.obj
 0001:0003b500       ?getPtrRefDataType@UnDecorator@@CA?AVDName@@ABV2@H@Z 1003c500 f   libvcruntimed:undname.obj
 0001:0003b730       ?getPtrRefType@UnDecorator@@CA?AVDName@@ABV2@0PBD@Z 1003c730 f   libvcruntimed:undname.obj
 0001:0003b8a0       ?getReferenceType@UnDecorator@@CA?AVDName@@ABV2@0PBD@Z 1003c8a0 f i libvcruntimed:undname.obj
 0001:0003b8c0       ?getRestrictionSpec@UnDecorator@@CA?AVDName@@XZ 1003c8c0 f   libvcruntimed:undname.obj
 0001:0003ba40       ?getReturnType@UnDecorator@@CA?AVDName@@PAV2@@Z 1003ca40 f   libvcruntimed:undname.obj
 0001:0003ba90       ?getScope@UnDecorator@@CA?AVDName@@XZ 1003ca90 f   libvcruntimed:undname.obj
 0001:0003c030       ?getScopedName@UnDecorator@@CA?AVDName@@XZ 1003d030 f   libvcruntimed:undname.obj
 0001:0003c170       ?getSignedDimension@UnDecorator@@CA?AVDName@@XZ 1003d170 f   libvcruntimed:undname.obj
 0001:0003c1f0       ?getStorageConvention@UnDecorator@@CA?AVDName@@XZ 1003d1f0 f i libvcruntimed:undname.obj
 0001:0003c210       ?getString@DName@@QBEPADPAD0@Z 1003d210 f i libvcruntimed:undname.obj
 0001:0003c270       ?getString@DName@@QBEPADPADH@Z 1003d270 f i libvcruntimed:undname.obj
 0001:0003c300       ?getString@DNameStatusNode@@UBEPADPAD0@Z 1003d300 f i libvcruntimed:undname.obj
 0001:0003c340       ?getString@charNode@@UBEPADPAD0@Z 1003d340 f i libvcruntimed:undname.obj
 0001:0003c370       ?getString@pDNameNode@@UBEPADPAD0@Z 1003d370 f i libvcruntimed:undname.obj
 0001:0003c3b0       ?getString@pairNode@@UBEPADPAD0@Z 1003d3b0 f i libvcruntimed:undname.obj
 0001:0003c440       ?getString@pcharNode@@UBEPADPAD0@Z 1003d440 f i libvcruntimed:undname.obj
 0001:0003c470       ?getStringEncoding@UnDecorator@@CA?AVDName@@PBDH@Z 1003d470 f   libvcruntimed:undname.obj
 0001:0003c580       ?getStringHelper@@YAPADPADPBD1H@Z 1003d580 f i libvcruntimed:undname.obj
 0001:0003c5c0       ?getSymbolName@UnDecorator@@CA?AVDName@@XZ 1003d5c0 f i libvcruntimed:undname.obj
 0001:0003c650       ?getTemplateArgumentList@UnDecorator@@CA?AVDName@@XZ 1003d650 f   libvcruntimed:undname.obj
 0001:0003ca70       ?getTemplateConstant@UnDecorator@@CA?AVDName@@XZ 1003da70 f   libvcruntimed:undname.obj
 0001:0003d090       ?getTemplateName@UnDecorator@@CA?AVDName@@_N@Z 1003e090 f   libvcruntimed:undname.obj
 0001:0003d270       ?getThisType@UnDecorator@@CA?AVDName@@XZ 1003e270 f i libvcruntimed:undname.obj
 0001:0003d2b0       ?getThrowTypes@UnDecorator@@CA?AVDName@@XZ 1003e2b0 f   libvcruntimed:undname.obj
 0001:0003d2f0       ?getTypeEncoding@UnDecorator@@CAHXZ 1003e2f0 f i libvcruntimed:undname.obj
 0001:0003dd80       ?getUndecoratedName@UnDecorator@@QAEPADPADH@Z 1003ed80 f i libvcruntimed:undname.obj
 0001:0003ded0       ?getVCallThunkType@UnDecorator@@CA?AVDName@@XZ 1003eed0 f i libvcruntimed:undname.obj
 0001:0003df30       ?getVbTableType@UnDecorator@@CA?AVDName@@ABV2@@Z 1003ef30 f i libvcruntimed:undname.obj
 0001:0003df50       ?getVdispMapType@UnDecorator@@CA?AVDName@@ABV2@@Z 1003ef50 f i libvcruntimed:undname.obj
 0001:0003dfd0       ?getVfTableType@UnDecorator@@CA?AVDName@@ABV2@@Z 1003efd0 f i libvcruntimed:undname.obj
 0001:0003e1b0       ?getZName@UnDecorator@@CA?AVDName@@_N0@Z 1003f1b0 f   libvcruntimed:undname.obj
 0001:0003e4b0       ?haveTemplateParameters@UnDecorator@@SAHXZ 1003f4b0 f i libvcruntimed:undname.obj
 0001:0003e4c0       ?isArray@DName@@QBEHXZ     1003f4c0 f i libvcruntimed:undname.obj
 0001:0003e4e0       ?isComArray@DName@@QBEHXZ  1003f4e0 f i libvcruntimed:undname.obj
 0001:0003e500       ?isEmpty@DName@@QBEHXZ     1003f500 f i libvcruntimed:undname.obj
 0001:0003e530       ?isFull@Replicator@@QBEHXZ 1003f530 f i libvcruntimed:undname.obj
 0001:0003e560       ?isNoTE@DName@@QBEHXZ      1003f560 f i libvcruntimed:undname.obj
 0001:0003e580       ?isPinPtr@DName@@QBEHXZ    1003f580 f i libvcruntimed:undname.obj
 0001:0003e5a0       ?isPtrRef@DName@@QBEHXZ    1003f5a0 f i libvcruntimed:undname.obj
 0001:0003e5c0       ?isUDC@DName@@QBEHXZ       1003f5c0 f i libvcruntimed:undname.obj
 0001:0003e600       ?isUDTThunk@DName@@QBEHXZ  1003f600 f i libvcruntimed:undname.obj
 0001:0003e640       ?isVCallThunk@DName@@QBEHXZ 1003f640 f i libvcruntimed:undname.obj
 0001:0003e660       ?isValid@DName@@QBEHXZ     1003f660 f i libvcruntimed:undname.obj
 0001:0003e6a0       ?length@DName@@QBEHXZ      1003f6a0 f i libvcruntimed:undname.obj
 0001:0003e6e0       ?length@DNameStatusNode@@UBEHXZ 1003f6e0 f i libvcruntimed:undname.obj
 0001:0003e700       ?length@charNode@@UBEHXZ   1003f700 f i libvcruntimed:undname.obj
 0001:0003e710       ?length@pDNameNode@@UBEHXZ 1003f710 f i libvcruntimed:undname.obj
 0001:0003e740       ?length@pairNode@@UBEHXZ   1003f740 f i libvcruntimed:undname.obj
 0001:0003e7b0       ?length@pcharNode@@UBEHXZ  1003f7b0 f i libvcruntimed:undname.obj
 0001:0003e7d0       ?make@DNameStatusNode@@SAPBV1@W4DNameStatus@@@Z 1003f7d0 f i libvcruntimed:undname.obj
 0001:0003e800       ?parseDecoratedName@UnDecorator@@CA?AVDName@@XZ 1003f800 f   libvcruntimed:undname.obj
 0001:0003e990       ?setIsArray@DName@@QAEXXZ  1003f990 f i libvcruntimed:undname.obj
 0001:0003e9b0       ?setIsComArray@DName@@QAEXXZ 1003f9b0 f i libvcruntimed:undname.obj
 0001:0003e9d0       ?setIsNoTE@DName@@QAEXXZ   1003f9d0 f i libvcruntimed:undname.obj
 0001:0003e9f0       ?setIsPinPtr@DName@@QAEXXZ 1003f9f0 f i libvcruntimed:undname.obj
 0001:0003ea10       ?setIsUDC@DName@@QAEXXZ    1003fa10 f i libvcruntimed:undname.obj
 0001:0003ea40       ?setIsVCallThunk@DName@@QAEXXZ 1003fa40 f i libvcruntimed:undname.obj
 0001:0003ea60       ?setPtrRef@DName@@QAEAAV1@XZ 1003fa60 f i libvcruntimed:undname.obj
 0001:0003ea80       ?status@DName@@QBE?AW4DNameStatus@@XZ 1003fa80 f i libvcruntimed:undname.obj
 0001:0003eb80       ___unDName                 1003fb80 f   libvcruntimed:undname.obj
 0001:0003ebb0       ___unDNameEx               1003fbb0 f   libvcruntimed:undname.obj
 0001:0003ec80       _unDNameGenerateCHPE       1003fc80 f   libvcruntimed:undname.obj
 0001:0003ece0       __global_unwind2           1003fce0 f   libvcruntimed:exsup.obj
 0001:0003ed46       __local_unwind2            1003fd46 f   libvcruntimed:exsup.obj
 0001:0003edca       __abnormal_termination     1003fdca f   libvcruntimed:exsup.obj
 0001:0003edf0       __NLG_Notify1              1003fdf0 f   libvcruntimed:exsup.obj
 0001:0003edfc       __NLG_Notify               1003fdfc f   libvcruntimed:exsup.obj
 0001:0003ee13       __NLG_Dispatch             1003fe13     libvcruntimed:exsup.obj
 0001:0003ee13       __NLG_Dispatch2            1003fe13     libvcruntimed:exsup.obj
 0001:0003ee1b       __NLG_Call                 1003fe1b f   libvcruntimed:exsup.obj
 0001:0003ee1d       __NLG_Return2              1003fe1d     libvcruntimed:exsup.obj
 0001:0003ee50       __get_unexpected           1003fe50 f   libvcruntimed:unexpected.obj
 0001:0003ee70       _set_unexpected            1003fe70 f   libvcruntimed:unexpected.obj
 0001:0003eea0       _unexpected                1003fea0 f   libvcruntimed:unexpected.obj
 0001:0003eee0       ?GetCurrentState@__FrameHandler3@@SAHPAUEHRegistrationNode@@PAXPBU_s_FuncInfo@@@Z 1003fee0 f   libvcruntimed:ehstate.obj
 0001:0003ef10       ?SetState@__FrameHandler3@@SAXPAUEHRegistrationNode@@PBU_s_FuncInfo@@H@Z 1003ff10 f   libvcruntimed:ehstate.obj
 0001:0003ef20       ___DestructExceptionObject 1003ff20 f   libvcruntimed:ehhelpers.obj
 0001:0003f050       ?_CallMemberFunction0@@YGXQAX0@Z 10040050 f i libvcruntimed:ehhelpers.obj
 0001:0003f070       ?raw_name@type_info@@QBEPBDXZ 10040070 f i libvcruntimed:ehhelpers.obj
 0001:0003f090       __IsExceptionObjectToBeDestroyed 10040090 f   libvcruntimed:ehhelpers.obj
 0001:0003f0d0       __SetWinRTOutOfMemoryExceptionCallback 100400d0 f   libvcruntimed:ehhelpers.obj
 0001:0003f0e0       ___AdjustPointer           100400e0 f   libvcruntimed:ehhelpers.obj
 0001:0003f130       ___FrameUnwindFilter       10040130 f   libvcruntimed:ehhelpers.obj
 0001:0003f1b0       ___GetPlatformExceptionInfo 100401b0 f   libvcruntimed:ehhelpers.obj
 0001:0003f230       ___current_exception       10040230 f   libvcruntimed:ehhelpers.obj
 0001:0003f240       ___current_exception_context 10040240 f   libvcruntimed:ehhelpers.obj
 0001:0003f250       ___processing_throw        10040250 f   libvcruntimed:ehhelpers.obj
 0001:0003f260       ___std_terminate           10040260 f   libvcruntimed:ehhelpers.obj
 0001:0003f270       __is_exception_typeof      10040270 f   libvcruntimed:ehhelpers.obj
 0001:0003f350       ??$?0ABV?$stream_output_adapter@D@__crt_stdio_output@@AB_KABQBDABQAU__crt_locale_pointers@@ABQAD@?$format_validation_base@DV?$stream_output_adapter@D@__crt_stdio_output@@@__crt_stdio_output@@IAE@ABV?$stream_output_adapter@D@1@AB_KABQBDABQAU__crt_locale_pointers@@ABQAD@Z 10040350 f i libucrtd:output.obj
 0001:0003f380       ??$?0ABV?$stream_output_adapter@D@__crt_stdio_output@@AB_KABQBDABQAU__crt_locale_pointers@@ABQAD@?$positional_parameter_base@DV?$stream_output_adapter@D@__crt_stdio_output@@@__crt_stdio_output@@IAE@ABV?$stream_output_adapter@D@1@AB_KABQBDABQAU__crt_locale_pointers@@ABQAD@Z 10040380 f i libucrtd:output.obj
 0001:0003f400       ??$?0ABV?$stream_output_adapter@D@__crt_stdio_output@@AB_KABQBDABQAU__crt_locale_pointers@@ABQAD@?$standard_base@DV?$stream_output_adapter@D@__crt_stdio_output@@@__crt_stdio_output@@IAE@ABV?$stream_output_adapter@D@1@AB_KABQBDABQAU__crt_locale_pointers@@ABQAD@Z 10040400 f i libucrtd:output.obj
 0001:0003f450       ??$?0ABV?$stream_output_adapter@_W@__crt_stdio_output@@AB_KABQB_WABQAU__crt_locale_pointers@@ABQAD@?$format_validation_base@_WV?$stream_output_adapter@_W@__crt_stdio_output@@@__crt_stdio_output@@IAE@ABV?$stream_output_adapter@_W@1@AB_KABQB_WABQAU__crt_locale_pointers@@ABQAD@Z 10040450 f i libucrtd:output.obj
 0001:0003f480       ??$?0ABV?$stream_output_adapter@_W@__crt_stdio_output@@AB_KABQB_WABQAU__crt_locale_pointers@@ABQAD@?$positional_parameter_base@_WV?$stream_output_adapter@_W@__crt_stdio_output@@@__crt_stdio_output@@IAE@ABV?$stream_output_adapter@_W@1@AB_KABQB_WABQAU__crt_locale_pointers@@ABQAD@Z 10040480 f i libucrtd:output.obj
 0001:0003f500       ??$?0ABV?$stream_output_adapter@_W@__crt_stdio_output@@AB_KABQB_WABQAU__crt_locale_pointers@@ABQAD@?$standard_base@_WV?$stream_output_adapter@_W@__crt_stdio_output@@@__crt_stdio_output@@IAE@ABV?$stream_output_adapter@_W@1@AB_KABQB_WABQAU__crt_locale_pointers@@ABQAD@Z 10040500 f i libucrtd:output.obj
 0001:0003f550       ??$?0ABV?$string_output_adapter@D@__crt_stdio_output@@AB_KABQBDABQAU__crt_locale_pointers@@ABQAD@?$format_validation_base@DV?$string_output_adapter@D@__crt_stdio_output@@@__crt_stdio_output@@IAE@ABV?$string_output_adapter@D@1@AB_KABQBDABQAU__crt_locale_pointers@@ABQAD@Z 10040550 f i libucrtd:output.obj
 0001:0003f580       ??$?0ABV?$string_output_adapter@D@__crt_stdio_output@@AB_KABQBDABQAU__crt_locale_pointers@@ABQAD@?$positional_parameter_base@DV?$string_output_adapter@D@__crt_stdio_output@@@__crt_stdio_output@@IAE@ABV?$string_output_adapter@D@1@AB_KABQBDABQAU__crt_locale_pointers@@ABQAD@Z 10040580 f i libucrtd:output.obj
 0001:0003f600       ??$?0ABV?$string_output_adapter@D@__crt_stdio_output@@AB_KABQBDABQAU__crt_locale_pointers@@ABQAD@?$standard_base@DV?$string_output_adapter@D@__crt_stdio_output@@@__crt_stdio_output@@IAE@ABV?$string_output_adapter@D@1@AB_KABQBDABQAU__crt_locale_pointers@@ABQAD@Z 10040600 f i libucrtd:output.obj
 0001:0003f650       ??$?0ABV?$string_output_adapter@_W@__crt_stdio_output@@AB_KABQB_WABQAU__crt_locale_pointers@@ABQAD@?$format_validation_base@_WV?$string_output_adapter@_W@__crt_stdio_output@@@__crt_stdio_output@@IAE@ABV?$string_output_adapter@_W@1@AB_KABQB_WABQAU__crt_locale_pointers@@ABQAD@Z 10040650 f i libucrtd:output.obj
 0001:0003f680       ??$?0ABV?$string_output_adapter@_W@__crt_stdio_output@@AB_KABQB_WABQAU__crt_locale_pointers@@ABQAD@?$positional_parameter_base@_WV?$string_output_adapter@_W@__crt_stdio_output@@@__crt_stdio_output@@IAE@ABV?$string_output_adapter@_W@1@AB_KABQB_WABQAU__crt_locale_pointers@@ABQAD@Z 10040680 f i libucrtd:output.obj
 0001:0003f700       ??$?0ABV?$string_output_adapter@_W@__crt_stdio_output@@AB_KABQB_WABQAU__crt_locale_pointers@@ABQAD@?$standard_base@_WV?$string_output_adapter@_W@__crt_stdio_output@@@__crt_stdio_output@@IAE@ABV?$string_output_adapter@_W@1@AB_KABQB_WABQAU__crt_locale_pointers@@ABQAD@Z 10040700 f i libucrtd:output.obj
 0001:0003f750       ??$?RV<lambda_2293f24e3ce1ad6fe22ccfb9dec07671>@@AAV<lambda_2565fc715a641e539f44ad02d6823606>@@V<lambda_d3217f279b832965d9ca670dc2993570>@@@?$__crt_seh_guarded_call@H@@QAEH$$QAV<lambda_2293f24e3ce1ad6fe22ccfb9dec07671>@@AAV<lambda_2565fc715a641e539f44ad02d6823606>@@$$QAV<lambda_d3217f279b832965d9ca670dc2993570>@@@Z 10040750 f i libucrtd:output.obj
 0001:0003f7e0       ??$?RV<lambda_4d4ac866be0fa3c441830420fabdd2cb>@@AAV<lambda_63a10c2dc8dbb9e4dd1890be52af7c93>@@V<lambda_002af9fa0f8fe472b648c51882d4fc32>@@@?$__crt_seh_guarded_call@H@@QAEH$$QAV<lambda_4d4ac866be0fa3c441830420fabdd2cb>@@AAV<lambda_63a10c2dc8dbb9e4dd1890be52af7c93>@@$$QAV<lambda_002af9fa0f8fe472b648c51882d4fc32>@@@Z 100407e0 f i libucrtd:output.obj
 0001:0003f870       ??$?RV<lambda_5be909dfbae0a631386585770cd7b676>@@AAV<lambda_e516058a9c289d98c8ca9fea99247804>@@V<lambda_afe2e0cdc5e0ecf6f0d6f5e2f8985e38>@@@?$__crt_seh_guarded_call@H@@QAEH$$QAV<lambda_5be909dfbae0a631386585770cd7b676>@@AAV<lambda_e516058a9c289d98c8ca9fea99247804>@@$$QAV<lambda_afe2e0cdc5e0ecf6f0d6f5e2f8985e38>@@@Z 10040870 f i libucrtd:output.obj
 0001:0003f900       ??$?RV<lambda_823d65812123d985753d53e2a8c25d20>@@AAV<lambda_0a97c9e57da7be065955385c79108ff2>@@V<lambda_4d2973f3ad2d226f00468307185dca1b>@@@?$__crt_seh_guarded_call@H@@QAEH$$QAV<lambda_823d65812123d985753d53e2a8c25d20>@@AAV<lambda_0a97c9e57da7be065955385c79108ff2>@@$$QAV<lambda_4d2973f3ad2d226f00468307185dca1b>@@@Z 10040900 f i libucrtd:output.obj
 0001:0003f990       ??$?RV<lambda_ab9923ffb5d694ec0d78876dd103e44f>@@AAV<lambda_481dd5778c961fbcd3b60b650e9b9dc4>@@V<lambda_7923d86c9e3f319b415918ec4b39749c>@@@?$__crt_seh_guarded_call@H@@QAEH$$QAV<lambda_ab9923ffb5d694ec0d78876dd103e44f>@@AAV<lambda_481dd5778c961fbcd3b60b650e9b9dc4>@@$$QAV<lambda_7923d86c9e3f319b415918ec4b39749c>@@@Z 10040990 f i libucrtd:output.obj
 0001:0003fa20       ??$?RV<lambda_db08b09ef7aa9d4f8620ce68402612bc>@@AAV<lambda_4f2c1eaeead2a5fc776db5b62ea0fb9b>@@V<lambda_3ae262bc35d4ba6a3825c4f6bcaaf95c>@@@?$__crt_seh_guarded_call@H@@QAEH$$QAV<lambda_db08b09ef7aa9d4f8620ce68402612bc>@@AAV<lambda_4f2c1eaeead2a5fc776db5b62ea0fb9b>@@$$QAV<lambda_3ae262bc35d4ba6a3825c4f6bcaaf95c>@@@Z 10040a20 f i libucrtd:output.obj
 0001:0003fab0       ??$__acrt_lock_stream_and_call@V<lambda_0a97c9e57da7be065955385c79108ff2>@@@@YAHQAU_iobuf@@$$QAV<lambda_0a97c9e57da7be065955385c79108ff2>@@@Z 10040ab0 f i libucrtd:output.obj
 0001:0003faf0       ??$__acrt_lock_stream_and_call@V<lambda_2565fc715a641e539f44ad02d6823606>@@@@YAHQAU_iobuf@@$$QAV<lambda_2565fc715a641e539f44ad02d6823606>@@@Z 10040af0 f i libucrtd:output.obj
 0001:0003fb30       ??$__acrt_lock_stream_and_call@V<lambda_481dd5778c961fbcd3b60b650e9b9dc4>@@@@YAHQAU_iobuf@@$$QAV<lambda_481dd5778c961fbcd3b60b650e9b9dc4>@@@Z 10040b30 f i libucrtd:output.obj
 0001:0003fb70       ??$__acrt_lock_stream_and_call@V<lambda_4f2c1eaeead2a5fc776db5b62ea0fb9b>@@@@YAHQAU_iobuf@@$$QAV<lambda_4f2c1eaeead2a5fc776db5b62ea0fb9b>@@@Z 10040b70 f i libucrtd:output.obj
 0001:0003fbb0       ??$__acrt_lock_stream_and_call@V<lambda_63a10c2dc8dbb9e4dd1890be52af7c93>@@@@YAHQAU_iobuf@@$$QAV<lambda_63a10c2dc8dbb9e4dd1890be52af7c93>@@@Z 10040bb0 f i libucrtd:output.obj
 0001:0003fbf0       ??$__acrt_lock_stream_and_call@V<lambda_e516058a9c289d98c8ca9fea99247804>@@@@YAHQAU_iobuf@@$$QAV<lambda_e516058a9c289d98c8ca9fea99247804>@@@Z 10040bf0 f i libucrtd:output.obj
 0001:0003fc30       ??$__crt_interlocked_read@J@@YAJPDJ@Z 10040c30 f i libucrtd:output.obj
 0001:000429d0       ??$count@D@formatting_buffer@__crt_stdio_output@@QBEIXZ 100439d0 f i libucrtd:output.obj
 0001:00042a10       ??$data@D@formatting_buffer@__crt_stdio_output@@QAEPADXZ 10043a10 f i libucrtd:output.obj
 0001:00042a50       ??$data@_W@formatting_buffer@__crt_stdio_output@@QAEPA_WXZ 10043a50 f i libucrtd:output.obj
 0001:00042a90       ??$ensure_buffer_is_big_enough@D@formatting_buffer@__crt_stdio_output@@QAE_NI@Z 10043a90 f i libucrtd:output.obj
 0001:00042b70       ??$extract_argument_from_va_list@C_J@?$positional_parameter_base@DV?$stream_output_adapter@D@__crt_stdio_output@@@__crt_stdio_output@@IAE_NAA_J@Z 10043b70 f i libucrtd:output.obj
 0001:00042cb0       ??$extract_argument_from_va_list@C_J@?$positional_parameter_base@DV?$string_output_adapter@D@__crt_stdio_output@@@__crt_stdio_output@@IAE_NAA_J@Z 10043cb0 f i libucrtd:output.obj
 0001:00042df0       ??$extract_argument_from_va_list@C_J@?$positional_parameter_base@_WV?$stream_output_adapter@_W@__crt_stdio_output@@@__crt_stdio_output@@IAE_NAA_J@Z 10043df0 f i libucrtd:output.obj
 0001:00042f30       ??$extract_argument_from_va_list@C_J@?$positional_parameter_base@_WV?$string_output_adapter@_W@__crt_stdio_output@@@__crt_stdio_output@@IAE_NAA_J@Z 10043f30 f i libucrtd:output.obj
 0001:00043070       ??$extract_argument_from_va_list@C_J@?$standard_base@DV?$stream_output_adapter@D@__crt_stdio_output@@@__crt_stdio_output@@IAE_NAA_J@Z 10044070 f i libucrtd:output.obj
 0001:000430a0       ??$extract_argument_from_va_list@C_J@?$standard_base@DV?$string_output_adapter@D@__crt_stdio_output@@@__crt_stdio_output@@IAE_NAA_J@Z 100440a0 f i libucrtd:output.obj
 0001:000430d0       ??$extract_argument_from_va_list@C_J@?$standard_base@_WV?$stream_output_adapter@_W@__crt_stdio_output@@@__crt_stdio_output@@IAE_NAA_J@Z 100440d0 f i libucrtd:output.obj
 0001:00043100       ??$extract_argument_from_va_list@C_J@?$standard_base@_WV?$string_output_adapter@_W@__crt_stdio_output@@@__crt_stdio_output@@IAE_NAA_J@Z 10044100 f i libucrtd:output.obj
 0001:00043130       ??$extract_argument_from_va_list@E_J@?$positional_parameter_base@DV?$stream_output_adapter@D@__crt_stdio_output@@@__crt_stdio_output@@IAE_NAA_J@Z 10044130 f i libucrtd:output.obj
 0001:00043270       ??$extract_argument_from_va_list@E_J@?$positional_parameter_base@DV?$string_output_adapter@D@__crt_stdio_output@@@__crt_stdio_output@@IAE_NAA_J@Z 10044270 f i libucrtd:output.obj
 0001:000433b0       ??$extract_argument_from_va_list@E_J@?$positional_parameter_base@_WV?$stream_output_adapter@_W@__crt_stdio_output@@@__crt_stdio_output@@IAE_NAA_J@Z 100443b0 f i libucrtd:output.obj
 0001:000434f0       ??$extract_argument_from_va_list@E_J@?$positional_parameter_base@_WV?$string_output_adapter@_W@__crt_stdio_output@@@__crt_stdio_output@@IAE_NAA_J@Z 100444f0 f i libucrtd:output.obj
 0001:00043630       ??$extract_argument_from_va_list@E_J@?$standard_base@DV?$stream_output_adapter@D@__crt_stdio_output@@@__crt_stdio_output@@IAE_NAA_J@Z 10044630 f i libucrtd:output.obj
 0001:00043660       ??$extract_argument_from_va_list@E_J@?$standard_base@DV?$string_output_adapter@D@__crt_stdio_output@@@__crt_stdio_output@@IAE_NAA_J@Z 10044660 f i libucrtd:output.obj
 0001:00043690       ??$extract_argument_from_va_list@E_J@?$standard_base@_WV?$stream_output_adapter@_W@__crt_stdio_output@@@__crt_stdio_output@@IAE_NAA_J@Z 10044690 f i libucrtd:output.obj
 0001:000436c0       ??$extract_argument_from_va_list@E_J@?$standard_base@_WV?$string_output_adapter@_W@__crt_stdio_output@@@__crt_stdio_output@@IAE_NAA_J@Z 100446c0 f i libucrtd:output.obj
 0001:000436f0       ??$extract_argument_from_va_list@F_J@?$positional_parameter_base@DV?$stream_output_adapter@D@__crt_stdio_output@@@__crt_stdio_output@@IAE_NAA_J@Z 100446f0 f i libucrtd:output.obj
 0001:00043820       ??$extract_argument_from_va_list@F_J@?$positional_parameter_base@DV?$string_output_adapter@D@__crt_stdio_output@@@__crt_stdio_output@@IAE_NAA_J@Z 10044820 f i libucrtd:output.obj
 0001:00043950       ??$extract_argument_from_va_list@F_J@?$positional_parameter_base@_WV?$stream_output_adapter@_W@__crt_stdio_output@@@__crt_stdio_output@@IAE_NAA_J@Z 10044950 f i libucrtd:output.obj
 0001:00043a80       ??$extract_argument_from_va_list@F_J@?$positional_parameter_base@_WV?$string_output_adapter@_W@__crt_stdio_output@@@__crt_stdio_output@@IAE_NAA_J@Z 10044a80 f i libucrtd:output.obj
 0001:00043bb0       ??$extract_argument_from_va_list@F_J@?$standard_base@DV?$stream_output_adapter@D@__crt_stdio_output@@@__crt_stdio_output@@IAE_NAA_J@Z 10044bb0 f i libucrtd:output.obj
 0001:00043be0       ??$extract_argument_from_va_list@F_J@?$standard_base@DV?$string_output_adapter@D@__crt_stdio_output@@@__crt_stdio_output@@IAE_NAA_J@Z 10044be0 f i libucrtd:output.obj
 0001:00043c10       ??$extract_argument_from_va_list@F_J@?$standard_base@_WV?$stream_output_adapter@_W@__crt_stdio_output@@@__crt_stdio_output@@IAE_NAA_J@Z 10044c10 f i libucrtd:output.obj
 0001:00043c40       ??$extract_argument_from_va_list@F_J@?$standard_base@_WV?$string_output_adapter@_W@__crt_stdio_output@@@__crt_stdio_output@@IAE_NAA_J@Z 10044c40 f i libucrtd:output.obj
 0001:00043c70       ??$extract_argument_from_va_list@GD@?$positional_parameter_base@DV?$stream_output_adapter@D@__crt_stdio_output@@@__crt_stdio_output@@IAE_NAAD@Z 10044c70 f i libucrtd:output.obj
 0001:00043da0       ??$extract_argument_from_va_list@GD@?$positional_parameter_base@DV?$string_output_adapter@D@__crt_stdio_output@@@__crt_stdio_output@@IAE_NAAD@Z 10044da0 f i libucrtd:output.obj
 0001:00043ed0       ??$extract_argument_from_va_list@GD@?$standard_base@DV?$stream_output_adapter@D@__crt_stdio_output@@@__crt_stdio_output@@IAE_NAAD@Z 10044ed0 f i libucrtd:output.obj
 0001:00043f00       ??$extract_argument_from_va_list@GD@?$standard_base@DV?$string_output_adapter@D@__crt_stdio_output@@@__crt_stdio_output@@IAE_NAAD@Z 10044f00 f i libucrtd:output.obj
 0001:00043f30       ??$extract_argument_from_va_list@G_J@?$positional_parameter_base@DV?$stream_output_adapter@D@__crt_stdio_output@@@__crt_stdio_output@@IAE_NAA_J@Z 10044f30 f i libucrtd:output.obj
 0001:00044070       ??$extract_argument_from_va_list@G_J@?$positional_parameter_base@DV?$string_output_adapter@D@__crt_stdio_output@@@__crt_stdio_output@@IAE_NAA_J@Z 10045070 f i libucrtd:output.obj
 0001:000441b0       ??$extract_argument_from_va_list@G_J@?$positional_parameter_base@_WV?$stream_output_adapter@_W@__crt_stdio_output@@@__crt_stdio_output@@IAE_NAA_J@Z 100451b0 f i libucrtd:output.obj
 0001:000442f0       ??$extract_argument_from_va_list@G_J@?$positional_parameter_base@_WV?$string_output_adapter@_W@__crt_stdio_output@@@__crt_stdio_output@@IAE_NAA_J@Z 100452f0 f i libucrtd:output.obj
 0001:00044430       ??$extract_argument_from_va_list@G_J@?$standard_base@DV?$stream_output_adapter@D@__crt_stdio_output@@@__crt_stdio_output@@IAE_NAA_J@Z 10045430 f i libucrtd:output.obj
 0001:00044460       ??$extract_argument_from_va_list@G_J@?$standard_base@DV?$string_output_adapter@D@__crt_stdio_output@@@__crt_stdio_output@@IAE_NAA_J@Z 10045460 f i libucrtd:output.obj
 0001:00044490       ??$extract_argument_from_va_list@G_J@?$standard_base@_WV?$stream_output_adapter@_W@__crt_stdio_output@@@__crt_stdio_output@@IAE_NAA_J@Z 10045490 f i libucrtd:output.obj
 0001:000444c0       ??$extract_argument_from_va_list@G_J@?$standard_base@_WV?$string_output_adapter@_W@__crt_stdio_output@@@__crt_stdio_output@@IAE_NAA_J@Z 100454c0 f i libucrtd:output.obj
 0001:000444f0       ??$extract_argument_from_va_list@H_J@?$positional_parameter_base@DV?$stream_output_adapter@D@__crt_stdio_output@@@__crt_stdio_output@@IAE_NAA_J@Z 100454f0 f i libucrtd:output.obj
 0001:00044620       ??$extract_argument_from_va_list@H_J@?$positional_parameter_base@DV?$string_output_adapter@D@__crt_stdio_output@@@__crt_stdio_output@@IAE_NAA_J@Z 10045620 f i libucrtd:output.obj
 0001:00044750       ??$extract_argument_from_va_list@H_J@?$positional_parameter_base@_WV?$stream_output_adapter@_W@__crt_stdio_output@@@__crt_stdio_output@@IAE_NAA_J@Z 10045750 f i libucrtd:output.obj
 0001:00044880       ??$extract_argument_from_va_list@H_J@?$positional_parameter_base@_WV?$string_output_adapter@_W@__crt_stdio_output@@@__crt_stdio_output@@IAE_NAA_J@Z 10045880 f i libucrtd:output.obj
 0001:000449b0       ??$extract_argument_from_va_list@H_J@?$standard_base@DV?$stream_output_adapter@D@__crt_stdio_output@@@__crt_stdio_output@@IAE_NAA_J@Z 100459b0 f i libucrtd:output.obj
 0001:000449e0       ??$extract_argument_from_va_list@H_J@?$standard_base@DV?$string_output_adapter@D@__crt_stdio_output@@@__crt_stdio_output@@IAE_NAA_J@Z 100459e0 f i libucrtd:output.obj
 0001:00044a10       ??$extract_argument_from_va_list@H_J@?$standard_base@_WV?$stream_output_adapter@_W@__crt_stdio_output@@@__crt_stdio_output@@IAE_NAA_J@Z 10045a10 f i libucrtd:output.obj
 0001:00044a40       ??$extract_argument_from_va_list@H_J@?$standard_base@_WV?$string_output_adapter@_W@__crt_stdio_output@@@__crt_stdio_output@@IAE_NAA_J@Z 10045a40 f i libucrtd:output.obj
 0001:00044a70       ??$extract_argument_from_va_list@I_J@?$positional_parameter_base@DV?$stream_output_adapter@D@__crt_stdio_output@@@__crt_stdio_output@@IAE_NAA_J@Z 10045a70 f i libucrtd:output.obj
 0001:00044ba0       ??$extract_argument_from_va_list@I_J@?$positional_parameter_base@DV?$string_output_adapter@D@__crt_stdio_output@@@__crt_stdio_output@@IAE_NAA_J@Z 10045ba0 f i libucrtd:output.obj
 0001:00044cd0       ??$extract_argument_from_va_list@I_J@?$positional_parameter_base@_WV?$stream_output_adapter@_W@__crt_stdio_output@@@__crt_stdio_output@@IAE_NAA_J@Z 10045cd0 f i libucrtd:output.obj
 0001:00044e00       ??$extract_argument_from_va_list@I_J@?$positional_parameter_base@_WV?$string_output_adapter@_W@__crt_stdio_output@@@__crt_stdio_output@@IAE_NAA_J@Z 10045e00 f i libucrtd:output.obj
 0001:00044f30       ??$extract_argument_from_va_list@I_J@?$standard_base@DV?$stream_output_adapter@D@__crt_stdio_output@@@__crt_stdio_output@@IAE_NAA_J@Z 10045f30 f i libucrtd:output.obj
 0001:00044f60       ??$extract_argument_from_va_list@I_J@?$standard_base@DV?$string_output_adapter@D@__crt_stdio_output@@@__crt_stdio_output@@IAE_NAA_J@Z 10045f60 f i libucrtd:output.obj
 0001:00044f90       ??$extract_argument_from_va_list@I_J@?$standard_base@_WV?$stream_output_adapter@_W@__crt_stdio_output@@@__crt_stdio_output@@IAE_NAA_J@Z 10045f90 f i libucrtd:output.obj
 0001:00044fc0       ??$extract_argument_from_va_list@I_J@?$standard_base@_WV?$string_output_adapter@_W@__crt_stdio_output@@@__crt_stdio_output@@IAE_NAA_J@Z 10045fc0 f i libucrtd:output.obj
 0001:00044ff0       ??$extract_argument_from_va_list@PADPAD@?$positional_parameter_base@DV?$stream_output_adapter@D@__crt_stdio_output@@@__crt_stdio_output@@IAE_NAAPAD@Z 10045ff0 f i libucrtd:output.obj
 0001:00045120       ??$extract_argument_from_va_list@PADPAD@?$positional_parameter_base@DV?$string_output_adapter@D@__crt_stdio_output@@@__crt_stdio_output@@IAE_NAAPAD@Z 10046120 f i libucrtd:output.obj
 0001:00045250       ??$extract_argument_from_va_list@PADPAD@?$positional_parameter_base@_WV?$stream_output_adapter@_W@__crt_stdio_output@@@__crt_stdio_output@@IAE_NAAPAD@Z 10046250 f i libucrtd:output.obj
 0001:00045380       ??$extract_argument_from_va_list@PADPAD@?$positional_parameter_base@_WV?$string_output_adapter@_W@__crt_stdio_output@@@__crt_stdio_output@@IAE_NAAPAD@Z 10046380 f i libucrtd:output.obj
 0001:000454b0       ??$extract_argument_from_va_list@PADPAD@?$standard_base@DV?$stream_output_adapter@D@__crt_stdio_output@@@__crt_stdio_output@@IAE_NAAPAD@Z 100464b0 f i libucrtd:output.obj
 0001:000454e0       ??$extract_argument_from_va_list@PADPAD@?$standard_base@DV?$string_output_adapter@D@__crt_stdio_output@@@__crt_stdio_output@@IAE_NAAPAD@Z 100464e0 f i libucrtd:output.obj
 0001:00045510       ??$extract_argument_from_va_list@PADPAD@?$standard_base@_WV?$stream_output_adapter@_W@__crt_stdio_output@@@__crt_stdio_output@@IAE_NAAPAD@Z 10046510 f i libucrtd:output.obj
 0001:00045540       ??$extract_argument_from_va_list@PADPAD@?$standard_base@_WV?$string_output_adapter@_W@__crt_stdio_output@@@__crt_stdio_output@@IAE_NAAPAD@Z 10046540 f i libucrtd:output.obj
 0001:00045570       ??$extract_argument_from_va_list@PAUansi_string@?1??type_case_Z@?$output_processor@DV?$stream_output_adapter@D@__crt_stdio_output@@V?$format_validation_base@DV?$stream_output_adapter@D@__crt_stdio_output@@@2@@__crt_stdio_output@@AAE_NXZ@PAU1?1??234@AAE_NXZ@@?$standard_base@DV?$stream_output_adapter@D@__crt_stdio_output@@@__crt_stdio_output@@IAE_NAAPAUansi_string@?1??type_case_Z@?$output_processor@DV?$stream_output_adapter@D@__crt_stdio_output@@V?$format_validation_base@DV?$stream_output_adapter@D@__crt_stdio_output@@@2@@1@AAE_NXZ@@Z 10046570 f i libucrtd:output.obj
 0001:000455a0       ??$extract_argument_from_va_list@PAUansi_string@?1??type_case_Z@?$output_processor@DV?$stream_output_adapter@D@__crt_stdio_output@@V?$positional_parameter_base@DV?$stream_output_adapter@D@__crt_stdio_output@@@2@@__crt_stdio_output@@AAE_NXZ@PAU1?1??234@AAE_NXZ@@?$positional_parameter_base@DV?$stream_output_adapter@D@__crt_stdio_output@@@__crt_stdio_output@@IAE_NAAPAUansi_string@?1??type_case_Z@?$output_processor@DV?$stream_output_adapter@D@__crt_stdio_output@@V?$positional_parameter_base@DV?$stream_output_adapter@D@__crt_stdio_output@@@2@@1@AAE_NXZ@@Z 100465a0 f i libucrtd:output.obj
 0001:000456d0       ??$extract_argument_from_va_list@PAUansi_string@?1??type_case_Z@?$output_processor@DV?$stream_output_adapter@D@__crt_stdio_output@@V?$positional_parameter_base@DV?$stream_output_adapter@D@__crt_stdio_output@@@2@@__crt_stdio_output@@AAE_NXZ@PAU1?1??234@AAE_NXZ@@?$standard_base@DV?$stream_output_adapter@D@__crt_stdio_output@@@__crt_stdio_output@@IAE_NAAPAUansi_string@?1??type_case_Z@?$output_processor@DV?$stream_output_adapter@D@__crt_stdio_output@@V?$positional_parameter_base@DV?$stream_output_adapter@D@__crt_stdio_output@@@2@@1@AAE_NXZ@@Z 100466d0 f i libucrtd:output.obj
 0001:00045700       ??$extract_argument_from_va_list@PAUansi_string@?1??type_case_Z@?$output_processor@DV?$stream_output_adapter@D@__crt_stdio_output@@V?$standard_base@DV?$stream_output_adapter@D@__crt_stdio_output@@@2@@__crt_stdio_output@@AAE_NXZ@PAU1?1??234@AAE_NXZ@@?$standard_base@DV?$stream_output_adapter@D@__crt_stdio_output@@@__crt_stdio_output@@IAE_NAAPAUansi_string@?1??type_case_Z@?$output_processor@DV?$stream_output_adapter@D@__crt_stdio_output@@V?$standard_base@DV?$stream_output_adapter@D@__crt_stdio_output@@@2@@1@AAE_NXZ@@Z 10046700 f i libucrtd:output.obj
 0001:00045730       ??$extract_argument_from_va_list@PAUansi_string@?1??type_case_Z@?$output_processor@DV?$string_output_adapter@D@__crt_stdio_output@@V?$format_validation_base@DV?$string_output_adapter@D@__crt_stdio_output@@@2@@__crt_stdio_output@@AAE_NXZ@PAU1?1??234@AAE_NXZ@@?$standard_base@DV?$string_output_adapter@D@__crt_stdio_output@@@__crt_stdio_output@@IAE_NAAPAUansi_string@?1??type_case_Z@?$output_processor@DV?$string_output_adapter@D@__crt_stdio_output@@V?$format_validation_base@DV?$string_output_adapter@D@__crt_stdio_output@@@2@@1@AAE_NXZ@@Z 10046730 f i libucrtd:output.obj
 0001:00045760       ??$extract_argument_from_va_list@PAUansi_string@?1??type_case_Z@?$output_processor@DV?$string_output_adapter@D@__crt_stdio_output@@V?$positional_parameter_base@DV?$string_output_adapter@D@__crt_stdio_output@@@2@@__crt_stdio_output@@AAE_NXZ@PAU1?1??234@AAE_NXZ@@?$positional_parameter_base@DV?$string_output_adapter@D@__crt_stdio_output@@@__crt_stdio_output@@IAE_NAAPAUansi_string@?1??type_case_Z@?$output_processor@DV?$string_output_adapter@D@__crt_stdio_output@@V?$positional_parameter_base@DV?$string_output_adapter@D@__crt_stdio_output@@@2@@1@AAE_NXZ@@Z 10046760 f i libucrtd:output.obj
 0001:00045890       ??$extract_argument_from_va_list@PAUansi_string@?1??type_case_Z@?$output_processor@DV?$string_output_adapter@D@__crt_stdio_output@@V?$positional_parameter_base@DV?$string_output_adapter@D@__crt_stdio_output@@@2@@__crt_stdio_output@@AAE_NXZ@PAU1?1??234@AAE_NXZ@@?$standard_base@DV?$string_output_adapter@D@__crt_stdio_output@@@__crt_stdio_output@@IAE_NAAPAUansi_string@?1??type_case_Z@?$output_processor@DV?$string_output_adapter@D@__crt_stdio_output@@V?$positional_parameter_base@DV?$string_output_adapter@D@__crt_stdio_output@@@2@@1@AAE_NXZ@@Z 10046890 f i libucrtd:output.obj
 0001:000458c0       ??$extract_argument_from_va_list@PAUansi_string@?1??type_case_Z@?$output_processor@DV?$string_output_adapter@D@__crt_stdio_output@@V?$standard_base@DV?$string_output_adapter@D@__crt_stdio_output@@@2@@__crt_stdio_output@@AAE_NXZ@PAU1?1??234@AAE_NXZ@@?$standard_base@DV?$string_output_adapter@D@__crt_stdio_output@@@__crt_stdio_output@@IAE_NAAPAUansi_string@?1??type_case_Z@?$output_processor@DV?$string_output_adapter@D@__crt_stdio_output@@V?$standard_base@DV?$string_output_adapter@D@__crt_stdio_output@@@2@@1@AAE_NXZ@@Z 100468c0 f i libucrtd:output.obj
 0001:000458f0       ??$extract_argument_from_va_list@PAUansi_string@?1??type_case_Z@?$output_processor@_WV?$stream_output_adapter@_W@__crt_stdio_output@@V?$format_validation_base@_WV?$stream_output_adapter@_W@__crt_stdio_output@@@2@@__crt_stdio_output@@AAE_NXZ@PAU1?1??234@AAE_NXZ@@?$standard_base@_WV?$stream_output_adapter@_W@__crt_stdio_output@@@__crt_stdio_output@@IAE_NAAPAUansi_string@?1??type_case_Z@?$output_processor@_WV?$stream_output_adapter@_W@__crt_stdio_output@@V?$format_validation_base@_WV?$stream_output_adapter@_W@__crt_stdio_output@@@2@@1@AAE_NXZ@@Z 100468f0 f i libucrtd:output.obj
 0001:00045920       ??$extract_argument_from_va_list@PAUansi_string@?1??type_case_Z@?$output_processor@_WV?$stream_output_adapter@_W@__crt_stdio_output@@V?$positional_parameter_base@_WV?$stream_output_adapter@_W@__crt_stdio_output@@@2@@__crt_stdio_output@@AAE_NXZ@PAU1?1??234@AAE_NXZ@@?$positional_parameter_base@_WV?$stream_output_adapter@_W@__crt_stdio_output@@@__crt_stdio_output@@IAE_NAAPAUansi_string@?1??type_case_Z@?$output_processor@_WV?$stream_output_adapter@_W@__crt_stdio_output@@V?$positional_parameter_base@_WV?$stream_output_adapter@_W@__crt_stdio_output@@@2@@1@AAE_NXZ@@Z 10046920 f i libucrtd:output.obj
 0001:00045a50       ??$extract_argument_from_va_list@PAUansi_string@?1??type_case_Z@?$output_processor@_WV?$stream_output_adapter@_W@__crt_stdio_output@@V?$positional_parameter_base@_WV?$stream_output_adapter@_W@__crt_stdio_output@@@2@@__crt_stdio_output@@AAE_NXZ@PAU1?1??234@AAE_NXZ@@?$standard_base@_WV?$stream_output_adapter@_W@__crt_stdio_output@@@__crt_stdio_output@@IAE_NAAPAUansi_string@?1??type_case_Z@?$output_processor@_WV?$stream_output_adapter@_W@__crt_stdio_output@@V?$positional_parameter_base@_WV?$stream_output_adapter@_W@__crt_stdio_output@@@2@@1@AAE_NXZ@@Z 10046a50 f i libucrtd:output.obj
 0001:00045a80       ??$extract_argument_from_va_list@PAUansi_string@?1??type_case_Z@?$output_processor@_WV?$stream_output_adapter@_W@__crt_stdio_output@@V?$standard_base@_WV?$stream_output_adapter@_W@__crt_stdio_output@@@2@@__crt_stdio_output@@AAE_NXZ@PAU1?1??234@AAE_NXZ@@?$standard_base@_WV?$stream_output_adapter@_W@__crt_stdio_output@@@__crt_stdio_output@@IAE_NAAPAUansi_string@?1??type_case_Z@?$output_processor@_WV?$stream_output_adapter@_W@__crt_stdio_output@@V?$standard_base@_WV?$stream_output_adapter@_W@__crt_stdio_output@@@2@@1@AAE_NXZ@@Z 10046a80 f i libucrtd:output.obj
 0001:00045ab0       ??$extract_argument_from_va_list@PAUansi_string@?1??type_case_Z@?$output_processor@_WV?$string_output_adapter@_W@__crt_stdio_output@@V?$format_validation_base@_WV?$string_output_adapter@_W@__crt_stdio_output@@@2@@__crt_stdio_output@@AAE_NXZ@PAU1?1??234@AAE_NXZ@@?$standard_base@_WV?$string_output_adapter@_W@__crt_stdio_output@@@__crt_stdio_output@@IAE_NAAPAUansi_string@?1??type_case_Z@?$output_processor@_WV?$string_output_adapter@_W@__crt_stdio_output@@V?$format_validation_base@_WV?$string_output_adapter@_W@__crt_stdio_output@@@2@@1@AAE_NXZ@@Z 10046ab0 f i libucrtd:output.obj
 0001:00045ae0       ??$extract_argument_from_va_list@PAUansi_string@?1??type_case_Z@?$output_processor@_WV?$string_output_adapter@_W@__crt_stdio_output@@V?$positional_parameter_base@_WV?$string_output_adapter@_W@__crt_stdio_output@@@2@@__crt_stdio_output@@AAE_NXZ@PAU1?1??234@AAE_NXZ@@?$positional_parameter_base@_WV?$string_output_adapter@_W@__crt_stdio_output@@@__crt_stdio_output@@IAE_NAAPAUansi_string@?1??type_case_Z@?$output_processor@_WV?$string_output_adapter@_W@__crt_stdio_output@@V?$positional_parameter_base@_WV?$string_output_adapter@_W@__crt_stdio_output@@@2@@1@AAE_NXZ@@Z 10046ae0 f i libucrtd:output.obj
 0001:00045c10       ??$extract_argument_from_va_list@PAUansi_string@?1??type_case_Z@?$output_processor@_WV?$string_output_adapter@_W@__crt_stdio_output@@V?$positional_parameter_base@_WV?$string_output_adapter@_W@__crt_stdio_output@@@2@@__crt_stdio_output@@AAE_NXZ@PAU1?1??234@AAE_NXZ@@?$standard_base@_WV?$string_output_adapter@_W@__crt_stdio_output@@@__crt_stdio_output@@IAE_NAAPAUansi_string@?1??type_case_Z@?$output_processor@_WV?$string_output_adapter@_W@__crt_stdio_output@@V?$positional_parameter_base@_WV?$string_output_adapter@_W@__crt_stdio_output@@@2@@1@AAE_NXZ@@Z 10046c10 f i libucrtd:output.obj
 0001:00045c40       ??$extract_argument_from_va_list@PAUansi_string@?1??type_case_Z@?$output_processor@_WV?$string_output_adapter@_W@__crt_stdio_output@@V?$standard_base@_WV?$string_output_adapter@_W@__crt_stdio_output@@@2@@__crt_stdio_output@@AAE_NXZ@PAU1?1??234@AAE_NXZ@@?$standard_base@_WV?$string_output_adapter@_W@__crt_stdio_output@@@__crt_stdio_output@@IAE_NAAPAUansi_string@?1??type_case_Z@?$output_processor@_WV?$string_output_adapter@_W@__crt_stdio_output@@V?$standard_base@_WV?$string_output_adapter@_W@__crt_stdio_output@@@2@@1@AAE_NXZ@@Z 10046c40 f i libucrtd:output.obj
 0001:00045c70       ??$extract_argument_from_va_list@PAXPAX@?$positional_parameter_base@DV?$stream_output_adapter@D@__crt_stdio_output@@@__crt_stdio_output@@IAE_NAAPAX@Z 10046c70 f i libucrtd:output.obj
 0001:00045da0       ??$extract_argument_from_va_list@PAXPAX@?$positional_parameter_base@DV?$string_output_adapter@D@__crt_stdio_output@@@__crt_stdio_output@@IAE_NAAPAX@Z 10046da0 f i libucrtd:output.obj
 0001:00045ed0       ??$extract_argument_from_va_list@PAXPAX@?$positional_parameter_base@_WV?$stream_output_adapter@_W@__crt_stdio_output@@@__crt_stdio_output@@IAE_NAAPAX@Z 10046ed0 f i libucrtd:output.obj
 0001:00046000       ??$extract_argument_from_va_list@PAXPAX@?$positional_parameter_base@_WV?$string_output_adapter@_W@__crt_stdio_output@@@__crt_stdio_output@@IAE_NAAPAX@Z 10047000 f i libucrtd:output.obj
 0001:00046130       ??$extract_argument_from_va_list@PAXPAX@?$standard_base@DV?$stream_output_adapter@D@__crt_stdio_output@@@__crt_stdio_output@@IAE_NAAPAX@Z 10047130 f i libucrtd:output.obj
 0001:00046160       ??$extract_argument_from_va_list@PAXPAX@?$standard_base@DV?$string_output_adapter@D@__crt_stdio_output@@@__crt_stdio_output@@IAE_NAAPAX@Z 10047160 f i libucrtd:output.obj
 0001:00046190       ??$extract_argument_from_va_list@PAXPAX@?$standard_base@_WV?$stream_output_adapter@_W@__crt_stdio_output@@@__crt_stdio_output@@IAE_NAAPAX@Z 10047190 f i libucrtd:output.obj
 0001:000461c0       ??$extract_argument_from_va_list@PAXPAX@?$standard_base@_WV?$string_output_adapter@_W@__crt_stdio_output@@@__crt_stdio_output@@IAE_NAAPAX@Z 100471c0 f i libucrtd:output.obj
 0001:000461f0       ??$extract_argument_from_va_list@U_CRT_DOUBLE@@U1@@?$positional_parameter_base@DV?$stream_output_adapter@D@__crt_stdio_output@@@__crt_stdio_output@@IAE_NAAU_CRT_DOUBLE@@@Z 100471f0 f i libucrtd:output.obj
 0001:00046350       ??$extract_argument_from_va_list@U_CRT_DOUBLE@@U1@@?$positional_parameter_base@DV?$string_output_adapter@D@__crt_stdio_output@@@__crt_stdio_output@@IAE_NAAU_CRT_DOUBLE@@@Z 10047350 f i libucrtd:output.obj
 0001:000464b0       ??$extract_argument_from_va_list@U_CRT_DOUBLE@@U1@@?$positional_parameter_base@_WV?$stream_output_adapter@_W@__crt_stdio_output@@@__crt_stdio_output@@IAE_NAAU_CRT_DOUBLE@@@Z 100474b0 f i libucrtd:output.obj
 0001:00046610       ??$extract_argument_from_va_list@U_CRT_DOUBLE@@U1@@?$positional_parameter_base@_WV?$string_output_adapter@_W@__crt_stdio_output@@@__crt_stdio_output@@IAE_NAAU_CRT_DOUBLE@@@Z 10047610 f i libucrtd:output.obj
 0001:00046770       ??$extract_argument_from_va_list@U_CRT_DOUBLE@@U1@@?$standard_base@DV?$stream_output_adapter@D@__crt_stdio_output@@@__crt_stdio_output@@IAE_NAAU_CRT_DOUBLE@@@Z 10047770 f i libucrtd:output.obj
 0001:000467c0       ??$extract_argument_from_va_list@U_CRT_DOUBLE@@U1@@?$standard_base@DV?$string_output_adapter@D@__crt_stdio_output@@@__crt_stdio_output@@IAE_NAAU_CRT_DOUBLE@@@Z 100477c0 f i libucrtd:output.obj
 0001:00046810       ??$extract_argument_from_va_list@U_CRT_DOUBLE@@U1@@?$standard_base@_WV?$stream_output_adapter@_W@__crt_stdio_output@@@__crt_stdio_output@@IAE_NAAU_CRT_DOUBLE@@@Z 10047810 f i libucrtd:output.obj
 0001:00046860       ??$extract_argument_from_va_list@U_CRT_DOUBLE@@U1@@?$standard_base@_WV?$string_output_adapter@_W@__crt_stdio_output@@@__crt_stdio_output@@IAE_NAAU_CRT_DOUBLE@@@Z 10047860 f i libucrtd:output.obj
 0001:000468b0       ??$extract_argument_from_va_list@_J_J@?$positional_parameter_base@DV?$stream_output_adapter@D@__crt_stdio_output@@@__crt_stdio_output@@IAE_NAA_J@Z 100478b0 f i libucrtd:output.obj
 0001:000469e0       ??$extract_argument_from_va_list@_J_J@?$positional_parameter_base@DV?$string_output_adapter@D@__crt_stdio_output@@@__crt_stdio_output@@IAE_NAA_J@Z 100479e0 f i libucrtd:output.obj
 0001:00046b10       ??$extract_argument_from_va_list@_J_J@?$positional_parameter_base@_WV?$stream_output_adapter@_W@__crt_stdio_output@@@__crt_stdio_output@@IAE_NAA_J@Z 10047b10 f i libucrtd:output.obj
 0001:00046c40       ??$extract_argument_from_va_list@_J_J@?$positional_parameter_base@_WV?$string_output_adapter@_W@__crt_stdio_output@@@__crt_stdio_output@@IAE_NAA_J@Z 10047c40 f i libucrtd:output.obj
 0001:00046d70       ??$extract_argument_from_va_list@_J_J@?$standard_base@DV?$stream_output_adapter@D@__crt_stdio_output@@@__crt_stdio_output@@IAE_NAA_J@Z 10047d70 f i libucrtd:output.obj
 0001:00046da0       ??$extract_argument_from_va_list@_J_J@?$standard_base@DV?$string_output_adapter@D@__crt_stdio_output@@@__crt_stdio_output@@IAE_NAA_J@Z 10047da0 f i libucrtd:output.obj
 0001:00046dd0       ??$extract_argument_from_va_list@_J_J@?$standard_base@_WV?$stream_output_adapter@_W@__crt_stdio_output@@@__crt_stdio_output@@IAE_NAA_J@Z 10047dd0 f i libucrtd:output.obj
 0001:00046e00       ??$extract_argument_from_va_list@_J_J@?$standard_base@_WV?$string_output_adapter@_W@__crt_stdio_output@@@__crt_stdio_output@@IAE_NAA_J@Z 10047e00 f i libucrtd:output.obj
 0001:00046e30       ??$extract_argument_from_va_list@_K_J@?$positional_parameter_base@DV?$stream_output_adapter@D@__crt_stdio_output@@@__crt_stdio_output@@IAE_NAA_J@Z 10047e30 f i libucrtd:output.obj
 0001:00046f60       ??$extract_argument_from_va_list@_K_J@?$positional_parameter_base@DV?$string_output_adapter@D@__crt_stdio_output@@@__crt_stdio_output@@IAE_NAA_J@Z 10047f60 f i libucrtd:output.obj
 0001:00047090       ??$extract_argument_from_va_list@_K_J@?$positional_parameter_base@_WV?$stream_output_adapter@_W@__crt_stdio_output@@@__crt_stdio_output@@IAE_NAA_J@Z 10048090 f i libucrtd:output.obj
 0001:000471c0       ??$extract_argument_from_va_list@_K_J@?$positional_parameter_base@_WV?$string_output_adapter@_W@__crt_stdio_output@@@__crt_stdio_output@@IAE_NAA_J@Z 100481c0 f i libucrtd:output.obj
 0001:000472f0       ??$extract_argument_from_va_list@_K_J@?$standard_base@DV?$stream_output_adapter@D@__crt_stdio_output@@@__crt_stdio_output@@IAE_NAA_J@Z 100482f0 f i libucrtd:output.obj
 0001:00047320       ??$extract_argument_from_va_list@_K_J@?$standard_base@DV?$string_output_adapter@D@__crt_stdio_output@@@__crt_stdio_output@@IAE_NAA_J@Z 10048320 f i libucrtd:output.obj
 0001:00047350       ??$extract_argument_from_va_list@_K_J@?$standard_base@_WV?$stream_output_adapter@_W@__crt_stdio_output@@@__crt_stdio_output@@IAE_NAA_J@Z 10048350 f i libucrtd:output.obj
 0001:00047380       ??$extract_argument_from_va_list@_K_J@?$standard_base@_WV?$string_output_adapter@_W@__crt_stdio_output@@@__crt_stdio_output@@IAE_NAA_J@Z 10048380 f i libucrtd:output.obj
 0001:000473b0       ??$extract_argument_from_va_list@_W_W@?$positional_parameter_base@DV?$stream_output_adapter@D@__crt_stdio_output@@@__crt_stdio_output@@IAE_NAA_W@Z 100483b0 f i libucrtd:output.obj
 0001:000474e0       ??$extract_argument_from_va_list@_W_W@?$positional_parameter_base@DV?$string_output_adapter@D@__crt_stdio_output@@@__crt_stdio_output@@IAE_NAA_W@Z 100484e0 f i libucrtd:output.obj
 0001:00047610       ??$extract_argument_from_va_list@_W_W@?$positional_parameter_base@_WV?$stream_output_adapter@_W@__crt_stdio_output@@@__crt_stdio_output@@IAE_NAA_W@Z 10048610 f i libucrtd:output.obj
 0001:00047740       ??$extract_argument_from_va_list@_W_W@?$positional_parameter_base@_WV?$string_output_adapter@_W@__crt_stdio_output@@@__crt_stdio_output@@IAE_NAA_W@Z 10048740 f i libucrtd:output.obj
 0001:00047870       ??$extract_argument_from_va_list@_W_W@?$standard_base@DV?$stream_output_adapter@D@__crt_stdio_output@@@__crt_stdio_output@@IAE_NAA_W@Z 10048870 f i libucrtd:output.obj
 0001:000478a0       ??$extract_argument_from_va_list@_W_W@?$standard_base@DV?$string_output_adapter@D@__crt_stdio_output@@@__crt_stdio_output@@IAE_NAA_W@Z 100488a0 f i libucrtd:output.obj
 0001:000478d0       ??$extract_argument_from_va_list@_W_W@?$standard_base@_WV?$stream_output_adapter@_W@__crt_stdio_output@@@__crt_stdio_output@@IAE_NAA_W@Z 100488d0 f i libucrtd:output.obj
 0001:00047900       ??$extract_argument_from_va_list@_W_W@?$standard_base@_WV?$string_output_adapter@_W@__crt_stdio_output@@@__crt_stdio_output@@IAE_NAA_W@Z 10048900 f i libucrtd:output.obj
 0001:00047930       ??$get_parameter_type@D@?$positional_parameter_base@DV?$stream_output_adapter@D@__crt_stdio_output@@@__crt_stdio_output@@CA?AW4parameter_type@01@PAD@Z 10048930 f i libucrtd:output.obj
 0001:00047940       ??$get_parameter_type@D@?$positional_parameter_base@DV?$string_output_adapter@D@__crt_stdio_output@@@__crt_stdio_output@@CA?AW4parameter_type@01@PAD@Z 10048940 f i libucrtd:output.obj
 0001:00047950       ??$get_parameter_type@D@?$positional_parameter_base@_WV?$stream_output_adapter@_W@__crt_stdio_output@@@__crt_stdio_output@@CA?AW4parameter_type@01@PAD@Z 10048950 f i libucrtd:output.obj
 0001:00047960       ??$get_parameter_type@D@?$positional_parameter_base@_WV?$string_output_adapter@_W@__crt_stdio_output@@@__crt_stdio_output@@CA?AW4parameter_type@01@PAD@Z 10048960 f i libucrtd:output.obj
 0001:00047970       ??$get_parameter_type@Uansi_string@?1??type_case_Z@?$output_processor@DV?$stream_output_adapter@D@__crt_stdio_output@@V?$positional_parameter_base@DV?$stream_output_adapter@D@__crt_stdio_output@@@2@@__crt_stdio_output@@AAE_NXZ@@?$positional_parameter_base@DV?$stream_output_adapter@D@__crt_stdio_output@@@__crt_stdio_output@@CA?AW4parameter_type@01@PAUansi_string@?1??type_case_Z@?$output_processor@DV?$stream_output_adapter@D@__crt_stdio_output@@V?$positional_parameter_base@DV?$stream_output_adapter@D@__crt_stdio_output@@@2@@1@AAE_NXZ@@Z 10048970 f i libucrtd:output.obj
 0001:00047980       ??$get_parameter_type@Uansi_string@?1??type_case_Z@?$output_processor@DV?$string_output_adapter@D@__crt_stdio_output@@V?$positional_parameter_base@DV?$string_output_adapter@D@__crt_stdio_output@@@2@@__crt_stdio_output@@AAE_NXZ@@?$positional_parameter_base@DV?$string_output_adapter@D@__crt_stdio_output@@@__crt_stdio_output@@CA?AW4parameter_type@01@PAUansi_string@?1??type_case_Z@?$output_processor@DV?$string_output_adapter@D@__crt_stdio_output@@V?$positional_parameter_base@DV?$string_output_adapter@D@__crt_stdio_output@@@2@@1@AAE_NXZ@@Z 10048980 f i libucrtd:output.obj
 0001:00047990       ??$get_parameter_type@Uansi_string@?1??type_case_Z@?$output_processor@_WV?$stream_output_adapter@_W@__crt_stdio_output@@V?$positional_parameter_base@_WV?$stream_output_adapter@_W@__crt_stdio_output@@@2@@__crt_stdio_output@@AAE_NXZ@@?$positional_parameter_base@_WV?$stream_output_adapter@_W@__crt_stdio_output@@@__crt_stdio_output@@CA?AW4parameter_type@01@PAUansi_string@?1??type_case_Z@?$output_processor@_WV?$stream_output_adapter@_W@__crt_stdio_output@@V?$positional_parameter_base@_WV?$stream_output_adapter@_W@__crt_stdio_output@@@2@@1@AAE_NXZ@@Z 10048990 f i libucrtd:output.obj
 0001:000479a0       ??$get_parameter_type@Uansi_string@?1??type_case_Z@?$output_processor@_WV?$string_output_adapter@_W@__crt_stdio_output@@V?$positional_parameter_base@_WV?$string_output_adapter@_W@__crt_stdio_output@@@2@@__crt_stdio_output@@AAE_NXZ@@?$positional_parameter_base@_WV?$string_output_adapter@_W@__crt_stdio_output@@@__crt_stdio_output@@CA?AW4parameter_type@01@PAUansi_string@?1??type_case_Z@?$output_processor@_WV?$string_output_adapter@_W@__crt_stdio_output@@V?$positional_parameter_base@_WV?$string_output_adapter@_W@__crt_stdio_output@@@2@@1@AAE_NXZ@@Z 100489a0 f i libucrtd:output.obj
 0001:000479b0       ??$get_parameter_type@X@?$positional_parameter_base@DV?$stream_output_adapter@D@__crt_stdio_output@@@__crt_stdio_output@@CA?AW4parameter_type@01@PAX@Z 100489b0 f i libucrtd:output.obj
 0001:000479c0       ??$get_parameter_type@X@?$positional_parameter_base@DV?$string_output_adapter@D@__crt_stdio_output@@@__crt_stdio_output@@CA?AW4parameter_type@01@PAX@Z 100489c0 f i libucrtd:output.obj
 0001:000479d0       ??$get_parameter_type@X@?$positional_parameter_base@_WV?$stream_output_adapter@_W@__crt_stdio_output@@@__crt_stdio_output@@CA?AW4parameter_type@01@PAX@Z 100489d0 f i libucrtd:output.obj
 0001:000479e0       ??$get_parameter_type@X@?$positional_parameter_base@_WV?$string_output_adapter@_W@__crt_stdio_output@@@__crt_stdio_output@@CA?AW4parameter_type@01@PAX@Z 100489e0 f i libucrtd:output.obj
 0001:000479f0       ??$is_character_specifier@D@?$positional_parameter_base@DV?$stream_output_adapter@D@__crt_stdio_output@@@__crt_stdio_output@@CA_ND@Z 100489f0 f i libucrtd:output.obj
 0001:00047a20       ??$is_character_specifier@D@?$positional_parameter_base@DV?$string_output_adapter@D@__crt_stdio_output@@@__crt_stdio_output@@CA_ND@Z 10048a20 f i libucrtd:output.obj
 0001:00047a50       ??$is_character_specifier@_W@?$positional_parameter_base@_WV?$stream_output_adapter@_W@__crt_stdio_output@@@__crt_stdio_output@@CA_N_W@Z 10048a50 f i libucrtd:output.obj
 0001:00047a80       ??$is_character_specifier@_W@?$positional_parameter_base@_WV?$string_output_adapter@_W@__crt_stdio_output@@@__crt_stdio_output@@CA_N_W@Z 10048a80 f i libucrtd:output.obj
 0001:00047ab0       ??$is_integral_specifier@D@?$positional_parameter_base@DV?$stream_output_adapter@D@__crt_stdio_output@@@__crt_stdio_output@@CA_ND@Z 10048ab0 f i libucrtd:output.obj
 0001:00047b10       ??$is_integral_specifier@D@?$positional_parameter_base@DV?$string_output_adapter@D@__crt_stdio_output@@@__crt_stdio_output@@CA_ND@Z 10048b10 f i libucrtd:output.obj
 0001:00047b70       ??$is_integral_specifier@_W@?$positional_parameter_base@_WV?$stream_output_adapter@_W@__crt_stdio_output@@@__crt_stdio_output@@CA_N_W@Z 10048b70 f i libucrtd:output.obj
 0001:00047bd0       ??$is_integral_specifier@_W@?$positional_parameter_base@_WV?$string_output_adapter@_W@__crt_stdio_output@@@__crt_stdio_output@@CA_N_W@Z 10048bd0 f i libucrtd:output.obj
 0001:00047c30       ??$is_pointer_specifier@D@?$positional_parameter_base@DV?$stream_output_adapter@D@__crt_stdio_output@@@__crt_stdio_output@@CA_ND@Z 10048c30 f i libucrtd:output.obj
 0001:00047c60       ??$is_pointer_specifier@D@?$positional_parameter_base@DV?$string_output_adapter@D@__crt_stdio_output@@@__crt_stdio_output@@CA_ND@Z 10048c60 f i libucrtd:output.obj
 0001:00047c90       ??$is_pointer_specifier@_W@?$positional_parameter_base@_WV?$stream_output_adapter@_W@__crt_stdio_output@@@__crt_stdio_output@@CA_N_W@Z 10048c90 f i libucrtd:output.obj
 0001:00047cc0       ??$is_pointer_specifier@_W@?$positional_parameter_base@_WV?$string_output_adapter@_W@__crt_stdio_output@@@__crt_stdio_output@@CA_N_W@Z 10048cc0 f i libucrtd:output.obj
 0001:00047cf0       ??$is_string_specifier@D@?$positional_parameter_base@DV?$stream_output_adapter@D@__crt_stdio_output@@@__crt_stdio_output@@CA_ND@Z 10048cf0 f i libucrtd:output.obj
 0001:00047d20       ??$is_string_specifier@D@?$positional_parameter_base@DV?$string_output_adapter@D@__crt_stdio_output@@@__crt_stdio_output@@CA_ND@Z 10048d20 f i libucrtd:output.obj
 0001:00047d50       ??$is_string_specifier@_W@?$positional_parameter_base@_WV?$stream_output_adapter@_W@__crt_stdio_output@@@__crt_stdio_output@@CA_N_W@Z 10048d50 f i libucrtd:output.obj
 0001:00047d80       ??$is_string_specifier@_W@?$positional_parameter_base@_WV?$string_output_adapter@_W@__crt_stdio_output@@@__crt_stdio_output@@CA_N_W@Z 10048d80 f i libucrtd:output.obj
 0001:00047db0       ??$is_wide_character_specifier@D@__crt_stdio_output@@YA_N_KDW4length_modifier@0@@Z 10048db0 f i libucrtd:output.obj
 0001:00047e30       ??$is_wide_character_specifier@_W@__crt_stdio_output@@YA_N_K_WW4length_modifier@0@@Z 10048e30 f i libucrtd:output.obj
 0001:00047ef0       ??$peek_va_arg@C@__crt_stdio_output@@YACPAD@Z 10048ef0 f i libucrtd:output.obj
 0001:00047f10       ??$peek_va_arg@E@__crt_stdio_output@@YAEPAD@Z 10048f10 f i libucrtd:output.obj
 0001:00047f30       ??$peek_va_arg@F@__crt_stdio_output@@YAFPAD@Z 10048f30 f i libucrtd:output.obj
 0001:00047f50       ??$peek_va_arg@G@__crt_stdio_output@@YAGPAD@Z 10048f50 f i libucrtd:output.obj
 0001:00047f70       ??$peek_va_arg@H@__crt_stdio_output@@YAHPAD@Z 10048f70 f i libucrtd:output.obj
 0001:00047f90       ??$peek_va_arg@I@__crt_stdio_output@@YAIPAD@Z 10048f90 f i libucrtd:output.obj
 0001:00047fb0       ??$peek_va_arg@PAD@__crt_stdio_output@@YAPADPAD@Z 10048fb0 f i libucrtd:output.obj
 0001:00047fd0       ??$peek_va_arg@PAUansi_string@?1??type_case_Z@?$output_processor@DV?$stream_output_adapter@D@__crt_stdio_output@@V?$positional_parameter_base@DV?$stream_output_adapter@D@__crt_stdio_output@@@2@@__crt_stdio_output@@AAE_NXZ@@__crt_stdio_output@@YAPAUansi_string@?1??type_case_Z@?$output_processor@DV?$stream_output_adapter@D@__crt_stdio_output@@V?$positional_parameter_base@DV?$stream_output_adapter@D@__crt_stdio_output@@@2@@0@AAE_NXZ@PAD@Z 10048fd0 f i libucrtd:output.obj
 0001:00047ff0       ??$peek_va_arg@PAUansi_string@?1??type_case_Z@?$output_processor@DV?$string_output_adapter@D@__crt_stdio_output@@V?$positional_parameter_base@DV?$string_output_adapter@D@__crt_stdio_output@@@2@@__crt_stdio_output@@AAE_NXZ@@__crt_stdio_output@@YAPAUansi_string@?1??type_case_Z@?$output_processor@DV?$string_output_adapter@D@__crt_stdio_output@@V?$positional_parameter_base@DV?$string_output_adapter@D@__crt_stdio_output@@@2@@0@AAE_NXZ@PAD@Z 10048ff0 f i libucrtd:output.obj
 0001:00048010       ??$peek_va_arg@PAUansi_string@?1??type_case_Z@?$output_processor@_WV?$stream_output_adapter@_W@__crt_stdio_output@@V?$positional_parameter_base@_WV?$stream_output_adapter@_W@__crt_stdio_output@@@2@@__crt_stdio_output@@AAE_NXZ@@__crt_stdio_output@@YAPAUansi_string@?1??type_case_Z@?$output_processor@_WV?$stream_output_adapter@_W@__crt_stdio_output@@V?$positional_parameter_base@_WV?$stream_output_adapter@_W@__crt_stdio_output@@@2@@0@AAE_NXZ@PAD@Z 10049010 f i libucrtd:output.obj
 0001:00048030       ??$peek_va_arg@PAUansi_string@?1??type_case_Z@?$output_processor@_WV?$string_output_adapter@_W@__crt_stdio_output@@V?$positional_parameter_base@_WV?$string_output_adapter@_W@__crt_stdio_output@@@2@@__crt_stdio_output@@AAE_NXZ@@__crt_stdio_output@@YAPAUansi_string@?1??type_case_Z@?$output_processor@_WV?$string_output_adapter@_W@__crt_stdio_output@@V?$positional_parameter_base@_WV?$string_output_adapter@_W@__crt_stdio_output@@@2@@0@AAE_NXZ@PAD@Z 10049030 f i libucrtd:output.obj
 0001:00048050       ??$peek_va_arg@PAX@__crt_stdio_output@@YAPAXPAD@Z 10049050 f i libucrtd:output.obj
 0001:00048070       ??$peek_va_arg@U_CRT_DOUBLE@@@__crt_stdio_output@@YA?AU_CRT_DOUBLE@@PAD@Z 10049070 f i libucrtd:output.obj
 0001:00048090       ??$peek_va_arg@_J@__crt_stdio_output@@YA_JPAD@Z 10049090 f i libucrtd:output.obj
 0001:000480b0       ??$peek_va_arg@_K@__crt_stdio_output@@YA_KPAD@Z 100490b0 f i libucrtd:output.obj
 0001:000480d0       ??$peek_va_arg@_W@__crt_stdio_output@@YA_WPAD@Z 100490d0 f i libucrtd:output.obj
 0001:000480f0       ??$puttc_nolock@ABDPAU_iobuf@@@?$__crt_char_traits@D@@SAHABD$$QAPAU_iobuf@@@Z 100490f0 f i libucrtd:output.obj
 0001:00048110       ??$puttc_nolock@AB_WPAU_iobuf@@@?$__crt_char_traits@_W@@SAGAB_W$$QAPAU_iobuf@@@Z 10049110 f i libucrtd:output.obj
 0001:00048130       ??$read_va_arg@C@__crt_stdio_output@@YACAAPAD@Z 10049130 f i libucrtd:output.obj
 0001:00048150       ??$read_va_arg@E@__crt_stdio_output@@YAEAAPAD@Z 10049150 f i libucrtd:output.obj
 0001:00048170       ??$read_va_arg@F@__crt_stdio_output@@YAFAAPAD@Z 10049170 f i libucrtd:output.obj
 0001:00048190       ??$read_va_arg@G@__crt_stdio_output@@YAGAAPAD@Z 10049190 f i libucrtd:output.obj
 0001:000481b0       ??$read_va_arg@H@__crt_stdio_output@@YAHAAPAD@Z 100491b0 f i libucrtd:output.obj
 0001:000481d0       ??$read_va_arg@I@__crt_stdio_output@@YAIAAPAD@Z 100491d0 f i libucrtd:output.obj
 0001:000481f0       ??$read_va_arg@PAD@__crt_stdio_output@@YAPADAAPAD@Z 100491f0 f i libucrtd:output.obj
 0001:00048210       ??$read_va_arg@PAUansi_string@?1??type_case_Z@?$output_processor@DV?$stream_output_adapter@D@__crt_stdio_output@@V?$format_validation_base@DV?$stream_output_adapter@D@__crt_stdio_output@@@2@@__crt_stdio_output@@AAE_NXZ@@__crt_stdio_output@@YAPAUansi_string@?1??type_case_Z@?$output_processor@DV?$stream_output_adapter@D@__crt_stdio_output@@V?$format_validation_base@DV?$stream_output_adapter@D@__crt_stdio_output@@@2@@0@AAE_NXZ@AAPAD@Z 10049210 f i libucrtd:output.obj
 0001:00048230       ??$read_va_arg@PAUansi_string@?1??type_case_Z@?$output_processor@DV?$stream_output_adapter@D@__crt_stdio_output@@V?$positional_parameter_base@DV?$stream_output_adapter@D@__crt_stdio_output@@@2@@__crt_stdio_output@@AAE_NXZ@@__crt_stdio_output@@YAPAUansi_string@?1??type_case_Z@?$output_processor@DV?$stream_output_adapter@D@__crt_stdio_output@@V?$positional_parameter_base@DV?$stream_output_adapter@D@__crt_stdio_output@@@2@@0@AAE_NXZ@AAPAD@Z 10049230 f i libucrtd:output.obj
 0001:00048250       ??$read_va_arg@PAUansi_string@?1??type_case_Z@?$output_processor@DV?$stream_output_adapter@D@__crt_stdio_output@@V?$standard_base@DV?$stream_output_adapter@D@__crt_stdio_output@@@2@@__crt_stdio_output@@AAE_NXZ@@__crt_stdio_output@@YAPAUansi_string@?1??type_case_Z@?$output_processor@DV?$stream_output_adapter@D@__crt_stdio_output@@V?$standard_base@DV?$stream_output_adapter@D@__crt_stdio_output@@@2@@0@AAE_NXZ@AAPAD@Z 10049250 f i libucrtd:output.obj
 0001:00048270       ??$read_va_arg@PAUansi_string@?1??type_case_Z@?$output_processor@DV?$string_output_adapter@D@__crt_stdio_output@@V?$format_validation_base@DV?$string_output_adapter@D@__crt_stdio_output@@@2@@__crt_stdio_output@@AAE_NXZ@@__crt_stdio_output@@YAPAUansi_string@?1??type_case_Z@?$output_processor@DV?$string_output_adapter@D@__crt_stdio_output@@V?$format_validation_base@DV?$string_output_adapter@D@__crt_stdio_output@@@2@@0@AAE_NXZ@AAPAD@Z 10049270 f i libucrtd:output.obj
 0001:00048290       ??$read_va_arg@PAUansi_string@?1??type_case_Z@?$output_processor@DV?$string_output_adapter@D@__crt_stdio_output@@V?$positional_parameter_base@DV?$string_output_adapter@D@__crt_stdio_output@@@2@@__crt_stdio_output@@AAE_NXZ@@__crt_stdio_output@@YAPAUansi_string@?1??type_case_Z@?$output_processor@DV?$string_output_adapter@D@__crt_stdio_output@@V?$positional_parameter_base@DV?$string_output_adapter@D@__crt_stdio_output@@@2@@0@AAE_NXZ@AAPAD@Z 10049290 f i libucrtd:output.obj
 0001:000482b0       ??$read_va_arg@PAUansi_string@?1??type_case_Z@?$output_processor@DV?$string_output_adapter@D@__crt_stdio_output@@V?$standard_base@DV?$string_output_adapter@D@__crt_stdio_output@@@2@@__crt_stdio_output@@AAE_NXZ@@__crt_stdio_output@@YAPAUansi_string@?1??type_case_Z@?$output_processor@DV?$string_output_adapter@D@__crt_stdio_output@@V?$standard_base@DV?$string_output_adapter@D@__crt_stdio_output@@@2@@0@AAE_NXZ@AAPAD@Z 100492b0 f i libucrtd:output.obj
 0001:000482d0       ??$read_va_arg@PAUansi_string@?1??type_case_Z@?$output_processor@_WV?$stream_output_adapter@_W@__crt_stdio_output@@V?$format_validation_base@_WV?$stream_output_adapter@_W@__crt_stdio_output@@@2@@__crt_stdio_output@@AAE_NXZ@@__crt_stdio_output@@YAPAUansi_string@?1??type_case_Z@?$output_processor@_WV?$stream_output_adapter@_W@__crt_stdio_output@@V?$format_validation_base@_WV?$stream_output_adapter@_W@__crt_stdio_output@@@2@@0@AAE_NXZ@AAPAD@Z 100492d0 f i libucrtd:output.obj
 0001:000482f0       ??$read_va_arg@PAUansi_string@?1??type_case_Z@?$output_processor@_WV?$stream_output_adapter@_W@__crt_stdio_output@@V?$positional_parameter_base@_WV?$stream_output_adapter@_W@__crt_stdio_output@@@2@@__crt_stdio_output@@AAE_NXZ@@__crt_stdio_output@@YAPAUansi_string@?1??type_case_Z@?$output_processor@_WV?$stream_output_adapter@_W@__crt_stdio_output@@V?$positional_parameter_base@_WV?$stream_output_adapter@_W@__crt_stdio_output@@@2@@0@AAE_NXZ@AAPAD@Z 100492f0 f i libucrtd:output.obj
 0001:00048310       ??$read_va_arg@PAUansi_string@?1??type_case_Z@?$output_processor@_WV?$stream_output_adapter@_W@__crt_stdio_output@@V?$standard_base@_WV?$stream_output_adapter@_W@__crt_stdio_output@@@2@@__crt_stdio_output@@AAE_NXZ@@__crt_stdio_output@@YAPAUansi_string@?1??type_case_Z@?$output_processor@_WV?$stream_output_adapter@_W@__crt_stdio_output@@V?$standard_base@_WV?$stream_output_adapter@_W@__crt_stdio_output@@@2@@0@AAE_NXZ@AAPAD@Z 10049310 f i libucrtd:output.obj
 0001:00048330       ??$read_va_arg@PAUansi_string@?1??type_case_Z@?$output_processor@_WV?$string_output_adapter@_W@__crt_stdio_output@@V?$format_validation_base@_WV?$string_output_adapter@_W@__crt_stdio_output@@@2@@__crt_stdio_output@@AAE_NXZ@@__crt_stdio_output@@YAPAUansi_string@?1??type_case_Z@?$output_processor@_WV?$string_output_adapter@_W@__crt_stdio_output@@V?$format_validation_base@_WV?$string_output_adapter@_W@__crt_stdio_output@@@2@@0@AAE_NXZ@AAPAD@Z 10049330 f i libucrtd:output.obj
 0001:00048350       ??$read_va_arg@PAUansi_string@?1??type_case_Z@?$output_processor@_WV?$string_output_adapter@_W@__crt_stdio_output@@V?$positional_parameter_base@_WV?$string_output_adapter@_W@__crt_stdio_output@@@2@@__crt_stdio_output@@AAE_NXZ@@__crt_stdio_output@@YAPAUansi_string@?1??type_case_Z@?$output_processor@_WV?$string_output_adapter@_W@__crt_stdio_output@@V?$positional_parameter_base@_WV?$string_output_adapter@_W@__crt_stdio_output@@@2@@0@AAE_NXZ@AAPAD@Z 10049350 f i libucrtd:output.obj
 0001:00048370       ??$read_va_arg@PAUansi_string@?1??type_case_Z@?$output_processor@_WV?$string_output_adapter@_W@__crt_stdio_output@@V?$standard_base@_WV?$string_output_adapter@_W@__crt_stdio_output@@@2@@__crt_stdio_output@@AAE_NXZ@@__crt_stdio_output@@YAPAUansi_string@?1??type_case_Z@?$output_processor@_WV?$string_output_adapter@_W@__crt_stdio_output@@V?$standard_base@_WV?$string_output_adapter@_W@__crt_stdio_output@@@2@@0@AAE_NXZ@AAPAD@Z 10049370 f i libucrtd:output.obj
 0001:00048390       ??$read_va_arg@PAX@__crt_stdio_output@@YAPAXAAPAD@Z 10049390 f i libucrtd:output.obj
 0001:000483b0       ??$read_va_arg@U_CRT_DOUBLE@@@__crt_stdio_output@@YA?AU_CRT_DOUBLE@@AAPAD@Z 100493b0 f i libucrtd:output.obj
 0001:000483d0       ??$read_va_arg@_J@__crt_stdio_output@@YA_JAAPAD@Z 100493d0 f i libucrtd:output.obj
 0001:000483f0       ??$read_va_arg@_K@__crt_stdio_output@@YA_KAAPAD@Z 100493f0 f i libucrtd:output.obj
 0001:00048410       ??$read_va_arg@_W@__crt_stdio_output@@YA_WAAPAD@Z 10049410 f i libucrtd:output.obj
 0001:00048430       ??$scratch_count@D@formatting_buffer@__crt_stdio_output@@QBEIXZ 10049430 f i libucrtd:output.obj
 0001:00048450       ??$scratch_data@D@formatting_buffer@__crt_stdio_output@@QAEPADXZ 10049450 f i libucrtd:output.obj
 0001:000484a0       ??$tcstol@AAPBDPAPADH@?$__crt_char_traits@D@@SAJAAPBD$$QAPAPAD$$QAH@Z 100494a0 f i libucrtd:output.obj
 0001:000484d0       ??$tcstol@AAPB_WPAPA_WH@?$__crt_char_traits@_W@@SAJAAPB_W$$QAPAPA_W$$QAH@Z 100494d0 f i libucrtd:output.obj
 0001:00048500       ??$tcstol@PBDPAPADH@?$__crt_char_traits@D@@SAJ$$QAPBD$$QAPAPAD$$QAH@Z 10049500 f i libucrtd:output.obj
 0001:00048530       ??$tcstol@PB_WPAPA_WH@?$__crt_char_traits@_W@@SAJ$$QAPB_W$$QAPAPA_W$$QAH@Z 10049530 f i libucrtd:output.obj
 0001:00048560       ??$type_case_integer_parse_into_buffer@I@?$output_processor@DV?$stream_output_adapter@D@__crt_stdio_output@@V?$format_validation_base@DV?$stream_output_adapter@D@__crt_stdio_output@@@2@@__crt_stdio_output@@AAEXII_N@Z 10049560 f i libucrtd:output.obj
 0001:00048630       ??$type_case_integer_parse_into_buffer@I@?$output_processor@DV?$stream_output_adapter@D@__crt_stdio_output@@V?$positional_parameter_base@DV?$stream_output_adapter@D@__crt_stdio_output@@@2@@__crt_stdio_output@@AAEXII_N@Z 10049630 f i libucrtd:output.obj
 0001:00048700       ??$type_case_integer_parse_into_buffer@I@?$output_processor@DV?$stream_output_adapter@D@__crt_stdio_output@@V?$standard_base@DV?$stream_output_adapter@D@__crt_stdio_output@@@2@@__crt_stdio_output@@AAEXII_N@Z 10049700 f i libucrtd:output.obj
 0001:000487d0       ??$type_case_integer_parse_into_buffer@I@?$output_processor@DV?$string_output_adapter@D@__crt_stdio_output@@V?$format_validation_base@DV?$string_output_adapter@D@__crt_stdio_output@@@2@@__crt_stdio_output@@AAEXII_N@Z 100497d0 f i libucrtd:output.obj
 0001:000488a0       ??$type_case_integer_parse_into_buffer@I@?$output_processor@DV?$string_output_adapter@D@__crt_stdio_output@@V?$positional_parameter_base@DV?$string_output_adapter@D@__crt_stdio_output@@@2@@__crt_stdio_output@@AAEXII_N@Z 100498a0 f i libucrtd:output.obj
 0001:00048970       ??$type_case_integer_parse_into_buffer@I@?$output_processor@DV?$string_output_adapter@D@__crt_stdio_output@@V?$standard_base@DV?$string_output_adapter@D@__crt_stdio_output@@@2@@__crt_stdio_output@@AAEXII_N@Z 10049970 f i libucrtd:output.obj
 0001:00048a40       ??$type_case_integer_parse_into_buffer@I@?$output_processor@_WV?$stream_output_adapter@_W@__crt_stdio_output@@V?$format_validation_base@_WV?$stream_output_adapter@_W@__crt_stdio_output@@@2@@__crt_stdio_output@@AAEXII_N@Z 10049a40 f i libucrtd:output.obj
 0001:00048b10       ??$type_case_integer_parse_into_buffer@I@?$output_processor@_WV?$stream_output_adapter@_W@__crt_stdio_output@@V?$positional_parameter_base@_WV?$stream_output_adapter@_W@__crt_stdio_output@@@2@@__crt_stdio_output@@AAEXII_N@Z 10049b10 f i libucrtd:output.obj
 0001:00048be0       ??$type_case_integer_parse_into_buffer@I@?$output_processor@_WV?$stream_output_adapter@_W@__crt_stdio_output@@V?$standard_base@_WV?$stream_output_adapter@_W@__crt_stdio_output@@@2@@__crt_stdio_output@@AAEXII_N@Z 10049be0 f i libucrtd:output.obj
 0001:00048cb0       ??$type_case_integer_parse_into_buffer@I@?$output_processor@_WV?$string_output_adapter@_W@__crt_stdio_output@@V?$format_validation_base@_WV?$string_output_adapter@_W@__crt_stdio_output@@@2@@__crt_stdio_output@@AAEXII_N@Z 10049cb0 f i libucrtd:output.obj
 0001:00048d80       ??$type_case_integer_parse_into_buffer@I@?$output_processor@_WV?$string_output_adapter@_W@__crt_stdio_output@@V?$positional_parameter_base@_WV?$string_output_adapter@_W@__crt_stdio_output@@@2@@__crt_stdio_output@@AAEXII_N@Z 10049d80 f i libucrtd:output.obj
 0001:00048e50       ??$type_case_integer_parse_into_buffer@I@?$output_processor@_WV?$string_output_adapter@_W@__crt_stdio_output@@V?$standard_base@_WV?$string_output_adapter@_W@__crt_stdio_output@@@2@@__crt_stdio_output@@AAEXII_N@Z 10049e50 f i libucrtd:output.obj
 0001:00048f20       ??$type_case_integer_parse_into_buffer@_K@?$output_processor@DV?$stream_output_adapter@D@__crt_stdio_output@@V?$format_validation_base@DV?$stream_output_adapter@D@__crt_stdio_output@@@2@@__crt_stdio_output@@AAEX_KI_N@Z 10049f20 f i libucrtd:output.obj
 0001:00049020       ??$type_case_integer_parse_into_buffer@_K@?$output_processor@DV?$stream_output_adapter@D@__crt_stdio_output@@V?$positional_parameter_base@DV?$stream_output_adapter@D@__crt_stdio_output@@@2@@__crt_stdio_output@@AAEX_KI_N@Z 1004a020 f i libucrtd:output.obj
 0001:00049120       ??$type_case_integer_parse_into_buffer@_K@?$output_processor@DV?$stream_output_adapter@D@__crt_stdio_output@@V?$standard_base@DV?$stream_output_adapter@D@__crt_stdio_output@@@2@@__crt_stdio_output@@AAEX_KI_N@Z 1004a120 f i libucrtd:output.obj
 0001:00049220       ??$type_case_integer_parse_into_buffer@_K@?$output_processor@DV?$string_output_adapter@D@__crt_stdio_output@@V?$format_validation_base@DV?$string_output_adapter@D@__crt_stdio_output@@@2@@__crt_stdio_output@@AAEX_KI_N@Z 1004a220 f i libucrtd:output.obj
 0001:00049320       ??$type_case_integer_parse_into_buffer@_K@?$output_processor@DV?$string_output_adapter@D@__crt_stdio_output@@V?$positional_parameter_base@DV?$string_output_adapter@D@__crt_stdio_output@@@2@@__crt_stdio_output@@AAEX_KI_N@Z 1004a320 f i libucrtd:output.obj
 0001:00049420       ??$type_case_integer_parse_into_buffer@_K@?$output_processor@DV?$string_output_adapter@D@__crt_stdio_output@@V?$standard_base@DV?$string_output_adapter@D@__crt_stdio_output@@@2@@__crt_stdio_output@@AAEX_KI_N@Z 1004a420 f i libucrtd:output.obj
 0001:00049520       ??$type_case_integer_parse_into_buffer@_K@?$output_processor@_WV?$stream_output_adapter@_W@__crt_stdio_output@@V?$format_validation_base@_WV?$stream_output_adapter@_W@__crt_stdio_output@@@2@@__crt_stdio_output@@AAEX_KI_N@Z 1004a520 f i libucrtd:output.obj
 0001:00049620       ??$type_case_integer_parse_into_buffer@_K@?$output_processor@_WV?$stream_output_adapter@_W@__crt_stdio_output@@V?$positional_parameter_base@_WV?$stream_output_adapter@_W@__crt_stdio_output@@@2@@__crt_stdio_output@@AAEX_KI_N@Z 1004a620 f i libucrtd:output.obj
 0001:00049720       ??$type_case_integer_parse_into_buffer@_K@?$output_processor@_WV?$stream_output_adapter@_W@__crt_stdio_output@@V?$standard_base@_WV?$stream_output_adapter@_W@__crt_stdio_output@@@2@@__crt_stdio_output@@AAEX_KI_N@Z 1004a720 f i libucrtd:output.obj
 0001:00049820       ??$type_case_integer_parse_into_buffer@_K@?$output_processor@_WV?$string_output_adapter@_W@__crt_stdio_output@@V?$format_validation_base@_WV?$string_output_adapter@_W@__crt_stdio_output@@@2@@__crt_stdio_output@@AAEX_KI_N@Z 1004a820 f i libucrtd:output.obj
 0001:00049920       ??$type_case_integer_parse_into_buffer@_K@?$output_processor@_WV?$string_output_adapter@_W@__crt_stdio_output@@V?$positional_parameter_base@_WV?$string_output_adapter@_W@__crt_stdio_output@@@2@@__crt_stdio_output@@AAEX_KI_N@Z 1004a920 f i libucrtd:output.obj
 0001:00049a20       ??$type_case_integer_parse_into_buffer@_K@?$output_processor@_WV?$string_output_adapter@_W@__crt_stdio_output@@V?$standard_base@_WV?$string_output_adapter@_W@__crt_stdio_output@@@2@@__crt_stdio_output@@AAEX_KI_N@Z 1004aa20 f i libucrtd:output.obj
 0001:00049b20       ??$write_multiple_characters@V?$stream_output_adapter@D@__crt_stdio_output@@D@__crt_stdio_output@@YAXABV?$stream_output_adapter@D@0@DHQAH@Z 1004ab20 f i libucrtd:output.obj
 0001:00049b70       ??$write_multiple_characters@V?$stream_output_adapter@_W@__crt_stdio_output@@D@__crt_stdio_output@@YAXABV?$stream_output_adapter@_W@0@DHQAH@Z 1004ab70 f i libucrtd:output.obj
 0001:00049bc0       ??$write_multiple_characters@V?$string_output_adapter@D@__crt_stdio_output@@D@__crt_stdio_output@@YAXABV?$string_output_adapter@D@0@DHQAH@Z 1004abc0 f i libucrtd:output.obj
 0001:00049c10       ??$write_multiple_characters@V?$string_output_adapter@_W@__crt_stdio_output@@D@__crt_stdio_output@@YAXABV?$string_output_adapter@_W@0@DHQAH@Z 1004ac10 f i libucrtd:output.obj
 0001:00049f60       ??0?$common_data@D@__crt_stdio_output@@IAE@XZ 1004af60 f i libucrtd:output.obj
 0001:0004a010       ??0?$common_data@_W@__crt_stdio_output@@IAE@XZ 1004b010 f i libucrtd:output.obj
 0001:0004a0c0       ??0?$output_adapter_data@DV?$stream_output_adapter@D@__crt_stdio_output@@@__crt_stdio_output@@IAE@ABV?$stream_output_adapter@D@1@_KQBDQAU__crt_locale_pointers@@QAD@Z 1004b0c0 f i libucrtd:output.obj
 0001:0004a120       ??0?$output_adapter_data@DV?$string_output_adapter@D@__crt_stdio_output@@@__crt_stdio_output@@IAE@ABV?$string_output_adapter@D@1@_KQBDQAU__crt_locale_pointers@@QAD@Z 1004b120 f i libucrtd:output.obj
 0001:0004a180       ??0?$output_adapter_data@_WV?$stream_output_adapter@_W@__crt_stdio_output@@@__crt_stdio_output@@IAE@ABV?$stream_output_adapter@_W@1@_KQB_WQAU__crt_locale_pointers@@QAD@Z 1004b180 f i libucrtd:output.obj
 0001:0004a1e0       ??0?$output_adapter_data@_WV?$string_output_adapter@_W@__crt_stdio_output@@@__crt_stdio_output@@IAE@ABV?$string_output_adapter@_W@1@_KQB_WQAU__crt_locale_pointers@@QAD@Z 1004b1e0 f i libucrtd:output.obj
 0001:0004a240       ??0?$output_processor@DV?$stream_output_adapter@D@__crt_stdio_output@@V?$format_validation_base@DV?$stream_output_adapter@D@__crt_stdio_output@@@2@@__crt_stdio_output@@QAE@ABV?$stream_output_adapter@D@1@_KQBDQAU__crt_locale_pointers@@QAD@Z 1004b240 f i libucrtd:output.obj
 0001:0004a280       ??0?$output_processor@DV?$stream_output_adapter@D@__crt_stdio_output@@V?$positional_parameter_base@DV?$stream_output_adapter@D@__crt_stdio_output@@@2@@__crt_stdio_output@@QAE@ABV?$stream_output_adapter@D@1@_KQBDQAU__crt_locale_pointers@@QAD@Z 1004b280 f i libucrtd:output.obj
 0001:0004a2c0       ??0?$output_processor@DV?$stream_output_adapter@D@__crt_stdio_output@@V?$standard_base@DV?$stream_output_adapter@D@__crt_stdio_output@@@2@@__crt_stdio_output@@QAE@ABV?$stream_output_adapter@D@1@_KQBDQAU__crt_locale_pointers@@QAD@Z 1004b2c0 f i libucrtd:output.obj
 0001:0004a300       ??0?$output_processor@DV?$string_output_adapter@D@__crt_stdio_output@@V?$format_validation_base@DV?$string_output_adapter@D@__crt_stdio_output@@@2@@__crt_stdio_output@@QAE@ABV?$string_output_adapter@D@1@_KQBDQAU__crt_locale_pointers@@QAD@Z 1004b300 f i libucrtd:output.obj
 0001:0004a340       ??0?$output_processor@DV?$string_output_adapter@D@__crt_stdio_output@@V?$positional_parameter_base@DV?$string_output_adapter@D@__crt_stdio_output@@@2@@__crt_stdio_output@@QAE@ABV?$string_output_adapter@D@1@_KQBDQAU__crt_locale_pointers@@QAD@Z 1004b340 f i libucrtd:output.obj
 0001:0004a380       ??0?$output_processor@DV?$string_output_adapter@D@__crt_stdio_output@@V?$standard_base@DV?$string_output_adapter@D@__crt_stdio_output@@@2@@__crt_stdio_output@@QAE@ABV?$string_output_adapter@D@1@_KQBDQAU__crt_locale_pointers@@QAD@Z 1004b380 f i libucrtd:output.obj
 0001:0004a3c0       ??0?$output_processor@_WV?$stream_output_adapter@_W@__crt_stdio_output@@V?$format_validation_base@_WV?$stream_output_adapter@_W@__crt_stdio_output@@@2@@__crt_stdio_output@@QAE@ABV?$stream_output_adapter@_W@1@_KQB_WQAU__crt_locale_pointers@@QAD@Z 1004b3c0 f i libucrtd:output.obj
 0001:0004a400       ??0?$output_processor@_WV?$stream_output_adapter@_W@__crt_stdio_output@@V?$positional_parameter_base@_WV?$stream_output_adapter@_W@__crt_stdio_output@@@2@@__crt_stdio_output@@QAE@ABV?$stream_output_adapter@_W@1@_KQB_WQAU__crt_locale_pointers@@QAD@Z 1004b400 f i libucrtd:output.obj
 0001:0004a440       ??0?$output_processor@_WV?$stream_output_adapter@_W@__crt_stdio_output@@V?$standard_base@_WV?$stream_output_adapter@_W@__crt_stdio_output@@@2@@__crt_stdio_output@@QAE@ABV?$stream_output_adapter@_W@1@_KQB_WQAU__crt_locale_pointers@@QAD@Z 1004b440 f i libucrtd:output.obj
 0001:0004a480       ??0?$output_processor@_WV?$string_output_adapter@_W@__crt_stdio_output@@V?$format_validation_base@_WV?$string_output_adapter@_W@__crt_stdio_output@@@2@@__crt_stdio_output@@QAE@ABV?$string_output_adapter@_W@1@_KQB_WQAU__crt_locale_pointers@@QAD@Z 1004b480 f i libucrtd:output.obj
 0001:0004a4c0       ??0?$output_processor@_WV?$string_output_adapter@_W@__crt_stdio_output@@V?$positional_parameter_base@_WV?$string_output_adapter@_W@__crt_stdio_output@@@2@@__crt_stdio_output@@QAE@ABV?$string_output_adapter@_W@1@_KQB_WQAU__crt_locale_pointers@@QAD@Z 1004b4c0 f i libucrtd:output.obj
 0001:0004a500       ??0?$output_processor@_WV?$string_output_adapter@_W@__crt_stdio_output@@V?$standard_base@_WV?$string_output_adapter@_W@__crt_stdio_output@@@2@@__crt_stdio_output@@QAE@ABV?$string_output_adapter@_W@1@_KQB_WQAU__crt_locale_pointers@@QAD@Z 1004b500 f i libucrtd:output.obj
 0001:0004a540       ??0?$stream_output_adapter@D@__crt_stdio_output@@QAE@QAU_iobuf@@@Z 1004b540 f i libucrtd:output.obj
 0001:0004a560       ??0?$stream_output_adapter@_W@__crt_stdio_output@@QAE@QAU_iobuf@@@Z 1004b560 f i libucrtd:output.obj
 0001:0004a580       ??0?$string_output_adapter@D@__crt_stdio_output@@QAE@QAU?$string_output_adapter_context@D@1@@Z 1004b580 f i libucrtd:output.obj
 0001:0004a5a0       ??0?$string_output_adapter@_W@__crt_stdio_output@@QAE@QAU?$string_output_adapter_context@_W@1@@Z 1004b5a0 f i libucrtd:output.obj
 0001:0004a5c0       ??0_LocaleUpdate@@QAE@QAU__crt_locale_pointers@@@Z 1004b5c0 f i libucrtd:output.obj
 0001:0004a6a0       ??0__acrt_stdio_temporary_buffering_guard@@QAE@QAU_iobuf@@@Z 1004b6a0 f i libucrtd:output.obj
 0001:0004a6d0       ??0__crt_errno_guard@@QAE@QAH@Z 1004b6d0 f i libucrtd:output.obj
 0001:0004a700       ??0__crt_stdio_stream@@QAE@QAU_iobuf@@@Z 1004b700 f i libucrtd:output.obj
 0001:0004a720       ??0formatting_buffer@__crt_stdio_output@@QAE@XZ 1004b720 f i libucrtd:output.obj
 0001:0004a750       ??1?$common_data@D@__crt_stdio_output@@QAE@XZ 1004b750 f i libucrtd:output.obj
 0001:0004a770       ??1?$common_data@_W@__crt_stdio_output@@QAE@XZ 1004b770 f i libucrtd:output.obj
 0001:0004a790       ??1?$format_validation_base@DV?$stream_output_adapter@D@__crt_stdio_output@@@__crt_stdio_output@@QAE@XZ 1004b790 f i libucrtd:output.obj
 0001:0004a7b0       ??1?$format_validation_base@DV?$string_output_adapter@D@__crt_stdio_output@@@__crt_stdio_output@@QAE@XZ 1004b7b0 f i libucrtd:output.obj
 0001:0004a7d0       ??1?$format_validation_base@_WV?$stream_output_adapter@_W@__crt_stdio_output@@@__crt_stdio_output@@QAE@XZ 1004b7d0 f i libucrtd:output.obj
 0001:0004a7f0       ??1?$format_validation_base@_WV?$string_output_adapter@_W@__crt_stdio_output@@@__crt_stdio_output@@QAE@XZ 1004b7f0 f i libucrtd:output.obj
 0001:0004a810       ??1?$output_adapter_data@DV?$stream_output_adapter@D@__crt_stdio_output@@@__crt_stdio_output@@QAE@XZ 1004b810 f i libucrtd:output.obj
 0001:0004a830       ??1?$output_adapter_data@DV?$string_output_adapter@D@__crt_stdio_output@@@__crt_stdio_output@@QAE@XZ 1004b830 f i libucrtd:output.obj
 0001:0004a850       ??1?$output_adapter_data@_WV?$stream_output_adapter@_W@__crt_stdio_output@@@__crt_stdio_output@@QAE@XZ 1004b850 f i libucrtd:output.obj
 0001:0004a870       ??1?$output_adapter_data@_WV?$string_output_adapter@_W@__crt_stdio_output@@@__crt_stdio_output@@QAE@XZ 1004b870 f i libucrtd:output.obj
 0001:0004a890       ??1?$output_processor@DV?$stream_output_adapter@D@__crt_stdio_output@@V?$format_validation_base@DV?$stream_output_adapter@D@__crt_stdio_output@@@2@@__crt_stdio_output@@QAE@XZ 1004b890 f i libucrtd:output.obj
 0001:0004a8b0       ??1?$output_processor@DV?$stream_output_adapter@D@__crt_stdio_output@@V?$positional_parameter_base@DV?$stream_output_adapter@D@__crt_stdio_output@@@2@@__crt_stdio_output@@QAE@XZ 1004b8b0 f i libucrtd:output.obj
 0001:0004a8d0       ??1?$output_processor@DV?$stream_output_adapter@D@__crt_stdio_output@@V?$standard_base@DV?$stream_output_adapter@D@__crt_stdio_output@@@2@@__crt_stdio_output@@QAE@XZ 1004b8d0 f i libucrtd:output.obj
 0001:0004a8f0       ??1?$output_processor@DV?$string_output_adapter@D@__crt_stdio_output@@V?$format_validation_base@DV?$string_output_adapter@D@__crt_stdio_output@@@2@@__crt_stdio_output@@QAE@XZ 1004b8f0 f i libucrtd:output.obj
 0001:0004a910       ??1?$output_processor@DV?$string_output_adapter@D@__crt_stdio_output@@V?$positional_parameter_base@DV?$string_output_adapter@D@__crt_stdio_output@@@2@@__crt_stdio_output@@QAE@XZ 1004b910 f i libucrtd:output.obj
 0001:0004a930       ??1?$output_processor@DV?$string_output_adapter@D@__crt_stdio_output@@V?$standard_base@DV?$string_output_adapter@D@__crt_stdio_output@@@2@@__crt_stdio_output@@QAE@XZ 1004b930 f i libucrtd:output.obj
 0001:0004a950       ??1?$output_processor@_WV?$stream_output_adapter@_W@__crt_stdio_output@@V?$format_validation_base@_WV?$stream_output_adapter@_W@__crt_stdio_output@@@2@@__crt_stdio_output@@QAE@XZ 1004b950 f i libucrtd:output.obj
 0001:0004a970       ??1?$output_processor@_WV?$stream_output_adapter@_W@__crt_stdio_output@@V?$positional_parameter_base@_WV?$stream_output_adapter@_W@__crt_stdio_output@@@2@@__crt_stdio_output@@QAE@XZ 1004b970 f i libucrtd:output.obj
 0001:0004a990       ??1?$output_processor@_WV?$stream_output_adapter@_W@__crt_stdio_output@@V?$standard_base@_WV?$stream_output_adapter@_W@__crt_stdio_output@@@2@@__crt_stdio_output@@QAE@XZ 1004b990 f i libucrtd:output.obj
 0001:0004a9b0       ??1?$output_processor@_WV?$string_output_adapter@_W@__crt_stdio_output@@V?$format_validation_base@_WV?$string_output_adapter@_W@__crt_stdio_output@@@2@@__crt_stdio_output@@QAE@XZ 1004b9b0 f i libucrtd:output.obj
 0001:0004a9d0       ??1?$output_processor@_WV?$string_output_adapter@_W@__crt_stdio_output@@V?$positional_parameter_base@_WV?$string_output_adapter@_W@__crt_stdio_output@@@2@@__crt_stdio_output@@QAE@XZ 1004b9d0 f i libucrtd:output.obj
 0001:0004a9f0       ??1?$output_processor@_WV?$string_output_adapter@_W@__crt_stdio_output@@V?$standard_base@_WV?$string_output_adapter@_W@__crt_stdio_output@@@2@@__crt_stdio_output@@QAE@XZ 1004b9f0 f i libucrtd:output.obj
 0001:0004aa10       ??1?$positional_parameter_base@DV?$stream_output_adapter@D@__crt_stdio_output@@@__crt_stdio_output@@QAE@XZ 1004ba10 f i libucrtd:output.obj
 0001:0004aa30       ??1?$positional_parameter_base@DV?$string_output_adapter@D@__crt_stdio_output@@@__crt_stdio_output@@QAE@XZ 1004ba30 f i libucrtd:output.obj
 0001:0004aa50       ??1?$positional_parameter_base@_WV?$stream_output_adapter@_W@__crt_stdio_output@@@__crt_stdio_output@@QAE@XZ 1004ba50 f i libucrtd:output.obj
 0001:0004aa70       ??1?$positional_parameter_base@_WV?$string_output_adapter@_W@__crt_stdio_output@@@__crt_stdio_output@@QAE@XZ 1004ba70 f i libucrtd:output.obj
 0001:0004aa90       ??1?$standard_base@DV?$stream_output_adapter@D@__crt_stdio_output@@@__crt_stdio_output@@QAE@XZ 1004ba90 f i libucrtd:output.obj
 0001:0004aab0       ??1?$standard_base@DV?$string_output_adapter@D@__crt_stdio_output@@@__crt_stdio_output@@QAE@XZ 1004bab0 f i libucrtd:output.obj
 0001:0004aad0       ??1?$standard_base@_WV?$stream_output_adapter@_W@__crt_stdio_output@@@__crt_stdio_output@@QAE@XZ 1004bad0 f i libucrtd:output.obj
 0001:0004aaf0       ??1?$standard_base@_WV?$string_output_adapter@_W@__crt_stdio_output@@@__crt_stdio_output@@QAE@XZ 1004baf0 f i libucrtd:output.obj
 0001:0004ab10       ??1_LocaleUpdate@@QAE@XZ   1004bb10 f i libucrtd:output.obj
 0001:0004ab50       ??1__acrt_stdio_temporary_buffering_guard@@QAE@XZ 1004bb50 f i libucrtd:output.obj
 0001:0004ab80       ??1__crt_errno_guard@@QAE@XZ 1004bb80 f i libucrtd:output.obj
 0001:0004abb0       ??1formatting_buffer@__crt_stdio_output@@QAE@XZ 1004bbb0 f i libucrtd:output.obj
 0001:0004abd0       ??4?$__crt_unique_heap_ptr@DU__crt_internal_free_policy@@@@QAEAAV0@$$QAV0@@Z 1004bbd0 f i libucrtd:output.obj
 0001:0004ac00       ??C__crt_stdio_stream@@QBEPAU__crt_stdio_stream_data@@XZ 1004bc00 f i libucrtd:output.obj
 0001:0004b340       ?GetLocaleT@_LocaleUpdate@@QAEPAU__crt_locale_pointers@@XZ 1004c340 f i libucrtd:output.obj
 0001:0004b360       ?adjust_hexit@?$output_processor@DV?$stream_output_adapter@D@__crt_stdio_output@@V?$format_validation_base@DV?$stream_output_adapter@D@__crt_stdio_output@@@2@@__crt_stdio_output@@CADH_N@Z 1004c360 f i libucrtd:output.obj
 0001:0004b3a0       ?adjust_hexit@?$output_processor@DV?$stream_output_adapter@D@__crt_stdio_output@@V?$positional_parameter_base@DV?$stream_output_adapter@D@__crt_stdio_output@@@2@@__crt_stdio_output@@CADH_N@Z 1004c3a0 f i libucrtd:output.obj
 0001:0004b3e0       ?adjust_hexit@?$output_processor@DV?$stream_output_adapter@D@__crt_stdio_output@@V?$standard_base@DV?$stream_output_adapter@D@__crt_stdio_output@@@2@@__crt_stdio_output@@CADH_N@Z 1004c3e0 f i libucrtd:output.obj
 0001:0004b420       ?adjust_hexit@?$output_processor@DV?$string_output_adapter@D@__crt_stdio_output@@V?$format_validation_base@DV?$string_output_adapter@D@__crt_stdio_output@@@2@@__crt_stdio_output@@CADH_N@Z 1004c420 f i libucrtd:output.obj
 0001:0004b460       ?adjust_hexit@?$output_processor@DV?$string_output_adapter@D@__crt_stdio_output@@V?$positional_parameter_base@DV?$string_output_adapter@D@__crt_stdio_output@@@2@@__crt_stdio_output@@CADH_N@Z 1004c460 f i libucrtd:output.obj
 0001:0004b4a0       ?adjust_hexit@?$output_processor@DV?$string_output_adapter@D@__crt_stdio_output@@V?$standard_base@DV?$string_output_adapter@D@__crt_stdio_output@@@2@@__crt_stdio_output@@CADH_N@Z 1004c4a0 f i libucrtd:output.obj
 0001:0004b4e0       ?adjust_hexit@?$output_processor@_WV?$stream_output_adapter@_W@__crt_stdio_output@@V?$format_validation_base@_WV?$stream_output_adapter@_W@__crt_stdio_output@@@2@@__crt_stdio_output@@CADH_N@Z 1004c4e0 f i libucrtd:output.obj
 0001:0004b520       ?adjust_hexit@?$output_processor@_WV?$stream_output_adapter@_W@__crt_stdio_output@@V?$positional_parameter_base@_WV?$stream_output_adapter@_W@__crt_stdio_output@@@2@@__crt_stdio_output@@CADH_N@Z 1004c520 f i libucrtd:output.obj
 0001:0004b560       ?adjust_hexit@?$output_processor@_WV?$stream_output_adapter@_W@__crt_stdio_output@@V?$standard_base@_WV?$stream_output_adapter@_W@__crt_stdio_output@@@2@@__crt_stdio_output@@CADH_N@Z 1004c560 f i libucrtd:output.obj
 0001:0004b5a0       ?adjust_hexit@?$output_processor@_WV?$string_output_adapter@_W@__crt_stdio_output@@V?$format_validation_base@_WV?$string_output_adapter@_W@__crt_stdio_output@@@2@@__crt_stdio_output@@CADH_N@Z 1004c5a0 f i libucrtd:output.obj
 0001:0004b5e0       ?adjust_hexit@?$output_processor@_WV?$string_output_adapter@_W@__crt_stdio_output@@V?$positional_parameter_base@_WV?$string_output_adapter@_W@__crt_stdio_output@@@2@@__crt_stdio_output@@CADH_N@Z 1004c5e0 f i libucrtd:output.obj
 0001:0004b620       ?adjust_hexit@?$output_processor@_WV?$string_output_adapter@_W@__crt_stdio_output@@V?$standard_base@_WV?$string_output_adapter@_W@__crt_stdio_output@@@2@@__crt_stdio_output@@CADH_N@Z 1004c620 f i libucrtd:output.obj
 0001:0004b660       ?advance_to_next_pass@?$positional_parameter_base@DV?$stream_output_adapter@D@__crt_stdio_output@@@__crt_stdio_output@@IAE_NXZ 1004c660 f i libucrtd:output.obj
 0001:0004b700       ?advance_to_next_pass@?$positional_parameter_base@DV?$string_output_adapter@D@__crt_stdio_output@@@__crt_stdio_output@@IAE_NXZ 1004c700 f i libucrtd:output.obj
 0001:0004b7a0       ?advance_to_next_pass@?$positional_parameter_base@_WV?$stream_output_adapter@_W@__crt_stdio_output@@@__crt_stdio_output@@IAE_NXZ 1004c7a0 f i libucrtd:output.obj
 0001:0004b840       ?advance_to_next_pass@?$positional_parameter_base@_WV?$string_output_adapter@_W@__crt_stdio_output@@@__crt_stdio_output@@IAE_NXZ 1004c840 f i libucrtd:output.obj
 0001:0004b8e0       ?advance_to_next_pass@?$standard_base@DV?$stream_output_adapter@D@__crt_stdio_output@@@__crt_stdio_output@@IAE_NXZ 1004c8e0 f i libucrtd:output.obj
 0001:0004b930       ?advance_to_next_pass@?$standard_base@DV?$string_output_adapter@D@__crt_stdio_output@@@__crt_stdio_output@@IAE_NXZ 1004c930 f i libucrtd:output.obj
 0001:0004b980       ?advance_to_next_pass@?$standard_base@_WV?$stream_output_adapter@_W@__crt_stdio_output@@@__crt_stdio_output@@IAE_NXZ 1004c980 f i libucrtd:output.obj
 0001:0004b9d0       ?advance_to_next_pass@?$standard_base@_WV?$string_output_adapter@_W@__crt_stdio_output@@@__crt_stdio_output@@IAE_NXZ 1004c9d0 f i libucrtd:output.obj
 0001:0004ba20       ?crop_zeroes@__crt_stdio_output@@YAXPADQAU__crt_locale_pointers@@@Z 1004ca20 f i libucrtd:output.obj
 0001:0004bb20       ?find_next_state@?$output_processor@DV?$stream_output_adapter@D@__crt_stdio_output@@V?$format_validation_base@DV?$stream_output_adapter@D@__crt_stdio_output@@@2@@__crt_stdio_output@@ABE?AW4state@2@DW432@@Z 1004cb20 f i libucrtd:output.obj
 0001:0004bba0       ?find_next_state@?$output_processor@DV?$stream_output_adapter@D@__crt_stdio_output@@V?$positional_parameter_base@DV?$stream_output_adapter@D@__crt_stdio_output@@@2@@__crt_stdio_output@@ABE?AW4state@2@DW432@@Z 1004cba0 f i libucrtd:output.obj
 0001:0004bc20       ?find_next_state@?$output_processor@DV?$stream_output_adapter@D@__crt_stdio_output@@V?$standard_base@DV?$stream_output_adapter@D@__crt_stdio_output@@@2@@__crt_stdio_output@@ABE?AW4state@2@DW432@@Z 1004cc20 f i libucrtd:output.obj
 0001:0004bca0       ?find_next_state@?$output_processor@DV?$string_output_adapter@D@__crt_stdio_output@@V?$format_validation_base@DV?$string_output_adapter@D@__crt_stdio_output@@@2@@__crt_stdio_output@@ABE?AW4state@2@DW432@@Z 1004cca0 f i libucrtd:output.obj
 0001:0004bd20       ?find_next_state@?$output_processor@DV?$string_output_adapter@D@__crt_stdio_output@@V?$positional_parameter_base@DV?$string_output_adapter@D@__crt_stdio_output@@@2@@__crt_stdio_output@@ABE?AW4state@2@DW432@@Z 1004cd20 f i libucrtd:output.obj
 0001:0004bda0       ?find_next_state@?$output_processor@DV?$string_output_adapter@D@__crt_stdio_output@@V?$standard_base@DV?$string_output_adapter@D@__crt_stdio_output@@@2@@__crt_stdio_output@@ABE?AW4state@2@DW432@@Z 1004cda0 f i libucrtd:output.obj
 0001:0004be20       ?find_next_state@?$output_processor@_WV?$stream_output_adapter@_W@__crt_stdio_output@@V?$format_validation_base@_WV?$stream_output_adapter@_W@__crt_stdio_output@@@2@@__crt_stdio_output@@ABE?AW4state@2@_WW432@@Z 1004ce20 f i libucrtd:output.obj
 0001:0004bea0       ?find_next_state@?$output_processor@_WV?$stream_output_adapter@_W@__crt_stdio_output@@V?$positional_parameter_base@_WV?$stream_output_adapter@_W@__crt_stdio_output@@@2@@__crt_stdio_output@@ABE?AW4state@2@_WW432@@Z 1004cea0 f i libucrtd:output.obj
 0001:0004bf20       ?find_next_state@?$output_processor@_WV?$stream_output_adapter@_W@__crt_stdio_output@@V?$standard_base@_WV?$stream_output_adapter@_W@__crt_stdio_output@@@2@@__crt_stdio_output@@ABE?AW4state@2@_WW432@@Z 1004cf20 f i libucrtd:output.obj
 0001:0004bfa0       ?find_next_state@?$output_processor@_WV?$string_output_adapter@_W@__crt_stdio_output@@V?$format_validation_base@_WV?$string_output_adapter@_W@__crt_stdio_output@@@2@@__crt_stdio_output@@ABE?AW4state@2@_WW432@@Z 1004cfa0 f i libucrtd:output.obj
 0001:0004c020       ?find_next_state@?$output_processor@_WV?$string_output_adapter@_W@__crt_stdio_output@@V?$positional_parameter_base@_WV?$string_output_adapter@_W@__crt_stdio_output@@@2@@__crt_stdio_output@@ABE?AW4state@2@_WW432@@Z 1004d020 f i libucrtd:output.obj
 0001:0004c0a0       ?find_next_state@?$output_processor@_WV?$string_output_adapter@_W@__crt_stdio_output@@V?$standard_base@_WV?$string_output_adapter@_W@__crt_stdio_output@@@2@@__crt_stdio_output@@ABE?AW4state@2@_WW432@@Z 1004d0a0 f i libucrtd:output.obj
 0001:0004c120       ?force_decimal_point@__crt_stdio_output@@YAXPADQAU__crt_locale_pointers@@@Z 1004d120 f i libucrtd:output.obj
 0001:0004c1d0       ?get_flags@__crt_stdio_stream@@QBEJXZ 1004d1d0 f i libucrtd:output.obj
 0001:0004c1f0       ?get_parameter_type@?$positional_parameter_base@DV?$stream_output_adapter@D@__crt_stdio_output@@@__crt_stdio_output@@CA?AW4parameter_type@12@F@Z 1004d1f0 f i libucrtd:output.obj
 0001:0004c200       ?get_parameter_type@?$positional_parameter_base@DV?$stream_output_adapter@D@__crt_stdio_output@@@__crt_stdio_output@@CA?AW4parameter_type@12@G@Z 1004d200 f i libucrtd:output.obj
 0001:0004c210       ?get_parameter_type@?$positional_parameter_base@DV?$stream_output_adapter@D@__crt_stdio_output@@@__crt_stdio_output@@CA?AW4parameter_type@12@H@Z 1004d210 f i libucrtd:output.obj
 0001:0004c220       ?get_parameter_type@?$positional_parameter_base@DV?$stream_output_adapter@D@__crt_stdio_output@@@__crt_stdio_output@@CA?AW4parameter_type@12@I@Z 1004d220 f i libucrtd:output.obj
 0001:0004c230       ?get_parameter_type@?$positional_parameter_base@DV?$stream_output_adapter@D@__crt_stdio_output@@@__crt_stdio_output@@CA?AW4parameter_type@12@U_CRT_DOUBLE@@@Z 1004d230 f i libucrtd:output.obj
 0001:0004c240       ?get_parameter_type@?$positional_parameter_base@DV?$stream_output_adapter@D@__crt_stdio_output@@@__crt_stdio_output@@CA?AW4parameter_type@12@_J@Z 1004d240 f i libucrtd:output.obj
 0001:0004c250       ?get_parameter_type@?$positional_parameter_base@DV?$stream_output_adapter@D@__crt_stdio_output@@@__crt_stdio_output@@CA?AW4parameter_type@12@_K@Z 1004d250 f i libucrtd:output.obj
 0001:0004c260       ?get_parameter_type@?$positional_parameter_base@DV?$stream_output_adapter@D@__crt_stdio_output@@@__crt_stdio_output@@CA?AW4parameter_type@12@_W@Z 1004d260 f i libucrtd:output.obj
 0001:0004c270       ?get_parameter_type@?$positional_parameter_base@DV?$string_output_adapter@D@__crt_stdio_output@@@__crt_stdio_output@@CA?AW4parameter_type@12@F@Z 1004d270 f i libucrtd:output.obj
 0001:0004c280       ?get_parameter_type@?$positional_parameter_base@DV?$string_output_adapter@D@__crt_stdio_output@@@__crt_stdio_output@@CA?AW4parameter_type@12@G@Z 1004d280 f i libucrtd:output.obj
 0001:0004c290       ?get_parameter_type@?$positional_parameter_base@DV?$string_output_adapter@D@__crt_stdio_output@@@__crt_stdio_output@@CA?AW4parameter_type@12@H@Z 1004d290 f i libucrtd:output.obj
 0001:0004c2a0       ?get_parameter_type@?$positional_parameter_base@DV?$string_output_adapter@D@__crt_stdio_output@@@__crt_stdio_output@@CA?AW4parameter_type@12@I@Z 1004d2a0 f i libucrtd:output.obj
 0001:0004c2b0       ?get_parameter_type@?$positional_parameter_base@DV?$string_output_adapter@D@__crt_stdio_output@@@__crt_stdio_output@@CA?AW4parameter_type@12@U_CRT_DOUBLE@@@Z 1004d2b0 f i libucrtd:output.obj
 0001:0004c2c0       ?get_parameter_type@?$positional_parameter_base@DV?$string_output_adapter@D@__crt_stdio_output@@@__crt_stdio_output@@CA?AW4parameter_type@12@_J@Z 1004d2c0 f i libucrtd:output.obj
 0001:0004c2d0       ?get_parameter_type@?$positional_parameter_base@DV?$string_output_adapter@D@__crt_stdio_output@@@__crt_stdio_output@@CA?AW4parameter_type@12@_K@Z 1004d2d0 f i libucrtd:output.obj
 0001:0004c2e0       ?get_parameter_type@?$positional_parameter_base@DV?$string_output_adapter@D@__crt_stdio_output@@@__crt_stdio_output@@CA?AW4parameter_type@12@_W@Z 1004d2e0 f i libucrtd:output.obj
 0001:0004c2f0       ?get_parameter_type@?$positional_parameter_base@_WV?$stream_output_adapter@_W@__crt_stdio_output@@@__crt_stdio_output@@CA?AW4parameter_type@12@F@Z 1004d2f0 f i libucrtd:output.obj
 0001:0004c300       ?get_parameter_type@?$positional_parameter_base@_WV?$stream_output_adapter@_W@__crt_stdio_output@@@__crt_stdio_output@@CA?AW4parameter_type@12@G@Z 1004d300 f i libucrtd:output.obj
 0001:0004c310       ?get_parameter_type@?$positional_parameter_base@_WV?$stream_output_adapter@_W@__crt_stdio_output@@@__crt_stdio_output@@CA?AW4parameter_type@12@H@Z 1004d310 f i libucrtd:output.obj
 0001:0004c320       ?get_parameter_type@?$positional_parameter_base@_WV?$stream_output_adapter@_W@__crt_stdio_output@@@__crt_stdio_output@@CA?AW4parameter_type@12@I@Z 1004d320 f i libucrtd:output.obj
 0001:0004c330       ?get_parameter_type@?$positional_parameter_base@_WV?$stream_output_adapter@_W@__crt_stdio_output@@@__crt_stdio_output@@CA?AW4parameter_type@12@U_CRT_DOUBLE@@@Z 1004d330 f i libucrtd:output.obj
 0001:0004c340       ?get_parameter_type@?$positional_parameter_base@_WV?$stream_output_adapter@_W@__crt_stdio_output@@@__crt_stdio_output@@CA?AW4parameter_type@12@_J@Z 1004d340 f i libucrtd:output.obj
 0001:0004c350       ?get_parameter_type@?$positional_parameter_base@_WV?$stream_output_adapter@_W@__crt_stdio_output@@@__crt_stdio_output@@CA?AW4parameter_type@12@_K@Z 1004d350 f i libucrtd:output.obj
 0001:0004c360       ?get_parameter_type@?$positional_parameter_base@_WV?$stream_output_adapter@_W@__crt_stdio_output@@@__crt_stdio_output@@CA?AW4parameter_type@12@_W@Z 1004d360 f i libucrtd:output.obj
 0001:0004c370       ?get_parameter_type@?$positional_parameter_base@_WV?$string_output_adapter@_W@__crt_stdio_output@@@__crt_stdio_output@@CA?AW4parameter_type@12@F@Z 1004d370 f i libucrtd:output.obj
 0001:0004c380       ?get_parameter_type@?$positional_parameter_base@_WV?$string_output_adapter@_W@__crt_stdio_output@@@__crt_stdio_output@@CA?AW4parameter_type@12@G@Z 1004d380 f i libucrtd:output.obj
 0001:0004c390       ?get_parameter_type@?$positional_parameter_base@_WV?$string_output_adapter@_W@__crt_stdio_output@@@__crt_stdio_output@@CA?AW4parameter_type@12@H@Z 1004d390 f i libucrtd:output.obj
 0001:0004c3a0       ?get_parameter_type@?$positional_parameter_base@_WV?$string_output_adapter@_W@__crt_stdio_output@@@__crt_stdio_output@@CA?AW4parameter_type@12@I@Z 1004d3a0 f i libucrtd:output.obj
 0001:0004c3b0       ?get_parameter_type@?$positional_parameter_base@_WV?$string_output_adapter@_W@__crt_stdio_output@@@__crt_stdio_output@@CA?AW4parameter_type@12@U_CRT_DOUBLE@@@Z 1004d3b0 f i libucrtd:output.obj
 0001:0004c3c0       ?get_parameter_type@?$positional_parameter_base@_WV?$string_output_adapter@_W@__crt_stdio_output@@@__crt_stdio_output@@CA?AW4parameter_type@12@_J@Z 1004d3c0 f i libucrtd:output.obj
 0001:0004c3d0       ?get_parameter_type@?$positional_parameter_base@_WV?$string_output_adapter@_W@__crt_stdio_output@@@__crt_stdio_output@@CA?AW4parameter_type@12@_K@Z 1004d3d0 f i libucrtd:output.obj
 0001:0004c3e0       ?get_parameter_type@?$positional_parameter_base@_WV?$string_output_adapter@_W@__crt_stdio_output@@@__crt_stdio_output@@CA?AW4parameter_type@12@_W@Z 1004d3e0 f i libucrtd:output.obj
 0001:0004c3f0       ?has_flag@?$output_processor@DV?$stream_output_adapter@D@__crt_stdio_output@@V?$format_validation_base@DV?$stream_output_adapter@D@__crt_stdio_output@@@2@@__crt_stdio_output@@ABE_NI@Z 1004d3f0 f i libucrtd:output.obj
 0001:0004c420       ?has_flag@?$output_processor@DV?$stream_output_adapter@D@__crt_stdio_output@@V?$positional_parameter_base@DV?$stream_output_adapter@D@__crt_stdio_output@@@2@@__crt_stdio_output@@ABE_NI@Z 1004d420 f i libucrtd:output.obj
 0001:0004c450       ?has_flag@?$output_processor@DV?$stream_output_adapter@D@__crt_stdio_output@@V?$standard_base@DV?$stream_output_adapter@D@__crt_stdio_output@@@2@@__crt_stdio_output@@ABE_NI@Z 1004d450 f i libucrtd:output.obj
 0001:0004c480       ?has_flag@?$output_processor@DV?$string_output_adapter@D@__crt_stdio_output@@V?$format_validation_base@DV?$string_output_adapter@D@__crt_stdio_output@@@2@@__crt_stdio_output@@ABE_NI@Z 1004d480 f i libucrtd:output.obj
 0001:0004c4b0       ?has_flag@?$output_processor@DV?$string_output_adapter@D@__crt_stdio_output@@V?$positional_parameter_base@DV?$string_output_adapter@D@__crt_stdio_output@@@2@@__crt_stdio_output@@ABE_NI@Z 1004d4b0 f i libucrtd:output.obj
 0001:0004c4e0       ?has_flag@?$output_processor@DV?$string_output_adapter@D@__crt_stdio_output@@V?$standard_base@DV?$string_output_adapter@D@__crt_stdio_output@@@2@@__crt_stdio_output@@ABE_NI@Z 1004d4e0 f i libucrtd:output.obj
 0001:0004c510       ?has_flag@?$output_processor@_WV?$stream_output_adapter@_W@__crt_stdio_output@@V?$format_validation_base@_WV?$stream_output_adapter@_W@__crt_stdio_output@@@2@@__crt_stdio_output@@ABE_NI@Z 1004d510 f i libucrtd:output.obj
 0001:0004c540       ?has_flag@?$output_processor@_WV?$stream_output_adapter@_W@__crt_stdio_output@@V?$positional_parameter_base@_WV?$stream_output_adapter@_W@__crt_stdio_output@@@2@@__crt_stdio_output@@ABE_NI@Z 1004d540 f i libucrtd:output.obj
 0001:0004c570       ?has_flag@?$output_processor@_WV?$stream_output_adapter@_W@__crt_stdio_output@@V?$standard_base@_WV?$stream_output_adapter@_W@__crt_stdio_output@@@2@@__crt_stdio_output@@ABE_NI@Z 1004d570 f i libucrtd:output.obj
 0001:0004c5a0       ?has_flag@?$output_processor@_WV?$string_output_adapter@_W@__crt_stdio_output@@V?$format_validation_base@_WV?$string_output_adapter@_W@__crt_stdio_output@@@2@@__crt_stdio_output@@ABE_NI@Z 1004d5a0 f i libucrtd:output.obj
 0001:0004c5d0       ?has_flag@?$output_processor@_WV?$string_output_adapter@_W@__crt_stdio_output@@V?$positional_parameter_base@_WV?$string_output_adapter@_W@__crt_stdio_output@@@2@@__crt_stdio_output@@ABE_NI@Z 1004d5d0 f i libucrtd:output.obj
 0001:0004c600       ?has_flag@?$output_processor@_WV?$string_output_adapter@_W@__crt_stdio_output@@V?$standard_base@_WV?$string_output_adapter@_W@__crt_stdio_output@@@2@@__crt_stdio_output@@ABE_NI@Z 1004d600 f i libucrtd:output.obj
 0001:0004c630       ?is_positional_parameter_reappearance_consistent@?$positional_parameter_base@DV?$stream_output_adapter@D@__crt_stdio_output@@@__crt_stdio_output@@AAE_NABUparameter_data@12@W4parameter_type@12@DW4length_modifier@2@@Z 1004d630 f i libucrtd:output.obj
 0001:0004c860       ?is_positional_parameter_reappearance_consistent@?$positional_parameter_base@DV?$string_output_adapter@D@__crt_stdio_output@@@__crt_stdio_output@@AAE_NABUparameter_data@12@W4parameter_type@12@DW4length_modifier@2@@Z 1004d860 f i libucrtd:output.obj
 0001:0004ca90       ?is_positional_parameter_reappearance_consistent@?$positional_parameter_base@_WV?$stream_output_adapter@_W@__crt_stdio_output@@@__crt_stdio_output@@AAE_NABUparameter_data@12@W4parameter_type@12@_WW4length_modifier@2@@Z 1004da90 f i libucrtd:output.obj
 0001:0004ccc0       ?is_positional_parameter_reappearance_consistent@?$positional_parameter_base@_WV?$string_output_adapter@_W@__crt_stdio_output@@@__crt_stdio_output@@AAE_NABUparameter_data@12@W4parameter_type@12@_WW4length_modifier@2@@Z 1004dcc0 f i libucrtd:output.obj
 0001:0004cef0       ?is_string_backed@__crt_stdio_stream@@QBE_NXZ 1004def0 f i libucrtd:output.obj
 0001:0004cf30       ?narrow_null_string@?$output_processor@DV?$stream_output_adapter@D@__crt_stdio_output@@V?$format_validation_base@DV?$stream_output_adapter@D@__crt_stdio_output@@@2@@__crt_stdio_output@@CAPADXZ 1004df30 f i libucrtd:output.obj
 0001:0004cf40       ?narrow_null_string@?$output_processor@DV?$stream_output_adapter@D@__crt_stdio_output@@V?$positional_parameter_base@DV?$stream_output_adapter@D@__crt_stdio_output@@@2@@__crt_stdio_output@@CAPADXZ 1004df40 f i libucrtd:output.obj
 0001:0004cf50       ?narrow_null_string@?$output_processor@DV?$stream_output_adapter@D@__crt_stdio_output@@V?$standard_base@DV?$stream_output_adapter@D@__crt_stdio_output@@@2@@__crt_stdio_output@@CAPADXZ 1004df50 f i libucrtd:output.obj
 0001:0004cf60       ?narrow_null_string@?$output_processor@DV?$string_output_adapter@D@__crt_stdio_output@@V?$format_validation_base@DV?$string_output_adapter@D@__crt_stdio_output@@@2@@__crt_stdio_output@@CAPADXZ 1004df60 f i libucrtd:output.obj
 0001:0004cf70       ?narrow_null_string@?$output_processor@DV?$string_output_adapter@D@__crt_stdio_output@@V?$positional_parameter_base@DV?$string_output_adapter@D@__crt_stdio_output@@@2@@__crt_stdio_output@@CAPADXZ 1004df70 f i libucrtd:output.obj
 0001:0004cf80       ?narrow_null_string@?$output_processor@DV?$string_output_adapter@D@__crt_stdio_output@@V?$standard_base@DV?$string_output_adapter@D@__crt_stdio_output@@@2@@__crt_stdio_output@@CAPADXZ 1004df80 f i libucrtd:output.obj
 0001:0004cf90       ?narrow_null_string@?$output_processor@_WV?$stream_output_adapter@_W@__crt_stdio_output@@V?$format_validation_base@_WV?$stream_output_adapter@_W@__crt_stdio_output@@@2@@__crt_stdio_output@@CAPADXZ 1004df90 f i libucrtd:output.obj
 0001:0004cfa0       ?narrow_null_string@?$output_processor@_WV?$stream_output_adapter@_W@__crt_stdio_output@@V?$positional_parameter_base@_WV?$stream_output_adapter@_W@__crt_stdio_output@@@2@@__crt_stdio_output@@CAPADXZ 1004dfa0 f i libucrtd:output.obj
 0001:0004cfb0       ?narrow_null_string@?$output_processor@_WV?$stream_output_adapter@_W@__crt_stdio_output@@V?$standard_base@_WV?$stream_output_adapter@_W@__crt_stdio_output@@@2@@__crt_stdio_output@@CAPADXZ 1004dfb0 f i libucrtd:output.obj
 0001:0004cfc0       ?narrow_null_string@?$output_processor@_WV?$string_output_adapter@_W@__crt_stdio_output@@V?$format_validation_base@_WV?$string_output_adapter@_W@__crt_stdio_output@@@2@@__crt_stdio_output@@CAPADXZ 1004dfc0 f i libucrtd:output.obj
 0001:0004cfd0       ?narrow_null_string@?$output_processor@_WV?$string_output_adapter@_W@__crt_stdio_output@@V?$positional_parameter_base@_WV?$string_output_adapter@_W@__crt_stdio_output@@@2@@__crt_stdio_output@@CAPADXZ 1004dfd0 f i libucrtd:output.obj
 0001:0004cfe0       ?narrow_null_string@?$output_processor@_WV?$string_output_adapter@_W@__crt_stdio_output@@V?$standard_base@_WV?$string_output_adapter@_W@__crt_stdio_output@@@2@@__crt_stdio_output@@CAPADXZ 1004dfe0 f i libucrtd:output.obj
 0001:0004cff0       ?parse_int_from_format_string@?$output_processor@DV?$stream_output_adapter@D@__crt_stdio_output@@V?$format_validation_base@DV?$stream_output_adapter@D@__crt_stdio_output@@@2@@__crt_stdio_output@@AAE_NQAH@Z 1004dff0 f i libucrtd:output.obj
 0001:0004d0a0       ?parse_int_from_format_string@?$output_processor@DV?$stream_output_adapter@D@__crt_stdio_output@@V?$positional_parameter_base@DV?$stream_output_adapter@D@__crt_stdio_output@@@2@@__crt_stdio_output@@AAE_NQAH@Z 1004e0a0 f i libucrtd:output.obj
 0001:0004d150       ?parse_int_from_format_string@?$output_processor@DV?$stream_output_adapter@D@__crt_stdio_output@@V?$standard_base@DV?$stream_output_adapter@D@__crt_stdio_output@@@2@@__crt_stdio_output@@AAE_NQAH@Z 1004e150 f i libucrtd:output.obj
 0001:0004d200       ?parse_int_from_format_string@?$output_processor@DV?$string_output_adapter@D@__crt_stdio_output@@V?$format_validation_base@DV?$string_output_adapter@D@__crt_stdio_output@@@2@@__crt_stdio_output@@AAE_NQAH@Z 1004e200 f i libucrtd:output.obj
 0001:0004d2b0       ?parse_int_from_format_string@?$output_processor@DV?$string_output_adapter@D@__crt_stdio_output@@V?$positional_parameter_base@DV?$string_output_adapter@D@__crt_stdio_output@@@2@@__crt_stdio_output@@AAE_NQAH@Z 1004e2b0 f i libucrtd:output.obj
 0001:0004d360       ?parse_int_from_format_string@?$output_processor@DV?$string_output_adapter@D@__crt_stdio_output@@V?$standard_base@DV?$string_output_adapter@D@__crt_stdio_output@@@2@@__crt_stdio_output@@AAE_NQAH@Z 1004e360 f i libucrtd:output.obj
 0001:0004d410       ?parse_int_from_format_string@?$output_processor@_WV?$stream_output_adapter@_W@__crt_stdio_output@@V?$format_validation_base@_WV?$stream_output_adapter@_W@__crt_stdio_output@@@2@@__crt_stdio_output@@AAE_NQAH@Z 1004e410 f i libucrtd:output.obj
 0001:0004d4c0       ?parse_int_from_format_string@?$output_processor@_WV?$stream_output_adapter@_W@__crt_stdio_output@@V?$positional_parameter_base@_WV?$stream_output_adapter@_W@__crt_stdio_output@@@2@@__crt_stdio_output@@AAE_NQAH@Z 1004e4c0 f i libucrtd:output.obj
 0001:0004d570       ?parse_int_from_format_string@?$output_processor@_WV?$stream_output_adapter@_W@__crt_stdio_output@@V?$standard_base@_WV?$stream_output_adapter@_W@__crt_stdio_output@@@2@@__crt_stdio_output@@AAE_NQAH@Z 1004e570 f i libucrtd:output.obj
 0001:0004d620       ?parse_int_from_format_string@?$output_processor@_WV?$string_output_adapter@_W@__crt_stdio_output@@V?$format_validation_base@_WV?$string_output_adapter@_W@__crt_stdio_output@@@2@@__crt_stdio_output@@AAE_NQAH@Z 1004e620 f i libucrtd:output.obj
 0001:0004d6d0       ?parse_int_from_format_string@?$output_processor@_WV?$string_output_adapter@_W@__crt_stdio_output@@V?$positional_parameter_base@_WV?$string_output_adapter@_W@__crt_stdio_output@@@2@@__crt_stdio_output@@AAE_NQAH@Z 1004e6d0 f i libucrtd:output.obj
 0001:0004d780       ?parse_int_from_format_string@?$output_processor@_WV?$string_output_adapter@_W@__crt_stdio_output@@V?$standard_base@_WV?$string_output_adapter@_W@__crt_stdio_output@@@2@@__crt_stdio_output@@AAE_NQAH@Z 1004e780 f i libucrtd:output.obj
 0001:0004d830       ?process@?$output_processor@DV?$stream_output_adapter@D@__crt_stdio_output@@V?$format_validation_base@DV?$stream_output_adapter@D@__crt_stdio_output@@@2@@__crt_stdio_output@@QAEHXZ 1004e830 f i libucrtd:output.obj
 0001:0004dae0       ?process@?$output_processor@DV?$stream_output_adapter@D@__crt_stdio_output@@V?$positional_parameter_base@DV?$stream_output_adapter@D@__crt_stdio_output@@@2@@__crt_stdio_output@@QAEHXZ 1004eae0 f i libucrtd:output.obj
 0001:0004dd90       ?process@?$output_processor@DV?$stream_output_adapter@D@__crt_stdio_output@@V?$standard_base@DV?$stream_output_adapter@D@__crt_stdio_output@@@2@@__crt_stdio_output@@QAEHXZ 1004ed90 f i libucrtd:output.obj
 0001:0004e040       ?process@?$output_processor@DV?$string_output_adapter@D@__crt_stdio_output@@V?$format_validation_base@DV?$string_output_adapter@D@__crt_stdio_output@@@2@@__crt_stdio_output@@QAEHXZ 1004f040 f i libucrtd:output.obj
 0001:0004e2f0       ?process@?$output_processor@DV?$string_output_adapter@D@__crt_stdio_output@@V?$positional_parameter_base@DV?$string_output_adapter@D@__crt_stdio_output@@@2@@__crt_stdio_output@@QAEHXZ 1004f2f0 f i libucrtd:output.obj
 0001:0004e5a0       ?process@?$output_processor@DV?$string_output_adapter@D@__crt_stdio_output@@V?$standard_base@DV?$string_output_adapter@D@__crt_stdio_output@@@2@@__crt_stdio_output@@QAEHXZ 1004f5a0 f i libucrtd:output.obj
 0001:0004e850       ?process@?$output_processor@_WV?$stream_output_adapter@_W@__crt_stdio_output@@V?$format_validation_base@_WV?$stream_output_adapter@_W@__crt_stdio_output@@@2@@__crt_stdio_output@@QAEHXZ 1004f850 f i libucrtd:output.obj
 0001:0004eb00       ?process@?$output_processor@_WV?$stream_output_adapter@_W@__crt_stdio_output@@V?$positional_parameter_base@_WV?$stream_output_adapter@_W@__crt_stdio_output@@@2@@__crt_stdio_output@@QAEHXZ 1004fb00 f i libucrtd:output.obj
 0001:0004edb0       ?process@?$output_processor@_WV?$stream_output_adapter@_W@__crt_stdio_output@@V?$standard_base@_WV?$stream_output_adapter@_W@__crt_stdio_output@@@2@@__crt_stdio_output@@QAEHXZ 1004fdb0 f i libucrtd:output.obj
 0001:0004f060       ?process@?$output_processor@_WV?$string_output_adapter@_W@__crt_stdio_output@@V?$format_validation_base@_WV?$string_output_adapter@_W@__crt_stdio_output@@@2@@__crt_stdio_output@@QAEHXZ 10050060 f i libucrtd:output.obj
 0001:0004f310       ?process@?$output_processor@_WV?$string_output_adapter@_W@__crt_stdio_output@@V?$positional_parameter_base@_WV?$string_output_adapter@_W@__crt_stdio_output@@@2@@__crt_stdio_output@@QAEHXZ 10050310 f i libucrtd:output.obj
 0001:0004f5c0       ?process@?$output_processor@_WV?$string_output_adapter@_W@__crt_stdio_output@@V?$standard_base@_WV?$string_output_adapter@_W@__crt_stdio_output@@@2@@__crt_stdio_output@@QAEHXZ 100505c0 f i libucrtd:output.obj
 0001:0004f870       ?public_stream@__crt_stdio_stream@@QBEPAU_iobuf@@XZ 10050870 f i libucrtd:output.obj
 0001:0004f890       ?set_flag@?$output_processor@DV?$stream_output_adapter@D@__crt_stdio_output@@V?$format_validation_base@DV?$stream_output_adapter@D@__crt_stdio_output@@@2@@__crt_stdio_output@@AAEXI@Z 10050890 f i libucrtd:output.obj
 0001:0004f8b0       ?set_flag@?$output_processor@DV?$stream_output_adapter@D@__crt_stdio_output@@V?$positional_parameter_base@DV?$stream_output_adapter@D@__crt_stdio_output@@@2@@__crt_stdio_output@@AAEXI@Z 100508b0 f i libucrtd:output.obj
 0001:0004f8d0       ?set_flag@?$output_processor@DV?$stream_output_adapter@D@__crt_stdio_output@@V?$standard_base@DV?$stream_output_adapter@D@__crt_stdio_output@@@2@@__crt_stdio_output@@AAEXI@Z 100508d0 f i libucrtd:output.obj
 0001:0004f8f0       ?set_flag@?$output_processor@DV?$string_output_adapter@D@__crt_stdio_output@@V?$format_validation_base@DV?$string_output_adapter@D@__crt_stdio_output@@@2@@__crt_stdio_output@@AAEXI@Z 100508f0 f i libucrtd:output.obj
 0001:0004f910       ?set_flag@?$output_processor@DV?$string_output_adapter@D@__crt_stdio_output@@V?$positional_parameter_base@DV?$string_output_adapter@D@__crt_stdio_output@@@2@@__crt_stdio_output@@AAEXI@Z 10050910 f i libucrtd:output.obj
 0001:0004f930       ?set_flag@?$output_processor@DV?$string_output_adapter@D@__crt_stdio_output@@V?$standard_base@DV?$string_output_adapter@D@__crt_stdio_output@@@2@@__crt_stdio_output@@AAEXI@Z 10050930 f i libucrtd:output.obj
 0001:0004f950       ?set_flag@?$output_processor@_WV?$stream_output_adapter@_W@__crt_stdio_output@@V?$format_validation_base@_WV?$stream_output_adapter@_W@__crt_stdio_output@@@2@@__crt_stdio_output@@AAEXI@Z 10050950 f i libucrtd:output.obj
 0001:0004f970       ?set_flag@?$output_processor@_WV?$stream_output_adapter@_W@__crt_stdio_output@@V?$positional_parameter_base@_WV?$stream_output_adapter@_W@__crt_stdio_output@@@2@@__crt_stdio_output@@AAEXI@Z 10050970 f i libucrtd:output.obj
 0001:0004f990       ?set_flag@?$output_processor@_WV?$stream_output_adapter@_W@__crt_stdio_output@@V?$standard_base@_WV?$stream_output_adapter@_W@__crt_stdio_output@@@2@@__crt_stdio_output@@AAEXI@Z 10050990 f i libucrtd:output.obj
 0001:0004f9b0       ?set_flag@?$output_processor@_WV?$string_output_adapter@_W@__crt_stdio_output@@V?$format_validation_base@_WV?$string_output_adapter@_W@__crt_stdio_output@@@2@@__crt_stdio_output@@AAEXI@Z 100509b0 f i libucrtd:output.obj
 0001:0004f9d0       ?set_flag@?$output_processor@_WV?$string_output_adapter@_W@__crt_stdio_output@@V?$positional_parameter_base@_WV?$string_output_adapter@_W@__crt_stdio_output@@@2@@__crt_stdio_output@@AAEXI@Z 100509d0 f i libucrtd:output.obj
 0001:0004f9f0       ?set_flag@?$output_processor@_WV?$string_output_adapter@_W@__crt_stdio_output@@V?$standard_base@_WV?$string_output_adapter@_W@__crt_stdio_output@@@2@@__crt_stdio_output@@AAEXI@Z 100509f0 f i libucrtd:output.obj
 0001:0004fa10       ?should_format@?$positional_parameter_base@DV?$stream_output_adapter@D@__crt_stdio_output@@@__crt_stdio_output@@IAE_NXZ 10050a10 f i libucrtd:output.obj
 0001:0004fa50       ?should_format@?$positional_parameter_base@DV?$string_output_adapter@D@__crt_stdio_output@@@__crt_stdio_output@@IAE_NXZ 10050a50 f i libucrtd:output.obj
 0001:0004fa90       ?should_format@?$positional_parameter_base@_WV?$stream_output_adapter@_W@__crt_stdio_output@@@__crt_stdio_output@@IAE_NXZ 10050a90 f i libucrtd:output.obj
 0001:0004fad0       ?should_format@?$positional_parameter_base@_WV?$string_output_adapter@_W@__crt_stdio_output@@@__crt_stdio_output@@IAE_NXZ 10050ad0 f i libucrtd:output.obj
 0001:0004fb10       ?should_format@?$standard_base@DV?$stream_output_adapter@D@__crt_stdio_output@@@__crt_stdio_output@@IAE_NXZ 10050b10 f i libucrtd:output.obj
 0001:0004fb20       ?should_format@?$standard_base@DV?$string_output_adapter@D@__crt_stdio_output@@@__crt_stdio_output@@IAE_NXZ 10050b20 f i libucrtd:output.obj
 0001:0004fb30       ?should_format@?$standard_base@_WV?$stream_output_adapter@_W@__crt_stdio_output@@@__crt_stdio_output@@IAE_NXZ 10050b30 f i libucrtd:output.obj
 0001:0004fb40       ?should_format@?$standard_base@_WV?$string_output_adapter@_W@__crt_stdio_output@@@__crt_stdio_output@@IAE_NXZ 10050b40 f i libucrtd:output.obj
 0001:0004fb50       ?should_skip_normal_state_processing@?$positional_parameter_base@DV?$stream_output_adapter@D@__crt_stdio_output@@@__crt_stdio_output@@IAE_NXZ 10050b50 f i libucrtd:output.obj
 0001:0004fba0       ?should_skip_normal_state_processing@?$positional_parameter_base@DV?$string_output_adapter@D@__crt_stdio_output@@@__crt_stdio_output@@IAE_NXZ 10050ba0 f i libucrtd:output.obj
 0001:0004fbf0       ?should_skip_normal_state_processing@?$positional_parameter_base@_WV?$stream_output_adapter@_W@__crt_stdio_output@@@__crt_stdio_output@@IAE_NXZ 10050bf0 f i libucrtd:output.obj
 0001:0004fc40       ?should_skip_normal_state_processing@?$positional_parameter_base@_WV?$string_output_adapter@_W@__crt_stdio_output@@@__crt_stdio_output@@IAE_NXZ 10050c40 f i libucrtd:output.obj
 0001:0004fc90       ?should_skip_normal_state_processing@?$standard_base@DV?$stream_output_adapter@D@__crt_stdio_output@@@__crt_stdio_output@@IAE_NXZ 10050c90 f i libucrtd:output.obj
 0001:0004fca0       ?should_skip_normal_state_processing@?$standard_base@DV?$string_output_adapter@D@__crt_stdio_output@@@__crt_stdio_output@@IAE_NXZ 10050ca0 f i libucrtd:output.obj
 0001:0004fcb0       ?should_skip_normal_state_processing@?$standard_base@_WV?$stream_output_adapter@_W@__crt_stdio_output@@@__crt_stdio_output@@IAE_NXZ 10050cb0 f i libucrtd:output.obj
 0001:0004fcc0       ?should_skip_normal_state_processing@?$standard_base@_WV?$string_output_adapter@_W@__crt_stdio_output@@@__crt_stdio_output@@IAE_NXZ 10050cc0 f i libucrtd:output.obj
 0001:0004fcd0       ?should_skip_type_state_output@?$positional_parameter_base@DV?$stream_output_adapter@D@__crt_stdio_output@@@__crt_stdio_output@@IBE_NXZ 10050cd0 f i libucrtd:output.obj
 0001:0004fd10       ?should_skip_type_state_output@?$positional_parameter_base@DV?$string_output_adapter@D@__crt_stdio_output@@@__crt_stdio_output@@IBE_NXZ 10050d10 f i libucrtd:output.obj
 0001:0004fd50       ?should_skip_type_state_output@?$positional_parameter_base@_WV?$stream_output_adapter@_W@__crt_stdio_output@@@__crt_stdio_output@@IBE_NXZ 10050d50 f i libucrtd:output.obj
 0001:0004fd90       ?should_skip_type_state_output@?$positional_parameter_base@_WV?$string_output_adapter@_W@__crt_stdio_output@@@__crt_stdio_output@@IBE_NXZ 10050d90 f i libucrtd:output.obj
 0001:0004fdd0       ?should_skip_type_state_output@?$standard_base@DV?$stream_output_adapter@D@__crt_stdio_output@@@__crt_stdio_output@@IBE_NXZ 10050dd0 f i libucrtd:output.obj
 0001:0004fde0       ?should_skip_type_state_output@?$standard_base@DV?$string_output_adapter@D@__crt_stdio_output@@@__crt_stdio_output@@IBE_NXZ 10050de0 f i libucrtd:output.obj
 0001:0004fdf0       ?should_skip_type_state_output@?$standard_base@_WV?$stream_output_adapter@_W@__crt_stdio_output@@@__crt_stdio_output@@IBE_NXZ 10050df0 f i libucrtd:output.obj
 0001:0004fe00       ?should_skip_type_state_output@?$standard_base@_WV?$string_output_adapter@_W@__crt_stdio_output@@@__crt_stdio_output@@IBE_NXZ 10050e00 f i libucrtd:output.obj
 0001:0004fe10       ?state_case_dot@?$output_processor@DV?$stream_output_adapter@D@__crt_stdio_output@@V?$format_validation_base@DV?$stream_output_adapter@D@__crt_stdio_output@@@2@@__crt_stdio_output@@AAE_NXZ 10050e10 f i libucrtd:output.obj
 0001:0004fe30       ?state_case_dot@?$output_processor@DV?$stream_output_adapter@D@__crt_stdio_output@@V?$positional_parameter_base@DV?$stream_output_adapter@D@__crt_stdio_output@@@2@@__crt_stdio_output@@AAE_NXZ 10050e30 f i libucrtd:output.obj
 0001:0004fe50       ?state_case_dot@?$output_processor@DV?$stream_output_adapter@D@__crt_stdio_output@@V?$standard_base@DV?$stream_output_adapter@D@__crt_stdio_output@@@2@@__crt_stdio_output@@AAE_NXZ 10050e50 f i libucrtd:output.obj
 0001:0004fe70       ?state_case_dot@?$output_processor@DV?$string_output_adapter@D@__crt_stdio_output@@V?$format_validation_base@DV?$string_output_adapter@D@__crt_stdio_output@@@2@@__crt_stdio_output@@AAE_NXZ 10050e70 f i libucrtd:output.obj
 0001:0004fe90       ?state_case_dot@?$output_processor@DV?$string_output_adapter@D@__crt_stdio_output@@V?$positional_parameter_base@DV?$string_output_adapter@D@__crt_stdio_output@@@2@@__crt_stdio_output@@AAE_NXZ 10050e90 f i libucrtd:output.obj
 0001:0004feb0       ?state_case_dot@?$output_processor@DV?$string_output_adapter@D@__crt_stdio_output@@V?$standard_base@DV?$string_output_adapter@D@__crt_stdio_output@@@2@@__crt_stdio_output@@AAE_NXZ 10050eb0 f i libucrtd:output.obj
 0001:0004fed0       ?state_case_dot@?$output_processor@_WV?$stream_output_adapter@_W@__crt_stdio_output@@V?$format_validation_base@_WV?$stream_output_adapter@_W@__crt_stdio_output@@@2@@__crt_stdio_output@@AAE_NXZ 10050ed0 f i libucrtd:output.obj
 0001:0004fef0       ?state_case_dot@?$output_processor@_WV?$stream_output_adapter@_W@__crt_stdio_output@@V?$positional_parameter_base@_WV?$stream_output_adapter@_W@__crt_stdio_output@@@2@@__crt_stdio_output@@AAE_NXZ 10050ef0 f i libucrtd:output.obj
 0001:0004ff10       ?state_case_dot@?$output_processor@_WV?$stream_output_adapter@_W@__crt_stdio_output@@V?$standard_base@_WV?$stream_output_adapter@_W@__crt_stdio_output@@@2@@__crt_stdio_output@@AAE_NXZ 10050f10 f i libucrtd:output.obj
 0001:0004ff30       ?state_case_dot@?$output_processor@_WV?$string_output_adapter@_W@__crt_stdio_output@@V?$format_validation_base@_WV?$string_output_adapter@_W@__crt_stdio_output@@@2@@__crt_stdio_output@@AAE_NXZ 10050f30 f i libucrtd:output.obj
 0001:0004ff50       ?state_case_dot@?$output_processor@_WV?$string_output_adapter@_W@__crt_stdio_output@@V?$positional_parameter_base@_WV?$string_output_adapter@_W@__crt_stdio_output@@@2@@__crt_stdio_output@@AAE_NXZ 10050f50 f i libucrtd:output.obj
 0001:0004ff70       ?state_case_dot@?$output_processor@_WV?$string_output_adapter@_W@__crt_stdio_output@@V?$standard_base@_WV?$string_output_adapter@_W@__crt_stdio_output@@@2@@__crt_stdio_output@@AAE_NXZ 10050f70 f i libucrtd:output.obj
 0001:0004ff90       ?state_case_flag@?$output_processor@DV?$stream_output_adapter@D@__crt_stdio_output@@V?$format_validation_base@DV?$stream_output_adapter@D@__crt_stdio_output@@@2@@__crt_stdio_output@@AAE_NXZ 10050f90 f i libucrtd:output.obj
 0001:00050040       ?state_case_flag@?$output_processor@DV?$stream_output_adapter@D@__crt_stdio_output@@V?$positional_parameter_base@DV?$stream_output_adapter@D@__crt_stdio_output@@@2@@__crt_stdio_output@@AAE_NXZ 10051040 f i libucrtd:output.obj
 0001:000500f0       ?state_case_flag@?$output_processor@DV?$stream_output_adapter@D@__crt_stdio_output@@V?$standard_base@DV?$stream_output_adapter@D@__crt_stdio_output@@@2@@__crt_stdio_output@@AAE_NXZ 100510f0 f i libucrtd:output.obj
 0001:000501a0       ?state_case_flag@?$output_processor@DV?$string_output_adapter@D@__crt_stdio_output@@V?$format_validation_base@DV?$string_output_adapter@D@__crt_stdio_output@@@2@@__crt_stdio_output@@AAE_NXZ 100511a0 f i libucrtd:output.obj
 0001:00050250       ?state_case_flag@?$output_processor@DV?$string_output_adapter@D@__crt_stdio_output@@V?$positional_parameter_base@DV?$string_output_adapter@D@__crt_stdio_output@@@2@@__crt_stdio_output@@AAE_NXZ 10051250 f i libucrtd:output.obj
 0001:00050300       ?state_case_flag@?$output_processor@DV?$string_output_adapter@D@__crt_stdio_output@@V?$standard_base@DV?$string_output_adapter@D@__crt_stdio_output@@@2@@__crt_stdio_output@@AAE_NXZ 10051300 f i libucrtd:output.obj
 0001:000503b0       ?state_case_flag@?$output_processor@_WV?$stream_output_adapter@_W@__crt_stdio_output@@V?$format_validation_base@_WV?$stream_output_adapter@_W@__crt_stdio_output@@@2@@__crt_stdio_output@@AAE_NXZ 100513b0 f i libucrtd:output.obj
 0001:00050460       ?state_case_flag@?$output_processor@_WV?$stream_output_adapter@_W@__crt_stdio_output@@V?$positional_parameter_base@_WV?$stream_output_adapter@_W@__crt_stdio_output@@@2@@__crt_stdio_output@@AAE_NXZ 10051460 f i libucrtd:output.obj
 0001:00050510       ?state_case_flag@?$output_processor@_WV?$stream_output_adapter@_W@__crt_stdio_output@@V?$standard_base@_WV?$stream_output_adapter@_W@__crt_stdio_output@@@2@@__crt_stdio_output@@AAE_NXZ 10051510 f i libucrtd:output.obj
 0001:000505c0       ?state_case_flag@?$output_processor@_WV?$string_output_adapter@_W@__crt_stdio_output@@V?$format_validation_base@_WV?$string_output_adapter@_W@__crt_stdio_output@@@2@@__crt_stdio_output@@AAE_NXZ 100515c0 f i libucrtd:output.obj
 0001:00050670       ?state_case_flag@?$output_processor@_WV?$string_output_adapter@_W@__crt_stdio_output@@V?$positional_parameter_base@_WV?$string_output_adapter@_W@__crt_stdio_output@@@2@@__crt_stdio_output@@AAE_NXZ 10051670 f i libucrtd:output.obj
 0001:00050720       ?state_case_flag@?$output_processor@_WV?$string_output_adapter@_W@__crt_stdio_output@@V?$standard_base@_WV?$string_output_adapter@_W@__crt_stdio_output@@@2@@__crt_stdio_output@@AAE_NXZ 10051720 f i libucrtd:output.obj
 0001:000507d0       ?state_case_normal@?$output_processor@DV?$stream_output_adapter@D@__crt_stdio_output@@V?$format_validation_base@DV?$stream_output_adapter@D@__crt_stdio_output@@@2@@__crt_stdio_output@@AAE_NXZ 100517d0 f i libucrtd:output.obj
 0001:00050880       ?state_case_normal@?$output_processor@DV?$stream_output_adapter@D@__crt_stdio_output@@V?$positional_parameter_base@DV?$stream_output_adapter@D@__crt_stdio_output@@@2@@__crt_stdio_output@@AAE_NXZ 10051880 f i libucrtd:output.obj
 0001:00050930       ?state_case_normal@?$output_processor@DV?$stream_output_adapter@D@__crt_stdio_output@@V?$standard_base@DV?$stream_output_adapter@D@__crt_stdio_output@@@2@@__crt_stdio_output@@AAE_NXZ 10051930 f i libucrtd:output.obj
 0001:000509e0       ?state_case_normal@?$output_processor@DV?$string_output_adapter@D@__crt_stdio_output@@V?$format_validation_base@DV?$string_output_adapter@D@__crt_stdio_output@@@2@@__crt_stdio_output@@AAE_NXZ 100519e0 f i libucrtd:output.obj
 0001:00050a90       ?state_case_normal@?$output_processor@DV?$string_output_adapter@D@__crt_stdio_output@@V?$positional_parameter_base@DV?$string_output_adapter@D@__crt_stdio_output@@@2@@__crt_stdio_output@@AAE_NXZ 10051a90 f i libucrtd:output.obj
 0001:00050b40       ?state_case_normal@?$output_processor@DV?$string_output_adapter@D@__crt_stdio_output@@V?$standard_base@DV?$string_output_adapter@D@__crt_stdio_output@@@2@@__crt_stdio_output@@AAE_NXZ 10051b40 f i libucrtd:output.obj
 0001:00050bf0       ?state_case_normal@?$output_processor@_WV?$stream_output_adapter@_W@__crt_stdio_output@@V?$format_validation_base@_WV?$stream_output_adapter@_W@__crt_stdio_output@@@2@@__crt_stdio_output@@AAE_NXZ 10051bf0 f i libucrtd:output.obj
 0001:00050ca0       ?state_case_normal@?$output_processor@_WV?$stream_output_adapter@_W@__crt_stdio_output@@V?$positional_parameter_base@_WV?$stream_output_adapter@_W@__crt_stdio_output@@@2@@__crt_stdio_output@@AAE_NXZ 10051ca0 f i libucrtd:output.obj
 0001:00050d50       ?state_case_normal@?$output_processor@_WV?$stream_output_adapter@_W@__crt_stdio_output@@V?$standard_base@_WV?$stream_output_adapter@_W@__crt_stdio_output@@@2@@__crt_stdio_output@@AAE_NXZ 10051d50 f i libucrtd:output.obj
 0001:00050e00       ?state_case_normal@?$output_processor@_WV?$string_output_adapter@_W@__crt_stdio_output@@V?$format_validation_base@_WV?$string_output_adapter@_W@__crt_stdio_output@@@2@@__crt_stdio_output@@AAE_NXZ 10051e00 f i libucrtd:output.obj
 0001:00050eb0       ?state_case_normal@?$output_processor@_WV?$string_output_adapter@_W@__crt_stdio_output@@V?$positional_parameter_base@_WV?$string_output_adapter@_W@__crt_stdio_output@@@2@@__crt_stdio_output@@AAE_NXZ 10051eb0 f i libucrtd:output.obj
 0001:00050f60       ?state_case_normal@?$output_processor@_WV?$string_output_adapter@_W@__crt_stdio_output@@V?$standard_base@_WV?$string_output_adapter@_W@__crt_stdio_output@@@2@@__crt_stdio_output@@AAE_NXZ 10051f60 f i libucrtd:output.obj
 0001:00051010       ?state_case_normal_common@?$output_processor@DV?$stream_output_adapter@D@__crt_stdio_output@@V?$format_validation_base@DV?$stream_output_adapter@D@__crt_stdio_output@@@2@@__crt_stdio_output@@AAE_NXZ 10052010 f i libucrtd:output.obj
 0001:00051060       ?state_case_normal_common@?$output_processor@DV?$stream_output_adapter@D@__crt_stdio_output@@V?$positional_parameter_base@DV?$stream_output_adapter@D@__crt_stdio_output@@@2@@__crt_stdio_output@@AAE_NXZ 10052060 f i libucrtd:output.obj
 0001:000510b0       ?state_case_normal_common@?$output_processor@DV?$stream_output_adapter@D@__crt_stdio_output@@V?$standard_base@DV?$stream_output_adapter@D@__crt_stdio_output@@@2@@__crt_stdio_output@@AAE_NXZ 100520b0 f i libucrtd:output.obj
 0001:00051100       ?state_case_normal_common@?$output_processor@DV?$string_output_adapter@D@__crt_stdio_output@@V?$format_validation_base@DV?$string_output_adapter@D@__crt_stdio_output@@@2@@__crt_stdio_output@@AAE_NXZ 10052100 f i libucrtd:output.obj
 0001:00051150       ?state_case_normal_common@?$output_processor@DV?$string_output_adapter@D@__crt_stdio_output@@V?$positional_parameter_base@DV?$string_output_adapter@D@__crt_stdio_output@@@2@@__crt_stdio_output@@AAE_NXZ 10052150 f i libucrtd:output.obj
 0001:000511a0       ?state_case_normal_common@?$output_processor@DV?$string_output_adapter@D@__crt_stdio_output@@V?$standard_base@DV?$string_output_adapter@D@__crt_stdio_output@@@2@@__crt_stdio_output@@AAE_NXZ 100521a0 f i libucrtd:output.obj
 0001:000511f0       ?state_case_normal_common@?$output_processor@_WV?$stream_output_adapter@_W@__crt_stdio_output@@V?$format_validation_base@_WV?$stream_output_adapter@_W@__crt_stdio_output@@@2@@__crt_stdio_output@@AAE_NXZ 100521f0 f i libucrtd:output.obj
 0001:00051240       ?state_case_normal_common@?$output_processor@_WV?$stream_output_adapter@_W@__crt_stdio_output@@V?$positional_parameter_base@_WV?$stream_output_adapter@_W@__crt_stdio_output@@@2@@__crt_stdio_output@@AAE_NXZ 10052240 f i libucrtd:output.obj
 0001:00051290       ?state_case_normal_common@?$output_processor@_WV?$stream_output_adapter@_W@__crt_stdio_output@@V?$standard_base@_WV?$stream_output_adapter@_W@__crt_stdio_output@@@2@@__crt_stdio_output@@AAE_NXZ 10052290 f i libucrtd:output.obj
 0001:000512e0       ?state_case_normal_common@?$output_processor@_WV?$string_output_adapter@_W@__crt_stdio_output@@V?$format_validation_base@_WV?$string_output_adapter@_W@__crt_stdio_output@@@2@@__crt_stdio_output@@AAE_NXZ 100522e0 f i libucrtd:output.obj
 0001:00051330       ?state_case_normal_common@?$output_processor@_WV?$string_output_adapter@_W@__crt_stdio_output@@V?$positional_parameter_base@_WV?$string_output_adapter@_W@__crt_stdio_output@@@2@@__crt_stdio_output@@AAE_NXZ 10052330 f i libucrtd:output.obj
 0001:00051380       ?state_case_normal_common@?$output_processor@_WV?$string_output_adapter@_W@__crt_stdio_output@@V?$standard_base@_WV?$string_output_adapter@_W@__crt_stdio_output@@@2@@__crt_stdio_output@@AAE_NXZ 10052380 f i libucrtd:output.obj
 0001:000513d0       ?state_case_normal_tchar@?$output_processor@DV?$stream_output_adapter@D@__crt_stdio_output@@V?$format_validation_base@DV?$stream_output_adapter@D@__crt_stdio_output@@@2@@__crt_stdio_output@@AAE_ND@Z 100523d0 f i libucrtd:output.obj
 0001:000514d0       ?state_case_normal_tchar@?$output_processor@DV?$stream_output_adapter@D@__crt_stdio_output@@V?$positional_parameter_base@DV?$stream_output_adapter@D@__crt_stdio_output@@@2@@__crt_stdio_output@@AAE_ND@Z 100524d0 f i libucrtd:output.obj
 0001:000515d0       ?state_case_normal_tchar@?$output_processor@DV?$stream_output_adapter@D@__crt_stdio_output@@V?$standard_base@DV?$stream_output_adapter@D@__crt_stdio_output@@@2@@__crt_stdio_output@@AAE_ND@Z 100525d0 f i libucrtd:output.obj
 0001:000516d0       ?state_case_normal_tchar@?$output_processor@DV?$string_output_adapter@D@__crt_stdio_output@@V?$format_validation_base@DV?$string_output_adapter@D@__crt_stdio_output@@@2@@__crt_stdio_output@@AAE_ND@Z 100526d0 f i libucrtd:output.obj
 0001:000517d0       ?state_case_normal_tchar@?$output_processor@DV?$string_output_adapter@D@__crt_stdio_output@@V?$positional_parameter_base@DV?$string_output_adapter@D@__crt_stdio_output@@@2@@__crt_stdio_output@@AAE_ND@Z 100527d0 f i libucrtd:output.obj
 0001:000518d0       ?state_case_normal_tchar@?$output_processor@DV?$string_output_adapter@D@__crt_stdio_output@@V?$standard_base@DV?$string_output_adapter@D@__crt_stdio_output@@@2@@__crt_stdio_output@@AAE_ND@Z 100528d0 f i libucrtd:output.obj
 0001:000519d0       ?state_case_normal_tchar@?$output_processor@_WV?$stream_output_adapter@_W@__crt_stdio_output@@V?$format_validation_base@_WV?$stream_output_adapter@_W@__crt_stdio_output@@@2@@__crt_stdio_output@@AAE_N_W@Z 100529d0 f i libucrtd:output.obj
 0001:000519f0       ?state_case_normal_tchar@?$output_processor@_WV?$stream_output_adapter@_W@__crt_stdio_output@@V?$positional_parameter_base@_WV?$stream_output_adapter@_W@__crt_stdio_output@@@2@@__crt_stdio_output@@AAE_N_W@Z 100529f0 f i libucrtd:output.obj
 0001:00051a10       ?state_case_normal_tchar@?$output_processor@_WV?$stream_output_adapter@_W@__crt_stdio_output@@V?$standard_base@_WV?$stream_output_adapter@_W@__crt_stdio_output@@@2@@__crt_stdio_output@@AAE_N_W@Z 10052a10 f i libucrtd:output.obj
 0001:00051a30       ?state_case_normal_tchar@?$output_processor@_WV?$string_output_adapter@_W@__crt_stdio_output@@V?$format_validation_base@_WV?$string_output_adapter@_W@__crt_stdio_output@@@2@@__crt_stdio_output@@AAE_N_W@Z 10052a30 f i libucrtd:output.obj
 0001:00051a50       ?state_case_normal_tchar@?$output_processor@_WV?$string_output_adapter@_W@__crt_stdio_output@@V?$positional_parameter_base@_WV?$string_output_adapter@_W@__crt_stdio_output@@@2@@__crt_stdio_output@@AAE_N_W@Z 10052a50 f i libucrtd:output.obj
 0001:00051a70       ?state_case_normal_tchar@?$output_processor@_WV?$string_output_adapter@_W@__crt_stdio_output@@V?$standard_base@_WV?$string_output_adapter@_W@__crt_stdio_output@@@2@@__crt_stdio_output@@AAE_N_W@Z 10052a70 f i libucrtd:output.obj
 0001:00051a90       ?state_case_percent@?$output_processor@DV?$stream_output_adapter@D@__crt_stdio_output@@V?$format_validation_base@DV?$stream_output_adapter@D@__crt_stdio_output@@@2@@__crt_stdio_output@@AAE_NXZ 10052a90 f i libucrtd:output.obj
 0001:00051ae0       ?state_case_percent@?$output_processor@DV?$stream_output_adapter@D@__crt_stdio_output@@V?$positional_parameter_base@DV?$stream_output_adapter@D@__crt_stdio_output@@@2@@__crt_stdio_output@@AAE_NXZ 10052ae0 f i libucrtd:output.obj
 0001:00051b30       ?state_case_percent@?$output_processor@DV?$stream_output_adapter@D@__crt_stdio_output@@V?$standard_base@DV?$stream_output_adapter@D@__crt_stdio_output@@@2@@__crt_stdio_output@@AAE_NXZ 10052b30 f i libucrtd:output.obj
 0001:00051b80       ?state_case_percent@?$output_processor@DV?$string_output_adapter@D@__crt_stdio_output@@V?$format_validation_base@DV?$string_output_adapter@D@__crt_stdio_output@@@2@@__crt_stdio_output@@AAE_NXZ 10052b80 f i libucrtd:output.obj
 0001:00051bd0       ?state_case_percent@?$output_processor@DV?$string_output_adapter@D@__crt_stdio_output@@V?$positional_parameter_base@DV?$string_output_adapter@D@__crt_stdio_output@@@2@@__crt_stdio_output@@AAE_NXZ 10052bd0 f i libucrtd:output.obj
 0001:00051c20       ?state_case_percent@?$output_processor@DV?$string_output_adapter@D@__crt_stdio_output@@V?$standard_base@DV?$string_output_adapter@D@__crt_stdio_output@@@2@@__crt_stdio_output@@AAE_NXZ 10052c20 f i libucrtd:output.obj
 0001:00051c70       ?state_case_percent@?$output_processor@_WV?$stream_output_adapter@_W@__crt_stdio_output@@V?$format_validation_base@_WV?$stream_output_adapter@_W@__crt_stdio_output@@@2@@__crt_stdio_output@@AAE_NXZ 10052c70 f i libucrtd:output.obj
 0001:00051cc0       ?state_case_percent@?$output_processor@_WV?$stream_output_adapter@_W@__crt_stdio_output@@V?$positional_parameter_base@_WV?$stream_output_adapter@_W@__crt_stdio_output@@@2@@__crt_stdio_output@@AAE_NXZ 10052cc0 f i libucrtd:output.obj
 0001:00051d10       ?state_case_percent@?$output_processor@_WV?$stream_output_adapter@_W@__crt_stdio_output@@V?$standard_base@_WV?$stream_output_adapter@_W@__crt_stdio_output@@@2@@__crt_stdio_output@@AAE_NXZ 10052d10 f i libucrtd:output.obj
 0001:00051d60       ?state_case_percent@?$output_processor@_WV?$string_output_adapter@_W@__crt_stdio_output@@V?$format_validation_base@_WV?$string_output_adapter@_W@__crt_stdio_output@@@2@@__crt_stdio_output@@AAE_NXZ 10052d60 f i libucrtd:output.obj
 0001:00051db0       ?state_case_percent@?$output_processor@_WV?$string_output_adapter@_W@__crt_stdio_output@@V?$positional_parameter_base@_WV?$string_output_adapter@_W@__crt_stdio_output@@@2@@__crt_stdio_output@@AAE_NXZ 10052db0 f i libucrtd:output.obj
 0001:00051e00       ?state_case_percent@?$output_processor@_WV?$string_output_adapter@_W@__crt_stdio_output@@V?$standard_base@_WV?$string_output_adapter@_W@__crt_stdio_output@@@2@@__crt_stdio_output@@AAE_NXZ 10052e00 f i libucrtd:output.obj
 0001:00051e50       ?state_case_precision@?$output_processor@DV?$stream_output_adapter@D@__crt_stdio_output@@V?$format_validation_base@DV?$stream_output_adapter@D@__crt_stdio_output@@@2@@__crt_stdio_output@@AAE_NXZ 10052e50 f i libucrtd:output.obj
 0001:00051ec0       ?state_case_precision@?$output_processor@DV?$stream_output_adapter@D@__crt_stdio_output@@V?$positional_parameter_base@DV?$stream_output_adapter@D@__crt_stdio_output@@@2@@__crt_stdio_output@@AAE_NXZ 10052ec0 f i libucrtd:output.obj
 0001:00051f30       ?state_case_precision@?$output_processor@DV?$stream_output_adapter@D@__crt_stdio_output@@V?$standard_base@DV?$stream_output_adapter@D@__crt_stdio_output@@@2@@__crt_stdio_output@@AAE_NXZ 10052f30 f i libucrtd:output.obj
 0001:00051fa0       ?state_case_precision@?$output_processor@DV?$string_output_adapter@D@__crt_stdio_output@@V?$format_validation_base@DV?$string_output_adapter@D@__crt_stdio_output@@@2@@__crt_stdio_output@@AAE_NXZ 10052fa0 f i libucrtd:output.obj
 0001:00052010       ?state_case_precision@?$output_processor@DV?$string_output_adapter@D@__crt_stdio_output@@V?$positional_parameter_base@DV?$string_output_adapter@D@__crt_stdio_output@@@2@@__crt_stdio_output@@AAE_NXZ 10053010 f i libucrtd:output.obj
 0001:00052080       ?state_case_precision@?$output_processor@DV?$string_output_adapter@D@__crt_stdio_output@@V?$standard_base@DV?$string_output_adapter@D@__crt_stdio_output@@@2@@__crt_stdio_output@@AAE_NXZ 10053080 f i libucrtd:output.obj
 0001:000520f0       ?state_case_precision@?$output_processor@_WV?$stream_output_adapter@_W@__crt_stdio_output@@V?$format_validation_base@_WV?$stream_output_adapter@_W@__crt_stdio_output@@@2@@__crt_stdio_output@@AAE_NXZ 100530f0 f i libucrtd:output.obj
 0001:00052160       ?state_case_precision@?$output_processor@_WV?$stream_output_adapter@_W@__crt_stdio_output@@V?$positional_parameter_base@_WV?$stream_output_adapter@_W@__crt_stdio_output@@@2@@__crt_stdio_output@@AAE_NXZ 10053160 f i libucrtd:output.obj
 0001:000521d0       ?state_case_precision@?$output_processor@_WV?$stream_output_adapter@_W@__crt_stdio_output@@V?$standard_base@_WV?$stream_output_adapter@_W@__crt_stdio_output@@@2@@__crt_stdio_output@@AAE_NXZ 100531d0 f i libucrtd:output.obj
 0001:00052240       ?state_case_precision@?$output_processor@_WV?$string_output_adapter@_W@__crt_stdio_output@@V?$format_validation_base@_WV?$string_output_adapter@_W@__crt_stdio_output@@@2@@__crt_stdio_output@@AAE_NXZ 10053240 f i libucrtd:output.obj
 0001:000522b0       ?state_case_precision@?$output_processor@_WV?$string_output_adapter@_W@__crt_stdio_output@@V?$positional_parameter_base@_WV?$string_output_adapter@_W@__crt_stdio_output@@@2@@__crt_stdio_output@@AAE_NXZ 100532b0 f i libucrtd:output.obj
 0001:00052320       ?state_case_precision@?$output_processor@_WV?$string_output_adapter@_W@__crt_stdio_output@@V?$standard_base@_WV?$string_output_adapter@_W@__crt_stdio_output@@@2@@__crt_stdio_output@@AAE_NXZ 10053320 f i libucrtd:output.obj
 0001:00052390       ?state_case_size@?$output_processor@DV?$stream_output_adapter@D@__crt_stdio_output@@V?$format_validation_base@DV?$stream_output_adapter@D@__crt_stdio_output@@@2@@__crt_stdio_output@@AAE_NXZ 10053390 f i libucrtd:output.obj
 0001:00052760       ?state_case_size@?$output_processor@DV?$stream_output_adapter@D@__crt_stdio_output@@V?$positional_parameter_base@DV?$stream_output_adapter@D@__crt_stdio_output@@@2@@__crt_stdio_output@@AAE_NXZ 10053760 f i libucrtd:output.obj
 0001:00052b30       ?state_case_size@?$output_processor@DV?$stream_output_adapter@D@__crt_stdio_output@@V?$standard_base@DV?$stream_output_adapter@D@__crt_stdio_output@@@2@@__crt_stdio_output@@AAE_NXZ 10053b30 f i libucrtd:output.obj
 0001:00052f00       ?state_case_size@?$output_processor@DV?$string_output_adapter@D@__crt_stdio_output@@V?$format_validation_base@DV?$string_output_adapter@D@__crt_stdio_output@@@2@@__crt_stdio_output@@AAE_NXZ 10053f00 f i libucrtd:output.obj
 0001:000532d0       ?state_case_size@?$output_processor@DV?$string_output_adapter@D@__crt_stdio_output@@V?$positional_parameter_base@DV?$string_output_adapter@D@__crt_stdio_output@@@2@@__crt_stdio_output@@AAE_NXZ 100542d0 f i libucrtd:output.obj
 0001:000536a0       ?state_case_size@?$output_processor@DV?$string_output_adapter@D@__crt_stdio_output@@V?$standard_base@DV?$string_output_adapter@D@__crt_stdio_output@@@2@@__crt_stdio_output@@AAE_NXZ 100546a0 f i libucrtd:output.obj
 0001:00053a70       ?state_case_size@?$output_processor@_WV?$stream_output_adapter@_W@__crt_stdio_output@@V?$format_validation_base@_WV?$stream_output_adapter@_W@__crt_stdio_output@@@2@@__crt_stdio_output@@AAE_NXZ 10054a70 f i libucrtd:output.obj
 0001:00053e40       ?state_case_size@?$output_processor@_WV?$stream_output_adapter@_W@__crt_stdio_output@@V?$positional_parameter_base@_WV?$stream_output_adapter@_W@__crt_stdio_output@@@2@@__crt_stdio_output@@AAE_NXZ 10054e40 f i libucrtd:output.obj
 0001:00054210       ?state_case_size@?$output_processor@_WV?$stream_output_adapter@_W@__crt_stdio_output@@V?$standard_base@_WV?$stream_output_adapter@_W@__crt_stdio_output@@@2@@__crt_stdio_output@@AAE_NXZ 10055210 f i libucrtd:output.obj
 0001:000545e0       ?state_case_size@?$output_processor@_WV?$string_output_adapter@_W@__crt_stdio_output@@V?$format_validation_base@_WV?$string_output_adapter@_W@__crt_stdio_output@@@2@@__crt_stdio_output@@AAE_NXZ 100555e0 f i libucrtd:output.obj
 0001:000549b0       ?state_case_size@?$output_processor@_WV?$string_output_adapter@_W@__crt_stdio_output@@V?$positional_parameter_base@_WV?$string_output_adapter@_W@__crt_stdio_output@@@2@@__crt_stdio_output@@AAE_NXZ 100559b0 f i libucrtd:output.obj
 0001:00054d80       ?state_case_size@?$output_processor@_WV?$string_output_adapter@_W@__crt_stdio_output@@V?$standard_base@_WV?$string_output_adapter@_W@__crt_stdio_output@@@2@@__crt_stdio_output@@AAE_NXZ 10055d80 f i libucrtd:output.obj
 0001:00055150       ?state_case_type@?$output_processor@DV?$stream_output_adapter@D@__crt_stdio_output@@V?$format_validation_base@DV?$stream_output_adapter@D@__crt_stdio_output@@@2@@__crt_stdio_output@@AAE_NXZ 10056150 f i libucrtd:output.obj
 0001:00055500       ?state_case_type@?$output_processor@DV?$stream_output_adapter@D@__crt_stdio_output@@V?$positional_parameter_base@DV?$stream_output_adapter@D@__crt_stdio_output@@@2@@__crt_stdio_output@@AAE_NXZ 10056500 f i libucrtd:output.obj
 0001:000558b0       ?state_case_type@?$output_processor@DV?$stream_output_adapter@D@__crt_stdio_output@@V?$standard_base@DV?$stream_output_adapter@D@__crt_stdio_output@@@2@@__crt_stdio_output@@AAE_NXZ 100568b0 f i libucrtd:output.obj
 0001:00055c60       ?state_case_type@?$output_processor@DV?$string_output_adapter@D@__crt_stdio_output@@V?$format_validation_base@DV?$string_output_adapter@D@__crt_stdio_output@@@2@@__crt_stdio_output@@AAE_NXZ 10056c60 f i libucrtd:output.obj
 0001:00056010       ?state_case_type@?$output_processor@DV?$string_output_adapter@D@__crt_stdio_output@@V?$positional_parameter_base@DV?$string_output_adapter@D@__crt_stdio_output@@@2@@__crt_stdio_output@@AAE_NXZ 10057010 f i libucrtd:output.obj
 0001:000563c0       ?state_case_type@?$output_processor@DV?$string_output_adapter@D@__crt_stdio_output@@V?$standard_base@DV?$string_output_adapter@D@__crt_stdio_output@@@2@@__crt_stdio_output@@AAE_NXZ 100573c0 f i libucrtd:output.obj
 0001:00056770       ?state_case_type@?$output_processor@_WV?$stream_output_adapter@_W@__crt_stdio_output@@V?$format_validation_base@_WV?$stream_output_adapter@_W@__crt_stdio_output@@@2@@__crt_stdio_output@@AAE_NXZ 10057770 f i libucrtd:output.obj
 0001:00056b50       ?state_case_type@?$output_processor@_WV?$stream_output_adapter@_W@__crt_stdio_output@@V?$positional_parameter_base@_WV?$stream_output_adapter@_W@__crt_stdio_output@@@2@@__crt_stdio_output@@AAE_NXZ 10057b50 f i libucrtd:output.obj
 0001:00056f30       ?state_case_type@?$output_processor@_WV?$stream_output_adapter@_W@__crt_stdio_output@@V?$standard_base@_WV?$stream_output_adapter@_W@__crt_stdio_output@@@2@@__crt_stdio_output@@AAE_NXZ 10057f30 f i libucrtd:output.obj
 0001:00057310       ?state_case_type@?$output_processor@_WV?$string_output_adapter@_W@__crt_stdio_output@@V?$format_validation_base@_WV?$string_output_adapter@_W@__crt_stdio_output@@@2@@__crt_stdio_output@@AAE_NXZ 10058310 f i libucrtd:output.obj
 0001:000576f0       ?state_case_type@?$output_processor@_WV?$string_output_adapter@_W@__crt_stdio_output@@V?$positional_parameter_base@_WV?$string_output_adapter@_W@__crt_stdio_output@@@2@@__crt_stdio_output@@AAE_NXZ 100586f0 f i libucrtd:output.obj
 0001:00057ad0       ?state_case_type@?$output_processor@_WV?$string_output_adapter@_W@__crt_stdio_output@@V?$standard_base@_WV?$string_output_adapter@_W@__crt_stdio_output@@@2@@__crt_stdio_output@@AAE_NXZ 10058ad0 f i libucrtd:output.obj
 0001:00057eb0       ?state_case_width@?$output_processor@DV?$stream_output_adapter@D@__crt_stdio_output@@V?$format_validation_base@DV?$stream_output_adapter@D@__crt_stdio_output@@@2@@__crt_stdio_output@@AAE_NXZ 10058eb0 f i libucrtd:output.obj
 0001:00057f30       ?state_case_width@?$output_processor@DV?$stream_output_adapter@D@__crt_stdio_output@@V?$positional_parameter_base@DV?$stream_output_adapter@D@__crt_stdio_output@@@2@@__crt_stdio_output@@AAE_NXZ 10058f30 f i libucrtd:output.obj
 0001:00057fb0       ?state_case_width@?$output_processor@DV?$stream_output_adapter@D@__crt_stdio_output@@V?$standard_base@DV?$stream_output_adapter@D@__crt_stdio_output@@@2@@__crt_stdio_output@@AAE_NXZ 10058fb0 f i libucrtd:output.obj
 0001:00058030       ?state_case_width@?$output_processor@DV?$string_output_adapter@D@__crt_stdio_output@@V?$format_validation_base@DV?$string_output_adapter@D@__crt_stdio_output@@@2@@__crt_stdio_output@@AAE_NXZ 10059030 f i libucrtd:output.obj
 0001:000580b0       ?state_case_width@?$output_processor@DV?$string_output_adapter@D@__crt_stdio_output@@V?$positional_parameter_base@DV?$string_output_adapter@D@__crt_stdio_output@@@2@@__crt_stdio_output@@AAE_NXZ 100590b0 f i libucrtd:output.obj
 0001:00058130       ?state_case_width@?$output_processor@DV?$string_output_adapter@D@__crt_stdio_output@@V?$standard_base@DV?$string_output_adapter@D@__crt_stdio_output@@@2@@__crt_stdio_output@@AAE_NXZ 10059130 f i libucrtd:output.obj
 0001:000581b0       ?state_case_width@?$output_processor@_WV?$stream_output_adapter@_W@__crt_stdio_output@@V?$format_validation_base@_WV?$stream_output_adapter@_W@__crt_stdio_output@@@2@@__crt_stdio_output@@AAE_NXZ 100591b0 f i libucrtd:output.obj
 0001:00058230       ?state_case_width@?$output_processor@_WV?$stream_output_adapter@_W@__crt_stdio_output@@V?$positional_parameter_base@_WV?$stream_output_adapter@_W@__crt_stdio_output@@@2@@__crt_stdio_output@@AAE_NXZ 10059230 f i libucrtd:output.obj
 0001:000582b0       ?state_case_width@?$output_processor@_WV?$stream_output_adapter@_W@__crt_stdio_output@@V?$standard_base@_WV?$stream_output_adapter@_W@__crt_stdio_output@@@2@@__crt_stdio_output@@AAE_NXZ 100592b0 f i libucrtd:output.obj
 0001:00058330       ?state_case_width@?$output_processor@_WV?$string_output_adapter@_W@__crt_stdio_output@@V?$format_validation_base@_WV?$string_output_adapter@_W@__crt_stdio_output@@@2@@__crt_stdio_output@@AAE_NXZ 10059330 f i libucrtd:output.obj
 0001:000583b0       ?state_case_width@?$output_processor@_WV?$string_output_adapter@_W@__crt_stdio_output@@V?$positional_parameter_base@_WV?$string_output_adapter@_W@__crt_stdio_output@@@2@@__crt_stdio_output@@AAE_NXZ 100593b0 f i libucrtd:output.obj
 0001:00058430       ?state_case_width@?$output_processor@_WV?$string_output_adapter@_W@__crt_stdio_output@@V?$standard_base@_WV?$string_output_adapter@_W@__crt_stdio_output@@@2@@__crt_stdio_output@@AAE_NXZ 10059430 f i libucrtd:output.obj
 0001:000584b0       ?state_count@?$format_validation_base@DV?$stream_output_adapter@D@__crt_stdio_output@@@__crt_stdio_output@@KAIXZ 100594b0 f i libucrtd:output.obj
 0001:000584c0       ?state_count@?$format_validation_base@DV?$string_output_adapter@D@__crt_stdio_output@@@__crt_stdio_output@@KAIXZ 100594c0 f i libucrtd:output.obj
 0001:000584d0       ?state_count@?$format_validation_base@_WV?$stream_output_adapter@_W@__crt_stdio_output@@@__crt_stdio_output@@KAIXZ 100594d0 f i libucrtd:output.obj
 0001:000584e0       ?state_count@?$format_validation_base@_WV?$string_output_adapter@_W@__crt_stdio_output@@@__crt_stdio_output@@KAIXZ 100594e0 f i libucrtd:output.obj
 0001:000584f0       ?state_count@?$standard_base@DV?$stream_output_adapter@D@__crt_stdio_output@@@__crt_stdio_output@@KAIXZ 100594f0 f i libucrtd:output.obj
 0001:00058500       ?state_count@?$standard_base@DV?$string_output_adapter@D@__crt_stdio_output@@@__crt_stdio_output@@KAIXZ 10059500 f i libucrtd:output.obj
 0001:00058510       ?state_count@?$standard_base@_WV?$stream_output_adapter@_W@__crt_stdio_output@@@__crt_stdio_output@@KAIXZ 10059510 f i libucrtd:output.obj
 0001:00058520       ?state_count@?$standard_base@_WV?$string_output_adapter@_W@__crt_stdio_output@@@__crt_stdio_output@@KAIXZ 10059520 f i libucrtd:output.obj
 0001:00058530       ?state_transition_table@?$format_validation_base@DV?$stream_output_adapter@D@__crt_stdio_output@@@__crt_stdio_output@@KAPBEXZ 10059530 f i libucrtd:output.obj
 0001:00058540       ?state_transition_table@?$format_validation_base@DV?$string_output_adapter@D@__crt_stdio_output@@@__crt_stdio_output@@KAPBEXZ 10059540 f i libucrtd:output.obj
 0001:00058550       ?state_transition_table@?$format_validation_base@_WV?$stream_output_adapter@_W@__crt_stdio_output@@@__crt_stdio_output@@KAPBEXZ 10059550 f i libucrtd:output.obj
 0001:00058560       ?state_transition_table@?$format_validation_base@_WV?$string_output_adapter@_W@__crt_stdio_output@@@__crt_stdio_output@@KAPBEXZ 10059560 f i libucrtd:output.obj
 0001:00058570       ?state_transition_table@?$standard_base@DV?$stream_output_adapter@D@__crt_stdio_output@@@__crt_stdio_output@@KAPBEXZ 10059570 f i libucrtd:output.obj
 0001:00058580       ?state_transition_table@?$standard_base@DV?$string_output_adapter@D@__crt_stdio_output@@@__crt_stdio_output@@KAPBEXZ 10059580 f i libucrtd:output.obj
 0001:00058590       ?state_transition_table@?$standard_base@_WV?$stream_output_adapter@_W@__crt_stdio_output@@@__crt_stdio_output@@KAPBEXZ 10059590 f i libucrtd:output.obj
 0001:000585a0       ?state_transition_table@?$standard_base@_WV?$string_output_adapter@_W@__crt_stdio_output@@@__crt_stdio_output@@KAPBEXZ 100595a0 f i libucrtd:output.obj
 0001:000585b0       ?to_integer_size@__crt_stdio_output@@YAIW4length_modifier@1@@Z 100595b0 f i libucrtd:output.obj
 0001:00058650       ?type_case_X@?$output_processor@DV?$stream_output_adapter@D@__crt_stdio_output@@V?$format_validation_base@DV?$stream_output_adapter@D@__crt_stdio_output@@@2@@__crt_stdio_output@@AAE_NXZ 10059650 f i libucrtd:output.obj
 0001:00058670       ?type_case_X@?$output_processor@DV?$stream_output_adapter@D@__crt_stdio_output@@V?$positional_parameter_base@DV?$stream_output_adapter@D@__crt_stdio_output@@@2@@__crt_stdio_output@@AAE_NXZ 10059670 f i libucrtd:output.obj
 0001:00058690       ?type_case_X@?$output_processor@DV?$stream_output_adapter@D@__crt_stdio_output@@V?$standard_base@DV?$stream_output_adapter@D@__crt_stdio_output@@@2@@__crt_stdio_output@@AAE_NXZ 10059690 f i libucrtd:output.obj
 0001:000586b0       ?type_case_X@?$output_processor@DV?$string_output_adapter@D@__crt_stdio_output@@V?$format_validation_base@DV?$string_output_adapter@D@__crt_stdio_output@@@2@@__crt_stdio_output@@AAE_NXZ 100596b0 f i libucrtd:output.obj
 0001:000586d0       ?type_case_X@?$output_processor@DV?$string_output_adapter@D@__crt_stdio_output@@V?$positional_parameter_base@DV?$string_output_adapter@D@__crt_stdio_output@@@2@@__crt_stdio_output@@AAE_NXZ 100596d0 f i libucrtd:output.obj
 0001:000586f0       ?type_case_X@?$output_processor@DV?$string_output_adapter@D@__crt_stdio_output@@V?$standard_base@DV?$string_output_adapter@D@__crt_stdio_output@@@2@@__crt_stdio_output@@AAE_NXZ 100596f0 f i libucrtd:output.obj
 0001:00058710       ?type_case_X@?$output_processor@_WV?$stream_output_adapter@_W@__crt_stdio_output@@V?$format_validation_base@_WV?$stream_output_adapter@_W@__crt_stdio_output@@@2@@__crt_stdio_output@@AAE_NXZ 10059710 f i libucrtd:output.obj
 0001:00058730       ?type_case_X@?$output_processor@_WV?$stream_output_adapter@_W@__crt_stdio_output@@V?$positional_parameter_base@_WV?$stream_output_adapter@_W@__crt_stdio_output@@@2@@__crt_stdio_output@@AAE_NXZ 10059730 f i libucrtd:output.obj
 0001:00058750       ?type_case_X@?$output_processor@_WV?$stream_output_adapter@_W@__crt_stdio_output@@V?$standard_base@_WV?$stream_output_adapter@_W@__crt_stdio_output@@@2@@__crt_stdio_output@@AAE_NXZ 10059750 f i libucrtd:output.obj
 0001:00058770       ?type_case_X@?$output_processor@_WV?$string_output_adapter@_W@__crt_stdio_output@@V?$format_validation_base@_WV?$string_output_adapter@_W@__crt_stdio_output@@@2@@__crt_stdio_output@@AAE_NXZ 10059770 f i libucrtd:output.obj
 0001:00058790       ?type_case_X@?$output_processor@_WV?$string_output_adapter@_W@__crt_stdio_output@@V?$positional_parameter_base@_WV?$string_output_adapter@_W@__crt_stdio_output@@@2@@__crt_stdio_output@@AAE_NXZ 10059790 f i libucrtd:output.obj
 0001:000587b0       ?type_case_X@?$output_processor@_WV?$string_output_adapter@_W@__crt_stdio_output@@V?$standard_base@_WV?$string_output_adapter@_W@__crt_stdio_output@@@2@@__crt_stdio_output@@AAE_NXZ 100597b0 f i libucrtd:output.obj
 0001:000587d0       ?type_case_Z@?$output_processor@DV?$stream_output_adapter@D@__crt_stdio_output@@V?$format_validation_base@DV?$stream_output_adapter@D@__crt_stdio_output@@@2@@__crt_stdio_output@@AAE_NXZ 100597d0 f i libucrtd:output.obj
 0001:000588c0       ?type_case_Z@?$output_processor@DV?$stream_output_adapter@D@__crt_stdio_output@@V?$positional_parameter_base@DV?$stream_output_adapter@D@__crt_stdio_output@@@2@@__crt_stdio_output@@AAE_NXZ 100598c0 f i libucrtd:output.obj
 0001:000589b0       ?type_case_Z@?$output_processor@DV?$stream_output_adapter@D@__crt_stdio_output@@V?$standard_base@DV?$stream_output_adapter@D@__crt_stdio_output@@@2@@__crt_stdio_output@@AAE_NXZ 100599b0 f i libucrtd:output.obj
 0001:00058aa0       ?type_case_Z@?$output_processor@DV?$string_output_adapter@D@__crt_stdio_output@@V?$format_validation_base@DV?$string_output_adapter@D@__crt_stdio_output@@@2@@__crt_stdio_output@@AAE_NXZ 10059aa0 f i libucrtd:output.obj
 0001:00058b90       ?type_case_Z@?$output_processor@DV?$string_output_adapter@D@__crt_stdio_output@@V?$positional_parameter_base@DV?$string_output_adapter@D@__crt_stdio_output@@@2@@__crt_stdio_output@@AAE_NXZ 10059b90 f i libucrtd:output.obj
 0001:00058c80       ?type_case_Z@?$output_processor@DV?$string_output_adapter@D@__crt_stdio_output@@V?$standard_base@DV?$string_output_adapter@D@__crt_stdio_output@@@2@@__crt_stdio_output@@AAE_NXZ 10059c80 f i libucrtd:output.obj
 0001:00058d70       ?type_case_Z@?$output_processor@_WV?$stream_output_adapter@_W@__crt_stdio_output@@V?$format_validation_base@_WV?$stream_output_adapter@_W@__crt_stdio_output@@@2@@__crt_stdio_output@@AAE_NXZ 10059d70 f i libucrtd:output.obj
 0001:00058e60       ?type_case_Z@?$output_processor@_WV?$stream_output_adapter@_W@__crt_stdio_output@@V?$positional_parameter_base@_WV?$stream_output_adapter@_W@__crt_stdio_output@@@2@@__crt_stdio_output@@AAE_NXZ 10059e60 f i libucrtd:output.obj
 0001:00058f50       ?type_case_Z@?$output_processor@_WV?$stream_output_adapter@_W@__crt_stdio_output@@V?$standard_base@_WV?$stream_output_adapter@_W@__crt_stdio_output@@@2@@__crt_stdio_output@@AAE_NXZ 10059f50 f i libucrtd:output.obj
 0001:00059040       ?type_case_Z@?$output_processor@_WV?$string_output_adapter@_W@__crt_stdio_output@@V?$format_validation_base@_WV?$string_output_adapter@_W@__crt_stdio_output@@@2@@__crt_stdio_output@@AAE_NXZ 1005a040 f i libucrtd:output.obj
 0001:00059130       ?type_case_Z@?$output_processor@_WV?$string_output_adapter@_W@__crt_stdio_output@@V?$positional_parameter_base@_WV?$string_output_adapter@_W@__crt_stdio_output@@@2@@__crt_stdio_output@@AAE_NXZ 1005a130 f i libucrtd:output.obj
 0001:00059220       ?type_case_Z@?$output_processor@_WV?$string_output_adapter@_W@__crt_stdio_output@@V?$standard_base@_WV?$string_output_adapter@_W@__crt_stdio_output@@@2@@__crt_stdio_output@@AAE_NXZ 1005a220 f i libucrtd:output.obj
 0001:00059310       ?type_case_a@?$output_processor@DV?$stream_output_adapter@D@__crt_stdio_output@@V?$format_validation_base@DV?$stream_output_adapter@D@__crt_stdio_output@@@2@@__crt_stdio_output@@AAE_NXZ 1005a310 f i libucrtd:output.obj
 0001:00059570       ?type_case_a@?$output_processor@DV?$stream_output_adapter@D@__crt_stdio_output@@V?$positional_parameter_base@DV?$stream_output_adapter@D@__crt_stdio_output@@@2@@__crt_stdio_output@@AAE_NXZ 1005a570 f i libucrtd:output.obj
 0001:000597d0       ?type_case_a@?$output_processor@DV?$stream_output_adapter@D@__crt_stdio_output@@V?$standard_base@DV?$stream_output_adapter@D@__crt_stdio_output@@@2@@__crt_stdio_output@@AAE_NXZ 1005a7d0 f i libucrtd:output.obj
 0001:00059a30       ?type_case_a@?$output_processor@DV?$string_output_adapter@D@__crt_stdio_output@@V?$format_validation_base@DV?$string_output_adapter@D@__crt_stdio_output@@@2@@__crt_stdio_output@@AAE_NXZ 1005aa30 f i libucrtd:output.obj
 0001:00059c90       ?type_case_a@?$output_processor@DV?$string_output_adapter@D@__crt_stdio_output@@V?$positional_parameter_base@DV?$string_output_adapter@D@__crt_stdio_output@@@2@@__crt_stdio_output@@AAE_NXZ 1005ac90 f i libucrtd:output.obj
 0001:00059ef0       ?type_case_a@?$output_processor@DV?$string_output_adapter@D@__crt_stdio_output@@V?$standard_base@DV?$string_output_adapter@D@__crt_stdio_output@@@2@@__crt_stdio_output@@AAE_NXZ 1005aef0 f i libucrtd:output.obj
 0001:0005a150       ?type_case_a@?$output_processor@_WV?$stream_output_adapter@_W@__crt_stdio_output@@V?$format_validation_base@_WV?$stream_output_adapter@_W@__crt_stdio_output@@@2@@__crt_stdio_output@@AAE_NXZ 1005b150 f i libucrtd:output.obj
 0001:0005a3b0       ?type_case_a@?$output_processor@_WV?$stream_output_adapter@_W@__crt_stdio_output@@V?$positional_parameter_base@_WV?$stream_output_adapter@_W@__crt_stdio_output@@@2@@__crt_stdio_output@@AAE_NXZ 1005b3b0 f i libucrtd:output.obj
 0001:0005a610       ?type_case_a@?$output_processor@_WV?$stream_output_adapter@_W@__crt_stdio_output@@V?$standard_base@_WV?$stream_output_adapter@_W@__crt_stdio_output@@@2@@__crt_stdio_output@@AAE_NXZ 1005b610 f i libucrtd:output.obj
 0001:0005a870       ?type_case_a@?$output_processor@_WV?$string_output_adapter@_W@__crt_stdio_output@@V?$format_validation_base@_WV?$string_output_adapter@_W@__crt_stdio_output@@@2@@__crt_stdio_output@@AAE_NXZ 1005b870 f i libucrtd:output.obj
 0001:0005aad0       ?type_case_a@?$output_processor@_WV?$string_output_adapter@_W@__crt_stdio_output@@V?$positional_parameter_base@_WV?$string_output_adapter@_W@__crt_stdio_output@@@2@@__crt_stdio_output@@AAE_NXZ 1005bad0 f i libucrtd:output.obj
 0001:0005ad30       ?type_case_a@?$output_processor@_WV?$string_output_adapter@_W@__crt_stdio_output@@V?$standard_base@_WV?$string_output_adapter@_W@__crt_stdio_output@@@2@@__crt_stdio_output@@AAE_NXZ 1005bd30 f i libucrtd:output.obj
 0001:0005af90       ?type_case_c@?$output_processor@DV?$stream_output_adapter@D@__crt_stdio_output@@V?$format_validation_base@DV?$stream_output_adapter@D@__crt_stdio_output@@@2@@__crt_stdio_output@@AAE_NXZ 1005bf90 f i libucrtd:output.obj
 0001:0005afb0       ?type_case_c@?$output_processor@DV?$stream_output_adapter@D@__crt_stdio_output@@V?$positional_parameter_base@DV?$stream_output_adapter@D@__crt_stdio_output@@@2@@__crt_stdio_output@@AAE_NXZ 1005bfb0 f i libucrtd:output.obj
 0001:0005afd0       ?type_case_c@?$output_processor@DV?$stream_output_adapter@D@__crt_stdio_output@@V?$standard_base@DV?$stream_output_adapter@D@__crt_stdio_output@@@2@@__crt_stdio_output@@AAE_NXZ 1005bfd0 f i libucrtd:output.obj
 0001:0005aff0       ?type_case_c@?$output_processor@DV?$string_output_adapter@D@__crt_stdio_output@@V?$format_validation_base@DV?$string_output_adapter@D@__crt_stdio_output@@@2@@__crt_stdio_output@@AAE_NXZ 1005bff0 f i libucrtd:output.obj
 0001:0005b010       ?type_case_c@?$output_processor@DV?$string_output_adapter@D@__crt_stdio_output@@V?$positional_parameter_base@DV?$string_output_adapter@D@__crt_stdio_output@@@2@@__crt_stdio_output@@AAE_NXZ 1005c010 f i libucrtd:output.obj
 0001:0005b030       ?type_case_c@?$output_processor@DV?$string_output_adapter@D@__crt_stdio_output@@V?$standard_base@DV?$string_output_adapter@D@__crt_stdio_output@@@2@@__crt_stdio_output@@AAE_NXZ 1005c030 f i libucrtd:output.obj
 0001:0005b050       ?type_case_c@?$output_processor@_WV?$stream_output_adapter@_W@__crt_stdio_output@@V?$format_validation_base@_WV?$stream_output_adapter@_W@__crt_stdio_output@@@2@@__crt_stdio_output@@AAE_NXZ 1005c050 f i libucrtd:output.obj
 0001:0005b070       ?type_case_c@?$output_processor@_WV?$stream_output_adapter@_W@__crt_stdio_output@@V?$positional_parameter_base@_WV?$stream_output_adapter@_W@__crt_stdio_output@@@2@@__crt_stdio_output@@AAE_NXZ 1005c070 f i libucrtd:output.obj
 0001:0005b090       ?type_case_c@?$output_processor@_WV?$stream_output_adapter@_W@__crt_stdio_output@@V?$standard_base@_WV?$stream_output_adapter@_W@__crt_stdio_output@@@2@@__crt_stdio_output@@AAE_NXZ 1005c090 f i libucrtd:output.obj
 0001:0005b0b0       ?type_case_c@?$output_processor@_WV?$string_output_adapter@_W@__crt_stdio_output@@V?$format_validation_base@_WV?$string_output_adapter@_W@__crt_stdio_output@@@2@@__crt_stdio_output@@AAE_NXZ 1005c0b0 f i libucrtd:output.obj
 0001:0005b0d0       ?type_case_c@?$output_processor@_WV?$string_output_adapter@_W@__crt_stdio_output@@V?$positional_parameter_base@_WV?$string_output_adapter@_W@__crt_stdio_output@@@2@@__crt_stdio_output@@AAE_NXZ 1005c0d0 f i libucrtd:output.obj
 0001:0005b0f0       ?type_case_c@?$output_processor@_WV?$string_output_adapter@_W@__crt_stdio_output@@V?$standard_base@_WV?$string_output_adapter@_W@__crt_stdio_output@@@2@@__crt_stdio_output@@AAE_NXZ 1005c0f0 f i libucrtd:output.obj
 0001:0005b110       ?type_case_c_tchar@?$output_processor@DV?$stream_output_adapter@D@__crt_stdio_output@@V?$format_validation_base@DV?$stream_output_adapter@D@__crt_stdio_output@@@2@@__crt_stdio_output@@AAE_ND@Z 1005c110 f i libucrtd:output.obj
 0001:0005b220       ?type_case_c_tchar@?$output_processor@DV?$stream_output_adapter@D@__crt_stdio_output@@V?$positional_parameter_base@DV?$stream_output_adapter@D@__crt_stdio_output@@@2@@__crt_stdio_output@@AAE_ND@Z 1005c220 f i libucrtd:output.obj
 0001:0005b330       ?type_case_c_tchar@?$output_processor@DV?$stream_output_adapter@D@__crt_stdio_output@@V?$standard_base@DV?$stream_output_adapter@D@__crt_stdio_output@@@2@@__crt_stdio_output@@AAE_ND@Z 1005c330 f i libucrtd:output.obj
 0001:0005b440       ?type_case_c_tchar@?$output_processor@DV?$string_output_adapter@D@__crt_stdio_output@@V?$format_validation_base@DV?$string_output_adapter@D@__crt_stdio_output@@@2@@__crt_stdio_output@@AAE_ND@Z 1005c440 f i libucrtd:output.obj
 0001:0005b550       ?type_case_c_tchar@?$output_processor@DV?$string_output_adapter@D@__crt_stdio_output@@V?$positional_parameter_base@DV?$string_output_adapter@D@__crt_stdio_output@@@2@@__crt_stdio_output@@AAE_ND@Z 1005c550 f i libucrtd:output.obj
 0001:0005b660       ?type_case_c_tchar@?$output_processor@DV?$string_output_adapter@D@__crt_stdio_output@@V?$standard_base@DV?$string_output_adapter@D@__crt_stdio_output@@@2@@__crt_stdio_output@@AAE_ND@Z 1005c660 f i libucrtd:output.obj
 0001:0005b770       ?type_case_c_tchar@?$output_processor@_WV?$stream_output_adapter@_W@__crt_stdio_output@@V?$format_validation_base@_WV?$stream_output_adapter@_W@__crt_stdio_output@@@2@@__crt_stdio_output@@AAE_N_W@Z 1005c770 f i libucrtd:output.obj
 0001:0005b870       ?type_case_c_tchar@?$output_processor@_WV?$stream_output_adapter@_W@__crt_stdio_output@@V?$positional_parameter_base@_WV?$stream_output_adapter@_W@__crt_stdio_output@@@2@@__crt_stdio_output@@AAE_N_W@Z 1005c870 f i libucrtd:output.obj
 0001:0005b970       ?type_case_c_tchar@?$output_processor@_WV?$stream_output_adapter@_W@__crt_stdio_output@@V?$standard_base@_WV?$stream_output_adapter@_W@__crt_stdio_output@@@2@@__crt_stdio_output@@AAE_N_W@Z 1005c970 f i libucrtd:output.obj
 0001:0005ba70       ?type_case_c_tchar@?$output_processor@_WV?$string_output_adapter@_W@__crt_stdio_output@@V?$format_validation_base@_WV?$string_output_adapter@_W@__crt_stdio_output@@@2@@__crt_stdio_output@@AAE_N_W@Z 1005ca70 f i libucrtd:output.obj
 0001:0005bb70       ?type_case_c_tchar@?$output_processor@_WV?$string_output_adapter@_W@__crt_stdio_output@@V?$positional_parameter_base@_WV?$string_output_adapter@_W@__crt_stdio_output@@@2@@__crt_stdio_output@@AAE_N_W@Z 1005cb70 f i libucrtd:output.obj
 0001:0005bc70       ?type_case_c_tchar@?$output_processor@_WV?$string_output_adapter@_W@__crt_stdio_output@@V?$standard_base@_WV?$string_output_adapter@_W@__crt_stdio_output@@@2@@__crt_stdio_output@@AAE_N_W@Z 1005cc70 f i libucrtd:output.obj
 0001:0005bd70       ?type_case_d@?$output_processor@DV?$stream_output_adapter@D@__crt_stdio_output@@V?$format_validation_base@DV?$stream_output_adapter@D@__crt_stdio_output@@@2@@__crt_stdio_output@@AAE_NXZ 1005cd70 f i libucrtd:output.obj
 0001:0005bda0       ?type_case_d@?$output_processor@DV?$stream_output_adapter@D@__crt_stdio_output@@V?$positional_parameter_base@DV?$stream_output_adapter@D@__crt_stdio_output@@@2@@__crt_stdio_output@@AAE_NXZ 1005cda0 f i libucrtd:output.obj
 0001:0005bdd0       ?type_case_d@?$output_processor@DV?$stream_output_adapter@D@__crt_stdio_output@@V?$standard_base@DV?$stream_output_adapter@D@__crt_stdio_output@@@2@@__crt_stdio_output@@AAE_NXZ 1005cdd0 f i libucrtd:output.obj
 0001:0005be00       ?type_case_d@?$output_processor@DV?$string_output_adapter@D@__crt_stdio_output@@V?$format_validation_base@DV?$string_output_adapter@D@__crt_stdio_output@@@2@@__crt_stdio_output@@AAE_NXZ 1005ce00 f i libucrtd:output.obj
 0001:0005be30       ?type_case_d@?$output_processor@DV?$string_output_adapter@D@__crt_stdio_output@@V?$positional_parameter_base@DV?$string_output_adapter@D@__crt_stdio_output@@@2@@__crt_stdio_output@@AAE_NXZ 1005ce30 f i libucrtd:output.obj
 0001:0005be60       ?type_case_d@?$output_processor@DV?$string_output_adapter@D@__crt_stdio_output@@V?$standard_base@DV?$string_output_adapter@D@__crt_stdio_output@@@2@@__crt_stdio_output@@AAE_NXZ 1005ce60 f i libucrtd:output.obj
 0001:0005be90       ?type_case_d@?$output_processor@_WV?$stream_output_adapter@_W@__crt_stdio_output@@V?$format_validation_base@_WV?$stream_output_adapter@_W@__crt_stdio_output@@@2@@__crt_stdio_output@@AAE_NXZ 1005ce90 f i libucrtd:output.obj
 0001:0005bec0       ?type_case_d@?$output_processor@_WV?$stream_output_adapter@_W@__crt_stdio_output@@V?$positional_parameter_base@_WV?$stream_output_adapter@_W@__crt_stdio_output@@@2@@__crt_stdio_output@@AAE_NXZ 1005cec0 f i libucrtd:output.obj
 0001:0005bef0       ?type_case_d@?$output_processor@_WV?$stream_output_adapter@_W@__crt_stdio_output@@V?$standard_base@_WV?$stream_output_adapter@_W@__crt_stdio_output@@@2@@__crt_stdio_output@@AAE_NXZ 1005cef0 f i libucrtd:output.obj
 0001:0005bf20       ?type_case_d@?$output_processor@_WV?$string_output_adapter@_W@__crt_stdio_output@@V?$format_validation_base@_WV?$string_output_adapter@_W@__crt_stdio_output@@@2@@__crt_stdio_output@@AAE_NXZ 1005cf20 f i libucrtd:output.obj
 0001:0005bf50       ?type_case_d@?$output_processor@_WV?$string_output_adapter@_W@__crt_stdio_output@@V?$positional_parameter_base@_WV?$string_output_adapter@_W@__crt_stdio_output@@@2@@__crt_stdio_output@@AAE_NXZ 1005cf50 f i libucrtd:output.obj
 0001:0005bf80       ?type_case_d@?$output_processor@_WV?$string_output_adapter@_W@__crt_stdio_output@@V?$standard_base@_WV?$string_output_adapter@_W@__crt_stdio_output@@@2@@__crt_stdio_output@@AAE_NXZ 1005cf80 f i libucrtd:output.obj
 0001:0005bfb0       ?type_case_integer@?$output_processor@DV?$stream_output_adapter@D@__crt_stdio_output@@V?$format_validation_base@DV?$stream_output_adapter@D@__crt_stdio_output@@@2@@__crt_stdio_output@@AAE_NI_N@Z 1005cfb0 f i libucrtd:output.obj
 0001:0005c2f0       ?type_case_integer@?$output_processor@DV?$stream_output_adapter@D@__crt_stdio_output@@V?$positional_parameter_base@DV?$stream_output_adapter@D@__crt_stdio_output@@@2@@__crt_stdio_output@@AAE_NI_N@Z 1005d2f0 f i libucrtd:output.obj
 0001:0005c630       ?type_case_integer@?$output_processor@DV?$stream_output_adapter@D@__crt_stdio_output@@V?$standard_base@DV?$stream_output_adapter@D@__crt_stdio_output@@@2@@__crt_stdio_output@@AAE_NI_N@Z 1005d630 f i libucrtd:output.obj
 0001:0005c970       ?type_case_integer@?$output_processor@DV?$string_output_adapter@D@__crt_stdio_output@@V?$format_validation_base@DV?$string_output_adapter@D@__crt_stdio_output@@@2@@__crt_stdio_output@@AAE_NI_N@Z 1005d970 f i libucrtd:output.obj
 0001:0005ccb0       ?type_case_integer@?$output_processor@DV?$string_output_adapter@D@__crt_stdio_output@@V?$positional_parameter_base@DV?$string_output_adapter@D@__crt_stdio_output@@@2@@__crt_stdio_output@@AAE_NI_N@Z 1005dcb0 f i libucrtd:output.obj
 0001:0005cff0       ?type_case_integer@?$output_processor@DV?$string_output_adapter@D@__crt_stdio_output@@V?$standard_base@DV?$string_output_adapter@D@__crt_stdio_output@@@2@@__crt_stdio_output@@AAE_NI_N@Z 1005dff0 f i libucrtd:output.obj
 0001:0005d330       ?type_case_integer@?$output_processor@_WV?$stream_output_adapter@_W@__crt_stdio_output@@V?$format_validation_base@_WV?$stream_output_adapter@_W@__crt_stdio_output@@@2@@__crt_stdio_output@@AAE_NI_N@Z 1005e330 f i libucrtd:output.obj
 0001:0005d670       ?type_case_integer@?$output_processor@_WV?$stream_output_adapter@_W@__crt_stdio_output@@V?$positional_parameter_base@_WV?$stream_output_adapter@_W@__crt_stdio_output@@@2@@__crt_stdio_output@@AAE_NI_N@Z 1005e670 f i libucrtd:output.obj
 0001:0005d9b0       ?type_case_integer@?$output_processor@_WV?$stream_output_adapter@_W@__crt_stdio_output@@V?$standard_base@_WV?$stream_output_adapter@_W@__crt_stdio_output@@@2@@__crt_stdio_output@@AAE_NI_N@Z 1005e9b0 f i libucrtd:output.obj
 0001:0005dcf0       ?type_case_integer@?$output_processor@_WV?$string_output_adapter@_W@__crt_stdio_output@@V?$format_validation_base@_WV?$string_output_adapter@_W@__crt_stdio_output@@@2@@__crt_stdio_output@@AAE_NI_N@Z 1005ecf0 f i libucrtd:output.obj
 0001:0005e030       ?type_case_integer@?$output_processor@_WV?$string_output_adapter@_W@__crt_stdio_output@@V?$positional_parameter_base@_WV?$string_output_adapter@_W@__crt_stdio_output@@@2@@__crt_stdio_output@@AAE_NI_N@Z 1005f030 f i libucrtd:output.obj
 0001:0005e370       ?type_case_integer@?$output_processor@_WV?$string_output_adapter@_W@__crt_stdio_output@@V?$standard_base@_WV?$string_output_adapter@_W@__crt_stdio_output@@@2@@__crt_stdio_output@@AAE_NI_N@Z 1005f370 f i libucrtd:output.obj
 0001:0005e6b0       ?type_case_n@?$output_processor@DV?$stream_output_adapter@D@__crt_stdio_output@@V?$format_validation_base@DV?$stream_output_adapter@D@__crt_stdio_output@@@2@@__crt_stdio_output@@AAE_NXZ 1005f6b0 f i libucrtd:output.obj
 0001:0005e8a0       ?type_case_n@?$output_processor@DV?$stream_output_adapter@D@__crt_stdio_output@@V?$positional_parameter_base@DV?$stream_output_adapter@D@__crt_stdio_output@@@2@@__crt_stdio_output@@AAE_NXZ 1005f8a0 f i libucrtd:output.obj
 0001:0005ea90       ?type_case_n@?$output_processor@DV?$stream_output_adapter@D@__crt_stdio_output@@V?$standard_base@DV?$stream_output_adapter@D@__crt_stdio_output@@@2@@__crt_stdio_output@@AAE_NXZ 1005fa90 f i libucrtd:output.obj
 0001:0005ec80       ?type_case_n@?$output_processor@DV?$string_output_adapter@D@__crt_stdio_output@@V?$format_validation_base@DV?$string_output_adapter@D@__crt_stdio_output@@@2@@__crt_stdio_output@@AAE_NXZ 1005fc80 f i libucrtd:output.obj
 0001:0005ee70       ?type_case_n@?$output_processor@DV?$string_output_adapter@D@__crt_stdio_output@@V?$positional_parameter_base@DV?$string_output_adapter@D@__crt_stdio_output@@@2@@__crt_stdio_output@@AAE_NXZ 1005fe70 f i libucrtd:output.obj
 0001:0005f060       ?type_case_n@?$output_processor@DV?$string_output_adapter@D@__crt_stdio_output@@V?$standard_base@DV?$string_output_adapter@D@__crt_stdio_output@@@2@@__crt_stdio_output@@AAE_NXZ 10060060 f i libucrtd:output.obj
 0001:0005f250       ?type_case_n@?$output_processor@_WV?$stream_output_adapter@_W@__crt_stdio_output@@V?$format_validation_base@_WV?$stream_output_adapter@_W@__crt_stdio_output@@@2@@__crt_stdio_output@@AAE_NXZ 10060250 f i libucrtd:output.obj
 0001:0005f440       ?type_case_n@?$output_processor@_WV?$stream_output_adapter@_W@__crt_stdio_output@@V?$positional_parameter_base@_WV?$stream_output_adapter@_W@__crt_stdio_output@@@2@@__crt_stdio_output@@AAE_NXZ 10060440 f i libucrtd:output.obj
 0001:0005f630       ?type_case_n@?$output_processor@_WV?$stream_output_adapter@_W@__crt_stdio_output@@V?$standard_base@_WV?$stream_output_adapter@_W@__crt_stdio_output@@@2@@__crt_stdio_output@@AAE_NXZ 10060630 f i libucrtd:output.obj
 0001:0005f820       ?type_case_n@?$output_processor@_WV?$string_output_adapter@_W@__crt_stdio_output@@V?$format_validation_base@_WV?$string_output_adapter@_W@__crt_stdio_output@@@2@@__crt_stdio_output@@AAE_NXZ 10060820 f i libucrtd:output.obj
 0001:0005fa10       ?type_case_n@?$output_processor@_WV?$string_output_adapter@_W@__crt_stdio_output@@V?$positional_parameter_base@_WV?$string_output_adapter@_W@__crt_stdio_output@@@2@@__crt_stdio_output@@AAE_NXZ 10060a10 f i libucrtd:output.obj
 0001:0005fc00       ?type_case_n@?$output_processor@_WV?$string_output_adapter@_W@__crt_stdio_output@@V?$standard_base@_WV?$string_output_adapter@_W@__crt_stdio_output@@@2@@__crt_stdio_output@@AAE_NXZ 10060c00 f i libucrtd:output.obj
 0001:0005fdf0       ?type_case_o@?$output_processor@DV?$stream_output_adapter@D@__crt_stdio_output@@V?$format_validation_base@DV?$stream_output_adapter@D@__crt_stdio_output@@@2@@__crt_stdio_output@@AAE_NXZ 10060df0 f i libucrtd:output.obj
 0001:0005fe30       ?type_case_o@?$output_processor@DV?$stream_output_adapter@D@__crt_stdio_output@@V?$positional_parameter_base@DV?$stream_output_adapter@D@__crt_stdio_output@@@2@@__crt_stdio_output@@AAE_NXZ 10060e30 f i libucrtd:output.obj
 0001:0005fe70       ?type_case_o@?$output_processor@DV?$stream_output_adapter@D@__crt_stdio_output@@V?$standard_base@DV?$stream_output_adapter@D@__crt_stdio_output@@@2@@__crt_stdio_output@@AAE_NXZ 10060e70 f i libucrtd:output.obj
 0001:0005feb0       ?type_case_o@?$output_processor@DV?$string_output_adapter@D@__crt_stdio_output@@V?$format_validation_base@DV?$string_output_adapter@D@__crt_stdio_output@@@2@@__crt_stdio_output@@AAE_NXZ 10060eb0 f i libucrtd:output.obj
 0001:0005fef0       ?type_case_o@?$output_processor@DV?$string_output_adapter@D@__crt_stdio_output@@V?$positional_parameter_base@DV?$string_output_adapter@D@__crt_stdio_output@@@2@@__crt_stdio_output@@AAE_NXZ 10060ef0 f i libucrtd:output.obj
 0001:0005ff30       ?type_case_o@?$output_processor@DV?$string_output_adapter@D@__crt_stdio_output@@V?$standard_base@DV?$string_output_adapter@D@__crt_stdio_output@@@2@@__crt_stdio_output@@AAE_NXZ 10060f30 f i libucrtd:output.obj
 0001:0005ff70       ?type_case_o@?$output_processor@_WV?$stream_output_adapter@_W@__crt_stdio_output@@V?$format_validation_base@_WV?$stream_output_adapter@_W@__crt_stdio_output@@@2@@__crt_stdio_output@@AAE_NXZ 10060f70 f i libucrtd:output.obj
 0001:0005ffb0       ?type_case_o@?$output_processor@_WV?$stream_output_adapter@_W@__crt_stdio_output@@V?$positional_parameter_base@_WV?$stream_output_adapter@_W@__crt_stdio_output@@@2@@__crt_stdio_output@@AAE_NXZ 10060fb0 f i libucrtd:output.obj
 0001:0005fff0       ?type_case_o@?$output_processor@_WV?$stream_output_adapter@_W@__crt_stdio_output@@V?$standard_base@_WV?$stream_output_adapter@_W@__crt_stdio_output@@@2@@__crt_stdio_output@@AAE_NXZ 10060ff0 f i libucrtd:output.obj
 0001:00060030       ?type_case_o@?$output_processor@_WV?$string_output_adapter@_W@__crt_stdio_output@@V?$format_validation_base@_WV?$string_output_adapter@_W@__crt_stdio_output@@@2@@__crt_stdio_output@@AAE_NXZ 10061030 f i libucrtd:output.obj
 0001:00060070       ?type_case_o@?$output_processor@_WV?$string_output_adapter@_W@__crt_stdio_output@@V?$positional_parameter_base@_WV?$string_output_adapter@_W@__crt_stdio_output@@@2@@__crt_stdio_output@@AAE_NXZ 10061070 f i libucrtd:output.obj
 0001:000600b0       ?type_case_o@?$output_processor@_WV?$string_output_adapter@_W@__crt_stdio_output@@V?$standard_base@_WV?$string_output_adapter@_W@__crt_stdio_output@@@2@@__crt_stdio_output@@AAE_NXZ 100610b0 f i libucrtd:output.obj
 0001:000600f0       ?type_case_p@?$output_processor@DV?$stream_output_adapter@D@__crt_stdio_output@@V?$format_validation_base@DV?$stream_output_adapter@D@__crt_stdio_output@@@2@@__crt_stdio_output@@AAE_NXZ 100610f0 f i libucrtd:output.obj
 0001:00060120       ?type_case_p@?$output_processor@DV?$stream_output_adapter@D@__crt_stdio_output@@V?$positional_parameter_base@DV?$stream_output_adapter@D@__crt_stdio_output@@@2@@__crt_stdio_output@@AAE_NXZ 10061120 f i libucrtd:output.obj
 0001:00060150       ?type_case_p@?$output_processor@DV?$stream_output_adapter@D@__crt_stdio_output@@V?$standard_base@DV?$stream_output_adapter@D@__crt_stdio_output@@@2@@__crt_stdio_output@@AAE_NXZ 10061150 f i libucrtd:output.obj
 0001:00060180       ?type_case_p@?$output_processor@DV?$string_output_adapter@D@__crt_stdio_output@@V?$format_validation_base@DV?$string_output_adapter@D@__crt_stdio_output@@@2@@__crt_stdio_output@@AAE_NXZ 10061180 f i libucrtd:output.obj
 0001:000601b0       ?type_case_p@?$output_processor@DV?$string_output_adapter@D@__crt_stdio_output@@V?$positional_parameter_base@DV?$string_output_adapter@D@__crt_stdio_output@@@2@@__crt_stdio_output@@AAE_NXZ 100611b0 f i libucrtd:output.obj
 0001:000601e0       ?type_case_p@?$output_processor@DV?$string_output_adapter@D@__crt_stdio_output@@V?$standard_base@DV?$string_output_adapter@D@__crt_stdio_output@@@2@@__crt_stdio_output@@AAE_NXZ 100611e0 f i libucrtd:output.obj
 0001:00060210       ?type_case_p@?$output_processor@_WV?$stream_output_adapter@_W@__crt_stdio_output@@V?$format_validation_base@_WV?$stream_output_adapter@_W@__crt_stdio_output@@@2@@__crt_stdio_output@@AAE_NXZ 10061210 f i libucrtd:output.obj
 0001:00060240       ?type_case_p@?$output_processor@_WV?$stream_output_adapter@_W@__crt_stdio_output@@V?$positional_parameter_base@_WV?$stream_output_adapter@_W@__crt_stdio_output@@@2@@__crt_stdio_output@@AAE_NXZ 10061240 f i libucrtd:output.obj
 0001:00060270       ?type_case_p@?$output_processor@_WV?$stream_output_adapter@_W@__crt_stdio_output@@V?$standard_base@_WV?$stream_output_adapter@_W@__crt_stdio_output@@@2@@__crt_stdio_output@@AAE_NXZ 10061270 f i libucrtd:output.obj
 0001:000602a0       ?type_case_p@?$output_processor@_WV?$string_output_adapter@_W@__crt_stdio_output@@V?$format_validation_base@_WV?$string_output_adapter@_W@__crt_stdio_output@@@2@@__crt_stdio_output@@AAE_NXZ 100612a0 f i libucrtd:output.obj
 0001:000602d0       ?type_case_p@?$output_processor@_WV?$string_output_adapter@_W@__crt_stdio_output@@V?$positional_parameter_base@_WV?$string_output_adapter@_W@__crt_stdio_output@@@2@@__crt_stdio_output@@AAE_NXZ 100612d0 f i libucrtd:output.obj
 0001:00060300       ?type_case_p@?$output_processor@_WV?$string_output_adapter@_W@__crt_stdio_output@@V?$standard_base@_WV?$string_output_adapter@_W@__crt_stdio_output@@@2@@__crt_stdio_output@@AAE_NXZ 10061300 f i libucrtd:output.obj
 0001:00060330       ?type_case_s@?$output_processor@DV?$stream_output_adapter@D@__crt_stdio_output@@V?$format_validation_base@DV?$stream_output_adapter@D@__crt_stdio_output@@@2@@__crt_stdio_output@@AAE_NXZ 10061330 f i libucrtd:output.obj
 0001:00060420       ?type_case_s@?$output_processor@DV?$stream_output_adapter@D@__crt_stdio_output@@V?$positional_parameter_base@DV?$stream_output_adapter@D@__crt_stdio_output@@@2@@__crt_stdio_output@@AAE_NXZ 10061420 f i libucrtd:output.obj
 0001:00060510       ?type_case_s@?$output_processor@DV?$stream_output_adapter@D@__crt_stdio_output@@V?$standard_base@DV?$stream_output_adapter@D@__crt_stdio_output@@@2@@__crt_stdio_output@@AAE_NXZ 10061510 f i libucrtd:output.obj
 0001:00060600       ?type_case_s@?$output_processor@DV?$string_output_adapter@D@__crt_stdio_output@@V?$format_validation_base@DV?$string_output_adapter@D@__crt_stdio_output@@@2@@__crt_stdio_output@@AAE_NXZ 10061600 f i libucrtd:output.obj
 0001:000606f0       ?type_case_s@?$output_processor@DV?$string_output_adapter@D@__crt_stdio_output@@V?$positional_parameter_base@DV?$string_output_adapter@D@__crt_stdio_output@@@2@@__crt_stdio_output@@AAE_NXZ 100616f0 f i libucrtd:output.obj
 0001:000607e0       ?type_case_s@?$output_processor@DV?$string_output_adapter@D@__crt_stdio_output@@V?$standard_base@DV?$string_output_adapter@D@__crt_stdio_output@@@2@@__crt_stdio_output@@AAE_NXZ 100617e0 f i libucrtd:output.obj
 0001:000608d0       ?type_case_s@?$output_processor@_WV?$stream_output_adapter@_W@__crt_stdio_output@@V?$format_validation_base@_WV?$stream_output_adapter@_W@__crt_stdio_output@@@2@@__crt_stdio_output@@AAE_NXZ 100618d0 f i libucrtd:output.obj
 0001:000609c0       ?type_case_s@?$output_processor@_WV?$stream_output_adapter@_W@__crt_stdio_output@@V?$positional_parameter_base@_WV?$stream_output_adapter@_W@__crt_stdio_output@@@2@@__crt_stdio_output@@AAE_NXZ 100619c0 f i libucrtd:output.obj
 0001:00060ab0       ?type_case_s@?$output_processor@_WV?$stream_output_adapter@_W@__crt_stdio_output@@V?$standard_base@_WV?$stream_output_adapter@_W@__crt_stdio_output@@@2@@__crt_stdio_output@@AAE_NXZ 10061ab0 f i libucrtd:output.obj
 0001:00060ba0       ?type_case_s@?$output_processor@_WV?$string_output_adapter@_W@__crt_stdio_output@@V?$format_validation_base@_WV?$string_output_adapter@_W@__crt_stdio_output@@@2@@__crt_stdio_output@@AAE_NXZ 10061ba0 f i libucrtd:output.obj
 0001:00060c90       ?type_case_s@?$output_processor@_WV?$string_output_adapter@_W@__crt_stdio_output@@V?$positional_parameter_base@_WV?$string_output_adapter@_W@__crt_stdio_output@@@2@@__crt_stdio_output@@AAE_NXZ 10061c90 f i libucrtd:output.obj
 0001:00060d80       ?type_case_s@?$output_processor@_WV?$string_output_adapter@_W@__crt_stdio_output@@V?$standard_base@_WV?$string_output_adapter@_W@__crt_stdio_output@@@2@@__crt_stdio_output@@AAE_NXZ 10061d80 f i libucrtd:output.obj
 0001:00060e70       ?type_case_s_compute_narrow_string_length@?$output_processor@DV?$stream_output_adapter@D@__crt_stdio_output@@V?$format_validation_base@DV?$stream_output_adapter@D@__crt_stdio_output@@@2@@__crt_stdio_output@@ABEHHD@Z 10061e70 f i libucrtd:output.obj
 0001:00060ea0       ?type_case_s_compute_narrow_string_length@?$output_processor@DV?$stream_output_adapter@D@__crt_stdio_output@@V?$positional_parameter_base@DV?$stream_output_adapter@D@__crt_stdio_output@@@2@@__crt_stdio_output@@ABEHHD@Z 10061ea0 f i libucrtd:output.obj
 0001:00060ed0       ?type_case_s_compute_narrow_string_length@?$output_processor@DV?$stream_output_adapter@D@__crt_stdio_output@@V?$standard_base@DV?$stream_output_adapter@D@__crt_stdio_output@@@2@@__crt_stdio_output@@ABEHHD@Z 10061ed0 f i libucrtd:output.obj
 0001:00060f00       ?type_case_s_compute_narrow_string_length@?$output_processor@DV?$string_output_adapter@D@__crt_stdio_output@@V?$format_validation_base@DV?$string_output_adapter@D@__crt_stdio_output@@@2@@__crt_stdio_output@@ABEHHD@Z 10061f00 f i libucrtd:output.obj
 0001:00060f30       ?type_case_s_compute_narrow_string_length@?$output_processor@DV?$string_output_adapter@D@__crt_stdio_output@@V?$positional_parameter_base@DV?$string_output_adapter@D@__crt_stdio_output@@@2@@__crt_stdio_output@@ABEHHD@Z 10061f30 f i libucrtd:output.obj
 0001:00060f60       ?type_case_s_compute_narrow_string_length@?$output_processor@DV?$string_output_adapter@D@__crt_stdio_output@@V?$standard_base@DV?$string_output_adapter@D@__crt_stdio_output@@@2@@__crt_stdio_output@@ABEHHD@Z 10061f60 f i libucrtd:output.obj
 0001:00060f90       ?type_case_s_compute_narrow_string_length@?$output_processor@_WV?$stream_output_adapter@_W@__crt_stdio_output@@V?$format_validation_base@_WV?$stream_output_adapter@_W@__crt_stdio_output@@@2@@__crt_stdio_output@@ABEHH_W@Z 10061f90 f i libucrtd:output.obj
 0001:00061000       ?type_case_s_compute_narrow_string_length@?$output_processor@_WV?$stream_output_adapter@_W@__crt_stdio_output@@V?$positional_parameter_base@_WV?$stream_output_adapter@_W@__crt_stdio_output@@@2@@__crt_stdio_output@@ABEHH_W@Z 10062000 f i libucrtd:output.obj
 0001:00061070       ?type_case_s_compute_narrow_string_length@?$output_processor@_WV?$stream_output_adapter@_W@__crt_stdio_output@@V?$standard_base@_WV?$stream_output_adapter@_W@__crt_stdio_output@@@2@@__crt_stdio_output@@ABEHH_W@Z 10062070 f i libucrtd:output.obj
 0001:000610e0       ?type_case_s_compute_narrow_string_length@?$output_processor@_WV?$string_output_adapter@_W@__crt_stdio_output@@V?$format_validation_base@_WV?$string_output_adapter@_W@__crt_stdio_output@@@2@@__crt_stdio_output@@ABEHH_W@Z 100620e0 f i libucrtd:output.obj
 0001:00061150       ?type_case_s_compute_narrow_string_length@?$output_processor@_WV?$string_output_adapter@_W@__crt_stdio_output@@V?$positional_parameter_base@_WV?$string_output_adapter@_W@__crt_stdio_output@@@2@@__crt_stdio_output@@ABEHH_W@Z 10062150 f i libucrtd:output.obj
 0001:000611c0       ?type_case_s_compute_narrow_string_length@?$output_processor@_WV?$string_output_adapter@_W@__crt_stdio_output@@V?$standard_base@_WV?$string_output_adapter@_W@__crt_stdio_output@@@2@@__crt_stdio_output@@ABEHH_W@Z 100621c0 f i libucrtd:output.obj
 0001:00061230       ?type_case_u@?$output_processor@DV?$stream_output_adapter@D@__crt_stdio_output@@V?$format_validation_base@DV?$stream_output_adapter@D@__crt_stdio_output@@@2@@__crt_stdio_output@@AAE_NXZ 10062230 f i libucrtd:output.obj
 0001:00061250       ?type_case_u@?$output_processor@DV?$stream_output_adapter@D@__crt_stdio_output@@V?$positional_parameter_base@DV?$stream_output_adapter@D@__crt_stdio_output@@@2@@__crt_stdio_output@@AAE_NXZ 10062250 f i libucrtd:output.obj
 0001:00061270       ?type_case_u@?$output_processor@DV?$stream_output_adapter@D@__crt_stdio_output@@V?$standard_base@DV?$stream_output_adapter@D@__crt_stdio_output@@@2@@__crt_stdio_output@@AAE_NXZ 10062270 f i libucrtd:output.obj
 0001:00061290       ?type_case_u@?$output_processor@DV?$string_output_adapter@D@__crt_stdio_output@@V?$format_validation_base@DV?$string_output_adapter@D@__crt_stdio_output@@@2@@__crt_stdio_output@@AAE_NXZ 10062290 f i libucrtd:output.obj
 0001:000612b0       ?type_case_u@?$output_processor@DV?$string_output_adapter@D@__crt_stdio_output@@V?$positional_parameter_base@DV?$string_output_adapter@D@__crt_stdio_output@@@2@@__crt_stdio_output@@AAE_NXZ 100622b0 f i libucrtd:output.obj
 0001:000612d0       ?type_case_u@?$output_processor@DV?$string_output_adapter@D@__crt_stdio_output@@V?$standard_base@DV?$string_output_adapter@D@__crt_stdio_output@@@2@@__crt_stdio_output@@AAE_NXZ 100622d0 f i libucrtd:output.obj
 0001:000612f0       ?type_case_u@?$output_processor@_WV?$stream_output_adapter@_W@__crt_stdio_output@@V?$format_validation_base@_WV?$stream_output_adapter@_W@__crt_stdio_output@@@2@@__crt_stdio_output@@AAE_NXZ 100622f0 f i libucrtd:output.obj
 0001:00061310       ?type_case_u@?$output_processor@_WV?$stream_output_adapter@_W@__crt_stdio_output@@V?$positional_parameter_base@_WV?$stream_output_adapter@_W@__crt_stdio_output@@@2@@__crt_stdio_output@@AAE_NXZ 10062310 f i libucrtd:output.obj
 0001:00061330       ?type_case_u@?$output_processor@_WV?$stream_output_adapter@_W@__crt_stdio_output@@V?$standard_base@_WV?$stream_output_adapter@_W@__crt_stdio_output@@@2@@__crt_stdio_output@@AAE_NXZ 10062330 f i libucrtd:output.obj
 0001:00061350       ?type_case_u@?$output_processor@_WV?$string_output_adapter@_W@__crt_stdio_output@@V?$format_validation_base@_WV?$string_output_adapter@_W@__crt_stdio_output@@@2@@__crt_stdio_output@@AAE_NXZ 10062350 f i libucrtd:output.obj
 0001:00061370       ?type_case_u@?$output_processor@_WV?$string_output_adapter@_W@__crt_stdio_output@@V?$positional_parameter_base@_WV?$string_output_adapter@_W@__crt_stdio_output@@@2@@__crt_stdio_output@@AAE_NXZ 10062370 f i libucrtd:output.obj
 0001:00061390       ?type_case_u@?$output_processor@_WV?$string_output_adapter@_W@__crt_stdio_output@@V?$standard_base@_WV?$string_output_adapter@_W@__crt_stdio_output@@@2@@__crt_stdio_output@@AAE_NXZ 10062390 f i libucrtd:output.obj
 0001:000613b0       ?type_case_x@?$output_processor@DV?$stream_output_adapter@D@__crt_stdio_output@@V?$format_validation_base@DV?$stream_output_adapter@D@__crt_stdio_output@@@2@@__crt_stdio_output@@AAE_NXZ 100623b0 f i libucrtd:output.obj
 0001:000613d0       ?type_case_x@?$output_processor@DV?$stream_output_adapter@D@__crt_stdio_output@@V?$positional_parameter_base@DV?$stream_output_adapter@D@__crt_stdio_output@@@2@@__crt_stdio_output@@AAE_NXZ 100623d0 f i libucrtd:output.obj
 0001:000613f0       ?type_case_x@?$output_processor@DV?$stream_output_adapter@D@__crt_stdio_output@@V?$standard_base@DV?$stream_output_adapter@D@__crt_stdio_output@@@2@@__crt_stdio_output@@AAE_NXZ 100623f0 f i libucrtd:output.obj
 0001:00061410       ?type_case_x@?$output_processor@DV?$string_output_adapter@D@__crt_stdio_output@@V?$format_validation_base@DV?$string_output_adapter@D@__crt_stdio_output@@@2@@__crt_stdio_output@@AAE_NXZ 10062410 f i libucrtd:output.obj
 0001:00061430       ?type_case_x@?$output_processor@DV?$string_output_adapter@D@__crt_stdio_output@@V?$positional_parameter_base@DV?$string_output_adapter@D@__crt_stdio_output@@@2@@__crt_stdio_output@@AAE_NXZ 10062430 f i libucrtd:output.obj
 0001:00061450       ?type_case_x@?$output_processor@DV?$string_output_adapter@D@__crt_stdio_output@@V?$standard_base@DV?$string_output_adapter@D@__crt_stdio_output@@@2@@__crt_stdio_output@@AAE_NXZ 10062450 f i libucrtd:output.obj
 0001:00061470       ?type_case_x@?$output_processor@_WV?$stream_output_adapter@_W@__crt_stdio_output@@V?$format_validation_base@_WV?$stream_output_adapter@_W@__crt_stdio_output@@@2@@__crt_stdio_output@@AAE_NXZ 10062470 f i libucrtd:output.obj
 0001:00061490       ?type_case_x@?$output_processor@_WV?$stream_output_adapter@_W@__crt_stdio_output@@V?$positional_parameter_base@_WV?$stream_output_adapter@_W@__crt_stdio_output@@@2@@__crt_stdio_output@@AAE_NXZ 10062490 f i libucrtd:output.obj
 0001:000614b0       ?type_case_x@?$output_processor@_WV?$stream_output_adapter@_W@__crt_stdio_output@@V?$standard_base@_WV?$stream_output_adapter@_W@__crt_stdio_output@@@2@@__crt_stdio_output@@AAE_NXZ 100624b0 f i libucrtd:output.obj
 0001:000614d0       ?type_case_x@?$output_processor@_WV?$string_output_adapter@_W@__crt_stdio_output@@V?$format_validation_base@_WV?$string_output_adapter@_W@__crt_stdio_output@@@2@@__crt_stdio_output@@AAE_NXZ 100624d0 f i libucrtd:output.obj
 0001:000614f0       ?type_case_x@?$output_processor@_WV?$string_output_adapter@_W@__crt_stdio_output@@V?$positional_parameter_base@_WV?$string_output_adapter@_W@__crt_stdio_output@@@2@@__crt_stdio_output@@AAE_NXZ 100624f0 f i libucrtd:output.obj
 0001:00061510       ?type_case_x@?$output_processor@_WV?$string_output_adapter@_W@__crt_stdio_output@@V?$standard_base@_WV?$string_output_adapter@_W@__crt_stdio_output@@@2@@__crt_stdio_output@@AAE_NXZ 10062510 f i libucrtd:output.obj
 0001:00061530       ?unset_flag@?$output_processor@DV?$stream_output_adapter@D@__crt_stdio_output@@V?$format_validation_base@DV?$stream_output_adapter@D@__crt_stdio_output@@@2@@__crt_stdio_output@@AAEXI@Z 10062530 f i libucrtd:output.obj
 0001:00061550       ?unset_flag@?$output_processor@DV?$stream_output_adapter@D@__crt_stdio_output@@V?$positional_parameter_base@DV?$stream_output_adapter@D@__crt_stdio_output@@@2@@__crt_stdio_output@@AAEXI@Z 10062550 f i libucrtd:output.obj
 0001:00061570       ?unset_flag@?$output_processor@DV?$stream_output_adapter@D@__crt_stdio_output@@V?$standard_base@DV?$stream_output_adapter@D@__crt_stdio_output@@@2@@__crt_stdio_output@@AAEXI@Z 10062570 f i libucrtd:output.obj
 0001:00061590       ?unset_flag@?$output_processor@DV?$string_output_adapter@D@__crt_stdio_output@@V?$format_validation_base@DV?$string_output_adapter@D@__crt_stdio_output@@@2@@__crt_stdio_output@@AAEXI@Z 10062590 f i libucrtd:output.obj
 0001:000615b0       ?unset_flag@?$output_processor@DV?$string_output_adapter@D@__crt_stdio_output@@V?$positional_parameter_base@DV?$string_output_adapter@D@__crt_stdio_output@@@2@@__crt_stdio_output@@AAEXI@Z 100625b0 f i libucrtd:output.obj
 0001:000615d0       ?unset_flag@?$output_processor@DV?$string_output_adapter@D@__crt_stdio_output@@V?$standard_base@DV?$string_output_adapter@D@__crt_stdio_output@@@2@@__crt_stdio_output@@AAEXI@Z 100625d0 f i libucrtd:output.obj
 0001:000615f0       ?unset_flag@?$output_processor@_WV?$stream_output_adapter@_W@__crt_stdio_output@@V?$format_validation_base@_WV?$stream_output_adapter@_W@__crt_stdio_output@@@2@@__crt_stdio_output@@AAEXI@Z 100625f0 f i libucrtd:output.obj
 0001:00061610       ?unset_flag@?$output_processor@_WV?$stream_output_adapter@_W@__crt_stdio_output@@V?$positional_parameter_base@_WV?$stream_output_adapter@_W@__crt_stdio_output@@@2@@__crt_stdio_output@@AAEXI@Z 10062610 f i libucrtd:output.obj
 0001:00061630       ?unset_flag@?$output_processor@_WV?$stream_output_adapter@_W@__crt_stdio_output@@V?$standard_base@_WV?$stream_output_adapter@_W@__crt_stdio_output@@@2@@__crt_stdio_output@@AAEXI@Z 10062630 f i libucrtd:output.obj
 0001:00061650       ?unset_flag@?$output_processor@_WV?$string_output_adapter@_W@__crt_stdio_output@@V?$format_validation_base@_WV?$string_output_adapter@_W@__crt_stdio_output@@@2@@__crt_stdio_output@@AAEXI@Z 10062650 f i libucrtd:output.obj
 0001:00061670       ?unset_flag@?$output_processor@_WV?$string_output_adapter@_W@__crt_stdio_output@@V?$positional_parameter_base@_WV?$string_output_adapter@_W@__crt_stdio_output@@@2@@__crt_stdio_output@@AAEXI@Z 10062670 f i libucrtd:output.obj
 0001:00061690       ?unset_flag@?$output_processor@_WV?$string_output_adapter@_W@__crt_stdio_output@@V?$standard_base@_WV?$string_output_adapter@_W@__crt_stdio_output@@@2@@__crt_stdio_output@@AAEXI@Z 10062690 f i libucrtd:output.obj
 0001:000616b0       ?update_field_width@?$positional_parameter_base@DV?$stream_output_adapter@D@__crt_stdio_output@@@__crt_stdio_output@@IAE_NXZ 100626b0 f i libucrtd:output.obj
 0001:00061830       ?update_field_width@?$positional_parameter_base@DV?$string_output_adapter@D@__crt_stdio_output@@@__crt_stdio_output@@IAE_NXZ 10062830 f i libucrtd:output.obj
 0001:000619b0       ?update_field_width@?$positional_parameter_base@_WV?$stream_output_adapter@_W@__crt_stdio_output@@@__crt_stdio_output@@IAE_NXZ 100629b0 f i libucrtd:output.obj
 0001:00061b30       ?update_field_width@?$positional_parameter_base@_WV?$string_output_adapter@_W@__crt_stdio_output@@@__crt_stdio_output@@IAE_NXZ 10062b30 f i libucrtd:output.obj
 0001:00061cb0       ?update_field_width@?$standard_base@DV?$stream_output_adapter@D@__crt_stdio_output@@@__crt_stdio_output@@IAE_NXZ 10062cb0 f i libucrtd:output.obj
 0001:00061ce0       ?update_field_width@?$standard_base@DV?$string_output_adapter@D@__crt_stdio_output@@@__crt_stdio_output@@IAE_NXZ 10062ce0 f i libucrtd:output.obj
 0001:00061d10       ?update_field_width@?$standard_base@_WV?$stream_output_adapter@_W@__crt_stdio_output@@@__crt_stdio_output@@IAE_NXZ 10062d10 f i libucrtd:output.obj
 0001:00061d40       ?update_field_width@?$standard_base@_WV?$string_output_adapter@_W@__crt_stdio_output@@@__crt_stdio_output@@IAE_NXZ 10062d40 f i libucrtd:output.obj
 0001:00061d70       ?update_precision@?$positional_parameter_base@DV?$stream_output_adapter@D@__crt_stdio_output@@@__crt_stdio_output@@IAE_NXZ 10062d70 f i libucrtd:output.obj
 0001:00061ef0       ?update_precision@?$positional_parameter_base@DV?$string_output_adapter@D@__crt_stdio_output@@@__crt_stdio_output@@IAE_NXZ 10062ef0 f i libucrtd:output.obj
 0001:00062070       ?update_precision@?$positional_parameter_base@_WV?$stream_output_adapter@_W@__crt_stdio_output@@@__crt_stdio_output@@IAE_NXZ 10063070 f i libucrtd:output.obj
 0001:000621f0       ?update_precision@?$positional_parameter_base@_WV?$string_output_adapter@_W@__crt_stdio_output@@@__crt_stdio_output@@IAE_NXZ 100631f0 f i libucrtd:output.obj
 0001:00062370       ?update_precision@?$standard_base@DV?$stream_output_adapter@D@__crt_stdio_output@@@__crt_stdio_output@@IAE_NXZ 10063370 f i libucrtd:output.obj
 0001:000623a0       ?update_precision@?$standard_base@DV?$string_output_adapter@D@__crt_stdio_output@@@__crt_stdio_output@@IAE_NXZ 100633a0 f i libucrtd:output.obj
 0001:000623d0       ?update_precision@?$standard_base@_WV?$stream_output_adapter@_W@__crt_stdio_output@@@__crt_stdio_output@@IAE_NXZ 100633d0 f i libucrtd:output.obj
 0001:00062400       ?update_precision@?$standard_base@_WV?$string_output_adapter@_W@__crt_stdio_output@@@__crt_stdio_output@@IAE_NXZ 10063400 f i libucrtd:output.obj
 0001:00062430       ?valid@__crt_stdio_stream@@QBE_NXZ 10063430 f i libucrtd:output.obj
 0001:00062460       ?validate@?$stream_output_adapter@D@__crt_stdio_output@@QBE_NXZ 10063460 f i libucrtd:output.obj
 0001:00062500       ?validate@?$stream_output_adapter@_W@__crt_stdio_output@@QBE_NXZ 10063500 f i libucrtd:output.obj
 0001:000625a0       ?validate@?$string_output_adapter@D@__crt_stdio_output@@QBE_NXZ 100635a0 f i libucrtd:output.obj
 0001:00062630       ?validate@?$string_output_adapter@_W@__crt_stdio_output@@QBE_NXZ 10063630 f i libucrtd:output.obj
 0001:000626c0       ?validate_and_store_parameter_data@?$positional_parameter_base@DV?$stream_output_adapter@D@__crt_stdio_output@@@__crt_stdio_output@@AAE_NAAUparameter_data@12@W4parameter_type@12@DW4length_modifier@2@@Z 100636c0 f i libucrtd:output.obj
 0001:00062790       ?validate_and_store_parameter_data@?$positional_parameter_base@DV?$string_output_adapter@D@__crt_stdio_output@@@__crt_stdio_output@@AAE_NAAUparameter_data@12@W4parameter_type@12@DW4length_modifier@2@@Z 10063790 f i libucrtd:output.obj
 0001:00062860       ?validate_and_store_parameter_data@?$positional_parameter_base@_WV?$stream_output_adapter@_W@__crt_stdio_output@@@__crt_stdio_output@@AAE_NAAUparameter_data@12@W4parameter_type@12@_WW4length_modifier@2@@Z 10063860 f i libucrtd:output.obj
 0001:00062940       ?validate_and_store_parameter_data@?$positional_parameter_base@_WV?$string_output_adapter@_W@__crt_stdio_output@@@__crt_stdio_output@@AAE_NAAUparameter_data@12@W4parameter_type@12@_WW4length_modifier@2@@Z 10063940 f i libucrtd:output.obj
 0001:00062a20       ?validate_and_update_state_at_beginning_of_format_character@?$positional_parameter_base@DV?$stream_output_adapter@D@__crt_stdio_output@@@__crt_stdio_output@@IAE_NXZ 10063a20 f i libucrtd:output.obj
 0001:00062c40       ?validate_and_update_state_at_beginning_of_format_character@?$positional_parameter_base@DV?$string_output_adapter@D@__crt_stdio_output@@@__crt_stdio_output@@IAE_NXZ 10063c40 f i libucrtd:output.obj
 0001:00062e60       ?validate_and_update_state_at_beginning_of_format_character@?$positional_parameter_base@_WV?$stream_output_adapter@_W@__crt_stdio_output@@@__crt_stdio_output@@IAE_NXZ 10063e60 f i libucrtd:output.obj
 0001:00063080       ?validate_and_update_state_at_beginning_of_format_character@?$positional_parameter_base@_WV?$string_output_adapter@_W@__crt_stdio_output@@@__crt_stdio_output@@IAE_NXZ 10064080 f i libucrtd:output.obj
 0001:000632a0       ?validate_and_update_state_at_beginning_of_format_character@?$standard_base@DV?$stream_output_adapter@D@__crt_stdio_output@@@__crt_stdio_output@@IAE_NXZ 100642a0 f i libucrtd:output.obj
 0001:000632b0       ?validate_and_update_state_at_beginning_of_format_character@?$standard_base@DV?$string_output_adapter@D@__crt_stdio_output@@@__crt_stdio_output@@IAE_NXZ 100642b0 f i libucrtd:output.obj
 0001:000632c0       ?validate_and_update_state_at_beginning_of_format_character@?$standard_base@_WV?$stream_output_adapter@_W@__crt_stdio_output@@@__crt_stdio_output@@IAE_NXZ 100642c0 f i libucrtd:output.obj
 0001:000632d0       ?validate_and_update_state_at_beginning_of_format_character@?$standard_base@_WV?$string_output_adapter@_W@__crt_stdio_output@@@__crt_stdio_output@@IAE_NXZ 100642d0 f i libucrtd:output.obj
 0001:000632e0       ?validate_and_update_state_at_end_of_format_string@?$format_validation_base@DV?$stream_output_adapter@D@__crt_stdio_output@@@__crt_stdio_output@@IBE_NXZ 100642e0 f i libucrtd:output.obj
 0001:00063380       ?validate_and_update_state_at_end_of_format_string@?$format_validation_base@DV?$string_output_adapter@D@__crt_stdio_output@@@__crt_stdio_output@@IBE_NXZ 10064380 f i libucrtd:output.obj
 0001:00063420       ?validate_and_update_state_at_end_of_format_string@?$format_validation_base@_WV?$stream_output_adapter@_W@__crt_stdio_output@@@__crt_stdio_output@@IBE_NXZ 10064420 f i libucrtd:output.obj
 0001:000634c0       ?validate_and_update_state_at_end_of_format_string@?$format_validation_base@_WV?$string_output_adapter@_W@__crt_stdio_output@@@__crt_stdio_output@@IBE_NXZ 100644c0 f i libucrtd:output.obj
 0001:00063560       ?validate_and_update_state_at_end_of_format_string@?$positional_parameter_base@DV?$stream_output_adapter@D@__crt_stdio_output@@@__crt_stdio_output@@IAE_NXZ 10064560 f i libucrtd:output.obj
 0001:00063700       ?validate_and_update_state_at_end_of_format_string@?$positional_parameter_base@DV?$string_output_adapter@D@__crt_stdio_output@@@__crt_stdio_output@@IAE_NXZ 10064700 f i libucrtd:output.obj
 0001:000638a0       ?validate_and_update_state_at_end_of_format_string@?$positional_parameter_base@_WV?$stream_output_adapter@_W@__crt_stdio_output@@@__crt_stdio_output@@IAE_NXZ 100648a0 f i libucrtd:output.obj
 0001:00063a40       ?validate_and_update_state_at_end_of_format_string@?$positional_parameter_base@_WV?$string_output_adapter@_W@__crt_stdio_output@@@__crt_stdio_output@@IAE_NXZ 10064a40 f i libucrtd:output.obj
 0001:00063be0       ?validate_and_update_state_at_end_of_format_string@?$standard_base@DV?$stream_output_adapter@D@__crt_stdio_output@@@__crt_stdio_output@@IBE_NXZ 10064be0 f i libucrtd:output.obj
 0001:00063bf0       ?validate_and_update_state_at_end_of_format_string@?$standard_base@DV?$string_output_adapter@D@__crt_stdio_output@@@__crt_stdio_output@@IBE_NXZ 10064bf0 f i libucrtd:output.obj
 0001:00063c00       ?validate_and_update_state_at_end_of_format_string@?$standard_base@_WV?$stream_output_adapter@_W@__crt_stdio_output@@@__crt_stdio_output@@IBE_NXZ 10064c00 f i libucrtd:output.obj
 0001:00063c10       ?validate_and_update_state_at_end_of_format_string@?$standard_base@_WV?$string_output_adapter@_W@__crt_stdio_output@@@__crt_stdio_output@@IBE_NXZ 10064c10 f i libucrtd:output.obj
 0001:00063c20       ?validate_state_for_type_case_a@?$positional_parameter_base@DV?$stream_output_adapter@D@__crt_stdio_output@@@__crt_stdio_output@@IAE_NXZ 10064c20 f i libucrtd:output.obj
 0001:00063d10       ?validate_state_for_type_case_a@?$positional_parameter_base@DV?$string_output_adapter@D@__crt_stdio_output@@@__crt_stdio_output@@IAE_NXZ 10064d10 f i libucrtd:output.obj
 0001:00063e00       ?validate_state_for_type_case_a@?$positional_parameter_base@_WV?$stream_output_adapter@_W@__crt_stdio_output@@@__crt_stdio_output@@IAE_NXZ 10064e00 f i libucrtd:output.obj
 0001:00063ef0       ?validate_state_for_type_case_a@?$positional_parameter_base@_WV?$string_output_adapter@_W@__crt_stdio_output@@@__crt_stdio_output@@IAE_NXZ 10064ef0 f i libucrtd:output.obj
 0001:00063fe0       ?validate_state_for_type_case_a@?$standard_base@DV?$stream_output_adapter@D@__crt_stdio_output@@@__crt_stdio_output@@IBE_NXZ 10064fe0 f i libucrtd:output.obj
 0001:00063ff0       ?validate_state_for_type_case_a@?$standard_base@DV?$string_output_adapter@D@__crt_stdio_output@@@__crt_stdio_output@@IBE_NXZ 10064ff0 f i libucrtd:output.obj
 0001:00064000       ?validate_state_for_type_case_a@?$standard_base@_WV?$stream_output_adapter@_W@__crt_stdio_output@@@__crt_stdio_output@@IBE_NXZ 10065000 f i libucrtd:output.obj
 0001:00064010       ?validate_state_for_type_case_a@?$standard_base@_WV?$string_output_adapter@_W@__crt_stdio_output@@@__crt_stdio_output@@IBE_NXZ 10065010 f i libucrtd:output.obj
 0001:00064020       ?validate_stream_is_ansi_if_required@?$__acrt_stdio_char_traits@D@@SA_NQAU_iobuf@@@Z 10065020 f i libucrtd:output.obj
 0001:00064150       ?validate_stream_is_ansi_if_required@?$__acrt_stdio_char_traits@_W@@SA_NQAU_iobuf@@@Z 10065150 f i libucrtd:output.obj
 0001:00064160       ?wide_null_string@?$output_processor@DV?$stream_output_adapter@D@__crt_stdio_output@@V?$format_validation_base@DV?$stream_output_adapter@D@__crt_stdio_output@@@2@@__crt_stdio_output@@CAPA_WXZ 10065160 f i libucrtd:output.obj
 0001:00064170       ?wide_null_string@?$output_processor@DV?$stream_output_adapter@D@__crt_stdio_output@@V?$positional_parameter_base@DV?$stream_output_adapter@D@__crt_stdio_output@@@2@@__crt_stdio_output@@CAPA_WXZ 10065170 f i libucrtd:output.obj
 0001:00064180       ?wide_null_string@?$output_processor@DV?$stream_output_adapter@D@__crt_stdio_output@@V?$standard_base@DV?$stream_output_adapter@D@__crt_stdio_output@@@2@@__crt_stdio_output@@CAPA_WXZ 10065180 f i libucrtd:output.obj
 0001:00064190       ?wide_null_string@?$output_processor@DV?$string_output_adapter@D@__crt_stdio_output@@V?$format_validation_base@DV?$string_output_adapter@D@__crt_stdio_output@@@2@@__crt_stdio_output@@CAPA_WXZ 10065190 f i libucrtd:output.obj
 0001:000641a0       ?wide_null_string@?$output_processor@DV?$string_output_adapter@D@__crt_stdio_output@@V?$positional_parameter_base@DV?$string_output_adapter@D@__crt_stdio_output@@@2@@__crt_stdio_output@@CAPA_WXZ 100651a0 f i libucrtd:output.obj
 0001:000641b0       ?wide_null_string@?$output_processor@DV?$string_output_adapter@D@__crt_stdio_output@@V?$standard_base@DV?$string_output_adapter@D@__crt_stdio_output@@@2@@__crt_stdio_output@@CAPA_WXZ 100651b0 f i libucrtd:output.obj
 0001:000641c0       ?wide_null_string@?$output_processor@_WV?$stream_output_adapter@_W@__crt_stdio_output@@V?$format_validation_base@_WV?$stream_output_adapter@_W@__crt_stdio_output@@@2@@__crt_stdio_output@@CAPA_WXZ 100651c0 f i libucrtd:output.obj
 0001:000641d0       ?wide_null_string@?$output_processor@_WV?$stream_output_adapter@_W@__crt_stdio_output@@V?$positional_parameter_base@_WV?$stream_output_adapter@_W@__crt_stdio_output@@@2@@__crt_stdio_output@@CAPA_WXZ 100651d0 f i libucrtd:output.obj
 0001:000641e0       ?wide_null_string@?$output_processor@_WV?$stream_output_adapter@_W@__crt_stdio_output@@V?$standard_base@_WV?$stream_output_adapter@_W@__crt_stdio_output@@@2@@__crt_stdio_output@@CAPA_WXZ 100651e0 f i libucrtd:output.obj
 0001:000641f0       ?wide_null_string@?$output_processor@_WV?$string_output_adapter@_W@__crt_stdio_output@@V?$format_validation_base@_WV?$string_output_adapter@_W@__crt_stdio_output@@@2@@__crt_stdio_output@@CAPA_WXZ 100651f0 f i libucrtd:output.obj
 0001:00064200       ?wide_null_string@?$output_processor@_WV?$string_output_adapter@_W@__crt_stdio_output@@V?$positional_parameter_base@_WV?$string_output_adapter@_W@__crt_stdio_output@@@2@@__crt_stdio_output@@CAPA_WXZ 10065200 f i libucrtd:output.obj
 0001:00064210       ?wide_null_string@?$output_processor@_WV?$string_output_adapter@_W@__crt_stdio_output@@V?$standard_base@_WV?$string_output_adapter@_W@__crt_stdio_output@@@2@@__crt_stdio_output@@CAPA_WXZ 10065210 f i libucrtd:output.obj
 0001:00064220       ?write_character@?$stream_output_adapter@D@__crt_stdio_output@@QBEXDQAH@Z 10065220 f i libucrtd:output.obj
 0001:000642a0       ?write_character@?$stream_output_adapter@_W@__crt_stdio_output@@QBEX_WQAH@Z 100652a0 f i libucrtd:output.obj
 0001:00064320       ?write_character@?$string_output_adapter@D@__crt_stdio_output@@QBE_NDQAH@Z 10065320 f i libucrtd:output.obj
 0001:000643b0       ?write_character@?$string_output_adapter@_W@__crt_stdio_output@@QBE_N_WQAH@Z 100653b0 f i libucrtd:output.obj
 0001:00064450       ?write_stored_string_tchar@?$output_processor@DV?$stream_output_adapter@D@__crt_stdio_output@@V?$format_validation_base@DV?$stream_output_adapter@D@__crt_stdio_output@@@2@@__crt_stdio_output@@AAE_ND@Z 10065450 f i libucrtd:output.obj
 0001:00064560       ?write_stored_string_tchar@?$output_processor@DV?$stream_output_adapter@D@__crt_stdio_output@@V?$positional_parameter_base@DV?$stream_output_adapter@D@__crt_stdio_output@@@2@@__crt_stdio_output@@AAE_ND@Z 10065560 f i libucrtd:output.obj
 0001:00064670       ?write_stored_string_tchar@?$output_processor@DV?$stream_output_adapter@D@__crt_stdio_output@@V?$standard_base@DV?$stream_output_adapter@D@__crt_stdio_output@@@2@@__crt_stdio_output@@AAE_ND@Z 10065670 f i libucrtd:output.obj
 0001:00064780       ?write_stored_string_tchar@?$output_processor@DV?$string_output_adapter@D@__crt_stdio_output@@V?$format_validation_base@DV?$string_output_adapter@D@__crt_stdio_output@@@2@@__crt_stdio_output@@AAE_ND@Z 10065780 f i libucrtd:output.obj
 0001:00064890       ?write_stored_string_tchar@?$output_processor@DV?$string_output_adapter@D@__crt_stdio_output@@V?$positional_parameter_base@DV?$string_output_adapter@D@__crt_stdio_output@@@2@@__crt_stdio_output@@AAE_ND@Z 10065890 f i libucrtd:output.obj
 0001:000649a0       ?write_stored_string_tchar@?$output_processor@DV?$string_output_adapter@D@__crt_stdio_output@@V?$standard_base@DV?$string_output_adapter@D@__crt_stdio_output@@@2@@__crt_stdio_output@@AAE_ND@Z 100659a0 f i libucrtd:output.obj
 0001:00064ab0       ?write_stored_string_tchar@?$output_processor@_WV?$stream_output_adapter@_W@__crt_stdio_output@@V?$format_validation_base@_WV?$stream_output_adapter@_W@__crt_stdio_output@@@2@@__crt_stdio_output@@AAE_N_W@Z 10065ab0 f i libucrtd:output.obj
 0001:00064ba0       ?write_stored_string_tchar@?$output_processor@_WV?$stream_output_adapter@_W@__crt_stdio_output@@V?$positional_parameter_base@_WV?$stream_output_adapter@_W@__crt_stdio_output@@@2@@__crt_stdio_output@@AAE_N_W@Z 10065ba0 f i libucrtd:output.obj
 0001:00064c90       ?write_stored_string_tchar@?$output_processor@_WV?$stream_output_adapter@_W@__crt_stdio_output@@V?$standard_base@_WV?$stream_output_adapter@_W@__crt_stdio_output@@@2@@__crt_stdio_output@@AAE_N_W@Z 10065c90 f i libucrtd:output.obj
 0001:00064d80       ?write_stored_string_tchar@?$output_processor@_WV?$string_output_adapter@_W@__crt_stdio_output@@V?$format_validation_base@_WV?$string_output_adapter@_W@__crt_stdio_output@@@2@@__crt_stdio_output@@AAE_N_W@Z 10065d80 f i libucrtd:output.obj
 0001:00064e70       ?write_stored_string_tchar@?$output_processor@_WV?$string_output_adapter@_W@__crt_stdio_output@@V?$positional_parameter_base@_WV?$string_output_adapter@_W@__crt_stdio_output@@@2@@__crt_stdio_output@@AAE_N_W@Z 10065e70 f i libucrtd:output.obj
 0001:00064f60       ?write_stored_string_tchar@?$output_processor@_WV?$string_output_adapter@_W@__crt_stdio_output@@V?$standard_base@_WV?$string_output_adapter@_W@__crt_stdio_output@@@2@@__crt_stdio_output@@AAE_N_W@Z 10065f60 f i libucrtd:output.obj
 0001:00065050       ?write_string@?$stream_output_adapter@D@__crt_stdio_output@@QBEXQBDHQAH1@Z 10066050 f i libucrtd:output.obj
 0001:00065100       ?write_string@?$stream_output_adapter@_W@__crt_stdio_output@@QBEXQB_WHQAH1@Z 10066100 f i libucrtd:output.obj
 0001:000651c0       ?write_string@?$string_output_adapter@D@__crt_stdio_output@@QBEXQBDHQAH1@Z 100661c0 f i libucrtd:output.obj
 0001:000652d0       ?write_string@?$string_output_adapter@_W@__crt_stdio_output@@QBEXQB_WHQAH1@Z 100662d0 f i libucrtd:output.obj
 0001:000653f0       ___acrt_isleadbyte_l_noupdate 100663f0 f i libucrtd:output.obj
 0001:00065410       ___acrt_locale_changed     10066410 f i libucrtd:output.obj
 0001:00065440       ___stdio_common_vfprintf   10066440 f   libucrtd:output.obj
 0001:00065470       ___stdio_common_vfprintf_p 10066470 f   libucrtd:output.obj
 0001:000654a0       ___stdio_common_vfprintf_s 100664a0 f   libucrtd:output.obj
 0001:000654d0       ___stdio_common_vfwprintf  100664d0 f   libucrtd:output.obj
 0001:00065500       ___stdio_common_vfwprintf_p 10066500 f   libucrtd:output.obj
 0001:00065530       ___stdio_common_vfwprintf_s 10066530 f   libucrtd:output.obj
 0001:00065560       ___stdio_common_vsnprintf_s 10066560 f   libucrtd:output.obj
 0001:00065590       ___stdio_common_vsnwprintf_s 10066590 f   libucrtd:output.obj
 0001:000655c0       ___stdio_common_vsprintf   100665c0 f   libucrtd:output.obj
 0001:000655f0       ___stdio_common_vsprintf_p 100665f0 f   libucrtd:output.obj
 0001:00065620       ___stdio_common_vsprintf_s 10066620 f   libucrtd:output.obj
 0001:00065650       ___stdio_common_vswprintf  10066650 f   libucrtd:output.obj
 0001:00065680       ___stdio_common_vswprintf_p 10066680 f   libucrtd:output.obj
 0001:000656b0       ___stdio_common_vswprintf_s 100666b0 f   libucrtd:output.obj
 0001:000656e0       _free                      100666e0 f   libucrtd:free.obj
 0001:00065700       _malloc                    10066700 f   libucrtd:malloc.obj
 0001:00065720       ??$?RU?$__crt_report_hook_node@D@@@__crt_internal_free_policy@@QBEXQBU?$__crt_report_hook_node@D@@@Z 10066720 f i libucrtd:dbgrpt.obj
 0001:00065740       ??$?RU?$__crt_report_hook_node@_W@@@__crt_internal_free_policy@@QBEXQBU?$__crt_report_hook_node@_W@@@Z 10066740 f i libucrtd:dbgrpt.obj
 0001:00065760       ??$?RV<lambda_4385efabcfedf7d3ecea3114bb4d80a3>@@AAV<lambda_0e04737ef8baea6dabca2b8414b05b67>@@V<lambda_d865d276f220a9fa71140df531e906d8>@@@?$__crt_seh_guarded_call@H@@QAEH$$QAV<lambda_4385efabcfedf7d3ecea3114bb4d80a3>@@AAV<lambda_0e04737ef8baea6dabca2b8414b05b67>@@$$QAV<lambda_d865d276f220a9fa71140df531e906d8>@@@Z 10066760 f i libucrtd:dbgrpt.obj
 0001:000657f0       ??$?RV<lambda_cc3a1c0f52e01ba2b29fe175588291fc>@@AAV<lambda_fe667bea668416e0f0232b481cd5c955>@@V<lambda_bb8fdd70844b93de4445abd0f0332611>@@@?$__crt_seh_guarded_call@H@@QAEH$$QAV<lambda_cc3a1c0f52e01ba2b29fe175588291fc>@@AAV<lambda_fe667bea668416e0f0232b481cd5c955>@@$$QAV<lambda_bb8fdd70844b93de4445abd0f0332611>@@@Z 100667f0 f i libucrtd:dbgrpt.obj
 0001:00065880       ??$__acrt_lock_and_call@V<lambda_0e04737ef8baea6dabca2b8414b05b67>@@@@YAHW4__acrt_lock_id@@$$QAV<lambda_0e04737ef8baea6dabca2b8414b05b67>@@@Z 10066880 f i libucrtd:dbgrpt.obj
 0001:000658c0       ??$__acrt_lock_and_call@V<lambda_fe667bea668416e0f0232b481cd5c955>@@@@YAHW4__acrt_lock_id@@$$QAV<lambda_fe667bea668416e0f0232b481cd5c955>@@@Z 100668c0 f i libucrtd:dbgrpt.obj
 0001:00065900       ??$__vcrt_va_start_verify_argument_type@QBD@@YAXXZ 10066900 f i libucrtd:dbgrpt.obj
 0001:00065910       ??$__vcrt_va_start_verify_argument_type@QB_W@@YAXXZ 10066910 f i libucrtd:dbgrpt.obj
 0001:00066510       ??$get_module_file_name@AAPAUHINSTANCE__@@AAY0BAF@DK@?$__crt_char_traits@D@@SAKAAPAUHINSTANCE__@@AAY0BAF@D$$QAK@Z 10067510 f i libucrtd:dbgrpt.obj
 0001:00066530       ??$get_module_file_name@AAPAUHINSTANCE__@@AAY0BAF@_WK@?$__crt_char_traits@_W@@SAKAAPAUHINSTANCE__@@AAY0BAF@_W$$QAK@Z 10067530 f i libucrtd:dbgrpt.obj
 0001:00066550       ??$tcscpy_s@AAY0BAF@DIPBD@?$__crt_char_traits@D@@SAHAAY0BAF@D$$QAI$$QAPBD@Z 10067550 f i libucrtd:dbgrpt.obj
 0001:00066570       ??$tcscpy_s@AAY0BAF@_WIPB_W@?$__crt_char_traits@_W@@SAHAAY0BAF@_W$$QAI$$QAPB_W@Z 10067570 f i libucrtd:dbgrpt.obj
 0001:00066590       ??$tcslen@AAY0BAF@D@?$__crt_char_traits@D@@SAIAAY0BAF@D@Z 10067590 f i libucrtd:dbgrpt.obj
 0001:000665b0       ??$tcslen@AAY0BAF@_W@?$__crt_char_traits@_W@@SAIAAY0BAF@_W@Z 100675b0 f i libucrtd:dbgrpt.obj
 0001:000665d0       ??$tcslen@ABQBD@?$__crt_char_traits@D@@SAIABQBD@Z 100675d0 f i libucrtd:dbgrpt.obj
 0001:000665f0       ??$tcslen@ABQB_W@?$__crt_char_traits@_W@@SAIABQB_W@Z 100675f0 f i libucrtd:dbgrpt.obj
 0001:000666f0       ??0?$__crt_unique_heap_ptr@U?$__crt_report_hook_node@D@@U__crt_internal_free_policy@@@@QAE@QAU?$__crt_report_hook_node@D@@@Z 100676f0 f i libucrtd:dbgrpt.obj
 0001:00066710       ??0?$__crt_unique_heap_ptr@U?$__crt_report_hook_node@_W@@U__crt_internal_free_policy@@@@QAE@QAU?$__crt_report_hook_node@_W@@@Z 10067710 f i libucrtd:dbgrpt.obj
 0001:00066730       ??1?$__crt_unique_heap_ptr@U?$__crt_report_hook_node@D@@U__crt_internal_free_policy@@@@QAE@XZ 10067730 f i libucrtd:dbgrpt.obj
 0001:00066750       ??1?$__crt_unique_heap_ptr@U?$__crt_report_hook_node@_W@@U__crt_internal_free_policy@@@@QAE@XZ 10067750 f i libucrtd:dbgrpt.obj
 0001:00066770       ??B?$__crt_unique_heap_ptr@U?$__crt_report_hook_node@D@@U__crt_internal_free_policy@@@@QBE_NXZ 10067770 f i libucrtd:dbgrpt.obj
 0001:00066790       ??B?$__crt_unique_heap_ptr@U?$__crt_report_hook_node@_W@@U__crt_internal_free_policy@@@@QBE_NXZ 10067790 f i libucrtd:dbgrpt.obj
 0001:00066cd0       ?detach@?$__crt_unique_heap_ptr@U?$__crt_report_hook_node@D@@U__crt_internal_free_policy@@@@QAEPAU?$__crt_report_hook_node@D@@XZ 10067cd0 f i libucrtd:dbgrpt.obj
 0001:00066d00       ?detach@?$__crt_unique_heap_ptr@U?$__crt_report_hook_node@_W@@U__crt_internal_free_policy@@@@QAEPAU?$__crt_report_hook_node@_W@@XZ 10067d00 f i libucrtd:dbgrpt.obj
 0001:00066d30       ?get@?$__crt_unique_heap_ptr@U?$__crt_report_hook_node@D@@U__crt_internal_free_policy@@@@QBEPAU?$__crt_report_hook_node@D@@XZ 10067d30 f i libucrtd:dbgrpt.obj
 0001:00066d50       ?get@?$__crt_unique_heap_ptr@U?$__crt_report_hook_node@_W@@U__crt_internal_free_policy@@@@QBEPAU?$__crt_report_hook_node@_W@@XZ 10067d50 f i libucrtd:dbgrpt.obj
 0001:00066dd0       ?is_valid@?$__crt_unique_heap_ptr@U?$__crt_report_hook_node@D@@U__crt_internal_free_policy@@@@QBE_NXZ 10067dd0 f i libucrtd:dbgrpt.obj
 0001:00066e00       ?is_valid@?$__crt_unique_heap_ptr@U?$__crt_report_hook_node@_W@@U__crt_internal_free_policy@@@@QBE_NXZ 10067e00 f i libucrtd:dbgrpt.obj
 0001:00066e30       ?release@?$__crt_unique_heap_ptr@U?$__crt_report_hook_node@D@@U__crt_internal_free_policy@@@@QAEXXZ 10067e30 f i libucrtd:dbgrpt.obj
 0001:00066e60       ?release@?$__crt_unique_heap_ptr@U?$__crt_report_hook_node@_W@@U__crt_internal_free_policy@@@@QAEXXZ 10067e60 f i libucrtd:dbgrpt.obj
 0001:00066e90       __CrtDbgReport             10067e90 f   libucrtd:dbgrpt.obj
 0001:00066ee0       __CrtDbgReportW            10067ee0 f   libucrtd:dbgrpt.obj
 0001:00066f30       __CrtSetReportHook2        10067f30 f   libucrtd:dbgrpt.obj
 0001:00066f50       __CrtSetReportHookW2       10067f50 f   libucrtd:dbgrpt.obj
 0001:00066f70       ___acrt_MessageWindowA     10067f70 f   libucrtd:dbgrpt.obj
 0001:00066fa0       ___acrt_MessageWindowW     10067fa0 f   libucrtd:dbgrpt.obj
 0001:00066fd0       __invoke_watson_if_error   10067fd0 f i libucrtd:dbgrpt.obj
 0001:00067000       __invoke_watson_if_oneof   10068000 f i libucrtd:dbgrpt.obj
 0001:00067040       __snwprintf_s              10068040 f i libucrtd:dbgrpt.obj
 0001:00067090       __vsnwprintf_s_l           10068090 f i libucrtd:dbgrpt.obj
 0001:00067410       _wcscpy_s                  10068410 f   libucrtd:wcscpy_s.obj
 0001:00067430       _wcslen                    10068430 f   libucrtd:wcslen.obj
 0001:00067470       ??$__crt_fast_decode_pointer@P6AXPB_W00II@Z@@YAP6AXPB_W00II@ZQ6AX000II@Z@Z 10068470 f i libucrtd:invalid_parameter.obj
 0001:000674a0       ??$__crt_fast_encode_pointer@P6AXPB_W00II@Z@@YAP6AXPB_W00II@ZQ6AX000II@Z@Z 100684a0 f i libucrtd:invalid_parameter.obj
 0001:000674d0       ?get_current_state_index@__crt_state_management@@YAIXZ 100684d0 f i libucrtd:invalid_parameter.obj
 0001:000674e0       ?initialize@?$dual_state_global@P6AXPB_W00II@Z@__crt_state_management@@QAEXQ6AXPB_W00II@Z@Z 100684e0 f i libucrtd:invalid_parameter.obj
 0001:00067520       ?value@?$dual_state_global@P6AXPB_W00II@Z@__crt_state_management@@QAEAAP6AXPB_W00II@ZXZ 10068520 f i libucrtd:invalid_parameter.obj
 0001:00067540       ___acrt_call_reportfault   10068540 f   libucrtd:invalid_parameter.obj
 0001:000676a0       ___acrt_initialize_invalid_parameter_handler 100686a0 f   libucrtd:invalid_parameter.obj
 0001:000676c0       __get_invalid_parameter_handler 100686c0 f   libucrtd:invalid_parameter.obj
 0001:000676e0       __get_thread_local_invalid_parameter_handler 100686e0 f   libucrtd:invalid_parameter.obj
 0001:00067710       __invalid_parameter        10068710 f   libucrtd:invalid_parameter.obj
 0001:000677e0       __invalid_parameter_noinfo 100687e0 f   libucrtd:invalid_parameter.obj
 0001:00067800       __invalid_parameter_noinfo_noreturn 10068800 f   libucrtd:invalid_parameter.obj
 0001:00067830       __invoke_watson            10068830 f   libucrtd:invalid_parameter.obj
 0001:00067870       __set_invalid_parameter_handler 10068870 f   libucrtd:invalid_parameter.obj
 0001:000678c0       __set_thread_local_invalid_parameter_handler 100688c0 f   libucrtd:invalid_parameter.obj
 0001:000678f0       ___acrt_errno_from_os_error 100688f0 f   libucrtd:errno.obj
 0001:00067970       ___acrt_errno_map_os_error 10068970 f   libucrtd:errno.obj
 0001:000679a0       ___doserrno                100689a0 f   libucrtd:errno.obj
 0001:000679d0       __errno                    100689d0 f   libucrtd:errno.obj
 0001:00067a00       __get_doserrno             10068a00 f   libucrtd:errno.obj
 0001:00067a90       __get_errno                10068a90 f   libucrtd:errno.obj
 0001:00067b20       __set_doserrno             10068b20 f   libucrtd:errno.obj
 0001:00067b50       __set_errno                10068b50 f   libucrtd:errno.obj
 0001:00067b80       _calloc                    10068b80 f   libucrtd:calloc.obj
 0001:00067ba0       __recalloc                 10068ba0 f   libucrtd:recalloc.obj
 0001:00067bd0       __recalloc_base            10068bd0 f   libucrtd:recalloc.obj
 0001:00067c6a       __resetstkoflw             10068c6a f   libucrtd:resetstk.obj
 0001:00068160       _wcscat_s                  10069160 f   libucrtd:wcscat_s.obj
 0001:000685b0       _wcsncpy_s                 100695b0 f   libucrtd:wcsncpy_s.obj
 0001:000685f0       ___acrt_get_locale_data_prefix 100695f0 f i libucrtd:_ctype.obj
 0001:00068610       ___isascii                 10069610 f i libucrtd:_ctype.obj
 0001:00068640       ___iscsym                  10069640 f i libucrtd:_ctype.obj
 0001:00068680       ___iscsymf                 10069680 f i libucrtd:_ctype.obj
 0001:000686c0       ___toascii                 100696c0 f i libucrtd:_ctype.obj
 0001:000686d0       __chvalidchk_l             100696d0 f i libucrtd:_ctype.obj
 0001:000686f0       __isalnum_l                100696f0 f i libucrtd:_ctype.obj
 0001:00068730       __isalpha_l                10069730 f i libucrtd:_ctype.obj
 0001:00068770       __isblank_l                10069770 f i libucrtd:_ctype.obj
 0001:000687d0       __ischartype_l             100697d0 f i libucrtd:_ctype.obj
 0001:00068820       __iscntrl_l                10069820 f i libucrtd:_ctype.obj
 0001:00068860       __iscsym_l                 10069860 f i libucrtd:_ctype.obj
 0001:000688a0       __iscsymf_l                100698a0 f i libucrtd:_ctype.obj
 0001:000688e0       __isdigit_l                100698e0 f i libucrtd:_ctype.obj
 0001:00068920       __isgraph_l                10069920 f i libucrtd:_ctype.obj
 0001:00068960       __islower_l                10069960 f i libucrtd:_ctype.obj
 0001:000689a0       __isprint_l                100699a0 f i libucrtd:_ctype.obj
 0001:000689e0       __ispunct_l                100699e0 f i libucrtd:_ctype.obj
 0001:00068a20       __isspace_l                10069a20 f i libucrtd:_ctype.obj
 0001:00068a60       __isupper_l                10069a60 f i libucrtd:_ctype.obj
 0001:00068aa0       __isxdigit_l               10069aa0 f i libucrtd:_ctype.obj
 0001:00068ae0       _isalnum                   10069ae0 f i libucrtd:_ctype.obj
 0001:00068b20       _isalpha                   10069b20 f i libucrtd:_ctype.obj
 0001:00068b60       _isblank                   10069b60 f i libucrtd:_ctype.obj
 0001:00068bc0       _iscntrl                   10069bc0 f i libucrtd:_ctype.obj
 0001:00068c00       _isdigit                   10069c00 f i libucrtd:_ctype.obj
 0001:00068c40       _isgraph                   10069c40 f i libucrtd:_ctype.obj
 0001:00068c80       _islower                   10069c80 f i libucrtd:_ctype.obj
 0001:00068cc0       _isprint                   10069cc0 f i libucrtd:_ctype.obj
 0001:00068d00       _ispunct                   10069d00 f i libucrtd:_ctype.obj
 0001:00068d40       _isspace                   10069d40 f i libucrtd:_ctype.obj
 0001:00068d80       _isupper                   10069d80 f i libucrtd:_ctype.obj
 0001:00068dc0       _isxdigit                  10069dc0 f i libucrtd:_ctype.obj
 0001:00068e00       _wcscat                    10069e00 f   libucrtd:wcscat.obj
 0001:00068e60       _wcscpy                    10069e60 f   libucrtd:wcscpy.obj
 0001:000694f0       ??$open_file@ABQBDABQBDABHPAU_iobuf@@@?$__crt_char_traits@D@@SAPAU_iobuf@@ABQBD0ABH$$QAPAU1@@Z 1006a4f0 f i libucrtd:fopen.obj
 0001:00069520       ??$open_file@ABQB_WABQB_WABHPAU_iobuf@@@?$__crt_char_traits@_W@@SAPAU_iobuf@@ABQB_W0ABH$$QAPAU1@@Z 1006a520 f i libucrtd:fopen.obj
 0001:00069550       ?unlock@__crt_stdio_stream@@QBEXXZ 1006a550 f i libucrtd:fopen.obj
 0001:00069570       __fsopen                   1006a570 f   libucrtd:fopen.obj
 0001:00069590       __wfopen                   1006a590 f   libucrtd:fopen.obj
 0001:000695b0       __wfopen_s                 1006a5b0 f   libucrtd:fopen.obj
 0001:000695d0       __wfsopen                  1006a5d0 f   libucrtd:fopen.obj
 0001:000695f0       _fopen                     1006a5f0 f   libucrtd:fopen.obj
 0001:00069610       _fopen_s                   1006a610 f   libucrtd:fopen.obj
 0001:00069630       ?is_in_use@__crt_stdio_stream@@QBE_NXZ 1006a630 f i libucrtd:fclose.obj
 0001:00069670       __fclose_nolock            1006a670 f   libucrtd:fclose.obj
 0001:000697b0       _fclose                    1006a7b0 f   libucrtd:fclose.obj
 0001:00069900       __fputc_nolock             1006a900 f   libucrtd:fputc.obj
 0001:00069990       __fputchar                 1006a990 f   libucrtd:fputc.obj
 0001:000699b0       __putc_nolock              1006a9b0 f   libucrtd:fputc.obj
 0001:000699d0       _fputc                     1006a9d0 f   libucrtd:fputc.obj
 0001:00069c10       _putc                      1006ac10 f   libucrtd:fputc.obj
 0001:00069c30       _putchar                   1006ac30 f   libucrtd:fputc.obj
 0001:00069ca0       __seh_filter_dll           1006aca0 f   libucrtd:exception_filter.obj
 0001:00069cd0       __seh_filter_exe           1006acd0 f   libucrtd:exception_filter.obj
 0001:00069ef0       ??$?B$$A6GXPAXK0@Z@__crt_fast_encoded_nullptr_t@@QBEP6GXPAXK0@ZXZ 1006aef0 f i libucrtd:exit.obj
 0001:00069f10       ??$__crt_fast_decode_pointer@P6GXPAXK0@Z@@YAP6GXPAXK0@ZQ6GX0K0@Z@Z 1006af10 f i libucrtd:exit.obj
 0001:00069f40       ??$__crt_fast_encode_pointer@P6GXPAXK0@Z@@YAP6GXPAXK0@ZQ6GX0K0@Z@Z 1006af40 f i libucrtd:exit.obj
 0001:00069f70       ??$__crt_get_proc_address@P6GXI@Z@@YAP6GXI@ZQAUHINSTANCE__@@QBD@Z 1006af70 f i libucrtd:exit.obj
 0001:00069f90       ??0?$__crt_unique_handle_t@U__crt_hmodule_traits@@@@QAE@QAUHINSTANCE__@@@Z 1006af90 f i libucrtd:exit.obj
 0001:00069fb0       ??1?$__crt_unique_handle_t@U__crt_hmodule_traits@@@@QAE@XZ 1006afb0 f i libucrtd:exit.obj
 0001:00069ff0       ?close@?$__crt_unique_handle_t@U__crt_hmodule_traits@@@@QAEXXZ 1006aff0 f i libucrtd:exit.obj
 0001:0006a030       ?close@__crt_hmodule_traits@@SA_NPAUHINSTANCE__@@@Z 1006b030 f i libucrtd:exit.obj
 0001:0006a260       ?get@?$__crt_unique_handle_t@U__crt_hmodule_traits@@@@QBEPAUHINSTANCE__@@XZ 1006b260 f i libucrtd:exit.obj
 0001:0006a280       ?get_address_of@?$__crt_unique_handle_t@U__crt_hmodule_traits@@@@QAEPAPAUHINSTANCE__@@XZ 1006b280 f i libucrtd:exit.obj
 0001:0006a290       ?get_invalid_value@__crt_hmodule_traits@@SAPAUHINSTANCE__@@XZ 1006b290 f i libucrtd:exit.obj
 0001:0006a420       __Exit                     1006b420 f   libucrtd:exit.obj
 0001:0006a440       ___acrt_initialize_thread_local_exit_callback 1006b440 f   libucrtd:exit.obj
 0001:0006a450       __c_exit                   1006b450 f   libucrtd:exit.obj
 0001:0006a470       __cexit                    1006b470 f   libucrtd:exit.obj
 0001:0006a490       __exit                     1006b490 f   libucrtd:exit.obj
 0001:0006a4b0       __is_c_termination_complete 1006b4b0 f   libucrtd:exit.obj
 0001:0006a4d0       __register_thread_local_exe_atexit_callback 1006b4d0 f   libucrtd:exit.obj
 0001:0006a510       _exit                      1006b510 f   libucrtd:exit.obj
 0001:0006a530       _quick_exit                1006b530 f   libucrtd:exit.obj
 0001:0006a550       ??$?RE@__crt_internal_free_policy@@QBEXQBE@Z 1006b550 f i libucrtd:argv_parsing.obj
 0001:0006a570       ??$?RPAD@__crt_internal_free_policy@@QBEXQBQAD@Z 1006b570 f i libucrtd:argv_parsing.obj
 0001:0006a590       ??$?RPA_W@__crt_internal_free_policy@@QBEXQBQA_W@Z 1006b590 f i libucrtd:argv_parsing.obj
 0001:0006aad0       ??$get_module_file_name@$$TAAY0BAF@DH@?$__crt_char_traits@D@@SAK$$QA$$TAAY0BAF@D$$QAH@Z 1006bad0 f i libucrtd:argv_parsing.obj
 0001:0006aaf0       ??$get_module_file_name@$$TAAY0BAF@_WH@?$__crt_char_traits@_W@@SAK$$QA$$TAAY0BAF@_W$$QAH@Z 1006baf0 f i libucrtd:argv_parsing.obj
 0001:0006b210       ??$set_program_name@PAD@?$__crt_char_traits@D@@SAX$$QAPAD@Z 1006c210 f i libucrtd:argv_parsing.obj
 0001:0006b230       ??$set_program_name@PA_W@?$__crt_char_traits@_W@@SAX$$QAPA_W@Z 1006c230 f i libucrtd:argv_parsing.obj
 0001:0006b290       ??0?$__crt_unique_heap_ptr@EU__crt_internal_free_policy@@@@QAE@QAE@Z 1006c290 f i libucrtd:argv_parsing.obj
 0001:0006b2b0       ??0?$__crt_unique_heap_ptr@PADU__crt_internal_free_policy@@@@QAE@QAPAD@Z 1006c2b0 f i libucrtd:argv_parsing.obj
 0001:0006b2d0       ??0?$__crt_unique_heap_ptr@PA_WU__crt_internal_free_policy@@@@QAE@QAPA_W@Z 1006c2d0 f i libucrtd:argv_parsing.obj
 0001:0006b2f0       ??1?$__crt_unique_heap_ptr@EU__crt_internal_free_policy@@@@QAE@XZ 1006c2f0 f i libucrtd:argv_parsing.obj
 0001:0006b310       ??1?$__crt_unique_heap_ptr@PADU__crt_internal_free_policy@@@@QAE@XZ 1006c310 f i libucrtd:argv_parsing.obj
 0001:0006b330       ??1?$__crt_unique_heap_ptr@PA_WU__crt_internal_free_policy@@@@QAE@XZ 1006c330 f i libucrtd:argv_parsing.obj
 0001:0006b350       ??B?$__crt_unique_heap_ptr@EU__crt_internal_free_policy@@@@QBE_NXZ 1006c350 f i libucrtd:argv_parsing.obj
 0001:0006b410       ?detach@?$__crt_unique_heap_ptr@EU__crt_internal_free_policy@@@@QAEPAEXZ 1006c410 f i libucrtd:argv_parsing.obj
 0001:0006b440       ?detach@?$__crt_unique_heap_ptr@PADU__crt_internal_free_policy@@@@QAEPAPADXZ 1006c440 f i libucrtd:argv_parsing.obj
 0001:0006b470       ?detach@?$__crt_unique_heap_ptr@PA_WU__crt_internal_free_policy@@@@QAEPAPA_WXZ 1006c470 f i libucrtd:argv_parsing.obj
 0001:0006b500       ?get@?$__crt_unique_heap_ptr@EU__crt_internal_free_policy@@@@QBEPAEXZ 1006c500 f i libucrtd:argv_parsing.obj
 0001:0006b520       ?get@?$__crt_unique_heap_ptr@PADU__crt_internal_free_policy@@@@QBEPAPADXZ 1006c520 f i libucrtd:argv_parsing.obj
 0001:0006b540       ?get@?$__crt_unique_heap_ptr@PA_WU__crt_internal_free_policy@@@@QBEPAPA_WXZ 1006c540 f i libucrtd:argv_parsing.obj
 0001:0006b560       ?get_address_of@?$__crt_unique_heap_ptr@PADU__crt_internal_free_policy@@@@QAEPAPAPADXZ 1006c560 f i libucrtd:argv_parsing.obj
 0001:0006b570       ?get_address_of@?$__crt_unique_heap_ptr@PA_WU__crt_internal_free_policy@@@@QAEPAPAPA_WXZ 1006c570 f i libucrtd:argv_parsing.obj
 0001:0006b5c0       ?is_valid@?$__crt_unique_heap_ptr@EU__crt_internal_free_policy@@@@QBE_NXZ 1006c5c0 f i libucrtd:argv_parsing.obj
 0001:0006b5f0       ?release@?$__crt_unique_heap_ptr@EU__crt_internal_free_policy@@@@QAEXXZ 1006c5f0 f i libucrtd:argv_parsing.obj
 0001:0006b620       ?release@?$__crt_unique_heap_ptr@PADU__crt_internal_free_policy@@@@QAEXXZ 1006c620 f i libucrtd:argv_parsing.obj
 0001:0006b650       ?release@?$__crt_unique_heap_ptr@PA_WU__crt_internal_free_policy@@@@QAEXXZ 1006c650 f i libucrtd:argv_parsing.obj
 0001:0006b6c0       ___acrt_allocate_buffer_for_argv 1006c6c0 f   libucrtd:argv_parsing.obj
 0001:0006b780       __configure_narrow_argv    1006c780 f   libucrtd:argv_parsing.obj
 0001:0006b7a0       __configure_wide_argv      1006c7a0 f   libucrtd:argv_parsing.obj
 0001:0006b7c0       __set_pgmptr               1006c7c0 f i libucrtd:argv_parsing.obj
 0001:0006b7d0       __set_wpgmptr              1006c7d0 f i libucrtd:argv_parsing.obj
 0001:0006b7df       ??$?R_W@__crt_internal_free_policy@@QBEXQB_W@Z 1006c7df f i libucrtd:environment_initialization.obj
 0001:0006bc46       ??$get_environment_from_os@$$$V@?$__crt_char_traits@D@@SAPADXZ 1006cc46 f i libucrtd:environment_initialization.obj
 0001:0006bc4b       ??$get_environment_from_os@$$$V@?$__crt_char_traits@_W@@SAPA_WXZ 1006cc4b f i libucrtd:environment_initialization.obj
 0001:0006bd6c       ??$set_variable_in_environment_nolock@PADH@?$__crt_char_traits@D@@SAH$$QAPAD$$QAH@Z 1006cd6c f i libucrtd:environment_initialization.obj
 0001:0006bd84       ??$set_variable_in_environment_nolock@PA_WH@?$__crt_char_traits@_W@@SAH$$QAPA_W$$QAH@Z 1006cd84 f i libucrtd:environment_initialization.obj
 0001:0006bd9c       ??$tcscpy_s@PADABIAAPAD@?$__crt_char_traits@D@@SAH$$QAPADABIAAPAD@Z 1006cd9c f i libucrtd:environment_initialization.obj
 0001:0006bdba       ??$tcscpy_s@PA_WABIAAPA_W@?$__crt_char_traits@_W@@SAH$$QAPA_WABIAAPA_W@Z 1006cdba f i libucrtd:environment_initialization.obj
 0001:0006bdd8       ??$tcslen@AAPAD@?$__crt_char_traits@D@@SAIAAPAD@Z 1006cdd8 f i libucrtd:environment_initialization.obj
 0001:0006bdf0       ??$tcslen@AAPA_W@?$__crt_char_traits@_W@@SAIAAPA_W@Z 1006cdf0 f i libucrtd:environment_initialization.obj
 0001:0006be0e       ??$uninitialize@A6AXAAPAPAD@Z@?$dual_state_global@PAPAD@__crt_state_management@@QAEXA6AXAAPAPAD@Z@Z 1006ce0e f i libucrtd:environment_initialization.obj
 0001:0006be4e       ??$uninitialize@A6AXAAPAPA_W@Z@?$dual_state_global@PAPA_W@__crt_state_management@@QAEXA6AXAAPAPA_W@Z@Z 1006ce4e f i libucrtd:environment_initialization.obj
 0001:0006bec4       ??0?$__crt_unique_heap_ptr@_WU__crt_internal_free_policy@@@@QAE@QA_W@Z 1006cec4 f i libucrtd:environment_initialization.obj
 0001:0006bed4       ??1?$__crt_unique_heap_ptr@_WU__crt_internal_free_policy@@@@QAE@XZ 1006ced4 f i libucrtd:environment_initialization.obj
 0001:0006bee9       ??B?$__crt_unique_heap_ptr@PADU__crt_internal_free_policy@@@@QBE_NXZ 1006cee9 f i libucrtd:environment_initialization.obj
 0001:0006bef1       ??B?$__crt_unique_heap_ptr@PA_WU__crt_internal_free_policy@@@@QBE_NXZ 1006cef1 f i libucrtd:environment_initialization.obj
 0001:0006bef9       ??B?$__crt_unique_heap_ptr@_WU__crt_internal_free_policy@@@@QBE_NXZ 1006cef9 f i libucrtd:environment_initialization.obj
 0001:0006bf01       ?__crt_compute_required_transform_buffer_count@@YAIIQBD@Z 1006cf01 f i libucrtd:environment_initialization.obj
 0001:0006bf1b       ?__crt_compute_required_transform_buffer_count@@YAIIQB_W@Z 1006cf1b f i libucrtd:environment_initialization.obj
 0001:0006bf37       ?__crt_transform_string@@YAIIQBDQA_WI@Z 1006cf37 f i libucrtd:environment_initialization.obj
 0001:0006bf54       ?__crt_transform_string@@YAIIQB_WQADI@Z 1006cf54 f i libucrtd:environment_initialization.obj
 0001:0006bf74       ?detach@?$__crt_unique_heap_ptr@DU__crt_internal_free_policy@@@@QAEPADXZ 1006cf74 f i libucrtd:environment_initialization.obj
 0001:0006bf7a       ?detach@?$__crt_unique_heap_ptr@_WU__crt_internal_free_policy@@@@QAEPA_WXZ 1006cf7a f i libucrtd:environment_initialization.obj
 0001:0006bf80       ?get@?$__crt_unique_heap_ptr@_WU__crt_internal_free_policy@@@@QBEPA_WXZ 1006cf80 f i libucrtd:environment_initialization.obj
 0001:0006bfa7       ?initialize@?$dual_state_global@PAPAD@__crt_state_management@@QAEXQAPAD@Z 1006cfa7 f i libucrtd:environment_initialization.obj
 0001:0006bfd8       ?initialize@?$dual_state_global@PAPA_W@__crt_state_management@@QAEXQAPA_W@Z 1006cfd8 f i libucrtd:environment_initialization.obj
 0001:0006c009       ?is_valid@?$__crt_unique_heap_ptr@PADU__crt_internal_free_policy@@@@QBE_NXZ 1006d009 f i libucrtd:environment_initialization.obj
 0001:0006c011       ?is_valid@?$__crt_unique_heap_ptr@PA_WU__crt_internal_free_policy@@@@QBE_NXZ 1006d011 f i libucrtd:environment_initialization.obj
 0001:0006c019       ?is_valid@?$__crt_unique_heap_ptr@_WU__crt_internal_free_policy@@@@QBE_NXZ 1006d019 f i libucrtd:environment_initialization.obj
 0001:0006c027       ?release@?$__crt_unique_heap_ptr@_WU__crt_internal_free_policy@@@@QAEXXZ 1006d027 f i libucrtd:environment_initialization.obj
 0001:0006c03c       ?value@?$dual_state_global@PAPAD@__crt_state_management@@QAEAAPAPADXZ 1006d03c f i libucrtd:environment_initialization.obj
 0001:0006c03f       ?value@?$dual_state_global@PAPA_W@__crt_state_management@@QAEAAPAPA_WXZ 1006d03f f i libucrtd:environment_initialization.obj
 0001:0006c042       ___dcrt_get_or_create_narrow_environment_nolock 1006d042 f   libucrtd:environment_initialization.obj
 0001:0006c047       ___dcrt_get_or_create_wide_environment_nolock 1006d047 f   libucrtd:environment_initialization.obj
 0001:0006c04c       ___dcrt_uninitialize_environments_nolock 1006d04c f   libucrtd:environment_initialization.obj
 0001:0006c083       ___p__environ              1006d083 f   libucrtd:environment_initialization.obj
 0001:0006c089       ___p__wenviron             1006d089 f   libucrtd:environment_initialization.obj
 0001:0006c08f       __get_initial_narrow_environment 1006d08f f   libucrtd:environment_initialization.obj
 0001:0006c0a3       __get_initial_wide_environment 1006d0a3 f   libucrtd:environment_initialization.obj
 0001:0006c0b7       __initialize_narrow_environment 1006d0b7 f   libucrtd:environment_initialization.obj
 0001:0006c0bc       __initialize_wide_environment 1006d0bc f   libucrtd:environment_initialization.obj
 0001:0006c0d0       ??$?BP6AXXZ@__crt_fast_encoded_nullptr_t@@QBEPAP6AXXZXZ 1006d0d0 f i libucrtd:onexit.obj
 0001:0006c0f0       ??$?RP6AXXZ@__crt_internal_free_policy@@QBEXQBQ6AXXZ@Z 1006d0f0 f i libucrtd:onexit.obj
 0001:0006c110       ??$?RV<lambda_821a00fc0e15a7fd532972332124005d>@@AAV<lambda_942beefa13ab35ff55f86422493ffd6a>@@V<lambda_3ab53bf64df1f1ff33dbc5b1929ce7a7>@@@?$__crt_seh_guarded_call@H@@QAEH$$QAV<lambda_821a00fc0e15a7fd532972332124005d>@@AAV<lambda_942beefa13ab35ff55f86422493ffd6a>@@$$QAV<lambda_3ab53bf64df1f1ff33dbc5b1929ce7a7>@@@Z 1006d110 f i libucrtd:onexit.obj
 0001:0006c1a0       ??$?RV<lambda_a12890e7f9ac9927a62bd0bbd5044c78>@@AAV<lambda_e971338317bfa523bb8920b43d823727>@@V<lambda_e618b16d59e79e236350cab8485990d2>@@@?$__crt_seh_guarded_call@H@@QAEH$$QAV<lambda_a12890e7f9ac9927a62bd0bbd5044c78>@@AAV<lambda_e971338317bfa523bb8920b43d823727>@@$$QAV<lambda_e618b16d59e79e236350cab8485990d2>@@@Z 1006d1a0 f i libucrtd:onexit.obj
 0001:0006c230       ??$__acrt_lock_and_call@V<lambda_942beefa13ab35ff55f86422493ffd6a>@@@@YAHW4__acrt_lock_id@@$$QAV<lambda_942beefa13ab35ff55f86422493ffd6a>@@@Z 1006d230 f i libucrtd:onexit.obj
 0001:0006c270       ??$__acrt_lock_and_call@V<lambda_e971338317bfa523bb8920b43d823727>@@@@YAHW4__acrt_lock_id@@$$QAV<lambda_e971338317bfa523bb8920b43d823727>@@@Z 1006d270 f i libucrtd:onexit.obj
 0001:0006c2b0       ??$__crt_fast_encode_pointer@P6AHXZ@@YAP6AHXZQ6AHXZ@Z 1006d2b0 f i libucrtd:onexit.obj
 0001:0006c3b0       ??0?$__crt_unique_heap_ptr@P6AXXZU__crt_internal_free_policy@@@@QAE@QAP6AXXZ@Z 1006d3b0 f i libucrtd:onexit.obj
 0001:0006c3d0       ??1?$__crt_unique_heap_ptr@P6AXXZU__crt_internal_free_policy@@@@QAE@XZ 1006d3d0 f i libucrtd:onexit.obj
 0001:0006c820       ?detach@?$__crt_unique_heap_ptr@P6AXXZU__crt_internal_free_policy@@@@QAEPAP6AXXZXZ 1006d820 f i libucrtd:onexit.obj
 0001:0006c850       ?release@?$__crt_unique_heap_ptr@P6AXXZU__crt_internal_free_policy@@@@QAEXXZ 1006d850 f i libucrtd:onexit.obj
 0001:0006c880       __crt_at_quick_exit        1006d880 f   libucrtd:onexit.obj
 0001:0006c8a0       __crt_atexit               1006d8a0 f   libucrtd:onexit.obj
 0001:0006c8c0       __execute_onexit_table     1006d8c0 f   libucrtd:onexit.obj
 0001:0006c8f0       __initialize_onexit_table  1006d8f0 f   libucrtd:onexit.obj
 0001:0006c950       __register_onexit_function 1006d950 f   libucrtd:onexit.obj
 0001:0006cba0       ?initialize@?$dual_state_global@PAU__crt_locale_data@@@__crt_state_management@@QAEXQAU__crt_locale_data@@@Z 1006dba0 f i libucrtd:initialization.obj
 0001:0006cbe0       ___acrt_initialize         1006dbe0 f   libucrtd:initialization.obj
 0001:0006cc00       ___acrt_thread_attach      1006dc00 f   libucrtd:initialization.obj
 0001:0006cc20       ___acrt_thread_detach      1006dc20 f   libucrtd:initialization.obj
 0001:0006cc30       ___acrt_uninitialize       1006dc30 f   libucrtd:initialization.obj
 0001:0006cc50       ___acrt_uninitialize_critical 1006dc50 f   libucrtd:initialization.obj
 0001:0006e500       __CrtCheckMemory           1006f500 f   libucrtd:debug_heap.obj
 0001:0006e690       __CrtDoForAllClientObjects 1006f690 f   libucrtd:debug_heap.obj
 0001:0006e7f0       __CrtDumpMemoryLeaks       1006f7f0 f   libucrtd:debug_heap.obj
 0001:0006e890       __CrtGetAllocHook          1006f890 f   libucrtd:debug_heap.obj
 0001:0006e8a0       __CrtGetDumpClient         1006f8a0 f   libucrtd:debug_heap.obj
 0001:0006e8b0       __CrtIsMemoryBlock         1006f8b0 f   libucrtd:debug_heap.obj
 0001:0006ea00       __CrtIsValidHeapPointer    1006fa00 f   libucrtd:debug_heap.obj
 0001:0006ea30       __CrtIsValidPointer        1006fa30 f   libucrtd:debug_heap.obj
 0001:0006ea60       __CrtMemCheckpoint         1006fa60 f   libucrtd:debug_heap.obj
 0001:0006ec90       __CrtMemDifference         1006fc90 f   libucrtd:debug_heap.obj
 0001:0006ef00       __CrtMemDumpAllObjectsSince 1006ff00 f   libucrtd:debug_heap.obj
 0001:0006efa0       __CrtMemDumpStatistics     1006ffa0 f   libucrtd:debug_heap.obj
 0001:0006f0d0       __CrtReportBlockType       100700d0 f   libucrtd:debug_heap.obj
 0001:0006f100       __CrtSetAllocHook          10070100 f   libucrtd:debug_heap.obj
 0001:0006f120       __CrtSetBreakAlloc         10070120 f   libucrtd:debug_heap.obj
 0001:0006f140       __CrtSetDbgBlockType       10070140 f   libucrtd:debug_heap.obj
 0001:0006f220       __CrtSetDbgFlag            10070220 f   libucrtd:debug_heap.obj
 0001:0006f390       __CrtSetDumpClient         10070390 f   libucrtd:debug_heap.obj
 0001:0006f3b0       ___p__crtBreakAlloc        100703b0 f   libucrtd:debug_heap.obj
 0001:0006f3c0       ___p__crtDbgFlag           100703c0 f   libucrtd:debug_heap.obj
 0001:0006f3d0       __aligned_free_dbg         100703d0 f   libucrtd:debug_heap.obj
 0001:0006f480       __aligned_malloc_dbg       10070480 f   libucrtd:debug_heap.obj
 0001:0006f4b0       __aligned_msize_dbg        100704b0 f   libucrtd:debug_heap.obj
 0001:0006f5e0       __aligned_offset_malloc_dbg 100705e0 f   libucrtd:debug_heap.obj
 0001:0006f7c0       __aligned_offset_realloc_dbg 100707c0 f   libucrtd:debug_heap.obj
 0001:0006fad0       __aligned_offset_recalloc_dbg 10070ad0 f   libucrtd:debug_heap.obj
 0001:0006fb90       __aligned_realloc_dbg      10070b90 f   libucrtd:debug_heap.obj
 0001:0006fbc0       __aligned_recalloc_dbg     10070bc0 f   libucrtd:debug_heap.obj
 0001:0006fbf0       __calloc_dbg               10070bf0 f   libucrtd:debug_heap.obj
 0001:0006fc60       __expand_dbg               10070c60 f   libucrtd:debug_heap.obj
 0001:0006fd90       __free_dbg                 10070d90 f   libucrtd:debug_heap.obj
 0001:0006fe40       __malloc_dbg               10070e40 f   libucrtd:debug_heap.obj
 0001:0006fe60       __msize_dbg                10070e60 f   libucrtd:debug_heap.obj
 0001:0006fff0       __realloc_dbg              10070ff0 f   libucrtd:debug_heap.obj
 0001:00070090       __recalloc_dbg             10071090 f   libucrtd:debug_heap.obj
 0001:00070140       __initterm                 10071140 f   libucrtd:initterm.obj
 0001:000701a0       __initterm_e               100711a0 f   libucrtd:initterm.obj
 0001:00070520       _strcpy_s                  10071520 f   libucrtd:strcpy_s.obj
 0001:00070950       _strcat_s                  10071950 f   libucrtd:strcat_s.obj
 0001:00070970       ??$?B$$A6AHI@Z@__crt_fast_encoded_nullptr_t@@QBEP6AHI@ZXZ 10071970 f i libucrtd:new_handler.obj
 0001:00070990       ??$__crt_fast_decode_pointer@P6AHI@Z@@YAP6AHI@ZQ6AHI@Z@Z 10071990 f i libucrtd:new_handler.obj
 0001:000709c0       ??$__crt_fast_encode_pointer@P6AHI@Z@@YAP6AHI@ZQ6AHI@Z@Z 100719c0 f i libucrtd:new_handler.obj
 0001:000709f0       ?_set_new_handler@@YAP6AHI@ZH@Z 100719f0 f   libucrtd:new_handler.obj
 0001:00070a50       ?initialize@?$dual_state_global@P6AHI@Z@__crt_state_management@@QAEXQ6AHI@Z@Z 10071a50 f i libucrtd:new_handler.obj
 0001:00070a90       ?value@?$dual_state_global@P6AHI@Z@__crt_state_management@@QAEAAP6AHI@ZXZ 10071a90 f i libucrtd:new_handler.obj
 0001:00070ab0       ___acrt_initialize_new_handler 10071ab0 f   libucrtd:new_handler.obj
 0001:00070ad0       __callnewh                 10071ad0 f   libucrtd:new_handler.obj
 0001:00070b30       __query_new_handler        10071b30 f   libucrtd:new_handler.obj
 0001:00070bc0       __set_new_handler          10071bc0 f   libucrtd:new_handler.obj
 0001:00070ca0       __get_terminate            10071ca0 f   libucrtd:terminate.obj
 0001:00070cc0       _set_terminate             10071cc0 f   libucrtd:terminate.obj
 0001:00070cf0       _terminate                 10071cf0 f   libucrtd:terminate.obj
 0001:000716d0       __makepath                 100726d0 f   libucrtd:makepath.obj
 0001:00071700       __makepath_s               10072700 f   libucrtd:makepath.obj
 0001:00071730       __wmakepath                10072730 f   libucrtd:makepath.obj
 0001:00071760       __wmakepath_s              10072760 f   libucrtd:makepath.obj
 0001:00072fd0       ??$tcsncpy_s@AAPADIAAPBDABI@?$__crt_char_traits@D@@SAHAAPAD$$QAIAAPBDABI@Z 10073fd0 f i libucrtd:splitpath.obj
 0001:00073000       ??$tcsncpy_s@AAPADIAAPBDH@?$__crt_char_traits@D@@SAHAAPAD$$QAIAAPBD$$QAH@Z 10074000 f i libucrtd:splitpath.obj
 0001:00073030       ??$tcsncpy_s@AAPA_WIAAPB_WABI@?$__crt_char_traits@_W@@SAHAAPA_W$$QAIAAPB_WABI@Z 10074030 f i libucrtd:splitpath.obj
 0001:00073060       ??$tcsncpy_s@AAPA_WIAAPB_WH@?$__crt_char_traits@_W@@SAHAAPA_W$$QAIAAPB_W$$QAH@Z 10074060 f i libucrtd:splitpath.obj
 0001:00073260       __splitpath                10074260 f   libucrtd:splitpath.obj
 0001:00073290       __splitpath_s              10074290 f   libucrtd:splitpath.obj
 0001:000732e0       __wsplitpath               100742e0 f   libucrtd:splitpath.obj
 0001:00073310       __wsplitpath_s             10074310 f   libucrtd:splitpath.obj
 0001:00073360       __set_abort_behavior       10074360 f   libucrtd:abort.obj
 0001:00073390       _abort                     10074390 f   libucrtd:abort.obj
 0001:00073400       _strcmp                    10074400 f   libucrtd:strcmp.obj
 0001:00073490       _strlen                    10074490 f   libucrtd:strlen.obj
 0001:00073520       _wcsncmp                   10074520 f   libucrtd:wcsncmp.obj
 0001:00073580       ??$is_overflow_condition@K@__crt_strtox@@YA_NIK@Z 10074580 f i libucrtd:atox.obj
 0001:000735e0       ??$is_overflow_condition@_K@__crt_strtox@@YA_NI_K@Z 100745e0 f i libucrtd:atox.obj
 0001:00073670       ??$make_c_string_character_source@D$$T@__crt_strtox@@YA?AV?$c_string_character_source@D@0@QBD$$T@Z 10074670 f i libucrtd:atox.obj
 0001:00073690       ??$make_c_string_character_source@_W$$T@__crt_strtox@@YA?AV?$c_string_character_source@_W@0@QB_W$$T@Z 10074690 f i libucrtd:atox.obj
 0001:000736b0       ??$parse_integer@KV?$c_string_character_source@D@__crt_strtox@@@__crt_strtox@@YAKQAU__crt_locale_pointers@@V?$c_string_character_source@D@0@H_N@Z 100746b0 f i libucrtd:atox.obj
 0001:00073a20       ??$parse_integer@KV?$c_string_character_source@_W@__crt_strtox@@@__crt_strtox@@YAKQAU__crt_locale_pointers@@V?$c_string_character_source@_W@0@H_N@Z 10074a20 f i libucrtd:atox.obj
 0001:00073d90       ??$parse_integer@_KV?$c_string_character_source@D@__crt_strtox@@@__crt_strtox@@YA_KQAU__crt_locale_pointers@@V?$c_string_character_source@D@0@H_N@Z 10074d90 f i libucrtd:atox.obj
 0001:000741b0       ??$parse_integer@_KV?$c_string_character_source@_W@__crt_strtox@@@__crt_strtox@@YA_KQAU__crt_locale_pointers@@V?$c_string_character_source@_W@0@H_N@Z 100751b0 f i libucrtd:atox.obj
 0001:000745e0       ??$parse_integer_from_string@JD$$T@__crt_strtox@@YAJQBD$$THQAU__crt_locale_pointers@@@Z 100755e0 f i libucrtd:atox.obj
 0001:00074620       ??$parse_integer_from_string@J_W$$T@__crt_strtox@@YAJQB_W$$THQAU__crt_locale_pointers@@@Z 10075620 f i libucrtd:atox.obj
 0001:00074660       ??$parse_integer_from_string@_JD$$T@__crt_strtox@@YA_JQBD$$THQAU__crt_locale_pointers@@@Z 10075660 f i libucrtd:atox.obj
 0001:000746a0       ??$parse_integer_from_string@_J_W$$T@__crt_strtox@@YA_JQB_W$$THQAU__crt_locale_pointers@@@Z 100756a0 f i libucrtd:atox.obj
 0001:000746e0       ??0?$c_string_character_source@D@__crt_strtox@@QAE@QBDQAPBD@Z 100756e0 f i libucrtd:atox.obj
 0001:00074720       ??0?$c_string_character_source@_W@__crt_strtox@@QAE@QB_WQAPB_W@Z 10075720 f i libucrtd:atox.obj
 0001:00074760       ??1?$c_string_character_source@D@__crt_strtox@@QAE@XZ 10075760 f i libucrtd:atox.obj
 0001:00074790       ??1?$c_string_character_source@_W@__crt_strtox@@QAE@XZ 10075790 f i libucrtd:atox.obj
 0001:000747c0       ?get@?$c_string_character_source@D@__crt_strtox@@QAEDXZ 100757c0 f i libucrtd:atox.obj
 0001:000747f0       ?get@?$c_string_character_source@_W@__crt_strtox@@QAE_WXZ 100757f0 f i libucrtd:atox.obj
 0001:00074820       ?is_space@__crt_strtox@@YA_NDQAU__crt_locale_pointers@@@Z 10075820 f i libucrtd:atox.obj
 0001:00074860       ?is_space@__crt_strtox@@YA_N_WPAU__crt_locale_pointers@@@Z 10075860 f i libucrtd:atox.obj
 0001:00074890       ?maximum_signed_value@__crt_strtox@@YAJK@Z 10075890 f i libucrtd:atox.obj
 0001:000748a0       ?maximum_signed_value@__crt_strtox@@YA_J_K@Z 100758a0 f i libucrtd:atox.obj
 0001:000748b0       ?minimum_signed_value@__crt_strtox@@YAJK@Z 100758b0 f i libucrtd:atox.obj
 0001:000748c0       ?minimum_signed_value@__crt_strtox@@YA_J_K@Z 100758c0 f i libucrtd:atox.obj
 0001:000748d0       ?parse_digit@__crt_strtox@@YAID@Z 100758d0 f i libucrtd:atox.obj
 0001:00074930       ?parse_digit@__crt_strtox@@YAI_W@Z 10075930 f i libucrtd:atox.obj
 0001:000749b0       ?restore_state@?$c_string_character_source@D@__crt_strtox@@QAE_NQBD@Z 100759b0 f i libucrtd:atox.obj
 0001:000749d0       ?restore_state@?$c_string_character_source@_W@__crt_strtox@@QAE_NQB_W@Z 100759d0 f i libucrtd:atox.obj
 0001:000749f0       ?save_state@?$c_string_character_source@D@__crt_strtox@@QBEPBDXZ 100759f0 f i libucrtd:atox.obj
 0001:00074a10       ?save_state@?$c_string_character_source@_W@__crt_strtox@@QBEPB_WXZ 10075a10 f i libucrtd:atox.obj
 0001:00074a30       ?unget@?$c_string_character_source@D@__crt_strtox@@QAEXD@Z 10075a30 f i libucrtd:atox.obj
 0001:00074ae0       ?unget@?$c_string_character_source@_W@__crt_strtox@@QAEX_W@Z 10075ae0 f i libucrtd:atox.obj
 0001:00074b90       ?validate@?$c_string_character_source@D@__crt_strtox@@QBE_NXZ 10075b90 f i libucrtd:atox.obj
 0001:00074c20       ?validate@?$c_string_character_source@_W@__crt_strtox@@QBE_NXZ 10075c20 f i libucrtd:atox.obj
 0001:00074cb0       ?wide_character_to_digit@__crt_strtox@@YAH_W@Z 10075cb0 f i libucrtd:atox.obj
 0001:00074fe0       __atoi64                   10075fe0 f   libucrtd:atox.obj
 0001:00075000       __atoi64_l                 10076000 f   libucrtd:atox.obj
 0001:00075020       __atoi_l                   10076020 f   libucrtd:atox.obj
 0001:00075040       __atol_l                   10076040 f   libucrtd:atox.obj
 0001:00075060       __atoll_l                  10076060 f   libucrtd:atox.obj
 0001:00075080       __wtoi                     10076080 f   libucrtd:atox.obj
 0001:000750a0       __wtoi64                   100760a0 f   libucrtd:atox.obj
 0001:000750c0       __wtoi64_l                 100760c0 f   libucrtd:atox.obj
 0001:000750e0       __wtoi_l                   100760e0 f   libucrtd:atox.obj
 0001:00075100       __wtol                     10076100 f   libucrtd:atox.obj
 0001:00075120       __wtol_l                   10076120 f   libucrtd:atox.obj
 0001:00075140       __wtoll                    10076140 f   libucrtd:atox.obj
 0001:00075160       __wtoll_l                  10076160 f   libucrtd:atox.obj
 0001:00075180       _atoi                      10076180 f   libucrtd:atox.obj
 0001:000751a0       _atol                      100761a0 f   libucrtd:atox.obj
 0001:000751c0       _atoll                     100761c0 f   libucrtd:atox.obj
 0001:000751e0       _strncmp                   100761e0 f   libucrtd:strncmp.obj
 0001:00075740       __tolower                  10076740 f   libucrtd:tolower_toupper.obj
 0001:00075750       __tolower_l                10076750 f   libucrtd:tolower_toupper.obj
 0001:00075770       __toupper                  10076770 f   libucrtd:tolower_toupper.obj
 0001:00075780       __toupper_l                10076780 f   libucrtd:tolower_toupper.obj
 0001:000757a0       _tolower                   100767a0 f   libucrtd:tolower_toupper.obj
 0001:00075800       _toupper                   10076800 f   libucrtd:tolower_toupper.obj
 0001:00075860       __CrtGetDebugFillThreshold 10076860 f   libucrtd:debug_fill_threshold.obj
 0001:00075870       __CrtSetDebugFillThreshold 10076870 f   libucrtd:debug_fill_threshold.obj
 0001:00075890       ??$make_c_string_character_source@DPAPAD@__crt_strtox@@YA?AV?$c_string_character_source@D@0@QBDQAPAD@Z 10076890 f i libucrtd:strtox.obj
 0001:000758b0       ??$make_c_string_character_source@_WPAPA_W@__crt_strtox@@YA?AV?$c_string_character_source@_W@0@QB_WQAPA_W@Z 100768b0 f i libucrtd:strtox.obj
 0001:000758d0       ??$parse_integer_from_string@JDPAPAD@__crt_strtox@@YAJQBDQAPADHQAU__crt_locale_pointers@@@Z 100768d0 f i libucrtd:strtox.obj
 0001:00075910       ??$parse_integer_from_string@J_WPAPA_W@__crt_strtox@@YAJQB_WQAPA_WHQAU__crt_locale_pointers@@@Z 10076910 f i libucrtd:strtox.obj
 0001:00075950       ??$parse_integer_from_string@KDPAPAD@__crt_strtox@@YAKQBDQAPADHQAU__crt_locale_pointers@@@Z 10076950 f i libucrtd:strtox.obj
 0001:00075990       ??$parse_integer_from_string@K_WPAPA_W@__crt_strtox@@YAKQB_WQAPA_WHQAU__crt_locale_pointers@@@Z 10076990 f i libucrtd:strtox.obj
 0001:000759d0       ??$parse_integer_from_string@_JDPAPAD@__crt_strtox@@YA_JQBDQAPADHQAU__crt_locale_pointers@@@Z 100769d0 f i libucrtd:strtox.obj
 0001:00075a10       ??$parse_integer_from_string@_J_WPAPA_W@__crt_strtox@@YA_JQB_WQAPA_WHQAU__crt_locale_pointers@@@Z 10076a10 f i libucrtd:strtox.obj
 0001:00075a50       ??$parse_integer_from_string@_KDPAPAD@__crt_strtox@@YA_KQBDQAPADHQAU__crt_locale_pointers@@@Z 10076a50 f i libucrtd:strtox.obj
 0001:00075a90       ??$parse_integer_from_string@_K_WPAPA_W@__crt_strtox@@YA_KQB_WQAPA_WHQAU__crt_locale_pointers@@@Z 10076a90 f i libucrtd:strtox.obj
 0001:00075ad0       __strtoi64                 10076ad0 f   libucrtd:strtox.obj
 0001:00075af0       __strtoi64_l               10076af0 f   libucrtd:strtox.obj
 0001:00075b10       __strtoimax_l              10076b10 f   libucrtd:strtox.obj
 0001:00075b30       __strtol_l                 10076b30 f   libucrtd:strtox.obj
 0001:00075b50       __strtoll_l                10076b50 f   libucrtd:strtox.obj
 0001:00075b70       __strtoui64                10076b70 f   libucrtd:strtox.obj
 0001:00075b90       __strtoui64_l              10076b90 f   libucrtd:strtox.obj
 0001:00075bb0       __strtoul_l                10076bb0 f   libucrtd:strtox.obj
 0001:00075bd0       __strtoull_l               10076bd0 f   libucrtd:strtox.obj
 0001:00075bf0       __strtoumax_l              10076bf0 f   libucrtd:strtox.obj
 0001:00075c10       __wcstoi64                 10076c10 f   libucrtd:strtox.obj
 0001:00075c30       __wcstoi64_l               10076c30 f   libucrtd:strtox.obj
 0001:00075c50       __wcstoimax_l              10076c50 f   libucrtd:strtox.obj
 0001:00075c70       __wcstol_l                 10076c70 f   libucrtd:strtox.obj
 0001:00075c90       __wcstoll_l                10076c90 f   libucrtd:strtox.obj
 0001:00075cb0       __wcstoui64                10076cb0 f   libucrtd:strtox.obj
 0001:00075cd0       __wcstoui64_l              10076cd0 f   libucrtd:strtox.obj
 0001:00075cf0       __wcstoul_l                10076cf0 f   libucrtd:strtox.obj
 0001:00075d10       __wcstoull_l               10076d10 f   libucrtd:strtox.obj
 0001:00075d30       __wcstoumax_l              10076d30 f   libucrtd:strtox.obj
 0001:00075d50       _strtoimax                 10076d50 f   libucrtd:strtox.obj
 0001:00075d70       _strtol                    10076d70 f   libucrtd:strtox.obj
 0001:00075d90       _strtoll                   10076d90 f   libucrtd:strtox.obj
 0001:00075db0       _strtoul                   10076db0 f   libucrtd:strtox.obj
 0001:00075dd0       _strtoull                  10076dd0 f   libucrtd:strtox.obj
 0001:00075df0       _strtoumax                 10076df0 f   libucrtd:strtox.obj
 0001:00075e10       _wcstoimax                 10076e10 f   libucrtd:strtox.obj
 0001:00075e30       _wcstol                    10076e30 f   libucrtd:strtox.obj
 0001:00075e50       _wcstoll                   10076e50 f   libucrtd:strtox.obj
 0001:00075e70       _wcstoul                   10076e70 f   libucrtd:strtox.obj
 0001:00075e90       _wcstoull                  10076e90 f   libucrtd:strtox.obj
 0001:00075eb0       _wcstoumax                 10076eb0 f   libucrtd:strtox.obj
 0001:00075ed0       __mbtowc_l                 10076ed0 f   libucrtd:mbtowc.obj
 0001:00076110       _mbtowc                    10077110 f   libucrtd:mbtowc.obj
 0001:00076130       __wctomb_l                 10077130 f   libucrtd:wctomb.obj
 0001:000761b0       __wctomb_s_l               100771b0 f   libucrtd:wctomb.obj
 0001:000764f0       _wctomb                    100774f0 f   libucrtd:wctomb.obj
 0001:00076540       _wctomb_s                  10077540 f   libucrtd:wctomb.obj
 0001:00076d40       ??1?$__crt_simd_cleanup_guard@$00@@QAE@XZ 10077d40 f i libucrtd:strnlen.obj
 0001:00076d50       ??1?$__crt_simd_cleanup_guard@$0A@@@QAE@XZ 10077d50 f i libucrtd:strnlen.obj
 0001:00076d60       ?compare_equals@?$__crt_simd_traits@$00E@@SA?AT__m256i@@T2@0@Z 10077d60 f i libucrtd:strnlen.obj
 0001:00076da0       ?compare_equals@?$__crt_simd_traits@$00G@@SA?AT__m256i@@T2@0@Z 10077da0 f i libucrtd:strnlen.obj
 0001:00076de0       ?compare_equals@?$__crt_simd_traits@$0A@E@@SA?AT__m128i@@T2@0@Z 10077de0 f i libucrtd:strnlen.obj
 0001:00076e20       ?compare_equals@?$__crt_simd_traits@$0A@G@@SA?AT__m128i@@T2@0@Z 10077e20 f i libucrtd:strnlen.obj
 0001:00076e60       ?compute_byte_mask@?$__crt_simd_pack_traits@$00@@SAHT__m256i@@@Z 10077e60 f i libucrtd:strnlen.obj
 0001:00076e90       ?compute_byte_mask@?$__crt_simd_pack_traits@$0A@@@SAHT__m128i@@@Z 10077e90 f i libucrtd:strnlen.obj
 0001:00076ec0       ?get_zero_pack@?$__crt_simd_pack_traits@$00@@SA?AT__m256i@@XZ 10077ec0 f i libucrtd:strnlen.obj
 0001:00076ef0       ?get_zero_pack@?$__crt_simd_pack_traits@$0A@@@SA?AT__m128i@@XZ 10077ef0 f i libucrtd:strnlen.obj
 0001:00076f20       _strnlen                   10077f20 f   libucrtd:strnlen.obj
 0001:00076f40       _wcsnlen                   10077f40 f   libucrtd:strnlen.obj
 0001:00076f60       ??$?RU__acrt_ptd@@@__crt_internal_free_policy@@QBEXQBU__acrt_ptd@@@Z 10077f60 f i libucrtd:per_thread_data.obj
 0001:00076f80       ??$?RV<lambda_3518db117f0e7cdb002338c5d3c47b6c>@@AAV<lambda_b2ea41f6bbb362cd97d94c6828d90b61>@@V<lambda_abdedf541bb04549bc734292b4a045d4>@@@?$__crt_seh_guarded_call@X@@QAEX$$QAV<lambda_3518db117f0e7cdb002338c5d3c47b6c>@@AAV<lambda_b2ea41f6bbb362cd97d94c6828d90b61>@@$$QAV<lambda_abdedf541bb04549bc734292b4a045d4>@@@Z 10077f80 f i libucrtd:per_thread_data.obj
 0001:00077000       ??$?RV<lambda_5b71d36f03204c0beab531769a5b5694>@@AAV<lambda_be2b3da3f62db62e9dad5dc70221a656>@@V<lambda_8f9ce462984622f9bf76b59e2aaaf805>@@@?$__crt_seh_guarded_call@X@@QAEX$$QAV<lambda_5b71d36f03204c0beab531769a5b5694>@@AAV<lambda_be2b3da3f62db62e9dad5dc70221a656>@@$$QAV<lambda_8f9ce462984622f9bf76b59e2aaaf805>@@@Z 10078000 f i libucrtd:per_thread_data.obj
 0001:00077080       ??$?RV<lambda_952b238c83a62ef8e81c72265e1e9aa0>@@AAV<lambda_801f60a70ab65355beb13c41cbe335bb>@@V<lambda_84d84f98815add542a0d6e6ca338feb2>@@@?$__crt_seh_guarded_call@X@@QAEX$$QAV<lambda_952b238c83a62ef8e81c72265e1e9aa0>@@AAV<lambda_801f60a70ab65355beb13c41cbe335bb>@@$$QAV<lambda_84d84f98815add542a0d6e6ca338feb2>@@@Z 10078080 f i libucrtd:per_thread_data.obj
 0001:00077100       ??$?RV<lambda_9df27f884b057bc3edfc946cb5b7cf47>@@AAV<lambda_e69574bed617af4e071282c136b37893>@@V<lambda_cc0d902bcbbeb830f749456577db4721>@@@?$__crt_seh_guarded_call@X@@QAEX$$QAV<lambda_9df27f884b057bc3edfc946cb5b7cf47>@@AAV<lambda_e69574bed617af4e071282c136b37893>@@$$QAV<lambda_cc0d902bcbbeb830f749456577db4721>@@@Z 10078100 f i libucrtd:per_thread_data.obj
 0001:00077180       ??$__acrt_lock_and_call@V<lambda_801f60a70ab65355beb13c41cbe335bb>@@@@YAXW4__acrt_lock_id@@$$QAV<lambda_801f60a70ab65355beb13c41cbe335bb>@@@Z 10078180 f i libucrtd:per_thread_data.obj
 0001:000771c0       ??$__acrt_lock_and_call@V<lambda_b2ea41f6bbb362cd97d94c6828d90b61>@@@@YAXW4__acrt_lock_id@@$$QAV<lambda_b2ea41f6bbb362cd97d94c6828d90b61>@@@Z 100781c0 f i libucrtd:per_thread_data.obj
 0001:00077200       ??$__acrt_lock_and_call@V<lambda_be2b3da3f62db62e9dad5dc70221a656>@@@@YAXW4__acrt_lock_id@@$$QAV<lambda_be2b3da3f62db62e9dad5dc70221a656>@@@Z 10078200 f i libucrtd:per_thread_data.obj
 0001:00077240       ??$__acrt_lock_and_call@V<lambda_e69574bed617af4e071282c136b37893>@@@@YAXW4__acrt_lock_id@@$$QAV<lambda_e69574bed617af4e071282c136b37893>@@@Z 10078240 f i libucrtd:per_thread_data.obj
 0001:00077410       ??0?$__crt_unique_heap_ptr@U__acrt_ptd@@U__crt_internal_free_policy@@@@QAE@QAU__acrt_ptd@@@Z 10078410 f i libucrtd:per_thread_data.obj
 0001:00077430       ??0__crt_scoped_get_last_error_reset@@QAE@XZ 10078430 f i libucrtd:per_thread_data.obj
 0001:00077450       ??1?$__crt_unique_heap_ptr@U__acrt_ptd@@U__crt_internal_free_policy@@@@QAE@XZ 10078450 f i libucrtd:per_thread_data.obj
 0001:00077470       ??1__crt_scoped_get_last_error_reset@@QAE@XZ 10078470 f i libucrtd:per_thread_data.obj
 0001:00077490       ??B?$__crt_unique_heap_ptr@U__acrt_ptd@@U__crt_internal_free_policy@@@@QBE_NXZ 10078490 f i libucrtd:per_thread_data.obj
 0001:00077770       ?dangerous_get_state_array@?$dual_state_global@PAU__crt_locale_data@@@__crt_state_management@@QAEPAPAU__crt_locale_data@@XZ 10078770 f i libucrtd:per_thread_data.obj
 0001:000778f0       ?detach@?$__crt_unique_heap_ptr@U__acrt_ptd@@U__crt_internal_free_policy@@@@QAEPAU__acrt_ptd@@XZ 100788f0 f i libucrtd:per_thread_data.obj
 0001:00077920       ?get@?$__crt_unique_heap_ptr@U__acrt_ptd@@U__crt_internal_free_policy@@@@QBEPAU__acrt_ptd@@XZ 10078920 f i libucrtd:per_thread_data.obj
 0001:00077a60       ?is_valid@?$__crt_unique_heap_ptr@U__acrt_ptd@@U__crt_internal_free_policy@@@@QBE_NXZ 10078a60 f i libucrtd:per_thread_data.obj
 0001:00077a90       ?release@?$__crt_unique_heap_ptr@U__acrt_ptd@@U__crt_internal_free_policy@@@@QAEXXZ 10078a90 f i libucrtd:per_thread_data.obj
 0001:00077b80       ?value@?$dual_state_global@PAU__crt_locale_data@@@__crt_state_management@@QAEAAPAU__crt_locale_data@@XZ 10078b80 f i libucrtd:per_thread_data.obj
 0001:00077ba0       ___acrt_freeptd            10078ba0 f   libucrtd:per_thread_data.obj
 0001:00077bd0       ___acrt_getptd             10078bd0 f   libucrtd:per_thread_data.obj
 0001:00077bf0       ___acrt_getptd_noexit      10078bf0 f   libucrtd:per_thread_data.obj
 0001:00077c00       ___acrt_initialize_ptd     10078c00 f   libucrtd:per_thread_data.obj
 0001:00077c40       ___acrt_uninitialize_ptd   10078c40 f   libucrtd:per_thread_data.obj
 0001:00077c70       ___threadhandle            10078c70 f   libucrtd:per_thread_data.obj
 0001:00077c80       ___threadid                10078c80 f   libucrtd:per_thread_data.obj
 0001:00077c90       ___acrt_update_locale_info 10078c90 f   libucrtd:locale_update.obj
 0001:00077cd0       ___acrt_update_multibyte_info 10078cd0 f   libucrtd:locale_update.obj
 0001:00077d00       ?__acrt_fp_classify@@YA?AW4__acrt_fp_class@@ABN@Z 10078d00 f i libucrtd:cvt.obj
 0001:00077e20       ?__acrt_fp_is_negative@@YA_NABN@Z 10078e20 f i libucrtd:cvt.obj
 0001:00078ec0       ?strrchr@@YAPADQADH@Z      10079ec0 f i libucrtd:cvt.obj
 0001:00078ee0       ___acrt_fp_format          10079ee0 f   libucrtd:cvt.obj
 0001:00079370       __fputwc_nolock            1007a370 f   libucrtd:fputwc.obj
 0001:00079550       __fputwchar                1007a550 f   libucrtd:fputwc.obj
 0001:00079570       __putwc_nolock             1007a570 f   libucrtd:fputwc.obj
 0001:00079590       _fputwc                    1007a590 f   libucrtd:fputwc.obj
 0001:000796a0       _putwc                     1007a6a0 f   libucrtd:fputwc.obj
 0001:000796c0       _putwchar                  1007a6c0 f   libucrtd:fputwc.obj
 0001:000796e0       ?lowio_handle@__crt_stdio_stream@@QBEHXZ 1007a6e0 f i libucrtd:fileno.obj
 0001:00079700       __fileno                   1007a700 f   libucrtd:fileno.obj
 0001:000797a0       ??$?RPAU__crt_stdio_stream_data@@@__crt_internal_free_policy@@QBEXQBQAU__crt_stdio_stream_data@@@Z 1007a7a0 f i libucrtd:_file.obj
 0001:000797c0       ??0?$__crt_unique_heap_ptr@PAU__crt_stdio_stream_data@@U__crt_internal_free_policy@@@@QAE@QAPAU__crt_stdio_stream_data@@@Z 1007a7c0 f i libucrtd:_file.obj
 0001:000797e0       ??1?$__crt_unique_heap_ptr@PAU__crt_stdio_stream_data@@U__crt_internal_free_policy@@@@QAE@XZ 1007a7e0 f i libucrtd:_file.obj
 0001:00079800       ?detach@?$__crt_unique_heap_ptr@PAU__crt_stdio_stream_data@@U__crt_internal_free_policy@@@@QAEPAPAU__crt_stdio_stream_data@@XZ 1007a800 f i libucrtd:_file.obj
 0001:00079830       ?release@?$__crt_unique_heap_ptr@PAU__crt_stdio_stream_data@@U__crt_internal_free_policy@@@@QAEXXZ 1007a830 f i libucrtd:_file.obj
 0001:00079860       ___acrt_initialize_stdio   1007a860 f   libucrtd:_file.obj
 0001:000799d0       ___acrt_iob_func           1007a9d0 f   libucrtd:_file.obj
 0001:000799e0       ___acrt_uninitialize_stdio 1007a9e0 f   libucrtd:_file.obj
 0001:00079a60       __get_stream_buffer_pointers 1007aa60 f   libucrtd:_file.obj
 0001:00079b40       __lock_file                1007ab40 f   libucrtd:_file.obj
 0001:00079b70       __unlock_file              1007ab70 f   libucrtd:_file.obj
 0001:00079ba0       __get_printf_count_output  1007aba0 f   libucrtd:printf_count_output.obj
 0001:00079bd0       __set_printf_count_output  1007abd0 f   libucrtd:printf_count_output.obj
 0001:00079c30       ?has_any_buffer@__crt_stdio_stream@@QBE_NXZ 1007ac30 f i libucrtd:_sftbuf.obj
 0001:00079c50       ?has_any_of@__crt_stdio_stream@@QBE_NJ@Z 1007ac50 f i libucrtd:_sftbuf.obj
 0001:00079c90       ?has_temporary_buffer@__crt_stdio_stream@@QBE_NXZ 1007ac90 f i libucrtd:_sftbuf.obj
 0001:00079cb0       ?set_flags@__crt_stdio_stream@@QBE_NJ@Z 1007acb0 f i libucrtd:_sftbuf.obj
 0001:00079d00       ?unset_flags@__crt_stdio_stream@@QBE_NJ@Z 1007ad00 f i libucrtd:_sftbuf.obj
 0001:00079d50       ___acrt_stdio_begin_temporary_buffering_nolock 1007ad50 f   libucrtd:_sftbuf.obj
 0001:00079f10       ___acrt_stdio_end_temporary_buffering_nolock 1007af10 f   libucrtd:_sftbuf.obj
 0001:00079fa0       ??$?RU__crt_locale_data@@@__crt_internal_free_policy@@QBEXQBU__crt_locale_data@@@Z 1007afa0 f i libucrtd:wsetlocale.obj
 0001:00079fc0       ??$?RU__crt_locale_pointers@@@__crt_internal_free_policy@@QBEXQBU__crt_locale_pointers@@@Z 1007afc0 f i libucrtd:wsetlocale.obj
 0001:00079fe0       ??$?RU__crt_multibyte_data@@@__crt_internal_free_policy@@QBEXQBU__crt_multibyte_data@@@Z 1007afe0 f i libucrtd:wsetlocale.obj
 0001:0007a000       ??$?RV<lambda_0f92d0c5a8007722f95b3b6c71cd8e3e>@@AAV<lambda_321f9d61c14d59ff00145e45db1313e0>@@V<lambda_3298c911d7b53f44106027a7fde9a80a>@@@?$__crt_seh_guarded_call@X@@QAEX$$QAV<lambda_0f92d0c5a8007722f95b3b6c71cd8e3e>@@AAV<lambda_321f9d61c14d59ff00145e45db1313e0>@@$$QAV<lambda_3298c911d7b53f44106027a7fde9a80a>@@@Z 1007b000 f i libucrtd:wsetlocale.obj
 0001:0007a080       ??$?RV<lambda_507d9fd6b66e39451a8852ba73f804a7>@@AAV<lambda_565169b3e3b494427ce1bebdd17b54ac>@@AAV<lambda_f51fe5fd7c79a33db34fc9310f277369>@@@?$__crt_seh_guarded_call@X@@QAEX$$QAV<lambda_507d9fd6b66e39451a8852ba73f804a7>@@AAV<lambda_565169b3e3b494427ce1bebdd17b54ac>@@AAV<lambda_f51fe5fd7c79a33db34fc9310f277369>@@@Z 1007b080 f i libucrtd:wsetlocale.obj
 0001:0007a100       ??$?RV<lambda_76aaead6e312921abc834cb00a638bdd>@@AAV<lambda_176e34f99554166dd2fac165c457248c>@@V<lambda_998ee1c9f4290b119b936bcd6215875a>@@@?$__crt_seh_guarded_call@X@@QAEX$$QAV<lambda_76aaead6e312921abc834cb00a638bdd>@@AAV<lambda_176e34f99554166dd2fac165c457248c>@@$$QAV<lambda_998ee1c9f4290b119b936bcd6215875a>@@@Z 1007b100 f i libucrtd:wsetlocale.obj
 0001:0007a180       ??$?RV<lambda_c9469061b39d205f0f236529d4a41659>@@AAV<lambda_b7fb1a997d3ebc0cc0186c5835178808>@@V<lambda_14b92c79d699846b5cc916cd4cf280e4>@@@?$__crt_seh_guarded_call@X@@QAEX$$QAV<lambda_c9469061b39d205f0f236529d4a41659>@@AAV<lambda_b7fb1a997d3ebc0cc0186c5835178808>@@$$QAV<lambda_14b92c79d699846b5cc916cd4cf280e4>@@@Z 1007b180 f i libucrtd:wsetlocale.obj
 0001:0007a200       ??$__acrt_lock_and_call@V<lambda_176e34f99554166dd2fac165c457248c>@@@@YAXW4__acrt_lock_id@@$$QAV<lambda_176e34f99554166dd2fac165c457248c>@@@Z 1007b200 f i libucrtd:wsetlocale.obj
 0001:0007a240       ??$__acrt_lock_and_call@V<lambda_321f9d61c14d59ff00145e45db1313e0>@@@@YAXW4__acrt_lock_id@@$$QAV<lambda_321f9d61c14d59ff00145e45db1313e0>@@@Z 1007b240 f i libucrtd:wsetlocale.obj
 0001:0007a280       ??$__acrt_lock_and_call@V<lambda_b7fb1a997d3ebc0cc0186c5835178808>@@@@YAXW4__acrt_lock_id@@$$QAV<lambda_b7fb1a997d3ebc0cc0186c5835178808>@@@Z 1007b280 f i libucrtd:wsetlocale.obj
 0001:0007a2c0       ??$__crt_call_and_cleanup@V<lambda_565169b3e3b494427ce1bebdd17b54ac>@@V<lambda_f51fe5fd7c79a33db34fc9310f277369>@@@@YAX$$QAV<lambda_565169b3e3b494427ce1bebdd17b54ac>@@$$QAV<lambda_f51fe5fd7c79a33db34fc9310f277369>@@@Z 1007b2c0 f i libucrtd:wsetlocale.obj
 0001:0007a2f0       ??$__vcrt_va_start_verify_argument_type@H@@YAXXZ 1007b2f0 f i libucrtd:wsetlocale.obj
 0001:0007a4a0       ??0?$__crt_unique_heap_ptr@U__crt_locale_data@@U__crt_internal_free_policy@@@@QAE@QAU__crt_locale_data@@@Z 1007b4a0 f i libucrtd:wsetlocale.obj
 0001:0007a4c0       ??0?$__crt_unique_heap_ptr@U__crt_locale_pointers@@U__crt_internal_free_policy@@@@QAE@QAU__crt_locale_pointers@@@Z 1007b4c0 f i libucrtd:wsetlocale.obj
 0001:0007a4e0       ??0?$__crt_unique_heap_ptr@U__crt_multibyte_data@@U__crt_internal_free_policy@@@@QAE@QAU__crt_multibyte_data@@@Z 1007b4e0 f i libucrtd:wsetlocale.obj
 0001:0007a500       ??1?$__crt_unique_heap_ptr@U__crt_locale_data@@U__crt_internal_free_policy@@@@QAE@XZ 1007b500 f i libucrtd:wsetlocale.obj
 0001:0007a520       ??1?$__crt_unique_heap_ptr@U__crt_locale_pointers@@U__crt_internal_free_policy@@@@QAE@XZ 1007b520 f i libucrtd:wsetlocale.obj
 0001:0007a540       ??1?$__crt_unique_heap_ptr@U__crt_multibyte_data@@U__crt_internal_free_policy@@@@QAE@XZ 1007b540 f i libucrtd:wsetlocale.obj
 0001:0007a560       ??B?$__crt_unique_heap_ptr@U__crt_locale_data@@U__crt_internal_free_policy@@@@QBE_NXZ 1007b560 f i libucrtd:wsetlocale.obj
 0001:0007a580       ??B?$__crt_unique_heap_ptr@U__crt_locale_pointers@@U__crt_internal_free_policy@@@@QBE_NXZ 1007b580 f i libucrtd:wsetlocale.obj
 0001:0007a5a0       ??B?$__crt_unique_heap_ptr@U__crt_multibyte_data@@U__crt_internal_free_policy@@@@QBE_NXZ 1007b5a0 f i libucrtd:wsetlocale.obj
 0001:0007a8e0       ?detach@?$__crt_unique_heap_ptr@U__crt_locale_data@@U__crt_internal_free_policy@@@@QAEPAU__crt_locale_data@@XZ 1007b8e0 f i libucrtd:wsetlocale.obj
 0001:0007a910       ?detach@?$__crt_unique_heap_ptr@U__crt_locale_pointers@@U__crt_internal_free_policy@@@@QAEPAU__crt_locale_pointers@@XZ 1007b910 f i libucrtd:wsetlocale.obj
 0001:0007a940       ?detach@?$__crt_unique_heap_ptr@U__crt_multibyte_data@@U__crt_internal_free_policy@@@@QAEPAU__crt_multibyte_data@@XZ 1007b940 f i libucrtd:wsetlocale.obj
 0001:0007a970       ?get@?$__crt_unique_heap_ptr@U__crt_locale_data@@U__crt_internal_free_policy@@@@QBEPAU__crt_locale_data@@XZ 1007b970 f i libucrtd:wsetlocale.obj
 0001:0007a990       ?get@?$__crt_unique_heap_ptr@U__crt_locale_pointers@@U__crt_internal_free_policy@@@@QBEPAU__crt_locale_pointers@@XZ 1007b990 f i libucrtd:wsetlocale.obj
 0001:0007a9b0       ?get@?$__crt_unique_heap_ptr@U__crt_multibyte_data@@U__crt_internal_free_policy@@@@QBEPAU__crt_multibyte_data@@XZ 1007b9b0 f i libucrtd:wsetlocale.obj
 0001:0007a9d0       ?is_valid@?$__crt_unique_heap_ptr@U__crt_locale_data@@U__crt_internal_free_policy@@@@QBE_NXZ 1007b9d0 f i libucrtd:wsetlocale.obj
 0001:0007aa00       ?is_valid@?$__crt_unique_heap_ptr@U__crt_locale_pointers@@U__crt_internal_free_policy@@@@QBE_NXZ 1007ba00 f i libucrtd:wsetlocale.obj
 0001:0007aa30       ?is_valid@?$__crt_unique_heap_ptr@U__crt_multibyte_data@@U__crt_internal_free_policy@@@@QBE_NXZ 1007ba30 f i libucrtd:wsetlocale.obj
 0001:0007aa60       ?release@?$__crt_unique_heap_ptr@U__crt_locale_data@@U__crt_internal_free_policy@@@@QAEXXZ 1007ba60 f i libucrtd:wsetlocale.obj
 0001:0007aa90       ?release@?$__crt_unique_heap_ptr@U__crt_locale_pointers@@U__crt_internal_free_policy@@@@QAEXXZ 1007ba90 f i libucrtd:wsetlocale.obj
 0001:0007aac0       ?release@?$__crt_unique_heap_ptr@U__crt_multibyte_data@@U__crt_internal_free_policy@@@@QAEXXZ 1007bac0 f i libucrtd:wsetlocale.obj
 0001:0007aaf0       ___acrt_copy_locale_name   1007baf0 f   libucrtd:wsetlocale.obj
 0001:0007ab90       ___acrt_set_locale_changed 1007bb90 f   libucrtd:wsetlocale.obj
 0001:0007abb0       ___acrt_uninitialize_locale 1007bbb0 f   libucrtd:wsetlocale.obj
 0001:0007ac60       ___lc_lctowcs              1007bc60 f   libucrtd:wsetlocale.obj
 0001:0007ad10       ___lc_wcstolc              1007bd10 f   libucrtd:wsetlocale.obj
 0001:0007af30       __configthreadlocale       1007bf30 f   libucrtd:wsetlocale.obj
 0001:0007b0b0       __create_locale            1007c0b0 f   libucrtd:wsetlocale.obj
 0001:0007b120       __expandlocale             1007c120 f   libucrtd:wsetlocale.obj
 0001:0007b5f0       __free_locale              1007c5f0 f   libucrtd:wsetlocale.obj
 0001:0007b720       __get_current_locale       1007c720 f   libucrtd:wsetlocale.obj
 0001:0007b7f0       __wcreate_locale           1007c7f0 f   libucrtd:wsetlocale.obj
 0001:0007ba30       __wcscats                  1007ca30 f   libucrtd:wsetlocale.obj
 0001:0007bab0       __wsetlocale               1007cab0 f   libucrtd:wsetlocale.obj
 0001:0007ca00       ___p___mb_cur_max          1007da00 f   libucrtd:nlsdata.obj
 0001:0007cd00       ___acrt_initialize_lowio   1007dd00 f   libucrtd:ioinit.obj
 0001:0007cda0       ___acrt_uninitialize_lowio 1007dda0 f   libucrtd:ioinit.obj
 0001:0007ce00       __CrtGetReportHook         1007de00 f   libucrtd:dbgrptt.obj
 0001:0007ce10       __CrtSetReportFile         1007de10 f   libucrtd:dbgrptt.obj
 0001:0007cf10       __CrtSetReportHook         1007df10 f   libucrtd:dbgrptt.obj
 0001:0007cf30       __CrtSetReportMode         1007df30 f   libucrtd:dbgrptt.obj
 0001:0007d070       __VCrtDbgReportA           1007e070 f   libucrtd:dbgrptt.obj
 0001:0007d910       __VCrtDbgReportW           1007e910 f   libucrtd:dbgrptt.obj
 0001:0007e2d0       __snprintf_s               1007f2d0 f i libucrtd:dbgrptt.obj
 0001:0007e320       __vsnprintf_s              1007f320 f i libucrtd:dbgrptt.obj
 0001:0007e350       __vsnprintf_s_l            1007f350 f i libucrtd:dbgrptt.obj
 0001:0007e3b0       __vsnwprintf_s             1007f3b0 f i libucrtd:dbgrptt.obj
 0001:0007e6e0       ??$message_box@$$TAAPBDAAPBDAAI@?$__crt_char_traits@D@@SAH$$QA$$TAAPBD1AAI@Z 1007f6e0 f i libucrtd:crtmbox.obj
 0001:0007e710       ??$message_box@$$TAAPB_WAAPB_WAAI@?$__crt_char_traits@_W@@SAH$$QA$$TAAPB_W1AAI@Z 1007f710 f i libucrtd:crtmbox.obj
 0001:0007e740       ??$message_box@$$TABQBDABQBDK@?$__crt_char_traits@D@@SAH$$QA$$TABQBD1$$QAK@Z 1007f740 f i libucrtd:crtmbox.obj
 0001:0007e770       ??$message_box@$$TABQB_WABQB_WK@?$__crt_char_traits@_W@@SAH$$QA$$TABQB_W1$$QAK@Z 1007f770 f i libucrtd:crtmbox.obj
 0001:0007e7a0       ??$message_box@PAUHWND__@@ABQBDABQBDABI@?$__crt_char_traits@D@@SAH$$QAPAUHWND__@@ABQBD1ABI@Z 1007f7a0 f i libucrtd:crtmbox.obj
 0001:0007e7d0       ??$message_box@PAUHWND__@@ABQB_WABQB_WABI@?$__crt_char_traits@_W@@SAH$$QAPAUHWND__@@ABQB_W1ABI@Z 1007f7d0 f i libucrtd:crtmbox.obj
 0001:0007e8a0       ??$output_debug_string@ABQBD@?$__crt_char_traits@D@@SAXABQBD@Z 1007f8a0 f i libucrtd:crtmbox.obj
 0001:0007e8c0       ??$output_debug_string@ABQB_W@?$__crt_char_traits@_W@@SAXABQB_W@Z 1007f8c0 f i libucrtd:crtmbox.obj
 0001:0007e8e0       ??0?$__crt_unique_handle_t@U__crt_handle_traits@@@@QAE@QAX@Z 1007f8e0 f i libucrtd:crtmbox.obj
 0001:0007e900       ??1?$__crt_unique_handle_t@U__crt_handle_traits@@@@QAE@XZ 1007f900 f i libucrtd:crtmbox.obj
 0001:0007e920       ??B?$__crt_unique_handle_t@U__crt_handle_traits@@@@QBE_NXZ 1007f920 f i libucrtd:crtmbox.obj
 0001:0007e940       ?close@?$__crt_unique_handle_t@U__crt_handle_traits@@@@QAEXXZ 1007f940 f i libucrtd:crtmbox.obj
 0001:0007e980       ?close@__crt_handle_traits@@SA_NPAX@Z 1007f980 f i libucrtd:crtmbox.obj
 0001:0007e9b0       ?get@?$__crt_unique_handle_t@U__crt_handle_traits@@@@QBEPAXXZ 1007f9b0 f i libucrtd:crtmbox.obj
 0001:0007e9d0       ?get_invalid_value@__crt_handle_traits@@SAPAXXZ 1007f9d0 f i libucrtd:crtmbox.obj
 0001:0007e9e0       ?is_valid@?$__crt_unique_handle_t@U__crt_handle_traits@@@@QBE_NXZ 1007f9e0 f i libucrtd:crtmbox.obj
 0001:0007ea10       ___acrt_show_narrow_message_box 1007fa10 f   libucrtd:crtmbox.obj
 0001:0007ea30       ___acrt_show_wide_message_box 1007fa30 f   libucrtd:crtmbox.obj
 0001:0007ea50       ___acrt_initialize_locks   1007fa50 f   libucrtd:locks.obj
 0001:0007eab0       ___acrt_lock               1007fab0 f   libucrtd:locks.obj
 0001:0007ead0       ___acrt_uninitialize_locks 1007fad0 f   libucrtd:locks.obj
 0001:0007eb20       ___acrt_unlock             1007fb20 f   libucrtd:locks.obj
 0001:0007eb40       __lock_locales             1007fb40 f   libucrtd:locks.obj
 0001:0007eb60       __unlock_locales           1007fb60 f   libucrtd:locks.obj
 0001:0007eb80       ??$?B$$A6AXH@Z@__crt_fast_encoded_nullptr_t@@QBEP6AXH@ZXZ 1007fb80 f i libucrtd:signal.obj
 0001:0007eba0       ??$?RV<lambda_a048d3beccc847880fc8490e18b82769>@@AAV<lambda_ec61778202f4f5fc7e7711acc23c3bca>@@V<lambda_f7496a158712204296dd6628a163878e>@@@?$__crt_seh_guarded_call@P6AXH@Z@@QAEP6AXH@Z$$QAV<lambda_a048d3beccc847880fc8490e18b82769>@@AAV<lambda_ec61778202f4f5fc7e7711acc23c3bca>@@$$QAV<lambda_f7496a158712204296dd6628a163878e>@@@Z 1007fba0 f i libucrtd:signal.obj
 0001:0007ec30       ??$__acrt_lock_and_call@V<lambda_ec61778202f4f5fc7e7711acc23c3bca>@@@@YAP6AXH@ZW4__acrt_lock_id@@$$QAV<lambda_ec61778202f4f5fc7e7711acc23c3bca>@@@Z 1007fc30 f i libucrtd:signal.obj
 0001:0007ec70       ??$__crt_fast_decode_pointer@P6AXH@Z@@YAP6AXH@ZQ6AXH@Z@Z 1007fc70 f i libucrtd:signal.obj
 0001:0007eca0       ??$__crt_fast_encode_pointer@P6AXH@Z@@YAP6AXH@ZQ6AXH@Z@Z 1007fca0 f i libucrtd:signal.obj
 0001:0007ef60       ?initialize@?$dual_state_global@P6AXH@Z@__crt_state_management@@QAEXQ6AXH@Z@Z 1007ff60 f i libucrtd:signal.obj
 0001:0007f040       ?value@?$dual_state_global@P6AXH@Z@__crt_state_management@@QAEAAP6AXH@ZXZ 10080040 f i libucrtd:signal.obj
 0001:0007f060       ___acrt_get_sigabrt_handler 10080060 f   libucrtd:signal.obj
 0001:0007f080       ___acrt_initialize_signal_handlers 10080080 f   libucrtd:signal.obj
 0001:0007f0c0       ___fpecode                 100800c0 f   libucrtd:signal.obj
 0001:0007f0d0       ___pxcptinfoptrs           100800d0 f   libucrtd:signal.obj
 0001:0007f0e0       _raise                     100800e0 f   libucrtd:signal.obj
 0001:0007f4c0       _signal                    100804c0 f   libucrtd:signal.obj
 0001:0007f750       __msize                    10080750 f   libucrtd:msize.obj
 0001:0007f770       __realloc_base             10080770 f   libucrtd:realloc_base.obj
 0001:0007f860       ??$?B$$A6GHPA_WKJ@Z@__crt_fast_encoded_nullptr_t@@QBEP6GHPA_WKJ@ZXZ 10080860 f i libucrtd:winapi_thunks.obj
 0001:0007f880       ??$?RV<lambda_9227be29367c048ad7fd93a717dcb1a1>@@AAV<lambda_a463b7b0560cfcaf9b17f27c6ef46564>@@V<lambda_ccea11b5727ccf69be64f5f5d9a08d9f>@@@?$__crt_seh_guarded_call@H@@QAEH$$QAV<lambda_9227be29367c048ad7fd93a717dcb1a1>@@AAV<lambda_a463b7b0560cfcaf9b17f27c6ef46564>@@$$QAV<lambda_ccea11b5727ccf69be64f5f5d9a08d9f>@@@Z 10080880 f i libucrtd:winapi_thunks.obj
 0001:0007f910       ??$__acrt_lock_and_call@V<lambda_a463b7b0560cfcaf9b17f27c6ef46564>@@@@YAHW4__acrt_lock_id@@$$QAV<lambda_a463b7b0560cfcaf9b17f27c6ef46564>@@@Z 10080910 f i libucrtd:winapi_thunks.obj
 0001:0007f950       ??$__crt_fast_decode_pointer@P6GHPA_WKJ@Z@@YAP6GHPA_WKJ@ZQ6GH0KJ@Z@Z 10080950 f i libucrtd:winapi_thunks.obj
 0001:0007f980       ??$__crt_fast_encode_pointer@P6GHPA_WKJ@Z@@YAP6GHPA_WKJ@ZQ6GH0KJ@Z@Z 10080980 f i libucrtd:winapi_thunks.obj
 0001:00080220       ___acrt_AreFileApisANSI@0  10081220 f   libucrtd:winapi_thunks.obj
 0001:00080270       ___acrt_CompareStringEx@36 10081270 f   libucrtd:winapi_thunks.obj
 0001:00080300       ___acrt_EnumSystemLocalesEx@16 10081300 f   libucrtd:winapi_thunks.obj
 0001:00080370       ___acrt_FlsAlloc@4         10081370 f   libucrtd:winapi_thunks.obj
 0001:000803c0       ___acrt_FlsFree@4          100813c0 f   libucrtd:winapi_thunks.obj
 0001:00080420       ___acrt_FlsGetValue@4      10081420 f   libucrtd:winapi_thunks.obj
 0001:00080480       ___acrt_FlsSetValue@8      10081480 f   libucrtd:winapi_thunks.obj
 0001:000804e0       ___acrt_GetDateFormatEx@28 100814e0 f   libucrtd:winapi_thunks.obj
 0001:00080570       ___acrt_GetEnabledXStateFeatures@0 10081570 f   libucrtd:winapi_thunks.obj
 0001:000805c0       ___acrt_GetFileInformationByHandleEx@16 100815c0 f   libucrtd:winapi_thunks.obj
 0001:00080620       ___acrt_GetLocaleInfoEx@16 10081620 f   libucrtd:winapi_thunks.obj
 0001:000806a0       ___acrt_GetSystemTimePreciseAsFileTime@4 100816a0 f   libucrtd:winapi_thunks.obj
 0001:00080700       ___acrt_GetTimeFormatEx@24 10081700 f   libucrtd:winapi_thunks.obj
 0001:00080790       ___acrt_GetUserDefaultLocaleName@8 10081790 f   libucrtd:winapi_thunks.obj
 0001:00080800       ___acrt_GetXStateFeaturesMask@8 10081800 f   libucrtd:winapi_thunks.obj
 0001:00080860       ___acrt_InitializeCriticalSectionEx@12 10081860 f   libucrtd:winapi_thunks.obj
 0001:000808c0       ___acrt_IsValidLocaleName@4 100818c0 f   libucrtd:winapi_thunks.obj
 0001:00080920       ___acrt_LCIDToLocaleName@16 10081920 f   libucrtd:winapi_thunks.obj
 0001:00080990       ___acrt_LCMapStringEx@36   10081990 f   libucrtd:winapi_thunks.obj
 0001:00080a20       ___acrt_LocaleNameToLCID@8 10081a20 f   libucrtd:winapi_thunks.obj
 0001:00080a80       ___acrt_LocateXStateFeature@12 10081a80 f   libucrtd:winapi_thunks.obj
 0001:00080ae0       ___acrt_MessageBoxA@16     10081ae0 f   libucrtd:winapi_thunks.obj
 0001:00080b40       ___acrt_MessageBoxW@16     10081b40 f   libucrtd:winapi_thunks.obj
 0001:00080ba0       ___acrt_RoInitialize@4     10081ba0 f   libucrtd:winapi_thunks.obj
 0001:00080bf0       ___acrt_RoUninitialize@0   10081bf0 f   libucrtd:winapi_thunks.obj
 0001:00080c30       ___acrt_RtlGenRandom@8     10081c30 f   libucrtd:winapi_thunks.obj
 0001:00080c90       ___acrt_SetThreadStackGuarantee@4 10081c90 f   libucrtd:winapi_thunks.obj
 0001:00080ce0       ___acrt_can_show_message_box 10081ce0 f   libucrtd:winapi_thunks.obj
 0001:00080d10       ___acrt_can_use_vista_locale_apis 10081d10 f   libucrtd:winapi_thunks.obj
 0001:00080d40       ___acrt_can_use_xstate_apis 10081d40 f   libucrtd:winapi_thunks.obj
 0001:00080d70       ___acrt_get_parent_window  10081d70 f   libucrtd:winapi_thunks.obj
 0001:00080df0       ___acrt_initialize_winapi_thunks 10081df0 f   libucrtd:winapi_thunks.obj
 0001:00080e60       ___acrt_is_interactive     10081e60 f   libucrtd:winapi_thunks.obj
 0001:00080f10       ___acrt_is_packaged_app    10081f10 f   libucrtd:winapi_thunks.obj
 0001:00081020       ___acrt_uninitialize_winapi_thunks 10082020 f   libucrtd:winapi_thunks.obj
 0001:00081090       __chvalidator              10082090 f   libucrtd:isctype.obj
 0001:000810e0       __chvalidator_l            100820e0 f   libucrtd:isctype.obj
 0001:00081180       __isctype                  10082180 f   libucrtd:isctype.obj
 0001:000811c0       __isctype_l                100821c0 f   libucrtd:isctype.obj
 0001:00081340       ??$?RU__crt_stdio_stream_data@@@__crt_internal_free_policy@@QBEXQBU__crt_stdio_stream_data@@@Z 10082340 f i libucrtd:stream.obj
 0001:00081360       ??0?$__crt_unique_heap_ptr@U__crt_stdio_stream_data@@U__crt_internal_free_policy@@@@QAE@QAU__crt_stdio_stream_data@@@Z 10082360 f i libucrtd:stream.obj
 0001:00081380       ??0__crt_stdio_stream@@QAE@QAU__crt_stdio_stream_data@@@Z 10082380 f i libucrtd:stream.obj
 0001:000813a0       ??0__crt_stdio_stream@@QAE@XZ 100823a0 f i libucrtd:stream.obj
 0001:000813c0       ??1?$__crt_unique_heap_ptr@U__crt_stdio_stream_data@@U__crt_internal_free_policy@@@@QAE@XZ 100823c0 f i libucrtd:stream.obj
 0001:000813e0       ?__acrt_stdio_allocate_stream@@YA?AV__crt_stdio_stream@@XZ 100823e0 f   libucrtd:stream.obj
 0001:000814d0       ?__acrt_stdio_free_stream@@YAXV__crt_stdio_stream@@@Z 100824d0 f   libucrtd:stream.obj
 0001:00081550       ?deallocate@__crt_stdio_stream@@QAEXXZ 10082550 f i libucrtd:stream.obj
 0001:00081570       ?detach@?$__crt_unique_heap_ptr@U__crt_stdio_stream_data@@U__crt_internal_free_policy@@@@QAEPAU__crt_stdio_stream_data@@XZ 10082570 f i libucrtd:stream.obj
 0001:000816e0       ?lock@__crt_stdio_stream@@QBEXXZ 100826e0 f i libucrtd:stream.obj
 0001:00081700       ?release@?$__crt_unique_heap_ptr@U__crt_stdio_stream_data@@U__crt_internal_free_policy@@@@QAEXXZ 10082700 f i libucrtd:stream.obj
 0001:00081730       ?try_allocate@__crt_stdio_stream@@QAE_NXZ 10082730 f i libucrtd:stream.obj
 0001:00081780       ??$__acrt_stdio_parse_mode@D@@YA?AU__acrt_stdio_stream_mode@@QBD@Z 10082780 f i libucrtd:openfile.obj
 0001:00081fe0       ??$__acrt_stdio_parse_mode@_W@@YA?AU__acrt_stdio_stream_mode@@QB_W@Z 10082fe0 f i libucrtd:openfile.obj
 0001:00082b70       ??$tcsncmp@AAPBDAAY02$$CBDI@?$__crt_char_traits@D@@SAHAAPBDAAY02$$CBD$$QAI@Z 10083b70 f i libucrtd:openfile.obj
 0001:00082b90       ??$tcsncmp@AAPB_WAAY02$$CB_WI@?$__crt_char_traits@_W@@SAHAAPB_WAAY02$$CB_W$$QAI@Z 10083b90 f i libucrtd:openfile.obj
 0001:00082bb0       ??$tcsnicmp@AAPBDAAY04$$CBDI@?$__crt_char_traits@D@@SAHAAPBDAAY04$$CBD$$QAI@Z 10083bb0 f i libucrtd:openfile.obj
 0001:00082bd0       ??$tcsnicmp@AAPBDAAY06$$CBDI@?$__crt_char_traits@D@@SAHAAPBDAAY06$$CBD$$QAI@Z 10083bd0 f i libucrtd:openfile.obj
 0001:00082bf0       ??$tcsnicmp@AAPBDAAY07$$CBDI@?$__crt_char_traits@D@@SAHAAPBDAAY07$$CBD$$QAI@Z 10083bf0 f i libucrtd:openfile.obj
 0001:00082c10       ??$tcsnicmp@AAPB_WAAY04$$CB_WI@?$__crt_char_traits@_W@@SAHAAPB_WAAY04$$CB_W$$QAI@Z 10083c10 f i libucrtd:openfile.obj
 0001:00082c30       ??$tcsnicmp@AAPB_WAAY06$$CB_WI@?$__crt_char_traits@_W@@SAHAAPB_WAAY06$$CB_W$$QAI@Z 10083c30 f i libucrtd:openfile.obj
 0001:00082c50       ??$tcsnicmp@AAPB_WAAY07$$CB_WI@?$__crt_char_traits@_W@@SAHAAPB_WAAY07$$CB_W$$QAI@Z 10083c50 f i libucrtd:openfile.obj
 0001:00082c70       ??$tsopen_s@PAHABQBDABHABHH@?$__crt_char_traits@D@@SAH$$QAPAHABQBDABH2$$QAH@Z 10083c70 f i libucrtd:openfile.obj
 0001:00082ca0       ??$tsopen_s@PAHABQB_WABHABHH@?$__crt_char_traits@_W@@SAH$$QAPAHABQB_WABH2$$QAH@Z 10083ca0 f i libucrtd:openfile.obj
 0001:00082cd0       ?__acrt_stdio_parse_mode_D@@YA_NAAU__acrt_stdio_stream_mode@@@Z 10083cd0 f i libucrtd:openfile.obj
 0001:00082d00       ?__acrt_stdio_parse_mode_N@@YA_NAAU__acrt_stdio_stream_mode@@@Z 10083d00 f i libucrtd:openfile.obj
 0001:00082d20       ?__acrt_stdio_parse_mode_R@@YA_NAAU__acrt_stdio_stream_mode@@AA_N@Z 10083d20 f i libucrtd:openfile.obj
 0001:00082d50       ?__acrt_stdio_parse_mode_S@@YA_NAAU__acrt_stdio_stream_mode@@AA_N@Z 10083d50 f i libucrtd:openfile.obj
 0001:00082d80       ?__acrt_stdio_parse_mode_T@@YA_NAAU__acrt_stdio_stream_mode@@@Z 10083d80 f i libucrtd:openfile.obj
 0001:00082db0       ?__acrt_stdio_parse_mode_b@@YA_NAAU__acrt_stdio_stream_mode@@@Z 10083db0 f i libucrtd:openfile.obj
 0001:00082de0       ?__acrt_stdio_parse_mode_c@@YA_NAAU__acrt_stdio_stream_mode@@AA_N@Z 10083de0 f i libucrtd:openfile.obj
 0001:00082e10       ?__acrt_stdio_parse_mode_n@@YA_NAAU__acrt_stdio_stream_mode@@AA_N@Z 10083e10 f i libucrtd:openfile.obj
 0001:00082e40       ?__acrt_stdio_parse_mode_plus@@YA_NAAU__acrt_stdio_stream_mode@@AA_N@Z 10083e40 f i libucrtd:openfile.obj
 0001:00082eb0       ?__acrt_stdio_parse_mode_t@@YA_NAAU__acrt_stdio_stream_mode@@@Z 10083eb0 f i libucrtd:openfile.obj
 0001:00082ee0       __openfile                 10083ee0 f   libucrtd:openfile.obj
 0001:00082f10       __wopenfile                10083f10 f   libucrtd:openfile.obj
 0001:00082f40       ??$?RV<lambda_4d8dda1ac129e11742d77ae5e3bbda74>@@AAV<lambda_a8f98972ebaa5f7148d35bffe53bd70d>@@V<lambda_5193b64c98d743723bd5dcf162a72339>@@@?$__crt_seh_guarded_call@H@@QAEH$$QAV<lambda_4d8dda1ac129e11742d77ae5e3bbda74>@@AAV<lambda_a8f98972ebaa5f7148d35bffe53bd70d>@@$$QAV<lambda_5193b64c98d743723bd5dcf162a72339>@@@Z 10083f40 f i libucrtd:close.obj
 0001:00082fd0       ??$__acrt_lowio_lock_fh_and_call@V<lambda_a8f98972ebaa5f7148d35bffe53bd70d>@@@@YAHH$$QAV<lambda_a8f98972ebaa5f7148d35bffe53bd70d>@@@Z 10083fd0 f i libucrtd:close.obj
 0001:000831f0       __close                    100841f0 f   libucrtd:close.obj
 0001:00083370       __close_nolock             10084370 f   libucrtd:close.obj
 0001:000833d0       ?has_crt_buffer@__crt_stdio_stream@@QBE_NXZ 100843d0 f i libucrtd:_freebuf.obj
 0001:000833f0       ___acrt_stdio_free_buffer_nolock 100843f0 f   libucrtd:_freebuf.obj
 0001:000834a0       ?__acrt_stdio_reset_buffer@@YAXV__crt_stdio_stream@@@Z 100844a0 f i libucrtd:fflush.obj
 0001:000834d0       ?has_all_of@__crt_stdio_stream@@QBE_NJ@Z 100844d0 f i libucrtd:fflush.obj
 0001:00083510       ?has_big_buffer@__crt_stdio_stream@@QBE_NXZ 10084510 f i libucrtd:fflush.obj
 0001:00083530       ___acrt_stdio_flush_nolock 10084530 f   libucrtd:fflush.obj
 0001:00083610       __fflush_nolock            10084610 f   libucrtd:fflush.obj
 0001:00083690       __flushall                 10084690 f   libucrtd:fflush.obj
 0001:00083840       _fflush                    10084840 f   libucrtd:fflush.obj
 0001:00084010       ___acrt_stdio_flush_and_write_narrow_nolock 10085010 f   libucrtd:_flsbuf.obj
 0001:00084040       ___acrt_stdio_flush_and_write_wide_nolock 10085040 f   libucrtd:_flsbuf.obj
 0001:00084fb0       ??$find_first_file_ex@ABQADW4_FINDEX_INFO_LEVELS@@PAU_WIN32_FIND_DATAA@@W4_FINDEX_SEARCH_OPS@@$$TH@?$__crt_char_traits@D@@SAPAXABQAD$$QAW4_FINDEX_INFO_LEVELS@@$$QAPAU_WIN32_FIND_DATAA@@$$QAW4_FINDEX_SEARCH_OPS@@$$QA$$T$$QAH@Z 10085fb0 f i libucrtd:argv_wildcards.obj
 0001:00084ff0       ??$find_first_file_ex@ABQA_WW4_FINDEX_INFO_LEVELS@@PAU_WIN32_FIND_DATAW@@W4_FINDEX_SEARCH_OPS@@$$TH@?$__crt_char_traits@_W@@SAPAXABQA_W$$QAW4_FINDEX_INFO_LEVELS@@$$QAPAU_WIN32_FIND_DATAW@@$$QAW4_FINDEX_SEARCH_OPS@@$$QA$$T$$QAH@Z 10085ff0 f i libucrtd:argv_wildcards.obj
 0001:00085030       ??$find_next_file@PAXPAU_WIN32_FIND_DATAA@@@?$__crt_char_traits@D@@SAH$$QAPAX$$QAPAU_WIN32_FIND_DATAA@@@Z 10086030 f i libucrtd:argv_wildcards.obj
 0001:00085050       ??$find_next_file@PAXPAU_WIN32_FIND_DATAW@@@?$__crt_char_traits@_W@@SAH$$QAPAX$$QAPAU_WIN32_FIND_DATAW@@@Z 10086050 f i libucrtd:argv_wildcards.obj
 0001:00085070       ??$tcsncpy_s@AAPADIAAPADABI@?$__crt_char_traits@D@@SAHAAPAD$$QAI0ABI@Z 10086070 f i libucrtd:argv_wildcards.obj
 0001:000850a0       ??$tcsncpy_s@AAPA_WIAAPA_WABI@?$__crt_char_traits@_W@@SAHAAPA_W$$QAI0ABI@Z 100860a0 f i libucrtd:argv_wildcards.obj
 0001:000850d0       ??$tcsncpy_s@PAD$$CBIABQBDABI@?$__crt_char_traits@D@@SAH$$QAPAD$$QBIABQBDABI@Z 100860d0 f i libucrtd:argv_wildcards.obj
 0001:00085100       ??$tcsncpy_s@PADABIABQBDABI@?$__crt_char_traits@D@@SAH$$QAPADABIABQBD1@Z 10086100 f i libucrtd:argv_wildcards.obj
 0001:00085130       ??$tcsncpy_s@PA_W$$CBIABQB_WABI@?$__crt_char_traits@_W@@SAH$$QAPA_W$$QBIABQB_WABI@Z 10086130 f i libucrtd:argv_wildcards.obj
 0001:00085160       ??$tcsncpy_s@PA_WABIABQB_WABI@?$__crt_char_traits@_W@@SAH$$QAPA_WABIABQB_W1@Z 10086160 f i libucrtd:argv_wildcards.obj
 0001:00085190       ??$tcspbrk@AAPADAAY02$$CBD@?$__crt_char_traits@D@@SAPADAAPADAAY02$$CBD@Z 10086190 f i libucrtd:argv_wildcards.obj
 0001:000851b0       ??$tcspbrk@AAPA_WAAY02$$CB_W@?$__crt_char_traits@_W@@SAPA_WAAPA_WAAY02$$CB_W@Z 100861b0 f i libucrtd:argv_wildcards.obj
 0001:000851d0       ??0?$__crt_unique_handle_t@U__crt_findfile_traits@@@@QAE@QAX@Z 100861d0 f i libucrtd:argv_wildcards.obj
 0001:000851f0       ??0?$argument_list@D@?A0x536e2c96@@QAE@XZ 100861f0 f i libucrtd:argv_wildcards.obj
 0001:00085220       ??0?$argument_list@_W@?A0x536e2c96@@QAE@XZ 10086220 f i libucrtd:argv_wildcards.obj
 0001:00085250       ??1?$__crt_unique_handle_t@U__crt_findfile_traits@@@@QAE@XZ 10086250 f i libucrtd:argv_wildcards.obj
 0001:00085270       ??1?$argument_list@D@?A0x536e2c96@@QAE@XZ 10086270 f i libucrtd:argv_wildcards.obj
 0001:000852c0       ??1?$argument_list@_W@?A0x536e2c96@@QAE@XZ 100862c0 f i libucrtd:argv_wildcards.obj
 0001:000853d0       ?append@?$argument_list@D@?A0x536e2c96@@QAEHQAD@Z 100863d0 f i libucrtd:argv_wildcards.obj
 0001:00085430       ?append@?$argument_list@_W@?A0x536e2c96@@QAEHQA_W@Z 10086430 f i libucrtd:argv_wildcards.obj
 0001:00085490       ?begin@?$argument_list@D@?A0x536e2c96@@QBEPAPADXZ 10086490 f i libucrtd:argv_wildcards.obj
 0001:000854b0       ?begin@?$argument_list@_W@?A0x536e2c96@@QBEPAPA_WXZ 100864b0 f i libucrtd:argv_wildcards.obj
 0001:000854d0       ?close@?$__crt_unique_handle_t@U__crt_findfile_traits@@@@QAEXXZ 100864d0 f i libucrtd:argv_wildcards.obj
 0001:00085510       ?close@__crt_findfile_traits@@SA_NPAX@Z 10086510 f i libucrtd:argv_wildcards.obj
 0001:00085540       ?end@?$argument_list@D@?A0x536e2c96@@QBEPAPADXZ 10086540 f i libucrtd:argv_wildcards.obj
 0001:00085560       ?end@?$argument_list@_W@?A0x536e2c96@@QBEPAPA_WXZ 10086560 f i libucrtd:argv_wildcards.obj
 0001:00085580       ?expand_if_necessary@?$argument_list@D@?A0x536e2c96@@AAEHXZ 10086580 f i libucrtd:argv_wildcards.obj
 0001:000856e0       ?expand_if_necessary@?$argument_list@_W@?A0x536e2c96@@AAEHXZ 100866e0 f i libucrtd:argv_wildcards.obj
 0001:00085840       ?get@?$__crt_unique_handle_t@U__crt_findfile_traits@@@@QBEPAXXZ 10086840 f i libucrtd:argv_wildcards.obj
 0001:00085860       ?get_invalid_value@__crt_findfile_traits@@SAPAXXZ 10086860 f i libucrtd:argv_wildcards.obj
 0001:000858a0       ?size@?$argument_list@D@?A0x536e2c96@@QBEIXZ 100868a0 f i libucrtd:argv_wildcards.obj
 0001:000858c0       ?size@?$argument_list@_W@?A0x536e2c96@@QBEIXZ 100868c0 f i libucrtd:argv_wildcards.obj
 0001:000858e0       ?strpbrk@@YAPADQADQBD@Z    100868e0 f i libucrtd:argv_wildcards.obj
 0001:00085900       ?wcspbrk@@YAPA_WPA_WPB_W@Z 10086900 f i libucrtd:argv_wildcards.obj
 0001:00085920       ___acrt_expand_narrow_argv_wildcards 10086920 f   libucrtd:argv_wildcards.obj
 0001:00085940       ___acrt_expand_wide_argv_wildcards 10086940 f   libucrtd:argv_wildcards.obj
 0001:00085960       ??$?RV<lambda_694f386f8d9a4d7d5afe1ac229f209db>@@AAV<lambda_2f900415df1f7f624cdaaefe86d0b1c0>@@V<lambda_17c2d007e408fdf31ce10a4c853c6ffa>@@@?$__crt_seh_guarded_call@X@@QAEX$$QAV<lambda_694f386f8d9a4d7d5afe1ac229f209db>@@AAV<lambda_2f900415df1f7f624cdaaefe86d0b1c0>@@$$QAV<lambda_17c2d007e408fdf31ce10a4c853c6ffa>@@@Z 10086960 f i libucrtd:mbctype.obj
 0001:000859e0       ??$__acrt_lock_and_call@V<lambda_2f900415df1f7f624cdaaefe86d0b1c0>@@@@YAXW4__acrt_lock_id@@$$QAV<lambda_2f900415df1f7f624cdaaefe86d0b1c0>@@@Z 100869e0 f i libucrtd:mbctype.obj
 0001:00086310       ___acrt_initialize_multibyte 10087310 f   libucrtd:mbctype.obj
 0001:00086340       ___acrt_update_thread_multibyte_data 10087340 f   libucrtd:mbctype.obj
 0001:00086450       ___p__mbcasemap            10087450 f   libucrtd:mbctype.obj
 0001:00086470       ___p__mbctype              10087470 f   libucrtd:mbctype.obj
 0001:00086490       __getmbcp                  10087490 f   libucrtd:mbctype.obj
 0001:00086500       __setmbcp                  10087500 f   libucrtd:mbctype.obj
 0001:00086520       __setmbcp_nolock           10087520 f   libucrtd:mbctype.obj
 0001:00086a03       __ismbbalnum               10087a03 f   libucrtd:ismbbyte.obj
 0001:00086a1e       __ismbbalnum_l             10087a1e f   libucrtd:ismbbyte.obj
 0001:00086a3a       __ismbbalpha               10087a3a f   libucrtd:ismbbyte.obj
 0001:00086a55       __ismbbalpha_l             10087a55 f   libucrtd:ismbbyte.obj
 0001:00086a71       __ismbbblank               10087a71 f   libucrtd:ismbbyte.obj
 0001:00086a94       __ismbbblank_l             10087a94 f   libucrtd:ismbbyte.obj
 0001:00086ab8       __ismbbgraph               10087ab8 f   libucrtd:ismbbyte.obj
 0001:00086ad3       __ismbbgraph_l             10087ad3 f   libucrtd:ismbbyte.obj
 0001:00086aef       __ismbbkalnum              10087aef f   libucrtd:ismbbyte.obj
 0001:00086b07       __ismbbkalnum_l            10087b07 f   libucrtd:ismbbyte.obj
 0001:00086b20       __ismbbkana                10087b20 f   libucrtd:ismbbyte.obj
 0001:00086b33       __ismbbkana_l              10087b33 f   libucrtd:ismbbyte.obj
 0001:00086b84       __ismbbkprint              10087b84 f   libucrtd:ismbbyte.obj
 0001:00086b9c       __ismbbkprint_l            10087b9c f   libucrtd:ismbbyte.obj
 0001:00086bb5       __ismbbkpunct              10087bb5 f   libucrtd:ismbbyte.obj
 0001:00086bcd       __ismbbkpunct_l            10087bcd f   libucrtd:ismbbyte.obj
 0001:00086be6       __ismbblead                10087be6 f   libucrtd:ismbbyte.obj
 0001:00086bfe       __ismbblead_l              10087bfe f   libucrtd:ismbbyte.obj
 0001:00086c17       __ismbbprint               10087c17 f   libucrtd:ismbbyte.obj
 0001:00086c32       __ismbbprint_l             10087c32 f   libucrtd:ismbbyte.obj
 0001:00086c4e       __ismbbpunct               10087c4e f   libucrtd:ismbbyte.obj
 0001:00086c66       __ismbbpunct_l             10087c66 f   libucrtd:ismbbyte.obj
 0001:00086c7f       __ismbbtrail               10087c7f f   libucrtd:ismbbyte.obj
 0001:00086c97       __ismbbtrail_l             10087c97 f   libucrtd:ismbbyte.obj
 0001:00086cb0       ___acrt_initialize_command_line 10087cb0 f   libucrtd:argv_data.obj
 0001:00086cd0       ___acrt_uninitialize_command_line 10087cd0 f   libucrtd:argv_data.obj
 0001:00086ce0       ___p___argc                10087ce0 f   libucrtd:argv_data.obj
 0001:00086cf0       ___p___argv                10087cf0 f   libucrtd:argv_data.obj
 0001:00086d00       ___p___wargv               10087d00 f   libucrtd:argv_data.obj
 0001:00086d10       ___p__acmdln               10087d10 f   libucrtd:argv_data.obj
 0001:00086d20       ___p__pgmptr               10087d20 f   libucrtd:argv_data.obj
 0001:00086d30       ___p__wcmdln               10087d30 f   libucrtd:argv_data.obj
 0001:00086d40       ___p__wpgmptr              10087d40 f   libucrtd:argv_data.obj
 0001:00086d50       __get_pgmptr               10087d50 f   libucrtd:argv_data.obj
 0001:00086e60       __get_wpgmptr              10087e60 f   libucrtd:argv_data.obj
 0001:00086f6f       ??0?$__crt_unique_handle_t@Uenvironment_strings_traits@?A0xda6148bb@@@@QAE@QA_W@Z 10087f6f f i libucrtd:get_environment_from_os.obj
 0001:00086f7f       ??1?$__crt_unique_handle_t@Uenvironment_strings_traits@?A0xda6148bb@@@@QAE@XZ 10087f7f f i libucrtd:get_environment_from_os.obj
 0001:00086f96       ??B?$__crt_unique_handle_t@Uenvironment_strings_traits@?A0xda6148bb@@@@QBE_NXZ 10087f96 f i libucrtd:get_environment_from_os.obj
 0001:00086f9e       ?close@?$__crt_unique_handle_t@Uenvironment_strings_traits@?A0xda6148bb@@@@QAEXXZ 10087f9e f i libucrtd:get_environment_from_os.obj
 0001:00086fb5       ?close@environment_strings_traits@?A0xda6148bb@@SA_NPA_W@Z 10087fb5 f i libucrtd:get_environment_from_os.obj
 0001:00086ffe       ?get@?$__crt_unique_handle_t@Uenvironment_strings_traits@?A0xda6148bb@@@@QBEPA_WXZ 10087ffe f i libucrtd:get_environment_from_os.obj
 0001:00087001       ?get_invalid_value@environment_strings_traits@?A0xda6148bb@@SAPA_WXZ 10088001 f i libucrtd:get_environment_from_os.obj
 0001:00087004       ?is_valid@?$__crt_unique_handle_t@Uenvironment_strings_traits@?A0xda6148bb@@@@QBE_NXZ 10088004 f i libucrtd:get_environment_from_os.obj
 0001:0008700c       ___dcrt_get_narrow_environment_from_os 1008800c f   libucrtd:get_environment_from_os.obj
 0001:0008709d       ___dcrt_get_wide_environment_from_os 1008809d f   libucrtd:get_environment_from_os.obj
 0001:000879ec       ??$get_or_create_environment_nolock@$$$V@?$__crt_char_traits@D@@SAPAPADXZ 100889ec f i libucrtd:setenv.obj
 0001:000879f1       ??$get_or_create_environment_nolock@$$$V@?$__crt_char_traits@_W@@SAPAPA_WXZ 100889f1 f i libucrtd:setenv.obj
 0001:000879f6       ??$set_environment_variable@ABQADQAD@?$__crt_char_traits@D@@SAHABQAD$$QBQAD@Z 100889f6 f i libucrtd:setenv.obj
 0001:00087a0d       ??$set_environment_variable@ABQA_WQA_W@?$__crt_char_traits@_W@@SAHABQA_W$$QBQA_W@Z 10088a0d f i libucrtd:setenv.obj
 0001:00087a24       ??$tcschr@ABQADD@?$__crt_char_traits@D@@SAPADABQAD$$QAD@Z 10088a24 f i libucrtd:setenv.obj
 0001:00087a3e       ??$tcschr@ABQA_WD@?$__crt_char_traits@_W@@SAPA_WABQA_W$$QAD@Z 10088a3e f i libucrtd:setenv.obj
 0001:00087a5c       ??$tcscpy_s@AAPADABIAAPAD@?$__crt_char_traits@D@@SAHAAPADABI0@Z 10088a5c f i libucrtd:setenv.obj
 0001:00087a7a       ??$tcscpy_s@AAPA_WABIAAPA_W@?$__crt_char_traits@_W@@SAHAAPA_WABI0@Z 10088a7a f i libucrtd:setenv.obj
 0001:00087a98       ??$tcscpy_s@ABQADABIABQAD@?$__crt_char_traits@D@@SAHABQADABI0@Z 10088a98 f i libucrtd:setenv.obj
 0001:00087ab6       ??$tcscpy_s@ABQA_WABIABQA_W@?$__crt_char_traits@_W@@SAHABQA_WABI0@Z 10088ab6 f i libucrtd:setenv.obj
 0001:00087ad4       ??$tcslen@ABQAD@?$__crt_char_traits@D@@SAIABQAD@Z 10088ad4 f i libucrtd:setenv.obj
 0001:00087aec       ??$tcslen@ABQA_W@?$__crt_char_traits@_W@@SAIABQA_W@Z 10088aec f i libucrtd:setenv.obj
 0001:00087b0a       ??$tcsnicoll@ABQBDAAPADABI@?$__crt_char_traits@D@@SAHABQBDAAPADABI@Z 10088b0a f i libucrtd:setenv.obj
 0001:00087b28       ??$tcsnicoll@ABQB_WAAPA_WABI@?$__crt_char_traits@_W@@SAHABQB_WAAPA_WABI@Z 10088b28 f i libucrtd:setenv.obj
 0001:00087b46       ??$tcsnlen@QADH@?$__crt_char_traits@D@@SAI$$QBQAD$$QAH@Z 10088b46 f i libucrtd:setenv.obj
 0001:00087b5e       ??$tcsnlen@QA_WH@?$__crt_char_traits@_W@@SAI$$QBQA_W$$QAH@Z 10088b5e f i libucrtd:setenv.obj
 0001:00087b9a       ?strchr@@YAPADQADH@Z       10088b9a f i libucrtd:setenv.obj
 0001:00087ba5       ?wcschr@@YAPA_WPA_W_W@Z    10088ba5 f i libucrtd:setenv.obj
 0001:00087bb0       ___dcrt_set_variable_in_narrow_environment_nolock 10088bb0 f   libucrtd:setenv.obj
 0001:00087bbb       ___dcrt_set_variable_in_wide_environment_nolock 10088bbb f   libucrtd:setenv.obj
 0001:00087bd0       ___acrt_getheap            10088bd0 f   libucrtd:heap_handle.obj
 0001:00087c10       ___acrt_initialize_heap    10088c10 f   libucrtd:heap_handle.obj
 0001:00087c40       ___acrt_uninitialize_heap  10088c40 f   libucrtd:heap_handle.obj
 0001:00087c60       __get_heap_handle          10088c60 f   libucrtd:heap_handle.obj
 0001:00087ca0       ___acrt_execute_initializers 10088ca0 f   libucrtd:shared_initialization.obj
 0001:00087d70       ___acrt_execute_uninitializers 10088d70 f   libucrtd:shared_initialization.obj
 0001:00087de0       ??$__crt_fast_decode_pointer@P6AHPAU_exception@@@Z@@YAP6AHPAU_exception@@@ZQ6AH0@Z@Z 10088de0 f i libucrtd:matherr.obj
 0001:00087e10       ??$__crt_fast_encode_pointer@P6AHPAU_exception@@@Z@@YAP6AHPAU_exception@@@ZQ6AH0@Z@Z 10088e10 f i libucrtd:matherr.obj
 0001:00087e40       ?initialize@?$dual_state_global@P6AHPAU_exception@@@Z@__crt_state_management@@QAEXQ6AHPAU_exception@@@Z@Z 10088e40 f i libucrtd:matherr.obj
 0001:00087e80       ?value@?$dual_state_global@P6AHPAU_exception@@@Z@__crt_state_management@@QAEAAP6AHPAU_exception@@@ZXZ 10088e80 f i libucrtd:matherr.obj
 0001:00087ea0       ___acrt_has_user_matherr   10088ea0 f   libucrtd:matherr.obj
 0001:00087ee0       ___acrt_initialize_user_matherr 10088ee0 f   libucrtd:matherr.obj
 0001:00087f00       ___acrt_invoke_user_matherr 10088f00 f   libucrtd:matherr.obj
 0001:00087f60       ___setusermatherr          10088f60 f   libucrtd:matherr.obj
 0001:00087f90       ??$__crt_interlocked_exchange_pointer@X$$T@@YAPAXPDSAX$$T@Z 10088f90 f i libucrtd:free_base.obj
 0001:00087fb0       ___acrt_get_msvcrt_heap_handle 10088fb0 f   libucrtd:free_base.obj
 0001:00088070       __free_base                10089070 f   libucrtd:free_base.obj
 0001:000880c0       __aligned_free             100890c0 f   libucrtd:align.obj
 0001:000880e0       __aligned_free_base        100890e0 f   libucrtd:align.obj
 0001:00088120       __aligned_malloc           10089120 f   libucrtd:align.obj
 0001:00088140       __aligned_malloc_base      10089140 f   libucrtd:align.obj
 0001:00088160       __aligned_msize            10089160 f   libucrtd:align.obj
 0001:00088180       __aligned_msize_base       10089180 f   libucrtd:align.obj
 0001:000882b0       __aligned_offset_malloc    100892b0 f   libucrtd:align.obj
