 OPOSKeylock

 Timestamp is 5ed4587f (Mon Jun  1 10:23:11 2020)

 Preferred load address is 10000000

 Start         Length     Name                   Class
 0001:00000000 00000d90H .text$di                CODE
 0001:00000d90 000a8ca0H .text$mn                CODE
 0001:000a9a30 000001c0H .text$x                 CODE
 0001:000a9bf0 00000120H .text$yd                CODE
 0002:00000000 00000358H .idata$5                DATA
 0002:00000358 00000008H .00cfg                  DATA
 0002:00000360 00000004H .CRT$XCA                DATA
 0002:00000364 00000004H .CRT$XCL                DATA
 0002:00000368 0000006cH .CRT$XCU                DATA
 0002:000003d4 00000004H .CRT$XCZ                DATA
 0002:000003d8 00000004H .CRT$XIA                DATA
 0002:000003dc 00000014H .CRT$XIC                DATA
 0002:000003f0 00000004H .CRT$XIZ                DATA
 0002:000003f4 00000004H .CRT$XLA                DATA
 0002:000003f8 00000004H .CRT$XLZ                DATA
 0002:000003fc 00000004H .CRT$XPA                DATA
 0002:00000400 00000008H .CRT$XPX                DATA
 0002:00000408 00000004H .CRT$XPXA               DATA
 0002:0000040c 00000004H .CRT$XPZ                DATA
 0002:00000410 00000004H .CRT$XTA                DATA
 0002:00000414 0000000cH .CRT$XTZ                DATA
 0002:00000418 00000000H .gfids$y                DATA
 0002:00000420 0002fac8H .rdata                  DATA
 0002:0002fee8 00000018H .rdata$T                DATA
 0002:0002ff00 0000033cH .rdata$r                DATA
 0002:0003023c 00000044H .rdata$sxdata           DATA
 0002:00030280 00000400H .rdata$zzzdbg           DATA
 0002:00030680 00000004H .rtc$IAA                DATA
 0002:00030684 00000018H .rtc$IMZ                DATA
 0002:0003069c 00000004H .rtc$IZZ                DATA
 0002:000306a0 00000004H .rtc$TAA                DATA
 0002:000306a4 00000018H .rtc$TMZ                DATA
 0002:000306bc 00000004H .rtc$TZZ                DATA
 0002:000306c0 00000004H .tls                    DATA
 0002:000306c4 00000004H .tls$                   DATA
 0002:000306c8 00000008H .tls$ZZZ                DATA
 0002:000306d0 00000e4cH .xdata$x                DATA
 0002:0003151c 00000004H ATL$__a                 DATA
 0002:00031520 00000010H ATL$__z                 DATA
 0002:00031530 000000a8H .edata                  DATA
 0002:000315d8 00000078H .idata$2                DATA
 0002:00031650 00000014H .idata$3                DATA
 0002:00031664 00000358H .idata$4                DATA
 0002:000319bc 00000d56H .idata$6                DATA
 0003:00000000 00000bb0H .data                   DATA
 0003:00000bb0 00000138H .data$r                 DATA
 0003:00000ce8 00003580H .bss                    DATA
 0004:00000000 00000220H .rsrc$01                DATA
 0004:00000220 000038f0H .rsrc$02                DATA

  Address         Publics by Value              Rva+Base       Lib:Object

 0000:00000000       ___guard_iat_count         00000000     <absolute>
 0000:00000000       ___dynamic_value_reloc_table 00000000     <absolute>
 0000:00000000       ___hybrid_code_map         00000000     <absolute>
 0000:00000000       ___enclave_config          00000000     <absolute>
 0000:00000000       ___guard_eh_cont_count     00000000     <absolute>
 0000:00000000       ___hybrid_code_map_count   00000000     <absolute>
 0000:00000000       ___guard_fids_table        00000000     <absolute>
 0000:00000000       ___arm64x_redirection_metadata 00000000     <absolute>
 0000:00000000       ___arm64x_native_entrypoint 00000000     <absolute>
 0000:00000000       ___AbsoluteZero            00000000     <absolute>
 0000:00000000       ___guard_longjmp_table     00000000     <absolute>
 0000:00000000       ___guard_longjmp_count     00000000     <absolute>
 0000:00000000       __except_list              00000000     <absolute>
 0000:00000000       ___hybrid_auxiliary_iat    00000000     <absolute>
 0000:00000000       ___guard_eh_cont_table     00000000     <absolute>
 0000:00000000       ___guard_fids_count        00000000     <absolute>
 0000:00000000       ___volatile_metadata       00000000     <absolute>
 0000:00000000       ___guard_iat_table         00000000     <absolute>
 0000:00000000       ___x64_code_ranges_to_entry_points 00000000     <absolute>
 0000:00000011       ___safe_se_handler_count   00000011     <absolute>
 0000:0000002c       __tls_array                0000002c     <absolute>
 0000:00000100       ___guard_flags             00000100     <absolute>
 0000:00000000       ___ImageBase               10000000     <linker-defined>
 0001:00000d90       ?_assert@@YAXPB_W0I@Z      10001d90 f   Assert.obj
 0001:00000ec0       ___local_stdio_printf_options 10001ec0 f i Assert.obj
 0001:00000ed0       ___vswprintf_l             10001ed0 f i Assert.obj
 0001:00000f00       __swprintf                 10001f00 f i Assert.obj
 0001:00000f60       __vswprintf_c_l            10001f60 f i Assert.obj
 0001:00000fd0       __vswprintf_l              10001fd0 f i Assert.obj
 0001:00001000       ?cw_memcpy@@YGHPADPB_WH@Z  10002000 f   CWString.obj
 0001:00001060       ?cw_memcpy@@YGHPA_WPBDH@Z  10002060 f   CWString.obj
 0001:000010c0       ?cw_memcpy@@YGHPADPBDH@Z   100020c0 f   CWString.obj
 0001:00001110       ?cw_memcpy@@YGHPA_WPB_WH@Z 10002110 f   CWString.obj
 0001:00001150       ?cw_memset@@YAXPADDH@Z     10002150 f   CWString.obj
 0001:00001170       ?cw_memset@@YAXPA_W_WH@Z   10002170 f   CWString.obj
 0001:00001190       ?cw_strlen@@YAHPBD@Z       10002190 f   CWString.obj
 0001:000011e0       ?cw_strlen@@YAHPB_W@Z      100021e0 f   CWString.obj
 0001:00001230       ?cw_strcpy@@YAHPADPB_W@Z   10002230 f   CWString.obj
 0001:00001250       ?cw_strcpy@@YAHPA_WPBD@Z   10002250 f   CWString.obj
 0001:00001270       ?cw_strcpy@@YAHPADPBD@Z    10002270 f   CWString.obj
 0001:00001290       ?cw_strcpy@@YAHPA_WPB_W@Z  10002290 f   CWString.obj
 0001:000012b0       ?cw_strcat@@YAHPADPB_W@Z   100022b0 f   CWString.obj
 0001:000012e0       ?cw_strcat@@YAHPA_WPBD@Z   100022e0 f   CWString.obj
 0001:00001310       ?cw_strcat@@YAHPADPBD@Z    10002310 f   CWString.obj
 0001:00001340       ?cw_strcat@@YAHPA_WPB_W@Z  10002340 f   CWString.obj
 0001:00001370       ?cw_dup@@YGXPBDAAHAAPA_W1@Z 10002370 f   CWString.obj
 0001:00001430       ?cw_dup@@YGXPB_WAAHAAPAD1@Z 10002430 f   CWString.obj
 0001:000014e0       ?DupChar@_CW@@AAEXXZ       100024e0 f   CWString.obj
 0001:00001530       ?DupWide@_CW@@AAEXXZ       10002530 f   CWString.obj
 0001:00001580       ?GetCharsMbcs@_CW@@QAEHXZ  10002580 f   CWString.obj
 0001:000015e0       ?GetCharsWide@_CW@@QAEHXZ  100025e0 f   CWString.obj
 0001:00001640       ?SetVARIANT_BOOL@OposVariant@@QAEXF@Z 10002640 f   OposVariant.obj
 0001:000016a0       ?SetVARIANT_BOOL_Ptr@OposVariant@@QAEXPAFAAJ@Z 100026a0 f   OposVariant.obj
 0001:000016f0       ?GetLONG@OposVariant@@QAEJXZ 100026f0 f   OposVariant.obj
 0001:00001780       ?ChangeLONG@OposVariant@@QAEXPAJAAJ@Z 10002780 f   OposVariant.obj
 0001:00001840       ?SetLONG@OposVariant@@QAEXJ@Z 10002840 f   OposVariant.obj
 0001:00001880       ?SetLONG_Ptr@OposVariant@@QAEXPAJAAJ@Z 10002880 f   OposVariant.obj
 0001:000018d0       ?ChangeCURRENCY@OposVariant@@QAEXPATtagCY@@AAJ@Z 100028d0 f   OposVariant.obj
 0001:00001990       ?SetCURRENCY@OposVariant@@QAEXTtagCY@@@Z 10002990 f   OposVariant.obj
 0001:000019d0       ?SetCURRENCY_Ptr@OposVariant@@QAEXPATtagCY@@AAJ@Z 100029d0 f   OposVariant.obj
 0001:00001a20       ?ChangeBSTR@OposVariant@@QAEXPAPA_WAAJ@Z 10002a20 f   OposVariant.obj
 0001:00001ae0       ?SetBSTR@OposVariant@@QAEXPA_WAAJ@Z 10002ae0 f   OposVariant.obj
 0001:00001b30       ?SetBSTR_Copy@OposVariant@@QAEXPA_WAAJ@Z 10002b30 f   OposVariant.obj
 0001:00001bd0       ?SetBSTR_OutPtr@OposVariant@@QAE_NPAPA_WAAJ@Z 10002bd0 f   OposVariant.obj
 0001:00001c20       ?SetBSTR_InOutPtr@OposVariant@@QAE_NPAPA_WAAJ@Z 10002c20 f   OposVariant.obj
 0001:00001c70       ?SetVARIANT@OposVariant@@QAEXAAUtagVARIANT@@GAAJ@Z 10002c70 f   OposVariant.obj
 0001:00001cf0       ?SetVARIANT_Ptr@OposVariant@@QAEXAAPAUtagVARIANT@@GAAJ@Z 10002cf0 f   OposVariant.obj
 0001:00001d90       ?SetString@OposVariant@@QAEXPB_WAAJ@Z 10002d90 f   OposVariant.obj
 0001:00001e20       ?SetDispatch_Ptr@OposVariant@@QAEXPAUIDispatch@@AAJ@Z 10002e20 f   OposVariant.obj
 0001:00001e90       ??0OposDispParms@@QAE@PAVOposVariant@@H@Z 10002e90 f   OposVariant.obj
 0001:00001f60       ??1OposDispParms@@QAE@XZ   10002f60 f   OposVariant.obj
 0001:00001fb0       ??$AtlMultiply@I@ATL@@YAJPAIII@Z 10002fb0 f i OposVariant.obj
 0001:00002010       ??0?$CHeapPtr@_WVCCRTAllocator@ATL@@@ATL@@QAE@XZ 10003010 f i OposVariant.obj
 0001:00002040       ??0?$CHeapPtrBase@_WVCCRTAllocator@ATL@@@ATL@@IAE@XZ 10003040 f i OposVariant.obj
 0001:00002060       ??0?$CSimpleArray@GV?$CSimpleArrayEqualHelper@G@ATL@@@ATL@@QAE@XZ 10003060 f i OposVariant.obj
 0001:000020a0       ??0?$CTraceCategoryEx@$00$0A@@ATL@@QAE@PB_W@Z 100030a0 f i OposVariant.obj
 0001:000020d0       ??0?$CTraceCategoryEx@$01$0A@@ATL@@QAE@PB_W@Z 100030d0 f i OposVariant.obj
 0001:00002100       ??0?$CTraceCategoryEx@$03$0A@@ATL@@QAE@PB_W@Z 10003100 f i OposVariant.obj
 0001:00002130       ??0?$CTraceCategoryEx@$07$0A@@ATL@@QAE@PB_W@Z 10003130 f i OposVariant.obj
 0001:00002160       ??0?$CTraceCategoryEx@$0BA@$0A@@ATL@@QAE@PB_W@Z 10003160 f i OposVariant.obj
 0001:00002190       ??0?$CTraceCategoryEx@$0BAA@$0A@@ATL@@QAE@PB_W@Z 10003190 f i OposVariant.obj
 0001:000021d0       ??0?$CTraceCategoryEx@$0BAAA@$0A@@ATL@@QAE@PB_W@Z 100031d0 f i OposVariant.obj
 0001:00002210       ??0?$CTraceCategoryEx@$0BAAAA@$0A@@ATL@@QAE@PB_W@Z 10003210 f i OposVariant.obj
 0001:00002250       ??0?$CTraceCategoryEx@$0BAAAAA@$0A@@ATL@@QAE@PB_W@Z 10003250 f i OposVariant.obj
 0001:00002290       ??0?$CTraceCategoryEx@$0CA@$0A@@ATL@@QAE@PB_W@Z 10003290 f i OposVariant.obj
 0001:000022c0       ??0?$CTraceCategoryEx@$0CAA@$0A@@ATL@@QAE@PB_W@Z 100032c0 f i OposVariant.obj
 0001:00002300       ??0?$CTraceCategoryEx@$0CAAA@$0A@@ATL@@QAE@PB_W@Z 10003300 f i OposVariant.obj
 0001:00002340       ??0?$CTraceCategoryEx@$0CAAAA@$0A@@ATL@@QAE@PB_W@Z 10003340 f i OposVariant.obj
 0001:00002380       ??0?$CTraceCategoryEx@$0CAAAAA@$0A@@ATL@@QAE@PB_W@Z 10003380 f i OposVariant.obj
 0001:000023c0       ??0?$CTraceCategoryEx@$0EA@$0A@@ATL@@QAE@PB_W@Z 100033c0 f i OposVariant.obj
 0001:000023f0       ??0?$CTraceCategoryEx@$0EAA@$0A@@ATL@@QAE@PB_W@Z 100033f0 f i OposVariant.obj
 0001:00002430       ??0?$CTraceCategoryEx@$0EAAA@$0A@@ATL@@QAE@PB_W@Z 10003430 f i OposVariant.obj
 0001:00002470       ??0?$CTraceCategoryEx@$0EAAAA@$0A@@ATL@@QAE@PB_W@Z 10003470 f i OposVariant.obj
 0001:000024b0       ??0?$CTraceCategoryEx@$0EAAAAA@$0A@@ATL@@QAE@PB_W@Z 100034b0 f i OposVariant.obj
 0001:000024f0       ??0?$CTraceCategoryEx@$0IA@$0A@@ATL@@QAE@PB_W@Z 100034f0 f i OposVariant.obj
 0001:00002530       ??0?$CTraceCategoryEx@$0IAA@$0A@@ATL@@QAE@PB_W@Z 10003530 f i OposVariant.obj
 0001:00002570       ??0?$CTraceCategoryEx@$0IAAA@$0A@@ATL@@QAE@PB_W@Z 10003570 f i OposVariant.obj
 0001:000025b0       ??0?$CTraceCategoryEx@$0IAAAA@$0A@@ATL@@QAE@PB_W@Z 100035b0 f i OposVariant.obj
 0001:000025f0       ??0CAtlComModule@ATL@@QAE@XZ 100035f0 f i OposVariant.obj
 0001:000026d0       ??0CAtlWinModule@ATL@@QAE@XZ 100036d0 f i OposVariant.obj
 0001:00002760       ??0CComCriticalSection@ATL@@QAE@XZ 10003760 f i OposVariant.obj
 0001:00002790       ??0CPreserveLastError@ATL@@QAE@XZ 10003790 f i OposVariant.obj
 0001:000027d0       ??0CTraceFileAndLineInfo@ATL@@QAE@PBDH@Z 100037d0 f i OposVariant.obj
 0001:00002800       ??0_ATL_COM_MODULE70@ATL@@QAE@XZ 10003800 f i OposVariant.obj
 0001:00002830       ??0_ATL_WIN_MODULE70@ATL@@QAE@XZ 10003830 f i OposVariant.obj
 0001:00002870       ??1?$CHeapPtr@_WVCCRTAllocator@ATL@@@ATL@@QAE@XZ 10003870 f i OposVariant.obj
 0001:000028a0       ??1?$CHeapPtrBase@_WVCCRTAllocator@ATL@@@ATL@@QAE@XZ 100038a0 f i OposVariant.obj
 0001:000028d0       ??1?$CSimpleArray@GV?$CSimpleArrayEqualHelper@G@ATL@@@ATL@@QAE@XZ 100038d0 f i OposVariant.obj
 0001:00002900       ??1CAtlComModule@ATL@@QAE@XZ 10003900 f i OposVariant.obj
 0001:00002930       ??1CAtlWinModule@ATL@@QAE@XZ 10003930 f i OposVariant.obj
 0001:00002960       ??1CComBSTR@ATL@@QAE@XZ    10003960 f i OposVariant.obj
 0001:000029a0       ??1CComCriticalSection@ATL@@QAE@XZ 100039a0 f i OposVariant.obj
 0001:000029c0       ??1CPreserveLastError@ATL@@QAE@XZ 100039c0 f i OposVariant.obj
 0001:00002a00       ??1_ATL_COM_MODULE70@ATL@@QAE@XZ 10003a00 f i OposVariant.obj
 0001:00002a30       ??1_ATL_WIN_MODULE70@ATL@@QAE@XZ 10003a30 f i OposVariant.obj
 0001:00002a70       ??1stringdispid@CComTypeInfoHolder@ATL@@QAE@XZ 10003a70 f i OposVariant.obj
 0001:00002aa0       ??A?$CSimpleArray@GV?$CSimpleArrayEqualHelper@G@ATL@@@ATL@@QAEAAGH@Z 10003aa0 f i OposVariant.obj
 0001:00002b20       ??B?$CHeapPtrBase@_WVCCRTAllocator@ATL@@@ATL@@QBEPA_WXZ 10003b20 f i OposVariant.obj
 0001:00002b40       ??B?$CTraceCategoryEx@$01$0A@@ATL@@QAEIXZ 10003b40 f i OposVariant.obj
 0001:00002b60       ??B?$CTraceCategoryEx@$0CA@$0A@@ATL@@QAEIXZ 10003b60 f i OposVariant.obj
 0001:00002b80       ??RCTraceFileAndLineInfo@ATL@@QBAXHIPB_WZZ 10003b80 f i OposVariant.obj
 0001:00002c20       ??_Estringdispid@CComTypeInfoHolder@ATL@@QAEPAXI@Z 10003c20 f i OposVariant.obj
 0001:00002cb0       ??_H@YGXPAXIIP6EPAX0@Z@Z   10003cb0 f i OposVariant.obj
 0001:00002d20       ??_I@YGXPAXIIP6EX0@Z@Z     10003d20 f i OposVariant.obj
 0001:00002da0       ?Allocate@?$CHeapPtr@_WVCCRTAllocator@ATL@@@ATL@@QAE_NI@Z 10003da0 f i OposVariant.obj
 0001:00002e30       ?Allocate@CCRTAllocator@ATL@@SAPAXI@Z 10003e30 f i OposVariant.obj
 0001:00002e50       ?AllocateBytes@?$CHeapPtrBase@_WVCCRTAllocator@ATL@@@ATL@@QAE_NI@Z 10003e50 f i OposVariant.obj
 0001:00002ec0       ?AtlWinModuleInit@ATL@@YGJPAU_ATL_WIN_MODULE70@1@@Z 10003ec0 f i OposVariant.obj
 0001:00002f90       ?AtlWinModuleTerm@ATL@@YGJPAU_ATL_WIN_MODULE70@1@PAUHINSTANCE__@@@Z 10003f90 f i OposVariant.obj
 0001:00003050       ?Clear@OposVariant@@QAEJXZ 10004050 f i OposVariant.obj
 0001:00003090       ?Free@?$CHeapPtrBase@_WVCCRTAllocator@ATL@@@ATL@@QAEXXZ 10004090 f i OposVariant.obj
 0001:000030d0       ?Free@CCRTAllocator@ATL@@SAXPAX@Z 100040d0 f i OposVariant.obj
 0001:000030f0       ?GetCategoryName@CTrace@ATL@@CAPA_WI@Z 100040f0 f i OposVariant.obj
 0001:00003140       ?GetModuleInstance@CAtlBaseModule@ATL@@QAEPAUHINSTANCE__@@XZ 10004140 f i OposVariant.obj
 0001:00003160       ?GetSize@?$CSimpleArray@GV?$CSimpleArrayEqualHelper@G@ATL@@@ATL@@QBEHXZ 10004160 f i OposVariant.obj
 0001:00003180       ?Init@CComCriticalSection@ATL@@QAEJXZ 10004180 f i OposVariant.obj
 0001:000031e0       ?RegisterCategory@CTrace@ATL@@SAXPB_WI@Z 100041e0 f i OposVariant.obj
 0001:00003270       ?RemoveAll@?$CSimpleArray@GV?$CSimpleArrayEqualHelper@G@ATL@@@ATL@@QAEXXZ 10004270 f i OposVariant.obj
 0001:000032f0       ?Term@CAtlComModule@ATL@@QAEXXZ 100042f0 f i OposVariant.obj
 0001:000033b0       ?Term@CAtlWinModule@ATL@@QAEXXZ 100043b0 f i OposVariant.obj
 0001:000033e0       ?Term@CComCriticalSection@ATL@@QAEJXZ 100043e0 f i OposVariant.obj
 0001:00003420       ?TraceV@CTrace@ATL@@CAXPBDHIIPB_W@Z 10004420 f i OposVariant.obj
 0001:000036a0       ?TraceV@CTrace@ATL@@SAXPBDHIIPB_WPAD@Z 100046a0 f i OposVariant.obj
 0001:000037e0       ?_AtlInitializeCriticalSectionEx@ATL@@YAHPAU_RTL_CRITICAL_SECTION@@KK@Z 100047e0 f i OposVariant.obj
 0001:00003810       ?_AtlRaiseException@ATL@@YAXKK@Z 10004810 f i OposVariant.obj
 0001:00003840       _HRESULT_FROM_WIN32        10004840 f i OposVariant.obj
 0001:00003880       __vswprintf_s_l            10004880 f i OposVariant.obj
 0001:000038f0       _swprintf_s                100048f0 f i OposVariant.obj
 0001:00003950       ?ObjectMain@CComObjectRootBase@ATL@@SGX_N@Z 10004950 f i Keylock.obj
 0001:00003960       ?GetCategoryMap@CComObjectRootBase@ATL@@SAPBU_ATL_CATMAP_ENTRY@2@XZ 10004960 f i Keylock.obj
 0001:00003970       ?GetObjectDescription@?$CComCoClass@VCOPOSKeylock@@$1?CLSID_OPOSKeylock@@3U_GUID@@B@ATL@@SGPB_WXZ 10004970 f i Keylock.obj
 0001:00003980       ?UpdateRegistry@COPOSKeylock@@SGJH@Z 10004980 f i Keylock.obj
 0001:000039a0       ?CreateInstance@?$CComCreator@V?$CComObjectCached@VCComClassFactory@ATL@@@ATL@@@ATL@@SGJPAXABU_GUID@@PAPAX@Z 100049a0 f i Keylock.obj
 0001:00003b20       ?CreateInstance@?$CComCreator2@V?$CComCreator@V?$CComObject@VCOPOSKeylock@@@ATL@@@ATL@@V?$CComCreator@V?$CComAggObject@VCOPOSKeylock@@@ATL@@@2@@ATL@@SGJPAXABU_GUID@@PAPAX@Z 10004b20 f i Keylock.obj
 0001:00003cd0       _DllGetClassObject@12      10004cd0 f   Keylock.obj
 0001:00003d00       _DllCanUnloadNow@0         10004d00 f   Keylock.obj
 0001:00003d40       _DllRegisterServer@0       10004d40 f   Keylock.obj
 0001:00003d60       _DllUnregisterServer@0     10004d60 f   Keylock.obj
 0001:00003ef0       _DllMain@12                10004ef0 f   Keylock.obj
 0001:00003f50       ??$?2G@Wrapper@?$CSimpleArray@GV?$CSimpleArrayEqualHelper@G@ATL@@@ATL@@SAPAXIPAG@Z 10004f50 f i Keylock.obj
 0001:00003f60       ??$?2PA_W@?$Wrapper@PA_W@?$CSimpleMap@PA_WPA_WVCExpansionVectorEqualHelper@ATL@@@ATL@@SAPAXIPAPA_W@Z 10004f60 f i Keylock.obj
 0001:00003f70       ??$?4UITypeInfo2@@@?$CComPtr@UITypeInfo@@@ATL@@QAEPAUITypeInfo@@ABV?$CComPtr@UITypeInfo2@@@1@@Z 10004f70 f i Keylock.obj
 0001:00003fd0       ??$AtlAdd@K@ATL@@YAJPAKKK@Z 10004fd0 f i Keylock.obj
 0001:00004010       ??$AtlAdd@_K@ATL@@YAJPA_K_K1@Z 10005010 f i Keylock.obj
 0001:00004080       ??$AtlAddThrow@K@ATL@@YAKKK@Z 10005080 f i Keylock.obj
 0001:00004100       ??$AtlModuleRegisterWndClassInfoT@VAtlModuleRegisterWndClassInfoParamW@ATL@@@ATL@@YAGPAU_ATL_BASE_MODULE70@0@PAU_ATL_WIN_MODULE70@0@PAU_ATL_WNDCLASSINFOW@0@PAP6GJPAUHWND__@@IIJ@ZVAtlModuleRegisterWndClassInfoParamW@0@@Z 10005100 f i Keylock.obj
 0001:00004510       ??$AtlMultiply@H@ATL@@YAJPAHHH@Z 10005510 f i Keylock.obj
 0001:00004590       ??$AtlMultiply@K@ATL@@YAJPAKKK@Z 10005590 f i Keylock.obj
 0001:000045f0       ??$AtlMultiplyThrow@I@ATL@@YAIII@Z 100055f0 f i Keylock.obj
 0001:00004670       ??$QueryInterface@UIPersistStream@@@IUnknown@@QAGJPAPAUIPersistStream@@@Z 10005670 f i Keylock.obj
 0001:000046a0       ??$QueryInterface@UITypeInfo2@@@IUnknown@@QAGJPAPAUITypeInfo2@@@Z 100056a0 f i Keylock.obj
 0001:000046d0       ??0?$CAtlModuleT@VCComModule@ATL@@@ATL@@QAE@XZ 100056d0 f i Keylock.obj
 0001:00004700       ??0?$CAtlSafeAllocBufferManager@VCCRTAllocator@ATL@@@_ATL_SAFE_ALLOCA_IMPL@ATL@@QAE@XZ 10005700 f i Keylock.obj
 0001:00004720       ??0?$CAutoVectorPtr@_W@ATL@@QAE@XZ 10005720 f i Keylock.obj
 0001:00004740       ??0?$CComAggObject@VCOPOSKeylock@@@ATL@@QAE@PAX@Z 10005740 f i Keylock.obj
 0001:000047b0       ??0?$CComContainedObject@VCOPOSKeylock@@@ATL@@QAE@PAX@Z 100057b0 f i Keylock.obj
 0001:000048c0       ??0?$CComCritSecLock@VCComCriticalSection@ATL@@@ATL@@QAE@AAVCComCriticalSection@1@_N@Z 100058c0 f i Keylock.obj
 0001:00004920       ??0?$CComEnum@UIEnumConnectionPoints@@$1?_GUID_b196b285_bab4_101a_b69c_00aa00341d07@@3U__s_GUID@@BPAUIConnectionPoint@@V?$_CopyInterface@UIConnectionPoint@@@ATL@@VCComSingleThreadModel@6@@ATL@@QAE@XZ 10005920 f i Keylock.obj
 0001:00004960       ??0?$CComEnum@UIEnumConnections@@$1?_GUID_b196b287_bab4_101a_b69c_00aa00341d07@@3U__s_GUID@@BUtagCONNECTDATA@@V?$_Copy@UtagCONNECTDATA@@@ATL@@VCComSingleThreadModel@6@@ATL@@QAE@XZ 10005960 f i Keylock.obj
 0001:000049a0       ??0?$CComEnumImpl@UIEnumConnectionPoints@@$1?_GUID_b196b285_bab4_101a_b69c_00aa00341d07@@3U__s_GUID@@BPAUIConnectionPoint@@V?$_CopyInterface@UIConnectionPoint@@@ATL@@@ATL@@QAE@XZ 100059a0 f i Keylock.obj
 0001:00004a00       ??0?$CComEnumImpl@UIEnumConnections@@$1?_GUID_b196b287_bab4_101a_b69c_00aa00341d07@@3U__s_GUID@@BUtagCONNECTDATA@@V?$_Copy@UtagCONNECTDATA@@@ATL@@@ATL@@QAE@XZ 10005a00 f i Keylock.obj
 0001:00004a60       ??0?$CComObject@V?$CComEnum@UIEnumConnectionPoints@@$1?_GUID_b196b285_bab4_101a_b69c_00aa00341d07@@3U__s_GUID@@BPAUIConnectionPoint@@V?$_CopyInterface@UIConnectionPoint@@@ATL@@VCComSingleThreadModel@6@@ATL@@@ATL@@QAE@PAX@Z 10005a60 f i Keylock.obj
 0001:00004ab0       ??0?$CComObject@V?$CComEnum@UIEnumConnections@@$1?_GUID_b196b287_bab4_101a_b69c_00aa00341d07@@3U__s_GUID@@BUtagCONNECTDATA@@V?$_Copy@UtagCONNECTDATA@@@ATL@@VCComSingleThreadModel@6@@ATL@@@ATL@@QAE@PAX@Z 10005ab0 f i Keylock.obj
 0001:00004b00       ??0?$CComObject@VCOPOSKeylock@@@ATL@@QAE@PAX@Z 10005b00 f i Keylock.obj
 0001:00004c20       ??0?$CComObjectCached@VCComClassFactory@ATL@@@ATL@@QAE@PAX@Z 10005c20 f i Keylock.obj
 0001:00004c60       ??0?$CComObjectRootEx@VCComMultiThreadModel@ATL@@@ATL@@QAE@XZ 10005c60 f i Keylock.obj
 0001:00004ca0       ??0?$CComObjectRootEx@VCComSingleThreadModel@ATL@@@ATL@@QAE@XZ 10005ca0 f i Keylock.obj
 0001:00004cd0       ??0?$CComPtr@UIAdviseSink@@@ATL@@QAE@PAUIAdviseSink@@@Z 10005cd0 f i Keylock.obj
 0001:00004d00       ??0?$CComPtr@UICatRegister@@@ATL@@QAE@XZ 10005d00 f i Keylock.obj
 0001:00004d30       ??0?$CComPtr@UIConnectionPoint@@@ATL@@QAE@XZ 10005d30 f i Keylock.obj
 0001:00004d60       ??0?$CComPtr@UIConnectionPointContainer@@@ATL@@QAE@XZ 10005d60 f i Keylock.obj
 0001:00004d90       ??0?$CComPtr@UIDataObject@@@ATL@@QAE@XZ 10005d90 f i Keylock.obj
 0001:00004dc0       ??0?$CComPtr@UIDispatch@@@ATL@@QAE@XZ 10005dc0 f i Keylock.obj
 0001:00004df0       ??0?$CComPtr@UIOleClientSite@@@ATL@@QAE@PAUIOleClientSite@@@Z 10005df0 f i Keylock.obj
 0001:00004e20       ??0?$CComPtr@UIOleControlSite@@@ATL@@QAE@XZ 10005e20 f i Keylock.obj
 0001:00004e50       ??0?$CComPtr@UIOleInPlaceActiveObject@@@ATL@@QAE@XZ 10005e50 f i Keylock.obj
 0001:00004e80       ??0?$CComPtr@UIOleInPlaceFrame@@@ATL@@QAE@XZ 10005e80 f i Keylock.obj
 0001:00004eb0       ??0?$CComPtr@UIOleInPlaceObject@@@ATL@@QAE@XZ 10005eb0 f i Keylock.obj
 0001:00004ee0       ??0?$CComPtr@UIOleInPlaceUIWindow@@@ATL@@QAE@XZ 10005ee0 f i Keylock.obj
 0001:00004f10       ??0?$CComPtr@UIOleObject@@@ATL@@QAE@XZ 10005f10 f i Keylock.obj
 0001:00004f40       ??0?$CComPtr@UIPersistStream@@@ATL@@QAE@XZ 10005f40 f i Keylock.obj
 0001:00004f70       ??0?$CComPtr@UIPersistStreamInit@@@ATL@@QAE@XZ 10005f70 f i Keylock.obj
 0001:00004fa0       ??0?$CComPtr@UIPointerInactive@@@ATL@@QAE@XZ 10005fa0 f i Keylock.obj
 0001:00004fd0       ??0?$CComPtr@UIProvideClassInfo2@@@ATL@@QAE@XZ 10005fd0 f i Keylock.obj
 0001:00005000       ??0?$CComPtr@UISpecifyPropertyPages@@@ATL@@QAE@XZ 10006000 f i Keylock.obj
 0001:00005030       ??0?$CComPtr@UIStream@@@ATL@@QAE@XZ 10006030 f i Keylock.obj
 0001:00005060       ??0?$CComPtr@UITypeInfo2@@@ATL@@QAE@XZ 10006060 f i Keylock.obj
 0001:00005090       ??0?$CComPtr@UITypeInfo@@@ATL@@QAE@ABV01@@Z 10006090 f i Keylock.obj
 0001:000050c0       ??0?$CComPtr@UITypeInfo@@@ATL@@QAE@XZ 100060c0 f i Keylock.obj
 0001:000050f0       ??0?$CComPtr@UITypeLib@@@ATL@@QAE@XZ 100060f0 f i Keylock.obj
 0001:00005120       ??0?$CComPtr@UIUnknown@@@ATL@@QAE@ABV01@@Z 10006120 f i Keylock.obj
 0001:00005150       ??0?$CComPtr@UIUnknown@@@ATL@@QAE@PAUIUnknown@@@Z 10006150 f i Keylock.obj
 0001:00005180       ??0?$CComPtr@UIUnknown@@@ATL@@QAE@XZ 10006180 f i Keylock.obj
 0001:000051b0       ??0?$CComPtr@UIViewObjectEx@@@ATL@@QAE@XZ 100061b0 f i Keylock.obj
 0001:000051e0       ??0?$CComPtrBase@UIAdviseSink@@@ATL@@IAE@PAUIAdviseSink@@@Z 100061e0 f i Keylock.obj
 0001:00005230       ??0?$CComPtrBase@UICatRegister@@@ATL@@IAE@XZ 10006230 f i Keylock.obj
 0001:00005250       ??0?$CComPtrBase@UIConnectionPoint@@@ATL@@IAE@XZ 10006250 f i Keylock.obj
 0001:00005270       ??0?$CComPtrBase@UIConnectionPointContainer@@@ATL@@IAE@XZ 10006270 f i Keylock.obj
 0001:00005290       ??0?$CComPtrBase@UIDataObject@@@ATL@@IAE@XZ 10006290 f i Keylock.obj
 0001:000052b0       ??0?$CComPtrBase@UIDispatch@@@ATL@@IAE@XZ 100062b0 f i Keylock.obj
 0001:000052d0       ??0?$CComPtrBase@UIOleClientSite@@@ATL@@IAE@PAUIOleClientSite@@@Z 100062d0 f i Keylock.obj
 0001:00005320       ??0?$CComPtrBase@UIOleControlSite@@@ATL@@IAE@XZ 10006320 f i Keylock.obj
 0001:00005340       ??0?$CComPtrBase@UIOleInPlaceActiveObject@@@ATL@@IAE@XZ 10006340 f i Keylock.obj
 0001:00005360       ??0?$CComPtrBase@UIOleInPlaceFrame@@@ATL@@IAE@XZ 10006360 f i Keylock.obj
 0001:00005380       ??0?$CComPtrBase@UIOleInPlaceObject@@@ATL@@IAE@XZ 10006380 f i Keylock.obj
 0001:000053a0       ??0?$CComPtrBase@UIOleInPlaceUIWindow@@@ATL@@IAE@XZ 100063a0 f i Keylock.obj
 0001:000053c0       ??0?$CComPtrBase@UIOleObject@@@ATL@@IAE@XZ 100063c0 f i Keylock.obj
 0001:000053e0       ??0?$CComPtrBase@UIPersistStream@@@ATL@@IAE@XZ 100063e0 f i Keylock.obj
 0001:00005400       ??0?$CComPtrBase@UIPersistStreamInit@@@ATL@@IAE@XZ 10006400 f i Keylock.obj
 0001:00005420       ??0?$CComPtrBase@UIPointerInactive@@@ATL@@IAE@XZ 10006420 f i Keylock.obj
 0001:00005440       ??0?$CComPtrBase@UIProvideClassInfo2@@@ATL@@IAE@XZ 10006440 f i Keylock.obj
 0001:00005460       ??0?$CComPtrBase@UISpecifyPropertyPages@@@ATL@@IAE@XZ 10006460 f i Keylock.obj
 0001:00005480       ??0?$CComPtrBase@UIStream@@@ATL@@IAE@XZ 10006480 f i Keylock.obj
 0001:000054a0       ??0?$CComPtrBase@UITypeInfo2@@@ATL@@IAE@XZ 100064a0 f i Keylock.obj
 0001:000054c0       ??0?$CComPtrBase@UITypeInfo@@@ATL@@IAE@PAUITypeInfo@@@Z 100064c0 f i Keylock.obj
 0001:00005510       ??0?$CComPtrBase@UITypeInfo@@@ATL@@IAE@XZ 10006510 f i Keylock.obj
 0001:00005530       ??0?$CComPtrBase@UITypeLib@@@ATL@@IAE@XZ 10006530 f i Keylock.obj
 0001:00005550       ??0?$CComPtrBase@UIUnknown@@@ATL@@IAE@PAUIUnknown@@@Z 10006550 f i Keylock.obj
 0001:000055a0       ??0?$CComPtrBase@UIUnknown@@@ATL@@IAE@XZ 100065a0 f i Keylock.obj
 0001:000055c0       ??0?$CComPtrBase@UIViewObjectEx@@@ATL@@IAE@XZ 100065c0 f i Keylock.obj
 0001:000055e0       ??0?$CComQIPtr@UIOleControlSite@@$1?_GUID_b196b289_bab4_101a_b69c_00aa00341d07@@3U__s_GUID@@B@ATL@@QAE@PAUIUnknown@@@Z 100065e0 f i Keylock.obj
 0001:00005640       ??0?$CComQIPtr@UIOleObject@@$1?_GUID_00000112_0000_0000_c000_000000000046@@3U__s_GUID@@B@ATL@@QAE@XZ 10006640 f i Keylock.obj
 0001:00005670       ??0?$CComQIPtr@UISpecifyPropertyPages@@$1?_GUID_b196b28b_bab4_101a_b69c_00aa00341d07@@3U__s_GUID@@B@ATL@@QAE@XZ 10006670 f i Keylock.obj
 0001:000056a0       ??0?$CSimpleMap@PA_WPA_WVCExpansionVectorEqualHelper@ATL@@@ATL@@QAE@XZ 100066a0 f i Keylock.obj
 0001:000056e0       ??0?$CTempBuffer@E$0BAA@VCCRTAllocator@ATL@@@ATL@@QAE@XZ 100066e0 f i Keylock.obj
 0001:00005700       ??0?$CTempBuffer@_W$0BAA@VCCRTAllocator@ATL@@@ATL@@QAE@XZ 10006700 f i Keylock.obj
 0001:00005720       ??0?$CTempBuffer@_W$0EAA@VCCRTAllocator@ATL@@@ATL@@QAE@XZ 10006720 f i Keylock.obj
 0001:00005740       ??0?$Wrapper@PA_W@?$CSimpleMap@PA_WPA_WVCExpansionVectorEqualHelper@ATL@@@ATL@@QAE@ABQA_W@Z 10006740 f i Keylock.obj
 0001:00005770       ??0CAtlModule@ATL@@QAE@XZ  10006770 f i Keylock.obj
 0001:00005890       ??0CComAutoDeleteCriticalSection@ATL@@QAE@XZ 10006890 f i Keylock.obj
 0001:000058c0       ??0CComBSTR@ATL@@QAE@XZ    100068c0 f i Keylock.obj
 0001:000058e0       ??0CComClassFactory@ATL@@QAE@XZ 100068e0 f i Keylock.obj
 0001:00005920       ??0CComModule@ATL@@QAE@XZ  10006920 f i Keylock.obj
 0001:00005990       ??0CComObjectRootBase@ATL@@QAE@XZ 10006990 f i Keylock.obj
 0001:000059b0       ??0CComSafeDeleteCriticalSection@ATL@@QAE@XZ 100069b0 f i Keylock.obj
 0001:000059e0       ??0CComVariant@ATL@@QAE@XZ 100069e0 f i Keylock.obj
 0001:00005a30       ??0CExpansionVector@ATL@@QAE@XZ 10006a30 f i Keylock.obj
 0001:00005a60       ??0CParseBuffer@CRegParser@ATL@@QAE@H@Z 10006a60 f i Keylock.obj
 0001:00005ad0       ??0CRegKey@ATL@@QAE@PAUHKEY__@@@Z 10006ad0 f i Keylock.obj
 0001:00005b10       ??0CRegKey@ATL@@QAE@PAVCAtlTransactionManager@1@@Z 10006b10 f i Keylock.obj
 0001:00005b50       ??0CRegObject@ATL@@QAE@XZ  10006b50 f i Keylock.obj
 0001:00005b90       ??0CRegParser@ATL@@QAE@PAVCRegObject@1@@Z 10006b90 f i Keylock.obj
 0001:00005bc0       ??0IClassFactory@@QAE@XZ   10006bc0 f i Keylock.obj
 0001:00005bf0       ??0IEnumConnectionPoints@@QAE@XZ 10006bf0 f i Keylock.obj
 0001:00005c20       ??0IEnumConnections@@QAE@XZ 10006c20 f i Keylock.obj
 0001:00005c50       ??0IRegistrarBase@@QAE@XZ  10006c50 f i Keylock.obj
 0001:00005c80       ??0IUnknown@@QAE@XZ        10006c80 f i Keylock.obj
 0001:00005ca0       ??0ModuleLockHelper@ATL@@QAE@XZ 10006ca0 f i Keylock.obj
 0001:00005ce0       ??0OposVariant@@QAE@XZ     10006ce0 f i Keylock.obj
 0001:00005d10       ??0Wrapper@?$CSimpleArray@GV?$CSimpleArrayEqualHelper@G@ATL@@@ATL@@QAE@ABG@Z 10006d10 f i Keylock.obj
 0001:00005d40       ??0_ATL_MODULE70@ATL@@QAE@XZ 10006d40 f i Keylock.obj
 0001:00005d70       ??0_ATL_MSG@ATL@@QAE@PAUHWND__@@IIJH@Z 10006d70 f i Keylock.obj
 0001:00005de0       ??0_U_MENUorID@ATL@@QAE@I@Z 10006de0 f i Keylock.obj
 0001:00005e00       ??0_U_RECT@ATL@@QAE@AAUtagRECT@@@Z 10006e00 f i Keylock.obj
 0001:00005e20       ??0stringdispid@CComTypeInfoHolder@ATL@@QAE@XZ 10006e20 f i Keylock.obj
 0001:00005e60       ??1?$CAtlModuleT@VCComModule@ATL@@@ATL@@UAE@XZ 10006e60 f i Keylock.obj
 0001:00005e90       ??1?$CAtlSafeAllocBufferManager@VCCRTAllocator@ATL@@@_ATL_SAFE_ALLOCA_IMPL@ATL@@QAE@XZ 10006e90 f i Keylock.obj
 0001:00005ee0       ??1?$CAutoVectorPtr@_W@ATL@@QAE@XZ 10006ee0 f i Keylock.obj
 0001:00005f10       ??1?$CComAggObject@VCOPOSKeylock@@@ATL@@UAE@XZ 10006f10 f i Keylock.obj
 0001:00005f80       ??1?$CComContainedObject@VCOPOSKeylock@@@ATL@@UAE@XZ 10006f80 f i Keylock.obj
 0001:00005fb0       ??1?$CComCritSecLock@VCComCriticalSection@ATL@@@ATL@@QAE@XZ 10006fb0 f i Keylock.obj
 0001:00005fe0       ??1?$CComEnum@UIEnumConnectionPoints@@$1?_GUID_b196b285_bab4_101a_b69c_00aa00341d07@@3U__s_GUID@@BPAUIConnectionPoint@@V?$_CopyInterface@UIConnectionPoint@@@ATL@@VCComSingleThreadModel@6@@ATL@@UAE@XZ 10006fe0 f i Keylock.obj
 0001:00006010       ??1?$CComEnum@UIEnumConnections@@$1?_GUID_b196b287_bab4_101a_b69c_00aa00341d07@@3U__s_GUID@@BUtagCONNECTDATA@@V?$_Copy@UtagCONNECTDATA@@@ATL@@VCComSingleThreadModel@6@@ATL@@UAE@XZ 10007010 f i Keylock.obj
 0001:00006040       ??1?$CComEnumImpl@UIEnumConnectionPoints@@$1?_GUID_b196b285_bab4_101a_b69c_00aa00341d07@@3U__s_GUID@@BPAUIConnectionPoint@@V?$_CopyInterface@UIConnectionPoint@@@ATL@@@ATL@@UAE@XZ 10007040 f i Keylock.obj
 0001:000060d0       ??1?$CComEnumImpl@UIEnumConnections@@$1?_GUID_b196b287_bab4_101a_b69c_00aa00341d07@@3U__s_GUID@@BUtagCONNECTDATA@@V?$_Copy@UtagCONNECTDATA@@@ATL@@@ATL@@UAE@XZ 100070d0 f i Keylock.obj
 0001:00006160       ??1?$CComObject@V?$CComEnum@UIEnumConnectionPoints@@$1?_GUID_b196b285_bab4_101a_b69c_00aa00341d07@@3U__s_GUID@@BPAUIConnectionPoint@@V?$_CopyInterface@UIConnectionPoint@@@ATL@@VCComSingleThreadModel@6@@ATL@@@ATL@@UAE@XZ 10007160 f i Keylock.obj
 0001:000061c0       ??1?$CComObject@V?$CComEnum@UIEnumConnections@@$1?_GUID_b196b287_bab4_101a_b69c_00aa00341d07@@3U__s_GUID@@BUtagCONNECTDATA@@V?$_Copy@UtagCONNECTDATA@@@ATL@@VCComSingleThreadModel@6@@ATL@@@ATL@@UAE@XZ 100071c0 f i Keylock.obj
 0001:00006220       ??1?$CComObject@VCOPOSKeylock@@@ATL@@UAE@XZ 10007220 f i Keylock.obj
 0001:00006360       ??1?$CComObjectCached@VCComClassFactory@ATL@@@ATL@@UAE@XZ 10007360 f i Keylock.obj
 0001:000063b0       ??1?$CComObjectRootEx@VCComMultiThreadModel@ATL@@@ATL@@QAE@XZ 100073b0 f i Keylock.obj
 0001:000063e0       ??1?$CComObjectRootEx@VCComSingleThreadModel@ATL@@@ATL@@QAE@XZ 100073e0 f i Keylock.obj
 0001:00006410       ??1?$CComPtr@UIAdviseSink@@@ATL@@QAE@XZ 10007410 f i Keylock.obj
 0001:00006440       ??1?$CComPtr@UICatRegister@@@ATL@@QAE@XZ 10007440 f i Keylock.obj
 0001:00006470       ??1?$CComPtr@UIConnectionPoint@@@ATL@@QAE@XZ 10007470 f i Keylock.obj
 0001:000064a0       ??1?$CComPtr@UIConnectionPointContainer@@@ATL@@QAE@XZ 100074a0 f i Keylock.obj
 0001:000064d0       ??1?$CComPtr@UIDataObject@@@ATL@@QAE@XZ 100074d0 f i Keylock.obj
 0001:00006500       ??1?$CComPtr@UIDispatch@@@ATL@@QAE@XZ 10007500 f i Keylock.obj
 0001:00006530       ??1?$CComPtr@UIOleClientSite@@@ATL@@QAE@XZ 10007530 f i Keylock.obj
 0001:00006560       ??1?$CComPtr@UIOleControlSite@@@ATL@@QAE@XZ 10007560 f i Keylock.obj
 0001:00006590       ??1?$CComPtr@UIOleInPlaceActiveObject@@@ATL@@QAE@XZ 10007590 f i Keylock.obj
 0001:000065c0       ??1?$CComPtr@UIOleInPlaceFrame@@@ATL@@QAE@XZ 100075c0 f i Keylock.obj
 0001:000065f0       ??1?$CComPtr@UIOleInPlaceObject@@@ATL@@QAE@XZ 100075f0 f i Keylock.obj
 0001:00006620       ??1?$CComPtr@UIOleInPlaceUIWindow@@@ATL@@QAE@XZ 10007620 f i Keylock.obj
 0001:00006650       ??1?$CComPtr@UIOleObject@@@ATL@@QAE@XZ 10007650 f i Keylock.obj
 0001:00006680       ??1?$CComPtr@UIPersistStream@@@ATL@@QAE@XZ 10007680 f i Keylock.obj
 0001:000066b0       ??1?$CComPtr@UIPersistStreamInit@@@ATL@@QAE@XZ 100076b0 f i Keylock.obj
 0001:000066e0       ??1?$CComPtr@UIPointerInactive@@@ATL@@QAE@XZ 100076e0 f i Keylock.obj
 0001:00006710       ??1?$CComPtr@UIProvideClassInfo2@@@ATL@@QAE@XZ 10007710 f i Keylock.obj
 0001:00006740       ??1?$CComPtr@UISpecifyPropertyPages@@@ATL@@QAE@XZ 10007740 f i Keylock.obj
 0001:00006770       ??1?$CComPtr@UIStream@@@ATL@@QAE@XZ 10007770 f i Keylock.obj
 0001:000067a0       ??1?$CComPtr@UITypeInfo2@@@ATL@@QAE@XZ 100077a0 f i Keylock.obj
 0001:000067d0       ??1?$CComPtr@UITypeInfo@@@ATL@@QAE@XZ 100077d0 f i Keylock.obj
 0001:00006800       ??1?$CComPtr@UITypeLib@@@ATL@@QAE@XZ 10007800 f i Keylock.obj
 0001:00006830       ??1?$CComPtr@UIUnknown@@@ATL@@QAE@XZ 10007830 f i Keylock.obj
 0001:00006860       ??1?$CComPtr@UIViewObjectEx@@@ATL@@QAE@XZ 10007860 f i Keylock.obj
 0001:00006890       ??1?$CComPtrBase@UIAdviseSink@@@ATL@@QAE@XZ 10007890 f i Keylock.obj
 0001:000068e0       ??1?$CComPtrBase@UICatRegister@@@ATL@@QAE@XZ 100078e0 f i Keylock.obj
 0001:00006930       ??1?$CComPtrBase@UIConnectionPoint@@@ATL@@QAE@XZ 10007930 f i Keylock.obj
 0001:00006980       ??1?$CComPtrBase@UIConnectionPointContainer@@@ATL@@QAE@XZ 10007980 f i Keylock.obj
 0001:000069d0       ??1?$CComPtrBase@UIDataObject@@@ATL@@QAE@XZ 100079d0 f i Keylock.obj
 0001:00006a20       ??1?$CComPtrBase@UIDispatch@@@ATL@@QAE@XZ 10007a20 f i Keylock.obj
 0001:00006a70       ??1?$CComPtrBase@UIOleClientSite@@@ATL@@QAE@XZ 10007a70 f i Keylock.obj
 0001:00006ac0       ??1?$CComPtrBase@UIOleControlSite@@@ATL@@QAE@XZ 10007ac0 f i Keylock.obj
 0001:00006b10       ??1?$CComPtrBase@UIOleInPlaceActiveObject@@@ATL@@QAE@XZ 10007b10 f i Keylock.obj
 0001:00006b60       ??1?$CComPtrBase@UIOleInPlaceFrame@@@ATL@@QAE@XZ 10007b60 f i Keylock.obj
 0001:00006bb0       ??1?$CComPtrBase@UIOleInPlaceObject@@@ATL@@QAE@XZ 10007bb0 f i Keylock.obj
 0001:00006c00       ??1?$CComPtrBase@UIOleInPlaceUIWindow@@@ATL@@QAE@XZ 10007c00 f i Keylock.obj
 0001:00006c50       ??1?$CComPtrBase@UIOleObject@@@ATL@@QAE@XZ 10007c50 f i Keylock.obj
 0001:00006ca0       ??1?$CComPtrBase@UIPersistStream@@@ATL@@QAE@XZ 10007ca0 f i Keylock.obj
 0001:00006cf0       ??1?$CComPtrBase@UIPersistStreamInit@@@ATL@@QAE@XZ 10007cf0 f i Keylock.obj
 0001:00006d40       ??1?$CComPtrBase@UIPointerInactive@@@ATL@@QAE@XZ 10007d40 f i Keylock.obj
 0001:00006d90       ??1?$CComPtrBase@UIProvideClassInfo2@@@ATL@@QAE@XZ 10007d90 f i Keylock.obj
 0001:00006de0       ??1?$CComPtrBase@UISpecifyPropertyPages@@@ATL@@QAE@XZ 10007de0 f i Keylock.obj
 0001:00006e30       ??1?$CComPtrBase@UIStream@@@ATL@@QAE@XZ 10007e30 f i Keylock.obj
 0001:00006e80       ??1?$CComPtrBase@UITypeInfo2@@@ATL@@QAE@XZ 10007e80 f i Keylock.obj
 0001:00006ed0       ??1?$CComPtrBase@UITypeInfo@@@ATL@@QAE@XZ 10007ed0 f i Keylock.obj
 0001:00006f20       ??1?$CComPtrBase@UITypeLib@@@ATL@@QAE@XZ 10007f20 f i Keylock.obj
 0001:00006f70       ??1?$CComPtrBase@UIUnknown@@@ATL@@QAE@XZ 10007f70 f i Keylock.obj
 0001:00006fc0       ??1?$CComPtrBase@UIViewObjectEx@@@ATL@@QAE@XZ 10007fc0 f i Keylock.obj
 0001:00007010       ??1?$CComQIPtr@UIOleControlSite@@$1?_GUID_b196b289_bab4_101a_b69c_00aa00341d07@@3U__s_GUID@@B@ATL@@QAE@XZ 10008010 f i Keylock.obj
 0001:00007040       ??1?$CComQIPtr@UIOleObject@@$1?_GUID_00000112_0000_0000_c000_000000000046@@3U__s_GUID@@B@ATL@@QAE@XZ 10008040 f i Keylock.obj
 0001:00007070       ??1?$CComQIPtr@UISpecifyPropertyPages@@$1?_GUID_b196b28b_bab4_101a_b69c_00aa00341d07@@3U__s_GUID@@B@ATL@@QAE@XZ 10008070 f i Keylock.obj
 0001:000070a0       ??1?$CSimpleMap@PA_WPA_WVCExpansionVectorEqualHelper@ATL@@@ATL@@QAE@XZ 100080a0 f i Keylock.obj
 0001:000070d0       ??1?$CTempBuffer@E$0BAA@VCCRTAllocator@ATL@@@ATL@@QAE@XZ 100080d0 f i Keylock.obj
 0001:00007110       ??1?$CTempBuffer@_W$0BAA@VCCRTAllocator@ATL@@@ATL@@QAE@XZ 10008110 f i Keylock.obj
 0001:00007150       ??1?$CTempBuffer@_W$0EAA@VCCRTAllocator@ATL@@@ATL@@QAE@XZ 10008150 f i Keylock.obj
 0001:00007190       ??1CAtlModule@ATL@@UAE@XZ  10008190 f i Keylock.obj
 0001:000071c0       ??1CComAutoDeleteCriticalSection@ATL@@QAE@XZ 100081c0 f i Keylock.obj
 0001:000071f0       ??1CComClassFactory@ATL@@UAE@XZ 100081f0 f i Keylock.obj
 0001:00007220       ??1CComModule@ATL@@UAE@XZ  10008220 f i Keylock.obj
 0001:00007250       ??1CComObjectRootBase@ATL@@QAE@XZ 10008250 f i Keylock.obj
 0001:00007270       ??1CComSafeDeleteCriticalSection@ATL@@QAE@XZ 10008270 f i Keylock.obj
 0001:000072b0       ??1CComVariant@ATL@@QAE@XZ 100082b0 f i Keylock.obj
 0001:00007310       ??1CExpansionVector@ATL@@QAE@XZ 10008310 f i Keylock.obj
 0001:00007340       ??1CParseBuffer@CRegParser@ATL@@QAE@XZ 10008340 f i Keylock.obj
 0001:00007380       ??1CRegKey@ATL@@QAE@XZ     10008380 f i Keylock.obj
 0001:000073b0       ??1CRegObject@ATL@@UAE@XZ  100083b0 f i Keylock.obj
 0001:000073f0       ??1ModuleLockHelper@ATL@@QAE@XZ 100083f0 f i Keylock.obj
 0001:00007430       ??1OposVariant@@QAE@XZ     10008430 f i Keylock.obj
 0001:00007460       ??1_ATL_MODULE70@ATL@@QAE@XZ 10008460 f i Keylock.obj
 0001:00007490       ??4?$CComPtr@UIAdviseSink@@@ATL@@QAEPAUIAdviseSink@@PAU2@@Z 10008490 f i Keylock.obj
 0001:00007500       ??4?$CComPtr@UIOleClientSite@@@ATL@@QAEPAUIOleClientSite@@PAU2@@Z 10008500 f i Keylock.obj
 0001:00007570       ??4?$CComPtr@UIUnknown@@@ATL@@QAEPAUIUnknown@@PAU2@@Z 10008570 f i Keylock.obj
 0001:000075e0       ??4?$CComQIPtr@UIOleObject@@$1?_GUID_00000112_0000_0000_c000_000000000046@@3U__s_GUID@@B@ATL@@QAEPAUIOleObject@@PAUIUnknown@@@Z 100085e0 f i Keylock.obj
 0001:00007630       ??4?$CComQIPtr@UISpecifyPropertyPages@@$1?_GUID_b196b28b_bab4_101a_b69c_00aa00341d07@@3U__s_GUID@@B@ATL@@QAEPAUISpecifyPropertyPages@@PAUIUnknown@@@Z 10008630 f i Keylock.obj
 0001:00007680       ??7?$CComPtrBase@UIOleClientSite@@@ATL@@QBE_NXZ 10008680 f i Keylock.obj
 0001:000076c0       ??7?$CComPtrBase@UIOleInPlaceSiteWindowless@@@ATL@@QBE_NXZ 100086c0 f i Keylock.obj
 0001:00007700       ??7CComBSTR@ATL@@QBE_NXZ   10008700 f i Keylock.obj
 0001:00007740       ??8?$CComPtrBase@UIAdviseSink@@@ATL@@QBE_NPAUIAdviseSink@@@Z 10008740 f i Keylock.obj
 0001:00007780       ??8?$CComPtrBase@UIConnectionPointContainer@@@ATL@@QBE_NPAUIConnectionPointContainer@@@Z 10008780 f i Keylock.obj
 0001:000077c0       ??8?$CComPtrBase@UIDataAdviseHolder@@@ATL@@QBE_NPAUIDataAdviseHolder@@@Z 100087c0 f i Keylock.obj
 0001:00007800       ??8?$CComPtrBase@UIOleAdviseHolder@@@ATL@@QBE_NPAUIOleAdviseHolder@@@Z 10008800 f i Keylock.obj
 0001:00007840       ??8?$CComPtrBase@UIOleClientSite@@@ATL@@QBE_NPAUIOleClientSite@@@Z 10008840 f i Keylock.obj
 0001:00007880       ??8?$CComPtrBase@UIOleControlSite@@@ATL@@QBE_NPAUIOleControlSite@@@Z 10008880 f i Keylock.obj
 0001:000078c0       ??8?$CComPtrBase@UIOleInPlaceObject@@@ATL@@QBE_NPAUIOleInPlaceObject@@@Z 100088c0 f i Keylock.obj
 0001:00007900       ??8?$CComPtrBase@UIOleInPlaceSiteWindowless@@@ATL@@QBE_NPAUIOleInPlaceSiteWindowless@@@Z 10008900 f i Keylock.obj
 0001:00007940       ??8?$CComPtrBase@UIOleObject@@@ATL@@QBE_NPAUIOleObject@@@Z 10008940 f i Keylock.obj
 0001:00007980       ??8?$CComPtrBase@UIPersistStream@@@ATL@@QBE_NPAUIPersistStream@@@Z 10008980 f i Keylock.obj
 0001:000079c0       ??8?$CComPtrBase@UIPersistStreamInit@@@ATL@@QBE_NPAUIPersistStreamInit@@@Z 100089c0 f i Keylock.obj
 0001:00007a00       ??8?$CComPtrBase@UIPointerInactive@@@ATL@@QBE_NPAUIPointerInactive@@@Z 10008a00 f i Keylock.obj
 0001:00007a40       ??8?$CComPtrBase@UIUnknown@@@ATL@@QBE_NPAUIUnknown@@@Z 10008a40 f i Keylock.obj
 0001:00007a80       ??8?$CComPtrBase@UIViewObjectEx@@@ATL@@QBE_NPAUIViewObjectEx@@@Z 10008a80 f i Keylock.obj
 0001:00007ac0       ??8CComBSTR@ATL@@QBE_NH@Z  10008ac0 f i Keylock.obj
 0001:00007b20       ??9?$CComPtrBase@UIAdviseSink@@@ATL@@QBE_NPAUIAdviseSink@@@Z 10008b20 f i Keylock.obj
 0001:00007b70       ??9?$CComPtrBase@UIConnectionPointContainer@@@ATL@@QBE_NPAUIConnectionPointContainer@@@Z 10008b70 f i Keylock.obj
 0001:00007bc0       ??9?$CComPtrBase@UIDataAdviseHolder@@@ATL@@QBE_NPAUIDataAdviseHolder@@@Z 10008bc0 f i Keylock.obj
 0001:00007c10       ??9?$CComPtrBase@UIOleAdviseHolder@@@ATL@@QBE_NPAUIOleAdviseHolder@@@Z 10008c10 f i Keylock.obj
 0001:00007c60       ??9?$CComPtrBase@UIOleClientSite@@@ATL@@QBE_NPAUIOleClientSite@@@Z 10008c60 f i Keylock.obj
 0001:00007cb0       ??9?$CComPtrBase@UIOleControlSite@@@ATL@@QBE_NPAUIOleControlSite@@@Z 10008cb0 f i Keylock.obj
 0001:00007d00       ??9?$CComPtrBase@UIOleInPlaceObject@@@ATL@@QBE_NPAUIOleInPlaceObject@@@Z 10008d00 f i Keylock.obj
 0001:00007d50       ??9?$CComPtrBase@UIOleInPlaceSiteWindowless@@@ATL@@QBE_NPAUIOleInPlaceSiteWindowless@@@Z 10008d50 f i Keylock.obj
 0001:00007da0       ??9?$CComPtrBase@UIOleObject@@@ATL@@QBE_NPAUIOleObject@@@Z 10008da0 f i Keylock.obj
 0001:00007df0       ??9?$CComPtrBase@UIPersistStream@@@ATL@@QBE_NPAUIPersistStream@@@Z 10008df0 f i Keylock.obj
 0001:00007e40       ??9?$CComPtrBase@UIPersistStreamInit@@@ATL@@QBE_NPAUIPersistStreamInit@@@Z 10008e40 f i Keylock.obj
 0001:00007e90       ??9?$CComPtrBase@UIPointerInactive@@@ATL@@QBE_NPAUIPointerInactive@@@Z 10008e90 f i Keylock.obj
 0001:00007ee0       ??9?$CComPtrBase@UIUnknown@@@ATL@@QBE_NPAUIUnknown@@@Z 10008ee0 f i Keylock.obj
 0001:00007f30       ??9?$CComPtrBase@UIViewObjectEx@@@ATL@@QBE_NPAUIViewObjectEx@@@Z 10008f30 f i Keylock.obj
 0001:00007f80       ??9CComBSTR@ATL@@QBE_NH@Z  10008f80 f i Keylock.obj
 0001:00007fd0       ??B?$CComPtrBase@UIAdviseSink@@@ATL@@QBEPAUIAdviseSink@@XZ 10008fd0 f i Keylock.obj
 0001:00007ff0       ??B?$CComPtrBase@UIDataAdviseHolder@@@ATL@@QBEPAUIDataAdviseHolder@@XZ 10008ff0 f i Keylock.obj
 0001:00008010       ??B?$CComPtrBase@UIDataObject@@@ATL@@QBEPAUIDataObject@@XZ 10009010 f i Keylock.obj
 0001:00008030       ??B?$CComPtrBase@UIOleAdviseHolder@@@ATL@@QBEPAUIOleAdviseHolder@@XZ 10009030 f i Keylock.obj
 0001:00008050       ??B?$CComPtrBase@UIOleClientSite@@@ATL@@QBEPAUIOleClientSite@@XZ 10009050 f i Keylock.obj
 0001:00008070       ??B?$CComPtrBase@UIOleControlSite@@@ATL@@QBEPAUIOleControlSite@@XZ 10009070 f i Keylock.obj
 0001:00008090       ??B?$CComPtrBase@UIOleInPlaceActiveObject@@@ATL@@QBEPAUIOleInPlaceActiveObject@@XZ 10009090 f i Keylock.obj
 0001:000080b0       ??B?$CComPtrBase@UIOleInPlaceFrame@@@ATL@@QBEPAUIOleInPlaceFrame@@XZ 100090b0 f i Keylock.obj
 0001:000080d0       ??B?$CComPtrBase@UIOleInPlaceSiteWindowless@@@ATL@@QBEPAUIOleInPlaceSiteWindowless@@XZ 100090d0 f i Keylock.obj
 0001:000080f0       ??B?$CComPtrBase@UIOleInPlaceUIWindow@@@ATL@@QBEPAUIOleInPlaceUIWindow@@XZ 100090f0 f i Keylock.obj
 0001:00008110       ??B?$CComPtrBase@UIOleObject@@@ATL@@QBEPAUIOleObject@@XZ 10009110 f i Keylock.obj
 0001:00008130       ??B?$CComPtrBase@UIPersistStream@@@ATL@@QBEPAUIPersistStream@@XZ 10009130 f i Keylock.obj
 0001:00008150       ??B?$CComPtrBase@UIProvideClassInfo2@@@ATL@@QBEPAUIProvideClassInfo2@@XZ 10009150 f i Keylock.obj
 0001:00008170       ??B?$CComPtrBase@UISpecifyPropertyPages@@@ATL@@QBEPAUISpecifyPropertyPages@@XZ 10009170 f i Keylock.obj
 0001:00008190       ??B?$CComPtrBase@UIStream@@@ATL@@QBEPAUIStream@@XZ 10009190 f i Keylock.obj
 0001:000081b0       ??B?$CComPtrBase@UITypeInfo2@@@ATL@@QBEPAUITypeInfo2@@XZ 100091b0 f i Keylock.obj
 0001:000081d0       ??B?$CComPtrBase@UITypeInfo@@@ATL@@QBEPAUITypeInfo@@XZ 100091d0 f i Keylock.obj
 0001:000081f0       ??B?$CComPtrBase@UITypeLib@@@ATL@@QBEPAUITypeLib@@XZ 100091f0 f i Keylock.obj
 0001:00008210       ??B?$CComPtrBase@UIUnknown@@@ATL@@QBEPAUIUnknown@@XZ 10009210 f i Keylock.obj
 0001:00008230       ??B?$CTempBuffer@E$0BAA@VCCRTAllocator@ATL@@@ATL@@QBEPAEXZ 10009230 f i Keylock.obj
 0001:00008250       ??B?$CTempBuffer@_W$0BAA@VCCRTAllocator@ATL@@@ATL@@QBEPA_WXZ 10009250 f i Keylock.obj
 0001:00008270       ??B?$CTempBuffer@_W$0EAA@VCCRTAllocator@ATL@@@ATL@@QBEPA_WXZ 10009270 f i Keylock.obj
 0001:00008290       ??B?$CTraceCategoryEx@$00$0A@@ATL@@QAEIXZ 10009290 f i Keylock.obj
 0001:000082b0       ??B?$CTraceCategoryEx@$07$0A@@ATL@@QAEIXZ 100092b0 f i Keylock.obj
 0001:000082d0       ??B?$CTraceCategoryEx@$0CAAA@$0A@@ATL@@QAEIXZ 100092d0 f i Keylock.obj
 0001:000082f0       ??B?$CTraceCategoryEx@$0EA@$0A@@ATL@@QAEIXZ 100092f0 f i Keylock.obj
 0001:00008310       ??B?$CTraceCategoryEx@$0IAA@$0A@@ATL@@QAEIXZ 10009310 f i Keylock.obj
 0001:00008330       ??BCComBSTR@ATL@@QBEPA_WXZ 10009330 f i Keylock.obj
 0001:00008350       ??BCRegKey@ATL@@QBEPAUHKEY__@@XZ 10009350 f i Keylock.obj
 0001:00008370       ??C?$CComPtrBase@UIAdviseSink@@@ATL@@QBEPAV?$_NoAddRefReleaseOnCComPtr@UIAdviseSink@@@1@XZ 10009370 f i Keylock.obj
 0001:000083c0       ??C?$CComPtrBase@UICatRegister@@@ATL@@QBEPAV?$_NoAddRefReleaseOnCComPtr@UICatRegister@@@1@XZ 100093c0 f i Keylock.obj
 0001:00008410       ??C?$CComPtrBase@UIConnectionPoint@@@ATL@@QBEPAV?$_NoAddRefReleaseOnCComPtr@UIConnectionPoint@@@1@XZ 10009410 f i Keylock.obj
 0001:00008460       ??C?$CComPtrBase@UIConnectionPointContainer@@@ATL@@QBEPAV?$_NoAddRefReleaseOnCComPtr@UIConnectionPointContainer@@@1@XZ 10009460 f i Keylock.obj
 0001:000084b0       ??C?$CComPtrBase@UIDataAdviseHolder@@@ATL@@QBEPAV?$_NoAddRefReleaseOnCComPtr@UIDataAdviseHolder@@@1@XZ 100094b0 f i Keylock.obj
 0001:00008500       ??C?$CComPtrBase@UIOleAdviseHolder@@@ATL@@QBEPAV?$_NoAddRefReleaseOnCComPtr@UIOleAdviseHolder@@@1@XZ 10009500 f i Keylock.obj
 0001:00008550       ??C?$CComPtrBase@UIOleClientSite@@@ATL@@QBEPAV?$_NoAddRefReleaseOnCComPtr@UIOleClientSite@@@1@XZ 10009550 f i Keylock.obj
 0001:000085a0       ??C?$CComPtrBase@UIOleControlSite@@@ATL@@QBEPAV?$_NoAddRefReleaseOnCComPtr@UIOleControlSite@@@1@XZ 100095a0 f i Keylock.obj
 0001:000085f0       ??C?$CComPtrBase@UIOleInPlaceFrame@@@ATL@@QBEPAV?$_NoAddRefReleaseOnCComPtr@UIOleInPlaceFrame@@@1@XZ 100095f0 f i Keylock.obj
 0001:00008640       ??C?$CComPtrBase@UIOleInPlaceObject@@@ATL@@QBEPAV?$_NoAddRefReleaseOnCComPtr@UIOleInPlaceObject@@@1@XZ 10009640 f i Keylock.obj
 0001:00008690       ??C?$CComPtrBase@UIOleInPlaceSiteWindowless@@@ATL@@QBEPAV?$_NoAddRefReleaseOnCComPtr@UIOleInPlaceSiteWindowless@@@1@XZ 10009690 f i Keylock.obj
 0001:000086e0       ??C?$CComPtrBase@UIOleInPlaceUIWindow@@@ATL@@QBEPAV?$_NoAddRefReleaseOnCComPtr@UIOleInPlaceUIWindow@@@1@XZ 100096e0 f i Keylock.obj
 0001:00008730       ??C?$CComPtrBase@UIOleObject@@@ATL@@QBEPAV?$_NoAddRefReleaseOnCComPtr@UIOleObject@@@1@XZ 10009730 f i Keylock.obj
 0001:00008780       ??C?$CComPtrBase@UIPersistStream@@@ATL@@QBEPAV?$_NoAddRefReleaseOnCComPtr@UIPersistStream@@@1@XZ 10009780 f i Keylock.obj
 0001:000087d0       ??C?$CComPtrBase@UIPersistStreamInit@@@ATL@@QBEPAV?$_NoAddRefReleaseOnCComPtr@UIPersistStreamInit@@@1@XZ 100097d0 f i Keylock.obj
 0001:00008820       ??C?$CComPtrBase@UIPointerInactive@@@ATL@@QBEPAV?$_NoAddRefReleaseOnCComPtr@UIPointerInactive@@@1@XZ 10009820 f i Keylock.obj
 0001:00008870       ??C?$CComPtrBase@UIProvideClassInfo2@@@ATL@@QBEPAV?$_NoAddRefReleaseOnCComPtr@UIProvideClassInfo2@@@1@XZ 10009870 f i Keylock.obj
 0001:000088c0       ??C?$CComPtrBase@UISpecifyPropertyPages@@@ATL@@QBEPAV?$_NoAddRefReleaseOnCComPtr@UISpecifyPropertyPages@@@1@XZ 100098c0 f i Keylock.obj
 0001:00008910       ??C?$CComPtrBase@UITypeInfo@@@ATL@@QBEPAV?$_NoAddRefReleaseOnCComPtr@UITypeInfo@@@1@XZ 10009910 f i Keylock.obj
 0001:00008960       ??C?$CComPtrBase@UITypeLib@@@ATL@@QBEPAV?$_NoAddRefReleaseOnCComPtr@UITypeLib@@@1@XZ 10009960 f i Keylock.obj
 0001:000089b0       ??C?$CComPtrBase@UIUnknown@@@ATL@@QBEPAV?$_NoAddRefReleaseOnCComPtr@UIUnknown@@@1@XZ 100099b0 f i Keylock.obj
 0001:00008a00       ??C?$CComPtrBase@UIViewObjectEx@@@ATL@@QBEPAV?$_NoAddRefReleaseOnCComPtr@UIViewObjectEx@@@1@XZ 10009a00 f i Keylock.obj
 0001:00008a50       ??I?$CComPtrBase@UICatRegister@@@ATL@@QAEPAPAUICatRegister@@XZ 10009a50 f i Keylock.obj
 0001:00008aa0       ??I?$CComPtrBase@UIConnectionPoint@@@ATL@@QAEPAPAUIConnectionPoint@@XZ 10009aa0 f i Keylock.obj
 0001:00008af0       ??I?$CComPtrBase@UIConnectionPointContainer@@@ATL@@QAEPAPAUIConnectionPointContainer@@XZ 10009af0 f i Keylock.obj
 0001:00008b40       ??I?$CComPtrBase@UIDataAdviseHolder@@@ATL@@QAEPAPAUIDataAdviseHolder@@XZ 10009b40 f i Keylock.obj
 0001:00008b90       ??I?$CComPtrBase@UIDataObject@@@ATL@@QAEPAPAUIDataObject@@XZ 10009b90 f i Keylock.obj
 0001:00008be0       ??I?$CComPtrBase@UIDispatch@@@ATL@@QAEPAPAUIDispatch@@XZ 10009be0 f i Keylock.obj
 0001:00008c30       ??I?$CComPtrBase@UIOleAdviseHolder@@@ATL@@QAEPAPAUIOleAdviseHolder@@XZ 10009c30 f i Keylock.obj
 0001:00008c80       ??I?$CComPtrBase@UIOleControlSite@@@ATL@@QAEPAPAUIOleControlSite@@XZ 10009c80 f i Keylock.obj
 0001:00008cd0       ??I?$CComPtrBase@UIOleInPlaceActiveObject@@@ATL@@QAEPAPAUIOleInPlaceActiveObject@@XZ 10009cd0 f i Keylock.obj
 0001:00008d20       ??I?$CComPtrBase@UIOleInPlaceFrame@@@ATL@@QAEPAPAUIOleInPlaceFrame@@XZ 10009d20 f i Keylock.obj
 0001:00008d70       ??I?$CComPtrBase@UIOleInPlaceObject@@@ATL@@QAEPAPAUIOleInPlaceObject@@XZ 10009d70 f i Keylock.obj
 0001:00008dc0       ??I?$CComPtrBase@UIOleInPlaceSiteWindowless@@@ATL@@QAEPAPAUIOleInPlaceSiteWindowless@@XZ 10009dc0 f i Keylock.obj
 0001:00008e10       ??I?$CComPtrBase@UIOleInPlaceUIWindow@@@ATL@@QAEPAPAUIOleInPlaceUIWindow@@XZ 10009e10 f i Keylock.obj
 0001:00008e60       ??I?$CComPtrBase@UIOleObject@@@ATL@@QAEPAPAUIOleObject@@XZ 10009e60 f i Keylock.obj
 0001:00008eb0       ??I?$CComPtrBase@UIPersistStream@@@ATL@@QAEPAPAUIPersistStream@@XZ 10009eb0 f i Keylock.obj
 0001:00008f00       ??I?$CComPtrBase@UIPointerInactive@@@ATL@@QAEPAPAUIPointerInactive@@XZ 10009f00 f i Keylock.obj
 0001:00008f50       ??I?$CComPtrBase@UIProvideClassInfo2@@@ATL@@QAEPAPAUIProvideClassInfo2@@XZ 10009f50 f i Keylock.obj
 0001:00008fa0       ??I?$CComPtrBase@UIStream@@@ATL@@QAEPAPAUIStream@@XZ 10009fa0 f i Keylock.obj
 0001:00008ff0       ??I?$CComPtrBase@UITypeInfo2@@@ATL@@QAEPAPAUITypeInfo2@@XZ 10009ff0 f i Keylock.obj
 0001:00009040       ??I?$CComPtrBase@UITypeInfo@@@ATL@@QAEPAPAUITypeInfo@@XZ 1000a040 f i Keylock.obj
 0001:00009090       ??I?$CComPtrBase@UITypeLib@@@ATL@@QAEPAPAUITypeLib@@XZ 1000a090 f i Keylock.obj
 0001:000090e0       ??I?$CComPtrBase@UIUnknown@@@ATL@@QAEPAPAUIUnknown@@XZ 1000a0e0 f i Keylock.obj
 0001:00009130       ??I?$CComPtrBase@UIViewObjectEx@@@ATL@@QAEPAPAUIViewObjectEx@@XZ 1000a130 f i Keylock.obj
 0001:00009180       ??ICComBSTR@ATL@@QAEPAPA_WXZ 1000a180 f i Keylock.obj
 0001:00009195       ??_E?$CComContainedObject@VCOPOSKeylock@@@ATL@@W3AEPAXI@Z 1000a195 f i Keylock.obj
 0001:0000919d       ??_E?$CComContainedObject@VCOPOSKeylock@@@ATL@@WEM@AEPAXI@Z 1000a19d f i Keylock.obj
 0001:000091a5       ??_E?$CComObject@VCOPOSKeylock@@@ATL@@W3AEPAXI@Z 1000a1a5 f i Keylock.obj
 0001:000091ad       ??_E?$CComObject@VCOPOSKeylock@@@ATL@@WEM@AEPAXI@Z 1000a1ad f i Keylock.obj
 0001:000091c0       ??_E?$CComAggObject@VCOPOSKeylock@@@ATL@@UAEPAXI@Z 1000a1c0 f i Keylock.obj
 0001:000091c0       ??_G?$CComAggObject@VCOPOSKeylock@@@ATL@@UAEPAXI@Z 1000a1c0 f i Keylock.obj
 0001:00009210       ??_G?$CComContainedObject@VCOPOSKeylock@@@ATL@@UAEPAXI@Z 1000a210 f i Keylock.obj
 0001:00009210       ??_E?$CComContainedObject@VCOPOSKeylock@@@ATL@@UAEPAXI@Z 1000a210 f i Keylock.obj
 0001:00009260       ??_E?$CComObject@V?$CComEnum@UIEnumConnectionPoints@@$1?_GUID_b196b285_bab4_101a_b69c_00aa00341d07@@3U__s_GUID@@BPAUIConnectionPoint@@V?$_CopyInterface@UIConnectionPoint@@@ATL@@VCComSingleThreadModel@6@@ATL@@@ATL@@UAEPAXI@Z 1000a260 f i Keylock.obj
 0001:00009260       ??_G?$CComObject@V?$CComEnum@UIEnumConnectionPoints@@$1?_GUID_b196b285_bab4_101a_b69c_00aa00341d07@@3U__s_GUID@@BPAUIConnectionPoint@@V?$_CopyInterface@UIConnectionPoint@@@ATL@@VCComSingleThreadModel@6@@ATL@@@ATL@@UAEPAXI@Z 1000a260 f i Keylock.obj
 0001:000092a0       ??_E?$CComObject@V?$CComEnum@UIEnumConnections@@$1?_GUID_b196b287_bab4_101a_b69c_00aa00341d07@@3U__s_GUID@@BUtagCONNECTDATA@@V?$_Copy@UtagCONNECTDATA@@@ATL@@VCComSingleThreadModel@6@@ATL@@@ATL@@UAEPAXI@Z 1000a2a0 f i Keylock.obj
 0001:000092a0       ??_G?$CComObject@V?$CComEnum@UIEnumConnections@@$1?_GUID_b196b287_bab4_101a_b69c_00aa00341d07@@3U__s_GUID@@BUtagCONNECTDATA@@V?$_Copy@UtagCONNECTDATA@@@ATL@@VCComSingleThreadModel@6@@ATL@@@ATL@@UAEPAXI@Z 1000a2a0 f i Keylock.obj
 0001:000092e0       ??_E?$CComObject@VCOPOSKeylock@@@ATL@@UAEPAXI@Z 1000a2e0 f i Keylock.obj
 0001:000092e0       ??_G?$CComObject@VCOPOSKeylock@@@ATL@@UAEPAXI@Z 1000a2e0 f i Keylock.obj
 0001:00009330       ??_E?$CComObjectCached@VCComClassFactory@ATL@@@ATL@@UAEPAXI@Z 1000a330 f i Keylock.obj
 0001:00009330       ??_G?$CComObjectCached@VCComClassFactory@ATL@@@ATL@@UAEPAXI@Z 1000a330 f i Keylock.obj
 0001:00009370       ??_GCComClassFactory@ATL@@UAEPAXI@Z 1000a370 f i Keylock.obj
 0001:00009370       ??_ECComClassFactory@ATL@@UAEPAXI@Z 1000a370 f i Keylock.obj
 0001:000093b0       ??_ECComModule@ATL@@UAEPAXI@Z 1000a3b0 f i Keylock.obj
 0001:000093b0       ??_GCComModule@ATL@@UAEPAXI@Z 1000a3b0 f i Keylock.obj
 0001:000093f0       ??_GCRegObject@ATL@@UAEPAXI@Z 1000a3f0 f i Keylock.obj
 0001:000093f0       ??_ECRegObject@ATL@@UAEPAXI@Z 1000a3f0 f i Keylock.obj
 0001:00009430       ?Add@?$CSimpleArray@GV?$CSimpleArrayEqualHelper@G@ATL@@@ATL@@QAEHABG@Z 1000a430 f i Keylock.obj
 0001:00009580       ?Add@?$CSimpleMap@PA_WPA_WVCExpansionVectorEqualHelper@ATL@@@ATL@@QAEHABQA_W0@Z 1000a580 f i Keylock.obj
 0001:00009640       ?Add@CComDynamicUnkArray@ATL@@QAEKPAUIUnknown@@@Z 1000a640 f i Keylock.obj
 0001:000097e0       ?Add@CExpansionVector@ATL@@QAEHPB_W0@Z 1000a7e0 f i Keylock.obj
 0001:00009a70       ?AddChar@CParseBuffer@CRegParser@ATL@@QAEHPB_W@Z 1000aa70 f i Keylock.obj
 0001:00009ab0       ?AddCommonRGSReplacements@?$CAtlModuleT@VCComModule@ATL@@@ATL@@UAEJPAUIRegistrarBase@@@Z 1000aab0 f i Keylock.obj
 0001:00009b00       ?AddCreateWndData@CAtlWinModule@ATL@@QAEXPAU_AtlCreateWndData@2@PAX@Z 1000ab00 f i Keylock.obj
 0001:00009b30       ?AddRef@?$CComAggObject@VCOPOSKeylock@@@ATL@@UAGKXZ 1000ab30 f i Keylock.obj
 0001:00009b50       ?AddRef@?$CComContainedObject@VCOPOSKeylock@@@ATL@@UAGKXZ 1000ab50 f i Keylock.obj
 0001:00009b6c       ?AddRef@?$CComContainedObject@VCOPOSKeylock@@@ATL@@WHA@AGKXZ 1000ab6c f i Keylock.obj
 0001:00009b76       ?AddRef@?$CComContainedObject@VCOPOSKeylock@@@ATL@@WHE@AGKXZ 1000ab76 f i Keylock.obj
 0001:00009b80       ?AddRef@?$CComContainedObject@VCOPOSKeylock@@@ATL@@WHI@AGKXZ 1000ab80 f i Keylock.obj
 0001:00009b8a       ?AddRef@?$CComContainedObject@VCOPOSKeylock@@@ATL@@WHM@AGKXZ 1000ab8a f i Keylock.obj
 0001:00009b94       ?AddRef@?$CComContainedObject@VCOPOSKeylock@@@ATL@@WIA@AGKXZ 1000ab94 f i Keylock.obj
 0001:00009ba1       ?AddRef@?$CComContainedObject@VCOPOSKeylock@@@ATL@@WIE@AGKXZ 1000aba1 f i Keylock.obj
 0001:00009bae       ?AddRef@?$CComContainedObject@VCOPOSKeylock@@@ATL@@WII@AGKXZ 1000abae f i Keylock.obj
 0001:00009bbb       ?AddRef@?$CComContainedObject@VCOPOSKeylock@@@ATL@@WIM@AGKXZ 1000abbb f i Keylock.obj
 0001:00009bc8       ?AddRef@?$CComContainedObject@VCOPOSKeylock@@@ATL@@WJA@AGKXZ 1000abc8 f i Keylock.obj
 0001:00009bd5       ?AddRef@?$CComContainedObject@VCOPOSKeylock@@@ATL@@WJE@AGKXZ 1000abd5 f i Keylock.obj
 0001:00009be2       ?AddRef@?$CComContainedObject@VCOPOSKeylock@@@ATL@@WJI@AGKXZ 1000abe2 f i Keylock.obj
 0001:00009bef       ?AddRef@?$CComContainedObject@VCOPOSKeylock@@@ATL@@WJM@AGKXZ 1000abef f i Keylock.obj
 0001:00009bfc       ?AddRef@?$CComContainedObject@VCOPOSKeylock@@@ATL@@WKA@AGKXZ 1000abfc f i Keylock.obj
 0001:00009c09       ?AddRef@?$CComContainedObject@VCOPOSKeylock@@@ATL@@WKI@AGKXZ 1000ac09 f i Keylock.obj
 0001:00009c16       ?AddRef@?$CComContainedObject@VCOPOSKeylock@@@ATL@@WLE@AGKXZ 1000ac16 f i Keylock.obj
 0001:00009c30       ?AddRef@?$CComObject@V?$CComEnum@UIEnumConnectionPoints@@$1?_GUID_b196b285_bab4_101a_b69c_00aa00341d07@@3U__s_GUID@@BPAUIConnectionPoint@@V?$_CopyInterface@UIConnectionPoint@@@ATL@@VCComSingleThreadModel@6@@ATL@@@ATL@@UAGKXZ 1000ac30 f i Keylock.obj
 0001:00009c50       ?AddRef@?$CComObject@V?$CComEnum@UIEnumConnections@@$1?_GUID_b196b287_bab4_101a_b69c_00aa00341d07@@3U__s_GUID@@BUtagCONNECTDATA@@V?$_Copy@UtagCONNECTDATA@@@ATL@@VCComSingleThreadModel@6@@ATL@@@ATL@@UAGKXZ 1000ac50 f i Keylock.obj
 0001:00009c70       ?AddRef@?$CComObject@VCOPOSKeylock@@@ATL@@UAGKXZ 1000ac70 f i Keylock.obj
 0001:00009c8c       ?AddRef@?$CComObject@VCOPOSKeylock@@@ATL@@WHA@AGKXZ 1000ac8c f i Keylock.obj
 0001:00009c96       ?AddRef@?$CComObject@VCOPOSKeylock@@@ATL@@WHE@AGKXZ 1000ac96 f i Keylock.obj
 0001:00009ca0       ?AddRef@?$CComObject@VCOPOSKeylock@@@ATL@@WHI@AGKXZ 1000aca0 f i Keylock.obj
 0001:00009caa       ?AddRef@?$CComObject@VCOPOSKeylock@@@ATL@@WHM@AGKXZ 1000acaa f i Keylock.obj
 0001:00009cb4       ?AddRef@?$CComObject@VCOPOSKeylock@@@ATL@@WIA@AGKXZ 1000acb4 f i Keylock.obj
 0001:00009cc1       ?AddRef@?$CComObject@VCOPOSKeylock@@@ATL@@WIE@AGKXZ 1000acc1 f i Keylock.obj
 0001:00009cce       ?AddRef@?$CComObject@VCOPOSKeylock@@@ATL@@WII@AGKXZ 1000acce f i Keylock.obj
 0001:00009cdb       ?AddRef@?$CComObject@VCOPOSKeylock@@@ATL@@WIM@AGKXZ 1000acdb f i Keylock.obj
 0001:00009ce8       ?AddRef@?$CComObject@VCOPOSKeylock@@@ATL@@WJA@AGKXZ 1000ace8 f i Keylock.obj
 0001:00009cf5       ?AddRef@?$CComObject@VCOPOSKeylock@@@ATL@@WJE@AGKXZ 1000acf5 f i Keylock.obj
 0001:00009d02       ?AddRef@?$CComObject@VCOPOSKeylock@@@ATL@@WJI@AGKXZ 1000ad02 f i Keylock.obj
 0001:00009d0f       ?AddRef@?$CComObject@VCOPOSKeylock@@@ATL@@WJM@AGKXZ 1000ad0f f i Keylock.obj
 0001:00009d1c       ?AddRef@?$CComObject@VCOPOSKeylock@@@ATL@@WKA@AGKXZ 1000ad1c f i Keylock.obj
 0001:00009d29       ?AddRef@?$CComObject@VCOPOSKeylock@@@ATL@@WKI@AGKXZ 1000ad29 f i Keylock.obj
 0001:00009d36       ?AddRef@?$CComObject@VCOPOSKeylock@@@ATL@@WLE@AGKXZ 1000ad36 f i Keylock.obj
 0001:00009d50       ?AddRef@?$CComObjectCached@VCComClassFactory@ATL@@@ATL@@UAGKXZ 1000ad50 f i Keylock.obj
 0001:00009da0       ?AddRef@CRegObject@ATL@@UAGKXZ 1000ada0 f i Keylock.obj
 0001:00009df0       ?AddReplacement@CRegObject@ATL@@UAGJPB_W0@Z 1000adf0 f i Keylock.obj
 0001:00009f00       ?AddString@CParseBuffer@CRegParser@ATL@@QAEHPB_W@Z 1000af00 f i Keylock.obj
 0001:00009ff0       ?AddTermFunc@CAtlModule@ATL@@QAEJP6GXK@ZK@Z 1000aff0 f i Keylock.obj
 0001:0000a040       ?AddValue@CRegParser@ATL@@IAEJAAVCRegKey@2@PB_WPA_W@Z 1000b040 f i Keylock.obj
 0001:0000a7d0       ?Advise@?$CProxy_IOPOSEvents@VCOPOSKeylock@@@@UAGJPAUIUnknown@@PAK@Z 1000b7d0 f i Keylock.obj
 0001:0000a820       ?Advise@?$IConnectionPointImpl@VCOPOSKeylock@@$1?DIID__IOPOSKeylockEvents@@3U_GUID@@BVCComDynamicUnkArray@ATL@@@ATL@@UAGJPAUIUnknown@@PAK@Z 1000b820 f i Keylock.obj
 0001:0000a9c0       ?Advise@?$IConnectionPointImpl@VCOPOSKeylock@@$1?IID_IPropertyNotifySink@@3U_GUID@@BVCComDynamicUnkArray@ATL@@@ATL@@UAGJPAUIUnknown@@PAK@Z 1000b9c0 f i Keylock.obj
 0001:0000ab60       ?Advise@?$IOleObjectImpl@VCOPOSKeylock@@@ATL@@UAGJPAUIAdviseSink@@PAK@Z 1000bb60 f i Keylock.obj
 0001:0000abf0       ?Allocate@?$CAtlSafeAllocBufferManager@VCCRTAllocator@ATL@@@_ATL_SAFE_ALLOCA_IMPL@ATL@@QAEPAXK@Z 1000bbf0 f i Keylock.obj
 0001:0000ac60       ?Allocate@?$CTempBuffer@E$0BAA@VCCRTAllocator@ATL@@@ATL@@QAEPAEI@Z 1000bc60 f i Keylock.obj
 0001:0000aca0       ?Allocate@?$CTempBuffer@_W$0BAA@VCCRTAllocator@ATL@@@ATL@@QAEPA_WI@Z 1000bca0 f i Keylock.obj
 0001:0000ace0       ?Allocate@?$CTempBuffer@_W$0EAA@VCCRTAllocator@ATL@@@ATL@@QAEPA_WI@Z 1000bce0 f i Keylock.obj
 0001:0000ad20       ?AllocateBytes@?$CTempBuffer@E$0BAA@VCCRTAllocator@ATL@@@ATL@@QAEPAEI@Z 1000bd20 f i Keylock.obj
 0001:0000ada0       ?AllocateBytes@?$CTempBuffer@_W$0BAA@VCCRTAllocator@ATL@@@ATL@@QAEPA_WI@Z 1000bda0 f i Keylock.obj
 0001:0000ae20       ?AllocateBytes@?$CTempBuffer@_W$0EAA@VCCRTAllocator@ATL@@@ATL@@QAEPA_WI@Z 1000be20 f i Keylock.obj
 0001:0000aea0       ?AllocateHeap@?$CTempBuffer@E$0BAA@VCCRTAllocator@ATL@@@ATL@@AAEXI@Z 1000bea0 f i Keylock.obj
 0001:0000aef0       ?AllocateHeap@?$CTempBuffer@_W$0BAA@VCCRTAllocator@ATL@@@ATL@@AAEXI@Z 1000bef0 f i Keylock.obj
 0001:0000af40       ?AllocateHeap@?$CTempBuffer@_W$0EAA@VCCRTAllocator@ATL@@@ATL@@AAEXI@Z 1000bf40 f i Keylock.obj
 0001:0000af90       ?Append@CParseBuffer@CRegParser@ATL@@QAEHPB_WH@Z 1000bf90 f i Keylock.obj
 0001:0000b130       ?AtlCallTermFunc@ATL@@YGXPAU_ATL_MODULE70@1@@Z 1000c130 f i Keylock.obj
 0001:0000b1d0       ?AtlCoTaskMemCAlloc@ATL@@YAPAXKK@Z 1000c1d0 f i Keylock.obj
 0001:0000b260       ?AtlCoTaskMemRecalloc@ATL@@YAPAXPAXKK@Z 1000c260 f i Keylock.obj
 0001:0000b300       ?AtlComModuleGetClassObject@ATL@@YGJPAU_ATL_COM_MODULE70@1@ABU_GUID@@1PAPAX@Z 1000c300 f i Keylock.obj
 0001:0000b590       ?AtlComModuleRegisterServer@ATL@@YGJPAU_ATL_COM_MODULE70@1@HPBU_GUID@@@Z 1000c590 f i Keylock.obj
 0001:0000b720       ?AtlComModuleUnregisterServer@ATL@@YGJPAU_ATL_COM_MODULE70@1@HPBU_GUID@@@Z 1000c720 f i Keylock.obj
 0001:0000b850       ?AtlComQIPtrAssign2@ATL@@YAXPAPAUIUnknown@@PAU2@ABU_GUID@@@Z 1000c850 f i Keylock.obj
 0001:0000b8d0       ?AtlCreateTargetDC@ATL@@YGPAUHDC__@@PAU2@PAUtagDVTARGETDEVICE@@@Z 1000c8d0 f i Keylock.obj
 0001:0000ba70       ?AtlCrtErrorCheck@ATL@@YAHH@Z 1000ca70 f i Keylock.obj
 0001:0000bb40       ?AtlGetPerUserRegistration@ATL@@YGJPA_N@Z 1000cb40 f i Keylock.obj
 0001:0000bb70       ?AtlHiMetricToPixel@ATL@@YGXPBUtagSIZE@@PAU2@@Z 1000cb70 f i Keylock.obj
 0001:0000bd40       ?AtlHresultFromLastError@ATL@@YAJXZ 1000cd40 f i Keylock.obj
 0001:0000bd80       ?AtlHresultFromWin32@ATL@@YAJK@Z 1000cd80 f i Keylock.obj
 0001:0000bda0       ?AtlIPersistStreamInit_Load@ATL@@YGJPAUIStream@@PBUATL_PROPMAP_ENTRY@1@PAXPAUIUnknown@@@Z 1000cda0 f i Keylock.obj
 0001:0000c200       ?AtlIPersistStreamInit_Save@ATL@@YGJPAUIStream@@HPBUATL_PROPMAP_ENTRY@1@PAXPAUIUnknown@@@Z 1000d200 f i Keylock.obj
 0001:0000c5e0       ?AtlInternalOleLoadFromStream@ATL@@YAJPAUIStream@@ABU_GUID@@PAPAXTClassesAllowedInStream@1@K@Z 1000d5e0 f i Keylock.obj
 0001:0000c880       ?AtlInternalQueryInterface@ATL@@YGJPAXPBU_ATL_INTMAP_ENTRY@1@ABU_GUID@@PAPAX@Z 1000d880 f i Keylock.obj
 0001:0000cab0       ?AtlLoadTypeLib@ATL@@YGJPAUHINSTANCE__@@PB_WPAPA_WPAPAUITypeLib@@@Z 1000dab0 f i Keylock.obj
 0001:0000cf10       ?AtlModuleAddTermFunc@ATL@@YGJPAU_ATL_MODULE70@1@P6GXK@ZK@Z 1000df10 f i Keylock.obj
 0001:0000d070       ?AtlRegisterClassCategoriesHelper@ATL@@YGJABU_GUID@@PBU_ATL_CATMAP_ENTRY@1@H@Z 1000e070 f i Keylock.obj
 0001:0000d750       ?AtlRegisterTypeLib@ATL@@YGJPAUHINSTANCE__@@PB_W@Z 1000e750 f i Keylock.obj
 0001:0000da90       ?AtlThrowImpl@ATL@@YGXJ@Z  1000ea90 f i Keylock.obj
 0001:0000db40       ?AtlUnRegisterTypeLib@ATL@@YGJPAUHINSTANCE__@@PB_W@Z 1000eb40 f i Keylock.obj
 0001:0000dd50       ?AtlWinModuleAddCreateWndData@ATL@@YGXPAU_ATL_WIN_MODULE70@1@PAU_AtlCreateWndData@1@PAX@Z 1000ed50 f i Keylock.obj
 0001:0000dec0       ?AtlWinModuleExtractCreateWndData@ATL@@YGPAXPAU_ATL_WIN_MODULE70@1@@Z 1000eec0 f i Keylock.obj
 0001:0000e040       ?AtlWinModuleRegisterClassExW@ATL@@YGGPAU_ATL_WIN_MODULE70@1@PBUtagWNDCLASSEXW@@@Z 1000f040 f i Keylock.obj
 0001:0000e110       ?AtlWinModuleRegisterWndClassInfoW@ATL@@YGGPAU_ATL_WIN_MODULE70@1@PAU_ATL_BASE_MODULE70@1@PAU_ATL_WNDCLASSINFOW@1@PAP6GJPAUHWND__@@IIJ@Z@Z 1000f110 f i Keylock.obj
 0001:0000e1a0       ?Attach@?$CAutoVectorPtr@_W@ATL@@QAEXPA_W@Z 1000f1a0 f i Keylock.obj
 0001:0000e200       ?Attach@CComBSTR@ATL@@QAEXPA_W@Z 1000f200 f i Keylock.obj
 0001:0000e250       ?Attach@CRegKey@ATL@@QAEXPAUHKEY__@@@Z 1000f250 f i Keylock.obj
 0001:0000e2c0       ?CanForceRemoveKey@CRegParser@ATL@@IAEHPB_W@Z 1000f2c0 f i Keylock.obj
 0001:0000e330       ?ChToByte@CRegParser@ATL@@KAE_W@Z 1000f330 f i Keylock.obj
 0001:0000e450       ?ChangeType@CComVariant@ATL@@QAEJGPBUtagVARIANT@@@Z 1000f450 f i Keylock.obj
 0001:0000e4b0       ?Cleanup@CComTypeInfoHolder@ATL@@SGXK@Z 1000f4b0 f i Keylock.obj
 0001:0000e580       ?Clear@CComVariant@ATL@@QAEJXZ 1000f580 f i Keylock.obj
 0001:0000e5c0       ?ClearReplacements@CExpansionVector@ATL@@QAEJXZ 1000f5c0 f i Keylock.obj
 0001:0000e650       ?ClearReplacements@CRegObject@ATL@@UAGJXZ 1000f650 f i Keylock.obj
 0001:0000e6a0       ?Clone@?$CComEnumImpl@UIEnumConnectionPoints@@$1?_GUID_b196b285_bab4_101a_b69c_00aa00341d07@@3U__s_GUID@@BPAUIConnectionPoint@@V?$_CopyInterface@UIConnectionPoint@@@ATL@@@ATL@@UAGJPAPAUIEnumConnectionPoints@@@Z 1000f6a0 f i Keylock.obj
 0001:0000e810       ?Clone@?$CComEnumImpl@UIEnumConnections@@$1?_GUID_b196b287_bab4_101a_b69c_00aa00341d07@@3U__s_GUID@@BUtagCONNECTDATA@@V?$_Copy@UtagCONNECTDATA@@@ATL@@@ATL@@UAGJPAPAUIEnumConnections@@@Z 1000f810 f i Keylock.obj
 0001:0000e980       ?Close@?$IOleObjectImpl@VCOPOSKeylock@@@ATL@@UAGJK@Z 1000f980 f i Keylock.obj
 0001:0000ea10       ?Close@CRegKey@ATL@@QAEJXZ 1000fa10 f i Keylock.obj
 0001:0000ea80       ?ContextSensitiveHelp@?$IOleInPlaceActiveObjectImpl@VCOPOSKeylock@@@ATL@@UAGJH@Z 1000fa80 f i Keylock.obj
 0001:0000eaf0       ?ContextSensitiveHelp@?$IOleInPlaceObjectWindowlessImpl@VCOPOSKeylock@@@ATL@@UAGJH@Z 1000faf0 f i Keylock.obj
 0001:0000eb60       ?ControlQueryInterface@?$CComControl@VCOPOSKeylock@@V?$CWindowImpl@VCOPOSKeylock@@VCWindow@ATL@@V?$CWinTraits@$0FGAAAAAA@$0A@@3@@ATL@@@ATL@@UAEJABU_GUID@@PAPAX@Z 1000fb60 f i Keylock.obj
 0001:0000ebe0       ?CreateControlWindow@?$CComControl@VCOPOSKeylock@@V?$CWindowImpl@VCOPOSKeylock@@VCWindow@ATL@@V?$CWinTraits@$0FGAAAAAA@$0A@@3@@ATL@@@ATL@@UAEPAUHWND__@@PAU3@AAUtagRECT@@@Z 1000fbe0 f i Keylock.obj
 0001:0000ec60       ?CreateInstance@?$CComCreator@V?$CComAggObject@VCOPOSKeylock@@@ATL@@@ATL@@SGJPAXABU_GUID@@PAPAX@Z 1000fc60 f i Keylock.obj
 0001:0000ede0       ?CreateInstance@?$CComCreator@V?$CComObject@VCOPOSKeylock@@@ATL@@@ATL@@SGJPAXABU_GUID@@PAPAX@Z 1000fde0 f i Keylock.obj
 0001:0000ef70       ?CreateInstance@?$CComObject@V?$CComEnum@UIEnumConnectionPoints@@$1?_GUID_b196b285_bab4_101a_b69c_00aa00341d07@@3U__s_GUID@@BPAUIConnectionPoint@@V?$_CopyInterface@UIConnectionPoint@@@ATL@@VCComSingleThreadModel@6@@ATL@@@ATL@@SGJPAPAV12@@Z 1000ff70 f i Keylock.obj
 0001:0000f0e0       ?CreateInstance@?$CComObject@V?$CComEnum@UIEnumConnections@@$1?_GUID_b196b287_bab4_101a_b69c_00aa00341d07@@3U__s_GUID@@BUtagCONNECTDATA@@V?$_Copy@UtagCONNECTDATA@@@ATL@@VCComSingleThreadModel@6@@ATL@@@ATL@@SGJPAPAV12@@Z 100100e0 f i Keylock.obj
 0001:0000f250       ?CreateInstance@CComClassFactory@ATL@@UAGJPAUIUnknown@@ABU_GUID@@PAPAX@Z 10010250 f i Keylock.obj
 0001:0000f340       ?DAdvise@?$IDataObjectImpl@VCOPOSKeylock@@@ATL@@UAGJPAUtagFORMATETC@@KPAUIAdviseSink@@PAK@Z 10010340 f i Keylock.obj
 0001:0000f440       ?DEVMODEOLE2T_EX@@YAPAU_devicemodeW@@PAU1@@Z 10010440 f i Keylock.obj
 0001:0000f450       ?DUnadvise@?$IDataObjectImpl@VCOPOSKeylock@@@ATL@@UAGJK@Z 10010450 f i Keylock.obj
 0001:0000f520       ?Decrement@CComMultiThreadModel@ATL@@SGKPAJ@Z 10010520 f i Keylock.obj
 0001:0000f540       ?Decrement@CComSingleThreadModel@ATL@@SGKPAJ@Z 10010540 f i Keylock.obj
 0001:0000f560       ?DefWindowProcW@?$CWindowImplBaseT@VCWindow@ATL@@V?$CWinTraits@$0FGAAAAAA@$0A@@2@@ATL@@QAEJIIJ@Z 10010560 f i Keylock.obj
 0001:0000f5b0       ?DefaultReflectionHandler@?$CWindowImplRoot@VCWindow@ATL@@@ATL@@SAHPAUHWND__@@IIJAAJ@Z 100105b0 f i Keylock.obj
 0001:0000f7a0       ?DeleteSubKey@CRegKey@ATL@@QAEJPB_W@Z 100107a0 f i Keylock.obj
 0001:0000f8b0       ?DeleteValue@CRegKey@ATL@@QAEJPB_W@Z 100108b0 f i Keylock.obj
 0001:0000f920       ?Detach@?$CAutoVectorPtr@_W@ATL@@QAEPA_WXZ 10010920 f i Keylock.obj
 0001:0000f950       ?Detach@?$CComPtrBase@UIPersistStream@@@ATL@@QAEPAUIPersistStream@@XZ 10010950 f i Keylock.obj
 0001:0000f980       ?Detach@?$CComPtrBase@UITypeInfo@@@ATL@@QAEPAUITypeInfo@@XZ 10010980 f i Keylock.obj
 0001:0000f9b0       ?Detach@?$CComPtrBase@UIUnknown@@@ATL@@QAEPAUIUnknown@@XZ 100109b0 f i Keylock.obj
 0001:0000f9e0       ?Detach@CComBSTR@ATL@@QAEPA_WXZ 100109e0 f i Keylock.obj
 0001:0000fa10       ?Detach@CParseBuffer@CRegParser@ATL@@QAEPA_WXZ 10010a10 f i Keylock.obj
 0001:0000fa60       ?Detach@CRegKey@ATL@@QAEPAUHKEY__@@XZ 10010a60 f i Keylock.obj
 0001:0000fab0       ?DoEvent@COPOSKeylock@@IAEXIIJ@Z 10010ab0 f i Keylock.obj
 0001:0000fbf0       ?DoVerb@?$IOleObjectImpl@VCOPOSKeylock@@@ATL@@UAGJJPAUtagMSG@@PAUIOleClientSite@@JPAUHWND__@@PBUtagRECT@@@Z 10010bf0 f i Keylock.obj
 0001:0000fe00       ?DoVerbDiscardUndo@?$IOleObjectImpl@VCOPOSKeylock@@@ATL@@QAEJPBUtagRECT@@PAUHWND__@@@Z 10010e00 f i Keylock.obj
 0001:0000fe70       ?DoVerbHide@?$IOleObjectImpl@VCOPOSKeylock@@@ATL@@QAEJPBUtagRECT@@PAUHWND__@@@Z 10010e70 f i Keylock.obj
 0001:0000ff20       ?DoVerbInPlaceActivate@?$IOleObjectImpl@VCOPOSKeylock@@@ATL@@QAEJPBUtagRECT@@PAUHWND__@@@Z 10010f20 f i Keylock.obj
 0001:0000ffc0       ?DoVerbOpen@?$IOleObjectImpl@VCOPOSKeylock@@@ATL@@QAEJPBUtagRECT@@PAUHWND__@@@Z 10010fc0 f i Keylock.obj
 0001:00010030       ?DoVerbPrimary@?$IOleObjectImpl@VCOPOSKeylock@@@ATL@@QAEJPBUtagRECT@@PAUHWND__@@@Z 10011030 f i Keylock.obj
 0001:00010140       ?DoVerbProperties@CComControlBase@ATL@@QAEJPBUtagRECT@@PAUHWND__@@@Z 10011140 f i Keylock.obj
 0001:00010460       ?DoVerbShow@?$IOleObjectImpl@VCOPOSKeylock@@@ATL@@QAEJPBUtagRECT@@PAUHWND__@@@Z 10011460 f i Keylock.obj
 0001:000104f0       ?DoVerbUIActivate@?$IOleObjectImpl@VCOPOSKeylock@@@ATL@@QAEJPBUtagRECT@@PAUHWND__@@@Z 100114f0 f i Keylock.obj
 0001:00010590       ?DoesVerbActivate@CComControlBase@ATL@@QAEHJ@Z 10011590 f i Keylock.obj
 0001:00010600       ?DoesVerbUIActivate@CComControlBase@ATL@@QAEHJ@Z 10011600 f i Keylock.obj
 0001:00010680       ?Draw@?$IViewObjectExImpl@VCOPOSKeylock@@@ATL@@UAGJKJPAXPAUtagDVTARGETDEVICE@@PAUHDC__@@2PBU_RECTL@@3P6GHK@ZK@Z 10011680 f i Keylock.obj
 0001:00010720       ?Empty@CComBSTR@ATL@@QAEXXZ 10011720 f i Keylock.obj
 0001:00010760       ?EnableModeless@?$IOleInPlaceActiveObjectImpl@VCOPOSKeylock@@@ATL@@UAGJH@Z 10011760 f i Keylock.obj
 0001:000107c0       ?EndOfVar@CRegParser@ATL@@IAEHXZ 100117c0 f i Keylock.obj
 0001:00010830       ?EnsureTI@CComTypeInfoHolder@ATL@@QAEJK@Z 10011830 f i Keylock.obj
 0001:00010890       ?EnumAdvise@?$IOleObjectImpl@VCOPOSKeylock@@@ATL@@UAGJPAPAUIEnumSTATDATA@@@Z 10011890 f i Keylock.obj
 0001:000109a0       ?EnumConnectionPoints@?$IConnectionPointContainerImpl@VCOPOSKeylock@@@ATL@@UAGJPAPAUIEnumConnectionPoints@@@Z 100119a0 f i Keylock.obj
 0001:00010dd0       ?EnumConnections@?$IConnectionPointImpl@VCOPOSKeylock@@$1?DIID__IOPOSKeylockEvents@@3U_GUID@@BVCComDynamicUnkArray@ATL@@@ATL@@UAGJPAPAUIEnumConnections@@@Z 10011dd0 f i Keylock.obj
 0001:00011020       ?EnumConnections@?$IConnectionPointImpl@VCOPOSKeylock@@$1?IID_IPropertyNotifySink@@3U_GUID@@BVCComDynamicUnkArray@ATL@@@ATL@@UAGJPAPAUIEnumConnections@@@Z 10012020 f i Keylock.obj
 0001:00011270       ?EnumDAdvise@?$IDataObjectImpl@VCOPOSKeylock@@@ATL@@UAGJPAPAUIEnumSTATDATA@@@Z 10012270 f i Keylock.obj
 0001:00011370       ?EnumFormatEtc@?$IDataObjectImpl@VCOPOSKeylock@@@ATL@@UAGJKPAPAUIEnumFORMATETC@@@Z 10012370 f i Keylock.obj
 0001:000113e0       ?EnumVerbs@?$IOleObjectImpl@VCOPOSKeylock@@@ATL@@UAGJPAPAUIEnumOLEVERB@@@Z 100123e0 f i Keylock.obj
 0001:00011490       ?EscapeSingleQuote@CAtlModule@ATL@@SAXPA_WIPB_W@Z 10012490 f i Keylock.obj
 0001:00011540       ?ExtractCreateWndData@CAtlWinModule@ATL@@QAEPAXXZ 10012540 f i Keylock.obj
 0001:00011570       ?FAccessAllowed@?$IObjectSafetyImpl@VCOPOSKeylock@@$02@ATL@@MAEHXZ 10012570 f i Keylock.obj
 0001:00011590       ?FinalConstruct@?$CComAggObject@VCOPOSKeylock@@@ATL@@QAEJXZ 10012590 f i Keylock.obj
 0001:000115d0       ?FinalConstruct@CComObjectRootBase@ATL@@QAEJXZ 100125d0 f i Keylock.obj
 0001:000115f0       ?FinalConstruct@CRegObject@ATL@@QAEJXZ 100125f0 f i Keylock.obj
 0001:00011620       ?FinalRelease@?$CComAggObject@VCOPOSKeylock@@@ATL@@QAEXXZ 10012620 f i Keylock.obj
 0001:00011660       ?FinalRelease@CComObjectRootBase@ATL@@QAEXXZ 10012660 f i Keylock.obj
 0001:00011680       ?FindConnectionPoint@?$IConnectionPointContainerImpl@VCOPOSKeylock@@@ATL@@UAGJABU_GUID@@PAPAUIConnectionPoint@@@Z 10012680 f i Keylock.obj
 0001:000117d0       ?FindKey@?$CSimpleMap@PA_WPA_WVCExpansionVectorEqualHelper@ATL@@@ATL@@QBEHABQA_W@Z 100127d0 f i Keylock.obj
 0001:00011840       ?FireTheEvent@?$CProxy_IOPOSEvents@VCOPOSKeylock@@@@IAEXPAUIUnknown@@PAVOposVariant@@IAAJPB_WJ@Z 10012840 f i Keylock.obj
 0001:000119b0       ?FireViewChange@CComControlBase@ATL@@QAEJXZ 100129b0 f i Keylock.obj
 0001:00011a70       ?Fire_DirectIOEvent@?$CProxy_IOPOSEvents@VCOPOSKeylock@@@@QAEXJPAJPAPA_W@Z 10012a70 f i Keylock.obj
 0001:00011c40       ?Fire_StatusUpdateEvent@?$CProxy_IOPOSEvents@VCOPOSKeylock@@@@QAEXJ@Z 10012c40 f i Keylock.obj
 0001:00011da0       ?FormatWindowClassName@AtlModuleRegisterWndClassInfoParamW@ATL@@SAXPA_WKPAX@Z 10012da0 f i Keylock.obj
 0001:00011dd0       ?Free@?$CAutoVectorPtr@_W@ATL@@QAEXXZ 10012dd0 f i Keylock.obj
 0001:00011e20       ?FreeHeap@?$CTempBuffer@E$0BAA@VCCRTAllocator@ATL@@@ATL@@AAEXXZ 10012e20 f i Keylock.obj
 0001:00011e50       ?FreeHeap@?$CTempBuffer@_W$0BAA@VCCRTAllocator@ATL@@@ATL@@AAEXXZ 10012e50 f i Keylock.obj
 0001:00011e80       ?FreeHeap@?$CTempBuffer@_W$0EAA@VCCRTAllocator@ATL@@@ATL@@AAEXXZ 10012e80 f i Keylock.obj
 0001:00011eb0       ?Freeze@?$IViewObjectExImpl@VCOPOSKeylock@@@ATL@@UAGJKJPAXPAK@Z 10012eb0 f i Keylock.obj
 0001:00011f20       ?GenerateError@CRegParser@ATL@@IAEJI@Z 10012f20 f i Keylock.obj
 0001:00011f40       ?GetAdvise@?$IViewObjectExImpl@VCOPOSKeylock@@@ATL@@UAGJPAK0PAPAUIAdviseSink@@@Z 10012f40 f i Keylock.obj
 0001:00012040       ?GetAmbientLocaleID@CComControlBase@ATL@@QAEJAAK@Z 10013040 f i Keylock.obj
 0001:00012120       ?GetAmbientProperty@CComControlBase@ATL@@QAEJJAAUtagVARIANT@@@Z 10013120 f i Keylock.obj
 0001:00012170       ?GetAmbientUserMode@CComControlBase@ATL@@QAEJAAH@Z 10013170 f i Keylock.obj
 0001:00012270       ?GetAppId@?$CAtlModuleT@VCComModule@ATL@@@ATL@@SAPB_WXZ 10013270 f i Keylock.obj
 0001:00012280       ?GetAt@CComDynamicUnkArray@ATL@@QAEPAUIUnknown@@H@Z 10013280 f i Keylock.obj
 0001:00012300       ?GetCanonicalFormatEtc@?$IDataObjectImpl@VCOPOSKeylock@@@ATL@@UAGJPAUtagFORMATETC@@0@Z 10013300 f i Keylock.obj
 0001:00012370       ?GetClassID@?$IPersistStorageImpl@VCOPOSKeylock@@@ATL@@UAGJPAU_GUID@@@Z 10013370 f i Keylock.obj
 0001:000123f0       ?GetClassID@?$IPersistStreamInitImpl@VCOPOSKeylock@@@ATL@@UAGJPAU_GUID@@@Z 100133f0 f i Keylock.obj
 0001:00012470       ?GetClassInfoExW@AtlModuleRegisterWndClassInfoParamW@ATL@@SAHPAUHINSTANCE__@@PB_WPAUtagWNDCLASSEXW@@@Z 10013470 f i Keylock.obj
 0001:000124a0       ?GetClassInfoW@?$IProvideClassInfo2Impl@$1?CLSID_OPOSKeylock@@3U_GUID@@B$1?DIID__IOPOSKeylockEvents@@3U2@B$1?LIBID_OposKeylock_CCO@@3U2@B$00$0A@VCComTypeInfoHolder@ATL@@@ATL@@UAGJPAPAUITypeInfo@@@Z 100134a0 f i Keylock.obj
 0001:000124c0       ?GetClassObject@CComModule@ATL@@QAEJABU_GUID@@0PAPAX@Z 100134c0 f i Keylock.obj
 0001:000126c0       ?GetClientSite@?$IOleObjectImpl@VCOPOSKeylock@@@ATL@@UAGJPAPAUIOleClientSite@@@Z 100136c0 f i Keylock.obj
 0001:00012750       ?GetClipboardData@?$IOleObjectImpl@VCOPOSKeylock@@@ATL@@UAGJKPAPAUIDataObject@@@Z 10013750 f i Keylock.obj
 0001:000127c0       ?GetCodeAddress@CDynamicStdCallThunk2@ATL@@QAEPAXXZ 100137c0 f i Keylock.obj
 0001:000127f0       ?GetColorSet@?$IViewObjectExImpl@VCOPOSKeylock@@@ATL@@UAGJKJPAXPAUtagDVTARGETDEVICE@@PAUHDC__@@PAPAUtagLOGPALETTE@@@Z 100137f0 f i Keylock.obj
 0001:00012860       ?GetConnMap@COPOSKeylock@@SAPBU_ATL_CONNMAP_ENTRY@ATL@@PAH@Z 10013860 f i Keylock.obj
 0001:000129a0       ?GetConnectionInterface@?$IConnectionPointImpl@VCOPOSKeylock@@$1?DIID__IOPOSKeylockEvents@@3U_GUID@@BVCComDynamicUnkArray@ATL@@@ATL@@UAGJPAU_GUID@@@Z 100139a0 f i Keylock.obj
 0001:000129e0       ?GetConnectionInterface@?$IConnectionPointImpl@VCOPOSKeylock@@$1?IID_IPropertyNotifySink@@3U_GUID@@BVCComDynamicUnkArray@ATL@@@ATL@@UAGJPAU_GUID@@@Z 100139e0 f i Keylock.obj
 0001:00012a20       ?GetConnectionPointContainer@?$IConnectionPointImpl@VCOPOSKeylock@@$1?DIID__IOPOSKeylockEvents@@3U_GUID@@BVCComDynamicUnkArray@ATL@@@ATL@@UAGJPAPAUIConnectionPointContainer@@@Z 10013a20 f i Keylock.obj
 0001:00012a90       ?GetConnectionPointContainer@?$IConnectionPointImpl@VCOPOSKeylock@@$1?IID_IPropertyNotifySink@@3U_GUID@@BVCComDynamicUnkArray@ATL@@@ATL@@UAGJPAPAUIConnectionPointContainer@@@Z 10013a90 f i Keylock.obj
 0001:00012b00       ?GetContentExtent@?$IQuickActivateImpl@VCOPOSKeylock@@@ATL@@UAGJPAUtagSIZE@@@Z 10013b00 f i Keylock.obj
 0001:00012b90       ?GetControlInfo@?$IOleControlImpl@VCOPOSKeylock@@@ATL@@UAGJPAUtagCONTROLINFO@@@Z 10013b90 f i Keylock.obj
 0001:00012c00       ?GetCookie@CComDynamicUnkArray@ATL@@QAGKPAPAUIUnknown@@@Z 10013c00 f i Keylock.obj
 0001:00012cc0       ?GetData@?$IDataObjectImpl@VCOPOSKeylock@@@ATL@@UAGJPAUtagFORMATETC@@PAUtagSTGMEDIUM@@@Z 10013cc0 f i Keylock.obj
 0001:00012d50       ?GetData@CAtlSafeAllocBufferNode@?$CAtlSafeAllocBufferManager@VCCRTAllocator@ATL@@@_ATL_SAFE_ALLOCA_IMPL@ATL@@QAEPAXXZ 10013d50 f i Keylock.obj
 0001:00012d70       ?GetDataHere@?$IDataObjectImpl@VCOPOSKeylock@@@ATL@@UAGJPAUtagFORMATETC@@PAUtagSTGMEDIUM@@@Z 10013d70 f i Keylock.obj
 0001:00012de0       ?GetDropTarget@?$IOleInPlaceObjectWindowlessImpl@VCOPOSKeylock@@@ATL@@UAGJPAPAUIDropTarget@@@Z 10013de0 f i Keylock.obj
 0001:00012e50       ?GetExtent@?$IOleObjectImpl@VCOPOSKeylock@@@ATL@@UAGJKPAUtagSIZE@@@Z 10013e50 f i Keylock.obj
 0001:00012ef0       ?GetExtent@?$IViewObjectExImpl@VCOPOSKeylock@@@ATL@@UAGJKJPAUtagDVTARGETDEVICE@@PAUtagSIZE@@@Z 10013ef0 f i Keylock.obj
 0001:00012fc0       ?GetGITPtr@CAtlModule@ATL@@UAEJPAPAUIGlobalInterfaceTable@@@Z 10013fc0 f i Keylock.obj
 0001:000130c0       ?GetGUID@?$IProvideClassInfo2Impl@$1?CLSID_OPOSKeylock@@3U_GUID@@B$1?DIID__IOPOSKeylockEvents@@3U2@B$1?LIBID_OposKeylock_CCO@@3U2@B$00$0A@VCComTypeInfoHolder@ATL@@@ATL@@UAGJKPAU_GUID@@@Z 100140c0 f i Keylock.obj
 0001:00013140       ?GetIDsOfNames@?$IDispatchImpl@UIOPOSKeylock@@$1?IID_IOPOSKeylock@@3U_GUID@@B$1?LIBID_OposKeylock_CCO@@3U3@B$00$0A@VCComTypeInfoHolder@ATL@@@ATL@@UAGJABU_GUID@@PAPA_WIKPAJ@Z 10014140 f i Keylock.obj
 0001:00013170       ?GetIDsOfNames@CComTypeInfoHolder@ATL@@QAEJABU_GUID@@PAPA_WIKPAJ@Z 10014170 f i Keylock.obj
 0001:00013320       ?GetInterfaceSafetyOptions@?$IObjectSafetyImpl@VCOPOSKeylock@@$02@ATL@@UAGJABU_GUID@@PAK1@Z 10014320 f i Keylock.obj
 0001:00013490       ?GetKeyAt@?$CSimpleMap@PA_WPA_WVCExpansionVectorEqualHelper@ATL@@@ATL@@QBEAAPA_WH@Z 10014490 f i Keylock.obj
 0001:00013510       ?GetLockCount@CAtlModule@ATL@@UAEJXZ 10014510 f i Keylock.obj
 0001:00013530       ?GetMiscStatus@?$IOleObjectImpl@VCOPOSKeylock@@@ATL@@UAGJKPAK@Z 10014530 f i Keylock.obj
 0001:000135a0       ?GetMoniker@?$IOleObjectImpl@VCOPOSKeylock@@@ATL@@UAGJKKPAPAUIMoniker@@@Z 100145a0 f i Keylock.obj
 0001:00013610       ?GetNaturalExtent@?$IViewObjectExImpl@VCOPOSKeylock@@@ATL@@UAGJKJPAUtagDVTARGETDEVICE@@PAUHDC__@@PAUtagExtentInfo@@PAUtagSIZE@@@Z 10014610 f i Keylock.obj
 0001:00013730       ?GetObjectCLSID@?$CComCoClass@VCOPOSKeylock@@$1?CLSID_OPOSKeylock@@3U_GUID@@B@ATL@@SGABU_GUID@@XZ 10014730 f i Keylock.obj
 0001:00013740       ?GetPages@?$ISpecifyPropertyPagesImpl@VCOPOSKeylock@@@ATL@@UAGJPAUtagCAUUID@@@Z 10014740 f i Keylock.obj
 0001:000137b0       ?GetPagesHelper@?$ISpecifyPropertyPagesImpl@VCOPOSKeylock@@@ATL@@IAEJPAUtagCAUUID@@PBUATL_PROPMAP_ENTRY@2@@Z 100147b0 f i Keylock.obj
 0001:000139b0       ?GetProperty@?$CComPtr@UIDispatch@@@ATL@@QAEJJPAUtagVARIANT@@@Z 100149b0 f i Keylock.obj
 0001:000139f0       ?GetProperty@?$CComPtr@UIDispatch@@@ATL@@SAJPAUIDispatch@@JPAUtagVARIANT@@@Z 100149f0 f i Keylock.obj
 0001:00013b50       ?GetPropertyMap@COPOSKeylock@@SAPBUATL_PROPMAP_ENTRY@ATL@@XZ 10014b50 f i Keylock.obj
 0001:00013b60       ?GetRect@?$IViewObjectExImpl@VCOPOSKeylock@@@ATL@@UAGJKPAU_RECTL@@@Z 10014b60 f i Keylock.obj
 0001:00013bd0       ?GetSize@?$CSimpleMap@PA_WPA_WVCExpansionVectorEqualHelper@ATL@@@ATL@@QBEHXZ 10014bd0 f i Keylock.obj
 0001:00013bf0       ?GetSize@CComDynamicUnkArray@ATL@@QBEHXZ 10014bf0 f i Keylock.obj
 0001:00013c10       ?GetSizeMax@?$IPersistStreamInitImpl@VCOPOSKeylock@@@ATL@@UAGJPAT_ULARGE_INTEGER@@@Z 10014c10 f i Keylock.obj
 0001:00014180       ?GetSizeMax@CComVariant@ATL@@QBEJPAT_ULARGE_INTEGER@@@Z 10015180 f i Keylock.obj
 0001:000144e0       ?GetStreamSize@CComBSTR@ATL@@SAKPA_W@Z 100154e0 f i Keylock.obj
 0001:00014530       ?GetTI@CComTypeInfoHolder@ATL@@QAEJK@Z 10015530 f i Keylock.obj
 0001:00014d40       ?GetTI@CComTypeInfoHolder@ATL@@QAEJKPAPAUITypeInfo@@@Z 10015d40 f i Keylock.obj
 0001:00014e00       ?GetTypeInfo@?$IDispatchImpl@UIOPOSKeylock@@$1?IID_IOPOSKeylock@@3U_GUID@@B$1?LIBID_OposKeylock_CCO@@3U3@B$00$0A@VCComTypeInfoHolder@ATL@@@ATL@@UAGJIKPAPAUITypeInfo@@@Z 10015e00 f i Keylock.obj
 0001:00014e30       ?GetTypeInfo@CComTypeInfoHolder@ATL@@QAEJIKPAPAUITypeInfo@@@Z 10015e30 f i Keylock.obj
 0001:00014e70       ?GetTypeInfoCount@?$IDispatchImpl@UIOPOSKeylock@@$1?IID_IOPOSKeylock@@3U_GUID@@B$1?LIBID_OposKeylock_CCO@@3U3@B$00$0A@VCComTypeInfoHolder@ATL@@@ATL@@UAGJPAI@Z 10015e70 f i Keylock.obj
 0001:00014e90       ?GetUnknown@CComDynamicUnkArray@ATL@@QAGPAUIUnknown@@K@Z 10015e90 f i Keylock.obj
 0001:00014f00       ?GetUnknown@COPOSKeylock@@QAEPAUIUnknown@@XZ 10015f00 f i Keylock.obj
 0001:00014f30       ?GetUserClassID@?$IOleObjectImpl@VCOPOSKeylock@@@ATL@@UAGJPAU_GUID@@@Z 10015f30 f i Keylock.obj
 0001:00014fe0       ?GetUserType@?$IOleObjectImpl@VCOPOSKeylock@@@ATL@@UAGJKPAPA_W@Z 10015fe0 f i Keylock.obj
 0001:00015050       ?GetValueAt@?$CSimpleMap@PA_WPA_WVCExpansionVectorEqualHelper@ATL@@@ATL@@QBEAAPA_WH@Z 10016050 f i Keylock.obj
 0001:000150d0       ?GetViewStatus@?$IViewObjectExImpl@VCOPOSKeylock@@@ATL@@UAGJPAK@Z 100160d0 f i Keylock.obj
 0001:00015190       ?GetWNDPROC@CWndProcThunk@ATL@@QAEP6GJPAUHWND__@@IIJ@ZXZ 10016190 f i Keylock.obj
 0001:000151c0       ?GetWindow@?$IOleInPlaceActiveObjectImpl@VCOPOSKeylock@@@ATL@@UAGJPAPAUHWND__@@@Z 100161c0 f i Keylock.obj
 0001:00015290       ?GetWindow@?$IOleInPlaceObjectWindowlessImpl@VCOPOSKeylock@@@ATL@@UAGJPAPAUHWND__@@@Z 10016290 f i Keylock.obj
 0001:00015360       ?GetWindowLongPtrW@@YAJPAUHWND__@@H@Z 10016360 f i Keylock.obj
 0001:00015390       ?GetWindowProc@?$CWindowImplBaseT@VCWindow@ATL@@V?$CWinTraits@$0FGAAAAAA@$0A@@2@@ATL@@UAEP6GJPAUHWND__@@IIJ@ZXZ 10016390 f i Keylock.obj
 0001:000153b0       ?GetWndCaption@?$CWindowImpl@VCOPOSKeylock@@VCWindow@ATL@@V?$CWinTraits@$0FGAAAAAA@$0A@@3@@ATL@@SAPB_WXZ 100163b0 f i Keylock.obj
 0001:000153c0       ?GetWndClassInfo@?$CWindowImpl@VCOPOSKeylock@@VCWindow@ATL@@V?$CWinTraits@$0FGAAAAAA@$0A@@3@@ATL@@SAAAU_ATL_WNDCLASSINFOW@2@XZ 100163c0 f i Keylock.obj
 0001:000153d0       ?GetWndClassName@CWindow@ATL@@SAPB_WXZ 100163d0 f i Keylock.obj
 0001:000153e0       ?GetWndExStyle@?$CWinTraits@$0FGAAAAAA@$0A@@ATL@@SAKK@Z 100163e0 f i Keylock.obj
 0001:00015410       ?GetWndExStyle@?$CWindowImplBaseT@VCWindow@ATL@@V?$CWinTraits@$0FGAAAAAA@$0A@@2@@ATL@@SAKK@Z 10016410 f i Keylock.obj
 0001:00015430       ?GetWndStyle@?$CWinTraits@$0FGAAAAAA@$0A@@ATL@@SAKK@Z 10016430 f i Keylock.obj
 0001:00015460       ?GetWndStyle@?$CWindowImplBaseT@VCWindow@ATL@@V?$CWinTraits@$0FGAAAAAA@$0A@@2@@ATL@@SAKK@Z 10016460 f i Keylock.obj
 0001:00015480       ?GetZoomInfo@CComControlBase@ATL@@QAEXAAUATL_DRAWINFO@@@Z 10016480 f i Keylock.obj
 0001:000155f0       ?HKeyFromString@CRegParser@ATL@@KAPAUHKEY__@@PA_W@Z 100165f0 f i Keylock.obj
 0001:00015660       ?HandsOffStorage@?$IPersistStorageImpl@VCOPOSKeylock@@@ATL@@UAGJXZ 10016660 f i Keylock.obj
 0001:000156c0       ?HasSubKeys@CRegParser@ATL@@IAEHPAUHKEY__@@@Z 100166c0 f i Keylock.obj
 0001:000157d0       ?IDataObject_GetData@CComControlBase@ATL@@QAEJPAUtagFORMATETC@@PAUtagSTGMEDIUM@@@Z 100167d0 f i Keylock.obj
 0001:00015bf0       ?IOleInPlaceObject_InPlaceDeactivate@CComControlBase@ATL@@QAEJXZ 10016bf0 f i Keylock.obj
 0001:00015df0       ?IOleInPlaceObject_SetObjectRects@CComControlBase@ATL@@QAEJPBUtagRECT@@0@Z 10016df0 f i Keylock.obj
 0001:00015fb0       ?IOleInPlaceObject_UIDeactivate@CComControlBase@ATL@@QAEJXZ 10016fb0 f i Keylock.obj
 0001:00016220       ?IOleObject_Advise@CComControlBase@ATL@@QAEJPAUIAdviseSink@@PAK@Z 10017220 f i Keylock.obj
 0001:000162d0       ?IOleObject_Close@CComControlBase@ATL@@QAEJK@Z 100172d0 f i Keylock.obj
 0001:00016580       ?IOleObject_GetClientSite@CComControlBase@ATL@@QAEJPAPAUIOleClientSite@@@Z 10017580 f i Keylock.obj
 0001:00016620       ?IOleObject_SetClientSite@CComControlBase@ATL@@QAEJPAUIOleClientSite@@@Z 10017620 f i Keylock.obj
 0001:000166f0       ?IOleObject_SetExtent@CComControlBase@ATL@@QAEJKPAUtagSIZE@@@Z 100176f0 f i Keylock.obj
 0001:00016830       ?IPSI_GetIPersistStreamInit@?$IPersistStorageImpl@VCOPOSKeylock@@@ATL@@AAEPAUIPersistStreamInit@@XZ 10017830 f i Keylock.obj
 0001:00016900       ?IPersistStreamInit_Load@?$IPersistStreamInitImpl@VCOPOSKeylock@@@ATL@@QAEJPAUIStream@@PBUATL_PROPMAP_ENTRY@2@@Z 10017900 f i Keylock.obj
 0001:00016980       ?IPersistStreamInit_Save@?$IPersistStreamInitImpl@VCOPOSKeylock@@@ATL@@QAEJPAUIStream@@HPBUATL_PROPMAP_ENTRY@2@@Z 10017980 f i Keylock.obj
 0001:00016a10       ?IQuickActivate_QuickActivate@CComControlBase@ATL@@QAEJPAUtagQACONTAINER@@PAUtagQACONTROL@@@Z 10017a10 f i Keylock.obj
 0001:00017060       ?IViewObject_Draw@CComControlBase@ATL@@QAEJKJPAXPAUtagDVTARGETDEVICE@@PAUHDC__@@2PBU_RECTL@@3@Z 10018060 f i Keylock.obj
 0001:00017300       ?InPlaceActivate@CComControlBase@ATL@@QAEJJPBUtagRECT@@@Z 10018300 f i Keylock.obj
 0001:00017c90       ?InPlaceDeactivate@?$IOleInPlaceObjectWindowlessImpl@VCOPOSKeylock@@@ATL@@UAGJXZ 10018c90 f i Keylock.obj
 0001:00017d10       ?Increment@CComMultiThreadModel@ATL@@SGKPAJ@Z 10018d10 f i Keylock.obj
 0001:00017d30       ?Increment@CComSingleThreadModel@ATL@@SGKPAJ@Z 10018d30 f i Keylock.obj
 0001:00017d50       ?Init@?$CComEnumImpl@UIEnumConnectionPoints@@$1?_GUID_b196b285_bab4_101a_b69c_00aa00341d07@@3U__s_GUID@@BPAUIConnectionPoint@@V?$_CopyInterface@UIConnectionPoint@@@ATL@@@ATL@@QAEJPAPAUIConnectionPoint@@0PAUIUnknown@@W4CComEnumFlags@2@@Z 10018d50 f i Keylock.obj
 0001:00017f30       ?Init@?$CComEnumImpl@UIEnumConnections@@$1?_GUID_b196b287_bab4_101a_b69c_00aa00341d07@@3U__s_GUID@@BUtagCONNECTDATA@@V?$_Copy@UtagCONNECTDATA@@@ATL@@@ATL@@QAEJPAUtagCONNECTDATA@@0PAUIUnknown@@W4CComEnumFlags@2@@Z 10018f30 f i Keylock.obj
 0001:00018110       ?Init@CComFakeCriticalSection@ATL@@QAEJXZ 10019110 f i Keylock.obj
 0001:00018130       ?Init@CComModule@ATL@@QAEJPAU_ATL_OBJMAP_ENTRY30@2@PAUHINSTANCE__@@PBU_GUID@@@Z 10019130 f i Keylock.obj
 0001:00018220       ?Init@CComSafeDeleteCriticalSection@ATL@@QAEJXZ 10019220 f i Keylock.obj
 0001:000182a0       ?Init@CDynamicStdCallThunk2@ATL@@QAEHKPAX@Z 100192a0 f i Keylock.obj
 0001:00018300       ?Init@CWndProcThunk@ATL@@QAEHP6GJPAUHWND__@@IIJ@ZPAX@Z 10019300 f i Keylock.obj
 0001:00018340       ?InitFromData@?$IOleObjectImpl@VCOPOSKeylock@@@ATL@@UAGJPAUIDataObject@@HK@Z 10019340 f i Keylock.obj
 0001:000183b0       ?InitLibId@?$CAtlModuleT@VCComModule@ATL@@@ATL@@SAXXZ 100193b0 f i Keylock.obj
 0001:000183c0       ?InitNew@?$IPersistStorageImpl@VCOPOSKeylock@@@ATL@@UAGJPAUIStorage@@@Z 100193c0 f i Keylock.obj
 0001:000184b0       ?InitNew@?$IPersistStreamInitImpl@VCOPOSKeylock@@@ATL@@UAGJXZ 100194b0 f i Keylock.obj
 0001:00018540       ?InlineIsEqualUnknown@ATL@@YGHABU_GUID@@@Z 10019540 f i Keylock.obj
 0001:000185b0       ?InternalAddRef@?$CComObjectRootEx@VCComMultiThreadModel@ATL@@@ATL@@QAEKXZ 100195b0 f i Keylock.obj
 0001:00018610       ?InternalAddRef@?$CComObjectRootEx@VCComSingleThreadModel@ATL@@@ATL@@QAEKXZ 10019610 f i Keylock.obj
 0001:00018670       ?InternalFinalConstructAddRef@CComObjectRootBase@ATL@@QAEXXZ 10019670 f i Keylock.obj
 0001:00018690       ?InternalFinalConstructAddRef@COPOSKeylock@@QAEXXZ 10019690 f i Keylock.obj
 0001:000186c0       ?InternalFinalConstructRelease@CComObjectRootBase@ATL@@QAEXXZ 100196c0 f i Keylock.obj
 0001:00018710       ?InternalFinalConstructRelease@COPOSKeylock@@QAEXXZ 10019710 f i Keylock.obj
 0001:00018740       ?InternalGetSite@CComControlBase@ATL@@QAEJABU_GUID@@PAPAX@Z 10019740 f i Keylock.obj
 0001:00018800       ?InternalQueryInterface@CComObjectRootBase@ATL@@SGJPAXPBU_ATL_INTMAP_ENTRY@2@ABU_GUID@@PAPAX@Z 10019800 f i Keylock.obj
 0001:000188c0       ?InternalRelease@?$CComObjectRootEx@VCComMultiThreadModel@ATL@@@ATL@@QAEKXZ 100198c0 f i Keylock.obj
 0001:00018930       ?InternalRelease@?$CComObjectRootEx@VCComSingleThreadModel@ATL@@@ATL@@QAEKXZ 10019930 f i Keylock.obj
 0001:000189a0       ?InternalSetAtIndex@?$CSimpleArray@GV?$CSimpleArrayEqualHelper@G@ATL@@@ATL@@QAEXHABG@Z 100199a0 f i Keylock.obj
 0001:00018a10       ?InternalSetAtIndex@?$CSimpleMap@PA_WPA_WVCExpansionVectorEqualHelper@ATL@@@ATL@@QAEXHABQA_W0@Z 10019a10 f i Keylock.obj
 0001:00018ab0       ?Invoke@?$IDispatchImpl@UIOPOSKeylock@@$1?IID_IOPOSKeylock@@3U_GUID@@B$1?LIBID_OposKeylock_CCO@@3U3@B$00$0A@VCComTypeInfoHolder@ATL@@@ATL@@UAGJJABU_GUID@@KGPAUtagDISPPARAMS@@PAUtagVARIANT@@PAUtagEXCEPINFO@@PAI@Z 10019ab0 f i Keylock.obj
 0001:00018af0       ?Invoke@CComTypeInfoHolder@ATL@@QAEJPAUIDispatch@@JABU_GUID@@KGPAUtagDISPPARAMS@@PAUtagVARIANT@@PAUtagEXCEPINFO@@PAI@Z 10019af0 f i Keylock.obj
 0001:00018b80       ?IsDirty@?$IPersistStorageImpl@VCOPOSKeylock@@@ATL@@UAGJXZ 10019b80 f i Keylock.obj
 0001:00018c70       ?IsDirty@?$IPersistStreamInitImpl@VCOPOSKeylock@@@ATL@@UAGJXZ 10019c70 f i Keylock.obj
 0001:00018d10       ?IsEqualKey@CExpansionVectorEqualHelper@ATL@@SA_NQA_W0@Z 10019d10 f i Keylock.obj
 0001:00018d40       ?IsEqualObject@?$CComPtrBase@UIOleClientSite@@@ATL@@QAE_NPAUIUnknown@@@Z 10019d40 f i Keylock.obj
 0001:00018e70       ?IsEqualObject@?$CComPtrBase@UITypeInfo@@@ATL@@QAE_NPAUIUnknown@@@Z 10019e70 f i Keylock.obj
 0001:00018fa0       ?IsSpace@CRegParser@ATL@@IAEH_W@Z 10019fa0 f i Keylock.obj
 0001:00019010       ?IsUpToDate@?$IOleObjectImpl@VCOPOSKeylock@@@ATL@@UAGJXZ 1001a010 f i Keylock.obj
 0001:00019070       ?Length@CComBSTR@ATL@@QBEIXZ 1001a070 f i Keylock.obj
 0001:000190b0       ?Load@?$IPersistStorageImpl@VCOPOSKeylock@@@ATL@@UAGJPAUIStorage@@@Z 1001a0b0 f i Keylock.obj
 0001:00019210       ?Load@?$IPersistStreamInitImpl@VCOPOSKeylock@@@ATL@@UAGJPAUIStream@@@Z 1001a210 f i Keylock.obj
 0001:000192a0       ?LoadCursorW@AtlModuleRegisterWndClassInfoParamW@ATL@@SAPAUHICON__@@PAUHINSTANCE__@@PB_W@Z 1001a2a0 f i Keylock.obj
 0001:000192d0       ?LoadNameCache@CComTypeInfoHolder@ATL@@QAEJPAUITypeInfo@@@Z 1001a2d0 f i Keylock.obj
 0001:00019560       ?Lock@?$CComCritSecLock@VCComCriticalSection@ATL@@@ATL@@QAEJXZ 1001a560 f i Keylock.obj
 0001:00019610       ?Lock@?$CComObjectRootEx@VCComSingleThreadModel@ATL@@@ATL@@QAEXXZ 1001a610 f i Keylock.obj
 0001:00019630       ?Lock@CAtlModule@ATL@@UAEJXZ 1001a630 f i Keylock.obj
 0001:00019660       ?Lock@CComCriticalSection@ATL@@QAEJXZ 1001a660 f i Keylock.obj
 0001:000196a0       ?Lock@CComFakeCriticalSection@ATL@@QAEJXZ 1001a6a0 f i Keylock.obj
 0001:000196c0       ?LockServer@CComClassFactory@ATL@@UAGJH@Z 1001a6c0 f i Keylock.obj
 0001:00019720       ?Lookup@?$CSimpleMap@PA_WPA_WVCExpansionVectorEqualHelper@ATL@@@ATL@@QBEPA_WABQA_W@Z 1001a720 f i Keylock.obj
 0001:00019770       ?Next@?$CComEnumImpl@UIEnumConnectionPoints@@$1?_GUID_b196b285_bab4_101a_b69c_00aa00341d07@@3U__s_GUID@@BPAUIConnectionPoint@@V?$_CopyInterface@UIConnectionPoint@@@ATL@@@ATL@@UAGJKPAPAUIConnectionPoint@@PAK@Z 1001a770 f i Keylock.obj
 0001:000198e0       ?Next@?$CComEnumImpl@UIEnumConnections@@$1?_GUID_b196b287_bab4_101a_b69c_00aa00341d07@@3U__s_GUID@@BUtagCONNECTDATA@@V?$_Copy@UtagCONNECTDATA@@@ATL@@@ATL@@UAGJKPAUtagCONNECTDATA@@PAK@Z 1001a8e0 f i Keylock.obj
 0001:00019a50       ?NextToken@CRegParser@ATL@@IAEJPA_W@Z 1001aa50 f i Keylock.obj
 0001:00019cf0       ?OLE2CT_EX@@YAPB_WPB_WI@Z  1001acf0 f i Keylock.obj
 0001:00019d00       ?OLE2CT_EX_DEF@@YAPB_WPB_W@Z 1001ad00 f i Keylock.obj
 0001:00019d10       ?OLE2T_EX@@YAPA_WPA_WI@Z   1001ad10 f i Keylock.obj
 0001:00019d20       ?OnAmbientPropertyChange@?$IOleControlImpl@VCOPOSKeylock@@@ATL@@UAGJJ@Z 1001ad20 f i Keylock.obj
 0001:00019db0       ?OnDocWindowActivate@?$IOleInPlaceActiveObjectImpl@VCOPOSKeylock@@@ATL@@UAGJH@Z 1001adb0 f i Keylock.obj
 0001:00019e40       ?OnDrawAdvanced@CComControlBase@ATL@@UAEJAAUATL_DRAWINFO@@@Z 1001ae40 f i Keylock.obj
 0001:0001a060       ?OnFinalMessage@?$CWindowImplBaseT@VCWindow@ATL@@V?$CWinTraits@$0FGAAAAAA@$0A@@2@@ATL@@UAEXPAUHWND__@@@Z 1001b060 f i Keylock.obj
 0001:0001a080       ?OnFrameWindowActivate@?$IOleInPlaceActiveObjectImpl@VCOPOSKeylock@@@ATL@@UAGJH@Z 1001b080 f i Keylock.obj
 0001:0001a0e0       ?OnKillFocus@CComControlBase@ATL@@QAEJIIJAAH@Z 1001b0e0 f i Keylock.obj
 0001:0001a1e0       ?OnMnemonic@?$IOleControlImpl@VCOPOSKeylock@@@ATL@@UAGJPAUtagMSG@@@Z 1001b1e0 f i Keylock.obj
 0001:0001a250       ?OnMouseActivate@CComControlBase@ATL@@QAEJIIJAAH@Z 1001b250 f i Keylock.obj
 0001:0001a3a0       ?OnPaint@CComControlBase@ATL@@QAEJIIJAAH@Z 1001b3a0 f i Keylock.obj
 0001:0001a520       ?OnPostVerbDiscardUndo@?$IOleObjectImpl@VCOPOSKeylock@@@ATL@@QAEJXZ 1001b520 f i Keylock.obj
 0001:0001a540       ?OnPostVerbHide@?$IOleObjectImpl@VCOPOSKeylock@@@ATL@@QAEJXZ 1001b540 f i Keylock.obj
 0001:0001a560       ?OnPostVerbInPlaceActivate@?$IOleObjectImpl@VCOPOSKeylock@@@ATL@@QAEJXZ 1001b560 f i Keylock.obj
 0001:0001a580       ?OnPostVerbOpen@?$IOleObjectImpl@VCOPOSKeylock@@@ATL@@QAEJXZ 1001b580 f i Keylock.obj
 0001:0001a5a0       ?OnPostVerbShow@?$IOleObjectImpl@VCOPOSKeylock@@@ATL@@QAEJXZ 1001b5a0 f i Keylock.obj
 0001:0001a5c0       ?OnPostVerbUIActivate@?$IOleObjectImpl@VCOPOSKeylock@@@ATL@@QAEJXZ 1001b5c0 f i Keylock.obj
 0001:0001a5e0       ?OnPreVerbDiscardUndo@?$IOleObjectImpl@VCOPOSKeylock@@@ATL@@QAEJXZ 1001b5e0 f i Keylock.obj
 0001:0001a600       ?OnPreVerbHide@?$IOleObjectImpl@VCOPOSKeylock@@@ATL@@QAEJXZ 1001b600 f i Keylock.obj
 0001:0001a620       ?OnPreVerbInPlaceActivate@?$IOleObjectImpl@VCOPOSKeylock@@@ATL@@QAEJXZ 1001b620 f i Keylock.obj
 0001:0001a640       ?OnPreVerbOpen@?$IOleObjectImpl@VCOPOSKeylock@@@ATL@@QAEJXZ 1001b640 f i Keylock.obj
 0001:0001a660       ?OnPreVerbShow@?$IOleObjectImpl@VCOPOSKeylock@@@ATL@@QAEJXZ 1001b660 f i Keylock.obj
 0001:0001a680       ?OnPreVerbUIActivate@?$IOleObjectImpl@VCOPOSKeylock@@@ATL@@QAEJXZ 1001b680 f i Keylock.obj
 0001:0001a6a0       ?OnSetFocus@CComControlBase@ATL@@QAEJIIJAAH@Z 1001b6a0 f i Keylock.obj
 0001:0001a830       ?OnWindowMessage@?$IOleInPlaceObjectWindowlessImpl@VCOPOSKeylock@@@ATL@@UAGJIIJPAJ@Z 1001b830 f i Keylock.obj
 0001:0001a990       ?Open@CRegKey@ATL@@QAEJPAUHKEY__@@PB_WK@Z 1001b990 f i Keylock.obj
 0001:0001aae0       ?OuterAddRef@CComObjectRootBase@ATL@@QAEKXZ 1001bae0 f i Keylock.obj
 0001:0001ab20       ?OuterQueryInterface@CComObjectRootBase@ATL@@QAEJABU_GUID@@PAPAX@Z 1001bb20 f i Keylock.obj
 0001:0001ab70       ?OuterRelease@CComObjectRootBase@ATL@@QAEKXZ 1001bb70 f i Keylock.obj
 0001:0001abb0       ?PreProcessBuffer@CRegParser@ATL@@QAEJPA_WPAPA_W@Z 1001bbb0 f i Keylock.obj
 0001:0001b0f0       ?PreTranslateAccelerator@CComControlBase@ATL@@QAEHPAUtagMSG@@AAJ@Z 1001c0f0 f i Keylock.obj
 0001:0001b110       ?ProcessWindowMessage@?$CComControl@VCOPOSKeylock@@V?$CWindowImpl@VCOPOSKeylock@@VCWindow@ATL@@V?$CWinTraits@$0FGAAAAAA@$0A@@3@@ATL@@@ATL@@UAEHPAUHWND__@@IIJAAJK@Z 1001c110 f i Keylock.obj
 0001:0001b2e0       ?ProcessWindowMessage@COPOSKeylock@@UAEHPAUHWND__@@IIJAAJK@Z 1001c2e0 f i Keylock.obj
 0001:0001b3e0       ?PutProperty@?$CComPtr@UIDispatch@@@ATL@@QAEJJPAUtagVARIANT@@@Z 1001c3e0 f i Keylock.obj
 0001:0001b420       ?PutProperty@?$CComPtr@UIDispatch@@@ATL@@SAJPAUIDispatch@@JPAUtagVARIANT@@@Z 1001c420 f i Keylock.obj
 0001:0001b610       ?QueryGetData@?$IDataObjectImpl@VCOPOSKeylock@@@ATL@@UAGJPAUtagFORMATETC@@@Z 1001c610 f i Keylock.obj
 0001:0001b680       ?QueryHitPoint@?$IViewObjectExImpl@VCOPOSKeylock@@@ATL@@UAGJKPBUtagRECT@@UtagPOINT@@JPAK@Z 1001c680 f i Keylock.obj
 0001:0001b790       ?QueryHitRect@?$IViewObjectExImpl@VCOPOSKeylock@@@ATL@@UAGJKPBUtagRECT@@0JPAK@Z 1001c790 f i Keylock.obj
 0001:0001b8e0       ?QueryInterface@?$CComAggObject@VCOPOSKeylock@@@ATL@@UAGJABU_GUID@@PAPAX@Z 1001c8e0 f i Keylock.obj
 0001:0001b990       ?QueryInterface@?$CComContainedObject@VCOPOSKeylock@@@ATL@@UAGJABU_GUID@@PAPAX@Z 1001c990 f i Keylock.obj
 0001:0001b9b4       ?QueryInterface@?$CComContainedObject@VCOPOSKeylock@@@ATL@@WHA@AGJABU_GUID@@PAPAX@Z 1001c9b4 f i Keylock.obj
 0001:0001b9be       ?QueryInterface@?$CComContainedObject@VCOPOSKeylock@@@ATL@@WHE@AGJABU_GUID@@PAPAX@Z 1001c9be f i Keylock.obj
 0001:0001b9c8       ?QueryInterface@?$CComContainedObject@VCOPOSKeylock@@@ATL@@WHI@AGJABU_GUID@@PAPAX@Z 1001c9c8 f i Keylock.obj
 0001:0001b9d2       ?QueryInterface@?$CComContainedObject@VCOPOSKeylock@@@ATL@@WHM@AGJABU_GUID@@PAPAX@Z 1001c9d2 f i Keylock.obj
 0001:0001b9dc       ?QueryInterface@?$CComContainedObject@VCOPOSKeylock@@@ATL@@WIA@AGJABU_GUID@@PAPAX@Z 1001c9dc f i Keylock.obj
 0001:0001b9e9       ?QueryInterface@?$CComContainedObject@VCOPOSKeylock@@@ATL@@WIE@AGJABU_GUID@@PAPAX@Z 1001c9e9 f i Keylock.obj
 0001:0001b9f6       ?QueryInterface@?$CComContainedObject@VCOPOSKeylock@@@ATL@@WII@AGJABU_GUID@@PAPAX@Z 1001c9f6 f i Keylock.obj
 0001:0001ba03       ?QueryInterface@?$CComContainedObject@VCOPOSKeylock@@@ATL@@WIM@AGJABU_GUID@@PAPAX@Z 1001ca03 f i Keylock.obj
 0001:0001ba10       ?QueryInterface@?$CComContainedObject@VCOPOSKeylock@@@ATL@@WJA@AGJABU_GUID@@PAPAX@Z 1001ca10 f i Keylock.obj
 0001:0001ba1d       ?QueryInterface@?$CComContainedObject@VCOPOSKeylock@@@ATL@@WJE@AGJABU_GUID@@PAPAX@Z 1001ca1d f i Keylock.obj
 0001:0001ba2a       ?QueryInterface@?$CComContainedObject@VCOPOSKeylock@@@ATL@@WJI@AGJABU_GUID@@PAPAX@Z 1001ca2a f i Keylock.obj
 0001:0001ba37       ?QueryInterface@?$CComContainedObject@VCOPOSKeylock@@@ATL@@WJM@AGJABU_GUID@@PAPAX@Z 1001ca37 f i Keylock.obj
 0001:0001ba44       ?QueryInterface@?$CComContainedObject@VCOPOSKeylock@@@ATL@@WKA@AGJABU_GUID@@PAPAX@Z 1001ca44 f i Keylock.obj
 0001:0001ba60       ?QueryInterface@?$CComObject@V?$CComEnum@UIEnumConnectionPoints@@$1?_GUID_b196b285_bab4_101a_b69c_00aa00341d07@@3U__s_GUID@@BPAUIConnectionPoint@@V?$_CopyInterface@UIConnectionPoint@@@ATL@@VCComSingleThreadModel@6@@ATL@@@ATL@@UAGJABU_GUID@@PAPAX@Z 1001ca60 f i Keylock.obj
 0001:0001ba80       ?QueryInterface@?$CComObject@V?$CComEnum@UIEnumConnections@@$1?_GUID_b196b287_bab4_101a_b69c_00aa00341d07@@3U__s_GUID@@BUtagCONNECTDATA@@V?$_Copy@UtagCONNECTDATA@@@ATL@@VCComSingleThreadModel@6@@ATL@@@ATL@@UAGJABU_GUID@@PAPAX@Z 1001ca80 f i Keylock.obj
 0001:0001baa0       ?QueryInterface@?$CComObject@VCOPOSKeylock@@@ATL@@UAGJABU_GUID@@PAPAX@Z 1001caa0 f i Keylock.obj
 0001:0001babe       ?QueryInterface@?$CComObject@VCOPOSKeylock@@@ATL@@WHA@AGJABU_GUID@@PAPAX@Z 1001cabe f i Keylock.obj
 0001:0001bac8       ?QueryInterface@?$CComObject@VCOPOSKeylock@@@ATL@@WHE@AGJABU_GUID@@PAPAX@Z 1001cac8 f i Keylock.obj
 0001:0001bad2       ?QueryInterface@?$CComObject@VCOPOSKeylock@@@ATL@@WHI@AGJABU_GUID@@PAPAX@Z 1001cad2 f i Keylock.obj
 0001:0001badc       ?QueryInterface@?$CComObject@VCOPOSKeylock@@@ATL@@WHM@AGJABU_GUID@@PAPAX@Z 1001cadc f i Keylock.obj
 0001:0001bae6       ?QueryInterface@?$CComObject@VCOPOSKeylock@@@ATL@@WIA@AGJABU_GUID@@PAPAX@Z 1001cae6 f i Keylock.obj
 0001:0001baf3       ?QueryInterface@?$CComObject@VCOPOSKeylock@@@ATL@@WIE@AGJABU_GUID@@PAPAX@Z 1001caf3 f i Keylock.obj
 0001:0001bb00       ?QueryInterface@?$CComObject@VCOPOSKeylock@@@ATL@@WII@AGJABU_GUID@@PAPAX@Z 1001cb00 f i Keylock.obj
 0001:0001bb0d       ?QueryInterface@?$CComObject@VCOPOSKeylock@@@ATL@@WIM@AGJABU_GUID@@PAPAX@Z 1001cb0d f i Keylock.obj
 0001:0001bb1a       ?QueryInterface@?$CComObject@VCOPOSKeylock@@@ATL@@WJA@AGJABU_GUID@@PAPAX@Z 1001cb1a f i Keylock.obj
 0001:0001bb27       ?QueryInterface@?$CComObject@VCOPOSKeylock@@@ATL@@WJE@AGJABU_GUID@@PAPAX@Z 1001cb27 f i Keylock.obj
 0001:0001bb34       ?QueryInterface@?$CComObject@VCOPOSKeylock@@@ATL@@WJI@AGJABU_GUID@@PAPAX@Z 1001cb34 f i Keylock.obj
 0001:0001bb41       ?QueryInterface@?$CComObject@VCOPOSKeylock@@@ATL@@WJM@AGJABU_GUID@@PAPAX@Z 1001cb41 f i Keylock.obj
 0001:0001bb4e       ?QueryInterface@?$CComObject@VCOPOSKeylock@@@ATL@@WKA@AGJABU_GUID@@PAPAX@Z 1001cb4e f i Keylock.obj
 0001:0001bb60       ?QueryInterface@?$CComObjectCached@VCComClassFactory@ATL@@@ATL@@UAGJABU_GUID@@PAPAX@Z 1001cb60 f i Keylock.obj
 0001:0001bb80       ?QueryInterface@CRegObject@ATL@@UAGJABU_GUID@@PAPAX@Z 1001cb80 f i Keylock.obj
 0001:0001bbd0       ?QuickActivate@?$IQuickActivateImpl@VCOPOSKeylock@@@ATL@@UAGJPAUtagQACONTAINER@@PAUtagQACONTROL@@@Z 1001cbd0 f i Keylock.obj
 0001:0001bc60       ?ReactivateAndUndo@?$IOleInPlaceObjectWindowlessImpl@VCOPOSKeylock@@@ATL@@UAGJXZ 1001cc60 f i Keylock.obj
 0001:0001bcd0       ?ReadFromStream@CComBSTR@ATL@@QAEJPAUIStream@@@Z 1001ccd0 f i Keylock.obj
 0001:0001c0d0       ?ReadFromStream@CComVariant@ATL@@QAEJPAUIStream@@GTClassesAllowedInStream@2@K@Z 1001d0d0 f i Keylock.obj
 0001:0001c430       ?RecurseDeleteKey@CRegKey@ATL@@QAEJPB_W@Z 1001d430 f i Keylock.obj
 0001:0001c610       ?RegCreateKeyExW@CAtlTransactionManager@ATL@@QAEJPAUHKEY__@@PB_WKPA_WKKQAU_SECURITY_ATTRIBUTES@@PAPAU3@PAK@Z 1001d610 f i Keylock.obj
 0001:0001c740       ?RegDeleteKeyW@CAtlTransactionManager@ATL@@QAEJPAUHKEY__@@PB_W@Z 1001d740 f i Keylock.obj
 0001:0001c840       ?RegOpenKeyExW@CAtlTransactionManager@ATL@@QAEJPAUHKEY__@@PB_WKKPAPAU3@@Z 1001d840 f i Keylock.obj
 0001:0001c950       ?Register@_ATL_WNDCLASSINFOW@ATL@@QAEGPAP6GJPAUHWND__@@IIJ@Z@Z 1001d950 f i Keylock.obj
 0001:0001c990       ?RegisterBuffer@CRegParser@ATL@@QAEJPA_WH@Z 1001d990 f i Keylock.obj
 0001:0001ccc0       ?RegisterClassExW@AtlModuleRegisterWndClassInfoParamW@ATL@@SAGPAU_ATL_WIN_MODULE70@2@PBUtagWNDCLASSEXW@@@Z 1001dcc0 f i Keylock.obj
 0001:0001cce0       ?RegisterFromResource@CRegObject@ATL@@IAEJPB_W00H@Z 1001dce0 f i Keylock.obj
 0001:0001d070       ?RegisterServer@?$CAtlModuleT@VCComModule@ATL@@@ATL@@QAEJHPBU_GUID@@@Z 1001e070 f i Keylock.obj
 0001:0001d0f0       ?RegisterServer@CAtlComModule@ATL@@QAEJHPBU_GUID@@@Z 1001e0f0 f i Keylock.obj
 0001:0001d120       ?RegisterServer@CComModule@ATL@@QAEJHPBU_GUID@@@Z 1001e120 f i Keylock.obj
 0001:0001d200       ?RegisterSubkeys@CRegParser@ATL@@IAEJPA_WPAUHKEY__@@HH@Z 1001e200 f i Keylock.obj
 0001:0001dd20       ?Release@?$CComAggObject@VCOPOSKeylock@@@ATL@@UAGKXZ 1001ed20 f i Keylock.obj
 0001:0001dde0       ?Release@?$CComContainedObject@VCOPOSKeylock@@@ATL@@UAGKXZ 1001ede0 f i Keylock.obj
 0001:0001ddfc       ?Release@?$CComContainedObject@VCOPOSKeylock@@@ATL@@WHA@AGKXZ 1001edfc f i Keylock.obj
 0001:0001de06       ?Release@?$CComContainedObject@VCOPOSKeylock@@@ATL@@WHE@AGKXZ 1001ee06 f i Keylock.obj
 0001:0001de10       ?Release@?$CComContainedObject@VCOPOSKeylock@@@ATL@@WHI@AGKXZ 1001ee10 f i Keylock.obj
 0001:0001de1a       ?Release@?$CComContainedObject@VCOPOSKeylock@@@ATL@@WHM@AGKXZ 1001ee1a f i Keylock.obj
 0001:0001de24       ?Release@?$CComContainedObject@VCOPOSKeylock@@@ATL@@WIA@AGKXZ 1001ee24 f i Keylock.obj
 0001:0001de31       ?Release@?$CComContainedObject@VCOPOSKeylock@@@ATL@@WIE@AGKXZ 1001ee31 f i Keylock.obj
 0001:0001de3e       ?Release@?$CComContainedObject@VCOPOSKeylock@@@ATL@@WII@AGKXZ 1001ee3e f i Keylock.obj
 0001:0001de4b       ?Release@?$CComContainedObject@VCOPOSKeylock@@@ATL@@WIM@AGKXZ 1001ee4b f i Keylock.obj
 0001:0001de58       ?Release@?$CComContainedObject@VCOPOSKeylock@@@ATL@@WJA@AGKXZ 1001ee58 f i Keylock.obj
 0001:0001de65       ?Release@?$CComContainedObject@VCOPOSKeylock@@@ATL@@WJE@AGKXZ 1001ee65 f i Keylock.obj
 0001:0001de72       ?Release@?$CComContainedObject@VCOPOSKeylock@@@ATL@@WJI@AGKXZ 1001ee72 f i Keylock.obj
 0001:0001de7f       ?Release@?$CComContainedObject@VCOPOSKeylock@@@ATL@@WJM@AGKXZ 1001ee7f f i Keylock.obj
 0001:0001de8c       ?Release@?$CComContainedObject@VCOPOSKeylock@@@ATL@@WKA@AGKXZ 1001ee8c f i Keylock.obj
 0001:0001de99       ?Release@?$CComContainedObject@VCOPOSKeylock@@@ATL@@WKI@AGKXZ 1001ee99 f i Keylock.obj
 0001:0001dea6       ?Release@?$CComContainedObject@VCOPOSKeylock@@@ATL@@WLE@AGKXZ 1001eea6 f i Keylock.obj
 0001:0001dec0       ?Release@?$CComObject@V?$CComEnum@UIEnumConnectionPoints@@$1?_GUID_b196b285_bab4_101a_b69c_00aa00341d07@@3U__s_GUID@@BPAUIConnectionPoint@@V?$_CopyInterface@UIConnectionPoint@@@ATL@@VCComSingleThreadModel@6@@ATL@@@ATL@@UAGKXZ 1001eec0 f i Keylock.obj
 0001:0001df80       ?Release@?$CComObject@V?$CComEnum@UIEnumConnections@@$1?_GUID_b196b287_bab4_101a_b69c_00aa00341d07@@3U__s_GUID@@BUtagCONNECTDATA@@V?$_Copy@UtagCONNECTDATA@@@ATL@@VCComSingleThreadModel@6@@ATL@@@ATL@@UAGKXZ 1001ef80 f i Keylock.obj
 0001:0001e040       ?Release@?$CComObject@VCOPOSKeylock@@@ATL@@UAGKXZ 1001f040 f i Keylock.obj
 0001:0001e0f9       ?Release@?$CComObject@VCOPOSKeylock@@@ATL@@WHA@AGKXZ 1001f0f9 f i Keylock.obj
 0001:0001e103       ?Release@?$CComObject@VCOPOSKeylock@@@ATL@@WHE@AGKXZ 1001f103 f i Keylock.obj
 0001:0001e10d       ?Release@?$CComObject@VCOPOSKeylock@@@ATL@@WHI@AGKXZ 1001f10d f i Keylock.obj
 0001:0001e117       ?Release@?$CComObject@VCOPOSKeylock@@@ATL@@WHM@AGKXZ 1001f117 f i Keylock.obj
 0001:0001e121       ?Release@?$CComObject@VCOPOSKeylock@@@ATL@@WIA@AGKXZ 1001f121 f i Keylock.obj
 0001:0001e12e       ?Release@?$CComObject@VCOPOSKeylock@@@ATL@@WIE@AGKXZ 1001f12e f i Keylock.obj
 0001:0001e13b       ?Release@?$CComObject@VCOPOSKeylock@@@ATL@@WII@AGKXZ 1001f13b f i Keylock.obj
 0001:0001e148       ?Release@?$CComObject@VCOPOSKeylock@@@ATL@@WIM@AGKXZ 1001f148 f i Keylock.obj
 0001:0001e155       ?Release@?$CComObject@VCOPOSKeylock@@@ATL@@WJA@AGKXZ 1001f155 f i Keylock.obj
 0001:0001e162       ?Release@?$CComObject@VCOPOSKeylock@@@ATL@@WJE@AGKXZ 1001f162 f i Keylock.obj
 0001:0001e16f       ?Release@?$CComObject@VCOPOSKeylock@@@ATL@@WJI@AGKXZ 1001f16f f i Keylock.obj
 0001:0001e17c       ?Release@?$CComObject@VCOPOSKeylock@@@ATL@@WJM@AGKXZ 1001f17c f i Keylock.obj
 0001:0001e189       ?Release@?$CComObject@VCOPOSKeylock@@@ATL@@WKA@AGKXZ 1001f189 f i Keylock.obj
 0001:0001e196       ?Release@?$CComObject@VCOPOSKeylock@@@ATL@@WKI@AGKXZ 1001f196 f i Keylock.obj
 0001:0001e1a3       ?Release@?$CComObject@VCOPOSKeylock@@@ATL@@WLE@AGKXZ 1001f1a3 f i Keylock.obj
 0001:0001e1b0       ?Release@?$CComObjectCached@VCComClassFactory@ATL@@@ATL@@UAGKXZ 1001f1b0 f i Keylock.obj
 0001:0001e250       ?Release@?$CComPtrBase@UIAdviseSink@@@ATL@@QAEXXZ 1001f250 f i Keylock.obj
 0001:0001e2b0       ?Release@?$CComPtrBase@UIDispatch@@@ATL@@QAEXXZ 1001f2b0 f i Keylock.obj
 0001:0001e310       ?Release@?$CComPtrBase@UIOleInPlaceSiteWindowless@@@ATL@@QAEXXZ 1001f310 f i Keylock.obj
 0001:0001e370       ?Release@CRegObject@ATL@@UAGKXZ 1001f370 f i Keylock.obj
 0001:0001e3b0       ?Remove@CComDynamicUnkArray@ATL@@QAEHK@Z 1001f3b0 f i Keylock.obj
 0001:0001e460       ?RemoveAll@?$CSimpleMap@PA_WPA_WVCExpansionVectorEqualHelper@ATL@@@ATL@@QAEXXZ 1001f460 f i Keylock.obj
 0001:0001e4f0       ?Reset@?$CComEnumImpl@UIEnumConnectionPoints@@$1?_GUID_b196b285_bab4_101a_b69c_00aa00341d07@@3U__s_GUID@@BPAUIConnectionPoint@@V?$_CopyInterface@UIConnectionPoint@@@ATL@@@ATL@@UAGJXZ 1001f4f0 f i Keylock.obj
 0001:0001e510       ?Reset@?$CComEnumImpl@UIEnumConnections@@$1?_GUID_b196b287_bab4_101a_b69c_00aa00341d07@@3U__s_GUID@@BUtagCONNECTDATA@@V?$_Copy@UtagCONNECTDATA@@@ATL@@@ATL@@UAGJXZ 1001f510 f i Keylock.obj
 0001:0001e530       ?ResizeBorder@?$IOleInPlaceActiveObjectImpl@VCOPOSKeylock@@@ATL@@UAGJPBUtagRECT@@PAUIOleInPlaceUIWindow@@H@Z 1001f530 f i Keylock.obj
 0001:0001e590       ?ResourceRegister@CRegObject@ATL@@QAGJPB_WI0@Z 1001f590 f i Keylock.obj
 0001:0001e670       ?ResourceRegisterSz@CRegObject@ATL@@QAGJPB_W00@Z 1001f670 f i Keylock.obj
 0001:0001e770       ?ResourceUnregister@CRegObject@ATL@@QAGJPB_WI0@Z 1001f770 f i Keylock.obj
 0001:0001e850       ?ResourceUnregisterSz@CRegObject@ATL@@QAGJPB_W00@Z 1001f850 f i Keylock.obj
 0001:0001e950       ?SODataDummy@COPOSKeylock@@MAGJJ@Z 1001f950 f i Keylock.obj
 0001:0001e960       ?SODirectIO@COPOSKeylock@@MAGJJPAJPAPA_W@Z 1001f960 f i Keylock.obj
 0001:0001eb20       ?SOErrorDummy@COPOSKeylock@@MAGJJJJPAJ@Z 1001fb20 f i Keylock.obj
 0001:0001eb30       ?SOOutputCompleteDummy@COPOSKeylock@@MAGJJ@Z 1001fb30 f i Keylock.obj
 0001:0001eb40       ?SOStatusUpdate@COPOSKeylock@@MAGJJ@Z 1001fb40 f i Keylock.obj
 0001:0001ebc0       ?Save@?$IPersistStorageImpl@VCOPOSKeylock@@@ATL@@UAGJPAUIStorage@@H@Z 1001fbc0 f i Keylock.obj
 0001:0001ed20       ?Save@?$IPersistStreamInitImpl@VCOPOSKeylock@@@ATL@@UAGJPAUIStream@@H@Z 1001fd20 f i Keylock.obj
 0001:0001edb0       ?SaveCompleted@?$IPersistStorageImpl@VCOPOSKeylock@@@ATL@@UAGJPAUIStorage@@@Z 1001fdb0 f i Keylock.obj
 0001:0001ee10       ?SendOnDataChange@CComControlBase@ATL@@QAEJK@Z 1001fe10 f i Keylock.obj
 0001:0001ef00       ?SendOnSave@CComControlBase@ATL@@QAEJXZ 1001ff00 f i Keylock.obj
 0001:0001ef70       ?SendOnViewChange@CComControlBase@ATL@@QAEJKJ@Z 1001ff70 f i Keylock.obj
 0001:0001efe0       ?SetAdvise@?$IViewObjectExImpl@VCOPOSKeylock@@@ATL@@UAGJKKPAUIAdviseSink@@@Z 1001ffe0 f i Keylock.obj
 0001:0001f070       ?SetClientSite@?$IOleObjectImpl@VCOPOSKeylock@@@ATL@@UAGJPAUIOleClientSite@@@Z 10020070 f i Keylock.obj
 0001:0001f100       ?SetColorScheme@?$IOleObjectImpl@VCOPOSKeylock@@@ATL@@UAGJPAUtagLOGPALETTE@@@Z 10020100 f i Keylock.obj
 0001:0001f170       ?SetContentExtent@?$IQuickActivateImpl@VCOPOSKeylock@@@ATL@@UAGJPAUtagSIZE@@@Z 10020170 f i Keylock.obj
 0001:0001f200       ?SetControlFocus@CComControlBase@ATL@@QAEHH@Z 10020200 f i Keylock.obj
 0001:0001f380       ?SetDWORDValue@CRegKey@ATL@@QAEJPB_WK@Z 10020380 f i Keylock.obj
 0001:0001f400       ?SetData@?$IDataObjectImpl@VCOPOSKeylock@@@ATL@@UAGJPAUtagFORMATETC@@PAUtagSTGMEDIUM@@H@Z 10020400 f i Keylock.obj
 0001:0001f470       ?SetExtent@?$IOleObjectImpl@VCOPOSKeylock@@@ATL@@UAGJKPAUtagSIZE@@@Z 10020470 f i Keylock.obj
 0001:0001f500       ?SetHostNames@?$IOleObjectImpl@VCOPOSKeylock@@@ATL@@UAGJPB_W0@Z 10020500 f i Keylock.obj
 0001:0001f560       ?SetInterfaceSafetyOptions@?$IObjectSafetyImpl@VCOPOSKeylock@@$02@ATL@@UAGJABU_GUID@@KK@Z 10020560 f i Keylock.obj
 0001:0001f6d0       ?SetMoniker@?$IOleObjectImpl@VCOPOSKeylock@@@ATL@@UAGJKPAUIMoniker@@@Z 100206d0 f i Keylock.obj
 0001:0001f740       ?SetMultiStringValue@CRegKey@ATL@@QAEJPB_W0@Z 10020740 f i Keylock.obj
 0001:0001f860       ?SetObjectRects@?$IOleInPlaceObjectWindowlessImpl@VCOPOSKeylock@@@ATL@@UAGJPBUtagRECT@@0@Z 10020860 f i Keylock.obj
 0001:0001f8f0       ?SetStringValue@CRegKey@ATL@@QAEJPB_W0K@Z 100208f0 f i Keylock.obj
 0001:0001fa20       ?SetVoid@CComClassFactory@ATL@@QAEXPAX@Z 10020a20 f i Keylock.obj
 0001:0001fa40       ?SetVoid@CComObjectRootBase@ATL@@QAEXPAX@Z 10020a40 f i Keylock.obj
 0001:0001fa60       ?SetWindowLongPtrW@@YAJPAUHWND__@@HJ@Z 10020a60 f i Keylock.obj
 0001:0001fa90       ?ShowWindow@CWindow@ATL@@QAEHH@Z 10020a90 f i Keylock.obj
 0001:0001fb10       ?Skip@?$CComEnumImpl@UIEnumConnectionPoints@@$1?_GUID_b196b285_bab4_101a_b69c_00aa00341d07@@3U__s_GUID@@BPAUIConnectionPoint@@V?$_CopyInterface@UIConnectionPoint@@@ATL@@@ATL@@UAGJK@Z 10020b10 f i Keylock.obj
 0001:0001fb90       ?Skip@?$CComEnumImpl@UIEnumConnections@@$1?_GUID_b196b287_bab4_101a_b69c_00aa00341d07@@3U__s_GUID@@BUtagCONNECTDATA@@V?$_Copy@UtagCONNECTDATA@@@ATL@@@ATL@@UAGJK@Z 10020b90 f i Keylock.obj
 0001:0001fc10       ?SkipAssignment@CRegParser@ATL@@IAEJPA_W@Z 10020c10 f i Keylock.obj
 0001:0001fcf0       ?SkipWhiteSpace@CRegParser@ATL@@IAEXXZ 10020cf0 f i Keylock.obj
 0001:0001fd40       ?StartWindowProc@?$CWindowImplBaseT@VCWindow@ATL@@V?$CWinTraits@$0FGAAAAAA@$0A@@2@@ATL@@SGJPAUHWND__@@IIJ@Z 10020d40 f i Keylock.obj
 0001:0001fe60       ?StrChrW@CRegParser@ATL@@KAPA_WPA_W_W@Z 10020e60 f i Keylock.obj
 0001:0001fed0       ?StrFromMap@CRegObject@ATL@@QAEPB_WPA_W@Z 10020ed0 f i Keylock.obj
 0001:0001ff60       ?Swap@?$CComPtrBase@UIAdviseSink@@@ATL@@IAEXAAV12@@Z 10020f60 f i Keylock.obj
 0001:0001ffa0       ?Swap@?$CComPtrBase@UIOleClientSite@@@ATL@@IAEXAAV12@@Z 10020fa0 f i Keylock.obj
 0001:0001ffe0       ?Swap@?$CComPtrBase@UIUnknown@@@ATL@@IAEXAAV12@@Z 10020fe0 f i Keylock.obj
 0001:00020020       ?T2COLE_EX@@YAPB_WPB_WI@Z  10021020 f i Keylock.obj
 0001:00020030       ?T2OLE_EX@@YAPA_WPA_WI@Z   10021030 f i Keylock.obj
 0001:00020040       ?Term@CAtlModule@ATL@@QAEXXZ 10021040 f i Keylock.obj
 0001:000200f0       ?Term@CComModule@ATL@@QAEXXZ 100210f0 f i Keylock.obj
 0001:000201e0       ?TranslateAcceleratorW@?$IOleInPlaceActiveObjectImpl@VCOPOSKeylock@@@ATL@@UAGJPAUtagMSG@@@Z 100211e0 f i Keylock.obj
 0001:000203e0       ?UIDeactivate@?$IOleInPlaceObjectWindowlessImpl@VCOPOSKeylock@@@ATL@@UAGJXZ 100213e0 f i Keylock.obj
 0001:00020460       ?Unadvise@?$CProxy_IOPOSEvents@VCOPOSKeylock@@@@UAGJK@Z 10021460 f i Keylock.obj
 0001:000204a0       ?Unadvise@?$IConnectionPointImpl@VCOPOSKeylock@@$1?DIID__IOPOSKeylockEvents@@3U_GUID@@BVCComDynamicUnkArray@ATL@@@ATL@@UAGJK@Z 100214a0 f i Keylock.obj
 0001:00020570       ?Unadvise@?$IConnectionPointImpl@VCOPOSKeylock@@$1?IID_IPropertyNotifySink@@3U_GUID@@BVCComDynamicUnkArray@ATL@@@ATL@@UAGJK@Z 10021570 f i Keylock.obj
 0001:00020640       ?Unadvise@?$IOleObjectImpl@VCOPOSKeylock@@@ATL@@UAGJK@Z 10021640 f i Keylock.obj
 0001:00020710       ?Unfreeze@?$IViewObjectExImpl@VCOPOSKeylock@@@ATL@@UAGJK@Z 10021710 f i Keylock.obj
 0001:00020780       ?Unlock@?$CComCritSecLock@VCComCriticalSection@ATL@@@ATL@@QAEXXZ 10021780 f i Keylock.obj
 0001:000207f0       ?Unlock@?$CComObjectRootEx@VCComSingleThreadModel@ATL@@@ATL@@QAEXXZ 100217f0 f i Keylock.obj
 0001:00020810       ?Unlock@CAtlModule@ATL@@UAEJXZ 10021810 f i Keylock.obj
 0001:00020840       ?Unlock@CComCriticalSection@ATL@@QAEJXZ 10021840 f i Keylock.obj
 0001:00020880       ?Unlock@CComFakeCriticalSection@ATL@@QAEJXZ 10021880 f i Keylock.obj
 0001:000208a0       ?UnregisterServer@?$CAtlModuleT@VCComModule@ATL@@@ATL@@QAEJHPBU_GUID@@@Z 100218a0 f i Keylock.obj
 0001:00020910       ?UnregisterServer@CAtlComModule@ATL@@QAEJHPBU_GUID@@@Z 10021910 f i Keylock.obj
 0001:00020940       ?UnregisterServer@CComModule@ATL@@QAEJHPBU_GUID@@@Z 10021940 f i Keylock.obj
 0001:00020a20       ?Update@?$IOleObjectImpl@VCOPOSKeylock@@@ATL@@UAGJXZ 10021a20 f i Keylock.obj
 0001:00020a80       ?UpdateRegistryFromResource@CAtlModule@ATL@@QAGJIHPAU_ATL_REGMAP_ENTRY@2@@Z 10021a80 f i Keylock.obj
 0001:00020f50       ?UpdateRegistryFromResource@CAtlModule@ATL@@QAGJPB_WHPAU_ATL_REGMAP_ENTRY@2@@Z 10021f50 f i Keylock.obj
 0001:00021440       ?UpdateRegistryFromResource@CComModule@ATL@@UAGJIHPAU_ATL_REGMAP_ENTRY@2@@Z 10022440 f i Keylock.obj
 0001:00021470       ?UpdateRegistryFromResource@CComModule@ATL@@UAGJPB_WHPAU_ATL_REGMAP_ENTRY@2@@Z 10022470 f i Keylock.obj
 0001:000214a0       ?UpdateRegistryFromResourceD@CComModule@ATL@@UAGJIHPAU_ATL_REGMAP_ENTRY@2@@Z 100224a0 f i Keylock.obj
 0001:000214b0       ?UpdateRegistryFromResourceD@CComModule@ATL@@UAGJPB_WHPAU_ATL_REGMAP_ENTRY@2@@Z 100224b0 f i Keylock.obj
 0001:000214c0       ?VTFromRegType@CRegParser@ATL@@KAHPB_WAAG@Z 100224c0 f i Keylock.obj
 0001:000215a0       ?WindowProc@?$CWindowImplBaseT@VCWindow@ATL@@V?$CWinTraits@$0FGAAAAAA@$0A@@2@@ATL@@SGJPAUHWND__@@IIJ@Z 100225a0 f i Keylock.obj
 0001:000217b0       ?WriteToStream@CComBSTR@ATL@@QAEJPAUIStream@@@Z 100227b0 f i Keylock.obj
 0001:00021910       ?WriteToStream@CComVariant@ATL@@QAEJPAUIStream@@@Z 10022910 f i Keylock.obj
 0001:00021c50       ?WriteToStream@CComVariant@ATL@@QAEJPAUIStream@@G@Z 10022c50 f i Keylock.obj
 0001:00021d20       ?_AtlFinalConstruct@CComObjectRootBase@ATL@@QAEJXZ 10022d20 f i Keylock.obj
 0001:00021d40       ?_AtlGetConversionACP@ATL@@YGIXZ 10022d40 f i Keylock.obj
 0001:00021d50       ?_AtlInitialConstruct@?$CComAggObject@VCOPOSKeylock@@@ATL@@QAEJXZ 10022d50 f i Keylock.obj
 0001:00021da0       ?_AtlInitialConstruct@?$CComObjectRootEx@VCComMultiThreadModel@ATL@@@ATL@@QAEJXZ 10022da0 f i Keylock.obj
 0001:00021dd0       ?_AtlInitialConstruct@?$CComObjectRootEx@VCComSingleThreadModel@ATL@@@ATL@@QAEJXZ 10022dd0 f i Keylock.obj
 0001:00021df0       ?_AtlVerifyStackAvailable@_ATL_SAFE_ALLOCA_IMPL@ATL@@YA_NK@Z 10022df0 f i Keylock.obj
 0001:00021fa0       ?_GetEntries@?$CComEnum@UIEnumConnectionPoints@@$1?_GUID_b196b285_bab4_101a_b69c_00aa00341d07@@3U__s_GUID@@BPAUIConnectionPoint@@V?$_CopyInterface@UIConnectionPoint@@@ATL@@VCComSingleThreadModel@6@@ATL@@SGPBU_ATL_INTMAP_ENTRY@2@XZ 10022fa0 f i Keylock.obj
 0001:00021fc0       ?_GetEntries@?$CComEnum@UIEnumConnections@@$1?_GUID_b196b287_bab4_101a_b69c_00aa00341d07@@3U__s_GUID@@BUtagCONNECTDATA@@V?$_Copy@UtagCONNECTDATA@@@ATL@@VCComSingleThreadModel@6@@ATL@@SGPBU_ATL_INTMAP_ENTRY@2@XZ 10022fc0 f i Keylock.obj
 0001:00021fe0       ?_GetEntries@CComClassFactory@ATL@@SGPBU_ATL_INTMAP_ENTRY@2@XZ 10022fe0 f i Keylock.obj
 0001:00022000       ?_GetEntries@COPOSKeylock@@SGPBU_ATL_INTMAP_ENTRY@ATL@@XZ 10023000 f i Keylock.obj
 0001:00022020       ?_GetRawUnknown@COPOSKeylock@@QAEPAUIUnknown@@XZ 10023020 f i Keylock.obj
 0001:00022090       ?_GetViewStatus@COPOSKeylock@@QAEKXZ 10023090 f i Keylock.obj
 0001:000220b0       ?_InternalQueryInterface@?$CComEnum@UIEnumConnectionPoints@@$1?_GUID_b196b285_bab4_101a_b69c_00aa00341d07@@3U__s_GUID@@BPAUIConnectionPoint@@V?$_CopyInterface@UIConnectionPoint@@@ATL@@VCComSingleThreadModel@6@@ATL@@QAEJABU_GUID@@PAPAX@Z 100230b0 f i Keylock.obj
 0001:000220f0       ?_InternalQueryInterface@?$CComEnum@UIEnumConnections@@$1?_GUID_b196b287_bab4_101a_b69c_00aa00341d07@@3U__s_GUID@@BUtagCONNECTDATA@@V?$_Copy@UtagCONNECTDATA@@@ATL@@VCComSingleThreadModel@6@@ATL@@QAEJABU_GUID@@PAPAX@Z 100230f0 f i Keylock.obj
 0001:00022130       ?_InternalQueryInterface@CComClassFactory@ATL@@QAEJABU_GUID@@PAPAX@Z 10023130 f i Keylock.obj
 0001:00022170       ?_InternalQueryInterface@COPOSKeylock@@QAEJABU_GUID@@PAPAX@Z 10023170 f i Keylock.obj
 0001:000221b0       ?_LocCPQueryInterface@?$IConnectionPointImpl@VCOPOSKeylock@@$1?DIID__IOPOSKeylockEvents@@3U_GUID@@BVCComDynamicUnkArray@ATL@@@ATL@@UAGJABU_GUID@@PAPAX@Z 100231b0 f i Keylock.obj
 0001:00022250       ?_LocCPQueryInterface@?$IConnectionPointImpl@VCOPOSKeylock@@$1?IID_IPropertyNotifySink@@3U_GUID@@BVCComDynamicUnkArray@ATL@@@ATL@@UAGJABU_GUID@@PAPAX@Z 10023250 f i Keylock.obj
 0001:000222f0       ?atlCreate@?$CWindowImpl@VCOPOSKeylock@@VCWindow@ATL@@V?$CWinTraits@$0FGAAAAAA@$0A@@3@@ATL@@QAEPAUHWND__@@PAU3@V_U_RECT@2@PB_WKKV_U_MENUorID@2@PAX@Z 100232f0 f i Keylock.obj
 0001:000223a0       ?atlCreate@?$CWindowImplBaseT@VCWindow@ATL@@V?$CWinTraits@$0FGAAAAAA@$0A@@2@@ATL@@QAEPAUHWND__@@PAU3@V_U_RECT@2@PB_WKKV_U_MENUorID@2@GPAX@Z 100233a0 f i Keylock.obj
 0001:00022520       ?atlCreate@CRegKey@ATL@@QAEJPAUHKEY__@@PB_WPA_WKKPAU_SECURITY_ATTRIBUTES@@PAK@Z 10023520 f i Keylock.obj
 0001:00022680       ?begin@CComDynamicUnkArray@ATL@@QAEPAPAUIUnknown@@XZ 10023680 f i Keylock.obj
 0001:000226a0       ?copy@?$_Copy@UtagCONNECTDATA@@@ATL@@SAJPAUtagCONNECTDATA@@PBU3@@Z 100236a0 f i Keylock.obj
 0001:00022760       ?copy@?$_CopyInterface@UIConnectionPoint@@@ATL@@SAJPAPAUIConnectionPoint@@PBQAU3@@Z 10023760 f i Keylock.obj
 0001:00022820       ?destroy@?$_Copy@UtagCONNECTDATA@@@ATL@@SAXPAUtagCONNECTDATA@@@Z 10023820 f i Keylock.obj
 0001:00022860       ?destroy@?$_CopyInterface@UIConnectionPoint@@@ATL@@SAXPAPAUIConnectionPoint@@@Z 10023860 f i Keylock.obj
 0001:000228a0       ?end@CComDynamicUnkArray@ATL@@QAEPAPAUIUnknown@@XZ 100238a0 f i Keylock.obj
 0001:000228c0       ?init@?$_Copy@UtagCONNECTDATA@@@ATL@@SAXPAUtagCONNECTDATA@@@Z 100238c0 f i Keylock.obj
 0001:000228d0       ?init@?$_CopyInterface@UIConnectionPoint@@@ATL@@SAXPAPAUIConnectionPoint@@@Z 100238d0 f i Keylock.obj
 0001:000228e0       ?memcpy_s@Checked@ATL@@YAXPAXIPBXI@Z 100238e0 f i Keylock.obj
 0001:00022910       ?ocscpy_s@@YA_NPA_WIPB_W@Z 10023910 f i Keylock.obj
 0001:00022970       ?ocslen@@YAHPB_W@Z         10023970 f i Keylock.obj
 0001:000229a0       ?tcsncpy_s@Checked@ATL@@YAHPA_WIPB_WI@Z 100239a0 f i Keylock.obj
 0001:000229d0       ?wcscat_s@Checked@ATL@@YAXPA_WIPB_W@Z 100239d0 f i Keylock.obj
 0001:00022a00       ?wcscpy_s@Checked@ATL@@YAXPA_WIPB_W@Z 10023a00 f i Keylock.obj
 0001:00022a30       ?wcsncpy_s@Checked@ATL@@YAHPA_WIPB_WI@Z 10023a30 f i Keylock.obj
 0001:00022a60       ?wcsstr@@YAPA_WPA_WPB_W@Z  10023a60 f i Keylock.obj
 0001:00022a80       _InlineIsEqualGUID         10023a80 f i Keylock.obj
 0001:00022b20       _IsEqualGUID               10023b20 f i Keylock.obj
 0001:00022b70       ??0COPOSKeylock@@QAE@XZ    10023b70 f   KeylockImpl.obj
 0001:00022c80       ?FinalConstruct@COPOSKeylock@@QAEJXZ 10023c80 f   KeylockImpl.obj
 0001:00022d50       ??1COPOSKeylock@@UAE@XZ    10023d50 f   KeylockImpl.obj
 0001:00022e30       ?WriteTrace@COPOSKeylock@@QAAXPB_WZZ 10023e30 f   KeylockImpl.obj
 0001:00022ee0       ?WriteTraceString@COPOSKeylock@@QAEXPB_WPA_W@Z 10023ee0 f   KeylockImpl.obj
 0001:00023250       ?WriteTraceString@COPOSKeylock@@QAAXPAXHHHPB_WZZ 10024250 f   KeylockImpl.obj
 0001:00023480       ?WriteTraceError@COPOSKeylock@@QAEXPB_WK@Z 10024480 f   KeylockImpl.obj
 0001:00023570       ?WriteTraceMethods@COPOSKeylock@@QAEXPAJH@Z 10024570 f   KeylockImpl.obj
 0001:000235e0       ?GetOposProp@COPOSKeylock@@IAEJPBDJPAJJ@Z 100245e0 f   KeylockImpl.obj
 0001:00023850       ?SetOposProp@COPOSKeylock@@IAEJPBDJJJ@Z 10024850 f   KeylockImpl.obj
 0001:00023ae0       ?GetOposProp@COPOSKeylock@@IAEJPBDJPAFJ@Z 10024ae0 f   KeylockImpl.obj
 0001:00023b80       ?SetOposProp@COPOSKeylock@@IAEJPBDJFJ@Z 10024b80 f   KeylockImpl.obj
 0001:00023be0       ?GetOposProp@COPOSKeylock@@IAEJPBDJPAPA_WJ@Z 10024be0 f   KeylockImpl.obj
 0001:00023e60       ?SetOposProp@COPOSKeylock@@IAEJPBDJPA_WJ@Z 10024e60 f   KeylockImpl.obj
 0001:000241a0       ?DoInvoke@COPOSKeylock@@IAEJPBDJPAVOposVariant@@IHPAJ_N@Z 100251a0 f   KeylockImpl.obj
 0001:00024ad0       ?SetCOFreezeEvents@COPOSKeylock@@IAEXF@Z 10025ad0 f   KeylockImpl.obj
 0001:00024c10       ?FreezeEvents@COPOSKeylock@@MAGJH@Z 10025c10 f   KeylockImpl.obj
 0001:00024cd0       ?OnDraw@COPOSKeylock@@MAEJAAUATL_DRAWINFO@@@Z 10025cd0 f   KeylockImpl.obj
 0001:00024e70       ?SOProcessID@COPOSKeylock@@UAGJPAJ@Z 10025e70 f   KeylockImpl.obj
 0001:00024eb0       ?get_OpenResult@COPOSKeylock@@UAGJPAJ@Z 10025eb0 f   KeylockImpl.obj
 0001:00024ef0       ?get_CheckHealthText@COPOSKeylock@@UAGJPAPA_W@Z 10025ef0 f   KeylockImpl.obj
 0001:00024f20       ?get_Claimed@COPOSKeylock@@UAGJPAF@Z 10025f20 f   KeylockImpl.obj
 0001:00024f50       ?get_DeviceEnabled@COPOSKeylock@@UAGJPAF@Z 10025f50 f   KeylockImpl.obj
 0001:00024f80       ?put_DeviceEnabled@COPOSKeylock@@UAGJF@Z 10025f80 f   KeylockImpl.obj
 0001:00024fb0       ?get_FreezeEvents@COPOSKeylock@@UAGJPAF@Z 10025fb0 f   KeylockImpl.obj
 0001:00024fe0       ?put_FreezeEvents@COPOSKeylock@@UAGJF@Z 10025fe0 f   KeylockImpl.obj
 0001:00025070       ?get_ResultCode@COPOSKeylock@@UAGJPAJ@Z 10026070 f   KeylockImpl.obj
 0001:00025100       ?get_ResultCodeExtended@COPOSKeylock@@UAGJPAJ@Z 10026100 f   KeylockImpl.obj
 0001:00025130       ?get_State@COPOSKeylock@@UAGJPAJ@Z 10026130 f   KeylockImpl.obj
 0001:00025180       ?get_ControlObjectDescription@COPOSKeylock@@UAGJPAPA_W@Z 10026180 f   KeylockImpl.obj
 0001:00025200       ?get_ControlObjectVersion@COPOSKeylock@@UAGJPAJ@Z 10026200 f   KeylockImpl.obj
 0001:00025240       ?get_ServiceObjectDescription@COPOSKeylock@@UAGJPAPA_W@Z 10026240 f   KeylockImpl.obj
 0001:00025270       ?get_ServiceObjectVersion@COPOSKeylock@@UAGJPAJ@Z 10026270 f   KeylockImpl.obj
 0001:000252a0       ?get_DeviceDescription@COPOSKeylock@@UAGJPAPA_W@Z 100262a0 f   KeylockImpl.obj
 0001:000252d0       ?get_DeviceName@COPOSKeylock@@UAGJPAPA_W@Z 100262d0 f   KeylockImpl.obj
 0001:00025300       ?CheckHealth@COPOSKeylock@@UAGJJPAJ@Z 10026300 f   KeylockImpl.obj
 0001:000253a0       ?ClaimDevice@COPOSKeylock@@UAGJJPAJ@Z 100263a0 f   KeylockImpl.obj
 0001:00025480       ?Close@COPOSKeylock@@UAGJPAJ@Z 10026480 f   KeylockImpl.obj
 0001:00025550       ?DirectIO@COPOSKeylock@@UAGJJPAJPAPA_W0@Z 10026550 f   KeylockImpl.obj
 0001:00025660       ?Open@COPOSKeylock@@UAGJPA_WPAJ@Z 10026660 f   KeylockImpl.obj
 0001:00026840       ?ReleaseDevice@COPOSKeylock@@UAGJPAJ@Z 10027840 f   KeylockImpl.obj
 0001:000268a0       ?get_KeyPosition@COPOSKeylock@@UAGJPAJ@Z 100278a0 f   KeylockImpl.obj
 0001:000268d0       ?get_PositionCount@COPOSKeylock@@UAGJPAJ@Z 100278d0 f   KeylockImpl.obj
 0001:00026900       ?WaitForKeylockChange@COPOSKeylock@@UAGJJJPAJ@Z 10027900 f   KeylockImpl.obj
 0001:000269d0       ?get_BinaryConversion@COPOSKeylock@@UAGJPAJ@Z 100279d0 f   KeylockImpl.obj
 0001:00026a00       ?put_BinaryConversion@COPOSKeylock@@UAGJJ@Z 10027a00 f   KeylockImpl.obj
 0001:00026a30       ?get_CapPowerReporting@COPOSKeylock@@UAGJPAJ@Z 10027a30 f   KeylockImpl.obj
 0001:00026a60       ?get_PowerNotify@COPOSKeylock@@UAGJPAJ@Z 10027a60 f   KeylockImpl.obj
 0001:00026a90       ?put_PowerNotify@COPOSKeylock@@UAGJJ@Z 10027a90 f   KeylockImpl.obj
 0001:00026ac0       ?get_PowerState@COPOSKeylock@@UAGJPAJ@Z 10027ac0 f   KeylockImpl.obj
 0001:00026af0       ?get_CapStatisticsReporting@COPOSKeylock@@UAGJPAF@Z 10027af0 f   KeylockImpl.obj
 0001:00026b20       ?get_CapUpdateStatistics@COPOSKeylock@@UAGJPAF@Z 10027b20 f   KeylockImpl.obj
 0001:00026b50       ?ResetStatistics@COPOSKeylock@@UAGJPA_WPAJ@Z 10027b50 f   KeylockImpl.obj
 0001:00026c00       ?RetrieveStatistics@COPOSKeylock@@UAGJPAPA_WPAJ@Z 10027c00 f   KeylockImpl.obj
 0001:00026cb0       ?UpdateStatistics@COPOSKeylock@@UAGJPA_WPAJ@Z 10027cb0 f   KeylockImpl.obj
 0001:00026d60       ?get_CapCompareFirmwareVersion@COPOSKeylock@@UAGJPAF@Z 10027d60 f   KeylockImpl.obj
 0001:00026d90       ?get_CapUpdateFirmware@COPOSKeylock@@UAGJPAF@Z 10027d90 f   KeylockImpl.obj
 0001:00026dc0       ?CompareFirmwareVersion@COPOSKeylock@@UAGJPA_WPAJ1@Z 10027dc0 f   KeylockImpl.obj
 0001:00026eb0       ?UpdateFirmware@COPOSKeylock@@UAGJPA_WPAJ@Z 10027eb0 f   KeylockImpl.obj
 0001:00026f60       ?get_CapKeylockType@COPOSKeylock@@UAGJPAJ@Z 10027f60 f   KeylockImpl.obj
 0001:00026f90       ?get_ElectronicKeyValue@COPOSKeylock@@UAGJPAPA_W@Z 10027f90 f   KeylockImpl.obj
 0001:00026fc0       ??0?$CComControl@VCOPOSKeylock@@V?$CWindowImpl@VCOPOSKeylock@@VCWindow@ATL@@V?$CWinTraits@$0FGAAAAAA@$0A@@3@@ATL@@@ATL@@QAE@XZ 10027fc0 f i KeylockImpl.obj
 0001:00027000       ??0?$CComPtr@UIAdviseSink@@@ATL@@QAE@XZ 10028000 f i KeylockImpl.obj
 0001:00027030       ??0?$CComPtr@UIDataAdviseHolder@@@ATL@@QAE@XZ 10028030 f i KeylockImpl.obj
 0001:00027060       ??0?$CComPtr@UIOleAdviseHolder@@@ATL@@QAE@XZ 10028060 f i KeylockImpl.obj
 0001:00027090       ??0?$CComPtr@UIOleClientSite@@@ATL@@QAE@XZ 10028090 f i KeylockImpl.obj
 0001:000270c0       ??0?$CComPtr@UIOleInPlaceSiteWindowless@@@ATL@@QAE@XZ 100280c0 f i KeylockImpl.obj
 0001:000270f0       ??0?$CComPtrBase@UIAdviseSink@@@ATL@@IAE@XZ 100280f0 f i KeylockImpl.obj
 0001:00027110       ??0?$CComPtrBase@UIDataAdviseHolder@@@ATL@@IAE@XZ 10028110 f i KeylockImpl.obj
 0001:00027130       ??0?$CComPtrBase@UIOleAdviseHolder@@@ATL@@IAE@XZ 10028130 f i KeylockImpl.obj
 0001:00027150       ??0?$CComPtrBase@UIOleClientSite@@@ATL@@IAE@XZ 10028150 f i KeylockImpl.obj
 0001:00027170       ??0?$CComPtrBase@UIOleInPlaceSiteWindowless@@@ATL@@IAE@XZ 10028170 f i KeylockImpl.obj
 0001:00027190       ??0?$CComQIPtr@UIDispatch@@$1?_GUID_00020400_0000_0000_c000_000000000046@@3U__s_GUID@@B@ATL@@QAE@XZ 10028190 f i KeylockImpl.obj
 0001:000271c0       ??0?$CProxy_IOPOSEvents@VCOPOSKeylock@@@@QAE@PAVCOPOSKeylock@@@Z 100281c0 f i KeylockImpl.obj
 0001:00027210       ??0?$CWindowImpl@VCOPOSKeylock@@VCWindow@ATL@@V?$CWinTraits@$0FGAAAAAA@$0A@@3@@ATL@@QAE@XZ 10028210 f i KeylockImpl.obj
 0001:00027240       ??0?$CWindowImplBaseT@VCWindow@ATL@@V?$CWinTraits@$0FGAAAAAA@$0A@@2@@ATL@@QAE@XZ 10028240 f i KeylockImpl.obj
 0001:00027280       ??0?$CWindowImplRoot@VCWindow@ATL@@@ATL@@QAE@XZ 10028280 f i KeylockImpl.obj
 0001:000272e0       ??0?$IConnectionPointContainerImpl@VCOPOSKeylock@@@ATL@@QAE@XZ 100282e0 f i KeylockImpl.obj
 0001:00027310       ??0?$IConnectionPointImpl@VCOPOSKeylock@@$1?DIID__IOPOSKeylockEvents@@3U_GUID@@BVCComDynamicUnkArray@ATL@@@ATL@@QAE@XZ 10028310 f i KeylockImpl.obj
 0001:00027350       ??0?$IConnectionPointImpl@VCOPOSKeylock@@$1?IID_IPropertyNotifySink@@3U_GUID@@BVCComDynamicUnkArray@ATL@@@ATL@@QAE@XZ 10028350 f i KeylockImpl.obj
 0001:00027390       ??0?$IDataObjectImpl@VCOPOSKeylock@@@ATL@@QAE@XZ 10028390 f i KeylockImpl.obj
 0001:000273c0       ??0?$IDispatchImpl@UIOPOSKeylock@@$1?IID_IOPOSKeylock@@3U_GUID@@B$1?LIBID_OposKeylock_CCO@@3U3@B$00$0A@VCComTypeInfoHolder@ATL@@@ATL@@QAE@XZ 100283c0 f i KeylockImpl.obj
 0001:000273f0       ??0?$IObjectSafetyImpl@VCOPOSKeylock@@$02@ATL@@QAE@XZ 100283f0 f i KeylockImpl.obj
 0001:00027430       ??0?$IOleControlImpl@VCOPOSKeylock@@@ATL@@QAE@XZ 10028430 f i KeylockImpl.obj
 0001:00027460       ??0?$IOleInPlaceActiveObjectImpl@VCOPOSKeylock@@@ATL@@QAE@XZ 10028460 f i KeylockImpl.obj
 0001:00027490       ??0?$IOleInPlaceObjectWindowlessImpl@VCOPOSKeylock@@@ATL@@QAE@XZ 10028490 f i KeylockImpl.obj
 0001:000274c0       ??0?$IOleObjectImpl@VCOPOSKeylock@@@ATL@@QAE@XZ 100284c0 f i KeylockImpl.obj
 0001:000274f0       ??0?$IPersistStorageImpl@VCOPOSKeylock@@@ATL@@QAE@XZ 100284f0 f i KeylockImpl.obj
 0001:00027520       ??0?$IPersistStreamInitImpl@VCOPOSKeylock@@@ATL@@QAE@XZ 10028520 f i KeylockImpl.obj
 0001:00027550       ??0?$IPropertyNotifySinkCP@VCOPOSKeylock@@VCComDynamicUnkArray@ATL@@@ATL@@QAE@XZ 10028550 f i KeylockImpl.obj
 0001:00027580       ??0?$IProvideClassInfo2Impl@$1?CLSID_OPOSKeylock@@3U_GUID@@B$1?DIID__IOPOSKeylockEvents@@3U2@B$1?LIBID_OposKeylock_CCO@@3U2@B$00$0A@VCComTypeInfoHolder@ATL@@@ATL@@QAE@XZ 10028580 f i KeylockImpl.obj
 0001:000275b0       ??0?$IQuickActivateImpl@VCOPOSKeylock@@@ATL@@QAE@XZ 100285b0 f i KeylockImpl.obj
 0001:000275e0       ??0?$ISpecifyPropertyPagesImpl@VCOPOSKeylock@@@ATL@@QAE@XZ 100285e0 f i KeylockImpl.obj
 0001:00027610       ??0?$IViewObjectExImpl@VCOPOSKeylock@@@ATL@@QAE@XZ 10028610 f i KeylockImpl.obj
 0001:00027640       ??0?$_ICPLocator@$1?DIID__IOPOSKeylockEvents@@3U_GUID@@B@ATL@@QAE@XZ 10028640 f i KeylockImpl.obj
 0001:00027660       ??0?$_ICPLocator@$1?IID_IPropertyNotifySink@@3U_GUID@@B@ATL@@QAE@XZ 10028660 f i KeylockImpl.obj
 0001:00027680       ??0CComControlBase@ATL@@QAE@AAPAUHWND__@@@Z 10028680 f i KeylockImpl.obj
 0001:00027830       ??0CComDynamicUnkArray@ATL@@QAE@XZ 10028830 f i KeylockImpl.obj
 0001:00027860       ??0CDynamicStdCallThunk2@ATL@@QAE@XZ 10028860 f i KeylockImpl.obj
 0001:00027880       ??0CMessageMap@ATL@@QAE@XZ 10028880 f i KeylockImpl.obj
 0001:000278a0       ??0CWindow@ATL@@QAE@PAUHWND__@@@Z 100288a0 f i KeylockImpl.obj
 0001:000278c0       ??0CWndProcThunk@ATL@@QAE@XZ 100288c0 f i KeylockImpl.obj
 0001:000278f0       ??0IConnectionPointContainer@@QAE@XZ 100288f0 f i KeylockImpl.obj
 0001:00027920       ??0IDataObject@@QAE@XZ     10028920 f i KeylockImpl.obj
 0001:00027950       ??0IDispatch@@QAE@XZ       10028950 f i KeylockImpl.obj
 0001:00027980       ??0IOPOSKeylock@@QAE@XZ    10028980 f i KeylockImpl.obj
 0001:000279b0       ??0IOPOSKeylock_1_11@@QAE@XZ 100289b0 f i KeylockImpl.obj
 0001:000279e0       ??0IOPOSKeylock_1_5@@QAE@XZ 100289e0 f i KeylockImpl.obj
 0001:00027a10       ??0IOPOSKeylock_1_8@@QAE@XZ 10028a10 f i KeylockImpl.obj
 0001:00027a40       ??0IOPOSKeylock_1_9@@QAE@XZ 10028a40 f i KeylockImpl.obj
 0001:00027a70       ??0IObjectSafety@@QAE@XZ   10028a70 f i KeylockImpl.obj
 0001:00027aa0       ??0IOleControl@@QAE@XZ     10028aa0 f i KeylockImpl.obj
 0001:00027ad0       ??0IOleInPlaceActiveObject@@QAE@XZ 10028ad0 f i KeylockImpl.obj
 0001:00027b00       ??0IOleInPlaceObject@@QAE@XZ 10028b00 f i KeylockImpl.obj
 0001:00027b30       ??0IOleInPlaceObjectWindowless@@QAE@XZ 10028b30 f i KeylockImpl.obj
 0001:00027b60       ??0IOleObject@@QAE@XZ      10028b60 f i KeylockImpl.obj
 0001:00027b90       ??0IOleWindow@@QAE@XZ      10028b90 f i KeylockImpl.obj
 0001:00027bc0       ??0IPersist@@QAE@XZ        10028bc0 f i KeylockImpl.obj
 0001:00027bf0       ??0IPersistStorage@@QAE@XZ 10028bf0 f i KeylockImpl.obj
 0001:00027c20       ??0IPersistStreamInit@@QAE@XZ 10028c20 f i KeylockImpl.obj
 0001:00027c50       ??0IProvideClassInfo2@@QAE@XZ 10028c50 f i KeylockImpl.obj
 0001:00027c80       ??0IProvideClassInfo@@QAE@XZ 10028c80 f i KeylockImpl.obj
 0001:00027cb0       ??0IQuickActivate@@QAE@XZ  10028cb0 f i KeylockImpl.obj
 0001:00027ce0       ??0ISpecifyPropertyPages@@QAE@XZ 10028ce0 f i KeylockImpl.obj
 0001:00027d10       ??0IViewObject2@@QAE@XZ    10028d10 f i KeylockImpl.obj
 0001:00027d40       ??0IViewObject@@QAE@XZ     10028d40 f i KeylockImpl.obj
 0001:00027d70       ??0IViewObjectEx@@QAE@XZ   10028d70 f i KeylockImpl.obj
 0001:00027da0       ??0OposVariantResult@@QAE@XZ 10028da0 f i KeylockImpl.obj
 0001:00027dd0       ??0_CW@@QAE@PBD@Z          10028dd0 f i KeylockImpl.obj
 0001:00027e10       ??0_CW@@QAE@PB_W@Z         10028e10 f i KeylockImpl.obj
 0001:00027e50       ??0_CWNCC@@QAE@PBD@Z       10028e50 f i KeylockImpl.obj
 0001:00027e80       ??1?$CComControl@VCOPOSKeylock@@V?$CWindowImpl@VCOPOSKeylock@@VCWindow@ATL@@V?$CWinTraits@$0FGAAAAAA@$0A@@3@@ATL@@@ATL@@UAE@XZ 10028e80 f i KeylockImpl.obj
 0001:00027eb0       ??1?$CComPtr@UIDataAdviseHolder@@@ATL@@QAE@XZ 10028eb0 f i KeylockImpl.obj
 0001:00027ee0       ??1?$CComPtr@UIOleAdviseHolder@@@ATL@@QAE@XZ 10028ee0 f i KeylockImpl.obj
 0001:00027f10       ??1?$CComPtr@UIOleInPlaceSiteWindowless@@@ATL@@QAE@XZ 10028f10 f i KeylockImpl.obj
 0001:00027f40       ??1?$CComPtrBase@UIDataAdviseHolder@@@ATL@@QAE@XZ 10028f40 f i KeylockImpl.obj
 0001:00027f90       ??1?$CComPtrBase@UIOleAdviseHolder@@@ATL@@QAE@XZ 10028f90 f i KeylockImpl.obj
 0001:00027fe0       ??1?$CComPtrBase@UIOleInPlaceSiteWindowless@@@ATL@@QAE@XZ 10028fe0 f i KeylockImpl.obj
 0001:00028030       ??1?$CComQIPtr@UIDispatch@@$1?_GUID_00020400_0000_0000_c000_000000000046@@3U__s_GUID@@B@ATL@@QAE@XZ 10029030 f i KeylockImpl.obj
 0001:00028060       ??1?$CProxy_IOPOSEvents@VCOPOSKeylock@@@@QAE@XZ 10029060 f i KeylockImpl.obj
 0001:00028090       ??1?$CWindowImpl@VCOPOSKeylock@@VCWindow@ATL@@V?$CWinTraits@$0FGAAAAAA@$0A@@3@@ATL@@UAE@XZ 10029090 f i KeylockImpl.obj
 0001:000280c0       ??1?$CWindowImplBaseT@VCWindow@ATL@@V?$CWinTraits@$0FGAAAAAA@$0A@@2@@ATL@@UAE@XZ 100290c0 f i KeylockImpl.obj
 0001:000280f0       ??1?$CWindowImplRoot@VCWindow@ATL@@@ATL@@UAE@XZ 100290f0 f i KeylockImpl.obj
 0001:00028190       ??1?$IConnectionPointImpl@VCOPOSKeylock@@$1?DIID__IOPOSKeylockEvents@@3U_GUID@@BVCComDynamicUnkArray@ATL@@@ATL@@QAE@XZ 10029190 f i KeylockImpl.obj
 0001:00028210       ??1?$IConnectionPointImpl@VCOPOSKeylock@@$1?IID_IPropertyNotifySink@@3U_GUID@@BVCComDynamicUnkArray@ATL@@@ATL@@QAE@XZ 10029210 f i KeylockImpl.obj
 0001:00028290       ??1?$IPropertyNotifySinkCP@VCOPOSKeylock@@VCComDynamicUnkArray@ATL@@@ATL@@QAE@XZ 10029290 f i KeylockImpl.obj
 0001:000282c0       ??1CComControlBase@ATL@@UAE@XZ 100292c0 f i KeylockImpl.obj
 0001:00028380       ??1CComDynamicUnkArray@ATL@@QAE@XZ 10029380 f i KeylockImpl.obj
 0001:000283c0       ??1CDynamicStdCallThunk2@ATL@@QAE@XZ 100293c0 f i KeylockImpl.obj
 0001:000283f0       ??1CWndProcThunk@ATL@@QAE@XZ 100293f0 f i KeylockImpl.obj
 0001:00028420       ??1OposVariantResult@@QAE@XZ 10029420 f i KeylockImpl.obj
 0001:00028450       ??1_CW@@QAE@XZ             10029450 f i KeylockImpl.obj
 0001:000284c0       ??1_CWNCC@@QAE@XZ          100294c0 f i KeylockImpl.obj
 0001:000284f0       ??B_CW@@QAEPB_WXZ          100294f0 f i KeylockImpl.obj
 0001:00028530       ??B_CWNCC@@QAEPA_WXZ       10029530 f i KeylockImpl.obj
 0001:00028560       ??_EOposVariant@@QAEPAXI@Z 10029560 f i KeylockImpl.obj
 0001:000285f0       ?EventClose@COPOSKeylock@@IAEXXZ 100295f0 f i KeylockImpl.obj
 0001:00028690       ?EventInit@COPOSKeylock@@IAEJXZ 10029690 f i KeylockImpl.obj
 0001:000288c0       ?EventOpen@COPOSKeylock@@IAEXXZ 100298c0 f i KeylockImpl.obj
 0001:00028900       ?EventPreClose@COPOSKeylock@@IAEXXZ 10029900 f i KeylockImpl.obj
 0001:00028980       ?EventUninit@COPOSKeylock@@IAEXXZ 10029980 f i KeylockImpl.obj
 0001:00028ab0       ?EventWindowProc@COPOSKeylock@@IAGJIIJ@Z 10029ab0 f i KeylockImpl.obj
 0001:00028b90       ?FireEventCleanup@COPOSKeylock@@IAEXXZ 10029b90 f i KeylockImpl.obj
 0001:00028be0       ?FireEventSetup@COPOSKeylock@@IAE_NXZ 10029be0 f i KeylockImpl.obj
 0001:00028c50       ?GetModuleInstance@CComModule@ATL@@QAEPAUHINSTANCE__@@XZ 10029c50 f i KeylockImpl.obj
 0001:00028c70       ?SetRC@COPOSKeylock@@IAEJJ@Z 10029c70 f i KeylockImpl.obj
 0001:00028ca0       ?s_EventWindowProc@COPOSKeylock@@KGJPAUHWND__@@IIJ@Z 10029ca0 f i KeylockImpl.obj
 0001:00028d40       __snwprintf                10029d40 f i KeylockImpl.obj
 0001:00028da0       __vfwprintf_l              10029da0 f i KeylockImpl.obj
 0001:00028dd0       __vsnwprintf               10029dd0 f i KeylockImpl.obj
 0001:00028e00       __vsnwprintf_l             10029e00 f i KeylockImpl.obj
 0001:00028e70       _vfwprintf                 10029e70 f i KeylockImpl.obj
 0001:00028e92       _DebugBreak@0              10029e92 f   kernel32:KERNEL32.dll
 0001:00028e98       _Sleep@4                   10029e98 f   kernel32:KERNEL32.dll
 0001:00028e9e       _GetCurrentProcess@0       10029e9e f   kernel32:KERNEL32.dll
 0001:00028ea4       _TerminateProcess@8        10029ea4 f   kernel32:KERNEL32.dll
 0001:00028eaa       _MultiByteToWideChar@24    10029eaa f   kernel32:KERNEL32.dll
 0001:00028eb0       _WideCharToMultiByte@32    10029eb0 f   kernel32:KERNEL32.dll
 0001:00028eb6       _DecodePointer@4           10029eb6 f   kernel32:KERNEL32.dll
 0001:00028ebc       _RaiseException@16         10029ebc f   kernel32:KERNEL32.dll
 0001:00028ec2       _GetLastError@0            10029ec2 f   kernel32:KERNEL32.dll
 0001:00028ec8       _SetLastError@4            10029ec8 f   kernel32:KERNEL32.dll
 0001:00028ece       _InitializeCriticalSectionEx@12 10029ece f   kernel32:KERNEL32.dll
 0001:00028ed4       _DeleteCriticalSection@4   10029ed4 f   kernel32:KERNEL32.dll
 0001:00028eda       _EncodePointer@4           10029eda f   kernel32:KERNEL32.dll
 0001:00028ee0       _EnterCriticalSection@4    10029ee0 f   kernel32:KERNEL32.dll
 0001:00028ee6       _LeaveCriticalSection@4    10029ee6 f   kernel32:KERNEL32.dll
 0001:00028eec       _ResetEvent@4              10029eec f   kernel32:KERNEL32.dll
 0001:00028ef2       _ReleaseMutex@4            10029ef2 f   kernel32:KERNEL32.dll
 0001:00028ef8       _WaitForSingleObject@8     10029ef8 f   kernel32:KERNEL32.dll
 0001:00028efe       _GetCurrentThreadId@0      10029efe f   kernel32:KERNEL32.dll
 0001:00028f04       _DisableThreadLibraryCalls@4 10029f04 f   kernel32:KERNEL32.dll
 0001:00028f0a       _FreeLibrary@4             10029f0a f   kernel32:KERNEL32.dll
 0001:00028f10       _GetModuleFileNameW@12     10029f10 f   kernel32:KERNEL32.dll
 0001:00028f16       _GetModuleHandleW@4        10029f16 f   kernel32:KERNEL32.dll
 0001:00028f1c       _GetProcAddress@8          10029f1c f   kernel32:KERNEL32.dll
 0001:00028f22       _LoadLibraryExW@12         10029f22 f   kernel32:KERNEL32.dll
 0001:00028f28       _LoadResource@8            10029f28 f   kernel32:KERNEL32.dll
 0001:00028f2e       _SizeofResource@8          10029f2e f   kernel32:KERNEL32.dll
 0001:00028f34       _FindResourceW@12          10029f34 f   kernel32:KERNEL32.dll
 0001:00028f3a       _GlobalAlloc@8             10029f3a f   kernel32:KERNEL32.dll
 0001:00028f40       _GlobalUnlock@4            10029f40 f   kernel32:KERNEL32.dll
 0001:00028f46       _GlobalLock@4              10029f46 f   kernel32:KERNEL32.dll
 0001:00028f4c       _MulDiv@12                 10029f4c f   kernel32:KERNEL32.dll
 0001:00028f52       _lstrcmpiW@8               10029f52 f   kernel32:KERNEL32.dll
 0001:00028f58       _DeleteFileW@4             10029f58 f   kernel32:KERNEL32.dll
 0001:00028f5e       _CloseHandle@4             10029f5e f   kernel32:KERNEL32.dll
 0001:00028f64       _SetEvent@4                10029f64 f   kernel32:KERNEL32.dll
 0001:00028f6a       _CreateMutexW@12           10029f6a f   kernel32:KERNEL32.dll
 0001:00028f70       _CreateEventW@16           10029f70 f   kernel32:KERNEL32.dll
 0001:00028f76       _GetCurrentProcessId@0     10029f76 f   kernel32:KERNEL32.dll
 0001:00028f7c       _LocalFree@4               10029f7c f   kernel32:KERNEL32.dll
 0001:00028f82       _FormatMessageW@28         10029f82 f   kernel32:KERNEL32.dll
 0001:00028f88       _GetActiveWindow@0         10029f88 f   user32:USER32.dll
 0001:00028f8e       _MessageBoxW@16            10029f8e f   user32:USER32.dll
 0001:00028f94       _UnregisterClassW@8        10029f94 f   user32:USER32.dll
 0001:00028f9a       _PostMessageW@16           10029f9a f   user32:USER32.dll
 0001:00028fa0       _DefWindowProcW@16         10029fa0 f   user32:USER32.dll
 0001:00028fa6       _CallWindowProcW@20        10029fa6 f   user32:USER32.dll
 0001:00028fac       _RegisterClassExW@4        10029fac f   user32:USER32.dll
 0001:00028fb2       _GetClassInfoExW@12        10029fb2 f   user32:USER32.dll
 0001:00028fb8       _CreateWindowExW@48        10029fb8 f   user32:USER32.dll
 0001:00028fbe       _IsWindow@4                10029fbe f   user32:USER32.dll
 0001:00028fc4       _IsChild@8                 10029fc4 f   user32:USER32.dll
 0001:00028fca       _DestroyWindow@4           10029fca f   user32:USER32.dll
 0001:00028fd0       _ShowWindow@8              10029fd0 f   user32:USER32.dll
 0001:00028fd6       _SetWindowPos@28           10029fd6 f   user32:USER32.dll
 0001:00028fdc       _CharNextW@4               10029fdc f   user32:USER32.dll
 0001:00028fe2       _SetFocus@4                10029fe2 f   user32:USER32.dll
 0001:00028fe8       _GetFocus@0                10029fe8 f   user32:USER32.dll
 0001:00028fee       _GetKeyState@4             10029fee f   user32:USER32.dll
 0001:00028ff4       _GetDC@4                   10029ff4 f   user32:USER32.dll
 0001:00028ffa       _ReleaseDC@8               10029ffa f   user32:USER32.dll
 0001:00029000       _BeginPaint@8              1002a000 f   user32:USER32.dll
 0001:00029006       _EndPaint@8                1002a006 f   user32:USER32.dll
 0001:0002900c       _SetWindowRgn@12           1002a00c f   user32:USER32.dll
 0001:00029012       _InvalidateRect@12         1002a012 f   user32:USER32.dll
 0001:00029018       _GetClientRect@8           1002a018 f   user32:USER32.dll
 0001:0002901e       _IntersectRect@12          1002a01e f   user32:USER32.dll
 0001:00029024       _UnionRect@12              1002a024 f   user32:USER32.dll
 0001:0002902a       _OffsetRect@12             1002a02a f   user32:USER32.dll
 0001:00029030       _EqualRect@8               1002a030 f   user32:USER32.dll
 0001:00029036       _PtInRect@12               1002a036 f   user32:USER32.dll
 0001:0002903c       _GetWindowLongW@8          1002a03c f   user32:USER32.dll
 0001:00029042       _SetWindowLongW@12         1002a042 f   user32:USER32.dll
 0001:00029048       _GetParent@4               1002a048 f   user32:USER32.dll
 0001:0002904e       _LoadCursorW@8             1002a04e f   user32:USER32.dll
 0001:00029054       _PeekMessageW@20           1002a054 f   user32:USER32.dll
 0001:0002905a       _RegisterClassW@4          1002a05a f   user32:USER32.dll
 0001:00029060       _LoadBitmapW@8             1002a060 f   user32:USER32.dll
 0001:00029066       _CloseMetaFile@4           1002a066 f   gdi32:GDI32.dll
 0001:0002906c       _CreateDCW@16              1002a06c f   gdi32:GDI32.dll
 0001:00029072       _CreateMetaFileW@4         1002a072 f   gdi32:GDI32.dll
 0001:00029078       _CreateRectRgnIndirect@4   1002a078 f   gdi32:GDI32.dll
 0001:0002907e       _DeleteDC@4                1002a07e f   gdi32:GDI32.dll
 0001:00029084       _DeleteMetaFile@4          1002a084 f   gdi32:GDI32.dll
 0001:0002908a       _GetDeviceCaps@8           1002a08a f   gdi32:GDI32.dll
 0001:00029090       _RestoreDC@8               1002a090 f   gdi32:GDI32.dll
 0001:00029096       _SaveDC@4                  1002a096 f   gdi32:GDI32.dll
 0001:0002909c       _SetMapMode@8              1002a09c f   gdi32:GDI32.dll
 0001:000290a2       _LPtoDP@12                 1002a0a2 f   gdi32:GDI32.dll
 0001:000290a8       _SetViewportOrgEx@16       1002a0a8 f   gdi32:GDI32.dll
 0001:000290ae       _SetWindowExtEx@16         1002a0ae f   gdi32:GDI32.dll
 0001:000290b4       _SetWindowOrgEx@16         1002a0b4 f   gdi32:GDI32.dll
 0001:000290ba       _BitBlt@36                 1002a0ba f   gdi32:GDI32.dll
 0001:000290c0       _CreateCompatibleDC@4      1002a0c0 f   gdi32:GDI32.dll
 0001:000290c6       _DeleteObject@4            1002a0c6 f   gdi32:GDI32.dll
 0001:000290cc       _SelectObject@8            1002a0cc f   gdi32:GDI32.dll
 0001:000290d2       _GetObjectW@12             1002a0d2 f   gdi32:GDI32.dll
 0001:000290d8       _RegCloseKey@4             1002a0d8 f   advapi32:ADVAPI32.dll
 0001:000290de       _RegCreateKeyExW@36        1002a0de f   advapi32:ADVAPI32.dll
 0001:000290e4       _RegDeleteKeyW@8           1002a0e4 f   advapi32:ADVAPI32.dll
 0001:000290ea       _RegDeleteValueW@8         1002a0ea f   advapi32:ADVAPI32.dll
 0001:000290f0       _RegEnumKeyExW@32          1002a0f0 f   advapi32:ADVAPI32.dll
 0001:000290f6       _RegOpenKeyExW@20          1002a0f6 f   advapi32:ADVAPI32.dll
 0001:000290fc       _RegQueryInfoKeyW@48       1002a0fc f   advapi32:ADVAPI32.dll
 0001:00029102       _RegSetValueExW@24         1002a102 f   advapi32:ADVAPI32.dll
 0001:00029108       _RegQueryValueExW@24       1002a108 f   advapi32:ADVAPI32.dll
 0001:0002910e       _CoCreateInstance@20       1002a10e f   ole32:ole32.dll
 0001:00029114       _StringFromGUID2@12        1002a114 f   ole32:ole32.dll
 0001:0002911a       _CoTaskMemAlloc@4          1002a11a f   ole32:ole32.dll
 0001:00029120       _CoTaskMemRealloc@8        1002a120 f   ole32:ole32.dll
 0001:00029126       _CoTaskMemFree@4           1002a126 f   ole32:ole32.dll
 0001:0002912c       _ReadClassStm@8            1002a12c f   ole32:ole32.dll
 0001:00029132       _WriteClassStm@8           1002a132 f   ole32:ole32.dll
 0001:00029138       _CreateDataAdviseHolder@4  1002a138 f   ole32:ole32.dll
 0001:0002913e       _OleSaveToStream@8         1002a13e f   ole32:ole32.dll
 0001:00029144       _CreateOleAdviseHolder@4   1002a144 f   ole32:ole32.dll
 0001:0002914a       _OleRegGetUserType@12      1002a14a f   ole32:ole32.dll
 0001:00029150       _OleRegGetMiscStatus@12    1002a150 f   ole32:ole32.dll
 0001:00029156       _OleRegEnumVerbs@8         1002a156 f   ole32:ole32.dll
 0001:0002915c       _CLSIDFromProgID@8         1002a15c f   ole32:ole32.dll
 0001:00029162       _SysAllocString@4          1002a162 f   oleaut32:OLEAUT32.dll
 0001:00029168       _SysAllocStringLen@8       1002a168 f   oleaut32:OLEAUT32.dll
 0001:0002916e       _SysFreeString@4           1002a16e f   oleaut32:OLEAUT32.dll
 0001:00029174       _SysStringLen@4            1002a174 f   oleaut32:OLEAUT32.dll
 0001:0002917a       _VariantClear@4            1002a17a f   oleaut32:OLEAUT32.dll
 0001:00029180       _VariantCopyInd@8          1002a180 f   oleaut32:OLEAUT32.dll
 0001:00029186       _VariantChangeType@16      1002a186 f   oleaut32:OLEAUT32.dll
 0001:0002918c       _SysStringByteLen@4        1002a18c f   oleaut32:OLEAUT32.dll
 0001:00029192       _SysAllocStringByteLen@8   1002a192 f   oleaut32:OLEAUT32.dll
 0001:00029198       _VariantInit@4             1002a198 f   oleaut32:OLEAUT32.dll
 0001:0002919e       _VarUI4FromStr@16          1002a19e f   oleaut32:OLEAUT32.dll
 0001:000291a4       _LoadTypeLib@8             1002a1a4 f   oleaut32:OLEAUT32.dll
 0001:000291aa       _LoadRegTypeLib@20         1002a1aa f   oleaut32:OLEAUT32.dll
 0001:000291b0       _RegisterTypeLib@12        1002a1b0 f   oleaut32:OLEAUT32.dll
 0001:000291b6       _UnRegisterTypeLib@20      1002a1b6 f   oleaut32:OLEAUT32.dll
 0001:000291bc       _OleCreatePropertyFrame@44 1002a1bc f   oleaut32:OLEAUT32.dll
 0001:000291d0       @_RTC_AllocaHelper@12      1002a1d0 f   LIBCMTD:stack.obj
 0001:00029210       @_RTC_CheckStackVars2@12   1002a210 f   LIBCMTD:stack.obj
 0001:000292f0       @_RTC_CheckStackVars@8     1002a2f0 f   LIBCMTD:stack.obj
 0001:00029350       __RTC_CheckEsp             1002a350 f   LIBCMTD:stack.obj
 0001:00029390       @__security_check_cookie@4 1002a390 f   LIBCMTD:secchk.obj
 0001:000293b0       __CRT_RTC_INIT             1002a3b0 f   LIBCMTD:init.obj
 0001:000293c0       __CRT_RTC_INITW            1002a3c0 f   LIBCMTD:init.obj
 0001:000293d0       __RTC_InitBase             1002a3d0 f   LIBCMTD:init.obj
 0001:00029400       __RTC_Shutdown             1002a400 f   LIBCMTD:init.obj
 0001:00029420       ??_U@YAPAXI@Z              1002a420 f   LIBCMTD:new_array.obj
 0001:00029440       ??3@YAXPAXI@Z              1002a440 f   LIBCMTD:delete_scalar_size.obj
 0001:00029460       ??_V@YAXPAX@Z              1002a460 f   LIBCMTD:delete_array.obj
 0001:00029480       ??_V@YAXPAXI@Z             1002a480 f   LIBCMTD:delete_array_size.obj
 0001:000294a0       ?configure_argv@__scrt_narrow_argv_policy@@SAHXZ 1002a4a0 f i LIBCMTD:utility.obj
 0001:00029550       ?initialize_environment@__scrt_narrow_environment_policy@@SAHXZ 1002a550 f i LIBCMTD:utility.obj
 0001:000295d0       _NtCurrentTeb              1002a5d0 f i LIBCMTD:utility.obj
 0001:000295e0       ___scrt_acquire_startup_lock 1002a5e0 f   LIBCMTD:utility.obj
 0001:00029630       ___scrt_dllmain_after_initialize_c 1002a630 f   LIBCMTD:utility.obj
 0001:00029660       ___scrt_dllmain_before_initialize_c 1002a660 f   LIBCMTD:utility.obj
 0001:00029680       ___scrt_dllmain_crt_thread_attach 1002a680 f   LIBCMTD:utility.obj
 0001:000296b0       ___scrt_dllmain_crt_thread_detach 1002a6b0 f   LIBCMTD:utility.obj
 0001:000296d0       ___scrt_dllmain_exception_filter 1002a6d0 f   LIBCMTD:utility.obj
 0001:00029720       ___scrt_dllmain_uninitialize_c 1002a720 f   LIBCMTD:utility.obj
 0001:00029750       ___scrt_dllmain_uninitialize_critical 1002a750 f   LIBCMTD:utility.obj
 0001:00029770       ___scrt_initialize_crt     1002a770 f   LIBCMTD:utility.obj
 0001:000297c0       ___scrt_initialize_onexit_tables 1002a7c0 f   LIBCMTD:utility.obj
 0001:000298a0       ___scrt_is_nonwritable_in_current_image 1002a8a0 f   LIBCMTD:utility.obj
 0001:000299d0       ___scrt_release_startup_lock 1002a9d0 f   LIBCMTD:utility.obj
 0001:00029a00       ___scrt_uninitialize_crt   1002aa00 f   LIBCMTD:utility.obj
 0001:00029a40       __onexit                   1002aa40 f   LIBCMTD:utility.obj
 0001:00029ab0       _at_quick_exit             1002aab0 f   LIBCMTD:utility.obj
 0001:00029af0       _atexit                    1002aaf0 f   LIBCMTD:utility.obj
 0001:00029b20       ??3@YAXPAX@Z               1002ab20 f   LIBCMTD:delete_scalar.obj
 0001:00029b40       ___raise_securityfailure   1002ab40 f   LIBCMTD:gs_report.obj
 0001:00029b70       ___report_gsfailure        1002ab70 f   LIBCMTD:gs_report.obj
 0001:00029c80       ___report_rangecheckfailure 1002ac80 f   LIBCMTD:gs_report.obj
 0001:00029c90       ___report_securityfailure  1002ac90 f   LIBCMTD:gs_report.obj
 0001:00029d70       ___report_securityfailureEx 1002ad70 f   LIBCMTD:gs_report.obj
 0001:00029fc0       __Init_thread_abort        1002afc0 f   LIBCMTD:thread_safe_statics.obj
 0001:00029fe0       __Init_thread_footer       1002afe0 f   LIBCMTD:thread_safe_statics.obj
 0001:0002a030       __Init_thread_header       1002b030 f   LIBCMTD:thread_safe_statics.obj
 0001:0002a0a0       __Init_thread_lock         1002b0a0 f   LIBCMTD:thread_safe_statics.obj
 0001:0002a0b0       __Init_thread_notify       1002b0b0 f   LIBCMTD:thread_safe_statics.obj
 0001:0002a100       __Init_thread_unlock       1002b100 f   LIBCMTD:thread_safe_statics.obj
 0001:0002a110       __Init_thread_wait         1002b110 f   LIBCMTD:thread_safe_statics.obj
 0001:0002a1a0       ??2@YAPAXIABUnothrow_t@std@@@Z 1002b1a0 f   LIBCMTD:new_scalar_nothrow.obj
 0001:0002a220       ??_U@YAPAXIABUnothrow_t@std@@@Z 1002b220 f   LIBCMTD:new_array_nothrow.obj
 0001:0002a240       __allmul                   1002b240 f   LIBCMTD:llmul.obj
 0001:0002a280       __alloca_probe_16          1002b280 f   LIBCMTD:alloca16.obj
 0001:0002a296       __alloca_probe_8           1002b296     LIBCMTD:alloca16.obj
 0001:0002a2b0       __chkstk                   1002b2b0 f   LIBCMTD:chkstk.obj
 0001:0002a2b0       __alloca_probe             1002b2b0 f   LIBCMTD:chkstk.obj
 0001:0002a7b0       __CRT_INIT@12              1002b7b0 f   LIBCMTD:dll_dllmain.obj
 0001:0002a7d0       __DllMainCRTStartup@12     1002b7d0 f   LIBCMTD:dll_dllmain.obj
 0001:0002a890       ?_RTC_AllocaFailure@@YAXPAXPAU_RTC_ALLOCA_NODE@@H@Z 1002b890 f   LIBCMTD:error.obj
 0001:0002a980       ?_RTC_Failure@@YAXPAXH@Z   1002b980 f   LIBCMTD:error.obj
 0001:0002a9d0       ?_RTC_StackFailure@@YAXPAXPBD@Z 1002b9d0 f   LIBCMTD:error.obj
 0001:0002ad90       __RTC_UninitUse            1002bd90 f   LIBCMTD:error.obj
 0001:0002ae40       __vsprintf_s_l             1002be40 f i LIBCMTD:error.obj
 0001:0002ae70       _sprintf_s                 1002be70 f i LIBCMTD:error.obj
 0001:0002ae90       ?_RTC_GetErrorFunc@@YAP6AHHPBDH00ZZPBX@Z 1002be90 f   LIBCMTD:userapi.obj
 0001:0002aea0       ?_RTC_GetErrorFuncW@@YAP6AHHPB_WH00ZZPBX@Z 1002bea0 f   LIBCMTD:userapi.obj
 0001:0002aeb0       __RTC_GetErrDesc           1002beb0 f   LIBCMTD:userapi.obj
 0001:0002aed0       __RTC_NumErrors            1002bed0 f   LIBCMTD:userapi.obj
 0001:0002aee0       __RTC_SetErrorFunc         1002bee0 f   LIBCMTD:userapi.obj
 0001:0002af00       __RTC_SetErrorFuncW        1002bf00 f   LIBCMTD:userapi.obj
 0001:0002af20       __RTC_SetErrorType         1002bf20 f   LIBCMTD:userapi.obj
 0001:0002af50       ??2@YAPAXI@Z               1002bf50 f   LIBCMTD:new_scalar.obj
 0001:0002afa0       ___isa_available_init      1002bfa0 f   LIBCMTD:cpu_disp.obj
 0001:0002b2e0       __get_startup_argv_mode    1002c2e0 f   LIBCMTD:argv_mode.obj
 0001:0002b2f0       ___scrt_is_ucrt_dll_in_use 1002c2f0 f   LIBCMTD:ucrt_detection.obj
 0001:0002b320       ___scrt_fastfail           1002c320 f   LIBCMTD:utility_desktop.obj
 0001:0002b460       ___scrt_get_show_window_mode 1002c460 f   LIBCMTD:utility_desktop.obj
 0001:0002b4a0       ___scrt_initialize_mta     1002c4a0 f   LIBCMTD:utility_desktop.obj
 0001:0002b4b0       ___scrt_initialize_winrt   1002c4b0 f   LIBCMTD:utility_desktop.obj
 0001:0002b4c0       ___scrt_is_managed_app     1002c4c0 f   LIBCMTD:utility_desktop.obj
 0001:0002b550       ___scrt_set_unhandled_exception_filter 1002c550 f   LIBCMTD:utility_desktop.obj
 0001:0002b560       ___scrt_exe_initialize_mta 1002c560 f   LIBCMTD:utility_desktop.obj
 0001:0002b560       ___scrt_stub_for_initialize_mta 1002c560 f   LIBCMTD:utility_desktop.obj
 0001:0002b570       ___scrt_unhandled_exception_filter@4 1002c570 f   LIBCMTD:utility_desktop.obj
 0001:0002b5f0       __crt_debugger_hook        1002c5f0 f   LIBCMTD:utility_desktop.obj
 0001:0002b600       @_guard_check_icall_nop@4  1002c600 f i LIBCMTD:guard_support.obj
 0001:0002b610       _ReadNoFence               1002c610 f i LIBCMTD:guard_support.obj
 0001:0002b630       _ReadPointerNoFence        1002c630 f i LIBCMTD:guard_support.obj
 0001:0002b650       __guard_icall_checks_enforced 1002c650 f i LIBCMTD:guard_support.obj
 0001:0002b6f0       ___security_init_cookie    1002c6f0 f   LIBCMTD:gs_support.obj
 0001:0002b770       ?__scrt_initialize_type_info@@YAXXZ 1002c770 f   LIBCMTD:tncleanup.obj
 0001:0002b780       ?__scrt_uninitialize_type_info@@YAXXZ 1002c780 f   LIBCMTD:tncleanup.obj
 0001:0002b7a0       ___local_stdio_scanf_options 1002c7a0 f i LIBCMTD:default_local_stdio_options.obj
 0001:0002b7b0       ___scrt_initialize_default_local_stdio_options 1002c7b0 f   LIBCMTD:default_local_stdio_options.obj
 0001:0002b7f0       ___scrt_get_dyn_tls_init_callback 1002c7f0 f   LIBCMTD:dyn_tls_init.obj
 0001:0002b800       __RTC_Initialize           1002c800 f   LIBCMTD:initsect.obj
 0001:0002b830       __RTC_Terminate            1002c830 f   LIBCMTD:initsect.obj
 0001:0002bce0       ?_RTC_GetSrcLine@@YAHPAEPA_WKPAH1K@Z 1002cce0 f   LIBCMTD:pdblkup.obj
 0001:0002c060       __except_handler4_noexcept 1002d060 f   LIBCMTD:chandler4_noexcept.obj
 0001:0002c0c0       ??0bad_alloc@std@@AAE@QBD@Z 1002d0c0 f i LIBCMTD:throw_bad_alloc.obj
 0001:0002c0f0       ??0bad_alloc@std@@QAE@ABV01@@Z 1002d0f0 f i LIBCMTD:throw_bad_alloc.obj
 0001:0002c120       ??0bad_alloc@std@@QAE@XZ   1002d120 f i LIBCMTD:throw_bad_alloc.obj
 0001:0002c150       ??0bad_array_new_length@std@@QAE@ABV01@@Z 1002d150 f i LIBCMTD:throw_bad_alloc.obj
 0001:0002c180       ??0bad_array_new_length@std@@QAE@XZ 1002d180 f i LIBCMTD:throw_bad_alloc.obj
 0001:0002c1b0       ??0exception@std@@QAE@ABV01@@Z 1002d1b0 f i LIBCMTD:throw_bad_alloc.obj
 0001:0002c1f0       ??0exception@std@@QAE@QBDH@Z 1002d1f0 f i LIBCMTD:throw_bad_alloc.obj
 0001:0002c220       ??1bad_alloc@std@@UAE@XZ   1002d220 f i LIBCMTD:throw_bad_alloc.obj
 0001:0002c240       ??1bad_array_new_length@std@@UAE@XZ 1002d240 f i LIBCMTD:throw_bad_alloc.obj
 0001:0002c260       ??1exception@std@@UAE@XZ   1002d260 f i LIBCMTD:throw_bad_alloc.obj
 0001:0002c290       ??_Gbad_alloc@std@@UAEPAXI@Z 1002d290 f i LIBCMTD:throw_bad_alloc.obj
 0001:0002c290       ??_Ebad_alloc@std@@UAEPAXI@Z 1002d290 f i LIBCMTD:throw_bad_alloc.obj
 0001:0002c2c0       ??_Ebad_array_new_length@std@@UAEPAXI@Z 1002d2c0 f i LIBCMTD:throw_bad_alloc.obj
 0001:0002c2c0       ??_Gbad_array_new_length@std@@UAEPAXI@Z 1002d2c0 f i LIBCMTD:throw_bad_alloc.obj
 0001:0002c2f0       ??_Gexception@std@@UAEPAXI@Z 1002d2f0 f i LIBCMTD:throw_bad_alloc.obj
 0001:0002c2f0       ??_Eexception@std@@UAEPAXI@Z 1002d2f0 f i LIBCMTD:throw_bad_alloc.obj
 0001:0002c320       ?__scrt_throw_std_bad_alloc@@YAXXZ 1002d320 f   LIBCMTD:throw_bad_alloc.obj
 0001:0002c340       ?__scrt_throw_std_bad_array_new_length@@YAXXZ 1002d340 f   LIBCMTD:throw_bad_alloc.obj
 0001:0002c360       ?what@exception@std@@UBEPBDXZ 1002d360 f i LIBCMTD:throw_bad_alloc.obj
 0001:0002c390       ??1type_info@@UAE@XZ       1002d390 f   LIBCMTD:std_type_info_static.obj
 0001:0002c3b0       ??_Gtype_info@@UAEPAXI@Z   1002d3b0 f i LIBCMTD:std_type_info_static.obj
 0001:0002c3b0       ??_Etype_info@@UAEPAXI@Z   1002d3b0 f i LIBCMTD:std_type_info_static.obj
 0001:0002c3de       ??$?2PAUHINSTANCE__@@@Wrapper@?$CSimpleArray@PAUHINSTANCE__@@V?$CSimpleArrayEqualHelper@PAUHINSTANCE__@@@ATL@@@ATL@@SAPAXIPAPAUHINSTANCE__@@@Z 1002d3de f i atls:atlbase.obj
 0001:0002c3e6       ??0?$CSimpleArray@PAUHINSTANCE__@@V?$CSimpleArrayEqualHelper@PAUHINSTANCE__@@@ATL@@@ATL@@QAE@XZ 1002d3e6 f i atls:atlbase.obj
 0001:0002c3f3       ??0CAtlBaseModule@ATL@@QAE@XZ 1002d3f3 f   atls:atlbase.obj
 0001:0002c446       ??0Wrapper@?$CSimpleArray@PAUHINSTANCE__@@V?$CSimpleArrayEqualHelper@PAUHINSTANCE__@@@ATL@@@ATL@@QAE@ABQAUHINSTANCE__@@@Z 1002d446 f i atls:atlbase.obj
 0001:0002c456       ??0_ATL_BASE_MODULE70@ATL@@QAE@XZ 1002d456 f i atls:atlbase.obj
 0001:0002c479       ??1?$CSimpleArray@PAUHINSTANCE__@@V?$CSimpleArrayEqualHelper@PAUHINSTANCE__@@@ATL@@@ATL@@QAE@XZ 1002d479 f i atls:atlbase.obj
 0001:0002c47e       ??1CAtlBaseModule@ATL@@QAE@XZ 1002d47e f   atls:atlbase.obj
 0001:0002c494       ??1_ATL_BASE_MODULE70@ATL@@QAE@XZ 1002d494 f i atls:atlbase.obj
 0001:0002c49c       ??A?$CSimpleArray@PAUHINSTANCE__@@V?$CSimpleArrayEqualHelper@PAUHINSTANCE__@@@ATL@@@ATL@@QAEAAPAUHINSTANCE__@@H@Z 1002d49c f i atls:atlbase.obj
 0001:0002c4c1       ?Add@?$CSimpleArray@PAUHINSTANCE__@@V?$CSimpleArrayEqualHelper@PAUHINSTANCE__@@@ATL@@@ATL@@QAEHABQAUHINSTANCE__@@@Z 1002d4c1 f i atls:atlbase.obj
 0001:0002c543       ?AddResourceInstance@CAtlBaseModule@ATL@@QAE_NPAUHINSTANCE__@@@Z 1002d543 f   atls:atlbase.obj
 0001:0002c576       ?GetHInstanceAt@CAtlBaseModule@ATL@@QAEPAUHINSTANCE__@@H@Z 1002d576 f   atls:atlbase.obj
 0001:0002c5bb       ?GetSize@?$CSimpleArray@PAUHINSTANCE__@@V?$CSimpleArrayEqualHelper@PAUHINSTANCE__@@@ATL@@@ATL@@QBEHXZ 1002d5bb f i atls:atlbase.obj
 0001:0002c5bf       ?InternalSetAtIndex@?$CSimpleArray@PAUHINSTANCE__@@V?$CSimpleArrayEqualHelper@PAUHINSTANCE__@@@ATL@@@ATL@@QAEXHABQAUHINSTANCE__@@@Z 1002d5bf f i atls:atlbase.obj
 0001:0002c5d9       ?RemoveAll@?$CSimpleArray@PAUHINSTANCE__@@V?$CSimpleArrayEqualHelper@PAUHINSTANCE__@@@ATL@@@ATL@@QAEXXZ 1002d5d9 f i atls:atlbase.obj
 0001:0002c5f6       ?RemoveAt@?$CSimpleArray@PAUHINSTANCE__@@V?$CSimpleArrayEqualHelper@PAUHINSTANCE__@@@ATL@@@ATL@@QAEHH@Z 1002d5f6 f i atls:atlbase.obj
 0001:0002c644       ?RemoveResourceInstance@CAtlBaseModule@ATL@@QAE_NPAUHINSTANCE__@@@Z 1002d644 f   atls:atlbase.obj
 0001:0002c6a1       ?memmove_s@Checked@ATL@@YAXPAXIPBXI@Z 1002d6a1 f i atls:atlbase.obj
 0001:0002c9fe       ?GetCodeAddress@_stdcallthunk@ATL@@QAEPAXXZ 1002d9fe f i atls:atlthunk.obj
 0001:0002ca28       ?Init@_stdcallthunk@ATL@@QAEHKPAX@Z 1002da28 f i atls:atlthunk.obj
 0001:0002ca5d       ?__AllocStdCallThunk@@YGPAXXZ 1002da5d f   atls:atlthunk.obj
 0001:0002ca62       ?__AllocStdCallThunk@ATL@@YGPAXXZ 1002da62 f   atls:atlthunk.obj
 0001:0002ca67       ?__AllocStdCallThunk_cmn@@YAPAXXZ 1002da67 f   atls:atlthunk.obj
 0001:0002cb2d       ?__FreeStdCallThunk@@YGXPAX@Z 1002db2d f   atls:atlthunk.obj
 0001:0002cb3d       ?__FreeStdCallThunk@ATL@@YGXPAX@Z 1002db3d f   atls:atlthunk.obj
 0001:0002cb4d       ?__FreeStdCallThunk_cmn@@YAXPAX@Z 1002db4d f   atls:atlthunk.obj
 0001:0002cbe8       _AtlThunk_AllocateData@0   1002dbe8 f   atls:atlthunk.obj
 0001:0002cc4d       _AtlThunk_DataToCode@4     1002dc4d f   atls:atlthunk.obj
 0001:0002cc94       _AtlThunk_FreeData@4       1002dc94 f   atls:atlthunk.obj
 0001:0002ccea       _AtlThunk_InitData@12      1002dcea f   atls:atlthunk.obj
 0001:0002cd39       _MemoryBarrier             1002dd39 f i atls:atlthunk.obj
 0001:0002cd47       __InlineInterlockedCompareExchangePointer 1002dd47 f i atls:atlthunk.obj
 0001:0002cd60       _memset                    1002dd60 f   libvcruntimed:memset.obj
 0001:0002cec0       ??$__crt_interlocked_exchange_pointer@$$A6AXXZP6AXXZ@@YAP6AXXZPDS6AXXZQ6AXXZ@Z 1002dec0 f i libvcruntimed:purevirt.obj
 0001:0002ced0       ??$__crt_interlocked_read_pointer@$$A6AXXZ@@YAP6AXXZPDS6AXXZ@Z 1002ded0 f i libvcruntimed:purevirt.obj
 0001:0002cef0       ?__crt_interlocked_read_32@@YAHPDH@Z 1002def0 f i libvcruntimed:purevirt.obj
 0001:0002cf10       __get_purecall_handler     1002df10 f   libvcruntimed:purevirt.obj
 0001:0002cf30       __purecall                 1002df30 f   libvcruntimed:purevirt.obj
 0001:0002cf60       __set_purecall_handler     1002df60 f   libvcruntimed:purevirt.obj
 0001:0002d130       _memcmp                    1002e130 f   libvcruntimed:memcmp.obj
 0001:0002da00       _memcpy                    1002ea00 f   libvcruntimed:memcpy.obj
 0001:0002df80       _wcsstr                    1002ef80 f   libvcruntimed:wcsstr.obj
 0001:0002e4b0       __except_handler4          1002f4b0 f   libvcruntimed:chandler4.obj
 0001:0002e6a0       ___vcrt_initialize         1002f6a0 f   libvcruntimed:initialization.obj
 0001:0002e6e0       ___vcrt_thread_attach      1002f6e0 f   libvcruntimed:initialization.obj
 0001:0002e700       ___vcrt_thread_detach      1002f700 f   libvcruntimed:initialization.obj
 0001:0002e720       ___vcrt_uninitialize       1002f720 f   libvcruntimed:initialization.obj
 0001:0002e740       ___vcrt_uninitialize_critical 1002f740 f   libvcruntimed:initialization.obj
 0001:0002e760       ??$?0AAViterator@TryBlockMap@__FrameHandler3@@AAV012@$0A@@?$pair@Viterator@TryBlockMap@__FrameHandler3@@V123@@std@@QAE@AAViterator@TryBlockMap@__FrameHandler3@@0@Z 1002f760 f i libvcruntimed:trnsctrl.obj
 0001:0002e7b0       ??$forward@AAViterator@TryBlockMap@__FrameHandler3@@@std@@YAAAViterator@TryBlockMap@__FrameHandler3@@AAV123@@Z 1002f7b0 f i libvcruntimed:trnsctrl.obj
 0001:0002e7c0       ??0iterator@TryBlockMap@__FrameHandler3@@QAE@AAV12@I@Z 1002f7c0 f i libvcruntimed:trnsctrl.obj
 0001:0002e7f0       ?GetRangeOfTrysToCheck@__FrameHandler3@@SA?AU?$pair@Viterator@TryBlockMap@__FrameHandler3@@V123@@std@@AAVTryBlockMap@1@HPAXPBU_s_FuncInfo@@H@Z 1002f7f0 f   libvcruntimed:trnsctrl.obj
 0001:0002e8d0       ?_CallCatchBlock2@@YAPAXPAUEHRegistrationNode@@PBU_s_FuncInfo@@PAXHK@Z 1002f8d0 f   libvcruntimed:trnsctrl.obj
 0001:0002e940       ?_CallSETranslator@@YAHPAUEHExceptionRecord@@PAUEHRegistrationNode@@PAX2PBU_s_FuncInfo@@H1@Z 1002f940 f   libvcruntimed:trnsctrl.obj
 0001:0002ea40       ?_JumpToContinuation@@YGXPAXPAUEHRegistrationNode@@@Z 1002fa40 f   libvcruntimed:trnsctrl.obj
 0001:0002ea80       ?_UnwindNestedFrames@@YGXPAUEHRegistrationNode@@PAUEHExceptionRecord@@@Z 1002fa80 f   libvcruntimed:trnsctrl.obj
 0001:0002eae0       __CatchGuardHandler        1002fae0 f   libvcruntimed:trnsctrl.obj
 0001:0002eb30       __CreateFrameInfo          1002fb30 f   libvcruntimed:trnsctrl.obj
 0001:0002eb60       __FindAndUnlinkFrame       1002fb60 f   libvcruntimed:trnsctrl.obj
 0001:0002ebd0       __TranslatorGuardHandler   1002fbd0 f   libvcruntimed:trnsctrl.obj
 0001:0002ec80       ___CxxFrameHandler         1002fc80 f   libvcruntimed:trnsctrl.obj
 0001:0002ecc0       ___CxxFrameHandler2        1002fcc0 f   libvcruntimed:trnsctrl.obj
 0001:0002ed00       ___CxxFrameHandler3        1002fd00 f   libvcruntimed:trnsctrl.obj
 0001:0002ed40       ___CxxLongjmpUnwind@4      1002fd40 f   libvcruntimed:trnsctrl.obj
 0001:0002ed80       ___DestructExceptionObject 1002fd80 f   libvcruntimed:ehhelpers.obj
 0001:0002eea0       ?_CallMemberFunction0@@YGXQAX0@Z 1002fea0 f i libvcruntimed:ehhelpers.obj
 0001:0002ef40       ?raw_name@type_info@@QBEPBDXZ 1002ff40 f i libvcruntimed:ehhelpers.obj
 0001:0002ef60       __IsExceptionObjectToBeDestroyed 1002ff60 f   libvcruntimed:ehhelpers.obj
 0001:0002efa0       __SetWinRTOutOfMemoryExceptionCallback 1002ffa0 f   libvcruntimed:ehhelpers.obj
 0001:0002efb0       ___AdjustPointer           1002ffb0 f   libvcruntimed:ehhelpers.obj
 0001:0002f000       ___FrameUnwindFilter       10030000 f   libvcruntimed:ehhelpers.obj
 0001:0002f090       ___GetPlatformExceptionInfo 10030090 f   libvcruntimed:ehhelpers.obj
 0001:0002f110       ___current_exception       10030110 f   libvcruntimed:ehhelpers.obj
 0001:0002f120       ___current_exception_context 10030120 f   libvcruntimed:ehhelpers.obj
 0001:0002f130       ___processing_throw        10030130 f   libvcruntimed:ehhelpers.obj
 0001:0002f140       ___std_terminate           10030140 f   libvcruntimed:ehhelpers.obj
 0001:0002f150       __is_exception_typeof      10030150 f   libvcruntimed:ehhelpers.obj
 0001:0002f250       ??$?RD@__crt_internal_free_policy@@QBEXQBD@Z 10030250 f i libvcruntimed:std_type_info.obj
 0001:0002f270       ??$?RX@__crt_internal_free_policy@@QBEXQBX@Z 10030270 f i libvcruntimed:std_type_info.obj
 0001:0002f290       ??$__crt_interlocked_compare_exchange_pointer@$$CBDPAD$$T@@YAPBDPDSBDQAD$$T@Z 10030290 f i libvcruntimed:std_type_info.obj
 0001:0002f2b0       ??$__crt_interlocked_read_pointer@$$CBD@@YAPBDPDSBD@Z 100302b0 f i libvcruntimed:std_type_info.obj
 0001:0002f2d0       ??0?$__crt_unique_heap_ptr@DU__crt_internal_free_policy@@@@QAE@QAD@Z 100302d0 f i libvcruntimed:std_type_info.obj
 0001:0002f2f0       ??0?$__crt_unique_heap_ptr@XU__crt_internal_free_policy@@@@QAE@QAX@Z 100302f0 f i libvcruntimed:std_type_info.obj
 0001:0002f310       ??1?$__crt_unique_heap_ptr@DU__crt_internal_free_policy@@@@QAE@XZ 10030310 f i libvcruntimed:std_type_info.obj
 0001:0002f330       ??1?$__crt_unique_heap_ptr@XU__crt_internal_free_policy@@@@QAE@XZ 10030330 f i libvcruntimed:std_type_info.obj
 0001:0002f350       ??B?$__crt_unique_heap_ptr@DU__crt_internal_free_policy@@@@QBE_NXZ 10030350 f i libvcruntimed:std_type_info.obj
 0001:0002f370       ??B?$__crt_unique_heap_ptr@XU__crt_internal_free_policy@@@@QBE_NXZ 10030370 f i libvcruntimed:std_type_info.obj
 0001:0002f400       ?detach@?$__crt_unique_heap_ptr@XU__crt_internal_free_policy@@@@QAEPAXXZ 10030400 f i libvcruntimed:std_type_info.obj
 0001:0002f430       ?get@?$__crt_unique_heap_ptr@DU__crt_internal_free_policy@@@@QBEPADXZ 10030430 f i libvcruntimed:std_type_info.obj
 0001:0002f440       ?get@?$__crt_unique_heap_ptr@XU__crt_internal_free_policy@@@@QBEPAXXZ 10030440 f i libvcruntimed:std_type_info.obj
 0001:0002f450       ?is_valid@?$__crt_unique_heap_ptr@DU__crt_internal_free_policy@@@@QBE_NXZ 10030450 f i libvcruntimed:std_type_info.obj
 0001:0002f480       ?is_valid@?$__crt_unique_heap_ptr@XU__crt_internal_free_policy@@@@QBE_NXZ 10030480 f i libvcruntimed:std_type_info.obj
 0001:0002f4b0       ?release@?$__crt_unique_heap_ptr@DU__crt_internal_free_policy@@@@QAEXXZ 100304b0 f i libvcruntimed:std_type_info.obj
 0001:0002f4e0       ?release@?$__crt_unique_heap_ptr@XU__crt_internal_free_policy@@@@QAEXXZ 100304e0 f i libvcruntimed:std_type_info.obj
 0001:0002f510       ___std_type_info_compare   10030510 f   libvcruntimed:std_type_info.obj
 0001:0002f540       ___std_type_info_destroy_list 10030540 f   libvcruntimed:std_type_info.obj
 0001:0002f580       ___std_type_info_hash      10030580 f   libvcruntimed:std_type_info.obj
 0001:0002f5e0       ___std_type_info_name      100305e0 f   libvcruntimed:std_type_info.obj
 0001:0002f7c0       ___vcrt_GetModuleFileNameW 100307c0 f   libvcruntimed:winapi_thunks.obj
 0001:0002f7e0       ___vcrt_GetModuleHandleW   100307e0 f   libvcruntimed:winapi_thunks.obj
 0001:0002f7f0       ___vcrt_LoadLibraryExW     100307f0 f   libvcruntimed:winapi_thunks.obj
 0001:0002f810       ??$?RD@__crt_public_free_policy@@QBEXQBD@Z 10030810 f i libvcruntimed:std_exception.obj
 0001:0002f830       ??0?$__crt_unique_heap_ptr@DU__crt_public_free_policy@@@@QAE@QAD@Z 10030830 f i libvcruntimed:std_exception.obj
 0001:0002f850       ??1?$__crt_unique_heap_ptr@DU__crt_public_free_policy@@@@QAE@XZ 10030850 f i libvcruntimed:std_exception.obj
 0001:0002f870       ??B?$__crt_unique_heap_ptr@DU__crt_public_free_policy@@@@QBE_NXZ 10030870 f i libvcruntimed:std_exception.obj
 0001:0002f890       ?detach@?$__crt_unique_heap_ptr@DU__crt_public_free_policy@@@@QAEPADXZ 10030890 f i libvcruntimed:std_exception.obj
 0001:0002f8c0       ?get@?$__crt_unique_heap_ptr@DU__crt_public_free_policy@@@@QBEPADXZ 100308c0 f i libvcruntimed:std_exception.obj
 0001:0002f8d0       ?is_valid@?$__crt_unique_heap_ptr@DU__crt_public_free_policy@@@@QBE_NXZ 100308d0 f i libvcruntimed:std_exception.obj
 0001:0002f900       ?release@?$__crt_unique_heap_ptr@DU__crt_public_free_policy@@@@QAEXXZ 10030900 f i libvcruntimed:std_exception.obj
 0001:0002f930       ___std_exception_copy      10030930 f   libvcruntimed:std_exception.obj
 0001:0002fa20       ___std_exception_destroy   10030a20 f   libvcruntimed:std_exception.obj
 0001:0002fa50       __CxxThrowException@8      10030a50 f   libvcruntimed:throw.obj
 0001:0002fb00       _memmove                   10030b00 f   libvcruntimed:memmove.obj
 0001:00030080       __local_unwind4            10031080 f   libvcruntimed:exsup4.obj
 0001:00030158       __seh_longjmp_unwind4@4    10031158 f   libvcruntimed:exsup4.obj
 0001:00030180       @_EH4_CallFilterFunc@8     10031180 f   libvcruntimed:exsup4.obj
 0001:00030198       @_EH4_TransferToHandler@8  10031198 f   libvcruntimed:exsup4.obj
 0001:000301b4       @_EH4_GlobalUnwind2@8      100311b4 f   libvcruntimed:exsup4.obj
 0001:000301d0       @_EH4_LocalUnwind@16       100311d0 f   libvcruntimed:exsup4.obj
 0001:00030200       ___except_validate_context_record 10031200 f   libvcruntimed:jbcxrval.obj
 0001:00030250       ___except_validate_jump_buffer 10031250 f   libvcruntimed:jbcxrval.obj
 0001:00030270       ___except_validate_jump_buffer_common 10031270 f i libvcruntimed:jbcxrval.obj
 0001:000302d0       ??$?RU__vcrt_ptd@@@__crt_internal_free_policy@@QBEXQBU__vcrt_ptd@@@Z 100312d0 f i libvcruntimed:per_thread_data.obj
 0001:000302f0       ??0?$__crt_unique_heap_ptr@U__vcrt_ptd@@U__crt_internal_free_policy@@@@QAE@QAU__vcrt_ptd@@@Z 100312f0 f i libvcruntimed:per_thread_data.obj
 0001:00030330       ??1?$__crt_unique_heap_ptr@U__vcrt_ptd@@U__crt_internal_free_policy@@@@QAE@XZ 10031330 f i libvcruntimed:per_thread_data.obj
 0001:00030370       ??B?$__crt_unique_heap_ptr@U__vcrt_ptd@@U__crt_internal_free_policy@@@@QBE_NXZ 10031370 f i libvcruntimed:per_thread_data.obj
 0001:00030390       ?detach@?$__crt_unique_heap_ptr@U__vcrt_ptd@@U__crt_internal_free_policy@@@@QAEPAU__vcrt_ptd@@XZ 10031390 f i libvcruntimed:per_thread_data.obj
 0001:000303c0       ?get@?$__crt_unique_heap_ptr@U__vcrt_ptd@@U__crt_internal_free_policy@@@@QBEPAU__vcrt_ptd@@XZ 100313c0 f i libvcruntimed:per_thread_data.obj
 0001:000303d0       ?is_valid@?$__crt_unique_heap_ptr@U__vcrt_ptd@@U__crt_internal_free_policy@@@@QBE_NXZ 100313d0 f i libvcruntimed:per_thread_data.obj
 0001:00030400       ?release@?$__crt_unique_heap_ptr@U__vcrt_ptd@@U__crt_internal_free_policy@@@@QAEXXZ 10031400 f i libvcruntimed:per_thread_data.obj
 0001:00030460       ___vcrt_freefls@4          10031460 f   libvcruntimed:per_thread_data.obj
 0001:00030490       ___vcrt_freeptd            10031490 f   libvcruntimed:per_thread_data.obj
 0001:000304f0       ___vcrt_getptd             100314f0 f   libvcruntimed:per_thread_data.obj
 0001:00030510       ___vcrt_getptd_noexit      10031510 f   libvcruntimed:per_thread_data.obj
 0001:00030670       ___vcrt_getptd_noinit      10031670 f   libvcruntimed:per_thread_data.obj
 0001:000306d0       ___vcrt_initialize_ptd     100316d0 f   libvcruntimed:per_thread_data.obj
 0001:00030720       ___vcrt_uninitialize_ptd   10031720 f   libvcruntimed:per_thread_data.obj
 0001:00030750       ___vcrt_initialize_locks   10031750 f   libvcruntimed:locks.obj
 0001:000307b0       ___vcrt_lock               100317b0 f   libvcruntimed:locks.obj
 0001:000307d0       ___vcrt_uninitialize_locks 100317d0 f   libvcruntimed:locks.obj
 0001:00030820       ___vcrt_unlock             10031820 f   libvcruntimed:locks.obj
 0001:000313b0       ??$TypeMatchHelper@V__FrameHandler3@@@@YAHPBU_s_HandlerType@@PBU_s_CatchableType@@PBU_s_ThrowInfo@@@Z 100323b0 f i libvcruntimed:frame.obj
 0001:00031490       ??$__InternalCxxFrameHandler@V__FrameHandler3@@@@YA?AW4_EXCEPTION_DISPOSITION@@PAUEHExceptionRecord@@PAUEHRegistrationNode@@PAU_CONTEXT@@PAXPBU_s_FuncInfo@@H1E@Z 10032490 f i libvcruntimed:frame.obj
 0001:00031650       ??0HandlerMap@__FrameHandler3@@QAE@PBU_s_TryBlockMapEntry@@II@Z 10032650 f i libvcruntimed:frame.obj
 0001:00031680       ??0TryBlockMap@__FrameHandler3@@QAE@PBU_s_FuncInfo@@I@Z 10032680 f i libvcruntimed:frame.obj
 0001:000316b0       ??0bad_exception@std@@QAE@ABV01@@Z 100326b0 f i libvcruntimed:frame.obj
 0001:000316e0       ??0bad_exception@std@@QAE@XZ 100326e0 f i libvcruntimed:frame.obj
 0001:00031710       ??0iterator@HandlerMap@__FrameHandler3@@QAE@AAV12@I@Z 10032710 f i libvcruntimed:frame.obj
 0001:00031740       ??1bad_exception@std@@UAE@XZ 10032740 f i libvcruntimed:frame.obj
 0001:00031760       ??8iterator@HandlerMap@__FrameHandler3@@QBE_NABV012@@Z 10032760 f i libvcruntimed:frame.obj
 0001:00031790       ??8type_info@@QBE_NABV0@@Z 10032790 f i libvcruntimed:frame.obj
 0001:000317d0       ??9iterator@HandlerMap@__FrameHandler3@@QBE_NABV012@@Z 100327d0 f i libvcruntimed:frame.obj
 0001:00031810       ??Diterator@HandlerMap@__FrameHandler3@@QAE?BU_s_HandlerType@@XZ 10032810 f i libvcruntimed:frame.obj
 0001:00031850       ??Diterator@TryBlockMap@__FrameHandler3@@QAE?BU_s_TryBlockMapEntry@@XZ 10032850 f i libvcruntimed:frame.obj
 0001:000318a0       ??Eiterator@HandlerMap@__FrameHandler3@@QAEAAV012@XZ 100328a0 f i libvcruntimed:frame.obj
 0001:000318c0       ??Eiterator@TryBlockMap@__FrameHandler3@@QAEAAV012@XZ 100328c0 f i libvcruntimed:frame.obj
 0001:000318e0       ??Miterator@TryBlockMap@__FrameHandler3@@QBE_NABV012@@Z 100328e0 f i libvcruntimed:frame.obj
 0001:00031910       ??_Gbad_exception@std@@UAEPAXI@Z 10032910 f i libvcruntimed:frame.obj
 0001:00031910       ??_Ebad_exception@std@@UAEPAXI@Z 10032910 f i libvcruntimed:frame.obj
 0001:00031940       ?BuildCatchObject@__FrameHandler3@@SAXPAUEHExceptionRecord@@PAXPBU_s_HandlerType@@PBU_s_CatchableType@@@Z 10032940 f   libvcruntimed:frame.obj
 0001:00031960       ?BuildCatchObjectHelper@__FrameHandler3@@SAHPAUEHExceptionRecord@@PAXPBU_s_HandlerType@@PBU_s_CatchableType@@@Z 10032960 f   libvcruntimed:frame.obj
 0001:00031d00       ?FrameUnwindToEmptyState@__FrameHandler3@@SAXPAUEHRegistrationNode@@PAXPBU_s_FuncInfo@@@Z 10032d00 f   libvcruntimed:frame.obj
 0001:00031d20       ?FrameUnwindToState@__FrameHandler3@@SAXPAUEHRegistrationNode@@PAXPBU_s_FuncInfo@@H@Z 10032d20 f   libvcruntimed:frame.obj
 0001:00031ea0       ?GetMaxState@__FrameHandler3@@SAHPAXPBU_s_FuncInfo@@@Z 10032ea0 f i libvcruntimed:frame.obj
 0001:00031fc0       ?TypeMatch@__FrameHandler3@@SAHPBU_s_HandlerType@@PBU_s_CatchableType@@PBU_s_ThrowInfo@@@Z 10032fc0 f   libvcruntimed:frame.obj
 0001:00031fe0       ?_CallMemberFunction1@@YGXQAX00@Z 10032fe0 f i libvcruntimed:frame.obj
 0001:00032010       ?_CallMemberFunction2@@YGXQAX00H@Z 10033010 f i libvcruntimed:frame.obj
 0001:00032040       ?begin@HandlerMap@__FrameHandler3@@QAE?AViterator@12@XZ 10033040 f i libvcruntimed:frame.obj
 0001:00032060       ?end@HandlerMap@__FrameHandler3@@QAE?AViterator@12@XZ 10033060 f i libvcruntimed:frame.obj
 0001:00032090       ?getESTypes@__FrameHandler3@@SAPBU_s_ESTypeList@@PBU_s_FuncInfo@@@Z 10033090 f i libvcruntimed:frame.obj
 0001:000320a0       ?getLastEntry@HandlerMap@__FrameHandler3@@QAEPBU_s_HandlerType@@XZ 100330a0 f i libvcruntimed:frame.obj
 0001:000320c0       ?getMagicNum@__FrameHandler3@@SAIPBU_s_FuncInfo@@@Z 100330c0 f i libvcruntimed:frame.obj
 0001:000320d0       ?getNumTryBlocks@TryBlockMap@__FrameHandler3@@QAEIXZ 100330d0 f i libvcruntimed:frame.obj
 0001:000320f0       ?isEHs@__FrameHandler3@@SA_NPBU_s_FuncInfo@@@Z 100330f0 f i libvcruntimed:frame.obj
 0001:00032120       ?isNoExcept@__FrameHandler3@@SA_NPBU_s_FuncInfo@@@Z 10033120 f i libvcruntimed:frame.obj
 0001:00032150       ___BuildCatchObject        10033150 f   libvcruntimed:frame.obj
 0001:00032170       ___BuildCatchObjectHelper  10033170 f   libvcruntimed:frame.obj
 0001:00032190       ___TypeMatch               10033190 f   libvcruntimed:frame.obj
 0001:000321b0       ___vcrt_EncodePointer      100331b0 f i libvcruntimed:frame.obj
 0001:000321c0       __CallSettingFrame@12      100331c0 f   libvcruntimed:lowhelpr.obj
 0001:000321e7       __NLG_Return               100331e7     libvcruntimed:lowhelpr.obj
 0001:00032210       ??$?0$00@DName@@QAE@PBDU?$StringLifeSelector@$00@@@Z 10033210 f i libvcruntimed:undname.obj
 0001:00032260       ??$?0$00@pcharNode@@QAE@PBDHU?$StringLifeSelector@$00@@@Z 10033260 f i libvcruntimed:undname.obj
 0001:000322a0       ??$?0$01@DName@@QAE@PBDU?$StringLifeSelector@$01@@@Z 100332a0 f i libvcruntimed:undname.obj
 0001:000322f0       ??$?0$01@pcharNode@@QAE@PBDHU?$StringLifeSelector@$01@@@Z 100332f0 f i libvcruntimed:undname.obj
 0001:00032370       ??$?0$0A@@DName@@QAE@PBDU?$StringLifeSelector@$0A@@@@Z 10033370 f i libvcruntimed:undname.obj
 0001:000323c0       ??$?0$0A@@pcharNode@@QAE@PBDHU?$StringLifeSelector@$0A@@@@Z 100333c0 f i libvcruntimed:undname.obj
 0001:00032440       ??$?0_K$0A@@?$optional@_K@std@@QAE@$$QA_K@Z 10033440 f i libvcruntimed:undname.obj
 0001:00032480       ??$?0_K@?$_Optional_construct_base@_K@std@@QAE@Uin_place_t@1@$$QA_K@Z 10033480 f i libvcruntimed:undname.obj
 0001:000324b0       ??$?0_K@?$_Optional_destruct_base@_K$00@std@@QAE@Uin_place_t@1@$$QA_K@Z 100334b0 f i libvcruntimed:undname.obj
 0001:000324e0       ??$append@VDNameNode@@@DName@@AAEXPBVDNameNode@@@Z 100334e0 f i libvcruntimed:undname.obj
 0001:00032570       ??$append@VDNameStatusNode@@@DName@@AAEXPBVDNameStatusNode@@@Z 10033570 f i libvcruntimed:undname.obj
 0001:00032600       ??$append@VcharNode@@@DName@@AAEXPBVcharNode@@@Z 10033600 f i libvcruntimed:undname.obj
 0001:00032690       ??$append@VpDNameNode@@@DName@@AAEXPBVpDNameNode@@@Z 10033690 f i libvcruntimed:undname.obj
 0001:00032720       ??$append@VpcharNode@@@DName@@AAEXPBVpcharNode@@@Z 10033720 f i libvcruntimed:undname.obj
 0001:000327b0       ??$doPchar@$00@DName@@AAEXPBDH@Z 100337b0 f i libvcruntimed:undname.obj
 0001:000328c0       ??$doPchar@$01@DName@@AAEXPBDH@Z 100338c0 f i libvcruntimed:undname.obj
 0001:000329d0       ??$doPchar@$0A@@DName@@AAEXPBDH@Z 100339d0 f i libvcruntimed:undname.obj
 0001:00032ae0       ??$forward@_K@std@@YA$$QA_KAA_K@Z 10033ae0 f i libvcruntimed:undname.obj
 0001:00032af0       ??$size@D$04@std@@YAIAAY04$$CBD@Z 10033af0 f i libvcruntimed:undname.obj
 0001:00032b00       ??$size@D$0EB@@std@@YAIAAY0EB@$$CBD@Z 10033b00 f i libvcruntimed:undname.obj
 0001:00032b10       ??0?$_Optional_construct_base@_K@std@@QAE@XZ 10033b10 f i libvcruntimed:undname.obj
 0001:00032b30       ??0?$_Optional_destruct_base@_K$00@std@@QAE@XZ 10033b30 f i libvcruntimed:undname.obj
 0001:00032b50       ??0?$optional@_K@std@@QAE@XZ 10033b50 f i libvcruntimed:undname.obj
 0001:00032b80       ??0Block@_HeapManager@@QAE@XZ 10033b80 f i libvcruntimed:undname.obj
 0001:00032ba0       ??0DName@@QAE@AAPBDD@Z     10033ba0 f   libvcruntimed:undname.obj
 0001:00032d10       ??0DName@@QAE@ABUStringLiteral@@@Z 10033d10 f   libvcruntimed:undname.obj
 0001:00032d60       ??0DName@@QAE@ABV0@@Z      10033d60 f i libvcruntimed:undname.obj
 0001:00032d90       ??0DName@@QAE@D@Z          10033d90 f   libvcruntimed:undname.obj
 0001:00032dc0       ??0DName@@QAE@PAV0@@Z      10033dc0 f   libvcruntimed:undname.obj
 0001:00032e70       ??0DName@@QAE@W4DNameStatus@@@Z 10033e70 f   libvcruntimed:undname.obj
 0001:00032f10       ??0DName@@QAE@XZ           10033f10 f i libvcruntimed:undname.obj
 0001:00032f40       ??0DName@@QAE@_J@Z         10033f40 f   libvcruntimed:undname.obj
 0001:00033030       ??0DName@@QAE@_K@Z         10034030 f   libvcruntimed:undname.obj
 0001:000330e0       ??0DNameNode@@IAE@XZ       100340e0 f i libvcruntimed:undname.obj
 0001:00033100       ??0Replicator@@QAE@XZ      10034100 f i libvcruntimed:undname.obj
 0001:00033140       ??0UnDecorator@@QAE@PBDP6APADJ@ZK@Z 10034140 f i libvcruntimed:undname.obj
 0001:000331c0       ??0charNode@@QAE@D@Z       100341c0 f i libvcruntimed:undname.obj
 0001:000331f0       ??0pDNameNode@@QAE@PAVDName@@@Z 100341f0 f   libvcruntimed:undname.obj
 0001:00033250       ??0pairNode@@QAE@PBVDNameNode@@0@Z 10034250 f i libvcruntimed:undname.obj
 0001:000332b0       ??2@YAPAXIAAV_HeapManager@@H@Z 100342b0 f   libvcruntimed:undname.obj
 0001:000332f0       ??4DName@@QAEAAV0@ABUStringLiteral@@@Z 100342f0 f   libvcruntimed:undname.obj
 0001:00033330       ??4DName@@QAEAAV0@ABV0@@Z  10034330 f   libvcruntimed:undname.obj
 0001:00033360       ??4DName@@QAEAAV0@D@Z      10034360 f i libvcruntimed:undname.obj
 0001:00033390       ??4DName@@QAEAAV0@PAV0@@Z  10034390 f   libvcruntimed:undname.obj
 0001:00033430       ??4DName@@QAEAAV0@W4DNameStatus@@@Z 10034430 f   libvcruntimed:undname.obj
 0001:000334b0       ??AReplicator@@QBE?AVDName@@H@Z 100344b0 f   libvcruntimed:undname.obj
 0001:00033520       ??B?$optional@_K@std@@QBE_NXZ 10034520 f i libvcruntimed:undname.obj
 0001:00033540       ??D?$optional@_K@std@@QGAEAA_KXZ 10034540 f i libvcruntimed:undname.obj
 0001:00033550       ??H@YA?AVDName@@ABUStringLiteral@@ABV0@@Z 10034550 f i libvcruntimed:undname.obj
 0001:00033580       ??H@YA?AVDName@@DABV0@@Z   10034580 f i libvcruntimed:undname.obj
 0001:000335b0       ??H@YA?AVDName@@W4DNameStatus@@ABV0@@Z 100345b0 f i libvcruntimed:undname.obj
 0001:000335e0       ??HDName@@QBE?AV0@ABUStringLiteral@@@Z 100345e0 f   libvcruntimed:undname.obj
 0001:00033620       ??HDName@@QBE?AV0@ABV0@@Z  10034620 f   libvcruntimed:undname.obj
 0001:00033660       ??HDName@@QBE?AV0@D@Z      10034660 f   libvcruntimed:undname.obj
 0001:000336a0       ??HDName@@QBE?AV0@PAV0@@Z  100346a0 f   libvcruntimed:undname.obj
 0001:000336e0       ??HDName@@QBE?AV0@W4DNameStatus@@@Z 100346e0 f   libvcruntimed:undname.obj
 0001:00033720       ??HStringLiteral@@QBE?AU0@H@Z 10034720 f i libvcruntimed:undname.obj
 0001:00033750       ??YDName@@QAEAAV0@ABUStringLiteral@@@Z 10034750 f   libvcruntimed:undname.obj
 0001:000337f0       ??YDName@@QAEAAV0@ABV0@@Z  100347f0 f   libvcruntimed:undname.obj
 0001:00033890       ??YDName@@QAEAAV0@D@Z      10034890 f   libvcruntimed:undname.obj
 0001:00033910       ??YDName@@QAEAAV0@PAV0@@Z  10034910 f   libvcruntimed:undname.obj
 0001:000339c0       ??YDName@@QAEAAV0@W4DNameStatus@@@Z 100349c0 f   libvcruntimed:undname.obj
 0001:00033a20       ??YReplicator@@QAEAAV0@ABVDName@@@Z 10034a20 f   libvcruntimed:undname.obj
 0001:00033ab0       ??_5DName@@QAEAAV0@ABV0@@Z 10034ab0 f   libvcruntimed:undname.obj
 0001:00033b10       ??__K_l@@YA?AUStringLiteral@@PBDI@Z 10034b10 f i libvcruntimed:undname.obj
 0001:00033b30       ?Constructor@_HeapManager@@QAEXP6APAXI@ZP6AXPAX@Z@Z 10034b30 f i libvcruntimed:undname.obj
 0001:00033b70       ?Destructor@_HeapManager@@QAEXXZ 10034b70 f i libvcruntimed:undname.obj
 0001:00033be0       ?UScore@UnDecorator@@SA?AUStringLiteral@@W4Tokens@@@Z 10034be0 f   libvcruntimed:undname.obj
 0001:00033c30       ?composeDeclaration@UnDecorator@@CA?AVDName@@ABV2@@Z 10034c30 f i libvcruntimed:undname.obj
 0001:00035ba0       ?dbGetString@DName@@QBEPADXZ 10036ba0 f   libvcruntimed:undname.obj
 0001:00035bc0       ?doAccessSpecifiers@UnDecorator@@SAHXZ 10036bc0 f i libvcruntimed:undname.obj
 0001:00035bf0       ?doAllocationLanguage@UnDecorator@@SAHXZ 10036bf0 f i libvcruntimed:undname.obj
 0001:00035c20       ?doAllocationModel@UnDecorator@@SAHXZ 10036c20 f i libvcruntimed:undname.obj
 0001:00035c50       ?doEcsu@UnDecorator@@SAHXZ 10036c50 f i libvcruntimed:undname.obj
 0001:00035c80       ?doEllipsis@UnDecorator@@SAHXZ 10036c80 f i libvcruntimed:undname.obj
 0001:00035cb0       ?doFunctionReturns@UnDecorator@@SAHXZ 10036cb0 f i libvcruntimed:undname.obj
 0001:00035ce0       ?doMSKeywords@UnDecorator@@SAHXZ 10036ce0 f i libvcruntimed:undname.obj
 0001:00035d10       ?doMemberTypes@UnDecorator@@SAHXZ 10036d10 f i libvcruntimed:undname.obj
 0001:00035d40       ?doNameOnly@UnDecorator@@SAHXZ 10036d40 f i libvcruntimed:undname.obj
 0001:00035d50       ?doNoIdentCharCheck@UnDecorator@@SAHXZ 10036d50 f i libvcruntimed:undname.obj
 0001:00035d60       ?doPchar@DName@@AAEXD@Z    10036d60 f   libvcruntimed:undname.obj
 0001:00035dd0       ?doPtr64@UnDecorator@@SAHXZ 10036dd0 f i libvcruntimed:undname.obj
 0001:00035e00       ?doRestrictionSpec@UnDecorator@@SAHXZ 10036e00 f i libvcruntimed:undname.obj
 0001:00035e30       ?doThisTypes@UnDecorator@@SAHXZ 10036e30 f i libvcruntimed:undname.obj
 0001:00035e60       ?doThrowTypes@UnDecorator@@SAHXZ 10036e60 f i libvcruntimed:undname.obj
 0001:00035e90       ?doTypeOnly@UnDecorator@@SAHXZ 10036e90 f i libvcruntimed:undname.obj
 0001:00035ea0       ?doUnderScore@UnDecorator@@SAHXZ 10036ea0 f i libvcruntimed:undname.obj
 0001:00035ed0       ?getArgumentList@UnDecorator@@CA?AVDName@@XZ 10036ed0 f   libvcruntimed:undname.obj
 0001:00036020       ?getArgumentTypes@UnDecorator@@CA?AVDName@@XZ 10037020 f   libvcruntimed:undname.obj
 0001:00036230       ?getArrayObject@UnDecorator@@CA?AVDName@@XZ 10037230 f   libvcruntimed:undname.obj
 0001:00036310       ?getArrayType@UnDecorator@@CA?AVDName@@ABV2@@Z 10037310 f i libvcruntimed:undname.obj
 0001:000365b0       ?getBasedType@UnDecorator@@CA?AVDName@@XZ 100375b0 f   libvcruntimed:undname.obj
 0001:000366a0       ?getBasicDataType@UnDecorator@@CA?AVDName@@ABV2@@Z 100376a0 f   libvcruntimed:undname.obj
 0001:00036fb0       ?getCHPEName@UnDecorator@@QAEPADPADH@Z 10037fb0 f i libvcruntimed:undname.obj
 0001:00037110       ?getCallIndex@UnDecorator@@CA?AVDName@@XZ 10038110 f i libvcruntimed:undname.obj
 0001:00037130       ?getCallingConvention@UnDecorator@@CA?AVDName@@XZ 10038130 f   libvcruntimed:undname.obj
 0001:00037370       ?getDataIndirectType@UnDecorator@@CA?AVDName@@ABV2@W4IndirectionKind@@0H@Z 10038370 f   libvcruntimed:undname.obj
 0001:00037c90       ?getDataIndirectType@UnDecorator@@CA?AVDName@@XZ 10038c90 f i libvcruntimed:undname.obj
 0001:00037cd0       ?getDataType@UnDecorator@@CA?AVDName@@PAV2@@Z 10038cd0 f   libvcruntimed:undname.obj
 0001:00037e10       ?getDecoratedName@UnDecorator@@CA?AVDName@@XZ 10038e10 f   libvcruntimed:undname.obj
 0001:00038250       ?getDimension@UnDecorator@@CA?AVDName@@_N@Z 10039250 f   libvcruntimed:undname.obj
 0001:000384b0       ?getDispatchTarget@UnDecorator@@CA?AVDName@@XZ 100394b0 f   libvcruntimed:undname.obj
 0001:00038550       ?getDisplacement@UnDecorator@@CA?AVDName@@XZ 10039550 f i libvcruntimed:undname.obj
 0001:00038570       ?getECSUDataType@UnDecorator@@CA?AVDName@@XZ 10039570 f   libvcruntimed:undname.obj
 0001:000387d0       ?getECSUName@UnDecorator@@CA?AVDName@@XZ 100397d0 f i libvcruntimed:undname.obj
 0001:000387f0       ?getEnumType@UnDecorator@@CA?AVDName@@XZ 100397f0 f i libvcruntimed:undname.obj
 0001:000389a0       ?getExtendedDataIndirectType@UnDecorator@@CA?AVDName@@AAW4IndirectionKind@@AA_NH@Z 100399a0 f   libvcruntimed:undname.obj
 0001:00038bf0       ?getExternalDataType@UnDecorator@@CA?AVDName@@ABV2@@Z 10039bf0 f i libvcruntimed:undname.obj
 0001:00038c90       ?getFloatingPoint@UnDecorator@@CA?AVDName@@H@Z 10039c90 f   libvcruntimed:undname.obj
 0001:00038e40       ?getFunctionIndirectType@UnDecorator@@CA?AVDName@@ABV2@@Z 10039e40 f   libvcruntimed:undname.obj
 0001:00039320       ?getGuardNumber@UnDecorator@@CA?AVDName@@XZ 1003a320 f i libvcruntimed:undname.obj
 0001:00039340       ?getLastChar@DName@@QBEDXZ 1003a340 f i libvcruntimed:undname.obj
 0001:00039380       ?getLastChar@DNameStatusNode@@UBEDXZ 1003a380 f i libvcruntimed:undname.obj
 0001:000393b0       ?getLastChar@charNode@@UBEDXZ 1003a3b0 f i libvcruntimed:undname.obj
 0001:000393d0       ?getLastChar@pDNameNode@@UBEDXZ 1003a3d0 f i libvcruntimed:undname.obj
 0001:00039400       ?getLastChar@pairNode@@UBEDXZ 1003a400 f i libvcruntimed:undname.obj
 0001:00039470       ?getLastChar@pcharNode@@UBEDXZ 1003a470 f i libvcruntimed:undname.obj
 0001:000394b0       ?getLexicalFrame@UnDecorator@@CA?AVDName@@XZ 1003a4b0 f i libvcruntimed:undname.obj
 0001:000394f0       ?getMemoryWithBuffer@_HeapManager@@QAEPAXI@Z 1003a4f0 f   libvcruntimed:undname.obj
 0001:000395e0       ?getMemoryWithoutBuffer@_HeapManager@@QAEPAXI@Z 1003a5e0 f   libvcruntimed:undname.obj
 0001:00039620       ?getNoexcept@UnDecorator@@CA?AVDName@@XZ 1003a620 f   libvcruntimed:undname.obj
 0001:000396a0       ?getNumberOfDimensions@UnDecorator@@CAHXZ 1003a6a0 f   libvcruntimed:undname.obj
 0001:000397a0       ?getOperatorName@UnDecorator@@CA?AVDName@@_NPA_N@Z 1003a7a0 f i libvcruntimed:undname.obj
 0001:0003a290       ?getPointerType@UnDecorator@@CA?AVDName@@ABV2@0@Z 1003b290 f i libvcruntimed:undname.obj
 0001:0003a2b0       ?getPointerTypeArray@UnDecorator@@CA?AVDName@@ABV2@0@Z 1003b2b0 f i libvcruntimed:undname.obj
 0001:0003a2d0       ?getPrimaryDataType@UnDecorator@@CA?AVDName@@ABV2@@Z 1003b2d0 f   libvcruntimed:undname.obj
 0001:0003a740       ?getPtrRefDataType@UnDecorator@@CA?AVDName@@ABV2@H@Z 1003b740 f   libvcruntimed:undname.obj
 0001:0003a9f0       ?getPtrRefType@UnDecorator@@CA?AVDName@@ABV2@0W4IndirectionKind@@@Z 1003b9f0 f   libvcruntimed:undname.obj
 0001:0003ab70       ?getReferenceType@UnDecorator@@CA?AVDName@@ABV2@0W4IndirectionKind@@@Z 1003bb70 f i libvcruntimed:undname.obj
 0001:0003ab90       ?getRestrictionSpec@UnDecorator@@CA?AVDName@@XZ 1003bb90 f   libvcruntimed:undname.obj
 0001:0003ad50       ?getReturnType@UnDecorator@@CA?AVDName@@PAV2@@Z 1003bd50 f   libvcruntimed:undname.obj
 0001:0003ada0       ?getScope@UnDecorator@@CA?AVDName@@XZ 1003bda0 f   libvcruntimed:undname.obj
 0001:0003b330       ?getScopedName@UnDecorator@@CA?AVDName@@XZ 1003c330 f   libvcruntimed:undname.obj
 0001:0003b480       ?getSignedDimension@UnDecorator@@CA?AVDName@@XZ 1003c480 f   libvcruntimed:undname.obj
 0001:0003b500       ?getStorageConvention@UnDecorator@@CA?AVDName@@XZ 1003c500 f i libvcruntimed:undname.obj
 0001:0003b520       ?getString@DName@@QBEPADPAD0@Z 1003c520 f i libvcruntimed:undname.obj
 0001:0003b580       ?getString@DName@@QBEPADPADH@Z 1003c580 f i libvcruntimed:undname.obj
 0001:0003b610       ?getString@DNameStatusNode@@UBEPADPAD0@Z 1003c610 f i libvcruntimed:undname.obj
 0001:0003b650       ?getString@charNode@@UBEPADPAD0@Z 1003c650 f i libvcruntimed:undname.obj
 0001:0003b680       ?getString@pDNameNode@@UBEPADPAD0@Z 1003c680 f i libvcruntimed:undname.obj
 0001:0003b6c0       ?getString@pairNode@@UBEPADPAD0@Z 1003c6c0 f i libvcruntimed:undname.obj
 0001:0003b750       ?getString@pcharNode@@UBEPADPAD0@Z 1003c750 f i libvcruntimed:undname.obj
 0001:0003b780       ?getStringEncoding@UnDecorator@@CA?AVDName@@W4PrefixKind@@H@Z 1003c780 f   libvcruntimed:undname.obj
 0001:0003b890       ?getStringHelper@@YAPADPADPBD1H@Z 1003c890 f i libvcruntimed:undname.obj
 0001:0003b8d0       ?getStringObject@UnDecorator@@CA?AVDName@@XZ 1003c8d0 f   libvcruntimed:undname.obj
 0001:0003b980       ?getSymbolName@UnDecorator@@CA?AVDName@@XZ 1003c980 f i libvcruntimed:undname.obj
 0001:0003ba10       ?getTemplateArgumentList@UnDecorator@@CA?AVDName@@XZ 1003ca10 f   libvcruntimed:undname.obj
 0001:0003bce0       ?getTemplateName@UnDecorator@@CA?AVDName@@_N@Z 1003cce0 f   libvcruntimed:undname.obj
 0001:0003bea0       ?getTemplateNonTypeArgument@UnDecorator@@CA?AVDName@@XZ 1003cea0 f   libvcruntimed:undname.obj
 0001:0003c3c0       ?getTemplateTypeArgument@UnDecorator@@CA?AVDName@@XZ 1003d3c0 f   libvcruntimed:undname.obj
 0001:0003c560       ?getThisType@UnDecorator@@CA?AVDName@@XZ 1003d560 f i libvcruntimed:undname.obj
 0001:0003c5a0       ?getThrowTypes@UnDecorator@@CA?AVDName@@XZ 1003d5a0 f   libvcruntimed:undname.obj
 0001:0003c5e0       ?getTypeEncoding@UnDecorator@@CAHXZ 1003d5e0 f i libvcruntimed:undname.obj
 0001:0003d0a0       ?getUndecoratedName@UnDecorator@@QAEPADPADH@Z 1003e0a0 f i libvcruntimed:undname.obj
 0001:0003d200       ?getVCallThunkType@UnDecorator@@CA?AVDName@@XZ 1003e200 f i libvcruntimed:undname.obj
 0001:0003d280       ?getValue@UnDecorator@@CA?AV?$optional@_K@std@@XZ 1003e280 f   libvcruntimed:undname.obj
 0001:0003d340       ?getValueObject@UnDecorator@@CA?AVDName@@XZ 1003e340 f   libvcruntimed:undname.obj
 0001:0003d4b0       ?getVbTableType@UnDecorator@@CA?AVDName@@ABV2@@Z 1003e4b0 f i libvcruntimed:undname.obj
 0001:0003d4d0       ?getVdispMapType@UnDecorator@@CA?AVDName@@ABV2@@Z 1003e4d0 f i libvcruntimed:undname.obj
 0001:0003d560       ?getVfTableType@UnDecorator@@CA?AVDName@@ABV2@@Z 1003e560 f i libvcruntimed:undname.obj
 0001:0003d760       ?getZName@UnDecorator@@CA?AVDName@@_N0@Z 1003e760 f   libvcruntimed:undname.obj
 0001:0003daa0       ?haveTemplateParameters@UnDecorator@@SAHXZ 1003eaa0 f i libvcruntimed:undname.obj
 0001:0003dab0       ?isArray@DName@@QBEHXZ     1003eab0 f i libvcruntimed:undname.obj
 0001:0003dad0       ?isComArray@DName@@QBEHXZ  1003ead0 f i libvcruntimed:undname.obj
 0001:0003daf0       ?isEmpty@DName@@QBEHXZ     1003eaf0 f i libvcruntimed:undname.obj
 0001:0003db20       ?isFull@Replicator@@QBEHXZ 1003eb20 f i libvcruntimed:undname.obj
 0001:0003db50       ?isNoTE@DName@@QBEHXZ      1003eb50 f i libvcruntimed:undname.obj
 0001:0003db70       ?isPinPtr@DName@@QBEHXZ    1003eb70 f i libvcruntimed:undname.obj
 0001:0003db90       ?isPtrRef@DName@@QBEHXZ    1003eb90 f i libvcruntimed:undname.obj
 0001:0003dbb0       ?isUDC@DName@@QBEHXZ       1003ebb0 f i libvcruntimed:undname.obj
 0001:0003dbf0       ?isUDTThunk@DName@@QBEHXZ  1003ebf0 f i libvcruntimed:undname.obj
 0001:0003dc30       ?isVCallThunk@DName@@QBEHXZ 1003ec30 f i libvcruntimed:undname.obj
 0001:0003dc50       ?isValid@DName@@QBEHXZ     1003ec50 f i libvcruntimed:undname.obj
 0001:0003dc90       ?length@DName@@QBEHXZ      1003ec90 f i libvcruntimed:undname.obj
 0001:0003dcd0       ?length@DNameStatusNode@@UBEHXZ 1003ecd0 f i libvcruntimed:undname.obj
 0001:0003dcf0       ?length@charNode@@UBEHXZ   1003ecf0 f i libvcruntimed:undname.obj
 0001:0003dd00       ?length@pDNameNode@@UBEHXZ 1003ed00 f i libvcruntimed:undname.obj
 0001:0003dd30       ?length@pairNode@@UBEHXZ   1003ed30 f i libvcruntimed:undname.obj
 0001:0003dda0       ?length@pcharNode@@UBEHXZ  1003eda0 f i libvcruntimed:undname.obj
 0001:0003ddc0       ?make@DNameStatusNode@@SAPBV1@W4DNameStatus@@@Z 1003edc0 f i libvcruntimed:undname.obj
 0001:0003ddf0       ?parseDecoratedName@UnDecorator@@CA?AVDName@@XZ 1003edf0 f   libvcruntimed:undname.obj
 0001:0003df80       ?raw_length@DNameStatusNode@@UBEHXZ 1003ef80 f i libvcruntimed:undname.obj
 0001:0003dfa0       ?raw_length@charNode@@UBEHXZ 1003efa0 f i libvcruntimed:undname.obj
 0001:0003dfc0       ?raw_length@pDNameNode@@UBEHXZ 1003efc0 f i libvcruntimed:undname.obj
 0001:0003dfd0       ?raw_length@pairNode@@UBEHXZ 1003efd0 f i libvcruntimed:undname.obj
 0001:0003dff0       ?raw_length@pcharNode@@UBEHXZ 1003eff0 f i libvcruntimed:undname.obj
 0001:0003e010       ?setIsArray@DName@@QAEXXZ  1003f010 f i libvcruntimed:undname.obj
 0001:0003e030       ?setIsComArray@DName@@QAEXXZ 1003f030 f i libvcruntimed:undname.obj
 0001:0003e050       ?setIsNoTE@DName@@QAEXXZ   1003f050 f i libvcruntimed:undname.obj
 0001:0003e070       ?setIsPinPtr@DName@@QAEXXZ 1003f070 f i libvcruntimed:undname.obj
 0001:0003e090       ?setIsUDC@DName@@QAEXXZ    1003f090 f i libvcruntimed:undname.obj
 0001:0003e0c0       ?setIsVCallThunk@DName@@QAEXXZ 1003f0c0 f i libvcruntimed:undname.obj
 0001:0003e0e0       ?setPtrRef@DName@@QAEAAV1@XZ 1003f0e0 f i libvcruntimed:undname.obj
 0001:0003e100       ?status@DName@@QBE?AW4DNameStatus@@XZ 1003f100 f i libvcruntimed:undname.obj
 0001:0003e200       ___unDName                 1003f200 f   libvcruntimed:undname.obj
 0001:0003e230       ___unDNameEx               1003f230 f   libvcruntimed:undname.obj
 0001:0003e300       _unDNameGenerateCHPE       1003f300 f   libvcruntimed:undname.obj
 0001:0003e360       __global_unwind2           1003f360 f   libvcruntimed:exsup.obj
 0001:0003e3c6       __local_unwind2            1003f3c6 f   libvcruntimed:exsup.obj
 0001:0003e44a       __abnormal_termination     1003f44a f   libvcruntimed:exsup.obj
 0001:0003e470       __NLG_Notify1              1003f470 f   libvcruntimed:exsup.obj
 0001:0003e47c       __NLG_Notify               1003f47c f   libvcruntimed:exsup.obj
 0001:0003e493       __NLG_Dispatch             1003f493     libvcruntimed:exsup.obj
 0001:0003e493       __NLG_Dispatch2            1003f493     libvcruntimed:exsup.obj
 0001:0003e49b       __NLG_Call                 1003f49b f   libvcruntimed:exsup.obj
 0001:0003e49d       __NLG_Return2              1003f49d     libvcruntimed:exsup.obj
 0001:0003e4a0       ??$__crt_interlocked_exchange_pointer@UHINSTANCE__@@PAU1@@@YAPAUHINSTANCE__@@PDSAU0@QAU0@@Z 1003f4a0 f i libvcruntimed:winapi_downlevel.obj
 0001:0003e4b0       ??$__crt_interlocked_exchange_pointer@UHINSTANCE__@@PAX@@YAPAUHINSTANCE__@@PDSAU0@QAX@Z 1003f4b0 f i libvcruntimed:winapi_downlevel.obj
 0001:0003e4c0       ??$__crt_interlocked_exchange_pointer@XPAX@@YAPAXPDSAXQAX@Z 1003f4c0 f i libvcruntimed:winapi_downlevel.obj
 0001:0003e4d0       ??$__crt_interlocked_read_pointer@UHINSTANCE__@@@@YAPAUHINSTANCE__@@PDSAU0@@Z 1003f4d0 f i libvcruntimed:winapi_downlevel.obj
 0001:0003e4f0       ??$__crt_interlocked_read_pointer@X@@YAPAXPDSAX@Z 1003f4f0 f i libvcruntimed:winapi_downlevel.obj
 0001:0003e8c0       ___vcrt_FlsAlloc           1003f8c0 f   libvcruntimed:winapi_downlevel.obj
 0001:0003e900       ___vcrt_FlsFree            1003f900 f   libvcruntimed:winapi_downlevel.obj
 0001:0003e940       ___vcrt_FlsGetValue        1003f940 f   libvcruntimed:winapi_downlevel.obj
 0001:0003e980       ___vcrt_FlsSetValue        1003f980 f   libvcruntimed:winapi_downlevel.obj
 0001:0003e9d0       ___vcrt_InitializeCriticalSectionEx 1003f9d0 f   libvcruntimed:winapi_downlevel.obj
 0001:0003ea50       __get_unexpected           1003fa50 f   libvcruntimed:unexpected.obj
 0001:0003ea70       _set_unexpected            1003fa70 f   libvcruntimed:unexpected.obj
 0001:0003eaa0       _unexpected                1003faa0 f   libvcruntimed:unexpected.obj
 0001:0003eae0       ?GetCurrentState@__FrameHandler3@@SAHPAUEHRegistrationNode@@PAXPBU_s_FuncInfo@@@Z 1003fae0 f   libvcruntimed:ehstate.obj
 0001:0003eb10       ?SetState@__FrameHandler3@@SAXPAUEHRegistrationNode@@PBU_s_FuncInfo@@H@Z 1003fb10 f   libvcruntimed:ehstate.obj
 0001:0003eb20       ??$?0ABV?$stream_output_adapter@D@__crt_stdio_output@@AB_KABQBDABQAU__crt_locale_pointers@@ABQAD@?$format_validation_base@DV?$stream_output_adapter@D@__crt_stdio_output@@@__crt_stdio_output@@IAE@ABV?$stream_output_adapter@D@1@AB_KABQBDABQAU__crt_locale_pointers@@ABQAD@Z 1003fb20 f i libucrtd:output.obj
 0001:0003eb50       ??$?0ABV?$stream_output_adapter@D@__crt_stdio_output@@AB_KABQBDABQAU__crt_locale_pointers@@ABQAD@?$positional_parameter_base@DV?$stream_output_adapter@D@__crt_stdio_output@@@__crt_stdio_output@@IAE@ABV?$stream_output_adapter@D@1@AB_KABQBDABQAU__crt_locale_pointers@@ABQAD@Z 1003fb50 f i libucrtd:output.obj
 0001:0003ebd0       ??$?0ABV?$stream_output_adapter@D@__crt_stdio_output@@AB_KABQBDABQAU__crt_locale_pointers@@ABQAD@?$standard_base@DV?$stream_output_adapter@D@__crt_stdio_output@@@__crt_stdio_output@@IAE@ABV?$stream_output_adapter@D@1@AB_KABQBDABQAU__crt_locale_pointers@@ABQAD@Z 1003fbd0 f i libucrtd:output.obj
 0001:0003ec20       ??$?0ABV?$stream_output_adapter@_W@__crt_stdio_output@@AB_KABQB_WABQAU__crt_locale_pointers@@ABQAD@?$format_validation_base@_WV?$stream_output_adapter@_W@__crt_stdio_output@@@__crt_stdio_output@@IAE@ABV?$stream_output_adapter@_W@1@AB_KABQB_WABQAU__crt_locale_pointers@@ABQAD@Z 1003fc20 f i libucrtd:output.obj
 0001:0003ec50       ??$?0ABV?$stream_output_adapter@_W@__crt_stdio_output@@AB_KABQB_WABQAU__crt_locale_pointers@@ABQAD@?$positional_parameter_base@_WV?$stream_output_adapter@_W@__crt_stdio_output@@@__crt_stdio_output@@IAE@ABV?$stream_output_adapter@_W@1@AB_KABQB_WABQAU__crt_locale_pointers@@ABQAD@Z 1003fc50 f i libucrtd:output.obj
 0001:0003ecd0       ??$?0ABV?$stream_output_adapter@_W@__crt_stdio_output@@AB_KABQB_WABQAU__crt_locale_pointers@@ABQAD@?$standard_base@_WV?$stream_output_adapter@_W@__crt_stdio_output@@@__crt_stdio_output@@IAE@ABV?$stream_output_adapter@_W@1@AB_KABQB_WABQAU__crt_locale_pointers@@ABQAD@Z 1003fcd0 f i libucrtd:output.obj
 0001:0003ed20       ??$?0ABV?$string_output_adapter@D@__crt_stdio_output@@AB_KABQBDABQAU__crt_locale_pointers@@ABQAD@?$format_validation_base@DV?$string_output_adapter@D@__crt_stdio_output@@@__crt_stdio_output@@IAE@ABV?$string_output_adapter@D@1@AB_KABQBDABQAU__crt_locale_pointers@@ABQAD@Z 1003fd20 f i libucrtd:output.obj
 0001:0003ed50       ??$?0ABV?$string_output_adapter@D@__crt_stdio_output@@AB_KABQBDABQAU__crt_locale_pointers@@ABQAD@?$positional_parameter_base@DV?$string_output_adapter@D@__crt_stdio_output@@@__crt_stdio_output@@IAE@ABV?$string_output_adapter@D@1@AB_KABQBDABQAU__crt_locale_pointers@@ABQAD@Z 1003fd50 f i libucrtd:output.obj
 0001:0003edd0       ??$?0ABV?$string_output_adapter@D@__crt_stdio_output@@AB_KABQBDABQAU__crt_locale_pointers@@ABQAD@?$standard_base@DV?$string_output_adapter@D@__crt_stdio_output@@@__crt_stdio_output@@IAE@ABV?$string_output_adapter@D@1@AB_KABQBDABQAU__crt_locale_pointers@@ABQAD@Z 1003fdd0 f i libucrtd:output.obj
 0001:0003ee20       ??$?0ABV?$string_output_adapter@_W@__crt_stdio_output@@AB_KABQB_WABQAU__crt_locale_pointers@@ABQAD@?$format_validation_base@_WV?$string_output_adapter@_W@__crt_stdio_output@@@__crt_stdio_output@@IAE@ABV?$string_output_adapter@_W@1@AB_KABQB_WABQAU__crt_locale_pointers@@ABQAD@Z 1003fe20 f i libucrtd:output.obj
 0001:0003ee50       ??$?0ABV?$string_output_adapter@_W@__crt_stdio_output@@AB_KABQB_WABQAU__crt_locale_pointers@@ABQAD@?$positional_parameter_base@_WV?$string_output_adapter@_W@__crt_stdio_output@@@__crt_stdio_output@@IAE@ABV?$string_output_adapter@_W@1@AB_KABQB_WABQAU__crt_locale_pointers@@ABQAD@Z 1003fe50 f i libucrtd:output.obj
 0001:0003eed0       ??$?0ABV?$string_output_adapter@_W@__crt_stdio_output@@AB_KABQB_WABQAU__crt_locale_pointers@@ABQAD@?$standard_base@_WV?$string_output_adapter@_W@__crt_stdio_output@@@__crt_stdio_output@@IAE@ABV?$string_output_adapter@_W@1@AB_KABQB_WABQAU__crt_locale_pointers@@ABQAD@Z 1003fed0 f i libucrtd:output.obj
 0001:0003f400       ??$__crt_interlocked_read@J@@YAJPDJ@Z 10040400 f i libucrtd:output.obj
 0001:000421a0       ??$count@D@formatting_buffer@__crt_stdio_output@@QBEIXZ 100431a0 f i libucrtd:output.obj
 0001:000421e0       ??$count@_W@formatting_buffer@__crt_stdio_output@@QBEIXZ 100431e0 f i libucrtd:output.obj
 0001:00042220       ??$data@D@formatting_buffer@__crt_stdio_output@@QAEPADXZ 10043220 f i libucrtd:output.obj
 0001:00042260       ??$data@_W@formatting_buffer@__crt_stdio_output@@QAEPA_WXZ 10043260 f i libucrtd:output.obj
 0001:000422a0       ??$ensure_buffer_is_big_enough@D@formatting_buffer@__crt_stdio_output@@QAE_NI@Z 100432a0 f i libucrtd:output.obj
 0001:00042380       ??$ensure_buffer_is_big_enough@_W@formatting_buffer@__crt_stdio_output@@QAE_NI@Z 10043380 f i libucrtd:output.obj
 0001:00042470       ??$extract_argument_from_va_list@C_J@?$positional_parameter_base@DV?$stream_output_adapter@D@__crt_stdio_output@@@__crt_stdio_output@@IAE_NAA_J@Z 10043470 f i libucrtd:output.obj
 0001:000425b0       ??$extract_argument_from_va_list@C_J@?$positional_parameter_base@DV?$string_output_adapter@D@__crt_stdio_output@@@__crt_stdio_output@@IAE_NAA_J@Z 100435b0 f i libucrtd:output.obj
 0001:000426f0       ??$extract_argument_from_va_list@C_J@?$positional_parameter_base@_WV?$stream_output_adapter@_W@__crt_stdio_output@@@__crt_stdio_output@@IAE_NAA_J@Z 100436f0 f i libucrtd:output.obj
 0001:00042830       ??$extract_argument_from_va_list@C_J@?$positional_parameter_base@_WV?$string_output_adapter@_W@__crt_stdio_output@@@__crt_stdio_output@@IAE_NAA_J@Z 10043830 f i libucrtd:output.obj
 0001:00042970       ??$extract_argument_from_va_list@C_J@?$standard_base@DV?$stream_output_adapter@D@__crt_stdio_output@@@__crt_stdio_output@@IAE_NAA_J@Z 10043970 f i libucrtd:output.obj
 0001:000429a0       ??$extract_argument_from_va_list@C_J@?$standard_base@DV?$string_output_adapter@D@__crt_stdio_output@@@__crt_stdio_output@@IAE_NAA_J@Z 100439a0 f i libucrtd:output.obj
 0001:000429d0       ??$extract_argument_from_va_list@C_J@?$standard_base@_WV?$stream_output_adapter@_W@__crt_stdio_output@@@__crt_stdio_output@@IAE_NAA_J@Z 100439d0 f i libucrtd:output.obj
 0001:00042a00       ??$extract_argument_from_va_list@C_J@?$standard_base@_WV?$string_output_adapter@_W@__crt_stdio_output@@@__crt_stdio_output@@IAE_NAA_J@Z 10043a00 f i libucrtd:output.obj
 0001:00042a30       ??$extract_argument_from_va_list@E_J@?$positional_parameter_base@DV?$stream_output_adapter@D@__crt_stdio_output@@@__crt_stdio_output@@IAE_NAA_J@Z 10043a30 f i libucrtd:output.obj
 0001:00042b70       ??$extract_argument_from_va_list@E_J@?$positional_parameter_base@DV?$string_output_adapter@D@__crt_stdio_output@@@__crt_stdio_output@@IAE_NAA_J@Z 10043b70 f i libucrtd:output.obj
 0001:00042cb0       ??$extract_argument_from_va_list@E_J@?$positional_parameter_base@_WV?$stream_output_adapter@_W@__crt_stdio_output@@@__crt_stdio_output@@IAE_NAA_J@Z 10043cb0 f i libucrtd:output.obj
 0001:00042df0       ??$extract_argument_from_va_list@E_J@?$positional_parameter_base@_WV?$string_output_adapter@_W@__crt_stdio_output@@@__crt_stdio_output@@IAE_NAA_J@Z 10043df0 f i libucrtd:output.obj
 0001:00042f30       ??$extract_argument_from_va_list@E_J@?$standard_base@DV?$stream_output_adapter@D@__crt_stdio_output@@@__crt_stdio_output@@IAE_NAA_J@Z 10043f30 f i libucrtd:output.obj
 0001:00042f60       ??$extract_argument_from_va_list@E_J@?$standard_base@DV?$string_output_adapter@D@__crt_stdio_output@@@__crt_stdio_output@@IAE_NAA_J@Z 10043f60 f i libucrtd:output.obj
 0001:00042f90       ??$extract_argument_from_va_list@E_J@?$standard_base@_WV?$stream_output_adapter@_W@__crt_stdio_output@@@__crt_stdio_output@@IAE_NAA_J@Z 10043f90 f i libucrtd:output.obj
 0001:00042fc0       ??$extract_argument_from_va_list@E_J@?$standard_base@_WV?$string_output_adapter@_W@__crt_stdio_output@@@__crt_stdio_output@@IAE_NAA_J@Z 10043fc0 f i libucrtd:output.obj
 0001:00042ff0       ??$extract_argument_from_va_list@F_J@?$positional_parameter_base@DV?$stream_output_adapter@D@__crt_stdio_output@@@__crt_stdio_output@@IAE_NAA_J@Z 10043ff0 f i libucrtd:output.obj
 0001:00043120       ??$extract_argument_from_va_list@F_J@?$positional_parameter_base@DV?$string_output_adapter@D@__crt_stdio_output@@@__crt_stdio_output@@IAE_NAA_J@Z 10044120 f i libucrtd:output.obj
 0001:00043250       ??$extract_argument_from_va_list@F_J@?$positional_parameter_base@_WV?$stream_output_adapter@_W@__crt_stdio_output@@@__crt_stdio_output@@IAE_NAA_J@Z 10044250 f i libucrtd:output.obj
 0001:00043380       ??$extract_argument_from_va_list@F_J@?$positional_parameter_base@_WV?$string_output_adapter@_W@__crt_stdio_output@@@__crt_stdio_output@@IAE_NAA_J@Z 10044380 f i libucrtd:output.obj
 0001:000434b0       ??$extract_argument_from_va_list@F_J@?$standard_base@DV?$stream_output_adapter@D@__crt_stdio_output@@@__crt_stdio_output@@IAE_NAA_J@Z 100444b0 f i libucrtd:output.obj
 0001:000434e0       ??$extract_argument_from_va_list@F_J@?$standard_base@DV?$string_output_adapter@D@__crt_stdio_output@@@__crt_stdio_output@@IAE_NAA_J@Z 100444e0 f i libucrtd:output.obj
 0001:00043510       ??$extract_argument_from_va_list@F_J@?$standard_base@_WV?$stream_output_adapter@_W@__crt_stdio_output@@@__crt_stdio_output@@IAE_NAA_J@Z 10044510 f i libucrtd:output.obj
 0001:00043540       ??$extract_argument_from_va_list@F_J@?$standard_base@_WV?$string_output_adapter@_W@__crt_stdio_output@@@__crt_stdio_output@@IAE_NAA_J@Z 10044540 f i libucrtd:output.obj
 0001:00043570       ??$extract_argument_from_va_list@GD@?$positional_parameter_base@DV?$stream_output_adapter@D@__crt_stdio_output@@@__crt_stdio_output@@IAE_NAAD@Z 10044570 f i libucrtd:output.obj
 0001:000436a0       ??$extract_argument_from_va_list@GD@?$positional_parameter_base@DV?$string_output_adapter@D@__crt_stdio_output@@@__crt_stdio_output@@IAE_NAAD@Z 100446a0 f i libucrtd:output.obj
 0001:000437d0       ??$extract_argument_from_va_list@GD@?$standard_base@DV?$stream_output_adapter@D@__crt_stdio_output@@@__crt_stdio_output@@IAE_NAAD@Z 100447d0 f i libucrtd:output.obj
 0001:00043800       ??$extract_argument_from_va_list@GD@?$standard_base@DV?$string_output_adapter@D@__crt_stdio_output@@@__crt_stdio_output@@IAE_NAAD@Z 10044800 f i libucrtd:output.obj
 0001:00043830       ??$extract_argument_from_va_list@G_J@?$positional_parameter_base@DV?$stream_output_adapter@D@__crt_stdio_output@@@__crt_stdio_output@@IAE_NAA_J@Z 10044830 f i libucrtd:output.obj
 0001:00043970       ??$extract_argument_from_va_list@G_J@?$positional_parameter_base@DV?$string_output_adapter@D@__crt_stdio_output@@@__crt_stdio_output@@IAE_NAA_J@Z 10044970 f i libucrtd:output.obj
 0001:00043ab0       ??$extract_argument_from_va_list@G_J@?$positional_parameter_base@_WV?$stream_output_adapter@_W@__crt_stdio_output@@@__crt_stdio_output@@IAE_NAA_J@Z 10044ab0 f i libucrtd:output.obj
 0001:00043bf0       ??$extract_argument_from_va_list@G_J@?$positional_parameter_base@_WV?$string_output_adapter@_W@__crt_stdio_output@@@__crt_stdio_output@@IAE_NAA_J@Z 10044bf0 f i libucrtd:output.obj
 0001:00043d30       ??$extract_argument_from_va_list@G_J@?$standard_base@DV?$stream_output_adapter@D@__crt_stdio_output@@@__crt_stdio_output@@IAE_NAA_J@Z 10044d30 f i libucrtd:output.obj
 0001:00043d60       ??$extract_argument_from_va_list@G_J@?$standard_base@DV?$string_output_adapter@D@__crt_stdio_output@@@__crt_stdio_output@@IAE_NAA_J@Z 10044d60 f i libucrtd:output.obj
 0001:00043d90       ??$extract_argument_from_va_list@G_J@?$standard_base@_WV?$stream_output_adapter@_W@__crt_stdio_output@@@__crt_stdio_output@@IAE_NAA_J@Z 10044d90 f i libucrtd:output.obj
 0001:00043dc0       ??$extract_argument_from_va_list@G_J@?$standard_base@_WV?$string_output_adapter@_W@__crt_stdio_output@@@__crt_stdio_output@@IAE_NAA_J@Z 10044dc0 f i libucrtd:output.obj
 0001:00043df0       ??$extract_argument_from_va_list@H_J@?$positional_parameter_base@DV?$stream_output_adapter@D@__crt_stdio_output@@@__crt_stdio_output@@IAE_NAA_J@Z 10044df0 f i libucrtd:output.obj
 0001:00043f20       ??$extract_argument_from_va_list@H_J@?$positional_parameter_base@DV?$string_output_adapter@D@__crt_stdio_output@@@__crt_stdio_output@@IAE_NAA_J@Z 10044f20 f i libucrtd:output.obj
 0001:00044050       ??$extract_argument_from_va_list@H_J@?$positional_parameter_base@_WV?$stream_output_adapter@_W@__crt_stdio_output@@@__crt_stdio_output@@IAE_NAA_J@Z 10045050 f i libucrtd:output.obj
 0001:00044180       ??$extract_argument_from_va_list@H_J@?$positional_parameter_base@_WV?$string_output_adapter@_W@__crt_stdio_output@@@__crt_stdio_output@@IAE_NAA_J@Z 10045180 f i libucrtd:output.obj
 0001:000442b0       ??$extract_argument_from_va_list@H_J@?$standard_base@DV?$stream_output_adapter@D@__crt_stdio_output@@@__crt_stdio_output@@IAE_NAA_J@Z 100452b0 f i libucrtd:output.obj
 0001:000442e0       ??$extract_argument_from_va_list@H_J@?$standard_base@DV?$string_output_adapter@D@__crt_stdio_output@@@__crt_stdio_output@@IAE_NAA_J@Z 100452e0 f i libucrtd:output.obj
 0001:00044310       ??$extract_argument_from_va_list@H_J@?$standard_base@_WV?$stream_output_adapter@_W@__crt_stdio_output@@@__crt_stdio_output@@IAE_NAA_J@Z 10045310 f i libucrtd:output.obj
 0001:00044340       ??$extract_argument_from_va_list@H_J@?$standard_base@_WV?$string_output_adapter@_W@__crt_stdio_output@@@__crt_stdio_output@@IAE_NAA_J@Z 10045340 f i libucrtd:output.obj
 0001:00044370       ??$extract_argument_from_va_list@I_J@?$positional_parameter_base@DV?$stream_output_adapter@D@__crt_stdio_output@@@__crt_stdio_output@@IAE_NAA_J@Z 10045370 f i libucrtd:output.obj
 0001:000444a0       ??$extract_argument_from_va_list@I_J@?$positional_parameter_base@DV?$string_output_adapter@D@__crt_stdio_output@@@__crt_stdio_output@@IAE_NAA_J@Z 100454a0 f i libucrtd:output.obj
 0001:000445d0       ??$extract_argument_from_va_list@I_J@?$positional_parameter_base@_WV?$stream_output_adapter@_W@__crt_stdio_output@@@__crt_stdio_output@@IAE_NAA_J@Z 100455d0 f i libucrtd:output.obj
 0001:00044700       ??$extract_argument_from_va_list@I_J@?$positional_parameter_base@_WV?$string_output_adapter@_W@__crt_stdio_output@@@__crt_stdio_output@@IAE_NAA_J@Z 10045700 f i libucrtd:output.obj
 0001:00044830       ??$extract_argument_from_va_list@I_J@?$standard_base@DV?$stream_output_adapter@D@__crt_stdio_output@@@__crt_stdio_output@@IAE_NAA_J@Z 10045830 f i libucrtd:output.obj
 0001:00044860       ??$extract_argument_from_va_list@I_J@?$standard_base@DV?$string_output_adapter@D@__crt_stdio_output@@@__crt_stdio_output@@IAE_NAA_J@Z 10045860 f i libucrtd:output.obj
 0001:00044890       ??$extract_argument_from_va_list@I_J@?$standard_base@_WV?$stream_output_adapter@_W@__crt_stdio_output@@@__crt_stdio_output@@IAE_NAA_J@Z 10045890 f i libucrtd:output.obj
 0001:000448c0       ??$extract_argument_from_va_list@I_J@?$standard_base@_WV?$string_output_adapter@_W@__crt_stdio_output@@@__crt_stdio_output@@IAE_NAA_J@Z 100458c0 f i libucrtd:output.obj
 0001:000448f0       ??$extract_argument_from_va_list@PADPAD@?$positional_parameter_base@DV?$stream_output_adapter@D@__crt_stdio_output@@@__crt_stdio_output@@IAE_NAAPAD@Z 100458f0 f i libucrtd:output.obj
 0001:00044a20       ??$extract_argument_from_va_list@PADPAD@?$positional_parameter_base@DV?$string_output_adapter@D@__crt_stdio_output@@@__crt_stdio_output@@IAE_NAAPAD@Z 10045a20 f i libucrtd:output.obj
 0001:00044b50       ??$extract_argument_from_va_list@PADPAD@?$positional_parameter_base@_WV?$stream_output_adapter@_W@__crt_stdio_output@@@__crt_stdio_output@@IAE_NAAPAD@Z 10045b50 f i libucrtd:output.obj
 0001:00044c80       ??$extract_argument_from_va_list@PADPAD@?$positional_parameter_base@_WV?$string_output_adapter@_W@__crt_stdio_output@@@__crt_stdio_output@@IAE_NAAPAD@Z 10045c80 f i libucrtd:output.obj
 0001:00044db0       ??$extract_argument_from_va_list@PADPAD@?$standard_base@DV?$stream_output_adapter@D@__crt_stdio_output@@@__crt_stdio_output@@IAE_NAAPAD@Z 10045db0 f i libucrtd:output.obj
 0001:00044de0       ??$extract_argument_from_va_list@PADPAD@?$standard_base@DV?$string_output_adapter@D@__crt_stdio_output@@@__crt_stdio_output@@IAE_NAAPAD@Z 10045de0 f i libucrtd:output.obj
 0001:00044e10       ??$extract_argument_from_va_list@PADPAD@?$standard_base@_WV?$stream_output_adapter@_W@__crt_stdio_output@@@__crt_stdio_output@@IAE_NAAPAD@Z 10045e10 f i libucrtd:output.obj
 0001:00044e40       ??$extract_argument_from_va_list@PADPAD@?$standard_base@_WV?$string_output_adapter@_W@__crt_stdio_output@@@__crt_stdio_output@@IAE_NAAPAD@Z 10045e40 f i libucrtd:output.obj
 0001:00044e70       ??$extract_argument_from_va_list@PAUansi_string@?1??type_case_Z@?$output_processor@DV?$stream_output_adapter@D@__crt_stdio_output@@V?$format_validation_base@DV?$stream_output_adapter@D@__crt_stdio_output@@@2@@__crt_stdio_output@@AAE_NXZ@PAU1?1??234@AAE_NXZ@@?$standard_base@DV?$stream_output_adapter@D@__crt_stdio_output@@@__crt_stdio_output@@IAE_NAAPAUansi_string@?1??type_case_Z@?$output_processor@DV?$stream_output_adapter@D@__crt_stdio_output@@V?$format_validation_base@DV?$stream_output_adapter@D@__crt_stdio_output@@@2@@1@AAE_NXZ@@Z 10045e70 f i libucrtd:output.obj
 0001:00044ea0       ??$extract_argument_from_va_list@PAUansi_string@?1??type_case_Z@?$output_processor@DV?$stream_output_adapter@D@__crt_stdio_output@@V?$positional_parameter_base@DV?$stream_output_adapter@D@__crt_stdio_output@@@2@@__crt_stdio_output@@AAE_NXZ@PAU1?1??234@AAE_NXZ@@?$positional_parameter_base@DV?$stream_output_adapter@D@__crt_stdio_output@@@__crt_stdio_output@@IAE_NAAPAUansi_string@?1??type_case_Z@?$output_processor@DV?$stream_output_adapter@D@__crt_stdio_output@@V?$positional_parameter_base@DV?$stream_output_adapter@D@__crt_stdio_output@@@2@@1@AAE_NXZ@@Z 10045ea0 f i libucrtd:output.obj
 0001:00044fd0       ??$extract_argument_from_va_list@PAUansi_string@?1??type_case_Z@?$output_processor@DV?$stream_output_adapter@D@__crt_stdio_output@@V?$positional_parameter_base@DV?$stream_output_adapter@D@__crt_stdio_output@@@2@@__crt_stdio_output@@AAE_NXZ@PAU1?1??234@AAE_NXZ@@?$standard_base@DV?$stream_output_adapter@D@__crt_stdio_output@@@__crt_stdio_output@@IAE_NAAPAUansi_string@?1??type_case_Z@?$output_processor@DV?$stream_output_adapter@D@__crt_stdio_output@@V?$positional_parameter_base@DV?$stream_output_adapter@D@__crt_stdio_output@@@2@@1@AAE_NXZ@@Z 10045fd0 f i libucrtd:output.obj
 0001:00045000       ??$extract_argument_from_va_list@PAUansi_string@?1??type_case_Z@?$output_processor@DV?$stream_output_adapter@D@__crt_stdio_output@@V?$standard_base@DV?$stream_output_adapter@D@__crt_stdio_output@@@2@@__crt_stdio_output@@AAE_NXZ@PAU1?1??234@AAE_NXZ@@?$standard_base@DV?$stream_output_adapter@D@__crt_stdio_output@@@__crt_stdio_output@@IAE_NAAPAUansi_string@?1??type_case_Z@?$output_processor@DV?$stream_output_adapter@D@__crt_stdio_output@@V?$standard_base@DV?$stream_output_adapter@D@__crt_stdio_output@@@2@@1@AAE_NXZ@@Z 10046000 f i libucrtd:output.obj
 0001:00045030       ??$extract_argument_from_va_list@PAUansi_string@?1??type_case_Z@?$output_processor@DV?$string_output_adapter@D@__crt_stdio_output@@V?$format_validation_base@DV?$string_output_adapter@D@__crt_stdio_output@@@2@@__crt_stdio_output@@AAE_NXZ@PAU1?1??234@AAE_NXZ@@?$standard_base@DV?$string_output_adapter@D@__crt_stdio_output@@@__crt_stdio_output@@IAE_NAAPAUansi_string@?1??type_case_Z@?$output_processor@DV?$string_output_adapter@D@__crt_stdio_output@@V?$format_validation_base@DV?$string_output_adapter@D@__crt_stdio_output@@@2@@1@AAE_NXZ@@Z 10046030 f i libucrtd:output.obj
 0001:00045060       ??$extract_argument_from_va_list@PAUansi_string@?1??type_case_Z@?$output_processor@DV?$string_output_adapter@D@__crt_stdio_output@@V?$positional_parameter_base@DV?$string_output_adapter@D@__crt_stdio_output@@@2@@__crt_stdio_output@@AAE_NXZ@PAU1?1??234@AAE_NXZ@@?$positional_parameter_base@DV?$string_output_adapter@D@__crt_stdio_output@@@__crt_stdio_output@@IAE_NAAPAUansi_string@?1??type_case_Z@?$output_processor@DV?$string_output_adapter@D@__crt_stdio_output@@V?$positional_parameter_base@DV?$string_output_adapter@D@__crt_stdio_output@@@2@@1@AAE_NXZ@@Z 10046060 f i libucrtd:output.obj
 0001:00045190       ??$extract_argument_from_va_list@PAUansi_string@?1??type_case_Z@?$output_processor@DV?$string_output_adapter@D@__crt_stdio_output@@V?$positional_parameter_base@DV?$string_output_adapter@D@__crt_stdio_output@@@2@@__crt_stdio_output@@AAE_NXZ@PAU1?1??234@AAE_NXZ@@?$standard_base@DV?$string_output_adapter@D@__crt_stdio_output@@@__crt_stdio_output@@IAE_NAAPAUansi_string@?1??type_case_Z@?$output_processor@DV?$string_output_adapter@D@__crt_stdio_output@@V?$positional_parameter_base@DV?$string_output_adapter@D@__crt_stdio_output@@@2@@1@AAE_NXZ@@Z 10046190 f i libucrtd:output.obj
 0001:000451c0       ??$extract_argument_from_va_list@PAUansi_string@?1??type_case_Z@?$output_processor@DV?$string_output_adapter@D@__crt_stdio_output@@V?$standard_base@DV?$string_output_adapter@D@__crt_stdio_output@@@2@@__crt_stdio_output@@AAE_NXZ@PAU1?1??234@AAE_NXZ@@?$standard_base@DV?$string_output_adapter@D@__crt_stdio_output@@@__crt_stdio_output@@IAE_NAAPAUansi_string@?1??type_case_Z@?$output_processor@DV?$string_output_adapter@D@__crt_stdio_output@@V?$standard_base@DV?$string_output_adapter@D@__crt_stdio_output@@@2@@1@AAE_NXZ@@Z 100461c0 f i libucrtd:output.obj
 0001:000451f0       ??$extract_argument_from_va_list@PAUansi_string@?1??type_case_Z@?$output_processor@_WV?$stream_output_adapter@_W@__crt_stdio_output@@V?$format_validation_base@_WV?$stream_output_adapter@_W@__crt_stdio_output@@@2@@__crt_stdio_output@@AAE_NXZ@PAU1?1??234@AAE_NXZ@@?$standard_base@_WV?$stream_output_adapter@_W@__crt_stdio_output@@@__crt_stdio_output@@IAE_NAAPAUansi_string@?1??type_case_Z@?$output_processor@_WV?$stream_output_adapter@_W@__crt_stdio_output@@V?$format_validation_base@_WV?$stream_output_adapter@_W@__crt_stdio_output@@@2@@1@AAE_NXZ@@Z 100461f0 f i libucrtd:output.obj
 0001:00045220       ??$extract_argument_from_va_list@PAUansi_string@?1??type_case_Z@?$output_processor@_WV?$stream_output_adapter@_W@__crt_stdio_output@@V?$positional_parameter_base@_WV?$stream_output_adapter@_W@__crt_stdio_output@@@2@@__crt_stdio_output@@AAE_NXZ@PAU1?1??234@AAE_NXZ@@?$positional_parameter_base@_WV?$stream_output_adapter@_W@__crt_stdio_output@@@__crt_stdio_output@@IAE_NAAPAUansi_string@?1??type_case_Z@?$output_processor@_WV?$stream_output_adapter@_W@__crt_stdio_output@@V?$positional_parameter_base@_WV?$stream_output_adapter@_W@__crt_stdio_output@@@2@@1@AAE_NXZ@@Z 10046220 f i libucrtd:output.obj
 0001:00045350       ??$extract_argument_from_va_list@PAUansi_string@?1??type_case_Z@?$output_processor@_WV?$stream_output_adapter@_W@__crt_stdio_output@@V?$positional_parameter_base@_WV?$stream_output_adapter@_W@__crt_stdio_output@@@2@@__crt_stdio_output@@AAE_NXZ@PAU1?1??234@AAE_NXZ@@?$standard_base@_WV?$stream_output_adapter@_W@__crt_stdio_output@@@__crt_stdio_output@@IAE_NAAPAUansi_string@?1??type_case_Z@?$output_processor@_WV?$stream_output_adapter@_W@__crt_stdio_output@@V?$positional_parameter_base@_WV?$stream_output_adapter@_W@__crt_stdio_output@@@2@@1@AAE_NXZ@@Z 10046350 f i libucrtd:output.obj
 0001:00045380       ??$extract_argument_from_va_list@PAUansi_string@?1??type_case_Z@?$output_processor@_WV?$stream_output_adapter@_W@__crt_stdio_output@@V?$standard_base@_WV?$stream_output_adapter@_W@__crt_stdio_output@@@2@@__crt_stdio_output@@AAE_NXZ@PAU1?1??234@AAE_NXZ@@?$standard_base@_WV?$stream_output_adapter@_W@__crt_stdio_output@@@__crt_stdio_output@@IAE_NAAPAUansi_string@?1??type_case_Z@?$output_processor@_WV?$stream_output_adapter@_W@__crt_stdio_output@@V?$standard_base@_WV?$stream_output_adapter@_W@__crt_stdio_output@@@2@@1@AAE_NXZ@@Z 10046380 f i libucrtd:output.obj
 0001:000453b0       ??$extract_argument_from_va_list@PAUansi_string@?1??type_case_Z@?$output_processor@_WV?$string_output_adapter@_W@__crt_stdio_output@@V?$format_validation_base@_WV?$string_output_adapter@_W@__crt_stdio_output@@@2@@__crt_stdio_output@@AAE_NXZ@PAU1?1??234@AAE_NXZ@@?$standard_base@_WV?$string_output_adapter@_W@__crt_stdio_output@@@__crt_stdio_output@@IAE_NAAPAUansi_string@?1??type_case_Z@?$output_processor@_WV?$string_output_adapter@_W@__crt_stdio_output@@V?$format_validation_base@_WV?$string_output_adapter@_W@__crt_stdio_output@@@2@@1@AAE_NXZ@@Z 100463b0 f i libucrtd:output.obj
 0001:000453e0       ??$extract_argument_from_va_list@PAUansi_string@?1??type_case_Z@?$output_processor@_WV?$string_output_adapter@_W@__crt_stdio_output@@V?$positional_parameter_base@_WV?$string_output_adapter@_W@__crt_stdio_output@@@2@@__crt_stdio_output@@AAE_NXZ@PAU1?1??234@AAE_NXZ@@?$positional_parameter_base@_WV?$string_output_adapter@_W@__crt_stdio_output@@@__crt_stdio_output@@IAE_NAAPAUansi_string@?1??type_case_Z@?$output_processor@_WV?$string_output_adapter@_W@__crt_stdio_output@@V?$positional_parameter_base@_WV?$string_output_adapter@_W@__crt_stdio_output@@@2@@1@AAE_NXZ@@Z 100463e0 f i libucrtd:output.obj
 0001:00045510       ??$extract_argument_from_va_list@PAUansi_string@?1??type_case_Z@?$output_processor@_WV?$string_output_adapter@_W@__crt_stdio_output@@V?$positional_parameter_base@_WV?$string_output_adapter@_W@__crt_stdio_output@@@2@@__crt_stdio_output@@AAE_NXZ@PAU1?1??234@AAE_NXZ@@?$standard_base@_WV?$string_output_adapter@_W@__crt_stdio_output@@@__crt_stdio_output@@IAE_NAAPAUansi_string@?1??type_case_Z@?$output_processor@_WV?$string_output_adapter@_W@__crt_stdio_output@@V?$positional_parameter_base@_WV?$string_output_adapter@_W@__crt_stdio_output@@@2@@1@AAE_NXZ@@Z 10046510 f i libucrtd:output.obj
 0001:00045540       ??$extract_argument_from_va_list@PAUansi_string@?1??type_case_Z@?$output_processor@_WV?$string_output_adapter@_W@__crt_stdio_output@@V?$standard_base@_WV?$string_output_adapter@_W@__crt_stdio_output@@@2@@__crt_stdio_output@@AAE_NXZ@PAU1?1??234@AAE_NXZ@@?$standard_base@_WV?$string_output_adapter@_W@__crt_stdio_output@@@__crt_stdio_output@@IAE_NAAPAUansi_string@?1??type_case_Z@?$output_processor@_WV?$string_output_adapter@_W@__crt_stdio_output@@V?$standard_base@_WV?$string_output_adapter@_W@__crt_stdio_output@@@2@@1@AAE_NXZ@@Z 10046540 f i libucrtd:output.obj
 0001:00045570       ??$extract_argument_from_va_list@PAXPAX@?$positional_parameter_base@DV?$stream_output_adapter@D@__crt_stdio_output@@@__crt_stdio_output@@IAE_NAAPAX@Z 10046570 f i libucrtd:output.obj
 0001:000456a0       ??$extract_argument_from_va_list@PAXPAX@?$positional_parameter_base@DV?$string_output_adapter@D@__crt_stdio_output@@@__crt_stdio_output@@IAE_NAAPAX@Z 100466a0 f i libucrtd:output.obj
 0001:000457d0       ??$extract_argument_from_va_list@PAXPAX@?$positional_parameter_base@_WV?$stream_output_adapter@_W@__crt_stdio_output@@@__crt_stdio_output@@IAE_NAAPAX@Z 100467d0 f i libucrtd:output.obj
 0001:00045900       ??$extract_argument_from_va_list@PAXPAX@?$positional_parameter_base@_WV?$string_output_adapter@_W@__crt_stdio_output@@@__crt_stdio_output@@IAE_NAAPAX@Z 10046900 f i libucrtd:output.obj
 0001:00045a30       ??$extract_argument_from_va_list@PAXPAX@?$standard_base@DV?$stream_output_adapter@D@__crt_stdio_output@@@__crt_stdio_output@@IAE_NAAPAX@Z 10046a30 f i libucrtd:output.obj
 0001:00045a60       ??$extract_argument_from_va_list@PAXPAX@?$standard_base@DV?$string_output_adapter@D@__crt_stdio_output@@@__crt_stdio_output@@IAE_NAAPAX@Z 10046a60 f i libucrtd:output.obj
 0001:00045a90       ??$extract_argument_from_va_list@PAXPAX@?$standard_base@_WV?$stream_output_adapter@_W@__crt_stdio_output@@@__crt_stdio_output@@IAE_NAAPAX@Z 10046a90 f i libucrtd:output.obj
 0001:00045ac0       ??$extract_argument_from_va_list@PAXPAX@?$standard_base@_WV?$string_output_adapter@_W@__crt_stdio_output@@@__crt_stdio_output@@IAE_NAAPAX@Z 10046ac0 f i libucrtd:output.obj
 0001:00045af0       ??$extract_argument_from_va_list@U_CRT_DOUBLE@@U1@@?$positional_parameter_base@DV?$stream_output_adapter@D@__crt_stdio_output@@@__crt_stdio_output@@IAE_NAAU_CRT_DOUBLE@@@Z 10046af0 f i libucrtd:output.obj
 0001:00045c50       ??$extract_argument_from_va_list@U_CRT_DOUBLE@@U1@@?$positional_parameter_base@DV?$string_output_adapter@D@__crt_stdio_output@@@__crt_stdio_output@@IAE_NAAU_CRT_DOUBLE@@@Z 10046c50 f i libucrtd:output.obj
 0001:00045db0       ??$extract_argument_from_va_list@U_CRT_DOUBLE@@U1@@?$positional_parameter_base@_WV?$stream_output_adapter@_W@__crt_stdio_output@@@__crt_stdio_output@@IAE_NAAU_CRT_DOUBLE@@@Z 10046db0 f i libucrtd:output.obj
 0001:00045f10       ??$extract_argument_from_va_list@U_CRT_DOUBLE@@U1@@?$positional_parameter_base@_WV?$string_output_adapter@_W@__crt_stdio_output@@@__crt_stdio_output@@IAE_NAAU_CRT_DOUBLE@@@Z 10046f10 f i libucrtd:output.obj
 0001:00046070       ??$extract_argument_from_va_list@U_CRT_DOUBLE@@U1@@?$standard_base@DV?$stream_output_adapter@D@__crt_stdio_output@@@__crt_stdio_output@@IAE_NAAU_CRT_DOUBLE@@@Z 10047070 f i libucrtd:output.obj
 0001:000460c0       ??$extract_argument_from_va_list@U_CRT_DOUBLE@@U1@@?$standard_base@DV?$string_output_adapter@D@__crt_stdio_output@@@__crt_stdio_output@@IAE_NAAU_CRT_DOUBLE@@@Z 100470c0 f i libucrtd:output.obj
 0001:00046110       ??$extract_argument_from_va_list@U_CRT_DOUBLE@@U1@@?$standard_base@_WV?$stream_output_adapter@_W@__crt_stdio_output@@@__crt_stdio_output@@IAE_NAAU_CRT_DOUBLE@@@Z 10047110 f i libucrtd:output.obj
 0001:00046160       ??$extract_argument_from_va_list@U_CRT_DOUBLE@@U1@@?$standard_base@_WV?$string_output_adapter@_W@__crt_stdio_output@@@__crt_stdio_output@@IAE_NAAU_CRT_DOUBLE@@@Z 10047160 f i libucrtd:output.obj
 0001:000461b0       ??$extract_argument_from_va_list@_J_J@?$positional_parameter_base@DV?$stream_output_adapter@D@__crt_stdio_output@@@__crt_stdio_output@@IAE_NAA_J@Z 100471b0 f i libucrtd:output.obj
 0001:000462e0       ??$extract_argument_from_va_list@_J_J@?$positional_parameter_base@DV?$string_output_adapter@D@__crt_stdio_output@@@__crt_stdio_output@@IAE_NAA_J@Z 100472e0 f i libucrtd:output.obj
 0001:00046410       ??$extract_argument_from_va_list@_J_J@?$positional_parameter_base@_WV?$stream_output_adapter@_W@__crt_stdio_output@@@__crt_stdio_output@@IAE_NAA_J@Z 10047410 f i libucrtd:output.obj
 0001:00046540       ??$extract_argument_from_va_list@_J_J@?$positional_parameter_base@_WV?$string_output_adapter@_W@__crt_stdio_output@@@__crt_stdio_output@@IAE_NAA_J@Z 10047540 f i libucrtd:output.obj
 0001:00046670       ??$extract_argument_from_va_list@_J_J@?$standard_base@DV?$stream_output_adapter@D@__crt_stdio_output@@@__crt_stdio_output@@IAE_NAA_J@Z 10047670 f i libucrtd:output.obj
 0001:000466a0       ??$extract_argument_from_va_list@_J_J@?$standard_base@DV?$string_output_adapter@D@__crt_stdio_output@@@__crt_stdio_output@@IAE_NAA_J@Z 100476a0 f i libucrtd:output.obj
 0001:000466d0       ??$extract_argument_from_va_list@_J_J@?$standard_base@_WV?$stream_output_adapter@_W@__crt_stdio_output@@@__crt_stdio_output@@IAE_NAA_J@Z 100476d0 f i libucrtd:output.obj
 0001:00046700       ??$extract_argument_from_va_list@_J_J@?$standard_base@_WV?$string_output_adapter@_W@__crt_stdio_output@@@__crt_stdio_output@@IAE_NAA_J@Z 10047700 f i libucrtd:output.obj
 0001:00046730       ??$extract_argument_from_va_list@_K_J@?$positional_parameter_base@DV?$stream_output_adapter@D@__crt_stdio_output@@@__crt_stdio_output@@IAE_NAA_J@Z 10047730 f i libucrtd:output.obj
 0001:00046860       ??$extract_argument_from_va_list@_K_J@?$positional_parameter_base@DV?$string_output_adapter@D@__crt_stdio_output@@@__crt_stdio_output@@IAE_NAA_J@Z 10047860 f i libucrtd:output.obj
 0001:00046990       ??$extract_argument_from_va_list@_K_J@?$positional_parameter_base@_WV?$stream_output_adapter@_W@__crt_stdio_output@@@__crt_stdio_output@@IAE_NAA_J@Z 10047990 f i libucrtd:output.obj
 0001:00046ac0       ??$extract_argument_from_va_list@_K_J@?$positional_parameter_base@_WV?$string_output_adapter@_W@__crt_stdio_output@@@__crt_stdio_output@@IAE_NAA_J@Z 10047ac0 f i libucrtd:output.obj
 0001:00046bf0       ??$extract_argument_from_va_list@_K_J@?$standard_base@DV?$stream_output_adapter@D@__crt_stdio_output@@@__crt_stdio_output@@IAE_NAA_J@Z 10047bf0 f i libucrtd:output.obj
 0001:00046c20       ??$extract_argument_from_va_list@_K_J@?$standard_base@DV?$string_output_adapter@D@__crt_stdio_output@@@__crt_stdio_output@@IAE_NAA_J@Z 10047c20 f i libucrtd:output.obj
 0001:00046c50       ??$extract_argument_from_va_list@_K_J@?$standard_base@_WV?$stream_output_adapter@_W@__crt_stdio_output@@@__crt_stdio_output@@IAE_NAA_J@Z 10047c50 f i libucrtd:output.obj
 0001:00046c80       ??$extract_argument_from_va_list@_K_J@?$standard_base@_WV?$string_output_adapter@_W@__crt_stdio_output@@@__crt_stdio_output@@IAE_NAA_J@Z 10047c80 f i libucrtd:output.obj
 0001:00046cb0       ??$extract_argument_from_va_list@_W_W@?$positional_parameter_base@DV?$stream_output_adapter@D@__crt_stdio_output@@@__crt_stdio_output@@IAE_NAA_W@Z 10047cb0 f i libucrtd:output.obj
 0001:00046de0       ??$extract_argument_from_va_list@_W_W@?$positional_parameter_base@DV?$string_output_adapter@D@__crt_stdio_output@@@__crt_stdio_output@@IAE_NAA_W@Z 10047de0 f i libucrtd:output.obj
 0001:00046f10       ??$extract_argument_from_va_list@_W_W@?$positional_parameter_base@_WV?$stream_output_adapter@_W@__crt_stdio_output@@@__crt_stdio_output@@IAE_NAA_W@Z 10047f10 f i libucrtd:output.obj
 0001:00047040       ??$extract_argument_from_va_list@_W_W@?$positional_parameter_base@_WV?$string_output_adapter@_W@__crt_stdio_output@@@__crt_stdio_output@@IAE_NAA_W@Z 10048040 f i libucrtd:output.obj
 0001:00047170       ??$extract_argument_from_va_list@_W_W@?$standard_base@DV?$stream_output_adapter@D@__crt_stdio_output@@@__crt_stdio_output@@IAE_NAA_W@Z 10048170 f i libucrtd:output.obj
 0001:000471a0       ??$extract_argument_from_va_list@_W_W@?$standard_base@DV?$string_output_adapter@D@__crt_stdio_output@@@__crt_stdio_output@@IAE_NAA_W@Z 100481a0 f i libucrtd:output.obj
 0001:000471d0       ??$extract_argument_from_va_list@_W_W@?$standard_base@_WV?$stream_output_adapter@_W@__crt_stdio_output@@@__crt_stdio_output@@IAE_NAA_W@Z 100481d0 f i libucrtd:output.obj
 0001:00047200       ??$extract_argument_from_va_list@_W_W@?$standard_base@_WV?$string_output_adapter@_W@__crt_stdio_output@@@__crt_stdio_output@@IAE_NAA_W@Z 10048200 f i libucrtd:output.obj
 0001:00047230       ??$get_parameter_type@D@?$positional_parameter_base@DV?$stream_output_adapter@D@__crt_stdio_output@@@__crt_stdio_output@@CA?AW4parameter_type@01@PAD@Z 10048230 f i libucrtd:output.obj
 0001:00047240       ??$get_parameter_type@D@?$positional_parameter_base@DV?$string_output_adapter@D@__crt_stdio_output@@@__crt_stdio_output@@CA?AW4parameter_type@01@PAD@Z 10048240 f i libucrtd:output.obj
 0001:00047250       ??$get_parameter_type@D@?$positional_parameter_base@_WV?$stream_output_adapter@_W@__crt_stdio_output@@@__crt_stdio_output@@CA?AW4parameter_type@01@PAD@Z 10048250 f i libucrtd:output.obj
 0001:00047260       ??$get_parameter_type@D@?$positional_parameter_base@_WV?$string_output_adapter@_W@__crt_stdio_output@@@__crt_stdio_output@@CA?AW4parameter_type@01@PAD@Z 10048260 f i libucrtd:output.obj
 0001:00047270       ??$get_parameter_type@Uansi_string@?1??type_case_Z@?$output_processor@DV?$stream_output_adapter@D@__crt_stdio_output@@V?$positional_parameter_base@DV?$stream_output_adapter@D@__crt_stdio_output@@@2@@__crt_stdio_output@@AAE_NXZ@@?$positional_parameter_base@DV?$stream_output_adapter@D@__crt_stdio_output@@@__crt_stdio_output@@CA?AW4parameter_type@01@PAUansi_string@?1??type_case_Z@?$output_processor@DV?$stream_output_adapter@D@__crt_stdio_output@@V?$positional_parameter_base@DV?$stream_output_adapter@D@__crt_stdio_output@@@2@@1@AAE_NXZ@@Z 10048270 f i libucrtd:output.obj
 0001:00047280       ??$get_parameter_type@Uansi_string@?1??type_case_Z@?$output_processor@DV?$string_output_adapter@D@__crt_stdio_output@@V?$positional_parameter_base@DV?$string_output_adapter@D@__crt_stdio_output@@@2@@__crt_stdio_output@@AAE_NXZ@@?$positional_parameter_base@DV?$string_output_adapter@D@__crt_stdio_output@@@__crt_stdio_output@@CA?AW4parameter_type@01@PAUansi_string@?1??type_case_Z@?$output_processor@DV?$string_output_adapter@D@__crt_stdio_output@@V?$positional_parameter_base@DV?$string_output_adapter@D@__crt_stdio_output@@@2@@1@AAE_NXZ@@Z 10048280 f i libucrtd:output.obj
 0001:00047290       ??$get_parameter_type@Uansi_string@?1??type_case_Z@?$output_processor@_WV?$stream_output_adapter@_W@__crt_stdio_output@@V?$positional_parameter_base@_WV?$stream_output_adapter@_W@__crt_stdio_output@@@2@@__crt_stdio_output@@AAE_NXZ@@?$positional_parameter_base@_WV?$stream_output_adapter@_W@__crt_stdio_output@@@__crt_stdio_output@@CA?AW4parameter_type@01@PAUansi_string@?1??type_case_Z@?$output_processor@_WV?$stream_output_adapter@_W@__crt_stdio_output@@V?$positional_parameter_base@_WV?$stream_output_adapter@_W@__crt_stdio_output@@@2@@1@AAE_NXZ@@Z 10048290 f i libucrtd:output.obj
 0001:000472a0       ??$get_parameter_type@Uansi_string@?1??type_case_Z@?$output_processor@_WV?$string_output_adapter@_W@__crt_stdio_output@@V?$positional_parameter_base@_WV?$string_output_adapter@_W@__crt_stdio_output@@@2@@__crt_stdio_output@@AAE_NXZ@@?$positional_parameter_base@_WV?$string_output_adapter@_W@__crt_stdio_output@@@__crt_stdio_output@@CA?AW4parameter_type@01@PAUansi_string@?1??type_case_Z@?$output_processor@_WV?$string_output_adapter@_W@__crt_stdio_output@@V?$positional_parameter_base@_WV?$string_output_adapter@_W@__crt_stdio_output@@@2@@1@AAE_NXZ@@Z 100482a0 f i libucrtd:output.obj
 0001:000472b0       ??$get_parameter_type@X@?$positional_parameter_base@DV?$stream_output_adapter@D@__crt_stdio_output@@@__crt_stdio_output@@CA?AW4parameter_type@01@PAX@Z 100482b0 f i libucrtd:output.obj
 0001:000472c0       ??$get_parameter_type@X@?$positional_parameter_base@DV?$string_output_adapter@D@__crt_stdio_output@@@__crt_stdio_output@@CA?AW4parameter_type@01@PAX@Z 100482c0 f i libucrtd:output.obj
 0001:000472d0       ??$get_parameter_type@X@?$positional_parameter_base@_WV?$stream_output_adapter@_W@__crt_stdio_output@@@__crt_stdio_output@@CA?AW4parameter_type@01@PAX@Z 100482d0 f i libucrtd:output.obj
 0001:000472e0       ??$get_parameter_type@X@?$positional_parameter_base@_WV?$string_output_adapter@_W@__crt_stdio_output@@@__crt_stdio_output@@CA?AW4parameter_type@01@PAX@Z 100482e0 f i libucrtd:output.obj
 0001:000472f0       ??$is_character_specifier@D@?$positional_parameter_base@DV?$stream_output_adapter@D@__crt_stdio_output@@@__crt_stdio_output@@CA_ND@Z 100482f0 f i libucrtd:output.obj
 0001:00047320       ??$is_character_specifier@D@?$positional_parameter_base@DV?$string_output_adapter@D@__crt_stdio_output@@@__crt_stdio_output@@CA_ND@Z 10048320 f i libucrtd:output.obj
 0001:00047350       ??$is_character_specifier@_W@?$positional_parameter_base@_WV?$stream_output_adapter@_W@__crt_stdio_output@@@__crt_stdio_output@@CA_N_W@Z 10048350 f i libucrtd:output.obj
 0001:00047380       ??$is_character_specifier@_W@?$positional_parameter_base@_WV?$string_output_adapter@_W@__crt_stdio_output@@@__crt_stdio_output@@CA_N_W@Z 10048380 f i libucrtd:output.obj
 0001:000473b0       ??$is_integral_specifier@D@?$positional_parameter_base@DV?$stream_output_adapter@D@__crt_stdio_output@@@__crt_stdio_output@@CA_ND@Z 100483b0 f i libucrtd:output.obj
 0001:00047410       ??$is_integral_specifier@D@?$positional_parameter_base@DV?$string_output_adapter@D@__crt_stdio_output@@@__crt_stdio_output@@CA_ND@Z 10048410 f i libucrtd:output.obj
 0001:00047470       ??$is_integral_specifier@_W@?$positional_parameter_base@_WV?$stream_output_adapter@_W@__crt_stdio_output@@@__crt_stdio_output@@CA_N_W@Z 10048470 f i libucrtd:output.obj
 0001:000474d0       ??$is_integral_specifier@_W@?$positional_parameter_base@_WV?$string_output_adapter@_W@__crt_stdio_output@@@__crt_stdio_output@@CA_N_W@Z 100484d0 f i libucrtd:output.obj
 0001:00047530       ??$is_pointer_specifier@D@?$positional_parameter_base@DV?$stream_output_adapter@D@__crt_stdio_output@@@__crt_stdio_output@@CA_ND@Z 10048530 f i libucrtd:output.obj
 0001:00047560       ??$is_pointer_specifier@D@?$positional_parameter_base@DV?$string_output_adapter@D@__crt_stdio_output@@@__crt_stdio_output@@CA_ND@Z 10048560 f i libucrtd:output.obj
 0001:00047590       ??$is_pointer_specifier@_W@?$positional_parameter_base@_WV?$stream_output_adapter@_W@__crt_stdio_output@@@__crt_stdio_output@@CA_N_W@Z 10048590 f i libucrtd:output.obj
 0001:000475c0       ??$is_pointer_specifier@_W@?$positional_parameter_base@_WV?$string_output_adapter@_W@__crt_stdio_output@@@__crt_stdio_output@@CA_N_W@Z 100485c0 f i libucrtd:output.obj
 0001:000475f0       ??$is_string_specifier@D@?$positional_parameter_base@DV?$stream_output_adapter@D@__crt_stdio_output@@@__crt_stdio_output@@CA_ND@Z 100485f0 f i libucrtd:output.obj
 0001:00047620       ??$is_string_specifier@D@?$positional_parameter_base@DV?$string_output_adapter@D@__crt_stdio_output@@@__crt_stdio_output@@CA_ND@Z 10048620 f i libucrtd:output.obj
 0001:00047650       ??$is_string_specifier@_W@?$positional_parameter_base@_WV?$stream_output_adapter@_W@__crt_stdio_output@@@__crt_stdio_output@@CA_N_W@Z 10048650 f i libucrtd:output.obj
 0001:00047680       ??$is_string_specifier@_W@?$positional_parameter_base@_WV?$string_output_adapter@_W@__crt_stdio_output@@@__crt_stdio_output@@CA_N_W@Z 10048680 f i libucrtd:output.obj
 0001:000476b0       ??$is_wide_character_specifier@D@__crt_stdio_output@@YA_N_KDW4length_modifier@0@@Z 100486b0 f i libucrtd:output.obj
 0001:00047730       ??$is_wide_character_specifier@_W@__crt_stdio_output@@YA_N_K_WW4length_modifier@0@@Z 10048730 f i libucrtd:output.obj
 0001:000477f0       ??$peek_va_arg@C@__crt_stdio_output@@YACPAD@Z 100487f0 f i libucrtd:output.obj
 0001:00047810       ??$peek_va_arg@E@__crt_stdio_output@@YAEPAD@Z 10048810 f i libucrtd:output.obj
 0001:00047830       ??$peek_va_arg@F@__crt_stdio_output@@YAFPAD@Z 10048830 f i libucrtd:output.obj
 0001:00047850       ??$peek_va_arg@G@__crt_stdio_output@@YAGPAD@Z 10048850 f i libucrtd:output.obj
 0001:00047870       ??$peek_va_arg@H@__crt_stdio_output@@YAHPAD@Z 10048870 f i libucrtd:output.obj
 0001:00047890       ??$peek_va_arg@I@__crt_stdio_output@@YAIPAD@Z 10048890 f i libucrtd:output.obj
 0001:000478b0       ??$peek_va_arg@PAD@__crt_stdio_output@@YAPADPAD@Z 100488b0 f i libucrtd:output.obj
 0001:000478d0       ??$peek_va_arg@PAUansi_string@?1??type_case_Z@?$output_processor@DV?$stream_output_adapter@D@__crt_stdio_output@@V?$positional_parameter_base@DV?$stream_output_adapter@D@__crt_stdio_output@@@2@@__crt_stdio_output@@AAE_NXZ@@__crt_stdio_output@@YAPAUansi_string@?1??type_case_Z@?$output_processor@DV?$stream_output_adapter@D@__crt_stdio_output@@V?$positional_parameter_base@DV?$stream_output_adapter@D@__crt_stdio_output@@@2@@0@AAE_NXZ@PAD@Z 100488d0 f i libucrtd:output.obj
 0001:000478f0       ??$peek_va_arg@PAUansi_string@?1??type_case_Z@?$output_processor@DV?$string_output_adapter@D@__crt_stdio_output@@V?$positional_parameter_base@DV?$string_output_adapter@D@__crt_stdio_output@@@2@@__crt_stdio_output@@AAE_NXZ@@__crt_stdio_output@@YAPAUansi_string@?1??type_case_Z@?$output_processor@DV?$string_output_adapter@D@__crt_stdio_output@@V?$positional_parameter_base@DV?$string_output_adapter@D@__crt_stdio_output@@@2@@0@AAE_NXZ@PAD@Z 100488f0 f i libucrtd:output.obj
 0001:00047910       ??$peek_va_arg@PAUansi_string@?1??type_case_Z@?$output_processor@_WV?$stream_output_adapter@_W@__crt_stdio_output@@V?$positional_parameter_base@_WV?$stream_output_adapter@_W@__crt_stdio_output@@@2@@__crt_stdio_output@@AAE_NXZ@@__crt_stdio_output@@YAPAUansi_string@?1??type_case_Z@?$output_processor@_WV?$stream_output_adapter@_W@__crt_stdio_output@@V?$positional_parameter_base@_WV?$stream_output_adapter@_W@__crt_stdio_output@@@2@@0@AAE_NXZ@PAD@Z 10048910 f i libucrtd:output.obj
 0001:00047930       ??$peek_va_arg@PAUansi_string@?1??type_case_Z@?$output_processor@_WV?$string_output_adapter@_W@__crt_stdio_output@@V?$positional_parameter_base@_WV?$string_output_adapter@_W@__crt_stdio_output@@@2@@__crt_stdio_output@@AAE_NXZ@@__crt_stdio_output@@YAPAUansi_string@?1??type_case_Z@?$output_processor@_WV?$string_output_adapter@_W@__crt_stdio_output@@V?$positional_parameter_base@_WV?$string_output_adapter@_W@__crt_stdio_output@@@2@@0@AAE_NXZ@PAD@Z 10048930 f i libucrtd:output.obj
 0001:00047950       ??$peek_va_arg@PAX@__crt_stdio_output@@YAPAXPAD@Z 10048950 f i libucrtd:output.obj
 0001:00047970       ??$peek_va_arg@U_CRT_DOUBLE@@@__crt_stdio_output@@YA?AU_CRT_DOUBLE@@PAD@Z 10048970 f i libucrtd:output.obj
 0001:00047990       ??$peek_va_arg@_J@__crt_stdio_output@@YA_JPAD@Z 10048990 f i libucrtd:output.obj
 0001:000479b0       ??$peek_va_arg@_K@__crt_stdio_output@@YA_KPAD@Z 100489b0 f i libucrtd:output.obj
 0001:000479d0       ??$peek_va_arg@_W@__crt_stdio_output@@YA_WPAD@Z 100489d0 f i libucrtd:output.obj
 0001:000479f0       ??$puttc_nolock@ABDPAU_iobuf@@@?$__crt_char_traits@D@@SAHABD$$QAPAU_iobuf@@@Z 100489f0 f i libucrtd:output.obj
 0001:00047a10       ??$puttc_nolock@AB_WPAU_iobuf@@@?$__crt_char_traits@_W@@SAGAB_W$$QAPAU_iobuf@@@Z 10048a10 f i libucrtd:output.obj
 0001:00047a30       ??$read_va_arg@C@__crt_stdio_output@@YACAAPAD@Z 10048a30 f i libucrtd:output.obj
 0001:00047a50       ??$read_va_arg@E@__crt_stdio_output@@YAEAAPAD@Z 10048a50 f i libucrtd:output.obj
 0001:00047a70       ??$read_va_arg@F@__crt_stdio_output@@YAFAAPAD@Z 10048a70 f i libucrtd:output.obj
 0001:00047a90       ??$read_va_arg@G@__crt_stdio_output@@YAGAAPAD@Z 10048a90 f i libucrtd:output.obj
 0001:00047ab0       ??$read_va_arg@H@__crt_stdio_output@@YAHAAPAD@Z 10048ab0 f i libucrtd:output.obj
 0001:00047ad0       ??$read_va_arg@I@__crt_stdio_output@@YAIAAPAD@Z 10048ad0 f i libucrtd:output.obj
 0001:00047af0       ??$read_va_arg@PAD@__crt_stdio_output@@YAPADAAPAD@Z 10048af0 f i libucrtd:output.obj
 0001:00047b10       ??$read_va_arg@PAUansi_string@?1??type_case_Z@?$output_processor@DV?$stream_output_adapter@D@__crt_stdio_output@@V?$format_validation_base@DV?$stream_output_adapter@D@__crt_stdio_output@@@2@@__crt_stdio_output@@AAE_NXZ@@__crt_stdio_output@@YAPAUansi_string@?1??type_case_Z@?$output_processor@DV?$stream_output_adapter@D@__crt_stdio_output@@V?$format_validation_base@DV?$stream_output_adapter@D@__crt_stdio_output@@@2@@0@AAE_NXZ@AAPAD@Z 10048b10 f i libucrtd:output.obj
 0001:00047b30       ??$read_va_arg@PAUansi_string@?1??type_case_Z@?$output_processor@DV?$stream_output_adapter@D@__crt_stdio_output@@V?$positional_parameter_base@DV?$stream_output_adapter@D@__crt_stdio_output@@@2@@__crt_stdio_output@@AAE_NXZ@@__crt_stdio_output@@YAPAUansi_string@?1??type_case_Z@?$output_processor@DV?$stream_output_adapter@D@__crt_stdio_output@@V?$positional_parameter_base@DV?$stream_output_adapter@D@__crt_stdio_output@@@2@@0@AAE_NXZ@AAPAD@Z 10048b30 f i libucrtd:output.obj
 0001:00047b50       ??$read_va_arg@PAUansi_string@?1??type_case_Z@?$output_processor@DV?$stream_output_adapter@D@__crt_stdio_output@@V?$standard_base@DV?$stream_output_adapter@D@__crt_stdio_output@@@2@@__crt_stdio_output@@AAE_NXZ@@__crt_stdio_output@@YAPAUansi_string@?1??type_case_Z@?$output_processor@DV?$stream_output_adapter@D@__crt_stdio_output@@V?$standard_base@DV?$stream_output_adapter@D@__crt_stdio_output@@@2@@0@AAE_NXZ@AAPAD@Z 10048b50 f i libucrtd:output.obj
 0001:00047b70       ??$read_va_arg@PAUansi_string@?1??type_case_Z@?$output_processor@DV?$string_output_adapter@D@__crt_stdio_output@@V?$format_validation_base@DV?$string_output_adapter@D@__crt_stdio_output@@@2@@__crt_stdio_output@@AAE_NXZ@@__crt_stdio_output@@YAPAUansi_string@?1??type_case_Z@?$output_processor@DV?$string_output_adapter@D@__crt_stdio_output@@V?$format_validation_base@DV?$string_output_adapter@D@__crt_stdio_output@@@2@@0@AAE_NXZ@AAPAD@Z 10048b70 f i libucrtd:output.obj
 0001:00047b90       ??$read_va_arg@PAUansi_string@?1??type_case_Z@?$output_processor@DV?$string_output_adapter@D@__crt_stdio_output@@V?$positional_parameter_base@DV?$string_output_adapter@D@__crt_stdio_output@@@2@@__crt_stdio_output@@AAE_NXZ@@__crt_stdio_output@@YAPAUansi_string@?1??type_case_Z@?$output_processor@DV?$string_output_adapter@D@__crt_stdio_output@@V?$positional_parameter_base@DV?$string_output_adapter@D@__crt_stdio_output@@@2@@0@AAE_NXZ@AAPAD@Z 10048b90 f i libucrtd:output.obj
 0001:00047bb0       ??$read_va_arg@PAUansi_string@?1??type_case_Z@?$output_processor@DV?$string_output_adapter@D@__crt_stdio_output@@V?$standard_base@DV?$string_output_adapter@D@__crt_stdio_output@@@2@@__crt_stdio_output@@AAE_NXZ@@__crt_stdio_output@@YAPAUansi_string@?1??type_case_Z@?$output_processor@DV?$string_output_adapter@D@__crt_stdio_output@@V?$standard_base@DV?$string_output_adapter@D@__crt_stdio_output@@@2@@0@AAE_NXZ@AAPAD@Z 10048bb0 f i libucrtd:output.obj
 0001:00047bd0       ??$read_va_arg@PAUansi_string@?1??type_case_Z@?$output_processor@_WV?$stream_output_adapter@_W@__crt_stdio_output@@V?$format_validation_base@_WV?$stream_output_adapter@_W@__crt_stdio_output@@@2@@__crt_stdio_output@@AAE_NXZ@@__crt_stdio_output@@YAPAUansi_string@?1??type_case_Z@?$output_processor@_WV?$stream_output_adapter@_W@__crt_stdio_output@@V?$format_validation_base@_WV?$stream_output_adapter@_W@__crt_stdio_output@@@2@@0@AAE_NXZ@AAPAD@Z 10048bd0 f i libucrtd:output.obj
 0001:00047bf0       ??$read_va_arg@PAUansi_string@?1??type_case_Z@?$output_processor@_WV?$stream_output_adapter@_W@__crt_stdio_output@@V?$positional_parameter_base@_WV?$stream_output_adapter@_W@__crt_stdio_output@@@2@@__crt_stdio_output@@AAE_NXZ@@__crt_stdio_output@@YAPAUansi_string@?1??type_case_Z@?$output_processor@_WV?$stream_output_adapter@_W@__crt_stdio_output@@V?$positional_parameter_base@_WV?$stream_output_adapter@_W@__crt_stdio_output@@@2@@0@AAE_NXZ@AAPAD@Z 10048bf0 f i libucrtd:output.obj
 0001:00047c10       ??$read_va_arg@PAUansi_string@?1??type_case_Z@?$output_processor@_WV?$stream_output_adapter@_W@__crt_stdio_output@@V?$standard_base@_WV?$stream_output_adapter@_W@__crt_stdio_output@@@2@@__crt_stdio_output@@AAE_NXZ@@__crt_stdio_output@@YAPAUansi_string@?1??type_case_Z@?$output_processor@_WV?$stream_output_adapter@_W@__crt_stdio_output@@V?$standard_base@_WV?$stream_output_adapter@_W@__crt_stdio_output@@@2@@0@AAE_NXZ@AAPAD@Z 10048c10 f i libucrtd:output.obj
 0001:00047c30       ??$read_va_arg@PAUansi_string@?1??type_case_Z@?$output_processor@_WV?$string_output_adapter@_W@__crt_stdio_output@@V?$format_validation_base@_WV?$string_output_adapter@_W@__crt_stdio_output@@@2@@__crt_stdio_output@@AAE_NXZ@@__crt_stdio_output@@YAPAUansi_string@?1??type_case_Z@?$output_processor@_WV?$string_output_adapter@_W@__crt_stdio_output@@V?$format_validation_base@_WV?$string_output_adapter@_W@__crt_stdio_output@@@2@@0@AAE_NXZ@AAPAD@Z 10048c30 f i libucrtd:output.obj
 0001:00047c50       ??$read_va_arg@PAUansi_string@?1??type_case_Z@?$output_processor@_WV?$string_output_adapter@_W@__crt_stdio_output@@V?$positional_parameter_base@_WV?$string_output_adapter@_W@__crt_stdio_output@@@2@@__crt_stdio_output@@AAE_NXZ@@__crt_stdio_output@@YAPAUansi_string@?1??type_case_Z@?$output_processor@_WV?$string_output_adapter@_W@__crt_stdio_output@@V?$positional_parameter_base@_WV?$string_output_adapter@_W@__crt_stdio_output@@@2@@0@AAE_NXZ@AAPAD@Z 10048c50 f i libucrtd:output.obj
 0001:00047c70       ??$read_va_arg@PAUansi_string@?1??type_case_Z@?$output_processor@_WV?$string_output_adapter@_W@__crt_stdio_output@@V?$standard_base@_WV?$string_output_adapter@_W@__crt_stdio_output@@@2@@__crt_stdio_output@@AAE_NXZ@@__crt_stdio_output@@YAPAUansi_string@?1??type_case_Z@?$output_processor@_WV?$string_output_adapter@_W@__crt_stdio_output@@V?$standard_base@_WV?$string_output_adapter@_W@__crt_stdio_output@@@2@@0@AAE_NXZ@AAPAD@Z 10048c70 f i libucrtd:output.obj
 0001:00047c90       ??$read_va_arg@PAX@__crt_stdio_output@@YAPAXAAPAD@Z 10048c90 f i libucrtd:output.obj
 0001:00047cb0       ??$read_va_arg@U_CRT_DOUBLE@@@__crt_stdio_output@@YA?AU_CRT_DOUBLE@@AAPAD@Z 10048cb0 f i libucrtd:output.obj
 0001:00047cd0       ??$read_va_arg@_J@__crt_stdio_output@@YA_JAAPAD@Z 10048cd0 f i libucrtd:output.obj
 0001:00047cf0       ??$read_va_arg@_K@__crt_stdio_output@@YA_KAAPAD@Z 10048cf0 f i libucrtd:output.obj
 0001:00047d10       ??$read_va_arg@_W@__crt_stdio_output@@YA_WAAPAD@Z 10048d10 f i libucrtd:output.obj
 0001:00047d30       ??$scratch_count@D@formatting_buffer@__crt_stdio_output@@QBEIXZ 10048d30 f i libucrtd:output.obj
 0001:00047d50       ??$scratch_data@D@formatting_buffer@__crt_stdio_output@@QAEPADXZ 10048d50 f i libucrtd:output.obj
 0001:00047da0       ??$tcstol@AAPBDPAPADH@?$__crt_char_traits@D@@SAJAAPBD$$QAPAPAD$$QAH@Z 10048da0 f i libucrtd:output.obj
 0001:00047dd0       ??$tcstol@AAPB_WPAPA_WH@?$__crt_char_traits@_W@@SAJAAPB_W$$QAPAPA_W$$QAH@Z 10048dd0 f i libucrtd:output.obj
 0001:00047e00       ??$tcstol@PBDPAPADH@?$__crt_char_traits@D@@SAJ$$QAPBD$$QAPAPAD$$QAH@Z 10048e00 f i libucrtd:output.obj
 0001:00047e30       ??$tcstol@PB_WPAPA_WH@?$__crt_char_traits@_W@@SAJ$$QAPB_W$$QAPAPA_W$$QAH@Z 10048e30 f i libucrtd:output.obj
 0001:00047e60       ??$type_case_integer_parse_into_buffer@I@?$output_processor@DV?$stream_output_adapter@D@__crt_stdio_output@@V?$format_validation_base@DV?$stream_output_adapter@D@__crt_stdio_output@@@2@@__crt_stdio_output@@AAEXII_N@Z 10048e60 f i libucrtd:output.obj
 0001:00047f30       ??$type_case_integer_parse_into_buffer@I@?$output_processor@DV?$stream_output_adapter@D@__crt_stdio_output@@V?$positional_parameter_base@DV?$stream_output_adapter@D@__crt_stdio_output@@@2@@__crt_stdio_output@@AAEXII_N@Z 10048f30 f i libucrtd:output.obj
 0001:00048000       ??$type_case_integer_parse_into_buffer@I@?$output_processor@DV?$stream_output_adapter@D@__crt_stdio_output@@V?$standard_base@DV?$stream_output_adapter@D@__crt_stdio_output@@@2@@__crt_stdio_output@@AAEXII_N@Z 10049000 f i libucrtd:output.obj
 0001:000480d0       ??$type_case_integer_parse_into_buffer@I@?$output_processor@DV?$string_output_adapter@D@__crt_stdio_output@@V?$format_validation_base@DV?$string_output_adapter@D@__crt_stdio_output@@@2@@__crt_stdio_output@@AAEXII_N@Z 100490d0 f i libucrtd:output.obj
 0001:000481a0       ??$type_case_integer_parse_into_buffer@I@?$output_processor@DV?$string_output_adapter@D@__crt_stdio_output@@V?$positional_parameter_base@DV?$string_output_adapter@D@__crt_stdio_output@@@2@@__crt_stdio_output@@AAEXII_N@Z 100491a0 f i libucrtd:output.obj
 0001:00048270       ??$type_case_integer_parse_into_buffer@I@?$output_processor@DV?$string_output_adapter@D@__crt_stdio_output@@V?$standard_base@DV?$string_output_adapter@D@__crt_stdio_output@@@2@@__crt_stdio_output@@AAEXII_N@Z 10049270 f i libucrtd:output.obj
 0001:00048340       ??$type_case_integer_parse_into_buffer@I@?$output_processor@_WV?$stream_output_adapter@_W@__crt_stdio_output@@V?$format_validation_base@_WV?$stream_output_adapter@_W@__crt_stdio_output@@@2@@__crt_stdio_output@@AAEXII_N@Z 10049340 f i libucrtd:output.obj
 0001:00048420       ??$type_case_integer_parse_into_buffer@I@?$output_processor@_WV?$stream_output_adapter@_W@__crt_stdio_output@@V?$positional_parameter_base@_WV?$stream_output_adapter@_W@__crt_stdio_output@@@2@@__crt_stdio_output@@AAEXII_N@Z 10049420 f i libucrtd:output.obj
 0001:00048500       ??$type_case_integer_parse_into_buffer@I@?$output_processor@_WV?$stream_output_adapter@_W@__crt_stdio_output@@V?$standard_base@_WV?$stream_output_adapter@_W@__crt_stdio_output@@@2@@__crt_stdio_output@@AAEXII_N@Z 10049500 f i libucrtd:output.obj
 0001:000485e0       ??$type_case_integer_parse_into_buffer@I@?$output_processor@_WV?$string_output_adapter@_W@__crt_stdio_output@@V?$format_validation_base@_WV?$string_output_adapter@_W@__crt_stdio_output@@@2@@__crt_stdio_output@@AAEXII_N@Z 100495e0 f i libucrtd:output.obj
 0001:000486c0       ??$type_case_integer_parse_into_buffer@I@?$output_processor@_WV?$string_output_adapter@_W@__crt_stdio_output@@V?$positional_parameter_base@_WV?$string_output_adapter@_W@__crt_stdio_output@@@2@@__crt_stdio_output@@AAEXII_N@Z 100496c0 f i libucrtd:output.obj
 0001:000487a0       ??$type_case_integer_parse_into_buffer@I@?$output_processor@_WV?$string_output_adapter@_W@__crt_stdio_output@@V?$standard_base@_WV?$string_output_adapter@_W@__crt_stdio_output@@@2@@__crt_stdio_output@@AAEXII_N@Z 100497a0 f i libucrtd:output.obj
 0001:00048880       ??$type_case_integer_parse_into_buffer@_K@?$output_processor@DV?$stream_output_adapter@D@__crt_stdio_output@@V?$format_validation_base@DV?$stream_output_adapter@D@__crt_stdio_output@@@2@@__crt_stdio_output@@AAEX_KI_N@Z 10049880 f i libucrtd:output.obj
 0001:00048970       ??$type_case_integer_parse_into_buffer@_K@?$output_processor@DV?$stream_output_adapter@D@__crt_stdio_output@@V?$positional_parameter_base@DV?$stream_output_adapter@D@__crt_stdio_output@@@2@@__crt_stdio_output@@AAEX_KI_N@Z 10049970 f i libucrtd:output.obj
 0001:00048a60       ??$type_case_integer_parse_into_buffer@_K@?$output_processor@DV?$stream_output_adapter@D@__crt_stdio_output@@V?$standard_base@DV?$stream_output_adapter@D@__crt_stdio_output@@@2@@__crt_stdio_output@@AAEX_KI_N@Z 10049a60 f i libucrtd:output.obj
 0001:00048b50       ??$type_case_integer_parse_into_buffer@_K@?$output_processor@DV?$string_output_adapter@D@__crt_stdio_output@@V?$format_validation_base@DV?$string_output_adapter@D@__crt_stdio_output@@@2@@__crt_stdio_output@@AAEX_KI_N@Z 10049b50 f i libucrtd:output.obj
 0001:00048c40       ??$type_case_integer_parse_into_buffer@_K@?$output_processor@DV?$string_output_adapter@D@__crt_stdio_output@@V?$positional_parameter_base@DV?$string_output_adapter@D@__crt_stdio_output@@@2@@__crt_stdio_output@@AAEX_KI_N@Z 10049c40 f i libucrtd:output.obj
 0001:00048d30       ??$type_case_integer_parse_into_buffer@_K@?$output_processor@DV?$string_output_adapter@D@__crt_stdio_output@@V?$standard_base@DV?$string_output_adapter@D@__crt_stdio_output@@@2@@__crt_stdio_output@@AAEX_KI_N@Z 10049d30 f i libucrtd:output.obj
 0001:00048e20       ??$type_case_integer_parse_into_buffer@_K@?$output_processor@_WV?$stream_output_adapter@_W@__crt_stdio_output@@V?$format_validation_base@_WV?$stream_output_adapter@_W@__crt_stdio_output@@@2@@__crt_stdio_output@@AAEX_KI_N@Z 10049e20 f i libucrtd:output.obj
 0001:00048f20       ??$type_case_integer_parse_into_buffer@_K@?$output_processor@_WV?$stream_output_adapter@_W@__crt_stdio_output@@V?$positional_parameter_base@_WV?$stream_output_adapter@_W@__crt_stdio_output@@@2@@__crt_stdio_output@@AAEX_KI_N@Z 10049f20 f i libucrtd:output.obj
 0001:00049020       ??$type_case_integer_parse_into_buffer@_K@?$output_processor@_WV?$stream_output_adapter@_W@__crt_stdio_output@@V?$standard_base@_WV?$stream_output_adapter@_W@__crt_stdio_output@@@2@@__crt_stdio_output@@AAEX_KI_N@Z 1004a020 f i libucrtd:output.obj
 0001:00049120       ??$type_case_integer_parse_into_buffer@_K@?$output_processor@_WV?$string_output_adapter@_W@__crt_stdio_output@@V?$format_validation_base@_WV?$string_output_adapter@_W@__crt_stdio_output@@@2@@__crt_stdio_output@@AAEX_KI_N@Z 1004a120 f i libucrtd:output.obj
 0001:00049220       ??$type_case_integer_parse_into_buffer@_K@?$output_processor@_WV?$string_output_adapter@_W@__crt_stdio_output@@V?$positional_parameter_base@_WV?$string_output_adapter@_W@__crt_stdio_output@@@2@@__crt_stdio_output@@AAEX_KI_N@Z 1004a220 f i libucrtd:output.obj
 0001:00049320       ??$type_case_integer_parse_into_buffer@_K@?$output_processor@_WV?$string_output_adapter@_W@__crt_stdio_output@@V?$standard_base@_WV?$string_output_adapter@_W@__crt_stdio_output@@@2@@__crt_stdio_output@@AAEX_KI_N@Z 1004a320 f i libucrtd:output.obj
 0001:00049420       ??$write_multiple_characters@V?$stream_output_adapter@D@__crt_stdio_output@@D@__crt_stdio_output@@YAXABV?$stream_output_adapter@D@0@DHQAH@Z 1004a420 f i libucrtd:output.obj
 0001:00049470       ??$write_multiple_characters@V?$stream_output_adapter@_W@__crt_stdio_output@@D@__crt_stdio_output@@YAXABV?$stream_output_adapter@_W@0@DHQAH@Z 1004a470 f i libucrtd:output.obj
 0001:000494c0       ??$write_multiple_characters@V?$string_output_adapter@D@__crt_stdio_output@@D@__crt_stdio_output@@YAXABV?$string_output_adapter@D@0@DHQAH@Z 1004a4c0 f i libucrtd:output.obj
 0001:00049510       ??$write_multiple_characters@V?$string_output_adapter@_W@__crt_stdio_output@@D@__crt_stdio_output@@YAXABV?$string_output_adapter@_W@0@DHQAH@Z 1004a510 f i libucrtd:output.obj
 0001:00049860       ??0?$common_data@D@__crt_stdio_output@@IAE@XZ 1004a860 f i libucrtd:output.obj
 0001:00049910       ??0?$common_data@_W@__crt_stdio_output@@IAE@XZ 1004a910 f i libucrtd:output.obj
 0001:000499c0       ??0?$output_adapter_data@DV?$stream_output_adapter@D@__crt_stdio_output@@@__crt_stdio_output@@IAE@ABV?$stream_output_adapter@D@1@_KQBDQAU__crt_locale_pointers@@QAD@Z 1004a9c0 f i libucrtd:output.obj
 0001:00049a20       ??0?$output_adapter_data@DV?$string_output_adapter@D@__crt_stdio_output@@@__crt_stdio_output@@IAE@ABV?$string_output_adapter@D@1@_KQBDQAU__crt_locale_pointers@@QAD@Z 1004aa20 f i libucrtd:output.obj
 0001:00049a80       ??0?$output_adapter_data@_WV?$stream_output_adapter@_W@__crt_stdio_output@@@__crt_stdio_output@@IAE@ABV?$stream_output_adapter@_W@1@_KQB_WQAU__crt_locale_pointers@@QAD@Z 1004aa80 f i libucrtd:output.obj
 0001:00049ae0       ??0?$output_adapter_data@_WV?$string_output_adapter@_W@__crt_stdio_output@@@__crt_stdio_output@@IAE@ABV?$string_output_adapter@_W@1@_KQB_WQAU__crt_locale_pointers@@QAD@Z 1004aae0 f i libucrtd:output.obj
 0001:00049b40       ??0?$output_processor@DV?$stream_output_adapter@D@__crt_stdio_output@@V?$format_validation_base@DV?$stream_output_adapter@D@__crt_stdio_output@@@2@@__crt_stdio_output@@QAE@ABV?$stream_output_adapter@D@1@_KQBDQAU__crt_locale_pointers@@QAD@Z 1004ab40 f i libucrtd:output.obj
 0001:00049b70       ??0?$output_processor@DV?$stream_output_adapter@D@__crt_stdio_output@@V?$positional_parameter_base@DV?$stream_output_adapter@D@__crt_stdio_output@@@2@@__crt_stdio_output@@QAE@ABV?$stream_output_adapter@D@1@_KQBDQAU__crt_locale_pointers@@QAD@Z 1004ab70 f i libucrtd:output.obj
 0001:00049ba0       ??0?$output_processor@DV?$stream_output_adapter@D@__crt_stdio_output@@V?$standard_base@DV?$stream_output_adapter@D@__crt_stdio_output@@@2@@__crt_stdio_output@@QAE@ABV?$stream_output_adapter@D@1@_KQBDQAU__crt_locale_pointers@@QAD@Z 1004aba0 f i libucrtd:output.obj
 0001:00049bd0       ??0?$output_processor@DV?$string_output_adapter@D@__crt_stdio_output@@V?$format_validation_base@DV?$string_output_adapter@D@__crt_stdio_output@@@2@@__crt_stdio_output@@QAE@ABV?$string_output_adapter@D@1@_KQBDQAU__crt_locale_pointers@@QAD@Z 1004abd0 f i libucrtd:output.obj
 0001:00049c00       ??0?$output_processor@DV?$string_output_adapter@D@__crt_stdio_output@@V?$positional_parameter_base@DV?$string_output_adapter@D@__crt_stdio_output@@@2@@__crt_stdio_output@@QAE@ABV?$string_output_adapter@D@1@_KQBDQAU__crt_locale_pointers@@QAD@Z 1004ac00 f i libucrtd:output.obj
 0001:00049c30       ??0?$output_processor@DV?$string_output_adapter@D@__crt_stdio_output@@V?$standard_base@DV?$string_output_adapter@D@__crt_stdio_output@@@2@@__crt_stdio_output@@QAE@ABV?$string_output_adapter@D@1@_KQBDQAU__crt_locale_pointers@@QAD@Z 1004ac30 f i libucrtd:output.obj
 0001:00049c60       ??0?$output_processor@_WV?$stream_output_adapter@_W@__crt_stdio_output@@V?$format_validation_base@_WV?$stream_output_adapter@_W@__crt_stdio_output@@@2@@__crt_stdio_output@@QAE@ABV?$stream_output_adapter@_W@1@_KQB_WQAU__crt_locale_pointers@@QAD@Z 1004ac60 f i libucrtd:output.obj
 0001:00049c90       ??0?$output_processor@_WV?$stream_output_adapter@_W@__crt_stdio_output@@V?$positional_parameter_base@_WV?$stream_output_adapter@_W@__crt_stdio_output@@@2@@__crt_stdio_output@@QAE@ABV?$stream_output_adapter@_W@1@_KQB_WQAU__crt_locale_pointers@@QAD@Z 1004ac90 f i libucrtd:output.obj
 0001:00049cc0       ??0?$output_processor@_WV?$stream_output_adapter@_W@__crt_stdio_output@@V?$standard_base@_WV?$stream_output_adapter@_W@__crt_stdio_output@@@2@@__crt_stdio_output@@QAE@ABV?$stream_output_adapter@_W@1@_KQB_WQAU__crt_locale_pointers@@QAD@Z 1004acc0 f i libucrtd:output.obj
 0001:00049cf0       ??0?$output_processor@_WV?$string_output_adapter@_W@__crt_stdio_output@@V?$format_validation_base@_WV?$string_output_adapter@_W@__crt_stdio_output@@@2@@__crt_stdio_output@@QAE@ABV?$string_output_adapter@_W@1@_KQB_WQAU__crt_locale_pointers@@QAD@Z 1004acf0 f i libucrtd:output.obj
 0001:00049d20       ??0?$output_processor@_WV?$string_output_adapter@_W@__crt_stdio_output@@V?$positional_parameter_base@_WV?$string_output_adapter@_W@__crt_stdio_output@@@2@@__crt_stdio_output@@QAE@ABV?$string_output_adapter@_W@1@_KQB_WQAU__crt_locale_pointers@@QAD@Z 1004ad20 f i libucrtd:output.obj
 0001:00049d50       ??0?$output_processor@_WV?$string_output_adapter@_W@__crt_stdio_output@@V?$standard_base@_WV?$string_output_adapter@_W@__crt_stdio_output@@@2@@__crt_stdio_output@@QAE@ABV?$string_output_adapter@_W@1@_KQB_WQAU__crt_locale_pointers@@QAD@Z 1004ad50 f i libucrtd:output.obj
 0001:00049d80       ??0?$stream_output_adapter@D@__crt_stdio_output@@QAE@QAU_iobuf@@@Z 1004ad80 f i libucrtd:output.obj
 0001:00049da0       ??0?$stream_output_adapter@_W@__crt_stdio_output@@QAE@QAU_iobuf@@@Z 1004ada0 f i libucrtd:output.obj
 0001:00049dc0       ??0?$string_output_adapter@D@__crt_stdio_output@@QAE@QAU?$string_output_adapter_context@D@1@@Z 1004adc0 f i libucrtd:output.obj
 0001:00049de0       ??0?$string_output_adapter@_W@__crt_stdio_output@@QAE@QAU?$string_output_adapter_context@_W@1@@Z 1004ade0 f i libucrtd:output.obj
 0001:00049e00       ??0_LocaleUpdate@@QAE@QAU__crt_locale_pointers@@@Z 1004ae00 f i libucrtd:output.obj
 0001:00049ed0       ??0__acrt_stdio_temporary_buffering_guard@@QAE@QAU_iobuf@@@Z 1004aed0 f i libucrtd:output.obj
 0001:00049f00       ??0__crt_deferred_errno_cache@@QAE@XZ 1004af00 f i libucrtd:output.obj
 0001:00049f20       ??0__crt_errno_guard@@QAE@QAH@Z 1004af20 f i libucrtd:output.obj
 0001:00049f50       ??0__crt_stdio_stream@@QAE@QAU_iobuf@@@Z 1004af50 f i libucrtd:output.obj
 0001:00049f70       ??0formatting_buffer@__crt_stdio_output@@QAE@XZ 1004af70 f i libucrtd:output.obj
 0001:00049fa0       ??1?$common_data@D@__crt_stdio_output@@QAE@XZ 1004afa0 f i libucrtd:output.obj
 0001:00049fc0       ??1?$common_data@_W@__crt_stdio_output@@QAE@XZ 1004afc0 f i libucrtd:output.obj
 0001:00049fe0       ??1?$format_validation_base@DV?$stream_output_adapter@D@__crt_stdio_output@@@__crt_stdio_output@@QAE@XZ 1004afe0 f i libucrtd:output.obj
 0001:0004a000       ??1?$format_validation_base@DV?$string_output_adapter@D@__crt_stdio_output@@@__crt_stdio_output@@QAE@XZ 1004b000 f i libucrtd:output.obj
 0001:0004a020       ??1?$format_validation_base@_WV?$stream_output_adapter@_W@__crt_stdio_output@@@__crt_stdio_output@@QAE@XZ 1004b020 f i libucrtd:output.obj
 0001:0004a040       ??1?$format_validation_base@_WV?$string_output_adapter@_W@__crt_stdio_output@@@__crt_stdio_output@@QAE@XZ 1004b040 f i libucrtd:output.obj
 0001:0004a060       ??1?$output_adapter_data@DV?$stream_output_adapter@D@__crt_stdio_output@@@__crt_stdio_output@@QAE@XZ 1004b060 f i libucrtd:output.obj
 0001:0004a080       ??1?$output_adapter_data@DV?$string_output_adapter@D@__crt_stdio_output@@@__crt_stdio_output@@QAE@XZ 1004b080 f i libucrtd:output.obj
 0001:0004a0a0       ??1?$output_adapter_data@_WV?$stream_output_adapter@_W@__crt_stdio_output@@@__crt_stdio_output@@QAE@XZ 1004b0a0 f i libucrtd:output.obj
 0001:0004a0c0       ??1?$output_adapter_data@_WV?$string_output_adapter@_W@__crt_stdio_output@@@__crt_stdio_output@@QAE@XZ 1004b0c0 f i libucrtd:output.obj
 0001:0004a0e0       ??1?$output_processor@DV?$stream_output_adapter@D@__crt_stdio_output@@V?$format_validation_base@DV?$stream_output_adapter@D@__crt_stdio_output@@@2@@__crt_stdio_output@@QAE@XZ 1004b0e0 f i libucrtd:output.obj
 0001:0004a100       ??1?$output_processor@DV?$stream_output_adapter@D@__crt_stdio_output@@V?$positional_parameter_base@DV?$stream_output_adapter@D@__crt_stdio_output@@@2@@__crt_stdio_output@@QAE@XZ 1004b100 f i libucrtd:output.obj
 0001:0004a120       ??1?$output_processor@DV?$stream_output_adapter@D@__crt_stdio_output@@V?$standard_base@DV?$stream_output_adapter@D@__crt_stdio_output@@@2@@__crt_stdio_output@@QAE@XZ 1004b120 f i libucrtd:output.obj
 0001:0004a140       ??1?$output_processor@DV?$string_output_adapter@D@__crt_stdio_output@@V?$format_validation_base@DV?$string_output_adapter@D@__crt_stdio_output@@@2@@__crt_stdio_output@@QAE@XZ 1004b140 f i libucrtd:output.obj
 0001:0004a160       ??1?$output_processor@DV?$string_output_adapter@D@__crt_stdio_output@@V?$positional_parameter_base@DV?$string_output_adapter@D@__crt_stdio_output@@@2@@__crt_stdio_output@@QAE@XZ 1004b160 f i libucrtd:output.obj
 0001:0004a180       ??1?$output_processor@DV?$string_output_adapter@D@__crt_stdio_output@@V?$standard_base@DV?$string_output_adapter@D@__crt_stdio_output@@@2@@__crt_stdio_output@@QAE@XZ 1004b180 f i libucrtd:output.obj
 0001:0004a1a0       ??1?$output_processor@_WV?$stream_output_adapter@_W@__crt_stdio_output@@V?$format_validation_base@_WV?$stream_output_adapter@_W@__crt_stdio_output@@@2@@__crt_stdio_output@@QAE@XZ 1004b1a0 f i libucrtd:output.obj
 0001:0004a1c0       ??1?$output_processor@_WV?$stream_output_adapter@_W@__crt_stdio_output@@V?$positional_parameter_base@_WV?$stream_output_adapter@_W@__crt_stdio_output@@@2@@__crt_stdio_output@@QAE@XZ 1004b1c0 f i libucrtd:output.obj
 0001:0004a1e0       ??1?$output_processor@_WV?$stream_output_adapter@_W@__crt_stdio_output@@V?$standard_base@_WV?$stream_output_adapter@_W@__crt_stdio_output@@@2@@__crt_stdio_output@@QAE@XZ 1004b1e0 f i libucrtd:output.obj
 0001:0004a200       ??1?$output_processor@_WV?$string_output_adapter@_W@__crt_stdio_output@@V?$format_validation_base@_WV?$string_output_adapter@_W@__crt_stdio_output@@@2@@__crt_stdio_output@@QAE@XZ 1004b200 f i libucrtd:output.obj
 0001:0004a220       ??1?$output_processor@_WV?$string_output_adapter@_W@__crt_stdio_output@@V?$positional_parameter_base@_WV?$string_output_adapter@_W@__crt_stdio_output@@@2@@__crt_stdio_output@@QAE@XZ 1004b220 f i libucrtd:output.obj
 0001:0004a240       ??1?$output_processor@_WV?$string_output_adapter@_W@__crt_stdio_output@@V?$standard_base@_WV?$string_output_adapter@_W@__crt_stdio_output@@@2@@__crt_stdio_output@@QAE@XZ 1004b240 f i libucrtd:output.obj
 0001:0004a260       ??1?$positional_parameter_base@DV?$stream_output_adapter@D@__crt_stdio_output@@@__crt_stdio_output@@QAE@XZ 1004b260 f i libucrtd:output.obj
 0001:0004a280       ??1?$positional_parameter_base@DV?$string_output_adapter@D@__crt_stdio_output@@@__crt_stdio_output@@QAE@XZ 1004b280 f i libucrtd:output.obj
 0001:0004a2a0       ??1?$positional_parameter_base@_WV?$stream_output_adapter@_W@__crt_stdio_output@@@__crt_stdio_output@@QAE@XZ 1004b2a0 f i libucrtd:output.obj
 0001:0004a2c0       ??1?$positional_parameter_base@_WV?$string_output_adapter@_W@__crt_stdio_output@@@__crt_stdio_output@@QAE@XZ 1004b2c0 f i libucrtd:output.obj
 0001:0004a2e0       ??1?$standard_base@DV?$stream_output_adapter@D@__crt_stdio_output@@@__crt_stdio_output@@QAE@XZ 1004b2e0 f i libucrtd:output.obj
 0001:0004a300       ??1?$standard_base@DV?$string_output_adapter@D@__crt_stdio_output@@@__crt_stdio_output@@QAE@XZ 1004b300 f i libucrtd:output.obj
 0001:0004a320       ??1?$standard_base@_WV?$stream_output_adapter@_W@__crt_stdio_output@@@__crt_stdio_output@@QAE@XZ 1004b320 f i libucrtd:output.obj
 0001:0004a340       ??1?$standard_base@_WV?$string_output_adapter@_W@__crt_stdio_output@@@__crt_stdio_output@@QAE@XZ 1004b340 f i libucrtd:output.obj
 0001:0004a360       ??1_LocaleUpdate@@QAE@XZ   1004b360 f i libucrtd:output.obj
 0001:0004a390       ??1__acrt_stdio_temporary_buffering_guard@@QAE@XZ 1004b390 f i libucrtd:output.obj
 0001:0004a3c0       ??1__crt_errno_guard@@QAE@XZ 1004b3c0 f i libucrtd:output.obj
 0001:0004a3f0       ??1formatting_buffer@__crt_stdio_output@@QAE@XZ 1004b3f0 f i libucrtd:output.obj
 0001:0004a410       ??4?$__crt_unique_heap_ptr@DU__crt_internal_free_policy@@@@QAEAAV0@$$QAV0@@Z 1004b410 f i libucrtd:output.obj
 0001:0004a440       ??A?$spectre_mitigated_lookup_table@Ustate_transition_pair@__crt_stdio_output@@$0IA@@__crt_stdio_output@@QBEABUstate_transition_pair@1@I@Z 1004b440 f i libucrtd:output.obj
 0001:0004a460       ??C__crt_stdio_stream@@QBEPAU__crt_stdio_stream_data@@XZ 1004b460 f i libucrtd:output.obj
 0001:0004aba0       ?GetLocaleT@_LocaleUpdate@@QAEPAU__crt_locale_pointers@@XZ 1004bba0 f i libucrtd:output.obj
 0001:0004abc0       ?adjust_hexit@?$output_processor@DV?$stream_output_adapter@D@__crt_stdio_output@@V?$format_validation_base@DV?$stream_output_adapter@D@__crt_stdio_output@@@2@@__crt_stdio_output@@CADH_N@Z 1004bbc0 f i libucrtd:output.obj
 0001:0004ac00       ?adjust_hexit@?$output_processor@DV?$stream_output_adapter@D@__crt_stdio_output@@V?$positional_parameter_base@DV?$stream_output_adapter@D@__crt_stdio_output@@@2@@__crt_stdio_output@@CADH_N@Z 1004bc00 f i libucrtd:output.obj
 0001:0004ac40       ?adjust_hexit@?$output_processor@DV?$stream_output_adapter@D@__crt_stdio_output@@V?$standard_base@DV?$stream_output_adapter@D@__crt_stdio_output@@@2@@__crt_stdio_output@@CADH_N@Z 1004bc40 f i libucrtd:output.obj
 0001:0004ac80       ?adjust_hexit@?$output_processor@DV?$string_output_adapter@D@__crt_stdio_output@@V?$format_validation_base@DV?$string_output_adapter@D@__crt_stdio_output@@@2@@__crt_stdio_output@@CADH_N@Z 1004bc80 f i libucrtd:output.obj
 0001:0004acc0       ?adjust_hexit@?$output_processor@DV?$string_output_adapter@D@__crt_stdio_output@@V?$positional_parameter_base@DV?$string_output_adapter@D@__crt_stdio_output@@@2@@__crt_stdio_output@@CADH_N@Z 1004bcc0 f i libucrtd:output.obj
 0001:0004ad00       ?adjust_hexit@?$output_processor@DV?$string_output_adapter@D@__crt_stdio_output@@V?$standard_base@DV?$string_output_adapter@D@__crt_stdio_output@@@2@@__crt_stdio_output@@CADH_N@Z 1004bd00 f i libucrtd:output.obj
 0001:0004ad40       ?adjust_hexit@?$output_processor@_WV?$stream_output_adapter@_W@__crt_stdio_output@@V?$format_validation_base@_WV?$stream_output_adapter@_W@__crt_stdio_output@@@2@@__crt_stdio_output@@CADH_N@Z 1004bd40 f i libucrtd:output.obj
 0001:0004ad80       ?adjust_hexit@?$output_processor@_WV?$stream_output_adapter@_W@__crt_stdio_output@@V?$positional_parameter_base@_WV?$stream_output_adapter@_W@__crt_stdio_output@@@2@@__crt_stdio_output@@CADH_N@Z 1004bd80 f i libucrtd:output.obj
 0001:0004adc0       ?adjust_hexit@?$output_processor@_WV?$stream_output_adapter@_W@__crt_stdio_output@@V?$standard_base@_WV?$stream_output_adapter@_W@__crt_stdio_output@@@2@@__crt_stdio_output@@CADH_N@Z 1004bdc0 f i libucrtd:output.obj
 0001:0004ae00       ?adjust_hexit@?$output_processor@_WV?$string_output_adapter@_W@__crt_stdio_output@@V?$format_validation_base@_WV?$string_output_adapter@_W@__crt_stdio_output@@@2@@__crt_stdio_output@@CADH_N@Z 1004be00 f i libucrtd:output.obj
 0001:0004ae40       ?adjust_hexit@?$output_processor@_WV?$string_output_adapter@_W@__crt_stdio_output@@V?$positional_parameter_base@_WV?$string_output_adapter@_W@__crt_stdio_output@@@2@@__crt_stdio_output@@CADH_N@Z 1004be40 f i libucrtd:output.obj
 0001:0004ae80       ?adjust_hexit@?$output_processor@_WV?$string_output_adapter@_W@__crt_stdio_output@@V?$standard_base@_WV?$string_output_adapter@_W@__crt_stdio_output@@@2@@__crt_stdio_output@@CADH_N@Z 1004be80 f i libucrtd:output.obj
 0001:0004aec0       ?advance_to_next_pass@?$positional_parameter_base@DV?$stream_output_adapter@D@__crt_stdio_output@@@__crt_stdio_output@@IAE_NXZ 1004bec0 f i libucrtd:output.obj
 0001:0004af60       ?advance_to_next_pass@?$positional_parameter_base@DV?$string_output_adapter@D@__crt_stdio_output@@@__crt_stdio_output@@IAE_NXZ 1004bf60 f i libucrtd:output.obj
 0001:0004b000       ?advance_to_next_pass@?$positional_parameter_base@_WV?$stream_output_adapter@_W@__crt_stdio_output@@@__crt_stdio_output@@IAE_NXZ 1004c000 f i libucrtd:output.obj
 0001:0004b0a0       ?advance_to_next_pass@?$positional_parameter_base@_WV?$string_output_adapter@_W@__crt_stdio_output@@@__crt_stdio_output@@IAE_NXZ 1004c0a0 f i libucrtd:output.obj
 0001:0004b140       ?advance_to_next_pass@?$standard_base@DV?$stream_output_adapter@D@__crt_stdio_output@@@__crt_stdio_output@@IAE_NXZ 1004c140 f i libucrtd:output.obj
 0001:0004b190       ?advance_to_next_pass@?$standard_base@DV?$string_output_adapter@D@__crt_stdio_output@@@__crt_stdio_output@@IAE_NXZ 1004c190 f i libucrtd:output.obj
 0001:0004b1e0       ?advance_to_next_pass@?$standard_base@_WV?$stream_output_adapter@_W@__crt_stdio_output@@@__crt_stdio_output@@IAE_NXZ 1004c1e0 f i libucrtd:output.obj
 0001:0004b230       ?advance_to_next_pass@?$standard_base@_WV?$string_output_adapter@_W@__crt_stdio_output@@@__crt_stdio_output@@IAE_NXZ 1004c230 f i libucrtd:output.obj
 0001:0004b280       ?crop_zeroes@__crt_stdio_output@@YAXPADQAU__crt_locale_pointers@@@Z 1004c280 f i libucrtd:output.obj
 0001:0004b380       ?find_next_state@?$output_processor@DV?$stream_output_adapter@D@__crt_stdio_output@@V?$format_validation_base@DV?$stream_output_adapter@D@__crt_stdio_output@@@2@@__crt_stdio_output@@ABE?AW4state@2@DW432@@Z 1004c380 f i libucrtd:output.obj
 0001:0004b3f0       ?find_next_state@?$output_processor@DV?$stream_output_adapter@D@__crt_stdio_output@@V?$positional_parameter_base@DV?$stream_output_adapter@D@__crt_stdio_output@@@2@@__crt_stdio_output@@ABE?AW4state@2@DW432@@Z 1004c3f0 f i libucrtd:output.obj
 0001:0004b460       ?find_next_state@?$output_processor@DV?$stream_output_adapter@D@__crt_stdio_output@@V?$standard_base@DV?$stream_output_adapter@D@__crt_stdio_output@@@2@@__crt_stdio_output@@ABE?AW4state@2@DW432@@Z 1004c460 f i libucrtd:output.obj
 0001:0004b4d0       ?find_next_state@?$output_processor@DV?$string_output_adapter@D@__crt_stdio_output@@V?$format_validation_base@DV?$string_output_adapter@D@__crt_stdio_output@@@2@@__crt_stdio_output@@ABE?AW4state@2@DW432@@Z 1004c4d0 f i libucrtd:output.obj
 0001:0004b540       ?find_next_state@?$output_processor@DV?$string_output_adapter@D@__crt_stdio_output@@V?$positional_parameter_base@DV?$string_output_adapter@D@__crt_stdio_output@@@2@@__crt_stdio_output@@ABE?AW4state@2@DW432@@Z 1004c540 f i libucrtd:output.obj
 0001:0004b5b0       ?find_next_state@?$output_processor@DV?$string_output_adapter@D@__crt_stdio_output@@V?$standard_base@DV?$string_output_adapter@D@__crt_stdio_output@@@2@@__crt_stdio_output@@ABE?AW4state@2@DW432@@Z 1004c5b0 f i libucrtd:output.obj
 0001:0004b620       ?find_next_state@?$output_processor@_WV?$stream_output_adapter@_W@__crt_stdio_output@@V?$format_validation_base@_WV?$stream_output_adapter@_W@__crt_stdio_output@@@2@@__crt_stdio_output@@ABE?AW4state@2@_WW432@@Z 1004c620 f i libucrtd:output.obj
 0001:0004b690       ?find_next_state@?$output_processor@_WV?$stream_output_adapter@_W@__crt_stdio_output@@V?$positional_parameter_base@_WV?$stream_output_adapter@_W@__crt_stdio_output@@@2@@__crt_stdio_output@@ABE?AW4state@2@_WW432@@Z 1004c690 f i libucrtd:output.obj
 0001:0004b700       ?find_next_state@?$output_processor@_WV?$stream_output_adapter@_W@__crt_stdio_output@@V?$standard_base@_WV?$stream_output_adapter@_W@__crt_stdio_output@@@2@@__crt_stdio_output@@ABE?AW4state@2@_WW432@@Z 1004c700 f i libucrtd:output.obj
 0001:0004b770       ?find_next_state@?$output_processor@_WV?$string_output_adapter@_W@__crt_stdio_output@@V?$format_validation_base@_WV?$string_output_adapter@_W@__crt_stdio_output@@@2@@__crt_stdio_output@@ABE?AW4state@2@_WW432@@Z 1004c770 f i libucrtd:output.obj
 0001:0004b7e0       ?find_next_state@?$output_processor@_WV?$string_output_adapter@_W@__crt_stdio_output@@V?$positional_parameter_base@_WV?$string_output_adapter@_W@__crt_stdio_output@@@2@@__crt_stdio_output@@ABE?AW4state@2@_WW432@@Z 1004c7e0 f i libucrtd:output.obj
 0001:0004b850       ?find_next_state@?$output_processor@_WV?$string_output_adapter@_W@__crt_stdio_output@@V?$standard_base@_WV?$string_output_adapter@_W@__crt_stdio_output@@@2@@__crt_stdio_output@@ABE?AW4state@2@_WW432@@Z 1004c850 f i libucrtd:output.obj
 0001:0004b8c0       ?force_decimal_point@__crt_stdio_output@@YAXPADQAU__crt_locale_pointers@@@Z 1004c8c0 f i libucrtd:output.obj
 0001:0004b990       ?get@__crt_deferred_errno_cache@@QAEAAHXZ 1004c990 f i libucrtd:output.obj
 0001:0004b9c0       ?get_flags@__crt_stdio_stream@@QBEJXZ 1004c9c0 f i libucrtd:output.obj
 0001:0004b9e0       ?get_parameter_type@?$positional_parameter_base@DV?$stream_output_adapter@D@__crt_stdio_output@@@__crt_stdio_output@@CA?AW4parameter_type@12@F@Z 1004c9e0 f i libucrtd:output.obj
 0001:0004b9f0       ?get_parameter_type@?$positional_parameter_base@DV?$stream_output_adapter@D@__crt_stdio_output@@@__crt_stdio_output@@CA?AW4parameter_type@12@G@Z 1004c9f0 f i libucrtd:output.obj
 0001:0004ba00       ?get_parameter_type@?$positional_parameter_base@DV?$stream_output_adapter@D@__crt_stdio_output@@@__crt_stdio_output@@CA?AW4parameter_type@12@H@Z 1004ca00 f i libucrtd:output.obj
 0001:0004ba10       ?get_parameter_type@?$positional_parameter_base@DV?$stream_output_adapter@D@__crt_stdio_output@@@__crt_stdio_output@@CA?AW4parameter_type@12@I@Z 1004ca10 f i libucrtd:output.obj
 0001:0004ba20       ?get_parameter_type@?$positional_parameter_base@DV?$stream_output_adapter@D@__crt_stdio_output@@@__crt_stdio_output@@CA?AW4parameter_type@12@U_CRT_DOUBLE@@@Z 1004ca20 f i libucrtd:output.obj
 0001:0004ba30       ?get_parameter_type@?$positional_parameter_base@DV?$stream_output_adapter@D@__crt_stdio_output@@@__crt_stdio_output@@CA?AW4parameter_type@12@_J@Z 1004ca30 f i libucrtd:output.obj
 0001:0004ba40       ?get_parameter_type@?$positional_parameter_base@DV?$stream_output_adapter@D@__crt_stdio_output@@@__crt_stdio_output@@CA?AW4parameter_type@12@_K@Z 1004ca40 f i libucrtd:output.obj
 0001:0004ba50       ?get_parameter_type@?$positional_parameter_base@DV?$stream_output_adapter@D@__crt_stdio_output@@@__crt_stdio_output@@CA?AW4parameter_type@12@_W@Z 1004ca50 f i libucrtd:output.obj
 0001:0004ba60       ?get_parameter_type@?$positional_parameter_base@DV?$string_output_adapter@D@__crt_stdio_output@@@__crt_stdio_output@@CA?AW4parameter_type@12@F@Z 1004ca60 f i libucrtd:output.obj
 0001:0004ba70       ?get_parameter_type@?$positional_parameter_base@DV?$string_output_adapter@D@__crt_stdio_output@@@__crt_stdio_output@@CA?AW4parameter_type@12@G@Z 1004ca70 f i libucrtd:output.obj
 0001:0004ba80       ?get_parameter_type@?$positional_parameter_base@DV?$string_output_adapter@D@__crt_stdio_output@@@__crt_stdio_output@@CA?AW4parameter_type@12@H@Z 1004ca80 f i libucrtd:output.obj
 0001:0004ba90       ?get_parameter_type@?$positional_parameter_base@DV?$string_output_adapter@D@__crt_stdio_output@@@__crt_stdio_output@@CA?AW4parameter_type@12@I@Z 1004ca90 f i libucrtd:output.obj
 0001:0004baa0       ?get_parameter_type@?$positional_parameter_base@DV?$string_output_adapter@D@__crt_stdio_output@@@__crt_stdio_output@@CA?AW4parameter_type@12@U_CRT_DOUBLE@@@Z 1004caa0 f i libucrtd:output.obj
 0001:0004bab0       ?get_parameter_type@?$positional_parameter_base@DV?$string_output_adapter@D@__crt_stdio_output@@@__crt_stdio_output@@CA?AW4parameter_type@12@_J@Z 1004cab0 f i libucrtd:output.obj
 0001:0004bac0       ?get_parameter_type@?$positional_parameter_base@DV?$string_output_adapter@D@__crt_stdio_output@@@__crt_stdio_output@@CA?AW4parameter_type@12@_K@Z 1004cac0 f i libucrtd:output.obj
 0001:0004bad0       ?get_parameter_type@?$positional_parameter_base@DV?$string_output_adapter@D@__crt_stdio_output@@@__crt_stdio_output@@CA?AW4parameter_type@12@_W@Z 1004cad0 f i libucrtd:output.obj
 0001:0004bae0       ?get_parameter_type@?$positional_parameter_base@_WV?$stream_output_adapter@_W@__crt_stdio_output@@@__crt_stdio_output@@CA?AW4parameter_type@12@F@Z 1004cae0 f i libucrtd:output.obj
 0001:0004baf0       ?get_parameter_type@?$positional_parameter_base@_WV?$stream_output_adapter@_W@__crt_stdio_output@@@__crt_stdio_output@@CA?AW4parameter_type@12@G@Z 1004caf0 f i libucrtd:output.obj
 0001:0004bb00       ?get_parameter_type@?$positional_parameter_base@_WV?$stream_output_adapter@_W@__crt_stdio_output@@@__crt_stdio_output@@CA?AW4parameter_type@12@H@Z 1004cb00 f i libucrtd:output.obj
 0001:0004bb10       ?get_parameter_type@?$positional_parameter_base@_WV?$stream_output_adapter@_W@__crt_stdio_output@@@__crt_stdio_output@@CA?AW4parameter_type@12@I@Z 1004cb10 f i libucrtd:output.obj
 0001:0004bb20       ?get_parameter_type@?$positional_parameter_base@_WV?$stream_output_adapter@_W@__crt_stdio_output@@@__crt_stdio_output@@CA?AW4parameter_type@12@U_CRT_DOUBLE@@@Z 1004cb20 f i libucrtd:output.obj
 0001:0004bb30       ?get_parameter_type@?$positional_parameter_base@_WV?$stream_output_adapter@_W@__crt_stdio_output@@@__crt_stdio_output@@CA?AW4parameter_type@12@_J@Z 1004cb30 f i libucrtd:output.obj
 0001:0004bb40       ?get_parameter_type@?$positional_parameter_base@_WV?$stream_output_adapter@_W@__crt_stdio_output@@@__crt_stdio_output@@CA?AW4parameter_type@12@_K@Z 1004cb40 f i libucrtd:output.obj
 0001:0004bb50       ?get_parameter_type@?$positional_parameter_base@_WV?$stream_output_adapter@_W@__crt_stdio_output@@@__crt_stdio_output@@CA?AW4parameter_type@12@_W@Z 1004cb50 f i libucrtd:output.obj
 0001:0004bb60       ?get_parameter_type@?$positional_parameter_base@_WV?$string_output_adapter@_W@__crt_stdio_output@@@__crt_stdio_output@@CA?AW4parameter_type@12@F@Z 1004cb60 f i libucrtd:output.obj
 0001:0004bb70       ?get_parameter_type@?$positional_parameter_base@_WV?$string_output_adapter@_W@__crt_stdio_output@@@__crt_stdio_output@@CA?AW4parameter_type@12@G@Z 1004cb70 f i libucrtd:output.obj
 0001:0004bb80       ?get_parameter_type@?$positional_parameter_base@_WV?$string_output_adapter@_W@__crt_stdio_output@@@__crt_stdio_output@@CA?AW4parameter_type@12@H@Z 1004cb80 f i libucrtd:output.obj
 0001:0004bb90       ?get_parameter_type@?$positional_parameter_base@_WV?$string_output_adapter@_W@__crt_stdio_output@@@__crt_stdio_output@@CA?AW4parameter_type@12@I@Z 1004cb90 f i libucrtd:output.obj
 0001:0004bba0       ?get_parameter_type@?$positional_parameter_base@_WV?$string_output_adapter@_W@__crt_stdio_output@@@__crt_stdio_output@@CA?AW4parameter_type@12@U_CRT_DOUBLE@@@Z 1004cba0 f i libucrtd:output.obj
 0001:0004bbb0       ?get_parameter_type@?$positional_parameter_base@_WV?$string_output_adapter@_W@__crt_stdio_output@@@__crt_stdio_output@@CA?AW4parameter_type@12@_J@Z 1004cbb0 f i libucrtd:output.obj
 0001:0004bbc0       ?get_parameter_type@?$positional_parameter_base@_WV?$string_output_adapter@_W@__crt_stdio_output@@@__crt_stdio_output@@CA?AW4parameter_type@12@_K@Z 1004cbc0 f i libucrtd:output.obj
 0001:0004bbd0       ?get_parameter_type@?$positional_parameter_base@_WV?$string_output_adapter@_W@__crt_stdio_output@@@__crt_stdio_output@@CA?AW4parameter_type@12@_W@Z 1004cbd0 f i libucrtd:output.obj
 0001:0004bbe0       ?has_flag@?$output_processor@DV?$stream_output_adapter@D@__crt_stdio_output@@V?$format_validation_base@DV?$stream_output_adapter@D@__crt_stdio_output@@@2@@__crt_stdio_output@@ABE_NI@Z 1004cbe0 f i libucrtd:output.obj
 0001:0004bc10       ?has_flag@?$output_processor@DV?$stream_output_adapter@D@__crt_stdio_output@@V?$positional_parameter_base@DV?$stream_output_adapter@D@__crt_stdio_output@@@2@@__crt_stdio_output@@ABE_NI@Z 1004cc10 f i libucrtd:output.obj
 0001:0004bc40       ?has_flag@?$output_processor@DV?$stream_output_adapter@D@__crt_stdio_output@@V?$standard_base@DV?$stream_output_adapter@D@__crt_stdio_output@@@2@@__crt_stdio_output@@ABE_NI@Z 1004cc40 f i libucrtd:output.obj
 0001:0004bc70       ?has_flag@?$output_processor@DV?$string_output_adapter@D@__crt_stdio_output@@V?$format_validation_base@DV?$string_output_adapter@D@__crt_stdio_output@@@2@@__crt_stdio_output@@ABE_NI@Z 1004cc70 f i libucrtd:output.obj
 0001:0004bca0       ?has_flag@?$output_processor@DV?$string_output_adapter@D@__crt_stdio_output@@V?$positional_parameter_base@DV?$string_output_adapter@D@__crt_stdio_output@@@2@@__crt_stdio_output@@ABE_NI@Z 1004cca0 f i libucrtd:output.obj
 0001:0004bcd0       ?has_flag@?$output_processor@DV?$string_output_adapter@D@__crt_stdio_output@@V?$standard_base@DV?$string_output_adapter@D@__crt_stdio_output@@@2@@__crt_stdio_output@@ABE_NI@Z 1004ccd0 f i libucrtd:output.obj
 0001:0004bd00       ?has_flag@?$output_processor@_WV?$stream_output_adapter@_W@__crt_stdio_output@@V?$format_validation_base@_WV?$stream_output_adapter@_W@__crt_stdio_output@@@2@@__crt_stdio_output@@ABE_NI@Z 1004cd00 f i libucrtd:output.obj
 0001:0004bd30       ?has_flag@?$output_processor@_WV?$stream_output_adapter@_W@__crt_stdio_output@@V?$positional_parameter_base@_WV?$stream_output_adapter@_W@__crt_stdio_output@@@2@@__crt_stdio_output@@ABE_NI@Z 1004cd30 f i libucrtd:output.obj
 0001:0004bd60       ?has_flag@?$output_processor@_WV?$stream_output_adapter@_W@__crt_stdio_output@@V?$standard_base@_WV?$stream_output_adapter@_W@__crt_stdio_output@@@2@@__crt_stdio_output@@ABE_NI@Z 1004cd60 f i libucrtd:output.obj
 0001:0004bd90       ?has_flag@?$output_processor@_WV?$string_output_adapter@_W@__crt_stdio_output@@V?$format_validation_base@_WV?$string_output_adapter@_W@__crt_stdio_output@@@2@@__crt_stdio_output@@ABE_NI@Z 1004cd90 f i libucrtd:output.obj
 0001:0004bdc0       ?has_flag@?$output_processor@_WV?$string_output_adapter@_W@__crt_stdio_output@@V?$positional_parameter_base@_WV?$string_output_adapter@_W@__crt_stdio_output@@@2@@__crt_stdio_output@@ABE_NI@Z 1004cdc0 f i libucrtd:output.obj
 0001:0004bdf0       ?has_flag@?$output_processor@_WV?$string_output_adapter@_W@__crt_stdio_output@@V?$standard_base@_WV?$string_output_adapter@_W@__crt_stdio_output@@@2@@__crt_stdio_output@@ABE_NI@Z 1004cdf0 f i libucrtd:output.obj
 0001:0004be20       ?is_positional_parameter_reappearance_consistent@?$positional_parameter_base@DV?$stream_output_adapter@D@__crt_stdio_output@@@__crt_stdio_output@@AAE_NABUparameter_data@12@W4parameter_type@12@DW4length_modifier@2@@Z 1004ce20 f i libucrtd:output.obj
 0001:0004c050       ?is_positional_parameter_reappearance_consistent@?$positional_parameter_base@DV?$string_output_adapter@D@__crt_stdio_output@@@__crt_stdio_output@@AAE_NABUparameter_data@12@W4parameter_type@12@DW4length_modifier@2@@Z 1004d050 f i libucrtd:output.obj
 0001:0004c280       ?is_positional_parameter_reappearance_consistent@?$positional_parameter_base@_WV?$stream_output_adapter@_W@__crt_stdio_output@@@__crt_stdio_output@@AAE_NABUparameter_data@12@W4parameter_type@12@_WW4length_modifier@2@@Z 1004d280 f i libucrtd:output.obj
 0001:0004c4b0       ?is_positional_parameter_reappearance_consistent@?$positional_parameter_base@_WV?$string_output_adapter@_W@__crt_stdio_output@@@__crt_stdio_output@@AAE_NABUparameter_data@12@W4parameter_type@12@_WW4length_modifier@2@@Z 1004d4b0 f i libucrtd:output.obj
 0001:0004c6e0       ?is_string_backed@__crt_stdio_stream@@QBE_NXZ 1004d6e0 f i libucrtd:output.obj
 0001:0004c720       ?narrow_null_string@?$output_processor@DV?$stream_output_adapter@D@__crt_stdio_output@@V?$format_validation_base@DV?$stream_output_adapter@D@__crt_stdio_output@@@2@@__crt_stdio_output@@CAPADXZ 1004d720 f i libucrtd:output.obj
 0001:0004c730       ?narrow_null_string@?$output_processor@DV?$stream_output_adapter@D@__crt_stdio_output@@V?$positional_parameter_base@DV?$stream_output_adapter@D@__crt_stdio_output@@@2@@__crt_stdio_output@@CAPADXZ 1004d730 f i libucrtd:output.obj
 0001:0004c740       ?narrow_null_string@?$output_processor@DV?$stream_output_adapter@D@__crt_stdio_output@@V?$standard_base@DV?$stream_output_adapter@D@__crt_stdio_output@@@2@@__crt_stdio_output@@CAPADXZ 1004d740 f i libucrtd:output.obj
 0001:0004c750       ?narrow_null_string@?$output_processor@DV?$string_output_adapter@D@__crt_stdio_output@@V?$format_validation_base@DV?$string_output_adapter@D@__crt_stdio_output@@@2@@__crt_stdio_output@@CAPADXZ 1004d750 f i libucrtd:output.obj
 0001:0004c760       ?narrow_null_string@?$output_processor@DV?$string_output_adapter@D@__crt_stdio_output@@V?$positional_parameter_base@DV?$string_output_adapter@D@__crt_stdio_output@@@2@@__crt_stdio_output@@CAPADXZ 1004d760 f i libucrtd:output.obj
 0001:0004c770       ?narrow_null_string@?$output_processor@DV?$string_output_adapter@D@__crt_stdio_output@@V?$standard_base@DV?$string_output_adapter@D@__crt_stdio_output@@@2@@__crt_stdio_output@@CAPADXZ 1004d770 f i libucrtd:output.obj
 0001:0004c780       ?narrow_null_string@?$output_processor@_WV?$stream_output_adapter@_W@__crt_stdio_output@@V?$format_validation_base@_WV?$stream_output_adapter@_W@__crt_stdio_output@@@2@@__crt_stdio_output@@CAPADXZ 1004d780 f i libucrtd:output.obj
 0001:0004c790       ?narrow_null_string@?$output_processor@_WV?$stream_output_adapter@_W@__crt_stdio_output@@V?$positional_parameter_base@_WV?$stream_output_adapter@_W@__crt_stdio_output@@@2@@__crt_stdio_output@@CAPADXZ 1004d790 f i libucrtd:output.obj
 0001:0004c7a0       ?narrow_null_string@?$output_processor@_WV?$stream_output_adapter@_W@__crt_stdio_output@@V?$standard_base@_WV?$stream_output_adapter@_W@__crt_stdio_output@@@2@@__crt_stdio_output@@CAPADXZ 1004d7a0 f i libucrtd:output.obj
 0001:0004c7b0       ?narrow_null_string@?$output_processor@_WV?$string_output_adapter@_W@__crt_stdio_output@@V?$format_validation_base@_WV?$string_output_adapter@_W@__crt_stdio_output@@@2@@__crt_stdio_output@@CAPADXZ 1004d7b0 f i libucrtd:output.obj
 0001:0004c7c0       ?narrow_null_string@?$output_processor@_WV?$string_output_adapter@_W@__crt_stdio_output@@V?$positional_parameter_base@_WV?$string_output_adapter@_W@__crt_stdio_output@@@2@@__crt_stdio_output@@CAPADXZ 1004d7c0 f i libucrtd:output.obj
 0001:0004c7d0       ?narrow_null_string@?$output_processor@_WV?$string_output_adapter@_W@__crt_stdio_output@@V?$standard_base@_WV?$string_output_adapter@_W@__crt_stdio_output@@@2@@__crt_stdio_output@@CAPADXZ 1004d7d0 f i libucrtd:output.obj
 0001:0004c7e0       ?parse_int_from_format_string@?$output_processor@DV?$stream_output_adapter@D@__crt_stdio_output@@V?$format_validation_base@DV?$stream_output_adapter@D@__crt_stdio_output@@@2@@__crt_stdio_output@@AAE_NQAH@Z 1004d7e0 f i libucrtd:output.obj
 0001:0004c8a0       ?parse_int_from_format_string@?$output_processor@DV?$stream_output_adapter@D@__crt_stdio_output@@V?$positional_parameter_base@DV?$stream_output_adapter@D@__crt_stdio_output@@@2@@__crt_stdio_output@@AAE_NQAH@Z 1004d8a0 f i libucrtd:output.obj
 0001:0004c960       ?parse_int_from_format_string@?$output_processor@DV?$stream_output_adapter@D@__crt_stdio_output@@V?$standard_base@DV?$stream_output_adapter@D@__crt_stdio_output@@@2@@__crt_stdio_output@@AAE_NQAH@Z 1004d960 f i libucrtd:output.obj
 0001:0004ca20       ?parse_int_from_format_string@?$output_processor@DV?$string_output_adapter@D@__crt_stdio_output@@V?$format_validation_base@DV?$string_output_adapter@D@__crt_stdio_output@@@2@@__crt_stdio_output@@AAE_NQAH@Z 1004da20 f i libucrtd:output.obj
 0001:0004cae0       ?parse_int_from_format_string@?$output_processor@DV?$string_output_adapter@D@__crt_stdio_output@@V?$positional_parameter_base@DV?$string_output_adapter@D@__crt_stdio_output@@@2@@__crt_stdio_output@@AAE_NQAH@Z 1004dae0 f i libucrtd:output.obj
 0001:0004cba0       ?parse_int_from_format_string@?$output_processor@DV?$string_output_adapter@D@__crt_stdio_output@@V?$standard_base@DV?$string_output_adapter@D@__crt_stdio_output@@@2@@__crt_stdio_output@@AAE_NQAH@Z 1004dba0 f i libucrtd:output.obj
 0001:0004cc60       ?parse_int_from_format_string@?$output_processor@_WV?$stream_output_adapter@_W@__crt_stdio_output@@V?$format_validation_base@_WV?$stream_output_adapter@_W@__crt_stdio_output@@@2@@__crt_stdio_output@@AAE_NQAH@Z 1004dc60 f i libucrtd:output.obj
 0001:0004cd20       ?parse_int_from_format_string@?$output_processor@_WV?$stream_output_adapter@_W@__crt_stdio_output@@V?$positional_parameter_base@_WV?$stream_output_adapter@_W@__crt_stdio_output@@@2@@__crt_stdio_output@@AAE_NQAH@Z 1004dd20 f i libucrtd:output.obj
 0001:0004cde0       ?parse_int_from_format_string@?$output_processor@_WV?$stream_output_adapter@_W@__crt_stdio_output@@V?$standard_base@_WV?$stream_output_adapter@_W@__crt_stdio_output@@@2@@__crt_stdio_output@@AAE_NQAH@Z 1004dde0 f i libucrtd:output.obj
 0001:0004cea0       ?parse_int_from_format_string@?$output_processor@_WV?$string_output_adapter@_W@__crt_stdio_output@@V?$format_validation_base@_WV?$string_output_adapter@_W@__crt_stdio_output@@@2@@__crt_stdio_output@@AAE_NQAH@Z 1004dea0 f i libucrtd:output.obj
 0001:0004cf60       ?parse_int_from_format_string@?$output_processor@_WV?$string_output_adapter@_W@__crt_stdio_output@@V?$positional_parameter_base@_WV?$string_output_adapter@_W@__crt_stdio_output@@@2@@__crt_stdio_output@@AAE_NQAH@Z 1004df60 f i libucrtd:output.obj
 0001:0004d020       ?parse_int_from_format_string@?$output_processor@_WV?$string_output_adapter@_W@__crt_stdio_output@@V?$standard_base@_WV?$string_output_adapter@_W@__crt_stdio_output@@@2@@__crt_stdio_output@@AAE_NQAH@Z 1004e020 f i libucrtd:output.obj
 0001:0004d0e0       ?process@?$output_processor@DV?$stream_output_adapter@D@__crt_stdio_output@@V?$format_validation_base@DV?$stream_output_adapter@D@__crt_stdio_output@@@2@@__crt_stdio_output@@QAEHXZ 1004e0e0 f i libucrtd:output.obj
 0001:0004d390       ?process@?$output_processor@DV?$stream_output_adapter@D@__crt_stdio_output@@V?$positional_parameter_base@DV?$stream_output_adapter@D@__crt_stdio_output@@@2@@__crt_stdio_output@@QAEHXZ 1004e390 f i libucrtd:output.obj
 0001:0004d640       ?process@?$output_processor@DV?$stream_output_adapter@D@__crt_stdio_output@@V?$standard_base@DV?$stream_output_adapter@D@__crt_stdio_output@@@2@@__crt_stdio_output@@QAEHXZ 1004e640 f i libucrtd:output.obj
 0001:0004d8f0       ?process@?$output_processor@DV?$string_output_adapter@D@__crt_stdio_output@@V?$format_validation_base@DV?$string_output_adapter@D@__crt_stdio_output@@@2@@__crt_stdio_output@@QAEHXZ 1004e8f0 f i libucrtd:output.obj
 0001:0004dba0       ?process@?$output_processor@DV?$string_output_adapter@D@__crt_stdio_output@@V?$positional_parameter_base@DV?$string_output_adapter@D@__crt_stdio_output@@@2@@__crt_stdio_output@@QAEHXZ 1004eba0 f i libucrtd:output.obj
 0001:0004de50       ?process@?$output_processor@DV?$string_output_adapter@D@__crt_stdio_output@@V?$standard_base@DV?$string_output_adapter@D@__crt_stdio_output@@@2@@__crt_stdio_output@@QAEHXZ 1004ee50 f i libucrtd:output.obj
 0001:0004e100       ?process@?$output_processor@_WV?$stream_output_adapter@_W@__crt_stdio_output@@V?$format_validation_base@_WV?$stream_output_adapter@_W@__crt_stdio_output@@@2@@__crt_stdio_output@@QAEHXZ 1004f100 f i libucrtd:output.obj
 0001:0004e3b0       ?process@?$output_processor@_WV?$stream_output_adapter@_W@__crt_stdio_output@@V?$positional_parameter_base@_WV?$stream_output_adapter@_W@__crt_stdio_output@@@2@@__crt_stdio_output@@QAEHXZ 1004f3b0 f i libucrtd:output.obj
 0001:0004e660       ?process@?$output_processor@_WV?$stream_output_adapter@_W@__crt_stdio_output@@V?$standard_base@_WV?$stream_output_adapter@_W@__crt_stdio_output@@@2@@__crt_stdio_output@@QAEHXZ 1004f660 f i libucrtd:output.obj
 0001:0004e910       ?process@?$output_processor@_WV?$string_output_adapter@_W@__crt_stdio_output@@V?$format_validation_base@_WV?$string_output_adapter@_W@__crt_stdio_output@@@2@@__crt_stdio_output@@QAEHXZ 1004f910 f i libucrtd:output.obj
 0001:0004ebc0       ?process@?$output_processor@_WV?$string_output_adapter@_W@__crt_stdio_output@@V?$positional_parameter_base@_WV?$string_output_adapter@_W@__crt_stdio_output@@@2@@__crt_stdio_output@@QAEHXZ 1004fbc0 f i libucrtd:output.obj
 0001:0004ee70       ?process@?$output_processor@_WV?$string_output_adapter@_W@__crt_stdio_output@@V?$standard_base@_WV?$string_output_adapter@_W@__crt_stdio_output@@@2@@__crt_stdio_output@@QAEHXZ 1004fe70 f i libucrtd:output.obj
 0001:0004f120       ?public_stream@__crt_stdio_stream@@QBEPAU_iobuf@@XZ 10050120 f i libucrtd:output.obj
 0001:0004f140       ?set_flag@?$output_processor@DV?$stream_output_adapter@D@__crt_stdio_output@@V?$format_validation_base@DV?$stream_output_adapter@D@__crt_stdio_output@@@2@@__crt_stdio_output@@AAEXI@Z 10050140 f i libucrtd:output.obj
 0001:0004f160       ?set_flag@?$output_processor@DV?$stream_output_adapter@D@__crt_stdio_output@@V?$positional_parameter_base@DV?$stream_output_adapter@D@__crt_stdio_output@@@2@@__crt_stdio_output@@AAEXI@Z 10050160 f i libucrtd:output.obj
 0001:0004f180       ?set_flag@?$output_processor@DV?$stream_output_adapter@D@__crt_stdio_output@@V?$standard_base@DV?$stream_output_adapter@D@__crt_stdio_output@@@2@@__crt_stdio_output@@AAEXI@Z 10050180 f i libucrtd:output.obj
 0001:0004f1a0       ?set_flag@?$output_processor@DV?$string_output_adapter@D@__crt_stdio_output@@V?$format_validation_base@DV?$string_output_adapter@D@__crt_stdio_output@@@2@@__crt_stdio_output@@AAEXI@Z 100501a0 f i libucrtd:output.obj
 0001:0004f1c0       ?set_flag@?$output_processor@DV?$string_output_adapter@D@__crt_stdio_output@@V?$positional_parameter_base@DV?$string_output_adapter@D@__crt_stdio_output@@@2@@__crt_stdio_output@@AAEXI@Z 100501c0 f i libucrtd:output.obj
 0001:0004f1e0       ?set_flag@?$output_processor@DV?$string_output_adapter@D@__crt_stdio_output@@V?$standard_base@DV?$string_output_adapter@D@__crt_stdio_output@@@2@@__crt_stdio_output@@AAEXI@Z 100501e0 f i libucrtd:output.obj
 0001:0004f200       ?set_flag@?$output_processor@_WV?$stream_output_adapter@_W@__crt_stdio_output@@V?$format_validation_base@_WV?$stream_output_adapter@_W@__crt_stdio_output@@@2@@__crt_stdio_output@@AAEXI@Z 10050200 f i libucrtd:output.obj
 0001:0004f220       ?set_flag@?$output_processor@_WV?$stream_output_adapter@_W@__crt_stdio_output@@V?$positional_parameter_base@_WV?$stream_output_adapter@_W@__crt_stdio_output@@@2@@__crt_stdio_output@@AAEXI@Z 10050220 f i libucrtd:output.obj
 0001:0004f240       ?set_flag@?$output_processor@_WV?$stream_output_adapter@_W@__crt_stdio_output@@V?$standard_base@_WV?$stream_output_adapter@_W@__crt_stdio_output@@@2@@__crt_stdio_output@@AAEXI@Z 10050240 f i libucrtd:output.obj
 0001:0004f260       ?set_flag@?$output_processor@_WV?$string_output_adapter@_W@__crt_stdio_output@@V?$format_validation_base@_WV?$string_output_adapter@_W@__crt_stdio_output@@@2@@__crt_stdio_output@@AAEXI@Z 10050260 f i libucrtd:output.obj
 0001:0004f280       ?set_flag@?$output_processor@_WV?$string_output_adapter@_W@__crt_stdio_output@@V?$positional_parameter_base@_WV?$string_output_adapter@_W@__crt_stdio_output@@@2@@__crt_stdio_output@@AAEXI@Z 10050280 f i libucrtd:output.obj
 0001:0004f2a0       ?set_flag@?$output_processor@_WV?$string_output_adapter@_W@__crt_stdio_output@@V?$standard_base@_WV?$string_output_adapter@_W@__crt_stdio_output@@@2@@__crt_stdio_output@@AAEXI@Z 100502a0 f i libucrtd:output.obj
 0001:0004f2c0       ?should_format@?$positional_parameter_base@DV?$stream_output_adapter@D@__crt_stdio_output@@@__crt_stdio_output@@IAE_NXZ 100502c0 f i libucrtd:output.obj
 0001:0004f300       ?should_format@?$positional_parameter_base@DV?$string_output_adapter@D@__crt_stdio_output@@@__crt_stdio_output@@IAE_NXZ 10050300 f i libucrtd:output.obj
 0001:0004f340       ?should_format@?$positional_parameter_base@_WV?$stream_output_adapter@_W@__crt_stdio_output@@@__crt_stdio_output@@IAE_NXZ 10050340 f i libucrtd:output.obj
 0001:0004f380       ?should_format@?$positional_parameter_base@_WV?$string_output_adapter@_W@__crt_stdio_output@@@__crt_stdio_output@@IAE_NXZ 10050380 f i libucrtd:output.obj
 0001:0004f3c0       ?should_format@?$standard_base@DV?$stream_output_adapter@D@__crt_stdio_output@@@__crt_stdio_output@@IAE_NXZ 100503c0 f i libucrtd:output.obj
 0001:0004f3d0       ?should_format@?$standard_base@DV?$string_output_adapter@D@__crt_stdio_output@@@__crt_stdio_output@@IAE_NXZ 100503d0 f i libucrtd:output.obj
 0001:0004f3e0       ?should_format@?$standard_base@_WV?$stream_output_adapter@_W@__crt_stdio_output@@@__crt_stdio_output@@IAE_NXZ 100503e0 f i libucrtd:output.obj
 0001:0004f3f0       ?should_format@?$standard_base@_WV?$string_output_adapter@_W@__crt_stdio_output@@@__crt_stdio_output@@IAE_NXZ 100503f0 f i libucrtd:output.obj
 0001:0004f400       ?should_skip_normal_state_processing@?$positional_parameter_base@DV?$stream_output_adapter@D@__crt_stdio_output@@@__crt_stdio_output@@IAE_NXZ 10050400 f i libucrtd:output.obj
 0001:0004f450       ?should_skip_normal_state_processing@?$positional_parameter_base@DV?$string_output_adapter@D@__crt_stdio_output@@@__crt_stdio_output@@IAE_NXZ 10050450 f i libucrtd:output.obj
 0001:0004f4a0       ?should_skip_normal_state_processing@?$positional_parameter_base@_WV?$stream_output_adapter@_W@__crt_stdio_output@@@__crt_stdio_output@@IAE_NXZ 100504a0 f i libucrtd:output.obj
 0001:0004f4f0       ?should_skip_normal_state_processing@?$positional_parameter_base@_WV?$string_output_adapter@_W@__crt_stdio_output@@@__crt_stdio_output@@IAE_NXZ 100504f0 f i libucrtd:output.obj
 0001:0004f540       ?should_skip_normal_state_processing@?$standard_base@DV?$stream_output_adapter@D@__crt_stdio_output@@@__crt_stdio_output@@IAE_NXZ 10050540 f i libucrtd:output.obj
 0001:0004f550       ?should_skip_normal_state_processing@?$standard_base@DV?$string_output_adapter@D@__crt_stdio_output@@@__crt_stdio_output@@IAE_NXZ 10050550 f i libucrtd:output.obj
 0001:0004f560       ?should_skip_normal_state_processing@?$standard_base@_WV?$stream_output_adapter@_W@__crt_stdio_output@@@__crt_stdio_output@@IAE_NXZ 10050560 f i libucrtd:output.obj
 0001:0004f570       ?should_skip_normal_state_processing@?$standard_base@_WV?$string_output_adapter@_W@__crt_stdio_output@@@__crt_stdio_output@@IAE_NXZ 10050570 f i libucrtd:output.obj
 0001:0004f580       ?should_skip_type_state_output@?$positional_parameter_base@DV?$stream_output_adapter@D@__crt_stdio_output@@@__crt_stdio_output@@IBE_NXZ 10050580 f i libucrtd:output.obj
 0001:0004f5c0       ?should_skip_type_state_output@?$positional_parameter_base@DV?$string_output_adapter@D@__crt_stdio_output@@@__crt_stdio_output@@IBE_NXZ 100505c0 f i libucrtd:output.obj
 0001:0004f600       ?should_skip_type_state_output@?$positional_parameter_base@_WV?$stream_output_adapter@_W@__crt_stdio_output@@@__crt_stdio_output@@IBE_NXZ 10050600 f i libucrtd:output.obj
 0001:0004f640       ?should_skip_type_state_output@?$positional_parameter_base@_WV?$string_output_adapter@_W@__crt_stdio_output@@@__crt_stdio_output@@IBE_NXZ 10050640 f i libucrtd:output.obj
 0001:0004f680       ?should_skip_type_state_output@?$standard_base@DV?$stream_output_adapter@D@__crt_stdio_output@@@__crt_stdio_output@@IBE_NXZ 10050680 f i libucrtd:output.obj
 0001:0004f690       ?should_skip_type_state_output@?$standard_base@DV?$string_output_adapter@D@__crt_stdio_output@@@__crt_stdio_output@@IBE_NXZ 10050690 f i libucrtd:output.obj
 0001:0004f6a0       ?should_skip_type_state_output@?$standard_base@_WV?$stream_output_adapter@_W@__crt_stdio_output@@@__crt_stdio_output@@IBE_NXZ 100506a0 f i libucrtd:output.obj
 0001:0004f6b0       ?should_skip_type_state_output@?$standard_base@_WV?$string_output_adapter@_W@__crt_stdio_output@@@__crt_stdio_output@@IBE_NXZ 100506b0 f i libucrtd:output.obj
 0001:0004f6c0       ?state_case_dot@?$output_processor@DV?$stream_output_adapter@D@__crt_stdio_output@@V?$format_validation_base@DV?$stream_output_adapter@D@__crt_stdio_output@@@2@@__crt_stdio_output@@AAE_NXZ 100506c0 f i libucrtd:output.obj
 0001:0004f6e0       ?state_case_dot@?$output_processor@DV?$stream_output_adapter@D@__crt_stdio_output@@V?$positional_parameter_base@DV?$stream_output_adapter@D@__crt_stdio_output@@@2@@__crt_stdio_output@@AAE_NXZ 100506e0 f i libucrtd:output.obj
 0001:0004f700       ?state_case_dot@?$output_processor@DV?$stream_output_adapter@D@__crt_stdio_output@@V?$standard_base@DV?$stream_output_adapter@D@__crt_stdio_output@@@2@@__crt_stdio_output@@AAE_NXZ 10050700 f i libucrtd:output.obj
 0001:0004f720       ?state_case_dot@?$output_processor@DV?$string_output_adapter@D@__crt_stdio_output@@V?$format_validation_base@DV?$string_output_adapter@D@__crt_stdio_output@@@2@@__crt_stdio_output@@AAE_NXZ 10050720 f i libucrtd:output.obj
 0001:0004f740       ?state_case_dot@?$output_processor@DV?$string_output_adapter@D@__crt_stdio_output@@V?$positional_parameter_base@DV?$string_output_adapter@D@__crt_stdio_output@@@2@@__crt_stdio_output@@AAE_NXZ 10050740 f i libucrtd:output.obj
 0001:0004f760       ?state_case_dot@?$output_processor@DV?$string_output_adapter@D@__crt_stdio_output@@V?$standard_base@DV?$string_output_adapter@D@__crt_stdio_output@@@2@@__crt_stdio_output@@AAE_NXZ 10050760 f i libucrtd:output.obj
 0001:0004f780       ?state_case_dot@?$output_processor@_WV?$stream_output_adapter@_W@__crt_stdio_output@@V?$format_validation_base@_WV?$stream_output_adapter@_W@__crt_stdio_output@@@2@@__crt_stdio_output@@AAE_NXZ 10050780 f i libucrtd:output.obj
 0001:0004f7a0       ?state_case_dot@?$output_processor@_WV?$stream_output_adapter@_W@__crt_stdio_output@@V?$positional_parameter_base@_WV?$stream_output_adapter@_W@__crt_stdio_output@@@2@@__crt_stdio_output@@AAE_NXZ 100507a0 f i libucrtd:output.obj
 0001:0004f7c0       ?state_case_dot@?$output_processor@_WV?$stream_output_adapter@_W@__crt_stdio_output@@V?$standard_base@_WV?$stream_output_adapter@_W@__crt_stdio_output@@@2@@__crt_stdio_output@@AAE_NXZ 100507c0 f i libucrtd:output.obj
 0001:0004f7e0       ?state_case_dot@?$output_processor@_WV?$string_output_adapter@_W@__crt_stdio_output@@V?$format_validation_base@_WV?$string_output_adapter@_W@__crt_stdio_output@@@2@@__crt_stdio_output@@AAE_NXZ 100507e0 f i libucrtd:output.obj
 0001:0004f800       ?state_case_dot@?$output_processor@_WV?$string_output_adapter@_W@__crt_stdio_output@@V?$positional_parameter_base@_WV?$string_output_adapter@_W@__crt_stdio_output@@@2@@__crt_stdio_output@@AAE_NXZ 10050800 f i libucrtd:output.obj
 0001:0004f820       ?state_case_dot@?$output_processor@_WV?$string_output_adapter@_W@__crt_stdio_output@@V?$standard_base@_WV?$string_output_adapter@_W@__crt_stdio_output@@@2@@__crt_stdio_output@@AAE_NXZ 10050820 f i libucrtd:output.obj
 0001:0004f840       ?state_case_flag@?$output_processor@DV?$stream_output_adapter@D@__crt_stdio_output@@V?$format_validation_base@DV?$stream_output_adapter@D@__crt_stdio_output@@@2@@__crt_stdio_output@@AAE_NXZ 10050840 f i libucrtd:output.obj
 0001:0004f8f0       ?state_case_flag@?$output_processor@DV?$stream_output_adapter@D@__crt_stdio_output@@V?$positional_parameter_base@DV?$stream_output_adapter@D@__crt_stdio_output@@@2@@__crt_stdio_output@@AAE_NXZ 100508f0 f i libucrtd:output.obj
 0001:0004f9a0       ?state_case_flag@?$output_processor@DV?$stream_output_adapter@D@__crt_stdio_output@@V?$standard_base@DV?$stream_output_adapter@D@__crt_stdio_output@@@2@@__crt_stdio_output@@AAE_NXZ 100509a0 f i libucrtd:output.obj
 0001:0004fa50       ?state_case_flag@?$output_processor@DV?$string_output_adapter@D@__crt_stdio_output@@V?$format_validation_base@DV?$string_output_adapter@D@__crt_stdio_output@@@2@@__crt_stdio_output@@AAE_NXZ 10050a50 f i libucrtd:output.obj
 0001:0004fb00       ?state_case_flag@?$output_processor@DV?$string_output_adapter@D@__crt_stdio_output@@V?$positional_parameter_base@DV?$string_output_adapter@D@__crt_stdio_output@@@2@@__crt_stdio_output@@AAE_NXZ 10050b00 f i libucrtd:output.obj
 0001:0004fbb0       ?state_case_flag@?$output_processor@DV?$string_output_adapter@D@__crt_stdio_output@@V?$standard_base@DV?$string_output_adapter@D@__crt_stdio_output@@@2@@__crt_stdio_output@@AAE_NXZ 10050bb0 f i libucrtd:output.obj
 0001:0004fc60       ?state_case_flag@?$output_processor@_WV?$stream_output_adapter@_W@__crt_stdio_output@@V?$format_validation_base@_WV?$stream_output_adapter@_W@__crt_stdio_output@@@2@@__crt_stdio_output@@AAE_NXZ 10050c60 f i libucrtd:output.obj
 0001:0004fd10       ?state_case_flag@?$output_processor@_WV?$stream_output_adapter@_W@__crt_stdio_output@@V?$positional_parameter_base@_WV?$stream_output_adapter@_W@__crt_stdio_output@@@2@@__crt_stdio_output@@AAE_NXZ 10050d10 f i libucrtd:output.obj
 0001:0004fdc0       ?state_case_flag@?$output_processor@_WV?$stream_output_adapter@_W@__crt_stdio_output@@V?$standard_base@_WV?$stream_output_adapter@_W@__crt_stdio_output@@@2@@__crt_stdio_output@@AAE_NXZ 10050dc0 f i libucrtd:output.obj
 0001:0004fe70       ?state_case_flag@?$output_processor@_WV?$string_output_adapter@_W@__crt_stdio_output@@V?$format_validation_base@_WV?$string_output_adapter@_W@__crt_stdio_output@@@2@@__crt_stdio_output@@AAE_NXZ 10050e70 f i libucrtd:output.obj
 0001:0004ff20       ?state_case_flag@?$output_processor@_WV?$string_output_adapter@_W@__crt_stdio_output@@V?$positional_parameter_base@_WV?$string_output_adapter@_W@__crt_stdio_output@@@2@@__crt_stdio_output@@AAE_NXZ 10050f20 f i libucrtd:output.obj
 0001:0004ffd0       ?state_case_flag@?$output_processor@_WV?$string_output_adapter@_W@__crt_stdio_output@@V?$standard_base@_WV?$string_output_adapter@_W@__crt_stdio_output@@@2@@__crt_stdio_output@@AAE_NXZ 10050fd0 f i libucrtd:output.obj
 0001:00050080       ?state_case_normal@?$output_processor@DV?$stream_output_adapter@D@__crt_stdio_output@@V?$format_validation_base@DV?$stream_output_adapter@D@__crt_stdio_output@@@2@@__crt_stdio_output@@AAE_NXZ 10051080 f i libucrtd:output.obj
 0001:00050130       ?state_case_normal@?$output_processor@DV?$stream_output_adapter@D@__crt_stdio_output@@V?$positional_parameter_base@DV?$stream_output_adapter@D@__crt_stdio_output@@@2@@__crt_stdio_output@@AAE_NXZ 10051130 f i libucrtd:output.obj
 0001:000501e0       ?state_case_normal@?$output_processor@DV?$stream_output_adapter@D@__crt_stdio_output@@V?$standard_base@DV?$stream_output_adapter@D@__crt_stdio_output@@@2@@__crt_stdio_output@@AAE_NXZ 100511e0 f i libucrtd:output.obj
 0001:00050290       ?state_case_normal@?$output_processor@DV?$string_output_adapter@D@__crt_stdio_output@@V?$format_validation_base@DV?$string_output_adapter@D@__crt_stdio_output@@@2@@__crt_stdio_output@@AAE_NXZ 10051290 f i libucrtd:output.obj
 0001:00050340       ?state_case_normal@?$output_processor@DV?$string_output_adapter@D@__crt_stdio_output@@V?$positional_parameter_base@DV?$string_output_adapter@D@__crt_stdio_output@@@2@@__crt_stdio_output@@AAE_NXZ 10051340 f i libucrtd:output.obj
 0001:000503f0       ?state_case_normal@?$output_processor@DV?$string_output_adapter@D@__crt_stdio_output@@V?$standard_base@DV?$string_output_adapter@D@__crt_stdio_output@@@2@@__crt_stdio_output@@AAE_NXZ 100513f0 f i libucrtd:output.obj
 0001:000504a0       ?state_case_normal@?$output_processor@_WV?$stream_output_adapter@_W@__crt_stdio_output@@V?$format_validation_base@_WV?$stream_output_adapter@_W@__crt_stdio_output@@@2@@__crt_stdio_output@@AAE_NXZ 100514a0 f i libucrtd:output.obj
 0001:00050550       ?state_case_normal@?$output_processor@_WV?$stream_output_adapter@_W@__crt_stdio_output@@V?$positional_parameter_base@_WV?$stream_output_adapter@_W@__crt_stdio_output@@@2@@__crt_stdio_output@@AAE_NXZ 10051550 f i libucrtd:output.obj
 0001:00050600       ?state_case_normal@?$output_processor@_WV?$stream_output_adapter@_W@__crt_stdio_output@@V?$standard_base@_WV?$stream_output_adapter@_W@__crt_stdio_output@@@2@@__crt_stdio_output@@AAE_NXZ 10051600 f i libucrtd:output.obj
 0001:000506b0       ?state_case_normal@?$output_processor@_WV?$string_output_adapter@_W@__crt_stdio_output@@V?$format_validation_base@_WV?$string_output_adapter@_W@__crt_stdio_output@@@2@@__crt_stdio_output@@AAE_NXZ 100516b0 f i libucrtd:output.obj
 0001:00050760       ?state_case_normal@?$output_processor@_WV?$string_output_adapter@_W@__crt_stdio_output@@V?$positional_parameter_base@_WV?$string_output_adapter@_W@__crt_stdio_output@@@2@@__crt_stdio_output@@AAE_NXZ 10051760 f i libucrtd:output.obj
 0001:00050810       ?state_case_normal@?$output_processor@_WV?$string_output_adapter@_W@__crt_stdio_output@@V?$standard_base@_WV?$string_output_adapter@_W@__crt_stdio_output@@@2@@__crt_stdio_output@@AAE_NXZ 10051810 f i libucrtd:output.obj
 0001:000508c0       ?state_case_normal_common@?$output_processor@DV?$stream_output_adapter@D@__crt_stdio_output@@V?$format_validation_base@DV?$stream_output_adapter@D@__crt_stdio_output@@@2@@__crt_stdio_output@@AAE_NXZ 100518c0 f i libucrtd:output.obj
 0001:00050910       ?state_case_normal_common@?$output_processor@DV?$stream_output_adapter@D@__crt_stdio_output@@V?$positional_parameter_base@DV?$stream_output_adapter@D@__crt_stdio_output@@@2@@__crt_stdio_output@@AAE_NXZ 10051910 f i libucrtd:output.obj
 0001:00050960       ?state_case_normal_common@?$output_processor@DV?$stream_output_adapter@D@__crt_stdio_output@@V?$standard_base@DV?$stream_output_adapter@D@__crt_stdio_output@@@2@@__crt_stdio_output@@AAE_NXZ 10051960 f i libucrtd:output.obj
 0001:000509b0       ?state_case_normal_common@?$output_processor@DV?$string_output_adapter@D@__crt_stdio_output@@V?$format_validation_base@DV?$string_output_adapter@D@__crt_stdio_output@@@2@@__crt_stdio_output@@AAE_NXZ 100519b0 f i libucrtd:output.obj
 0001:00050a00       ?state_case_normal_common@?$output_processor@DV?$string_output_adapter@D@__crt_stdio_output@@V?$positional_parameter_base@DV?$string_output_adapter@D@__crt_stdio_output@@@2@@__crt_stdio_output@@AAE_NXZ 10051a00 f i libucrtd:output.obj
 0001:00050a50       ?state_case_normal_common@?$output_processor@DV?$string_output_adapter@D@__crt_stdio_output@@V?$standard_base@DV?$string_output_adapter@D@__crt_stdio_output@@@2@@__crt_stdio_output@@AAE_NXZ 10051a50 f i libucrtd:output.obj
 0001:00050aa0       ?state_case_normal_common@?$output_processor@_WV?$stream_output_adapter@_W@__crt_stdio_output@@V?$format_validation_base@_WV?$stream_output_adapter@_W@__crt_stdio_output@@@2@@__crt_stdio_output@@AAE_NXZ 10051aa0 f i libucrtd:output.obj
 0001:00050af0       ?state_case_normal_common@?$output_processor@_WV?$stream_output_adapter@_W@__crt_stdio_output@@V?$positional_parameter_base@_WV?$stream_output_adapter@_W@__crt_stdio_output@@@2@@__crt_stdio_output@@AAE_NXZ 10051af0 f i libucrtd:output.obj
 0001:00050b40       ?state_case_normal_common@?$output_processor@_WV?$stream_output_adapter@_W@__crt_stdio_output@@V?$standard_base@_WV?$stream_output_adapter@_W@__crt_stdio_output@@@2@@__crt_stdio_output@@AAE_NXZ 10051b40 f i libucrtd:output.obj
 0001:00050b90       ?state_case_normal_common@?$output_processor@_WV?$string_output_adapter@_W@__crt_stdio_output@@V?$format_validation_base@_WV?$string_output_adapter@_W@__crt_stdio_output@@@2@@__crt_stdio_output@@AAE_NXZ 10051b90 f i libucrtd:output.obj
 0001:00050be0       ?state_case_normal_common@?$output_processor@_WV?$string_output_adapter@_W@__crt_stdio_output@@V?$positional_parameter_base@_WV?$string_output_adapter@_W@__crt_stdio_output@@@2@@__crt_stdio_output@@AAE_NXZ 10051be0 f i libucrtd:output.obj
 0001:00050c30       ?state_case_normal_common@?$output_processor@_WV?$string_output_adapter@_W@__crt_stdio_output@@V?$standard_base@_WV?$string_output_adapter@_W@__crt_stdio_output@@@2@@__crt_stdio_output@@AAE_NXZ 10051c30 f i libucrtd:output.obj
 0001:00050c80       ?state_case_normal_tchar@?$output_processor@DV?$stream_output_adapter@D@__crt_stdio_output@@V?$format_validation_base@DV?$stream_output_adapter@D@__crt_stdio_output@@@2@@__crt_stdio_output@@AAE_ND@Z 10051c80 f i libucrtd:output.obj
 0001:00050d80       ?state_case_normal_tchar@?$output_processor@DV?$stream_output_adapter@D@__crt_stdio_output@@V?$positional_parameter_base@DV?$stream_output_adapter@D@__crt_stdio_output@@@2@@__crt_stdio_output@@AAE_ND@Z 10051d80 f i libucrtd:output.obj
 0001:00050e80       ?state_case_normal_tchar@?$output_processor@DV?$stream_output_adapter@D@__crt_stdio_output@@V?$standard_base@DV?$stream_output_adapter@D@__crt_stdio_output@@@2@@__crt_stdio_output@@AAE_ND@Z 10051e80 f i libucrtd:output.obj
 0001:00050f80       ?state_case_normal_tchar@?$output_processor@DV?$string_output_adapter@D@__crt_stdio_output@@V?$format_validation_base@DV?$string_output_adapter@D@__crt_stdio_output@@@2@@__crt_stdio_output@@AAE_ND@Z 10051f80 f i libucrtd:output.obj
 0001:00051080       ?state_case_normal_tchar@?$output_processor@DV?$string_output_adapter@D@__crt_stdio_output@@V?$positional_parameter_base@DV?$string_output_adapter@D@__crt_stdio_output@@@2@@__crt_stdio_output@@AAE_ND@Z 10052080 f i libucrtd:output.obj
 0001:00051180       ?state_case_normal_tchar@?$output_processor@DV?$string_output_adapter@D@__crt_stdio_output@@V?$standard_base@DV?$string_output_adapter@D@__crt_stdio_output@@@2@@__crt_stdio_output@@AAE_ND@Z 10052180 f i libucrtd:output.obj
 0001:00051280       ?state_case_normal_tchar@?$output_processor@_WV?$stream_output_adapter@_W@__crt_stdio_output@@V?$format_validation_base@_WV?$stream_output_adapter@_W@__crt_stdio_output@@@2@@__crt_stdio_output@@AAE_N_W@Z 10052280 f i libucrtd:output.obj
 0001:000512a0       ?state_case_normal_tchar@?$output_processor@_WV?$stream_output_adapter@_W@__crt_stdio_output@@V?$positional_parameter_base@_WV?$stream_output_adapter@_W@__crt_stdio_output@@@2@@__crt_stdio_output@@AAE_N_W@Z 100522a0 f i libucrtd:output.obj
 0001:000512c0       ?state_case_normal_tchar@?$output_processor@_WV?$stream_output_adapter@_W@__crt_stdio_output@@V?$standard_base@_WV?$stream_output_adapter@_W@__crt_stdio_output@@@2@@__crt_stdio_output@@AAE_N_W@Z 100522c0 f i libucrtd:output.obj
 0001:000512e0       ?state_case_normal_tchar@?$output_processor@_WV?$string_output_adapter@_W@__crt_stdio_output@@V?$format_validation_base@_WV?$string_output_adapter@_W@__crt_stdio_output@@@2@@__crt_stdio_output@@AAE_N_W@Z 100522e0 f i libucrtd:output.obj
 0001:00051300       ?state_case_normal_tchar@?$output_processor@_WV?$string_output_adapter@_W@__crt_stdio_output@@V?$positional_parameter_base@_WV?$string_output_adapter@_W@__crt_stdio_output@@@2@@__crt_stdio_output@@AAE_N_W@Z 10052300 f i libucrtd:output.obj
 0001:00051320       ?state_case_normal_tchar@?$output_processor@_WV?$string_output_adapter@_W@__crt_stdio_output@@V?$standard_base@_WV?$string_output_adapter@_W@__crt_stdio_output@@@2@@__crt_stdio_output@@AAE_N_W@Z 10052320 f i libucrtd:output.obj
 0001:00051340       ?state_case_percent@?$output_processor@DV?$stream_output_adapter@D@__crt_stdio_output@@V?$format_validation_base@DV?$stream_output_adapter@D@__crt_stdio_output@@@2@@__crt_stdio_output@@AAE_NXZ 10052340 f i libucrtd:output.obj
 0001:00051390       ?state_case_percent@?$output_processor@DV?$stream_output_adapter@D@__crt_stdio_output@@V?$positional_parameter_base@DV?$stream_output_adapter@D@__crt_stdio_output@@@2@@__crt_stdio_output@@AAE_NXZ 10052390 f i libucrtd:output.obj
 0001:000513e0       ?state_case_percent@?$output_processor@DV?$stream_output_adapter@D@__crt_stdio_output@@V?$standard_base@DV?$stream_output_adapter@D@__crt_stdio_output@@@2@@__crt_stdio_output@@AAE_NXZ 100523e0 f i libucrtd:output.obj
 0001:00051430       ?state_case_percent@?$output_processor@DV?$string_output_adapter@D@__crt_stdio_output@@V?$format_validation_base@DV?$string_output_adapter@D@__crt_stdio_output@@@2@@__crt_stdio_output@@AAE_NXZ 10052430 f i libucrtd:output.obj
 0001:00051480       ?state_case_percent@?$output_processor@DV?$string_output_adapter@D@__crt_stdio_output@@V?$positional_parameter_base@DV?$string_output_adapter@D@__crt_stdio_output@@@2@@__crt_stdio_output@@AAE_NXZ 10052480 f i libucrtd:output.obj
 0001:000514d0       ?state_case_percent@?$output_processor@DV?$string_output_adapter@D@__crt_stdio_output@@V?$standard_base@DV?$string_output_adapter@D@__crt_stdio_output@@@2@@__crt_stdio_output@@AAE_NXZ 100524d0 f i libucrtd:output.obj
 0001:00051520       ?state_case_percent@?$output_processor@_WV?$stream_output_adapter@_W@__crt_stdio_output@@V?$format_validation_base@_WV?$stream_output_adapter@_W@__crt_stdio_output@@@2@@__crt_stdio_output@@AAE_NXZ 10052520 f i libucrtd:output.obj
 0001:00051570       ?state_case_percent@?$output_processor@_WV?$stream_output_adapter@_W@__crt_stdio_output@@V?$positional_parameter_base@_WV?$stream_output_adapter@_W@__crt_stdio_output@@@2@@__crt_stdio_output@@AAE_NXZ 10052570 f i libucrtd:output.obj
 0001:000515c0       ?state_case_percent@?$output_processor@_WV?$stream_output_adapter@_W@__crt_stdio_output@@V?$standard_base@_WV?$stream_output_adapter@_W@__crt_stdio_output@@@2@@__crt_stdio_output@@AAE_NXZ 100525c0 f i libucrtd:output.obj
 0001:00051610       ?state_case_percent@?$output_processor@_WV?$string_output_adapter@_W@__crt_stdio_output@@V?$format_validation_base@_WV?$string_output_adapter@_W@__crt_stdio_output@@@2@@__crt_stdio_output@@AAE_NXZ 10052610 f i libucrtd:output.obj
 0001:00051660       ?state_case_percent@?$output_processor@_WV?$string_output_adapter@_W@__crt_stdio_output@@V?$positional_parameter_base@_WV?$string_output_adapter@_W@__crt_stdio_output@@@2@@__crt_stdio_output@@AAE_NXZ 10052660 f i libucrtd:output.obj
 0001:000516b0       ?state_case_percent@?$output_processor@_WV?$string_output_adapter@_W@__crt_stdio_output@@V?$standard_base@_WV?$string_output_adapter@_W@__crt_stdio_output@@@2@@__crt_stdio_output@@AAE_NXZ 100526b0 f i libucrtd:output.obj
 0001:00051700       ?state_case_precision@?$output_processor@DV?$stream_output_adapter@D@__crt_stdio_output@@V?$format_validation_base@DV?$stream_output_adapter@D@__crt_stdio_output@@@2@@__crt_stdio_output@@AAE_NXZ 10052700 f i libucrtd:output.obj
 0001:00051770       ?state_case_precision@?$output_processor@DV?$stream_output_adapter@D@__crt_stdio_output@@V?$positional_parameter_base@DV?$stream_output_adapter@D@__crt_stdio_output@@@2@@__crt_stdio_output@@AAE_NXZ 10052770 f i libucrtd:output.obj
 0001:000517e0       ?state_case_precision@?$output_processor@DV?$stream_output_adapter@D@__crt_stdio_output@@V?$standard_base@DV?$stream_output_adapter@D@__crt_stdio_output@@@2@@__crt_stdio_output@@AAE_NXZ 100527e0 f i libucrtd:output.obj
 0001:00051850       ?state_case_precision@?$output_processor@DV?$string_output_adapter@D@__crt_stdio_output@@V?$format_validation_base@DV?$string_output_adapter@D@__crt_stdio_output@@@2@@__crt_stdio_output@@AAE_NXZ 10052850 f i libucrtd:output.obj
 0001:000518c0       ?state_case_precision@?$output_processor@DV?$string_output_adapter@D@__crt_stdio_output@@V?$positional_parameter_base@DV?$string_output_adapter@D@__crt_stdio_output@@@2@@__crt_stdio_output@@AAE_NXZ 100528c0 f i libucrtd:output.obj
 0001:00051930       ?state_case_precision@?$output_processor@DV?$string_output_adapter@D@__crt_stdio_output@@V?$standard_base@DV?$string_output_adapter@D@__crt_stdio_output@@@2@@__crt_stdio_output@@AAE_NXZ 10052930 f i libucrtd:output.obj
 0001:000519a0       ?state_case_precision@?$output_processor@_WV?$stream_output_adapter@_W@__crt_stdio_output@@V?$format_validation_base@_WV?$stream_output_adapter@_W@__crt_stdio_output@@@2@@__crt_stdio_output@@AAE_NXZ 100529a0 f i libucrtd:output.obj
 0001:00051a10       ?state_case_precision@?$output_processor@_WV?$stream_output_adapter@_W@__crt_stdio_output@@V?$positional_parameter_base@_WV?$stream_output_adapter@_W@__crt_stdio_output@@@2@@__crt_stdio_output@@AAE_NXZ 10052a10 f i libucrtd:output.obj
 0001:00051a80       ?state_case_precision@?$output_processor@_WV?$stream_output_adapter@_W@__crt_stdio_output@@V?$standard_base@_WV?$stream_output_adapter@_W@__crt_stdio_output@@@2@@__crt_stdio_output@@AAE_NXZ 10052a80 f i libucrtd:output.obj
 0001:00051af0       ?state_case_precision@?$output_processor@_WV?$string_output_adapter@_W@__crt_stdio_output@@V?$format_validation_base@_WV?$string_output_adapter@_W@__crt_stdio_output@@@2@@__crt_stdio_output@@AAE_NXZ 10052af0 f i libucrtd:output.obj
 0001:00051b60       ?state_case_precision@?$output_processor@_WV?$string_output_adapter@_W@__crt_stdio_output@@V?$positional_parameter_base@_WV?$string_output_adapter@_W@__crt_stdio_output@@@2@@__crt_stdio_output@@AAE_NXZ 10052b60 f i libucrtd:output.obj
 0001:00051bd0       ?state_case_precision@?$output_processor@_WV?$string_output_adapter@_W@__crt_stdio_output@@V?$standard_base@_WV?$string_output_adapter@_W@__crt_stdio_output@@@2@@__crt_stdio_output@@AAE_NXZ 10052bd0 f i libucrtd:output.obj
 0001:00051c40       ?state_case_size@?$output_processor@DV?$stream_output_adapter@D@__crt_stdio_output@@V?$format_validation_base@DV?$stream_output_adapter@D@__crt_stdio_output@@@2@@__crt_stdio_output@@AAE_NXZ 10052c40 f i libucrtd:output.obj
 0001:00052010       ?state_case_size@?$output_processor@DV?$stream_output_adapter@D@__crt_stdio_output@@V?$positional_parameter_base@DV?$stream_output_adapter@D@__crt_stdio_output@@@2@@__crt_stdio_output@@AAE_NXZ 10053010 f i libucrtd:output.obj
 0001:000523e0       ?state_case_size@?$output_processor@DV?$stream_output_adapter@D@__crt_stdio_output@@V?$standard_base@DV?$stream_output_adapter@D@__crt_stdio_output@@@2@@__crt_stdio_output@@AAE_NXZ 100533e0 f i libucrtd:output.obj
 0001:000527b0       ?state_case_size@?$output_processor@DV?$string_output_adapter@D@__crt_stdio_output@@V?$format_validation_base@DV?$string_output_adapter@D@__crt_stdio_output@@@2@@__crt_stdio_output@@AAE_NXZ 100537b0 f i libucrtd:output.obj
 0001:00052b80       ?state_case_size@?$output_processor@DV?$string_output_adapter@D@__crt_stdio_output@@V?$positional_parameter_base@DV?$string_output_adapter@D@__crt_stdio_output@@@2@@__crt_stdio_output@@AAE_NXZ 10053b80 f i libucrtd:output.obj
 0001:00052f50       ?state_case_size@?$output_processor@DV?$string_output_adapter@D@__crt_stdio_output@@V?$standard_base@DV?$string_output_adapter@D@__crt_stdio_output@@@2@@__crt_stdio_output@@AAE_NXZ 10053f50 f i libucrtd:output.obj
 0001:00053320       ?state_case_size@?$output_processor@_WV?$stream_output_adapter@_W@__crt_stdio_output@@V?$format_validation_base@_WV?$stream_output_adapter@_W@__crt_stdio_output@@@2@@__crt_stdio_output@@AAE_NXZ 10054320 f i libucrtd:output.obj
 0001:000536f0       ?state_case_size@?$output_processor@_WV?$stream_output_adapter@_W@__crt_stdio_output@@V?$positional_parameter_base@_WV?$stream_output_adapter@_W@__crt_stdio_output@@@2@@__crt_stdio_output@@AAE_NXZ 100546f0 f i libucrtd:output.obj
 0001:00053ac0       ?state_case_size@?$output_processor@_WV?$stream_output_adapter@_W@__crt_stdio_output@@V?$standard_base@_WV?$stream_output_adapter@_W@__crt_stdio_output@@@2@@__crt_stdio_output@@AAE_NXZ 10054ac0 f i libucrtd:output.obj
 0001:00053e90       ?state_case_size@?$output_processor@_WV?$string_output_adapter@_W@__crt_stdio_output@@V?$format_validation_base@_WV?$string_output_adapter@_W@__crt_stdio_output@@@2@@__crt_stdio_output@@AAE_NXZ 10054e90 f i libucrtd:output.obj
 0001:00054260       ?state_case_size@?$output_processor@_WV?$string_output_adapter@_W@__crt_stdio_output@@V?$positional_parameter_base@_WV?$string_output_adapter@_W@__crt_stdio_output@@@2@@__crt_stdio_output@@AAE_NXZ 10055260 f i libucrtd:output.obj
 0001:00054630       ?state_case_size@?$output_processor@_WV?$string_output_adapter@_W@__crt_stdio_output@@V?$standard_base@_WV?$string_output_adapter@_W@__crt_stdio_output@@@2@@__crt_stdio_output@@AAE_NXZ 10055630 f i libucrtd:output.obj
 0001:00054a00       ?state_case_type@?$output_processor@DV?$stream_output_adapter@D@__crt_stdio_output@@V?$format_validation_base@DV?$stream_output_adapter@D@__crt_stdio_output@@@2@@__crt_stdio_output@@AAE_NXZ 10055a00 f i libucrtd:output.obj
 0001:00054db0       ?state_case_type@?$output_processor@DV?$stream_output_adapter@D@__crt_stdio_output@@V?$positional_parameter_base@DV?$stream_output_adapter@D@__crt_stdio_output@@@2@@__crt_stdio_output@@AAE_NXZ 10055db0 f i libucrtd:output.obj
 0001:00055160       ?state_case_type@?$output_processor@DV?$stream_output_adapter@D@__crt_stdio_output@@V?$standard_base@DV?$stream_output_adapter@D@__crt_stdio_output@@@2@@__crt_stdio_output@@AAE_NXZ 10056160 f i libucrtd:output.obj
 0001:00055510       ?state_case_type@?$output_processor@DV?$string_output_adapter@D@__crt_stdio_output@@V?$format_validation_base@DV?$string_output_adapter@D@__crt_stdio_output@@@2@@__crt_stdio_output@@AAE_NXZ 10056510 f i libucrtd:output.obj
 0001:000558c0       ?state_case_type@?$output_processor@DV?$string_output_adapter@D@__crt_stdio_output@@V?$positional_parameter_base@DV?$string_output_adapter@D@__crt_stdio_output@@@2@@__crt_stdio_output@@AAE_NXZ 100568c0 f i libucrtd:output.obj
 0001:00055c70       ?state_case_type@?$output_processor@DV?$string_output_adapter@D@__crt_stdio_output@@V?$standard_base@DV?$string_output_adapter@D@__crt_stdio_output@@@2@@__crt_stdio_output@@AAE_NXZ 10056c70 f i libucrtd:output.obj
 0001:00056020       ?state_case_type@?$output_processor@_WV?$stream_output_adapter@_W@__crt_stdio_output@@V?$format_validation_base@_WV?$stream_output_adapter@_W@__crt_stdio_output@@@2@@__crt_stdio_output@@AAE_NXZ 10057020 f i libucrtd:output.obj
 0001:00056400       ?state_case_type@?$output_processor@_WV?$stream_output_adapter@_W@__crt_stdio_output@@V?$positional_parameter_base@_WV?$stream_output_adapter@_W@__crt_stdio_output@@@2@@__crt_stdio_output@@AAE_NXZ 10057400 f i libucrtd:output.obj
 0001:000567e0       ?state_case_type@?$output_processor@_WV?$stream_output_adapter@_W@__crt_stdio_output@@V?$standard_base@_WV?$stream_output_adapter@_W@__crt_stdio_output@@@2@@__crt_stdio_output@@AAE_NXZ 100577e0 f i libucrtd:output.obj
 0001:00056bc0       ?state_case_type@?$output_processor@_WV?$string_output_adapter@_W@__crt_stdio_output@@V?$format_validation_base@_WV?$string_output_adapter@_W@__crt_stdio_output@@@2@@__crt_stdio_output@@AAE_NXZ 10057bc0 f i libucrtd:output.obj
 0001:00056fa0       ?state_case_type@?$output_processor@_WV?$string_output_adapter@_W@__crt_stdio_output@@V?$positional_parameter_base@_WV?$string_output_adapter@_W@__crt_stdio_output@@@2@@__crt_stdio_output@@AAE_NXZ 10057fa0 f i libucrtd:output.obj
 0001:00057380       ?state_case_type@?$output_processor@_WV?$string_output_adapter@_W@__crt_stdio_output@@V?$standard_base@_WV?$string_output_adapter@_W@__crt_stdio_output@@@2@@__crt_stdio_output@@AAE_NXZ 10058380 f i libucrtd:output.obj
 0001:00057760       ?state_case_width@?$output_processor@DV?$stream_output_adapter@D@__crt_stdio_output@@V?$format_validation_base@DV?$stream_output_adapter@D@__crt_stdio_output@@@2@@__crt_stdio_output@@AAE_NXZ 10058760 f i libucrtd:output.obj
 0001:000577e0       ?state_case_width@?$output_processor@DV?$stream_output_adapter@D@__crt_stdio_output@@V?$positional_parameter_base@DV?$stream_output_adapter@D@__crt_stdio_output@@@2@@__crt_stdio_output@@AAE_NXZ 100587e0 f i libucrtd:output.obj
 0001:00057860       ?state_case_width@?$output_processor@DV?$stream_output_adapter@D@__crt_stdio_output@@V?$standard_base@DV?$stream_output_adapter@D@__crt_stdio_output@@@2@@__crt_stdio_output@@AAE_NXZ 10058860 f i libucrtd:output.obj
 0001:000578e0       ?state_case_width@?$output_processor@DV?$string_output_adapter@D@__crt_stdio_output@@V?$format_validation_base@DV?$string_output_adapter@D@__crt_stdio_output@@@2@@__crt_stdio_output@@AAE_NXZ 100588e0 f i libucrtd:output.obj
 0001:00057960       ?state_case_width@?$output_processor@DV?$string_output_adapter@D@__crt_stdio_output@@V?$positional_parameter_base@DV?$string_output_adapter@D@__crt_stdio_output@@@2@@__crt_stdio_output@@AAE_NXZ 10058960 f i libucrtd:output.obj
 0001:000579e0       ?state_case_width@?$output_processor@DV?$string_output_adapter@D@__crt_stdio_output@@V?$standard_base@DV?$string_output_adapter@D@__crt_stdio_output@@@2@@__crt_stdio_output@@AAE_NXZ 100589e0 f i libucrtd:output.obj
 0001:00057a60       ?state_case_width@?$output_processor@_WV?$stream_output_adapter@_W@__crt_stdio_output@@V?$format_validation_base@_WV?$stream_output_adapter@_W@__crt_stdio_output@@@2@@__crt_stdio_output@@AAE_NXZ 10058a60 f i libucrtd:output.obj
 0001:00057ae0       ?state_case_width@?$output_processor@_WV?$stream_output_adapter@_W@__crt_stdio_output@@V?$positional_parameter_base@_WV?$stream_output_adapter@_W@__crt_stdio_output@@@2@@__crt_stdio_output@@AAE_NXZ 10058ae0 f i libucrtd:output.obj
 0001:00057b60       ?state_case_width@?$output_processor@_WV?$stream_output_adapter@_W@__crt_stdio_output@@V?$standard_base@_WV?$stream_output_adapter@_W@__crt_stdio_output@@@2@@__crt_stdio_output@@AAE_NXZ 10058b60 f i libucrtd:output.obj
 0001:00057be0       ?state_case_width@?$output_processor@_WV?$string_output_adapter@_W@__crt_stdio_output@@V?$format_validation_base@_WV?$string_output_adapter@_W@__crt_stdio_output@@@2@@__crt_stdio_output@@AAE_NXZ 10058be0 f i libucrtd:output.obj
 0001:00057c60       ?state_case_width@?$output_processor@_WV?$string_output_adapter@_W@__crt_stdio_output@@V?$positional_parameter_base@_WV?$string_output_adapter@_W@__crt_stdio_output@@@2@@__crt_stdio_output@@AAE_NXZ 10058c60 f i libucrtd:output.obj
 0001:00057ce0       ?state_case_width@?$output_processor@_WV?$string_output_adapter@_W@__crt_stdio_output@@V?$standard_base@_WV?$string_output_adapter@_W@__crt_stdio_output@@@2@@__crt_stdio_output@@AAE_NXZ 10058ce0 f i libucrtd:output.obj
 0001:00057d60       ?state_count@?$format_validation_base@DV?$stream_output_adapter@D@__crt_stdio_output@@@__crt_stdio_output@@KAIXZ 10058d60 f i libucrtd:output.obj
 0001:00057d70       ?state_count@?$format_validation_base@DV?$string_output_adapter@D@__crt_stdio_output@@@__crt_stdio_output@@KAIXZ 10058d70 f i libucrtd:output.obj
 0001:00057d80       ?state_count@?$format_validation_base@_WV?$stream_output_adapter@_W@__crt_stdio_output@@@__crt_stdio_output@@KAIXZ 10058d80 f i libucrtd:output.obj
 0001:00057d90       ?state_count@?$format_validation_base@_WV?$string_output_adapter@_W@__crt_stdio_output@@@__crt_stdio_output@@KAIXZ 10058d90 f i libucrtd:output.obj
 0001:00057da0       ?state_count@?$standard_base@DV?$stream_output_adapter@D@__crt_stdio_output@@@__crt_stdio_output@@KAIXZ 10058da0 f i libucrtd:output.obj
 0001:00057db0       ?state_count@?$standard_base@DV?$string_output_adapter@D@__crt_stdio_output@@@__crt_stdio_output@@KAIXZ 10058db0 f i libucrtd:output.obj
 0001:00057dc0       ?state_count@?$standard_base@_WV?$stream_output_adapter@_W@__crt_stdio_output@@@__crt_stdio_output@@KAIXZ 10058dc0 f i libucrtd:output.obj
 0001:00057dd0       ?state_count@?$standard_base@_WV?$string_output_adapter@_W@__crt_stdio_output@@@__crt_stdio_output@@KAIXZ 10058dd0 f i libucrtd:output.obj
 0001:00057de0       ?state_transition_table@?$format_validation_base@DV?$stream_output_adapter@D@__crt_stdio_output@@@__crt_stdio_output@@KAABV?$spectre_mitigated_lookup_table@Ustate_transition_pair@__crt_stdio_output@@$0IA@@2@XZ 10058de0 f i libucrtd:output.obj
 0001:00057df0       ?state_transition_table@?$format_validation_base@DV?$string_output_adapter@D@__crt_stdio_output@@@__crt_stdio_output@@KAABV?$spectre_mitigated_lookup_table@Ustate_transition_pair@__crt_stdio_output@@$0IA@@2@XZ 10058df0 f i libucrtd:output.obj
 0001:00057e00       ?state_transition_table@?$format_validation_base@_WV?$stream_output_adapter@_W@__crt_stdio_output@@@__crt_stdio_output@@KAABV?$spectre_mitigated_lookup_table@Ustate_transition_pair@__crt_stdio_output@@$0IA@@2@XZ 10058e00 f i libucrtd:output.obj
 0001:00057e10       ?state_transition_table@?$format_validation_base@_WV?$string_output_adapter@_W@__crt_stdio_output@@@__crt_stdio_output@@KAABV?$spectre_mitigated_lookup_table@Ustate_transition_pair@__crt_stdio_output@@$0IA@@2@XZ 10058e10 f i libucrtd:output.obj
 0001:00057e20       ?state_transition_table@?$standard_base@DV?$stream_output_adapter@D@__crt_stdio_output@@@__crt_stdio_output@@KAABV?$spectre_mitigated_lookup_table@Ustate_transition_pair@__crt_stdio_output@@$0IA@@2@XZ 10058e20 f i libucrtd:output.obj
 0001:00057e30       ?state_transition_table@?$standard_base@DV?$string_output_adapter@D@__crt_stdio_output@@@__crt_stdio_output@@KAABV?$spectre_mitigated_lookup_table@Ustate_transition_pair@__crt_stdio_output@@$0IA@@2@XZ 10058e30 f i libucrtd:output.obj
 0001:00057e40       ?state_transition_table@?$standard_base@_WV?$stream_output_adapter@_W@__crt_stdio_output@@@__crt_stdio_output@@KAABV?$spectre_mitigated_lookup_table@Ustate_transition_pair@__crt_stdio_output@@$0IA@@2@XZ 10058e40 f i libucrtd:output.obj
 0001:00057e50       ?state_transition_table@?$standard_base@_WV?$string_output_adapter@_W@__crt_stdio_output@@@__crt_stdio_output@@KAABV?$spectre_mitigated_lookup_table@Ustate_transition_pair@__crt_stdio_output@@$0IA@@2@XZ 10058e50 f i libucrtd:output.obj
 0001:00057e60       ?tchar_string@?$common_data@D@__crt_stdio_output@@IAEAAPADD@Z 10058e60 f i libucrtd:output.obj
 0001:00057e80       ?tchar_string@?$common_data@D@__crt_stdio_output@@IAEAAPADXZ 10058e80 f i libucrtd:output.obj
 0001:00057ea0       ?tchar_string@?$common_data@_W@__crt_stdio_output@@IAEAAPA_WXZ 10058ea0 f i libucrtd:output.obj
 0001:00057ec0       ?tchar_string@?$common_data@_W@__crt_stdio_output@@IAEAAPA_W_W@Z 10058ec0 f i libucrtd:output.obj
 0001:00057ee0       ?to_integer_size@__crt_stdio_output@@YAIW4length_modifier@1@@Z 10058ee0 f i libucrtd:output.obj
 0001:00057f80       ?type_case_X@?$output_processor@DV?$stream_output_adapter@D@__crt_stdio_output@@V?$format_validation_base@DV?$stream_output_adapter@D@__crt_stdio_output@@@2@@__crt_stdio_output@@AAE_NXZ 10058f80 f i libucrtd:output.obj
 0001:00057fa0       ?type_case_X@?$output_processor@DV?$stream_output_adapter@D@__crt_stdio_output@@V?$positional_parameter_base@DV?$stream_output_adapter@D@__crt_stdio_output@@@2@@__crt_stdio_output@@AAE_NXZ 10058fa0 f i libucrtd:output.obj
 0001:00057fc0       ?type_case_X@?$output_processor@DV?$stream_output_adapter@D@__crt_stdio_output@@V?$standard_base@DV?$stream_output_adapter@D@__crt_stdio_output@@@2@@__crt_stdio_output@@AAE_NXZ 10058fc0 f i libucrtd:output.obj
 0001:00057fe0       ?type_case_X@?$output_processor@DV?$string_output_adapter@D@__crt_stdio_output@@V?$format_validation_base@DV?$string_output_adapter@D@__crt_stdio_output@@@2@@__crt_stdio_output@@AAE_NXZ 10058fe0 f i libucrtd:output.obj
 0001:00058000       ?type_case_X@?$output_processor@DV?$string_output_adapter@D@__crt_stdio_output@@V?$positional_parameter_base@DV?$string_output_adapter@D@__crt_stdio_output@@@2@@__crt_stdio_output@@AAE_NXZ 10059000 f i libucrtd:output.obj
 0001:00058020       ?type_case_X@?$output_processor@DV?$string_output_adapter@D@__crt_stdio_output@@V?$standard_base@DV?$string_output_adapter@D@__crt_stdio_output@@@2@@__crt_stdio_output@@AAE_NXZ 10059020 f i libucrtd:output.obj
 0001:00058040       ?type_case_X@?$output_processor@_WV?$stream_output_adapter@_W@__crt_stdio_output@@V?$format_validation_base@_WV?$stream_output_adapter@_W@__crt_stdio_output@@@2@@__crt_stdio_output@@AAE_NXZ 10059040 f i libucrtd:output.obj
 0001:00058060       ?type_case_X@?$output_processor@_WV?$stream_output_adapter@_W@__crt_stdio_output@@V?$positional_parameter_base@_WV?$stream_output_adapter@_W@__crt_stdio_output@@@2@@__crt_stdio_output@@AAE_NXZ 10059060 f i libucrtd:output.obj
 0001:00058080       ?type_case_X@?$output_processor@_WV?$stream_output_adapter@_W@__crt_stdio_output@@V?$standard_base@_WV?$stream_output_adapter@_W@__crt_stdio_output@@@2@@__crt_stdio_output@@AAE_NXZ 10059080 f i libucrtd:output.obj
 0001:000580a0       ?type_case_X@?$output_processor@_WV?$string_output_adapter@_W@__crt_stdio_output@@V?$format_validation_base@_WV?$string_output_adapter@_W@__crt_stdio_output@@@2@@__crt_stdio_output@@AAE_NXZ 100590a0 f i libucrtd:output.obj
 0001:000580c0       ?type_case_X@?$output_processor@_WV?$string_output_adapter@_W@__crt_stdio_output@@V?$positional_parameter_base@_WV?$string_output_adapter@_W@__crt_stdio_output@@@2@@__crt_stdio_output@@AAE_NXZ 100590c0 f i libucrtd:output.obj
 0001:000580e0       ?type_case_X@?$output_processor@_WV?$string_output_adapter@_W@__crt_stdio_output@@V?$standard_base@_WV?$string_output_adapter@_W@__crt_stdio_output@@@2@@__crt_stdio_output@@AAE_NXZ 100590e0 f i libucrtd:output.obj
 0001:00058100       ?type_case_Z@?$output_processor@DV?$stream_output_adapter@D@__crt_stdio_output@@V?$format_validation_base@DV?$stream_output_adapter@D@__crt_stdio_output@@@2@@__crt_stdio_output@@AAE_NXZ 10059100 f i libucrtd:output.obj
 0001:000581f0       ?type_case_Z@?$output_processor@DV?$stream_output_adapter@D@__crt_stdio_output@@V?$positional_parameter_base@DV?$stream_output_adapter@D@__crt_stdio_output@@@2@@__crt_stdio_output@@AAE_NXZ 100591f0 f i libucrtd:output.obj
 0001:000582e0       ?type_case_Z@?$output_processor@DV?$stream_output_adapter@D@__crt_stdio_output@@V?$standard_base@DV?$stream_output_adapter@D@__crt_stdio_output@@@2@@__crt_stdio_output@@AAE_NXZ 100592e0 f i libucrtd:output.obj
 0001:000583d0       ?type_case_Z@?$output_processor@DV?$string_output_adapter@D@__crt_stdio_output@@V?$format_validation_base@DV?$string_output_adapter@D@__crt_stdio_output@@@2@@__crt_stdio_output@@AAE_NXZ 100593d0 f i libucrtd:output.obj
 0001:000584c0       ?type_case_Z@?$output_processor@DV?$string_output_adapter@D@__crt_stdio_output@@V?$positional_parameter_base@DV?$string_output_adapter@D@__crt_stdio_output@@@2@@__crt_stdio_output@@AAE_NXZ 100594c0 f i libucrtd:output.obj
 0001:000585b0       ?type_case_Z@?$output_processor@DV?$string_output_adapter@D@__crt_stdio_output@@V?$standard_base@DV?$string_output_adapter@D@__crt_stdio_output@@@2@@__crt_stdio_output@@AAE_NXZ 100595b0 f i libucrtd:output.obj
 0001:000586a0       ?type_case_Z@?$output_processor@_WV?$stream_output_adapter@_W@__crt_stdio_output@@V?$format_validation_base@_WV?$stream_output_adapter@_W@__crt_stdio_output@@@2@@__crt_stdio_output@@AAE_NXZ 100596a0 f i libucrtd:output.obj
 0001:00058790       ?type_case_Z@?$output_processor@_WV?$stream_output_adapter@_W@__crt_stdio_output@@V?$positional_parameter_base@_WV?$stream_output_adapter@_W@__crt_stdio_output@@@2@@__crt_stdio_output@@AAE_NXZ 10059790 f i libucrtd:output.obj
 0001:00058880       ?type_case_Z@?$output_processor@_WV?$stream_output_adapter@_W@__crt_stdio_output@@V?$standard_base@_WV?$stream_output_adapter@_W@__crt_stdio_output@@@2@@__crt_stdio_output@@AAE_NXZ 10059880 f i libucrtd:output.obj
 0001:00058970       ?type_case_Z@?$output_processor@_WV?$string_output_adapter@_W@__crt_stdio_output@@V?$format_validation_base@_WV?$string_output_adapter@_W@__crt_stdio_output@@@2@@__crt_stdio_output@@AAE_NXZ 10059970 f i libucrtd:output.obj
 0001:00058a60       ?type_case_Z@?$output_processor@_WV?$string_output_adapter@_W@__crt_stdio_output@@V?$positional_parameter_base@_WV?$string_output_adapter@_W@__crt_stdio_output@@@2@@__crt_stdio_output@@AAE_NXZ 10059a60 f i libucrtd:output.obj
 0001:00058b50       ?type_case_Z@?$output_processor@_WV?$string_output_adapter@_W@__crt_stdio_output@@V?$standard_base@_WV?$string_output_adapter@_W@__crt_stdio_output@@@2@@__crt_stdio_output@@AAE_NXZ 10059b50 f i libucrtd:output.obj
 0001:00058c40       ?type_case_a@?$output_processor@DV?$stream_output_adapter@D@__crt_stdio_output@@V?$format_validation_base@DV?$stream_output_adapter@D@__crt_stdio_output@@@2@@__crt_stdio_output@@AAE_NXZ 10059c40 f i libucrtd:output.obj
 0001:00058eb0       ?type_case_a@?$output_processor@DV?$stream_output_adapter@D@__crt_stdio_output@@V?$positional_parameter_base@DV?$stream_output_adapter@D@__crt_stdio_output@@@2@@__crt_stdio_output@@AAE_NXZ 10059eb0 f i libucrtd:output.obj
 0001:00059120       ?type_case_a@?$output_processor@DV?$stream_output_adapter@D@__crt_stdio_output@@V?$standard_base@DV?$stream_output_adapter@D@__crt_stdio_output@@@2@@__crt_stdio_output@@AAE_NXZ 1005a120 f i libucrtd:output.obj
 0001:00059390       ?type_case_a@?$output_processor@DV?$string_output_adapter@D@__crt_stdio_output@@V?$format_validation_base@DV?$string_output_adapter@D@__crt_stdio_output@@@2@@__crt_stdio_output@@AAE_NXZ 1005a390 f i libucrtd:output.obj
 0001:00059600       ?type_case_a@?$output_processor@DV?$string_output_adapter@D@__crt_stdio_output@@V?$positional_parameter_base@DV?$string_output_adapter@D@__crt_stdio_output@@@2@@__crt_stdio_output@@AAE_NXZ 1005a600 f i libucrtd:output.obj
 0001:00059870       ?type_case_a@?$output_processor@DV?$string_output_adapter@D@__crt_stdio_output@@V?$standard_base@DV?$string_output_adapter@D@__crt_stdio_output@@@2@@__crt_stdio_output@@AAE_NXZ 1005a870 f i libucrtd:output.obj
 0001:00059ae0       ?type_case_a@?$output_processor@_WV?$stream_output_adapter@_W@__crt_stdio_output@@V?$format_validation_base@_WV?$stream_output_adapter@_W@__crt_stdio_output@@@2@@__crt_stdio_output@@AAE_NXZ 1005aae0 f i libucrtd:output.obj
 0001:00059d50       ?type_case_a@?$output_processor@_WV?$stream_output_adapter@_W@__crt_stdio_output@@V?$positional_parameter_base@_WV?$stream_output_adapter@_W@__crt_stdio_output@@@2@@__crt_stdio_output@@AAE_NXZ 1005ad50 f i libucrtd:output.obj
 0001:00059fc0       ?type_case_a@?$output_processor@_WV?$stream_output_adapter@_W@__crt_stdio_output@@V?$standard_base@_WV?$stream_output_adapter@_W@__crt_stdio_output@@@2@@__crt_stdio_output@@AAE_NXZ 1005afc0 f i libucrtd:output.obj
 0001:0005a230       ?type_case_a@?$output_processor@_WV?$string_output_adapter@_W@__crt_stdio_output@@V?$format_validation_base@_WV?$string_output_adapter@_W@__crt_stdio_output@@@2@@__crt_stdio_output@@AAE_NXZ 1005b230 f i libucrtd:output.obj
 0001:0005a4a0       ?type_case_a@?$output_processor@_WV?$string_output_adapter@_W@__crt_stdio_output@@V?$positional_parameter_base@_WV?$string_output_adapter@_W@__crt_stdio_output@@@2@@__crt_stdio_output@@AAE_NXZ 1005b4a0 f i libucrtd:output.obj
 0001:0005a710       ?type_case_a@?$output_processor@_WV?$string_output_adapter@_W@__crt_stdio_output@@V?$standard_base@_WV?$string_output_adapter@_W@__crt_stdio_output@@@2@@__crt_stdio_output@@AAE_NXZ 1005b710 f i libucrtd:output.obj
 0001:0005a980       ?type_case_c@?$output_processor@DV?$stream_output_adapter@D@__crt_stdio_output@@V?$format_validation_base@DV?$stream_output_adapter@D@__crt_stdio_output@@@2@@__crt_stdio_output@@AAE_NXZ 1005b980 f i libucrtd:output.obj
 0001:0005a9a0       ?type_case_c@?$output_processor@DV?$stream_output_adapter@D@__crt_stdio_output@@V?$positional_parameter_base@DV?$stream_output_adapter@D@__crt_stdio_output@@@2@@__crt_stdio_output@@AAE_NXZ 1005b9a0 f i libucrtd:output.obj
 0001:0005a9c0       ?type_case_c@?$output_processor@DV?$stream_output_adapter@D@__crt_stdio_output@@V?$standard_base@DV?$stream_output_adapter@D@__crt_stdio_output@@@2@@__crt_stdio_output@@AAE_NXZ 1005b9c0 f i libucrtd:output.obj
 0001:0005a9e0       ?type_case_c@?$output_processor@DV?$string_output_adapter@D@__crt_stdio_output@@V?$format_validation_base@DV?$string_output_adapter@D@__crt_stdio_output@@@2@@__crt_stdio_output@@AAE_NXZ 1005b9e0 f i libucrtd:output.obj
 0001:0005aa00       ?type_case_c@?$output_processor@DV?$string_output_adapter@D@__crt_stdio_output@@V?$positional_parameter_base@DV?$string_output_adapter@D@__crt_stdio_output@@@2@@__crt_stdio_output@@AAE_NXZ 1005ba00 f i libucrtd:output.obj
 0001:0005aa20       ?type_case_c@?$output_processor@DV?$string_output_adapter@D@__crt_stdio_output@@V?$standard_base@DV?$string_output_adapter@D@__crt_stdio_output@@@2@@__crt_stdio_output@@AAE_NXZ 1005ba20 f i libucrtd:output.obj
 0001:0005aa40       ?type_case_c@?$output_processor@_WV?$stream_output_adapter@_W@__crt_stdio_output@@V?$format_validation_base@_WV?$stream_output_adapter@_W@__crt_stdio_output@@@2@@__crt_stdio_output@@AAE_NXZ 1005ba40 f i libucrtd:output.obj
 0001:0005aa60       ?type_case_c@?$output_processor@_WV?$stream_output_adapter@_W@__crt_stdio_output@@V?$positional_parameter_base@_WV?$stream_output_adapter@_W@__crt_stdio_output@@@2@@__crt_stdio_output@@AAE_NXZ 1005ba60 f i libucrtd:output.obj
 0001:0005aa80       ?type_case_c@?$output_processor@_WV?$stream_output_adapter@_W@__crt_stdio_output@@V?$standard_base@_WV?$stream_output_adapter@_W@__crt_stdio_output@@@2@@__crt_stdio_output@@AAE_NXZ 1005ba80 f i libucrtd:output.obj
 0001:0005aaa0       ?type_case_c@?$output_processor@_WV?$string_output_adapter@_W@__crt_stdio_output@@V?$format_validation_base@_WV?$string_output_adapter@_W@__crt_stdio_output@@@2@@__crt_stdio_output@@AAE_NXZ 1005baa0 f i libucrtd:output.obj
 0001:0005aac0       ?type_case_c@?$output_processor@_WV?$string_output_adapter@_W@__crt_stdio_output@@V?$positional_parameter_base@_WV?$string_output_adapter@_W@__crt_stdio_output@@@2@@__crt_stdio_output@@AAE_NXZ 1005bac0 f i libucrtd:output.obj
 0001:0005aae0       ?type_case_c@?$output_processor@_WV?$string_output_adapter@_W@__crt_stdio_output@@V?$standard_base@_WV?$string_output_adapter@_W@__crt_stdio_output@@@2@@__crt_stdio_output@@AAE_NXZ 1005bae0 f i libucrtd:output.obj
 0001:0005ab00       ?type_case_c_tchar@?$output_processor@DV?$stream_output_adapter@D@__crt_stdio_output@@V?$format_validation_base@DV?$stream_output_adapter@D@__crt_stdio_output@@@2@@__crt_stdio_output@@AAE_ND@Z 1005bb00 f i libucrtd:output.obj
 0001:0005ac10       ?type_case_c_tchar@?$output_processor@DV?$stream_output_adapter@D@__crt_stdio_output@@V?$positional_parameter_base@DV?$stream_output_adapter@D@__crt_stdio_output@@@2@@__crt_stdio_output@@AAE_ND@Z 1005bc10 f i libucrtd:output.obj
 0001:0005ad20       ?type_case_c_tchar@?$output_processor@DV?$stream_output_adapter@D@__crt_stdio_output@@V?$standard_base@DV?$stream_output_adapter@D@__crt_stdio_output@@@2@@__crt_stdio_output@@AAE_ND@Z 1005bd20 f i libucrtd:output.obj
 0001:0005ae30       ?type_case_c_tchar@?$output_processor@DV?$string_output_adapter@D@__crt_stdio_output@@V?$format_validation_base@DV?$string_output_adapter@D@__crt_stdio_output@@@2@@__crt_stdio_output@@AAE_ND@Z 1005be30 f i libucrtd:output.obj
 0001:0005af40       ?type_case_c_tchar@?$output_processor@DV?$string_output_adapter@D@__crt_stdio_output@@V?$positional_parameter_base@DV?$string_output_adapter@D@__crt_stdio_output@@@2@@__crt_stdio_output@@AAE_ND@Z 1005bf40 f i libucrtd:output.obj
 0001:0005b050       ?type_case_c_tchar@?$output_processor@DV?$string_output_adapter@D@__crt_stdio_output@@V?$standard_base@DV?$string_output_adapter@D@__crt_stdio_output@@@2@@__crt_stdio_output@@AAE_ND@Z 1005c050 f i libucrtd:output.obj
 0001:0005b160       ?type_case_c_tchar@?$output_processor@_WV?$stream_output_adapter@_W@__crt_stdio_output@@V?$format_validation_base@_WV?$stream_output_adapter@_W@__crt_stdio_output@@@2@@__crt_stdio_output@@AAE_N_W@Z 1005c160 f i libucrtd:output.obj
 0001:0005b260       ?type_case_c_tchar@?$output_processor@_WV?$stream_output_adapter@_W@__crt_stdio_output@@V?$positional_parameter_base@_WV?$stream_output_adapter@_W@__crt_stdio_output@@@2@@__crt_stdio_output@@AAE_N_W@Z 1005c260 f i libucrtd:output.obj
 0001:0005b360       ?type_case_c_tchar@?$output_processor@_WV?$stream_output_adapter@_W@__crt_stdio_output@@V?$standard_base@_WV?$stream_output_adapter@_W@__crt_stdio_output@@@2@@__crt_stdio_output@@AAE_N_W@Z 1005c360 f i libucrtd:output.obj
 0001:0005b460       ?type_case_c_tchar@?$output_processor@_WV?$string_output_adapter@_W@__crt_stdio_output@@V?$format_validation_base@_WV?$string_output_adapter@_W@__crt_stdio_output@@@2@@__crt_stdio_output@@AAE_N_W@Z 1005c460 f i libucrtd:output.obj
 0001:0005b560       ?type_case_c_tchar@?$output_processor@_WV?$string_output_adapter@_W@__crt_stdio_output@@V?$positional_parameter_base@_WV?$string_output_adapter@_W@__crt_stdio_output@@@2@@__crt_stdio_output@@AAE_N_W@Z 1005c560 f i libucrtd:output.obj
 0001:0005b660       ?type_case_c_tchar@?$output_processor@_WV?$string_output_adapter@_W@__crt_stdio_output@@V?$standard_base@_WV?$string_output_adapter@_W@__crt_stdio_output@@@2@@__crt_stdio_output@@AAE_N_W@Z 1005c660 f i libucrtd:output.obj
 0001:0005b760       ?type_case_d@?$output_processor@DV?$stream_output_adapter@D@__crt_stdio_output@@V?$format_validation_base@DV?$stream_output_adapter@D@__crt_stdio_output@@@2@@__crt_stdio_output@@AAE_NXZ 1005c760 f i libucrtd:output.obj
 0001:0005b790       ?type_case_d@?$output_processor@DV?$stream_output_adapter@D@__crt_stdio_output@@V?$positional_parameter_base@DV?$stream_output_adapter@D@__crt_stdio_output@@@2@@__crt_stdio_output@@AAE_NXZ 1005c790 f i libucrtd:output.obj
 0001:0005b7c0       ?type_case_d@?$output_processor@DV?$stream_output_adapter@D@__crt_stdio_output@@V?$standard_base@DV?$stream_output_adapter@D@__crt_stdio_output@@@2@@__crt_stdio_output@@AAE_NXZ 1005c7c0 f i libucrtd:output.obj
 0001:0005b7f0       ?type_case_d@?$output_processor@DV?$string_output_adapter@D@__crt_stdio_output@@V?$format_validation_base@DV?$string_output_adapter@D@__crt_stdio_output@@@2@@__crt_stdio_output@@AAE_NXZ 1005c7f0 f i libucrtd:output.obj
 0001:0005b820       ?type_case_d@?$output_processor@DV?$string_output_adapter@D@__crt_stdio_output@@V?$positional_parameter_base@DV?$string_output_adapter@D@__crt_stdio_output@@@2@@__crt_stdio_output@@AAE_NXZ 1005c820 f i libucrtd:output.obj
 0001:0005b850       ?type_case_d@?$output_processor@DV?$string_output_adapter@D@__crt_stdio_output@@V?$standard_base@DV?$string_output_adapter@D@__crt_stdio_output@@@2@@__crt_stdio_output@@AAE_NXZ 1005c850 f i libucrtd:output.obj
 0001:0005b880       ?type_case_d@?$output_processor@_WV?$stream_output_adapter@_W@__crt_stdio_output@@V?$format_validation_base@_WV?$stream_output_adapter@_W@__crt_stdio_output@@@2@@__crt_stdio_output@@AAE_NXZ 1005c880 f i libucrtd:output.obj
 0001:0005b8b0       ?type_case_d@?$output_processor@_WV?$stream_output_adapter@_W@__crt_stdio_output@@V?$positional_parameter_base@_WV?$stream_output_adapter@_W@__crt_stdio_output@@@2@@__crt_stdio_output@@AAE_NXZ 1005c8b0 f i libucrtd:output.obj
 0001:0005b8e0       ?type_case_d@?$output_processor@_WV?$stream_output_adapter@_W@__crt_stdio_output@@V?$standard_base@_WV?$stream_output_adapter@_W@__crt_stdio_output@@@2@@__crt_stdio_output@@AAE_NXZ 1005c8e0 f i libucrtd:output.obj
 0001:0005b910       ?type_case_d@?$output_processor@_WV?$string_output_adapter@_W@__crt_stdio_output@@V?$format_validation_base@_WV?$string_output_adapter@_W@__crt_stdio_output@@@2@@__crt_stdio_output@@AAE_NXZ 1005c910 f i libucrtd:output.obj
 0001:0005b940       ?type_case_d@?$output_processor@_WV?$string_output_adapter@_W@__crt_stdio_output@@V?$positional_parameter_base@_WV?$string_output_adapter@_W@__crt_stdio_output@@@2@@__crt_stdio_output@@AAE_NXZ 1005c940 f i libucrtd:output.obj
 0001:0005b970       ?type_case_d@?$output_processor@_WV?$string_output_adapter@_W@__crt_stdio_output@@V?$standard_base@_WV?$string_output_adapter@_W@__crt_stdio_output@@@2@@__crt_stdio_output@@AAE_NXZ 1005c970 f i libucrtd:output.obj
 0001:0005b9a0       ?type_case_integer@?$output_processor@DV?$stream_output_adapter@D@__crt_stdio_output@@V?$format_validation_base@DV?$stream_output_adapter@D@__crt_stdio_output@@@2@@__crt_stdio_output@@AAE_NI_N@Z 1005c9a0 f i libucrtd:output.obj
 0001:0005bcf0       ?type_case_integer@?$output_processor@DV?$stream_output_adapter@D@__crt_stdio_output@@V?$positional_parameter_base@DV?$stream_output_adapter@D@__crt_stdio_output@@@2@@__crt_stdio_output@@AAE_NI_N@Z 1005ccf0 f i libucrtd:output.obj
 0001:0005c040       ?type_case_integer@?$output_processor@DV?$stream_output_adapter@D@__crt_stdio_output@@V?$standard_base@DV?$stream_output_adapter@D@__crt_stdio_output@@@2@@__crt_stdio_output@@AAE_NI_N@Z 1005d040 f i libucrtd:output.obj
 0001:0005c390       ?type_case_integer@?$output_processor@DV?$string_output_adapter@D@__crt_stdio_output@@V?$format_validation_base@DV?$string_output_adapter@D@__crt_stdio_output@@@2@@__crt_stdio_output@@AAE_NI_N@Z 1005d390 f i libucrtd:output.obj
 0001:0005c6e0       ?type_case_integer@?$output_processor@DV?$string_output_adapter@D@__crt_stdio_output@@V?$positional_parameter_base@DV?$string_output_adapter@D@__crt_stdio_output@@@2@@__crt_stdio_output@@AAE_NI_N@Z 1005d6e0 f i libucrtd:output.obj
 0001:0005ca30       ?type_case_integer@?$output_processor@DV?$string_output_adapter@D@__crt_stdio_output@@V?$standard_base@DV?$string_output_adapter@D@__crt_stdio_output@@@2@@__crt_stdio_output@@AAE_NI_N@Z 1005da30 f i libucrtd:output.obj
 0001:0005cd80       ?type_case_integer@?$output_processor@_WV?$stream_output_adapter@_W@__crt_stdio_output@@V?$format_validation_base@_WV?$stream_output_adapter@_W@__crt_stdio_output@@@2@@__crt_stdio_output@@AAE_NI_N@Z 1005dd80 f i libucrtd:output.obj
 0001:0005d0d0       ?type_case_integer@?$output_processor@_WV?$stream_output_adapter@_W@__crt_stdio_output@@V?$positional_parameter_base@_WV?$stream_output_adapter@_W@__crt_stdio_output@@@2@@__crt_stdio_output@@AAE_NI_N@Z 1005e0d0 f i libucrtd:output.obj
 0001:0005d420       ?type_case_integer@?$output_processor@_WV?$stream_output_adapter@_W@__crt_stdio_output@@V?$standard_base@_WV?$stream_output_adapter@_W@__crt_stdio_output@@@2@@__crt_stdio_output@@AAE_NI_N@Z 1005e420 f i libucrtd:output.obj
 0001:0005d770       ?type_case_integer@?$output_processor@_WV?$string_output_adapter@_W@__crt_stdio_output@@V?$format_validation_base@_WV?$string_output_adapter@_W@__crt_stdio_output@@@2@@__crt_stdio_output@@AAE_NI_N@Z 1005e770 f i libucrtd:output.obj
 0001:0005dac0       ?type_case_integer@?$output_processor@_WV?$string_output_adapter@_W@__crt_stdio_output@@V?$positional_parameter_base@_WV?$string_output_adapter@_W@__crt_stdio_output@@@2@@__crt_stdio_output@@AAE_NI_N@Z 1005eac0 f i libucrtd:output.obj
 0001:0005de10       ?type_case_integer@?$output_processor@_WV?$string_output_adapter@_W@__crt_stdio_output@@V?$standard_base@_WV?$string_output_adapter@_W@__crt_stdio_output@@@2@@__crt_stdio_output@@AAE_NI_N@Z 1005ee10 f i libucrtd:output.obj
 0001:0005e160       ?type_case_n@?$output_processor@DV?$stream_output_adapter@D@__crt_stdio_output@@V?$format_validation_base@DV?$stream_output_adapter@D@__crt_stdio_output@@@2@@__crt_stdio_output@@AAE_NXZ 1005f160 f i libucrtd:output.obj
 0001:0005e350       ?type_case_n@?$output_processor@DV?$stream_output_adapter@D@__crt_stdio_output@@V?$positional_parameter_base@DV?$stream_output_adapter@D@__crt_stdio_output@@@2@@__crt_stdio_output@@AAE_NXZ 1005f350 f i libucrtd:output.obj
 0001:0005e540       ?type_case_n@?$output_processor@DV?$stream_output_adapter@D@__crt_stdio_output@@V?$standard_base@DV?$stream_output_adapter@D@__crt_stdio_output@@@2@@__crt_stdio_output@@AAE_NXZ 1005f540 f i libucrtd:output.obj
 0001:0005e730       ?type_case_n@?$output_processor@DV?$string_output_adapter@D@__crt_stdio_output@@V?$format_validation_base@DV?$string_output_adapter@D@__crt_stdio_output@@@2@@__crt_stdio_output@@AAE_NXZ 1005f730 f i libucrtd:output.obj
 0001:0005e920       ?type_case_n@?$output_processor@DV?$string_output_adapter@D@__crt_stdio_output@@V?$positional_parameter_base@DV?$string_output_adapter@D@__crt_stdio_output@@@2@@__crt_stdio_output@@AAE_NXZ 1005f920 f i libucrtd:output.obj
 0001:0005eb10       ?type_case_n@?$output_processor@DV?$string_output_adapter@D@__crt_stdio_output@@V?$standard_base@DV?$string_output_adapter@D@__crt_stdio_output@@@2@@__crt_stdio_output@@AAE_NXZ 1005fb10 f i libucrtd:output.obj
 0001:0005ed00       ?type_case_n@?$output_processor@_WV?$stream_output_adapter@_W@__crt_stdio_output@@V?$format_validation_base@_WV?$stream_output_adapter@_W@__crt_stdio_output@@@2@@__crt_stdio_output@@AAE_NXZ 1005fd00 f i libucrtd:output.obj
 0001:0005eef0       ?type_case_n@?$output_processor@_WV?$stream_output_adapter@_W@__crt_stdio_output@@V?$positional_parameter_base@_WV?$stream_output_adapter@_W@__crt_stdio_output@@@2@@__crt_stdio_output@@AAE_NXZ 1005fef0 f i libucrtd:output.obj
 0001:0005f0e0       ?type_case_n@?$output_processor@_WV?$stream_output_adapter@_W@__crt_stdio_output@@V?$standard_base@_WV?$stream_output_adapter@_W@__crt_stdio_output@@@2@@__crt_stdio_output@@AAE_NXZ 100600e0 f i libucrtd:output.obj
 0001:0005f2d0       ?type_case_n@?$output_processor@_WV?$string_output_adapter@_W@__crt_stdio_output@@V?$format_validation_base@_WV?$string_output_adapter@_W@__crt_stdio_output@@@2@@__crt_stdio_output@@AAE_NXZ 100602d0 f i libucrtd:output.obj
 0001:0005f4c0       ?type_case_n@?$output_processor@_WV?$string_output_adapter@_W@__crt_stdio_output@@V?$positional_parameter_base@_WV?$string_output_adapter@_W@__crt_stdio_output@@@2@@__crt_stdio_output@@AAE_NXZ 100604c0 f i libucrtd:output.obj
 0001:0005f6b0       ?type_case_n@?$output_processor@_WV?$string_output_adapter@_W@__crt_stdio_output@@V?$standard_base@_WV?$string_output_adapter@_W@__crt_stdio_output@@@2@@__crt_stdio_output@@AAE_NXZ 100606b0 f i libucrtd:output.obj
 0001:0005f8a0       ?type_case_o@?$output_processor@DV?$stream_output_adapter@D@__crt_stdio_output@@V?$format_validation_base@DV?$stream_output_adapter@D@__crt_stdio_output@@@2@@__crt_stdio_output@@AAE_NXZ 100608a0 f i libucrtd:output.obj
 0001:0005f8e0       ?type_case_o@?$output_processor@DV?$stream_output_adapter@D@__crt_stdio_output@@V?$positional_parameter_base@DV?$stream_output_adapter@D@__crt_stdio_output@@@2@@__crt_stdio_output@@AAE_NXZ 100608e0 f i libucrtd:output.obj
 0001:0005f920       ?type_case_o@?$output_processor@DV?$stream_output_adapter@D@__crt_stdio_output@@V?$standard_base@DV?$stream_output_adapter@D@__crt_stdio_output@@@2@@__crt_stdio_output@@AAE_NXZ 10060920 f i libucrtd:output.obj
 0001:0005f960       ?type_case_o@?$output_processor@DV?$string_output_adapter@D@__crt_stdio_output@@V?$format_validation_base@DV?$string_output_adapter@D@__crt_stdio_output@@@2@@__crt_stdio_output@@AAE_NXZ 10060960 f i libucrtd:output.obj
 0001:0005f9a0       ?type_case_o@?$output_processor@DV?$string_output_adapter@D@__crt_stdio_output@@V?$positional_parameter_base@DV?$string_output_adapter@D@__crt_stdio_output@@@2@@__crt_stdio_output@@AAE_NXZ 100609a0 f i libucrtd:output.obj
 0001:0005f9e0       ?type_case_o@?$output_processor@DV?$string_output_adapter@D@__crt_stdio_output@@V?$standard_base@DV?$string_output_adapter@D@__crt_stdio_output@@@2@@__crt_stdio_output@@AAE_NXZ 100609e0 f i libucrtd:output.obj
 0001:0005fa20       ?type_case_o@?$output_processor@_WV?$stream_output_adapter@_W@__crt_stdio_output@@V?$format_validation_base@_WV?$stream_output_adapter@_W@__crt_stdio_output@@@2@@__crt_stdio_output@@AAE_NXZ 10060a20 f i libucrtd:output.obj
 0001:0005fa60       ?type_case_o@?$output_processor@_WV?$stream_output_adapter@_W@__crt_stdio_output@@V?$positional_parameter_base@_WV?$stream_output_adapter@_W@__crt_stdio_output@@@2@@__crt_stdio_output@@AAE_NXZ 10060a60 f i libucrtd:output.obj
 0001:0005faa0       ?type_case_o@?$output_processor@_WV?$stream_output_adapter@_W@__crt_stdio_output@@V?$standard_base@_WV?$stream_output_adapter@_W@__crt_stdio_output@@@2@@__crt_stdio_output@@AAE_NXZ 10060aa0 f i libucrtd:output.obj
 0001:0005fae0       ?type_case_o@?$output_processor@_WV?$string_output_adapter@_W@__crt_stdio_output@@V?$format_validation_base@_WV?$string_output_adapter@_W@__crt_stdio_output@@@2@@__crt_stdio_output@@AAE_NXZ 10060ae0 f i libucrtd:output.obj
 0001:0005fb20       ?type_case_o@?$output_processor@_WV?$string_output_adapter@_W@__crt_stdio_output@@V?$positional_parameter_base@_WV?$string_output_adapter@_W@__crt_stdio_output@@@2@@__crt_stdio_output@@AAE_NXZ 10060b20 f i libucrtd:output.obj
 0001:0005fb60       ?type_case_o@?$output_processor@_WV?$string_output_adapter@_W@__crt_stdio_output@@V?$standard_base@_WV?$string_output_adapter@_W@__crt_stdio_output@@@2@@__crt_stdio_output@@AAE_NXZ 10060b60 f i libucrtd:output.obj
 0001:0005fba0       ?type_case_p@?$output_processor@DV?$stream_output_adapter@D@__crt_stdio_output@@V?$format_validation_base@DV?$stream_output_adapter@D@__crt_stdio_output@@@2@@__crt_stdio_output@@AAE_NXZ 10060ba0 f i libucrtd:output.obj
 0001:0005fbd0       ?type_case_p@?$output_processor@DV?$stream_output_adapter@D@__crt_stdio_output@@V?$positional_parameter_base@DV?$stream_output_adapter@D@__crt_stdio_output@@@2@@__crt_stdio_output@@AAE_NXZ 10060bd0 f i libucrtd:output.obj
 0001:0005fc00       ?type_case_p@?$output_processor@DV?$stream_output_adapter@D@__crt_stdio_output@@V?$standard_base@DV?$stream_output_adapter@D@__crt_stdio_output@@@2@@__crt_stdio_output@@AAE_NXZ 10060c00 f i libucrtd:output.obj
 0001:0005fc30       ?type_case_p@?$output_processor@DV?$string_output_adapter@D@__crt_stdio_output@@V?$format_validation_base@DV?$string_output_adapter@D@__crt_stdio_output@@@2@@__crt_stdio_output@@AAE_NXZ 10060c30 f i libucrtd:output.obj
 0001:0005fc60       ?type_case_p@?$output_processor@DV?$string_output_adapter@D@__crt_stdio_output@@V?$positional_parameter_base@DV?$string_output_adapter@D@__crt_stdio_output@@@2@@__crt_stdio_output@@AAE_NXZ 10060c60 f i libucrtd:output.obj
 0001:0005fc90       ?type_case_p@?$output_processor@DV?$string_output_adapter@D@__crt_stdio_output@@V?$standard_base@DV?$string_output_adapter@D@__crt_stdio_output@@@2@@__crt_stdio_output@@AAE_NXZ 10060c90 f i libucrtd:output.obj
 0001:0005fcc0       ?type_case_p@?$output_processor@_WV?$stream_output_adapter@_W@__crt_stdio_output@@V?$format_validation_base@_WV?$stream_output_adapter@_W@__crt_stdio_output@@@2@@__crt_stdio_output@@AAE_NXZ 10060cc0 f i libucrtd:output.obj
 0001:0005fcf0       ?type_case_p@?$output_processor@_WV?$stream_output_adapter@_W@__crt_stdio_output@@V?$positional_parameter_base@_WV?$stream_output_adapter@_W@__crt_stdio_output@@@2@@__crt_stdio_output@@AAE_NXZ 10060cf0 f i libucrtd:output.obj
 0001:0005fd20       ?type_case_p@?$output_processor@_WV?$stream_output_adapter@_W@__crt_stdio_output@@V?$standard_base@_WV?$stream_output_adapter@_W@__crt_stdio_output@@@2@@__crt_stdio_output@@AAE_NXZ 10060d20 f i libucrtd:output.obj
 0001:0005fd50       ?type_case_p@?$output_processor@_WV?$string_output_adapter@_W@__crt_stdio_output@@V?$format_validation_base@_WV?$string_output_adapter@_W@__crt_stdio_output@@@2@@__crt_stdio_output@@AAE_NXZ 10060d50 f i libucrtd:output.obj
 0001:0005fd80       ?type_case_p@?$output_processor@_WV?$string_output_adapter@_W@__crt_stdio_output@@V?$positional_parameter_base@_WV?$string_output_adapter@_W@__crt_stdio_output@@@2@@__crt_stdio_output@@AAE_NXZ 10060d80 f i libucrtd:output.obj
 0001:0005fdb0       ?type_case_p@?$output_processor@_WV?$string_output_adapter@_W@__crt_stdio_output@@V?$standard_base@_WV?$string_output_adapter@_W@__crt_stdio_output@@@2@@__crt_stdio_output@@AAE_NXZ 10060db0 f i libucrtd:output.obj
 0001:0005fde0       ?type_case_s@?$output_processor@DV?$stream_output_adapter@D@__crt_stdio_output@@V?$format_validation_base@DV?$stream_output_adapter@D@__crt_stdio_output@@@2@@__crt_stdio_output@@AAE_NXZ 10060de0 f i libucrtd:output.obj
 0001:0005fed0       ?type_case_s@?$output_processor@DV?$stream_output_adapter@D@__crt_stdio_output@@V?$positional_parameter_base@DV?$stream_output_adapter@D@__crt_stdio_output@@@2@@__crt_stdio_output@@AAE_NXZ 10060ed0 f i libucrtd:output.obj
 0001:0005ffc0       ?type_case_s@?$output_processor@DV?$stream_output_adapter@D@__crt_stdio_output@@V?$standard_base@DV?$stream_output_adapter@D@__crt_stdio_output@@@2@@__crt_stdio_output@@AAE_NXZ 10060fc0 f i libucrtd:output.obj
 0001:000600b0       ?type_case_s@?$output_processor@DV?$string_output_adapter@D@__crt_stdio_output@@V?$format_validation_base@DV?$string_output_adapter@D@__crt_stdio_output@@@2@@__crt_stdio_output@@AAE_NXZ 100610b0 f i libucrtd:output.obj
 0001:000601a0       ?type_case_s@?$output_processor@DV?$string_output_adapter@D@__crt_stdio_output@@V?$positional_parameter_base@DV?$string_output_adapter@D@__crt_stdio_output@@@2@@__crt_stdio_output@@AAE_NXZ 100611a0 f i libucrtd:output.obj
 0001:00060290       ?type_case_s@?$output_processor@DV?$string_output_adapter@D@__crt_stdio_output@@V?$standard_base@DV?$string_output_adapter@D@__crt_stdio_output@@@2@@__crt_stdio_output@@AAE_NXZ 10061290 f i libucrtd:output.obj
 0001:00060380       ?type_case_s@?$output_processor@_WV?$stream_output_adapter@_W@__crt_stdio_output@@V?$format_validation_base@_WV?$stream_output_adapter@_W@__crt_stdio_output@@@2@@__crt_stdio_output@@AAE_NXZ 10061380 f i libucrtd:output.obj
 0001:00060470       ?type_case_s@?$output_processor@_WV?$stream_output_adapter@_W@__crt_stdio_output@@V?$positional_parameter_base@_WV?$stream_output_adapter@_W@__crt_stdio_output@@@2@@__crt_stdio_output@@AAE_NXZ 10061470 f i libucrtd:output.obj
 0001:00060560       ?type_case_s@?$output_processor@_WV?$stream_output_adapter@_W@__crt_stdio_output@@V?$standard_base@_WV?$stream_output_adapter@_W@__crt_stdio_output@@@2@@__crt_stdio_output@@AAE_NXZ 10061560 f i libucrtd:output.obj
 0001:00060650       ?type_case_s@?$output_processor@_WV?$string_output_adapter@_W@__crt_stdio_output@@V?$format_validation_base@_WV?$string_output_adapter@_W@__crt_stdio_output@@@2@@__crt_stdio_output@@AAE_NXZ 10061650 f i libucrtd:output.obj
 0001:00060740       ?type_case_s@?$output_processor@_WV?$string_output_adapter@_W@__crt_stdio_output@@V?$positional_parameter_base@_WV?$string_output_adapter@_W@__crt_stdio_output@@@2@@__crt_stdio_output@@AAE_NXZ 10061740 f i libucrtd:output.obj
 0001:00060830       ?type_case_s@?$output_processor@_WV?$string_output_adapter@_W@__crt_stdio_output@@V?$standard_base@_WV?$string_output_adapter@_W@__crt_stdio_output@@@2@@__crt_stdio_output@@AAE_NXZ 10061830 f i libucrtd:output.obj
 0001:00060920       ?type_case_s_compute_narrow_string_length@?$output_processor@DV?$stream_output_adapter@D@__crt_stdio_output@@V?$format_validation_base@DV?$stream_output_adapter@D@__crt_stdio_output@@@2@@__crt_stdio_output@@ABEHHD@Z 10061920 f i libucrtd:output.obj
 0001:00060950       ?type_case_s_compute_narrow_string_length@?$output_processor@DV?$stream_output_adapter@D@__crt_stdio_output@@V?$positional_parameter_base@DV?$stream_output_adapter@D@__crt_stdio_output@@@2@@__crt_stdio_output@@ABEHHD@Z 10061950 f i libucrtd:output.obj
 0001:00060980       ?type_case_s_compute_narrow_string_length@?$output_processor@DV?$stream_output_adapter@D@__crt_stdio_output@@V?$standard_base@DV?$stream_output_adapter@D@__crt_stdio_output@@@2@@__crt_stdio_output@@ABEHHD@Z 10061980 f i libucrtd:output.obj
 0001:000609b0       ?type_case_s_compute_narrow_string_length@?$output_processor@DV?$string_output_adapter@D@__crt_stdio_output@@V?$format_validation_base@DV?$string_output_adapter@D@__crt_stdio_output@@@2@@__crt_stdio_output@@ABEHHD@Z 100619b0 f i libucrtd:output.obj
 0001:000609e0       ?type_case_s_compute_narrow_string_length@?$output_processor@DV?$string_output_adapter@D@__crt_stdio_output@@V?$positional_parameter_base@DV?$string_output_adapter@D@__crt_stdio_output@@@2@@__crt_stdio_output@@ABEHHD@Z 100619e0 f i libucrtd:output.obj
 0001:00060a10       ?type_case_s_compute_narrow_string_length@?$output_processor@DV?$string_output_adapter@D@__crt_stdio_output@@V?$standard_base@DV?$string_output_adapter@D@__crt_stdio_output@@@2@@__crt_stdio_output@@ABEHHD@Z 10061a10 f i libucrtd:output.obj
 0001:00060a40       ?type_case_s_compute_narrow_string_length@?$output_processor@_WV?$stream_output_adapter@_W@__crt_stdio_output@@V?$format_validation_base@_WV?$stream_output_adapter@_W@__crt_stdio_output@@@2@@__crt_stdio_output@@ABEHH_W@Z 10061a40 f i libucrtd:output.obj
 0001:00060ab0       ?type_case_s_compute_narrow_string_length@?$output_processor@_WV?$stream_output_adapter@_W@__crt_stdio_output@@V?$positional_parameter_base@_WV?$stream_output_adapter@_W@__crt_stdio_output@@@2@@__crt_stdio_output@@ABEHH_W@Z 10061ab0 f i libucrtd:output.obj
 0001:00060b20       ?type_case_s_compute_narrow_string_length@?$output_processor@_WV?$stream_output_adapter@_W@__crt_stdio_output@@V?$standard_base@_WV?$stream_output_adapter@_W@__crt_stdio_output@@@2@@__crt_stdio_output@@ABEHH_W@Z 10061b20 f i libucrtd:output.obj
 0001:00060b90       ?type_case_s_compute_narrow_string_length@?$output_processor@_WV?$string_output_adapter@_W@__crt_stdio_output@@V?$format_validation_base@_WV?$string_output_adapter@_W@__crt_stdio_output@@@2@@__crt_stdio_output@@ABEHH_W@Z 10061b90 f i libucrtd:output.obj
 0001:00060c00       ?type_case_s_compute_narrow_string_length@?$output_processor@_WV?$string_output_adapter@_W@__crt_stdio_output@@V?$positional_parameter_base@_WV?$string_output_adapter@_W@__crt_stdio_output@@@2@@__crt_stdio_output@@ABEHH_W@Z 10061c00 f i libucrtd:output.obj
 0001:00060c70       ?type_case_s_compute_narrow_string_length@?$output_processor@_WV?$string_output_adapter@_W@__crt_stdio_output@@V?$standard_base@_WV?$string_output_adapter@_W@__crt_stdio_output@@@2@@__crt_stdio_output@@ABEHH_W@Z 10061c70 f i libucrtd:output.obj
 0001:00060ce0       ?type_case_u@?$output_processor@DV?$stream_output_adapter@D@__crt_stdio_output@@V?$format_validation_base@DV?$stream_output_adapter@D@__crt_stdio_output@@@2@@__crt_stdio_output@@AAE_NXZ 10061ce0 f i libucrtd:output.obj
 0001:00060d00       ?type_case_u@?$output_processor@DV?$stream_output_adapter@D@__crt_stdio_output@@V?$positional_parameter_base@DV?$stream_output_adapter@D@__crt_stdio_output@@@2@@__crt_stdio_output@@AAE_NXZ 10061d00 f i libucrtd:output.obj
 0001:00060d20       ?type_case_u@?$output_processor@DV?$stream_output_adapter@D@__crt_stdio_output@@V?$standard_base@DV?$stream_output_adapter@D@__crt_stdio_output@@@2@@__crt_stdio_output@@AAE_NXZ 10061d20 f i libucrtd:output.obj
 0001:00060d40       ?type_case_u@?$output_processor@DV?$string_output_adapter@D@__crt_stdio_output@@V?$format_validation_base@DV?$string_output_adapter@D@__crt_stdio_output@@@2@@__crt_stdio_output@@AAE_NXZ 10061d40 f i libucrtd:output.obj
 0001:00060d60       ?type_case_u@?$output_processor@DV?$string_output_adapter@D@__crt_stdio_output@@V?$positional_parameter_base@DV?$string_output_adapter@D@__crt_stdio_output@@@2@@__crt_stdio_output@@AAE_NXZ 10061d60 f i libucrtd:output.obj
 0001:00060d80       ?type_case_u@?$output_processor@DV?$string_output_adapter@D@__crt_stdio_output@@V?$standard_base@DV?$string_output_adapter@D@__crt_stdio_output@@@2@@__crt_stdio_output@@AAE_NXZ 10061d80 f i libucrtd:output.obj
 0001:00060da0       ?type_case_u@?$output_processor@_WV?$stream_output_adapter@_W@__crt_stdio_output@@V?$format_validation_base@_WV?$stream_output_adapter@_W@__crt_stdio_output@@@2@@__crt_stdio_output@@AAE_NXZ 10061da0 f i libucrtd:output.obj
 0001:00060dc0       ?type_case_u@?$output_processor@_WV?$stream_output_adapter@_W@__crt_stdio_output@@V?$positional_parameter_base@_WV?$stream_output_adapter@_W@__crt_stdio_output@@@2@@__crt_stdio_output@@AAE_NXZ 10061dc0 f i libucrtd:output.obj
 0001:00060de0       ?type_case_u@?$output_processor@_WV?$stream_output_adapter@_W@__crt_stdio_output@@V?$standard_base@_WV?$stream_output_adapter@_W@__crt_stdio_output@@@2@@__crt_stdio_output@@AAE_NXZ 10061de0 f i libucrtd:output.obj
 0001:00060e00       ?type_case_u@?$output_processor@_WV?$string_output_adapter@_W@__crt_stdio_output@@V?$format_validation_base@_WV?$string_output_adapter@_W@__crt_stdio_output@@@2@@__crt_stdio_output@@AAE_NXZ 10061e00 f i libucrtd:output.obj
 0001:00060e20       ?type_case_u@?$output_processor@_WV?$string_output_adapter@_W@__crt_stdio_output@@V?$positional_parameter_base@_WV?$string_output_adapter@_W@__crt_stdio_output@@@2@@__crt_stdio_output@@AAE_NXZ 10061e20 f i libucrtd:output.obj
 0001:00060e40       ?type_case_u@?$output_processor@_WV?$string_output_adapter@_W@__crt_stdio_output@@V?$standard_base@_WV?$string_output_adapter@_W@__crt_stdio_output@@@2@@__crt_stdio_output@@AAE_NXZ 10061e40 f i libucrtd:output.obj
 0001:00060e60       ?type_case_x@?$output_processor@DV?$stream_output_adapter@D@__crt_stdio_output@@V?$format_validation_base@DV?$stream_output_adapter@D@__crt_stdio_output@@@2@@__crt_stdio_output@@AAE_NXZ 10061e60 f i libucrtd:output.obj
 0001:00060e80       ?type_case_x@?$output_processor@DV?$stream_output_adapter@D@__crt_stdio_output@@V?$positional_parameter_base@DV?$stream_output_adapter@D@__crt_stdio_output@@@2@@__crt_stdio_output@@AAE_NXZ 10061e80 f i libucrtd:output.obj
 0001:00060ea0       ?type_case_x@?$output_processor@DV?$stream_output_adapter@D@__crt_stdio_output@@V?$standard_base@DV?$stream_output_adapter@D@__crt_stdio_output@@@2@@__crt_stdio_output@@AAE_NXZ 10061ea0 f i libucrtd:output.obj
 0001:00060ec0       ?type_case_x@?$output_processor@DV?$string_output_adapter@D@__crt_stdio_output@@V?$format_validation_base@DV?$string_output_adapter@D@__crt_stdio_output@@@2@@__crt_stdio_output@@AAE_NXZ 10061ec0 f i libucrtd:output.obj
 0001:00060ee0       ?type_case_x@?$output_processor@DV?$string_output_adapter@D@__crt_stdio_output@@V?$positional_parameter_base@DV?$string_output_adapter@D@__crt_stdio_output@@@2@@__crt_stdio_output@@AAE_NXZ 10061ee0 f i libucrtd:output.obj
 0001:00060f00       ?type_case_x@?$output_processor@DV?$string_output_adapter@D@__crt_stdio_output@@V?$standard_base@DV?$string_output_adapter@D@__crt_stdio_output@@@2@@__crt_stdio_output@@AAE_NXZ 10061f00 f i libucrtd:output.obj
 0001:00060f20       ?type_case_x@?$output_processor@_WV?$stream_output_adapter@_W@__crt_stdio_output@@V?$format_validation_base@_WV?$stream_output_adapter@_W@__crt_stdio_output@@@2@@__crt_stdio_output@@AAE_NXZ 10061f20 f i libucrtd:output.obj
 0001:00060f40       ?type_case_x@?$output_processor@_WV?$stream_output_adapter@_W@__crt_stdio_output@@V?$positional_parameter_base@_WV?$stream_output_adapter@_W@__crt_stdio_output@@@2@@__crt_stdio_output@@AAE_NXZ 10061f40 f i libucrtd:output.obj
 0001:00060f60       ?type_case_x@?$output_processor@_WV?$stream_output_adapter@_W@__crt_stdio_output@@V?$standard_base@_WV?$stream_output_adapter@_W@__crt_stdio_output@@@2@@__crt_stdio_output@@AAE_NXZ 10061f60 f i libucrtd:output.obj
 0001:00060f80       ?type_case_x@?$output_processor@_WV?$string_output_adapter@_W@__crt_stdio_output@@V?$format_validation_base@_WV?$string_output_adapter@_W@__crt_stdio_output@@@2@@__crt_stdio_output@@AAE_NXZ 10061f80 f i libucrtd:output.obj
 0001:00060fa0       ?type_case_x@?$output_processor@_WV?$string_output_adapter@_W@__crt_stdio_output@@V?$positional_parameter_base@_WV?$string_output_adapter@_W@__crt_stdio_output@@@2@@__crt_stdio_output@@AAE_NXZ 10061fa0 f i libucrtd:output.obj
 0001:00060fc0       ?type_case_x@?$output_processor@_WV?$string_output_adapter@_W@__crt_stdio_output@@V?$standard_base@_WV?$string_output_adapter@_W@__crt_stdio_output@@@2@@__crt_stdio_output@@AAE_NXZ 10061fc0 f i libucrtd:output.obj
 0001:00060fe0       ?unset_flag@?$output_processor@DV?$stream_output_adapter@D@__crt_stdio_output@@V?$format_validation_base@DV?$stream_output_adapter@D@__crt_stdio_output@@@2@@__crt_stdio_output@@AAEXI@Z 10061fe0 f i libucrtd:output.obj
 0001:00061000       ?unset_flag@?$output_processor@DV?$stream_output_adapter@D@__crt_stdio_output@@V?$positional_parameter_base@DV?$stream_output_adapter@D@__crt_stdio_output@@@2@@__crt_stdio_output@@AAEXI@Z 10062000 f i libucrtd:output.obj
 0001:00061020       ?unset_flag@?$output_processor@DV?$stream_output_adapter@D@__crt_stdio_output@@V?$standard_base@DV?$stream_output_adapter@D@__crt_stdio_output@@@2@@__crt_stdio_output@@AAEXI@Z 10062020 f i libucrtd:output.obj
 0001:00061040       ?unset_flag@?$output_processor@DV?$string_output_adapter@D@__crt_stdio_output@@V?$format_validation_base@DV?$string_output_adapter@D@__crt_stdio_output@@@2@@__crt_stdio_output@@AAEXI@Z 10062040 f i libucrtd:output.obj
 0001:00061060       ?unset_flag@?$output_processor@DV?$string_output_adapter@D@__crt_stdio_output@@V?$positional_parameter_base@DV?$string_output_adapter@D@__crt_stdio_output@@@2@@__crt_stdio_output@@AAEXI@Z 10062060 f i libucrtd:output.obj
 0001:00061080       ?unset_flag@?$output_processor@DV?$string_output_adapter@D@__crt_stdio_output@@V?$standard_base@DV?$string_output_adapter@D@__crt_stdio_output@@@2@@__crt_stdio_output@@AAEXI@Z 10062080 f i libucrtd:output.obj
 0001:000610a0       ?unset_flag@?$output_processor@_WV?$stream_output_adapter@_W@__crt_stdio_output@@V?$format_validation_base@_WV?$stream_output_adapter@_W@__crt_stdio_output@@@2@@__crt_stdio_output@@AAEXI@Z 100620a0 f i libucrtd:output.obj
 0001:000610c0       ?unset_flag@?$output_processor@_WV?$stream_output_adapter@_W@__crt_stdio_output@@V?$positional_parameter_base@_WV?$stream_output_adapter@_W@__crt_stdio_output@@@2@@__crt_stdio_output@@AAEXI@Z 100620c0 f i libucrtd:output.obj
 0001:000610e0       ?unset_flag@?$output_processor@_WV?$stream_output_adapter@_W@__crt_stdio_output@@V?$standard_base@_WV?$stream_output_adapter@_W@__crt_stdio_output@@@2@@__crt_stdio_output@@AAEXI@Z 100620e0 f i libucrtd:output.obj
 0001:00061100       ?unset_flag@?$output_processor@_WV?$string_output_adapter@_W@__crt_stdio_output@@V?$format_validation_base@_WV?$string_output_adapter@_W@__crt_stdio_output@@@2@@__crt_stdio_output@@AAEXI@Z 10062100 f i libucrtd:output.obj
 0001:00061120       ?unset_flag@?$output_processor@_WV?$string_output_adapter@_W@__crt_stdio_output@@V?$positional_parameter_base@_WV?$string_output_adapter@_W@__crt_stdio_output@@@2@@__crt_stdio_output@@AAEXI@Z 10062120 f i libucrtd:output.obj
 0001:00061140       ?unset_flag@?$output_processor@_WV?$string_output_adapter@_W@__crt_stdio_output@@V?$standard_base@_WV?$string_output_adapter@_W@__crt_stdio_output@@@2@@__crt_stdio_output@@AAEXI@Z 10062140 f i libucrtd:output.obj
 0001:00061160       ?update_field_width@?$positional_parameter_base@DV?$stream_output_adapter@D@__crt_stdio_output@@@__crt_stdio_output@@IAE_NXZ 10062160 f i libucrtd:output.obj
 0001:000612e0       ?update_field_width@?$positional_parameter_base@DV?$string_output_adapter@D@__crt_stdio_output@@@__crt_stdio_output@@IAE_NXZ 100622e0 f i libucrtd:output.obj
 0001:00061460       ?update_field_width@?$positional_parameter_base@_WV?$stream_output_adapter@_W@__crt_stdio_output@@@__crt_stdio_output@@IAE_NXZ 10062460 f i libucrtd:output.obj
 0001:000615e0       ?update_field_width@?$positional_parameter_base@_WV?$string_output_adapter@_W@__crt_stdio_output@@@__crt_stdio_output@@IAE_NXZ 100625e0 f i libucrtd:output.obj
 0001:00061760       ?update_field_width@?$standard_base@DV?$stream_output_adapter@D@__crt_stdio_output@@@__crt_stdio_output@@IAE_NXZ 10062760 f i libucrtd:output.obj
 0001:00061790       ?update_field_width@?$standard_base@DV?$string_output_adapter@D@__crt_stdio_output@@@__crt_stdio_output@@IAE_NXZ 10062790 f i libucrtd:output.obj
 0001:000617c0       ?update_field_width@?$standard_base@_WV?$stream_output_adapter@_W@__crt_stdio_output@@@__crt_stdio_output@@IAE_NXZ 100627c0 f i libucrtd:output.obj
 0001:000617f0       ?update_field_width@?$standard_base@_WV?$string_output_adapter@_W@__crt_stdio_output@@@__crt_stdio_output@@IAE_NXZ 100627f0 f i libucrtd:output.obj
 0001:00061820       ?update_precision@?$positional_parameter_base@DV?$stream_output_adapter@D@__crt_stdio_output@@@__crt_stdio_output@@IAE_NXZ 10062820 f i libucrtd:output.obj
 0001:000619a0       ?update_precision@?$positional_parameter_base@DV?$string_output_adapter@D@__crt_stdio_output@@@__crt_stdio_output@@IAE_NXZ 100629a0 f i libucrtd:output.obj
 0001:00061b20       ?update_precision@?$positional_parameter_base@_WV?$stream_output_adapter@_W@__crt_stdio_output@@@__crt_stdio_output@@IAE_NXZ 10062b20 f i libucrtd:output.obj
 0001:00061ca0       ?update_precision@?$positional_parameter_base@_WV?$string_output_adapter@_W@__crt_stdio_output@@@__crt_stdio_output@@IAE_NXZ 10062ca0 f i libucrtd:output.obj
 0001:00061e20       ?update_precision@?$standard_base@DV?$stream_output_adapter@D@__crt_stdio_output@@@__crt_stdio_output@@IAE_NXZ 10062e20 f i libucrtd:output.obj
 0001:00061e50       ?update_precision@?$standard_base@DV?$string_output_adapter@D@__crt_stdio_output@@@__crt_stdio_output@@IAE_NXZ 10062e50 f i libucrtd:output.obj
 0001:00061e80       ?update_precision@?$standard_base@_WV?$stream_output_adapter@_W@__crt_stdio_output@@@__crt_stdio_output@@IAE_NXZ 10062e80 f i libucrtd:output.obj
 0001:00061eb0       ?update_precision@?$standard_base@_WV?$string_output_adapter@_W@__crt_stdio_output@@@__crt_stdio_output@@IAE_NXZ 10062eb0 f i libucrtd:output.obj
 0001:00061ee0       ?valid@__crt_stdio_stream@@QBE_NXZ 10062ee0 f i libucrtd:output.obj
 0001:00061f10       ?validate@?$stream_output_adapter@D@__crt_stdio_output@@QBE_NXZ 10062f10 f i libucrtd:output.obj
 0001:00061fc0       ?validate@?$stream_output_adapter@_W@__crt_stdio_output@@QBE_NXZ 10062fc0 f i libucrtd:output.obj
 0001:00062070       ?validate@?$string_output_adapter@D@__crt_stdio_output@@QBE_NXZ 10063070 f i libucrtd:output.obj
 0001:00062100       ?validate@?$string_output_adapter@_W@__crt_stdio_output@@QBE_NXZ 10063100 f i libucrtd:output.obj
 0001:00062190       ?validate_and_store_parameter_data@?$positional_parameter_base@DV?$stream_output_adapter@D@__crt_stdio_output@@@__crt_stdio_output@@AAE_NAAUparameter_data@12@W4parameter_type@12@DW4length_modifier@2@@Z 10063190 f i libucrtd:output.obj
 0001:00062260       ?validate_and_store_parameter_data@?$positional_parameter_base@DV?$string_output_adapter@D@__crt_stdio_output@@@__crt_stdio_output@@AAE_NAAUparameter_data@12@W4parameter_type@12@DW4length_modifier@2@@Z 10063260 f i libucrtd:output.obj
 0001:00062330       ?validate_and_store_parameter_data@?$positional_parameter_base@_WV?$stream_output_adapter@_W@__crt_stdio_output@@@__crt_stdio_output@@AAE_NAAUparameter_data@12@W4parameter_type@12@_WW4length_modifier@2@@Z 10063330 f i libucrtd:output.obj
 0001:00062410       ?validate_and_store_parameter_data@?$positional_parameter_base@_WV?$string_output_adapter@_W@__crt_stdio_output@@@__crt_stdio_output@@AAE_NAAUparameter_data@12@W4parameter_type@12@_WW4length_modifier@2@@Z 10063410 f i libucrtd:output.obj
 0001:000624f0       ?validate_and_update_state_at_beginning_of_format_character@?$positional_parameter_base@DV?$stream_output_adapter@D@__crt_stdio_output@@@__crt_stdio_output@@IAE_NXZ 100634f0 f i libucrtd:output.obj
 0001:00062710       ?validate_and_update_state_at_beginning_of_format_character@?$positional_parameter_base@DV?$string_output_adapter@D@__crt_stdio_output@@@__crt_stdio_output@@IAE_NXZ 10063710 f i libucrtd:output.obj
 0001:00062930       ?validate_and_update_state_at_beginning_of_format_character@?$positional_parameter_base@_WV?$stream_output_adapter@_W@__crt_stdio_output@@@__crt_stdio_output@@IAE_NXZ 10063930 f i libucrtd:output.obj
 0001:00062b50       ?validate_and_update_state_at_beginning_of_format_character@?$positional_parameter_base@_WV?$string_output_adapter@_W@__crt_stdio_output@@@__crt_stdio_output@@IAE_NXZ 10063b50 f i libucrtd:output.obj
 0001:00062d70       ?validate_and_update_state_at_beginning_of_format_character@?$standard_base@DV?$stream_output_adapter@D@__crt_stdio_output@@@__crt_stdio_output@@IAE_NXZ 10063d70 f i libucrtd:output.obj
 0001:00062d80       ?validate_and_update_state_at_beginning_of_format_character@?$standard_base@DV?$string_output_adapter@D@__crt_stdio_output@@@__crt_stdio_output@@IAE_NXZ 10063d80 f i libucrtd:output.obj
 0001:00062d90       ?validate_and_update_state_at_beginning_of_format_character@?$standard_base@_WV?$stream_output_adapter@_W@__crt_stdio_output@@@__crt_stdio_output@@IAE_NXZ 10063d90 f i libucrtd:output.obj
 0001:00062da0       ?validate_and_update_state_at_beginning_of_format_character@?$standard_base@_WV?$string_output_adapter@_W@__crt_stdio_output@@@__crt_stdio_output@@IAE_NXZ 10063da0 f i libucrtd:output.obj
 0001:00062db0       ?validate_and_update_state_at_end_of_format_string@?$format_validation_base@DV?$stream_output_adapter@D@__crt_stdio_output@@@__crt_stdio_output@@IBE_NXZ 10063db0 f i libucrtd:output.obj
 0001:00062e50       ?validate_and_update_state_at_end_of_format_string@?$format_validation_base@DV?$string_output_adapter@D@__crt_stdio_output@@@__crt_stdio_output@@IBE_NXZ 10063e50 f i libucrtd:output.obj
 0001:00062ef0       ?validate_and_update_state_at_end_of_format_string@?$format_validation_base@_WV?$stream_output_adapter@_W@__crt_stdio_output@@@__crt_stdio_output@@IBE_NXZ 10063ef0 f i libucrtd:output.obj
 0001:00062f90       ?validate_and_update_state_at_end_of_format_string@?$format_validation_base@_WV?$string_output_adapter@_W@__crt_stdio_output@@@__crt_stdio_output@@IBE_NXZ 10063f90 f i libucrtd:output.obj
 0001:00063030       ?validate_and_update_state_at_end_of_format_string@?$positional_parameter_base@DV?$stream_output_adapter@D@__crt_stdio_output@@@__crt_stdio_output@@IAE_NXZ 10064030 f i libucrtd:output.obj
 0001:000631d0       ?validate_and_update_state_at_end_of_format_string@?$positional_parameter_base@DV?$string_output_adapter@D@__crt_stdio_output@@@__crt_stdio_output@@IAE_NXZ 100641d0 f i libucrtd:output.obj
 0001:00063370       ?validate_and_update_state_at_end_of_format_string@?$positional_parameter_base@_WV?$stream_output_adapter@_W@__crt_stdio_output@@@__crt_stdio_output@@IAE_NXZ 10064370 f i libucrtd:output.obj
 0001:00063510       ?validate_and_update_state_at_end_of_format_string@?$positional_parameter_base@_WV?$string_output_adapter@_W@__crt_stdio_output@@@__crt_stdio_output@@IAE_NXZ 10064510 f i libucrtd:output.obj
 0001:000636b0       ?validate_and_update_state_at_end_of_format_string@?$standard_base@DV?$stream_output_adapter@D@__crt_stdio_output@@@__crt_stdio_output@@IBE_NXZ 100646b0 f i libucrtd:output.obj
 0001:000636c0       ?validate_and_update_state_at_end_of_format_string@?$standard_base@DV?$string_output_adapter@D@__crt_stdio_output@@@__crt_stdio_output@@IBE_NXZ 100646c0 f i libucrtd:output.obj
 0001:000636d0       ?validate_and_update_state_at_end_of_format_string@?$standard_base@_WV?$stream_output_adapter@_W@__crt_stdio_output@@@__crt_stdio_output@@IBE_NXZ 100646d0 f i libucrtd:output.obj
 0001:000636e0       ?validate_and_update_state_at_end_of_format_string@?$standard_base@_WV?$string_output_adapter@_W@__crt_stdio_output@@@__crt_stdio_output@@IBE_NXZ 100646e0 f i libucrtd:output.obj
 0001:000636f0       ?validate_state_for_type_case_a@?$positional_parameter_base@DV?$stream_output_adapter@D@__crt_stdio_output@@@__crt_stdio_output@@IAE_NXZ 100646f0 f i libucrtd:output.obj
 0001:000637e0       ?validate_state_for_type_case_a@?$positional_parameter_base@DV?$string_output_adapter@D@__crt_stdio_output@@@__crt_stdio_output@@IAE_NXZ 100647e0 f i libucrtd:output.obj
 0001:000638d0       ?validate_state_for_type_case_a@?$positional_parameter_base@_WV?$stream_output_adapter@_W@__crt_stdio_output@@@__crt_stdio_output@@IAE_NXZ 100648d0 f i libucrtd:output.obj
 0001:000639c0       ?validate_state_for_type_case_a@?$positional_parameter_base@_WV?$string_output_adapter@_W@__crt_stdio_output@@@__crt_stdio_output@@IAE_NXZ 100649c0 f i libucrtd:output.obj
 0001:00063ab0       ?validate_state_for_type_case_a@?$standard_base@DV?$stream_output_adapter@D@__crt_stdio_output@@@__crt_stdio_output@@IBE_NXZ 10064ab0 f i libucrtd:output.obj
 0001:00063ac0       ?validate_state_for_type_case_a@?$standard_base@DV?$string_output_adapter@D@__crt_stdio_output@@@__crt_stdio_output@@IBE_NXZ 10064ac0 f i libucrtd:output.obj
 0001:00063ad0       ?validate_state_for_type_case_a@?$standard_base@_WV?$stream_output_adapter@_W@__crt_stdio_output@@@__crt_stdio_output@@IBE_NXZ 10064ad0 f i libucrtd:output.obj
 0001:00063ae0       ?validate_state_for_type_case_a@?$standard_base@_WV?$string_output_adapter@_W@__crt_stdio_output@@@__crt_stdio_output@@IBE_NXZ 10064ae0 f i libucrtd:output.obj
 0001:00063af0       ?validate_stream_is_ansi_if_required@?$__acrt_stdio_char_traits@D@@SA_NQAU_iobuf@@@Z 10064af0 f i libucrtd:output.obj
 0001:00063c20       ?validate_stream_is_ansi_if_required@?$__acrt_stdio_char_traits@_W@@SA_NQAU_iobuf@@@Z 10064c20 f i libucrtd:output.obj
 0001:00063c30       ?wide_null_string@?$output_processor@DV?$stream_output_adapter@D@__crt_stdio_output@@V?$format_validation_base@DV?$stream_output_adapter@D@__crt_stdio_output@@@2@@__crt_stdio_output@@CAPA_WXZ 10064c30 f i libucrtd:output.obj
 0001:00063c40       ?wide_null_string@?$output_processor@DV?$stream_output_adapter@D@__crt_stdio_output@@V?$positional_parameter_base@DV?$stream_output_adapter@D@__crt_stdio_output@@@2@@__crt_stdio_output@@CAPA_WXZ 10064c40 f i libucrtd:output.obj
 0001:00063c50       ?wide_null_string@?$output_processor@DV?$stream_output_adapter@D@__crt_stdio_output@@V?$standard_base@DV?$stream_output_adapter@D@__crt_stdio_output@@@2@@__crt_stdio_output@@CAPA_WXZ 10064c50 f i libucrtd:output.obj
 0001:00063c60       ?wide_null_string@?$output_processor@DV?$string_output_adapter@D@__crt_stdio_output@@V?$format_validation_base@DV?$string_output_adapter@D@__crt_stdio_output@@@2@@__crt_stdio_output@@CAPA_WXZ 10064c60 f i libucrtd:output.obj
 0001:00063c70       ?wide_null_string@?$output_processor@DV?$string_output_adapter@D@__crt_stdio_output@@V?$positional_parameter_base@DV?$string_output_adapter@D@__crt_stdio_output@@@2@@__crt_stdio_output@@CAPA_WXZ 10064c70 f i libucrtd:output.obj
 0001:00063c80       ?wide_null_string@?$output_processor@DV?$string_output_adapter@D@__crt_stdio_output@@V?$standard_base@DV?$string_output_adapter@D@__crt_stdio_output@@@2@@__crt_stdio_output@@CAPA_WXZ 10064c80 f i libucrtd:output.obj
 0001:00063c90       ?wide_null_string@?$output_processor@_WV?$stream_output_adapter@_W@__crt_stdio_output@@V?$format_validation_base@_WV?$stream_output_adapter@_W@__crt_stdio_output@@@2@@__crt_stdio_output@@CAPA_WXZ 10064c90 f i libucrtd:output.obj
 0001:00063ca0       ?wide_null_string@?$output_processor@_WV?$stream_output_adapter@_W@__crt_stdio_output@@V?$positional_parameter_base@_WV?$stream_output_adapter@_W@__crt_stdio_output@@@2@@__crt_stdio_output@@CAPA_WXZ 10064ca0 f i libucrtd:output.obj
 0001:00063cb0       ?wide_null_string@?$output_processor@_WV?$stream_output_adapter@_W@__crt_stdio_output@@V?$standard_base@_WV?$stream_output_adapter@_W@__crt_stdio_output@@@2@@__crt_stdio_output@@CAPA_WXZ 10064cb0 f i libucrtd:output.obj
 0001:00063cc0       ?wide_null_string@?$output_processor@_WV?$string_output_adapter@_W@__crt_stdio_output@@V?$format_validation_base@_WV?$string_output_adapter@_W@__crt_stdio_output@@@2@@__crt_stdio_output@@CAPA_WXZ 10064cc0 f i libucrtd:output.obj
 0001:00063cd0       ?wide_null_string@?$output_processor@_WV?$string_output_adapter@_W@__crt_stdio_output@@V?$positional_parameter_base@_WV?$string_output_adapter@_W@__crt_stdio_output@@@2@@__crt_stdio_output@@CAPA_WXZ 10064cd0 f i libucrtd:output.obj
 0001:00063ce0       ?wide_null_string@?$output_processor@_WV?$string_output_adapter@_W@__crt_stdio_output@@V?$standard_base@_WV?$string_output_adapter@_W@__crt_stdio_output@@@2@@__crt_stdio_output@@CAPA_WXZ 10064ce0 f i libucrtd:output.obj
 0001:00063cf0       ?write_character@?$output_adapter_common@DV?$stream_output_adapter@D@__crt_stdio_output@@@__crt_stdio_output@@QBEXDQAH@Z 10064cf0 f i libucrtd:output.obj
 0001:00063d30       ?write_character@?$output_adapter_common@_WV?$stream_output_adapter@_W@__crt_stdio_output@@@__crt_stdio_output@@QBEX_WQAH@Z 10064d30 f i libucrtd:output.obj
 0001:00063d70       ?write_character@?$string_output_adapter@D@__crt_stdio_output@@QBE_NDQAH@Z 10064d70 f i libucrtd:output.obj
 0001:00063e00       ?write_character@?$string_output_adapter@_W@__crt_stdio_output@@QBE_N_WQAH@Z 10064e00 f i libucrtd:output.obj
 0001:00063ea0       ?write_character_without_count_update@?$stream_output_adapter@D@__crt_stdio_output@@QBE_ND@Z 10064ea0 f i libucrtd:output.obj
 0001:00063f10       ?write_character_without_count_update@?$stream_output_adapter@_W@__crt_stdio_output@@QBE_N_W@Z 10064f10 f i libucrtd:output.obj
 0001:00063f80       ?write_stored_string_tchar@?$output_processor@DV?$stream_output_adapter@D@__crt_stdio_output@@V?$format_validation_base@DV?$stream_output_adapter@D@__crt_stdio_output@@@2@@__crt_stdio_output@@AAE_ND@Z 10064f80 f i libucrtd:output.obj
 0001:000640a0       ?write_stored_string_tchar@?$output_processor@DV?$stream_output_adapter@D@__crt_stdio_output@@V?$positional_parameter_base@DV?$stream_output_adapter@D@__crt_stdio_output@@@2@@__crt_stdio_output@@AAE_ND@Z 100650a0 f i libucrtd:output.obj
 0001:000641c0       ?write_stored_string_tchar@?$output_processor@DV?$stream_output_adapter@D@__crt_stdio_output@@V?$standard_base@DV?$stream_output_adapter@D@__crt_stdio_output@@@2@@__crt_stdio_output@@AAE_ND@Z 100651c0 f i libucrtd:output.obj
 0001:000642e0       ?write_stored_string_tchar@?$output_processor@DV?$string_output_adapter@D@__crt_stdio_output@@V?$format_validation_base@DV?$string_output_adapter@D@__crt_stdio_output@@@2@@__crt_stdio_output@@AAE_ND@Z 100652e0 f i libucrtd:output.obj
 0001:00064400       ?write_stored_string_tchar@?$output_processor@DV?$string_output_adapter@D@__crt_stdio_output@@V?$positional_parameter_base@DV?$string_output_adapter@D@__crt_stdio_output@@@2@@__crt_stdio_output@@AAE_ND@Z 10065400 f i libucrtd:output.obj
 0001:00064520       ?write_stored_string_tchar@?$output_processor@DV?$string_output_adapter@D@__crt_stdio_output@@V?$standard_base@DV?$string_output_adapter@D@__crt_stdio_output@@@2@@__crt_stdio_output@@AAE_ND@Z 10065520 f i libucrtd:output.obj
 0001:00064640       ?write_stored_string_tchar@?$output_processor@_WV?$stream_output_adapter@_W@__crt_stdio_output@@V?$format_validation_base@_WV?$stream_output_adapter@_W@__crt_stdio_output@@@2@@__crt_stdio_output@@AAE_N_W@Z 10065640 f i libucrtd:output.obj
 0001:00064730       ?write_stored_string_tchar@?$output_processor@_WV?$stream_output_adapter@_W@__crt_stdio_output@@V?$positional_parameter_base@_WV?$stream_output_adapter@_W@__crt_stdio_output@@@2@@__crt_stdio_output@@AAE_N_W@Z 10065730 f i libucrtd:output.obj
 0001:00064820       ?write_stored_string_tchar@?$output_processor@_WV?$stream_output_adapter@_W@__crt_stdio_output@@V?$standard_base@_WV?$stream_output_adapter@_W@__crt_stdio_output@@@2@@__crt_stdio_output@@AAE_N_W@Z 10065820 f i libucrtd:output.obj
 0001:00064910       ?write_stored_string_tchar@?$output_processor@_WV?$string_output_adapter@_W@__crt_stdio_output@@V?$format_validation_base@_WV?$string_output_adapter@_W@__crt_stdio_output@@@2@@__crt_stdio_output@@AAE_N_W@Z 10065910 f i libucrtd:output.obj
 0001:00064a00       ?write_stored_string_tchar@?$output_processor@_WV?$string_output_adapter@_W@__crt_stdio_output@@V?$positional_parameter_base@_WV?$string_output_adapter@_W@__crt_stdio_output@@@2@@__crt_stdio_output@@AAE_N_W@Z 10065a00 f i libucrtd:output.obj
 0001:00064af0       ?write_stored_string_tchar@?$output_processor@_WV?$string_output_adapter@_W@__crt_stdio_output@@V?$standard_base@_WV?$string_output_adapter@_W@__crt_stdio_output@@@2@@__crt_stdio_output@@AAE_N_W@Z 10065af0 f i libucrtd:output.obj
 0001:00064be0       ?write_string@?$stream_output_adapter@D@__crt_stdio_output@@QBEXQBDHQAHAAV__crt_deferred_errno_cache@@@Z 10065be0 f i libucrtd:output.obj
 0001:00064c40       ?write_string@?$stream_output_adapter@_W@__crt_stdio_output@@QBEXQB_WHQAHAAV__crt_deferred_errno_cache@@@Z 10065c40 f i libucrtd:output.obj
 0001:00064ca0       ?write_string@?$string_output_adapter@D@__crt_stdio_output@@QBEXQBDHQAHAAV__crt_deferred_errno_cache@@@Z 10065ca0 f i libucrtd:output.obj
 0001:00064da0       ?write_string@?$string_output_adapter@_W@__crt_stdio_output@@QBEXQB_WHQAHAAV__crt_deferred_errno_cache@@@Z 10065da0 f i libucrtd:output.obj
 0001:00064eb0       ?write_string_impl@?$output_adapter_common@DV?$stream_output_adapter@D@__crt_stdio_output@@@__crt_stdio_output@@IBEXQBDHQAHAAV__crt_deferred_errno_cache@@@Z 10065eb0 f i libucrtd:output.obj
 0001:00064f50       ?write_string_impl@?$output_adapter_common@_WV?$stream_output_adapter@_W@__crt_stdio_output@@@__crt_stdio_output@@IBEXQB_WHQAHAAV__crt_deferred_errno_cache@@@Z 10065f50 f i libucrtd:output.obj
 0001:00064ff0       ___acrt_disable_global_locale_sync 10065ff0 f i libucrtd:output.obj
 0001:00065010       ___acrt_enable_global_locale_sync 10066010 f i libucrtd:output.obj
 0001:00065030       ___acrt_isleadbyte_l_noupdate 10066030 f i libucrtd:output.obj
 0001:00065050       ___acrt_locale_changed     10066050 f i libucrtd:output.obj
 0001:00065080       ___acrt_locale_get_ctype_array_value 10066080 f i libucrtd:output.obj
 0001:000650b0       ___stdio_common_vfprintf   100660b0 f   libucrtd:output.obj
 0001:000650e0       ___stdio_common_vfprintf_p 100660e0 f   libucrtd:output.obj
 0001:00065110       ___stdio_common_vfprintf_s 10066110 f   libucrtd:output.obj
 0001:00065140       ___stdio_common_vfwprintf  10066140 f   libucrtd:output.obj
 0001:00065170       ___stdio_common_vfwprintf_p 10066170 f   libucrtd:output.obj
 0001:000651a0       ___stdio_common_vfwprintf_s 100661a0 f   libucrtd:output.obj
 0001:000651d0       ___stdio_common_vsnprintf_s 100661d0 f   libucrtd:output.obj
 0001:00065200       ___stdio_common_vsnwprintf_s 10066200 f   libucrtd:output.obj
 0001:00065230       ___stdio_common_vsprintf   10066230 f   libucrtd:output.obj
 0001:00065260       ___stdio_common_vsprintf_p 10066260 f   libucrtd:output.obj
 0001:00065290       ___stdio_common_vsprintf_s 10066290 f   libucrtd:output.obj
 0001:000652c0       ___stdio_common_vswprintf  100662c0 f   libucrtd:output.obj
 0001:000652f0       ___stdio_common_vswprintf_p 100662f0 f   libucrtd:output.obj
 0001:00065320       ___stdio_common_vswprintf_s 10066320 f   libucrtd:output.obj
 0001:00065350       __ctype_fast_check_internal 10066350 f i libucrtd:output.obj
 0001:00065370       __isdigit_fast_internal    10066370 f i libucrtd:output.obj
 0001:00065390       __tolower_fast_internal    10066390 f i libucrtd:output.obj
 0001:000653b0       _free                      100663b0 f   libucrtd:free.obj
 0001:000653e0       _malloc                    100663e0 f   libucrtd:malloc.obj
 0001:00065400       ??$?RU?$__crt_report_hook_node@D@@@__crt_internal_free_policy@@QBEXQBU?$__crt_report_hook_node@D@@@Z 10066400 f i libucrtd:dbgrpt.obj
 0001:00065420       ??$?RU?$__crt_report_hook_node@_W@@@__crt_internal_free_policy@@QBEXQBU?$__crt_report_hook_node@_W@@@Z 10066420 f i libucrtd:dbgrpt.obj
 0001:00066210       ??$get_module_file_name@AAPAUHINSTANCE__@@AAY0BAF@DK@?$__crt_char_traits@D@@SAKAAPAUHINSTANCE__@@AAY0BAF@D$$QAK@Z 10067210 f i libucrtd:dbgrpt.obj
 0001:00066230       ??$get_module_file_name@AAPAUHINSTANCE__@@AAY0BAF@_WK@?$__crt_char_traits@_W@@SAKAAPAUHINSTANCE__@@AAY0BAF@_W$$QAK@Z 10067230 f i libucrtd:dbgrpt.obj
 0001:00066250       ??$tcscpy_s@AAY0BAF@DIPBD@?$__crt_char_traits@D@@SAHAAY0BAF@D$$QAI$$QAPBD@Z 10067250 f i libucrtd:dbgrpt.obj
 0001:00066270       ??$tcscpy_s@AAY0BAF@_WIPB_W@?$__crt_char_traits@_W@@SAHAAY0BAF@_W$$QAI$$QAPB_W@Z 10067270 f i libucrtd:dbgrpt.obj
 0001:00066290       ??$tcslen@AAY0BAF@D@?$__crt_char_traits@D@@SAIAAY0BAF@D@Z 10067290 f i libucrtd:dbgrpt.obj
 0001:000662b0       ??$tcslen@AAY0BAF@_W@?$__crt_char_traits@_W@@SAIAAY0BAF@_W@Z 100672b0 f i libucrtd:dbgrpt.obj
 0001:000662d0       ??$tcslen@ABQBD@?$__crt_char_traits@D@@SAIABQBD@Z 100672d0 f i libucrtd:dbgrpt.obj
 0001:000662f0       ??$tcslen@ABQB_W@?$__crt_char_traits@_W@@SAIABQB_W@Z 100672f0 f i libucrtd:dbgrpt.obj
 0001:000663f0       ??0?$__crt_unique_heap_ptr@U?$__crt_report_hook_node@D@@U__crt_internal_free_policy@@@@QAE@QAU?$__crt_report_hook_node@D@@@Z 100673f0 f i libucrtd:dbgrpt.obj
 0001:00066410       ??0?$__crt_unique_heap_ptr@U?$__crt_report_hook_node@_W@@U__crt_internal_free_policy@@@@QAE@QAU?$__crt_report_hook_node@_W@@@Z 10067410 f i libucrtd:dbgrpt.obj
 0001:00066430       ??1?$__crt_unique_heap_ptr@U?$__crt_report_hook_node@D@@U__crt_internal_free_policy@@@@QAE@XZ 10067430 f i libucrtd:dbgrpt.obj
 0001:00066450       ??1?$__crt_unique_heap_ptr@U?$__crt_report_hook_node@_W@@U__crt_internal_free_policy@@@@QAE@XZ 10067450 f i libucrtd:dbgrpt.obj
 0001:00066470       ??B?$__crt_unique_heap_ptr@U?$__crt_report_hook_node@D@@U__crt_internal_free_policy@@@@QBE_NXZ 10067470 f i libucrtd:dbgrpt.obj
 0001:00066490       ??B?$__crt_unique_heap_ptr@U?$__crt_report_hook_node@_W@@U__crt_internal_free_policy@@@@QBE_NXZ 10067490 f i libucrtd:dbgrpt.obj
 0001:000669d0       ?detach@?$__crt_unique_heap_ptr@U?$__crt_report_hook_node@D@@U__crt_internal_free_policy@@@@QAEPAU?$__crt_report_hook_node@D@@XZ 100679d0 f i libucrtd:dbgrpt.obj
 0001:00066a00       ?detach@?$__crt_unique_heap_ptr@U?$__crt_report_hook_node@_W@@U__crt_internal_free_policy@@@@QAEPAU?$__crt_report_hook_node@_W@@XZ 10067a00 f i libucrtd:dbgrpt.obj
 0001:00066a30       ?get@?$__crt_unique_heap_ptr@U?$__crt_report_hook_node@D@@U__crt_internal_free_policy@@@@QBEPAU?$__crt_report_hook_node@D@@XZ 10067a30 f i libucrtd:dbgrpt.obj
 0001:00066a50       ?get@?$__crt_unique_heap_ptr@U?$__crt_report_hook_node@_W@@U__crt_internal_free_policy@@@@QBEPAU?$__crt_report_hook_node@_W@@XZ 10067a50 f i libucrtd:dbgrpt.obj
 0001:00066ad0       ?is_valid@?$__crt_unique_heap_ptr@U?$__crt_report_hook_node@D@@U__crt_internal_free_policy@@@@QBE_NXZ 10067ad0 f i libucrtd:dbgrpt.obj
 0001:00066b00       ?is_valid@?$__crt_unique_heap_ptr@U?$__crt_report_hook_node@_W@@U__crt_internal_free_policy@@@@QBE_NXZ 10067b00 f i libucrtd:dbgrpt.obj
 0001:00066b30       ?release@?$__crt_unique_heap_ptr@U?$__crt_report_hook_node@D@@U__crt_internal_free_policy@@@@QAEXXZ 10067b30 f i libucrtd:dbgrpt.obj
 0001:00066b60       ?release@?$__crt_unique_heap_ptr@U?$__crt_report_hook_node@_W@@U__crt_internal_free_policy@@@@QAEXXZ 10067b60 f i libucrtd:dbgrpt.obj
 0001:00066b90       __CrtDbgReport             10067b90 f   libucrtd:dbgrpt.obj
 0001:00066be0       __CrtDbgReportW            10067be0 f   libucrtd:dbgrpt.obj
 0001:00066c30       __CrtSetReportHook2        10067c30 f   libucrtd:dbgrpt.obj
 0001:00066c50       __CrtSetReportHookW2       10067c50 f   libucrtd:dbgrpt.obj
 0001:00066c70       ___acrt_MessageWindowA     10067c70 f   libucrtd:dbgrpt.obj
 0001:00066ca0       ___acrt_MessageWindowW     10067ca0 f   libucrtd:dbgrpt.obj
 0001:00066cd0       __invoke_watson_if_error   10067cd0 f i libucrtd:dbgrpt.obj
 0001:00066d00       __invoke_watson_if_oneof   10067d00 f i libucrtd:dbgrpt.obj
 0001:00066d40       __snwprintf_s              10067d40 f i libucrtd:dbgrpt.obj
 0001:00066d80       __vsnwprintf_s_l           10067d80 f i libucrtd:dbgrpt.obj
 0001:00067100       _wcscpy_s                  10068100 f   libucrtd:wcscpy_s.obj
 0001:00067e20       ??1?$__crt_simd_cleanup_guard@$00@@QAE@XZ 10068e20 f i libucrtd:strnlen.obj
 0001:00067e30       ??1?$__crt_simd_cleanup_guard@$0A@@@QAE@XZ 10068e30 f i libucrtd:strnlen.obj
 0001:00067e40       ?compare_equals@?$__crt_simd_traits@$00E@@SA?AT__m256i@@T2@0@Z 10068e40 f i libucrtd:strnlen.obj
 0001:00067e80       ?compare_equals@?$__crt_simd_traits@$00G@@SA?AT__m256i@@T2@0@Z 10068e80 f i libucrtd:strnlen.obj
 0001:00067ec0       ?compare_equals@?$__crt_simd_traits@$0A@E@@SA?AT__m128i@@T2@0@Z 10068ec0 f i libucrtd:strnlen.obj
 0001:00067f00       ?compare_equals@?$__crt_simd_traits@$0A@G@@SA?AT__m128i@@T2@0@Z 10068f00 f i libucrtd:strnlen.obj
 0001:00067f40       ?compute_byte_mask@?$__crt_simd_pack_traits@$00@@SAHT__m256i@@@Z 10068f40 f i libucrtd:strnlen.obj
 0001:00067f70       ?compute_byte_mask@?$__crt_simd_pack_traits@$0A@@@SAHT__m128i@@@Z 10068f70 f i libucrtd:strnlen.obj
 0001:00067fa0       ?get_zero_pack@?$__crt_simd_pack_traits@$00@@SA?AT__m256i@@XZ 10068fa0 f i libucrtd:strnlen.obj
 0001:00067fd0       ?get_zero_pack@?$__crt_simd_pack_traits@$0A@@@SA?AT__m128i@@XZ 10068fd0 f i libucrtd:strnlen.obj
 0001:00068000       _strnlen                   10069000 f   libucrtd:strnlen.obj
 0001:00068020       _wcslen                    10069020 f   libucrtd:strnlen.obj
 0001:00068040       _wcsnlen                   10069040 f   libucrtd:strnlen.obj
 0001:00068060       ??$__crt_fast_decode_pointer@P6AXPB_W00II@Z@@YAP6AXPB_W00II@ZQ6AX000II@Z@Z 10069060 f i libucrtd:invalid_parameter.obj
 0001:00068090       ??$__crt_fast_encode_pointer@P6AXPB_W00II@Z@@YAP6AXPB_W00II@ZQ6AX000II@Z@Z 10069090 f i libucrtd:invalid_parameter.obj
 0001:000680c0       ??$initialize_from_array@$$BY00Q6AXPB_W00II@Z@?$dual_state_global@P6AXPB_W00II@Z@__crt_state_management@@QAAXAAY00Q6AXPB_W00II@Z@Z 100690c0 f i libucrtd:invalid_parameter.obj
 0001:00068110       ?__crt_rotate_pointer_value@@YAIIH@Z 10069110 f i libucrtd:invalid_parameter.obj
 0001:00068120       ?dangerous_get_state_array@?$dual_state_global@P6AXPB_W00II@Z@__crt_state_management@@QAEPAP6AXPB_W00II@ZXZ 10069120 f i libucrtd:invalid_parameter.obj
 0001:00068130       ?get_current_state_index@__crt_state_management@@YAIXZ 10069130 f i libucrtd:invalid_parameter.obj
 0001:00068140       ?value@?$dual_state_global@P6AXPB_W00II@Z@__crt_state_management@@QAEAAP6AXPB_W00II@ZXZ 10069140 f i libucrtd:invalid_parameter.obj
 0001:00068160       ___acrt_call_reportfault   10069160 f   libucrtd:invalid_parameter.obj
 0001:000682c0       ___acrt_initialize_invalid_parameter_handler 100692c0 f   libucrtd:invalid_parameter.obj
 0001:000682f0       __get_invalid_parameter_handler 100692f0 f   libucrtd:invalid_parameter.obj
 0001:00068310       __get_thread_local_invalid_parameter_handler 10069310 f   libucrtd:invalid_parameter.obj
 0001:00068340       __invalid_parameter        10069340 f   libucrtd:invalid_parameter.obj
 0001:00068400       __invalid_parameter_noinfo 10069400 f   libucrtd:invalid_parameter.obj
 0001:00068420       __invalid_parameter_noinfo_noreturn 10069420 f   libucrtd:invalid_parameter.obj
 0001:00068450       __invoke_watson            10069450 f   libucrtd:invalid_parameter.obj
 0001:00068490       __set_invalid_parameter_handler 10069490 f   libucrtd:invalid_parameter.obj
 0001:000684e0       __set_thread_local_invalid_parameter_handler 100694e0 f   libucrtd:invalid_parameter.obj
 0001:00068510       ___acrt_errno_from_os_error 10069510 f   libucrtd:errno.obj
 0001:00068590       ___acrt_errno_map_os_error 10069590 f   libucrtd:errno.obj
 0001:000685c0       ___doserrno                100695c0 f   libucrtd:errno.obj
 0001:000685f0       __errno                    100695f0 f   libucrtd:errno.obj
 0001:00068620       __get_doserrno             10069620 f   libucrtd:errno.obj
 0001:000686b0       __get_errno                100696b0 f   libucrtd:errno.obj
 0001:00068740       __set_doserrno             10069740 f   libucrtd:errno.obj
 0001:00068770       __set_errno                10069770 f   libucrtd:errno.obj
 0001:000687a0       _calloc                    100697a0 f   libucrtd:calloc.obj
 0001:000687c0       __recalloc                 100697c0 f   libucrtd:recalloc.obj
 0001:000687f0       __recalloc_base            100697f0 f   libucrtd:recalloc.obj
 0001:0006888a       __resetstkoflw             1006988a f   libucrtd:resetstk.obj
 0001:00068d70       _wcscat_s                  10069d70 f   libucrtd:wcscat_s.obj
 0001:000691c0       _wcsncpy_s                 1006a1c0 f   libucrtd:wcsncpy_s.obj
 0001:00069300       ___isascii                 1006a300 f   libucrtd:_ctype.obj
 0001:00069330       ___iscsym                  1006a330 f   libucrtd:_ctype.obj
 0001:00069370       ___iscsymf                 1006a370 f   libucrtd:_ctype.obj
 0001:000693b0       ___toascii                 1006a3b0 f   libucrtd:_ctype.obj
 0001:000693c0       __isalnum_l                1006a3c0 f   libucrtd:_ctype.obj
 0001:000693e0       __isalpha_l                1006a3e0 f   libucrtd:_ctype.obj
 0001:00069400       __isblank_l                1006a400 f   libucrtd:_ctype.obj
 0001:00069420       __iscntrl_l                1006a420 f   libucrtd:_ctype.obj
 0001:00069440       __iscsym_l                 1006a440 f   libucrtd:_ctype.obj
 0001:00069480       __iscsymf_l                1006a480 f   libucrtd:_ctype.obj
 0001:000694c0       __isdigit_l                1006a4c0 f   libucrtd:_ctype.obj
 0001:000694e0       __isgraph_l                1006a4e0 f   libucrtd:_ctype.obj
 0001:00069500       __islower_l                1006a500 f   libucrtd:_ctype.obj
 0001:00069520       __isprint_l                1006a520 f   libucrtd:_ctype.obj
 0001:00069540       __ispunct_l                1006a540 f   libucrtd:_ctype.obj
 0001:00069560       __isspace_l                1006a560 f   libucrtd:_ctype.obj
 0001:00069580       __isupper_l                1006a580 f   libucrtd:_ctype.obj
 0001:000695a0       __isxdigit_l               1006a5a0 f   libucrtd:_ctype.obj
 0001:000695c0       _isalnum                   1006a5c0 f   libucrtd:_ctype.obj
 0001:000695e0       _isalpha                   1006a5e0 f   libucrtd:_ctype.obj
 0001:00069600       _isblank                   1006a600 f   libucrtd:_ctype.obj
 0001:00069630       _iscntrl                   1006a630 f   libucrtd:_ctype.obj
 0001:00069650       _isdigit                   1006a650 f   libucrtd:_ctype.obj
 0001:00069670       _isgraph                   1006a670 f   libucrtd:_ctype.obj
 0001:00069690       _islower                   1006a690 f   libucrtd:_ctype.obj
 0001:000696b0       _isprint                   1006a6b0 f   libucrtd:_ctype.obj
 0001:000696d0       _ispunct                   1006a6d0 f   libucrtd:_ctype.obj
 0001:000696f0       _isspace                   1006a6f0 f   libucrtd:_ctype.obj
 0001:00069710       _isupper                   1006a710 f   libucrtd:_ctype.obj
 0001:00069730       _isxdigit                  1006a730 f   libucrtd:_ctype.obj
 0001:00069750       _wcscat                    1006a750 f   libucrtd:wcscat.obj
 0001:000697b0       _wcscpy                    1006a7b0 f   libucrtd:wcscpy.obj
 0001:00069e40       ??$open_file@ABQBDABQBDABHPAU_iobuf@@@?$__crt_char_traits@D@@SAPAU_iobuf@@ABQBD0ABH$$QAPAU1@@Z 1006ae40 f i libucrtd:fopen.obj
 0001:00069e70       ??$open_file@ABQB_WABQB_WABHPAU_iobuf@@@?$__crt_char_traits@_W@@SAPAU_iobuf@@ABQB_W0ABH$$QAPAU1@@Z 1006ae70 f i libucrtd:fopen.obj
 0001:00069ea0       ?unlock@__crt_stdio_stream@@QBEXXZ 1006aea0 f i libucrtd:fopen.obj
 0001:00069ec0       __fsopen                   1006aec0 f   libucrtd:fopen.obj
 0001:00069ee0       __wfopen                   1006aee0 f   libucrtd:fopen.obj
 0001:00069f00       __wfopen_s                 1006af00 f   libucrtd:fopen.obj
 0001:00069f20       __wfsopen                  1006af20 f   libucrtd:fopen.obj
 0001:00069f40       _fopen                     1006af40 f   libucrtd:fopen.obj
 0001:00069f60       _fopen_s                   1006af60 f   libucrtd:fopen.obj
 0001:00069f80       ?is_in_use@__crt_stdio_stream@@QBE_NXZ 1006af80 f i libucrtd:fclose.obj
 0001:00069fc0       __fclose_nolock            1006afc0 f   libucrtd:fclose.obj
 0001:0006a100       _fclose                    1006b100 f   libucrtd:fclose.obj
 0001:0006a250       __fputc_nolock             1006b250 f   libucrtd:fputc.obj
 0001:0006a2e0       __fputchar                 1006b2e0 f   libucrtd:fputc.obj
 0001:0006a300       __putc_nolock              1006b300 f   libucrtd:fputc.obj
 0001:0006a320       _fputc                     1006b320 f   libucrtd:fputc.obj
 0001:0006a560       _putc                      1006b560 f   libucrtd:fputc.obj
 0001:0006a580       _putchar                   1006b580 f   libucrtd:fputc.obj
 0001:0006a5f0       __seh_filter_dll           1006b5f0 f   libucrtd:exception_filter.obj
 0001:0006a620       __seh_filter_exe           1006b620 f   libucrtd:exception_filter.obj
 0001:0006a830       ??$?B$$A6GXPAXK0@Z@__crt_fast_encoded_nullptr_t@@QBEP6GXPAXK0@ZXZ 1006b830 f i libucrtd:exit.obj
 0001:0006a910       ??$__crt_fast_decode_pointer@P6GXPAXK0@Z@@YAP6GXPAXK0@ZQ6GX0K0@Z@Z 1006b910 f i libucrtd:exit.obj
 0001:0006a940       ??$__crt_fast_encode_pointer@P6GXPAXK0@Z@@YAP6GXPAXK0@ZQ6GX0K0@Z@Z 1006b940 f i libucrtd:exit.obj
 0001:0006a970       ??$__crt_get_proc_address@P6GXI@Z@@YAP6GXI@ZQAUHINSTANCE__@@QBD@Z 1006b970 f i libucrtd:exit.obj
 0001:0006aa00       ??0?$__crt_unique_handle_t@U__crt_hmodule_traits@@@@QAE@QAUHINSTANCE__@@@Z 1006ba00 f i libucrtd:exit.obj
 0001:0006aa20       ??1?$__crt_unique_handle_t@U__crt_hmodule_traits@@@@QAE@XZ 1006ba20 f i libucrtd:exit.obj
 0001:0006abe0       ?__acrt_select_exit_lock@@YA?AW4__acrt_lock_id@@XZ 1006bbe0 f i libucrtd:exit.obj
 0001:0006abf0       ?__crt_fast_encode_pointer@@YA?AU__crt_fast_encoded_nullptr_t@@$$T@Z 1006bbf0 f i libucrtd:exit.obj
 0001:0006ac20       ?close@?$__crt_unique_handle_t@U__crt_hmodule_traits@@@@QAEXXZ 1006bc20 f i libucrtd:exit.obj
 0001:0006ac60       ?close@__crt_hmodule_traits@@SA_NPAUHINSTANCE__@@@Z 1006bc60 f i libucrtd:exit.obj
 0001:0006ad50       ?get@?$__crt_unique_handle_t@U__crt_hmodule_traits@@@@QBEPAUHINSTANCE__@@XZ 1006bd50 f i libucrtd:exit.obj
 0001:0006ad70       ?get_address_of@?$__crt_unique_handle_t@U__crt_hmodule_traits@@@@QAEPAPAUHINSTANCE__@@XZ 1006bd70 f i libucrtd:exit.obj
 0001:0006ad80       ?get_invalid_value@__crt_hmodule_traits@@SAPAUHINSTANCE__@@XZ 1006bd80 f i libucrtd:exit.obj
 0001:0006af00       __Exit                     1006bf00 f   libucrtd:exit.obj
 0001:0006af20       ___acrt_initialize_thread_local_exit_callback 1006bf20 f   libucrtd:exit.obj
 0001:0006af30       __c_exit                   1006bf30 f   libucrtd:exit.obj
 0001:0006af50       __cexit                    1006bf50 f   libucrtd:exit.obj
 0001:0006af70       __exit                     1006bf70 f   libucrtd:exit.obj
 0001:0006af90       __is_c_termination_complete 1006bf90 f   libucrtd:exit.obj
 0001:0006afb0       __register_thread_local_exe_atexit_callback 1006bfb0 f   libucrtd:exit.obj
 0001:0006aff0       _exit                      1006bff0 f   libucrtd:exit.obj
 0001:0006b010       _quick_exit                1006c010 f   libucrtd:exit.obj
 0001:0006b030       ??$?RE@__crt_internal_free_policy@@QBEXQBE@Z 1006c030 f i libucrtd:argv_parsing.obj
 0001:0006b050       ??$?RPAD@__crt_internal_free_policy@@QBEXQBQAD@Z 1006c050 f i libucrtd:argv_parsing.obj
 0001:0006b070       ??$?RPA_W@__crt_internal_free_policy@@QBEXQBQA_W@Z 1006c070 f i libucrtd:argv_parsing.obj
 0001:0006b5d0       ??$get_module_file_name@$$TAAY0BAF@DH@?$__crt_char_traits@D@@SAK$$QA$$TAAY0BAF@D$$QAH@Z 1006c5d0 f i libucrtd:argv_parsing.obj
 0001:0006b5f0       ??$get_module_file_name@$$TAAY0BAF@_WH@?$__crt_char_traits@_W@@SAK$$QA$$TAAY0BAF@_W$$QAH@Z 1006c5f0 f i libucrtd:argv_parsing.obj
 0001:0006bd10       ??$set_program_name@PAD@?$__crt_char_traits@D@@SAX$$QAPAD@Z 1006cd10 f i libucrtd:argv_parsing.obj
 0001:0006bd30       ??$set_program_name@PA_W@?$__crt_char_traits@_W@@SAX$$QAPA_W@Z 1006cd30 f i libucrtd:argv_parsing.obj
 0001:0006bd90       ??0?$__crt_unique_heap_ptr@EU__crt_internal_free_policy@@@@QAE@QAE@Z 1006cd90 f i libucrtd:argv_parsing.obj
 0001:0006bdb0       ??0?$__crt_unique_heap_ptr@PADU__crt_internal_free_policy@@@@QAE@QAPAD@Z 1006cdb0 f i libucrtd:argv_parsing.obj
 0001:0006bdd0       ??0?$__crt_unique_heap_ptr@PA_WU__crt_internal_free_policy@@@@QAE@QAPA_W@Z 1006cdd0 f i libucrtd:argv_parsing.obj
 0001:0006bdf0       ??1?$__crt_unique_heap_ptr@EU__crt_internal_free_policy@@@@QAE@XZ 1006cdf0 f i libucrtd:argv_parsing.obj
 0001:0006be10       ??1?$__crt_unique_heap_ptr@PADU__crt_internal_free_policy@@@@QAE@XZ 1006ce10 f i libucrtd:argv_parsing.obj
 0001:0006be30       ??1?$__crt_unique_heap_ptr@PA_WU__crt_internal_free_policy@@@@QAE@XZ 1006ce30 f i libucrtd:argv_parsing.obj
 0001:0006be50       ??B?$__crt_unique_heap_ptr@EU__crt_internal_free_policy@@@@QBE_NXZ 1006ce50 f i libucrtd:argv_parsing.obj
 0001:0006bf10       ?detach@?$__crt_unique_heap_ptr@EU__crt_internal_free_policy@@@@QAEPAEXZ 1006cf10 f i libucrtd:argv_parsing.obj
 0001:0006bf40       ?detach@?$__crt_unique_heap_ptr@PADU__crt_internal_free_policy@@@@QAEPAPADXZ 1006cf40 f i libucrtd:argv_parsing.obj
 0001:0006bf70       ?detach@?$__crt_unique_heap_ptr@PA_WU__crt_internal_free_policy@@@@QAEPAPA_WXZ 1006cf70 f i libucrtd:argv_parsing.obj
 0001:0006c000       ?get@?$__crt_unique_heap_ptr@EU__crt_internal_free_policy@@@@QBEPAEXZ 1006d000 f i libucrtd:argv_parsing.obj
 0001:0006c020       ?get@?$__crt_unique_heap_ptr@PADU__crt_internal_free_policy@@@@QBEPAPADXZ 1006d020 f i libucrtd:argv_parsing.obj
 0001:0006c040       ?get@?$__crt_unique_heap_ptr@PA_WU__crt_internal_free_policy@@@@QBEPAPA_WXZ 1006d040 f i libucrtd:argv_parsing.obj
 0001:0006c060       ?get_address_of@?$__crt_unique_heap_ptr@PADU__crt_internal_free_policy@@@@QAEPAPAPADXZ 1006d060 f i libucrtd:argv_parsing.obj
 0001:0006c070       ?get_address_of@?$__crt_unique_heap_ptr@PA_WU__crt_internal_free_policy@@@@QAEPAPAPA_WXZ 1006d070 f i libucrtd:argv_parsing.obj
 0001:0006c0c0       ?is_valid@?$__crt_unique_heap_ptr@EU__crt_internal_free_policy@@@@QBE_NXZ 1006d0c0 f i libucrtd:argv_parsing.obj
 0001:0006c0f0       ?release@?$__crt_unique_heap_ptr@EU__crt_internal_free_policy@@@@QAEXXZ 1006d0f0 f i libucrtd:argv_parsing.obj
 0001:0006c120       ?release@?$__crt_unique_heap_ptr@PADU__crt_internal_free_policy@@@@QAEXXZ 1006d120 f i libucrtd:argv_parsing.obj
 0001:0006c150       ?release@?$__crt_unique_heap_ptr@PA_WU__crt_internal_free_policy@@@@QAEXXZ 1006d150 f i libucrtd:argv_parsing.obj
 0001:0006c1c0       ___acrt_allocate_buffer_for_argv 1006d1c0 f   libucrtd:argv_parsing.obj
 0001:0006c280       __configure_narrow_argv    1006d280 f   libucrtd:argv_parsing.obj
 0001:0006c2a0       __configure_wide_argv      1006d2a0 f   libucrtd:argv_parsing.obj
 0001:0006c2c0       __set_pgmptr               1006d2c0 f i libucrtd:argv_parsing.obj
 0001:0006c2d0       __set_wpgmptr              1006d2d0 f i libucrtd:argv_parsing.obj
 0001:0006c2df       ??$?R_W@__crt_internal_free_policy@@QBEXQB_W@Z 1006d2df f i libucrtd:environment_initialization.obj
 0001:0006c748       ??$get_environment_from_os@$$V@?$__crt_char_traits@D@@SAPADXZ 1006d748 f i libucrtd:environment_initialization.obj
 0001:0006c74d       ??$get_environment_from_os@$$V@?$__crt_char_traits@_W@@SAPA_WXZ 1006d74d f i libucrtd:environment_initialization.obj
 0001:0006c876       ??$set_variable_in_environment_nolock@PADH@?$__crt_char_traits@D@@SAH$$QAPAD$$QAH@Z 1006d876 f i libucrtd:environment_initialization.obj
 0001:0006c88e       ??$set_variable_in_environment_nolock@PA_WH@?$__crt_char_traits@_W@@SAH$$QAPA_W$$QAH@Z 1006d88e f i libucrtd:environment_initialization.obj
 0001:0006c8a6       ??$tcscpy_s@PADABIAAPAD@?$__crt_char_traits@D@@SAH$$QAPADABIAAPAD@Z 1006d8a6 f i libucrtd:environment_initialization.obj
 0001:0006c8c4       ??$tcscpy_s@PA_WABIAAPA_W@?$__crt_char_traits@_W@@SAH$$QAPA_WABIAAPA_W@Z 1006d8c4 f i libucrtd:environment_initialization.obj
 0001:0006c8e2       ??$tcslen@AAPAD@?$__crt_char_traits@D@@SAIAAPAD@Z 1006d8e2 f i libucrtd:environment_initialization.obj
 0001:0006c8fa       ??$tcslen@AAPA_W@?$__crt_char_traits@_W@@SAIAAPA_W@Z 1006d8fa f i libucrtd:environment_initialization.obj
 0001:0006c918       ??$uninitialize@A6AXAAPAPAD@Z@?$dual_state_global@PAPAD@__crt_state_management@@QAEXA6AXAAPAPAD@Z@Z 1006d918 f i libucrtd:environment_initialization.obj
 0001:0006c941       ??$uninitialize@A6AXAAPAPA_W@Z@?$dual_state_global@PAPA_W@__crt_state_management@@QAEXA6AXAAPAPA_W@Z@Z 1006d941 f i libucrtd:environment_initialization.obj
 0001:0006c9a0       ??0?$__crt_unique_heap_ptr@_WU__crt_internal_free_policy@@@@QAE@QA_W@Z 1006d9a0 f i libucrtd:environment_initialization.obj
 0001:0006c9b0       ??1?$__crt_unique_heap_ptr@_WU__crt_internal_free_policy@@@@QAE@XZ 1006d9b0 f i libucrtd:environment_initialization.obj
 0001:0006c9c5       ??B?$__crt_unique_heap_ptr@PADU__crt_internal_free_policy@@@@QBE_NXZ 1006d9c5 f i libucrtd:environment_initialization.obj
 0001:0006c9cc       ??B?$__crt_unique_heap_ptr@PA_WU__crt_internal_free_policy@@@@QBE_NXZ 1006d9cc f i libucrtd:environment_initialization.obj
 0001:0006c9d3       ??B?$__crt_unique_heap_ptr@_WU__crt_internal_free_policy@@@@QBE_NXZ 1006d9d3 f i libucrtd:environment_initialization.obj
 0001:0006c9da       ?__crt_compute_required_transform_buffer_count@@YAIIQBD@Z 1006d9da f i libucrtd:environment_initialization.obj
 0001:0006c9f6       ?__crt_compute_required_transform_buffer_count@@YAIIQB_W@Z 1006d9f6 f i libucrtd:environment_initialization.obj
 0001:0006ca14       ?__crt_transform_string@@YAIIQBDQA_WI@Z 1006da14 f i libucrtd:environment_initialization.obj
 0001:0006ca33       ?__crt_transform_string@@YAIIQB_WQADI@Z 1006da33 f i libucrtd:environment_initialization.obj
 0001:0006ca55       ?detach@?$__crt_unique_heap_ptr@DU__crt_internal_free_policy@@@@QAEPADXZ 1006da55 f i libucrtd:environment_initialization.obj
 0001:0006ca5b       ?detach@?$__crt_unique_heap_ptr@_WU__crt_internal_free_policy@@@@QAEPA_WXZ 1006da5b f i libucrtd:environment_initialization.obj
 0001:0006ca61       ?get@?$__crt_unique_heap_ptr@_WU__crt_internal_free_policy@@@@QBEPA_WXZ 1006da61 f i libucrtd:environment_initialization.obj
 0001:0006ca88       ?initialize@?$dual_state_global@PAPAD@__crt_state_management@@QAEXQAPAD@Z 1006da88 f i libucrtd:environment_initialization.obj
 0001:0006caae       ?initialize@?$dual_state_global@PAPA_W@__crt_state_management@@QAEXQAPA_W@Z 1006daae f i libucrtd:environment_initialization.obj
 0001:0006cad4       ?is_valid@?$__crt_unique_heap_ptr@PADU__crt_internal_free_policy@@@@QBE_NXZ 1006dad4 f i libucrtd:environment_initialization.obj
 0001:0006cadb       ?is_valid@?$__crt_unique_heap_ptr@PA_WU__crt_internal_free_policy@@@@QBE_NXZ 1006dadb f i libucrtd:environment_initialization.obj
 0001:0006cae2       ?is_valid@?$__crt_unique_heap_ptr@_WU__crt_internal_free_policy@@@@QBE_NXZ 1006dae2 f i libucrtd:environment_initialization.obj
 0001:0006caf1       ?release@?$__crt_unique_heap_ptr@_WU__crt_internal_free_policy@@@@QAEXXZ 1006daf1 f i libucrtd:environment_initialization.obj
 0001:0006cb06       ?value@?$dual_state_global@PAPAD@__crt_state_management@@QAEAAPAPADXZ 1006db06 f i libucrtd:environment_initialization.obj
 0001:0006cb09       ?value@?$dual_state_global@PAPA_W@__crt_state_management@@QAEAAPAPA_WXZ 1006db09 f i libucrtd:environment_initialization.obj
 0001:0006cb0c       ___dcrt_get_or_create_narrow_environment_nolock 1006db0c f   libucrtd:environment_initialization.obj
 0001:0006cb11       ___dcrt_get_or_create_wide_environment_nolock 1006db11 f   libucrtd:environment_initialization.obj
 0001:0006cb16       ___dcrt_uninitialize_environments_nolock 1006db16 f   libucrtd:environment_initialization.obj
 0001:0006cb4d       ___p__environ              1006db4d f   libucrtd:environment_initialization.obj
 0001:0006cb53       ___p__wenviron             1006db53 f   libucrtd:environment_initialization.obj
 0001:0006cb59       __get_initial_narrow_environment 1006db59 f   libucrtd:environment_initialization.obj
 0001:0006cb6d       __get_initial_wide_environment 1006db6d f   libucrtd:environment_initialization.obj
 0001:0006cb81       __initialize_narrow_environment 1006db81 f   libucrtd:environment_initialization.obj
 0001:0006cb86       __initialize_wide_environment 1006db86 f   libucrtd:environment_initialization.obj
 0001:0006cb90       ??$?B$$A6AXXZ@__crt_fast_encoded_nullptr_t@@QBEP6AXXZXZ 1006db90 f i libucrtd:onexit.obj
 0001:0006cbb0       ??$?BP6AXXZ@__crt_fast_encoded_nullptr_t@@QBEPAP6AXXZXZ 1006dbb0 f i libucrtd:onexit.obj
 0001:0006cbd0       ??$?RP6AXXZ@__crt_internal_free_policy@@QBEXQBQ6AXXZ@Z 1006dbd0 f i libucrtd:onexit.obj
 0001:0006cd90       ??$__crt_fast_decode_pointer@P6AXXZ@@YAP6AXXZQ6AXXZ@Z 1006dd90 f i libucrtd:onexit.obj
 0001:0006cdc0       ??$__crt_fast_decode_pointer@PAP6AXXZ@@YAPAP6AXXZQAP6AXXZ@Z 1006ddc0 f i libucrtd:onexit.obj
 0001:0006cdf0       ??$__crt_fast_encode_pointer@P6AHXZ@@YAP6AHXZQ6AHXZ@Z 1006ddf0 f i libucrtd:onexit.obj
 0001:0006ce20       ??$__crt_fast_encode_pointer@P6AXXZ@@YAP6AXXZQ6AXXZ@Z 1006de20 f i libucrtd:onexit.obj
 0001:0006ce50       ??$__crt_fast_encode_pointer@PAP6AXXZ@@YAPAP6AXXZQAP6AXXZ@Z 1006de50 f i libucrtd:onexit.obj
 0001:0006cf50       ??0?$__crt_unique_heap_ptr@P6AXXZU__crt_internal_free_policy@@@@QAE@QAP6AXXZ@Z 1006df50 f i libucrtd:onexit.obj
 0001:0006cf70       ??1?$__crt_unique_heap_ptr@P6AXXZU__crt_internal_free_policy@@@@QAE@XZ 1006df70 f i libucrtd:onexit.obj
 0001:0006cf90       ??1scoped_global_state_reset@__crt_state_management@@QAE@XZ 1006df90 f i libucrtd:onexit.obj
 0001:0006d400       ?detach@?$__crt_unique_heap_ptr@P6AXXZU__crt_internal_free_policy@@@@QAEPAP6AXXZXZ 1006e400 f i libucrtd:onexit.obj
 0001:0006d430       ?release@?$__crt_unique_heap_ptr@P6AXXZU__crt_internal_free_policy@@@@QAEXXZ 1006e430 f i libucrtd:onexit.obj
 0001:0006d460       __crt_at_quick_exit        1006e460 f   libucrtd:onexit.obj
 0001:0006d480       __crt_atexit               1006e480 f   libucrtd:onexit.obj
 0001:0006d4a0       __execute_onexit_table     1006e4a0 f   libucrtd:onexit.obj
 0001:0006d4d0       __initialize_onexit_table  1006e4d0 f   libucrtd:onexit.obj
 0001:0006d530       __register_onexit_function 1006e530 f   libucrtd:onexit.obj
 0001:0006d770       ??$?BX@__crt_fast_encoded_nullptr_t@@QBEPAXXZ 1006e770 f i libucrtd:initialization.obj
 0001:0006d790       ??$__crt_fast_encode_pointer@PAX@@YAPAXQAX@Z 1006e790 f i libucrtd:initialization.obj
 0001:0006d850       ?initialize@?$dual_state_global@PAU__crt_locale_data@@@__crt_state_management@@QAEXQAU__crt_locale_data@@@Z 1006e850 f i libucrtd:initialization.obj
 0001:0006d890       ___acrt_initialize         1006e890 f   libucrtd:initialization.obj
 0001:0006d8b0       ___acrt_thread_attach      1006e8b0 f   libucrtd:initialization.obj
 0001:0006d8d0       ___acrt_thread_detach      1006e8d0 f   libucrtd:initialization.obj
 0001:0006d8e0       ___acrt_uninitialize       1006e8e0 f   libucrtd:initialization.obj
 0001:0006d900       ___acrt_uninitialize_critical 1006e900 f   libucrtd:initialization.obj
 0001:0006f170       __CrtCheckMemory           10070170 f   libucrtd:debug_heap.obj
 0001:0006f300       __CrtDoForAllClientObjects 10070300 f   libucrtd:debug_heap.obj
 0001:0006f450       __CrtDumpMemoryLeaks       10070450 f   libucrtd:debug_heap.obj
 0001:0006f4f0       __CrtGetAllocHook          100704f0 f   libucrtd:debug_heap.obj
 0001:0006f500       __CrtGetDumpClient         10070500 f   libucrtd:debug_heap.obj
 0001:0006f510       __CrtIsMemoryBlock         10070510 f   libucrtd:debug_heap.obj
 0001:0006f660       __CrtIsValidHeapPointer    10070660 f   libucrtd:debug_heap.obj
 0001:0006f690       __CrtIsValidPointer        10070690 f   libucrtd:debug_heap.obj
 0001:0006f6c0       __CrtMemCheckpoint         100706c0 f   libucrtd:debug_heap.obj
 0001:0006f8f0       __CrtMemDifference         100708f0 f   libucrtd:debug_heap.obj
 0001:0006fb60       __CrtMemDumpAllObjectsSince 10070b60 f   libucrtd:debug_heap.obj
 0001:0006fc00       __CrtMemDumpStatistics     10070c00 f   libucrtd:debug_heap.obj
 0001:0006fd30       __CrtReportBlockType       10070d30 f   libucrtd:debug_heap.obj
 0001:0006fd60       __CrtSetAllocHook          10070d60 f   libucrtd:debug_heap.obj
 0001:0006fd80       __CrtSetBreakAlloc         10070d80 f   libucrtd:debug_heap.obj
 0001:0006fda0       __CrtSetDbgBlockType       10070da0 f   libucrtd:debug_heap.obj
 0001:0006fe80       __CrtSetDbgFlag            10070e80 f   libucrtd:debug_heap.obj
 0001:0006fff0       __CrtSetDumpClient         10070ff0 f   libucrtd:debug_heap.obj
 0001:00070010       ___acrt_get_locale_data_prefix 10071010 f i libucrtd:debug_heap.obj
 0001:00070030       ___p__crtBreakAlloc        10071030 f   libucrtd:debug_heap.obj
 0001:00070040       ___p__crtDbgFlag           10071040 f   libucrtd:debug_heap.obj
 0001:00070050       __aligned_free_dbg         10071050 f   libucrtd:debug_heap.obj
 0001:00070100       __aligned_malloc_dbg       10071100 f   libucrtd:debug_heap.obj
 0001:00070130       __aligned_msize_dbg        10071130 f   libucrtd:debug_heap.obj
 0001:00070260       __aligned_offset_malloc_dbg 10071260 f   libucrtd:debug_heap.obj
 0001:00070440       __aligned_offset_realloc_dbg 10071440 f   libucrtd:debug_heap.obj
 0001:00070750       __aligned_offset_recalloc_dbg 10071750 f   libucrtd:debug_heap.obj
 0001:00070810       __aligned_realloc_dbg      10071810 f   libucrtd:debug_heap.obj
 0001:00070840       __aligned_recalloc_dbg     10071840 f   libucrtd:debug_heap.obj
 0001:00070870       __calloc_dbg               10071870 f   libucrtd:debug_heap.obj
 0001:000708e0       __chvalidchk_l             100718e0 f i libucrtd:debug_heap.obj
 0001:00070900       __expand_dbg               10071900 f   libucrtd:debug_heap.obj
 0001:00070a30       __free_dbg                 10071a30 f   libucrtd:debug_heap.obj
 0001:00070ae0       __ischartype_l             10071ae0 f i libucrtd:debug_heap.obj
 0001:00070b60       __malloc_dbg               10071b60 f   libucrtd:debug_heap.obj
 0001:00070b80       __msize_dbg                10071b80 f   libucrtd:debug_heap.obj
 0001:00070d10       __realloc_dbg              10071d10 f   libucrtd:debug_heap.obj
 0001:00070db0       __recalloc_dbg             10071db0 f   libucrtd:debug_heap.obj
 0001:00070e60       __initterm                 10071e60 f   libucrtd:initterm.obj
 0001:00070eb0       __initterm_e               10071eb0 f   libucrtd:initterm.obj
 0001:00071220       _strcpy_s                  10072220 f   libucrtd:strcpy_s.obj
 0001:00071650       _strcat_s                  10072650 f   libucrtd:strcat_s.obj
 0001:00071670       ??$?B$$A6AHI@Z@__crt_fast_encoded_nullptr_t@@QBEP6AHI@ZXZ 10072670 f i libucrtd:new_handler.obj
 0001:00071690       ??$__crt_fast_decode_pointer@P6AHI@Z@@YAP6AHI@ZQ6AHI@Z@Z 10072690 f i libucrtd:new_handler.obj
 0001:000716c0       ??$__crt_fast_encode_pointer@P6AHI@Z@@YAP6AHI@ZQ6AHI@Z@Z 100726c0 f i libucrtd:new_handler.obj
 0001:000716f0       ?_set_new_handler@@YAP6AHI@ZH@Z 100726f0 f   libucrtd:new_handler.obj
 0001:00071750       ?initialize@?$dual_state_global@P6AHI@Z@__crt_state_management@@QAEXQ6AHI@Z@Z 10072750 f i libucrtd:new_handler.obj
 0001:00071790       ?value@?$dual_state_global@P6AHI@Z@__crt_state_management@@QAEAAP6AHI@ZXZ 10072790 f i libucrtd:new_handler.obj
 0001:000717b0       ___acrt_initialize_new_handler 100727b0 f   libucrtd:new_handler.obj
 0001:000717d0       __callnewh                 100727d0 f   libucrtd:new_handler.obj
 0001:00071810       __query_new_handler        10072810 f   libucrtd:new_handler.obj
 0001:000718a0       __set_new_handler          100728a0 f   libucrtd:new_handler.obj
 0001:00071980       __get_terminate            10072980 f   libucrtd:terminate.obj
 0001:000719a0       _set_terminate             100729a0 f   libucrtd:terminate.obj
 0001:000719d0       _terminate                 100729d0 f   libucrtd:terminate.obj
 0001:000723a0       __makepath                 100733a0 f   libucrtd:makepath.obj
 0001:000723d0       __makepath_s               100733d0 f   libucrtd:makepath.obj
 0001:00072400       __wmakepath                10073400 f   libucrtd:makepath.obj
 0001:00072430       __wmakepath_s              10073430 f   libucrtd:makepath.obj
 0001:00073d80       ??$tcsncpy_s@AAPADIAAPBDABI@?$__crt_char_traits@D@@SAHAAPAD$$QAIAAPBDABI@Z 10074d80 f i libucrtd:splitpath.obj
 0001:00073db0       ??$tcsncpy_s@AAPADIAAPBDH@?$__crt_char_traits@D@@SAHAAPAD$$QAIAAPBD$$QAH@Z 10074db0 f i libucrtd:splitpath.obj
 0001:00073de0       ??$tcsncpy_s@AAPA_WIAAPB_WABI@?$__crt_char_traits@_W@@SAHAAPA_W$$QAIAAPB_WABI@Z 10074de0 f i libucrtd:splitpath.obj
 0001:00073e10       ??$tcsncpy_s@AAPA_WIAAPB_WH@?$__crt_char_traits@_W@@SAHAAPA_W$$QAIAAPB_W$$QAH@Z 10074e10 f i libucrtd:splitpath.obj
 0001:00074050       __splitpath                10075050 f   libucrtd:splitpath.obj
 0001:00074080       __splitpath_s              10075080 f   libucrtd:splitpath.obj
 0001:000740d0       __wsplitpath               100750d0 f   libucrtd:splitpath.obj
 0001:00074100       __wsplitpath_s             10075100 f   libucrtd:splitpath.obj
 0001:00074150       __set_abort_behavior       10075150 f   libucrtd:abort.obj
 0001:00074180       _abort                     10075180 f   libucrtd:abort.obj
 0001:000741f0       _strcmp                    100751f0 f   libucrtd:strcmp.obj
 0001:00074280       _strlen                    10075280 f   libucrtd:strlen.obj
 0001:00074310       ??$is_overflow_condition@K@__crt_strtox@@YA_NIK@Z 10075310 f i libucrtd:atox.obj
 0001:00074370       ??$is_overflow_condition@_K@__crt_strtox@@YA_NI_K@Z 10075370 f i libucrtd:atox.obj
 0001:00074400       ??$make_c_string_character_source@D$$T@__crt_strtox@@YA?AV?$c_string_character_source@D@0@QBD$$T@Z 10075400 f i libucrtd:atox.obj
 0001:00074420       ??$make_c_string_character_source@_W$$T@__crt_strtox@@YA?AV?$c_string_character_source@_W@0@QB_W$$T@Z 10075420 f i libucrtd:atox.obj
 0001:00074440       ??$parse_integer@KV?$c_string_character_source@D@__crt_strtox@@@__crt_strtox@@YAKQAU__crt_locale_pointers@@V?$c_string_character_source@D@0@H_N@Z 10075440 f i libucrtd:atox.obj
 0001:000747b0       ??$parse_integer@KV?$c_string_character_source@_W@__crt_strtox@@@__crt_strtox@@YAKQAU__crt_locale_pointers@@V?$c_string_character_source@_W@0@H_N@Z 100757b0 f i libucrtd:atox.obj
 0001:00074b20       ??$parse_integer@_KV?$c_string_character_source@D@__crt_strtox@@@__crt_strtox@@YA_KQAU__crt_locale_pointers@@V?$c_string_character_source@D@0@H_N@Z 10075b20 f i libucrtd:atox.obj
 0001:00074f40       ??$parse_integer@_KV?$c_string_character_source@_W@__crt_strtox@@@__crt_strtox@@YA_KQAU__crt_locale_pointers@@V?$c_string_character_source@_W@0@H_N@Z 10075f40 f i libucrtd:atox.obj
 0001:00075370       ??$parse_integer_from_string@JD$$T@__crt_strtox@@YAJQBD$$THQAU__crt_locale_pointers@@@Z 10076370 f i libucrtd:atox.obj
 0001:000753b0       ??$parse_integer_from_string@J_W$$T@__crt_strtox@@YAJQB_W$$THQAU__crt_locale_pointers@@@Z 100763b0 f i libucrtd:atox.obj
 0001:000753f0       ??$parse_integer_from_string@_JD$$T@__crt_strtox@@YA_JQBD$$THQAU__crt_locale_pointers@@@Z 100763f0 f i libucrtd:atox.obj
 0001:00075430       ??$parse_integer_from_string@_J_W$$T@__crt_strtox@@YA_JQB_W$$THQAU__crt_locale_pointers@@@Z 10076430 f i libucrtd:atox.obj
 0001:00075470       ??0?$c_string_character_source@D@__crt_strtox@@QAE@QBDQAPBD@Z 10076470 f i libucrtd:atox.obj
 0001:000754b0       ??0?$c_string_character_source@_W@__crt_strtox@@QAE@QB_WQAPB_W@Z 100764b0 f i libucrtd:atox.obj
 0001:000754f0       ??1?$c_string_character_source@D@__crt_strtox@@QAE@XZ 100764f0 f i libucrtd:atox.obj
 0001:00075520       ??1?$c_string_character_source@_W@__crt_strtox@@QAE@XZ 10076520 f i libucrtd:atox.obj
 0001:00075550       ?get@?$c_string_character_source@D@__crt_strtox@@QAEDXZ 10076550 f i libucrtd:atox.obj
 0001:00075580       ?get@?$c_string_character_source@_W@__crt_strtox@@QAE_WXZ 10076580 f i libucrtd:atox.obj
 0001:000755b0       ?is_space@__crt_strtox@@YA_NDQAU__crt_locale_pointers@@@Z 100765b0 f i libucrtd:atox.obj
 0001:000755f0       ?is_space@__crt_strtox@@YA_N_WPAU__crt_locale_pointers@@@Z 100765f0 f i libucrtd:atox.obj
 0001:00075620       ?maximum_signed_value@__crt_strtox@@YAJK@Z 10076620 f i libucrtd:atox.obj
 0001:00075630       ?maximum_signed_value@__crt_strtox@@YA_J_K@Z 10076630 f i libucrtd:atox.obj
 0001:00075640       ?minimum_signed_value@__crt_strtox@@YAJK@Z 10076640 f i libucrtd:atox.obj
 0001:00075650       ?minimum_signed_value@__crt_strtox@@YA_J_K@Z 10076650 f i libucrtd:atox.obj
 0001:00075660       ?parse_digit@__crt_strtox@@YAID@Z 10076660 f i libucrtd:atox.obj
 0001:000756c0       ?parse_digit@__crt_strtox@@YAI_W@Z 100766c0 f i libucrtd:atox.obj
 0001:00075710       ?restore_state@?$c_string_character_source@D@__crt_strtox@@QAE_NQBD@Z 10076710 f i libucrtd:atox.obj
 0001:00075730       ?restore_state@?$c_string_character_source@_W@__crt_strtox@@QAE_NQB_W@Z 10076730 f i libucrtd:atox.obj
 0001:00075750       ?save_state@?$c_string_character_source@D@__crt_strtox@@QBEPBDXZ 10076750 f i libucrtd:atox.obj
 0001:00075770       ?save_state@?$c_string_character_source@_W@__crt_strtox@@QBEPB_WXZ 10076770 f i libucrtd:atox.obj
 0001:00075790       ?unget@?$c_string_character_source@D@__crt_strtox@@QAEXD@Z 10076790 f i libucrtd:atox.obj
 0001:00075840       ?unget@?$c_string_character_source@_W@__crt_strtox@@QAEX_W@Z 10076840 f i libucrtd:atox.obj
 0001:000758f0       ?validate@?$c_string_character_source@D@__crt_strtox@@QBE_NXZ 100768f0 f i libucrtd:atox.obj
 0001:00075980       ?validate@?$c_string_character_source@_W@__crt_strtox@@QBE_NXZ 10076980 f i libucrtd:atox.obj
 0001:00075a10       ?wide_character_to_digit@__crt_strtox@@YAH_W@Z 10076a10 f i libucrtd:atox.obj
 0001:00075d40       ___ascii_iswalpha          10076d40 f i libucrtd:atox.obj
 0001:00075d80       ___ascii_toupper           10076d80 f i libucrtd:atox.obj
 0001:00075da0       ___ascii_towupper          10076da0 f i libucrtd:atox.obj
 0001:00075dc0       __atoi64                   10076dc0 f   libucrtd:atox.obj
 0001:00075de0       __atoi64_l                 10076de0 f   libucrtd:atox.obj
 0001:00075e00       __atoi_l                   10076e00 f   libucrtd:atox.obj
 0001:00075e20       __atol_l                   10076e20 f   libucrtd:atox.obj
 0001:00075e40       __atoll_l                  10076e40 f   libucrtd:atox.obj
 0001:00075e60       __wtoi                     10076e60 f   libucrtd:atox.obj
 0001:00075e80       __wtoi64                   10076e80 f   libucrtd:atox.obj
 0001:00075ea0       __wtoi64_l                 10076ea0 f   libucrtd:atox.obj
 0001:00075ec0       __wtoi_l                   10076ec0 f   libucrtd:atox.obj
 0001:00075ee0       __wtol                     10076ee0 f   libucrtd:atox.obj
 0001:00075f00       __wtol_l                   10076f00 f   libucrtd:atox.obj
 0001:00075f20       __wtoll                    10076f20 f   libucrtd:atox.obj
 0001:00075f40       __wtoll_l                  10076f40 f   libucrtd:atox.obj
 0001:00075f60       _atoi                      10076f60 f   libucrtd:atox.obj
 0001:00075f80       _atol                      10076f80 f   libucrtd:atox.obj
 0001:00075fa0       _atoll                     10076fa0 f   libucrtd:atox.obj
 0001:00075fc0       _strncmp                   10076fc0 f   libucrtd:strncmp.obj
 0001:00076040       _wcsncmp                   10077040 f   libucrtd:wcsncmp.obj
 0001:000760a0       __CrtGetDebugFillThreshold 100770a0 f   libucrtd:debug_fill_threshold.obj
 0001:000760b0       __CrtSetDebugFillThreshold 100770b0 f   libucrtd:debug_fill_threshold.obj
 0001:000760d0       ??$make_c_string_character_source@DPAPAD@__crt_strtox@@YA?AV?$c_string_character_source@D@0@QBDQAPAD@Z 100770d0 f i libucrtd:strtox.obj
 0001:000760f0       ??$make_c_string_character_source@_WPAPA_W@__crt_strtox@@YA?AV?$c_string_character_source@_W@0@QB_WQAPA_W@Z 100770f0 f i libucrtd:strtox.obj
 0001:00076110       ??$parse_integer_from_string@JDPAPAD@__crt_strtox@@YAJQBDQAPADHQAU__crt_locale_pointers@@@Z 10077110 f i libucrtd:strtox.obj
 0001:00076150       ??$parse_integer_from_string@J_WPAPA_W@__crt_strtox@@YAJQB_WQAPA_WHQAU__crt_locale_pointers@@@Z 10077150 f i libucrtd:strtox.obj
 0001:00076190       ??$parse_integer_from_string@KDPAPAD@__crt_strtox@@YAKQBDQAPADHQAU__crt_locale_pointers@@@Z 10077190 f i libucrtd:strtox.obj
 0001:000761d0       ??$parse_integer_from_string@K_WPAPA_W@__crt_strtox@@YAKQB_WQAPA_WHQAU__crt_locale_pointers@@@Z 100771d0 f i libucrtd:strtox.obj
 0001:00076210       ??$parse_integer_from_string@_JDPAPAD@__crt_strtox@@YA_JQBDQAPADHQAU__crt_locale_pointers@@@Z 10077210 f i libucrtd:strtox.obj
 0001:00076250       ??$parse_integer_from_string@_J_WPAPA_W@__crt_strtox@@YA_JQB_WQAPA_WHQAU__crt_locale_pointers@@@Z 10077250 f i libucrtd:strtox.obj
 0001:00076290       ??$parse_integer_from_string@_KDPAPAD@__crt_strtox@@YA_KQBDQAPADHQAU__crt_locale_pointers@@@Z 10077290 f i libucrtd:strtox.obj
 0001:000762d0       ??$parse_integer_from_string@_K_WPAPA_W@__crt_strtox@@YA_KQB_WQAPA_WHQAU__crt_locale_pointers@@@Z 100772d0 f i libucrtd:strtox.obj
 0001:00076310       __strtoi64                 10077310 f   libucrtd:strtox.obj
 0001:00076330       __strtoi64_l               10077330 f   libucrtd:strtox.obj
 0001:00076350       __strtoimax_l              10077350 f   libucrtd:strtox.obj
 0001:00076370       __strtol_l                 10077370 f   libucrtd:strtox.obj
 0001:00076390       __strtoll_l                10077390 f   libucrtd:strtox.obj
 0001:000763b0       __strtoui64                100773b0 f   libucrtd:strtox.obj
 0001:000763d0       __strtoui64_l              100773d0 f   libucrtd:strtox.obj
 0001:000763f0       __strtoul_l                100773f0 f   libucrtd:strtox.obj
 0001:00076410       __strtoull_l               10077410 f   libucrtd:strtox.obj
 0001:00076430       __strtoumax_l              10077430 f   libucrtd:strtox.obj
 0001:00076450       __wcstoi64                 10077450 f   libucrtd:strtox.obj
 0001:00076470       __wcstoi64_l               10077470 f   libucrtd:strtox.obj
 0001:00076490       __wcstoimax_l              10077490 f   libucrtd:strtox.obj
 0001:000764b0       __wcstol_l                 100774b0 f   libucrtd:strtox.obj
 0001:000764d0       __wcstoll_l                100774d0 f   libucrtd:strtox.obj
 0001:000764f0       __wcstoui64                100774f0 f   libucrtd:strtox.obj
 0001:00076510       __wcstoui64_l              10077510 f   libucrtd:strtox.obj
 0001:00076530       __wcstoul_l                10077530 f   libucrtd:strtox.obj
 0001:00076550       __wcstoull_l               10077550 f   libucrtd:strtox.obj
 0001:00076570       __wcstoumax_l              10077570 f   libucrtd:strtox.obj
 0001:00076590       _strtoimax                 10077590 f   libucrtd:strtox.obj
 0001:000765b0       _strtol                    100775b0 f   libucrtd:strtox.obj
 0001:000765d0       _strtoll                   100775d0 f   libucrtd:strtox.obj
 0001:000765f0       _strtoul                   100775f0 f   libucrtd:strtox.obj
 0001:00076610       _strtoull                  10077610 f   libucrtd:strtox.obj
 0001:00076630       _strtoumax                 10077630 f   libucrtd:strtox.obj
 0001:00076650       _wcstoimax                 10077650 f   libucrtd:strtox.obj
 0001:00076670       _wcstol                    10077670 f   libucrtd:strtox.obj
 0001:00076690       _wcstoll                   10077690 f   libucrtd:strtox.obj
 0001:000766b0       _wcstoul                   100776b0 f   libucrtd:strtox.obj
 0001:000766d0       _wcstoull                  100776d0 f   libucrtd:strtox.obj
 0001:000766f0       _wcstoumax                 100776f0 f   libucrtd:strtox.obj
 0001:00076710       __mbtowc_l                 10077710 f   libucrtd:mbtowc.obj
 0001:00076a30       _mbtowc                    10077a30 f   libucrtd:mbtowc.obj
 0001:00076a50       __wctomb_l                 10077a50 f   libucrtd:wctomb.obj
 0001:00076ad0       __wctomb_s_l               10077ad0 f   libucrtd:wctomb.obj
 0001:00076e90       _wctomb                    10077e90 f   libucrtd:wctomb.obj
 0001:00076ee0       _wctomb_s                  10077ee0 f   libucrtd:wctomb.obj
 0001:00076f10       ??$?RU__acrt_ptd@@@__crt_internal_free_policy@@QBEXQBU__acrt_ptd@@@Z 10077f10 f i libucrtd:per_thread_data.obj
 0001:000773c0       ??0?$__crt_unique_heap_ptr@U__acrt_ptd@@U__crt_internal_free_policy@@@@QAE@QAU__acrt_ptd@@@Z 100783c0 f i libucrtd:per_thread_data.obj
 0001:000773e0       ??0__crt_scoped_get_last_error_reset@@QAE@XZ 100783e0 f i libucrtd:per_thread_data.obj
 0001:00077400       ??1?$__crt_unique_heap_ptr@U__acrt_ptd@@U__crt_internal_free_policy@@@@QAE@XZ 10078400 f i libucrtd:per_thread_data.obj
 0001:00077420       ??1__crt_scoped_get_last_error_reset@@QAE@XZ 10078420 f i libucrtd:per_thread_data.obj
 0001:00077440       ??B?$__crt_unique_heap_ptr@U__acrt_ptd@@U__crt_internal_free_policy@@@@QBE_NXZ 10078440 f i libucrtd:per_thread_data.obj
 0001:00077720       ?dangerous_get_state_array@?$dual_state_global@PAU__crt_locale_data@@@__crt_state_management@@QAEPAPAU__crt_locale_data@@XZ 10078720 f i libucrtd:per_thread_data.obj
 0001:000778a0       ?detach@?$__crt_unique_heap_ptr@U__acrt_ptd@@U__crt_internal_free_policy@@@@QAEPAU__acrt_ptd@@XZ 100788a0 f i libucrtd:per_thread_data.obj
 0001:000778d0       ?get@?$__crt_unique_heap_ptr@U__acrt_ptd@@U__crt_internal_free_policy@@@@QBEPAU__acrt_ptd@@XZ 100788d0 f i libucrtd:per_thread_data.obj
 0001:000778f0       ?get_current_state_index@__crt_state_management@@YAIABV__crt_scoped_get_last_error_reset@@@Z 100788f0 f i libucrtd:per_thread_data.obj
 0001:00077a60       ?is_valid@?$__crt_unique_heap_ptr@U__acrt_ptd@@U__crt_internal_free_policy@@@@QBE_NXZ 10078a60 f i libucrtd:per_thread_data.obj
 0001:00077a90       ?release@?$__crt_unique_heap_ptr@U__acrt_ptd@@U__crt_internal_free_policy@@@@QAEXXZ 10078a90 f i libucrtd:per_thread_data.obj
 0001:00077b80       ?value@?$dual_state_global@PAU__crt_locale_data@@@__crt_state_management@@QAEAAPAU__crt_locale_data@@XZ 10078b80 f i libucrtd:per_thread_data.obj
 0001:00077ba0       ___acrt_freeptd            10078ba0 f   libucrtd:per_thread_data.obj
 0001:00077bd0       ___acrt_getptd             10078bd0 f   libucrtd:per_thread_data.obj
 0001:00077bf0       ___acrt_getptd_head        10078bf0 f   libucrtd:per_thread_data.obj
 0001:00077c10       ___acrt_getptd_noexit      10078c10 f   libucrtd:per_thread_data.obj
 0001:00077c20       ___acrt_initialize_ptd     10078c20 f   libucrtd:per_thread_data.obj
 0001:00077c60       ___acrt_uninitialize_ptd   10078c60 f   libucrtd:per_thread_data.obj
 0001:00077c90       ___threadhandle            10078c90 f   libucrtd:per_thread_data.obj
 0001:00077ca0       ___threadid                10078ca0 f   libucrtd:per_thread_data.obj
 0001:00077cb0       ?value@?$dual_state_global@PAU__crt_multibyte_data@@@__crt_state_management@@QAEAAPAU__crt_multibyte_data@@XZ 10078cb0 f i libucrtd:locale_update.obj
 0001:00077cd0       ___acrt_should_sync_with_global_locale 10078cd0 f i libucrtd:locale_update.obj
 0001:00077d00       ___acrt_update_locale_info 10078d00 f   libucrtd:locale_update.obj
 0001:00077d40       ___acrt_update_multibyte_info 10078d40 f   libucrtd:locale_update.obj
 0001:00077d80       ?__acrt_fp_classify@@YA?AW4__acrt_fp_class@@ABN@Z 10078d80 f i libucrtd:cvt.obj
 0001:00077ea0       ?__acrt_fp_is_negative@@YA_NABN@Z 10078ea0 f i libucrtd:cvt.obj
 0001:00079190       ?strrchr@@YAPADQADH@Z      1007a190 f i libucrtd:cvt.obj
 0001:000791b0       ___acrt_fp_format          1007a1b0 f   libucrtd:cvt.obj
 0001:00079670       __fputwc_nolock            1007a670 f   libucrtd:fputwc.obj
 0001:00079860       __fputwchar                1007a860 f   libucrtd:fputwc.obj
 0001:00079880       __putwc_nolock             1007a880 f   libucrtd:fputwc.obj
 0001:000798a0       _fputwc                    1007a8a0 f   libucrtd:fputwc.obj
 0001:000799b0       _putwc                     1007a9b0 f   libucrtd:fputwc.obj
 0001:000799d0       _putwchar                  1007a9d0 f   libucrtd:fputwc.obj
 0001:000799f0       ?lowio_handle@__crt_stdio_stream@@QBEHXZ 1007a9f0 f i libucrtd:fileno.obj
 0001:00079a10       __fileno                   1007aa10 f   libucrtd:fileno.obj
 0001:00079ab0       ??$?RPAU__crt_stdio_stream_data@@@__crt_internal_free_policy@@QBEXQBQAU__crt_stdio_stream_data@@@Z 1007aab0 f i libucrtd:_file.obj
 0001:00079ad0       ??0?$__crt_unique_heap_ptr@PAU__crt_stdio_stream_data@@U__crt_internal_free_policy@@@@QAE@QAPAU__crt_stdio_stream_data@@@Z 1007aad0 f i libucrtd:_file.obj
 0001:00079af0       ??1?$__crt_unique_heap_ptr@PAU__crt_stdio_stream_data@@U__crt_internal_free_policy@@@@QAE@XZ 1007aaf0 f i libucrtd:_file.obj
 0001:00079b10       ?detach@?$__crt_unique_heap_ptr@PAU__crt_stdio_stream_data@@U__crt_internal_free_policy@@@@QAEPAPAU__crt_stdio_stream_data@@XZ 1007ab10 f i libucrtd:_file.obj
 0001:00079b40       ?release@?$__crt_unique_heap_ptr@PAU__crt_stdio_stream_data@@U__crt_internal_free_policy@@@@QAEXXZ 1007ab40 f i libucrtd:_file.obj
 0001:00079b70       ___acrt_initialize_stdio   1007ab70 f   libucrtd:_file.obj
 0001:00079ce0       ___acrt_iob_func           1007ace0 f   libucrtd:_file.obj
 0001:00079cf0       ___acrt_uninitialize_stdio 1007acf0 f   libucrtd:_file.obj
 0001:00079d70       __get_stream_buffer_pointers 1007ad70 f   libucrtd:_file.obj
 0001:00079e50       __lock_file                1007ae50 f   libucrtd:_file.obj
 0001:00079e80       __unlock_file              1007ae80 f   libucrtd:_file.obj
 0001:00079eb0       __get_printf_count_output  1007aeb0 f   libucrtd:printf_count_output.obj
 0001:00079ee0       __set_printf_count_output  1007aee0 f   libucrtd:printf_count_output.obj
 0001:00079f40       ?has_any_buffer@__crt_stdio_stream@@QBE_NXZ 1007af40 f i libucrtd:_sftbuf.obj
 0001:00079f60       ?has_any_of@__crt_stdio_stream@@QBE_NJ@Z 1007af60 f i libucrtd:_sftbuf.obj
 0001:00079fa0       ?has_temporary_buffer@__crt_stdio_stream@@QBE_NXZ 1007afa0 f i libucrtd:_sftbuf.obj
 0001:00079fc0       ?set_flags@__crt_stdio_stream@@QBE_NJ@Z 1007afc0 f i libucrtd:_sftbuf.obj
 0001:0007a010       ?unset_flags@__crt_stdio_stream@@QBE_NJ@Z 1007b010 f i libucrtd:_sftbuf.obj
 0001:0007a060       ___acrt_should_use_temporary_buffer 1007b060 f   libucrtd:_sftbuf.obj
 0001:0007a0b0       ___acrt_stdio_begin_temporary_buffering_nolock 1007b0b0 f   libucrtd:_sftbuf.obj
 0001:0007a260       ___acrt_stdio_end_temporary_buffering_nolock 1007b260 f   libucrtd:_sftbuf.obj
 0001:0007a2f0       ??$?RU__crt_locale_data@@@__crt_internal_free_policy@@QBEXQBU__crt_locale_data@@@Z 1007b2f0 f i libucrtd:wsetlocale.obj
 0001:0007a310       ??$?RU__crt_locale_pointers@@@__crt_internal_free_policy@@QBEXQBU__crt_locale_pointers@@@Z 1007b310 f i libucrtd:wsetlocale.obj
 0001:0007a330       ??$?RU__crt_multibyte_data@@@__crt_internal_free_policy@@QBEXQBU__crt_multibyte_data@@@Z 1007b330 f i libucrtd:wsetlocale.obj
 0001:0007a920       ??0?$__crt_unique_heap_ptr@U__crt_locale_data@@U__crt_internal_free_policy@@@@QAE@QAU__crt_locale_data@@@Z 1007b920 f i libucrtd:wsetlocale.obj
 0001:0007a940       ??0?$__crt_unique_heap_ptr@U__crt_locale_pointers@@U__crt_internal_free_policy@@@@QAE@QAU__crt_locale_pointers@@@Z 1007b940 f i libucrtd:wsetlocale.obj
 0001:0007a960       ??0?$__crt_unique_heap_ptr@U__crt_multibyte_data@@U__crt_internal_free_policy@@@@QAE@QAU__crt_multibyte_data@@@Z 1007b960 f i libucrtd:wsetlocale.obj
 0001:0007a980       ??0_expandlocale_locale_name_cache@@QAE@QA_WIQAU__crt_qualified_locale_data@@@Z 1007b980 f i libucrtd:wsetlocale.obj
 0001:0007a9f0       ??1?$__crt_unique_heap_ptr@U__crt_locale_data@@U__crt_internal_free_policy@@@@QAE@XZ 1007b9f0 f i libucrtd:wsetlocale.obj
 0001:0007aa10       ??1?$__crt_unique_heap_ptr@U__crt_locale_pointers@@U__crt_internal_free_policy@@@@QAE@XZ 1007ba10 f i libucrtd:wsetlocale.obj
 0001:0007aa30       ??1?$__crt_unique_heap_ptr@U__crt_multibyte_data@@U__crt_internal_free_policy@@@@QAE@XZ 1007ba30 f i libucrtd:wsetlocale.obj
 0001:0007aa50       ??1_expandlocale_locale_name_cache@@QAE@XZ 1007ba50 f i libucrtd:wsetlocale.obj
 0001:0007aab0       ??B?$__crt_unique_heap_ptr@U__crt_locale_data@@U__crt_internal_free_policy@@@@QBE_NXZ 1007bab0 f i libucrtd:wsetlocale.obj
 0001:0007aad0       ??B?$__crt_unique_heap_ptr@U__crt_locale_pointers@@U__crt_internal_free_policy@@@@QBE_NXZ 1007bad0 f i libucrtd:wsetlocale.obj
 0001:0007aaf0       ??B?$__crt_unique_heap_ptr@U__crt_multibyte_data@@U__crt_internal_free_policy@@@@QBE_NXZ 1007baf0 f i libucrtd:wsetlocale.obj
 0001:0007aed0       ?commit_locale_name@_expandlocale_locale_name_cache@@QAEXQB_WI@Z 1007bed0 f i libucrtd:wsetlocale.obj
 0001:0007af30       ?commit_locale_name_cache_already_updated@_expandlocale_locale_name_cache@@QAEXQB_WI@Z 1007bf30 f i libucrtd:wsetlocale.obj
 0001:0007af90       ?detach@?$__crt_unique_heap_ptr@U__crt_locale_data@@U__crt_internal_free_policy@@@@QAEPAU__crt_locale_data@@XZ 1007bf90 f i libucrtd:wsetlocale.obj
 0001:0007afc0       ?detach@?$__crt_unique_heap_ptr@U__crt_locale_pointers@@U__crt_internal_free_policy@@@@QAEPAU__crt_locale_pointers@@XZ 1007bfc0 f i libucrtd:wsetlocale.obj
 0001:0007aff0       ?detach@?$__crt_unique_heap_ptr@U__crt_multibyte_data@@U__crt_internal_free_policy@@@@QAEPAU__crt_multibyte_data@@XZ 1007bff0 f i libucrtd:wsetlocale.obj
 0001:0007b020       ?get@?$__crt_unique_heap_ptr@U__crt_locale_data@@U__crt_internal_free_policy@@@@QBEPAU__crt_locale_data@@XZ 1007c020 f i libucrtd:wsetlocale.obj
 0001:0007b040       ?get@?$__crt_unique_heap_ptr@U__crt_locale_pointers@@U__crt_internal_free_policy@@@@QBEPAU__crt_locale_pointers@@XZ 1007c040 f i libucrtd:wsetlocale.obj
 0001:0007b060       ?get@?$__crt_unique_heap_ptr@U__crt_multibyte_data@@U__crt_internal_free_policy@@@@QBEPAU__crt_multibyte_data@@XZ 1007c060 f i libucrtd:wsetlocale.obj
 0001:0007b080       ?is_valid@?$__crt_unique_heap_ptr@U__crt_locale_data@@U__crt_internal_free_policy@@@@QBE_NXZ 1007c080 f i libucrtd:wsetlocale.obj
 0001:0007b0b0       ?is_valid@?$__crt_unique_heap_ptr@U__crt_locale_pointers@@U__crt_internal_free_policy@@@@QBE_NXZ 1007c0b0 f i libucrtd:wsetlocale.obj
 0001:0007b0e0       ?is_valid@?$__crt_unique_heap_ptr@U__crt_multibyte_data@@U__crt_internal_free_policy@@@@QBE_NXZ 1007c0e0 f i libucrtd:wsetlocale.obj
 0001:0007b110       ?release@?$__crt_unique_heap_ptr@U__crt_locale_data@@U__crt_internal_free_policy@@@@QAEXXZ 1007c110 f i libucrtd:wsetlocale.obj
 0001:0007b140       ?release@?$__crt_unique_heap_ptr@U__crt_locale_pointers@@U__crt_internal_free_policy@@@@QAEXXZ 1007c140 f i libucrtd:wsetlocale.obj
 0001:0007b170       ?release@?$__crt_unique_heap_ptr@U__crt_multibyte_data@@U__crt_internal_free_policy@@@@QAEXXZ 1007c170 f i libucrtd:wsetlocale.obj
 0001:0007b1a0       ___acrt_copy_locale_name   1007c1a0 f   libucrtd:wsetlocale.obj
 0001:0007b240       ___acrt_set_locale_changed 1007c240 f   libucrtd:wsetlocale.obj
 0001:0007b260       ___acrt_uninitialize_locale 1007c260 f   libucrtd:wsetlocale.obj
 0001:0007b280       ___ascii_tolower           1007c280 f i libucrtd:wsetlocale.obj
 0001:0007b2a0       ___ascii_towlower          1007c2a0 f i libucrtd:wsetlocale.obj
 0001:0007b2c0       ___lc_lctowcs              1007c2c0 f   libucrtd:wsetlocale.obj
 0001:0007b370       ___lc_wcstolc              1007c370 f   libucrtd:wsetlocale.obj
 0001:0007b5a0       __configthreadlocale       1007c5a0 f   libucrtd:wsetlocale.obj
 0001:0007b720       __create_locale            1007c720 f   libucrtd:wsetlocale.obj
 0001:0007bd60       __free_locale              1007cd60 f   libucrtd:wsetlocale.obj
 0001:0007be90       __get_current_locale       1007ce90 f   libucrtd:wsetlocale.obj
 0001:0007bf60       __wcreate_locale           1007cf60 f   libucrtd:wsetlocale.obj
 0001:0007c1a0       __wcscats                  1007d1a0 f   libucrtd:wsetlocale.obj
 0001:0007c220       __wsetlocale               1007d220 f   libucrtd:wsetlocale.obj
 0001:0007d910       ___p___mb_cur_max          1007e910 f   libucrtd:nlsdata.obj
 0001:0007dc10       ___acrt_initialize_lowio   1007ec10 f   libucrtd:ioinit.obj
 0001:0007dcb0       ___acrt_uninitialize_lowio 1007ecb0 f   libucrtd:ioinit.obj
 0001:0007dd10       __CrtGetReportHook         1007ed10 f   libucrtd:dbgrptt.obj
 0001:0007dd20       __CrtSetReportFile         1007ed20 f   libucrtd:dbgrptt.obj
 0001:0007de20       __CrtSetReportHook         1007ee20 f   libucrtd:dbgrptt.obj
 0001:0007de40       __CrtSetReportMode         1007ee40 f   libucrtd:dbgrptt.obj
 0001:0007df80       __VCrtDbgReportA           1007ef80 f   libucrtd:dbgrptt.obj
 0001:0007e800       __VCrtDbgReportW           1007f800 f   libucrtd:dbgrptt.obj
 0001:0007f1b0       __snprintf_s               100801b0 f i libucrtd:dbgrptt.obj
 0001:0007f1f0       __vsnprintf_s              100801f0 f i libucrtd:dbgrptt.obj
 0001:0007f220       __vsnprintf_s_l            10080220 f i libucrtd:dbgrptt.obj
 0001:0007f3b0       ??$__acrt_wcs_to_mbs_cp@U__crt_win32_buffer_no_resizing@@@@YAHQB_WAAV?$__crt_win32_buffer@DU__crt_win32_buffer_no_resizing@@@@I@Z 100803b0 f i libucrtd:getmodulefilenamea.obj
 0001:0007f3e0       ??0?$__crt_win32_buffer@DU__crt_win32_buffer_no_resizing@@@@QAE@QADI@Z 100803e0 f i libucrtd:getmodulefilenamea.obj
 0001:0007f430       ??1?$__crt_win32_buffer@DU__crt_win32_buffer_no_resizing@@@@QAE@XZ 10080430 f i libucrtd:getmodulefilenamea.obj
 0001:0007f4a0       ?__acrt_get_utf8_acp_compatibility_codepage@@YAIXZ 100804a0 f i libucrtd:getmodulefilenamea.obj
 0001:0007f530       ?_deallocate@?$__crt_win32_buffer@DU__crt_win32_buffer_no_resizing@@@@AAEXXZ 10080530 f i libucrtd:getmodulefilenamea.obj
 0001:0007f570       ?allocate@?$__crt_win32_buffer@DU__crt_win32_buffer_no_resizing@@@@QAEHI@Z 10080570 f i libucrtd:getmodulefilenamea.obj
 0001:0007f5e0       ?allocate@__crt_win32_buffer_no_resizing@@SAHQAPAXIABV__crt_win32_buffer_empty_debug_info@@@Z 100805e0 f i libucrtd:getmodulefilenamea.obj
 0001:0007f600       ?capacity@?$__crt_win32_buffer@DU__crt_win32_buffer_no_resizing@@@@QBEIXZ 10080600 f i libucrtd:getmodulefilenamea.obj
 0001:0007f620       ?data@?$__crt_win32_buffer@DU__crt_win32_buffer_no_resizing@@@@QAEPADXZ 10080620 f i libucrtd:getmodulefilenamea.obj
 0001:0007f640       ?deallocate@__crt_win32_buffer_no_resizing@@SAXQAXABV__crt_win32_buffer_empty_debug_info@@@Z 10080640 f i libucrtd:getmodulefilenamea.obj
 0001:0007f650       ?debug_info@?$__crt_win32_buffer@DU__crt_win32_buffer_no_resizing@@@@QBEABV__crt_win32_buffer_empty_debug_info@@XZ 10080650 f i libucrtd:getmodulefilenamea.obj
 0001:0007f660       ?set_to_nullptr@?$__crt_win32_buffer@DU__crt_win32_buffer_no_resizing@@@@QAEXXZ 10080660 f i libucrtd:getmodulefilenamea.obj
 0001:0007f6a0       ?size@?$__crt_win32_buffer@DU__crt_win32_buffer_no_resizing@@@@QAEXI@Z 100806a0 f i libucrtd:getmodulefilenamea.obj
 0001:0007f6c0       ?size@?$__crt_win32_buffer@DU__crt_win32_buffer_no_resizing@@@@QBEIXZ 100806c0 f i libucrtd:getmodulefilenamea.obj
 0001:0007f6e0       ___acrt_GetModuleFileNameA 100806e0 f   libucrtd:getmodulefilenamea.obj
 0001:0007f9c0       ??$message_box@$$TABQBDABQBDK@?$__crt_char_traits@D@@SAH$$QA$$TABQBD1$$QAK@Z 100809c0 f i libucrtd:crtmbox.obj
 0001:0007f9f0       ??$message_box@$$TABQB_WABQB_WK@?$__crt_char_traits@_W@@SAH$$QA$$TABQB_W1$$QAK@Z 100809f0 f i libucrtd:crtmbox.obj
 0001:0007fa20       ??$message_box@PAUHWND__@@ABQBDABQBDABI@?$__crt_char_traits@D@@SAH$$QAPAUHWND__@@ABQBD1ABI@Z 10080a20 f i libucrtd:crtmbox.obj
 0001:0007fa50       ??$message_box@PAUHWND__@@ABQB_WABQB_WABI@?$__crt_char_traits@_W@@SAH$$QAPAUHWND__@@ABQB_W1ABI@Z 10080a50 f i libucrtd:crtmbox.obj
 0001:0007fa80       ??$output_debug_string@ABQBD@?$__crt_char_traits@D@@SAXABQBD@Z 10080a80 f i libucrtd:crtmbox.obj
 0001:0007faa0       ??$output_debug_string@ABQB_W@?$__crt_char_traits@_W@@SAXABQB_W@Z 10080aa0 f i libucrtd:crtmbox.obj
 0001:0007fac0       ___acrt_show_narrow_message_box 10080ac0 f   libucrtd:crtmbox.obj
 0001:0007fae0       ___acrt_show_wide_message_box 10080ae0 f   libucrtd:crtmbox.obj
 0001:0007fb00       ___acrt_initialize_locks   10080b00 f   libucrtd:locks.obj
 0001:0007fb60       ___acrt_lock               10080b60 f   libucrtd:locks.obj
 0001:0007fb80       ___acrt_uninitialize_locks 10080b80 f   libucrtd:locks.obj
 0001:0007fbd0       ___acrt_unlock             10080bd0 f   libucrtd:locks.obj
 0001:0007fbf0       __lock_locales             10080bf0 f   libucrtd:locks.obj
 0001:0007fc10       __unlock_locales           10080c10 f   libucrtd:locks.obj
 0001:0007fc30       ??$?B$$A6AXH@Z@__crt_fast_encoded_nullptr_t@@QBEP6AXH@ZXZ 10080c30 f i libucrtd:signal.obj
 0001:0007fd20       ??$__crt_fast_decode_pointer@P6AXH@Z@@YAP6AXH@ZQ6AXH@Z@Z 10080d20 f i libucrtd:signal.obj
 0001:0007fd50       ??$__crt_fast_encode_pointer@P6AXH@Z@@YAP6AXH@ZQ6AXH@Z@Z 10080d50 f i libucrtd:signal.obj
 0001:00080000       ?initialize@?$dual_state_global@P6AXH@Z@__crt_state_management@@QAEXQ6AXH@Z@Z 10081000 f i libucrtd:signal.obj
 0001:00080140       ?value@?$dual_state_global@P6AXH@Z@__crt_state_management@@QAEAAP6AXH@ZXZ 10081140 f i libucrtd:signal.obj
 0001:00080160       ___acrt_get_sigabrt_handler 10081160 f   libucrtd:signal.obj
 0001:00080180       ___acrt_initialize_signal_handlers 10081180 f   libucrtd:signal.obj
 0001:000801c0       ___fpecode                 100811c0 f   libucrtd:signal.obj
 0001:000801d0       ___pxcptinfoptrs           100811d0 f   libucrtd:signal.obj
 0001:000801e0       _raise                     100811e0 f   libucrtd:signal.obj
 0001:000805b0       _signal                    100815b0 f   libucrtd:signal.obj
 0001:00080830       __msize                    10081830 f   libucrtd:msize.obj
 0001:00080850       __msize_base               10081850 f   libucrtd:msize.obj
 0001:000808f0       __realloc_base             100818f0 f   libucrtd:realloc_base.obj
 0001:000809b0       ??$?B$$A6GHPA_WKJ@Z@__crt_fast_encoded_nullptr_t@@QBEP6GHPA_WKJ@ZXZ 100819b0 f i libucrtd:winapi_thunks.obj
 0001:00080aa0       ??$__crt_fast_decode_pointer@P6GHPA_WKJ@Z@@YAP6GHPA_WKJ@ZQ6GH0KJ@Z@Z 10081aa0 f i libucrtd:winapi_thunks.obj
 0001:00080ad0       ??$__crt_fast_decode_pointer@PAX@@YAPAXQAX@Z 10081ad0 f i libucrtd:winapi_thunks.obj
 0001:00080b00       ??$__crt_fast_encode_pointer@P6GHPA_WKJ@Z@@YAP6GHPA_WKJ@ZQ6GH0KJ@Z@Z 10081b00 f i libucrtd:winapi_thunks.obj
 0001:00081460       _GetCurrentThreadEffectiveToken 10082460 f i libucrtd:winapi_thunks.obj
 0001:00081470       ___acrt_AppPolicyGetProcessTerminationMethodInternal@4 10082470 f   libucrtd:winapi_thunks.obj
 0001:000814b0       ___acrt_AppPolicyGetShowDeveloperDiagnosticInternal@4 100824b0 f   libucrtd:winapi_thunks.obj
 0001:000814f0       ___acrt_AppPolicyGetThreadInitializationTypeInternal@4 100824f0 f   libucrtd:winapi_thunks.obj
 0001:00081530       ___acrt_AppPolicyGetWindowingModelInternal@4 10082530 f   libucrtd:winapi_thunks.obj
 0001:00081570       ___acrt_AreFileApisANSI@0  10082570 f   libucrtd:winapi_thunks.obj
 0001:000815b0       ___acrt_CompareStringEx@36 100825b0 f   libucrtd:winapi_thunks.obj
 0001:00081630       ___acrt_EnumSystemLocalesEx@16 10082630 f   libucrtd:winapi_thunks.obj
 0001:00081690       ___acrt_FlsAlloc@4         10082690 f   libucrtd:winapi_thunks.obj
 0001:000816d0       ___acrt_FlsFree@4          100826d0 f   libucrtd:winapi_thunks.obj
 0001:00081710       ___acrt_FlsGetValue@4      10082710 f   libucrtd:winapi_thunks.obj
 0001:00081750       ___acrt_FlsSetValue@8      10082750 f   libucrtd:winapi_thunks.obj
 0001:000817a0       ___acrt_GetDateFormatEx@28 100827a0 f   libucrtd:winapi_thunks.obj
 0001:00081820       ___acrt_GetEnabledXStateFeatures@0 10082820 f   libucrtd:winapi_thunks.obj
 0001:00081860       ___acrt_GetLocaleInfoEx@16 10082860 f   libucrtd:winapi_thunks.obj
 0001:000818c0       ___acrt_GetSystemTimePreciseAsFileTime@4 100828c0 f   libucrtd:winapi_thunks.obj
 0001:00081900       ___acrt_GetTimeFormatEx@24 10082900 f   libucrtd:winapi_thunks.obj
 0001:00081970       ___acrt_GetUserDefaultLocaleName@8 10082970 f   libucrtd:winapi_thunks.obj
 0001:000819c0       ___acrt_GetXStateFeaturesMask@8 100829c0 f   libucrtd:winapi_thunks.obj
 0001:00081a00       ___acrt_InitializeCriticalSectionEx@12 10082a00 f   libucrtd:winapi_thunks.obj
 0001:00081a50       ___acrt_IsValidLocaleName@4 10082a50 f   libucrtd:winapi_thunks.obj
 0001:00081aa0       ___acrt_LCIDToLocaleName@16 10082aa0 f   libucrtd:winapi_thunks.obj
 0001:00081b00       ___acrt_LCMapStringEx@36   10082b00 f   libucrtd:winapi_thunks.obj
 0001:00081b80       ___acrt_LocaleNameToLCID@8 10082b80 f   libucrtd:winapi_thunks.obj
 0001:00081bd0       ___acrt_LocateXStateFeature@12 10082bd0 f   libucrtd:winapi_thunks.obj
 0001:00081c20       ___acrt_MessageBoxA@16     10082c20 f   libucrtd:winapi_thunks.obj
 0001:00081c70       ___acrt_MessageBoxW@16     10082c70 f   libucrtd:winapi_thunks.obj
 0001:00081cc0       ___acrt_RoInitialize@4     10082cc0 f   libucrtd:winapi_thunks.obj
 0001:00081d00       ___acrt_RoUninitialize@0   10082d00 f   libucrtd:winapi_thunks.obj
 0001:00081d30       ___acrt_RtlGenRandom@8     10082d30 f   libucrtd:winapi_thunks.obj
 0001:00081d70       ___acrt_SetThreadStackGuarantee@4 10082d70 f   libucrtd:winapi_thunks.obj
 0001:00081db0       ___acrt_can_show_message_box 10082db0 f   libucrtd:winapi_thunks.obj
 0001:00081df0       ___acrt_can_use_vista_locale_apis 10082df0 f   libucrtd:winapi_thunks.obj
 0001:00081e20       ___acrt_can_use_xstate_apis 10082e20 f   libucrtd:winapi_thunks.obj
 0001:00081e50       ___acrt_eagerly_load_locale_apis 10082e50 f   libucrtd:winapi_thunks.obj
 0001:00081e90       ___acrt_get_parent_window  10082e90 f   libucrtd:winapi_thunks.obj
 0001:00081f00       ___acrt_initialize_winapi_thunks 10082f00 f   libucrtd:winapi_thunks.obj
 0001:00081f70       ___acrt_is_interactive     10082f70 f   libucrtd:winapi_thunks.obj
 0001:00082020       ___acrt_uninitialize_winapi_thunks 10083020 f   libucrtd:winapi_thunks.obj
 0001:00082090       __chvalidator              10083090 f   libucrtd:isctype.obj
 0001:000820e0       __chvalidator_l            100830e0 f   libucrtd:isctype.obj
 0001:00082160       __isctype                  10083160 f   libucrtd:isctype.obj
 0001:000821a0       __isctype_l                100831a0 f   libucrtd:isctype.obj
 0001:00082320       __isleadbyte_fast_internal 10083320 f i libucrtd:isctype.obj
 0001:00082340       ??$?RU__crt_stdio_stream_data@@@__crt_internal_free_policy@@QBEXQBU__crt_stdio_stream_data@@@Z 10083340 f i libucrtd:stream.obj
 0001:00082360       ??0?$__crt_unique_heap_ptr@U__crt_stdio_stream_data@@U__crt_internal_free_policy@@@@QAE@QAU__crt_stdio_stream_data@@@Z 10083360 f i libucrtd:stream.obj
 0001:00082380       ??0__crt_stdio_stream@@QAE@QAU__crt_stdio_stream_data@@@Z 10083380 f i libucrtd:stream.obj
 0001:000823a0       ??0__crt_stdio_stream@@QAE@XZ 100833a0 f i libucrtd:stream.obj
 0001:000823c0       ??1?$__crt_unique_heap_ptr@U__crt_stdio_stream_data@@U__crt_internal_free_policy@@@@QAE@XZ 100833c0 f i libucrtd:stream.obj
 0001:000823e0       ?__acrt_stdio_allocate_stream@@YA?AV__crt_stdio_stream@@XZ 100833e0 f   libucrtd:stream.obj
 0001:000824d0       ?__acrt_stdio_free_stream@@YAXV__crt_stdio_stream@@@Z 100834d0 f   libucrtd:stream.obj
 0001:00082550       ?deallocate@__crt_stdio_stream@@QAEXXZ 10083550 f i libucrtd:stream.obj
 0001:00082570       ?detach@?$__crt_unique_heap_ptr@U__crt_stdio_stream_data@@U__crt_internal_free_policy@@@@QAEPAU__crt_stdio_stream_data@@XZ 10083570 f i libucrtd:stream.obj
 0001:000826e0       ?lock@__crt_stdio_stream@@QBEXXZ 100836e0 f i libucrtd:stream.obj
 0001:00082700       ?release@?$__crt_unique_heap_ptr@U__crt_stdio_stream_data@@U__crt_internal_free_policy@@@@QAEXXZ 10083700 f i libucrtd:stream.obj
 0001:00082730       ?try_allocate@__crt_stdio_stream@@QAE_NXZ 10083730 f i libucrtd:stream.obj
 0001:00082780       ??$__acrt_stdio_parse_mode@D@@YA?AU__acrt_stdio_stream_mode@@QBD@Z 10083780 f i libucrtd:openfile.obj
 0001:00082ff0       ??$__acrt_stdio_parse_mode@_W@@YA?AU__acrt_stdio_stream_mode@@QB_W@Z 10083ff0 f i libucrtd:openfile.obj
 0001:00083b80       ??$tcsncmp@AAPBDAAY02$$CBDI@?$__crt_char_traits@D@@SAHAAPBDAAY02$$CBD$$QAI@Z 10084b80 f i libucrtd:openfile.obj
 0001:00083ba0       ??$tcsncmp@AAPB_WAAY02$$CB_WI@?$__crt_char_traits@_W@@SAHAAPB_WAAY02$$CB_W$$QAI@Z 10084ba0 f i libucrtd:openfile.obj
 0001:00083bc0       ??$tcsnicmp@AAPBDAAY04$$CBDI@?$__crt_char_traits@D@@SAHAAPBDAAY04$$CBD$$QAI@Z 10084bc0 f i libucrtd:openfile.obj
 0001:00083be0       ??$tcsnicmp@AAPBDAAY06$$CBDI@?$__crt_char_traits@D@@SAHAAPBDAAY06$$CBD$$QAI@Z 10084be0 f i libucrtd:openfile.obj
 0001:00083c00       ??$tcsnicmp@AAPBDAAY07$$CBDI@?$__crt_char_traits@D@@SAHAAPBDAAY07$$CBD$$QAI@Z 10084c00 f i libucrtd:openfile.obj
 0001:00083c20       ??$tcsnicmp@AAPB_WAAY04$$CB_WI@?$__crt_char_traits@_W@@SAHAAPB_WAAY04$$CB_W$$QAI@Z 10084c20 f i libucrtd:openfile.obj
 0001:00083c40       ??$tcsnicmp@AAPB_WAAY06$$CB_WI@?$__crt_char_traits@_W@@SAHAAPB_WAAY06$$CB_W$$QAI@Z 10084c40 f i libucrtd:openfile.obj
 0001:00083c60       ??$tcsnicmp@AAPB_WAAY07$$CB_WI@?$__crt_char_traits@_W@@SAHAAPB_WAAY07$$CB_W$$QAI@Z 10084c60 f i libucrtd:openfile.obj
 0001:00083c80       ??$tsopen_s@PAHABQBDABHABHH@?$__crt_char_traits@D@@SAH$$QAPAHABQBDABH2$$QAH@Z 10084c80 f i libucrtd:openfile.obj
 0001:00083cb0       ??$tsopen_s@PAHABQB_WABHABHH@?$__crt_char_traits@_W@@SAH$$QAPAHABQB_WABH2$$QAH@Z 10084cb0 f i libucrtd:openfile.obj
 0001:00083ce0       ?__acrt_stdio_parse_mode_D@@YA_NAAU__acrt_stdio_stream_mode@@@Z 10084ce0 f i libucrtd:openfile.obj
 0001:00083d10       ?__acrt_stdio_parse_mode_N@@YA_NAAU__acrt_stdio_stream_mode@@@Z 10084d10 f i libucrtd:openfile.obj
 0001:00083d30       ?__acrt_stdio_parse_mode_R@@YA_NAAU__acrt_stdio_stream_mode@@AA_N@Z 10084d30 f i libucrtd:openfile.obj
 0001:00083d60       ?__acrt_stdio_parse_mode_S@@YA_NAAU__acrt_stdio_stream_mode@@AA_N@Z 10084d60 f i libucrtd:openfile.obj
 0001:00083d90       ?__acrt_stdio_parse_mode_T@@YA_NAAU__acrt_stdio_stream_mode@@@Z 10084d90 f i libucrtd:openfile.obj
 0001:00083dc0       ?__acrt_stdio_parse_mode_b@@YA_NAAU__acrt_stdio_stream_mode@@@Z 10084dc0 f i libucrtd:openfile.obj
 0001:00083df0       ?__acrt_stdio_parse_mode_c@@YA_NAAU__acrt_stdio_stream_mode@@AA_N@Z 10084df0 f i libucrtd:openfile.obj
 0001:00083e20       ?__acrt_stdio_parse_mode_n@@YA_NAAU__acrt_stdio_stream_mode@@AA_N@Z 10084e20 f i libucrtd:openfile.obj
 0001:00083e50       ?__acrt_stdio_parse_mode_plus@@YA_NAAU__acrt_stdio_stream_mode@@AA_N@Z 10084e50 f i libucrtd:openfile.obj
 0001:00083ec0       ?__acrt_stdio_parse_mode_t@@YA_NAAU__acrt_stdio_stream_mode@@@Z 10084ec0 f i libucrtd:openfile.obj
 0001:00083ef0       ?__acrt_stdio_parse_mode_x@@YA_NAAU__acrt_stdio_stream_mode@@@Z 10084ef0 f i libucrtd:openfile.obj
 0001:00083f20       __openfile                 10084f20 f   libucrtd:openfile.obj
 0001:00083f50       __wopenfile                10084f50 f   libucrtd:openfile.obj
 0001:00084230       __close                    10085230 f   libucrtd:close.obj
 0001:000843b0       __close_nolock             100853b0 f   libucrtd:close.obj
 0001:00084410       ?has_crt_buffer@__crt_stdio_stream@@QBE_NXZ 10085410 f i libucrtd:_freebuf.obj
 0001:00084430       ___acrt_stdio_free_buffer_nolock 10085430 f   libucrtd:_freebuf.obj
 0001:00084a90       ?__acrt_stdio_reset_buffer@@YAXV__crt_stdio_stream@@@Z 10085a90 f i libucrtd:fflush.obj
 0001:00084b90       ?has_all_of@__crt_stdio_stream@@QBE_NJ@Z 10085b90 f i libucrtd:fflush.obj
 0001:00084c60       ___acrt_stdio_flush_nolock 10085c60 f   libucrtd:fflush.obj
 0001:00084d30       __fflush_nolock            10085d30 f   libucrtd:fflush.obj
 0001:00084db0       __flushall                 10085db0 f   libucrtd:fflush.obj
 0001:00084dd0       _fflush                    10085dd0 f   libucrtd:fflush.obj
 0001:00085520       ?has_big_buffer@__crt_stdio_stream@@QBE_NXZ 10086520 f i libucrtd:_flsbuf.obj
 0001:00085620       ___acrt_stdio_flush_and_write_narrow_nolock 10086620 f   libucrtd:_flsbuf.obj
 0001:00085650       ___acrt_stdio_flush_and_write_wide_nolock 10086650 f   libucrtd:_flsbuf.obj
 0001:00085980       ___acrt_get_begin_thread_init_policy 10086980 f   libucrtd:win_policies.obj
 0001:000859a0       ___acrt_get_developer_information_policy 100869a0 f   libucrtd:win_policies.obj
 0001:000859c0       ___acrt_get_process_end_policy 100869c0 f   libucrtd:win_policies.obj
 0001:000859e0       ___acrt_get_windowing_model_policy 100869e0 f   libucrtd:win_policies.obj
 0001:00085cb0       ??$__acrt_mbs_to_wcs_cp@U__crt_win32_buffer_internal_dynamic_resizing@@@@YAHQBDAAV?$__crt_win32_buffer@_WU__crt_win32_buffer_internal_dynamic_resizing@@@@I@Z 10086cb0 f i libucrtd:argv_wildcards.obj
 0001:00085ce0       ??$__acrt_wcs_to_mbs_cp@U__crt_win32_buffer_internal_dynamic_resizing@@@@YAHQB_WAAV?$__crt_win32_buffer@DU__crt_win32_buffer_internal_dynamic_resizing@@@@I@Z 10086ce0 f i libucrtd:argv_wildcards.obj
 0001:00086c30       ??$tcsncpy_s@AAPADIAAPADABI@?$__crt_char_traits@D@@SAHAAPAD$$QAI0ABI@Z 10087c30 f i libucrtd:argv_wildcards.obj
 0001:00086c60       ??$tcsncpy_s@AAPA_WIAAPA_WABI@?$__crt_char_traits@_W@@SAHAAPA_W$$QAI0ABI@Z 10087c60 f i libucrtd:argv_wildcards.obj
 0001:00086c90       ??$tcsncpy_s@PADABIABQBDABI@?$__crt_char_traits@D@@SAH$$QAPADABIABQBD1@Z 10087c90 f i libucrtd:argv_wildcards.obj
 0001:00086cc0       ??$tcsncpy_s@PADIABQBDABI@?$__crt_char_traits@D@@SAH$$QAPAD$$QAIABQBDABI@Z 10087cc0 f i libucrtd:argv_wildcards.obj
 0001:00086cf0       ??$tcsncpy_s@PA_WABIABQB_WABI@?$__crt_char_traits@_W@@SAH$$QAPA_WABIABQB_W1@Z 10087cf0 f i libucrtd:argv_wildcards.obj
 0001:00086d20       ??$tcsncpy_s@PA_WIABQB_WABI@?$__crt_char_traits@_W@@SAH$$QAPA_W$$QAIABQB_WABI@Z 10087d20 f i libucrtd:argv_wildcards.obj
 0001:00086d50       ??$tcspbrk@AAPADAAY02$$CBD@?$__crt_char_traits@D@@SAPADAAPADAAY02$$CBD@Z 10087d50 f i libucrtd:argv_wildcards.obj
 0001:00086d70       ??$tcspbrk@AAPA_WAAY02$$CB_W@?$__crt_char_traits@_W@@SAPA_WAAPA_WAAY02$$CB_W@Z 10087d70 f i libucrtd:argv_wildcards.obj
 0001:00086d90       ??0?$__crt_unique_handle_t@U__crt_findfile_traits@@@@QAE@QAX@Z 10087d90 f i libucrtd:argv_wildcards.obj
 0001:00086db0       ??0?$__crt_win32_buffer@DU__crt_win32_buffer_internal_dynamic_resizing@@@@QAE@XZ 10087db0 f i libucrtd:argv_wildcards.obj
 0001:00086e00       ??0?$__crt_win32_buffer@_WU__crt_win32_buffer_internal_dynamic_resizing@@@@QAE@XZ 10087e00 f i libucrtd:argv_wildcards.obj
 0001:00086eb0       ??1?$__crt_unique_handle_t@U__crt_findfile_traits@@@@QAE@XZ 10087eb0 f i libucrtd:argv_wildcards.obj
 0001:00086ed0       ??1?$__crt_win32_buffer@DU__crt_win32_buffer_internal_dynamic_resizing@@@@QAE@XZ 10087ed0 f i libucrtd:argv_wildcards.obj
 0001:00086f10       ??1?$__crt_win32_buffer@_WU__crt_win32_buffer_internal_dynamic_resizing@@@@QAE@XZ 10087f10 f i libucrtd:argv_wildcards.obj
 0001:00087170       ?_deallocate@?$__crt_win32_buffer@DU__crt_win32_buffer_internal_dynamic_resizing@@@@AAEXXZ 10088170 f i libucrtd:argv_wildcards.obj
 0001:000871b0       ?_deallocate@?$__crt_win32_buffer@_WU__crt_win32_buffer_internal_dynamic_resizing@@@@AAEXXZ 100881b0 f i libucrtd:argv_wildcards.obj
 0001:000871f0       ?allocate@?$__crt_win32_buffer@DU__crt_win32_buffer_internal_dynamic_resizing@@@@QAEHI@Z 100881f0 f i libucrtd:argv_wildcards.obj
 0001:00087260       ?allocate@?$__crt_win32_buffer@_WU__crt_win32_buffer_internal_dynamic_resizing@@@@QAEHI@Z 10088260 f i libucrtd:argv_wildcards.obj
 0001:000872d0       ?allocate@__crt_win32_buffer_internal_dynamic_resizing@@SAHQAPAXIABV__crt_win32_buffer_empty_debug_info@@@Z 100882d0 f i libucrtd:argv_wildcards.obj
 0001:00087410       ?capacity@?$__crt_win32_buffer@DU__crt_win32_buffer_internal_dynamic_resizing@@@@QBEIXZ 10088410 f i libucrtd:argv_wildcards.obj
 0001:00087430       ?capacity@?$__crt_win32_buffer@_WU__crt_win32_buffer_internal_dynamic_resizing@@@@QBEIXZ 10088430 f i libucrtd:argv_wildcards.obj
 0001:00087450       ?close@?$__crt_unique_handle_t@U__crt_findfile_traits@@@@QAEXXZ 10088450 f i libucrtd:argv_wildcards.obj
 0001:00087490       ?close@__crt_findfile_traits@@SA_NPAX@Z 10088490 f i libucrtd:argv_wildcards.obj
 0001:000874c0       ?data@?$__crt_win32_buffer@DU__crt_win32_buffer_internal_dynamic_resizing@@@@QAEPADXZ 100884c0 f i libucrtd:argv_wildcards.obj
 0001:000874e0       ?data@?$__crt_win32_buffer@_WU__crt_win32_buffer_internal_dynamic_resizing@@@@QAEPA_WXZ 100884e0 f i libucrtd:argv_wildcards.obj
 0001:00087500       ?deallocate@__crt_win32_buffer_internal_dynamic_resizing@@SAXQAXABV__crt_win32_buffer_empty_debug_info@@@Z 10088500 f i libucrtd:argv_wildcards.obj
 0001:00087520       ?debug_info@?$__crt_win32_buffer@DU__crt_win32_buffer_internal_dynamic_resizing@@@@QBEABV__crt_win32_buffer_empty_debug_info@@XZ 10088520 f i libucrtd:argv_wildcards.obj
 0001:00087530       ?debug_info@?$__crt_win32_buffer@_WU__crt_win32_buffer_internal_dynamic_resizing@@@@QBEABV__crt_win32_buffer_empty_debug_info@@XZ 10088530 f i libucrtd:argv_wildcards.obj
 0001:00087840       ?get@?$__crt_unique_handle_t@U__crt_findfile_traits@@@@QBEPAXXZ 10088840 f i libucrtd:argv_wildcards.obj
 0001:000878b0       ?get_invalid_value@__crt_findfile_traits@@SAPAXXZ 100888b0 f i libucrtd:argv_wildcards.obj
 0001:00087940       ?set_to_nullptr@?$__crt_win32_buffer@DU__crt_win32_buffer_internal_dynamic_resizing@@@@QAEXXZ 10088940 f i libucrtd:argv_wildcards.obj
 0001:00087980       ?set_to_nullptr@?$__crt_win32_buffer@_WU__crt_win32_buffer_internal_dynamic_resizing@@@@QAEXXZ 10088980 f i libucrtd:argv_wildcards.obj
 0001:000879c0       ?size@?$__crt_win32_buffer@DU__crt_win32_buffer_internal_dynamic_resizing@@@@QAEXI@Z 100889c0 f i libucrtd:argv_wildcards.obj
 0001:000879e0       ?size@?$__crt_win32_buffer@_WU__crt_win32_buffer_internal_dynamic_resizing@@@@QAEXI@Z 100889e0 f i libucrtd:argv_wildcards.obj
 0001:00087a40       ?strpbrk@@YAPADQADQBD@Z    10088a40 f i libucrtd:argv_wildcards.obj
 0001:00087a60       ?wcspbrk@@YAPA_WPA_WPB_W@Z 10088a60 f i libucrtd:argv_wildcards.obj
 0001:00087a80       ___acrt_expand_narrow_argv_wildcards 10088a80 f   libucrtd:argv_wildcards.obj
 0001:00087aa0       ___acrt_expand_wide_argv_wildcards 10088aa0 f   libucrtd:argv_wildcards.obj
 0001:00087b80       ??$initialize_from_array@$$BY10BAA@E@?$dual_state_global@PAE@__crt_state_management@@QAAXAAY10BAA@E@Z 10088b80 f i libucrtd:mbctype.obj
 0001:00087bd0       ??$initialize_from_array@$$BY10BAB@E@?$dual_state_global@PAE@__crt_state_management@@QAAXAAY10BAB@E@Z 10088bd0 f i libucrtd:mbctype.obj
 0001:00087e40       ?dangerous_get_state_array@?$dual_state_global@PAE@__crt_state_management@@QAEPAPAEXZ 10088e40 f i libucrtd:mbctype.obj
 0001:00087e50       ?dangerous_get_state_array@?$dual_state_global@PAU__crt_multibyte_data@@@__crt_state_management@@QAEPAPAU__crt_multibyte_data@@XZ 10088e50 f i libucrtd:mbctype.obj
 0001:00087f20       ?initialize@?$dual_state_global@PAU__crt_multibyte_data@@@__crt_state_management@@QAEXQAU__crt_multibyte_data@@@Z 10088f20 f i libucrtd:mbctype.obj
 0001:00088670       ?value@?$dual_state_global@PAE@__crt_state_management@@QAEAAPAEXZ 10089670 f i libucrtd:mbctype.obj
 0001:00088690       ___acrt_initialize_multibyte 10089690 f   libucrtd:mbctype.obj
 0001:00088740       ___acrt_update_thread_multibyte_data 10089740 f   libucrtd:mbctype.obj
 0001:00088760       ___p__mbcasemap            10089760 f   libucrtd:mbctype.obj
 0001:00088780       ___p__mbctype              10089780 f   libucrtd:mbctype.obj
 0001:000887a0       __getmbcp                  100897a0 f   libucrtd:mbctype.obj
 0001:00088810       __setmbcp                  10089810 f   libucrtd:mbctype.obj
 0001:00088840       __setmbcp_nolock           10089840 f   libucrtd:mbctype.obj
 0001:00088db1       __ismbbalnum               10089db1 f   libucrtd:ismbbyte.obj
 0001:00088dcc       __ismbbalnum_l             10089dcc f   libucrtd:ismbbyte.obj
 0001:00088de8       __ismbbalpha               10089de8 f   libucrtd:ismbbyte.obj
 0001:00088e03       __ismbbalpha_l             10089e03 f   libucrtd:ismbbyte.obj
 0001:00088e1f       __ismbbblank               10089e1f f   libucrtd:ismbbyte.obj
 0001:00088e42       __ismbbblank_l             10089e42 f   libucrtd:ismbbyte.obj
 0001:00088e66       __ismbbgraph               10089e66 f   libucrtd:ismbbyte.obj
 0001:00088e81       __ismbbgraph_l             10089e81 f   libucrtd:ismbbyte.obj
 0001:00088e9d       __ismbbkalnum              10089e9d f   libucrtd:ismbbyte.obj
 0001:00088eb5       __ismbbkalnum_l            10089eb5 f   libucrtd:ismbbyte.obj
 0001:00088ece       __ismbbkana                10089ece f   libucrtd:ismbbyte.obj
 0001:00088ee1       __ismbbkana_l              10089ee1 f   libucrtd:ismbbyte.obj
 0001:00088f30       __ismbbkprint              10089f30 f   libucrtd:ismbbyte.obj
 0001:00088f48       __ismbbkprint_l            10089f48 f   libucrtd:ismbbyte.obj
 0001:00088f61       __ismbbkpunct              10089f61 f   libucrtd:ismbbyte.obj
 0001:00088f79       __ismbbkpunct_l            10089f79 f   libucrtd:ismbbyte.obj
 0001:00088f92       __ismbblead                10089f92 f   libucrtd:ismbbyte.obj
 0001:00088faa       __ismbblead_l              10089faa f   libucrtd:ismbbyte.obj
 0001:00088fc3       __ismbbprint               10089fc3 f   libucrtd:ismbbyte.obj
 0001:00088fde       __ismbbprint_l             10089fde f   libucrtd:ismbbyte.obj
 0001:00088ffa       __ismbbpunct               10089ffa f   libucrtd:ismbbyte.obj
 0001:00089012       __ismbbpunct_l             1008a012 f   libucrtd:ismbbyte.obj
 0001:0008902b       __ismbbtrail               1008a02b f   libucrtd:ismbbyte.obj
 0001:00089043       __ismbbtrail_l             1008a043 f   libucrtd:ismbbyte.obj
 0001:00089060       ___acrt_initialize_command_line 1008a060 f   libucrtd:argv_data.obj
 0001:00089080       ___acrt_uninitialize_command_line 1008a080 f   libucrtd:argv_data.obj
 0001:00089090       ___p___argc                1008a090 f   libucrtd:argv_data.obj
 0001:000890a0       ___p___argv                1008a0a0 f   libucrtd:argv_data.obj
 0001:000890b0       ___p___wargv               1008a0b0 f   libucrtd:argv_data.obj
 0001:000890c0       ___p__acmdln               1008a0c0 f   libucrtd:argv_data.obj
 0001:000890d0       ___p__pgmptr               1008a0d0 f   libucrtd:argv_data.obj
 0001:000890e0       ___p__wcmdln               1008a0e0 f   libucrtd:argv_data.obj
 0001:000890f0       ___p__wpgmptr              1008a0f0 f   libucrtd:argv_data.obj
 0001:00089100       __get_pgmptr               1008a100 f   libucrtd:argv_data.obj
 0001:00089210       __get_wpgmptr              1008a210 f   libucrtd:argv_data.obj
 0001:000893d0       ___acrt_MultiByteToWideChar 1008a3d0 f   libucrtd:multibytetowidechar.obj
 0001:000894d0       ___acrt_WideCharToMultiByte 1008a4d0 f   libucrtd:widechartomultibyte.obj
 0001:00089629       ___dcrt_get_narrow_environment_from_os 1008a629 f   libucrtd:get_environment_from_os.obj
 0001:000896bb       ___dcrt_get_wide_environment_from_os 1008a6bb f   libucrtd:get_environment_from_os.obj
 0001:0008a050       ??$get_or_create_environment_nolock@$$V@?$__crt_char_traits@D@@SAPAPADXZ 1008b050 f i libucrtd:setenv.obj
 0001:0008a055       ??$get_or_create_environment_nolock@$$V@?$__crt_char_traits@_W@@SAPAPA_WXZ 1008b055 f i libucrtd:setenv.obj
 0001:0008a05a       ??$set_environment_variable@ABQADQAD@?$__crt_char_traits@D@@SAHABQAD$$QBQAD@Z 1008b05a f i libucrtd:setenv.obj
 0001:0008a072       ??$set_environment_variable@ABQA_WQA_W@?$__crt_char_traits@_W@@SAHABQA_W$$QBQA_W@Z 1008b072 f i libucrtd:setenv.obj
 0001:0008a089       ??$tcschr@ABQADD@?$__crt_char_traits@D@@SAPADABQAD$$QAD@Z 1008b089 f i libucrtd:setenv.obj
 0001:0008a0a3       ??$tcschr@ABQA_WD@?$__crt_char_traits@_W@@SAPA_WABQA_W$$QAD@Z 1008b0a3 f i libucrtd:setenv.obj
 0001:0008a0c1       ??$tcscpy_s@AAPADABIAAPAD@?$__crt_char_traits@D@@SAHAAPADABI0@Z 1008b0c1 f i libucrtd:setenv.obj
 0001:0008a0df       ??$tcscpy_s@AAPA_WABIAAPA_W@?$__crt_char_traits@_W@@SAHAAPA_WABI0@Z 1008b0df f i libucrtd:setenv.obj
 0001:0008a0fd       ??$tcscpy_s@ABQADABIABQAD@?$__crt_char_traits@D@@SAHABQADABI0@Z 1008b0fd f i libucrtd:setenv.obj
 0001:0008a11b       ??$tcscpy_s@ABQA_WABIABQA_W@?$__crt_char_traits@_W@@SAHABQA_WABI0@Z 1008b11b f i libucrtd:setenv.obj
 0001:0008a139       ??$tcslen@ABQAD@?$__crt_char_traits@D@@SAIABQAD@Z 1008b139 f i libucrtd:setenv.obj
 0001:0008a151       ??$tcslen@ABQA_W@?$__crt_char_traits@_W@@SAIABQA_W@Z 1008b151 f i libucrtd:setenv.obj
 0001:0008a16f       ??$tcsnicoll@ABQBDAAPADABI@?$__crt_char_traits@D@@SAHABQBDAAPADABI@Z 1008b16f f i libucrtd:setenv.obj
 0001:0008a18d       ??$tcsnicoll@ABQB_WAAPA_WABI@?$__crt_char_traits@_W@@SAHABQB_WAAPA_WABI@Z 1008b18d f i libucrtd:setenv.obj
 0001:0008a1ab       ??$tcsnlen@PADH@?$__crt_char_traits@D@@SAI$$QAPAD$$QAH@Z 1008b1ab f i libucrtd:setenv.obj
 0001:0008a1c3       ??$tcsnlen@PA_WH@?$__crt_char_traits@_W@@SAI$$QAPA_W$$QAH@Z 1008b1c3 f i libucrtd:setenv.obj
 0001:0008a1ff       ?strchr@@YAPADQADH@Z       1008b1ff f i libucrtd:setenv.obj
 0001:0008a20a       ?wcschr@@YAPA_WPA_W_W@Z    1008b20a f i libucrtd:setenv.obj
 0001:0008a215       ___dcrt_set_variable_in_narrow_environment_nolock 1008b215 f   libucrtd:setenv.obj
 0001:0008a220       ___dcrt_set_variable_in_wide_environment_nolock 1008b220 f   libucrtd:setenv.obj
 0001:0008a230       ___acrt_getheap            1008b230 f   libucrtd:heap_handle.obj
 0001:0008a270       ___acrt_initialize_heap    1008b270 f   libucrtd:heap_handle.obj
 0001:0008a2a0       ___acrt_uninitialize_heap  1008b2a0 f   libucrtd:heap_handle.obj
 0001:0008a2c0       __get_heap_handle          1008b2c0 f   libucrtd:heap_handle.obj
 0001:0008a300       ___acrt_execute_initializers 1008b300 f   libucrtd:shared_initialization.obj
 0001:0008a3b0       ___acrt_execute_uninitializers 1008b3b0 f   libucrtd:shared_initialization.obj
 0001:0008a410       ??$__crt_fast_decode_pointer@P6AHPAU_exception@@@Z@@YAP6AHPAU_exception@@@ZQ6AH0@Z@Z 1008b410 f i libucrtd:matherr.obj
 0001:0008a440       ??$__crt_fast_encode_pointer@P6AHPAU_exception@@@Z@@YAP6AHPAU_exception@@@ZQ6AH0@Z@Z 1008b440 f i libucrtd:matherr.obj
 0001:0008a470       ?initialize@?$dual_state_global@P6AHPAU_exception@@@Z@__crt_state_management@@QAEXQ6AHPAU_exception@@@Z@Z 1008b470 f i libucrtd:matherr.obj
 0001:0008a4b0       ?value@?$dual_state_global@P6AHPAU_exception@@@Z@__crt_state_management@@QAEAAP6AHPAU_exception@@@ZXZ 1008b4b0 f i libucrtd:matherr.obj
 0001:0008a4d0       ___acrt_has_user_matherr   1008b4d0 f   libucrtd:matherr.obj
 0001:0008a510       ___acrt_initialize_user_matherr 1008b510 f   libucrtd:matherr.obj
 0001:0008a530       ___acrt_invoke_user_matherr 1008b530 f   libucrtd:matherr.obj
 0001:0008a580       ___setusermatherr          1008b580 f   libucrtd:matherr.obj
 0001:0008a5c0       __free_base                1008b5c0 f   libucrtd:free_base.obj
 0001:0008a670       __expand                   1008b670 f   libucrtd:expand.obj
 0001:0008a690       __expand_base              1008b690 f   libucrtd:expand.obj
 0001:0008a7c0       ?value@?$dual_state_global@J@__crt_state_management@@QAEAAJXZ 1008b7c0 f i libucrtd:new_mode.obj
 0001:0008a7e0       __query_new_mode           1008b7e0 f   libucrtd:new_mode.obj
 0001:0008a800       __set_new_mode             1008b800 f   libucrtd:new_mode.obj
 0001:0008a8a0       __CrtDefaultAllocHook      1008b8a0 f   libucrtd:debug_heap_hook.obj
 0001:0008a8ac       __mbsdec                   1008b8ac f   libucrtd:mbsdec.obj
 0001:0008a8c3       __mbsdec_l                 1008b8c3 f   libucrtd:mbsdec.obj
 0001:0008adb0       _strncpy_s                 1008bdb0 f   libucrtd:strncpy_s.obj
 0001:0008af80       ___acrt_report_runtime_error 1008bf80 f   libucrtd:report_runtime_error.obj
 0001:0008b170       __query_app_type           1008c170 f   libucrtd:report_runtime_error.obj
 0001:0008b180       __set_app_type             1008c180 f   libucrtd:report_runtime_error.obj
 0001:0008b190       __iswctype_l               1008c190 f   libucrtd:iswctype.obj
 0001:0008b1b0       _iswctype                  1008c1b0 f   libucrtd:iswctype.obj
 0001:0008b220       ___iswcsym                 1008c220 f i libucrtd:_wctype.obj
 0001:0008b260       ___iswcsymf                1008c260 f i libucrtd:_wctype.obj
 0001:0008b2a0       __isleadbyte_l             1008c2a0 f i libucrtd:_wctype.obj
 0001:0008b2f0       __iswalnum_l               1008c2f0 f i libucrtd:_wctype.obj
 0001:0008b310       __iswalpha_l               1008c310 f i libucrtd:_wctype.obj
 0001:0008b330       __iswblank_l               1008c330 f i libucrtd:_wctype.obj
 0001:0008b370       __iswcntrl_l               1008c370 f i libucrtd:_wctype.obj
 0001:0008b390       __iswcsym_l                1008c390 f i libucrtd:_wctype.obj
 0001:0008b3d0       __iswcsymf_l               1008c3d0 f i libucrtd:_wctype.obj
 0001:0008b410       __iswdigit_l               1008c410 f i libucrtd:_wctype.obj
 0001:0008b430       __iswgraph_l               1008c430 f i libucrtd:_wctype.obj
 0001:0008b450       __iswlower_l               1008c450 f i libucrtd:_wctype.obj
 0001:0008b470       __iswprint_l               1008c470 f i libucrtd:_wctype.obj
 0001:0008b490       __iswpunct_l               1008c490 f i libucrtd:_wctype.obj
 0001:0008b4b0       __iswspace_l               1008c4b0 f i libucrtd:_wctype.obj
 0001:0008b4d0       __iswupper_l               1008c4d0 f i libucrtd:_wctype.obj
 0001:0008b4f0       __iswxdigit_l              1008c4f0 f i libucrtd:_wctype.obj
 0001:0008b510       _isleadbyte                1008c510 f i libucrtd:_wctype.obj
 0001:0008b530       _iswalnum                  1008c530 f i libucrtd:_wctype.obj
 0001:0008b550       _iswalpha                  1008c550 f i libucrtd:_wctype.obj
 0001:0008b570       _iswascii                  1008c570 f i libucrtd:_wctype.obj
 0001:0008b5a0       _iswblank                  1008c5a0 f i libucrtd:_wctype.obj
 0001:0008b5e0       _iswcntrl                  1008c5e0 f i libucrtd:_wctype.obj
 0001:0008b600       _iswdigit                  1008c600 f i libucrtd:_wctype.obj
 0001:0008b620       _iswgraph                  1008c620 f i libucrtd:_wctype.obj
 0001:0008b640       _iswlower                  1008c640 f i libucrtd:_wctype.obj
 0001:0008b660       _iswprint                  1008c660 f i libucrtd:_wctype.obj
 0001:0008b680       _iswpunct                  1008c680 f i libucrtd:_wctype.obj
 0001:0008b6a0       _iswspace                  1008c6a0 f i libucrtd:_wctype.obj
 0001:0008b6c0       _iswupper                  1008c6c0 f i libucrtd:_wctype.obj
 0001:0008b6e0       _iswxdigit                 1008c6e0 f i libucrtd:_wctype.obj
 0001:0008b770       ?__mbrtowc_utf8@__crt_mbstring@@YAIPA_WPBDIPAU_Mbstatet@@@Z 1008c770 f   libucrtd:mbrtowc.obj
 0001:0008b7c0       ?__mbsrtowcs_utf8@__crt_mbstring@@YAIPA_WPAPBDIPAU_Mbstatet@@@Z 1008c7c0 f   libucrtd:mbrtowc.obj
 0001:0008c030       _btowc                     1008d030 f   libucrtd:mbrtowc.obj
 0001:0008c0a0       _mbrlen                    1008d0a0 f   libucrtd:mbrtowc.obj
 0001:0008c0f0       _mbrtowc                   1008d0f0 f   libucrtd:mbrtowc.obj
 0001:0008c180       _mbsrtowcs                 1008d180 f   libucrtd:mbrtowc.obj
 0001:0008c1a0       _mbsrtowcs_s               1008d1a0 f   libucrtd:mbrtowc.obj
 0001:0008c4f0       ??$?RG@__crt_internal_free_policy@@QBEXQBG@Z 1008d4f0 f i libucrtd:initctype.obj
 0001:0008c510       ??$?RJ@__crt_internal_free_policy@@QBEXQBJ@Z 1008d510 f i libucrtd:initctype.obj
 0001:0008c530       ??0?$__crt_unique_heap_ptr@GU__crt_internal_free_policy@@@@QAE@QAG@Z 1008d530 f i libucrtd:initctype.obj
 0001:0008c550       ??0?$__crt_unique_heap_ptr@JU__crt_internal_free_policy@@@@QAE@QAJ@Z 1008d550 f i libucrtd:initctype.obj
 0001:0008c570       ??1?$__crt_unique_heap_ptr@GU__crt_internal_free_policy@@@@QAE@XZ 1008d570 f i libucrtd:initctype.obj
 0001:0008c590       ??1?$__crt_unique_heap_ptr@JU__crt_internal_free_policy@@@@QAE@XZ 1008d590 f i libucrtd:initctype.obj
 0001:0008c5b0       ?detach@?$__crt_unique_heap_ptr@GU__crt_internal_free_policy@@@@QAEPAGXZ 1008d5b0 f i libucrtd:initctype.obj
 0001:0008c5e0       ?detach@?$__crt_unique_heap_ptr@JU__crt_internal_free_policy@@@@QAEPAJXZ 1008d5e0 f i libucrtd:initctype.obj
 0001:0008c610       ?release@?$__crt_unique_heap_ptr@GU__crt_internal_free_policy@@@@QAEXXZ 1008d610 f i libucrtd:initctype.obj
 0001:0008c640       ?release@?$__crt_unique_heap_ptr@JU__crt_internal_free_policy@@@@QAEXXZ 1008d640 f i libucrtd:initctype.obj
 0001:0008c670       ____lc_codepage_func       1008d670 f   libucrtd:initctype.obj
 0001:0008c6b0       ____lc_collate_cp_func     1008d6b0 f   libucrtd:initctype.obj
 0001:0008c6f0       ____lc_locale_name_func    1008d6f0 f   libucrtd:initctype.obj
 0001:0008c730       ____mb_cur_max_func        1008d730 f   libucrtd:initctype.obj
 0001:0008c770       ____mb_cur_max_l_func      1008d770 f   libucrtd:initctype.obj
 0001:0008c7a0       ___acrt_locale_initialize_ctype 1008d7a0 f   libucrtd:initctype.obj
 0001:0008cf20       ?__c32rtomb_utf8@__crt_mbstring@@YAIPAD_UPAU_Mbstatet@@@Z 1008df20 f   libucrtd:c32rtomb.obj
