 OPOSMICR

 Timestamp is 61a75c6e (Wed Dec  1 20:28:46 2021)

 Preferred load address is 10000000

 Start         Length     Name                   Class
 0001:00000000 00000d90H .text$di                CODE
 0001:00000d90 000b6de0H .text$mn                CODE
 0001:000b7b70 00000cb0H .text$x                 CODE
 0001:000b8820 00000120H .text$yd                CODE
 0002:00000000 00000358H .idata$5                DATA
 0002:00000358 0000000cH .00cfg                  DATA
 0002:00000364 00000004H .CRT$XCA                DATA
 0002:00000368 00000004H .CRT$XCL                DATA
 0002:0000036c 0000006cH .CRT$XCU                DATA
 0002:000003d8 00000004H .CRT$XCZ                DATA
 0002:000003dc 00000004H .CRT$XIA                DATA
 0002:000003e0 00000014H .CRT$XIC                DATA
 0002:000003f4 00000004H .CRT$XIZ                DATA
 0002:000003f8 00000004H .CRT$XLA                DATA
 0002:000003fc 00000004H .CRT$XLZ                DATA
 0002:00000400 00000004H .CRT$XPA                DATA
 0002:00000404 00000008H .CRT$XPX                DATA
 0002:0000040c 00000004H .CRT$XPXA               DATA
 0002:00000410 00000004H .CRT$XPZ                DATA
 0002:00000414 00000004H .CRT$XTA                DATA
 0002:00000418 00000008H .CRT$XTZ                DATA
 0002:0000041c 00000000H .gfids$y                DATA
 0002:00000420 0002f520H .rdata                  DATA
 0002:0002f940 00000040H .rdata$CastGuardVftablesA DATA
 0002:0002f980 00000040H .rdata$CastGuardVftablesC DATA
 0002:0002f9c0 00000018H .rdata$T                DATA
 0002:0002f9d8 0000033cH .rdata$r                DATA
 0002:0002fd14 000001a0H .rdata$sxdata           DATA
 0002:0002feb4 00000168H .rdata$voltmd           DATA
 0002:0003001c 00000474H .rdata$zzzdbg           DATA
 0002:00030490 00000004H .rtc$IAA                DATA
 0002:00030494 00000018H .rtc$IMZ                DATA
 0002:000304ac 00000004H .rtc$IZZ                DATA
 0002:000304b0 00000004H .rtc$TAA                DATA
 0002:000304b4 00000018H .rtc$TMZ                DATA
 0002:000304cc 00000004H .rtc$TZZ                DATA
 0002:000304d0 00000004H .tls                    DATA
 0002:000304d4 00000004H .tls$                   DATA
 0002:000304d8 00000008H .tls$ZZZ                DATA
 0002:000304e0 00001a4cH .xdata$x                DATA
 0002:00031f2c 00000004H ATL$__a                 DATA
 0002:00031f30 00000010H ATL$__z                 DATA
 0002:00031f40 000000a8H .edata                  DATA
 0002:00031fe8 00000078H .idata$2                DATA
 0002:00032060 00000014H .idata$3                DATA
 0002:00032074 00000358H .idata$4                DATA
 0002:000323cc 00000d56H .idata$6                DATA
 0003:00000000 00000bb0H .data                   DATA
 0003:00000bb0 00000080H .data$r                 DATA
 0003:00000c30 000000b8H .data$rs                DATA
 0003:00000ce8 00003580H .bss                    DATA
 0004:00000000 00000220H .rsrc$01                DATA
 0004:00000220 00004048H .rsrc$02                DATA

  Address         Publics by Value              Rva+Base       Lib:Object

 0000:00000000       ___hybrid_code_map_count   00000000     <absolute>
 0000:00000000       ___arm64x_redirection_metadata 00000000     <absolute>
 0000:00000000       __except_list              00000000     <absolute>
 0000:00000000       ___arm64x_native_entrypoint 00000000     <absolute>
 0000:00000000       ___hybrid_auxiliary_iat_copy 00000000     <absolute>
 0000:00000000       ___guard_longjmp_table     00000000     <absolute>
 0000:00000000       ___x64_code_ranges_to_entry_points 00000000     <absolute>
 0000:00000000       ___x64_code_ranges_to_entry_points_count 00000000     <absolute>
 0000:00000000       ___AbsoluteZero            00000000     <absolute>
 0000:00000000       ___guard_longjmp_count     00000000     <absolute>
 0000:00000000       ___guard_fids_table        00000000     <absolute>
 0000:00000000       ___enclave_config          00000000     <absolute>
 0000:00000000       ___arm64x_extra_rfe_table_size 00000000     <absolute>
 0000:00000000       ___guard_eh_cont_count     00000000     <absolute>
 0000:00000000       ___arm64x_extra_rfe_table  00000000     <absolute>
 0000:00000000       ___guard_iat_table         00000000     <absolute>
 0000:00000000       ___hybrid_code_map         00000000     <absolute>
 0000:00000000       ___hybrid_auxiliary_iat    00000000     <absolute>
 0000:00000000       ___guard_eh_cont_table     00000000     <absolute>
 0000:00000000       ___guard_iat_count         00000000     <absolute>
 0000:00000000       ___dynamic_value_reloc_table 00000000     <absolute>
 0000:00000000       ___guard_check_icall_a64n_fptr 00000000     <absolute>
 0000:00000000       ___arm64x_redirection_metadata_count 00000000     <absolute>
 0000:00000000       ___guard_fids_count        00000000     <absolute>
 0000:0000002c       __tls_array                0000002c     <absolute>
 0000:00000068       ___safe_se_handler_count   00000068     <absolute>
 0000:00000100       ___guard_flags             00000100     <absolute>
 0000:00000000       ___ImageBase               10000000     <linker-defined>
 0001:00000d90       ?_assert@@YAXPB_W0I@Z      10001d90 f   Assert.obj
 0001:00000ec0       ___local_stdio_printf_options 10001ec0 f i Assert.obj
 0001:00000ed0       ___vswprintf_l             10001ed0 f i Assert.obj
 0001:00000f00       __swprintf                 10001f00 f i Assert.obj
 0001:00000f60       __vswprintf_c_l            10001f60 f i Assert.obj
 0001:00000fd0       __vswprintf_l              10001fd0 f i Assert.obj
 0001:00001000       ?cw_memcpy@@YGHPADPB_WH@Z  10002000 f   CWString.obj
 0001:00001060       ?cw_memcpy@@YGHPA_WPBDH@Z  10002060 f   CWString.obj
 0001:000010c0       ?cw_memcpy@@YGHPADPBDH@Z   100020c0 f   CWString.obj
 0001:00001110       ?cw_memcpy@@YGHPA_WPB_WH@Z 10002110 f   CWString.obj
 0001:00001150       ?cw_memset@@YAXPADDH@Z     10002150 f   CWString.obj
 0001:00001170       ?cw_memset@@YAXPA_W_WH@Z   10002170 f   CWString.obj
 0001:00001190       ?cw_strlen@@YAHPBD@Z       10002190 f   CWString.obj
 0001:000011d0       ?cw_strlen@@YAHPB_W@Z      100021d0 f   CWString.obj
 0001:00001210       ?cw_strcpy@@YAHPADPB_W@Z   10002210 f   CWString.obj
 0001:00001230       ?cw_strcpy@@YAHPA_WPBD@Z   10002230 f   CWString.obj
 0001:00001250       ?cw_strcpy@@YAHPADPBD@Z    10002250 f   CWString.obj
 0001:00001270       ?cw_strcpy@@YAHPA_WPB_W@Z  10002270 f   CWString.obj
 0001:00001290       ?cw_strcat@@YAHPADPB_W@Z   10002290 f   CWString.obj
 0001:000012c0       ?cw_strcat@@YAHPA_WPBD@Z   100022c0 f   CWString.obj
 0001:000012f0       ?cw_strcat@@YAHPADPBD@Z    100022f0 f   CWString.obj
 0001:00001320       ?cw_strcat@@YAHPA_WPB_W@Z  10002320 f   CWString.obj
 0001:00001350       ?cw_dup@@YGXPBDAAHAAPA_W1@Z 10002350 f   CWString.obj
 0001:00001410       ?cw_dup@@YGXPB_WAAHAAPAD1@Z 10002410 f   CWString.obj
 0001:000014c0       ?DupChar@_CW@@AAEXXZ       100024c0 f   CWString.obj
 0001:00001510       ?DupWide@_CW@@AAEXXZ       10002510 f   CWString.obj
 0001:00001560       ?GetCharsMbcs@_CW@@QAEHXZ  10002560 f   CWString.obj
 0001:000015c0       ?GetCharsWide@_CW@@QAEHXZ  100025c0 f   CWString.obj
 0001:00001620       ?SetVARIANT_BOOL@OposVariant@@QAEXF@Z 10002620 f   OposVariant.obj
 0001:00001680       ?SetVARIANT_BOOL_Ptr@OposVariant@@QAEXPAFAAJ@Z 10002680 f   OposVariant.obj
 0001:000016d0       ?GetLONG@OposVariant@@QAEJXZ 100026d0 f   OposVariant.obj
 0001:00001760       ?ChangeLONG@OposVariant@@QAEXPAJAAJ@Z 10002760 f   OposVariant.obj
 0001:00001820       ?SetLONG@OposVariant@@QAEXJ@Z 10002820 f   OposVariant.obj
 0001:00001860       ?SetLONG_Ptr@OposVariant@@QAEXPAJAAJ@Z 10002860 f   OposVariant.obj
 0001:000018b0       ?ChangeCURRENCY@OposVariant@@QAEXPATtagCY@@AAJ@Z 100028b0 f   OposVariant.obj
 0001:00001970       ?SetCURRENCY@OposVariant@@QAEXTtagCY@@@Z 10002970 f   OposVariant.obj
 0001:000019b0       ?SetCURRENCY_Ptr@OposVariant@@QAEXPATtagCY@@AAJ@Z 100029b0 f   OposVariant.obj
 0001:00001a00       ?ChangeBSTR@OposVariant@@QAEXPAPA_WAAJ@Z 10002a00 f   OposVariant.obj
 0001:00001ac0       ?SetBSTR@OposVariant@@QAEXPA_WAAJ@Z 10002ac0 f   OposVariant.obj
 0001:00001b10       ?SetBSTR_Copy@OposVariant@@QAEXPA_WAAJ@Z 10002b10 f   OposVariant.obj
 0001:00001bb0       ?SetBSTR_OutPtr@OposVariant@@QAE_NPAPA_WAAJ@Z 10002bb0 f   OposVariant.obj
 0001:00001c00       ?SetBSTR_InOutPtr@OposVariant@@QAE_NPAPA_WAAJ@Z 10002c00 f   OposVariant.obj
 0001:00001c50       ?SetVARIANT@OposVariant@@QAEXAAUtagVARIANT@@GAAJ@Z 10002c50 f   OposVariant.obj
 0001:00001cd0       ?SetVARIANT_Ptr@OposVariant@@QAEXAAPAUtagVARIANT@@GAAJ@Z 10002cd0 f   OposVariant.obj
 0001:00001d70       ?SetString@OposVariant@@QAEXPB_WAAJ@Z 10002d70 f   OposVariant.obj
 0001:00001e00       ?SetDispatch_Ptr@OposVariant@@QAEXPAUIDispatch@@AAJ@Z 10002e00 f   OposVariant.obj
 0001:00001e70       ??0OposDispParms@@QAE@PAVOposVariant@@H@Z 10002e70 f   OposVariant.obj
 0001:00001f40       ??1OposDispParms@@QAE@XZ   10002f40 f   OposVariant.obj
 0001:00001f90       ??$AtlMultiply@I@ATL@@YAJPAIII@Z 10002f90 f i OposVariant.obj
 0001:00001ff0       ??0?$CHeapPtr@_WVCCRTAllocator@ATL@@@ATL@@QAE@XZ 10002ff0 f i OposVariant.obj
 0001:00002020       ??0?$CHeapPtrBase@_WVCCRTAllocator@ATL@@@ATL@@IAE@XZ 10003020 f i OposVariant.obj
 0001:00002040       ??0?$CSimpleArray@GV?$CSimpleArrayEqualHelper@G@ATL@@@ATL@@QAE@XZ 10003040 f i OposVariant.obj
 0001:00002070       ??0?$CTraceCategoryEx@$00$0A@@ATL@@QAE@PB_W@Z 10003070 f i OposVariant.obj
 0001:000020a0       ??0?$CTraceCategoryEx@$01$0A@@ATL@@QAE@PB_W@Z 100030a0 f i OposVariant.obj
 0001:000020d0       ??0?$CTraceCategoryEx@$03$0A@@ATL@@QAE@PB_W@Z 100030d0 f i OposVariant.obj
 0001:00002100       ??0?$CTraceCategoryEx@$07$0A@@ATL@@QAE@PB_W@Z 10003100 f i OposVariant.obj
 0001:00002130       ??0?$CTraceCategoryEx@$0BA@$0A@@ATL@@QAE@PB_W@Z 10003130 f i OposVariant.obj
 0001:00002160       ??0?$CTraceCategoryEx@$0BAA@$0A@@ATL@@QAE@PB_W@Z 10003160 f i OposVariant.obj
 0001:000021a0       ??0?$CTraceCategoryEx@$0BAAA@$0A@@ATL@@QAE@PB_W@Z 100031a0 f i OposVariant.obj
 0001:000021e0       ??0?$CTraceCategoryEx@$0BAAAA@$0A@@ATL@@QAE@PB_W@Z 100031e0 f i OposVariant.obj
 0001:00002220       ??0?$CTraceCategoryEx@$0BAAAAA@$0A@@ATL@@QAE@PB_W@Z 10003220 f i OposVariant.obj
 0001:00002260       ??0?$CTraceCategoryEx@$0CA@$0A@@ATL@@QAE@PB_W@Z 10003260 f i OposVariant.obj
 0001:00002290       ??0?$CTraceCategoryEx@$0CAA@$0A@@ATL@@QAE@PB_W@Z 10003290 f i OposVariant.obj
 0001:000022d0       ??0?$CTraceCategoryEx@$0CAAA@$0A@@ATL@@QAE@PB_W@Z 100032d0 f i OposVariant.obj
 0001:00002310       ??0?$CTraceCategoryEx@$0CAAAA@$0A@@ATL@@QAE@PB_W@Z 10003310 f i OposVariant.obj
 0001:00002350       ??0?$CTraceCategoryEx@$0CAAAAA@$0A@@ATL@@QAE@PB_W@Z 10003350 f i OposVariant.obj
 0001:00002390       ??0?$CTraceCategoryEx@$0EA@$0A@@ATL@@QAE@PB_W@Z 10003390 f i OposVariant.obj
 0001:000023c0       ??0?$CTraceCategoryEx@$0EAA@$0A@@ATL@@QAE@PB_W@Z 100033c0 f i OposVariant.obj
 0001:00002400       ??0?$CTraceCategoryEx@$0EAAA@$0A@@ATL@@QAE@PB_W@Z 10003400 f i OposVariant.obj
 0001:00002440       ??0?$CTraceCategoryEx@$0EAAAA@$0A@@ATL@@QAE@PB_W@Z 10003440 f i OposVariant.obj
 0001:00002480       ??0?$CTraceCategoryEx@$0EAAAAA@$0A@@ATL@@QAE@PB_W@Z 10003480 f i OposVariant.obj
 0001:000024c0       ??0?$CTraceCategoryEx@$0IA@$0A@@ATL@@QAE@PB_W@Z 100034c0 f i OposVariant.obj
 0001:00002500       ??0?$CTraceCategoryEx@$0IAA@$0A@@ATL@@QAE@PB_W@Z 10003500 f i OposVariant.obj
 0001:00002540       ??0?$CTraceCategoryEx@$0IAAA@$0A@@ATL@@QAE@PB_W@Z 10003540 f i OposVariant.obj
 0001:00002580       ??0?$CTraceCategoryEx@$0IAAAA@$0A@@ATL@@QAE@PB_W@Z 10003580 f i OposVariant.obj
 0001:000025c0       ??0CAtlComModule@ATL@@QAE@XZ 100035c0 f i OposVariant.obj
 0001:000026a0       ??0CAtlWinModule@ATL@@QAE@XZ 100036a0 f i OposVariant.obj
 0001:00002730       ??0CComCriticalSection@ATL@@QAE@XZ 10003730 f i OposVariant.obj
 0001:00002760       ??0CPreserveLastError@ATL@@QAE@XZ 10003760 f i OposVariant.obj
 0001:000027a0       ??0CTraceFileAndLineInfo@ATL@@QAE@PBDH@Z 100037a0 f i OposVariant.obj
 0001:000027d0       ??0_ATL_COM_MODULE70@ATL@@QAE@XZ 100037d0 f i OposVariant.obj
 0001:00002800       ??0_ATL_WIN_MODULE70@ATL@@QAE@XZ 10003800 f i OposVariant.obj
 0001:00002840       ??1?$CHeapPtr@_WVCCRTAllocator@ATL@@@ATL@@QAE@XZ 10003840 f i OposVariant.obj
 0001:00002870       ??1?$CHeapPtrBase@_WVCCRTAllocator@ATL@@@ATL@@QAE@XZ 10003870 f i OposVariant.obj
 0001:000028a0       ??1?$CSimpleArray@GV?$CSimpleArrayEqualHelper@G@ATL@@@ATL@@QAE@XZ 100038a0 f i OposVariant.obj
 0001:000028d0       ??1CAtlComModule@ATL@@QAE@XZ 100038d0 f i OposVariant.obj
 0001:00002900       ??1CAtlWinModule@ATL@@QAE@XZ 10003900 f i OposVariant.obj
 0001:00002930       ??1CComBSTR@ATL@@QAE@XZ    10003930 f i OposVariant.obj
 0001:00002970       ??1CComCriticalSection@ATL@@QAE@XZ 10003970 f i OposVariant.obj
 0001:00002980       ??1CPreserveLastError@ATL@@QAE@XZ 10003980 f i OposVariant.obj
 0001:000029c0       ??1_ATL_COM_MODULE70@ATL@@QAE@XZ 100039c0 f i OposVariant.obj
 0001:000029f0       ??1_ATL_WIN_MODULE70@ATL@@QAE@XZ 100039f0 f i OposVariant.obj
 0001:00002a30       ??1stringdispid@CComTypeInfoHolder@ATL@@QAE@XZ 10003a30 f i OposVariant.obj
 0001:00002a60       ??A?$CSimpleArray@GV?$CSimpleArrayEqualHelper@G@ATL@@@ATL@@QAEAAGH@Z 10003a60 f i OposVariant.obj
 0001:00002ae0       ??B?$CHeapPtrBase@_WVCCRTAllocator@ATL@@@ATL@@QBEPA_WXZ 10003ae0 f i OposVariant.obj
 0001:00002af0       ??B?$CTraceCategoryEx@$01$0A@@ATL@@QAEIXZ 10003af0 f i OposVariant.obj
 0001:00002b00       ??B?$CTraceCategoryEx@$0CA@$0A@@ATL@@QAEIXZ 10003b00 f i OposVariant.obj
 0001:00002b10       ??RCTraceFileAndLineInfo@ATL@@QBAXHIPB_WZZ 10003b10 f i OposVariant.obj
 0001:00002bb0       ??_Estringdispid@CComTypeInfoHolder@ATL@@QAEPAXI@Z 10003bb0 f i OposVariant.obj
 0001:00002c40       ??_H@YGXPAXIIP6EPAX0@Z@Z   10003c40 f i OposVariant.obj
 0001:00002cb0       ??_I@YGXPAXIIP6EX0@Z@Z     10003cb0 f i OposVariant.obj
 0001:00002d30       ?Allocate@?$CHeapPtr@_WVCCRTAllocator@ATL@@@ATL@@QAE_NI@Z 10003d30 f i OposVariant.obj
 0001:00002dc0       ?Allocate@CCRTAllocator@ATL@@SAPAXI@Z 10003dc0 f i OposVariant.obj
 0001:00002de0       ?AllocateBytes@?$CHeapPtrBase@_WVCCRTAllocator@ATL@@@ATL@@QAE_NI@Z 10003de0 f i OposVariant.obj
 0001:00002e50       ?AtlWinModuleInit@ATL@@YGJPAU_ATL_WIN_MODULE70@1@@Z 10003e50 f i OposVariant.obj
 0001:00002f20       ?AtlWinModuleTerm@ATL@@YGJPAU_ATL_WIN_MODULE70@1@PAUHINSTANCE__@@@Z 10003f20 f i OposVariant.obj
 0001:00002fe0       ?Clear@OposVariant@@QAEJXZ 10003fe0 f i OposVariant.obj
 0001:00003020       ?Free@?$CHeapPtrBase@_WVCCRTAllocator@ATL@@@ATL@@QAEXXZ 10004020 f i OposVariant.obj
 0001:00003060       ?Free@CCRTAllocator@ATL@@SAXPAX@Z 10004060 f i OposVariant.obj
 0001:00003080       ?GetCategoryName@CTrace@ATL@@CAPA_WI@Z 10004080 f i OposVariant.obj
 0001:000030d0       ?GetModuleInstance@CAtlBaseModule@ATL@@QAEPAUHINSTANCE__@@XZ 100040d0 f i OposVariant.obj
 0001:000030f0       ?GetSize@?$CSimpleArray@GV?$CSimpleArrayEqualHelper@G@ATL@@@ATL@@QBEHXZ 100040f0 f i OposVariant.obj
 0001:00003110       ?Init@CComCriticalSection@ATL@@QAEJXZ 10004110 f i OposVariant.obj
 0001:00003170       ?RegisterCategory@CTrace@ATL@@SAXPB_WI@Z 10004170 f i OposVariant.obj
 0001:00003200       ?RemoveAll@?$CSimpleArray@GV?$CSimpleArrayEqualHelper@G@ATL@@@ATL@@QAEXXZ 10004200 f i OposVariant.obj
 0001:00003280       ?Term@CAtlComModule@ATL@@QAEXXZ 10004280 f i OposVariant.obj
 0001:00003340       ?Term@CAtlWinModule@ATL@@QAEXXZ 10004340 f i OposVariant.obj
 0001:00003370       ?Term@CComCriticalSection@ATL@@QAEJXZ 10004370 f i OposVariant.obj
 0001:000033b0       ?TraceV@CTrace@ATL@@CAXPBDHIIPB_W@Z 100043b0 f i OposVariant.obj
 0001:00003630       ?TraceV@CTrace@ATL@@SAXPBDHIIPB_WPAD@Z 10004630 f i OposVariant.obj
 0001:00003770       ?_AtlInitializeCriticalSectionEx@ATL@@YAHPAU_RTL_CRITICAL_SECTION@@KK@Z 10004770 f i OposVariant.obj
 0001:000037a0       ?_AtlRaiseException@ATL@@YAXKK@Z 100047a0 f i OposVariant.obj
 0001:000037d0       _HRESULT_FROM_WIN32        100047d0 f i OposVariant.obj
 0001:00003810       __vswprintf_s_l            10004810 f i OposVariant.obj
 0001:00003880       _swprintf_s                10004880 f i OposVariant.obj
 0001:000038e0       ?ObjectMain@CComObjectRootBase@ATL@@SGX_N@Z 100048e0 f i MICR.obj
 0001:000038f0       ?GetCategoryMap@CComObjectRootBase@ATL@@SAPBU_ATL_CATMAP_ENTRY@2@XZ 100048f0 f i MICR.obj
 0001:00003900       ?GetObjectDescription@?$CComCoClass@VCOPOSMICR@@$1?CLSID_OPOSMICR@@3U_GUID@@B@ATL@@SGPB_WXZ 10004900 f i MICR.obj
 0001:00003910       ?UpdateRegistry@COPOSMICR@@SGJH@Z 10004910 f i MICR.obj
 0001:00003930       ?CreateInstance@?$CComCreator@V?$CComObjectCached@VCComClassFactory@ATL@@@ATL@@@ATL@@SGJPAXABU_GUID@@PAPAX@Z 10004930 f i MICR.obj
 0001:00003ab0       ?CreateInstance@?$CComCreator2@V?$CComCreator@V?$CComObject@VCOPOSMICR@@@ATL@@@ATL@@V?$CComCreator@V?$CComAggObject@VCOPOSMICR@@@ATL@@@2@@ATL@@SGJPAXABU_GUID@@PAPAX@Z 10004ab0 f i MICR.obj
 0001:00003c60       _DllGetClassObject@12      10004c60 f   MICR.obj
 0001:00003c90       _DllCanUnloadNow@0         10004c90 f   MICR.obj
 0001:00003cd0       _DllRegisterServer@0       10004cd0 f   MICR.obj
 0001:00003cf0       _DllUnregisterServer@0     10004cf0 f   MICR.obj
 0001:00003e80       _DllMain@12                10004e80 f   MICR.obj
 0001:00003ee0       ??$?2G@Wrapper@?$CSimpleArray@GV?$CSimpleArrayEqualHelper@G@ATL@@@ATL@@SAPAXIPAG@Z 10004ee0 f i MICR.obj
 0001:00003ef0       ??$?2PA_W@?$Wrapper@PA_W@?$CSimpleMap@PA_WPA_WVCExpansionVectorEqualHelper@ATL@@@ATL@@SAPAXIPAPA_W@Z 10004ef0 f i MICR.obj
 0001:00003f00       ??$?4UITypeInfo2@@@?$CComPtr@UITypeInfo@@@ATL@@QAEPAUITypeInfo@@ABV?$CComPtr@UITypeInfo2@@@1@@Z 10004f00 f i MICR.obj
 0001:00003f60       ??$AtlAdd@K@ATL@@YAJPAKKK@Z 10004f60 f i MICR.obj
 0001:00003fa0       ??$AtlAdd@_K@ATL@@YAJPA_K_K1@Z 10004fa0 f i MICR.obj
 0001:00004010       ??$AtlAddThrow@K@ATL@@YAKKK@Z 10005010 f i MICR.obj
 0001:00004090       ??$AtlModuleRegisterWndClassInfoT@VAtlModuleRegisterWndClassInfoParamW@ATL@@@ATL@@YAGPAU_ATL_BASE_MODULE70@0@PAU_ATL_WIN_MODULE70@0@PAU_ATL_WNDCLASSINFOW@0@PAP6GJPAUHWND__@@IIJ@ZVAtlModuleRegisterWndClassInfoParamW@0@@Z 10005090 f i MICR.obj
 0001:000044a0       ??$AtlMultiply@H@ATL@@YAJPAHHH@Z 100054a0 f i MICR.obj
 0001:00004520       ??$AtlMultiply@K@ATL@@YAJPAKKK@Z 10005520 f i MICR.obj
 0001:00004580       ??$AtlMultiplyThrow@I@ATL@@YAIII@Z 10005580 f i MICR.obj
 0001:00004600       ??$QueryInterface@UIPersistStream@@@IUnknown@@QAGJPAPAUIPersistStream@@@Z 10005600 f i MICR.obj
 0001:00004630       ??$QueryInterface@UITypeInfo2@@@IUnknown@@QAGJPAPAUITypeInfo2@@@Z 10005630 f i MICR.obj
 0001:00004660       ??0?$CAtlModuleT@VCComModule@ATL@@@ATL@@QAE@XZ 10005660 f i MICR.obj
 0001:00004690       ??0?$CAtlSafeAllocBufferManager@VCCRTAllocator@ATL@@@_ATL_SAFE_ALLOCA_IMPL@ATL@@QAE@XZ 10005690 f i MICR.obj
 0001:000046b0       ??0?$CAutoVectorPtr@_W@ATL@@QAE@XZ 100056b0 f i MICR.obj
 0001:000046d0       ??0?$CComAggObject@VCOPOSMICR@@@ATL@@QAE@PAX@Z 100056d0 f i MICR.obj
 0001:00004740       ??0?$CComContainedObject@VCOPOSMICR@@@ATL@@QAE@PAX@Z 10005740 f i MICR.obj
 0001:00004850       ??0?$CComCritSecLock@VCComCriticalSection@ATL@@@ATL@@QAE@AAVCComCriticalSection@1@_N@Z 10005850 f i MICR.obj
 0001:000048b0       ??0?$CComEnum@UIEnumConnectionPoints@@$1?_GUID_b196b285_bab4_101a_b69c_00aa00341d07@@3U__s_GUID@@BPAUIConnectionPoint@@V?$_CopyInterface@UIConnectionPoint@@@ATL@@VCComSingleThreadModel@6@@ATL@@QAE@XZ 100058b0 f i MICR.obj
 0001:000048f0       ??0?$CComEnum@UIEnumConnections@@$1?_GUID_b196b287_bab4_101a_b69c_00aa00341d07@@3U__s_GUID@@BUtagCONNECTDATA@@V?$_Copy@UtagCONNECTDATA@@@ATL@@VCComSingleThreadModel@6@@ATL@@QAE@XZ 100058f0 f i MICR.obj
 0001:00004930       ??0?$CComEnumImpl@UIEnumConnectionPoints@@$1?_GUID_b196b285_bab4_101a_b69c_00aa00341d07@@3U__s_GUID@@BPAUIConnectionPoint@@V?$_CopyInterface@UIConnectionPoint@@@ATL@@@ATL@@QAE@XZ 10005930 f i MICR.obj
 0001:00004990       ??0?$CComEnumImpl@UIEnumConnections@@$1?_GUID_b196b287_bab4_101a_b69c_00aa00341d07@@3U__s_GUID@@BUtagCONNECTDATA@@V?$_Copy@UtagCONNECTDATA@@@ATL@@@ATL@@QAE@XZ 10005990 f i MICR.obj
 0001:000049f0       ??0?$CComObject@V?$CComEnum@UIEnumConnectionPoints@@$1?_GUID_b196b285_bab4_101a_b69c_00aa00341d07@@3U__s_GUID@@BPAUIConnectionPoint@@V?$_CopyInterface@UIConnectionPoint@@@ATL@@VCComSingleThreadModel@6@@ATL@@@ATL@@QAE@PAX@Z 100059f0 f i MICR.obj
 0001:00004a40       ??0?$CComObject@V?$CComEnum@UIEnumConnections@@$1?_GUID_b196b287_bab4_101a_b69c_00aa00341d07@@3U__s_GUID@@BUtagCONNECTDATA@@V?$_Copy@UtagCONNECTDATA@@@ATL@@VCComSingleThreadModel@6@@ATL@@@ATL@@QAE@PAX@Z 10005a40 f i MICR.obj
 0001:00004a90       ??0?$CComObject@VCOPOSMICR@@@ATL@@QAE@PAX@Z 10005a90 f i MICR.obj
 0001:00004bb0       ??0?$CComObjectCached@VCComClassFactory@ATL@@@ATL@@QAE@PAX@Z 10005bb0 f i MICR.obj
 0001:00004bf0       ??0?$CComObjectRootEx@VCComMultiThreadModel@ATL@@@ATL@@QAE@XZ 10005bf0 f i MICR.obj
 0001:00004c30       ??0?$CComObjectRootEx@VCComSingleThreadModel@ATL@@@ATL@@QAE@XZ 10005c30 f i MICR.obj
 0001:00004c60       ??0?$CComPtr@UIAdviseSink@@@ATL@@QAE@PAUIAdviseSink@@@Z 10005c60 f i MICR.obj
 0001:00004c90       ??0?$CComPtr@UICatRegister@@@ATL@@QAE@XZ 10005c90 f i MICR.obj
 0001:00004cc0       ??0?$CComPtr@UIConnectionPoint@@@ATL@@QAE@XZ 10005cc0 f i MICR.obj
 0001:00004cf0       ??0?$CComPtr@UIConnectionPointContainer@@@ATL@@QAE@XZ 10005cf0 f i MICR.obj
 0001:00004d20       ??0?$CComPtr@UIDataObject@@@ATL@@QAE@XZ 10005d20 f i MICR.obj
 0001:00004d50       ??0?$CComPtr@UIDispatch@@@ATL@@QAE@XZ 10005d50 f i MICR.obj
 0001:00004d80       ??0?$CComPtr@UIOleClientSite@@@ATL@@QAE@PAUIOleClientSite@@@Z 10005d80 f i MICR.obj
 0001:00004db0       ??0?$CComPtr@UIOleControlSite@@@ATL@@QAE@XZ 10005db0 f i MICR.obj
 0001:00004de0       ??0?$CComPtr@UIOleInPlaceActiveObject@@@ATL@@QAE@XZ 10005de0 f i MICR.obj
 0001:00004e10       ??0?$CComPtr@UIOleInPlaceFrame@@@ATL@@QAE@XZ 10005e10 f i MICR.obj
 0001:00004e40       ??0?$CComPtr@UIOleInPlaceObject@@@ATL@@QAE@XZ 10005e40 f i MICR.obj
 0001:00004e70       ??0?$CComPtr@UIOleInPlaceUIWindow@@@ATL@@QAE@XZ 10005e70 f i MICR.obj
 0001:00004ea0       ??0?$CComPtr@UIOleObject@@@ATL@@QAE@XZ 10005ea0 f i MICR.obj
 0001:00004ed0       ??0?$CComPtr@UIPersistStream@@@ATL@@QAE@XZ 10005ed0 f i MICR.obj
 0001:00004f00       ??0?$CComPtr@UIPersistStreamInit@@@ATL@@QAE@XZ 10005f00 f i MICR.obj
 0001:00004f30       ??0?$CComPtr@UIPointerInactive@@@ATL@@QAE@XZ 10005f30 f i MICR.obj
 0001:00004f60       ??0?$CComPtr@UIProvideClassInfo2@@@ATL@@QAE@XZ 10005f60 f i MICR.obj
 0001:00004f90       ??0?$CComPtr@UISpecifyPropertyPages@@@ATL@@QAE@XZ 10005f90 f i MICR.obj
 0001:00004fc0       ??0?$CComPtr@UIStream@@@ATL@@QAE@XZ 10005fc0 f i MICR.obj
 0001:00004ff0       ??0?$CComPtr@UITypeInfo2@@@ATL@@QAE@XZ 10005ff0 f i MICR.obj
 0001:00005020       ??0?$CComPtr@UITypeInfo@@@ATL@@QAE@ABV01@@Z 10006020 f i MICR.obj
 0001:00005050       ??0?$CComPtr@UITypeInfo@@@ATL@@QAE@XZ 10006050 f i MICR.obj
 0001:00005080       ??0?$CComPtr@UITypeLib@@@ATL@@QAE@XZ 10006080 f i MICR.obj
 0001:000050b0       ??0?$CComPtr@UIUnknown@@@ATL@@QAE@ABV01@@Z 100060b0 f i MICR.obj
 0001:000050e0       ??0?$CComPtr@UIUnknown@@@ATL@@QAE@PAUIUnknown@@@Z 100060e0 f i MICR.obj
 0001:00005110       ??0?$CComPtr@UIUnknown@@@ATL@@QAE@XZ 10006110 f i MICR.obj
 0001:00005140       ??0?$CComPtr@UIViewObjectEx@@@ATL@@QAE@XZ 10006140 f i MICR.obj
 0001:00005170       ??0?$CComPtrBase@UIAdviseSink@@@ATL@@IAE@PAUIAdviseSink@@@Z 10006170 f i MICR.obj
 0001:000051c0       ??0?$CComPtrBase@UICatRegister@@@ATL@@IAE@XZ 100061c0 f i MICR.obj
 0001:000051e0       ??0?$CComPtrBase@UIConnectionPoint@@@ATL@@IAE@XZ 100061e0 f i MICR.obj
 0001:00005200       ??0?$CComPtrBase@UIConnectionPointContainer@@@ATL@@IAE@XZ 10006200 f i MICR.obj
 0001:00005220       ??0?$CComPtrBase@UIDataObject@@@ATL@@IAE@XZ 10006220 f i MICR.obj
 0001:00005240       ??0?$CComPtrBase@UIDispatch@@@ATL@@IAE@XZ 10006240 f i MICR.obj
 0001:00005260       ??0?$CComPtrBase@UIOleClientSite@@@ATL@@IAE@PAUIOleClientSite@@@Z 10006260 f i MICR.obj
 0001:000052b0       ??0?$CComPtrBase@UIOleControlSite@@@ATL@@IAE@XZ 100062b0 f i MICR.obj
 0001:000052d0       ??0?$CComPtrBase@UIOleInPlaceActiveObject@@@ATL@@IAE@XZ 100062d0 f i MICR.obj
 0001:000052f0       ??0?$CComPtrBase@UIOleInPlaceFrame@@@ATL@@IAE@XZ 100062f0 f i MICR.obj
 0001:00005310       ??0?$CComPtrBase@UIOleInPlaceObject@@@ATL@@IAE@XZ 10006310 f i MICR.obj
 0001:00005330       ??0?$CComPtrBase@UIOleInPlaceUIWindow@@@ATL@@IAE@XZ 10006330 f i MICR.obj
 0001:00005350       ??0?$CComPtrBase@UIOleObject@@@ATL@@IAE@XZ 10006350 f i MICR.obj
 0001:00005370       ??0?$CComPtrBase@UIPersistStream@@@ATL@@IAE@XZ 10006370 f i MICR.obj
 0001:00005390       ??0?$CComPtrBase@UIPersistStreamInit@@@ATL@@IAE@XZ 10006390 f i MICR.obj
 0001:000053b0       ??0?$CComPtrBase@UIPointerInactive@@@ATL@@IAE@XZ 100063b0 f i MICR.obj
 0001:000053d0       ??0?$CComPtrBase@UIProvideClassInfo2@@@ATL@@IAE@XZ 100063d0 f i MICR.obj
 0001:000053f0       ??0?$CComPtrBase@UISpecifyPropertyPages@@@ATL@@IAE@XZ 100063f0 f i MICR.obj
 0001:00005410       ??0?$CComPtrBase@UIStream@@@ATL@@IAE@XZ 10006410 f i MICR.obj
 0001:00005430       ??0?$CComPtrBase@UITypeInfo2@@@ATL@@IAE@XZ 10006430 f i MICR.obj
 0001:00005450       ??0?$CComPtrBase@UITypeInfo@@@ATL@@IAE@PAUITypeInfo@@@Z 10006450 f i MICR.obj
 0001:000054a0       ??0?$CComPtrBase@UITypeInfo@@@ATL@@IAE@XZ 100064a0 f i MICR.obj
 0001:000054c0       ??0?$CComPtrBase@UITypeLib@@@ATL@@IAE@XZ 100064c0 f i MICR.obj
 0001:000054e0       ??0?$CComPtrBase@UIUnknown@@@ATL@@IAE@PAUIUnknown@@@Z 100064e0 f i MICR.obj
 0001:00005530       ??0?$CComPtrBase@UIUnknown@@@ATL@@IAE@XZ 10006530 f i MICR.obj
 0001:00005550       ??0?$CComPtrBase@UIViewObjectEx@@@ATL@@IAE@XZ 10006550 f i MICR.obj
 0001:00005570       ??0?$CComQIPtr@UIOleControlSite@@$1?_GUID_b196b289_bab4_101a_b69c_00aa00341d07@@3U__s_GUID@@B@ATL@@QAE@PAUIUnknown@@@Z 10006570 f i MICR.obj
 0001:000055d0       ??0?$CComQIPtr@UIOleObject@@$1?_GUID_00000112_0000_0000_c000_000000000046@@3U__s_GUID@@B@ATL@@QAE@XZ 100065d0 f i MICR.obj
 0001:00005600       ??0?$CComQIPtr@UISpecifyPropertyPages@@$1?_GUID_b196b28b_bab4_101a_b69c_00aa00341d07@@3U__s_GUID@@B@ATL@@QAE@XZ 10006600 f i MICR.obj
 0001:00005630       ??0?$CSimpleMap@PA_WPA_WVCExpansionVectorEqualHelper@ATL@@@ATL@@QAE@XZ 10006630 f i MICR.obj
 0001:00005660       ??0?$CTempBuffer@E$0BAA@VCCRTAllocator@ATL@@@ATL@@QAE@XZ 10006660 f i MICR.obj
 0001:00005680       ??0?$CTempBuffer@_W$0BAA@VCCRTAllocator@ATL@@@ATL@@QAE@XZ 10006680 f i MICR.obj
 0001:000056a0       ??0?$CTempBuffer@_W$0EAA@VCCRTAllocator@ATL@@@ATL@@QAE@XZ 100066a0 f i MICR.obj
 0001:000056c0       ??0?$Wrapper@PA_W@?$CSimpleMap@PA_WPA_WVCExpansionVectorEqualHelper@ATL@@@ATL@@QAE@ABQA_W@Z 100066c0 f i MICR.obj
 0001:000056e0       ??0CAtlModule@ATL@@QAE@XZ  100066e0 f i MICR.obj
 0001:00005800       ??0CComAutoDeleteCriticalSection@ATL@@QAE@XZ 10006800 f i MICR.obj
 0001:00005830       ??0CComBSTR@ATL@@QAE@XZ    10006830 f i MICR.obj
 0001:00005850       ??0CComClassFactory@ATL@@QAE@XZ 10006850 f i MICR.obj
 0001:00005890       ??0CComModule@ATL@@QAE@XZ  10006890 f i MICR.obj
 0001:00005900       ??0CComObjectRootBase@ATL@@QAE@XZ 10006900 f i MICR.obj
 0001:00005920       ??0CComSafeDeleteCriticalSection@ATL@@QAE@XZ 10006920 f i MICR.obj
 0001:00005950       ??0CComVariant@ATL@@QAE@XZ 10006950 f i MICR.obj
 0001:000059a0       ??0CExpansionVector@ATL@@QAE@XZ 100069a0 f i MICR.obj
 0001:000059d0       ??0CParseBuffer@CRegParser@ATL@@QAE@H@Z 100069d0 f i MICR.obj
 0001:00005a40       ??0CRegKey@ATL@@QAE@PAUHKEY__@@@Z 10006a40 f i MICR.obj
 0001:00005a70       ??0CRegKey@ATL@@QAE@PAVCAtlTransactionManager@1@@Z 10006a70 f i MICR.obj
 0001:00005aa0       ??0CRegObject@ATL@@QAE@XZ  10006aa0 f i MICR.obj
 0001:00005ae0       ??0CRegParser@ATL@@QAE@PAVCRegObject@1@@Z 10006ae0 f i MICR.obj
 0001:00005b10       ??0IClassFactory@@QAE@XZ   10006b10 f i MICR.obj
 0001:00005b40       ??0IEnumConnectionPoints@@QAE@XZ 10006b40 f i MICR.obj
 0001:00005b70       ??0IEnumConnections@@QAE@XZ 10006b70 f i MICR.obj
 0001:00005ba0       ??0IRegistrarBase@@QAE@XZ  10006ba0 f i MICR.obj
 0001:00005bd0       ??0IUnknown@@QAE@XZ        10006bd0 f i MICR.obj
 0001:00005be0       ??0ModuleLockHelper@ATL@@QAE@XZ 10006be0 f i MICR.obj
 0001:00005c20       ??0OposVariant@@QAE@XZ     10006c20 f i MICR.obj
 0001:00005c40       ??0Wrapper@?$CSimpleArray@GV?$CSimpleArrayEqualHelper@G@ATL@@@ATL@@QAE@ABG@Z 10006c40 f i MICR.obj
 0001:00005c60       ??0_ATL_MODULE70@ATL@@QAE@XZ 10006c60 f i MICR.obj
 0001:00005c90       ??0_ATL_MSG@ATL@@QAE@PAUHWND__@@IIJH@Z 10006c90 f i MICR.obj
 0001:00005d00       ??0_U_MENUorID@ATL@@QAE@I@Z 10006d00 f i MICR.obj
 0001:00005d20       ??0_U_RECT@ATL@@QAE@AAUtagRECT@@@Z 10006d20 f i MICR.obj
 0001:00005d40       ??0stringdispid@CComTypeInfoHolder@ATL@@QAE@XZ 10006d40 f i MICR.obj
 0001:00005d80       ??1?$CAtlModuleT@VCComModule@ATL@@@ATL@@UAE@XZ 10006d80 f i MICR.obj
 0001:00005db0       ??1?$CAtlSafeAllocBufferManager@VCCRTAllocator@ATL@@@_ATL_SAFE_ALLOCA_IMPL@ATL@@QAE@XZ 10006db0 f i MICR.obj
 0001:00005e00       ??1?$CAutoVectorPtr@_W@ATL@@QAE@XZ 10006e00 f i MICR.obj
 0001:00005e30       ??1?$CComAggObject@VCOPOSMICR@@@ATL@@UAE@XZ 10006e30 f i MICR.obj
 0001:00005ea0       ??1?$CComContainedObject@VCOPOSMICR@@@ATL@@UAE@XZ 10006ea0 f i MICR.obj
 0001:00005ed0       ??1?$CComCritSecLock@VCComCriticalSection@ATL@@@ATL@@QAE@XZ 10006ed0 f i MICR.obj
 0001:00005f00       ??1?$CComEnum@UIEnumConnectionPoints@@$1?_GUID_b196b285_bab4_101a_b69c_00aa00341d07@@3U__s_GUID@@BPAUIConnectionPoint@@V?$_CopyInterface@UIConnectionPoint@@@ATL@@VCComSingleThreadModel@6@@ATL@@UAE@XZ 10006f00 f i MICR.obj
 0001:00005f30       ??1?$CComEnum@UIEnumConnections@@$1?_GUID_b196b287_bab4_101a_b69c_00aa00341d07@@3U__s_GUID@@BUtagCONNECTDATA@@V?$_Copy@UtagCONNECTDATA@@@ATL@@VCComSingleThreadModel@6@@ATL@@UAE@XZ 10006f30 f i MICR.obj
 0001:00005f60       ??1?$CComEnumImpl@UIEnumConnectionPoints@@$1?_GUID_b196b285_bab4_101a_b69c_00aa00341d07@@3U__s_GUID@@BPAUIConnectionPoint@@V?$_CopyInterface@UIConnectionPoint@@@ATL@@@ATL@@UAE@XZ 10006f60 f i MICR.obj
 0001:00005ff0       ??1?$CComEnumImpl@UIEnumConnections@@$1?_GUID_b196b287_bab4_101a_b69c_00aa00341d07@@3U__s_GUID@@BUtagCONNECTDATA@@V?$_Copy@UtagCONNECTDATA@@@ATL@@@ATL@@UAE@XZ 10006ff0 f i MICR.obj
 0001:00006080       ??1?$CComObject@V?$CComEnum@UIEnumConnectionPoints@@$1?_GUID_b196b285_bab4_101a_b69c_00aa00341d07@@3U__s_GUID@@BPAUIConnectionPoint@@V?$_CopyInterface@UIConnectionPoint@@@ATL@@VCComSingleThreadModel@6@@ATL@@@ATL@@UAE@XZ 10007080 f i MICR.obj
 0001:000060e0       ??1?$CComObject@V?$CComEnum@UIEnumConnections@@$1?_GUID_b196b287_bab4_101a_b69c_00aa00341d07@@3U__s_GUID@@BUtagCONNECTDATA@@V?$_Copy@UtagCONNECTDATA@@@ATL@@VCComSingleThreadModel@6@@ATL@@@ATL@@UAE@XZ 100070e0 f i MICR.obj
 0001:00006140       ??1?$CComObject@VCOPOSMICR@@@ATL@@UAE@XZ 10007140 f i MICR.obj
 0001:00006280       ??1?$CComObjectCached@VCComClassFactory@ATL@@@ATL@@UAE@XZ 10007280 f i MICR.obj
 0001:000062d0       ??1?$CComObjectRootEx@VCComMultiThreadModel@ATL@@@ATL@@QAE@XZ 100072d0 f i MICR.obj
 0001:00006300       ??1?$CComObjectRootEx@VCComSingleThreadModel@ATL@@@ATL@@QAE@XZ 10007300 f i MICR.obj
 0001:00006330       ??1?$CComPtr@UIAdviseSink@@@ATL@@QAE@XZ 10007330 f i MICR.obj
 0001:00006360       ??1?$CComPtr@UICatRegister@@@ATL@@QAE@XZ 10007360 f i MICR.obj
 0001:00006390       ??1?$CComPtr@UIConnectionPoint@@@ATL@@QAE@XZ 10007390 f i MICR.obj
 0001:000063c0       ??1?$CComPtr@UIConnectionPointContainer@@@ATL@@QAE@XZ 100073c0 f i MICR.obj
 0001:000063f0       ??1?$CComPtr@UIDataObject@@@ATL@@QAE@XZ 100073f0 f i MICR.obj
 0001:00006420       ??1?$CComPtr@UIDispatch@@@ATL@@QAE@XZ 10007420 f i MICR.obj
 0001:00006450       ??1?$CComPtr@UIOleClientSite@@@ATL@@QAE@XZ 10007450 f i MICR.obj
 0001:00006480       ??1?$CComPtr@UIOleControlSite@@@ATL@@QAE@XZ 10007480 f i MICR.obj
 0001:000064b0       ??1?$CComPtr@UIOleInPlaceActiveObject@@@ATL@@QAE@XZ 100074b0 f i MICR.obj
 0001:000064e0       ??1?$CComPtr@UIOleInPlaceFrame@@@ATL@@QAE@XZ 100074e0 f i MICR.obj
 0001:00006510       ??1?$CComPtr@UIOleInPlaceObject@@@ATL@@QAE@XZ 10007510 f i MICR.obj
 0001:00006540       ??1?$CComPtr@UIOleInPlaceUIWindow@@@ATL@@QAE@XZ 10007540 f i MICR.obj
 0001:00006570       ??1?$CComPtr@UIOleObject@@@ATL@@QAE@XZ 10007570 f i MICR.obj
 0001:000065a0       ??1?$CComPtr@UIPersistStream@@@ATL@@QAE@XZ 100075a0 f i MICR.obj
 0001:000065d0       ??1?$CComPtr@UIPersistStreamInit@@@ATL@@QAE@XZ 100075d0 f i MICR.obj
 0001:00006600       ??1?$CComPtr@UIPointerInactive@@@ATL@@QAE@XZ 10007600 f i MICR.obj
 0001:00006630       ??1?$CComPtr@UIProvideClassInfo2@@@ATL@@QAE@XZ 10007630 f i MICR.obj
 0001:00006660       ??1?$CComPtr@UISpecifyPropertyPages@@@ATL@@QAE@XZ 10007660 f i MICR.obj
 0001:00006690       ??1?$CComPtr@UIStream@@@ATL@@QAE@XZ 10007690 f i MICR.obj
 0001:000066c0       ??1?$CComPtr@UITypeInfo2@@@ATL@@QAE@XZ 100076c0 f i MICR.obj
 0001:000066f0       ??1?$CComPtr@UITypeInfo@@@ATL@@QAE@XZ 100076f0 f i MICR.obj
 0001:00006720       ??1?$CComPtr@UITypeLib@@@ATL@@QAE@XZ 10007720 f i MICR.obj
 0001:00006750       ??1?$CComPtr@UIUnknown@@@ATL@@QAE@XZ 10007750 f i MICR.obj
 0001:00006780       ??1?$CComPtr@UIViewObjectEx@@@ATL@@QAE@XZ 10007780 f i MICR.obj
 0001:000067b0       ??1?$CComPtrBase@UIAdviseSink@@@ATL@@QAE@XZ 100077b0 f i MICR.obj
 0001:00006800       ??1?$CComPtrBase@UICatRegister@@@ATL@@QAE@XZ 10007800 f i MICR.obj
 0001:00006850       ??1?$CComPtrBase@UIConnectionPoint@@@ATL@@QAE@XZ 10007850 f i MICR.obj
 0001:000068a0       ??1?$CComPtrBase@UIConnectionPointContainer@@@ATL@@QAE@XZ 100078a0 f i MICR.obj
 0001:000068f0       ??1?$CComPtrBase@UIDataObject@@@ATL@@QAE@XZ 100078f0 f i MICR.obj
 0001:00006940       ??1?$CComPtrBase@UIDispatch@@@ATL@@QAE@XZ 10007940 f i MICR.obj
 0001:00006990       ??1?$CComPtrBase@UIOleClientSite@@@ATL@@QAE@XZ 10007990 f i MICR.obj
 0001:000069e0       ??1?$CComPtrBase@UIOleControlSite@@@ATL@@QAE@XZ 100079e0 f i MICR.obj
 0001:00006a30       ??1?$CComPtrBase@UIOleInPlaceActiveObject@@@ATL@@QAE@XZ 10007a30 f i MICR.obj
 0001:00006a80       ??1?$CComPtrBase@UIOleInPlaceFrame@@@ATL@@QAE@XZ 10007a80 f i MICR.obj
 0001:00006ad0       ??1?$CComPtrBase@UIOleInPlaceObject@@@ATL@@QAE@XZ 10007ad0 f i MICR.obj
 0001:00006b20       ??1?$CComPtrBase@UIOleInPlaceUIWindow@@@ATL@@QAE@XZ 10007b20 f i MICR.obj
 0001:00006b70       ??1?$CComPtrBase@UIOleObject@@@ATL@@QAE@XZ 10007b70 f i MICR.obj
 0001:00006bc0       ??1?$CComPtrBase@UIPersistStream@@@ATL@@QAE@XZ 10007bc0 f i MICR.obj
 0001:00006c10       ??1?$CComPtrBase@UIPersistStreamInit@@@ATL@@QAE@XZ 10007c10 f i MICR.obj
 0001:00006c60       ??1?$CComPtrBase@UIPointerInactive@@@ATL@@QAE@XZ 10007c60 f i MICR.obj
 0001:00006cb0       ??1?$CComPtrBase@UIProvideClassInfo2@@@ATL@@QAE@XZ 10007cb0 f i MICR.obj
 0001:00006d00       ??1?$CComPtrBase@UISpecifyPropertyPages@@@ATL@@QAE@XZ 10007d00 f i MICR.obj
 0001:00006d50       ??1?$CComPtrBase@UIStream@@@ATL@@QAE@XZ 10007d50 f i MICR.obj
 0001:00006da0       ??1?$CComPtrBase@UITypeInfo2@@@ATL@@QAE@XZ 10007da0 f i MICR.obj
 0001:00006df0       ??1?$CComPtrBase@UITypeInfo@@@ATL@@QAE@XZ 10007df0 f i MICR.obj
 0001:00006e40       ??1?$CComPtrBase@UITypeLib@@@ATL@@QAE@XZ 10007e40 f i MICR.obj
 0001:00006e90       ??1?$CComPtrBase@UIUnknown@@@ATL@@QAE@XZ 10007e90 f i MICR.obj
 0001:00006ee0       ??1?$CComPtrBase@UIViewObjectEx@@@ATL@@QAE@XZ 10007ee0 f i MICR.obj
 0001:00006f30       ??1?$CComQIPtr@UIOleControlSite@@$1?_GUID_b196b289_bab4_101a_b69c_00aa00341d07@@3U__s_GUID@@B@ATL@@QAE@XZ 10007f30 f i MICR.obj
 0001:00006f60       ??1?$CComQIPtr@UIOleObject@@$1?_GUID_00000112_0000_0000_c000_000000000046@@3U__s_GUID@@B@ATL@@QAE@XZ 10007f60 f i MICR.obj
 0001:00006f90       ??1?$CComQIPtr@UISpecifyPropertyPages@@$1?_GUID_b196b28b_bab4_101a_b69c_00aa00341d07@@3U__s_GUID@@B@ATL@@QAE@XZ 10007f90 f i MICR.obj
 0001:00006fc0       ??1?$CSimpleMap@PA_WPA_WVCExpansionVectorEqualHelper@ATL@@@ATL@@QAE@XZ 10007fc0 f i MICR.obj
 0001:00006ff0       ??1?$CTempBuffer@E$0BAA@VCCRTAllocator@ATL@@@ATL@@QAE@XZ 10007ff0 f i MICR.obj
 0001:00007030       ??1?$CTempBuffer@_W$0BAA@VCCRTAllocator@ATL@@@ATL@@QAE@XZ 10008030 f i MICR.obj
 0001:00007070       ??1?$CTempBuffer@_W$0EAA@VCCRTAllocator@ATL@@@ATL@@QAE@XZ 10008070 f i MICR.obj
 0001:000070b0       ??1CAtlModule@ATL@@UAE@XZ  100080b0 f i MICR.obj
 0001:000070e0       ??1CComAutoDeleteCriticalSection@ATL@@QAE@XZ 100080e0 f i MICR.obj
 0001:00007110       ??1CComClassFactory@ATL@@UAE@XZ 10008110 f i MICR.obj
 0001:00007140       ??1CComModule@ATL@@UAE@XZ  10008140 f i MICR.obj
 0001:00007170       ??1CComObjectRootBase@ATL@@QAE@XZ 10008170 f i MICR.obj
 0001:00007180       ??1CComSafeDeleteCriticalSection@ATL@@QAE@XZ 10008180 f i MICR.obj
 0001:000071c0       ??1CComVariant@ATL@@QAE@XZ 100081c0 f i MICR.obj
 0001:00007220       ??1CExpansionVector@ATL@@QAE@XZ 10008220 f i MICR.obj
 0001:00007250       ??1CParseBuffer@CRegParser@ATL@@QAE@XZ 10008250 f i MICR.obj
 0001:00007290       ??1CRegKey@ATL@@QAE@XZ     10008290 f i MICR.obj
 0001:000072c0       ??1CRegObject@ATL@@UAE@XZ  100082c0 f i MICR.obj
 0001:00007300       ??1ModuleLockHelper@ATL@@QAE@XZ 10008300 f i MICR.obj
 0001:00007340       ??1OposVariant@@QAE@XZ     10008340 f i MICR.obj
 0001:00007370       ??1_ATL_MODULE70@ATL@@QAE@XZ 10008370 f i MICR.obj
 0001:000073a0       ??4?$CComPtr@UIAdviseSink@@@ATL@@QAEPAUIAdviseSink@@PAU2@@Z 100083a0 f i MICR.obj
 0001:00007400       ??4?$CComPtr@UIOleClientSite@@@ATL@@QAEPAUIOleClientSite@@PAU2@@Z 10008400 f i MICR.obj
 0001:00007460       ??4?$CComPtr@UIUnknown@@@ATL@@QAEPAUIUnknown@@PAU2@@Z 10008460 f i MICR.obj
 0001:000074c0       ??4?$CComQIPtr@UIOleObject@@$1?_GUID_00000112_0000_0000_c000_000000000046@@3U__s_GUID@@B@ATL@@QAEPAUIOleObject@@PAUIUnknown@@@Z 100084c0 f i MICR.obj
 0001:00007510       ??4?$CComQIPtr@UISpecifyPropertyPages@@$1?_GUID_b196b28b_bab4_101a_b69c_00aa00341d07@@3U__s_GUID@@B@ATL@@QAEPAUISpecifyPropertyPages@@PAUIUnknown@@@Z 10008510 f i MICR.obj
 0001:00007560       ??7?$CComPtrBase@UIOleClientSite@@@ATL@@QBE_NXZ 10008560 f i MICR.obj
 0001:00007590       ??7?$CComPtrBase@UIOleInPlaceSiteWindowless@@@ATL@@QBE_NXZ 10008590 f i MICR.obj
 0001:000075c0       ??7CComBSTR@ATL@@QBE_NXZ   100085c0 f i MICR.obj
 0001:000075f0       ??8?$CComPtrBase@UIConnectionPointContainer@@@ATL@@QBE_NPAUIConnectionPointContainer@@@Z 100085f0 f i MICR.obj
 0001:00007620       ??8?$CComPtrBase@UIDataAdviseHolder@@@ATL@@QBE_NPAUIDataAdviseHolder@@@Z 10008620 f i MICR.obj
 0001:00007650       ??8?$CComPtrBase@UIOleAdviseHolder@@@ATL@@QBE_NPAUIOleAdviseHolder@@@Z 10008650 f i MICR.obj
 0001:00007680       ??8?$CComPtrBase@UIOleClientSite@@@ATL@@QBE_NPAUIOleClientSite@@@Z 10008680 f i MICR.obj
 0001:000076b0       ??8?$CComPtrBase@UIOleControlSite@@@ATL@@QBE_NPAUIOleControlSite@@@Z 100086b0 f i MICR.obj
 0001:000076e0       ??8?$CComPtrBase@UIOleInPlaceObject@@@ATL@@QBE_NPAUIOleInPlaceObject@@@Z 100086e0 f i MICR.obj
 0001:00007710       ??8?$CComPtrBase@UIOleInPlaceSiteWindowless@@@ATL@@QBE_NPAUIOleInPlaceSiteWindowless@@@Z 10008710 f i MICR.obj
 0001:00007740       ??8?$CComPtrBase@UIOleObject@@@ATL@@QBE_NPAUIOleObject@@@Z 10008740 f i MICR.obj
 0001:00007770       ??8?$CComPtrBase@UIPersistStream@@@ATL@@QBE_NPAUIPersistStream@@@Z 10008770 f i MICR.obj
 0001:000077a0       ??8?$CComPtrBase@UIPersistStreamInit@@@ATL@@QBE_NPAUIPersistStreamInit@@@Z 100087a0 f i MICR.obj
 0001:000077d0       ??8?$CComPtrBase@UIPointerInactive@@@ATL@@QBE_NPAUIPointerInactive@@@Z 100087d0 f i MICR.obj
 0001:00007800       ??8?$CComPtrBase@UIUnknown@@@ATL@@QBE_NPAUIUnknown@@@Z 10008800 f i MICR.obj
 0001:00007830       ??8?$CComPtrBase@UIViewObjectEx@@@ATL@@QBE_NPAUIViewObjectEx@@@Z 10008830 f i MICR.obj
 0001:00007860       ??8CComBSTR@ATL@@QBE_NH@Z  10008860 f i MICR.obj
 0001:000078c0       ??9?$CComPtrBase@UIConnectionPointContainer@@@ATL@@QBE_NPAUIConnectionPointContainer@@@Z 100088c0 f i MICR.obj
 0001:00007910       ??9?$CComPtrBase@UIDataAdviseHolder@@@ATL@@QBE_NPAUIDataAdviseHolder@@@Z 10008910 f i MICR.obj
 0001:00007960       ??9?$CComPtrBase@UIOleAdviseHolder@@@ATL@@QBE_NPAUIOleAdviseHolder@@@Z 10008960 f i MICR.obj
 0001:000079b0       ??9?$CComPtrBase@UIOleClientSite@@@ATL@@QBE_NPAUIOleClientSite@@@Z 100089b0 f i MICR.obj
 0001:00007a00       ??9?$CComPtrBase@UIOleControlSite@@@ATL@@QBE_NPAUIOleControlSite@@@Z 10008a00 f i MICR.obj
 0001:00007a50       ??9?$CComPtrBase@UIOleInPlaceObject@@@ATL@@QBE_NPAUIOleInPlaceObject@@@Z 10008a50 f i MICR.obj
 0001:00007aa0       ??9?$CComPtrBase@UIOleInPlaceSiteWindowless@@@ATL@@QBE_NPAUIOleInPlaceSiteWindowless@@@Z 10008aa0 f i MICR.obj
 0001:00007af0       ??9?$CComPtrBase@UIOleObject@@@ATL@@QBE_NPAUIOleObject@@@Z 10008af0 f i MICR.obj
 0001:00007b40       ??9?$CComPtrBase@UIPersistStream@@@ATL@@QBE_NPAUIPersistStream@@@Z 10008b40 f i MICR.obj
 0001:00007b90       ??9?$CComPtrBase@UIPersistStreamInit@@@ATL@@QBE_NPAUIPersistStreamInit@@@Z 10008b90 f i MICR.obj
 0001:00007be0       ??9?$CComPtrBase@UIPointerInactive@@@ATL@@QBE_NPAUIPointerInactive@@@Z 10008be0 f i MICR.obj
 0001:00007c30       ??9?$CComPtrBase@UIUnknown@@@ATL@@QBE_NPAUIUnknown@@@Z 10008c30 f i MICR.obj
 0001:00007c80       ??9?$CComPtrBase@UIViewObjectEx@@@ATL@@QBE_NPAUIViewObjectEx@@@Z 10008c80 f i MICR.obj
 0001:00007cd0       ??9CComBSTR@ATL@@QBE_NH@Z  10008cd0 f i MICR.obj
 0001:00007d20       ??B?$CComPtrBase@UIAdviseSink@@@ATL@@QBEPAUIAdviseSink@@XZ 10008d20 f i MICR.obj
 0001:00007d30       ??B?$CComPtrBase@UIDataAdviseHolder@@@ATL@@QBEPAUIDataAdviseHolder@@XZ 10008d30 f i MICR.obj
 0001:00007d40       ??B?$CComPtrBase@UIDataObject@@@ATL@@QBEPAUIDataObject@@XZ 10008d40 f i MICR.obj
 0001:00007d50       ??B?$CComPtrBase@UIOleAdviseHolder@@@ATL@@QBEPAUIOleAdviseHolder@@XZ 10008d50 f i MICR.obj
 0001:00007d60       ??B?$CComPtrBase@UIOleClientSite@@@ATL@@QBEPAUIOleClientSite@@XZ 10008d60 f i MICR.obj
 0001:00007d70       ??B?$CComPtrBase@UIOleControlSite@@@ATL@@QBEPAUIOleControlSite@@XZ 10008d70 f i MICR.obj
 0001:00007d80       ??B?$CComPtrBase@UIOleInPlaceActiveObject@@@ATL@@QBEPAUIOleInPlaceActiveObject@@XZ 10008d80 f i MICR.obj
 0001:00007d90       ??B?$CComPtrBase@UIOleInPlaceFrame@@@ATL@@QBEPAUIOleInPlaceFrame@@XZ 10008d90 f i MICR.obj
 0001:00007da0       ??B?$CComPtrBase@UIOleInPlaceSiteWindowless@@@ATL@@QBEPAUIOleInPlaceSiteWindowless@@XZ 10008da0 f i MICR.obj
 0001:00007db0       ??B?$CComPtrBase@UIOleInPlaceUIWindow@@@ATL@@QBEPAUIOleInPlaceUIWindow@@XZ 10008db0 f i MICR.obj
 0001:00007dc0       ??B?$CComPtrBase@UIOleObject@@@ATL@@QBEPAUIOleObject@@XZ 10008dc0 f i MICR.obj
 0001:00007dd0       ??B?$CComPtrBase@UIPersistStream@@@ATL@@QBEPAUIPersistStream@@XZ 10008dd0 f i MICR.obj
 0001:00007de0       ??B?$CComPtrBase@UIProvideClassInfo2@@@ATL@@QBEPAUIProvideClassInfo2@@XZ 10008de0 f i MICR.obj
 0001:00007df0       ??B?$CComPtrBase@UISpecifyPropertyPages@@@ATL@@QBEPAUISpecifyPropertyPages@@XZ 10008df0 f i MICR.obj
 0001:00007e00       ??B?$CComPtrBase@UIStream@@@ATL@@QBEPAUIStream@@XZ 10008e00 f i MICR.obj
 0001:00007e10       ??B?$CComPtrBase@UITypeInfo2@@@ATL@@QBEPAUITypeInfo2@@XZ 10008e10 f i MICR.obj
 0001:00007e20       ??B?$CComPtrBase@UITypeInfo@@@ATL@@QBEPAUITypeInfo@@XZ 10008e20 f i MICR.obj
 0001:00007e30       ??B?$CComPtrBase@UITypeLib@@@ATL@@QBEPAUITypeLib@@XZ 10008e30 f i MICR.obj
 0001:00007e40       ??B?$CComPtrBase@UIUnknown@@@ATL@@QBEPAUIUnknown@@XZ 10008e40 f i MICR.obj
 0001:00007e50       ??B?$CTempBuffer@E$0BAA@VCCRTAllocator@ATL@@@ATL@@QBEPAEXZ 10008e50 f i MICR.obj
 0001:00007e60       ??B?$CTempBuffer@_W$0BAA@VCCRTAllocator@ATL@@@ATL@@QBEPA_WXZ 10008e60 f i MICR.obj
 0001:00007e70       ??B?$CTempBuffer@_W$0EAA@VCCRTAllocator@ATL@@@ATL@@QBEPA_WXZ 10008e70 f i MICR.obj
 0001:00007e80       ??B?$CTraceCategoryEx@$00$0A@@ATL@@QAEIXZ 10008e80 f i MICR.obj
 0001:00007e90       ??B?$CTraceCategoryEx@$07$0A@@ATL@@QAEIXZ 10008e90 f i MICR.obj
 0001:00007ea0       ??B?$CTraceCategoryEx@$0CAAA@$0A@@ATL@@QAEIXZ 10008ea0 f i MICR.obj
 0001:00007eb0       ??B?$CTraceCategoryEx@$0EA@$0A@@ATL@@QAEIXZ 10008eb0 f i MICR.obj
 0001:00007ec0       ??B?$CTraceCategoryEx@$0IAA@$0A@@ATL@@QAEIXZ 10008ec0 f i MICR.obj
 0001:00007ed0       ??BCComBSTR@ATL@@QBEPA_WXZ 10008ed0 f i MICR.obj
 0001:00007ee0       ??BCRegKey@ATL@@QBEPAUHKEY__@@XZ 10008ee0 f i MICR.obj
 0001:00007ef0       ??C?$CComPtrBase@UIAdviseSink@@@ATL@@QBEPAV?$_NoAddRefReleaseOnCComPtr@UIAdviseSink@@@1@XZ 10008ef0 f i MICR.obj
 0001:00007f40       ??C?$CComPtrBase@UICatRegister@@@ATL@@QBEPAV?$_NoAddRefReleaseOnCComPtr@UICatRegister@@@1@XZ 10008f40 f i MICR.obj
 0001:00007f90       ??C?$CComPtrBase@UIConnectionPoint@@@ATL@@QBEPAV?$_NoAddRefReleaseOnCComPtr@UIConnectionPoint@@@1@XZ 10008f90 f i MICR.obj
 0001:00007fe0       ??C?$CComPtrBase@UIConnectionPointContainer@@@ATL@@QBEPAV?$_NoAddRefReleaseOnCComPtr@UIConnectionPointContainer@@@1@XZ 10008fe0 f i MICR.obj
 0001:00008030       ??C?$CComPtrBase@UIDataAdviseHolder@@@ATL@@QBEPAV?$_NoAddRefReleaseOnCComPtr@UIDataAdviseHolder@@@1@XZ 10009030 f i MICR.obj
 0001:00008080       ??C?$CComPtrBase@UIOleAdviseHolder@@@ATL@@QBEPAV?$_NoAddRefReleaseOnCComPtr@UIOleAdviseHolder@@@1@XZ 10009080 f i MICR.obj
 0001:000080d0       ??C?$CComPtrBase@UIOleClientSite@@@ATL@@QBEPAV?$_NoAddRefReleaseOnCComPtr@UIOleClientSite@@@1@XZ 100090d0 f i MICR.obj
 0001:00008120       ??C?$CComPtrBase@UIOleControlSite@@@ATL@@QBEPAV?$_NoAddRefReleaseOnCComPtr@UIOleControlSite@@@1@XZ 10009120 f i MICR.obj
 0001:00008170       ??C?$CComPtrBase@UIOleInPlaceFrame@@@ATL@@QBEPAV?$_NoAddRefReleaseOnCComPtr@UIOleInPlaceFrame@@@1@XZ 10009170 f i MICR.obj
 0001:000081c0       ??C?$CComPtrBase@UIOleInPlaceObject@@@ATL@@QBEPAV?$_NoAddRefReleaseOnCComPtr@UIOleInPlaceObject@@@1@XZ 100091c0 f i MICR.obj
 0001:00008210       ??C?$CComPtrBase@UIOleInPlaceSiteWindowless@@@ATL@@QBEPAV?$_NoAddRefReleaseOnCComPtr@UIOleInPlaceSiteWindowless@@@1@XZ 10009210 f i MICR.obj
 0001:00008260       ??C?$CComPtrBase@UIOleInPlaceUIWindow@@@ATL@@QBEPAV?$_NoAddRefReleaseOnCComPtr@UIOleInPlaceUIWindow@@@1@XZ 10009260 f i MICR.obj
 0001:000082b0       ??C?$CComPtrBase@UIOleObject@@@ATL@@QBEPAV?$_NoAddRefReleaseOnCComPtr@UIOleObject@@@1@XZ 100092b0 f i MICR.obj
 0001:00008300       ??C?$CComPtrBase@UIPersistStream@@@ATL@@QBEPAV?$_NoAddRefReleaseOnCComPtr@UIPersistStream@@@1@XZ 10009300 f i MICR.obj
 0001:00008350       ??C?$CComPtrBase@UIPersistStreamInit@@@ATL@@QBEPAV?$_NoAddRefReleaseOnCComPtr@UIPersistStreamInit@@@1@XZ 10009350 f i MICR.obj
 0001:000083a0       ??C?$CComPtrBase@UIPointerInactive@@@ATL@@QBEPAV?$_NoAddRefReleaseOnCComPtr@UIPointerInactive@@@1@XZ 100093a0 f i MICR.obj
 0001:000083f0       ??C?$CComPtrBase@UIProvideClassInfo2@@@ATL@@QBEPAV?$_NoAddRefReleaseOnCComPtr@UIProvideClassInfo2@@@1@XZ 100093f0 f i MICR.obj
 0001:00008440       ??C?$CComPtrBase@UISpecifyPropertyPages@@@ATL@@QBEPAV?$_NoAddRefReleaseOnCComPtr@UISpecifyPropertyPages@@@1@XZ 10009440 f i MICR.obj
 0001:00008490       ??C?$CComPtrBase@UITypeInfo@@@ATL@@QBEPAV?$_NoAddRefReleaseOnCComPtr@UITypeInfo@@@1@XZ 10009490 f i MICR.obj
 0001:000084e0       ??C?$CComPtrBase@UITypeLib@@@ATL@@QBEPAV?$_NoAddRefReleaseOnCComPtr@UITypeLib@@@1@XZ 100094e0 f i MICR.obj
 0001:00008530       ??C?$CComPtrBase@UIUnknown@@@ATL@@QBEPAV?$_NoAddRefReleaseOnCComPtr@UIUnknown@@@1@XZ 10009530 f i MICR.obj
 0001:00008580       ??C?$CComPtrBase@UIViewObjectEx@@@ATL@@QBEPAV?$_NoAddRefReleaseOnCComPtr@UIViewObjectEx@@@1@XZ 10009580 f i MICR.obj
 0001:000085d0       ??I?$CComPtrBase@UICatRegister@@@ATL@@QAEPAPAUICatRegister@@XZ 100095d0 f i MICR.obj
 0001:00008620       ??I?$CComPtrBase@UIConnectionPoint@@@ATL@@QAEPAPAUIConnectionPoint@@XZ 10009620 f i MICR.obj
 0001:00008670       ??I?$CComPtrBase@UIConnectionPointContainer@@@ATL@@QAEPAPAUIConnectionPointContainer@@XZ 10009670 f i MICR.obj
 0001:000086c0       ??I?$CComPtrBase@UIDataAdviseHolder@@@ATL@@QAEPAPAUIDataAdviseHolder@@XZ 100096c0 f i MICR.obj
 0001:00008710       ??I?$CComPtrBase@UIDataObject@@@ATL@@QAEPAPAUIDataObject@@XZ 10009710 f i MICR.obj
 0001:00008760       ??I?$CComPtrBase@UIDispatch@@@ATL@@QAEPAPAUIDispatch@@XZ 10009760 f i MICR.obj
 0001:000087b0       ??I?$CComPtrBase@UIOleAdviseHolder@@@ATL@@QAEPAPAUIOleAdviseHolder@@XZ 100097b0 f i MICR.obj
 0001:00008800       ??I?$CComPtrBase@UIOleControlSite@@@ATL@@QAEPAPAUIOleControlSite@@XZ 10009800 f i MICR.obj
 0001:00008850       ??I?$CComPtrBase@UIOleInPlaceActiveObject@@@ATL@@QAEPAPAUIOleInPlaceActiveObject@@XZ 10009850 f i MICR.obj
 0001:000088a0       ??I?$CComPtrBase@UIOleInPlaceFrame@@@ATL@@QAEPAPAUIOleInPlaceFrame@@XZ 100098a0 f i MICR.obj
 0001:000088f0       ??I?$CComPtrBase@UIOleInPlaceObject@@@ATL@@QAEPAPAUIOleInPlaceObject@@XZ 100098f0 f i MICR.obj
 0001:00008940       ??I?$CComPtrBase@UIOleInPlaceSiteWindowless@@@ATL@@QAEPAPAUIOleInPlaceSiteWindowless@@XZ 10009940 f i MICR.obj
 0001:00008990       ??I?$CComPtrBase@UIOleInPlaceUIWindow@@@ATL@@QAEPAPAUIOleInPlaceUIWindow@@XZ 10009990 f i MICR.obj
 0001:000089e0       ??I?$CComPtrBase@UIOleObject@@@ATL@@QAEPAPAUIOleObject@@XZ 100099e0 f i MICR.obj
 0001:00008a30       ??I?$CComPtrBase@UIPersistStream@@@ATL@@QAEPAPAUIPersistStream@@XZ 10009a30 f i MICR.obj
 0001:00008a80       ??I?$CComPtrBase@UIPointerInactive@@@ATL@@QAEPAPAUIPointerInactive@@XZ 10009a80 f i MICR.obj
 0001:00008ad0       ??I?$CComPtrBase@UIProvideClassInfo2@@@ATL@@QAEPAPAUIProvideClassInfo2@@XZ 10009ad0 f i MICR.obj
 0001:00008b20       ??I?$CComPtrBase@UIStream@@@ATL@@QAEPAPAUIStream@@XZ 10009b20 f i MICR.obj
 0001:00008b70       ??I?$CComPtrBase@UITypeInfo2@@@ATL@@QAEPAPAUITypeInfo2@@XZ 10009b70 f i MICR.obj
 0001:00008bc0       ??I?$CComPtrBase@UITypeInfo@@@ATL@@QAEPAPAUITypeInfo@@XZ 10009bc0 f i MICR.obj
 0001:00008c10       ??I?$CComPtrBase@UITypeLib@@@ATL@@QAEPAPAUITypeLib@@XZ 10009c10 f i MICR.obj
 0001:00008c60       ??I?$CComPtrBase@UIUnknown@@@ATL@@QAEPAPAUIUnknown@@XZ 10009c60 f i MICR.obj
 0001:00008cb0       ??I?$CComPtrBase@UIViewObjectEx@@@ATL@@QAEPAPAUIViewObjectEx@@XZ 10009cb0 f i MICR.obj
 0001:00008d00       ??ICComBSTR@ATL@@QAEPAPA_WXZ 10009d00 f i MICR.obj
 0001:00008d0e       ??_E?$CComContainedObject@VCOPOSMICR@@@ATL@@W3AEPAXI@Z 10009d0e f i MICR.obj
 0001:00008d16       ??_E?$CComContainedObject@VCOPOSMICR@@@ATL@@WEM@AEPAXI@Z 10009d16 f i MICR.obj
 0001:00008d1e       ??_E?$CComObject@VCOPOSMICR@@@ATL@@W3AEPAXI@Z 10009d1e f i MICR.obj
 0001:00008d26       ??_E?$CComObject@VCOPOSMICR@@@ATL@@WEM@AEPAXI@Z 10009d26 f i MICR.obj
 0001:00008d30       ??_E?$CComAggObject@VCOPOSMICR@@@ATL@@UAEPAXI@Z 10009d30 f i MICR.obj
 0001:00008d30       ??_G?$CComAggObject@VCOPOSMICR@@@ATL@@UAEPAXI@Z 10009d30 f i MICR.obj
 0001:00008d80       ??_E?$CComContainedObject@VCOPOSMICR@@@ATL@@UAEPAXI@Z 10009d80 f i MICR.obj
 0001:00008d80       ??_G?$CComContainedObject@VCOPOSMICR@@@ATL@@UAEPAXI@Z 10009d80 f i MICR.obj
 0001:00008dd0       ??_G?$CComObject@V?$CComEnum@UIEnumConnectionPoints@@$1?_GUID_b196b285_bab4_101a_b69c_00aa00341d07@@3U__s_GUID@@BPAUIConnectionPoint@@V?$_CopyInterface@UIConnectionPoint@@@ATL@@VCComSingleThreadModel@6@@ATL@@@ATL@@UAEPAXI@Z 10009dd0 f i MICR.obj
 0001:00008dd0       ??_E?$CComObject@V?$CComEnum@UIEnumConnectionPoints@@$1?_GUID_b196b285_bab4_101a_b69c_00aa00341d07@@3U__s_GUID@@BPAUIConnectionPoint@@V?$_CopyInterface@UIConnectionPoint@@@ATL@@VCComSingleThreadModel@6@@ATL@@@ATL@@UAEPAXI@Z 10009dd0 f i MICR.obj
 0001:00008e10       ??_G?$CComObject@V?$CComEnum@UIEnumConnections@@$1?_GUID_b196b287_bab4_101a_b69c_00aa00341d07@@3U__s_GUID@@BUtagCONNECTDATA@@V?$_Copy@UtagCONNECTDATA@@@ATL@@VCComSingleThreadModel@6@@ATL@@@ATL@@UAEPAXI@Z 10009e10 f i MICR.obj
 0001:00008e10       ??_E?$CComObject@V?$CComEnum@UIEnumConnections@@$1?_GUID_b196b287_bab4_101a_b69c_00aa00341d07@@3U__s_GUID@@BUtagCONNECTDATA@@V?$_Copy@UtagCONNECTDATA@@@ATL@@VCComSingleThreadModel@6@@ATL@@@ATL@@UAEPAXI@Z 10009e10 f i MICR.obj
 0001:00008e50       ??_E?$CComObject@VCOPOSMICR@@@ATL@@UAEPAXI@Z 10009e50 f i MICR.obj
 0001:00008e50       ??_G?$CComObject@VCOPOSMICR@@@ATL@@UAEPAXI@Z 10009e50 f i MICR.obj
 0001:00008ea0       ??_E?$CComObjectCached@VCComClassFactory@ATL@@@ATL@@UAEPAXI@Z 10009ea0 f i MICR.obj
 0001:00008ea0       ??_G?$CComObjectCached@VCComClassFactory@ATL@@@ATL@@UAEPAXI@Z 10009ea0 f i MICR.obj
 0001:00008ee0       ??_GCComClassFactory@ATL@@UAEPAXI@Z 10009ee0 f i MICR.obj
 0001:00008ee0       ??_ECComClassFactory@ATL@@UAEPAXI@Z 10009ee0 f i MICR.obj
 0001:00008f20       ??_GCComModule@ATL@@UAEPAXI@Z 10009f20 f i MICR.obj
 0001:00008f20       ??_ECComModule@ATL@@UAEPAXI@Z 10009f20 f i MICR.obj
 0001:00008f60       ??_GCRegObject@ATL@@UAEPAXI@Z 10009f60 f i MICR.obj
 0001:00008f60       ??_ECRegObject@ATL@@UAEPAXI@Z 10009f60 f i MICR.obj
 0001:00008fa0       ?Add@?$CSimpleArray@GV?$CSimpleArrayEqualHelper@G@ATL@@@ATL@@QAEHABG@Z 10009fa0 f i MICR.obj
 0001:000090f0       ?Add@?$CSimpleMap@PA_WPA_WVCExpansionVectorEqualHelper@ATL@@@ATL@@QAEHABQA_W0@Z 1000a0f0 f i MICR.obj
 0001:000091b0       ?Add@CComDynamicUnkArray@ATL@@QAEKPAUIUnknown@@@Z 1000a1b0 f i MICR.obj
 0001:00009350       ?Add@CExpansionVector@ATL@@QAEHPB_W0@Z 1000a350 f i MICR.obj
 0001:000095e0       ?AddChar@CParseBuffer@CRegParser@ATL@@QAEHPB_W@Z 1000a5e0 f i MICR.obj
 0001:00009620       ?AddCommonRGSReplacements@?$CAtlModuleT@VCComModule@ATL@@@ATL@@UAEJPAUIRegistrarBase@@@Z 1000a620 f i MICR.obj
 0001:00009670       ?AddCreateWndData@CAtlWinModule@ATL@@QAEXPAU_AtlCreateWndData@2@PAX@Z 1000a670 f i MICR.obj
 0001:000096a0       ?AddRef@?$CComAggObject@VCOPOSMICR@@@ATL@@UAGKXZ 1000a6a0 f i MICR.obj
 0001:000096c0       ?AddRef@?$CComContainedObject@VCOPOSMICR@@@ATL@@UAGKXZ 1000a6c0 f i MICR.obj
 0001:000096dc       ?AddRef@?$CComContainedObject@VCOPOSMICR@@@ATL@@WHA@AGKXZ 1000a6dc f i MICR.obj
 0001:000096e6       ?AddRef@?$CComContainedObject@VCOPOSMICR@@@ATL@@WHE@AGKXZ 1000a6e6 f i MICR.obj
 0001:000096f0       ?AddRef@?$CComContainedObject@VCOPOSMICR@@@ATL@@WHI@AGKXZ 1000a6f0 f i MICR.obj
 0001:000096fa       ?AddRef@?$CComContainedObject@VCOPOSMICR@@@ATL@@WHM@AGKXZ 1000a6fa f i MICR.obj
 0001:00009704       ?AddRef@?$CComContainedObject@VCOPOSMICR@@@ATL@@WIA@AGKXZ 1000a704 f i MICR.obj
 0001:00009711       ?AddRef@?$CComContainedObject@VCOPOSMICR@@@ATL@@WIE@AGKXZ 1000a711 f i MICR.obj
 0001:0000971e       ?AddRef@?$CComContainedObject@VCOPOSMICR@@@ATL@@WII@AGKXZ 1000a71e f i MICR.obj
 0001:0000972b       ?AddRef@?$CComContainedObject@VCOPOSMICR@@@ATL@@WIM@AGKXZ 1000a72b f i MICR.obj
 0001:00009738       ?AddRef@?$CComContainedObject@VCOPOSMICR@@@ATL@@WJA@AGKXZ 1000a738 f i MICR.obj
 0001:00009745       ?AddRef@?$CComContainedObject@VCOPOSMICR@@@ATL@@WJE@AGKXZ 1000a745 f i MICR.obj
 0001:00009752       ?AddRef@?$CComContainedObject@VCOPOSMICR@@@ATL@@WJI@AGKXZ 1000a752 f i MICR.obj
 0001:0000975f       ?AddRef@?$CComContainedObject@VCOPOSMICR@@@ATL@@WJM@AGKXZ 1000a75f f i MICR.obj
 0001:0000976c       ?AddRef@?$CComContainedObject@VCOPOSMICR@@@ATL@@WKA@AGKXZ 1000a76c f i MICR.obj
 0001:00009779       ?AddRef@?$CComContainedObject@VCOPOSMICR@@@ATL@@WKI@AGKXZ 1000a779 f i MICR.obj
 0001:00009786       ?AddRef@?$CComContainedObject@VCOPOSMICR@@@ATL@@WLE@AGKXZ 1000a786 f i MICR.obj
 0001:000097a0       ?AddRef@?$CComObject@V?$CComEnum@UIEnumConnectionPoints@@$1?_GUID_b196b285_bab4_101a_b69c_00aa00341d07@@3U__s_GUID@@BPAUIConnectionPoint@@V?$_CopyInterface@UIConnectionPoint@@@ATL@@VCComSingleThreadModel@6@@ATL@@@ATL@@UAGKXZ 1000a7a0 f i MICR.obj
 0001:000097c0       ?AddRef@?$CComObject@V?$CComEnum@UIEnumConnections@@$1?_GUID_b196b287_bab4_101a_b69c_00aa00341d07@@3U__s_GUID@@BUtagCONNECTDATA@@V?$_Copy@UtagCONNECTDATA@@@ATL@@VCComSingleThreadModel@6@@ATL@@@ATL@@UAGKXZ 1000a7c0 f i MICR.obj
 0001:000097e0       ?AddRef@?$CComObject@VCOPOSMICR@@@ATL@@UAGKXZ 1000a7e0 f i MICR.obj
 0001:000097fc       ?AddRef@?$CComObject@VCOPOSMICR@@@ATL@@WHA@AGKXZ 1000a7fc f i MICR.obj
 0001:00009806       ?AddRef@?$CComObject@VCOPOSMICR@@@ATL@@WHE@AGKXZ 1000a806 f i MICR.obj
 0001:00009810       ?AddRef@?$CComObject@VCOPOSMICR@@@ATL@@WHI@AGKXZ 1000a810 f i MICR.obj
 0001:0000981a       ?AddRef@?$CComObject@VCOPOSMICR@@@ATL@@WHM@AGKXZ 1000a81a f i MICR.obj
 0001:00009824       ?AddRef@?$CComObject@VCOPOSMICR@@@ATL@@WIA@AGKXZ 1000a824 f i MICR.obj
 0001:00009831       ?AddRef@?$CComObject@VCOPOSMICR@@@ATL@@WIE@AGKXZ 1000a831 f i MICR.obj
 0001:0000983e       ?AddRef@?$CComObject@VCOPOSMICR@@@ATL@@WII@AGKXZ 1000a83e f i MICR.obj
 0001:0000984b       ?AddRef@?$CComObject@VCOPOSMICR@@@ATL@@WIM@AGKXZ 1000a84b f i MICR.obj
 0001:00009858       ?AddRef@?$CComObject@VCOPOSMICR@@@ATL@@WJA@AGKXZ 1000a858 f i MICR.obj
 0001:00009865       ?AddRef@?$CComObject@VCOPOSMICR@@@ATL@@WJE@AGKXZ 1000a865 f i MICR.obj
 0001:00009872       ?AddRef@?$CComObject@VCOPOSMICR@@@ATL@@WJI@AGKXZ 1000a872 f i MICR.obj
 0001:0000987f       ?AddRef@?$CComObject@VCOPOSMICR@@@ATL@@WJM@AGKXZ 1000a87f f i MICR.obj
 0001:0000988c       ?AddRef@?$CComObject@VCOPOSMICR@@@ATL@@WKA@AGKXZ 1000a88c f i MICR.obj
 0001:00009899       ?AddRef@?$CComObject@VCOPOSMICR@@@ATL@@WKI@AGKXZ 1000a899 f i MICR.obj
 0001:000098a6       ?AddRef@?$CComObject@VCOPOSMICR@@@ATL@@WLE@AGKXZ 1000a8a6 f i MICR.obj
 0001:000098c0       ?AddRef@?$CComObjectCached@VCComClassFactory@ATL@@@ATL@@UAGKXZ 1000a8c0 f i MICR.obj
 0001:00009910       ?AddRef@CRegObject@ATL@@UAGKXZ 1000a910 f i MICR.obj
 0001:00009960       ?AddReplacement@CRegObject@ATL@@UAGJPB_W0@Z 1000a960 f i MICR.obj
 0001:00009a70       ?AddString@CParseBuffer@CRegParser@ATL@@QAEHPB_W@Z 1000aa70 f i MICR.obj
 0001:00009b60       ?AddTermFunc@CAtlModule@ATL@@QAEJP6GXK@ZK@Z 1000ab60 f i MICR.obj
 0001:00009bb0       ?AddValue@CRegParser@ATL@@IAEJAAVCRegKey@2@PB_WPA_W@Z 1000abb0 f i MICR.obj
 0001:0000a340       ?Advise@?$CProxy_IOPOSEvents@VCOPOSMICR@@@@UAGJPAUIUnknown@@PAK@Z 1000b340 f i MICR.obj
 0001:0000a390       ?Advise@?$IConnectionPointImpl@VCOPOSMICR@@$1?DIID__IOPOSMICREvents@@3U_GUID@@BVCComDynamicUnkArray@ATL@@@ATL@@UAGJPAUIUnknown@@PAK@Z 1000b390 f i MICR.obj
 0001:0000a530       ?Advise@?$IConnectionPointImpl@VCOPOSMICR@@$1?IID_IPropertyNotifySink@@3U_GUID@@BVCComDynamicUnkArray@ATL@@@ATL@@UAGJPAUIUnknown@@PAK@Z 1000b530 f i MICR.obj
 0001:0000a6d0       ?Advise@?$IOleObjectImpl@VCOPOSMICR@@@ATL@@UAGJPAUIAdviseSink@@PAK@Z 1000b6d0 f i MICR.obj
 0001:0000a760       ?Allocate@?$CAtlSafeAllocBufferManager@VCCRTAllocator@ATL@@@_ATL_SAFE_ALLOCA_IMPL@ATL@@QAEPAXK@Z 1000b760 f i MICR.obj
 0001:0000a7d0       ?Allocate@?$CTempBuffer@E$0BAA@VCCRTAllocator@ATL@@@ATL@@QAEPAEI@Z 1000b7d0 f i MICR.obj
 0001:0000a810       ?Allocate@?$CTempBuffer@_W$0BAA@VCCRTAllocator@ATL@@@ATL@@QAEPA_WI@Z 1000b810 f i MICR.obj
 0001:0000a850       ?Allocate@?$CTempBuffer@_W$0EAA@VCCRTAllocator@ATL@@@ATL@@QAEPA_WI@Z 1000b850 f i MICR.obj
 0001:0000a890       ?AllocateBytes@?$CTempBuffer@E$0BAA@VCCRTAllocator@ATL@@@ATL@@QAEPAEI@Z 1000b890 f i MICR.obj
 0001:0000a910       ?AllocateBytes@?$CTempBuffer@_W$0BAA@VCCRTAllocator@ATL@@@ATL@@QAEPA_WI@Z 1000b910 f i MICR.obj
 0001:0000a990       ?AllocateBytes@?$CTempBuffer@_W$0EAA@VCCRTAllocator@ATL@@@ATL@@QAEPA_WI@Z 1000b990 f i MICR.obj
 0001:0000aa10       ?AllocateHeap@?$CTempBuffer@E$0BAA@VCCRTAllocator@ATL@@@ATL@@AAEXI@Z 1000ba10 f i MICR.obj
 0001:0000aa60       ?AllocateHeap@?$CTempBuffer@_W$0BAA@VCCRTAllocator@ATL@@@ATL@@AAEXI@Z 1000ba60 f i MICR.obj
 0001:0000aab0       ?AllocateHeap@?$CTempBuffer@_W$0EAA@VCCRTAllocator@ATL@@@ATL@@AAEXI@Z 1000bab0 f i MICR.obj
 0001:0000ab00       ?Append@CParseBuffer@CRegParser@ATL@@QAEHPB_WH@Z 1000bb00 f i MICR.obj
 0001:0000aca0       ?AtlCallTermFunc@ATL@@YGXPAU_ATL_MODULE70@1@@Z 1000bca0 f i MICR.obj
 0001:0000ad40       ?AtlCoTaskMemCAlloc@ATL@@YAPAXKK@Z 1000bd40 f i MICR.obj
 0001:0000add0       ?AtlCoTaskMemRecalloc@ATL@@YAPAXPAXKK@Z 1000bdd0 f i MICR.obj
 0001:0000ae70       ?AtlComModuleGetClassObject@ATL@@YGJPAU_ATL_COM_MODULE70@1@ABU_GUID@@1PAPAX@Z 1000be70 f i MICR.obj
 0001:0000b100       ?AtlComModuleRegisterServer@ATL@@YGJPAU_ATL_COM_MODULE70@1@HPBU_GUID@@@Z 1000c100 f i MICR.obj
 0001:0000b290       ?AtlComModuleUnregisterServer@ATL@@YGJPAU_ATL_COM_MODULE70@1@HPBU_GUID@@@Z 1000c290 f i MICR.obj
 0001:0000b3c0       ?AtlComQIPtrAssign2@ATL@@YAXPAPAUIUnknown@@PAU2@ABU_GUID@@@Z 1000c3c0 f i MICR.obj
 0001:0000b440       ?AtlCreateTargetDC@ATL@@YGPAUHDC__@@PAU2@PAUtagDVTARGETDEVICE@@@Z 1000c440 f i MICR.obj
 0001:0000b5e0       ?AtlCrtErrorCheck@ATL@@YAHH@Z 1000c5e0 f i MICR.obj
 0001:0000b6b0       ?AtlGetPerUserRegistration@ATL@@YGJPA_N@Z 1000c6b0 f i MICR.obj
 0001:0000b6e0       ?AtlHiMetricToPixel@ATL@@YGXPBUtagSIZE@@PAU2@@Z 1000c6e0 f i MICR.obj
 0001:0000b8b0       ?AtlHresultFromLastError@ATL@@YAJXZ 1000c8b0 f i MICR.obj
 0001:0000b8f0       ?AtlHresultFromWin32@ATL@@YAJK@Z 1000c8f0 f i MICR.obj
 0001:0000b910       ?AtlIPersistStreamInit_Load@ATL@@YGJPAUIStream@@PBUATL_PROPMAP_ENTRY@1@PAXPAUIUnknown@@@Z 1000c910 f i MICR.obj
 0001:0000bd70       ?AtlIPersistStreamInit_Save@ATL@@YGJPAUIStream@@HPBUATL_PROPMAP_ENTRY@1@PAXPAUIUnknown@@@Z 1000cd70 f i MICR.obj
 0001:0000c150       ?AtlInternalOleLoadFromStream@ATL@@YAJPAUIStream@@ABU_GUID@@PAPAXTClassesAllowedInStream@1@K@Z 1000d150 f i MICR.obj
 0001:0000c3f0       ?AtlInternalQueryInterface@ATL@@YGJPAXPBU_ATL_INTMAP_ENTRY@1@ABU_GUID@@PAPAX@Z 1000d3f0 f i MICR.obj
 0001:0000c620       ?AtlLoadTypeLib@ATL@@YGJPAUHINSTANCE__@@PB_WPAPA_WPAPAUITypeLib@@@Z 1000d620 f i MICR.obj
 0001:0000ca80       ?AtlModuleAddTermFunc@ATL@@YGJPAU_ATL_MODULE70@1@P6GXK@ZK@Z 1000da80 f i MICR.obj
 0001:0000cbe0       ?AtlRegisterClassCategoriesHelper@ATL@@YGJABU_GUID@@PBU_ATL_CATMAP_ENTRY@1@H@Z 1000dbe0 f i MICR.obj
 0001:0000d2c0       ?AtlRegisterTypeLib@ATL@@YGJPAUHINSTANCE__@@PB_W@Z 1000e2c0 f i MICR.obj
 0001:0000d600       ?AtlThrowImpl@ATL@@YGXJ@Z  1000e600 f i MICR.obj
 0001:0000d6b0       ?AtlUnRegisterTypeLib@ATL@@YGJPAUHINSTANCE__@@PB_W@Z 1000e6b0 f i MICR.obj
 0001:0000d8c0       ?AtlWinModuleAddCreateWndData@ATL@@YGXPAU_ATL_WIN_MODULE70@1@PAU_AtlCreateWndData@1@PAX@Z 1000e8c0 f i MICR.obj
 0001:0000da30       ?AtlWinModuleExtractCreateWndData@ATL@@YGPAXPAU_ATL_WIN_MODULE70@1@@Z 1000ea30 f i MICR.obj
 0001:0000dbb0       ?AtlWinModuleRegisterClassExW@ATL@@YGGPAU_ATL_WIN_MODULE70@1@PBUtagWNDCLASSEXW@@@Z 1000ebb0 f i MICR.obj
 0001:0000dc80       ?AtlWinModuleRegisterWndClassInfoW@ATL@@YGGPAU_ATL_WIN_MODULE70@1@PAU_ATL_BASE_MODULE70@1@PAU_ATL_WNDCLASSINFOW@1@PAP6GJPAUHWND__@@IIJ@Z@Z 1000ec80 f i MICR.obj
 0001:0000dd10       ?Attach@?$CAutoVectorPtr@_W@ATL@@QAEXPA_W@Z 1000ed10 f i MICR.obj
 0001:0000dd70       ?Attach@CComBSTR@ATL@@QAEXPA_W@Z 1000ed70 f i MICR.obj
 0001:0000ddc0       ?Attach@CRegKey@ATL@@QAEXPAUHKEY__@@@Z 1000edc0 f i MICR.obj
 0001:0000de30       ?CanForceRemoveKey@CRegParser@ATL@@IAEHPB_W@Z 1000ee30 f i MICR.obj
 0001:0000dea0       ?ChToByte@CRegParser@ATL@@KAE_W@Z 1000eea0 f i MICR.obj
 0001:0000dfc0       ?ChangeType@CComVariant@ATL@@QAEJGPBUtagVARIANT@@@Z 1000efc0 f i MICR.obj
 0001:0000e020       ?Cleanup@CComTypeInfoHolder@ATL@@SGXK@Z 1000f020 f i MICR.obj
 0001:0000e0f0       ?Clear@CComVariant@ATL@@QAEJXZ 1000f0f0 f i MICR.obj
 0001:0000e130       ?ClearReplacements@CExpansionVector@ATL@@QAEJXZ 1000f130 f i MICR.obj
 0001:0000e1c0       ?ClearReplacements@CRegObject@ATL@@UAGJXZ 1000f1c0 f i MICR.obj
 0001:0000e210       ?Clone@?$CComEnumImpl@UIEnumConnectionPoints@@$1?_GUID_b196b285_bab4_101a_b69c_00aa00341d07@@3U__s_GUID@@BPAUIConnectionPoint@@V?$_CopyInterface@UIConnectionPoint@@@ATL@@@ATL@@UAGJPAPAUIEnumConnectionPoints@@@Z 1000f210 f i MICR.obj
 0001:0000e380       ?Clone@?$CComEnumImpl@UIEnumConnections@@$1?_GUID_b196b287_bab4_101a_b69c_00aa00341d07@@3U__s_GUID@@BUtagCONNECTDATA@@V?$_Copy@UtagCONNECTDATA@@@ATL@@@ATL@@UAGJPAPAUIEnumConnections@@@Z 1000f380 f i MICR.obj
 0001:0000e4f0       ?Close@?$IOleObjectImpl@VCOPOSMICR@@@ATL@@UAGJK@Z 1000f4f0 f i MICR.obj
 0001:0000e580       ?Close@CRegKey@ATL@@QAEJXZ 1000f580 f i MICR.obj
 0001:0000e5f0       ?ContextSensitiveHelp@?$IOleInPlaceActiveObjectImpl@VCOPOSMICR@@@ATL@@UAGJH@Z 1000f5f0 f i MICR.obj
 0001:0000e660       ?ContextSensitiveHelp@?$IOleInPlaceObjectWindowlessImpl@VCOPOSMICR@@@ATL@@UAGJH@Z 1000f660 f i MICR.obj
 0001:0000e6d0       ?ControlQueryInterface@?$CComControl@VCOPOSMICR@@V?$CWindowImpl@VCOPOSMICR@@VCWindow@ATL@@V?$CWinTraits@$0FGAAAAAA@$0A@@3@@ATL@@@ATL@@UAEJABU_GUID@@PAPAX@Z 1000f6d0 f i MICR.obj
 0001:0000e750       ?CreateControlWindow@?$CComControl@VCOPOSMICR@@V?$CWindowImpl@VCOPOSMICR@@VCWindow@ATL@@V?$CWinTraits@$0FGAAAAAA@$0A@@3@@ATL@@@ATL@@UAEPAUHWND__@@PAU3@AAUtagRECT@@@Z 1000f750 f i MICR.obj
 0001:0000e7d0       ?CreateInstance@?$CComCreator@V?$CComAggObject@VCOPOSMICR@@@ATL@@@ATL@@SGJPAXABU_GUID@@PAPAX@Z 1000f7d0 f i MICR.obj
 0001:0000e950       ?CreateInstance@?$CComCreator@V?$CComObject@VCOPOSMICR@@@ATL@@@ATL@@SGJPAXABU_GUID@@PAPAX@Z 1000f950 f i MICR.obj
 0001:0000eae0       ?CreateInstance@?$CComObject@V?$CComEnum@UIEnumConnectionPoints@@$1?_GUID_b196b285_bab4_101a_b69c_00aa00341d07@@3U__s_GUID@@BPAUIConnectionPoint@@V?$_CopyInterface@UIConnectionPoint@@@ATL@@VCComSingleThreadModel@6@@ATL@@@ATL@@SGJPAPAV12@@Z 1000fae0 f i MICR.obj
 0001:0000ec50       ?CreateInstance@?$CComObject@V?$CComEnum@UIEnumConnections@@$1?_GUID_b196b287_bab4_101a_b69c_00aa00341d07@@3U__s_GUID@@BUtagCONNECTDATA@@V?$_Copy@UtagCONNECTDATA@@@ATL@@VCComSingleThreadModel@6@@ATL@@@ATL@@SGJPAPAV12@@Z 1000fc50 f i MICR.obj
 0001:0000edc0       ?CreateInstance@CComClassFactory@ATL@@UAGJPAUIUnknown@@ABU_GUID@@PAPAX@Z 1000fdc0 f i MICR.obj
 0001:0000eeb0       ?DAdvise@?$IDataObjectImpl@VCOPOSMICR@@@ATL@@UAGJPAUtagFORMATETC@@KPAUIAdviseSink@@PAK@Z 1000feb0 f i MICR.obj
 0001:0000efb0       ?DEVMODEOLE2T_EX@@YAPAU_devicemodeW@@PAU1@@Z 1000ffb0 f i MICR.obj
 0001:0000efc0       ?DUnadvise@?$IDataObjectImpl@VCOPOSMICR@@@ATL@@UAGJK@Z 1000ffc0 f i MICR.obj
 0001:0000f090       ?Decrement@CComMultiThreadModel@ATL@@SGKPAJ@Z 10010090 f i MICR.obj
 0001:0000f0b0       ?Decrement@CComSingleThreadModel@ATL@@SGKPAJ@Z 100100b0 f i MICR.obj
 0001:0000f0d0       ?DefWindowProcW@?$CWindowImplBaseT@VCWindow@ATL@@V?$CWinTraits@$0FGAAAAAA@$0A@@2@@ATL@@QAEJIIJ@Z 100100d0 f i MICR.obj
 0001:0000f120       ?DefaultReflectionHandler@?$CWindowImplRoot@VCWindow@ATL@@@ATL@@SAHPAUHWND__@@IIJAAJ@Z 10010120 f i MICR.obj
 0001:0000f3b0       ?DeleteSubKey@CRegKey@ATL@@QAEJPB_W@Z 100103b0 f i MICR.obj
 0001:0000f4c0       ?DeleteValue@CRegKey@ATL@@QAEJPB_W@Z 100104c0 f i MICR.obj
 0001:0000f530       ?Detach@?$CAutoVectorPtr@_W@ATL@@QAEPA_WXZ 10010530 f i MICR.obj
 0001:0000f560       ?Detach@?$CComPtrBase@UIPersistStream@@@ATL@@QAEPAUIPersistStream@@XZ 10010560 f i MICR.obj
 0001:0000f590       ?Detach@?$CComPtrBase@UITypeInfo@@@ATL@@QAEPAUITypeInfo@@XZ 10010590 f i MICR.obj
 0001:0000f5c0       ?Detach@?$CComPtrBase@UIUnknown@@@ATL@@QAEPAUIUnknown@@XZ 100105c0 f i MICR.obj
 0001:0000f5f0       ?Detach@CComBSTR@ATL@@QAEPA_WXZ 100105f0 f i MICR.obj
 0001:0000f620       ?Detach@CParseBuffer@CRegParser@ATL@@QAEPA_WXZ 10010620 f i MICR.obj
 0001:0000f660       ?Detach@CRegKey@ATL@@QAEPAUHKEY__@@XZ 10010660 f i MICR.obj
 0001:0000f6a0       ?DoEvent@COPOSMICR@@IAEXIIJ@Z 100106a0 f i MICR.obj
 0001:0000f7e0       ?DoVerb@?$IOleObjectImpl@VCOPOSMICR@@@ATL@@UAGJJPAUtagMSG@@PAUIOleClientSite@@JPAUHWND__@@PBUtagRECT@@@Z 100107e0 f i MICR.obj
 0001:0000f9f0       ?DoVerbDiscardUndo@?$IOleObjectImpl@VCOPOSMICR@@@ATL@@QAEJPBUtagRECT@@PAUHWND__@@@Z 100109f0 f i MICR.obj
 0001:0000fa60       ?DoVerbHide@?$IOleObjectImpl@VCOPOSMICR@@@ATL@@QAEJPBUtagRECT@@PAUHWND__@@@Z 10010a60 f i MICR.obj
 0001:0000fb10       ?DoVerbInPlaceActivate@?$IOleObjectImpl@VCOPOSMICR@@@ATL@@QAEJPBUtagRECT@@PAUHWND__@@@Z 10010b10 f i MICR.obj
 0001:0000fbb0       ?DoVerbOpen@?$IOleObjectImpl@VCOPOSMICR@@@ATL@@QAEJPBUtagRECT@@PAUHWND__@@@Z 10010bb0 f i MICR.obj
 0001:0000fc20       ?DoVerbPrimary@?$IOleObjectImpl@VCOPOSMICR@@@ATL@@QAEJPBUtagRECT@@PAUHWND__@@@Z 10010c20 f i MICR.obj
 0001:0000fd30       ?DoVerbProperties@CComControlBase@ATL@@QAEJPBUtagRECT@@PAUHWND__@@@Z 10010d30 f i MICR.obj
 0001:00010050       ?DoVerbShow@?$IOleObjectImpl@VCOPOSMICR@@@ATL@@QAEJPBUtagRECT@@PAUHWND__@@@Z 10011050 f i MICR.obj
 0001:000100e0       ?DoVerbUIActivate@?$IOleObjectImpl@VCOPOSMICR@@@ATL@@QAEJPBUtagRECT@@PAUHWND__@@@Z 100110e0 f i MICR.obj
 0001:00010180       ?DoesVerbActivate@CComControlBase@ATL@@QAEHJ@Z 10011180 f i MICR.obj
 0001:000101e0       ?DoesVerbUIActivate@CComControlBase@ATL@@QAEHJ@Z 100111e0 f i MICR.obj
 0001:00010260       ?Draw@?$IViewObjectExImpl@VCOPOSMICR@@@ATL@@UAGJKJPAXPAUtagDVTARGETDEVICE@@PAUHDC__@@2PBU_RECTL@@3P6GHK@ZK@Z 10011260 f i MICR.obj
 0001:00010300       ?Empty@CComBSTR@ATL@@QAEXXZ 10011300 f i MICR.obj
 0001:00010340       ?EnableModeless@?$IOleInPlaceActiveObjectImpl@VCOPOSMICR@@@ATL@@UAGJH@Z 10011340 f i MICR.obj
 0001:000103a0       ?EndOfVar@CRegParser@ATL@@IAEHXZ 100113a0 f i MICR.obj
 0001:00010410       ?EnsureTI@CComTypeInfoHolder@ATL@@QAEJK@Z 10011410 f i MICR.obj
 0001:00010470       ?EnumAdvise@?$IOleObjectImpl@VCOPOSMICR@@@ATL@@UAGJPAPAUIEnumSTATDATA@@@Z 10011470 f i MICR.obj
 0001:00010580       ?EnumConnectionPoints@?$IConnectionPointContainerImpl@VCOPOSMICR@@@ATL@@UAGJPAPAUIEnumConnectionPoints@@@Z 10011580 f i MICR.obj
 0001:000109b0       ?EnumConnections@?$IConnectionPointImpl@VCOPOSMICR@@$1?DIID__IOPOSMICREvents@@3U_GUID@@BVCComDynamicUnkArray@ATL@@@ATL@@UAGJPAPAUIEnumConnections@@@Z 100119b0 f i MICR.obj
 0001:00010c00       ?EnumConnections@?$IConnectionPointImpl@VCOPOSMICR@@$1?IID_IPropertyNotifySink@@3U_GUID@@BVCComDynamicUnkArray@ATL@@@ATL@@UAGJPAPAUIEnumConnections@@@Z 10011c00 f i MICR.obj
 0001:00010e50       ?EnumDAdvise@?$IDataObjectImpl@VCOPOSMICR@@@ATL@@UAGJPAPAUIEnumSTATDATA@@@Z 10011e50 f i MICR.obj
 0001:00010f50       ?EnumFormatEtc@?$IDataObjectImpl@VCOPOSMICR@@@ATL@@UAGJKPAPAUIEnumFORMATETC@@@Z 10011f50 f i MICR.obj
 0001:00010fc0       ?EnumVerbs@?$IOleObjectImpl@VCOPOSMICR@@@ATL@@UAGJPAPAUIEnumOLEVERB@@@Z 10011fc0 f i MICR.obj
 0001:00011070       ?EscapeSingleQuote@CAtlModule@ATL@@SAXPA_WIPB_W@Z 10012070 f i MICR.obj
 0001:00011110       ?ExtractCreateWndData@CAtlWinModule@ATL@@QAEPAXXZ 10012110 f i MICR.obj
 0001:00011140       ?FAccessAllowed@?$IObjectSafetyImpl@VCOPOSMICR@@$02@ATL@@MAEHXZ 10012140 f i MICR.obj
 0001:00011150       ?FinalConstruct@?$CComAggObject@VCOPOSMICR@@@ATL@@QAEJXZ 10012150 f i MICR.obj
 0001:00011190       ?FinalConstruct@CComObjectRootBase@ATL@@QAEJXZ 10012190 f i MICR.obj
 0001:000111a0       ?FinalConstruct@CRegObject@ATL@@QAEJXZ 100121a0 f i MICR.obj
 0001:000111d0       ?FinalRelease@?$CComAggObject@VCOPOSMICR@@@ATL@@QAEXXZ 100121d0 f i MICR.obj
 0001:00011210       ?FinalRelease@CComObjectRootBase@ATL@@QAEXXZ 10012210 f i MICR.obj
 0001:00011220       ?FindConnectionPoint@?$IConnectionPointContainerImpl@VCOPOSMICR@@@ATL@@UAGJABU_GUID@@PAPAUIConnectionPoint@@@Z 10012220 f i MICR.obj
 0001:00011370       ?FindKey@?$CSimpleMap@PA_WPA_WVCExpansionVectorEqualHelper@ATL@@@ATL@@QBEHABQA_W@Z 10012370 f i MICR.obj
 0001:000113e0       ?FireTheEvent@?$CProxy_IOPOSEvents@VCOPOSMICR@@@@IAEXPAUIUnknown@@PAVOposVariant@@IAAJPB_WJ@Z 100123e0 f i MICR.obj
 0001:00011550       ?FireViewChange@CComControlBase@ATL@@QAEJXZ 10012550 f i MICR.obj
 0001:00011610       ?Fire_DataEvent@?$CProxy_IOPOSEvents@VCOPOSMICR@@@@QAEXJ@Z 10012610 f i MICR.obj
 0001:00011770       ?Fire_DirectIOEvent@?$CProxy_IOPOSEvents@VCOPOSMICR@@@@QAEXJPAJPAPA_W@Z 10012770 f i MICR.obj
 0001:00011940       ?Fire_ErrorEvent@?$CProxy_IOPOSEvents@VCOPOSMICR@@@@QAEXJJJPAJ@Z 10012940 f i MICR.obj
 0001:00011b30       ?Fire_StatusUpdateEvent@?$CProxy_IOPOSEvents@VCOPOSMICR@@@@QAEXJ@Z 10012b30 f i MICR.obj
 0001:00011c90       ?FormatWindowClassName@AtlModuleRegisterWndClassInfoParamW@ATL@@SAXPA_WKPAX@Z 10012c90 f i MICR.obj
 0001:00011cc0       ?Free@?$CAutoVectorPtr@_W@ATL@@QAEXXZ 10012cc0 f i MICR.obj
 0001:00011d10       ?FreeHeap@?$CTempBuffer@E$0BAA@VCCRTAllocator@ATL@@@ATL@@AAEXXZ 10012d10 f i MICR.obj
 0001:00011d40       ?FreeHeap@?$CTempBuffer@_W$0BAA@VCCRTAllocator@ATL@@@ATL@@AAEXXZ 10012d40 f i MICR.obj
 0001:00011d70       ?FreeHeap@?$CTempBuffer@_W$0EAA@VCCRTAllocator@ATL@@@ATL@@AAEXXZ 10012d70 f i MICR.obj
 0001:00011da0       ?Freeze@?$IViewObjectExImpl@VCOPOSMICR@@@ATL@@UAGJKJPAXPAK@Z 10012da0 f i MICR.obj
 0001:00011e10       ?GenerateError@CRegParser@ATL@@IAEJI@Z 10012e10 f i MICR.obj
 0001:00011e30       ?GetAdvise@?$IViewObjectExImpl@VCOPOSMICR@@@ATL@@UAGJPAK0PAPAUIAdviseSink@@@Z 10012e30 f i MICR.obj
 0001:00011f30       ?GetAmbientLocaleID@CComControlBase@ATL@@QAEJAAK@Z 10012f30 f i MICR.obj
 0001:00012010       ?GetAmbientProperty@CComControlBase@ATL@@QAEJJAAUtagVARIANT@@@Z 10013010 f i MICR.obj
 0001:00012060       ?GetAmbientUserMode@CComControlBase@ATL@@QAEJAAH@Z 10013060 f i MICR.obj
 0001:00012160       ?GetAppId@?$CAtlModuleT@VCComModule@ATL@@@ATL@@SAPB_WXZ 10013160 f i MICR.obj
 0001:00012170       ?GetAt@CComDynamicUnkArray@ATL@@QAEPAUIUnknown@@H@Z 10013170 f i MICR.obj
 0001:000121f0       ?GetCanonicalFormatEtc@?$IDataObjectImpl@VCOPOSMICR@@@ATL@@UAGJPAUtagFORMATETC@@0@Z 100131f0 f i MICR.obj
 0001:00012260       ?GetClassID@?$IPersistStorageImpl@VCOPOSMICR@@@ATL@@UAGJPAU_GUID@@@Z 10013260 f i MICR.obj
 0001:000122e0       ?GetClassID@?$IPersistStreamInitImpl@VCOPOSMICR@@@ATL@@UAGJPAU_GUID@@@Z 100132e0 f i MICR.obj
 0001:00012360       ?GetClassInfoExW@AtlModuleRegisterWndClassInfoParamW@ATL@@SAHPAUHINSTANCE__@@PB_WPAUtagWNDCLASSEXW@@@Z 10013360 f i MICR.obj
 0001:00012390       ?GetClassInfoW@?$IProvideClassInfo2Impl@$1?CLSID_OPOSMICR@@3U_GUID@@B$1?DIID__IOPOSMICREvents@@3U2@B$1?LIBID_OposMICR_CCO@@3U2@B$00$0A@VCComTypeInfoHolder@ATL@@@ATL@@UAGJPAPAUITypeInfo@@@Z 10013390 f i MICR.obj
 0001:000123b0       ?GetClassObject@CComModule@ATL@@QAEJABU_GUID@@0PAPAX@Z 100133b0 f i MICR.obj
 0001:000125b0       ?GetClientSite@?$IOleObjectImpl@VCOPOSMICR@@@ATL@@UAGJPAPAUIOleClientSite@@@Z 100135b0 f i MICR.obj
 0001:00012640       ?GetClipboardData@?$IOleObjectImpl@VCOPOSMICR@@@ATL@@UAGJKPAPAUIDataObject@@@Z 10013640 f i MICR.obj
 0001:000126b0       ?GetCodeAddress@CDynamicStdCallThunk2@ATL@@QAEPAXXZ 100136b0 f i MICR.obj
 0001:000126e0       ?GetColorSet@?$IViewObjectExImpl@VCOPOSMICR@@@ATL@@UAGJKJPAXPAUtagDVTARGETDEVICE@@PAUHDC__@@PAPAUtagLOGPALETTE@@@Z 100136e0 f i MICR.obj
 0001:00012750       ?GetConnMap@COPOSMICR@@SAPBU_ATL_CONNMAP_ENTRY@ATL@@PAH@Z 10013750 f i MICR.obj
 0001:00012890       ?GetConnectionInterface@?$IConnectionPointImpl@VCOPOSMICR@@$1?DIID__IOPOSMICREvents@@3U_GUID@@BVCComDynamicUnkArray@ATL@@@ATL@@UAGJPAU_GUID@@@Z 10013890 f i MICR.obj
 0001:000128d0       ?GetConnectionInterface@?$IConnectionPointImpl@VCOPOSMICR@@$1?IID_IPropertyNotifySink@@3U_GUID@@BVCComDynamicUnkArray@ATL@@@ATL@@UAGJPAU_GUID@@@Z 100138d0 f i MICR.obj
 0001:00012910       ?GetConnectionPointContainer@?$IConnectionPointImpl@VCOPOSMICR@@$1?DIID__IOPOSMICREvents@@3U_GUID@@BVCComDynamicUnkArray@ATL@@@ATL@@UAGJPAPAUIConnectionPointContainer@@@Z 10013910 f i MICR.obj
 0001:00012980       ?GetConnectionPointContainer@?$IConnectionPointImpl@VCOPOSMICR@@$1?IID_IPropertyNotifySink@@3U_GUID@@BVCComDynamicUnkArray@ATL@@@ATL@@UAGJPAPAUIConnectionPointContainer@@@Z 10013980 f i MICR.obj
 0001:000129f0       ?GetContentExtent@?$IQuickActivateImpl@VCOPOSMICR@@@ATL@@UAGJPAUtagSIZE@@@Z 100139f0 f i MICR.obj
 0001:00012a80       ?GetControlInfo@?$IOleControlImpl@VCOPOSMICR@@@ATL@@UAGJPAUtagCONTROLINFO@@@Z 10013a80 f i MICR.obj
 0001:00012af0       ?GetCookie@CComDynamicUnkArray@ATL@@QAGKPAPAUIUnknown@@@Z 10013af0 f i MICR.obj
 0001:00012bb0       ?GetData@?$IDataObjectImpl@VCOPOSMICR@@@ATL@@UAGJPAUtagFORMATETC@@PAUtagSTGMEDIUM@@@Z 10013bb0 f i MICR.obj
 0001:00012c40       ?GetData@CAtlSafeAllocBufferNode@?$CAtlSafeAllocBufferManager@VCCRTAllocator@ATL@@@_ATL_SAFE_ALLOCA_IMPL@ATL@@QAEPAXXZ 10013c40 f i MICR.obj
 0001:00012c60       ?GetDataHere@?$IDataObjectImpl@VCOPOSMICR@@@ATL@@UAGJPAUtagFORMATETC@@PAUtagSTGMEDIUM@@@Z 10013c60 f i MICR.obj
 0001:00012cd0       ?GetDropTarget@?$IOleInPlaceObjectWindowlessImpl@VCOPOSMICR@@@ATL@@UAGJPAPAUIDropTarget@@@Z 10013cd0 f i MICR.obj
 0001:00012d40       ?GetExtent@?$IOleObjectImpl@VCOPOSMICR@@@ATL@@UAGJKPAUtagSIZE@@@Z 10013d40 f i MICR.obj
 0001:00012de0       ?GetExtent@?$IViewObjectExImpl@VCOPOSMICR@@@ATL@@UAGJKJPAUtagDVTARGETDEVICE@@PAUtagSIZE@@@Z 10013de0 f i MICR.obj
 0001:00012eb0       ?GetGITPtr@CAtlModule@ATL@@UAEJPAPAUIGlobalInterfaceTable@@@Z 10013eb0 f i MICR.obj
 0001:00012fb0       ?GetGUID@?$IProvideClassInfo2Impl@$1?CLSID_OPOSMICR@@3U_GUID@@B$1?DIID__IOPOSMICREvents@@3U2@B$1?LIBID_OposMICR_CCO@@3U2@B$00$0A@VCComTypeInfoHolder@ATL@@@ATL@@UAGJKPAU_GUID@@@Z 10013fb0 f i MICR.obj
 0001:00013030       ?GetIDsOfNames@?$IDispatchImpl@UIOPOSMICR@@$1?IID_IOPOSMICR@@3U_GUID@@B$1?LIBID_OposMICR_CCO@@3U3@B$00$0A@VCComTypeInfoHolder@ATL@@@ATL@@UAGJABU_GUID@@PAPA_WIKPAJ@Z 10014030 f i MICR.obj
 0001:00013060       ?GetIDsOfNames@CComTypeInfoHolder@ATL@@QAEJABU_GUID@@PAPA_WIKPAJ@Z 10014060 f i MICR.obj
 0001:00013210       ?GetInterfaceSafetyOptions@?$IObjectSafetyImpl@VCOPOSMICR@@$02@ATL@@UAGJABU_GUID@@PAK1@Z 10014210 f i MICR.obj
 0001:00013380       ?GetKeyAt@?$CSimpleMap@PA_WPA_WVCExpansionVectorEqualHelper@ATL@@@ATL@@QBEAAPA_WH@Z 10014380 f i MICR.obj
 0001:00013400       ?GetLockCount@CAtlModule@ATL@@UAEJXZ 10014400 f i MICR.obj
 0001:00013420       ?GetMiscStatus@?$IOleObjectImpl@VCOPOSMICR@@@ATL@@UAGJKPAK@Z 10014420 f i MICR.obj
 0001:00013490       ?GetMoniker@?$IOleObjectImpl@VCOPOSMICR@@@ATL@@UAGJKKPAPAUIMoniker@@@Z 10014490 f i MICR.obj
 0001:00013500       ?GetNaturalExtent@?$IViewObjectExImpl@VCOPOSMICR@@@ATL@@UAGJKJPAUtagDVTARGETDEVICE@@PAUHDC__@@PAUtagExtentInfo@@PAUtagSIZE@@@Z 10014500 f i MICR.obj
 0001:00013620       ?GetObjectCLSID@?$CComCoClass@VCOPOSMICR@@$1?CLSID_OPOSMICR@@3U_GUID@@B@ATL@@SGABU_GUID@@XZ 10014620 f i MICR.obj
 0001:00013630       ?GetPages@?$ISpecifyPropertyPagesImpl@VCOPOSMICR@@@ATL@@UAGJPAUtagCAUUID@@@Z 10014630 f i MICR.obj
 0001:000136a0       ?GetPagesHelper@?$ISpecifyPropertyPagesImpl@VCOPOSMICR@@@ATL@@IAEJPAUtagCAUUID@@PBUATL_PROPMAP_ENTRY@2@@Z 100146a0 f i MICR.obj
 0001:000138a0       ?GetProperty@?$CComPtr@UIDispatch@@@ATL@@QAEJJPAUtagVARIANT@@@Z 100148a0 f i MICR.obj
 0001:000138e0       ?GetProperty@?$CComPtr@UIDispatch@@@ATL@@SAJPAUIDispatch@@JPAUtagVARIANT@@@Z 100148e0 f i MICR.obj
 0001:00013a40       ?GetPropertyMap@COPOSMICR@@SAPBUATL_PROPMAP_ENTRY@ATL@@XZ 10014a40 f i MICR.obj
 0001:00013a50       ?GetRect@?$IViewObjectExImpl@VCOPOSMICR@@@ATL@@UAGJKPAU_RECTL@@@Z 10014a50 f i MICR.obj
 0001:00013ac0       ?GetSize@?$CSimpleMap@PA_WPA_WVCExpansionVectorEqualHelper@ATL@@@ATL@@QBEHXZ 10014ac0 f i MICR.obj
 0001:00013ae0       ?GetSize@CComDynamicUnkArray@ATL@@QBEHXZ 10014ae0 f i MICR.obj
 0001:00013b00       ?GetSizeMax@?$IPersistStreamInitImpl@VCOPOSMICR@@@ATL@@UAGJPAT_ULARGE_INTEGER@@@Z 10014b00 f i MICR.obj
 0001:00014070       ?GetSizeMax@CComVariant@ATL@@QBEJPAT_ULARGE_INTEGER@@@Z 10015070 f i MICR.obj
 0001:000143f0       ?GetStreamSize@CComBSTR@ATL@@SAKPA_W@Z 100153f0 f i MICR.obj
 0001:00014440       ?GetTI@CComTypeInfoHolder@ATL@@QAEJK@Z 10015440 f i MICR.obj
 0001:00014c50       ?GetTI@CComTypeInfoHolder@ATL@@QAEJKPAPAUITypeInfo@@@Z 10015c50 f i MICR.obj
 0001:00014d10       ?GetTypeInfo@?$IDispatchImpl@UIOPOSMICR@@$1?IID_IOPOSMICR@@3U_GUID@@B$1?LIBID_OposMICR_CCO@@3U3@B$00$0A@VCComTypeInfoHolder@ATL@@@ATL@@UAGJIKPAPAUITypeInfo@@@Z 10015d10 f i MICR.obj
 0001:00014d40       ?GetTypeInfo@CComTypeInfoHolder@ATL@@QAEJIKPAPAUITypeInfo@@@Z 10015d40 f i MICR.obj
 0001:00014d80       ?GetTypeInfoCount@?$IDispatchImpl@UIOPOSMICR@@$1?IID_IOPOSMICR@@3U_GUID@@B$1?LIBID_OposMICR_CCO@@3U3@B$00$0A@VCComTypeInfoHolder@ATL@@@ATL@@UAGJPAI@Z 10015d80 f i MICR.obj
 0001:00014da0       ?GetUnknown@CComDynamicUnkArray@ATL@@QAGPAUIUnknown@@K@Z 10015da0 f i MICR.obj
 0001:00014e10       ?GetUnknown@COPOSMICR@@QAEPAUIUnknown@@XZ 10015e10 f i MICR.obj
 0001:00014e40       ?GetUserClassID@?$IOleObjectImpl@VCOPOSMICR@@@ATL@@UAGJPAU_GUID@@@Z 10015e40 f i MICR.obj
 0001:00014ef0       ?GetUserType@?$IOleObjectImpl@VCOPOSMICR@@@ATL@@UAGJKPAPA_W@Z 10015ef0 f i MICR.obj
 0001:00014f60       ?GetValueAt@?$CSimpleMap@PA_WPA_WVCExpansionVectorEqualHelper@ATL@@@ATL@@QBEAAPA_WH@Z 10015f60 f i MICR.obj
 0001:00014fe0       ?GetViewStatus@?$IViewObjectExImpl@VCOPOSMICR@@@ATL@@UAGJPAK@Z 10015fe0 f i MICR.obj
 0001:000150a0       ?GetWNDPROC@CWndProcThunk@ATL@@QAEP6GJPAUHWND__@@IIJ@ZXZ 100160a0 f i MICR.obj
 0001:000150d0       ?GetWindow@?$IOleInPlaceActiveObjectImpl@VCOPOSMICR@@@ATL@@UAGJPAPAUHWND__@@@Z 100160d0 f i MICR.obj
 0001:000151a0       ?GetWindow@?$IOleInPlaceObjectWindowlessImpl@VCOPOSMICR@@@ATL@@UAGJPAPAUHWND__@@@Z 100161a0 f i MICR.obj
 0001:00015270       ?GetWindowLongPtrW@@YAJPAUHWND__@@H@Z 10016270 f i MICR.obj
 0001:000152a0       ?GetWindowProc@?$CWindowImplBaseT@VCWindow@ATL@@V?$CWinTraits@$0FGAAAAAA@$0A@@2@@ATL@@UAEP6GJPAUHWND__@@IIJ@ZXZ 100162a0 f i MICR.obj
 0001:000152b0       ?GetWndCaption@?$CWindowImpl@VCOPOSMICR@@VCWindow@ATL@@V?$CWinTraits@$0FGAAAAAA@$0A@@3@@ATL@@SAPB_WXZ 100162b0 f i MICR.obj
 0001:000152c0       ?GetWndClassInfo@?$CWindowImpl@VCOPOSMICR@@VCWindow@ATL@@V?$CWinTraits@$0FGAAAAAA@$0A@@3@@ATL@@SAAAU_ATL_WNDCLASSINFOW@2@XZ 100162c0 f i MICR.obj
 0001:000152d0       ?GetWndClassName@CWindow@ATL@@SAPB_WXZ 100162d0 f i MICR.obj
 0001:000152e0       ?GetWndExStyle@?$CWinTraits@$0FGAAAAAA@$0A@@ATL@@SAKK@Z 100162e0 f i MICR.obj
 0001:00015300       ?GetWndExStyle@?$CWindowImplBaseT@VCWindow@ATL@@V?$CWinTraits@$0FGAAAAAA@$0A@@2@@ATL@@SAKK@Z 10016300 f i MICR.obj
 0001:00015320       ?GetWndStyle@?$CWinTraits@$0FGAAAAAA@$0A@@ATL@@SAKK@Z 10016320 f i MICR.obj
 0001:00015340       ?GetWndStyle@?$CWindowImplBaseT@VCWindow@ATL@@V?$CWinTraits@$0FGAAAAAA@$0A@@2@@ATL@@SAKK@Z 10016340 f i MICR.obj
 0001:00015360       ?GetZoomInfo@CComControlBase@ATL@@QAEXAAUATL_DRAWINFO@@@Z 10016360 f i MICR.obj
 0001:000154d0       ?HKeyFromString@CRegParser@ATL@@KAPAUHKEY__@@PA_W@Z 100164d0 f i MICR.obj
 0001:00015540       ?HandsOffStorage@?$IPersistStorageImpl@VCOPOSMICR@@@ATL@@UAGJXZ 10016540 f i MICR.obj
 0001:000155a0       ?HasSubKeys@CRegParser@ATL@@IAEHPAUHKEY__@@@Z 100165a0 f i MICR.obj
 0001:000156b0       ?IDataObject_GetData@CComControlBase@ATL@@QAEJPAUtagFORMATETC@@PAUtagSTGMEDIUM@@@Z 100166b0 f i MICR.obj
 0001:00015ad0       ?IOleInPlaceObject_InPlaceDeactivate@CComControlBase@ATL@@QAEJXZ 10016ad0 f i MICR.obj
 0001:00015cd0       ?IOleInPlaceObject_SetObjectRects@CComControlBase@ATL@@QAEJPBUtagRECT@@0@Z 10016cd0 f i MICR.obj
 0001:00015e90       ?IOleInPlaceObject_UIDeactivate@CComControlBase@ATL@@QAEJXZ 10016e90 f i MICR.obj
 0001:00016100       ?IOleObject_Advise@CComControlBase@ATL@@QAEJPAUIAdviseSink@@PAK@Z 10017100 f i MICR.obj
 0001:000161b0       ?IOleObject_Close@CComControlBase@ATL@@QAEJK@Z 100171b0 f i MICR.obj
 0001:00016460       ?IOleObject_GetClientSite@CComControlBase@ATL@@QAEJPAPAUIOleClientSite@@@Z 10017460 f i MICR.obj
 0001:00016500       ?IOleObject_SetClientSite@CComControlBase@ATL@@QAEJPAUIOleClientSite@@@Z 10017500 f i MICR.obj
 0001:000165d0       ?IOleObject_SetExtent@CComControlBase@ATL@@QAEJKPAUtagSIZE@@@Z 100175d0 f i MICR.obj
 0001:00016710       ?IPSI_GetIPersistStreamInit@?$IPersistStorageImpl@VCOPOSMICR@@@ATL@@AAEPAUIPersistStreamInit@@XZ 10017710 f i MICR.obj
 0001:000167e0       ?IPersistStreamInit_Load@?$IPersistStreamInitImpl@VCOPOSMICR@@@ATL@@QAEJPAUIStream@@PBUATL_PROPMAP_ENTRY@2@@Z 100177e0 f i MICR.obj
 0001:00016860       ?IPersistStreamInit_Save@?$IPersistStreamInitImpl@VCOPOSMICR@@@ATL@@QAEJPAUIStream@@HPBUATL_PROPMAP_ENTRY@2@@Z 10017860 f i MICR.obj
 0001:000168f0       ?IQuickActivate_QuickActivate@CComControlBase@ATL@@QAEJPAUtagQACONTAINER@@PAUtagQACONTROL@@@Z 100178f0 f i MICR.obj
 0001:00016f40       ?IViewObject_Draw@CComControlBase@ATL@@QAEJKJPAXPAUtagDVTARGETDEVICE@@PAUHDC__@@2PBU_RECTL@@3@Z 10017f40 f i MICR.obj
 0001:000171e0       ?InPlaceActivate@CComControlBase@ATL@@QAEJJPBUtagRECT@@@Z 100181e0 f i MICR.obj
 0001:00017b70       ?InPlaceDeactivate@?$IOleInPlaceObjectWindowlessImpl@VCOPOSMICR@@@ATL@@UAGJXZ 10018b70 f i MICR.obj
 0001:00017bf0       ?Increment@CComMultiThreadModel@ATL@@SGKPAJ@Z 10018bf0 f i MICR.obj
 0001:00017c10       ?Increment@CComSingleThreadModel@ATL@@SGKPAJ@Z 10018c10 f i MICR.obj
 0001:00017c30       ?Init@?$CComEnumImpl@UIEnumConnectionPoints@@$1?_GUID_b196b285_bab4_101a_b69c_00aa00341d07@@3U__s_GUID@@BPAUIConnectionPoint@@V?$_CopyInterface@UIConnectionPoint@@@ATL@@@ATL@@QAEJPAPAUIConnectionPoint@@0PAUIUnknown@@W4CComEnumFlags@2@@Z 10018c30 f i MICR.obj
 0001:00017e10       ?Init@?$CComEnumImpl@UIEnumConnections@@$1?_GUID_b196b287_bab4_101a_b69c_00aa00341d07@@3U__s_GUID@@BUtagCONNECTDATA@@V?$_Copy@UtagCONNECTDATA@@@ATL@@@ATL@@QAEJPAUtagCONNECTDATA@@0PAUIUnknown@@W4CComEnumFlags@2@@Z 10018e10 f i MICR.obj
 0001:00017ff0       ?Init@CComFakeCriticalSection@ATL@@QAEJXZ 10018ff0 f i MICR.obj
 0001:00018000       ?Init@CComModule@ATL@@QAEJPAU_ATL_OBJMAP_ENTRY30@2@PAUHINSTANCE__@@PBU_GUID@@@Z 10019000 f i MICR.obj
 0001:000180f0       ?Init@CComSafeDeleteCriticalSection@ATL@@QAEJXZ 100190f0 f i MICR.obj
 0001:00018170       ?Init@CDynamicStdCallThunk2@ATL@@QAEHKPAX@Z 10019170 f i MICR.obj
 0001:000181d0       ?Init@CWndProcThunk@ATL@@QAEHP6GJPAUHWND__@@IIJ@ZPAX@Z 100191d0 f i MICR.obj
 0001:00018210       ?InitFromData@?$IOleObjectImpl@VCOPOSMICR@@@ATL@@UAGJPAUIDataObject@@HK@Z 10019210 f i MICR.obj
 0001:00018280       ?InitLibId@?$CAtlModuleT@VCComModule@ATL@@@ATL@@SAXXZ 10019280 f i MICR.obj
 0001:00018290       ?InitNew@?$IPersistStorageImpl@VCOPOSMICR@@@ATL@@UAGJPAUIStorage@@@Z 10019290 f i MICR.obj
 0001:00018380       ?InitNew@?$IPersistStreamInitImpl@VCOPOSMICR@@@ATL@@UAGJXZ 10019380 f i MICR.obj
 0001:00018410       ?InlineIsEqualUnknown@ATL@@YGHABU_GUID@@@Z 10019410 f i MICR.obj
 0001:00018480       ?InternalAddRef@?$CComObjectRootEx@VCComMultiThreadModel@ATL@@@ATL@@QAEKXZ 10019480 f i MICR.obj
 0001:000184e0       ?InternalAddRef@?$CComObjectRootEx@VCComSingleThreadModel@ATL@@@ATL@@QAEKXZ 100194e0 f i MICR.obj
 0001:00018540       ?InternalFinalConstructAddRef@CComObjectRootBase@ATL@@QAEXXZ 10019540 f i MICR.obj
 0001:00018550       ?InternalFinalConstructAddRef@COPOSMICR@@QAEXXZ 10019550 f i MICR.obj
 0001:00018580       ?InternalFinalConstructRelease@CComObjectRootBase@ATL@@QAEXXZ 10019580 f i MICR.obj
 0001:000185d0       ?InternalFinalConstructRelease@COPOSMICR@@QAEXXZ 100195d0 f i MICR.obj
 0001:00018600       ?InternalGetSite@CComControlBase@ATL@@QAEJABU_GUID@@PAPAX@Z 10019600 f i MICR.obj
 0001:000186c0       ?InternalQueryInterface@CComObjectRootBase@ATL@@SGJPAXPBU_ATL_INTMAP_ENTRY@2@ABU_GUID@@PAPAX@Z 100196c0 f i MICR.obj
 0001:00018780       ?InternalRelease@?$CComObjectRootEx@VCComMultiThreadModel@ATL@@@ATL@@QAEKXZ 10019780 f i MICR.obj
 0001:000187f0       ?InternalRelease@?$CComObjectRootEx@VCComSingleThreadModel@ATL@@@ATL@@QAEKXZ 100197f0 f i MICR.obj
 0001:00018860       ?InternalSetAtIndex@?$CSimpleArray@GV?$CSimpleArrayEqualHelper@G@ATL@@@ATL@@QAEXHABG@Z 10019860 f i MICR.obj
 0001:000188d0       ?InternalSetAtIndex@?$CSimpleMap@PA_WPA_WVCExpansionVectorEqualHelper@ATL@@@ATL@@QAEXHABQA_W0@Z 100198d0 f i MICR.obj
 0001:00018970       ?Invoke@?$IDispatchImpl@UIOPOSMICR@@$1?IID_IOPOSMICR@@3U_GUID@@B$1?LIBID_OposMICR_CCO@@3U3@B$00$0A@VCComTypeInfoHolder@ATL@@@ATL@@UAGJJABU_GUID@@KGPAUtagDISPPARAMS@@PAUtagVARIANT@@PAUtagEXCEPINFO@@PAI@Z 10019970 f i MICR.obj
 0001:000189b0       ?Invoke@CComTypeInfoHolder@ATL@@QAEJPAUIDispatch@@JABU_GUID@@KGPAUtagDISPPARAMS@@PAUtagVARIANT@@PAUtagEXCEPINFO@@PAI@Z 100199b0 f i MICR.obj
 0001:00018a40       ?IsDirty@?$IPersistStorageImpl@VCOPOSMICR@@@ATL@@UAGJXZ 10019a40 f i MICR.obj
 0001:00018b30       ?IsDirty@?$IPersistStreamInitImpl@VCOPOSMICR@@@ATL@@UAGJXZ 10019b30 f i MICR.obj
 0001:00018bd0       ?IsEqualKey@CExpansionVectorEqualHelper@ATL@@SA_NQA_W0@Z 10019bd0 f i MICR.obj
 0001:00018c00       ?IsEqualObject@?$CComPtrBase@UIOleClientSite@@@ATL@@QAE_NPAUIUnknown@@@Z 10019c00 f i MICR.obj
 0001:00018d30       ?IsEqualObject@?$CComPtrBase@UITypeInfo@@@ATL@@QAE_NPAUIUnknown@@@Z 10019d30 f i MICR.obj
 0001:00018e60       ?IsSpace@CRegParser@ATL@@IAEH_W@Z 10019e60 f i MICR.obj
 0001:00018ec0       ?IsUpToDate@?$IOleObjectImpl@VCOPOSMICR@@@ATL@@UAGJXZ 10019ec0 f i MICR.obj
 0001:00018f20       ?Length@CComBSTR@ATL@@QBEIXZ 10019f20 f i MICR.obj
 0001:00018f60       ?Load@?$IPersistStorageImpl@VCOPOSMICR@@@ATL@@UAGJPAUIStorage@@@Z 10019f60 f i MICR.obj
 0001:000190c0       ?Load@?$IPersistStreamInitImpl@VCOPOSMICR@@@ATL@@UAGJPAUIStream@@@Z 1001a0c0 f i MICR.obj
 0001:00019150       ?LoadCursorW@AtlModuleRegisterWndClassInfoParamW@ATL@@SAPAUHICON__@@PAUHINSTANCE__@@PB_W@Z 1001a150 f i MICR.obj
 0001:00019180       ?LoadNameCache@CComTypeInfoHolder@ATL@@QAEJPAUITypeInfo@@@Z 1001a180 f i MICR.obj
 0001:00019410       ?Lock@?$CComCritSecLock@VCComCriticalSection@ATL@@@ATL@@QAEJXZ 1001a410 f i MICR.obj
 0001:000194c0       ?Lock@?$CComObjectRootEx@VCComSingleThreadModel@ATL@@@ATL@@QAEXXZ 1001a4c0 f i MICR.obj
 0001:000194d0       ?Lock@CAtlModule@ATL@@UAEJXZ 1001a4d0 f i MICR.obj
 0001:00019500       ?Lock@CComCriticalSection@ATL@@QAEJXZ 1001a500 f i MICR.obj
 0001:00019540       ?Lock@CComFakeCriticalSection@ATL@@QAEJXZ 1001a540 f i MICR.obj
 0001:00019550       ?LockServer@CComClassFactory@ATL@@UAGJH@Z 1001a550 f i MICR.obj
 0001:000195b0       ?Lookup@?$CSimpleMap@PA_WPA_WVCExpansionVectorEqualHelper@ATL@@@ATL@@QBEPA_WABQA_W@Z 1001a5b0 f i MICR.obj
 0001:00019600       ?Next@?$CComEnumImpl@UIEnumConnectionPoints@@$1?_GUID_b196b285_bab4_101a_b69c_00aa00341d07@@3U__s_GUID@@BPAUIConnectionPoint@@V?$_CopyInterface@UIConnectionPoint@@@ATL@@@ATL@@UAGJKPAPAUIConnectionPoint@@PAK@Z 1001a600 f i MICR.obj
 0001:00019770       ?Next@?$CComEnumImpl@UIEnumConnections@@$1?_GUID_b196b287_bab4_101a_b69c_00aa00341d07@@3U__s_GUID@@BUtagCONNECTDATA@@V?$_Copy@UtagCONNECTDATA@@@ATL@@@ATL@@UAGJKPAUtagCONNECTDATA@@PAK@Z 1001a770 f i MICR.obj
 0001:000198e0       ?NextToken@CRegParser@ATL@@IAEJPA_W@Z 1001a8e0 f i MICR.obj
 0001:00019b80       ?OLE2CT_EX@@YAPB_WPB_WI@Z  1001ab80 f i MICR.obj
 0001:00019b90       ?OLE2CT_EX_DEF@@YAPB_WPB_W@Z 1001ab90 f i MICR.obj
 0001:00019ba0       ?OLE2T_EX@@YAPA_WPA_WI@Z   1001aba0 f i MICR.obj
 0001:00019bb0       ?OnAmbientPropertyChange@?$IOleControlImpl@VCOPOSMICR@@@ATL@@UAGJJ@Z 1001abb0 f i MICR.obj
 0001:00019c40       ?OnDocWindowActivate@?$IOleInPlaceActiveObjectImpl@VCOPOSMICR@@@ATL@@UAGJH@Z 1001ac40 f i MICR.obj
 0001:00019cd0       ?OnDrawAdvanced@CComControlBase@ATL@@UAEJAAUATL_DRAWINFO@@@Z 1001acd0 f i MICR.obj
 0001:00019ef0       ?OnFinalMessage@?$CWindowImplBaseT@VCWindow@ATL@@V?$CWinTraits@$0FGAAAAAA@$0A@@2@@ATL@@UAEXPAUHWND__@@@Z 1001aef0 f i MICR.obj
 0001:00019f00       ?OnFrameWindowActivate@?$IOleInPlaceActiveObjectImpl@VCOPOSMICR@@@ATL@@UAGJH@Z 1001af00 f i MICR.obj
 0001:00019f60       ?OnKillFocus@CComControlBase@ATL@@QAEJIIJAAH@Z 1001af60 f i MICR.obj
 0001:0001a060       ?OnMnemonic@?$IOleControlImpl@VCOPOSMICR@@@ATL@@UAGJPAUtagMSG@@@Z 1001b060 f i MICR.obj
 0001:0001a0d0       ?OnMouseActivate@CComControlBase@ATL@@QAEJIIJAAH@Z 1001b0d0 f i MICR.obj
 0001:0001a220       ?OnPaint@CComControlBase@ATL@@QAEJIIJAAH@Z 1001b220 f i MICR.obj
 0001:0001a3a0       ?OnPostVerbDiscardUndo@?$IOleObjectImpl@VCOPOSMICR@@@ATL@@QAEJXZ 1001b3a0 f i MICR.obj
 0001:0001a3b0       ?OnPostVerbHide@?$IOleObjectImpl@VCOPOSMICR@@@ATL@@QAEJXZ 1001b3b0 f i MICR.obj
 0001:0001a3c0       ?OnPostVerbInPlaceActivate@?$IOleObjectImpl@VCOPOSMICR@@@ATL@@QAEJXZ 1001b3c0 f i MICR.obj
 0001:0001a3d0       ?OnPostVerbOpen@?$IOleObjectImpl@VCOPOSMICR@@@ATL@@QAEJXZ 1001b3d0 f i MICR.obj
 0001:0001a3e0       ?OnPostVerbShow@?$IOleObjectImpl@VCOPOSMICR@@@ATL@@QAEJXZ 1001b3e0 f i MICR.obj
 0001:0001a3f0       ?OnPostVerbUIActivate@?$IOleObjectImpl@VCOPOSMICR@@@ATL@@QAEJXZ 1001b3f0 f i MICR.obj
 0001:0001a400       ?OnPreVerbDiscardUndo@?$IOleObjectImpl@VCOPOSMICR@@@ATL@@QAEJXZ 1001b400 f i MICR.obj
 0001:0001a410       ?OnPreVerbHide@?$IOleObjectImpl@VCOPOSMICR@@@ATL@@QAEJXZ 1001b410 f i MICR.obj
 0001:0001a420       ?OnPreVerbInPlaceActivate@?$IOleObjectImpl@VCOPOSMICR@@@ATL@@QAEJXZ 1001b420 f i MICR.obj
 0001:0001a430       ?OnPreVerbOpen@?$IOleObjectImpl@VCOPOSMICR@@@ATL@@QAEJXZ 1001b430 f i MICR.obj
 0001:0001a440       ?OnPreVerbShow@?$IOleObjectImpl@VCOPOSMICR@@@ATL@@QAEJXZ 1001b440 f i MICR.obj
 0001:0001a450       ?OnPreVerbUIActivate@?$IOleObjectImpl@VCOPOSMICR@@@ATL@@QAEJXZ 1001b450 f i MICR.obj
 0001:0001a460       ?OnSetFocus@CComControlBase@ATL@@QAEJIIJAAH@Z 1001b460 f i MICR.obj
 0001:0001a5f0       ?OnWindowMessage@?$IOleInPlaceObjectWindowlessImpl@VCOPOSMICR@@@ATL@@UAGJIIJPAJ@Z 1001b5f0 f i MICR.obj
 0001:0001a750       ?Open@CRegKey@ATL@@QAEJPAUHKEY__@@PB_WK@Z 1001b750 f i MICR.obj
 0001:0001a8a0       ?OuterAddRef@CComObjectRootBase@ATL@@QAEKXZ 1001b8a0 f i MICR.obj
 0001:0001a8e0       ?OuterQueryInterface@CComObjectRootBase@ATL@@QAEJABU_GUID@@PAPAX@Z 1001b8e0 f i MICR.obj
 0001:0001a930       ?OuterRelease@CComObjectRootBase@ATL@@QAEKXZ 1001b930 f i MICR.obj
 0001:0001a970       ?PreProcessBuffer@CRegParser@ATL@@QAEJPA_WPAPA_W@Z 1001b970 f i MICR.obj
 0001:0001aeb0       ?PreTranslateAccelerator@CComControlBase@ATL@@QAEHPAUtagMSG@@AAJ@Z 1001beb0 f i MICR.obj
 0001:0001aec0       ?ProcessWindowMessage@?$CComControl@VCOPOSMICR@@V?$CWindowImpl@VCOPOSMICR@@VCWindow@ATL@@V?$CWinTraits@$0FGAAAAAA@$0A@@3@@ATL@@@ATL@@UAEHPAUHWND__@@IIJAAJK@Z 1001bec0 f i MICR.obj
 0001:0001b090       ?ProcessWindowMessage@COPOSMICR@@UAEHPAUHWND__@@IIJAAJK@Z 1001c090 f i MICR.obj
 0001:0001b190       ?PutProperty@?$CComPtr@UIDispatch@@@ATL@@QAEJJPAUtagVARIANT@@@Z 1001c190 f i MICR.obj
 0001:0001b1d0       ?PutProperty@?$CComPtr@UIDispatch@@@ATL@@SAJPAUIDispatch@@JPAUtagVARIANT@@@Z 1001c1d0 f i MICR.obj
 0001:0001b3c0       ?QueryGetData@?$IDataObjectImpl@VCOPOSMICR@@@ATL@@UAGJPAUtagFORMATETC@@@Z 1001c3c0 f i MICR.obj
 0001:0001b430       ?QueryHitPoint@?$IViewObjectExImpl@VCOPOSMICR@@@ATL@@UAGJKPBUtagRECT@@UtagPOINT@@JPAK@Z 1001c430 f i MICR.obj
 0001:0001b540       ?QueryHitRect@?$IViewObjectExImpl@VCOPOSMICR@@@ATL@@UAGJKPBUtagRECT@@0JPAK@Z 1001c540 f i MICR.obj
 0001:0001b690       ?QueryInterface@?$CComAggObject@VCOPOSMICR@@@ATL@@UAGJABU_GUID@@PAPAX@Z 1001c690 f i MICR.obj
 0001:0001b740       ?QueryInterface@?$CComContainedObject@VCOPOSMICR@@@ATL@@UAGJABU_GUID@@PAPAX@Z 1001c740 f i MICR.obj
 0001:0001b764       ?QueryInterface@?$CComContainedObject@VCOPOSMICR@@@ATL@@WHA@AGJABU_GUID@@PAPAX@Z 1001c764 f i MICR.obj
 0001:0001b76e       ?QueryInterface@?$CComContainedObject@VCOPOSMICR@@@ATL@@WHE@AGJABU_GUID@@PAPAX@Z 1001c76e f i MICR.obj
 0001:0001b778       ?QueryInterface@?$CComContainedObject@VCOPOSMICR@@@ATL@@WHI@AGJABU_GUID@@PAPAX@Z 1001c778 f i MICR.obj
 0001:0001b782       ?QueryInterface@?$CComContainedObject@VCOPOSMICR@@@ATL@@WHM@AGJABU_GUID@@PAPAX@Z 1001c782 f i MICR.obj
 0001:0001b78c       ?QueryInterface@?$CComContainedObject@VCOPOSMICR@@@ATL@@WIA@AGJABU_GUID@@PAPAX@Z 1001c78c f i MICR.obj
 0001:0001b799       ?QueryInterface@?$CComContainedObject@VCOPOSMICR@@@ATL@@WIE@AGJABU_GUID@@PAPAX@Z 1001c799 f i MICR.obj
 0001:0001b7a6       ?QueryInterface@?$CComContainedObject@VCOPOSMICR@@@ATL@@WII@AGJABU_GUID@@PAPAX@Z 1001c7a6 f i MICR.obj
 0001:0001b7b3       ?QueryInterface@?$CComContainedObject@VCOPOSMICR@@@ATL@@WIM@AGJABU_GUID@@PAPAX@Z 1001c7b3 f i MICR.obj
 0001:0001b7c0       ?QueryInterface@?$CComContainedObject@VCOPOSMICR@@@ATL@@WJA@AGJABU_GUID@@PAPAX@Z 1001c7c0 f i MICR.obj
 0001:0001b7cd       ?QueryInterface@?$CComContainedObject@VCOPOSMICR@@@ATL@@WJE@AGJABU_GUID@@PAPAX@Z 1001c7cd f i MICR.obj
 0001:0001b7da       ?QueryInterface@?$CComContainedObject@VCOPOSMICR@@@ATL@@WJI@AGJABU_GUID@@PAPAX@Z 1001c7da f i MICR.obj
 0001:0001b7e7       ?QueryInterface@?$CComContainedObject@VCOPOSMICR@@@ATL@@WJM@AGJABU_GUID@@PAPAX@Z 1001c7e7 f i MICR.obj
 0001:0001b7f4       ?QueryInterface@?$CComContainedObject@VCOPOSMICR@@@ATL@@WKA@AGJABU_GUID@@PAPAX@Z 1001c7f4 f i MICR.obj
 0001:0001b810       ?QueryInterface@?$CComObject@V?$CComEnum@UIEnumConnectionPoints@@$1?_GUID_b196b285_bab4_101a_b69c_00aa00341d07@@3U__s_GUID@@BPAUIConnectionPoint@@V?$_CopyInterface@UIConnectionPoint@@@ATL@@VCComSingleThreadModel@6@@ATL@@@ATL@@UAGJABU_GUID@@PAPAX@Z 1001c810 f i MICR.obj
 0001:0001b830       ?QueryInterface@?$CComObject@V?$CComEnum@UIEnumConnections@@$1?_GUID_b196b287_bab4_101a_b69c_00aa00341d07@@3U__s_GUID@@BUtagCONNECTDATA@@V?$_Copy@UtagCONNECTDATA@@@ATL@@VCComSingleThreadModel@6@@ATL@@@ATL@@UAGJABU_GUID@@PAPAX@Z 1001c830 f i MICR.obj
 0001:0001b850       ?QueryInterface@?$CComObject@VCOPOSMICR@@@ATL@@UAGJABU_GUID@@PAPAX@Z 1001c850 f i MICR.obj
 0001:0001b86e       ?QueryInterface@?$CComObject@VCOPOSMICR@@@ATL@@WHA@AGJABU_GUID@@PAPAX@Z 1001c86e f i MICR.obj
 0001:0001b878       ?QueryInterface@?$CComObject@VCOPOSMICR@@@ATL@@WHE@AGJABU_GUID@@PAPAX@Z 1001c878 f i MICR.obj
 0001:0001b882       ?QueryInterface@?$CComObject@VCOPOSMICR@@@ATL@@WHI@AGJABU_GUID@@PAPAX@Z 1001c882 f i MICR.obj
 0001:0001b88c       ?QueryInterface@?$CComObject@VCOPOSMICR@@@ATL@@WHM@AGJABU_GUID@@PAPAX@Z 1001c88c f i MICR.obj
 0001:0001b896       ?QueryInterface@?$CComObject@VCOPOSMICR@@@ATL@@WIA@AGJABU_GUID@@PAPAX@Z 1001c896 f i MICR.obj
 0001:0001b8a3       ?QueryInterface@?$CComObject@VCOPOSMICR@@@ATL@@WIE@AGJABU_GUID@@PAPAX@Z 1001c8a3 f i MICR.obj
 0001:0001b8b0       ?QueryInterface@?$CComObject@VCOPOSMICR@@@ATL@@WII@AGJABU_GUID@@PAPAX@Z 1001c8b0 f i MICR.obj
 0001:0001b8bd       ?QueryInterface@?$CComObject@VCOPOSMICR@@@ATL@@WIM@AGJABU_GUID@@PAPAX@Z 1001c8bd f i MICR.obj
 0001:0001b8ca       ?QueryInterface@?$CComObject@VCOPOSMICR@@@ATL@@WJA@AGJABU_GUID@@PAPAX@Z 1001c8ca f i MICR.obj
 0001:0001b8d7       ?QueryInterface@?$CComObject@VCOPOSMICR@@@ATL@@WJE@AGJABU_GUID@@PAPAX@Z 1001c8d7 f i MICR.obj
 0001:0001b8e4       ?QueryInterface@?$CComObject@VCOPOSMICR@@@ATL@@WJI@AGJABU_GUID@@PAPAX@Z 1001c8e4 f i MICR.obj
 0001:0001b8f1       ?QueryInterface@?$CComObject@VCOPOSMICR@@@ATL@@WJM@AGJABU_GUID@@PAPAX@Z 1001c8f1 f i MICR.obj
 0001:0001b8fe       ?QueryInterface@?$CComObject@VCOPOSMICR@@@ATL@@WKA@AGJABU_GUID@@PAPAX@Z 1001c8fe f i MICR.obj
 0001:0001b910       ?QueryInterface@?$CComObjectCached@VCComClassFactory@ATL@@@ATL@@UAGJABU_GUID@@PAPAX@Z 1001c910 f i MICR.obj
 0001:0001b930       ?QueryInterface@CRegObject@ATL@@UAGJABU_GUID@@PAPAX@Z 1001c930 f i MICR.obj
 0001:0001b980       ?QuickActivate@?$IQuickActivateImpl@VCOPOSMICR@@@ATL@@UAGJPAUtagQACONTAINER@@PAUtagQACONTROL@@@Z 1001c980 f i MICR.obj
 0001:0001ba10       ?ReactivateAndUndo@?$IOleInPlaceObjectWindowlessImpl@VCOPOSMICR@@@ATL@@UAGJXZ 1001ca10 f i MICR.obj
 0001:0001ba80       ?ReadFromStream@CComBSTR@ATL@@QAEJPAUIStream@@@Z 1001ca80 f i MICR.obj
 0001:0001be80       ?ReadFromStream@CComVariant@ATL@@QAEJPAUIStream@@GTClassesAllowedInStream@2@K@Z 1001ce80 f i MICR.obj
 0001:0001c200       ?RecurseDeleteKey@CRegKey@ATL@@QAEJPB_W@Z 1001d200 f i MICR.obj
 0001:0001c3e0       ?RegCreateKeyExW@CAtlTransactionManager@ATL@@QAEJPAUHKEY__@@PB_WKPA_WKKQAU_SECURITY_ATTRIBUTES@@PAPAU3@PAK@Z 1001d3e0 f i MICR.obj
 0001:0001c510       ?RegDeleteKeyW@CAtlTransactionManager@ATL@@QAEJPAUHKEY__@@PB_W@Z 1001d510 f i MICR.obj
 0001:0001c610       ?RegOpenKeyExW@CAtlTransactionManager@ATL@@QAEJPAUHKEY__@@PB_WKKPAPAU3@@Z 1001d610 f i MICR.obj
 0001:0001c720       ?Register@_ATL_WNDCLASSINFOW@ATL@@QAEGPAP6GJPAUHWND__@@IIJ@Z@Z 1001d720 f i MICR.obj
 0001:0001c760       ?RegisterBuffer@CRegParser@ATL@@QAEJPA_WH@Z 1001d760 f i MICR.obj
 0001:0001ca90       ?RegisterClassExW@AtlModuleRegisterWndClassInfoParamW@ATL@@SAGPAU_ATL_WIN_MODULE70@2@PBUtagWNDCLASSEXW@@@Z 1001da90 f i MICR.obj
 0001:0001cab0       ?RegisterFromResource@CRegObject@ATL@@IAEJPB_W00H@Z 1001dab0 f i MICR.obj
 0001:0001ce40       ?RegisterServer@?$CAtlModuleT@VCComModule@ATL@@@ATL@@QAEJHPBU_GUID@@@Z 1001de40 f i MICR.obj
 0001:0001cec0       ?RegisterServer@CAtlComModule@ATL@@QAEJHPBU_GUID@@@Z 1001dec0 f i MICR.obj
 0001:0001cef0       ?RegisterServer@CComModule@ATL@@QAEJHPBU_GUID@@@Z 1001def0 f i MICR.obj
 0001:0001cfd0       ?RegisterSubkeys@CRegParser@ATL@@IAEJPA_WPAUHKEY__@@HH@Z 1001dfd0 f i MICR.obj
 0001:0001daf0       ?Release@?$CComAggObject@VCOPOSMICR@@@ATL@@UAGKXZ 1001eaf0 f i MICR.obj
 0001:0001dbb0       ?Release@?$CComContainedObject@VCOPOSMICR@@@ATL@@UAGKXZ 1001ebb0 f i MICR.obj
 0001:0001dbcc       ?Release@?$CComContainedObject@VCOPOSMICR@@@ATL@@WHA@AGKXZ 1001ebcc f i MICR.obj
 0001:0001dbd6       ?Release@?$CComContainedObject@VCOPOSMICR@@@ATL@@WHE@AGKXZ 1001ebd6 f i MICR.obj
 0001:0001dbe0       ?Release@?$CComContainedObject@VCOPOSMICR@@@ATL@@WHI@AGKXZ 1001ebe0 f i MICR.obj
 0001:0001dbea       ?Release@?$CComContainedObject@VCOPOSMICR@@@ATL@@WHM@AGKXZ 1001ebea f i MICR.obj
 0001:0001dbf4       ?Release@?$CComContainedObject@VCOPOSMICR@@@ATL@@WIA@AGKXZ 1001ebf4 f i MICR.obj
 0001:0001dc01       ?Release@?$CComContainedObject@VCOPOSMICR@@@ATL@@WIE@AGKXZ 1001ec01 f i MICR.obj
 0001:0001dc0e       ?Release@?$CComContainedObject@VCOPOSMICR@@@ATL@@WII@AGKXZ 1001ec0e f i MICR.obj
 0001:0001dc1b       ?Release@?$CComContainedObject@VCOPOSMICR@@@ATL@@WIM@AGKXZ 1001ec1b f i MICR.obj
 0001:0001dc28       ?Release@?$CComContainedObject@VCOPOSMICR@@@ATL@@WJA@AGKXZ 1001ec28 f i MICR.obj
 0001:0001dc35       ?Release@?$CComContainedObject@VCOPOSMICR@@@ATL@@WJE@AGKXZ 1001ec35 f i MICR.obj
 0001:0001dc42       ?Release@?$CComContainedObject@VCOPOSMICR@@@ATL@@WJI@AGKXZ 1001ec42 f i MICR.obj
 0001:0001dc4f       ?Release@?$CComContainedObject@VCOPOSMICR@@@ATL@@WJM@AGKXZ 1001ec4f f i MICR.obj
 0001:0001dc5c       ?Release@?$CComContainedObject@VCOPOSMICR@@@ATL@@WKA@AGKXZ 1001ec5c f i MICR.obj
 0001:0001dc69       ?Release@?$CComContainedObject@VCOPOSMICR@@@ATL@@WKI@AGKXZ 1001ec69 f i MICR.obj
 0001:0001dc76       ?Release@?$CComContainedObject@VCOPOSMICR@@@ATL@@WLE@AGKXZ 1001ec76 f i MICR.obj
 0001:0001dc90       ?Release@?$CComObject@V?$CComEnum@UIEnumConnectionPoints@@$1?_GUID_b196b285_bab4_101a_b69c_00aa00341d07@@3U__s_GUID@@BPAUIConnectionPoint@@V?$_CopyInterface@UIConnectionPoint@@@ATL@@VCComSingleThreadModel@6@@ATL@@@ATL@@UAGKXZ 1001ec90 f i MICR.obj
 0001:0001dd50       ?Release@?$CComObject@V?$CComEnum@UIEnumConnections@@$1?_GUID_b196b287_bab4_101a_b69c_00aa00341d07@@3U__s_GUID@@BUtagCONNECTDATA@@V?$_Copy@UtagCONNECTDATA@@@ATL@@VCComSingleThreadModel@6@@ATL@@@ATL@@UAGKXZ 1001ed50 f i MICR.obj
 0001:0001de10       ?Release@?$CComObject@VCOPOSMICR@@@ATL@@UAGKXZ 1001ee10 f i MICR.obj
 0001:0001dec9       ?Release@?$CComObject@VCOPOSMICR@@@ATL@@WHA@AGKXZ 1001eec9 f i MICR.obj
 0001:0001ded3       ?Release@?$CComObject@VCOPOSMICR@@@ATL@@WHE@AGKXZ 1001eed3 f i MICR.obj
 0001:0001dedd       ?Release@?$CComObject@VCOPOSMICR@@@ATL@@WHI@AGKXZ 1001eedd f i MICR.obj
 0001:0001dee7       ?Release@?$CComObject@VCOPOSMICR@@@ATL@@WHM@AGKXZ 1001eee7 f i MICR.obj
 0001:0001def1       ?Release@?$CComObject@VCOPOSMICR@@@ATL@@WIA@AGKXZ 1001eef1 f i MICR.obj
 0001:0001defe       ?Release@?$CComObject@VCOPOSMICR@@@ATL@@WIE@AGKXZ 1001eefe f i MICR.obj
 0001:0001df0b       ?Release@?$CComObject@VCOPOSMICR@@@ATL@@WII@AGKXZ 1001ef0b f i MICR.obj
 0001:0001df18       ?Release@?$CComObject@VCOPOSMICR@@@ATL@@WIM@AGKXZ 1001ef18 f i MICR.obj
 0001:0001df25       ?Release@?$CComObject@VCOPOSMICR@@@ATL@@WJA@AGKXZ 1001ef25 f i MICR.obj
 0001:0001df32       ?Release@?$CComObject@VCOPOSMICR@@@ATL@@WJE@AGKXZ 1001ef32 f i MICR.obj
 0001:0001df3f       ?Release@?$CComObject@VCOPOSMICR@@@ATL@@WJI@AGKXZ 1001ef3f f i MICR.obj
 0001:0001df4c       ?Release@?$CComObject@VCOPOSMICR@@@ATL@@WJM@AGKXZ 1001ef4c f i MICR.obj
 0001:0001df59       ?Release@?$CComObject@VCOPOSMICR@@@ATL@@WKA@AGKXZ 1001ef59 f i MICR.obj
 0001:0001df66       ?Release@?$CComObject@VCOPOSMICR@@@ATL@@WKI@AGKXZ 1001ef66 f i MICR.obj
 0001:0001df73       ?Release@?$CComObject@VCOPOSMICR@@@ATL@@WLE@AGKXZ 1001ef73 f i MICR.obj
 0001:0001df80       ?Release@?$CComObjectCached@VCComClassFactory@ATL@@@ATL@@UAGKXZ 1001ef80 f i MICR.obj
 0001:0001e020       ?Release@?$CComPtrBase@UIAdviseSink@@@ATL@@QAEXXZ 1001f020 f i MICR.obj
 0001:0001e080       ?Release@?$CComPtrBase@UIDispatch@@@ATL@@QAEXXZ 1001f080 f i MICR.obj
 0001:0001e0e0       ?Release@?$CComPtrBase@UIOleInPlaceSiteWindowless@@@ATL@@QAEXXZ 1001f0e0 f i MICR.obj
 0001:0001e140       ?Release@CRegObject@ATL@@UAGKXZ 1001f140 f i MICR.obj
 0001:0001e180       ?Remove@CComDynamicUnkArray@ATL@@QAEHK@Z 1001f180 f i MICR.obj
 0001:0001e230       ?RemoveAll@?$CSimpleMap@PA_WPA_WVCExpansionVectorEqualHelper@ATL@@@ATL@@QAEXXZ 1001f230 f i MICR.obj
 0001:0001e2c0       ?Reset@?$CComEnumImpl@UIEnumConnectionPoints@@$1?_GUID_b196b285_bab4_101a_b69c_00aa00341d07@@3U__s_GUID@@BPAUIConnectionPoint@@V?$_CopyInterface@UIConnectionPoint@@@ATL@@@ATL@@UAGJXZ 1001f2c0 f i MICR.obj
 0001:0001e2e0       ?Reset@?$CComEnumImpl@UIEnumConnections@@$1?_GUID_b196b287_bab4_101a_b69c_00aa00341d07@@3U__s_GUID@@BUtagCONNECTDATA@@V?$_Copy@UtagCONNECTDATA@@@ATL@@@ATL@@UAGJXZ 1001f2e0 f i MICR.obj
 0001:0001e300       ?ResizeBorder@?$IOleInPlaceActiveObjectImpl@VCOPOSMICR@@@ATL@@UAGJPBUtagRECT@@PAUIOleInPlaceUIWindow@@H@Z 1001f300 f i MICR.obj
 0001:0001e360       ?ResourceRegister@CRegObject@ATL@@QAGJPB_WI0@Z 1001f360 f i MICR.obj
 0001:0001e440       ?ResourceRegisterSz@CRegObject@ATL@@QAGJPB_W00@Z 1001f440 f i MICR.obj
 0001:0001e540       ?ResourceUnregister@CRegObject@ATL@@QAGJPB_WI0@Z 1001f540 f i MICR.obj
 0001:0001e620       ?ResourceUnregisterSz@CRegObject@ATL@@QAGJPB_W00@Z 1001f620 f i MICR.obj
 0001:0001e720       ?SOData@COPOSMICR@@MAGJJ@Z 1001f720 f i MICR.obj
 0001:0001e7a0       ?SODirectIO@COPOSMICR@@MAGJJPAJPAPA_W@Z 1001f7a0 f i MICR.obj
 0001:0001e960       ?SOError@COPOSMICR@@MAGJJJJPAJ@Z 1001f960 f i MICR.obj
 0001:0001ea20       ?SOOutputCompleteDummy@COPOSMICR@@MAGJJ@Z 1001fa20 f i MICR.obj
 0001:0001ea30       ?SOStatusUpdate@COPOSMICR@@MAGJJ@Z 1001fa30 f i MICR.obj
 0001:0001eab0       ?Save@?$IPersistStorageImpl@VCOPOSMICR@@@ATL@@UAGJPAUIStorage@@H@Z 1001fab0 f i MICR.obj
 0001:0001ec10       ?Save@?$IPersistStreamInitImpl@VCOPOSMICR@@@ATL@@UAGJPAUIStream@@H@Z 1001fc10 f i MICR.obj
 0001:0001eca0       ?SaveCompleted@?$IPersistStorageImpl@VCOPOSMICR@@@ATL@@UAGJPAUIStorage@@@Z 1001fca0 f i MICR.obj
 0001:0001ed00       ?SendOnDataChange@CComControlBase@ATL@@QAEJK@Z 1001fd00 f i MICR.obj
 0001:0001edf0       ?SendOnSave@CComControlBase@ATL@@QAEJXZ 1001fdf0 f i MICR.obj
 0001:0001ee60       ?SendOnViewChange@CComControlBase@ATL@@QAEJKJ@Z 1001fe60 f i MICR.obj
 0001:0001eed0       ?SetAdvise@?$IViewObjectExImpl@VCOPOSMICR@@@ATL@@UAGJKKPAUIAdviseSink@@@Z 1001fed0 f i MICR.obj
 0001:0001ef60       ?SetClientSite@?$IOleObjectImpl@VCOPOSMICR@@@ATL@@UAGJPAUIOleClientSite@@@Z 1001ff60 f i MICR.obj
 0001:0001eff0       ?SetColorScheme@?$IOleObjectImpl@VCOPOSMICR@@@ATL@@UAGJPAUtagLOGPALETTE@@@Z 1001fff0 f i MICR.obj
 0001:0001f060       ?SetContentExtent@?$IQuickActivateImpl@VCOPOSMICR@@@ATL@@UAGJPAUtagSIZE@@@Z 10020060 f i MICR.obj
 0001:0001f0f0       ?SetControlFocus@CComControlBase@ATL@@QAEHH@Z 100200f0 f i MICR.obj
 0001:0001f270       ?SetDWORDValue@CRegKey@ATL@@QAEJPB_WK@Z 10020270 f i MICR.obj
 0001:0001f2f0       ?SetData@?$IDataObjectImpl@VCOPOSMICR@@@ATL@@UAGJPAUtagFORMATETC@@PAUtagSTGMEDIUM@@H@Z 100202f0 f i MICR.obj
 0001:0001f360       ?SetExtent@?$IOleObjectImpl@VCOPOSMICR@@@ATL@@UAGJKPAUtagSIZE@@@Z 10020360 f i MICR.obj
 0001:0001f3f0       ?SetHostNames@?$IOleObjectImpl@VCOPOSMICR@@@ATL@@UAGJPB_W0@Z 100203f0 f i MICR.obj
 0001:0001f450       ?SetInterfaceSafetyOptions@?$IObjectSafetyImpl@VCOPOSMICR@@$02@ATL@@UAGJABU_GUID@@KK@Z 10020450 f i MICR.obj
 0001:0001f5c0       ?SetMoniker@?$IOleObjectImpl@VCOPOSMICR@@@ATL@@UAGJKPAUIMoniker@@@Z 100205c0 f i MICR.obj
 0001:0001f630       ?SetMultiStringValue@CRegKey@ATL@@QAEJPB_W0@Z 10020630 f i MICR.obj
 0001:0001f750       ?SetObjectRects@?$IOleInPlaceObjectWindowlessImpl@VCOPOSMICR@@@ATL@@UAGJPBUtagRECT@@0@Z 10020750 f i MICR.obj
 0001:0001f7e0       ?SetStringValue@CRegKey@ATL@@QAEJPB_W0K@Z 100207e0 f i MICR.obj
 0001:0001f910       ?SetVoid@CComClassFactory@ATL@@QAEXPAX@Z 10020910 f i MICR.obj
 0001:0001f930       ?SetVoid@CComObjectRootBase@ATL@@QAEXPAX@Z 10020930 f i MICR.obj
 0001:0001f940       ?SetWindowLongPtrW@@YAJPAUHWND__@@HJ@Z 10020940 f i MICR.obj
 0001:0001f970       ?ShowWindow@CWindow@ATL@@QAEHH@Z 10020970 f i MICR.obj
 0001:0001f9f0       ?Skip@?$CComEnumImpl@UIEnumConnectionPoints@@$1?_GUID_b196b285_bab4_101a_b69c_00aa00341d07@@3U__s_GUID@@BPAUIConnectionPoint@@V?$_CopyInterface@UIConnectionPoint@@@ATL@@@ATL@@UAGJK@Z 100209f0 f i MICR.obj
 0001:0001fa60       ?Skip@?$CComEnumImpl@UIEnumConnections@@$1?_GUID_b196b287_bab4_101a_b69c_00aa00341d07@@3U__s_GUID@@BUtagCONNECTDATA@@V?$_Copy@UtagCONNECTDATA@@@ATL@@@ATL@@UAGJK@Z 10020a60 f i MICR.obj
 0001:0001fad0       ?SkipAssignment@CRegParser@ATL@@IAEJPA_W@Z 10020ad0 f i MICR.obj
 0001:0001fbb0       ?SkipWhiteSpace@CRegParser@ATL@@IAEXXZ 10020bb0 f i MICR.obj
 0001:0001fc00       ?StartWindowProc@?$CWindowImplBaseT@VCWindow@ATL@@V?$CWinTraits@$0FGAAAAAA@$0A@@2@@ATL@@SGJPAUHWND__@@IIJ@Z 10020c00 f i MICR.obj
 0001:0001fd20       ?StrChrW@CRegParser@ATL@@KAPA_WPA_W_W@Z 10020d20 f i MICR.obj
 0001:0001fd90       ?StrFromMap@CRegObject@ATL@@QAEPB_WPA_W@Z 10020d90 f i MICR.obj
 0001:0001fe20       ?Swap@?$CComPtrBase@UIAdviseSink@@@ATL@@IAEXAAV12@@Z 10020e20 f i MICR.obj
 0001:0001fe50       ?Swap@?$CComPtrBase@UIOleClientSite@@@ATL@@IAEXAAV12@@Z 10020e50 f i MICR.obj
 0001:0001fe80       ?Swap@?$CComPtrBase@UIUnknown@@@ATL@@IAEXAAV12@@Z 10020e80 f i MICR.obj
 0001:0001feb0       ?T2COLE_EX@@YAPB_WPB_WI@Z  10020eb0 f i MICR.obj
 0001:0001fec0       ?T2OLE_EX@@YAPA_WPA_WI@Z   10020ec0 f i MICR.obj
 0001:0001fed0       ?Term@CAtlModule@ATL@@QAEXXZ 10020ed0 f i MICR.obj
 0001:0001ff80       ?Term@CComModule@ATL@@QAEXXZ 10020f80 f i MICR.obj
 0001:00020070       ?TranslateAcceleratorW@?$IOleInPlaceActiveObjectImpl@VCOPOSMICR@@@ATL@@UAGJPAUtagMSG@@@Z 10021070 f i MICR.obj
 0001:00020270       ?UIDeactivate@?$IOleInPlaceObjectWindowlessImpl@VCOPOSMICR@@@ATL@@UAGJXZ 10021270 f i MICR.obj
 0001:000202f0       ?Unadvise@?$CProxy_IOPOSEvents@VCOPOSMICR@@@@UAGJK@Z 100212f0 f i MICR.obj
 0001:00020330       ?Unadvise@?$IConnectionPointImpl@VCOPOSMICR@@$1?DIID__IOPOSMICREvents@@3U_GUID@@BVCComDynamicUnkArray@ATL@@@ATL@@UAGJK@Z 10021330 f i MICR.obj
 0001:00020400       ?Unadvise@?$IConnectionPointImpl@VCOPOSMICR@@$1?IID_IPropertyNotifySink@@3U_GUID@@BVCComDynamicUnkArray@ATL@@@ATL@@UAGJK@Z 10021400 f i MICR.obj
 0001:000204d0       ?Unadvise@?$IOleObjectImpl@VCOPOSMICR@@@ATL@@UAGJK@Z 100214d0 f i MICR.obj
 0001:000205a0       ?Unfreeze@?$IViewObjectExImpl@VCOPOSMICR@@@ATL@@UAGJK@Z 100215a0 f i MICR.obj
 0001:00020610       ?Unlock@?$CComCritSecLock@VCComCriticalSection@ATL@@@ATL@@QAEXXZ 10021610 f i MICR.obj
 0001:00020680       ?Unlock@?$CComObjectRootEx@VCComSingleThreadModel@ATL@@@ATL@@QAEXXZ 10021680 f i MICR.obj
 0001:00020690       ?Unlock@CAtlModule@ATL@@UAEJXZ 10021690 f i MICR.obj
 0001:000206c0       ?Unlock@CComCriticalSection@ATL@@QAEJXZ 100216c0 f i MICR.obj
 0001:00020700       ?Unlock@CComFakeCriticalSection@ATL@@QAEJXZ 10021700 f i MICR.obj
 0001:00020710       ?UnregisterServer@?$CAtlModuleT@VCComModule@ATL@@@ATL@@QAEJHPBU_GUID@@@Z 10021710 f i MICR.obj
 0001:00020780       ?UnregisterServer@CAtlComModule@ATL@@QAEJHPBU_GUID@@@Z 10021780 f i MICR.obj
 0001:000207b0       ?UnregisterServer@CComModule@ATL@@QAEJHPBU_GUID@@@Z 100217b0 f i MICR.obj
 0001:00020890       ?Update@?$IOleObjectImpl@VCOPOSMICR@@@ATL@@UAGJXZ 10021890 f i MICR.obj
 0001:000208f0       ?UpdateRegistryFromResource@CAtlModule@ATL@@QAGJIHPAU_ATL_REGMAP_ENTRY@2@@Z 100218f0 f i MICR.obj
 0001:00020dc0       ?UpdateRegistryFromResource@CAtlModule@ATL@@QAGJPB_WHPAU_ATL_REGMAP_ENTRY@2@@Z 10021dc0 f i MICR.obj
 0001:000212b0       ?UpdateRegistryFromResource@CComModule@ATL@@UAGJIHPAU_ATL_REGMAP_ENTRY@2@@Z 100222b0 f i MICR.obj
 0001:000212e0       ?UpdateRegistryFromResource@CComModule@ATL@@UAGJPB_WHPAU_ATL_REGMAP_ENTRY@2@@Z 100222e0 f i MICR.obj
 0001:00021310       ?UpdateRegistryFromResourceD@CComModule@ATL@@UAGJIHPAU_ATL_REGMAP_ENTRY@2@@Z 10022310 f i MICR.obj
 0001:00021320       ?UpdateRegistryFromResourceD@CComModule@ATL@@UAGJPB_WHPAU_ATL_REGMAP_ENTRY@2@@Z 10022320 f i MICR.obj
 0001:00021330       ?VTFromRegType@CRegParser@ATL@@KAHPB_WAAG@Z 10022330 f i MICR.obj
 0001:00021410       ?WindowProc@?$CWindowImplBaseT@VCWindow@ATL@@V?$CWinTraits@$0FGAAAAAA@$0A@@2@@ATL@@SGJPAUHWND__@@IIJ@Z 10022410 f i MICR.obj
 0001:00021620       ?WriteToStream@CComBSTR@ATL@@QAEJPAUIStream@@@Z 10022620 f i MICR.obj
 0001:00021780       ?WriteToStream@CComVariant@ATL@@QAEJPAUIStream@@@Z 10022780 f i MICR.obj
 0001:00021ae0       ?WriteToStream@CComVariant@ATL@@QAEJPAUIStream@@G@Z 10022ae0 f i MICR.obj
 0001:00021bb0       ?_AtlFinalConstruct@CComObjectRootBase@ATL@@QAEJXZ 10022bb0 f i MICR.obj
 0001:00021bc0       ?_AtlGetConversionACP@ATL@@YGIXZ 10022bc0 f i MICR.obj
 0001:00021bd0       ?_AtlInitialConstruct@?$CComAggObject@VCOPOSMICR@@@ATL@@QAEJXZ 10022bd0 f i MICR.obj
 0001:00021c20       ?_AtlInitialConstruct@?$CComObjectRootEx@VCComMultiThreadModel@ATL@@@ATL@@QAEJXZ 10022c20 f i MICR.obj
 0001:00021c50       ?_AtlInitialConstruct@?$CComObjectRootEx@VCComSingleThreadModel@ATL@@@ATL@@QAEJXZ 10022c50 f i MICR.obj
 0001:00021c60       ?_AtlVerifyStackAvailable@_ATL_SAFE_ALLOCA_IMPL@ATL@@YA_NK@Z 10022c60 f i MICR.obj
 0001:00021e10       ?_GetEntries@?$CComEnum@UIEnumConnectionPoints@@$1?_GUID_b196b285_bab4_101a_b69c_00aa00341d07@@3U__s_GUID@@BPAUIConnectionPoint@@V?$_CopyInterface@UIConnectionPoint@@@ATL@@VCComSingleThreadModel@6@@ATL@@SGPBU_ATL_INTMAP_ENTRY@2@XZ 10022e10 f i MICR.obj
 0001:00021e30       ?_GetEntries@?$CComEnum@UIEnumConnections@@$1?_GUID_b196b287_bab4_101a_b69c_00aa00341d07@@3U__s_GUID@@BUtagCONNECTDATA@@V?$_Copy@UtagCONNECTDATA@@@ATL@@VCComSingleThreadModel@6@@ATL@@SGPBU_ATL_INTMAP_ENTRY@2@XZ 10022e30 f i MICR.obj
 0001:00021e50       ?_GetEntries@CComClassFactory@ATL@@SGPBU_ATL_INTMAP_ENTRY@2@XZ 10022e50 f i MICR.obj
 0001:00021e70       ?_GetEntries@COPOSMICR@@SGPBU_ATL_INTMAP_ENTRY@ATL@@XZ 10022e70 f i MICR.obj
 0001:00021e90       ?_GetRawUnknown@COPOSMICR@@QAEPAUIUnknown@@XZ 10022e90 f i MICR.obj
 0001:00021f00       ?_GetViewStatus@COPOSMICR@@QAEKXZ 10022f00 f i MICR.obj
 0001:00021f10       ?_InternalQueryInterface@?$CComEnum@UIEnumConnectionPoints@@$1?_GUID_b196b285_bab4_101a_b69c_00aa00341d07@@3U__s_GUID@@BPAUIConnectionPoint@@V?$_CopyInterface@UIConnectionPoint@@@ATL@@VCComSingleThreadModel@6@@ATL@@QAEJABU_GUID@@PAPAX@Z 10022f10 f i MICR.obj
 0001:00021f50       ?_InternalQueryInterface@?$CComEnum@UIEnumConnections@@$1?_GUID_b196b287_bab4_101a_b69c_00aa00341d07@@3U__s_GUID@@BUtagCONNECTDATA@@V?$_Copy@UtagCONNECTDATA@@@ATL@@VCComSingleThreadModel@6@@ATL@@QAEJABU_GUID@@PAPAX@Z 10022f50 f i MICR.obj
 0001:00021f90       ?_InternalQueryInterface@CComClassFactory@ATL@@QAEJABU_GUID@@PAPAX@Z 10022f90 f i MICR.obj
 0001:00021fd0       ?_InternalQueryInterface@COPOSMICR@@QAEJABU_GUID@@PAPAX@Z 10022fd0 f i MICR.obj
 0001:00022010       ?_LocCPQueryInterface@?$IConnectionPointImpl@VCOPOSMICR@@$1?DIID__IOPOSMICREvents@@3U_GUID@@BVCComDynamicUnkArray@ATL@@@ATL@@UAGJABU_GUID@@PAPAX@Z 10023010 f i MICR.obj
 0001:000220b0       ?_LocCPQueryInterface@?$IConnectionPointImpl@VCOPOSMICR@@$1?IID_IPropertyNotifySink@@3U_GUID@@BVCComDynamicUnkArray@ATL@@@ATL@@UAGJABU_GUID@@PAPAX@Z 100230b0 f i MICR.obj
 0001:00022150       ?atlCreate@?$CWindowImpl@VCOPOSMICR@@VCWindow@ATL@@V?$CWinTraits@$0FGAAAAAA@$0A@@3@@ATL@@QAEPAUHWND__@@PAU3@V_U_RECT@2@PB_WKKV_U_MENUorID@2@PAX@Z 10023150 f i MICR.obj
 0001:00022200       ?atlCreate@?$CWindowImplBaseT@VCWindow@ATL@@V?$CWinTraits@$0FGAAAAAA@$0A@@2@@ATL@@QAEPAUHWND__@@PAU3@V_U_RECT@2@PB_WKKV_U_MENUorID@2@GPAX@Z 10023200 f i MICR.obj
 0001:00022380       ?atlCreate@CRegKey@ATL@@QAEJPAUHKEY__@@PB_WPA_WKKPAU_SECURITY_ATTRIBUTES@@PAK@Z 10023380 f i MICR.obj
 0001:000224e0       ?begin@CComDynamicUnkArray@ATL@@QAEPAPAUIUnknown@@XZ 100234e0 f i MICR.obj
 0001:000224f0       ?copy@?$_Copy@UtagCONNECTDATA@@@ATL@@SAJPAUtagCONNECTDATA@@PBU3@@Z 100234f0 f i MICR.obj
 0001:000225b0       ?copy@?$_CopyInterface@UIConnectionPoint@@@ATL@@SAJPAPAUIConnectionPoint@@PBQAU3@@Z 100235b0 f i MICR.obj
 0001:00022670       ?destroy@?$_Copy@UtagCONNECTDATA@@@ATL@@SAXPAUtagCONNECTDATA@@@Z 10023670 f i MICR.obj
 0001:000226b0       ?destroy@?$_CopyInterface@UIConnectionPoint@@@ATL@@SAXPAPAUIConnectionPoint@@@Z 100236b0 f i MICR.obj
 0001:000226f0       ?end@CComDynamicUnkArray@ATL@@QAEPAPAUIUnknown@@XZ 100236f0 f i MICR.obj
 0001:00022710       ?init@?$_Copy@UtagCONNECTDATA@@@ATL@@SAXPAUtagCONNECTDATA@@@Z 10023710 f i MICR.obj
 0001:00022720       ?init@?$_CopyInterface@UIConnectionPoint@@@ATL@@SAXPAPAUIConnectionPoint@@@Z 10023720 f i MICR.obj
 0001:00022730       ?memcpy_s@Checked@ATL@@YAXPAXIPBXI@Z 10023730 f i MICR.obj
 0001:00022760       ?ocscpy_s@@YA_NPA_WIPB_W@Z 10023760 f i MICR.obj
 0001:000227c0       ?ocslen@@YAHPB_W@Z         100237c0 f i MICR.obj
 0001:000227f0       ?tcsncpy_s@Checked@ATL@@YAHPA_WIPB_WI@Z 100237f0 f i MICR.obj
 0001:00022820       ?wcscat_s@Checked@ATL@@YAXPA_WIPB_W@Z 10023820 f i MICR.obj
 0001:00022850       ?wcscpy_s@Checked@ATL@@YAXPA_WIPB_W@Z 10023850 f i MICR.obj
 0001:00022880       ?wcsncpy_s@Checked@ATL@@YAHPA_WIPB_WI@Z 10023880 f i MICR.obj
 0001:000228b0       ?wcsstr@@YAPA_WPA_WPB_W@Z  100238b0 f i MICR.obj
 0001:000228d0       _InlineIsEqualGUID         100238d0 f i MICR.obj
 0001:00022970       _IsEqualGUID               10023970 f i MICR.obj
 0001:000229c0       ??0COPOSMICR@@QAE@XZ       100239c0 f   MICRImpl.obj
 0001:00022ad0       ?FinalConstruct@COPOSMICR@@QAEJXZ 10023ad0 f   MICRImpl.obj
 0001:00022ba0       ??1COPOSMICR@@UAE@XZ       10023ba0 f   MICRImpl.obj
 0001:00022c80       ?WriteTrace@COPOSMICR@@QAAXPB_WZZ 10023c80 f   MICRImpl.obj
 0001:00022d30       ?WriteTraceString@COPOSMICR@@QAEXPB_WPA_W@Z 10023d30 f   MICRImpl.obj
 0001:000230a0       ?WriteTraceString@COPOSMICR@@QAAXPAXHHHPB_WZZ 100240a0 f   MICRImpl.obj
 0001:000232d0       ?WriteTraceError@COPOSMICR@@QAEXPB_WK@Z 100242d0 f   MICRImpl.obj
 0001:000233c0       ?WriteTraceMethods@COPOSMICR@@QAEXPAJH@Z 100243c0 f   MICRImpl.obj
 0001:00023430       ?GetOposProp@COPOSMICR@@IAEJPBDJPAJJ@Z 10024430 f   MICRImpl.obj
 0001:000236a0       ?SetOposProp@COPOSMICR@@IAEJPBDJJJ@Z 100246a0 f   MICRImpl.obj
 0001:00023930       ?GetOposProp@COPOSMICR@@IAEJPBDJPAFJ@Z 10024930 f   MICRImpl.obj
 0001:000239d0       ?SetOposProp@COPOSMICR@@IAEJPBDJFJ@Z 100249d0 f   MICRImpl.obj
 0001:00023a30       ?GetOposProp@COPOSMICR@@IAEJPBDJPAPA_WJ@Z 10024a30 f   MICRImpl.obj
 0001:00023cb0       ?SetOposProp@COPOSMICR@@IAEJPBDJPA_WJ@Z 10024cb0 f   MICRImpl.obj
 0001:00023ff0       ?DoInvoke@COPOSMICR@@IAEJPBDJPAVOposVariant@@IHPAJ_N@Z 10024ff0 f   MICRImpl.obj
 0001:00024920       ?SetCOFreezeEvents@COPOSMICR@@IAEXF@Z 10025920 f   MICRImpl.obj
 0001:00024a60       ?FreezeEvents@COPOSMICR@@MAGJH@Z 10025a60 f   MICRImpl.obj
 0001:00024b40       ?OnDraw@COPOSMICR@@MAEJAAUATL_DRAWINFO@@@Z 10025b40 f   MICRImpl.obj
 0001:00024ce0       ?SOProcessID@COPOSMICR@@UAGJPAJ@Z 10025ce0 f   MICRImpl.obj
 0001:00024d20       ?get_OpenResult@COPOSMICR@@UAGJPAJ@Z 10025d20 f   MICRImpl.obj
 0001:00024d60       ?get_CheckHealthText@COPOSMICR@@UAGJPAPA_W@Z 10025d60 f   MICRImpl.obj
 0001:00024d90       ?get_Claimed@COPOSMICR@@UAGJPAF@Z 10025d90 f   MICRImpl.obj
 0001:00024dc0       ?get_DataEventEnabled@COPOSMICR@@UAGJPAF@Z 10025dc0 f   MICRImpl.obj
 0001:00024df0       ?put_DataEventEnabled@COPOSMICR@@UAGJF@Z 10025df0 f   MICRImpl.obj
 0001:00024e20       ?get_DeviceEnabled@COPOSMICR@@UAGJPAF@Z 10025e20 f   MICRImpl.obj
 0001:00024e50       ?put_DeviceEnabled@COPOSMICR@@UAGJF@Z 10025e50 f   MICRImpl.obj
 0001:00024e80       ?get_FreezeEvents@COPOSMICR@@UAGJPAF@Z 10025e80 f   MICRImpl.obj
 0001:00024eb0       ?put_FreezeEvents@COPOSMICR@@UAGJF@Z 10025eb0 f   MICRImpl.obj
 0001:00024f40       ?get_ResultCode@COPOSMICR@@UAGJPAJ@Z 10025f40 f   MICRImpl.obj
 0001:00024fd0       ?get_ResultCodeExtended@COPOSMICR@@UAGJPAJ@Z 10025fd0 f   MICRImpl.obj
 0001:00025000       ?get_State@COPOSMICR@@UAGJPAJ@Z 10026000 f   MICRImpl.obj
 0001:00025050       ?get_ControlObjectDescription@COPOSMICR@@UAGJPAPA_W@Z 10026050 f   MICRImpl.obj
 0001:000250d0       ?get_ControlObjectVersion@COPOSMICR@@UAGJPAJ@Z 100260d0 f   MICRImpl.obj
 0001:00025110       ?get_ServiceObjectDescription@COPOSMICR@@UAGJPAPA_W@Z 10026110 f   MICRImpl.obj
 0001:00025140       ?get_ServiceObjectVersion@COPOSMICR@@UAGJPAJ@Z 10026140 f   MICRImpl.obj
 0001:00025170       ?get_DeviceDescription@COPOSMICR@@UAGJPAPA_W@Z 10026170 f   MICRImpl.obj
 0001:000251a0       ?get_DeviceName@COPOSMICR@@UAGJPAPA_W@Z 100261a0 f   MICRImpl.obj
 0001:000251d0       ?CheckHealth@COPOSMICR@@UAGJJPAJ@Z 100261d0 f   MICRImpl.obj
 0001:00025270       ?ClaimDevice@COPOSMICR@@UAGJJPAJ@Z 10026270 f   MICRImpl.obj
 0001:00025350       ?ClearInput@COPOSMICR@@UAGJPAJ@Z 10026350 f   MICRImpl.obj
 0001:00025380       ?Close@COPOSMICR@@UAGJPAJ@Z 10026380 f   MICRImpl.obj
 0001:00025450       ?DirectIO@COPOSMICR@@UAGJJPAJPAPA_W0@Z 10026450 f   MICRImpl.obj
 0001:00025560       ?Open@COPOSMICR@@UAGJPA_WPAJ@Z 10026560 f   MICRImpl.obj
 0001:00026740       ?ReleaseDevice@COPOSMICR@@UAGJPAJ@Z 10027740 f   MICRImpl.obj
 0001:000267b0       ?get_AccountNumber@COPOSMICR@@UAGJPAPA_W@Z 100277b0 f   MICRImpl.obj
 0001:000267e0       ?get_Amount@COPOSMICR@@UAGJPAPA_W@Z 100277e0 f   MICRImpl.obj
 0001:00026810       ?get_BankNumber@COPOSMICR@@UAGJPAPA_W@Z 10027810 f   MICRImpl.obj
 0001:00026840       ?get_CapValidationDevice@COPOSMICR@@UAGJPAF@Z 10027840 f   MICRImpl.obj
 0001:00026870       ?get_CheckType@COPOSMICR@@UAGJPAJ@Z 10027870 f   MICRImpl.obj
 0001:000268a0       ?get_CountryCode@COPOSMICR@@UAGJPAJ@Z 100278a0 f   MICRImpl.obj
 0001:000268d0       ?get_EPC@COPOSMICR@@UAGJPAPA_W@Z 100278d0 f   MICRImpl.obj
 0001:00026900       ?get_RawData@COPOSMICR@@UAGJPAPA_W@Z 10027900 f   MICRImpl.obj
 0001:00026930       ?get_SerialNumber@COPOSMICR@@UAGJPAPA_W@Z 10027930 f   MICRImpl.obj
 0001:00026960       ?get_TransitNumber@COPOSMICR@@UAGJPAPA_W@Z 10027960 f   MICRImpl.obj
 0001:00026990       ?BeginInsertion@COPOSMICR@@UAGJJPAJ@Z 10027990 f   MICRImpl.obj
 0001:00026a30       ?BeginRemoval@COPOSMICR@@UAGJJPAJ@Z 10027a30 f   MICRImpl.obj
 0001:00026ad0       ?EndInsertion@COPOSMICR@@UAGJPAJ@Z 10027ad0 f   MICRImpl.obj
 0001:00026b00       ?EndRemoval@COPOSMICR@@UAGJPAJ@Z 10027b00 f   MICRImpl.obj
 0001:00026b30       ?get_AutoDisable@COPOSMICR@@UAGJPAF@Z 10027b30 f   MICRImpl.obj
 0001:00026b60       ?put_AutoDisable@COPOSMICR@@UAGJF@Z 10027b60 f   MICRImpl.obj
 0001:00026b90       ?get_BinaryConversion@COPOSMICR@@UAGJPAJ@Z 10027b90 f   MICRImpl.obj
 0001:00026bc0       ?put_BinaryConversion@COPOSMICR@@UAGJJ@Z 10027bc0 f   MICRImpl.obj
 0001:00026bf0       ?get_DataCount@COPOSMICR@@UAGJPAJ@Z 10027bf0 f   MICRImpl.obj
 0001:00026c20       ?get_CapPowerReporting@COPOSMICR@@UAGJPAJ@Z 10027c20 f   MICRImpl.obj
 0001:00026c50       ?get_PowerNotify@COPOSMICR@@UAGJPAJ@Z 10027c50 f   MICRImpl.obj
 0001:00026c80       ?put_PowerNotify@COPOSMICR@@UAGJJ@Z 10027c80 f   MICRImpl.obj
 0001:00026cb0       ?get_PowerState@COPOSMICR@@UAGJPAJ@Z 10027cb0 f   MICRImpl.obj
 0001:00026ce0       ?get_CapStatisticsReporting@COPOSMICR@@UAGJPAF@Z 10027ce0 f   MICRImpl.obj
 0001:00026d10       ?get_CapUpdateStatistics@COPOSMICR@@UAGJPAF@Z 10027d10 f   MICRImpl.obj
 0001:00026d40       ?ResetStatistics@COPOSMICR@@UAGJPA_WPAJ@Z 10027d40 f   MICRImpl.obj
 0001:00026df0       ?RetrieveStatistics@COPOSMICR@@UAGJPAPA_WPAJ@Z 10027df0 f   MICRImpl.obj
 0001:00026ea0       ?UpdateStatistics@COPOSMICR@@UAGJPA_WPAJ@Z 10027ea0 f   MICRImpl.obj
 0001:00026f50       ?get_CapCompareFirmwareVersion@COPOSMICR@@UAGJPAF@Z 10027f50 f   MICRImpl.obj
 0001:00026f80       ?get_CapUpdateFirmware@COPOSMICR@@UAGJPAF@Z 10027f80 f   MICRImpl.obj
 0001:00026fb0       ?CompareFirmwareVersion@COPOSMICR@@UAGJPA_WPAJ1@Z 10027fb0 f   MICRImpl.obj
 0001:000270a0       ?UpdateFirmware@COPOSMICR@@UAGJPA_WPAJ@Z 100280a0 f   MICRImpl.obj
 0001:00027150       ?ClearInputProperties@COPOSMICR@@UAGJPAJ@Z 10028150 f   MICRImpl.obj
 0001:00027180       ??0?$CComControl@VCOPOSMICR@@V?$CWindowImpl@VCOPOSMICR@@VCWindow@ATL@@V?$CWinTraits@$0FGAAAAAA@$0A@@3@@ATL@@@ATL@@QAE@XZ 10028180 f i MICRImpl.obj
 0001:000271c0       ??0?$CComPtr@UIAdviseSink@@@ATL@@QAE@XZ 100281c0 f i MICRImpl.obj
 0001:000271f0       ??0?$CComPtr@UIDataAdviseHolder@@@ATL@@QAE@XZ 100281f0 f i MICRImpl.obj
 0001:00027220       ??0?$CComPtr@UIOleAdviseHolder@@@ATL@@QAE@XZ 10028220 f i MICRImpl.obj
 0001:00027250       ??0?$CComPtr@UIOleClientSite@@@ATL@@QAE@XZ 10028250 f i MICRImpl.obj
 0001:00027280       ??0?$CComPtr@UIOleInPlaceSiteWindowless@@@ATL@@QAE@XZ 10028280 f i MICRImpl.obj
 0001:000272b0       ??0?$CComPtrBase@UIAdviseSink@@@ATL@@IAE@XZ 100282b0 f i MICRImpl.obj
 0001:000272d0       ??0?$CComPtrBase@UIDataAdviseHolder@@@ATL@@IAE@XZ 100282d0 f i MICRImpl.obj
 0001:000272f0       ??0?$CComPtrBase@UIOleAdviseHolder@@@ATL@@IAE@XZ 100282f0 f i MICRImpl.obj
 0001:00027310       ??0?$CComPtrBase@UIOleClientSite@@@ATL@@IAE@XZ 10028310 f i MICRImpl.obj
 0001:00027330       ??0?$CComPtrBase@UIOleInPlaceSiteWindowless@@@ATL@@IAE@XZ 10028330 f i MICRImpl.obj
 0001:00027350       ??0?$CComQIPtr@UIDispatch@@$1?_GUID_00020400_0000_0000_c000_000000000046@@3U__s_GUID@@B@ATL@@QAE@XZ 10028350 f i MICRImpl.obj
 0001:00027380       ??0?$CProxy_IOPOSEvents@VCOPOSMICR@@@@QAE@PAVCOPOSMICR@@@Z 10028380 f i MICRImpl.obj
 0001:000273f0       ??0?$CWindowImpl@VCOPOSMICR@@VCWindow@ATL@@V?$CWinTraits@$0FGAAAAAA@$0A@@3@@ATL@@QAE@XZ 100283f0 f i MICRImpl.obj
 0001:00027420       ??0?$CWindowImplBaseT@VCWindow@ATL@@V?$CWinTraits@$0FGAAAAAA@$0A@@2@@ATL@@QAE@XZ 10028420 f i MICRImpl.obj
 0001:00027460       ??0?$CWindowImplRoot@VCWindow@ATL@@@ATL@@QAE@XZ 10028460 f i MICRImpl.obj
 0001:000274c0       ??0?$IConnectionPointContainerImpl@VCOPOSMICR@@@ATL@@QAE@XZ 100284c0 f i MICRImpl.obj
 0001:000274f0       ??0?$IConnectionPointImpl@VCOPOSMICR@@$1?DIID__IOPOSMICREvents@@3U_GUID@@BVCComDynamicUnkArray@ATL@@@ATL@@QAE@XZ 100284f0 f i MICRImpl.obj
 0001:00027530       ??0?$IConnectionPointImpl@VCOPOSMICR@@$1?IID_IPropertyNotifySink@@3U_GUID@@BVCComDynamicUnkArray@ATL@@@ATL@@QAE@XZ 10028530 f i MICRImpl.obj
 0001:00027570       ??0?$IDataObjectImpl@VCOPOSMICR@@@ATL@@QAE@XZ 10028570 f i MICRImpl.obj
 0001:000275a0       ??0?$IDispatchImpl@UIOPOSMICR@@$1?IID_IOPOSMICR@@3U_GUID@@B$1?LIBID_OposMICR_CCO@@3U3@B$00$0A@VCComTypeInfoHolder@ATL@@@ATL@@QAE@XZ 100285a0 f i MICRImpl.obj
 0001:000275d0       ??0?$IObjectSafetyImpl@VCOPOSMICR@@$02@ATL@@QAE@XZ 100285d0 f i MICRImpl.obj
 0001:00027610       ??0?$IOleControlImpl@VCOPOSMICR@@@ATL@@QAE@XZ 10028610 f i MICRImpl.obj
 0001:00027640       ??0?$IOleInPlaceActiveObjectImpl@VCOPOSMICR@@@ATL@@QAE@XZ 10028640 f i MICRImpl.obj
 0001:00027670       ??0?$IOleInPlaceObjectWindowlessImpl@VCOPOSMICR@@@ATL@@QAE@XZ 10028670 f i MICRImpl.obj
 0001:000276a0       ??0?$IOleObjectImpl@VCOPOSMICR@@@ATL@@QAE@XZ 100286a0 f i MICRImpl.obj
 0001:000276d0       ??0?$IPersistStorageImpl@VCOPOSMICR@@@ATL@@QAE@XZ 100286d0 f i MICRImpl.obj
 0001:00027700       ??0?$IPersistStreamInitImpl@VCOPOSMICR@@@ATL@@QAE@XZ 10028700 f i MICRImpl.obj
 0001:00027730       ??0?$IPropertyNotifySinkCP@VCOPOSMICR@@VCComDynamicUnkArray@ATL@@@ATL@@QAE@XZ 10028730 f i MICRImpl.obj
 0001:00027760       ??0?$IProvideClassInfo2Impl@$1?CLSID_OPOSMICR@@3U_GUID@@B$1?DIID__IOPOSMICREvents@@3U2@B$1?LIBID_OposMICR_CCO@@3U2@B$00$0A@VCComTypeInfoHolder@ATL@@@ATL@@QAE@XZ 10028760 f i MICRImpl.obj
 0001:00027790       ??0?$IQuickActivateImpl@VCOPOSMICR@@@ATL@@QAE@XZ 10028790 f i MICRImpl.obj
 0001:000277c0       ??0?$ISpecifyPropertyPagesImpl@VCOPOSMICR@@@ATL@@QAE@XZ 100287c0 f i MICRImpl.obj
 0001:000277f0       ??0?$IViewObjectExImpl@VCOPOSMICR@@@ATL@@QAE@XZ 100287f0 f i MICRImpl.obj
 0001:00027820       ??0?$_ICPLocator@$1?DIID__IOPOSMICREvents@@3U_GUID@@B@ATL@@QAE@XZ 10028820 f i MICRImpl.obj
 0001:00027830       ??0?$_ICPLocator@$1?IID_IPropertyNotifySink@@3U_GUID@@B@ATL@@QAE@XZ 10028830 f i MICRImpl.obj
 0001:00027840       ??0CComControlBase@ATL@@QAE@AAPAUHWND__@@@Z 10028840 f i MICRImpl.obj
 0001:000279f0       ??0CComDynamicUnkArray@ATL@@QAE@XZ 100289f0 f i MICRImpl.obj
 0001:00027a20       ??0CDynamicStdCallThunk2@ATL@@QAE@XZ 10028a20 f i MICRImpl.obj
 0001:00027a40       ??0CMessageMap@ATL@@QAE@XZ 10028a40 f i MICRImpl.obj
 0001:00027a50       ??0CWindow@ATL@@QAE@PAUHWND__@@@Z 10028a50 f i MICRImpl.obj
 0001:00027a70       ??0CWndProcThunk@ATL@@QAE@XZ 10028a70 f i MICRImpl.obj
 0001:00027aa0       ??0IConnectionPointContainer@@QAE@XZ 10028aa0 f i MICRImpl.obj
 0001:00027ad0       ??0IDataObject@@QAE@XZ     10028ad0 f i MICRImpl.obj
 0001:00027b00       ??0IDispatch@@QAE@XZ       10028b00 f i MICRImpl.obj
 0001:00027b30       ??0IOPOSMICR@@QAE@XZ       10028b30 f i MICRImpl.obj
 0001:00027b60       ??0IOPOSMICR_1_10@@QAE@XZ  10028b60 f i MICRImpl.obj
 0001:00027b90       ??0IOPOSMICR_1_5@@QAE@XZ   10028b90 f i MICRImpl.obj
 0001:00027bc0       ??0IOPOSMICR_1_8@@QAE@XZ   10028bc0 f i MICRImpl.obj
 0001:00027bf0       ??0IOPOSMICR_1_9@@QAE@XZ   10028bf0 f i MICRImpl.obj
 0001:00027c20       ??0IObjectSafety@@QAE@XZ   10028c20 f i MICRImpl.obj
 0001:00027c50       ??0IOleControl@@QAE@XZ     10028c50 f i MICRImpl.obj
 0001:00027c80       ??0IOleInPlaceActiveObject@@QAE@XZ 10028c80 f i MICRImpl.obj
 0001:00027cb0       ??0IOleInPlaceObject@@QAE@XZ 10028cb0 f i MICRImpl.obj
 0001:00027ce0       ??0IOleInPlaceObjectWindowless@@QAE@XZ 10028ce0 f i MICRImpl.obj
 0001:00027d10       ??0IOleObject@@QAE@XZ      10028d10 f i MICRImpl.obj
 0001:00027d40       ??0IOleWindow@@QAE@XZ      10028d40 f i MICRImpl.obj
 0001:00027d70       ??0IPersist@@QAE@XZ        10028d70 f i MICRImpl.obj
 0001:00027da0       ??0IPersistStorage@@QAE@XZ 10028da0 f i MICRImpl.obj
 0001:00027dd0       ??0IPersistStreamInit@@QAE@XZ 10028dd0 f i MICRImpl.obj
 0001:00027e00       ??0IProvideClassInfo2@@QAE@XZ 10028e00 f i MICRImpl.obj
 0001:00027e30       ??0IProvideClassInfo@@QAE@XZ 10028e30 f i MICRImpl.obj
 0001:00027e60       ??0IQuickActivate@@QAE@XZ  10028e60 f i MICRImpl.obj
 0001:00027e90       ??0ISpecifyPropertyPages@@QAE@XZ 10028e90 f i MICRImpl.obj
 0001:00027ec0       ??0IViewObject2@@QAE@XZ    10028ec0 f i MICRImpl.obj
 0001:00027ef0       ??0IViewObject@@QAE@XZ     10028ef0 f i MICRImpl.obj
 0001:00027f20       ??0IViewObjectEx@@QAE@XZ   10028f20 f i MICRImpl.obj
 0001:00027f50       ??0OposVariantResult@@QAE@XZ 10028f50 f i MICRImpl.obj
 0001:00027f80       ??0_CW@@QAE@PBD@Z          10028f80 f i MICRImpl.obj
 0001:00027fc0       ??0_CW@@QAE@PB_W@Z         10028fc0 f i MICRImpl.obj
 0001:00028000       ??0_CWNCC@@QAE@PBD@Z       10029000 f i MICRImpl.obj
 0001:00028030       ??1?$CComControl@VCOPOSMICR@@V?$CWindowImpl@VCOPOSMICR@@VCWindow@ATL@@V?$CWinTraits@$0FGAAAAAA@$0A@@3@@ATL@@@ATL@@UAE@XZ 10029030 f i MICRImpl.obj
 0001:00028060       ??1?$CComPtr@UIDataAdviseHolder@@@ATL@@QAE@XZ 10029060 f i MICRImpl.obj
 0001:00028090       ??1?$CComPtr@UIOleAdviseHolder@@@ATL@@QAE@XZ 10029090 f i MICRImpl.obj
 0001:000280c0       ??1?$CComPtr@UIOleInPlaceSiteWindowless@@@ATL@@QAE@XZ 100290c0 f i MICRImpl.obj
 0001:000280f0       ??1?$CComPtrBase@UIDataAdviseHolder@@@ATL@@QAE@XZ 100290f0 f i MICRImpl.obj
 0001:00028140       ??1?$CComPtrBase@UIOleAdviseHolder@@@ATL@@QAE@XZ 10029140 f i MICRImpl.obj
 0001:00028190       ??1?$CComPtrBase@UIOleInPlaceSiteWindowless@@@ATL@@QAE@XZ 10029190 f i MICRImpl.obj
 0001:000281e0       ??1?$CComQIPtr@UIDispatch@@$1?_GUID_00020400_0000_0000_c000_000000000046@@3U__s_GUID@@B@ATL@@QAE@XZ 100291e0 f i MICRImpl.obj
 0001:00028210       ??1?$CProxy_IOPOSEvents@VCOPOSMICR@@@@QAE@XZ 10029210 f i MICRImpl.obj
 0001:00028240       ??1?$CWindowImpl@VCOPOSMICR@@VCWindow@ATL@@V?$CWinTraits@$0FGAAAAAA@$0A@@3@@ATL@@UAE@XZ 10029240 f i MICRImpl.obj
 0001:00028270       ??1?$CWindowImplBaseT@VCWindow@ATL@@V?$CWinTraits@$0FGAAAAAA@$0A@@2@@ATL@@UAE@XZ 10029270 f i MICRImpl.obj
 0001:000282a0       ??1?$CWindowImplRoot@VCWindow@ATL@@@ATL@@UAE@XZ 100292a0 f i MICRImpl.obj
 0001:00028340       ??1?$IConnectionPointImpl@VCOPOSMICR@@$1?DIID__IOPOSMICREvents@@3U_GUID@@BVCComDynamicUnkArray@ATL@@@ATL@@QAE@XZ 10029340 f i MICRImpl.obj
 0001:000283c0       ??1?$IConnectionPointImpl@VCOPOSMICR@@$1?IID_IPropertyNotifySink@@3U_GUID@@BVCComDynamicUnkArray@ATL@@@ATL@@QAE@XZ 100293c0 f i MICRImpl.obj
 0001:00028440       ??1?$IPropertyNotifySinkCP@VCOPOSMICR@@VCComDynamicUnkArray@ATL@@@ATL@@QAE@XZ 10029440 f i MICRImpl.obj
 0001:00028470       ??1CComControlBase@ATL@@UAE@XZ 10029470 f i MICRImpl.obj
 0001:00028530       ??1CComDynamicUnkArray@ATL@@QAE@XZ 10029530 f i MICRImpl.obj
 0001:00028570       ??1CDynamicStdCallThunk2@ATL@@QAE@XZ 10029570 f i MICRImpl.obj
 0001:000285a0       ??1CWndProcThunk@ATL@@QAE@XZ 100295a0 f i MICRImpl.obj
 0001:000285d0       ??1OposVariantResult@@QAE@XZ 100295d0 f i MICRImpl.obj
 0001:00028600       ??1_CW@@QAE@XZ             10029600 f i MICRImpl.obj
 0001:00028670       ??1_CWNCC@@QAE@XZ          10029670 f i MICRImpl.obj
 0001:000286a0       ??B_CW@@QAEPB_WXZ          100296a0 f i MICRImpl.obj
 0001:000286e0       ??B_CWNCC@@QAEPA_WXZ       100296e0 f i MICRImpl.obj
 0001:00028710       ??_EOposVariant@@QAEPAXI@Z 10029710 f i MICRImpl.obj
 0001:000287a0       ?EventClaim@COPOSMICR@@IAEXXZ 100297a0 f i MICRImpl.obj
 0001:000287e0       ?EventClose@COPOSMICR@@IAEXXZ 100297e0 f i MICRImpl.obj
 0001:00028880       ?EventInit@COPOSMICR@@IAEJXZ 10029880 f i MICRImpl.obj
 0001:00028ab0       ?EventOpen@COPOSMICR@@IAEXXZ 10029ab0 f i MICRImpl.obj
 0001:00028af0       ?EventPreCloseRelease@COPOSMICR@@IAEXXZ 10029af0 f i MICRImpl.obj
 0001:00028b70       ?EventUninit@COPOSMICR@@IAEXXZ 10029b70 f i MICRImpl.obj
 0001:00028ca0       ?EventWindowProc@COPOSMICR@@IAGJIIJ@Z 10029ca0 f i MICRImpl.obj
 0001:00028e30       ?FireEventCleanup@COPOSMICR@@IAEXXZ 10029e30 f i MICRImpl.obj
 0001:00028e80       ?FireEventSetup@COPOSMICR@@IAE_NXZ 10029e80 f i MICRImpl.obj
 0001:00028ef0       ?GetModuleInstance@CComModule@ATL@@QAEPAUHINSTANCE__@@XZ 10029ef0 f i MICRImpl.obj
 0001:00028f00       ?SetRC@COPOSMICR@@IAEJJ@Z  10029f00 f i MICRImpl.obj
 0001:00028f20       ?s_EventWindowProc@COPOSMICR@@KGJPAUHWND__@@IIJ@Z 10029f20 f i MICRImpl.obj
 0001:00028fc0       __snwprintf                10029fc0 f i MICRImpl.obj
 0001:00029020       __vfwprintf_l              1002a020 f i MICRImpl.obj
 0001:00029050       __vsnwprintf               1002a050 f i MICRImpl.obj
 0001:00029080       __vsnwprintf_l             1002a080 f i MICRImpl.obj
 0001:000290f0       _vfwprintf                 1002a0f0 f i MICRImpl.obj
 0001:00029112       _DebugBreak@0              1002a112 f   kernel32:KERNEL32.dll
 0001:00029118       _Sleep@4                   1002a118 f   kernel32:KERNEL32.dll
 0001:0002911e       _GetCurrentProcess@0       1002a11e f   kernel32:KERNEL32.dll
 0001:00029124       _TerminateProcess@8        1002a124 f   kernel32:KERNEL32.dll
 0001:0002912a       _MultiByteToWideChar@24    1002a12a f   kernel32:KERNEL32.dll
 0001:00029130       _WideCharToMultiByte@32    1002a130 f   kernel32:KERNEL32.dll
 0001:00029136       _DecodePointer@4           1002a136 f   kernel32:KERNEL32.dll
 0001:0002913c       _RaiseException@16         1002a13c f   kernel32:KERNEL32.dll
 0001:00029142       _GetLastError@0            1002a142 f   kernel32:KERNEL32.dll
 0001:00029148       _SetLastError@4            1002a148 f   kernel32:KERNEL32.dll
 0001:0002914e       _InitializeCriticalSectionEx@12 1002a14e f   kernel32:KERNEL32.dll
 0001:00029154       _DeleteCriticalSection@4   1002a154 f   kernel32:KERNEL32.dll
 0001:0002915a       _EncodePointer@4           1002a15a f   kernel32:KERNEL32.dll
 0001:00029160       _EnterCriticalSection@4    1002a160 f   kernel32:KERNEL32.dll
 0001:00029166       _LeaveCriticalSection@4    1002a166 f   kernel32:KERNEL32.dll
 0001:0002916c       _ResetEvent@4              1002a16c f   kernel32:KERNEL32.dll
 0001:00029172       _ReleaseMutex@4            1002a172 f   kernel32:KERNEL32.dll
 0001:00029178       _WaitForSingleObject@8     1002a178 f   kernel32:KERNEL32.dll
 0001:0002917e       _GetCurrentThreadId@0      1002a17e f   kernel32:KERNEL32.dll
 0001:00029184       _DisableThreadLibraryCalls@4 1002a184 f   kernel32:KERNEL32.dll
 0001:0002918a       _FreeLibrary@4             1002a18a f   kernel32:KERNEL32.dll
 0001:00029190       _GetModuleFileNameW@12     1002a190 f   kernel32:KERNEL32.dll
 0001:00029196       _GetModuleHandleW@4        1002a196 f   kernel32:KERNEL32.dll
 0001:0002919c       _GetProcAddress@8          1002a19c f   kernel32:KERNEL32.dll
 0001:000291a2       _LoadLibraryExW@12         1002a1a2 f   kernel32:KERNEL32.dll
 0001:000291a8       _LoadResource@8            1002a1a8 f   kernel32:KERNEL32.dll
 0001:000291ae       _SizeofResource@8          1002a1ae f   kernel32:KERNEL32.dll
 0001:000291b4       _FindResourceW@12          1002a1b4 f   kernel32:KERNEL32.dll
 0001:000291ba       _GlobalAlloc@8             1002a1ba f   kernel32:KERNEL32.dll
 0001:000291c0       _GlobalUnlock@4            1002a1c0 f   kernel32:KERNEL32.dll
 0001:000291c6       _GlobalLock@4              1002a1c6 f   kernel32:KERNEL32.dll
 0001:000291cc       _MulDiv@12                 1002a1cc f   kernel32:KERNEL32.dll
 0001:000291d2       _lstrcmpiW@8               1002a1d2 f   kernel32:KERNEL32.dll
 0001:000291d8       _DeleteFileW@4             1002a1d8 f   kernel32:KERNEL32.dll
 0001:000291de       _CloseHandle@4             1002a1de f   kernel32:KERNEL32.dll
 0001:000291e4       _SetEvent@4                1002a1e4 f   kernel32:KERNEL32.dll
 0001:000291ea       _CreateMutexW@12           1002a1ea f   kernel32:KERNEL32.dll
 0001:000291f0       _CreateEventW@16           1002a1f0 f   kernel32:KERNEL32.dll
 0001:000291f6       _GetCurrentProcessId@0     1002a1f6 f   kernel32:KERNEL32.dll
 0001:000291fc       _LocalFree@4               1002a1fc f   kernel32:KERNEL32.dll
 0001:00029202       _FormatMessageW@28         1002a202 f   kernel32:KERNEL32.dll
 0001:00029208       _GetActiveWindow@0         1002a208 f   user32:USER32.dll
 0001:0002920e       _MessageBoxW@16            1002a20e f   user32:USER32.dll
 0001:00029214       _UnregisterClassW@8        1002a214 f   user32:USER32.dll
 0001:0002921a       _PostMessageW@16           1002a21a f   user32:USER32.dll
 0001:00029220       _DefWindowProcW@16         1002a220 f   user32:USER32.dll
 0001:00029226       _CallWindowProcW@20        1002a226 f   user32:USER32.dll
 0001:0002922c       _RegisterClassExW@4        1002a22c f   user32:USER32.dll
 0001:00029232       _GetClassInfoExW@12        1002a232 f   user32:USER32.dll
 0001:00029238       _CreateWindowExW@48        1002a238 f   user32:USER32.dll
 0001:0002923e       _IsWindow@4                1002a23e f   user32:USER32.dll
 0001:00029244       _IsChild@8                 1002a244 f   user32:USER32.dll
 0001:0002924a       _DestroyWindow@4           1002a24a f   user32:USER32.dll
 0001:00029250       _ShowWindow@8              1002a250 f   user32:USER32.dll
 0001:00029256       _SetWindowPos@28           1002a256 f   user32:USER32.dll
 0001:0002925c       _CharNextW@4               1002a25c f   user32:USER32.dll
 0001:00029262       _SetFocus@4                1002a262 f   user32:USER32.dll
 0001:00029268       _GetFocus@0                1002a268 f   user32:USER32.dll
 0001:0002926e       _GetKeyState@4             1002a26e f   user32:USER32.dll
 0001:00029274       _GetDC@4                   1002a274 f   user32:USER32.dll
 0001:0002927a       _ReleaseDC@8               1002a27a f   user32:USER32.dll
 0001:00029280       _BeginPaint@8              1002a280 f   user32:USER32.dll
 0001:00029286       _EndPaint@8                1002a286 f   user32:USER32.dll
 0001:0002928c       _SetWindowRgn@12           1002a28c f   user32:USER32.dll
 0001:00029292       _InvalidateRect@12         1002a292 f   user32:USER32.dll
 0001:00029298       _GetClientRect@8           1002a298 f   user32:USER32.dll
 0001:0002929e       _IntersectRect@12          1002a29e f   user32:USER32.dll
 0001:000292a4       _UnionRect@12              1002a2a4 f   user32:USER32.dll
 0001:000292aa       _OffsetRect@12             1002a2aa f   user32:USER32.dll
 0001:000292b0       _EqualRect@8               1002a2b0 f   user32:USER32.dll
 0001:000292b6       _PtInRect@12               1002a2b6 f   user32:USER32.dll
 0001:000292bc       _GetWindowLongW@8          1002a2bc f   user32:USER32.dll
 0001:000292c2       _SetWindowLongW@12         1002a2c2 f   user32:USER32.dll
 0001:000292c8       _GetParent@4               1002a2c8 f   user32:USER32.dll
 0001:000292ce       _LoadCursorW@8             1002a2ce f   user32:USER32.dll
 0001:000292d4       _PeekMessageW@20           1002a2d4 f   user32:USER32.dll
 0001:000292da       _RegisterClassW@4          1002a2da f   user32:USER32.dll
 0001:000292e0       _LoadBitmapW@8             1002a2e0 f   user32:USER32.dll
 0001:000292e6       _CloseMetaFile@4           1002a2e6 f   gdi32:GDI32.dll
 0001:000292ec       _CreateDCW@16              1002a2ec f   gdi32:GDI32.dll
 0001:000292f2       _CreateMetaFileW@4         1002a2f2 f   gdi32:GDI32.dll
 0001:000292f8       _CreateRectRgnIndirect@4   1002a2f8 f   gdi32:GDI32.dll
 0001:000292fe       _DeleteDC@4                1002a2fe f   gdi32:GDI32.dll
 0001:00029304       _DeleteMetaFile@4          1002a304 f   gdi32:GDI32.dll
 0001:0002930a       _GetDeviceCaps@8           1002a30a f   gdi32:GDI32.dll
 0001:00029310       _RestoreDC@8               1002a310 f   gdi32:GDI32.dll
 0001:00029316       _SaveDC@4                  1002a316 f   gdi32:GDI32.dll
 0001:0002931c       _SetMapMode@8              1002a31c f   gdi32:GDI32.dll
 0001:00029322       _LPtoDP@12                 1002a322 f   gdi32:GDI32.dll
 0001:00029328       _SetViewportOrgEx@16       1002a328 f   gdi32:GDI32.dll
 0001:0002932e       _SetWindowExtEx@16         1002a32e f   gdi32:GDI32.dll
 0001:00029334       _SetWindowOrgEx@16         1002a334 f   gdi32:GDI32.dll
 0001:0002933a       _BitBlt@36                 1002a33a f   gdi32:GDI32.dll
 0001:00029340       _CreateCompatibleDC@4      1002a340 f   gdi32:GDI32.dll
 0001:00029346       _DeleteObject@4            1002a346 f   gdi32:GDI32.dll
 0001:0002934c       _SelectObject@8            1002a34c f   gdi32:GDI32.dll
 0001:00029352       _GetObjectW@12             1002a352 f   gdi32:GDI32.dll
 0001:00029358       _RegCloseKey@4             1002a358 f   advapi32:ADVAPI32.dll
 0001:0002935e       _RegCreateKeyExW@36        1002a35e f   advapi32:ADVAPI32.dll
 0001:00029364       _RegDeleteKeyW@8           1002a364 f   advapi32:ADVAPI32.dll
 0001:0002936a       _RegDeleteValueW@8         1002a36a f   advapi32:ADVAPI32.dll
 0001:00029370       _RegEnumKeyExW@32          1002a370 f   advapi32:ADVAPI32.dll
 0001:00029376       _RegOpenKeyExW@20          1002a376 f   advapi32:ADVAPI32.dll
 0001:0002937c       _RegQueryInfoKeyW@48       1002a37c f   advapi32:ADVAPI32.dll
 0001:00029382       _RegSetValueExW@24         1002a382 f   advapi32:ADVAPI32.dll
 0001:00029388       _RegQueryValueExW@24       1002a388 f   advapi32:ADVAPI32.dll
 0001:0002938e       _CoCreateInstance@20       1002a38e f   ole32:ole32.dll
 0001:00029394       _StringFromGUID2@12        1002a394 f   ole32:ole32.dll
 0001:0002939a       _CoTaskMemAlloc@4          1002a39a f   ole32:ole32.dll
 0001:000293a0       _CoTaskMemRealloc@8        1002a3a0 f   ole32:ole32.dll
 0001:000293a6       _CoTaskMemFree@4           1002a3a6 f   ole32:ole32.dll
 0001:000293ac       _ReadClassStm@8            1002a3ac f   ole32:ole32.dll
 0001:000293b2       _WriteClassStm@8           1002a3b2 f   ole32:ole32.dll
 0001:000293b8       _CreateDataAdviseHolder@4  1002a3b8 f   ole32:ole32.dll
 0001:000293be       _OleSaveToStream@8         1002a3be f   ole32:ole32.dll
 0001:000293c4       _CreateOleAdviseHolder@4   1002a3c4 f   ole32:ole32.dll
 0001:000293ca       _OleRegGetUserType@12      1002a3ca f   ole32:ole32.dll
 0001:000293d0       _OleRegGetMiscStatus@12    1002a3d0 f   ole32:ole32.dll
 0001:000293d6       _OleRegEnumVerbs@8         1002a3d6 f   ole32:ole32.dll
 0001:000293dc       _CLSIDFromProgID@8         1002a3dc f   ole32:ole32.dll
 0001:000293e2       _SysAllocString@4          1002a3e2 f   oleaut32:OLEAUT32.dll
 0001:000293e8       _SysAllocStringLen@8       1002a3e8 f   oleaut32:OLEAUT32.dll
 0001:000293ee       _SysFreeString@4           1002a3ee f   oleaut32:OLEAUT32.dll
 0001:000293f4       _SysStringLen@4            1002a3f4 f   oleaut32:OLEAUT32.dll
 0001:000293fa       _VariantClear@4            1002a3fa f   oleaut32:OLEAUT32.dll
 0001:00029400       _VariantCopyInd@8          1002a400 f   oleaut32:OLEAUT32.dll
 0001:00029406       _VariantChangeType@16      1002a406 f   oleaut32:OLEAUT32.dll
 0001:0002940c       _SysStringByteLen@4        1002a40c f   oleaut32:OLEAUT32.dll
 0001:00029412       _SysAllocStringByteLen@8   1002a412 f   oleaut32:OLEAUT32.dll
 0001:00029418       _VariantInit@4             1002a418 f   oleaut32:OLEAUT32.dll
 0001:0002941e       _VarUI4FromStr@16          1002a41e f   oleaut32:OLEAUT32.dll
 0001:00029424       _LoadTypeLib@8             1002a424 f   oleaut32:OLEAUT32.dll
 0001:0002942a       _LoadRegTypeLib@20         1002a42a f   oleaut32:OLEAUT32.dll
 0001:00029430       _RegisterTypeLib@12        1002a430 f   oleaut32:OLEAUT32.dll
 0001:00029436       _UnRegisterTypeLib@20      1002a436 f   oleaut32:OLEAUT32.dll
 0001:0002943c       _OleCreatePropertyFrame@44 1002a43c f   oleaut32:OLEAUT32.dll
 0001:00029450       @_RTC_AllocaHelper@12      1002a450 f   LIBCMTD:stack.obj
 0001:00029490       @_RTC_CheckStackVars2@12   1002a490 f   LIBCMTD:stack.obj
 0001:00029570       @_RTC_CheckStackVars@8     1002a570 f   LIBCMTD:stack.obj
 0001:000295d0       __RTC_CheckEsp             1002a5d0 f   LIBCMTD:stack.obj
 0001:00029600       @__security_check_cookie@4 1002a600 f   LIBCMTD:secchk.obj
 0001:00029610       __CRT_RTC_INIT             1002a610 f   LIBCMTD:init.obj
 0001:00029620       __CRT_RTC_INITW            1002a620 f   LIBCMTD:init.obj
 0001:00029630       __RTC_InitBase             1002a630 f   LIBCMTD:init.obj
 0001:00029660       __RTC_Shutdown             1002a660 f   LIBCMTD:init.obj
 0001:00029680       ??_U@YAPAXI@Z              1002a680 f   LIBCMTD:new_array.obj
 0001:000296a0       ??3@YAXPAXI@Z              1002a6a0 f   LIBCMTD:delete_scalar_size.obj
 0001:000296c0       ??_V@YAXPAX@Z              1002a6c0 f   LIBCMTD:delete_array.obj
 0001:000296e0       ??_V@YAXPAXI@Z             1002a6e0 f   LIBCMTD:delete_array_size.obj
 0001:00029700       ?configure_argv@__scrt_narrow_argv_policy@@SAHXZ 1002a700 f i LIBCMTD:utility.obj
 0001:000297b0       ?initialize_environment@__scrt_narrow_environment_policy@@SAHXZ 1002a7b0 f i LIBCMTD:utility.obj
 0001:00029830       _NtCurrentTeb              1002a830 f i LIBCMTD:utility.obj
 0001:00029840       ___scrt_acquire_startup_lock 1002a840 f   LIBCMTD:utility.obj
 0001:00029890       ___scrt_dllmain_after_initialize_c 1002a890 f   LIBCMTD:utility.obj
 0001:000298c0       ___scrt_dllmain_before_initialize_c 1002a8c0 f   LIBCMTD:utility.obj
 0001:000298e0       ___scrt_dllmain_crt_thread_attach 1002a8e0 f   LIBCMTD:utility.obj
 0001:00029910       ___scrt_dllmain_crt_thread_detach 1002a910 f   LIBCMTD:utility.obj
 0001:00029930       ___scrt_dllmain_exception_filter 1002a930 f   LIBCMTD:utility.obj
 0001:00029980       ___scrt_dllmain_uninitialize_c 1002a980 f   LIBCMTD:utility.obj
 0001:000299b0       ___scrt_dllmain_uninitialize_critical 1002a9b0 f   LIBCMTD:utility.obj
 0001:000299d0       ___scrt_initialize_crt     1002a9d0 f   LIBCMTD:utility.obj
 0001:00029a20       ___scrt_initialize_onexit_tables 1002aa20 f   LIBCMTD:utility.obj
 0001:00029b00       ___scrt_is_nonwritable_in_current_image 1002ab00 f   LIBCMTD:utility.obj
 0001:00029c30       ___scrt_release_startup_lock 1002ac30 f   LIBCMTD:utility.obj
 0001:00029c60       ___scrt_uninitialize_crt   1002ac60 f   LIBCMTD:utility.obj
 0001:00029ca0       __onexit                   1002aca0 f   LIBCMTD:utility.obj
 0001:00029d10       _at_quick_exit             1002ad10 f   LIBCMTD:utility.obj
 0001:00029d50       _atexit                    1002ad50 f   LIBCMTD:utility.obj
 0001:00029d80       ??3@YAXPAX@Z               1002ad80 f   LIBCMTD:delete_scalar.obj
 0001:00029da0       ___raise_securityfailure   1002ada0 f   LIBCMTD:gs_report.obj
 0001:00029dd0       ___report_gsfailure        1002add0 f   LIBCMTD:gs_report.obj
 0001:00029ee0       ___report_rangecheckfailure 1002aee0 f   LIBCMTD:gs_report.obj
 0001:00029ef0       ___report_securityfailure  1002aef0 f   LIBCMTD:gs_report.obj
 0001:00029fd0       ___report_securityfailureEx 1002afd0 f   LIBCMTD:gs_report.obj
 0001:0002a220       __Init_thread_abort        1002b220 f   LIBCMTD:thread_safe_statics.obj
 0001:0002a240       __Init_thread_footer       1002b240 f   LIBCMTD:thread_safe_statics.obj
 0001:0002a290       __Init_thread_header       1002b290 f   LIBCMTD:thread_safe_statics.obj
 0001:0002a300       __Init_thread_lock         1002b300 f   LIBCMTD:thread_safe_statics.obj
 0001:0002a310       __Init_thread_notify       1002b310 f   LIBCMTD:thread_safe_statics.obj
 0001:0002a360       __Init_thread_unlock       1002b360 f   LIBCMTD:thread_safe_statics.obj
 0001:0002a370       __Init_thread_wait         1002b370 f   LIBCMTD:thread_safe_statics.obj
 0001:0002a400       ??2@YAPAXIABUnothrow_t@std@@@Z 1002b400 f   LIBCMTD:new_scalar_nothrow.obj
 0001:0002a490       ??_U@YAPAXIABUnothrow_t@std@@@Z 1002b490 f   LIBCMTD:new_array_nothrow.obj
 0001:0002a4b0       __allmul                   1002b4b0 f   LIBCMTD:llmul.obj
 0001:0002a4f0       __alloca_probe_16          1002b4f0 f   LIBCMTD:alloca16.obj
 0001:0002a506       __alloca_probe_8           1002b506     LIBCMTD:alloca16.obj
 0001:0002a520       __chkstk                   1002b520 f   LIBCMTD:chkstk.obj
 0001:0002a520       __alloca_probe             1002b520 f   LIBCMTD:chkstk.obj
 0001:0002aa20       __CRT_INIT@12              1002ba20 f   LIBCMTD:dll_dllmain.obj
 0001:0002aa40       __DllMainCRTStartup@12     1002ba40 f   LIBCMTD:dll_dllmain.obj
 0001:0002ab00       ?_RTC_AllocaFailure@@YAXPAXPAU_RTC_ALLOCA_NODE@@H@Z 1002bb00 f   LIBCMTD:error.obj
 0001:0002abf0       ?_RTC_Failure@@YAXPAXH@Z   1002bbf0 f   LIBCMTD:error.obj
 0001:0002ac40       ?_RTC_StackFailure@@YAXPAXPBD@Z 1002bc40 f   LIBCMTD:error.obj
 0001:0002b000       __RTC_UninitUse            1002c000 f   LIBCMTD:error.obj
 0001:0002b0b0       __vsprintf_s_l             1002c0b0 f i LIBCMTD:error.obj
 0001:0002b0e0       _sprintf_s                 1002c0e0 f i LIBCMTD:error.obj
 0001:0002b100       ?_RTC_GetErrorFunc@@YAP6AHHPBDH00ZZPBX@Z 1002c100 f   LIBCMTD:userapi.obj
 0001:0002b110       ?_RTC_GetErrorFuncW@@YAP6AHHPB_WH00ZZPBX@Z 1002c110 f   LIBCMTD:userapi.obj
 0001:0002b120       __RTC_GetErrDesc           1002c120 f   LIBCMTD:userapi.obj
 0001:0002b140       __RTC_NumErrors            1002c140 f   LIBCMTD:userapi.obj
 0001:0002b150       __RTC_SetErrorFunc         1002c150 f   LIBCMTD:userapi.obj
 0001:0002b170       __RTC_SetErrorFuncW        1002c170 f   LIBCMTD:userapi.obj
 0001:0002b190       __RTC_SetErrorType         1002c190 f   LIBCMTD:userapi.obj
 0001:0002b1c0       ??2@YAPAXI@Z               1002c1c0 f   LIBCMTD:new_scalar.obj
 0001:0002b210       ___isa_available_init      1002c210 f   LIBCMTD:cpu_disp.obj
 0001:0002b550       __get_startup_argv_mode    1002c550 f   LIBCMTD:argv_mode.obj
 0001:0002b560       ___scrt_is_ucrt_dll_in_use 1002c560 f   LIBCMTD:ucrt_detection.obj
 0001:0002b590       ___scrt_fastfail           1002c590 f   LIBCMTD:utility_desktop.obj
 0001:0002b6d0       ___scrt_get_show_window_mode 1002c6d0 f   LIBCMTD:utility_desktop.obj
 0001:0002b710       ___scrt_initialize_mta     1002c710 f   LIBCMTD:utility_desktop.obj
 0001:0002b720       ___scrt_initialize_winrt   1002c720 f   LIBCMTD:utility_desktop.obj
 0001:0002b730       ___scrt_is_managed_app     1002c730 f   LIBCMTD:utility_desktop.obj
 0001:0002b7c0       ___scrt_set_unhandled_exception_filter 1002c7c0 f   LIBCMTD:utility_desktop.obj
 0001:0002b7d0       ___scrt_stub_for_initialize_mta 1002c7d0 f   LIBCMTD:utility_desktop.obj
 0001:0002b7d0       ___scrt_exe_initialize_mta 1002c7d0 f   LIBCMTD:utility_desktop.obj
 0001:0002b7e0       ___scrt_unhandled_exception_filter@4 1002c7e0 f   LIBCMTD:utility_desktop.obj
 0001:0002b860       __crt_debugger_hook        1002c860 f   LIBCMTD:utility_desktop.obj
 0001:0002b870       @_guard_check_icall_nop@4  1002c870 f i LIBCMTD:guard_support.obj
 0001:0002b880       _ReadNoFence               1002c880 f i LIBCMTD:guard_support.obj
 0001:0002b8a0       _ReadPointerNoFence        1002c8a0 f i LIBCMTD:guard_support.obj
 0001:0002b8c0       ___castguard_check_failure_debugbreak 1002c8c0 f i LIBCMTD:guard_support.obj
 0001:0002b8e0       ___castguard_check_failure_fastfail 1002c8e0 f i LIBCMTD:guard_support.obj
 0001:0002b900       ___castguard_check_failure_nop 1002c900 f i LIBCMTD:guard_support.obj
 0001:0002b910       ___castguard_check_failure_os_handled 1002c910 f i LIBCMTD:guard_support.obj
 0001:0002b9a0       ___castguard_slow_path_check_debugbreak 1002c9a0 f i LIBCMTD:guard_support.obj
 0001:0002b9d0       ___castguard_slow_path_check_fastfail 1002c9d0 f i LIBCMTD:guard_support.obj
 0001:0002ba10       ___castguard_slow_path_check_nop 1002ca10 f i LIBCMTD:guard_support.obj
 0001:0002ba20       ___castguard_slow_path_check_os_handled 1002ca20 f i LIBCMTD:guard_support.obj
 0001:0002baa0       __guard_icall_checks_enforced 1002caa0 f i LIBCMTD:guard_support.obj
 0001:0002bb40       ___security_init_cookie    1002cb40 f   LIBCMTD:gs_support.obj
 0001:0002bbc0       ?__scrt_initialize_type_info@@YAXXZ 1002cbc0 f   LIBCMTD:tncleanup.obj
 0001:0002bbd0       ?__scrt_uninitialize_type_info@@YAXXZ 1002cbd0 f   LIBCMTD:tncleanup.obj
 0001:0002bbf0       ___local_stdio_scanf_options 1002cbf0 f i LIBCMTD:default_local_stdio_options.obj
 0001:0002bc00       ___scrt_initialize_default_local_stdio_options 1002cc00 f   LIBCMTD:default_local_stdio_options.obj
 0001:0002bc40       ___scrt_get_dyn_tls_init_callback 1002cc40 f   LIBCMTD:dyn_tls_init.obj
 0001:0002bc50       __RTC_Initialize           1002cc50 f   LIBCMTD:initsect.obj
 0001:0002bc80       __RTC_Terminate            1002cc80 f   LIBCMTD:initsect.obj
 0001:0002c130       ?_RTC_GetSrcLine@@YAHPAEPA_WKPAH1K@Z 1002d130 f   LIBCMTD:pdblkup.obj
 0001:0002c4b0       __except_handler4_noexcept 1002d4b0 f   LIBCMTD:chandler4_noexcept.obj
 0001:0002c510       ??0bad_alloc@std@@AAE@QBD@Z 1002d510 f i LIBCMTD:throw_bad_alloc.obj
 0001:0002c540       ??0bad_alloc@std@@QAE@ABV01@@Z 1002d540 f i LIBCMTD:throw_bad_alloc.obj
 0001:0002c570       ??0bad_alloc@std@@QAE@XZ   1002d570 f i LIBCMTD:throw_bad_alloc.obj
 0001:0002c5a0       ??0bad_array_new_length@std@@QAE@ABV01@@Z 1002d5a0 f i LIBCMTD:throw_bad_alloc.obj
 0001:0002c5d0       ??0bad_array_new_length@std@@QAE@XZ 1002d5d0 f i LIBCMTD:throw_bad_alloc.obj
 0001:0002c600       ??0exception@std@@QAE@ABV01@@Z 1002d600 f i LIBCMTD:throw_bad_alloc.obj
 0001:0002c640       ??0exception@std@@QAE@QBDH@Z 1002d640 f i LIBCMTD:throw_bad_alloc.obj
 0001:0002c670       ??1bad_alloc@std@@UAE@XZ   1002d670 f i LIBCMTD:throw_bad_alloc.obj
 0001:0002c690       ??1bad_array_new_length@std@@UAE@XZ 1002d690 f i LIBCMTD:throw_bad_alloc.obj
 0001:0002c6b0       ??1exception@std@@UAE@XZ   1002d6b0 f i LIBCMTD:throw_bad_alloc.obj
 0001:0002c6e0       ??_Ebad_alloc@std@@UAEPAXI@Z 1002d6e0 f i LIBCMTD:throw_bad_alloc.obj
 0001:0002c6e0       ??_Gbad_alloc@std@@UAEPAXI@Z 1002d6e0 f i LIBCMTD:throw_bad_alloc.obj
 0001:0002c710       ??_Ebad_array_new_length@std@@UAEPAXI@Z 1002d710 f i LIBCMTD:throw_bad_alloc.obj
 0001:0002c710       ??_Gbad_array_new_length@std@@UAEPAXI@Z 1002d710 f i LIBCMTD:throw_bad_alloc.obj
 0001:0002c740       ??_Eexception@std@@UAEPAXI@Z 1002d740 f i LIBCMTD:throw_bad_alloc.obj
 0001:0002c740       ??_Gexception@std@@UAEPAXI@Z 1002d740 f i LIBCMTD:throw_bad_alloc.obj
 0001:0002c770       ?__scrt_throw_std_bad_alloc@@YAXXZ 1002d770 f   LIBCMTD:throw_bad_alloc.obj
 0001:0002c790       ?__scrt_throw_std_bad_array_new_length@@YAXXZ 1002d790 f   LIBCMTD:throw_bad_alloc.obj
 0001:0002c7b0       ?what@exception@std@@UBEPBDXZ 1002d7b0 f i LIBCMTD:throw_bad_alloc.obj
 0001:0002c7e0       ??1type_info@@UAE@XZ       1002d7e0 f   LIBCMTD:std_type_info_static.obj
 0001:0002c800       ??_Etype_info@@UAEPAXI@Z   1002d800 f i LIBCMTD:std_type_info_static.obj
 0001:0002c800       ??_Gtype_info@@UAEPAXI@Z   1002d800 f i LIBCMTD:std_type_info_static.obj
 0001:0002c82e       ??$?2PAUHINSTANCE__@@@Wrapper@?$CSimpleArray@PAUHINSTANCE__@@V?$CSimpleArrayEqualHelper@PAUHINSTANCE__@@@ATL@@@ATL@@SAPAXIPAPAUHINSTANCE__@@@Z 1002d82e f i atls:atlbase.obj
 0001:0002c836       ??0?$CSimpleArray@PAUHINSTANCE__@@V?$CSimpleArrayEqualHelper@PAUHINSTANCE__@@@ATL@@@ATL@@QAE@XZ 1002d836 f i atls:atlbase.obj
 0001:0002c843       ??0CAtlBaseModule@ATL@@QAE@XZ 1002d843 f   atls:atlbase.obj
 0001:0002c896       ??0Wrapper@?$CSimpleArray@PAUHINSTANCE__@@V?$CSimpleArrayEqualHelper@PAUHINSTANCE__@@@ATL@@@ATL@@QAE@ABQAUHINSTANCE__@@@Z 1002d896 f i atls:atlbase.obj
 0001:0002c8a6       ??0_ATL_BASE_MODULE70@ATL@@QAE@XZ 1002d8a6 f i atls:atlbase.obj
 0001:0002c8c9       ??1?$CSimpleArray@PAUHINSTANCE__@@V?$CSimpleArrayEqualHelper@PAUHINSTANCE__@@@ATL@@@ATL@@QAE@XZ 1002d8c9 f i atls:atlbase.obj
 0001:0002c8ce       ??1CAtlBaseModule@ATL@@QAE@XZ 1002d8ce f   atls:atlbase.obj
 0001:0002c8e4       ??1_ATL_BASE_MODULE70@ATL@@QAE@XZ 1002d8e4 f i atls:atlbase.obj
 0001:0002c8ec       ??A?$CSimpleArray@PAUHINSTANCE__@@V?$CSimpleArrayEqualHelper@PAUHINSTANCE__@@@ATL@@@ATL@@QAEAAPAUHINSTANCE__@@H@Z 1002d8ec f i atls:atlbase.obj
 0001:0002c911       ?Add@?$CSimpleArray@PAUHINSTANCE__@@V?$CSimpleArrayEqualHelper@PAUHINSTANCE__@@@ATL@@@ATL@@QAEHABQAUHINSTANCE__@@@Z 1002d911 f i atls:atlbase.obj
 0001:0002c989       ?AddResourceInstance@CAtlBaseModule@ATL@@QAE_NPAUHINSTANCE__@@@Z 1002d989 f   atls:atlbase.obj
 0001:0002c9bc       ?GetHInstanceAt@CAtlBaseModule@ATL@@QAEPAUHINSTANCE__@@H@Z 1002d9bc f   atls:atlbase.obj
 0001:0002ca01       ?GetSize@?$CSimpleArray@PAUHINSTANCE__@@V?$CSimpleArrayEqualHelper@PAUHINSTANCE__@@@ATL@@@ATL@@QBEHXZ 1002da01 f i atls:atlbase.obj
 0001:0002ca05       ?InternalSetAtIndex@?$CSimpleArray@PAUHINSTANCE__@@V?$CSimpleArrayEqualHelper@PAUHINSTANCE__@@@ATL@@@ATL@@QAEXHABQAUHINSTANCE__@@@Z 1002da05 f i atls:atlbase.obj
 0001:0002ca1f       ?RemoveAll@?$CSimpleArray@PAUHINSTANCE__@@V?$CSimpleArrayEqualHelper@PAUHINSTANCE__@@@ATL@@@ATL@@QAEXXZ 1002da1f f i atls:atlbase.obj
 0001:0002ca3c       ?RemoveAt@?$CSimpleArray@PAUHINSTANCE__@@V?$CSimpleArrayEqualHelper@PAUHINSTANCE__@@@ATL@@@ATL@@QAEHH@Z 1002da3c f i atls:atlbase.obj
 0001:0002ca84       ?RemoveResourceInstance@CAtlBaseModule@ATL@@QAE_NPAUHINSTANCE__@@@Z 1002da84 f   atls:atlbase.obj
 0001:0002cae1       ?memmove_s@Checked@ATL@@YAXPAXIPBXI@Z 1002dae1 f i atls:atlbase.obj
 0001:0002ce3e       ?GetCodeAddress@_stdcallthunk@ATL@@QAEPAXXZ 1002de3e f i atls:atlthunk.obj
 0001:0002ce68       ?Init@_stdcallthunk@ATL@@QAEHKPAX@Z 1002de68 f i atls:atlthunk.obj
 0001:0002ce9d       ?__AllocStdCallThunk@@YGPAXXZ 1002de9d f   atls:atlthunk.obj
 0001:0002cea2       ?__AllocStdCallThunk@ATL@@YGPAXXZ 1002dea2 f   atls:atlthunk.obj
 0001:0002cea7       ?__AllocStdCallThunk_cmn@@YAPAXXZ 1002dea7 f   atls:atlthunk.obj
 0001:0002cf6d       ?__FreeStdCallThunk@@YGXPAX@Z 1002df6d f   atls:atlthunk.obj
 0001:0002cf7d       ?__FreeStdCallThunk@ATL@@YGXPAX@Z 1002df7d f   atls:atlthunk.obj
 0001:0002cf8d       ?__FreeStdCallThunk_cmn@@YAXPAX@Z 1002df8d f   atls:atlthunk.obj
 0001:0002d029       _AtlThunk_AllocateData@0   1002e029 f   atls:atlthunk.obj
 0001:0002d08e       _AtlThunk_DataToCode@4     1002e08e f   atls:atlthunk.obj
 0001:0002d0d5       _AtlThunk_FreeData@4       1002e0d5 f   atls:atlthunk.obj
 0001:0002d12b       _AtlThunk_InitData@12      1002e12b f   atls:atlthunk.obj
 0001:0002d17a       _MemoryBarrier             1002e17a f i atls:atlthunk.obj
 0001:0002d188       __InlineInterlockedCompareExchangePointer 1002e188 f i atls:atlthunk.obj
 0001:0002d1a0       _memset                    1002e1a0 f   libvcruntimed:memset.obj
 0001:0002d300       ??$__crt_interlocked_exchange_pointer@$$A6AXXZP6AXXZ@@YAP6AXXZPDS6AXXZQ6AXXZ@Z 1002e300 f i libvcruntimed:purevirt.obj
 0001:0002d310       ??$__crt_interlocked_read_pointer@$$A6AXXZ@@YAP6AXXZPDS6AXXZ@Z 1002e310 f i libvcruntimed:purevirt.obj
 0001:0002d330       ?__crt_interlocked_read_32@@YAHPDH@Z 1002e330 f i libvcruntimed:purevirt.obj
 0001:0002d350       __get_purecall_handler     1002e350 f   libvcruntimed:purevirt.obj
 0001:0002d370       __purecall                 1002e370 f   libvcruntimed:purevirt.obj
 0001:0002d3a0       __set_purecall_handler     1002e3a0 f   libvcruntimed:purevirt.obj
 0001:0002d570       _memcmp                    1002e570 f   libvcruntimed:memcmp.obj
 0001:0002de40       _memcpy                    1002ee40 f   libvcruntimed:memcpy.obj
 0001:0002e3c0       _wcsstr                    1002f3c0 f   libvcruntimed:wcsstr.obj
 0001:0002e8f0       __except_handler4          1002f8f0 f   libvcruntimed:chandler4.obj
 0001:0002eae0       ___vcrt_initialize         1002fae0 f   libvcruntimed:initialization.obj
 0001:0002eb20       ___vcrt_thread_attach      1002fb20 f   libvcruntimed:initialization.obj
 0001:0002eb40       ___vcrt_thread_detach      1002fb40 f   libvcruntimed:initialization.obj
 0001:0002eb60       ___vcrt_uninitialize       1002fb60 f   libvcruntimed:initialization.obj
 0001:0002eb80       ___vcrt_uninitialize_critical 1002fb80 f   libvcruntimed:initialization.obj
 0001:0002eba0       ??$?0AAViterator@TryBlockMap@__FrameHandler3@@AAV012@$0A@@?$pair@Viterator@TryBlockMap@__FrameHandler3@@V123@@std@@QAE@AAViterator@TryBlockMap@__FrameHandler3@@0@Z 1002fba0 f i libvcruntimed:trnsctrl.obj
 0001:0002ebf0       ??$forward@AAViterator@TryBlockMap@__FrameHandler3@@@std@@YAAAViterator@TryBlockMap@__FrameHandler3@@AAV123@@Z 1002fbf0 f i libvcruntimed:trnsctrl.obj
 0001:0002ec00       ??0iterator@TryBlockMap@__FrameHandler3@@QAE@AAV12@I@Z 1002fc00 f i libvcruntimed:trnsctrl.obj
 0001:0002ec30       ?GetRangeOfTrysToCheck@__FrameHandler3@@SA?AU?$pair@Viterator@TryBlockMap@__FrameHandler3@@V123@@std@@AAVTryBlockMap@1@HPAXPBU_s_FuncInfo@@H@Z 1002fc30 f   libvcruntimed:trnsctrl.obj
 0001:0002ed10       ?_CallCatchBlock2@@YAPAXPAUEHRegistrationNode@@PBU_s_FuncInfo@@PAXHK@Z 1002fd10 f   libvcruntimed:trnsctrl.obj
 0001:0002ed80       ?_CallSETranslator@@YAHPAUEHExceptionRecord@@PAUEHRegistrationNode@@PAX2PBU_s_FuncInfo@@H1@Z 1002fd80 f   libvcruntimed:trnsctrl.obj
 0001:0002ee90       ?_JumpToContinuation@@YGXPAXPAUEHRegistrationNode@@@Z 1002fe90 f   libvcruntimed:trnsctrl.obj
 0001:0002eed0       ?_UnwindNestedFrames@@YGXPAUEHRegistrationNode@@PAUEHExceptionRecord@@@Z 1002fed0 f   libvcruntimed:trnsctrl.obj
 0001:0002ef30       __CatchGuardHandler        1002ff30 f   libvcruntimed:trnsctrl.obj
 0001:0002ef80       __CreateFrameInfo          1002ff80 f   libvcruntimed:trnsctrl.obj
 0001:0002efb0       __FindAndUnlinkFrame       1002ffb0 f   libvcruntimed:trnsctrl.obj
 0001:0002f020       __TranslatorGuardHandler   10030020 f   libvcruntimed:trnsctrl.obj
 0001:0002f0d0       ___CxxFrameHandler         100300d0 f   libvcruntimed:trnsctrl.obj
 0001:0002f110       ___CxxFrameHandler2        10030110 f   libvcruntimed:trnsctrl.obj
 0001:0002f150       ___CxxFrameHandler3        10030150 f   libvcruntimed:trnsctrl.obj
 0001:0002f190       ___CxxLongjmpUnwind@4      10030190 f   libvcruntimed:trnsctrl.obj
 0001:0002f1d0       ___DestructExceptionObject 100301d0 f   libvcruntimed:ehhelpers.obj
 0001:0002f2f0       ?_CallMemberFunction0@@YGXQAX0@Z 100302f0 f i libvcruntimed:ehhelpers.obj
 0001:0002f390       ?raw_name@type_info@@QBEPBDXZ 10030390 f i libvcruntimed:ehhelpers.obj
 0001:0002f3b0       __IsExceptionObjectToBeDestroyed 100303b0 f   libvcruntimed:ehhelpers.obj
 0001:0002f3f0       __SetWinRTOutOfMemoryExceptionCallback 100303f0 f   libvcruntimed:ehhelpers.obj
 0001:0002f400       ___AdjustPointer           10030400 f   libvcruntimed:ehhelpers.obj
 0001:0002f450       ___FrameUnwindFilter       10030450 f   libvcruntimed:ehhelpers.obj
 0001:0002f4e0       ___GetPlatformExceptionInfo 100304e0 f   libvcruntimed:ehhelpers.obj
 0001:0002f560       ___current_exception       10030560 f   libvcruntimed:ehhelpers.obj
 0001:0002f570       ___current_exception_context 10030570 f   libvcruntimed:ehhelpers.obj
 0001:0002f580       ___processing_throw        10030580 f   libvcruntimed:ehhelpers.obj
 0001:0002f590       ___std_terminate           10030590 f   libvcruntimed:ehhelpers.obj
 0001:0002f5a0       __is_exception_typeof      100305a0 f   libvcruntimed:ehhelpers.obj
 0001:0002f6a0       ??$?RD@__crt_internal_free_policy@@QBEXQBD@Z 100306a0 f i libvcruntimed:std_type_info.obj
 0001:0002f6c0       ??$?RX@__crt_internal_free_policy@@QBEXQBX@Z 100306c0 f i libvcruntimed:std_type_info.obj
 0001:0002f6e0       ??$__crt_interlocked_compare_exchange_pointer@$$CBDPAD$$T@@YAPBDPDSBDQAD$$T@Z 100306e0 f i libvcruntimed:std_type_info.obj
 0001:0002f700       ??$__crt_interlocked_read_pointer@$$CBD@@YAPBDPDSBD@Z 10030700 f i libvcruntimed:std_type_info.obj
 0001:0002f720       ??0?$__crt_unique_heap_ptr@DU__crt_internal_free_policy@@@@QAE@QAD@Z 10030720 f i libvcruntimed:std_type_info.obj
 0001:0002f740       ??0?$__crt_unique_heap_ptr@XU__crt_internal_free_policy@@@@QAE@QAX@Z 10030740 f i libvcruntimed:std_type_info.obj
 0001:0002f760       ??1?$__crt_unique_heap_ptr@DU__crt_internal_free_policy@@@@QAE@XZ 10030760 f i libvcruntimed:std_type_info.obj
 0001:0002f780       ??1?$__crt_unique_heap_ptr@XU__crt_internal_free_policy@@@@QAE@XZ 10030780 f i libvcruntimed:std_type_info.obj
 0001:0002f7a0       ??B?$__crt_unique_heap_ptr@DU__crt_internal_free_policy@@@@QBE_NXZ 100307a0 f i libvcruntimed:std_type_info.obj
 0001:0002f7c0       ??B?$__crt_unique_heap_ptr@XU__crt_internal_free_policy@@@@QBE_NXZ 100307c0 f i libvcruntimed:std_type_info.obj
 0001:0002f850       ?detach@?$__crt_unique_heap_ptr@XU__crt_internal_free_policy@@@@QAEPAXXZ 10030850 f i libvcruntimed:std_type_info.obj
 0001:0002f880       ?get@?$__crt_unique_heap_ptr@DU__crt_internal_free_policy@@@@QBEPADXZ 10030880 f i libvcruntimed:std_type_info.obj
 0001:0002f890       ?get@?$__crt_unique_heap_ptr@XU__crt_internal_free_policy@@@@QBEPAXXZ 10030890 f i libvcruntimed:std_type_info.obj
 0001:0002f8a0       ?is_valid@?$__crt_unique_heap_ptr@DU__crt_internal_free_policy@@@@QBE_NXZ 100308a0 f i libvcruntimed:std_type_info.obj
 0001:0002f8d0       ?is_valid@?$__crt_unique_heap_ptr@XU__crt_internal_free_policy@@@@QBE_NXZ 100308d0 f i libvcruntimed:std_type_info.obj
 0001:0002f900       ?release@?$__crt_unique_heap_ptr@DU__crt_internal_free_policy@@@@QAEXXZ 10030900 f i libvcruntimed:std_type_info.obj
 0001:0002f930       ?release@?$__crt_unique_heap_ptr@XU__crt_internal_free_policy@@@@QAEXXZ 10030930 f i libvcruntimed:std_type_info.obj
 0001:0002f960       ___std_type_info_compare   10030960 f   libvcruntimed:std_type_info.obj
 0001:0002f990       ___std_type_info_destroy_list 10030990 f   libvcruntimed:std_type_info.obj
 0001:0002f9d0       ___std_type_info_hash      100309d0 f   libvcruntimed:std_type_info.obj
 0001:0002fa30       ___std_type_info_name      10030a30 f   libvcruntimed:std_type_info.obj
 0001:0002fc10       ___vcrt_GetModuleFileNameW 10030c10 f   libvcruntimed:winapi_thunks.obj
 0001:0002fc30       ___vcrt_GetModuleHandleW   10030c30 f   libvcruntimed:winapi_thunks.obj
 0001:0002fc40       ___vcrt_LoadLibraryExW     10030c40 f   libvcruntimed:winapi_thunks.obj
 0001:0002fc60       ??$?RD@__crt_public_free_policy@@QBEXQBD@Z 10030c60 f i libvcruntimed:std_exception.obj
 0001:0002fc80       ??0?$__crt_unique_heap_ptr@DU__crt_public_free_policy@@@@QAE@QAD@Z 10030c80 f i libvcruntimed:std_exception.obj
 0001:0002fca0       ??1?$__crt_unique_heap_ptr@DU__crt_public_free_policy@@@@QAE@XZ 10030ca0 f i libvcruntimed:std_exception.obj
 0001:0002fcc0       ??B?$__crt_unique_heap_ptr@DU__crt_public_free_policy@@@@QBE_NXZ 10030cc0 f i libvcruntimed:std_exception.obj
 0001:0002fce0       ?detach@?$__crt_unique_heap_ptr@DU__crt_public_free_policy@@@@QAEPADXZ 10030ce0 f i libvcruntimed:std_exception.obj
 0001:0002fd10       ?get@?$__crt_unique_heap_ptr@DU__crt_public_free_policy@@@@QBEPADXZ 10030d10 f i libvcruntimed:std_exception.obj
 0001:0002fd20       ?is_valid@?$__crt_unique_heap_ptr@DU__crt_public_free_policy@@@@QBE_NXZ 10030d20 f i libvcruntimed:std_exception.obj
 0001:0002fd50       ?release@?$__crt_unique_heap_ptr@DU__crt_public_free_policy@@@@QAEXXZ 10030d50 f i libvcruntimed:std_exception.obj
 0001:0002fd80       ___std_exception_copy      10030d80 f   libvcruntimed:std_exception.obj
 0001:0002fe70       ___std_exception_destroy   10030e70 f   libvcruntimed:std_exception.obj
 0001:0002fea0       __CxxThrowException@8      10030ea0 f   libvcruntimed:throw.obj
 0001:0002ff50       _memmove                   10030f50 f   libvcruntimed:memmove.obj
 0001:000304d0       __local_unwind4            100314d0 f   libvcruntimed:exsup4.obj
 0001:000305c0       __seh_longjmp_unwind4@4    100315c0 f   libvcruntimed:exsup4.obj
 0001:000305f0       @_EH4_CallFilterFunc@8     100315f0 f   libvcruntimed:exsup4.obj
 0001:00030610       @_EH4_TransferToHandler@8  10031610 f   libvcruntimed:exsup4.obj
 0001:00030630       @_EH4_GlobalUnwind2@8      10031630 f   libvcruntimed:exsup4.obj
 0001:00030650       @_EH4_LocalUnwind@16       10031650 f   libvcruntimed:exsup4.obj
 0001:00030680       ___except_validate_context_record 10031680 f   libvcruntimed:jbcxrval.obj
 0001:000306d0       ___except_validate_jump_buffer 100316d0 f   libvcruntimed:jbcxrval.obj
 0001:000306f0       ___except_validate_jump_buffer_common 100316f0 f i libvcruntimed:jbcxrval.obj
 0001:00030750       ??$?RU__vcrt_ptd@@@__crt_internal_free_policy@@QBEXQBU__vcrt_ptd@@@Z 10031750 f i libvcruntimed:per_thread_data.obj
 0001:00030770       ??0?$__crt_unique_heap_ptr@U__vcrt_ptd@@U__crt_internal_free_policy@@@@QAE@QAU__vcrt_ptd@@@Z 10031770 f i libvcruntimed:per_thread_data.obj
 0001:000307b0       ??1?$__crt_unique_heap_ptr@U__vcrt_ptd@@U__crt_internal_free_policy@@@@QAE@XZ 100317b0 f i libvcruntimed:per_thread_data.obj
 0001:000307f0       ??B?$__crt_unique_heap_ptr@U__vcrt_ptd@@U__crt_internal_free_policy@@@@QBE_NXZ 100317f0 f i libvcruntimed:per_thread_data.obj
 0001:00030810       ?detach@?$__crt_unique_heap_ptr@U__vcrt_ptd@@U__crt_internal_free_policy@@@@QAEPAU__vcrt_ptd@@XZ 10031810 f i libvcruntimed:per_thread_data.obj
 0001:00030840       ?get@?$__crt_unique_heap_ptr@U__vcrt_ptd@@U__crt_internal_free_policy@@@@QBEPAU__vcrt_ptd@@XZ 10031840 f i libvcruntimed:per_thread_data.obj
 0001:00030850       ?is_valid@?$__crt_unique_heap_ptr@U__vcrt_ptd@@U__crt_internal_free_policy@@@@QBE_NXZ 10031850 f i libvcruntimed:per_thread_data.obj
 0001:00030880       ?release@?$__crt_unique_heap_ptr@U__vcrt_ptd@@U__crt_internal_free_policy@@@@QAEXXZ 10031880 f i libvcruntimed:per_thread_data.obj
 0001:000308e0       ___vcrt_freefls@4          100318e0 f   libvcruntimed:per_thread_data.obj
 0001:00030910       ___vcrt_freeptd            10031910 f   libvcruntimed:per_thread_data.obj
 0001:00030970       ___vcrt_getptd             10031970 f   libvcruntimed:per_thread_data.obj
 0001:00030990       ___vcrt_getptd_noexit      10031990 f   libvcruntimed:per_thread_data.obj
 0001:00030af0       ___vcrt_getptd_noinit      10031af0 f   libvcruntimed:per_thread_data.obj
 0001:00030b50       ___vcrt_initialize_ptd     10031b50 f   libvcruntimed:per_thread_data.obj
 0001:00030ba0       ___vcrt_uninitialize_ptd   10031ba0 f   libvcruntimed:per_thread_data.obj
 0001:00030bd0       ___vcrt_initialize_locks   10031bd0 f   libvcruntimed:locks.obj
 0001:00030c30       ___vcrt_lock               10031c30 f   libvcruntimed:locks.obj
 0001:00030c50       ___vcrt_uninitialize_locks 10031c50 f   libvcruntimed:locks.obj
 0001:00030ca0       ___vcrt_unlock             10031ca0 f   libvcruntimed:locks.obj
 0001:00031810       ??$TypeMatchHelper@V__FrameHandler3@@@@YAHPBU_s_HandlerType@@PBU_s_CatchableType@@PBU_s_ThrowInfo@@@Z 10032810 f i libvcruntimed:frame.obj
 0001:000318f0       ??$__InternalCxxFrameHandler@V__FrameHandler3@@@@YA?AW4_EXCEPTION_DISPOSITION@@PAUEHExceptionRecord@@PAUEHRegistrationNode@@PAU_CONTEXT@@PAXPBU_s_FuncInfo@@H1E@Z 100328f0 f i libvcruntimed:frame.obj
 0001:00031ab0       ??0HandlerMap@__FrameHandler3@@QAE@PBU_s_TryBlockMapEntry@@II@Z 10032ab0 f i libvcruntimed:frame.obj
 0001:00031ae0       ??0TryBlockMap@__FrameHandler3@@QAE@PBU_s_FuncInfo@@I@Z 10032ae0 f i libvcruntimed:frame.obj
 0001:00031b10       ??0bad_exception@std@@QAE@ABV01@@Z 10032b10 f i libvcruntimed:frame.obj
 0001:00031b40       ??0bad_exception@std@@QAE@XZ 10032b40 f i libvcruntimed:frame.obj
 0001:00031b70       ??0iterator@HandlerMap@__FrameHandler3@@QAE@AAV12@I@Z 10032b70 f i libvcruntimed:frame.obj
 0001:00031ba0       ??1bad_exception@std@@UAE@XZ 10032ba0 f i libvcruntimed:frame.obj
 0001:00031bc0       ??8iterator@HandlerMap@__FrameHandler3@@QBE_NABV012@@Z 10032bc0 f i libvcruntimed:frame.obj
 0001:00031bf0       ??8type_info@@QBE_NABV0@@Z 10032bf0 f i libvcruntimed:frame.obj
 0001:00031c30       ??9iterator@HandlerMap@__FrameHandler3@@QBE_NABV012@@Z 10032c30 f i libvcruntimed:frame.obj
 0001:00031c70       ??Diterator@HandlerMap@__FrameHandler3@@QAE?BU_s_HandlerType@@XZ 10032c70 f i libvcruntimed:frame.obj
 0001:00031cb0       ??Diterator@TryBlockMap@__FrameHandler3@@QAE?BU_s_TryBlockMapEntry@@XZ 10032cb0 f i libvcruntimed:frame.obj
 0001:00031d00       ??Eiterator@HandlerMap@__FrameHandler3@@QAEAAV012@XZ 10032d00 f i libvcruntimed:frame.obj
 0001:00031d20       ??Eiterator@TryBlockMap@__FrameHandler3@@QAEAAV012@XZ 10032d20 f i libvcruntimed:frame.obj
 0001:00031d40       ??Miterator@TryBlockMap@__FrameHandler3@@QBE_NABV012@@Z 10032d40 f i libvcruntimed:frame.obj
 0001:00031d70       ??_Ebad_exception@std@@UAEPAXI@Z 10032d70 f i libvcruntimed:frame.obj
 0001:00031d70       ??_Gbad_exception@std@@UAEPAXI@Z 10032d70 f i libvcruntimed:frame.obj
 0001:00031da0       ?BuildCatchObject@__FrameHandler3@@SAXPAUEHExceptionRecord@@PAXPBU_s_HandlerType@@PBU_s_CatchableType@@@Z 10032da0 f   libvcruntimed:frame.obj
 0001:00031dc0       ?BuildCatchObjectHelper@__FrameHandler3@@SAHPAUEHExceptionRecord@@PAXPBU_s_HandlerType@@PBU_s_CatchableType@@@Z 10032dc0 f   libvcruntimed:frame.obj
 0001:00032160       ?FrameUnwindToEmptyState@__FrameHandler3@@SAXPAUEHRegistrationNode@@PAXPBU_s_FuncInfo@@@Z 10033160 f   libvcruntimed:frame.obj
 0001:00032180       ?FrameUnwindToState@__FrameHandler3@@SAXPAUEHRegistrationNode@@PAXPBU_s_FuncInfo@@H@Z 10033180 f   libvcruntimed:frame.obj
 0001:00032300       ?GetMaxState@__FrameHandler3@@SAHPAXPBU_s_FuncInfo@@@Z 10033300 f i libvcruntimed:frame.obj
 0001:00032420       ?TypeMatch@__FrameHandler3@@SAHPBU_s_HandlerType@@PBU_s_CatchableType@@PBU_s_ThrowInfo@@@Z 10033420 f   libvcruntimed:frame.obj
 0001:00032440       ?_CallMemberFunction1@@YGXQAX00@Z 10033440 f i libvcruntimed:frame.obj
 0001:00032470       ?_CallMemberFunction2@@YGXQAX00H@Z 10033470 f i libvcruntimed:frame.obj
 0001:000324a0       ?begin@HandlerMap@__FrameHandler3@@QAE?AViterator@12@XZ 100334a0 f i libvcruntimed:frame.obj
 0001:000324c0       ?end@HandlerMap@__FrameHandler3@@QAE?AViterator@12@XZ 100334c0 f i libvcruntimed:frame.obj
 0001:000324f0       ?getESTypes@__FrameHandler3@@SAPBU_s_ESTypeList@@PBU_s_FuncInfo@@@Z 100334f0 f i libvcruntimed:frame.obj
 0001:00032500       ?getLastEntry@HandlerMap@__FrameHandler3@@QAEPBU_s_HandlerType@@XZ 10033500 f i libvcruntimed:frame.obj
 0001:00032520       ?getMagicNum@__FrameHandler3@@SAIPBU_s_FuncInfo@@@Z 10033520 f i libvcruntimed:frame.obj
 0001:00032530       ?getNumTryBlocks@TryBlockMap@__FrameHandler3@@QAEIXZ 10033530 f i libvcruntimed:frame.obj
 0001:00032550       ?isEHs@__FrameHandler3@@SA_NPBU_s_FuncInfo@@@Z 10033550 f i libvcruntimed:frame.obj
 0001:00032580       ?isNoExcept@__FrameHandler3@@SA_NPBU_s_FuncInfo@@@Z 10033580 f i libvcruntimed:frame.obj
 0001:000325b0       ___BuildCatchObject        100335b0 f   libvcruntimed:frame.obj
 0001:000325d0       ___BuildCatchObjectHelper  100335d0 f   libvcruntimed:frame.obj
 0001:000325f0       ___TypeMatch               100335f0 f   libvcruntimed:frame.obj
 0001:00032610       ___vcrt_EncodePointer      10033610 f i libvcruntimed:frame.obj
 0001:00032620       __CallSettingFrame@12      10033620 f   libvcruntimed:lowhelpr.obj
 0001:00032647       __NLG_Return               10033647     libvcruntimed:lowhelpr.obj
 0001:00032670       ??$?0$00@DName@@QAE@PBDU?$StringLifeSelector@$00@@@Z 10033670 f i libvcruntimed:undname.obj
 0001:000326c0       ??$?0$00@pcharNode@@QAE@PBDHU?$StringLifeSelector@$00@@@Z 100336c0 f i libvcruntimed:undname.obj
 0001:00032700       ??$?0$01@DName@@QAE@PBDU?$StringLifeSelector@$01@@@Z 10033700 f i libvcruntimed:undname.obj
 0001:00032750       ??$?0$01@pcharNode@@QAE@PBDHU?$StringLifeSelector@$01@@@Z 10033750 f i libvcruntimed:undname.obj
 0001:000327d0       ??$?0$0A@@DName@@QAE@PBDU?$StringLifeSelector@$0A@@@@Z 100337d0 f i libvcruntimed:undname.obj
 0001:00032820       ??$?0$0A@@pcharNode@@QAE@PBDHU?$StringLifeSelector@$0A@@@@Z 10033820 f i libvcruntimed:undname.obj
 0001:000328a0       ??$?0_K$0A@@?$optional@_K@std@@QAE@$$QA_K@Z 100338a0 f i libvcruntimed:undname.obj
 0001:000328e0       ??$?0_K@?$_Optional_construct_base@_K@std@@QAE@Uin_place_t@1@$$QA_K@Z 100338e0 f i libvcruntimed:undname.obj
 0001:00032910       ??$?0_K@?$_Optional_destruct_base@_K$00@std@@QAE@Uin_place_t@1@$$QA_K@Z 10033910 f i libvcruntimed:undname.obj
 0001:00032940       ??$append@VDNameNode@@@DName@@AAEXPBVDNameNode@@@Z 10033940 f i libvcruntimed:undname.obj
 0001:000329d0       ??$append@VDNameStatusNode@@@DName@@AAEXPBVDNameStatusNode@@@Z 100339d0 f i libvcruntimed:undname.obj
 0001:00032a60       ??$append@VcharNode@@@DName@@AAEXPBVcharNode@@@Z 10033a60 f i libvcruntimed:undname.obj
 0001:00032af0       ??$append@VpDNameNode@@@DName@@AAEXPBVpDNameNode@@@Z 10033af0 f i libvcruntimed:undname.obj
 0001:00032b80       ??$append@VpcharNode@@@DName@@AAEXPBVpcharNode@@@Z 10033b80 f i libvcruntimed:undname.obj
 0001:00032c10       ??$doPchar@$00@DName@@AAEXPBDH@Z 10033c10 f i libvcruntimed:undname.obj
 0001:00032d20       ??$doPchar@$01@DName@@AAEXPBDH@Z 10033d20 f i libvcruntimed:undname.obj
 0001:00032e30       ??$doPchar@$0A@@DName@@AAEXPBDH@Z 10033e30 f i libvcruntimed:undname.obj
 0001:00032f40       ??$forward@_K@std@@YA$$QA_KAA_K@Z 10033f40 f i libvcruntimed:undname.obj
 0001:00032f50       ??$size@D$04@std@@YAIAAY04$$CBD@Z 10033f50 f i libvcruntimed:undname.obj
 0001:00032f60       ??$size@D$0EB@@std@@YAIAAY0EB@$$CBD@Z 10033f60 f i libvcruntimed:undname.obj
 0001:00032f70       ??0?$_Optional_construct_base@_K@std@@QAE@XZ 10033f70 f i libvcruntimed:undname.obj
 0001:00032f90       ??0?$_Optional_destruct_base@_K$00@std@@QAE@XZ 10033f90 f i libvcruntimed:undname.obj
 0001:00032fb0       ??0?$optional@_K@std@@QAE@XZ 10033fb0 f i libvcruntimed:undname.obj
 0001:00032fd0       ??0Block@_HeapManager@@QAE@XZ 10033fd0 f i libvcruntimed:undname.obj
 0001:00032ff0       ??0DName@@QAE@AAPBDD@Z     10033ff0 f   libvcruntimed:undname.obj
 0001:00033160       ??0DName@@QAE@ABUStringLiteral@@@Z 10034160 f   libvcruntimed:undname.obj
 0001:000331b0       ??0DName@@QAE@ABV0@@Z      100341b0 f i libvcruntimed:undname.obj
 0001:000331e0       ??0DName@@QAE@D@Z          100341e0 f   libvcruntimed:undname.obj
 0001:00033210       ??0DName@@QAE@PAV0@@Z      10034210 f   libvcruntimed:undname.obj
 0001:000332c0       ??0DName@@QAE@W4DNameStatus@@@Z 100342c0 f   libvcruntimed:undname.obj
 0001:00033360       ??0DName@@QAE@XZ           10034360 f i libvcruntimed:undname.obj
 0001:00033390       ??0DName@@QAE@_J@Z         10034390 f   libvcruntimed:undname.obj
 0001:00033480       ??0DName@@QAE@_K@Z         10034480 f   libvcruntimed:undname.obj
 0001:00033530       ??0DNameNode@@IAE@XZ       10034530 f i libvcruntimed:undname.obj
 0001:00033550       ??0Replicator@@QAE@XZ      10034550 f i libvcruntimed:undname.obj
 0001:00033590       ??0UnDecorator@@QAE@PBDP6APADJ@ZK@Z 10034590 f i libvcruntimed:undname.obj
 0001:00033610       ??0_Nontrivial_dummy_type@std@@QAE@XZ 10034610 f i libvcruntimed:undname.obj
 0001:00033620       ??0charNode@@QAE@D@Z       10034620 f i libvcruntimed:undname.obj
 0001:00033650       ??0pDNameNode@@QAE@PAVDName@@@Z 10034650 f   libvcruntimed:undname.obj
 0001:000336b0       ??0pairNode@@QAE@PBVDNameNode@@0@Z 100346b0 f i libvcruntimed:undname.obj
 0001:00033710       ??2@YAPAXIAAV_HeapManager@@H@Z 10034710 f   libvcruntimed:undname.obj
 0001:00033750       ??4DName@@QAEAAV0@ABUStringLiteral@@@Z 10034750 f   libvcruntimed:undname.obj
 0001:00033790       ??4DName@@QAEAAV0@ABV0@@Z  10034790 f   libvcruntimed:undname.obj
 0001:000337c0       ??4DName@@QAEAAV0@D@Z      100347c0 f i libvcruntimed:undname.obj
 0001:000337f0       ??4DName@@QAEAAV0@PAV0@@Z  100347f0 f   libvcruntimed:undname.obj
 0001:00033890       ??4DName@@QAEAAV0@W4DNameStatus@@@Z 10034890 f   libvcruntimed:undname.obj
 0001:00033910       ??AReplicator@@QBE?AVDName@@H@Z 10034910 f   libvcruntimed:undname.obj
 0001:00033980       ??B?$optional@_K@std@@QBE_NXZ 10034980 f i libvcruntimed:undname.obj
 0001:000339a0       ??D?$optional@_K@std@@QGAEAA_KXZ 100349a0 f i libvcruntimed:undname.obj
 0001:00033a10       ??H@YA?AVDName@@ABUStringLiteral@@ABV0@@Z 10034a10 f i libvcruntimed:undname.obj
 0001:00033a40       ??H@YA?AVDName@@DABV0@@Z   10034a40 f i libvcruntimed:undname.obj
 0001:00033a70       ??H@YA?AVDName@@W4DNameStatus@@ABV0@@Z 10034a70 f i libvcruntimed:undname.obj
 0001:00033aa0       ??HDName@@QBE?AV0@ABUStringLiteral@@@Z 10034aa0 f   libvcruntimed:undname.obj
 0001:00033ae0       ??HDName@@QBE?AV0@ABV0@@Z  10034ae0 f   libvcruntimed:undname.obj
 0001:00033b20       ??HDName@@QBE?AV0@D@Z      10034b20 f   libvcruntimed:undname.obj
 0001:00033b60       ??HDName@@QBE?AV0@PAV0@@Z  10034b60 f   libvcruntimed:undname.obj
 0001:00033ba0       ??HDName@@QBE?AV0@W4DNameStatus@@@Z 10034ba0 f   libvcruntimed:undname.obj
 0001:00033be0       ??HStringLiteral@@QBE?AU0@H@Z 10034be0 f i libvcruntimed:undname.obj
 0001:00033c10       ??YDName@@QAEAAV0@ABUStringLiteral@@@Z 10034c10 f   libvcruntimed:undname.obj
 0001:00033cb0       ??YDName@@QAEAAV0@ABV0@@Z  10034cb0 f   libvcruntimed:undname.obj
 0001:00033d50       ??YDName@@QAEAAV0@D@Z      10034d50 f   libvcruntimed:undname.obj
 0001:00033dd0       ??YDName@@QAEAAV0@PAV0@@Z  10034dd0 f   libvcruntimed:undname.obj
 0001:00033e80       ??YDName@@QAEAAV0@W4DNameStatus@@@Z 10034e80 f   libvcruntimed:undname.obj
 0001:00033ee0       ??YReplicator@@QAEAAV0@ABVDName@@@Z 10034ee0 f   libvcruntimed:undname.obj
 0001:00033f70       ??_5DName@@QAEAAV0@ABV0@@Z 10034f70 f   libvcruntimed:undname.obj
 0001:00033fd0       ??__K_l@@YA?AUStringLiteral@@PBDI@Z 10034fd0 f i libvcruntimed:undname.obj
 0001:00033ff0       ?Constructor@_HeapManager@@QAEXP6APAXI@ZP6AXPAX@Z@Z 10034ff0 f i libvcruntimed:undname.obj
 0001:00034030       ?Destructor@_HeapManager@@QAEXXZ 10035030 f i libvcruntimed:undname.obj
 0001:000340a0       ?UScore@UnDecorator@@SA?AUStringLiteral@@W4Tokens@@@Z 100350a0 f   libvcruntimed:undname.obj
 0001:000340f0       ?composeDeclaration@UnDecorator@@CA?AVDName@@ABV2@@Z 100350f0 f i libvcruntimed:undname.obj
 0001:00036060       ?dbGetString@DName@@QBEPADXZ 10037060 f   libvcruntimed:undname.obj
 0001:00036080       ?doAccessSpecifiers@UnDecorator@@SAHXZ 10037080 f i libvcruntimed:undname.obj
 0001:000360b0       ?doAllocationLanguage@UnDecorator@@SAHXZ 100370b0 f i libvcruntimed:undname.obj
 0001:000360e0       ?doAllocationModel@UnDecorator@@SAHXZ 100370e0 f i libvcruntimed:undname.obj
 0001:00036110       ?doEcsu@UnDecorator@@SAHXZ 10037110 f i libvcruntimed:undname.obj
 0001:00036140       ?doEllipsis@UnDecorator@@SAHXZ 10037140 f i libvcruntimed:undname.obj
 0001:00036170       ?doFunctionReturns@UnDecorator@@SAHXZ 10037170 f i libvcruntimed:undname.obj
 0001:000361a0       ?doMSKeywords@UnDecorator@@SAHXZ 100371a0 f i libvcruntimed:undname.obj
 0001:000361d0       ?doMemberTypes@UnDecorator@@SAHXZ 100371d0 f i libvcruntimed:undname.obj
 0001:00036200       ?doNameOnly@UnDecorator@@SAHXZ 10037200 f i libvcruntimed:undname.obj
 0001:00036210       ?doNoIdentCharCheck@UnDecorator@@SAHXZ 10037210 f i libvcruntimed:undname.obj
 0001:00036220       ?doPchar@DName@@AAEXD@Z    10037220 f   libvcruntimed:undname.obj
 0001:00036290       ?doPtr64@UnDecorator@@SAHXZ 10037290 f i libvcruntimed:undname.obj
 0001:000362c0       ?doRestrictionSpec@UnDecorator@@SAHXZ 100372c0 f i libvcruntimed:undname.obj
 0001:000362f0       ?doThisTypes@UnDecorator@@SAHXZ 100372f0 f i libvcruntimed:undname.obj
 0001:00036320       ?doThrowTypes@UnDecorator@@SAHXZ 10037320 f i libvcruntimed:undname.obj
 0001:00036350       ?doTypeOnly@UnDecorator@@SAHXZ 10037350 f i libvcruntimed:undname.obj
 0001:00036360       ?doUnderScore@UnDecorator@@SAHXZ 10037360 f i libvcruntimed:undname.obj
 0001:00036390       ?getAddressOf@UnDecorator@@CA?AVDName@@XZ 10037390 f   libvcruntimed:undname.obj
 0001:00036410       ?getArgumentList@UnDecorator@@CA?AVDName@@XZ 10037410 f   libvcruntimed:undname.obj
 0001:00036560       ?getArgumentTypes@UnDecorator@@CA?AVDName@@XZ 10037560 f   libvcruntimed:undname.obj
 0001:00036730       ?getArrayAccess@UnDecorator@@CA?AVDName@@XZ 10037730 f   libvcruntimed:undname.obj
 0001:000367d0       ?getArrayObject@UnDecorator@@CA?AVDName@@XZ 100377d0 f   libvcruntimed:undname.obj
 0001:000368b0       ?getArrayType@UnDecorator@@CA?AVDName@@ABV2@@Z 100378b0 f i libvcruntimed:undname.obj
 0001:00036b50       ?getBasedType@UnDecorator@@CA?AVDName@@XZ 10037b50 f   libvcruntimed:undname.obj
 0001:00036c40       ?getBasicDataType@UnDecorator@@CA?AVDName@@ABV2@@Z 10037c40 f   libvcruntimed:undname.obj
 0001:000375b0       ?getCHPEName@UnDecorator@@QAEPADPADH@Z 100385b0 f i libvcruntimed:undname.obj
 0001:00037710       ?getCallIndex@UnDecorator@@CA?AVDName@@XZ 10038710 f i libvcruntimed:undname.obj
 0001:00037730       ?getCallingConvention@UnDecorator@@CA?AVDName@@XZ 10038730 f   libvcruntimed:undname.obj
 0001:00037990       ?getDataIndirectType@UnDecorator@@CA?AVDName@@ABV2@W4IndirectionKind@@0H@Z 10038990 f   libvcruntimed:undname.obj
 0001:000382b0       ?getDataIndirectType@UnDecorator@@CA?AVDName@@XZ 100392b0 f i libvcruntimed:undname.obj
 0001:000382f0       ?getDataType@UnDecorator@@CA?AVDName@@PAV2@@Z 100392f0 f   libvcruntimed:undname.obj
 0001:00038430       ?getDecoratedName@UnDecorator@@CA?AVDName@@XZ 10039430 f   libvcruntimed:undname.obj
 0001:00038870       ?getDimension@UnDecorator@@CA?AVDName@@_N@Z 10039870 f   libvcruntimed:undname.obj
 0001:00038ad0       ?getDispatchTarget@UnDecorator@@CA?AVDName@@XZ 10039ad0 f   libvcruntimed:undname.obj
 0001:00038b70       ?getDisplacement@UnDecorator@@CA?AVDName@@XZ 10039b70 f i libvcruntimed:undname.obj
 0001:00038b90       ?getECSUDataType@UnDecorator@@CA?AVDName@@XZ 10039b90 f   libvcruntimed:undname.obj
 0001:00038df0       ?getECSUName@UnDecorator@@CA?AVDName@@XZ 10039df0 f i libvcruntimed:undname.obj
 0001:00038e10       ?getEnumType@UnDecorator@@CA?AVDName@@XZ 10039e10 f i libvcruntimed:undname.obj
 0001:00038fd0       ?getExtendedDataIndirectType@UnDecorator@@CA?AVDName@@AAW4IndirectionKind@@AA_NH@Z 10039fd0 f   libvcruntimed:undname.obj
 0001:00039220       ?getExternalDataType@UnDecorator@@CA?AVDName@@ABV2@@Z 1003a220 f i libvcruntimed:undname.obj
 0001:000392c0       ?getFloatingPoint@UnDecorator@@CA?AVDName@@H@Z 1003a2c0 f   libvcruntimed:undname.obj
 0001:00039480       ?getFunctionIndirectType@UnDecorator@@CA?AVDName@@ABV2@@Z 1003a480 f   libvcruntimed:undname.obj
 0001:00039960       ?getGuardNumber@UnDecorator@@CA?AVDName@@XZ 1003a960 f i libvcruntimed:undname.obj
 0001:00039980       ?getLastChar@DName@@QBEDXZ 1003a980 f i libvcruntimed:undname.obj
 0001:000399c0       ?getLastChar@DNameStatusNode@@UBEDXZ 1003a9c0 f i libvcruntimed:undname.obj
 0001:000399f0       ?getLastChar@charNode@@UBEDXZ 1003a9f0 f i libvcruntimed:undname.obj
 0001:00039a10       ?getLastChar@pDNameNode@@UBEDXZ 1003aa10 f i libvcruntimed:undname.obj
 0001:00039a40       ?getLastChar@pairNode@@UBEDXZ 1003aa40 f i libvcruntimed:undname.obj
 0001:00039ab0       ?getLastChar@pcharNode@@UBEDXZ 1003aab0 f i libvcruntimed:undname.obj
 0001:00039af0       ?getLexicalFrame@UnDecorator@@CA?AVDName@@XZ 1003aaf0 f i libvcruntimed:undname.obj
 0001:00039b30       ?getMemberAccess@UnDecorator@@CA?AVDName@@XZ 1003ab30 f   libvcruntimed:undname.obj
 0001:00039bc0       ?getMemoryWithBuffer@_HeapManager@@QAEPAXI@Z 1003abc0 f   libvcruntimed:undname.obj
 0001:00039cb0       ?getMemoryWithoutBuffer@_HeapManager@@QAEPAXI@Z 1003acb0 f   libvcruntimed:undname.obj
 0001:00039cf0       ?getNoexcept@UnDecorator@@CA?AVDName@@XZ 1003acf0 f   libvcruntimed:undname.obj
 0001:00039d70       ?getNumberOfDimensions@UnDecorator@@CAHXZ 1003ad70 f   libvcruntimed:undname.obj
 0001:00039e70       ?getOperatorName@UnDecorator@@CA?AVDName@@_NPA_N@Z 1003ae70 f i libvcruntimed:undname.obj
 0001:0003a970       ?getPointerToMember@UnDecorator@@CA?AVDName@@XZ 1003b970 f   libvcruntimed:undname.obj
 0001:0003aa60       ?getPointerType@UnDecorator@@CA?AVDName@@ABV2@0@Z 1003ba60 f i libvcruntimed:undname.obj
 0001:0003aa80       ?getPointerTypeArray@UnDecorator@@CA?AVDName@@ABV2@0@Z 1003ba80 f i libvcruntimed:undname.obj
 0001:0003aaa0       ?getPrimaryDataType@UnDecorator@@CA?AVDName@@ABV2@@Z 1003baa0 f   libvcruntimed:undname.obj
 0001:0003af30       ?getPtrRefDataType@UnDecorator@@CA?AVDName@@ABV2@H@Z 1003bf30 f   libvcruntimed:undname.obj
 0001:0003b1e0       ?getPtrRefType@UnDecorator@@CA?AVDName@@ABV2@0W4IndirectionKind@@@Z 1003c1e0 f   libvcruntimed:undname.obj
 0001:0003b360       ?getReferenceType@UnDecorator@@CA?AVDName@@ABV2@0W4IndirectionKind@@@Z 1003c360 f i libvcruntimed:undname.obj
 0001:0003b380       ?getRestrictionSpec@UnDecorator@@CA?AVDName@@XZ 1003c380 f   libvcruntimed:undname.obj
 0001:0003b540       ?getReturnType@UnDecorator@@CA?AVDName@@PAV2@@Z 1003c540 f   libvcruntimed:undname.obj
 0001:0003b590       ?getScope@UnDecorator@@CA?AVDName@@XZ 1003c590 f   libvcruntimed:undname.obj
 0001:0003bb20       ?getScopedName@UnDecorator@@CA?AVDName@@XZ 1003cb20 f   libvcruntimed:undname.obj
 0001:0003bc70       ?getSignedDimension@UnDecorator@@CA?AVDName@@XZ 1003cc70 f   libvcruntimed:undname.obj
 0001:0003bcf0       ?getStorageConvention@UnDecorator@@CA?AVDName@@XZ 1003ccf0 f i libvcruntimed:undname.obj
 0001:0003bd10       ?getString@DName@@QBEPADPAD0@Z 1003cd10 f i libvcruntimed:undname.obj
 0001:0003bd70       ?getString@DName@@QBEPADPADH@Z 1003cd70 f i libvcruntimed:undname.obj
 0001:0003be00       ?getString@DNameStatusNode@@UBEPADPAD0@Z 1003ce00 f i libvcruntimed:undname.obj
 0001:0003be40       ?getString@charNode@@UBEPADPAD0@Z 1003ce40 f i libvcruntimed:undname.obj
 0001:0003be70       ?getString@pDNameNode@@UBEPADPAD0@Z 1003ce70 f i libvcruntimed:undname.obj
 0001:0003beb0       ?getString@pairNode@@UBEPADPAD0@Z 1003ceb0 f i libvcruntimed:undname.obj
 0001:0003bf40       ?getString@pcharNode@@UBEPADPAD0@Z 1003cf40 f i libvcruntimed:undname.obj
 0001:0003bf70       ?getStringEncoding@UnDecorator@@CA?AVDName@@W4PrefixKind@@H@Z 1003cf70 f   libvcruntimed:undname.obj
 0001:0003c080       ?getStringHelper@@YAPADPADPBD1H@Z 1003d080 f i libvcruntimed:undname.obj
 0001:0003c0c0       ?getStringObject@UnDecorator@@CA?AVDName@@XZ 1003d0c0 f   libvcruntimed:undname.obj
 0001:0003c170       ?getSymbolName@UnDecorator@@CA?AVDName@@XZ 1003d170 f i libvcruntimed:undname.obj
 0001:0003c200       ?getTemplateArgumentList@UnDecorator@@CA?AVDName@@XZ 1003d200 f   libvcruntimed:undname.obj
 0001:0003c4f0       ?getTemplateName@UnDecorator@@CA?AVDName@@_N@Z 1003d4f0 f   libvcruntimed:undname.obj
 0001:0003c6b0       ?getTemplateNonTypeArgument@UnDecorator@@CA?AVDName@@XZ 1003d6b0 f   libvcruntimed:undname.obj
 0001:0003ccf0       ?getTemplateTypeArgument@UnDecorator@@CA?AVDName@@XZ 1003dcf0 f   libvcruntimed:undname.obj
 0001:0003ce90       ?getThisType@UnDecorator@@CA?AVDName@@XZ 1003de90 f i libvcruntimed:undname.obj
 0001:0003ced0       ?getThrowTypes@UnDecorator@@CA?AVDName@@XZ 1003ded0 f   libvcruntimed:undname.obj
 0001:0003cf10       ?getTypeEncoding@UnDecorator@@CAHXZ 1003df10 f i libvcruntimed:undname.obj
 0001:0003d9d0       ?getUndecoratedName@UnDecorator@@QAEPADPADH@Z 1003e9d0 f i libvcruntimed:undname.obj
 0001:0003db30       ?getUnionObject@UnDecorator@@CA?AVDName@@XZ 1003eb30 f   libvcruntimed:undname.obj
 0001:0003dc00       ?getVCallThunkType@UnDecorator@@CA?AVDName@@XZ 1003ec00 f i libvcruntimed:undname.obj
 0001:0003dc80       ?getValue@UnDecorator@@CA?AV?$optional@_K@std@@XZ 1003ec80 f   libvcruntimed:undname.obj
 0001:0003dd40       ?getValueObject@UnDecorator@@CA?AVDName@@XZ 1003ed40 f   libvcruntimed:undname.obj
 0001:0003df20       ?getVbTableType@UnDecorator@@CA?AVDName@@ABV2@@Z 1003ef20 f i libvcruntimed:undname.obj
 0001:0003df40       ?getVdispMapType@UnDecorator@@CA?AVDName@@ABV2@@Z 1003ef40 f i libvcruntimed:undname.obj
 0001:0003dfd0       ?getVfTableType@UnDecorator@@CA?AVDName@@ABV2@@Z 1003efd0 f i libvcruntimed:undname.obj
 0001:0003e1d0       ?getZName@UnDecorator@@CA?AVDName@@_N0@Z 1003f1d0 f   libvcruntimed:undname.obj
 0001:0003e500       ?haveTemplateParameters@UnDecorator@@SAHXZ 1003f500 f i libvcruntimed:undname.obj
 0001:0003e510       ?isArray@DName@@QBEHXZ     1003f510 f i libvcruntimed:undname.obj
 0001:0003e530       ?isComArray@DName@@QBEHXZ  1003f530 f i libvcruntimed:undname.obj
 0001:0003e550       ?isEmpty@DName@@QBEHXZ     1003f550 f i libvcruntimed:undname.obj
 0001:0003e580       ?isFull@Replicator@@QBEHXZ 1003f580 f i libvcruntimed:undname.obj
 0001:0003e5b0       ?isNoTE@DName@@QBEHXZ      1003f5b0 f i libvcruntimed:undname.obj
 0001:0003e5d0       ?isPinPtr@DName@@QBEHXZ    1003f5d0 f i libvcruntimed:undname.obj
 0001:0003e5f0       ?isPtrRef@DName@@QBEHXZ    1003f5f0 f i libvcruntimed:undname.obj
 0001:0003e610       ?isUDC@DName@@QBEHXZ       1003f610 f i libvcruntimed:undname.obj
 0001:0003e650       ?isUDTThunk@DName@@QBEHXZ  1003f650 f i libvcruntimed:undname.obj
 0001:0003e690       ?isVCallThunk@DName@@QBEHXZ 1003f690 f i libvcruntimed:undname.obj
 0001:0003e6b0       ?isValid@DName@@QBEHXZ     1003f6b0 f i libvcruntimed:undname.obj
 0001:0003e6f0       ?length@DName@@QBEHXZ      1003f6f0 f i libvcruntimed:undname.obj
 0001:0003e730       ?length@DNameStatusNode@@UBEHXZ 1003f730 f i libvcruntimed:undname.obj
 0001:0003e750       ?length@charNode@@UBEHXZ   1003f750 f i libvcruntimed:undname.obj
 0001:0003e760       ?length@pDNameNode@@UBEHXZ 1003f760 f i libvcruntimed:undname.obj
 0001:0003e790       ?length@pairNode@@UBEHXZ   1003f790 f i libvcruntimed:undname.obj
 0001:0003e800       ?length@pcharNode@@UBEHXZ  1003f800 f i libvcruntimed:undname.obj
 0001:0003e820       ?make@DNameStatusNode@@SAPBV1@W4DNameStatus@@@Z 1003f820 f i libvcruntimed:undname.obj
 0001:0003e850       ?parseDecoratedName@UnDecorator@@CA?AVDName@@XZ 1003f850 f   libvcruntimed:undname.obj
 0001:0003e9e0       ?raw_length@DNameStatusNode@@UBEHXZ 1003f9e0 f i libvcruntimed:undname.obj
 0001:0003ea00       ?raw_length@charNode@@UBEHXZ 1003fa00 f i libvcruntimed:undname.obj
 0001:0003ea20       ?raw_length@pDNameNode@@UBEHXZ 1003fa20 f i libvcruntimed:undname.obj
 0001:0003ea30       ?raw_length@pairNode@@UBEHXZ 1003fa30 f i libvcruntimed:undname.obj
 0001:0003ea50       ?raw_length@pcharNode@@UBEHXZ 1003fa50 f i libvcruntimed:undname.obj
 0001:0003ea70       ?setIsArray@DName@@QAEXXZ  1003fa70 f i libvcruntimed:undname.obj
 0001:0003ea90       ?setIsComArray@DName@@QAEXXZ 1003fa90 f i libvcruntimed:undname.obj
 0001:0003eab0       ?setIsNoTE@DName@@QAEXXZ   1003fab0 f i libvcruntimed:undname.obj
 0001:0003ead0       ?setIsPinPtr@DName@@QAEXXZ 1003fad0 f i libvcruntimed:undname.obj
 0001:0003eaf0       ?setIsUDC@DName@@QAEXXZ    1003faf0 f i libvcruntimed:undname.obj
 0001:0003eb20       ?setIsVCallThunk@DName@@QAEXXZ 1003fb20 f i libvcruntimed:undname.obj
 0001:0003eb40       ?setPtrRef@DName@@QAEAAV1@XZ 1003fb40 f i libvcruntimed:undname.obj
 0001:0003eb60       ?status@DName@@QBE?AW4DNameStatus@@XZ 1003fb60 f i libvcruntimed:undname.obj
 0001:0003ec60       ___unDName                 1003fc60 f   libvcruntimed:undname.obj
 0001:0003ec90       ___unDNameEx               1003fc90 f   libvcruntimed:undname.obj
 0001:0003ed60       _unDNameGenerateCHPE       1003fd60 f   libvcruntimed:undname.obj
 0001:0003edc0       __global_unwind2           1003fdc0 f   libvcruntimed:exsup.obj
 0001:0003ee40       __local_unwind2            1003fe40 f   libvcruntimed:exsup.obj
 0001:0003eee0       __abnormal_termination     1003fee0 f   libvcruntimed:exsup.obj
 0001:0003ef10       __NLG_Notify1              1003ff10 f   libvcruntimed:exsup.obj
 0001:0003ef20       __NLG_Notify               1003ff20 f   libvcruntimed:exsup.obj
 0001:0003ef37       __NLG_Dispatch2            1003ff37     libvcruntimed:exsup.obj
 0001:0003ef37       __NLG_Dispatch             1003ff37     libvcruntimed:exsup.obj
 0001:0003ef40       __NLG_Call                 1003ff40 f   libvcruntimed:exsup.obj
 0001:0003ef42       __NLG_Return2              1003ff42     libvcruntimed:exsup.obj
 0001:0003ef50       ??$__crt_interlocked_exchange_pointer@UHINSTANCE__@@PAU1@@@YAPAUHINSTANCE__@@PDSAU0@QAU0@@Z 1003ff50 f i libvcruntimed:winapi_downlevel.obj
 0001:0003ef60       ??$__crt_interlocked_exchange_pointer@UHINSTANCE__@@PAX@@YAPAUHINSTANCE__@@PDSAU0@QAX@Z 1003ff60 f i libvcruntimed:winapi_downlevel.obj
 0001:0003ef70       ??$__crt_interlocked_exchange_pointer@XPAX@@YAPAXPDSAXQAX@Z 1003ff70 f i libvcruntimed:winapi_downlevel.obj
 0001:0003ef80       ??$__crt_interlocked_read_pointer@UHINSTANCE__@@@@YAPAUHINSTANCE__@@PDSAU0@@Z 1003ff80 f i libvcruntimed:winapi_downlevel.obj
 0001:0003efa0       ??$__crt_interlocked_read_pointer@X@@YAPAXPDSAX@Z 1003ffa0 f i libvcruntimed:winapi_downlevel.obj
 0001:0003f370       ___vcrt_FlsAlloc           10040370 f   libvcruntimed:winapi_downlevel.obj
 0001:0003f3b0       ___vcrt_FlsFree            100403b0 f   libvcruntimed:winapi_downlevel.obj
 0001:0003f3f0       ___vcrt_FlsGetValue        100403f0 f   libvcruntimed:winapi_downlevel.obj
 0001:0003f430       ___vcrt_FlsSetValue        10040430 f   libvcruntimed:winapi_downlevel.obj
 0001:0003f480       ___vcrt_InitializeCriticalSectionEx 10040480 f   libvcruntimed:winapi_downlevel.obj
 0001:0003f500       __get_unexpected           10040500 f   libvcruntimed:unexpected.obj
 0001:0003f520       _set_unexpected            10040520 f   libvcruntimed:unexpected.obj
 0001:0003f550       _unexpected                10040550 f   libvcruntimed:unexpected.obj
 0001:0003f590       ?GetCurrentState@__FrameHandler3@@SAHPAUEHRegistrationNode@@PAXPBU_s_FuncInfo@@@Z 10040590 f   libvcruntimed:ehstate.obj
 0001:0003f5c0       ?SetState@__FrameHandler3@@SAXPAUEHRegistrationNode@@PBU_s_FuncInfo@@H@Z 100405c0 f   libvcruntimed:ehstate.obj
 0001:0003f5d0       ??$?0ABV?$stream_output_adapter@D@__crt_stdio_output@@AB_KABQBDAAV__crt_cached_ptd_host@@ABQAD@?$format_validation_base@DV?$stream_output_adapter@D@__crt_stdio_output@@@__crt_stdio_output@@IAE@ABV?$stream_output_adapter@D@1@AB_KABQBDAAV__crt_cached_ptd_host@@ABQAD@Z 100405d0 f i libucrtd:output.obj
 0001:0003f600       ??$?0ABV?$stream_output_adapter@D@__crt_stdio_output@@AB_KABQBDAAV__crt_cached_ptd_host@@ABQAD@?$positional_parameter_base@DV?$stream_output_adapter@D@__crt_stdio_output@@@__crt_stdio_output@@IAE@ABV?$stream_output_adapter@D@1@AB_KABQBDAAV__crt_cached_ptd_host@@ABQAD@Z 10040600 f i libucrtd:output.obj
 0001:0003f680       ??$?0ABV?$stream_output_adapter@D@__crt_stdio_output@@AB_KABQBDAAV__crt_cached_ptd_host@@ABQAD@?$standard_base@DV?$stream_output_adapter@D@__crt_stdio_output@@@__crt_stdio_output@@IAE@ABV?$stream_output_adapter@D@1@AB_KABQBDAAV__crt_cached_ptd_host@@ABQAD@Z 10040680 f i libucrtd:output.obj
 0001:0003f6d0       ??$?0ABV?$stream_output_adapter@_W@__crt_stdio_output@@AB_KABQB_WAAV__crt_cached_ptd_host@@ABQAD@?$format_validation_base@_WV?$stream_output_adapter@_W@__crt_stdio_output@@@__crt_stdio_output@@IAE@ABV?$stream_output_adapter@_W@1@AB_KABQB_WAAV__crt_cached_ptd_host@@ABQAD@Z 100406d0 f i libucrtd:output.obj
 0001:0003f700       ??$?0ABV?$stream_output_adapter@_W@__crt_stdio_output@@AB_KABQB_WAAV__crt_cached_ptd_host@@ABQAD@?$positional_parameter_base@_WV?$stream_output_adapter@_W@__crt_stdio_output@@@__crt_stdio_output@@IAE@ABV?$stream_output_adapter@_W@1@AB_KABQB_WAAV__crt_cached_ptd_host@@ABQAD@Z 10040700 f i libucrtd:output.obj
 0001:0003f780       ??$?0ABV?$stream_output_adapter@_W@__crt_stdio_output@@AB_KABQB_WAAV__crt_cached_ptd_host@@ABQAD@?$standard_base@_WV?$stream_output_adapter@_W@__crt_stdio_output@@@__crt_stdio_output@@IAE@ABV?$stream_output_adapter@_W@1@AB_KABQB_WAAV__crt_cached_ptd_host@@ABQAD@Z 10040780 f i libucrtd:output.obj
 0001:0003f7d0       ??$?0ABV?$string_output_adapter@D@__crt_stdio_output@@AB_KABQBDAAV__crt_cached_ptd_host@@ABQAD@?$format_validation_base@DV?$string_output_adapter@D@__crt_stdio_output@@@__crt_stdio_output@@IAE@ABV?$string_output_adapter@D@1@AB_KABQBDAAV__crt_cached_ptd_host@@ABQAD@Z 100407d0 f i libucrtd:output.obj
 0001:0003f800       ??$?0ABV?$string_output_adapter@D@__crt_stdio_output@@AB_KABQBDAAV__crt_cached_ptd_host@@ABQAD@?$positional_parameter_base@DV?$string_output_adapter@D@__crt_stdio_output@@@__crt_stdio_output@@IAE@ABV?$string_output_adapter@D@1@AB_KABQBDAAV__crt_cached_ptd_host@@ABQAD@Z 10040800 f i libucrtd:output.obj
 0001:0003f880       ??$?0ABV?$string_output_adapter@D@__crt_stdio_output@@AB_KABQBDAAV__crt_cached_ptd_host@@ABQAD@?$standard_base@DV?$string_output_adapter@D@__crt_stdio_output@@@__crt_stdio_output@@IAE@ABV?$string_output_adapter@D@1@AB_KABQBDAAV__crt_cached_ptd_host@@ABQAD@Z 10040880 f i libucrtd:output.obj
 0001:0003f8d0       ??$?0ABV?$string_output_adapter@_W@__crt_stdio_output@@AB_KABQB_WAAV__crt_cached_ptd_host@@ABQAD@?$format_validation_base@_WV?$string_output_adapter@_W@__crt_stdio_output@@@__crt_stdio_output@@IAE@ABV?$string_output_adapter@_W@1@AB_KABQB_WAAV__crt_cached_ptd_host@@ABQAD@Z 100408d0 f i libucrtd:output.obj
 0001:0003f900       ??$?0ABV?$string_output_adapter@_W@__crt_stdio_output@@AB_KABQB_WAAV__crt_cached_ptd_host@@ABQAD@?$positional_parameter_base@_WV?$string_output_adapter@_W@__crt_stdio_output@@@__crt_stdio_output@@IAE@ABV?$string_output_adapter@_W@1@AB_KABQB_WAAV__crt_cached_ptd_host@@ABQAD@Z 10040900 f i libucrtd:output.obj
 0001:0003f980       ??$?0ABV?$string_output_adapter@_W@__crt_stdio_output@@AB_KABQB_WAAV__crt_cached_ptd_host@@ABQAD@?$standard_base@_WV?$string_output_adapter@_W@__crt_stdio_output@@@__crt_stdio_output@@IAE@ABV?$string_output_adapter@_W@1@AB_KABQB_WAAV__crt_cached_ptd_host@@ABQAD@Z 10040980 f i libucrtd:output.obj
 0001:0003ffd0       ??$__crt_interlocked_read@J@@YAJPDJ@Z 10040fd0 f i libucrtd:output.obj
 0001:0003fff0       ??$_tcstol_internal@DPAPAD$0A@@@YAJAAV__crt_cached_ptd_host@@QBDQAPADH@Z 10040ff0 f i libucrtd:output.obj
 0001:00040030       ??$_tcstol_internal@_WPAPA_W$0A@@@YAJAAV__crt_cached_ptd_host@@QB_WQAPA_WH@Z 10041030 f i libucrtd:output.obj
 0001:00042fd0       ??$count@D@formatting_buffer@__crt_stdio_output@@QBEIXZ 10043fd0 f i libucrtd:output.obj
 0001:00043010       ??$count@_W@formatting_buffer@__crt_stdio_output@@QBEIXZ 10044010 f i libucrtd:output.obj
 0001:00043050       ??$data@D@formatting_buffer@__crt_stdio_output@@QAEPADXZ 10044050 f i libucrtd:output.obj
 0001:00043090       ??$data@_W@formatting_buffer@__crt_stdio_output@@QAEPA_WXZ 10044090 f i libucrtd:output.obj
 0001:000430d0       ??$ensure_buffer_is_big_enough@D@formatting_buffer@__crt_stdio_output@@QAE_NIAAV__crt_cached_ptd_host@@@Z 100440d0 f i libucrtd:output.obj
 0001:000431c0       ??$ensure_buffer_is_big_enough@_W@formatting_buffer@__crt_stdio_output@@QAE_NIAAV__crt_cached_ptd_host@@@Z 100441c0 f i libucrtd:output.obj
 0001:000432b0       ??$extract_argument_from_va_list@C_J@?$positional_parameter_base@DV?$stream_output_adapter@D@__crt_stdio_output@@@__crt_stdio_output@@IAE_NAA_J@Z 100442b0 f i libucrtd:output.obj
 0001:00043410       ??$extract_argument_from_va_list@C_J@?$positional_parameter_base@DV?$string_output_adapter@D@__crt_stdio_output@@@__crt_stdio_output@@IAE_NAA_J@Z 10044410 f i libucrtd:output.obj
 0001:00043570       ??$extract_argument_from_va_list@C_J@?$positional_parameter_base@_WV?$stream_output_adapter@_W@__crt_stdio_output@@@__crt_stdio_output@@IAE_NAA_J@Z 10044570 f i libucrtd:output.obj
 0001:000436e0       ??$extract_argument_from_va_list@C_J@?$positional_parameter_base@_WV?$string_output_adapter@_W@__crt_stdio_output@@@__crt_stdio_output@@IAE_NAA_J@Z 100446e0 f i libucrtd:output.obj
 0001:00043850       ??$extract_argument_from_va_list@C_J@?$standard_base@DV?$stream_output_adapter@D@__crt_stdio_output@@@__crt_stdio_output@@IAE_NAA_J@Z 10044850 f i libucrtd:output.obj
 0001:00043880       ??$extract_argument_from_va_list@C_J@?$standard_base@DV?$string_output_adapter@D@__crt_stdio_output@@@__crt_stdio_output@@IAE_NAA_J@Z 10044880 f i libucrtd:output.obj
 0001:000438b0       ??$extract_argument_from_va_list@C_J@?$standard_base@_WV?$stream_output_adapter@_W@__crt_stdio_output@@@__crt_stdio_output@@IAE_NAA_J@Z 100448b0 f i libucrtd:output.obj
 0001:000438e0       ??$extract_argument_from_va_list@C_J@?$standard_base@_WV?$string_output_adapter@_W@__crt_stdio_output@@@__crt_stdio_output@@IAE_NAA_J@Z 100448e0 f i libucrtd:output.obj
 0001:00043910       ??$extract_argument_from_va_list@E_J@?$positional_parameter_base@DV?$stream_output_adapter@D@__crt_stdio_output@@@__crt_stdio_output@@IAE_NAA_J@Z 10044910 f i libucrtd:output.obj
 0001:00043a70       ??$extract_argument_from_va_list@E_J@?$positional_parameter_base@DV?$string_output_adapter@D@__crt_stdio_output@@@__crt_stdio_output@@IAE_NAA_J@Z 10044a70 f i libucrtd:output.obj
 0001:00043bd0       ??$extract_argument_from_va_list@E_J@?$positional_parameter_base@_WV?$stream_output_adapter@_W@__crt_stdio_output@@@__crt_stdio_output@@IAE_NAA_J@Z 10044bd0 f i libucrtd:output.obj
 0001:00043d40       ??$extract_argument_from_va_list@E_J@?$positional_parameter_base@_WV?$string_output_adapter@_W@__crt_stdio_output@@@__crt_stdio_output@@IAE_NAA_J@Z 10044d40 f i libucrtd:output.obj
 0001:00043eb0       ??$extract_argument_from_va_list@E_J@?$standard_base@DV?$stream_output_adapter@D@__crt_stdio_output@@@__crt_stdio_output@@IAE_NAA_J@Z 10044eb0 f i libucrtd:output.obj
 0001:00043ee0       ??$extract_argument_from_va_list@E_J@?$standard_base@DV?$string_output_adapter@D@__crt_stdio_output@@@__crt_stdio_output@@IAE_NAA_J@Z 10044ee0 f i libucrtd:output.obj
 0001:00043f10       ??$extract_argument_from_va_list@E_J@?$standard_base@_WV?$stream_output_adapter@_W@__crt_stdio_output@@@__crt_stdio_output@@IAE_NAA_J@Z 10044f10 f i libucrtd:output.obj
 0001:00043f40       ??$extract_argument_from_va_list@E_J@?$standard_base@_WV?$string_output_adapter@_W@__crt_stdio_output@@@__crt_stdio_output@@IAE_NAA_J@Z 10044f40 f i libucrtd:output.obj
 0001:00043f70       ??$extract_argument_from_va_list@F_J@?$positional_parameter_base@DV?$stream_output_adapter@D@__crt_stdio_output@@@__crt_stdio_output@@IAE_NAA_J@Z 10044f70 f i libucrtd:output.obj
 0001:000440d0       ??$extract_argument_from_va_list@F_J@?$positional_parameter_base@DV?$string_output_adapter@D@__crt_stdio_output@@@__crt_stdio_output@@IAE_NAA_J@Z 100450d0 f i libucrtd:output.obj
 0001:00044230       ??$extract_argument_from_va_list@F_J@?$positional_parameter_base@_WV?$stream_output_adapter@_W@__crt_stdio_output@@@__crt_stdio_output@@IAE_NAA_J@Z 10045230 f i libucrtd:output.obj
 0001:00044390       ??$extract_argument_from_va_list@F_J@?$positional_parameter_base@_WV?$string_output_adapter@_W@__crt_stdio_output@@@__crt_stdio_output@@IAE_NAA_J@Z 10045390 f i libucrtd:output.obj
 0001:000444f0       ??$extract_argument_from_va_list@F_J@?$standard_base@DV?$stream_output_adapter@D@__crt_stdio_output@@@__crt_stdio_output@@IAE_NAA_J@Z 100454f0 f i libucrtd:output.obj
 0001:00044520       ??$extract_argument_from_va_list@F_J@?$standard_base@DV?$string_output_adapter@D@__crt_stdio_output@@@__crt_stdio_output@@IAE_NAA_J@Z 10045520 f i libucrtd:output.obj
 0001:00044550       ??$extract_argument_from_va_list@F_J@?$standard_base@_WV?$stream_output_adapter@_W@__crt_stdio_output@@@__crt_stdio_output@@IAE_NAA_J@Z 10045550 f i libucrtd:output.obj
 0001:00044580       ??$extract_argument_from_va_list@F_J@?$standard_base@_WV?$string_output_adapter@_W@__crt_stdio_output@@@__crt_stdio_output@@IAE_NAA_J@Z 10045580 f i libucrtd:output.obj
 0001:000445b0       ??$extract_argument_from_va_list@GD@?$positional_parameter_base@DV?$stream_output_adapter@D@__crt_stdio_output@@@__crt_stdio_output@@IAE_NAAD@Z 100455b0 f i libucrtd:output.obj
 0001:00044710       ??$extract_argument_from_va_list@GD@?$positional_parameter_base@DV?$string_output_adapter@D@__crt_stdio_output@@@__crt_stdio_output@@IAE_NAAD@Z 10045710 f i libucrtd:output.obj
 0001:00044870       ??$extract_argument_from_va_list@GD@?$standard_base@DV?$stream_output_adapter@D@__crt_stdio_output@@@__crt_stdio_output@@IAE_NAAD@Z 10045870 f i libucrtd:output.obj
 0001:000448a0       ??$extract_argument_from_va_list@GD@?$standard_base@DV?$string_output_adapter@D@__crt_stdio_output@@@__crt_stdio_output@@IAE_NAAD@Z 100458a0 f i libucrtd:output.obj
 0001:000448d0       ??$extract_argument_from_va_list@G_J@?$positional_parameter_base@DV?$stream_output_adapter@D@__crt_stdio_output@@@__crt_stdio_output@@IAE_NAA_J@Z 100458d0 f i libucrtd:output.obj
 0001:00044a30       ??$extract_argument_from_va_list@G_J@?$positional_parameter_base@DV?$string_output_adapter@D@__crt_stdio_output@@@__crt_stdio_output@@IAE_NAA_J@Z 10045a30 f i libucrtd:output.obj
 0001:00044b90       ??$extract_argument_from_va_list@G_J@?$positional_parameter_base@_WV?$stream_output_adapter@_W@__crt_stdio_output@@@__crt_stdio_output@@IAE_NAA_J@Z 10045b90 f i libucrtd:output.obj
 0001:00044d00       ??$extract_argument_from_va_list@G_J@?$positional_parameter_base@_WV?$string_output_adapter@_W@__crt_stdio_output@@@__crt_stdio_output@@IAE_NAA_J@Z 10045d00 f i libucrtd:output.obj
 0001:00044e70       ??$extract_argument_from_va_list@G_J@?$standard_base@DV?$stream_output_adapter@D@__crt_stdio_output@@@__crt_stdio_output@@IAE_NAA_J@Z 10045e70 f i libucrtd:output.obj
 0001:00044ea0       ??$extract_argument_from_va_list@G_J@?$standard_base@DV?$string_output_adapter@D@__crt_stdio_output@@@__crt_stdio_output@@IAE_NAA_J@Z 10045ea0 f i libucrtd:output.obj
 0001:00044ed0       ??$extract_argument_from_va_list@G_J@?$standard_base@_WV?$stream_output_adapter@_W@__crt_stdio_output@@@__crt_stdio_output@@IAE_NAA_J@Z 10045ed0 f i libucrtd:output.obj
 0001:00044f00       ??$extract_argument_from_va_list@G_J@?$standard_base@_WV?$string_output_adapter@_W@__crt_stdio_output@@@__crt_stdio_output@@IAE_NAA_J@Z 10045f00 f i libucrtd:output.obj
 0001:00044f30       ??$extract_argument_from_va_list@H_J@?$positional_parameter_base@DV?$stream_output_adapter@D@__crt_stdio_output@@@__crt_stdio_output@@IAE_NAA_J@Z 10045f30 f i libucrtd:output.obj
 0001:00045090       ??$extract_argument_from_va_list@H_J@?$positional_parameter_base@DV?$string_output_adapter@D@__crt_stdio_output@@@__crt_stdio_output@@IAE_NAA_J@Z 10046090 f i libucrtd:output.obj
 0001:000451f0       ??$extract_argument_from_va_list@H_J@?$positional_parameter_base@_WV?$stream_output_adapter@_W@__crt_stdio_output@@@__crt_stdio_output@@IAE_NAA_J@Z 100461f0 f i libucrtd:output.obj
 0001:00045350       ??$extract_argument_from_va_list@H_J@?$positional_parameter_base@_WV?$string_output_adapter@_W@__crt_stdio_output@@@__crt_stdio_output@@IAE_NAA_J@Z 10046350 f i libucrtd:output.obj
 0001:000454b0       ??$extract_argument_from_va_list@H_J@?$standard_base@DV?$stream_output_adapter@D@__crt_stdio_output@@@__crt_stdio_output@@IAE_NAA_J@Z 100464b0 f i libucrtd:output.obj
 0001:000454e0       ??$extract_argument_from_va_list@H_J@?$standard_base@DV?$string_output_adapter@D@__crt_stdio_output@@@__crt_stdio_output@@IAE_NAA_J@Z 100464e0 f i libucrtd:output.obj
 0001:00045510       ??$extract_argument_from_va_list@H_J@?$standard_base@_WV?$stream_output_adapter@_W@__crt_stdio_output@@@__crt_stdio_output@@IAE_NAA_J@Z 10046510 f i libucrtd:output.obj
 0001:00045540       ??$extract_argument_from_va_list@H_J@?$standard_base@_WV?$string_output_adapter@_W@__crt_stdio_output@@@__crt_stdio_output@@IAE_NAA_J@Z 10046540 f i libucrtd:output.obj
 0001:00045570       ??$extract_argument_from_va_list@I_J@?$positional_parameter_base@DV?$stream_output_adapter@D@__crt_stdio_output@@@__crt_stdio_output@@IAE_NAA_J@Z 10046570 f i libucrtd:output.obj
 0001:000456d0       ??$extract_argument_from_va_list@I_J@?$positional_parameter_base@DV?$string_output_adapter@D@__crt_stdio_output@@@__crt_stdio_output@@IAE_NAA_J@Z 100466d0 f i libucrtd:output.obj
 0001:00045830       ??$extract_argument_from_va_list@I_J@?$positional_parameter_base@_WV?$stream_output_adapter@_W@__crt_stdio_output@@@__crt_stdio_output@@IAE_NAA_J@Z 10046830 f i libucrtd:output.obj
 0001:00045990       ??$extract_argument_from_va_list@I_J@?$positional_parameter_base@_WV?$string_output_adapter@_W@__crt_stdio_output@@@__crt_stdio_output@@IAE_NAA_J@Z 10046990 f i libucrtd:output.obj
 0001:00045af0       ??$extract_argument_from_va_list@I_J@?$standard_base@DV?$stream_output_adapter@D@__crt_stdio_output@@@__crt_stdio_output@@IAE_NAA_J@Z 10046af0 f i libucrtd:output.obj
 0001:00045b20       ??$extract_argument_from_va_list@I_J@?$standard_base@DV?$string_output_adapter@D@__crt_stdio_output@@@__crt_stdio_output@@IAE_NAA_J@Z 10046b20 f i libucrtd:output.obj
 0001:00045b50       ??$extract_argument_from_va_list@I_J@?$standard_base@_WV?$stream_output_adapter@_W@__crt_stdio_output@@@__crt_stdio_output@@IAE_NAA_J@Z 10046b50 f i libucrtd:output.obj
 0001:00045b80       ??$extract_argument_from_va_list@I_J@?$standard_base@_WV?$string_output_adapter@_W@__crt_stdio_output@@@__crt_stdio_output@@IAE_NAA_J@Z 10046b80 f i libucrtd:output.obj
 0001:00045bb0       ??$extract_argument_from_va_list@PADPAD@?$positional_parameter_base@DV?$stream_output_adapter@D@__crt_stdio_output@@@__crt_stdio_output@@IAE_NAAPAD@Z 10046bb0 f i libucrtd:output.obj
 0001:00045d10       ??$extract_argument_from_va_list@PADPAD@?$positional_parameter_base@DV?$string_output_adapter@D@__crt_stdio_output@@@__crt_stdio_output@@IAE_NAAPAD@Z 10046d10 f i libucrtd:output.obj
 0001:00045e70       ??$extract_argument_from_va_list@PADPAD@?$positional_parameter_base@_WV?$stream_output_adapter@_W@__crt_stdio_output@@@__crt_stdio_output@@IAE_NAAPAD@Z 10046e70 f i libucrtd:output.obj
 0001:00045fd0       ??$extract_argument_from_va_list@PADPAD@?$positional_parameter_base@_WV?$string_output_adapter@_W@__crt_stdio_output@@@__crt_stdio_output@@IAE_NAAPAD@Z 10046fd0 f i libucrtd:output.obj
 0001:00046130       ??$extract_argument_from_va_list@PADPAD@?$standard_base@DV?$stream_output_adapter@D@__crt_stdio_output@@@__crt_stdio_output@@IAE_NAAPAD@Z 10047130 f i libucrtd:output.obj
 0001:00046160       ??$extract_argument_from_va_list@PADPAD@?$standard_base@DV?$string_output_adapter@D@__crt_stdio_output@@@__crt_stdio_output@@IAE_NAAPAD@Z 10047160 f i libucrtd:output.obj
 0001:00046190       ??$extract_argument_from_va_list@PADPAD@?$standard_base@_WV?$stream_output_adapter@_W@__crt_stdio_output@@@__crt_stdio_output@@IAE_NAAPAD@Z 10047190 f i libucrtd:output.obj
 0001:000461c0       ??$extract_argument_from_va_list@PADPAD@?$standard_base@_WV?$string_output_adapter@_W@__crt_stdio_output@@@__crt_stdio_output@@IAE_NAAPAD@Z 100471c0 f i libucrtd:output.obj
 0001:000461f0       ??$extract_argument_from_va_list@PAUansi_string@?1??type_case_Z@?$output_processor@DV?$stream_output_adapter@D@__crt_stdio_output@@V?$format_validation_base@DV?$stream_output_adapter@D@__crt_stdio_output@@@2@@__crt_stdio_output@@AAE_NXZ@PAU1?1??234@AAE_NXZ@@?$standard_base@DV?$stream_output_adapter@D@__crt_stdio_output@@@__crt_stdio_output@@IAE_NAAPAUansi_string@?1??type_case_Z@?$output_processor@DV?$stream_output_adapter@D@__crt_stdio_output@@V?$format_validation_base@DV?$stream_output_adapter@D@__crt_stdio_output@@@2@@1@AAE_NXZ@@Z 100471f0 f i libucrtd:output.obj
 0001:00046220       ??$extract_argument_from_va_list@PAUansi_string@?1??type_case_Z@?$output_processor@DV?$stream_output_adapter@D@__crt_stdio_output@@V?$positional_parameter_base@DV?$stream_output_adapter@D@__crt_stdio_output@@@2@@__crt_stdio_output@@AAE_NXZ@PAU1?1??234@AAE_NXZ@@?$positional_parameter_base@DV?$stream_output_adapter@D@__crt_stdio_output@@@__crt_stdio_output@@IAE_NAAPAUansi_string@?1??type_case_Z@?$output_processor@DV?$stream_output_adapter@D@__crt_stdio_output@@V?$positional_parameter_base@DV?$stream_output_adapter@D@__crt_stdio_output@@@2@@1@AAE_NXZ@@Z 10047220 f i libucrtd:output.obj
 0001:00046380       ??$extract_argument_from_va_list@PAUansi_string@?1??type_case_Z@?$output_processor@DV?$stream_output_adapter@D@__crt_stdio_output@@V?$positional_parameter_base@DV?$stream_output_adapter@D@__crt_stdio_output@@@2@@__crt_stdio_output@@AAE_NXZ@PAU1?1??234@AAE_NXZ@@?$standard_base@DV?$stream_output_adapter@D@__crt_stdio_output@@@__crt_stdio_output@@IAE_NAAPAUansi_string@?1??type_case_Z@?$output_processor@DV?$stream_output_adapter@D@__crt_stdio_output@@V?$positional_parameter_base@DV?$stream_output_adapter@D@__crt_stdio_output@@@2@@1@AAE_NXZ@@Z 10047380 f i libucrtd:output.obj
 0001:000463b0       ??$extract_argument_from_va_list@PAUansi_string@?1??type_case_Z@?$output_processor@DV?$stream_output_adapter@D@__crt_stdio_output@@V?$standard_base@DV?$stream_output_adapter@D@__crt_stdio_output@@@2@@__crt_stdio_output@@AAE_NXZ@PAU1?1??234@AAE_NXZ@@?$standard_base@DV?$stream_output_adapter@D@__crt_stdio_output@@@__crt_stdio_output@@IAE_NAAPAUansi_string@?1??type_case_Z@?$output_processor@DV?$stream_output_adapter@D@__crt_stdio_output@@V?$standard_base@DV?$stream_output_adapter@D@__crt_stdio_output@@@2@@1@AAE_NXZ@@Z 100473b0 f i libucrtd:output.obj
 0001:000463e0       ??$extract_argument_from_va_list@PAUansi_string@?1??type_case_Z@?$output_processor@DV?$string_output_adapter@D@__crt_stdio_output@@V?$format_validation_base@DV?$string_output_adapter@D@__crt_stdio_output@@@2@@__crt_stdio_output@@AAE_NXZ@PAU1?1??234@AAE_NXZ@@?$standard_base@DV?$string_output_adapter@D@__crt_stdio_output@@@__crt_stdio_output@@IAE_NAAPAUansi_string@?1??type_case_Z@?$output_processor@DV?$string_output_adapter@D@__crt_stdio_output@@V?$format_validation_base@DV?$string_output_adapter@D@__crt_stdio_output@@@2@@1@AAE_NXZ@@Z 100473e0 f i libucrtd:output.obj
 0001:00046410       ??$extract_argument_from_va_list@PAUansi_string@?1??type_case_Z@?$output_processor@DV?$string_output_adapter@D@__crt_stdio_output@@V?$positional_parameter_base@DV?$string_output_adapter@D@__crt_stdio_output@@@2@@__crt_stdio_output@@AAE_NXZ@PAU1?1??234@AAE_NXZ@@?$positional_parameter_base@DV?$string_output_adapter@D@__crt_stdio_output@@@__crt_stdio_output@@IAE_NAAPAUansi_string@?1??type_case_Z@?$output_processor@DV?$string_output_adapter@D@__crt_stdio_output@@V?$positional_parameter_base@DV?$string_output_adapter@D@__crt_stdio_output@@@2@@1@AAE_NXZ@@Z 10047410 f i libucrtd:output.obj
 0001:00046570       ??$extract_argument_from_va_list@PAUansi_string@?1??type_case_Z@?$output_processor@DV?$string_output_adapter@D@__crt_stdio_output@@V?$positional_parameter_base@DV?$string_output_adapter@D@__crt_stdio_output@@@2@@__crt_stdio_output@@AAE_NXZ@PAU1?1??234@AAE_NXZ@@?$standard_base@DV?$string_output_adapter@D@__crt_stdio_output@@@__crt_stdio_output@@IAE_NAAPAUansi_string@?1??type_case_Z@?$output_processor@DV?$string_output_adapter@D@__crt_stdio_output@@V?$positional_parameter_base@DV?$string_output_adapter@D@__crt_stdio_output@@@2@@1@AAE_NXZ@@Z 10047570 f i libucrtd:output.obj
 0001:000465a0       ??$extract_argument_from_va_list@PAUansi_string@?1??type_case_Z@?$output_processor@DV?$string_output_adapter@D@__crt_stdio_output@@V?$standard_base@DV?$string_output_adapter@D@__crt_stdio_output@@@2@@__crt_stdio_output@@AAE_NXZ@PAU1?1??234@AAE_NXZ@@?$standard_base@DV?$string_output_adapter@D@__crt_stdio_output@@@__crt_stdio_output@@IAE_NAAPAUansi_string@?1??type_case_Z@?$output_processor@DV?$string_output_adapter@D@__crt_stdio_output@@V?$standard_base@DV?$string_output_adapter@D@__crt_stdio_output@@@2@@1@AAE_NXZ@@Z 100475a0 f i libucrtd:output.obj
 0001:000465d0       ??$extract_argument_from_va_list@PAUansi_string@?1??type_case_Z@?$output_processor@_WV?$stream_output_adapter@_W@__crt_stdio_output@@V?$format_validation_base@_WV?$stream_output_adapter@_W@__crt_stdio_output@@@2@@__crt_stdio_output@@AAE_NXZ@PAU1?1??234@AAE_NXZ@@?$standard_base@_WV?$stream_output_adapter@_W@__crt_stdio_output@@@__crt_stdio_output@@IAE_NAAPAUansi_string@?1??type_case_Z@?$output_processor@_WV?$stream_output_adapter@_W@__crt_stdio_output@@V?$format_validation_base@_WV?$stream_output_adapter@_W@__crt_stdio_output@@@2@@1@AAE_NXZ@@Z 100475d0 f i libucrtd:output.obj
 0001:00046600       ??$extract_argument_from_va_list@PAUansi_string@?1??type_case_Z@?$output_processor@_WV?$stream_output_adapter@_W@__crt_stdio_output@@V?$positional_parameter_base@_WV?$stream_output_adapter@_W@__crt_stdio_output@@@2@@__crt_stdio_output@@AAE_NXZ@PAU1?1??234@AAE_NXZ@@?$positional_parameter_base@_WV?$stream_output_adapter@_W@__crt_stdio_output@@@__crt_stdio_output@@IAE_NAAPAUansi_string@?1??type_case_Z@?$output_processor@_WV?$stream_output_adapter@_W@__crt_stdio_output@@V?$positional_parameter_base@_WV?$stream_output_adapter@_W@__crt_stdio_output@@@2@@1@AAE_NXZ@@Z 10047600 f i libucrtd:output.obj
 0001:00046760       ??$extract_argument_from_va_list@PAUansi_string@?1??type_case_Z@?$output_processor@_WV?$stream_output_adapter@_W@__crt_stdio_output@@V?$positional_parameter_base@_WV?$stream_output_adapter@_W@__crt_stdio_output@@@2@@__crt_stdio_output@@AAE_NXZ@PAU1?1??234@AAE_NXZ@@?$standard_base@_WV?$stream_output_adapter@_W@__crt_stdio_output@@@__crt_stdio_output@@IAE_NAAPAUansi_string@?1??type_case_Z@?$output_processor@_WV?$stream_output_adapter@_W@__crt_stdio_output@@V?$positional_parameter_base@_WV?$stream_output_adapter@_W@__crt_stdio_output@@@2@@1@AAE_NXZ@@Z 10047760 f i libucrtd:output.obj
 0001:00046790       ??$extract_argument_from_va_list@PAUansi_string@?1??type_case_Z@?$output_processor@_WV?$stream_output_adapter@_W@__crt_stdio_output@@V?$standard_base@_WV?$stream_output_adapter@_W@__crt_stdio_output@@@2@@__crt_stdio_output@@AAE_NXZ@PAU1?1??234@AAE_NXZ@@?$standard_base@_WV?$stream_output_adapter@_W@__crt_stdio_output@@@__crt_stdio_output@@IAE_NAAPAUansi_string@?1??type_case_Z@?$output_processor@_WV?$stream_output_adapter@_W@__crt_stdio_output@@V?$standard_base@_WV?$stream_output_adapter@_W@__crt_stdio_output@@@2@@1@AAE_NXZ@@Z 10047790 f i libucrtd:output.obj
 0001:000467c0       ??$extract_argument_from_va_list@PAUansi_string@?1??type_case_Z@?$output_processor@_WV?$string_output_adapter@_W@__crt_stdio_output@@V?$format_validation_base@_WV?$string_output_adapter@_W@__crt_stdio_output@@@2@@__crt_stdio_output@@AAE_NXZ@PAU1?1??234@AAE_NXZ@@?$standard_base@_WV?$string_output_adapter@_W@__crt_stdio_output@@@__crt_stdio_output@@IAE_NAAPAUansi_string@?1??type_case_Z@?$output_processor@_WV?$string_output_adapter@_W@__crt_stdio_output@@V?$format_validation_base@_WV?$string_output_adapter@_W@__crt_stdio_output@@@2@@1@AAE_NXZ@@Z 100477c0 f i libucrtd:output.obj
 0001:000467f0       ??$extract_argument_from_va_list@PAUansi_string@?1??type_case_Z@?$output_processor@_WV?$string_output_adapter@_W@__crt_stdio_output@@V?$positional_parameter_base@_WV?$string_output_adapter@_W@__crt_stdio_output@@@2@@__crt_stdio_output@@AAE_NXZ@PAU1?1??234@AAE_NXZ@@?$positional_parameter_base@_WV?$string_output_adapter@_W@__crt_stdio_output@@@__crt_stdio_output@@IAE_NAAPAUansi_string@?1??type_case_Z@?$output_processor@_WV?$string_output_adapter@_W@__crt_stdio_output@@V?$positional_parameter_base@_WV?$string_output_adapter@_W@__crt_stdio_output@@@2@@1@AAE_NXZ@@Z 100477f0 f i libucrtd:output.obj
 0001:00046950       ??$extract_argument_from_va_list@PAUansi_string@?1??type_case_Z@?$output_processor@_WV?$string_output_adapter@_W@__crt_stdio_output@@V?$positional_parameter_base@_WV?$string_output_adapter@_W@__crt_stdio_output@@@2@@__crt_stdio_output@@AAE_NXZ@PAU1?1??234@AAE_NXZ@@?$standard_base@_WV?$string_output_adapter@_W@__crt_stdio_output@@@__crt_stdio_output@@IAE_NAAPAUansi_string@?1??type_case_Z@?$output_processor@_WV?$string_output_adapter@_W@__crt_stdio_output@@V?$positional_parameter_base@_WV?$string_output_adapter@_W@__crt_stdio_output@@@2@@1@AAE_NXZ@@Z 10047950 f i libucrtd:output.obj
 0001:00046980       ??$extract_argument_from_va_list@PAUansi_string@?1??type_case_Z@?$output_processor@_WV?$string_output_adapter@_W@__crt_stdio_output@@V?$standard_base@_WV?$string_output_adapter@_W@__crt_stdio_output@@@2@@__crt_stdio_output@@AAE_NXZ@PAU1?1??234@AAE_NXZ@@?$standard_base@_WV?$string_output_adapter@_W@__crt_stdio_output@@@__crt_stdio_output@@IAE_NAAPAUansi_string@?1??type_case_Z@?$output_processor@_WV?$string_output_adapter@_W@__crt_stdio_output@@V?$standard_base@_WV?$string_output_adapter@_W@__crt_stdio_output@@@2@@1@AAE_NXZ@@Z 10047980 f i libucrtd:output.obj
 0001:000469b0       ??$extract_argument_from_va_list@PAXPAX@?$positional_parameter_base@DV?$stream_output_adapter@D@__crt_stdio_output@@@__crt_stdio_output@@IAE_NAAPAX@Z 100479b0 f i libucrtd:output.obj
 0001:00046b10       ??$extract_argument_from_va_list@PAXPAX@?$positional_parameter_base@DV?$string_output_adapter@D@__crt_stdio_output@@@__crt_stdio_output@@IAE_NAAPAX@Z 10047b10 f i libucrtd:output.obj
 0001:00046c70       ??$extract_argument_from_va_list@PAXPAX@?$positional_parameter_base@_WV?$stream_output_adapter@_W@__crt_stdio_output@@@__crt_stdio_output@@IAE_NAAPAX@Z 10047c70 f i libucrtd:output.obj
 0001:00046dd0       ??$extract_argument_from_va_list@PAXPAX@?$positional_parameter_base@_WV?$string_output_adapter@_W@__crt_stdio_output@@@__crt_stdio_output@@IAE_NAAPAX@Z 10047dd0 f i libucrtd:output.obj
 0001:00046f30       ??$extract_argument_from_va_list@PAXPAX@?$standard_base@DV?$stream_output_adapter@D@__crt_stdio_output@@@__crt_stdio_output@@IAE_NAAPAX@Z 10047f30 f i libucrtd:output.obj
 0001:00046f60       ??$extract_argument_from_va_list@PAXPAX@?$standard_base@DV?$string_output_adapter@D@__crt_stdio_output@@@__crt_stdio_output@@IAE_NAAPAX@Z 10047f60 f i libucrtd:output.obj
 0001:00046f90       ??$extract_argument_from_va_list@PAXPAX@?$standard_base@_WV?$stream_output_adapter@_W@__crt_stdio_output@@@__crt_stdio_output@@IAE_NAAPAX@Z 10047f90 f i libucrtd:output.obj
 0001:00046fc0       ??$extract_argument_from_va_list@PAXPAX@?$standard_base@_WV?$string_output_adapter@_W@__crt_stdio_output@@@__crt_stdio_output@@IAE_NAAPAX@Z 10047fc0 f i libucrtd:output.obj
 0001:00046ff0       ??$extract_argument_from_va_list@U_CRT_DOUBLE@@U1@@?$positional_parameter_base@DV?$stream_output_adapter@D@__crt_stdio_output@@@__crt_stdio_output@@IAE_NAAU_CRT_DOUBLE@@@Z 10047ff0 f i libucrtd:output.obj
 0001:00047180       ??$extract_argument_from_va_list@U_CRT_DOUBLE@@U1@@?$positional_parameter_base@DV?$string_output_adapter@D@__crt_stdio_output@@@__crt_stdio_output@@IAE_NAAU_CRT_DOUBLE@@@Z 10048180 f i libucrtd:output.obj
 0001:00047310       ??$extract_argument_from_va_list@U_CRT_DOUBLE@@U1@@?$positional_parameter_base@_WV?$stream_output_adapter@_W@__crt_stdio_output@@@__crt_stdio_output@@IAE_NAAU_CRT_DOUBLE@@@Z 10048310 f i libucrtd:output.obj
 0001:000474a0       ??$extract_argument_from_va_list@U_CRT_DOUBLE@@U1@@?$positional_parameter_base@_WV?$string_output_adapter@_W@__crt_stdio_output@@@__crt_stdio_output@@IAE_NAAU_CRT_DOUBLE@@@Z 100484a0 f i libucrtd:output.obj
 0001:00047630       ??$extract_argument_from_va_list@U_CRT_DOUBLE@@U1@@?$standard_base@DV?$stream_output_adapter@D@__crt_stdio_output@@@__crt_stdio_output@@IAE_NAAU_CRT_DOUBLE@@@Z 10048630 f i libucrtd:output.obj
 0001:00047680       ??$extract_argument_from_va_list@U_CRT_DOUBLE@@U1@@?$standard_base@DV?$string_output_adapter@D@__crt_stdio_output@@@__crt_stdio_output@@IAE_NAAU_CRT_DOUBLE@@@Z 10048680 f i libucrtd:output.obj
 0001:000476d0       ??$extract_argument_from_va_list@U_CRT_DOUBLE@@U1@@?$standard_base@_WV?$stream_output_adapter@_W@__crt_stdio_output@@@__crt_stdio_output@@IAE_NAAU_CRT_DOUBLE@@@Z 100486d0 f i libucrtd:output.obj
 0001:00047720       ??$extract_argument_from_va_list@U_CRT_DOUBLE@@U1@@?$standard_base@_WV?$string_output_adapter@_W@__crt_stdio_output@@@__crt_stdio_output@@IAE_NAAU_CRT_DOUBLE@@@Z 10048720 f i libucrtd:output.obj
 0001:00047770       ??$extract_argument_from_va_list@_J_J@?$positional_parameter_base@DV?$stream_output_adapter@D@__crt_stdio_output@@@__crt_stdio_output@@IAE_NAA_J@Z 10048770 f i libucrtd:output.obj
 0001:000478d0       ??$extract_argument_from_va_list@_J_J@?$positional_parameter_base@DV?$string_output_adapter@D@__crt_stdio_output@@@__crt_stdio_output@@IAE_NAA_J@Z 100488d0 f i libucrtd:output.obj
 0001:00047a30       ??$extract_argument_from_va_list@_J_J@?$positional_parameter_base@_WV?$stream_output_adapter@_W@__crt_stdio_output@@@__crt_stdio_output@@IAE_NAA_J@Z 10048a30 f i libucrtd:output.obj
 0001:00047b90       ??$extract_argument_from_va_list@_J_J@?$positional_parameter_base@_WV?$string_output_adapter@_W@__crt_stdio_output@@@__crt_stdio_output@@IAE_NAA_J@Z 10048b90 f i libucrtd:output.obj
 0001:00047cf0       ??$extract_argument_from_va_list@_J_J@?$standard_base@DV?$stream_output_adapter@D@__crt_stdio_output@@@__crt_stdio_output@@IAE_NAA_J@Z 10048cf0 f i libucrtd:output.obj
 0001:00047d20       ??$extract_argument_from_va_list@_J_J@?$standard_base@DV?$string_output_adapter@D@__crt_stdio_output@@@__crt_stdio_output@@IAE_NAA_J@Z 10048d20 f i libucrtd:output.obj
 0001:00047d50       ??$extract_argument_from_va_list@_J_J@?$standard_base@_WV?$stream_output_adapter@_W@__crt_stdio_output@@@__crt_stdio_output@@IAE_NAA_J@Z 10048d50 f i libucrtd:output.obj
 0001:00047d80       ??$extract_argument_from_va_list@_J_J@?$standard_base@_WV?$string_output_adapter@_W@__crt_stdio_output@@@__crt_stdio_output@@IAE_NAA_J@Z 10048d80 f i libucrtd:output.obj
 0001:00047db0       ??$extract_argument_from_va_list@_K_J@?$positional_parameter_base@DV?$stream_output_adapter@D@__crt_stdio_output@@@__crt_stdio_output@@IAE_NAA_J@Z 10048db0 f i libucrtd:output.obj
 0001:00047f10       ??$extract_argument_from_va_list@_K_J@?$positional_parameter_base@DV?$string_output_adapter@D@__crt_stdio_output@@@__crt_stdio_output@@IAE_NAA_J@Z 10048f10 f i libucrtd:output.obj
 0001:00048070       ??$extract_argument_from_va_list@_K_J@?$positional_parameter_base@_WV?$stream_output_adapter@_W@__crt_stdio_output@@@__crt_stdio_output@@IAE_NAA_J@Z 10049070 f i libucrtd:output.obj
 0001:000481d0       ??$extract_argument_from_va_list@_K_J@?$positional_parameter_base@_WV?$string_output_adapter@_W@__crt_stdio_output@@@__crt_stdio_output@@IAE_NAA_J@Z 100491d0 f i libucrtd:output.obj
 0001:00048330       ??$extract_argument_from_va_list@_K_J@?$standard_base@DV?$stream_output_adapter@D@__crt_stdio_output@@@__crt_stdio_output@@IAE_NAA_J@Z 10049330 f i libucrtd:output.obj
 0001:00048360       ??$extract_argument_from_va_list@_K_J@?$standard_base@DV?$string_output_adapter@D@__crt_stdio_output@@@__crt_stdio_output@@IAE_NAA_J@Z 10049360 f i libucrtd:output.obj
 0001:00048390       ??$extract_argument_from_va_list@_K_J@?$standard_base@_WV?$stream_output_adapter@_W@__crt_stdio_output@@@__crt_stdio_output@@IAE_NAA_J@Z 10049390 f i libucrtd:output.obj
 0001:000483c0       ??$extract_argument_from_va_list@_K_J@?$standard_base@_WV?$string_output_adapter@_W@__crt_stdio_output@@@__crt_stdio_output@@IAE_NAA_J@Z 100493c0 f i libucrtd:output.obj
 0001:000483f0       ??$extract_argument_from_va_list@_W_W@?$positional_parameter_base@DV?$stream_output_adapter@D@__crt_stdio_output@@@__crt_stdio_output@@IAE_NAA_W@Z 100493f0 f i libucrtd:output.obj
 0001:00048550       ??$extract_argument_from_va_list@_W_W@?$positional_parameter_base@DV?$string_output_adapter@D@__crt_stdio_output@@@__crt_stdio_output@@IAE_NAA_W@Z 10049550 f i libucrtd:output.obj
 0001:000486b0       ??$extract_argument_from_va_list@_W_W@?$positional_parameter_base@_WV?$stream_output_adapter@_W@__crt_stdio_output@@@__crt_stdio_output@@IAE_NAA_W@Z 100496b0 f i libucrtd:output.obj
 0001:00048810       ??$extract_argument_from_va_list@_W_W@?$positional_parameter_base@_WV?$string_output_adapter@_W@__crt_stdio_output@@@__crt_stdio_output@@IAE_NAA_W@Z 10049810 f i libucrtd:output.obj
 0001:00048970       ??$extract_argument_from_va_list@_W_W@?$standard_base@DV?$stream_output_adapter@D@__crt_stdio_output@@@__crt_stdio_output@@IAE_NAA_W@Z 10049970 f i libucrtd:output.obj
 0001:000489a0       ??$extract_argument_from_va_list@_W_W@?$standard_base@DV?$string_output_adapter@D@__crt_stdio_output@@@__crt_stdio_output@@IAE_NAA_W@Z 100499a0 f i libucrtd:output.obj
 0001:000489d0       ??$extract_argument_from_va_list@_W_W@?$standard_base@_WV?$stream_output_adapter@_W@__crt_stdio_output@@@__crt_stdio_output@@IAE_NAA_W@Z 100499d0 f i libucrtd:output.obj
 0001:00048a00       ??$extract_argument_from_va_list@_W_W@?$standard_base@_WV?$string_output_adapter@_W@__crt_stdio_output@@@__crt_stdio_output@@IAE_NAA_W@Z 10049a00 f i libucrtd:output.obj
 0001:00048a30       ??$get_parameter_type@D@?$positional_parameter_base@DV?$stream_output_adapter@D@__crt_stdio_output@@@__crt_stdio_output@@CA?AW4parameter_type@01@PAD@Z 10049a30 f i libucrtd:output.obj
 0001:00048a40       ??$get_parameter_type@D@?$positional_parameter_base@DV?$string_output_adapter@D@__crt_stdio_output@@@__crt_stdio_output@@CA?AW4parameter_type@01@PAD@Z 10049a40 f i libucrtd:output.obj
 0001:00048a50       ??$get_parameter_type@D@?$positional_parameter_base@_WV?$stream_output_adapter@_W@__crt_stdio_output@@@__crt_stdio_output@@CA?AW4parameter_type@01@PAD@Z 10049a50 f i libucrtd:output.obj
 0001:00048a60       ??$get_parameter_type@D@?$positional_parameter_base@_WV?$string_output_adapter@_W@__crt_stdio_output@@@__crt_stdio_output@@CA?AW4parameter_type@01@PAD@Z 10049a60 f i libucrtd:output.obj
 0001:00048a70       ??$get_parameter_type@Uansi_string@?1??type_case_Z@?$output_processor@DV?$stream_output_adapter@D@__crt_stdio_output@@V?$positional_parameter_base@DV?$stream_output_adapter@D@__crt_stdio_output@@@2@@__crt_stdio_output@@AAE_NXZ@@?$positional_parameter_base@DV?$stream_output_adapter@D@__crt_stdio_output@@@__crt_stdio_output@@CA?AW4parameter_type@01@PAUansi_string@?1??type_case_Z@?$output_processor@DV?$stream_output_adapter@D@__crt_stdio_output@@V?$positional_parameter_base@DV?$stream_output_adapter@D@__crt_stdio_output@@@2@@1@AAE_NXZ@@Z 10049a70 f i libucrtd:output.obj
 0001:00048a80       ??$get_parameter_type@Uansi_string@?1??type_case_Z@?$output_processor@DV?$string_output_adapter@D@__crt_stdio_output@@V?$positional_parameter_base@DV?$string_output_adapter@D@__crt_stdio_output@@@2@@__crt_stdio_output@@AAE_NXZ@@?$positional_parameter_base@DV?$string_output_adapter@D@__crt_stdio_output@@@__crt_stdio_output@@CA?AW4parameter_type@01@PAUansi_string@?1??type_case_Z@?$output_processor@DV?$string_output_adapter@D@__crt_stdio_output@@V?$positional_parameter_base@DV?$string_output_adapter@D@__crt_stdio_output@@@2@@1@AAE_NXZ@@Z 10049a80 f i libucrtd:output.obj
 0001:00048a90       ??$get_parameter_type@Uansi_string@?1??type_case_Z@?$output_processor@_WV?$stream_output_adapter@_W@__crt_stdio_output@@V?$positional_parameter_base@_WV?$stream_output_adapter@_W@__crt_stdio_output@@@2@@__crt_stdio_output@@AAE_NXZ@@?$positional_parameter_base@_WV?$stream_output_adapter@_W@__crt_stdio_output@@@__crt_stdio_output@@CA?AW4parameter_type@01@PAUansi_string@?1??type_case_Z@?$output_processor@_WV?$stream_output_adapter@_W@__crt_stdio_output@@V?$positional_parameter_base@_WV?$stream_output_adapter@_W@__crt_stdio_output@@@2@@1@AAE_NXZ@@Z 10049a90 f i libucrtd:output.obj
 0001:00048aa0       ??$get_parameter_type@Uansi_string@?1??type_case_Z@?$output_processor@_WV?$string_output_adapter@_W@__crt_stdio_output@@V?$positional_parameter_base@_WV?$string_output_adapter@_W@__crt_stdio_output@@@2@@__crt_stdio_output@@AAE_NXZ@@?$positional_parameter_base@_WV?$string_output_adapter@_W@__crt_stdio_output@@@__crt_stdio_output@@CA?AW4parameter_type@01@PAUansi_string@?1??type_case_Z@?$output_processor@_WV?$string_output_adapter@_W@__crt_stdio_output@@V?$positional_parameter_base@_WV?$string_output_adapter@_W@__crt_stdio_output@@@2@@1@AAE_NXZ@@Z 10049aa0 f i libucrtd:output.obj
 0001:00048ab0       ??$get_parameter_type@X@?$positional_parameter_base@DV?$stream_output_adapter@D@__crt_stdio_output@@@__crt_stdio_output@@CA?AW4parameter_type@01@PAX@Z 10049ab0 f i libucrtd:output.obj
 0001:00048ac0       ??$get_parameter_type@X@?$positional_parameter_base@DV?$string_output_adapter@D@__crt_stdio_output@@@__crt_stdio_output@@CA?AW4parameter_type@01@PAX@Z 10049ac0 f i libucrtd:output.obj
 0001:00048ad0       ??$get_parameter_type@X@?$positional_parameter_base@_WV?$stream_output_adapter@_W@__crt_stdio_output@@@__crt_stdio_output@@CA?AW4parameter_type@01@PAX@Z 10049ad0 f i libucrtd:output.obj
 0001:00048ae0       ??$get_parameter_type@X@?$positional_parameter_base@_WV?$string_output_adapter@_W@__crt_stdio_output@@@__crt_stdio_output@@CA?AW4parameter_type@01@PAX@Z 10049ae0 f i libucrtd:output.obj
 0001:00048af0       ??$is_character_specifier@D@?$positional_parameter_base@DV?$stream_output_adapter@D@__crt_stdio_output@@@__crt_stdio_output@@CA_ND@Z 10049af0 f i libucrtd:output.obj
 0001:00048b20       ??$is_character_specifier@D@?$positional_parameter_base@DV?$string_output_adapter@D@__crt_stdio_output@@@__crt_stdio_output@@CA_ND@Z 10049b20 f i libucrtd:output.obj
 0001:00048b50       ??$is_character_specifier@_W@?$positional_parameter_base@_WV?$stream_output_adapter@_W@__crt_stdio_output@@@__crt_stdio_output@@CA_N_W@Z 10049b50 f i libucrtd:output.obj
 0001:00048b80       ??$is_character_specifier@_W@?$positional_parameter_base@_WV?$string_output_adapter@_W@__crt_stdio_output@@@__crt_stdio_output@@CA_N_W@Z 10049b80 f i libucrtd:output.obj
 0001:00048bb0       ??$is_integral_specifier@D@?$positional_parameter_base@DV?$stream_output_adapter@D@__crt_stdio_output@@@__crt_stdio_output@@CA_ND@Z 10049bb0 f i libucrtd:output.obj
 0001:00048c10       ??$is_integral_specifier@D@?$positional_parameter_base@DV?$string_output_adapter@D@__crt_stdio_output@@@__crt_stdio_output@@CA_ND@Z 10049c10 f i libucrtd:output.obj
 0001:00048c70       ??$is_integral_specifier@_W@?$positional_parameter_base@_WV?$stream_output_adapter@_W@__crt_stdio_output@@@__crt_stdio_output@@CA_N_W@Z 10049c70 f i libucrtd:output.obj
 0001:00048cd0       ??$is_integral_specifier@_W@?$positional_parameter_base@_WV?$string_output_adapter@_W@__crt_stdio_output@@@__crt_stdio_output@@CA_N_W@Z 10049cd0 f i libucrtd:output.obj
 0001:00048d30       ??$is_overflow_condition@K@__crt_strtox@@YA_NIK@Z 10049d30 f i libucrtd:output.obj
 0001:00048d90       ??$is_pointer_specifier@D@?$positional_parameter_base@DV?$stream_output_adapter@D@__crt_stdio_output@@@__crt_stdio_output@@CA_ND@Z 10049d90 f i libucrtd:output.obj
 0001:00048dc0       ??$is_pointer_specifier@D@?$positional_parameter_base@DV?$string_output_adapter@D@__crt_stdio_output@@@__crt_stdio_output@@CA_ND@Z 10049dc0 f i libucrtd:output.obj
 0001:00048df0       ??$is_pointer_specifier@_W@?$positional_parameter_base@_WV?$stream_output_adapter@_W@__crt_stdio_output@@@__crt_stdio_output@@CA_N_W@Z 10049df0 f i libucrtd:output.obj
 0001:00048e20       ??$is_pointer_specifier@_W@?$positional_parameter_base@_WV?$string_output_adapter@_W@__crt_stdio_output@@@__crt_stdio_output@@CA_N_W@Z 10049e20 f i libucrtd:output.obj
 0001:00048e50       ??$is_string_specifier@D@?$positional_parameter_base@DV?$stream_output_adapter@D@__crt_stdio_output@@@__crt_stdio_output@@CA_ND@Z 10049e50 f i libucrtd:output.obj
 0001:00048e80       ??$is_string_specifier@D@?$positional_parameter_base@DV?$string_output_adapter@D@__crt_stdio_output@@@__crt_stdio_output@@CA_ND@Z 10049e80 f i libucrtd:output.obj
 0001:00048eb0       ??$is_string_specifier@_W@?$positional_parameter_base@_WV?$stream_output_adapter@_W@__crt_stdio_output@@@__crt_stdio_output@@CA_N_W@Z 10049eb0 f i libucrtd:output.obj
 0001:00048ee0       ??$is_string_specifier@_W@?$positional_parameter_base@_WV?$string_output_adapter@_W@__crt_stdio_output@@@__crt_stdio_output@@CA_N_W@Z 10049ee0 f i libucrtd:output.obj
 0001:00048f10       ??$is_wide_character_specifier@D@__crt_stdio_output@@YA_N_KDW4length_modifier@0@@Z 10049f10 f i libucrtd:output.obj
 0001:00048f90       ??$is_wide_character_specifier@_W@__crt_stdio_output@@YA_N_K_WW4length_modifier@0@@Z 10049f90 f i libucrtd:output.obj
 0001:00049050       ??$make_c_string_character_source@DPAPAD@__crt_strtox@@YA?AV?$c_string_character_source@D@0@QBDQAPAD@Z 1004a050 f i libucrtd:output.obj
 0001:00049070       ??$make_c_string_character_source@_WPAPA_W@__crt_strtox@@YA?AV?$c_string_character_source@_W@0@QB_WQAPA_W@Z 1004a070 f i libucrtd:output.obj
 0001:00049090       ??$parse_integer@KV?$c_string_character_source@D@__crt_strtox@@$0A@@__crt_strtox@@YAKAAV__crt_cached_ptd_host@@V?$c_string_character_source@D@0@H_N@Z 1004a090 f i libucrtd:output.obj
 0001:000493c0       ??$parse_integer@KV?$c_string_character_source@_W@__crt_strtox@@$0A@@__crt_strtox@@YAKAAV__crt_cached_ptd_host@@V?$c_string_character_source@_W@0@H_N@Z 1004a3c0 f i libucrtd:output.obj
 0001:00049700       ??$peek_va_arg@C@__crt_stdio_output@@YACPAD@Z 1004a700 f i libucrtd:output.obj
 0001:00049720       ??$peek_va_arg@E@__crt_stdio_output@@YAEPAD@Z 1004a720 f i libucrtd:output.obj
 0001:00049740       ??$peek_va_arg@F@__crt_stdio_output@@YAFPAD@Z 1004a740 f i libucrtd:output.obj
 0001:00049760       ??$peek_va_arg@G@__crt_stdio_output@@YAGPAD@Z 1004a760 f i libucrtd:output.obj
 0001:00049780       ??$peek_va_arg@H@__crt_stdio_output@@YAHPAD@Z 1004a780 f i libucrtd:output.obj
 0001:000497a0       ??$peek_va_arg@I@__crt_stdio_output@@YAIPAD@Z 1004a7a0 f i libucrtd:output.obj
 0001:000497c0       ??$peek_va_arg@PAD@__crt_stdio_output@@YAPADPAD@Z 1004a7c0 f i libucrtd:output.obj
 0001:000497e0       ??$peek_va_arg@PAUansi_string@?1??type_case_Z@?$output_processor@DV?$stream_output_adapter@D@__crt_stdio_output@@V?$positional_parameter_base@DV?$stream_output_adapter@D@__crt_stdio_output@@@2@@__crt_stdio_output@@AAE_NXZ@@__crt_stdio_output@@YAPAUansi_string@?1??type_case_Z@?$output_processor@DV?$stream_output_adapter@D@__crt_stdio_output@@V?$positional_parameter_base@DV?$stream_output_adapter@D@__crt_stdio_output@@@2@@0@AAE_NXZ@PAD@Z 1004a7e0 f i libucrtd:output.obj
 0001:00049800       ??$peek_va_arg@PAUansi_string@?1??type_case_Z@?$output_processor@DV?$string_output_adapter@D@__crt_stdio_output@@V?$positional_parameter_base@DV?$string_output_adapter@D@__crt_stdio_output@@@2@@__crt_stdio_output@@AAE_NXZ@@__crt_stdio_output@@YAPAUansi_string@?1??type_case_Z@?$output_processor@DV?$string_output_adapter@D@__crt_stdio_output@@V?$positional_parameter_base@DV?$string_output_adapter@D@__crt_stdio_output@@@2@@0@AAE_NXZ@PAD@Z 1004a800 f i libucrtd:output.obj
 0001:00049820       ??$peek_va_arg@PAUansi_string@?1??type_case_Z@?$output_processor@_WV?$stream_output_adapter@_W@__crt_stdio_output@@V?$positional_parameter_base@_WV?$stream_output_adapter@_W@__crt_stdio_output@@@2@@__crt_stdio_output@@AAE_NXZ@@__crt_stdio_output@@YAPAUansi_string@?1??type_case_Z@?$output_processor@_WV?$stream_output_adapter@_W@__crt_stdio_output@@V?$positional_parameter_base@_WV?$stream_output_adapter@_W@__crt_stdio_output@@@2@@0@AAE_NXZ@PAD@Z 1004a820 f i libucrtd:output.obj
 0001:00049840       ??$peek_va_arg@PAUansi_string@?1??type_case_Z@?$output_processor@_WV?$string_output_adapter@_W@__crt_stdio_output@@V?$positional_parameter_base@_WV?$string_output_adapter@_W@__crt_stdio_output@@@2@@__crt_stdio_output@@AAE_NXZ@@__crt_stdio_output@@YAPAUansi_string@?1??type_case_Z@?$output_processor@_WV?$string_output_adapter@_W@__crt_stdio_output@@V?$positional_parameter_base@_WV?$string_output_adapter@_W@__crt_stdio_output@@@2@@0@AAE_NXZ@PAD@Z 1004a840 f i libucrtd:output.obj
 0001:00049860       ??$peek_va_arg@PAX@__crt_stdio_output@@YAPAXPAD@Z 1004a860 f i libucrtd:output.obj
 0001:00049880       ??$peek_va_arg@U_CRT_DOUBLE@@@__crt_stdio_output@@YA?AU_CRT_DOUBLE@@PAD@Z 1004a880 f i libucrtd:output.obj
 0001:000498a0       ??$peek_va_arg@_J@__crt_stdio_output@@YA_JPAD@Z 1004a8a0 f i libucrtd:output.obj
 0001:000498c0       ??$peek_va_arg@_K@__crt_stdio_output@@YA_KPAD@Z 1004a8c0 f i libucrtd:output.obj
 0001:000498e0       ??$peek_va_arg@_W@__crt_stdio_output@@YA_WPAD@Z 1004a8e0 f i libucrtd:output.obj
 0001:00049900       ??$puttc_nolock_internal@ABDPAU_iobuf@@AAV__crt_cached_ptd_host@@@?$__crt_char_traits@D@@SAHABD$$QAPAU_iobuf@@AAV__crt_cached_ptd_host@@@Z 1004a900 f i libucrtd:output.obj
 0001:00049920       ??$puttc_nolock_internal@AB_WPAU_iobuf@@AAV__crt_cached_ptd_host@@@?$__crt_char_traits@_W@@SAGAB_W$$QAPAU_iobuf@@AAV__crt_cached_ptd_host@@@Z 1004a920 f i libucrtd:output.obj
 0001:00049940       ??$read_va_arg@C@__crt_stdio_output@@YACAAPAD@Z 1004a940 f i libucrtd:output.obj
 0001:00049960       ??$read_va_arg@E@__crt_stdio_output@@YAEAAPAD@Z 1004a960 f i libucrtd:output.obj
 0001:00049980       ??$read_va_arg@F@__crt_stdio_output@@YAFAAPAD@Z 1004a980 f i libucrtd:output.obj
 0001:000499a0       ??$read_va_arg@G@__crt_stdio_output@@YAGAAPAD@Z 1004a9a0 f i libucrtd:output.obj
 0001:000499c0       ??$read_va_arg@H@__crt_stdio_output@@YAHAAPAD@Z 1004a9c0 f i libucrtd:output.obj
 0001:000499e0       ??$read_va_arg@I@__crt_stdio_output@@YAIAAPAD@Z 1004a9e0 f i libucrtd:output.obj
 0001:00049a00       ??$read_va_arg@PAD@__crt_stdio_output@@YAPADAAPAD@Z 1004aa00 f i libucrtd:output.obj
 0001:00049a20       ??$read_va_arg@PAUansi_string@?1??type_case_Z@?$output_processor@DV?$stream_output_adapter@D@__crt_stdio_output@@V?$format_validation_base@DV?$stream_output_adapter@D@__crt_stdio_output@@@2@@__crt_stdio_output@@AAE_NXZ@@__crt_stdio_output@@YAPAUansi_string@?1??type_case_Z@?$output_processor@DV?$stream_output_adapter@D@__crt_stdio_output@@V?$format_validation_base@DV?$stream_output_adapter@D@__crt_stdio_output@@@2@@0@AAE_NXZ@AAPAD@Z 1004aa20 f i libucrtd:output.obj
 0001:00049a40       ??$read_va_arg@PAUansi_string@?1??type_case_Z@?$output_processor@DV?$stream_output_adapter@D@__crt_stdio_output@@V?$positional_parameter_base@DV?$stream_output_adapter@D@__crt_stdio_output@@@2@@__crt_stdio_output@@AAE_NXZ@@__crt_stdio_output@@YAPAUansi_string@?1??type_case_Z@?$output_processor@DV?$stream_output_adapter@D@__crt_stdio_output@@V?$positional_parameter_base@DV?$stream_output_adapter@D@__crt_stdio_output@@@2@@0@AAE_NXZ@AAPAD@Z 1004aa40 f i libucrtd:output.obj
 0001:00049a60       ??$read_va_arg@PAUansi_string@?1??type_case_Z@?$output_processor@DV?$stream_output_adapter@D@__crt_stdio_output@@V?$standard_base@DV?$stream_output_adapter@D@__crt_stdio_output@@@2@@__crt_stdio_output@@AAE_NXZ@@__crt_stdio_output@@YAPAUansi_string@?1??type_case_Z@?$output_processor@DV?$stream_output_adapter@D@__crt_stdio_output@@V?$standard_base@DV?$stream_output_adapter@D@__crt_stdio_output@@@2@@0@AAE_NXZ@AAPAD@Z 1004aa60 f i libucrtd:output.obj
 0001:00049a80       ??$read_va_arg@PAUansi_string@?1??type_case_Z@?$output_processor@DV?$string_output_adapter@D@__crt_stdio_output@@V?$format_validation_base@DV?$string_output_adapter@D@__crt_stdio_output@@@2@@__crt_stdio_output@@AAE_NXZ@@__crt_stdio_output@@YAPAUansi_string@?1??type_case_Z@?$output_processor@DV?$string_output_adapter@D@__crt_stdio_output@@V?$format_validation_base@DV?$string_output_adapter@D@__crt_stdio_output@@@2@@0@AAE_NXZ@AAPAD@Z 1004aa80 f i libucrtd:output.obj
 0001:00049aa0       ??$read_va_arg@PAUansi_string@?1??type_case_Z@?$output_processor@DV?$string_output_adapter@D@__crt_stdio_output@@V?$positional_parameter_base@DV?$string_output_adapter@D@__crt_stdio_output@@@2@@__crt_stdio_output@@AAE_NXZ@@__crt_stdio_output@@YAPAUansi_string@?1??type_case_Z@?$output_processor@DV?$string_output_adapter@D@__crt_stdio_output@@V?$positional_parameter_base@DV?$string_output_adapter@D@__crt_stdio_output@@@2@@0@AAE_NXZ@AAPAD@Z 1004aaa0 f i libucrtd:output.obj
 0001:00049ac0       ??$read_va_arg@PAUansi_string@?1??type_case_Z@?$output_processor@DV?$string_output_adapter@D@__crt_stdio_output@@V?$standard_base@DV?$string_output_adapter@D@__crt_stdio_output@@@2@@__crt_stdio_output@@AAE_NXZ@@__crt_stdio_output@@YAPAUansi_string@?1??type_case_Z@?$output_processor@DV?$string_output_adapter@D@__crt_stdio_output@@V?$standard_base@DV?$string_output_adapter@D@__crt_stdio_output@@@2@@0@AAE_NXZ@AAPAD@Z 1004aac0 f i libucrtd:output.obj
 0001:00049ae0       ??$read_va_arg@PAUansi_string@?1??type_case_Z@?$output_processor@_WV?$stream_output_adapter@_W@__crt_stdio_output@@V?$format_validation_base@_WV?$stream_output_adapter@_W@__crt_stdio_output@@@2@@__crt_stdio_output@@AAE_NXZ@@__crt_stdio_output@@YAPAUansi_string@?1??type_case_Z@?$output_processor@_WV?$stream_output_adapter@_W@__crt_stdio_output@@V?$format_validation_base@_WV?$stream_output_adapter@_W@__crt_stdio_output@@@2@@0@AAE_NXZ@AAPAD@Z 1004aae0 f i libucrtd:output.obj
 0001:00049b00       ??$read_va_arg@PAUansi_string@?1??type_case_Z@?$output_processor@_WV?$stream_output_adapter@_W@__crt_stdio_output@@V?$positional_parameter_base@_WV?$stream_output_adapter@_W@__crt_stdio_output@@@2@@__crt_stdio_output@@AAE_NXZ@@__crt_stdio_output@@YAPAUansi_string@?1??type_case_Z@?$output_processor@_WV?$stream_output_adapter@_W@__crt_stdio_output@@V?$positional_parameter_base@_WV?$stream_output_adapter@_W@__crt_stdio_output@@@2@@0@AAE_NXZ@AAPAD@Z 1004ab00 f i libucrtd:output.obj
 0001:00049b20       ??$read_va_arg@PAUansi_string@?1??type_case_Z@?$output_processor@_WV?$stream_output_adapter@_W@__crt_stdio_output@@V?$standard_base@_WV?$stream_output_adapter@_W@__crt_stdio_output@@@2@@__crt_stdio_output@@AAE_NXZ@@__crt_stdio_output@@YAPAUansi_string@?1??type_case_Z@?$output_processor@_WV?$stream_output_adapter@_W@__crt_stdio_output@@V?$standard_base@_WV?$stream_output_adapter@_W@__crt_stdio_output@@@2@@0@AAE_NXZ@AAPAD@Z 1004ab20 f i libucrtd:output.obj
 0001:00049b40       ??$read_va_arg@PAUansi_string@?1??type_case_Z@?$output_processor@_WV?$string_output_adapter@_W@__crt_stdio_output@@V?$format_validation_base@_WV?$string_output_adapter@_W@__crt_stdio_output@@@2@@__crt_stdio_output@@AAE_NXZ@@__crt_stdio_output@@YAPAUansi_string@?1??type_case_Z@?$output_processor@_WV?$string_output_adapter@_W@__crt_stdio_output@@V?$format_validation_base@_WV?$string_output_adapter@_W@__crt_stdio_output@@@2@@0@AAE_NXZ@AAPAD@Z 1004ab40 f i libucrtd:output.obj
 0001:00049b60       ??$read_va_arg@PAUansi_string@?1??type_case_Z@?$output_processor@_WV?$string_output_adapter@_W@__crt_stdio_output@@V?$positional_parameter_base@_WV?$string_output_adapter@_W@__crt_stdio_output@@@2@@__crt_stdio_output@@AAE_NXZ@@__crt_stdio_output@@YAPAUansi_string@?1??type_case_Z@?$output_processor@_WV?$string_output_adapter@_W@__crt_stdio_output@@V?$positional_parameter_base@_WV?$string_output_adapter@_W@__crt_stdio_output@@@2@@0@AAE_NXZ@AAPAD@Z 1004ab60 f i libucrtd:output.obj
 0001:00049b80       ??$read_va_arg@PAUansi_string@?1??type_case_Z@?$output_processor@_WV?$string_output_adapter@_W@__crt_stdio_output@@V?$standard_base@_WV?$string_output_adapter@_W@__crt_stdio_output@@@2@@__crt_stdio_output@@AAE_NXZ@@__crt_stdio_output@@YAPAUansi_string@?1??type_case_Z@?$output_processor@_WV?$string_output_adapter@_W@__crt_stdio_output@@V?$standard_base@_WV?$string_output_adapter@_W@__crt_stdio_output@@@2@@0@AAE_NXZ@AAPAD@Z 1004ab80 f i libucrtd:output.obj
 0001:00049ba0       ??$read_va_arg@PAX@__crt_stdio_output@@YAPAXAAPAD@Z 1004aba0 f i libucrtd:output.obj
 0001:00049bc0       ??$read_va_arg@U_CRT_DOUBLE@@@__crt_stdio_output@@YA?AU_CRT_DOUBLE@@AAPAD@Z 1004abc0 f i libucrtd:output.obj
 0001:00049be0       ??$read_va_arg@_J@__crt_stdio_output@@YA_JAAPAD@Z 1004abe0 f i libucrtd:output.obj
 0001:00049c00       ??$read_va_arg@_K@__crt_stdio_output@@YA_KAAPAD@Z 1004ac00 f i libucrtd:output.obj
 0001:00049c20       ??$read_va_arg@_W@__crt_stdio_output@@YA_WAAPAD@Z 1004ac20 f i libucrtd:output.obj
 0001:00049c40       ??$scratch_count@D@formatting_buffer@__crt_stdio_output@@QBEIXZ 1004ac40 f i libucrtd:output.obj
 0001:00049c60       ??$scratch_data@D@formatting_buffer@__crt_stdio_output@@QAEPADXZ 1004ac60 f i libucrtd:output.obj
 0001:00049cb0       ??$type_case_integer@$07@?$output_processor@DV?$stream_output_adapter@D@__crt_stdio_output@@V?$format_validation_base@DV?$stream_output_adapter@D@__crt_stdio_output@@@2@@__crt_stdio_output@@AAE_N_N@Z 1004acb0 f i libucrtd:output.obj
 0001:0004a010       ??$type_case_integer@$07@?$output_processor@DV?$stream_output_adapter@D@__crt_stdio_output@@V?$positional_parameter_base@DV?$stream_output_adapter@D@__crt_stdio_output@@@2@@__crt_stdio_output@@AAE_N_N@Z 1004b010 f i libucrtd:output.obj
 0001:0004a370       ??$type_case_integer@$07@?$output_processor@DV?$stream_output_adapter@D@__crt_stdio_output@@V?$standard_base@DV?$stream_output_adapter@D@__crt_stdio_output@@@2@@__crt_stdio_output@@AAE_N_N@Z 1004b370 f i libucrtd:output.obj
 0001:0004a6d0       ??$type_case_integer@$07@?$output_processor@DV?$string_output_adapter@D@__crt_stdio_output@@V?$format_validation_base@DV?$string_output_adapter@D@__crt_stdio_output@@@2@@__crt_stdio_output@@AAE_N_N@Z 1004b6d0 f i libucrtd:output.obj
 0001:0004aa30       ??$type_case_integer@$07@?$output_processor@DV?$string_output_adapter@D@__crt_stdio_output@@V?$positional_parameter_base@DV?$string_output_adapter@D@__crt_stdio_output@@@2@@__crt_stdio_output@@AAE_N_N@Z 1004ba30 f i libucrtd:output.obj
 0001:0004ad90       ??$type_case_integer@$07@?$output_processor@DV?$string_output_adapter@D@__crt_stdio_output@@V?$standard_base@DV?$string_output_adapter@D@__crt_stdio_output@@@2@@__crt_stdio_output@@AAE_N_N@Z 1004bd90 f i libucrtd:output.obj
 0001:0004b0f0       ??$type_case_integer@$07@?$output_processor@_WV?$stream_output_adapter@_W@__crt_stdio_output@@V?$format_validation_base@_WV?$stream_output_adapter@_W@__crt_stdio_output@@@2@@__crt_stdio_output@@AAE_N_N@Z 1004c0f0 f i libucrtd:output.obj
 0001:0004b450       ??$type_case_integer@$07@?$output_processor@_WV?$stream_output_adapter@_W@__crt_stdio_output@@V?$positional_parameter_base@_WV?$stream_output_adapter@_W@__crt_stdio_output@@@2@@__crt_stdio_output@@AAE_N_N@Z 1004c450 f i libucrtd:output.obj
 0001:0004b7b0       ??$type_case_integer@$07@?$output_processor@_WV?$stream_output_adapter@_W@__crt_stdio_output@@V?$standard_base@_WV?$stream_output_adapter@_W@__crt_stdio_output@@@2@@__crt_stdio_output@@AAE_N_N@Z 1004c7b0 f i libucrtd:output.obj
 0001:0004bb10       ??$type_case_integer@$07@?$output_processor@_WV?$string_output_adapter@_W@__crt_stdio_output@@V?$format_validation_base@_WV?$string_output_adapter@_W@__crt_stdio_output@@@2@@__crt_stdio_output@@AAE_N_N@Z 1004cb10 f i libucrtd:output.obj
 0001:0004be70       ??$type_case_integer@$07@?$output_processor@_WV?$string_output_adapter@_W@__crt_stdio_output@@V?$positional_parameter_base@_WV?$string_output_adapter@_W@__crt_stdio_output@@@2@@__crt_stdio_output@@AAE_N_N@Z 1004ce70 f i libucrtd:output.obj
 0001:0004c1d0       ??$type_case_integer@$07@?$output_processor@_WV?$string_output_adapter@_W@__crt_stdio_output@@V?$standard_base@_WV?$string_output_adapter@_W@__crt_stdio_output@@@2@@__crt_stdio_output@@AAE_N_N@Z 1004d1d0 f i libucrtd:output.obj
 0001:0004c530       ??$type_case_integer@$09@?$output_processor@DV?$stream_output_adapter@D@__crt_stdio_output@@V?$format_validation_base@DV?$stream_output_adapter@D@__crt_stdio_output@@@2@@__crt_stdio_output@@AAE_N_N@Z 1004d530 f i libucrtd:output.obj
 0001:0004c890       ??$type_case_integer@$09@?$output_processor@DV?$stream_output_adapter@D@__crt_stdio_output@@V?$positional_parameter_base@DV?$stream_output_adapter@D@__crt_stdio_output@@@2@@__crt_stdio_output@@AAE_N_N@Z 1004d890 f i libucrtd:output.obj
 0001:0004cbf0       ??$type_case_integer@$09@?$output_processor@DV?$stream_output_adapter@D@__crt_stdio_output@@V?$standard_base@DV?$stream_output_adapter@D@__crt_stdio_output@@@2@@__crt_stdio_output@@AAE_N_N@Z 1004dbf0 f i libucrtd:output.obj
 0001:0004cf50       ??$type_case_integer@$09@?$output_processor@DV?$string_output_adapter@D@__crt_stdio_output@@V?$format_validation_base@DV?$string_output_adapter@D@__crt_stdio_output@@@2@@__crt_stdio_output@@AAE_N_N@Z 1004df50 f i libucrtd:output.obj
 0001:0004d2b0       ??$type_case_integer@$09@?$output_processor@DV?$string_output_adapter@D@__crt_stdio_output@@V?$positional_parameter_base@DV?$string_output_adapter@D@__crt_stdio_output@@@2@@__crt_stdio_output@@AAE_N_N@Z 1004e2b0 f i libucrtd:output.obj
 0001:0004d610       ??$type_case_integer@$09@?$output_processor@DV?$string_output_adapter@D@__crt_stdio_output@@V?$standard_base@DV?$string_output_adapter@D@__crt_stdio_output@@@2@@__crt_stdio_output@@AAE_N_N@Z 1004e610 f i libucrtd:output.obj
 0001:0004d970       ??$type_case_integer@$09@?$output_processor@_WV?$stream_output_adapter@_W@__crt_stdio_output@@V?$format_validation_base@_WV?$stream_output_adapter@_W@__crt_stdio_output@@@2@@__crt_stdio_output@@AAE_N_N@Z 1004e970 f i libucrtd:output.obj
 0001:0004dcd0       ??$type_case_integer@$09@?$output_processor@_WV?$stream_output_adapter@_W@__crt_stdio_output@@V?$positional_parameter_base@_WV?$stream_output_adapter@_W@__crt_stdio_output@@@2@@__crt_stdio_output@@AAE_N_N@Z 1004ecd0 f i libucrtd:output.obj
 0001:0004e030       ??$type_case_integer@$09@?$output_processor@_WV?$stream_output_adapter@_W@__crt_stdio_output@@V?$standard_base@_WV?$stream_output_adapter@_W@__crt_stdio_output@@@2@@__crt_stdio_output@@AAE_N_N@Z 1004f030 f i libucrtd:output.obj
 0001:0004e390       ??$type_case_integer@$09@?$output_processor@_WV?$string_output_adapter@_W@__crt_stdio_output@@V?$format_validation_base@_WV?$string_output_adapter@_W@__crt_stdio_output@@@2@@__crt_stdio_output@@AAE_N_N@Z 1004f390 f i libucrtd:output.obj
 0001:0004e6f0       ??$type_case_integer@$09@?$output_processor@_WV?$string_output_adapter@_W@__crt_stdio_output@@V?$positional_parameter_base@_WV?$string_output_adapter@_W@__crt_stdio_output@@@2@@__crt_stdio_output@@AAE_N_N@Z 1004f6f0 f i libucrtd:output.obj
 0001:0004ea50       ??$type_case_integer@$09@?$output_processor@_WV?$string_output_adapter@_W@__crt_stdio_output@@V?$standard_base@_WV?$string_output_adapter@_W@__crt_stdio_output@@@2@@__crt_stdio_output@@AAE_N_N@Z 1004fa50 f i libucrtd:output.obj
 0001:0004edb0       ??$type_case_integer@$0BA@@?$output_processor@DV?$stream_output_adapter@D@__crt_stdio_output@@V?$format_validation_base@DV?$stream_output_adapter@D@__crt_stdio_output@@@2@@__crt_stdio_output@@AAE_N_N@Z 1004fdb0 f i libucrtd:output.obj
 0001:0004f110       ??$type_case_integer@$0BA@@?$output_processor@DV?$stream_output_adapter@D@__crt_stdio_output@@V?$positional_parameter_base@DV?$stream_output_adapter@D@__crt_stdio_output@@@2@@__crt_stdio_output@@AAE_N_N@Z 10050110 f i libucrtd:output.obj
 0001:0004f470       ??$type_case_integer@$0BA@@?$output_processor@DV?$stream_output_adapter@D@__crt_stdio_output@@V?$standard_base@DV?$stream_output_adapter@D@__crt_stdio_output@@@2@@__crt_stdio_output@@AAE_N_N@Z 10050470 f i libucrtd:output.obj
 0001:0004f7d0       ??$type_case_integer@$0BA@@?$output_processor@DV?$string_output_adapter@D@__crt_stdio_output@@V?$format_validation_base@DV?$string_output_adapter@D@__crt_stdio_output@@@2@@__crt_stdio_output@@AAE_N_N@Z 100507d0 f i libucrtd:output.obj
 0001:0004fb30       ??$type_case_integer@$0BA@@?$output_processor@DV?$string_output_adapter@D@__crt_stdio_output@@V?$positional_parameter_base@DV?$string_output_adapter@D@__crt_stdio_output@@@2@@__crt_stdio_output@@AAE_N_N@Z 10050b30 f i libucrtd:output.obj
 0001:0004fe90       ??$type_case_integer@$0BA@@?$output_processor@DV?$string_output_adapter@D@__crt_stdio_output@@V?$standard_base@DV?$string_output_adapter@D@__crt_stdio_output@@@2@@__crt_stdio_output@@AAE_N_N@Z 10050e90 f i libucrtd:output.obj
 0001:000501f0       ??$type_case_integer@$0BA@@?$output_processor@_WV?$stream_output_adapter@_W@__crt_stdio_output@@V?$format_validation_base@_WV?$stream_output_adapter@_W@__crt_stdio_output@@@2@@__crt_stdio_output@@AAE_N_N@Z 100511f0 f i libucrtd:output.obj
 0001:00050550       ??$type_case_integer@$0BA@@?$output_processor@_WV?$stream_output_adapter@_W@__crt_stdio_output@@V?$positional_parameter_base@_WV?$stream_output_adapter@_W@__crt_stdio_output@@@2@@__crt_stdio_output@@AAE_N_N@Z 10051550 f i libucrtd:output.obj
 0001:000508b0       ??$type_case_integer@$0BA@@?$output_processor@_WV?$stream_output_adapter@_W@__crt_stdio_output@@V?$standard_base@_WV?$stream_output_adapter@_W@__crt_stdio_output@@@2@@__crt_stdio_output@@AAE_N_N@Z 100518b0 f i libucrtd:output.obj
 0001:00050c10       ??$type_case_integer@$0BA@@?$output_processor@_WV?$string_output_adapter@_W@__crt_stdio_output@@V?$format_validation_base@_WV?$string_output_adapter@_W@__crt_stdio_output@@@2@@__crt_stdio_output@@AAE_N_N@Z 10051c10 f i libucrtd:output.obj
 0001:00050f70       ??$type_case_integer@$0BA@@?$output_processor@_WV?$string_output_adapter@_W@__crt_stdio_output@@V?$positional_parameter_base@_WV?$string_output_adapter@_W@__crt_stdio_output@@@2@@__crt_stdio_output@@AAE_N_N@Z 10051f70 f i libucrtd:output.obj
 0001:000512d0       ??$type_case_integer@$0BA@@?$output_processor@_WV?$string_output_adapter@_W@__crt_stdio_output@@V?$standard_base@_WV?$string_output_adapter@_W@__crt_stdio_output@@@2@@__crt_stdio_output@@AAE_N_N@Z 100522d0 f i libucrtd:output.obj
 0001:00051630       ??$type_case_integer_parse_into_buffer@I$07@?$output_processor@DV?$stream_output_adapter@D@__crt_stdio_output@@V?$format_validation_base@DV?$stream_output_adapter@D@__crt_stdio_output@@@2@@__crt_stdio_output@@AAEXI_N@Z 10052630 f i libucrtd:output.obj
 0001:00051700       ??$type_case_integer_parse_into_buffer@I$07@?$output_processor@DV?$stream_output_adapter@D@__crt_stdio_output@@V?$positional_parameter_base@DV?$stream_output_adapter@D@__crt_stdio_output@@@2@@__crt_stdio_output@@AAEXI_N@Z 10052700 f i libucrtd:output.obj
 0001:000517d0       ??$type_case_integer_parse_into_buffer@I$07@?$output_processor@DV?$stream_output_adapter@D@__crt_stdio_output@@V?$standard_base@DV?$stream_output_adapter@D@__crt_stdio_output@@@2@@__crt_stdio_output@@AAEXI_N@Z 100527d0 f i libucrtd:output.obj
 0001:000518a0       ??$type_case_integer_parse_into_buffer@I$07@?$output_processor@DV?$string_output_adapter@D@__crt_stdio_output@@V?$format_validation_base@DV?$string_output_adapter@D@__crt_stdio_output@@@2@@__crt_stdio_output@@AAEXI_N@Z 100528a0 f i libucrtd:output.obj
 0001:00051970       ??$type_case_integer_parse_into_buffer@I$07@?$output_processor@DV?$string_output_adapter@D@__crt_stdio_output@@V?$positional_parameter_base@DV?$string_output_adapter@D@__crt_stdio_output@@@2@@__crt_stdio_output@@AAEXI_N@Z 10052970 f i libucrtd:output.obj
 0001:00051a40       ??$type_case_integer_parse_into_buffer@I$07@?$output_processor@DV?$string_output_adapter@D@__crt_stdio_output@@V?$standard_base@DV?$string_output_adapter@D@__crt_stdio_output@@@2@@__crt_stdio_output@@AAEXI_N@Z 10052a40 f i libucrtd:output.obj
 0001:00051b10       ??$type_case_integer_parse_into_buffer@I$07@?$output_processor@_WV?$stream_output_adapter@_W@__crt_stdio_output@@V?$format_validation_base@_WV?$stream_output_adapter@_W@__crt_stdio_output@@@2@@__crt_stdio_output@@AAEXI_N@Z 10052b10 f i libucrtd:output.obj
 0001:00051bf0       ??$type_case_integer_parse_into_buffer@I$07@?$output_processor@_WV?$stream_output_adapter@_W@__crt_stdio_output@@V?$positional_parameter_base@_WV?$stream_output_adapter@_W@__crt_stdio_output@@@2@@__crt_stdio_output@@AAEXI_N@Z 10052bf0 f i libucrtd:output.obj
 0001:00051cd0       ??$type_case_integer_parse_into_buffer@I$07@?$output_processor@_WV?$stream_output_adapter@_W@__crt_stdio_output@@V?$standard_base@_WV?$stream_output_adapter@_W@__crt_stdio_output@@@2@@__crt_stdio_output@@AAEXI_N@Z 10052cd0 f i libucrtd:output.obj
 0001:00051db0       ??$type_case_integer_parse_into_buffer@I$07@?$output_processor@_WV?$string_output_adapter@_W@__crt_stdio_output@@V?$format_validation_base@_WV?$string_output_adapter@_W@__crt_stdio_output@@@2@@__crt_stdio_output@@AAEXI_N@Z 10052db0 f i libucrtd:output.obj
 0001:00051e90       ??$type_case_integer_parse_into_buffer@I$07@?$output_processor@_WV?$string_output_adapter@_W@__crt_stdio_output@@V?$positional_parameter_base@_WV?$string_output_adapter@_W@__crt_stdio_output@@@2@@__crt_stdio_output@@AAEXI_N@Z 10052e90 f i libucrtd:output.obj
 0001:00051f70       ??$type_case_integer_parse_into_buffer@I$07@?$output_processor@_WV?$string_output_adapter@_W@__crt_stdio_output@@V?$standard_base@_WV?$string_output_adapter@_W@__crt_stdio_output@@@2@@__crt_stdio_output@@AAEXI_N@Z 10052f70 f i libucrtd:output.obj
 0001:00052050       ??$type_case_integer_parse_into_buffer@I$09@?$output_processor@DV?$stream_output_adapter@D@__crt_stdio_output@@V?$format_validation_base@DV?$stream_output_adapter@D@__crt_stdio_output@@@2@@__crt_stdio_output@@AAEXI_N@Z 10053050 f i libucrtd:output.obj
 0001:00052130       ??$type_case_integer_parse_into_buffer@I$09@?$output_processor@DV?$stream_output_adapter@D@__crt_stdio_output@@V?$positional_parameter_base@DV?$stream_output_adapter@D@__crt_stdio_output@@@2@@__crt_stdio_output@@AAEXI_N@Z 10053130 f i libucrtd:output.obj
 0001:00052210       ??$type_case_integer_parse_into_buffer@I$09@?$output_processor@DV?$stream_output_adapter@D@__crt_stdio_output@@V?$standard_base@DV?$stream_output_adapter@D@__crt_stdio_output@@@2@@__crt_stdio_output@@AAEXI_N@Z 10053210 f i libucrtd:output.obj
 0001:000522f0       ??$type_case_integer_parse_into_buffer@I$09@?$output_processor@DV?$string_output_adapter@D@__crt_stdio_output@@V?$format_validation_base@DV?$string_output_adapter@D@__crt_stdio_output@@@2@@__crt_stdio_output@@AAEXI_N@Z 100532f0 f i libucrtd:output.obj
 0001:000523d0       ??$type_case_integer_parse_into_buffer@I$09@?$output_processor@DV?$string_output_adapter@D@__crt_stdio_output@@V?$positional_parameter_base@DV?$string_output_adapter@D@__crt_stdio_output@@@2@@__crt_stdio_output@@AAEXI_N@Z 100533d0 f i libucrtd:output.obj
 0001:000524b0       ??$type_case_integer_parse_into_buffer@I$09@?$output_processor@DV?$string_output_adapter@D@__crt_stdio_output@@V?$standard_base@DV?$string_output_adapter@D@__crt_stdio_output@@@2@@__crt_stdio_output@@AAEXI_N@Z 100534b0 f i libucrtd:output.obj
 0001:00052590       ??$type_case_integer_parse_into_buffer@I$09@?$output_processor@_WV?$stream_output_adapter@_W@__crt_stdio_output@@V?$format_validation_base@_WV?$stream_output_adapter@_W@__crt_stdio_output@@@2@@__crt_stdio_output@@AAEXI_N@Z 10053590 f i libucrtd:output.obj
 0001:00052680       ??$type_case_integer_parse_into_buffer@I$09@?$output_processor@_WV?$stream_output_adapter@_W@__crt_stdio_output@@V?$positional_parameter_base@_WV?$stream_output_adapter@_W@__crt_stdio_output@@@2@@__crt_stdio_output@@AAEXI_N@Z 10053680 f i libucrtd:output.obj
 0001:00052770       ??$type_case_integer_parse_into_buffer@I$09@?$output_processor@_WV?$stream_output_adapter@_W@__crt_stdio_output@@V?$standard_base@_WV?$stream_output_adapter@_W@__crt_stdio_output@@@2@@__crt_stdio_output@@AAEXI_N@Z 10053770 f i libucrtd:output.obj
 0001:00052860       ??$type_case_integer_parse_into_buffer@I$09@?$output_processor@_WV?$string_output_adapter@_W@__crt_stdio_output@@V?$format_validation_base@_WV?$string_output_adapter@_W@__crt_stdio_output@@@2@@__crt_stdio_output@@AAEXI_N@Z 10053860 f i libucrtd:output.obj
 0001:00052950       ??$type_case_integer_parse_into_buffer@I$09@?$output_processor@_WV?$string_output_adapter@_W@__crt_stdio_output@@V?$positional_parameter_base@_WV?$string_output_adapter@_W@__crt_stdio_output@@@2@@__crt_stdio_output@@AAEXI_N@Z 10053950 f i libucrtd:output.obj
 0001:00052a40       ??$type_case_integer_parse_into_buffer@I$09@?$output_processor@_WV?$string_output_adapter@_W@__crt_stdio_output@@V?$standard_base@_WV?$string_output_adapter@_W@__crt_stdio_output@@@2@@__crt_stdio_output@@AAEXI_N@Z 10053a40 f i libucrtd:output.obj
 0001:00052b30       ??$type_case_integer_parse_into_buffer@I$0BA@@?$output_processor@DV?$stream_output_adapter@D@__crt_stdio_output@@V?$format_validation_base@DV?$stream_output_adapter@D@__crt_stdio_output@@@2@@__crt_stdio_output@@AAEXI_N@Z 10053b30 f i libucrtd:output.obj
 0001:00052c00       ??$type_case_integer_parse_into_buffer@I$0BA@@?$output_processor@DV?$stream_output_adapter@D@__crt_stdio_output@@V?$positional_parameter_base@DV?$stream_output_adapter@D@__crt_stdio_output@@@2@@__crt_stdio_output@@AAEXI_N@Z 10053c00 f i libucrtd:output.obj
 0001:00052cd0       ??$type_case_integer_parse_into_buffer@I$0BA@@?$output_processor@DV?$stream_output_adapter@D@__crt_stdio_output@@V?$standard_base@DV?$stream_output_adapter@D@__crt_stdio_output@@@2@@__crt_stdio_output@@AAEXI_N@Z 10053cd0 f i libucrtd:output.obj
 0001:00052da0       ??$type_case_integer_parse_into_buffer@I$0BA@@?$output_processor@DV?$string_output_adapter@D@__crt_stdio_output@@V?$format_validation_base@DV?$string_output_adapter@D@__crt_stdio_output@@@2@@__crt_stdio_output@@AAEXI_N@Z 10053da0 f i libucrtd:output.obj
 0001:00052e70       ??$type_case_integer_parse_into_buffer@I$0BA@@?$output_processor@DV?$string_output_adapter@D@__crt_stdio_output@@V?$positional_parameter_base@DV?$string_output_adapter@D@__crt_stdio_output@@@2@@__crt_stdio_output@@AAEXI_N@Z 10053e70 f i libucrtd:output.obj
 0001:00052f40       ??$type_case_integer_parse_into_buffer@I$0BA@@?$output_processor@DV?$string_output_adapter@D@__crt_stdio_output@@V?$standard_base@DV?$string_output_adapter@D@__crt_stdio_output@@@2@@__crt_stdio_output@@AAEXI_N@Z 10053f40 f i libucrtd:output.obj
 0001:00053010       ??$type_case_integer_parse_into_buffer@I$0BA@@?$output_processor@_WV?$stream_output_adapter@_W@__crt_stdio_output@@V?$format_validation_base@_WV?$stream_output_adapter@_W@__crt_stdio_output@@@2@@__crt_stdio_output@@AAEXI_N@Z 10054010 f i libucrtd:output.obj
 0001:000530f0       ??$type_case_integer_parse_into_buffer@I$0BA@@?$output_processor@_WV?$stream_output_adapter@_W@__crt_stdio_output@@V?$positional_parameter_base@_WV?$stream_output_adapter@_W@__crt_stdio_output@@@2@@__crt_stdio_output@@AAEXI_N@Z 100540f0 f i libucrtd:output.obj
 0001:000531d0       ??$type_case_integer_parse_into_buffer@I$0BA@@?$output_processor@_WV?$stream_output_adapter@_W@__crt_stdio_output@@V?$standard_base@_WV?$stream_output_adapter@_W@__crt_stdio_output@@@2@@__crt_stdio_output@@AAEXI_N@Z 100541d0 f i libucrtd:output.obj
 0001:000532b0       ??$type_case_integer_parse_into_buffer@I$0BA@@?$output_processor@_WV?$string_output_adapter@_W@__crt_stdio_output@@V?$format_validation_base@_WV?$string_output_adapter@_W@__crt_stdio_output@@@2@@__crt_stdio_output@@AAEXI_N@Z 100542b0 f i libucrtd:output.obj
 0001:00053390       ??$type_case_integer_parse_into_buffer@I$0BA@@?$output_processor@_WV?$string_output_adapter@_W@__crt_stdio_output@@V?$positional_parameter_base@_WV?$string_output_adapter@_W@__crt_stdio_output@@@2@@__crt_stdio_output@@AAEXI_N@Z 10054390 f i libucrtd:output.obj
 0001:00053470       ??$type_case_integer_parse_into_buffer@I$0BA@@?$output_processor@_WV?$string_output_adapter@_W@__crt_stdio_output@@V?$standard_base@_WV?$string_output_adapter@_W@__crt_stdio_output@@@2@@__crt_stdio_output@@AAEXI_N@Z 10054470 f i libucrtd:output.obj
 0001:00053550       ??$type_case_integer_parse_into_buffer@_K$07@?$output_processor@DV?$stream_output_adapter@D@__crt_stdio_output@@V?$format_validation_base@DV?$stream_output_adapter@D@__crt_stdio_output@@@2@@__crt_stdio_output@@AAEX_K_N@Z 10054550 f i libucrtd:output.obj
 0001:00053640       ??$type_case_integer_parse_into_buffer@_K$07@?$output_processor@DV?$stream_output_adapter@D@__crt_stdio_output@@V?$positional_parameter_base@DV?$stream_output_adapter@D@__crt_stdio_output@@@2@@__crt_stdio_output@@AAEX_K_N@Z 10054640 f i libucrtd:output.obj
 0001:00053730       ??$type_case_integer_parse_into_buffer@_K$07@?$output_processor@DV?$stream_output_adapter@D@__crt_stdio_output@@V?$standard_base@DV?$stream_output_adapter@D@__crt_stdio_output@@@2@@__crt_stdio_output@@AAEX_K_N@Z 10054730 f i libucrtd:output.obj
 0001:00053820       ??$type_case_integer_parse_into_buffer@_K$07@?$output_processor@DV?$string_output_adapter@D@__crt_stdio_output@@V?$format_validation_base@DV?$string_output_adapter@D@__crt_stdio_output@@@2@@__crt_stdio_output@@AAEX_K_N@Z 10054820 f i libucrtd:output.obj
 0001:00053910       ??$type_case_integer_parse_into_buffer@_K$07@?$output_processor@DV?$string_output_adapter@D@__crt_stdio_output@@V?$positional_parameter_base@DV?$string_output_adapter@D@__crt_stdio_output@@@2@@__crt_stdio_output@@AAEX_K_N@Z 10054910 f i libucrtd:output.obj
 0001:00053a00       ??$type_case_integer_parse_into_buffer@_K$07@?$output_processor@DV?$string_output_adapter@D@__crt_stdio_output@@V?$standard_base@DV?$string_output_adapter@D@__crt_stdio_output@@@2@@__crt_stdio_output@@AAEX_K_N@Z 10054a00 f i libucrtd:output.obj
 0001:00053af0       ??$type_case_integer_parse_into_buffer@_K$07@?$output_processor@_WV?$stream_output_adapter@_W@__crt_stdio_output@@V?$format_validation_base@_WV?$stream_output_adapter@_W@__crt_stdio_output@@@2@@__crt_stdio_output@@AAEX_K_N@Z 10054af0 f i libucrtd:output.obj
 0001:00053bf0       ??$type_case_integer_parse_into_buffer@_K$07@?$output_processor@_WV?$stream_output_adapter@_W@__crt_stdio_output@@V?$positional_parameter_base@_WV?$stream_output_adapter@_W@__crt_stdio_output@@@2@@__crt_stdio_output@@AAEX_K_N@Z 10054bf0 f i libucrtd:output.obj
 0001:00053cf0       ??$type_case_integer_parse_into_buffer@_K$07@?$output_processor@_WV?$stream_output_adapter@_W@__crt_stdio_output@@V?$standard_base@_WV?$stream_output_adapter@_W@__crt_stdio_output@@@2@@__crt_stdio_output@@AAEX_K_N@Z 10054cf0 f i libucrtd:output.obj
 0001:00053df0       ??$type_case_integer_parse_into_buffer@_K$07@?$output_processor@_WV?$string_output_adapter@_W@__crt_stdio_output@@V?$format_validation_base@_WV?$string_output_adapter@_W@__crt_stdio_output@@@2@@__crt_stdio_output@@AAEX_K_N@Z 10054df0 f i libucrtd:output.obj
 0001:00053ef0       ??$type_case_integer_parse_into_buffer@_K$07@?$output_processor@_WV?$string_output_adapter@_W@__crt_stdio_output@@V?$positional_parameter_base@_WV?$string_output_adapter@_W@__crt_stdio_output@@@2@@__crt_stdio_output@@AAEX_K_N@Z 10054ef0 f i libucrtd:output.obj
 0001:00053ff0       ??$type_case_integer_parse_into_buffer@_K$07@?$output_processor@_WV?$string_output_adapter@_W@__crt_stdio_output@@V?$standard_base@_WV?$string_output_adapter@_W@__crt_stdio_output@@@2@@__crt_stdio_output@@AAEX_K_N@Z 10054ff0 f i libucrtd:output.obj
 0001:000540f0       ??$type_case_integer_parse_into_buffer@_K$09@?$output_processor@DV?$stream_output_adapter@D@__crt_stdio_output@@V?$format_validation_base@DV?$stream_output_adapter@D@__crt_stdio_output@@@2@@__crt_stdio_output@@AAEX_K_N@Z 100550f0 f i libucrtd:output.obj
 0001:000541e0       ??$type_case_integer_parse_into_buffer@_K$09@?$output_processor@DV?$stream_output_adapter@D@__crt_stdio_output@@V?$positional_parameter_base@DV?$stream_output_adapter@D@__crt_stdio_output@@@2@@__crt_stdio_output@@AAEX_K_N@Z 100551e0 f i libucrtd:output.obj
 0001:000542d0       ??$type_case_integer_parse_into_buffer@_K$09@?$output_processor@DV?$stream_output_adapter@D@__crt_stdio_output@@V?$standard_base@DV?$stream_output_adapter@D@__crt_stdio_output@@@2@@__crt_stdio_output@@AAEX_K_N@Z 100552d0 f i libucrtd:output.obj
 0001:000543c0       ??$type_case_integer_parse_into_buffer@_K$09@?$output_processor@DV?$string_output_adapter@D@__crt_stdio_output@@V?$format_validation_base@DV?$string_output_adapter@D@__crt_stdio_output@@@2@@__crt_stdio_output@@AAEX_K_N@Z 100553c0 f i libucrtd:output.obj
 0001:000544b0       ??$type_case_integer_parse_into_buffer@_K$09@?$output_processor@DV?$string_output_adapter@D@__crt_stdio_output@@V?$positional_parameter_base@DV?$string_output_adapter@D@__crt_stdio_output@@@2@@__crt_stdio_output@@AAEX_K_N@Z 100554b0 f i libucrtd:output.obj
 0001:000545a0       ??$type_case_integer_parse_into_buffer@_K$09@?$output_processor@DV?$string_output_adapter@D@__crt_stdio_output@@V?$standard_base@DV?$string_output_adapter@D@__crt_stdio_output@@@2@@__crt_stdio_output@@AAEX_K_N@Z 100555a0 f i libucrtd:output.obj
 0001:00054690       ??$type_case_integer_parse_into_buffer@_K$09@?$output_processor@_WV?$stream_output_adapter@_W@__crt_stdio_output@@V?$format_validation_base@_WV?$stream_output_adapter@_W@__crt_stdio_output@@@2@@__crt_stdio_output@@AAEX_K_N@Z 10055690 f i libucrtd:output.obj
 0001:00054790       ??$type_case_integer_parse_into_buffer@_K$09@?$output_processor@_WV?$stream_output_adapter@_W@__crt_stdio_output@@V?$positional_parameter_base@_WV?$stream_output_adapter@_W@__crt_stdio_output@@@2@@__crt_stdio_output@@AAEX_K_N@Z 10055790 f i libucrtd:output.obj
 0001:00054890       ??$type_case_integer_parse_into_buffer@_K$09@?$output_processor@_WV?$stream_output_adapter@_W@__crt_stdio_output@@V?$standard_base@_WV?$stream_output_adapter@_W@__crt_stdio_output@@@2@@__crt_stdio_output@@AAEX_K_N@Z 10055890 f i libucrtd:output.obj
 0001:00054990       ??$type_case_integer_parse_into_buffer@_K$09@?$output_processor@_WV?$string_output_adapter@_W@__crt_stdio_output@@V?$format_validation_base@_WV?$string_output_adapter@_W@__crt_stdio_output@@@2@@__crt_stdio_output@@AAEX_K_N@Z 10055990 f i libucrtd:output.obj
 0001:00054a90       ??$type_case_integer_parse_into_buffer@_K$09@?$output_processor@_WV?$string_output_adapter@_W@__crt_stdio_output@@V?$positional_parameter_base@_WV?$string_output_adapter@_W@__crt_stdio_output@@@2@@__crt_stdio_output@@AAEX_K_N@Z 10055a90 f i libucrtd:output.obj
 0001:00054b90       ??$type_case_integer_parse_into_buffer@_K$09@?$output_processor@_WV?$string_output_adapter@_W@__crt_stdio_output@@V?$standard_base@_WV?$string_output_adapter@_W@__crt_stdio_output@@@2@@__crt_stdio_output@@AAEX_K_N@Z 10055b90 f i libucrtd:output.obj
 0001:00054c90       ??$type_case_integer_parse_into_buffer@_K$0BA@@?$output_processor@DV?$stream_output_adapter@D@__crt_stdio_output@@V?$format_validation_base@DV?$stream_output_adapter@D@__crt_stdio_output@@@2@@__crt_stdio_output@@AAEX_K_N@Z 10055c90 f i libucrtd:output.obj
 0001:00054d80       ??$type_case_integer_parse_into_buffer@_K$0BA@@?$output_processor@DV?$stream_output_adapter@D@__crt_stdio_output@@V?$positional_parameter_base@DV?$stream_output_adapter@D@__crt_stdio_output@@@2@@__crt_stdio_output@@AAEX_K_N@Z 10055d80 f i libucrtd:output.obj
 0001:00054e70       ??$type_case_integer_parse_into_buffer@_K$0BA@@?$output_processor@DV?$stream_output_adapter@D@__crt_stdio_output@@V?$standard_base@DV?$stream_output_adapter@D@__crt_stdio_output@@@2@@__crt_stdio_output@@AAEX_K_N@Z 10055e70 f i libucrtd:output.obj
 0001:00054f60       ??$type_case_integer_parse_into_buffer@_K$0BA@@?$output_processor@DV?$string_output_adapter@D@__crt_stdio_output@@V?$format_validation_base@DV?$string_output_adapter@D@__crt_stdio_output@@@2@@__crt_stdio_output@@AAEX_K_N@Z 10055f60 f i libucrtd:output.obj
 0001:00055050       ??$type_case_integer_parse_into_buffer@_K$0BA@@?$output_processor@DV?$string_output_adapter@D@__crt_stdio_output@@V?$positional_parameter_base@DV?$string_output_adapter@D@__crt_stdio_output@@@2@@__crt_stdio_output@@AAEX_K_N@Z 10056050 f i libucrtd:output.obj
 0001:00055140       ??$type_case_integer_parse_into_buffer@_K$0BA@@?$output_processor@DV?$string_output_adapter@D@__crt_stdio_output@@V?$standard_base@DV?$string_output_adapter@D@__crt_stdio_output@@@2@@__crt_stdio_output@@AAEX_K_N@Z 10056140 f i libucrtd:output.obj
 0001:00055230       ??$type_case_integer_parse_into_buffer@_K$0BA@@?$output_processor@_WV?$stream_output_adapter@_W@__crt_stdio_output@@V?$format_validation_base@_WV?$stream_output_adapter@_W@__crt_stdio_output@@@2@@__crt_stdio_output@@AAEX_K_N@Z 10056230 f i libucrtd:output.obj
 0001:00055330       ??$type_case_integer_parse_into_buffer@_K$0BA@@?$output_processor@_WV?$stream_output_adapter@_W@__crt_stdio_output@@V?$positional_parameter_base@_WV?$stream_output_adapter@_W@__crt_stdio_output@@@2@@__crt_stdio_output@@AAEX_K_N@Z 10056330 f i libucrtd:output.obj
 0001:00055430       ??$type_case_integer_parse_into_buffer@_K$0BA@@?$output_processor@_WV?$stream_output_adapter@_W@__crt_stdio_output@@V?$standard_base@_WV?$stream_output_adapter@_W@__crt_stdio_output@@@2@@__crt_stdio_output@@AAEX_K_N@Z 10056430 f i libucrtd:output.obj
 0001:00055530       ??$type_case_integer_parse_into_buffer@_K$0BA@@?$output_processor@_WV?$string_output_adapter@_W@__crt_stdio_output@@V?$format_validation_base@_WV?$string_output_adapter@_W@__crt_stdio_output@@@2@@__crt_stdio_output@@AAEX_K_N@Z 10056530 f i libucrtd:output.obj
 0001:00055630       ??$type_case_integer_parse_into_buffer@_K$0BA@@?$output_processor@_WV?$string_output_adapter@_W@__crt_stdio_output@@V?$positional_parameter_base@_WV?$string_output_adapter@_W@__crt_stdio_output@@@2@@__crt_stdio_output@@AAEX_K_N@Z 10056630 f i libucrtd:output.obj
 0001:00055730       ??$type_case_integer_parse_into_buffer@_K$0BA@@?$output_processor@_WV?$string_output_adapter@_W@__crt_stdio_output@@V?$standard_base@_WV?$string_output_adapter@_W@__crt_stdio_output@@@2@@__crt_stdio_output@@AAEX_K_N@Z 10056730 f i libucrtd:output.obj
 0001:00055830       ??$write_multiple_characters@V?$stream_output_adapter@D@__crt_stdio_output@@D@__crt_stdio_output@@YAXABV?$stream_output_adapter@D@0@DHQAHAAV__crt_cached_ptd_host@@@Z 10056830 f i libucrtd:output.obj
 0001:00055880       ??$write_multiple_characters@V?$stream_output_adapter@_W@__crt_stdio_output@@D@__crt_stdio_output@@YAXABV?$stream_output_adapter@_W@0@DHQAHAAV__crt_cached_ptd_host@@@Z 10056880 f i libucrtd:output.obj
 0001:000558d0       ??$write_multiple_characters@V?$string_output_adapter@D@__crt_stdio_output@@D@__crt_stdio_output@@YAXABV?$string_output_adapter@D@0@DHQAHAAV__crt_cached_ptd_host@@@Z 100568d0 f i libucrtd:output.obj
 0001:00055920       ??$write_multiple_characters@V?$string_output_adapter@_W@__crt_stdio_output@@D@__crt_stdio_output@@YAXABV?$string_output_adapter@_W@0@DHQAHAAV__crt_cached_ptd_host@@@Z 10056920 f i libucrtd:output.obj
 0001:00055c70       ??0?$c_string_character_source@D@__crt_strtox@@QAE@QBDQAPBD@Z 10056c70 f i libucrtd:output.obj
 0001:00055cb0       ??0?$c_string_character_source@_W@__crt_strtox@@QAE@QB_WQAPB_W@Z 10056cb0 f i libucrtd:output.obj
 0001:00055cf0       ??0?$cached@H@__crt_cached_ptd_host@@QAE@XZ 10056cf0 f i libucrtd:output.obj
 0001:00055d10       ??0?$cached@K@__crt_cached_ptd_host@@QAE@XZ 10056d10 f i libucrtd:output.obj
 0001:00055d30       ??0?$common_data@D@__crt_stdio_output@@IAE@AAV__crt_cached_ptd_host@@@Z 10056d30 f i libucrtd:output.obj
 0001:00055dd0       ??0?$common_data@_W@__crt_stdio_output@@IAE@AAV__crt_cached_ptd_host@@@Z 10056dd0 f i libucrtd:output.obj
 0001:00055e70       ??0?$output_adapter_data@DV?$stream_output_adapter@D@__crt_stdio_output@@@__crt_stdio_output@@IAE@ABV?$stream_output_adapter@D@1@_KQBDAAV__crt_cached_ptd_host@@QAD@Z 10056e70 f i libucrtd:output.obj
 0001:00055ef0       ??0?$output_adapter_data@DV?$string_output_adapter@D@__crt_stdio_output@@@__crt_stdio_output@@IAE@ABV?$string_output_adapter@D@1@_KQBDAAV__crt_cached_ptd_host@@QAD@Z 10056ef0 f i libucrtd:output.obj
 0001:00055f70       ??0?$output_adapter_data@_WV?$stream_output_adapter@_W@__crt_stdio_output@@@__crt_stdio_output@@IAE@ABV?$stream_output_adapter@_W@1@_KQB_WAAV__crt_cached_ptd_host@@QAD@Z 10056f70 f i libucrtd:output.obj
 0001:00055ff0       ??0?$output_adapter_data@_WV?$string_output_adapter@_W@__crt_stdio_output@@@__crt_stdio_output@@IAE@ABV?$string_output_adapter@_W@1@_KQB_WAAV__crt_cached_ptd_host@@QAD@Z 10056ff0 f i libucrtd:output.obj
 0001:00056070       ??0?$output_processor@DV?$stream_output_adapter@D@__crt_stdio_output@@V?$format_validation_base@DV?$stream_output_adapter@D@__crt_stdio_output@@@2@@__crt_stdio_output@@QAE@ABV?$stream_output_adapter@D@1@_KQBDAAV__crt_cached_ptd_host@@QAD@Z 10057070 f i libucrtd:output.obj
 0001:000560a0       ??0?$output_processor@DV?$stream_output_adapter@D@__crt_stdio_output@@V?$positional_parameter_base@DV?$stream_output_adapter@D@__crt_stdio_output@@@2@@__crt_stdio_output@@QAE@ABV?$stream_output_adapter@D@1@_KQBDAAV__crt_cached_ptd_host@@QAD@Z 100570a0 f i libucrtd:output.obj
 0001:000560d0       ??0?$output_processor@DV?$stream_output_adapter@D@__crt_stdio_output@@V?$standard_base@DV?$stream_output_adapter@D@__crt_stdio_output@@@2@@__crt_stdio_output@@QAE@ABV?$stream_output_adapter@D@1@_KQBDAAV__crt_cached_ptd_host@@QAD@Z 100570d0 f i libucrtd:output.obj
 0001:00056100       ??0?$output_processor@DV?$string_output_adapter@D@__crt_stdio_output@@V?$format_validation_base@DV?$string_output_adapter@D@__crt_stdio_output@@@2@@__crt_stdio_output@@QAE@ABV?$string_output_adapter@D@1@_KQBDAAV__crt_cached_ptd_host@@QAD@Z 10057100 f i libucrtd:output.obj
 0001:00056130       ??0?$output_processor@DV?$string_output_adapter@D@__crt_stdio_output@@V?$positional_parameter_base@DV?$string_output_adapter@D@__crt_stdio_output@@@2@@__crt_stdio_output@@QAE@ABV?$string_output_adapter@D@1@_KQBDAAV__crt_cached_ptd_host@@QAD@Z 10057130 f i libucrtd:output.obj
 0001:00056160       ??0?$output_processor@DV?$string_output_adapter@D@__crt_stdio_output@@V?$standard_base@DV?$string_output_adapter@D@__crt_stdio_output@@@2@@__crt_stdio_output@@QAE@ABV?$string_output_adapter@D@1@_KQBDAAV__crt_cached_ptd_host@@QAD@Z 10057160 f i libucrtd:output.obj
 0001:00056190       ??0?$output_processor@_WV?$stream_output_adapter@_W@__crt_stdio_output@@V?$format_validation_base@_WV?$stream_output_adapter@_W@__crt_stdio_output@@@2@@__crt_stdio_output@@QAE@ABV?$stream_output_adapter@_W@1@_KQB_WAAV__crt_cached_ptd_host@@QAD@Z 10057190 f i libucrtd:output.obj
 0001:000561c0       ??0?$output_processor@_WV?$stream_output_adapter@_W@__crt_stdio_output@@V?$positional_parameter_base@_WV?$stream_output_adapter@_W@__crt_stdio_output@@@2@@__crt_stdio_output@@QAE@ABV?$stream_output_adapter@_W@1@_KQB_WAAV__crt_cached_ptd_host@@QAD@Z 100571c0 f i libucrtd:output.obj
 0001:000561f0       ??0?$output_processor@_WV?$stream_output_adapter@_W@__crt_stdio_output@@V?$standard_base@_WV?$stream_output_adapter@_W@__crt_stdio_output@@@2@@__crt_stdio_output@@QAE@ABV?$stream_output_adapter@_W@1@_KQB_WAAV__crt_cached_ptd_host@@QAD@Z 100571f0 f i libucrtd:output.obj
 0001:00056220       ??0?$output_processor@_WV?$string_output_adapter@_W@__crt_stdio_output@@V?$format_validation_base@_WV?$string_output_adapter@_W@__crt_stdio_output@@@2@@__crt_stdio_output@@QAE@ABV?$string_output_adapter@_W@1@_KQB_WAAV__crt_cached_ptd_host@@QAD@Z 10057220 f i libucrtd:output.obj
 0001:00056250       ??0?$output_processor@_WV?$string_output_adapter@_W@__crt_stdio_output@@V?$positional_parameter_base@_WV?$string_output_adapter@_W@__crt_stdio_output@@@2@@__crt_stdio_output@@QAE@ABV?$string_output_adapter@_W@1@_KQB_WAAV__crt_cached_ptd_host@@QAD@Z 10057250 f i libucrtd:output.obj
 0001:00056280       ??0?$output_processor@_WV?$string_output_adapter@_W@__crt_stdio_output@@V?$standard_base@_WV?$string_output_adapter@_W@__crt_stdio_output@@@2@@__crt_stdio_output@@QAE@ABV?$string_output_adapter@_W@1@_KQB_WAAV__crt_cached_ptd_host@@QAD@Z 10057280 f i libucrtd:output.obj
 0001:000562b0       ??0?$stream_output_adapter@D@__crt_stdio_output@@QAE@QAU_iobuf@@@Z 100572b0 f i libucrtd:output.obj
 0001:000562e0       ??0?$stream_output_adapter@_W@__crt_stdio_output@@QAE@QAU_iobuf@@@Z 100572e0 f i libucrtd:output.obj
 0001:00056310       ??0?$string_output_adapter@D@__crt_stdio_output@@QAE@QAU?$string_output_adapter_context@D@1@@Z 10057310 f i libucrtd:output.obj
 0001:00056330       ??0?$string_output_adapter@_W@__crt_stdio_output@@QAE@QAU?$string_output_adapter_context@_W@1@@Z 10057330 f i libucrtd:output.obj
 0001:00056350       ??0__acrt_stdio_temporary_buffering_guard@@QAE@QAU_iobuf@@AAV__crt_cached_ptd_host@@@Z 10057350 f i libucrtd:output.obj
 0001:00056390       ??0__crt_cached_ptd_host@@QAE@QAU__crt_locale_pointers@@@Z 10057390 f i libucrtd:output.obj
 0001:00056420       ??0__crt_scoped_get_last_error_reset@@QAE@XZ 10057420 f i libucrtd:output.obj
 0001:00056440       ??0__crt_stdio_stream@@QAE@QAU_iobuf@@@Z 10057440 f i libucrtd:output.obj
 0001:00056460       ??0formatting_buffer@__crt_stdio_output@@QAE@XZ 10057460 f i libucrtd:output.obj
 0001:000564a0       ??0guard@?$cached@H@__crt_cached_ptd_host@@QAE@AAU12@@Z 100574a0 f i libucrtd:output.obj
 0001:000564e0       ??1?$c_string_character_source@D@__crt_strtox@@QAE@XZ 100574e0 f i libucrtd:output.obj
 0001:00056510       ??1?$c_string_character_source@_W@__crt_strtox@@QAE@XZ 10057510 f i libucrtd:output.obj
 0001:00056540       ??1?$common_data@D@__crt_stdio_output@@QAE@XZ 10057540 f i libucrtd:output.obj
 0001:00056560       ??1?$common_data@_W@__crt_stdio_output@@QAE@XZ 10057560 f i libucrtd:output.obj
 0001:00056580       ??1?$format_validation_base@DV?$stream_output_adapter@D@__crt_stdio_output@@@__crt_stdio_output@@QAE@XZ 10057580 f i libucrtd:output.obj
 0001:000565a0       ??1?$format_validation_base@DV?$string_output_adapter@D@__crt_stdio_output@@@__crt_stdio_output@@QAE@XZ 100575a0 f i libucrtd:output.obj
 0001:000565c0       ??1?$format_validation_base@_WV?$stream_output_adapter@_W@__crt_stdio_output@@@__crt_stdio_output@@QAE@XZ 100575c0 f i libucrtd:output.obj
 0001:000565e0       ??1?$format_validation_base@_WV?$string_output_adapter@_W@__crt_stdio_output@@@__crt_stdio_output@@QAE@XZ 100575e0 f i libucrtd:output.obj
 0001:00056600       ??1?$output_adapter_data@DV?$stream_output_adapter@D@__crt_stdio_output@@@__crt_stdio_output@@QAE@XZ 10057600 f i libucrtd:output.obj
 0001:00056620       ??1?$output_adapter_data@DV?$string_output_adapter@D@__crt_stdio_output@@@__crt_stdio_output@@QAE@XZ 10057620 f i libucrtd:output.obj
 0001:00056640       ??1?$output_adapter_data@_WV?$stream_output_adapter@_W@__crt_stdio_output@@@__crt_stdio_output@@QAE@XZ 10057640 f i libucrtd:output.obj
 0001:00056660       ??1?$output_adapter_data@_WV?$string_output_adapter@_W@__crt_stdio_output@@@__crt_stdio_output@@QAE@XZ 10057660 f i libucrtd:output.obj
 0001:00056680       ??1?$output_processor@DV?$stream_output_adapter@D@__crt_stdio_output@@V?$format_validation_base@DV?$stream_output_adapter@D@__crt_stdio_output@@@2@@__crt_stdio_output@@QAE@XZ 10057680 f i libucrtd:output.obj
 0001:000566a0       ??1?$output_processor@DV?$stream_output_adapter@D@__crt_stdio_output@@V?$positional_parameter_base@DV?$stream_output_adapter@D@__crt_stdio_output@@@2@@__crt_stdio_output@@QAE@XZ 100576a0 f i libucrtd:output.obj
 0001:000566c0       ??1?$output_processor@DV?$stream_output_adapter@D@__crt_stdio_output@@V?$standard_base@DV?$stream_output_adapter@D@__crt_stdio_output@@@2@@__crt_stdio_output@@QAE@XZ 100576c0 f i libucrtd:output.obj
 0001:000566e0       ??1?$output_processor@DV?$string_output_adapter@D@__crt_stdio_output@@V?$format_validation_base@DV?$string_output_adapter@D@__crt_stdio_output@@@2@@__crt_stdio_output@@QAE@XZ 100576e0 f i libucrtd:output.obj
 0001:00056700       ??1?$output_processor@DV?$string_output_adapter@D@__crt_stdio_output@@V?$positional_parameter_base@DV?$string_output_adapter@D@__crt_stdio_output@@@2@@__crt_stdio_output@@QAE@XZ 10057700 f i libucrtd:output.obj
 0001:00056720       ??1?$output_processor@DV?$string_output_adapter@D@__crt_stdio_output@@V?$standard_base@DV?$string_output_adapter@D@__crt_stdio_output@@@2@@__crt_stdio_output@@QAE@XZ 10057720 f i libucrtd:output.obj
 0001:00056740       ??1?$output_processor@_WV?$stream_output_adapter@_W@__crt_stdio_output@@V?$format_validation_base@_WV?$stream_output_adapter@_W@__crt_stdio_output@@@2@@__crt_stdio_output@@QAE@XZ 10057740 f i libucrtd:output.obj
 0001:00056760       ??1?$output_processor@_WV?$stream_output_adapter@_W@__crt_stdio_output@@V?$positional_parameter_base@_WV?$stream_output_adapter@_W@__crt_stdio_output@@@2@@__crt_stdio_output@@QAE@XZ 10057760 f i libucrtd:output.obj
 0001:00056780       ??1?$output_processor@_WV?$stream_output_adapter@_W@__crt_stdio_output@@V?$standard_base@_WV?$stream_output_adapter@_W@__crt_stdio_output@@@2@@__crt_stdio_output@@QAE@XZ 10057780 f i libucrtd:output.obj
 0001:000567a0       ??1?$output_processor@_WV?$string_output_adapter@_W@__crt_stdio_output@@V?$format_validation_base@_WV?$string_output_adapter@_W@__crt_stdio_output@@@2@@__crt_stdio_output@@QAE@XZ 100577a0 f i libucrtd:output.obj
 0001:000567c0       ??1?$output_processor@_WV?$string_output_adapter@_W@__crt_stdio_output@@V?$positional_parameter_base@_WV?$string_output_adapter@_W@__crt_stdio_output@@@2@@__crt_stdio_output@@QAE@XZ 100577c0 f i libucrtd:output.obj
 0001:000567e0       ??1?$output_processor@_WV?$string_output_adapter@_W@__crt_stdio_output@@V?$standard_base@_WV?$string_output_adapter@_W@__crt_stdio_output@@@2@@__crt_stdio_output@@QAE@XZ 100577e0 f i libucrtd:output.obj
 0001:00056800       ??1?$positional_parameter_base@DV?$stream_output_adapter@D@__crt_stdio_output@@@__crt_stdio_output@@QAE@XZ 10057800 f i libucrtd:output.obj
 0001:00056820       ??1?$positional_parameter_base@DV?$string_output_adapter@D@__crt_stdio_output@@@__crt_stdio_output@@QAE@XZ 10057820 f i libucrtd:output.obj
 0001:00056840       ??1?$positional_parameter_base@_WV?$stream_output_adapter@_W@__crt_stdio_output@@@__crt_stdio_output@@QAE@XZ 10057840 f i libucrtd:output.obj
 0001:00056860       ??1?$positional_parameter_base@_WV?$string_output_adapter@_W@__crt_stdio_output@@@__crt_stdio_output@@QAE@XZ 10057860 f i libucrtd:output.obj
 0001:00056880       ??1?$standard_base@DV?$stream_output_adapter@D@__crt_stdio_output@@@__crt_stdio_output@@QAE@XZ 10057880 f i libucrtd:output.obj
 0001:000568a0       ??1?$standard_base@DV?$string_output_adapter@D@__crt_stdio_output@@@__crt_stdio_output@@QAE@XZ 100578a0 f i libucrtd:output.obj
 0001:000568c0       ??1?$standard_base@_WV?$stream_output_adapter@_W@__crt_stdio_output@@@__crt_stdio_output@@QAE@XZ 100578c0 f i libucrtd:output.obj
 0001:000568e0       ??1?$standard_base@_WV?$string_output_adapter@_W@__crt_stdio_output@@@__crt_stdio_output@@QAE@XZ 100578e0 f i libucrtd:output.obj
 0001:00056900       ??1__acrt_stdio_temporary_buffering_guard@@QAE@XZ 10057900 f i libucrtd:output.obj
 0001:00056930       ??1__crt_cached_ptd_host@@QAE@XZ 10057930 f i libucrtd:output.obj
 0001:000569c0       ??1__crt_scoped_get_last_error_reset@@QAE@XZ 100579c0 f i libucrtd:output.obj
 0001:000569e0       ??1formatting_buffer@__crt_stdio_output@@QAE@XZ 100579e0 f i libucrtd:output.obj
 0001:00056a00       ??1guard@?$cached@H@__crt_cached_ptd_host@@QAE@XZ 10057a00 f i libucrtd:output.obj
 0001:00056a30       ??4?$__crt_unique_heap_ptr@DU__crt_internal_free_policy@@@@QAEAAV0@$$QAV0@@Z 10057a30 f i libucrtd:output.obj
 0001:00056a60       ??A?$spectre_mitigated_lookup_table@Ustate_transition_pair@__crt_stdio_output@@$0IA@@__crt_stdio_output@@QBEABUstate_transition_pair@1@I@Z 10057a60 f i libucrtd:output.obj
 0001:00056a80       ??C__crt_stdio_stream@@QBEPAU__crt_stdio_stream_data@@XZ 10057a80 f i libucrtd:output.obj
 0001:000572e0       ?adjust_hexit@?$output_processor@DV?$stream_output_adapter@D@__crt_stdio_output@@V?$format_validation_base@DV?$stream_output_adapter@D@__crt_stdio_output@@@2@@__crt_stdio_output@@CADH_N@Z 100582e0 f i libucrtd:output.obj
 0001:00057320       ?adjust_hexit@?$output_processor@DV?$stream_output_adapter@D@__crt_stdio_output@@V?$positional_parameter_base@DV?$stream_output_adapter@D@__crt_stdio_output@@@2@@__crt_stdio_output@@CADH_N@Z 10058320 f i libucrtd:output.obj
 0001:00057360       ?adjust_hexit@?$output_processor@DV?$stream_output_adapter@D@__crt_stdio_output@@V?$standard_base@DV?$stream_output_adapter@D@__crt_stdio_output@@@2@@__crt_stdio_output@@CADH_N@Z 10058360 f i libucrtd:output.obj
 0001:000573a0       ?adjust_hexit@?$output_processor@DV?$string_output_adapter@D@__crt_stdio_output@@V?$format_validation_base@DV?$string_output_adapter@D@__crt_stdio_output@@@2@@__crt_stdio_output@@CADH_N@Z 100583a0 f i libucrtd:output.obj
 0001:000573e0       ?adjust_hexit@?$output_processor@DV?$string_output_adapter@D@__crt_stdio_output@@V?$positional_parameter_base@DV?$string_output_adapter@D@__crt_stdio_output@@@2@@__crt_stdio_output@@CADH_N@Z 100583e0 f i libucrtd:output.obj
 0001:00057420       ?adjust_hexit@?$output_processor@DV?$string_output_adapter@D@__crt_stdio_output@@V?$standard_base@DV?$string_output_adapter@D@__crt_stdio_output@@@2@@__crt_stdio_output@@CADH_N@Z 10058420 f i libucrtd:output.obj
 0001:00057460       ?adjust_hexit@?$output_processor@_WV?$stream_output_adapter@_W@__crt_stdio_output@@V?$format_validation_base@_WV?$stream_output_adapter@_W@__crt_stdio_output@@@2@@__crt_stdio_output@@CADH_N@Z 10058460 f i libucrtd:output.obj
 0001:000574a0       ?adjust_hexit@?$output_processor@_WV?$stream_output_adapter@_W@__crt_stdio_output@@V?$positional_parameter_base@_WV?$stream_output_adapter@_W@__crt_stdio_output@@@2@@__crt_stdio_output@@CADH_N@Z 100584a0 f i libucrtd:output.obj
 0001:000574e0       ?adjust_hexit@?$output_processor@_WV?$stream_output_adapter@_W@__crt_stdio_output@@V?$standard_base@_WV?$stream_output_adapter@_W@__crt_stdio_output@@@2@@__crt_stdio_output@@CADH_N@Z 100584e0 f i libucrtd:output.obj
 0001:00057520       ?adjust_hexit@?$output_processor@_WV?$string_output_adapter@_W@__crt_stdio_output@@V?$format_validation_base@_WV?$string_output_adapter@_W@__crt_stdio_output@@@2@@__crt_stdio_output@@CADH_N@Z 10058520 f i libucrtd:output.obj
 0001:00057560       ?adjust_hexit@?$output_processor@_WV?$string_output_adapter@_W@__crt_stdio_output@@V?$positional_parameter_base@_WV?$string_output_adapter@_W@__crt_stdio_output@@@2@@__crt_stdio_output@@CADH_N@Z 10058560 f i libucrtd:output.obj
 0001:000575a0       ?adjust_hexit@?$output_processor@_WV?$string_output_adapter@_W@__crt_stdio_output@@V?$standard_base@_WV?$string_output_adapter@_W@__crt_stdio_output@@@2@@__crt_stdio_output@@CADH_N@Z 100585a0 f i libucrtd:output.obj
 0001:000575e0       ?advance_to_next_pass@?$positional_parameter_base@DV?$stream_output_adapter@D@__crt_stdio_output@@@__crt_stdio_output@@IAE_NXZ 100585e0 f i libucrtd:output.obj
 0001:00057680       ?advance_to_next_pass@?$positional_parameter_base@DV?$string_output_adapter@D@__crt_stdio_output@@@__crt_stdio_output@@IAE_NXZ 10058680 f i libucrtd:output.obj
 0001:00057720       ?advance_to_next_pass@?$positional_parameter_base@_WV?$stream_output_adapter@_W@__crt_stdio_output@@@__crt_stdio_output@@IAE_NXZ 10058720 f i libucrtd:output.obj
 0001:000577c0       ?advance_to_next_pass@?$positional_parameter_base@_WV?$string_output_adapter@_W@__crt_stdio_output@@@__crt_stdio_output@@IAE_NXZ 100587c0 f i libucrtd:output.obj
 0001:00057860       ?advance_to_next_pass@?$standard_base@DV?$stream_output_adapter@D@__crt_stdio_output@@@__crt_stdio_output@@IAE_NXZ 10058860 f i libucrtd:output.obj
 0001:000578b0       ?advance_to_next_pass@?$standard_base@DV?$string_output_adapter@D@__crt_stdio_output@@@__crt_stdio_output@@IAE_NXZ 100588b0 f i libucrtd:output.obj
 0001:00057900       ?advance_to_next_pass@?$standard_base@_WV?$stream_output_adapter@_W@__crt_stdio_output@@@__crt_stdio_output@@IAE_NXZ 10058900 f i libucrtd:output.obj
 0001:00057950       ?advance_to_next_pass@?$standard_base@_WV?$string_output_adapter@_W@__crt_stdio_output@@@__crt_stdio_output@@IAE_NXZ 10058950 f i libucrtd:output.obj
 0001:000579a0       ?check@?$cached@H@__crt_cached_ptd_host@@QBE_NH@Z 100589a0 f i libucrtd:output.obj
 0001:000579e0       ?check_synchronize_global_state_index@__crt_cached_ptd_host@@AAEIABV__crt_scoped_get_last_error_reset@@@Z 100589e0 f i libucrtd:output.obj
 0001:00057a10       ?check_synchronize_per_thread_data@__crt_cached_ptd_host@@AAEPAU__acrt_ptd@@XZ 10058a10 f i libucrtd:output.obj
 0001:00057a40       ?create_guard@?$cached@H@__crt_cached_ptd_host@@QAE?AVguard@12@XZ 10058a40 f i libucrtd:output.obj
 0001:00057a60       ?crop_zeroes@__crt_stdio_output@@YAXPADQAU__crt_locale_pointers@@@Z 10058a60 f i libucrtd:output.obj
 0001:00057b60       ?disable@guard@?$cached@H@__crt_cached_ptd_host@@QAEXXZ 10058b60 f i libucrtd:output.obj
 0001:00057b80       ?enable@guard@?$cached@H@__crt_cached_ptd_host@@QAEXXZ 10058b80 f i libucrtd:output.obj
 0001:00057ba0       ?find_next_state@?$output_processor@DV?$stream_output_adapter@D@__crt_stdio_output@@V?$format_validation_base@DV?$stream_output_adapter@D@__crt_stdio_output@@@2@@__crt_stdio_output@@ABE?AW4state@2@DW432@@Z 10058ba0 f i libucrtd:output.obj
 0001:00057c40       ?find_next_state@?$output_processor@DV?$stream_output_adapter@D@__crt_stdio_output@@V?$positional_parameter_base@DV?$stream_output_adapter@D@__crt_stdio_output@@@2@@__crt_stdio_output@@ABE?AW4state@2@DW432@@Z 10058c40 f i libucrtd:output.obj
 0001:00057ce0       ?find_next_state@?$output_processor@DV?$stream_output_adapter@D@__crt_stdio_output@@V?$standard_base@DV?$stream_output_adapter@D@__crt_stdio_output@@@2@@__crt_stdio_output@@ABE?AW4state@2@DW432@@Z 10058ce0 f i libucrtd:output.obj
 0001:00057d80       ?find_next_state@?$output_processor@DV?$string_output_adapter@D@__crt_stdio_output@@V?$format_validation_base@DV?$string_output_adapter@D@__crt_stdio_output@@@2@@__crt_stdio_output@@ABE?AW4state@2@DW432@@Z 10058d80 f i libucrtd:output.obj
 0001:00057e20       ?find_next_state@?$output_processor@DV?$string_output_adapter@D@__crt_stdio_output@@V?$positional_parameter_base@DV?$string_output_adapter@D@__crt_stdio_output@@@2@@__crt_stdio_output@@ABE?AW4state@2@DW432@@Z 10058e20 f i libucrtd:output.obj
 0001:00057ec0       ?find_next_state@?$output_processor@DV?$string_output_adapter@D@__crt_stdio_output@@V?$standard_base@DV?$string_output_adapter@D@__crt_stdio_output@@@2@@__crt_stdio_output@@ABE?AW4state@2@DW432@@Z 10058ec0 f i libucrtd:output.obj
 0001:00057f60       ?find_next_state@?$output_processor@_WV?$stream_output_adapter@_W@__crt_stdio_output@@V?$format_validation_base@_WV?$stream_output_adapter@_W@__crt_stdio_output@@@2@@__crt_stdio_output@@ABE?AW4state@2@_WW432@@Z 10058f60 f i libucrtd:output.obj
 0001:00058000       ?find_next_state@?$output_processor@_WV?$stream_output_adapter@_W@__crt_stdio_output@@V?$positional_parameter_base@_WV?$stream_output_adapter@_W@__crt_stdio_output@@@2@@__crt_stdio_output@@ABE?AW4state@2@_WW432@@Z 10059000 f i libucrtd:output.obj
 0001:000580a0       ?find_next_state@?$output_processor@_WV?$stream_output_adapter@_W@__crt_stdio_output@@V?$standard_base@_WV?$stream_output_adapter@_W@__crt_stdio_output@@@2@@__crt_stdio_output@@ABE?AW4state@2@_WW432@@Z 100590a0 f i libucrtd:output.obj
 0001:00058140       ?find_next_state@?$output_processor@_WV?$string_output_adapter@_W@__crt_stdio_output@@V?$format_validation_base@_WV?$string_output_adapter@_W@__crt_stdio_output@@@2@@__crt_stdio_output@@ABE?AW4state@2@_WW432@@Z 10059140 f i libucrtd:output.obj
 0001:000581e0       ?find_next_state@?$output_processor@_WV?$string_output_adapter@_W@__crt_stdio_output@@V?$positional_parameter_base@_WV?$string_output_adapter@_W@__crt_stdio_output@@@2@@__crt_stdio_output@@ABE?AW4state@2@_WW432@@Z 100591e0 f i libucrtd:output.obj
 0001:00058280       ?find_next_state@?$output_processor@_WV?$string_output_adapter@_W@__crt_stdio_output@@V?$standard_base@_WV?$string_output_adapter@_W@__crt_stdio_output@@@2@@__crt_stdio_output@@ABE?AW4state@2@_WW432@@Z 10059280 f i libucrtd:output.obj
 0001:00058320       ?force_decimal_point@__crt_stdio_output@@YAXPADQAU__crt_locale_pointers@@@Z 10059320 f i libucrtd:output.obj
 0001:000583f0       ?force_synchronize_global_state_index@__crt_cached_ptd_host@@AAEIABV__crt_scoped_get_last_error_reset@@@Z 100593f0 f i libucrtd:output.obj
 0001:00058420       ?force_synchronize_per_thread_data@__crt_cached_ptd_host@@AAEPAU__acrt_ptd@@XZ 10059420 f i libucrtd:output.obj
 0001:00058470       ?get@?$c_string_character_source@D@__crt_strtox@@QAEDXZ 10059470 f i libucrtd:output.obj
 0001:000584a0       ?get@?$c_string_character_source@_W@__crt_strtox@@QAE_WXZ 100594a0 f i libucrtd:output.obj
 0001:000584d0       ?get_current_state_index@__crt_state_management@@YAIABV__crt_scoped_get_last_error_reset@@@Z 100594d0 f i libucrtd:output.obj
 0001:000584e0       ?get_errno@__crt_cached_ptd_host@@QAEAAU?$cached@H@1@XZ 100594e0 f i libucrtd:output.obj
 0001:00058500       ?get_flags@__crt_stdio_stream@@QBEJXZ 10059500 f i libucrtd:output.obj
 0001:00058520       ?get_locale@__crt_cached_ptd_host@@QAEPAU__crt_locale_pointers@@XZ 10059520 f i libucrtd:output.obj
 0001:00058540       ?get_parameter_type@?$positional_parameter_base@DV?$stream_output_adapter@D@__crt_stdio_output@@@__crt_stdio_output@@CA?AW4parameter_type@12@F@Z 10059540 f i libucrtd:output.obj
 0001:00058550       ?get_parameter_type@?$positional_parameter_base@DV?$stream_output_adapter@D@__crt_stdio_output@@@__crt_stdio_output@@CA?AW4parameter_type@12@G@Z 10059550 f i libucrtd:output.obj
 0001:00058560       ?get_parameter_type@?$positional_parameter_base@DV?$stream_output_adapter@D@__crt_stdio_output@@@__crt_stdio_output@@CA?AW4parameter_type@12@H@Z 10059560 f i libucrtd:output.obj
 0001:00058570       ?get_parameter_type@?$positional_parameter_base@DV?$stream_output_adapter@D@__crt_stdio_output@@@__crt_stdio_output@@CA?AW4parameter_type@12@I@Z 10059570 f i libucrtd:output.obj
 0001:00058580       ?get_parameter_type@?$positional_parameter_base@DV?$stream_output_adapter@D@__crt_stdio_output@@@__crt_stdio_output@@CA?AW4parameter_type@12@U_CRT_DOUBLE@@@Z 10059580 f i libucrtd:output.obj
 0001:00058590       ?get_parameter_type@?$positional_parameter_base@DV?$stream_output_adapter@D@__crt_stdio_output@@@__crt_stdio_output@@CA?AW4parameter_type@12@_J@Z 10059590 f i libucrtd:output.obj
 0001:000585a0       ?get_parameter_type@?$positional_parameter_base@DV?$stream_output_adapter@D@__crt_stdio_output@@@__crt_stdio_output@@CA?AW4parameter_type@12@_K@Z 100595a0 f i libucrtd:output.obj
 0001:000585b0       ?get_parameter_type@?$positional_parameter_base@DV?$stream_output_adapter@D@__crt_stdio_output@@@__crt_stdio_output@@CA?AW4parameter_type@12@_W@Z 100595b0 f i libucrtd:output.obj
 0001:000585c0       ?get_parameter_type@?$positional_parameter_base@DV?$string_output_adapter@D@__crt_stdio_output@@@__crt_stdio_output@@CA?AW4parameter_type@12@F@Z 100595c0 f i libucrtd:output.obj
 0001:000585d0       ?get_parameter_type@?$positional_parameter_base@DV?$string_output_adapter@D@__crt_stdio_output@@@__crt_stdio_output@@CA?AW4parameter_type@12@G@Z 100595d0 f i libucrtd:output.obj
 0001:000585e0       ?get_parameter_type@?$positional_parameter_base@DV?$string_output_adapter@D@__crt_stdio_output@@@__crt_stdio_output@@CA?AW4parameter_type@12@H@Z 100595e0 f i libucrtd:output.obj
 0001:000585f0       ?get_parameter_type@?$positional_parameter_base@DV?$string_output_adapter@D@__crt_stdio_output@@@__crt_stdio_output@@CA?AW4parameter_type@12@I@Z 100595f0 f i libucrtd:output.obj
 0001:00058600       ?get_parameter_type@?$positional_parameter_base@DV?$string_output_adapter@D@__crt_stdio_output@@@__crt_stdio_output@@CA?AW4parameter_type@12@U_CRT_DOUBLE@@@Z 10059600 f i libucrtd:output.obj
 0001:00058610       ?get_parameter_type@?$positional_parameter_base@DV?$string_output_adapter@D@__crt_stdio_output@@@__crt_stdio_output@@CA?AW4parameter_type@12@_J@Z 10059610 f i libucrtd:output.obj
 0001:00058620       ?get_parameter_type@?$positional_parameter_base@DV?$string_output_adapter@D@__crt_stdio_output@@@__crt_stdio_output@@CA?AW4parameter_type@12@_K@Z 10059620 f i libucrtd:output.obj
 0001:00058630       ?get_parameter_type@?$positional_parameter_base@DV?$string_output_adapter@D@__crt_stdio_output@@@__crt_stdio_output@@CA?AW4parameter_type@12@_W@Z 10059630 f i libucrtd:output.obj
 0001:00058640       ?get_parameter_type@?$positional_parameter_base@_WV?$stream_output_adapter@_W@__crt_stdio_output@@@__crt_stdio_output@@CA?AW4parameter_type@12@F@Z 10059640 f i libucrtd:output.obj
 0001:00058650       ?get_parameter_type@?$positional_parameter_base@_WV?$stream_output_adapter@_W@__crt_stdio_output@@@__crt_stdio_output@@CA?AW4parameter_type@12@G@Z 10059650 f i libucrtd:output.obj
 0001:00058660       ?get_parameter_type@?$positional_parameter_base@_WV?$stream_output_adapter@_W@__crt_stdio_output@@@__crt_stdio_output@@CA?AW4parameter_type@12@H@Z 10059660 f i libucrtd:output.obj
 0001:00058670       ?get_parameter_type@?$positional_parameter_base@_WV?$stream_output_adapter@_W@__crt_stdio_output@@@__crt_stdio_output@@CA?AW4parameter_type@12@I@Z 10059670 f i libucrtd:output.obj
 0001:00058680       ?get_parameter_type@?$positional_parameter_base@_WV?$stream_output_adapter@_W@__crt_stdio_output@@@__crt_stdio_output@@CA?AW4parameter_type@12@U_CRT_DOUBLE@@@Z 10059680 f i libucrtd:output.obj
 0001:00058690       ?get_parameter_type@?$positional_parameter_base@_WV?$stream_output_adapter@_W@__crt_stdio_output@@@__crt_stdio_output@@CA?AW4parameter_type@12@_J@Z 10059690 f i libucrtd:output.obj
 0001:000586a0       ?get_parameter_type@?$positional_parameter_base@_WV?$stream_output_adapter@_W@__crt_stdio_output@@@__crt_stdio_output@@CA?AW4parameter_type@12@_K@Z 100596a0 f i libucrtd:output.obj
 0001:000586b0       ?get_parameter_type@?$positional_parameter_base@_WV?$stream_output_adapter@_W@__crt_stdio_output@@@__crt_stdio_output@@CA?AW4parameter_type@12@_W@Z 100596b0 f i libucrtd:output.obj
 0001:000586c0       ?get_parameter_type@?$positional_parameter_base@_WV?$string_output_adapter@_W@__crt_stdio_output@@@__crt_stdio_output@@CA?AW4parameter_type@12@F@Z 100596c0 f i libucrtd:output.obj
 0001:000586d0       ?get_parameter_type@?$positional_parameter_base@_WV?$string_output_adapter@_W@__crt_stdio_output@@@__crt_stdio_output@@CA?AW4parameter_type@12@G@Z 100596d0 f i libucrtd:output.obj
 0001:000586e0       ?get_parameter_type@?$positional_parameter_base@_WV?$string_output_adapter@_W@__crt_stdio_output@@@__crt_stdio_output@@CA?AW4parameter_type@12@H@Z 100596e0 f i libucrtd:output.obj
 0001:000586f0       ?get_parameter_type@?$positional_parameter_base@_WV?$string_output_adapter@_W@__crt_stdio_output@@@__crt_stdio_output@@CA?AW4parameter_type@12@I@Z 100596f0 f i libucrtd:output.obj
 0001:00058700       ?get_parameter_type@?$positional_parameter_base@_WV?$string_output_adapter@_W@__crt_stdio_output@@@__crt_stdio_output@@CA?AW4parameter_type@12@U_CRT_DOUBLE@@@Z 10059700 f i libucrtd:output.obj
 0001:00058710       ?get_parameter_type@?$positional_parameter_base@_WV?$string_output_adapter@_W@__crt_stdio_output@@@__crt_stdio_output@@CA?AW4parameter_type@12@_J@Z 10059710 f i libucrtd:output.obj
 0001:00058720       ?get_parameter_type@?$positional_parameter_base@_WV?$string_output_adapter@_W@__crt_stdio_output@@@__crt_stdio_output@@CA?AW4parameter_type@12@_K@Z 10059720 f i libucrtd:output.obj
 0001:00058730       ?get_parameter_type@?$positional_parameter_base@_WV?$string_output_adapter@_W@__crt_stdio_output@@@__crt_stdio_output@@CA?AW4parameter_type@12@_W@Z 10059730 f i libucrtd:output.obj
 0001:00058740       ?get_raw_ptd@__crt_cached_ptd_host@@QAEPAU__acrt_ptd@@XZ 10059740 f i libucrtd:output.obj
 0001:00058760       ?has_flag@?$output_processor@DV?$stream_output_adapter@D@__crt_stdio_output@@V?$format_validation_base@DV?$stream_output_adapter@D@__crt_stdio_output@@@2@@__crt_stdio_output@@ABE_NI@Z 10059760 f i libucrtd:output.obj
 0001:00058790       ?has_flag@?$output_processor@DV?$stream_output_adapter@D@__crt_stdio_output@@V?$positional_parameter_base@DV?$stream_output_adapter@D@__crt_stdio_output@@@2@@__crt_stdio_output@@ABE_NI@Z 10059790 f i libucrtd:output.obj
 0001:000587c0       ?has_flag@?$output_processor@DV?$stream_output_adapter@D@__crt_stdio_output@@V?$standard_base@DV?$stream_output_adapter@D@__crt_stdio_output@@@2@@__crt_stdio_output@@ABE_NI@Z 100597c0 f i libucrtd:output.obj
 0001:000587f0       ?has_flag@?$output_processor@DV?$string_output_adapter@D@__crt_stdio_output@@V?$format_validation_base@DV?$string_output_adapter@D@__crt_stdio_output@@@2@@__crt_stdio_output@@ABE_NI@Z 100597f0 f i libucrtd:output.obj
 0001:00058820       ?has_flag@?$output_processor@DV?$string_output_adapter@D@__crt_stdio_output@@V?$positional_parameter_base@DV?$string_output_adapter@D@__crt_stdio_output@@@2@@__crt_stdio_output@@ABE_NI@Z 10059820 f i libucrtd:output.obj
 0001:00058850       ?has_flag@?$output_processor@DV?$string_output_adapter@D@__crt_stdio_output@@V?$standard_base@DV?$string_output_adapter@D@__crt_stdio_output@@@2@@__crt_stdio_output@@ABE_NI@Z 10059850 f i libucrtd:output.obj
 0001:00058880       ?has_flag@?$output_processor@_WV?$stream_output_adapter@_W@__crt_stdio_output@@V?$format_validation_base@_WV?$stream_output_adapter@_W@__crt_stdio_output@@@2@@__crt_stdio_output@@ABE_NI@Z 10059880 f i libucrtd:output.obj
 0001:000588b0       ?has_flag@?$output_processor@_WV?$stream_output_adapter@_W@__crt_stdio_output@@V?$positional_parameter_base@_WV?$stream_output_adapter@_W@__crt_stdio_output@@@2@@__crt_stdio_output@@ABE_NI@Z 100598b0 f i libucrtd:output.obj
 0001:000588e0       ?has_flag@?$output_processor@_WV?$stream_output_adapter@_W@__crt_stdio_output@@V?$standard_base@_WV?$stream_output_adapter@_W@__crt_stdio_output@@@2@@__crt_stdio_output@@ABE_NI@Z 100598e0 f i libucrtd:output.obj
 0001:00058910       ?has_flag@?$output_processor@_WV?$string_output_adapter@_W@__crt_stdio_output@@V?$format_validation_base@_WV?$string_output_adapter@_W@__crt_stdio_output@@@2@@__crt_stdio_output@@ABE_NI@Z 10059910 f i libucrtd:output.obj
 0001:00058940       ?has_flag@?$output_processor@_WV?$string_output_adapter@_W@__crt_stdio_output@@V?$positional_parameter_base@_WV?$string_output_adapter@_W@__crt_stdio_output@@@2@@__crt_stdio_output@@ABE_NI@Z 10059940 f i libucrtd:output.obj
 0001:00058970       ?has_flag@?$output_processor@_WV?$string_output_adapter@_W@__crt_stdio_output@@V?$standard_base@_WV?$string_output_adapter@_W@__crt_stdio_output@@@2@@__crt_stdio_output@@ABE_NI@Z 10059970 f i libucrtd:output.obj
 0001:000589a0       ?is_positional_parameter_reappearance_consistent@?$positional_parameter_base@DV?$stream_output_adapter@D@__crt_stdio_output@@@__crt_stdio_output@@AAE_NABUparameter_data@12@W4parameter_type@12@DW4length_modifier@2@@Z 100599a0 f i libucrtd:output.obj
 0001:00058bd0       ?is_positional_parameter_reappearance_consistent@?$positional_parameter_base@DV?$string_output_adapter@D@__crt_stdio_output@@@__crt_stdio_output@@AAE_NABUparameter_data@12@W4parameter_type@12@DW4length_modifier@2@@Z 10059bd0 f i libucrtd:output.obj
 0001:00058e00       ?is_positional_parameter_reappearance_consistent@?$positional_parameter_base@_WV?$stream_output_adapter@_W@__crt_stdio_output@@@__crt_stdio_output@@AAE_NABUparameter_data@12@W4parameter_type@12@_WW4length_modifier@2@@Z 10059e00 f i libucrtd:output.obj
 0001:00059030       ?is_positional_parameter_reappearance_consistent@?$positional_parameter_base@_WV?$string_output_adapter@_W@__crt_stdio_output@@@__crt_stdio_output@@AAE_NABUparameter_data@12@W4parameter_type@12@_WW4length_modifier@2@@Z 1005a030 f i libucrtd:output.obj
 0001:00059260       ?is_string_backed@__crt_stdio_stream@@QBE_NXZ 1005a260 f i libucrtd:output.obj
 0001:000592a0       ?maximum_signed_value@__crt_strtox@@YAJK@Z 1005a2a0 f i libucrtd:output.obj
 0001:000592b0       ?minimum_signed_value@__crt_strtox@@YAJK@Z 1005a2b0 f i libucrtd:output.obj
 0001:000592c0       ?narrow_null_string@?$output_processor@DV?$stream_output_adapter@D@__crt_stdio_output@@V?$format_validation_base@DV?$stream_output_adapter@D@__crt_stdio_output@@@2@@__crt_stdio_output@@CAPADXZ 1005a2c0 f i libucrtd:output.obj
 0001:000592d0       ?narrow_null_string@?$output_processor@DV?$stream_output_adapter@D@__crt_stdio_output@@V?$positional_parameter_base@DV?$stream_output_adapter@D@__crt_stdio_output@@@2@@__crt_stdio_output@@CAPADXZ 1005a2d0 f i libucrtd:output.obj
 0001:000592e0       ?narrow_null_string@?$output_processor@DV?$stream_output_adapter@D@__crt_stdio_output@@V?$standard_base@DV?$stream_output_adapter@D@__crt_stdio_output@@@2@@__crt_stdio_output@@CAPADXZ 1005a2e0 f i libucrtd:output.obj
 0001:000592f0       ?narrow_null_string@?$output_processor@DV?$string_output_adapter@D@__crt_stdio_output@@V?$format_validation_base@DV?$string_output_adapter@D@__crt_stdio_output@@@2@@__crt_stdio_output@@CAPADXZ 1005a2f0 f i libucrtd:output.obj
 0001:00059300       ?narrow_null_string@?$output_processor@DV?$string_output_adapter@D@__crt_stdio_output@@V?$positional_parameter_base@DV?$string_output_adapter@D@__crt_stdio_output@@@2@@__crt_stdio_output@@CAPADXZ 1005a300 f i libucrtd:output.obj
 0001:00059310       ?narrow_null_string@?$output_processor@DV?$string_output_adapter@D@__crt_stdio_output@@V?$standard_base@DV?$string_output_adapter@D@__crt_stdio_output@@@2@@__crt_stdio_output@@CAPADXZ 1005a310 f i libucrtd:output.obj
 0001:00059320       ?narrow_null_string@?$output_processor@_WV?$stream_output_adapter@_W@__crt_stdio_output@@V?$format_validation_base@_WV?$stream_output_adapter@_W@__crt_stdio_output@@@2@@__crt_stdio_output@@CAPADXZ 1005a320 f i libucrtd:output.obj
 0001:00059330       ?narrow_null_string@?$output_processor@_WV?$stream_output_adapter@_W@__crt_stdio_output@@V?$positional_parameter_base@_WV?$stream_output_adapter@_W@__crt_stdio_output@@@2@@__crt_stdio_output@@CAPADXZ 1005a330 f i libucrtd:output.obj
 0001:00059340       ?narrow_null_string@?$output_processor@_WV?$stream_output_adapter@_W@__crt_stdio_output@@V?$standard_base@_WV?$stream_output_adapter@_W@__crt_stdio_output@@@2@@__crt_stdio_output@@CAPADXZ 1005a340 f i libucrtd:output.obj
 0001:00059350       ?narrow_null_string@?$output_processor@_WV?$string_output_adapter@_W@__crt_stdio_output@@V?$format_validation_base@_WV?$string_output_adapter@_W@__crt_stdio_output@@@2@@__crt_stdio_output@@CAPADXZ 1005a350 f i libucrtd:output.obj
 0001:00059360       ?narrow_null_string@?$output_processor@_WV?$string_output_adapter@_W@__crt_stdio_output@@V?$positional_parameter_base@_WV?$string_output_adapter@_W@__crt_stdio_output@@@2@@__crt_stdio_output@@CAPADXZ 1005a360 f i libucrtd:output.obj
 0001:00059370       ?narrow_null_string@?$output_processor@_WV?$string_output_adapter@_W@__crt_stdio_output@@V?$standard_base@_WV?$string_output_adapter@_W@__crt_stdio_output@@@2@@__crt_stdio_output@@CAPADXZ 1005a370 f i libucrtd:output.obj
 0001:00059380       ?parse_digit@__crt_strtox@@YAID@Z 1005a380 f i libucrtd:output.obj
 0001:000593e0       ?parse_digit@__crt_strtox@@YAI_W@Z 1005a3e0 f i libucrtd:output.obj
 0001:00059430       ?parse_int_from_format_string@?$output_processor@DV?$stream_output_adapter@D@__crt_stdio_output@@V?$format_validation_base@DV?$stream_output_adapter@D@__crt_stdio_output@@@2@@__crt_stdio_output@@AAE_NQAH@Z 1005a430 f i libucrtd:output.obj
 0001:000594f0       ?parse_int_from_format_string@?$output_processor@DV?$stream_output_adapter@D@__crt_stdio_output@@V?$positional_parameter_base@DV?$stream_output_adapter@D@__crt_stdio_output@@@2@@__crt_stdio_output@@AAE_NQAH@Z 1005a4f0 f i libucrtd:output.obj
 0001:000595b0       ?parse_int_from_format_string@?$output_processor@DV?$stream_output_adapter@D@__crt_stdio_output@@V?$standard_base@DV?$stream_output_adapter@D@__crt_stdio_output@@@2@@__crt_stdio_output@@AAE_NQAH@Z 1005a5b0 f i libucrtd:output.obj
 0001:00059670       ?parse_int_from_format_string@?$output_processor@DV?$string_output_adapter@D@__crt_stdio_output@@V?$format_validation_base@DV?$string_output_adapter@D@__crt_stdio_output@@@2@@__crt_stdio_output@@AAE_NQAH@Z 1005a670 f i libucrtd:output.obj
 0001:00059730       ?parse_int_from_format_string@?$output_processor@DV?$string_output_adapter@D@__crt_stdio_output@@V?$positional_parameter_base@DV?$string_output_adapter@D@__crt_stdio_output@@@2@@__crt_stdio_output@@AAE_NQAH@Z 1005a730 f i libucrtd:output.obj
 0001:000597f0       ?parse_int_from_format_string@?$output_processor@DV?$string_output_adapter@D@__crt_stdio_output@@V?$standard_base@DV?$string_output_adapter@D@__crt_stdio_output@@@2@@__crt_stdio_output@@AAE_NQAH@Z 1005a7f0 f i libucrtd:output.obj
 0001:000598b0       ?parse_int_from_format_string@?$output_processor@_WV?$stream_output_adapter@_W@__crt_stdio_output@@V?$format_validation_base@_WV?$stream_output_adapter@_W@__crt_stdio_output@@@2@@__crt_stdio_output@@AAE_NQAH@Z 1005a8b0 f i libucrtd:output.obj
 0001:00059970       ?parse_int_from_format_string@?$output_processor@_WV?$stream_output_adapter@_W@__crt_stdio_output@@V?$positional_parameter_base@_WV?$stream_output_adapter@_W@__crt_stdio_output@@@2@@__crt_stdio_output@@AAE_NQAH@Z 1005a970 f i libucrtd:output.obj
 0001:00059a30       ?parse_int_from_format_string@?$output_processor@_WV?$stream_output_adapter@_W@__crt_stdio_output@@V?$standard_base@_WV?$stream_output_adapter@_W@__crt_stdio_output@@@2@@__crt_stdio_output@@AAE_NQAH@Z 1005aa30 f i libucrtd:output.obj
 0001:00059af0       ?parse_int_from_format_string@?$output_processor@_WV?$string_output_adapter@_W@__crt_stdio_output@@V?$format_validation_base@_WV?$string_output_adapter@_W@__crt_stdio_output@@@2@@__crt_stdio_output@@AAE_NQAH@Z 1005aaf0 f i libucrtd:output.obj
 0001:00059bb0       ?parse_int_from_format_string@?$output_processor@_WV?$string_output_adapter@_W@__crt_stdio_output@@V?$positional_parameter_base@_WV?$string_output_adapter@_W@__crt_stdio_output@@@2@@__crt_stdio_output@@AAE_NQAH@Z 1005abb0 f i libucrtd:output.obj
 0001:00059c70       ?parse_int_from_format_string@?$output_processor@_WV?$string_output_adapter@_W@__crt_stdio_output@@V?$standard_base@_WV?$string_output_adapter@_W@__crt_stdio_output@@@2@@__crt_stdio_output@@AAE_NQAH@Z 1005ac70 f i libucrtd:output.obj
 0001:00059d30       ?process@?$output_processor@DV?$stream_output_adapter@D@__crt_stdio_output@@V?$format_validation_base@DV?$stream_output_adapter@D@__crt_stdio_output@@@2@@__crt_stdio_output@@QAEHXZ 1005ad30 f i libucrtd:output.obj
 0001:0005a010       ?process@?$output_processor@DV?$stream_output_adapter@D@__crt_stdio_output@@V?$positional_parameter_base@DV?$stream_output_adapter@D@__crt_stdio_output@@@2@@__crt_stdio_output@@QAEHXZ 1005b010 f i libucrtd:output.obj
 0001:0005a2f0       ?process@?$output_processor@DV?$stream_output_adapter@D@__crt_stdio_output@@V?$standard_base@DV?$stream_output_adapter@D@__crt_stdio_output@@@2@@__crt_stdio_output@@QAEHXZ 1005b2f0 f i libucrtd:output.obj
 0001:0005a5d0       ?process@?$output_processor@DV?$string_output_adapter@D@__crt_stdio_output@@V?$format_validation_base@DV?$string_output_adapter@D@__crt_stdio_output@@@2@@__crt_stdio_output@@QAEHXZ 1005b5d0 f i libucrtd:output.obj
 0001:0005a8b0       ?process@?$output_processor@DV?$string_output_adapter@D@__crt_stdio_output@@V?$positional_parameter_base@DV?$string_output_adapter@D@__crt_stdio_output@@@2@@__crt_stdio_output@@QAEHXZ 1005b8b0 f i libucrtd:output.obj
 0001:0005ab90       ?process@?$output_processor@DV?$string_output_adapter@D@__crt_stdio_output@@V?$standard_base@DV?$string_output_adapter@D@__crt_stdio_output@@@2@@__crt_stdio_output@@QAEHXZ 1005bb90 f i libucrtd:output.obj
 0001:0005ae70       ?process@?$output_processor@_WV?$stream_output_adapter@_W@__crt_stdio_output@@V?$format_validation_base@_WV?$stream_output_adapter@_W@__crt_stdio_output@@@2@@__crt_stdio_output@@QAEHXZ 1005be70 f i libucrtd:output.obj
 0001:0005b150       ?process@?$output_processor@_WV?$stream_output_adapter@_W@__crt_stdio_output@@V?$positional_parameter_base@_WV?$stream_output_adapter@_W@__crt_stdio_output@@@2@@__crt_stdio_output@@QAEHXZ 1005c150 f i libucrtd:output.obj
 0001:0005b430       ?process@?$output_processor@_WV?$stream_output_adapter@_W@__crt_stdio_output@@V?$standard_base@_WV?$stream_output_adapter@_W@__crt_stdio_output@@@2@@__crt_stdio_output@@QAEHXZ 1005c430 f i libucrtd:output.obj
 0001:0005b710       ?process@?$output_processor@_WV?$string_output_adapter@_W@__crt_stdio_output@@V?$format_validation_base@_WV?$string_output_adapter@_W@__crt_stdio_output@@@2@@__crt_stdio_output@@QAEHXZ 1005c710 f i libucrtd:output.obj
 0001:0005b9f0       ?process@?$output_processor@_WV?$string_output_adapter@_W@__crt_stdio_output@@V?$positional_parameter_base@_WV?$string_output_adapter@_W@__crt_stdio_output@@@2@@__crt_stdio_output@@QAEHXZ 1005c9f0 f i libucrtd:output.obj
 0001:0005bcd0       ?process@?$output_processor@_WV?$string_output_adapter@_W@__crt_stdio_output@@V?$standard_base@_WV?$string_output_adapter@_W@__crt_stdio_output@@@2@@__crt_stdio_output@@QAEHXZ 1005ccd0 f i libucrtd:output.obj
 0001:0005bfb0       ?public_stream@__crt_stdio_stream@@QBEPAU_iobuf@@XZ 1005cfb0 f i libucrtd:output.obj
 0001:0005bfd0       ?restore_state@?$c_string_character_source@D@__crt_strtox@@QAE_NQBD@Z 1005cfd0 f i libucrtd:output.obj
 0001:0005bff0       ?restore_state@?$c_string_character_source@_W@__crt_strtox@@QAE_NQB_W@Z 1005cff0 f i libucrtd:output.obj
 0001:0005c010       ?save_state@?$c_string_character_source@D@__crt_strtox@@QBEPBDXZ 1005d010 f i libucrtd:output.obj
 0001:0005c030       ?save_state@?$c_string_character_source@_W@__crt_strtox@@QBEPB_WXZ 1005d030 f i libucrtd:output.obj
 0001:0005c050       ?set@?$cached@H@__crt_cached_ptd_host@@QAEHH@Z 1005d050 f i libucrtd:output.obj
 0001:0005c080       ?set_flag@?$output_processor@DV?$stream_output_adapter@D@__crt_stdio_output@@V?$format_validation_base@DV?$stream_output_adapter@D@__crt_stdio_output@@@2@@__crt_stdio_output@@AAEXI@Z 1005d080 f i libucrtd:output.obj
 0001:0005c0a0       ?set_flag@?$output_processor@DV?$stream_output_adapter@D@__crt_stdio_output@@V?$positional_parameter_base@DV?$stream_output_adapter@D@__crt_stdio_output@@@2@@__crt_stdio_output@@AAEXI@Z 1005d0a0 f i libucrtd:output.obj
 0001:0005c0c0       ?set_flag@?$output_processor@DV?$stream_output_adapter@D@__crt_stdio_output@@V?$standard_base@DV?$stream_output_adapter@D@__crt_stdio_output@@@2@@__crt_stdio_output@@AAEXI@Z 1005d0c0 f i libucrtd:output.obj
 0001:0005c0e0       ?set_flag@?$output_processor@DV?$string_output_adapter@D@__crt_stdio_output@@V?$format_validation_base@DV?$string_output_adapter@D@__crt_stdio_output@@@2@@__crt_stdio_output@@AAEXI@Z 1005d0e0 f i libucrtd:output.obj
 0001:0005c100       ?set_flag@?$output_processor@DV?$string_output_adapter@D@__crt_stdio_output@@V?$positional_parameter_base@DV?$string_output_adapter@D@__crt_stdio_output@@@2@@__crt_stdio_output@@AAEXI@Z 1005d100 f i libucrtd:output.obj
 0001:0005c120       ?set_flag@?$output_processor@DV?$string_output_adapter@D@__crt_stdio_output@@V?$standard_base@DV?$string_output_adapter@D@__crt_stdio_output@@@2@@__crt_stdio_output@@AAEXI@Z 1005d120 f i libucrtd:output.obj
 0001:0005c140       ?set_flag@?$output_processor@_WV?$stream_output_adapter@_W@__crt_stdio_output@@V?$format_validation_base@_WV?$stream_output_adapter@_W@__crt_stdio_output@@@2@@__crt_stdio_output@@AAEXI@Z 1005d140 f i libucrtd:output.obj
 0001:0005c160       ?set_flag@?$output_processor@_WV?$stream_output_adapter@_W@__crt_stdio_output@@V?$positional_parameter_base@_WV?$stream_output_adapter@_W@__crt_stdio_output@@@2@@__crt_stdio_output@@AAEXI@Z 1005d160 f i libucrtd:output.obj
 0001:0005c180       ?set_flag@?$output_processor@_WV?$stream_output_adapter@_W@__crt_stdio_output@@V?$standard_base@_WV?$stream_output_adapter@_W@__crt_stdio_output@@@2@@__crt_stdio_output@@AAEXI@Z 1005d180 f i libucrtd:output.obj
 0001:0005c1a0       ?set_flag@?$output_processor@_WV?$string_output_adapter@_W@__crt_stdio_output@@V?$format_validation_base@_WV?$string_output_adapter@_W@__crt_stdio_output@@@2@@__crt_stdio_output@@AAEXI@Z 1005d1a0 f i libucrtd:output.obj
 0001:0005c1c0       ?set_flag@?$output_processor@_WV?$string_output_adapter@_W@__crt_stdio_output@@V?$positional_parameter_base@_WV?$string_output_adapter@_W@__crt_stdio_output@@@2@@__crt_stdio_output@@AAEXI@Z 1005d1c0 f i libucrtd:output.obj
 0001:0005c1e0       ?set_flag@?$output_processor@_WV?$string_output_adapter@_W@__crt_stdio_output@@V?$standard_base@_WV?$string_output_adapter@_W@__crt_stdio_output@@@2@@__crt_stdio_output@@AAEXI@Z 1005d1e0 f i libucrtd:output.obj
 0001:0005c200       ?should_format@?$positional_parameter_base@DV?$stream_output_adapter@D@__crt_stdio_output@@@__crt_stdio_output@@IAE_NXZ 1005d200 f i libucrtd:output.obj
 0001:0005c240       ?should_format@?$positional_parameter_base@DV?$string_output_adapter@D@__crt_stdio_output@@@__crt_stdio_output@@IAE_NXZ 1005d240 f i libucrtd:output.obj
 0001:0005c280       ?should_format@?$positional_parameter_base@_WV?$stream_output_adapter@_W@__crt_stdio_output@@@__crt_stdio_output@@IAE_NXZ 1005d280 f i libucrtd:output.obj
 0001:0005c2c0       ?should_format@?$positional_parameter_base@_WV?$string_output_adapter@_W@__crt_stdio_output@@@__crt_stdio_output@@IAE_NXZ 1005d2c0 f i libucrtd:output.obj
 0001:0005c300       ?should_format@?$standard_base@DV?$stream_output_adapter@D@__crt_stdio_output@@@__crt_stdio_output@@IAE_NXZ 1005d300 f i libucrtd:output.obj
 0001:0005c310       ?should_format@?$standard_base@DV?$string_output_adapter@D@__crt_stdio_output@@@__crt_stdio_output@@IAE_NXZ 1005d310 f i libucrtd:output.obj
 0001:0005c320       ?should_format@?$standard_base@_WV?$stream_output_adapter@_W@__crt_stdio_output@@@__crt_stdio_output@@IAE_NXZ 1005d320 f i libucrtd:output.obj
 0001:0005c330       ?should_format@?$standard_base@_WV?$string_output_adapter@_W@__crt_stdio_output@@@__crt_stdio_output@@IAE_NXZ 1005d330 f i libucrtd:output.obj
 0001:0005c340       ?should_skip_normal_state_processing@?$positional_parameter_base@DV?$stream_output_adapter@D@__crt_stdio_output@@@__crt_stdio_output@@IAE_NXZ 1005d340 f i libucrtd:output.obj
 0001:0005c390       ?should_skip_normal_state_processing@?$positional_parameter_base@DV?$string_output_adapter@D@__crt_stdio_output@@@__crt_stdio_output@@IAE_NXZ 1005d390 f i libucrtd:output.obj
 0001:0005c3e0       ?should_skip_normal_state_processing@?$positional_parameter_base@_WV?$stream_output_adapter@_W@__crt_stdio_output@@@__crt_stdio_output@@IAE_NXZ 1005d3e0 f i libucrtd:output.obj
 0001:0005c430       ?should_skip_normal_state_processing@?$positional_parameter_base@_WV?$string_output_adapter@_W@__crt_stdio_output@@@__crt_stdio_output@@IAE_NXZ 1005d430 f i libucrtd:output.obj
 0001:0005c480       ?should_skip_normal_state_processing@?$standard_base@DV?$stream_output_adapter@D@__crt_stdio_output@@@__crt_stdio_output@@IAE_NXZ 1005d480 f i libucrtd:output.obj
 0001:0005c490       ?should_skip_normal_state_processing@?$standard_base@DV?$string_output_adapter@D@__crt_stdio_output@@@__crt_stdio_output@@IAE_NXZ 1005d490 f i libucrtd:output.obj
 0001:0005c4a0       ?should_skip_normal_state_processing@?$standard_base@_WV?$stream_output_adapter@_W@__crt_stdio_output@@@__crt_stdio_output@@IAE_NXZ 1005d4a0 f i libucrtd:output.obj
 0001:0005c4b0       ?should_skip_normal_state_processing@?$standard_base@_WV?$string_output_adapter@_W@__crt_stdio_output@@@__crt_stdio_output@@IAE_NXZ 1005d4b0 f i libucrtd:output.obj
 0001:0005c4c0       ?should_skip_type_state_output@?$positional_parameter_base@DV?$stream_output_adapter@D@__crt_stdio_output@@@__crt_stdio_output@@IBE_NXZ 1005d4c0 f i libucrtd:output.obj
 0001:0005c500       ?should_skip_type_state_output@?$positional_parameter_base@DV?$string_output_adapter@D@__crt_stdio_output@@@__crt_stdio_output@@IBE_NXZ 1005d500 f i libucrtd:output.obj
 0001:0005c540       ?should_skip_type_state_output@?$positional_parameter_base@_WV?$stream_output_adapter@_W@__crt_stdio_output@@@__crt_stdio_output@@IBE_NXZ 1005d540 f i libucrtd:output.obj
 0001:0005c580       ?should_skip_type_state_output@?$positional_parameter_base@_WV?$string_output_adapter@_W@__crt_stdio_output@@@__crt_stdio_output@@IBE_NXZ 1005d580 f i libucrtd:output.obj
 0001:0005c5c0       ?should_skip_type_state_output@?$standard_base@DV?$stream_output_adapter@D@__crt_stdio_output@@@__crt_stdio_output@@IBE_NXZ 1005d5c0 f i libucrtd:output.obj
 0001:0005c5d0       ?should_skip_type_state_output@?$standard_base@DV?$string_output_adapter@D@__crt_stdio_output@@@__crt_stdio_output@@IBE_NXZ 1005d5d0 f i libucrtd:output.obj
 0001:0005c5e0       ?should_skip_type_state_output@?$standard_base@_WV?$stream_output_adapter@_W@__crt_stdio_output@@@__crt_stdio_output@@IBE_NXZ 1005d5e0 f i libucrtd:output.obj
 0001:0005c5f0       ?should_skip_type_state_output@?$standard_base@_WV?$string_output_adapter@_W@__crt_stdio_output@@@__crt_stdio_output@@IBE_NXZ 1005d5f0 f i libucrtd:output.obj
 0001:0005c600       ?state_case_dot@?$output_processor@DV?$stream_output_adapter@D@__crt_stdio_output@@V?$format_validation_base@DV?$stream_output_adapter@D@__crt_stdio_output@@@2@@__crt_stdio_output@@AAE_NXZ 1005d600 f i libucrtd:output.obj
 0001:0005c620       ?state_case_dot@?$output_processor@DV?$stream_output_adapter@D@__crt_stdio_output@@V?$positional_parameter_base@DV?$stream_output_adapter@D@__crt_stdio_output@@@2@@__crt_stdio_output@@AAE_NXZ 1005d620 f i libucrtd:output.obj
 0001:0005c640       ?state_case_dot@?$output_processor@DV?$stream_output_adapter@D@__crt_stdio_output@@V?$standard_base@DV?$stream_output_adapter@D@__crt_stdio_output@@@2@@__crt_stdio_output@@AAE_NXZ 1005d640 f i libucrtd:output.obj
 0001:0005c660       ?state_case_dot@?$output_processor@DV?$string_output_adapter@D@__crt_stdio_output@@V?$format_validation_base@DV?$string_output_adapter@D@__crt_stdio_output@@@2@@__crt_stdio_output@@AAE_NXZ 1005d660 f i libucrtd:output.obj
 0001:0005c680       ?state_case_dot@?$output_processor@DV?$string_output_adapter@D@__crt_stdio_output@@V?$positional_parameter_base@DV?$string_output_adapter@D@__crt_stdio_output@@@2@@__crt_stdio_output@@AAE_NXZ 1005d680 f i libucrtd:output.obj
 0001:0005c6a0       ?state_case_dot@?$output_processor@DV?$string_output_adapter@D@__crt_stdio_output@@V?$standard_base@DV?$string_output_adapter@D@__crt_stdio_output@@@2@@__crt_stdio_output@@AAE_NXZ 1005d6a0 f i libucrtd:output.obj
 0001:0005c6c0       ?state_case_dot@?$output_processor@_WV?$stream_output_adapter@_W@__crt_stdio_output@@V?$format_validation_base@_WV?$stream_output_adapter@_W@__crt_stdio_output@@@2@@__crt_stdio_output@@AAE_NXZ 1005d6c0 f i libucrtd:output.obj
 0001:0005c6e0       ?state_case_dot@?$output_processor@_WV?$stream_output_adapter@_W@__crt_stdio_output@@V?$positional_parameter_base@_WV?$stream_output_adapter@_W@__crt_stdio_output@@@2@@__crt_stdio_output@@AAE_NXZ 1005d6e0 f i libucrtd:output.obj
 0001:0005c700       ?state_case_dot@?$output_processor@_WV?$stream_output_adapter@_W@__crt_stdio_output@@V?$standard_base@_WV?$stream_output_adapter@_W@__crt_stdio_output@@@2@@__crt_stdio_output@@AAE_NXZ 1005d700 f i libucrtd:output.obj
 0001:0005c720       ?state_case_dot@?$output_processor@_WV?$string_output_adapter@_W@__crt_stdio_output@@V?$format_validation_base@_WV?$string_output_adapter@_W@__crt_stdio_output@@@2@@__crt_stdio_output@@AAE_NXZ 1005d720 f i libucrtd:output.obj
 0001:0005c740       ?state_case_dot@?$output_processor@_WV?$string_output_adapter@_W@__crt_stdio_output@@V?$positional_parameter_base@_WV?$string_output_adapter@_W@__crt_stdio_output@@@2@@__crt_stdio_output@@AAE_NXZ 1005d740 f i libucrtd:output.obj
 0001:0005c760       ?state_case_dot@?$output_processor@_WV?$string_output_adapter@_W@__crt_stdio_output@@V?$standard_base@_WV?$string_output_adapter@_W@__crt_stdio_output@@@2@@__crt_stdio_output@@AAE_NXZ 1005d760 f i libucrtd:output.obj
 0001:0005c780       ?state_case_flag@?$output_processor@DV?$stream_output_adapter@D@__crt_stdio_output@@V?$format_validation_base@DV?$stream_output_adapter@D@__crt_stdio_output@@@2@@__crt_stdio_output@@AAE_NXZ 1005d780 f i libucrtd:output.obj
 0001:0005c830       ?state_case_flag@?$output_processor@DV?$stream_output_adapter@D@__crt_stdio_output@@V?$positional_parameter_base@DV?$stream_output_adapter@D@__crt_stdio_output@@@2@@__crt_stdio_output@@AAE_NXZ 1005d830 f i libucrtd:output.obj
 0001:0005c8e0       ?state_case_flag@?$output_processor@DV?$stream_output_adapter@D@__crt_stdio_output@@V?$standard_base@DV?$stream_output_adapter@D@__crt_stdio_output@@@2@@__crt_stdio_output@@AAE_NXZ 1005d8e0 f i libucrtd:output.obj
 0001:0005c990       ?state_case_flag@?$output_processor@DV?$string_output_adapter@D@__crt_stdio_output@@V?$format_validation_base@DV?$string_output_adapter@D@__crt_stdio_output@@@2@@__crt_stdio_output@@AAE_NXZ 1005d990 f i libucrtd:output.obj
 0001:0005ca40       ?state_case_flag@?$output_processor@DV?$string_output_adapter@D@__crt_stdio_output@@V?$positional_parameter_base@DV?$string_output_adapter@D@__crt_stdio_output@@@2@@__crt_stdio_output@@AAE_NXZ 1005da40 f i libucrtd:output.obj
 0001:0005caf0       ?state_case_flag@?$output_processor@DV?$string_output_adapter@D@__crt_stdio_output@@V?$standard_base@DV?$string_output_adapter@D@__crt_stdio_output@@@2@@__crt_stdio_output@@AAE_NXZ 1005daf0 f i libucrtd:output.obj
 0001:0005cba0       ?state_case_flag@?$output_processor@_WV?$stream_output_adapter@_W@__crt_stdio_output@@V?$format_validation_base@_WV?$stream_output_adapter@_W@__crt_stdio_output@@@2@@__crt_stdio_output@@AAE_NXZ 1005dba0 f i libucrtd:output.obj
 0001:0005cc50       ?state_case_flag@?$output_processor@_WV?$stream_output_adapter@_W@__crt_stdio_output@@V?$positional_parameter_base@_WV?$stream_output_adapter@_W@__crt_stdio_output@@@2@@__crt_stdio_output@@AAE_NXZ 1005dc50 f i libucrtd:output.obj
 0001:0005cd00       ?state_case_flag@?$output_processor@_WV?$stream_output_adapter@_W@__crt_stdio_output@@V?$standard_base@_WV?$stream_output_adapter@_W@__crt_stdio_output@@@2@@__crt_stdio_output@@AAE_NXZ 1005dd00 f i libucrtd:output.obj
 0001:0005cdb0       ?state_case_flag@?$output_processor@_WV?$string_output_adapter@_W@__crt_stdio_output@@V?$format_validation_base@_WV?$string_output_adapter@_W@__crt_stdio_output@@@2@@__crt_stdio_output@@AAE_NXZ 1005ddb0 f i libucrtd:output.obj
 0001:0005ce60       ?state_case_flag@?$output_processor@_WV?$string_output_adapter@_W@__crt_stdio_output@@V?$positional_parameter_base@_WV?$string_output_adapter@_W@__crt_stdio_output@@@2@@__crt_stdio_output@@AAE_NXZ 1005de60 f i libucrtd:output.obj
 0001:0005cf10       ?state_case_flag@?$output_processor@_WV?$string_output_adapter@_W@__crt_stdio_output@@V?$standard_base@_WV?$string_output_adapter@_W@__crt_stdio_output@@@2@@__crt_stdio_output@@AAE_NXZ 1005df10 f i libucrtd:output.obj
 0001:0005cfc0       ?state_case_normal@?$output_processor@DV?$stream_output_adapter@D@__crt_stdio_output@@V?$format_validation_base@DV?$stream_output_adapter@D@__crt_stdio_output@@@2@@__crt_stdio_output@@AAE_NXZ 1005dfc0 f i libucrtd:output.obj
 0001:0005d080       ?state_case_normal@?$output_processor@DV?$stream_output_adapter@D@__crt_stdio_output@@V?$positional_parameter_base@DV?$stream_output_adapter@D@__crt_stdio_output@@@2@@__crt_stdio_output@@AAE_NXZ 1005e080 f i libucrtd:output.obj
 0001:0005d140       ?state_case_normal@?$output_processor@DV?$stream_output_adapter@D@__crt_stdio_output@@V?$standard_base@DV?$stream_output_adapter@D@__crt_stdio_output@@@2@@__crt_stdio_output@@AAE_NXZ 1005e140 f i libucrtd:output.obj
 0001:0005d200       ?state_case_normal@?$output_processor@DV?$string_output_adapter@D@__crt_stdio_output@@V?$format_validation_base@DV?$string_output_adapter@D@__crt_stdio_output@@@2@@__crt_stdio_output@@AAE_NXZ 1005e200 f i libucrtd:output.obj
 0001:0005d2c0       ?state_case_normal@?$output_processor@DV?$string_output_adapter@D@__crt_stdio_output@@V?$positional_parameter_base@DV?$string_output_adapter@D@__crt_stdio_output@@@2@@__crt_stdio_output@@AAE_NXZ 1005e2c0 f i libucrtd:output.obj
 0001:0005d380       ?state_case_normal@?$output_processor@DV?$string_output_adapter@D@__crt_stdio_output@@V?$standard_base@DV?$string_output_adapter@D@__crt_stdio_output@@@2@@__crt_stdio_output@@AAE_NXZ 1005e380 f i libucrtd:output.obj
 0001:0005d440       ?state_case_normal@?$output_processor@_WV?$stream_output_adapter@_W@__crt_stdio_output@@V?$format_validation_base@_WV?$stream_output_adapter@_W@__crt_stdio_output@@@2@@__crt_stdio_output@@AAE_NXZ 1005e440 f i libucrtd:output.obj
 0001:0005d500       ?state_case_normal@?$output_processor@_WV?$stream_output_adapter@_W@__crt_stdio_output@@V?$positional_parameter_base@_WV?$stream_output_adapter@_W@__crt_stdio_output@@@2@@__crt_stdio_output@@AAE_NXZ 1005e500 f i libucrtd:output.obj
 0001:0005d5c0       ?state_case_normal@?$output_processor@_WV?$stream_output_adapter@_W@__crt_stdio_output@@V?$standard_base@_WV?$stream_output_adapter@_W@__crt_stdio_output@@@2@@__crt_stdio_output@@AAE_NXZ 1005e5c0 f i libucrtd:output.obj
 0001:0005d680       ?state_case_normal@?$output_processor@_WV?$string_output_adapter@_W@__crt_stdio_output@@V?$format_validation_base@_WV?$string_output_adapter@_W@__crt_stdio_output@@@2@@__crt_stdio_output@@AAE_NXZ 1005e680 f i libucrtd:output.obj
 0001:0005d740       ?state_case_normal@?$output_processor@_WV?$string_output_adapter@_W@__crt_stdio_output@@V?$positional_parameter_base@_WV?$string_output_adapter@_W@__crt_stdio_output@@@2@@__crt_stdio_output@@AAE_NXZ 1005e740 f i libucrtd:output.obj
 0001:0005d800       ?state_case_normal@?$output_processor@_WV?$string_output_adapter@_W@__crt_stdio_output@@V?$standard_base@_WV?$string_output_adapter@_W@__crt_stdio_output@@@2@@__crt_stdio_output@@AAE_NXZ 1005e800 f i libucrtd:output.obj
 0001:0005d8c0       ?state_case_normal_common@?$output_processor@DV?$stream_output_adapter@D@__crt_stdio_output@@V?$format_validation_base@DV?$stream_output_adapter@D@__crt_stdio_output@@@2@@__crt_stdio_output@@AAE_NXZ 1005e8c0 f i libucrtd:output.obj
 0001:0005d910       ?state_case_normal_common@?$output_processor@DV?$stream_output_adapter@D@__crt_stdio_output@@V?$positional_parameter_base@DV?$stream_output_adapter@D@__crt_stdio_output@@@2@@__crt_stdio_output@@AAE_NXZ 1005e910 f i libucrtd:output.obj
 0001:0005d960       ?state_case_normal_common@?$output_processor@DV?$stream_output_adapter@D@__crt_stdio_output@@V?$standard_base@DV?$stream_output_adapter@D@__crt_stdio_output@@@2@@__crt_stdio_output@@AAE_NXZ 1005e960 f i libucrtd:output.obj
 0001:0005d9b0       ?state_case_normal_common@?$output_processor@DV?$string_output_adapter@D@__crt_stdio_output@@V?$format_validation_base@DV?$string_output_adapter@D@__crt_stdio_output@@@2@@__crt_stdio_output@@AAE_NXZ 1005e9b0 f i libucrtd:output.obj
 0001:0005da00       ?state_case_normal_common@?$output_processor@DV?$string_output_adapter@D@__crt_stdio_output@@V?$positional_parameter_base@DV?$string_output_adapter@D@__crt_stdio_output@@@2@@__crt_stdio_output@@AAE_NXZ 1005ea00 f i libucrtd:output.obj
 0001:0005da50       ?state_case_normal_common@?$output_processor@DV?$string_output_adapter@D@__crt_stdio_output@@V?$standard_base@DV?$string_output_adapter@D@__crt_stdio_output@@@2@@__crt_stdio_output@@AAE_NXZ 1005ea50 f i libucrtd:output.obj
 0001:0005daa0       ?state_case_normal_common@?$output_processor@_WV?$stream_output_adapter@_W@__crt_stdio_output@@V?$format_validation_base@_WV?$stream_output_adapter@_W@__crt_stdio_output@@@2@@__crt_stdio_output@@AAE_NXZ 1005eaa0 f i libucrtd:output.obj
 0001:0005daf0       ?state_case_normal_common@?$output_processor@_WV?$stream_output_adapter@_W@__crt_stdio_output@@V?$positional_parameter_base@_WV?$stream_output_adapter@_W@__crt_stdio_output@@@2@@__crt_stdio_output@@AAE_NXZ 1005eaf0 f i libucrtd:output.obj
 0001:0005db40       ?state_case_normal_common@?$output_processor@_WV?$stream_output_adapter@_W@__crt_stdio_output@@V?$standard_base@_WV?$stream_output_adapter@_W@__crt_stdio_output@@@2@@__crt_stdio_output@@AAE_NXZ 1005eb40 f i libucrtd:output.obj
 0001:0005db90       ?state_case_normal_common@?$output_processor@_WV?$string_output_adapter@_W@__crt_stdio_output@@V?$format_validation_base@_WV?$string_output_adapter@_W@__crt_stdio_output@@@2@@__crt_stdio_output@@AAE_NXZ 1005eb90 f i libucrtd:output.obj
 0001:0005dbe0       ?state_case_normal_common@?$output_processor@_WV?$string_output_adapter@_W@__crt_stdio_output@@V?$positional_parameter_base@_WV?$string_output_adapter@_W@__crt_stdio_output@@@2@@__crt_stdio_output@@AAE_NXZ 1005ebe0 f i libucrtd:output.obj
 0001:0005dc30       ?state_case_normal_common@?$output_processor@_WV?$string_output_adapter@_W@__crt_stdio_output@@V?$standard_base@_WV?$string_output_adapter@_W@__crt_stdio_output@@@2@@__crt_stdio_output@@AAE_NXZ 1005ec30 f i libucrtd:output.obj
 0001:0005dc80       ?state_case_normal_tchar@?$output_processor@DV?$stream_output_adapter@D@__crt_stdio_output@@V?$format_validation_base@DV?$stream_output_adapter@D@__crt_stdio_output@@@2@@__crt_stdio_output@@AAE_ND@Z 1005ec80 f i libucrtd:output.obj
 0001:0005ddb0       ?state_case_normal_tchar@?$output_processor@DV?$stream_output_adapter@D@__crt_stdio_output@@V?$positional_parameter_base@DV?$stream_output_adapter@D@__crt_stdio_output@@@2@@__crt_stdio_output@@AAE_ND@Z 1005edb0 f i libucrtd:output.obj
 0001:0005dee0       ?state_case_normal_tchar@?$output_processor@DV?$stream_output_adapter@D@__crt_stdio_output@@V?$standard_base@DV?$stream_output_adapter@D@__crt_stdio_output@@@2@@__crt_stdio_output@@AAE_ND@Z 1005eee0 f i libucrtd:output.obj
 0001:0005e010       ?state_case_normal_tchar@?$output_processor@DV?$string_output_adapter@D@__crt_stdio_output@@V?$format_validation_base@DV?$string_output_adapter@D@__crt_stdio_output@@@2@@__crt_stdio_output@@AAE_ND@Z 1005f010 f i libucrtd:output.obj
 0001:0005e140       ?state_case_normal_tchar@?$output_processor@DV?$string_output_adapter@D@__crt_stdio_output@@V?$positional_parameter_base@DV?$string_output_adapter@D@__crt_stdio_output@@@2@@__crt_stdio_output@@AAE_ND@Z 1005f140 f i libucrtd:output.obj
 0001:0005e270       ?state_case_normal_tchar@?$output_processor@DV?$string_output_adapter@D@__crt_stdio_output@@V?$standard_base@DV?$string_output_adapter@D@__crt_stdio_output@@@2@@__crt_stdio_output@@AAE_ND@Z 1005f270 f i libucrtd:output.obj
 0001:0005e3a0       ?state_case_normal_tchar@?$output_processor@_WV?$stream_output_adapter@_W@__crt_stdio_output@@V?$format_validation_base@_WV?$stream_output_adapter@_W@__crt_stdio_output@@@2@@__crt_stdio_output@@AAE_N_W@Z 1005f3a0 f i libucrtd:output.obj
 0001:0005e3c0       ?state_case_normal_tchar@?$output_processor@_WV?$stream_output_adapter@_W@__crt_stdio_output@@V?$positional_parameter_base@_WV?$stream_output_adapter@_W@__crt_stdio_output@@@2@@__crt_stdio_output@@AAE_N_W@Z 1005f3c0 f i libucrtd:output.obj
 0001:0005e3e0       ?state_case_normal_tchar@?$output_processor@_WV?$stream_output_adapter@_W@__crt_stdio_output@@V?$standard_base@_WV?$stream_output_adapter@_W@__crt_stdio_output@@@2@@__crt_stdio_output@@AAE_N_W@Z 1005f3e0 f i libucrtd:output.obj
 0001:0005e400       ?state_case_normal_tchar@?$output_processor@_WV?$string_output_adapter@_W@__crt_stdio_output@@V?$format_validation_base@_WV?$string_output_adapter@_W@__crt_stdio_output@@@2@@__crt_stdio_output@@AAE_N_W@Z 1005f400 f i libucrtd:output.obj
 0001:0005e420       ?state_case_normal_tchar@?$output_processor@_WV?$string_output_adapter@_W@__crt_stdio_output@@V?$positional_parameter_base@_WV?$string_output_adapter@_W@__crt_stdio_output@@@2@@__crt_stdio_output@@AAE_N_W@Z 1005f420 f i libucrtd:output.obj
 0001:0005e440       ?state_case_normal_tchar@?$output_processor@_WV?$string_output_adapter@_W@__crt_stdio_output@@V?$standard_base@_WV?$string_output_adapter@_W@__crt_stdio_output@@@2@@__crt_stdio_output@@AAE_N_W@Z 1005f440 f i libucrtd:output.obj
 0001:0005e460       ?state_case_percent@?$output_processor@DV?$stream_output_adapter@D@__crt_stdio_output@@V?$format_validation_base@DV?$stream_output_adapter@D@__crt_stdio_output@@@2@@__crt_stdio_output@@AAE_NXZ 1005f460 f i libucrtd:output.obj
 0001:0005e4b0       ?state_case_percent@?$output_processor@DV?$stream_output_adapter@D@__crt_stdio_output@@V?$positional_parameter_base@DV?$stream_output_adapter@D@__crt_stdio_output@@@2@@__crt_stdio_output@@AAE_NXZ 1005f4b0 f i libucrtd:output.obj
 0001:0005e500       ?state_case_percent@?$output_processor@DV?$stream_output_adapter@D@__crt_stdio_output@@V?$standard_base@DV?$stream_output_adapter@D@__crt_stdio_output@@@2@@__crt_stdio_output@@AAE_NXZ 1005f500 f i libucrtd:output.obj
 0001:0005e550       ?state_case_percent@?$output_processor@DV?$string_output_adapter@D@__crt_stdio_output@@V?$format_validation_base@DV?$string_output_adapter@D@__crt_stdio_output@@@2@@__crt_stdio_output@@AAE_NXZ 1005f550 f i libucrtd:output.obj
 0001:0005e5a0       ?state_case_percent@?$output_processor@DV?$string_output_adapter@D@__crt_stdio_output@@V?$positional_parameter_base@DV?$string_output_adapter@D@__crt_stdio_output@@@2@@__crt_stdio_output@@AAE_NXZ 1005f5a0 f i libucrtd:output.obj
 0001:0005e5f0       ?state_case_percent@?$output_processor@DV?$string_output_adapter@D@__crt_stdio_output@@V?$standard_base@DV?$string_output_adapter@D@__crt_stdio_output@@@2@@__crt_stdio_output@@AAE_NXZ 1005f5f0 f i libucrtd:output.obj
 0001:0005e640       ?state_case_percent@?$output_processor@_WV?$stream_output_adapter@_W@__crt_stdio_output@@V?$format_validation_base@_WV?$stream_output_adapter@_W@__crt_stdio_output@@@2@@__crt_stdio_output@@AAE_NXZ 1005f640 f i libucrtd:output.obj
 0001:0005e690       ?state_case_percent@?$output_processor@_WV?$stream_output_adapter@_W@__crt_stdio_output@@V?$positional_parameter_base@_WV?$stream_output_adapter@_W@__crt_stdio_output@@@2@@__crt_stdio_output@@AAE_NXZ 1005f690 f i libucrtd:output.obj
 0001:0005e6e0       ?state_case_percent@?$output_processor@_WV?$stream_output_adapter@_W@__crt_stdio_output@@V?$standard_base@_WV?$stream_output_adapter@_W@__crt_stdio_output@@@2@@__crt_stdio_output@@AAE_NXZ 1005f6e0 f i libucrtd:output.obj
 0001:0005e730       ?state_case_percent@?$output_processor@_WV?$string_output_adapter@_W@__crt_stdio_output@@V?$format_validation_base@_WV?$string_output_adapter@_W@__crt_stdio_output@@@2@@__crt_stdio_output@@AAE_NXZ 1005f730 f i libucrtd:output.obj
 0001:0005e780       ?state_case_percent@?$output_processor@_WV?$string_output_adapter@_W@__crt_stdio_output@@V?$positional_parameter_base@_WV?$string_output_adapter@_W@__crt_stdio_output@@@2@@__crt_stdio_output@@AAE_NXZ 1005f780 f i libucrtd:output.obj
 0001:0005e7d0       ?state_case_percent@?$output_processor@_WV?$string_output_adapter@_W@__crt_stdio_output@@V?$standard_base@_WV?$string_output_adapter@_W@__crt_stdio_output@@@2@@__crt_stdio_output@@AAE_NXZ 1005f7d0 f i libucrtd:output.obj
 0001:0005e820       ?state_case_precision@?$output_processor@DV?$stream_output_adapter@D@__crt_stdio_output@@V?$format_validation_base@DV?$stream_output_adapter@D@__crt_stdio_output@@@2@@__crt_stdio_output@@AAE_NXZ 1005f820 f i libucrtd:output.obj
 0001:0005e890       ?state_case_precision@?$output_processor@DV?$stream_output_adapter@D@__crt_stdio_output@@V?$positional_parameter_base@DV?$stream_output_adapter@D@__crt_stdio_output@@@2@@__crt_stdio_output@@AAE_NXZ 1005f890 f i libucrtd:output.obj
 0001:0005e900       ?state_case_precision@?$output_processor@DV?$stream_output_adapter@D@__crt_stdio_output@@V?$standard_base@DV?$stream_output_adapter@D@__crt_stdio_output@@@2@@__crt_stdio_output@@AAE_NXZ 1005f900 f i libucrtd:output.obj
 0001:0005e970       ?state_case_precision@?$output_processor@DV?$string_output_adapter@D@__crt_stdio_output@@V?$format_validation_base@DV?$string_output_adapter@D@__crt_stdio_output@@@2@@__crt_stdio_output@@AAE_NXZ 1005f970 f i libucrtd:output.obj
 0001:0005e9e0       ?state_case_precision@?$output_processor@DV?$string_output_adapter@D@__crt_stdio_output@@V?$positional_parameter_base@DV?$string_output_adapter@D@__crt_stdio_output@@@2@@__crt_stdio_output@@AAE_NXZ 1005f9e0 f i libucrtd:output.obj
 0001:0005ea50       ?state_case_precision@?$output_processor@DV?$string_output_adapter@D@__crt_stdio_output@@V?$standard_base@DV?$string_output_adapter@D@__crt_stdio_output@@@2@@__crt_stdio_output@@AAE_NXZ 1005fa50 f i libucrtd:output.obj
 0001:0005eac0       ?state_case_precision@?$output_processor@_WV?$stream_output_adapter@_W@__crt_stdio_output@@V?$format_validation_base@_WV?$stream_output_adapter@_W@__crt_stdio_output@@@2@@__crt_stdio_output@@AAE_NXZ 1005fac0 f i libucrtd:output.obj
 0001:0005eb30       ?state_case_precision@?$output_processor@_WV?$stream_output_adapter@_W@__crt_stdio_output@@V?$positional_parameter_base@_WV?$stream_output_adapter@_W@__crt_stdio_output@@@2@@__crt_stdio_output@@AAE_NXZ 1005fb30 f i libucrtd:output.obj
 0001:0005eba0       ?state_case_precision@?$output_processor@_WV?$stream_output_adapter@_W@__crt_stdio_output@@V?$standard_base@_WV?$stream_output_adapter@_W@__crt_stdio_output@@@2@@__crt_stdio_output@@AAE_NXZ 1005fba0 f i libucrtd:output.obj
 0001:0005ec10       ?state_case_precision@?$output_processor@_WV?$string_output_adapter@_W@__crt_stdio_output@@V?$format_validation_base@_WV?$string_output_adapter@_W@__crt_stdio_output@@@2@@__crt_stdio_output@@AAE_NXZ 1005fc10 f i libucrtd:output.obj
 0001:0005ec80       ?state_case_precision@?$output_processor@_WV?$string_output_adapter@_W@__crt_stdio_output@@V?$positional_parameter_base@_WV?$string_output_adapter@_W@__crt_stdio_output@@@2@@__crt_stdio_output@@AAE_NXZ 1005fc80 f i libucrtd:output.obj
 0001:0005ecf0       ?state_case_precision@?$output_processor@_WV?$string_output_adapter@_W@__crt_stdio_output@@V?$standard_base@_WV?$string_output_adapter@_W@__crt_stdio_output@@@2@@__crt_stdio_output@@AAE_NXZ 1005fcf0 f i libucrtd:output.obj
 0001:0005ed60       ?state_case_size@?$output_processor@DV?$stream_output_adapter@D@__crt_stdio_output@@V?$format_validation_base@DV?$stream_output_adapter@D@__crt_stdio_output@@@2@@__crt_stdio_output@@AAE_NXZ 1005fd60 f i libucrtd:output.obj
 0001:0005f150       ?state_case_size@?$output_processor@DV?$stream_output_adapter@D@__crt_stdio_output@@V?$positional_parameter_base@DV?$stream_output_adapter@D@__crt_stdio_output@@@2@@__crt_stdio_output@@AAE_NXZ 10060150 f i libucrtd:output.obj
 0001:0005f540       ?state_case_size@?$output_processor@DV?$stream_output_adapter@D@__crt_stdio_output@@V?$standard_base@DV?$stream_output_adapter@D@__crt_stdio_output@@@2@@__crt_stdio_output@@AAE_NXZ 10060540 f i libucrtd:output.obj
 0001:0005f930       ?state_case_size@?$output_processor@DV?$string_output_adapter@D@__crt_stdio_output@@V?$format_validation_base@DV?$string_output_adapter@D@__crt_stdio_output@@@2@@__crt_stdio_output@@AAE_NXZ 10060930 f i libucrtd:output.obj
 0001:0005fd20       ?state_case_size@?$output_processor@DV?$string_output_adapter@D@__crt_stdio_output@@V?$positional_parameter_base@DV?$string_output_adapter@D@__crt_stdio_output@@@2@@__crt_stdio_output@@AAE_NXZ 10060d20 f i libucrtd:output.obj
 0001:00060110       ?state_case_size@?$output_processor@DV?$string_output_adapter@D@__crt_stdio_output@@V?$standard_base@DV?$string_output_adapter@D@__crt_stdio_output@@@2@@__crt_stdio_output@@AAE_NXZ 10061110 f i libucrtd:output.obj
 0001:00060500       ?state_case_size@?$output_processor@_WV?$stream_output_adapter@_W@__crt_stdio_output@@V?$format_validation_base@_WV?$stream_output_adapter@_W@__crt_stdio_output@@@2@@__crt_stdio_output@@AAE_NXZ 10061500 f i libucrtd:output.obj
 0001:000608f0       ?state_case_size@?$output_processor@_WV?$stream_output_adapter@_W@__crt_stdio_output@@V?$positional_parameter_base@_WV?$stream_output_adapter@_W@__crt_stdio_output@@@2@@__crt_stdio_output@@AAE_NXZ 100618f0 f i libucrtd:output.obj
 0001:00060ce0       ?state_case_size@?$output_processor@_WV?$stream_output_adapter@_W@__crt_stdio_output@@V?$standard_base@_WV?$stream_output_adapter@_W@__crt_stdio_output@@@2@@__crt_stdio_output@@AAE_NXZ 10061ce0 f i libucrtd:output.obj
 0001:000610d0       ?state_case_size@?$output_processor@_WV?$string_output_adapter@_W@__crt_stdio_output@@V?$format_validation_base@_WV?$string_output_adapter@_W@__crt_stdio_output@@@2@@__crt_stdio_output@@AAE_NXZ 100620d0 f i libucrtd:output.obj
 0001:000614c0       ?state_case_size@?$output_processor@_WV?$string_output_adapter@_W@__crt_stdio_output@@V?$positional_parameter_base@_WV?$string_output_adapter@_W@__crt_stdio_output@@@2@@__crt_stdio_output@@AAE_NXZ 100624c0 f i libucrtd:output.obj
 0001:000618b0       ?state_case_size@?$output_processor@_WV?$string_output_adapter@_W@__crt_stdio_output@@V?$standard_base@_WV?$string_output_adapter@_W@__crt_stdio_output@@@2@@__crt_stdio_output@@AAE_NXZ 100628b0 f i libucrtd:output.obj
 0001:00061ca0       ?state_case_type@?$output_processor@DV?$stream_output_adapter@D@__crt_stdio_output@@V?$format_validation_base@DV?$stream_output_adapter@D@__crt_stdio_output@@@2@@__crt_stdio_output@@AAE_NXZ 10062ca0 f i libucrtd:output.obj
 0001:00062070       ?state_case_type@?$output_processor@DV?$stream_output_adapter@D@__crt_stdio_output@@V?$positional_parameter_base@DV?$stream_output_adapter@D@__crt_stdio_output@@@2@@__crt_stdio_output@@AAE_NXZ 10063070 f i libucrtd:output.obj
 0001:00062440       ?state_case_type@?$output_processor@DV?$stream_output_adapter@D@__crt_stdio_output@@V?$standard_base@DV?$stream_output_adapter@D@__crt_stdio_output@@@2@@__crt_stdio_output@@AAE_NXZ 10063440 f i libucrtd:output.obj
 0001:00062810       ?state_case_type@?$output_processor@DV?$string_output_adapter@D@__crt_stdio_output@@V?$format_validation_base@DV?$string_output_adapter@D@__crt_stdio_output@@@2@@__crt_stdio_output@@AAE_NXZ 10063810 f i libucrtd:output.obj
 0001:00062be0       ?state_case_type@?$output_processor@DV?$string_output_adapter@D@__crt_stdio_output@@V?$positional_parameter_base@DV?$string_output_adapter@D@__crt_stdio_output@@@2@@__crt_stdio_output@@AAE_NXZ 10063be0 f i libucrtd:output.obj
 0001:00062fb0       ?state_case_type@?$output_processor@DV?$string_output_adapter@D@__crt_stdio_output@@V?$standard_base@DV?$string_output_adapter@D@__crt_stdio_output@@@2@@__crt_stdio_output@@AAE_NXZ 10063fb0 f i libucrtd:output.obj
 0001:00063380       ?state_case_type@?$output_processor@_WV?$stream_output_adapter@_W@__crt_stdio_output@@V?$format_validation_base@_WV?$stream_output_adapter@_W@__crt_stdio_output@@@2@@__crt_stdio_output@@AAE_NXZ 10064380 f i libucrtd:output.obj
 0001:00063780       ?state_case_type@?$output_processor@_WV?$stream_output_adapter@_W@__crt_stdio_output@@V?$positional_parameter_base@_WV?$stream_output_adapter@_W@__crt_stdio_output@@@2@@__crt_stdio_output@@AAE_NXZ 10064780 f i libucrtd:output.obj
 0001:00063b80       ?state_case_type@?$output_processor@_WV?$stream_output_adapter@_W@__crt_stdio_output@@V?$standard_base@_WV?$stream_output_adapter@_W@__crt_stdio_output@@@2@@__crt_stdio_output@@AAE_NXZ 10064b80 f i libucrtd:output.obj
 0001:00063f80       ?state_case_type@?$output_processor@_WV?$string_output_adapter@_W@__crt_stdio_output@@V?$format_validation_base@_WV?$string_output_adapter@_W@__crt_stdio_output@@@2@@__crt_stdio_output@@AAE_NXZ 10064f80 f i libucrtd:output.obj
 0001:00064380       ?state_case_type@?$output_processor@_WV?$string_output_adapter@_W@__crt_stdio_output@@V?$positional_parameter_base@_WV?$string_output_adapter@_W@__crt_stdio_output@@@2@@__crt_stdio_output@@AAE_NXZ 10065380 f i libucrtd:output.obj
 0001:00064780       ?state_case_type@?$output_processor@_WV?$string_output_adapter@_W@__crt_stdio_output@@V?$standard_base@_WV?$string_output_adapter@_W@__crt_stdio_output@@@2@@__crt_stdio_output@@AAE_NXZ 10065780 f i libucrtd:output.obj
 0001:00064b80       ?state_case_width@?$output_processor@DV?$stream_output_adapter@D@__crt_stdio_output@@V?$format_validation_base@DV?$stream_output_adapter@D@__crt_stdio_output@@@2@@__crt_stdio_output@@AAE_NXZ 10065b80 f i libucrtd:output.obj
 0001:00064c00       ?state_case_width@?$output_processor@DV?$stream_output_adapter@D@__crt_stdio_output@@V?$positional_parameter_base@DV?$stream_output_adapter@D@__crt_stdio_output@@@2@@__crt_stdio_output@@AAE_NXZ 10065c00 f i libucrtd:output.obj
 0001:00064c80       ?state_case_width@?$output_processor@DV?$stream_output_adapter@D@__crt_stdio_output@@V?$standard_base@DV?$stream_output_adapter@D@__crt_stdio_output@@@2@@__crt_stdio_output@@AAE_NXZ 10065c80 f i libucrtd:output.obj
 0001:00064d00       ?state_case_width@?$output_processor@DV?$string_output_adapter@D@__crt_stdio_output@@V?$format_validation_base@DV?$string_output_adapter@D@__crt_stdio_output@@@2@@__crt_stdio_output@@AAE_NXZ 10065d00 f i libucrtd:output.obj
 0001:00064d80       ?state_case_width@?$output_processor@DV?$string_output_adapter@D@__crt_stdio_output@@V?$positional_parameter_base@DV?$string_output_adapter@D@__crt_stdio_output@@@2@@__crt_stdio_output@@AAE_NXZ 10065d80 f i libucrtd:output.obj
 0001:00064e00       ?state_case_width@?$output_processor@DV?$string_output_adapter@D@__crt_stdio_output@@V?$standard_base@DV?$string_output_adapter@D@__crt_stdio_output@@@2@@__crt_stdio_output@@AAE_NXZ 10065e00 f i libucrtd:output.obj
 0001:00064e80       ?state_case_width@?$output_processor@_WV?$stream_output_adapter@_W@__crt_stdio_output@@V?$format_validation_base@_WV?$stream_output_adapter@_W@__crt_stdio_output@@@2@@__crt_stdio_output@@AAE_NXZ 10065e80 f i libucrtd:output.obj
 0001:00064f00       ?state_case_width@?$output_processor@_WV?$stream_output_adapter@_W@__crt_stdio_output@@V?$positional_parameter_base@_WV?$stream_output_adapter@_W@__crt_stdio_output@@@2@@__crt_stdio_output@@AAE_NXZ 10065f00 f i libucrtd:output.obj
 0001:00064f80       ?state_case_width@?$output_processor@_WV?$stream_output_adapter@_W@__crt_stdio_output@@V?$standard_base@_WV?$stream_output_adapter@_W@__crt_stdio_output@@@2@@__crt_stdio_output@@AAE_NXZ 10065f80 f i libucrtd:output.obj
 0001:00065000       ?state_case_width@?$output_processor@_WV?$string_output_adapter@_W@__crt_stdio_output@@V?$format_validation_base@_WV?$string_output_adapter@_W@__crt_stdio_output@@@2@@__crt_stdio_output@@AAE_NXZ 10066000 f i libucrtd:output.obj
 0001:00065080       ?state_case_width@?$output_processor@_WV?$string_output_adapter@_W@__crt_stdio_output@@V?$positional_parameter_base@_WV?$string_output_adapter@_W@__crt_stdio_output@@@2@@__crt_stdio_output@@AAE_NXZ 10066080 f i libucrtd:output.obj
 0001:00065100       ?state_case_width@?$output_processor@_WV?$string_output_adapter@_W@__crt_stdio_output@@V?$standard_base@_WV?$string_output_adapter@_W@__crt_stdio_output@@@2@@__crt_stdio_output@@AAE_NXZ 10066100 f i libucrtd:output.obj
 0001:00065180       ?state_count@?$format_validation_base@DV?$stream_output_adapter@D@__crt_stdio_output@@@__crt_stdio_output@@KAIXZ 10066180 f i libucrtd:output.obj
 0001:00065190       ?state_count@?$format_validation_base@DV?$string_output_adapter@D@__crt_stdio_output@@@__crt_stdio_output@@KAIXZ 10066190 f i libucrtd:output.obj
 0001:000651a0       ?state_count@?$format_validation_base@_WV?$stream_output_adapter@_W@__crt_stdio_output@@@__crt_stdio_output@@KAIXZ 100661a0 f i libucrtd:output.obj
 0001:000651b0       ?state_count@?$format_validation_base@_WV?$string_output_adapter@_W@__crt_stdio_output@@@__crt_stdio_output@@KAIXZ 100661b0 f i libucrtd:output.obj
 0001:000651c0       ?state_count@?$standard_base@DV?$stream_output_adapter@D@__crt_stdio_output@@@__crt_stdio_output@@KAIXZ 100661c0 f i libucrtd:output.obj
 0001:000651d0       ?state_count@?$standard_base@DV?$string_output_adapter@D@__crt_stdio_output@@@__crt_stdio_output@@KAIXZ 100661d0 f i libucrtd:output.obj
 0001:000651e0       ?state_count@?$standard_base@_WV?$stream_output_adapter@_W@__crt_stdio_output@@@__crt_stdio_output@@KAIXZ 100661e0 f i libucrtd:output.obj
 0001:000651f0       ?state_count@?$standard_base@_WV?$string_output_adapter@_W@__crt_stdio_output@@@__crt_stdio_output@@KAIXZ 100661f0 f i libucrtd:output.obj
 0001:00065200       ?state_transition_table@?$format_validation_base@DV?$stream_output_adapter@D@__crt_stdio_output@@@__crt_stdio_output@@KAABV?$spectre_mitigated_lookup_table@Ustate_transition_pair@__crt_stdio_output@@$0IA@@2@XZ 10066200 f i libucrtd:output.obj
 0001:00065210       ?state_transition_table@?$format_validation_base@DV?$string_output_adapter@D@__crt_stdio_output@@@__crt_stdio_output@@KAABV?$spectre_mitigated_lookup_table@Ustate_transition_pair@__crt_stdio_output@@$0IA@@2@XZ 10066210 f i libucrtd:output.obj
 0001:00065220       ?state_transition_table@?$format_validation_base@_WV?$stream_output_adapter@_W@__crt_stdio_output@@@__crt_stdio_output@@KAABV?$spectre_mitigated_lookup_table@Ustate_transition_pair@__crt_stdio_output@@$0IA@@2@XZ 10066220 f i libucrtd:output.obj
 0001:00065230       ?state_transition_table@?$format_validation_base@_WV?$string_output_adapter@_W@__crt_stdio_output@@@__crt_stdio_output@@KAABV?$spectre_mitigated_lookup_table@Ustate_transition_pair@__crt_stdio_output@@$0IA@@2@XZ 10066230 f i libucrtd:output.obj
 0001:00065240       ?state_transition_table@?$standard_base@DV?$stream_output_adapter@D@__crt_stdio_output@@@__crt_stdio_output@@KAABV?$spectre_mitigated_lookup_table@Ustate_transition_pair@__crt_stdio_output@@$0IA@@2@XZ 10066240 f i libucrtd:output.obj
 0001:00065250       ?state_transition_table@?$standard_base@DV?$string_output_adapter@D@__crt_stdio_output@@@__crt_stdio_output@@KAABV?$spectre_mitigated_lookup_table@Ustate_transition_pair@__crt_stdio_output@@$0IA@@2@XZ 10066250 f i libucrtd:output.obj
 0001:00065260       ?state_transition_table@?$standard_base@_WV?$stream_output_adapter@_W@__crt_stdio_output@@@__crt_stdio_output@@KAABV?$spectre_mitigated_lookup_table@Ustate_transition_pair@__crt_stdio_output@@$0IA@@2@XZ 10066260 f i libucrtd:output.obj
 0001:00065270       ?state_transition_table@?$standard_base@_WV?$string_output_adapter@_W@__crt_stdio_output@@@__crt_stdio_output@@KAABV?$spectre_mitigated_lookup_table@Ustate_transition_pair@__crt_stdio_output@@$0IA@@2@XZ 10066270 f i libucrtd:output.obj
 0001:00065280       ?tchar_string@?$common_data@D@__crt_stdio_output@@IAEAAPADD@Z 10066280 f i libucrtd:output.obj
 0001:000652a0       ?tchar_string@?$common_data@D@__crt_stdio_output@@IAEAAPADXZ 100662a0 f i libucrtd:output.obj
 0001:000652c0       ?tchar_string@?$common_data@_W@__crt_stdio_output@@IAEAAPA_WXZ 100662c0 f i libucrtd:output.obj
 0001:000652e0       ?tchar_string@?$common_data@_W@__crt_stdio_output@@IAEAAPA_W_W@Z 100662e0 f i libucrtd:output.obj
 0001:00065300       ?to_integer_size@__crt_stdio_output@@YAIW4length_modifier@1@@Z 10066300 f i libucrtd:output.obj
 0001:000653a0       ?type_case_X@?$output_processor@DV?$stream_output_adapter@D@__crt_stdio_output@@V?$format_validation_base@DV?$stream_output_adapter@D@__crt_stdio_output@@@2@@__crt_stdio_output@@AAE_NXZ 100663a0 f i libucrtd:output.obj
 0001:000653c0       ?type_case_X@?$output_processor@DV?$stream_output_adapter@D@__crt_stdio_output@@V?$positional_parameter_base@DV?$stream_output_adapter@D@__crt_stdio_output@@@2@@__crt_stdio_output@@AAE_NXZ 100663c0 f i libucrtd:output.obj
 0001:000653e0       ?type_case_X@?$output_processor@DV?$stream_output_adapter@D@__crt_stdio_output@@V?$standard_base@DV?$stream_output_adapter@D@__crt_stdio_output@@@2@@__crt_stdio_output@@AAE_NXZ 100663e0 f i libucrtd:output.obj
 0001:00065400       ?type_case_X@?$output_processor@DV?$string_output_adapter@D@__crt_stdio_output@@V?$format_validation_base@DV?$string_output_adapter@D@__crt_stdio_output@@@2@@__crt_stdio_output@@AAE_NXZ 10066400 f i libucrtd:output.obj
 0001:00065420       ?type_case_X@?$output_processor@DV?$string_output_adapter@D@__crt_stdio_output@@V?$positional_parameter_base@DV?$string_output_adapter@D@__crt_stdio_output@@@2@@__crt_stdio_output@@AAE_NXZ 10066420 f i libucrtd:output.obj
 0001:00065440       ?type_case_X@?$output_processor@DV?$string_output_adapter@D@__crt_stdio_output@@V?$standard_base@DV?$string_output_adapter@D@__crt_stdio_output@@@2@@__crt_stdio_output@@AAE_NXZ 10066440 f i libucrtd:output.obj
 0001:00065460       ?type_case_X@?$output_processor@_WV?$stream_output_adapter@_W@__crt_stdio_output@@V?$format_validation_base@_WV?$stream_output_adapter@_W@__crt_stdio_output@@@2@@__crt_stdio_output@@AAE_NXZ 10066460 f i libucrtd:output.obj
 0001:00065480       ?type_case_X@?$output_processor@_WV?$stream_output_adapter@_W@__crt_stdio_output@@V?$positional_parameter_base@_WV?$stream_output_adapter@_W@__crt_stdio_output@@@2@@__crt_stdio_output@@AAE_NXZ 10066480 f i libucrtd:output.obj
 0001:000654a0       ?type_case_X@?$output_processor@_WV?$stream_output_adapter@_W@__crt_stdio_output@@V?$standard_base@_WV?$stream_output_adapter@_W@__crt_stdio_output@@@2@@__crt_stdio_output@@AAE_NXZ 100664a0 f i libucrtd:output.obj
 0001:000654c0       ?type_case_X@?$output_processor@_WV?$string_output_adapter@_W@__crt_stdio_output@@V?$format_validation_base@_WV?$string_output_adapter@_W@__crt_stdio_output@@@2@@__crt_stdio_output@@AAE_NXZ 100664c0 f i libucrtd:output.obj
 0001:000654e0       ?type_case_X@?$output_processor@_WV?$string_output_adapter@_W@__crt_stdio_output@@V?$positional_parameter_base@_WV?$string_output_adapter@_W@__crt_stdio_output@@@2@@__crt_stdio_output@@AAE_NXZ 100664e0 f i libucrtd:output.obj
 0001:00065500       ?type_case_X@?$output_processor@_WV?$string_output_adapter@_W@__crt_stdio_output@@V?$standard_base@_WV?$string_output_adapter@_W@__crt_stdio_output@@@2@@__crt_stdio_output@@AAE_NXZ 10066500 f i libucrtd:output.obj
 0001:00065520       ?type_case_Z@?$output_processor@DV?$stream_output_adapter@D@__crt_stdio_output@@V?$format_validation_base@DV?$stream_output_adapter@D@__crt_stdio_output@@@2@@__crt_stdio_output@@AAE_NXZ 10066520 f i libucrtd:output.obj
 0001:00065610       ?type_case_Z@?$output_processor@DV?$stream_output_adapter@D@__crt_stdio_output@@V?$positional_parameter_base@DV?$stream_output_adapter@D@__crt_stdio_output@@@2@@__crt_stdio_output@@AAE_NXZ 10066610 f i libucrtd:output.obj
 0001:00065700       ?type_case_Z@?$output_processor@DV?$stream_output_adapter@D@__crt_stdio_output@@V?$standard_base@DV?$stream_output_adapter@D@__crt_stdio_output@@@2@@__crt_stdio_output@@AAE_NXZ 10066700 f i libucrtd:output.obj
 0001:000657f0       ?type_case_Z@?$output_processor@DV?$string_output_adapter@D@__crt_stdio_output@@V?$format_validation_base@DV?$string_output_adapter@D@__crt_stdio_output@@@2@@__crt_stdio_output@@AAE_NXZ 100667f0 f i libucrtd:output.obj
 0001:000658e0       ?type_case_Z@?$output_processor@DV?$string_output_adapter@D@__crt_stdio_output@@V?$positional_parameter_base@DV?$string_output_adapter@D@__crt_stdio_output@@@2@@__crt_stdio_output@@AAE_NXZ 100668e0 f i libucrtd:output.obj
 0001:000659d0       ?type_case_Z@?$output_processor@DV?$string_output_adapter@D@__crt_stdio_output@@V?$standard_base@DV?$string_output_adapter@D@__crt_stdio_output@@@2@@__crt_stdio_output@@AAE_NXZ 100669d0 f i libucrtd:output.obj
 0001:00065ac0       ?type_case_Z@?$output_processor@_WV?$stream_output_adapter@_W@__crt_stdio_output@@V?$format_validation_base@_WV?$stream_output_adapter@_W@__crt_stdio_output@@@2@@__crt_stdio_output@@AAE_NXZ 10066ac0 f i libucrtd:output.obj
 0001:00065bb0       ?type_case_Z@?$output_processor@_WV?$stream_output_adapter@_W@__crt_stdio_output@@V?$positional_parameter_base@_WV?$stream_output_adapter@_W@__crt_stdio_output@@@2@@__crt_stdio_output@@AAE_NXZ 10066bb0 f i libucrtd:output.obj
 0001:00065ca0       ?type_case_Z@?$output_processor@_WV?$stream_output_adapter@_W@__crt_stdio_output@@V?$standard_base@_WV?$stream_output_adapter@_W@__crt_stdio_output@@@2@@__crt_stdio_output@@AAE_NXZ 10066ca0 f i libucrtd:output.obj
 0001:00065d90       ?type_case_Z@?$output_processor@_WV?$string_output_adapter@_W@__crt_stdio_output@@V?$format_validation_base@_WV?$string_output_adapter@_W@__crt_stdio_output@@@2@@__crt_stdio_output@@AAE_NXZ 10066d90 f i libucrtd:output.obj
 0001:00065e80       ?type_case_Z@?$output_processor@_WV?$string_output_adapter@_W@__crt_stdio_output@@V?$positional_parameter_base@_WV?$string_output_adapter@_W@__crt_stdio_output@@@2@@__crt_stdio_output@@AAE_NXZ 10066e80 f i libucrtd:output.obj
 0001:00065f70       ?type_case_Z@?$output_processor@_WV?$string_output_adapter@_W@__crt_stdio_output@@V?$standard_base@_WV?$string_output_adapter@_W@__crt_stdio_output@@@2@@__crt_stdio_output@@AAE_NXZ 10066f70 f i libucrtd:output.obj
 0001:00066060       ?type_case_a@?$output_processor@DV?$stream_output_adapter@D@__crt_stdio_output@@V?$format_validation_base@DV?$stream_output_adapter@D@__crt_stdio_output@@@2@@__crt_stdio_output@@AAE_NXZ 10067060 f i libucrtd:output.obj
 0001:00066330       ?type_case_a@?$output_processor@DV?$stream_output_adapter@D@__crt_stdio_output@@V?$positional_parameter_base@DV?$stream_output_adapter@D@__crt_stdio_output@@@2@@__crt_stdio_output@@AAE_NXZ 10067330 f i libucrtd:output.obj
 0001:00066600       ?type_case_a@?$output_processor@DV?$stream_output_adapter@D@__crt_stdio_output@@V?$standard_base@DV?$stream_output_adapter@D@__crt_stdio_output@@@2@@__crt_stdio_output@@AAE_NXZ 10067600 f i libucrtd:output.obj
 0001:000668d0       ?type_case_a@?$output_processor@DV?$string_output_adapter@D@__crt_stdio_output@@V?$format_validation_base@DV?$string_output_adapter@D@__crt_stdio_output@@@2@@__crt_stdio_output@@AAE_NXZ 100678d0 f i libucrtd:output.obj
 0001:00066ba0       ?type_case_a@?$output_processor@DV?$string_output_adapter@D@__crt_stdio_output@@V?$positional_parameter_base@DV?$string_output_adapter@D@__crt_stdio_output@@@2@@__crt_stdio_output@@AAE_NXZ 10067ba0 f i libucrtd:output.obj
 0001:00066e70       ?type_case_a@?$output_processor@DV?$string_output_adapter@D@__crt_stdio_output@@V?$standard_base@DV?$string_output_adapter@D@__crt_stdio_output@@@2@@__crt_stdio_output@@AAE_NXZ 10067e70 f i libucrtd:output.obj
 0001:00067140       ?type_case_a@?$output_processor@_WV?$stream_output_adapter@_W@__crt_stdio_output@@V?$format_validation_base@_WV?$stream_output_adapter@_W@__crt_stdio_output@@@2@@__crt_stdio_output@@AAE_NXZ 10068140 f i libucrtd:output.obj
 0001:00067410       ?type_case_a@?$output_processor@_WV?$stream_output_adapter@_W@__crt_stdio_output@@V?$positional_parameter_base@_WV?$stream_output_adapter@_W@__crt_stdio_output@@@2@@__crt_stdio_output@@AAE_NXZ 10068410 f i libucrtd:output.obj
 0001:000676e0       ?type_case_a@?$output_processor@_WV?$stream_output_adapter@_W@__crt_stdio_output@@V?$standard_base@_WV?$stream_output_adapter@_W@__crt_stdio_output@@@2@@__crt_stdio_output@@AAE_NXZ 100686e0 f i libucrtd:output.obj
 0001:000679b0       ?type_case_a@?$output_processor@_WV?$string_output_adapter@_W@__crt_stdio_output@@V?$format_validation_base@_WV?$string_output_adapter@_W@__crt_stdio_output@@@2@@__crt_stdio_output@@AAE_NXZ 100689b0 f i libucrtd:output.obj
 0001:00067c80       ?type_case_a@?$output_processor@_WV?$string_output_adapter@_W@__crt_stdio_output@@V?$positional_parameter_base@_WV?$string_output_adapter@_W@__crt_stdio_output@@@2@@__crt_stdio_output@@AAE_NXZ 10068c80 f i libucrtd:output.obj
 0001:00067f50       ?type_case_a@?$output_processor@_WV?$string_output_adapter@_W@__crt_stdio_output@@V?$standard_base@_WV?$string_output_adapter@_W@__crt_stdio_output@@@2@@__crt_stdio_output@@AAE_NXZ 10068f50 f i libucrtd:output.obj
 0001:00068220       ?type_case_c@?$output_processor@DV?$stream_output_adapter@D@__crt_stdio_output@@V?$format_validation_base@DV?$stream_output_adapter@D@__crt_stdio_output@@@2@@__crt_stdio_output@@AAE_NXZ 10069220 f i libucrtd:output.obj
 0001:00068240       ?type_case_c@?$output_processor@DV?$stream_output_adapter@D@__crt_stdio_output@@V?$positional_parameter_base@DV?$stream_output_adapter@D@__crt_stdio_output@@@2@@__crt_stdio_output@@AAE_NXZ 10069240 f i libucrtd:output.obj
 0001:00068260       ?type_case_c@?$output_processor@DV?$stream_output_adapter@D@__crt_stdio_output@@V?$standard_base@DV?$stream_output_adapter@D@__crt_stdio_output@@@2@@__crt_stdio_output@@AAE_NXZ 10069260 f i libucrtd:output.obj
 0001:00068280       ?type_case_c@?$output_processor@DV?$string_output_adapter@D@__crt_stdio_output@@V?$format_validation_base@DV?$string_output_adapter@D@__crt_stdio_output@@@2@@__crt_stdio_output@@AAE_NXZ 10069280 f i libucrtd:output.obj
 0001:000682a0       ?type_case_c@?$output_processor@DV?$string_output_adapter@D@__crt_stdio_output@@V?$positional_parameter_base@DV?$string_output_adapter@D@__crt_stdio_output@@@2@@__crt_stdio_output@@AAE_NXZ 100692a0 f i libucrtd:output.obj
 0001:000682c0       ?type_case_c@?$output_processor@DV?$string_output_adapter@D@__crt_stdio_output@@V?$standard_base@DV?$string_output_adapter@D@__crt_stdio_output@@@2@@__crt_stdio_output@@AAE_NXZ 100692c0 f i libucrtd:output.obj
 0001:000682e0       ?type_case_c@?$output_processor@_WV?$stream_output_adapter@_W@__crt_stdio_output@@V?$format_validation_base@_WV?$stream_output_adapter@_W@__crt_stdio_output@@@2@@__crt_stdio_output@@AAE_NXZ 100692e0 f i libucrtd:output.obj
 0001:00068300       ?type_case_c@?$output_processor@_WV?$stream_output_adapter@_W@__crt_stdio_output@@V?$positional_parameter_base@_WV?$stream_output_adapter@_W@__crt_stdio_output@@@2@@__crt_stdio_output@@AAE_NXZ 10069300 f i libucrtd:output.obj
 0001:00068320       ?type_case_c@?$output_processor@_WV?$stream_output_adapter@_W@__crt_stdio_output@@V?$standard_base@_WV?$stream_output_adapter@_W@__crt_stdio_output@@@2@@__crt_stdio_output@@AAE_NXZ 10069320 f i libucrtd:output.obj
 0001:00068340       ?type_case_c@?$output_processor@_WV?$string_output_adapter@_W@__crt_stdio_output@@V?$format_validation_base@_WV?$string_output_adapter@_W@__crt_stdio_output@@@2@@__crt_stdio_output@@AAE_NXZ 10069340 f i libucrtd:output.obj
 0001:00068360       ?type_case_c@?$output_processor@_WV?$string_output_adapter@_W@__crt_stdio_output@@V?$positional_parameter_base@_WV?$string_output_adapter@_W@__crt_stdio_output@@@2@@__crt_stdio_output@@AAE_NXZ 10069360 f i libucrtd:output.obj
 0001:00068380       ?type_case_c@?$output_processor@_WV?$string_output_adapter@_W@__crt_stdio_output@@V?$standard_base@_WV?$string_output_adapter@_W@__crt_stdio_output@@@2@@__crt_stdio_output@@AAE_NXZ 10069380 f i libucrtd:output.obj
 0001:000683a0       ?type_case_c_tchar@?$output_processor@DV?$stream_output_adapter@D@__crt_stdio_output@@V?$format_validation_base@DV?$stream_output_adapter@D@__crt_stdio_output@@@2@@__crt_stdio_output@@AAE_ND@Z 100693a0 f i libucrtd:output.obj
 0001:000684d0       ?type_case_c_tchar@?$output_processor@DV?$stream_output_adapter@D@__crt_stdio_output@@V?$positional_parameter_base@DV?$stream_output_adapter@D@__crt_stdio_output@@@2@@__crt_stdio_output@@AAE_ND@Z 100694d0 f i libucrtd:output.obj
 0001:00068600       ?type_case_c_tchar@?$output_processor@DV?$stream_output_adapter@D@__crt_stdio_output@@V?$standard_base@DV?$stream_output_adapter@D@__crt_stdio_output@@@2@@__crt_stdio_output@@AAE_ND@Z 10069600 f i libucrtd:output.obj
 0001:00068730       ?type_case_c_tchar@?$output_processor@DV?$string_output_adapter@D@__crt_stdio_output@@V?$format_validation_base@DV?$string_output_adapter@D@__crt_stdio_output@@@2@@__crt_stdio_output@@AAE_ND@Z 10069730 f i libucrtd:output.obj
 0001:00068860       ?type_case_c_tchar@?$output_processor@DV?$string_output_adapter@D@__crt_stdio_output@@V?$positional_parameter_base@DV?$string_output_adapter@D@__crt_stdio_output@@@2@@__crt_stdio_output@@AAE_ND@Z 10069860 f i libucrtd:output.obj
 0001:00068990       ?type_case_c_tchar@?$output_processor@DV?$string_output_adapter@D@__crt_stdio_output@@V?$standard_base@DV?$string_output_adapter@D@__crt_stdio_output@@@2@@__crt_stdio_output@@AAE_ND@Z 10069990 f i libucrtd:output.obj
 0001:00068ac0       ?type_case_c_tchar@?$output_processor@_WV?$stream_output_adapter@_W@__crt_stdio_output@@V?$format_validation_base@_WV?$stream_output_adapter@_W@__crt_stdio_output@@@2@@__crt_stdio_output@@AAE_N_W@Z 10069ac0 f i libucrtd:output.obj
 0001:00068be0       ?type_case_c_tchar@?$output_processor@_WV?$stream_output_adapter@_W@__crt_stdio_output@@V?$positional_parameter_base@_WV?$stream_output_adapter@_W@__crt_stdio_output@@@2@@__crt_stdio_output@@AAE_N_W@Z 10069be0 f i libucrtd:output.obj
 0001:00068d00       ?type_case_c_tchar@?$output_processor@_WV?$stream_output_adapter@_W@__crt_stdio_output@@V?$standard_base@_WV?$stream_output_adapter@_W@__crt_stdio_output@@@2@@__crt_stdio_output@@AAE_N_W@Z 10069d00 f i libucrtd:output.obj
 0001:00068e20       ?type_case_c_tchar@?$output_processor@_WV?$string_output_adapter@_W@__crt_stdio_output@@V?$format_validation_base@_WV?$string_output_adapter@_W@__crt_stdio_output@@@2@@__crt_stdio_output@@AAE_N_W@Z 10069e20 f i libucrtd:output.obj
 0001:00068f40       ?type_case_c_tchar@?$output_processor@_WV?$string_output_adapter@_W@__crt_stdio_output@@V?$positional_parameter_base@_WV?$string_output_adapter@_W@__crt_stdio_output@@@2@@__crt_stdio_output@@AAE_N_W@Z 10069f40 f i libucrtd:output.obj
 0001:00069060       ?type_case_c_tchar@?$output_processor@_WV?$string_output_adapter@_W@__crt_stdio_output@@V?$standard_base@_WV?$string_output_adapter@_W@__crt_stdio_output@@@2@@__crt_stdio_output@@AAE_N_W@Z 1006a060 f i libucrtd:output.obj
 0001:00069180       ?type_case_d@?$output_processor@DV?$stream_output_adapter@D@__crt_stdio_output@@V?$format_validation_base@DV?$stream_output_adapter@D@__crt_stdio_output@@@2@@__crt_stdio_output@@AAE_NXZ 1006a180 f i libucrtd:output.obj
 0001:000691b0       ?type_case_d@?$output_processor@DV?$stream_output_adapter@D@__crt_stdio_output@@V?$positional_parameter_base@DV?$stream_output_adapter@D@__crt_stdio_output@@@2@@__crt_stdio_output@@AAE_NXZ 1006a1b0 f i libucrtd:output.obj
 0001:000691e0       ?type_case_d@?$output_processor@DV?$stream_output_adapter@D@__crt_stdio_output@@V?$standard_base@DV?$stream_output_adapter@D@__crt_stdio_output@@@2@@__crt_stdio_output@@AAE_NXZ 1006a1e0 f i libucrtd:output.obj
 0001:00069210       ?type_case_d@?$output_processor@DV?$string_output_adapter@D@__crt_stdio_output@@V?$format_validation_base@DV?$string_output_adapter@D@__crt_stdio_output@@@2@@__crt_stdio_output@@AAE_NXZ 1006a210 f i libucrtd:output.obj
 0001:00069240       ?type_case_d@?$output_processor@DV?$string_output_adapter@D@__crt_stdio_output@@V?$positional_parameter_base@DV?$string_output_adapter@D@__crt_stdio_output@@@2@@__crt_stdio_output@@AAE_NXZ 1006a240 f i libucrtd:output.obj
 0001:00069270       ?type_case_d@?$output_processor@DV?$string_output_adapter@D@__crt_stdio_output@@V?$standard_base@DV?$string_output_adapter@D@__crt_stdio_output@@@2@@__crt_stdio_output@@AAE_NXZ 1006a270 f i libucrtd:output.obj
 0001:000692a0       ?type_case_d@?$output_processor@_WV?$stream_output_adapter@_W@__crt_stdio_output@@V?$format_validation_base@_WV?$stream_output_adapter@_W@__crt_stdio_output@@@2@@__crt_stdio_output@@AAE_NXZ 1006a2a0 f i libucrtd:output.obj
 0001:000692d0       ?type_case_d@?$output_processor@_WV?$stream_output_adapter@_W@__crt_stdio_output@@V?$positional_parameter_base@_WV?$stream_output_adapter@_W@__crt_stdio_output@@@2@@__crt_stdio_output@@AAE_NXZ 1006a2d0 f i libucrtd:output.obj
 0001:00069300       ?type_case_d@?$output_processor@_WV?$stream_output_adapter@_W@__crt_stdio_output@@V?$standard_base@_WV?$stream_output_adapter@_W@__crt_stdio_output@@@2@@__crt_stdio_output@@AAE_NXZ 1006a300 f i libucrtd:output.obj
 0001:00069330       ?type_case_d@?$output_processor@_WV?$string_output_adapter@_W@__crt_stdio_output@@V?$format_validation_base@_WV?$string_output_adapter@_W@__crt_stdio_output@@@2@@__crt_stdio_output@@AAE_NXZ 1006a330 f i libucrtd:output.obj
 0001:00069360       ?type_case_d@?$output_processor@_WV?$string_output_adapter@_W@__crt_stdio_output@@V?$positional_parameter_base@_WV?$string_output_adapter@_W@__crt_stdio_output@@@2@@__crt_stdio_output@@AAE_NXZ 1006a360 f i libucrtd:output.obj
 0001:00069390       ?type_case_d@?$output_processor@_WV?$string_output_adapter@_W@__crt_stdio_output@@V?$standard_base@_WV?$string_output_adapter@_W@__crt_stdio_output@@@2@@__crt_stdio_output@@AAE_NXZ 1006a390 f i libucrtd:output.obj
 0001:000693c0       ?type_case_n@?$output_processor@DV?$stream_output_adapter@D@__crt_stdio_output@@V?$format_validation_base@DV?$stream_output_adapter@D@__crt_stdio_output@@@2@@__crt_stdio_output@@AAE_NXZ 1006a3c0 f i libucrtd:output.obj
 0001:000695e0       ?type_case_n@?$output_processor@DV?$stream_output_adapter@D@__crt_stdio_output@@V?$positional_parameter_base@DV?$stream_output_adapter@D@__crt_stdio_output@@@2@@__crt_stdio_output@@AAE_NXZ 1006a5e0 f i libucrtd:output.obj
 0001:00069800       ?type_case_n@?$output_processor@DV?$stream_output_adapter@D@__crt_stdio_output@@V?$standard_base@DV?$stream_output_adapter@D@__crt_stdio_output@@@2@@__crt_stdio_output@@AAE_NXZ 1006a800 f i libucrtd:output.obj
 0001:00069a20       ?type_case_n@?$output_processor@DV?$string_output_adapter@D@__crt_stdio_output@@V?$format_validation_base@DV?$string_output_adapter@D@__crt_stdio_output@@@2@@__crt_stdio_output@@AAE_NXZ 1006aa20 f i libucrtd:output.obj
 0001:00069c40       ?type_case_n@?$output_processor@DV?$string_output_adapter@D@__crt_stdio_output@@V?$positional_parameter_base@DV?$string_output_adapter@D@__crt_stdio_output@@@2@@__crt_stdio_output@@AAE_NXZ 1006ac40 f i libucrtd:output.obj
 0001:00069e60       ?type_case_n@?$output_processor@DV?$string_output_adapter@D@__crt_stdio_output@@V?$standard_base@DV?$string_output_adapter@D@__crt_stdio_output@@@2@@__crt_stdio_output@@AAE_NXZ 1006ae60 f i libucrtd:output.obj
 0001:0006a080       ?type_case_n@?$output_processor@_WV?$stream_output_adapter@_W@__crt_stdio_output@@V?$format_validation_base@_WV?$stream_output_adapter@_W@__crt_stdio_output@@@2@@__crt_stdio_output@@AAE_NXZ 1006b080 f i libucrtd:output.obj
 0001:0006a2a0       ?type_case_n@?$output_processor@_WV?$stream_output_adapter@_W@__crt_stdio_output@@V?$positional_parameter_base@_WV?$stream_output_adapter@_W@__crt_stdio_output@@@2@@__crt_stdio_output@@AAE_NXZ 1006b2a0 f i libucrtd:output.obj
 0001:0006a4c0       ?type_case_n@?$output_processor@_WV?$stream_output_adapter@_W@__crt_stdio_output@@V?$standard_base@_WV?$stream_output_adapter@_W@__crt_stdio_output@@@2@@__crt_stdio_output@@AAE_NXZ 1006b4c0 f i libucrtd:output.obj
 0001:0006a6e0       ?type_case_n@?$output_processor@_WV?$string_output_adapter@_W@__crt_stdio_output@@V?$format_validation_base@_WV?$string_output_adapter@_W@__crt_stdio_output@@@2@@__crt_stdio_output@@AAE_NXZ 1006b6e0 f i libucrtd:output.obj
 0001:0006a900       ?type_case_n@?$output_processor@_WV?$string_output_adapter@_W@__crt_stdio_output@@V?$positional_parameter_base@_WV?$string_output_adapter@_W@__crt_stdio_output@@@2@@__crt_stdio_output@@AAE_NXZ 1006b900 f i libucrtd:output.obj
 0001:0006ab20       ?type_case_n@?$output_processor@_WV?$string_output_adapter@_W@__crt_stdio_output@@V?$standard_base@_WV?$string_output_adapter@_W@__crt_stdio_output@@@2@@__crt_stdio_output@@AAE_NXZ 1006bb20 f i libucrtd:output.obj
 0001:0006ad40       ?type_case_o@?$output_processor@DV?$stream_output_adapter@D@__crt_stdio_output@@V?$format_validation_base@DV?$stream_output_adapter@D@__crt_stdio_output@@@2@@__crt_stdio_output@@AAE_NXZ 1006bd40 f i libucrtd:output.obj
 0001:0006ad80       ?type_case_o@?$output_processor@DV?$stream_output_adapter@D@__crt_stdio_output@@V?$positional_parameter_base@DV?$stream_output_adapter@D@__crt_stdio_output@@@2@@__crt_stdio_output@@AAE_NXZ 1006bd80 f i libucrtd:output.obj
 0001:0006adc0       ?type_case_o@?$output_processor@DV?$stream_output_adapter@D@__crt_stdio_output@@V?$standard_base@DV?$stream_output_adapter@D@__crt_stdio_output@@@2@@__crt_stdio_output@@AAE_NXZ 1006bdc0 f i libucrtd:output.obj
 0001:0006ae00       ?type_case_o@?$output_processor@DV?$string_output_adapter@D@__crt_stdio_output@@V?$format_validation_base@DV?$string_output_adapter@D@__crt_stdio_output@@@2@@__crt_stdio_output@@AAE_NXZ 1006be00 f i libucrtd:output.obj
 0001:0006ae40       ?type_case_o@?$output_processor@DV?$string_output_adapter@D@__crt_stdio_output@@V?$positional_parameter_base@DV?$string_output_adapter@D@__crt_stdio_output@@@2@@__crt_stdio_output@@AAE_NXZ 1006be40 f i libucrtd:output.obj
 0001:0006ae80       ?type_case_o@?$output_processor@DV?$string_output_adapter@D@__crt_stdio_output@@V?$standard_base@DV?$string_output_adapter@D@__crt_stdio_output@@@2@@__crt_stdio_output@@AAE_NXZ 1006be80 f i libucrtd:output.obj
 0001:0006aec0       ?type_case_o@?$output_processor@_WV?$stream_output_adapter@_W@__crt_stdio_output@@V?$format_validation_base@_WV?$stream_output_adapter@_W@__crt_stdio_output@@@2@@__crt_stdio_output@@AAE_NXZ 1006bec0 f i libucrtd:output.obj
 0001:0006af00       ?type_case_o@?$output_processor@_WV?$stream_output_adapter@_W@__crt_stdio_output@@V?$positional_parameter_base@_WV?$stream_output_adapter@_W@__crt_stdio_output@@@2@@__crt_stdio_output@@AAE_NXZ 1006bf00 f i libucrtd:output.obj
 0001:0006af40       ?type_case_o@?$output_processor@_WV?$stream_output_adapter@_W@__crt_stdio_output@@V?$standard_base@_WV?$stream_output_adapter@_W@__crt_stdio_output@@@2@@__crt_stdio_output@@AAE_NXZ 1006bf40 f i libucrtd:output.obj
 0001:0006af80       ?type_case_o@?$output_processor@_WV?$string_output_adapter@_W@__crt_stdio_output@@V?$format_validation_base@_WV?$string_output_adapter@_W@__crt_stdio_output@@@2@@__crt_stdio_output@@AAE_NXZ 1006bf80 f i libucrtd:output.obj
 0001:0006afc0       ?type_case_o@?$output_processor@_WV?$string_output_adapter@_W@__crt_stdio_output@@V?$positional_parameter_base@_WV?$string_output_adapter@_W@__crt_stdio_output@@@2@@__crt_stdio_output@@AAE_NXZ 1006bfc0 f i libucrtd:output.obj
 0001:0006b000       ?type_case_o@?$output_processor@_WV?$string_output_adapter@_W@__crt_stdio_output@@V?$standard_base@_WV?$string_output_adapter@_W@__crt_stdio_output@@@2@@__crt_stdio_output@@AAE_NXZ 1006c000 f i libucrtd:output.obj
 0001:0006b040       ?type_case_p@?$output_processor@DV?$stream_output_adapter@D@__crt_stdio_output@@V?$format_validation_base@DV?$stream_output_adapter@D@__crt_stdio_output@@@2@@__crt_stdio_output@@AAE_NXZ 1006c040 f i libucrtd:output.obj
 0001:0006b070       ?type_case_p@?$output_processor@DV?$stream_output_adapter@D@__crt_stdio_output@@V?$positional_parameter_base@DV?$stream_output_adapter@D@__crt_stdio_output@@@2@@__crt_stdio_output@@AAE_NXZ 1006c070 f i libucrtd:output.obj
 0001:0006b0a0       ?type_case_p@?$output_processor@DV?$stream_output_adapter@D@__crt_stdio_output@@V?$standard_base@DV?$stream_output_adapter@D@__crt_stdio_output@@@2@@__crt_stdio_output@@AAE_NXZ 1006c0a0 f i libucrtd:output.obj
 0001:0006b0d0       ?type_case_p@?$output_processor@DV?$string_output_adapter@D@__crt_stdio_output@@V?$format_validation_base@DV?$string_output_adapter@D@__crt_stdio_output@@@2@@__crt_stdio_output@@AAE_NXZ 1006c0d0 f i libucrtd:output.obj
 0001:0006b100       ?type_case_p@?$output_processor@DV?$string_output_adapter@D@__crt_stdio_output@@V?$positional_parameter_base@DV?$string_output_adapter@D@__crt_stdio_output@@@2@@__crt_stdio_output@@AAE_NXZ 1006c100 f i libucrtd:output.obj
 0001:0006b130       ?type_case_p@?$output_processor@DV?$string_output_adapter@D@__crt_stdio_output@@V?$standard_base@DV?$string_output_adapter@D@__crt_stdio_output@@@2@@__crt_stdio_output@@AAE_NXZ 1006c130 f i libucrtd:output.obj
 0001:0006b160       ?type_case_p@?$output_processor@_WV?$stream_output_adapter@_W@__crt_stdio_output@@V?$format_validation_base@_WV?$stream_output_adapter@_W@__crt_stdio_output@@@2@@__crt_stdio_output@@AAE_NXZ 1006c160 f i libucrtd:output.obj
 0001:0006b190       ?type_case_p@?$output_processor@_WV?$stream_output_adapter@_W@__crt_stdio_output@@V?$positional_parameter_base@_WV?$stream_output_adapter@_W@__crt_stdio_output@@@2@@__crt_stdio_output@@AAE_NXZ 1006c190 f i libucrtd:output.obj
 0001:0006b1c0       ?type_case_p@?$output_processor@_WV?$stream_output_adapter@_W@__crt_stdio_output@@V?$standard_base@_WV?$stream_output_adapter@_W@__crt_stdio_output@@@2@@__crt_stdio_output@@AAE_NXZ 1006c1c0 f i libucrtd:output.obj
 0001:0006b1f0       ?type_case_p@?$output_processor@_WV?$string_output_adapter@_W@__crt_stdio_output@@V?$format_validation_base@_WV?$string_output_adapter@_W@__crt_stdio_output@@@2@@__crt_stdio_output@@AAE_NXZ 1006c1f0 f i libucrtd:output.obj
 0001:0006b220       ?type_case_p@?$output_processor@_WV?$string_output_adapter@_W@__crt_stdio_output@@V?$positional_parameter_base@_WV?$string_output_adapter@_W@__crt_stdio_output@@@2@@__crt_stdio_output@@AAE_NXZ 1006c220 f i libucrtd:output.obj
 0001:0006b250       ?type_case_p@?$output_processor@_WV?$string_output_adapter@_W@__crt_stdio_output@@V?$standard_base@_WV?$string_output_adapter@_W@__crt_stdio_output@@@2@@__crt_stdio_output@@AAE_NXZ 1006c250 f i libucrtd:output.obj
 0001:0006b280       ?type_case_s@?$output_processor@DV?$stream_output_adapter@D@__crt_stdio_output@@V?$format_validation_base@DV?$stream_output_adapter@D@__crt_stdio_output@@@2@@__crt_stdio_output@@AAE_NXZ 1006c280 f i libucrtd:output.obj
 0001:0006b370       ?type_case_s@?$output_processor@DV?$stream_output_adapter@D@__crt_stdio_output@@V?$positional_parameter_base@DV?$stream_output_adapter@D@__crt_stdio_output@@@2@@__crt_stdio_output@@AAE_NXZ 1006c370 f i libucrtd:output.obj
 0001:0006b460       ?type_case_s@?$output_processor@DV?$stream_output_adapter@D@__crt_stdio_output@@V?$standard_base@DV?$stream_output_adapter@D@__crt_stdio_output@@@2@@__crt_stdio_output@@AAE_NXZ 1006c460 f i libucrtd:output.obj
 0001:0006b550       ?type_case_s@?$output_processor@DV?$string_output_adapter@D@__crt_stdio_output@@V?$format_validation_base@DV?$string_output_adapter@D@__crt_stdio_output@@@2@@__crt_stdio_output@@AAE_NXZ 1006c550 f i libucrtd:output.obj
 0001:0006b640       ?type_case_s@?$output_processor@DV?$string_output_adapter@D@__crt_stdio_output@@V?$positional_parameter_base@DV?$string_output_adapter@D@__crt_stdio_output@@@2@@__crt_stdio_output@@AAE_NXZ 1006c640 f i libucrtd:output.obj
 0001:0006b730       ?type_case_s@?$output_processor@DV?$string_output_adapter@D@__crt_stdio_output@@V?$standard_base@DV?$string_output_adapter@D@__crt_stdio_output@@@2@@__crt_stdio_output@@AAE_NXZ 1006c730 f i libucrtd:output.obj
 0001:0006b820       ?type_case_s@?$output_processor@_WV?$stream_output_adapter@_W@__crt_stdio_output@@V?$format_validation_base@_WV?$stream_output_adapter@_W@__crt_stdio_output@@@2@@__crt_stdio_output@@AAE_NXZ 1006c820 f i libucrtd:output.obj
 0001:0006b910       ?type_case_s@?$output_processor@_WV?$stream_output_adapter@_W@__crt_stdio_output@@V?$positional_parameter_base@_WV?$stream_output_adapter@_W@__crt_stdio_output@@@2@@__crt_stdio_output@@AAE_NXZ 1006c910 f i libucrtd:output.obj
 0001:0006ba00       ?type_case_s@?$output_processor@_WV?$stream_output_adapter@_W@__crt_stdio_output@@V?$standard_base@_WV?$stream_output_adapter@_W@__crt_stdio_output@@@2@@__crt_stdio_output@@AAE_NXZ 1006ca00 f i libucrtd:output.obj
 0001:0006baf0       ?type_case_s@?$output_processor@_WV?$string_output_adapter@_W@__crt_stdio_output@@V?$format_validation_base@_WV?$string_output_adapter@_W@__crt_stdio_output@@@2@@__crt_stdio_output@@AAE_NXZ 1006caf0 f i libucrtd:output.obj
 0001:0006bbe0       ?type_case_s@?$output_processor@_WV?$string_output_adapter@_W@__crt_stdio_output@@V?$positional_parameter_base@_WV?$string_output_adapter@_W@__crt_stdio_output@@@2@@__crt_stdio_output@@AAE_NXZ 1006cbe0 f i libucrtd:output.obj
 0001:0006bcd0       ?type_case_s@?$output_processor@_WV?$string_output_adapter@_W@__crt_stdio_output@@V?$standard_base@_WV?$string_output_adapter@_W@__crt_stdio_output@@@2@@__crt_stdio_output@@AAE_NXZ 1006ccd0 f i libucrtd:output.obj
 0001:0006bdc0       ?type_case_s_compute_narrow_string_length@?$output_processor@DV?$stream_output_adapter@D@__crt_stdio_output@@V?$format_validation_base@DV?$stream_output_adapter@D@__crt_stdio_output@@@2@@__crt_stdio_output@@AAEHHD@Z 1006cdc0 f i libucrtd:output.obj
 0001:0006bdf0       ?type_case_s_compute_narrow_string_length@?$output_processor@DV?$stream_output_adapter@D@__crt_stdio_output@@V?$positional_parameter_base@DV?$stream_output_adapter@D@__crt_stdio_output@@@2@@__crt_stdio_output@@AAEHHD@Z 1006cdf0 f i libucrtd:output.obj
 0001:0006be20       ?type_case_s_compute_narrow_string_length@?$output_processor@DV?$stream_output_adapter@D@__crt_stdio_output@@V?$standard_base@DV?$stream_output_adapter@D@__crt_stdio_output@@@2@@__crt_stdio_output@@AAEHHD@Z 1006ce20 f i libucrtd:output.obj
 0001:0006be50       ?type_case_s_compute_narrow_string_length@?$output_processor@DV?$string_output_adapter@D@__crt_stdio_output@@V?$format_validation_base@DV?$string_output_adapter@D@__crt_stdio_output@@@2@@__crt_stdio_output@@AAEHHD@Z 1006ce50 f i libucrtd:output.obj
 0001:0006be80       ?type_case_s_compute_narrow_string_length@?$output_processor@DV?$string_output_adapter@D@__crt_stdio_output@@V?$positional_parameter_base@DV?$string_output_adapter@D@__crt_stdio_output@@@2@@__crt_stdio_output@@AAEHHD@Z 1006ce80 f i libucrtd:output.obj
 0001:0006beb0       ?type_case_s_compute_narrow_string_length@?$output_processor@DV?$string_output_adapter@D@__crt_stdio_output@@V?$standard_base@DV?$string_output_adapter@D@__crt_stdio_output@@@2@@__crt_stdio_output@@AAEHHD@Z 1006ceb0 f i libucrtd:output.obj
 0001:0006bee0       ?type_case_s_compute_narrow_string_length@?$output_processor@_WV?$stream_output_adapter@_W@__crt_stdio_output@@V?$format_validation_base@_WV?$stream_output_adapter@_W@__crt_stdio_output@@@2@@__crt_stdio_output@@AAEHH_W@Z 1006cee0 f i libucrtd:output.obj
 0001:0006bf60       ?type_case_s_compute_narrow_string_length@?$output_processor@_WV?$stream_output_adapter@_W@__crt_stdio_output@@V?$positional_parameter_base@_WV?$stream_output_adapter@_W@__crt_stdio_output@@@2@@__crt_stdio_output@@AAEHH_W@Z 1006cf60 f i libucrtd:output.obj
 0001:0006bfe0       ?type_case_s_compute_narrow_string_length@?$output_processor@_WV?$stream_output_adapter@_W@__crt_stdio_output@@V?$standard_base@_WV?$stream_output_adapter@_W@__crt_stdio_output@@@2@@__crt_stdio_output@@AAEHH_W@Z 1006cfe0 f i libucrtd:output.obj
 0001:0006c060       ?type_case_s_compute_narrow_string_length@?$output_processor@_WV?$string_output_adapter@_W@__crt_stdio_output@@V?$format_validation_base@_WV?$string_output_adapter@_W@__crt_stdio_output@@@2@@__crt_stdio_output@@AAEHH_W@Z 1006d060 f i libucrtd:output.obj
 0001:0006c0e0       ?type_case_s_compute_narrow_string_length@?$output_processor@_WV?$string_output_adapter@_W@__crt_stdio_output@@V?$positional_parameter_base@_WV?$string_output_adapter@_W@__crt_stdio_output@@@2@@__crt_stdio_output@@AAEHH_W@Z 1006d0e0 f i libucrtd:output.obj
 0001:0006c160       ?type_case_s_compute_narrow_string_length@?$output_processor@_WV?$string_output_adapter@_W@__crt_stdio_output@@V?$standard_base@_WV?$string_output_adapter@_W@__crt_stdio_output@@@2@@__crt_stdio_output@@AAEHH_W@Z 1006d160 f i libucrtd:output.obj
 0001:0006c1e0       ?type_case_u@?$output_processor@DV?$stream_output_adapter@D@__crt_stdio_output@@V?$format_validation_base@DV?$stream_output_adapter@D@__crt_stdio_output@@@2@@__crt_stdio_output@@AAE_NXZ 1006d1e0 f i libucrtd:output.obj
 0001:0006c200       ?type_case_u@?$output_processor@DV?$stream_output_adapter@D@__crt_stdio_output@@V?$positional_parameter_base@DV?$stream_output_adapter@D@__crt_stdio_output@@@2@@__crt_stdio_output@@AAE_NXZ 1006d200 f i libucrtd:output.obj
 0001:0006c220       ?type_case_u@?$output_processor@DV?$stream_output_adapter@D@__crt_stdio_output@@V?$standard_base@DV?$stream_output_adapter@D@__crt_stdio_output@@@2@@__crt_stdio_output@@AAE_NXZ 1006d220 f i libucrtd:output.obj
 0001:0006c240       ?type_case_u@?$output_processor@DV?$string_output_adapter@D@__crt_stdio_output@@V?$format_validation_base@DV?$string_output_adapter@D@__crt_stdio_output@@@2@@__crt_stdio_output@@AAE_NXZ 1006d240 f i libucrtd:output.obj
 0001:0006c260       ?type_case_u@?$output_processor@DV?$string_output_adapter@D@__crt_stdio_output@@V?$positional_parameter_base@DV?$string_output_adapter@D@__crt_stdio_output@@@2@@__crt_stdio_output@@AAE_NXZ 1006d260 f i libucrtd:output.obj
 0001:0006c280       ?type_case_u@?$output_processor@DV?$string_output_adapter@D@__crt_stdio_output@@V?$standard_base@DV?$string_output_adapter@D@__crt_stdio_output@@@2@@__crt_stdio_output@@AAE_NXZ 1006d280 f i libucrtd:output.obj
 0001:0006c2a0       ?type_case_u@?$output_processor@_WV?$stream_output_adapter@_W@__crt_stdio_output@@V?$format_validation_base@_WV?$stream_output_adapter@_W@__crt_stdio_output@@@2@@__crt_stdio_output@@AAE_NXZ 1006d2a0 f i libucrtd:output.obj
 0001:0006c2c0       ?type_case_u@?$output_processor@_WV?$stream_output_adapter@_W@__crt_stdio_output@@V?$positional_parameter_base@_WV?$stream_output_adapter@_W@__crt_stdio_output@@@2@@__crt_stdio_output@@AAE_NXZ 1006d2c0 f i libucrtd:output.obj
 0001:0006c2e0       ?type_case_u@?$output_processor@_WV?$stream_output_adapter@_W@__crt_stdio_output@@V?$standard_base@_WV?$stream_output_adapter@_W@__crt_stdio_output@@@2@@__crt_stdio_output@@AAE_NXZ 1006d2e0 f i libucrtd:output.obj
 0001:0006c300       ?type_case_u@?$output_processor@_WV?$string_output_adapter@_W@__crt_stdio_output@@V?$format_validation_base@_WV?$string_output_adapter@_W@__crt_stdio_output@@@2@@__crt_stdio_output@@AAE_NXZ 1006d300 f i libucrtd:output.obj
 0001:0006c320       ?type_case_u@?$output_processor@_WV?$string_output_adapter@_W@__crt_stdio_output@@V?$positional_parameter_base@_WV?$string_output_adapter@_W@__crt_stdio_output@@@2@@__crt_stdio_output@@AAE_NXZ 1006d320 f i libucrtd:output.obj
 0001:0006c340       ?type_case_u@?$output_processor@_WV?$string_output_adapter@_W@__crt_stdio_output@@V?$standard_base@_WV?$string_output_adapter@_W@__crt_stdio_output@@@2@@__crt_stdio_output@@AAE_NXZ 1006d340 f i libucrtd:output.obj
 0001:0006c360       ?type_case_x@?$output_processor@DV?$stream_output_adapter@D@__crt_stdio_output@@V?$format_validation_base@DV?$stream_output_adapter@D@__crt_stdio_output@@@2@@__crt_stdio_output@@AAE_NXZ 1006d360 f i libucrtd:output.obj
 0001:0006c380       ?type_case_x@?$output_processor@DV?$stream_output_adapter@D@__crt_stdio_output@@V?$positional_parameter_base@DV?$stream_output_adapter@D@__crt_stdio_output@@@2@@__crt_stdio_output@@AAE_NXZ 1006d380 f i libucrtd:output.obj
 0001:0006c3a0       ?type_case_x@?$output_processor@DV?$stream_output_adapter@D@__crt_stdio_output@@V?$standard_base@DV?$stream_output_adapter@D@__crt_stdio_output@@@2@@__crt_stdio_output@@AAE_NXZ 1006d3a0 f i libucrtd:output.obj
 0001:0006c3c0       ?type_case_x@?$output_processor@DV?$string_output_adapter@D@__crt_stdio_output@@V?$format_validation_base@DV?$string_output_adapter@D@__crt_stdio_output@@@2@@__crt_stdio_output@@AAE_NXZ 1006d3c0 f i libucrtd:output.obj
 0001:0006c3e0       ?type_case_x@?$output_processor@DV?$string_output_adapter@D@__crt_stdio_output@@V?$positional_parameter_base@DV?$string_output_adapter@D@__crt_stdio_output@@@2@@__crt_stdio_output@@AAE_NXZ 1006d3e0 f i libucrtd:output.obj
 0001:0006c400       ?type_case_x@?$output_processor@DV?$string_output_adapter@D@__crt_stdio_output@@V?$standard_base@DV?$string_output_adapter@D@__crt_stdio_output@@@2@@__crt_stdio_output@@AAE_NXZ 1006d400 f i libucrtd:output.obj
 0001:0006c420       ?type_case_x@?$output_processor@_WV?$stream_output_adapter@_W@__crt_stdio_output@@V?$format_validation_base@_WV?$stream_output_adapter@_W@__crt_stdio_output@@@2@@__crt_stdio_output@@AAE_NXZ 1006d420 f i libucrtd:output.obj
 0001:0006c440       ?type_case_x@?$output_processor@_WV?$stream_output_adapter@_W@__crt_stdio_output@@V?$positional_parameter_base@_WV?$stream_output_adapter@_W@__crt_stdio_output@@@2@@__crt_stdio_output@@AAE_NXZ 1006d440 f i libucrtd:output.obj
 0001:0006c460       ?type_case_x@?$output_processor@_WV?$stream_output_adapter@_W@__crt_stdio_output@@V?$standard_base@_WV?$stream_output_adapter@_W@__crt_stdio_output@@@2@@__crt_stdio_output@@AAE_NXZ 1006d460 f i libucrtd:output.obj
 0001:0006c480       ?type_case_x@?$output_processor@_WV?$string_output_adapter@_W@__crt_stdio_output@@V?$format_validation_base@_WV?$string_output_adapter@_W@__crt_stdio_output@@@2@@__crt_stdio_output@@AAE_NXZ 1006d480 f i libucrtd:output.obj
 0001:0006c4a0       ?type_case_x@?$output_processor@_WV?$string_output_adapter@_W@__crt_stdio_output@@V?$positional_parameter_base@_WV?$string_output_adapter@_W@__crt_stdio_output@@@2@@__crt_stdio_output@@AAE_NXZ 1006d4a0 f i libucrtd:output.obj
 0001:0006c4c0       ?type_case_x@?$output_processor@_WV?$string_output_adapter@_W@__crt_stdio_output@@V?$standard_base@_WV?$string_output_adapter@_W@__crt_stdio_output@@@2@@__crt_stdio_output@@AAE_NXZ 1006d4c0 f i libucrtd:output.obj
 0001:0006c4e0       ?unget@?$c_string_character_source@D@__crt_strtox@@QAEXD@Z 1006d4e0 f i libucrtd:output.obj
 0001:0006c590       ?unget@?$c_string_character_source@_W@__crt_strtox@@QAEX_W@Z 1006d590 f i libucrtd:output.obj
 0001:0006c640       ?unsafe_value@?$cached@H@__crt_cached_ptd_host@@QAEHXZ 1006d640 f i libucrtd:output.obj
 0001:0006c660       ?unsafe_value@?$cached@K@__crt_cached_ptd_host@@QAEKXZ 1006d660 f i libucrtd:output.obj
 0001:0006c680       ?unset_flag@?$output_processor@DV?$stream_output_adapter@D@__crt_stdio_output@@V?$format_validation_base@DV?$stream_output_adapter@D@__crt_stdio_output@@@2@@__crt_stdio_output@@AAEXI@Z 1006d680 f i libucrtd:output.obj
 0001:0006c6a0       ?unset_flag@?$output_processor@DV?$stream_output_adapter@D@__crt_stdio_output@@V?$positional_parameter_base@DV?$stream_output_adapter@D@__crt_stdio_output@@@2@@__crt_stdio_output@@AAEXI@Z 1006d6a0 f i libucrtd:output.obj
 0001:0006c6c0       ?unset_flag@?$output_processor@DV?$stream_output_adapter@D@__crt_stdio_output@@V?$standard_base@DV?$stream_output_adapter@D@__crt_stdio_output@@@2@@__crt_stdio_output@@AAEXI@Z 1006d6c0 f i libucrtd:output.obj
 0001:0006c6e0       ?unset_flag@?$output_processor@DV?$string_output_adapter@D@__crt_stdio_output@@V?$format_validation_base@DV?$string_output_adapter@D@__crt_stdio_output@@@2@@__crt_stdio_output@@AAEXI@Z 1006d6e0 f i libucrtd:output.obj
 0001:0006c700       ?unset_flag@?$output_processor@DV?$string_output_adapter@D@__crt_stdio_output@@V?$positional_parameter_base@DV?$string_output_adapter@D@__crt_stdio_output@@@2@@__crt_stdio_output@@AAEXI@Z 1006d700 f i libucrtd:output.obj
 0001:0006c720       ?unset_flag@?$output_processor@DV?$string_output_adapter@D@__crt_stdio_output@@V?$standard_base@DV?$string_output_adapter@D@__crt_stdio_output@@@2@@__crt_stdio_output@@AAEXI@Z 1006d720 f i libucrtd:output.obj
 0001:0006c740       ?unset_flag@?$output_processor@_WV?$stream_output_adapter@_W@__crt_stdio_output@@V?$format_validation_base@_WV?$stream_output_adapter@_W@__crt_stdio_output@@@2@@__crt_stdio_output@@AAEXI@Z 1006d740 f i libucrtd:output.obj
 0001:0006c760       ?unset_flag@?$output_processor@_WV?$stream_output_adapter@_W@__crt_stdio_output@@V?$positional_parameter_base@_WV?$stream_output_adapter@_W@__crt_stdio_output@@@2@@__crt_stdio_output@@AAEXI@Z 1006d760 f i libucrtd:output.obj
 0001:0006c780       ?unset_flag@?$output_processor@_WV?$stream_output_adapter@_W@__crt_stdio_output@@V?$standard_base@_WV?$stream_output_adapter@_W@__crt_stdio_output@@@2@@__crt_stdio_output@@AAEXI@Z 1006d780 f i libucrtd:output.obj
 0001:0006c7a0       ?unset_flag@?$output_processor@_WV?$string_output_adapter@_W@__crt_stdio_output@@V?$format_validation_base@_WV?$string_output_adapter@_W@__crt_stdio_output@@@2@@__crt_stdio_output@@AAEXI@Z 1006d7a0 f i libucrtd:output.obj
 0001:0006c7c0       ?unset_flag@?$output_processor@_WV?$string_output_adapter@_W@__crt_stdio_output@@V?$positional_parameter_base@_WV?$string_output_adapter@_W@__crt_stdio_output@@@2@@__crt_stdio_output@@AAEXI@Z 1006d7c0 f i libucrtd:output.obj
 0001:0006c7e0       ?unset_flag@?$output_processor@_WV?$string_output_adapter@_W@__crt_stdio_output@@V?$standard_base@_WV?$string_output_adapter@_W@__crt_stdio_output@@@2@@__crt_stdio_output@@AAEXI@Z 1006d7e0 f i libucrtd:output.obj
 0001:0006c800       ?update_field_width@?$positional_parameter_base@DV?$stream_output_adapter@D@__crt_stdio_output@@@__crt_stdio_output@@IAE_NXZ 1006d800 f i libucrtd:output.obj
 0001:0006c990       ?update_field_width@?$positional_parameter_base@DV?$string_output_adapter@D@__crt_stdio_output@@@__crt_stdio_output@@IAE_NXZ 1006d990 f i libucrtd:output.obj
 0001:0006cb20       ?update_field_width@?$positional_parameter_base@_WV?$stream_output_adapter@_W@__crt_stdio_output@@@__crt_stdio_output@@IAE_NXZ 1006db20 f i libucrtd:output.obj
 0001:0006ccb0       ?update_field_width@?$positional_parameter_base@_WV?$string_output_adapter@_W@__crt_stdio_output@@@__crt_stdio_output@@IAE_NXZ 1006dcb0 f i libucrtd:output.obj
 0001:0006ce40       ?update_field_width@?$standard_base@DV?$stream_output_adapter@D@__crt_stdio_output@@@__crt_stdio_output@@IAE_NXZ 1006de40 f i libucrtd:output.obj
 0001:0006ce70       ?update_field_width@?$standard_base@DV?$string_output_adapter@D@__crt_stdio_output@@@__crt_stdio_output@@IAE_NXZ 1006de70 f i libucrtd:output.obj
 0001:0006cea0       ?update_field_width@?$standard_base@_WV?$stream_output_adapter@_W@__crt_stdio_output@@@__crt_stdio_output@@IAE_NXZ 1006dea0 f i libucrtd:output.obj
 0001:0006ced0       ?update_field_width@?$standard_base@_WV?$string_output_adapter@_W@__crt_stdio_output@@@__crt_stdio_output@@IAE_NXZ 1006ded0 f i libucrtd:output.obj
 0001:0006cf00       ?update_locale@__crt_cached_ptd_host@@AAEXXZ 1006df00 f i libucrtd:output.obj
 0001:0006cf20       ?update_locale_slow@__crt_cached_ptd_host@@AAEXXZ 1006df20 f i libucrtd:output.obj
 0001:0006cfb0       ?update_precision@?$positional_parameter_base@DV?$stream_output_adapter@D@__crt_stdio_output@@@__crt_stdio_output@@IAE_NXZ 1006dfb0 f i libucrtd:output.obj
 0001:0006d140       ?update_precision@?$positional_parameter_base@DV?$string_output_adapter@D@__crt_stdio_output@@@__crt_stdio_output@@IAE_NXZ 1006e140 f i libucrtd:output.obj
 0001:0006d2d0       ?update_precision@?$positional_parameter_base@_WV?$stream_output_adapter@_W@__crt_stdio_output@@@__crt_stdio_output@@IAE_NXZ 1006e2d0 f i libucrtd:output.obj
 0001:0006d460       ?update_precision@?$positional_parameter_base@_WV?$string_output_adapter@_W@__crt_stdio_output@@@__crt_stdio_output@@IAE_NXZ 1006e460 f i libucrtd:output.obj
 0001:0006d5f0       ?update_precision@?$standard_base@DV?$stream_output_adapter@D@__crt_stdio_output@@@__crt_stdio_output@@IAE_NXZ 1006e5f0 f i libucrtd:output.obj
 0001:0006d620       ?update_precision@?$standard_base@DV?$string_output_adapter@D@__crt_stdio_output@@@__crt_stdio_output@@IAE_NXZ 1006e620 f i libucrtd:output.obj
 0001:0006d650       ?update_precision@?$standard_base@_WV?$stream_output_adapter@_W@__crt_stdio_output@@@__crt_stdio_output@@IAE_NXZ 1006e650 f i libucrtd:output.obj
 0001:0006d680       ?update_precision@?$standard_base@_WV?$string_output_adapter@_W@__crt_stdio_output@@@__crt_stdio_output@@IAE_NXZ 1006e680 f i libucrtd:output.obj
 0001:0006d6b0       ?valid@?$cached@H@__crt_cached_ptd_host@@QBE_NXZ 1006e6b0 f i libucrtd:output.obj
 0001:0006d6d0       ?valid@?$cached@K@__crt_cached_ptd_host@@QBE_NXZ 1006e6d0 f i libucrtd:output.obj
 0001:0006d6f0       ?valid@__crt_stdio_stream@@QBE_NXZ 1006e6f0 f i libucrtd:output.obj
 0001:0006d720       ?validate@?$c_string_character_source@D@__crt_strtox@@QBE_NXZ 1006e720 f i libucrtd:output.obj
 0001:0006d7b0       ?validate@?$c_string_character_source@_W@__crt_strtox@@QBE_NXZ 1006e7b0 f i libucrtd:output.obj
 0001:0006d840       ?validate@?$stream_output_adapter@D@__crt_stdio_output@@QBE_NAAV__crt_cached_ptd_host@@@Z 1006e840 f i libucrtd:output.obj
 0001:0006d900       ?validate@?$stream_output_adapter@_W@__crt_stdio_output@@QBE_NAAV__crt_cached_ptd_host@@@Z 1006e900 f i libucrtd:output.obj
 0001:0006d9c0       ?validate@?$string_output_adapter@D@__crt_stdio_output@@QBE_NAAV__crt_cached_ptd_host@@@Z 1006e9c0 f i libucrtd:output.obj
 0001:0006da60       ?validate@?$string_output_adapter@_W@__crt_stdio_output@@QBE_NAAV__crt_cached_ptd_host@@@Z 1006ea60 f i libucrtd:output.obj
 0001:0006db00       ?validate_and_store_parameter_data@?$positional_parameter_base@DV?$stream_output_adapter@D@__crt_stdio_output@@@__crt_stdio_output@@AAE_NAAUparameter_data@12@W4parameter_type@12@DW4length_modifier@2@@Z 1006eb00 f i libucrtd:output.obj
 0001:0006dbf0       ?validate_and_store_parameter_data@?$positional_parameter_base@DV?$string_output_adapter@D@__crt_stdio_output@@@__crt_stdio_output@@AAE_NAAUparameter_data@12@W4parameter_type@12@DW4length_modifier@2@@Z 1006ebf0 f i libucrtd:output.obj
 0001:0006dce0       ?validate_and_store_parameter_data@?$positional_parameter_base@_WV?$stream_output_adapter@_W@__crt_stdio_output@@@__crt_stdio_output@@AAE_NAAUparameter_data@12@W4parameter_type@12@_WW4length_modifier@2@@Z 1006ece0 f i libucrtd:output.obj
 0001:0006ddd0       ?validate_and_store_parameter_data@?$positional_parameter_base@_WV?$string_output_adapter@_W@__crt_stdio_output@@@__crt_stdio_output@@AAE_NAAUparameter_data@12@W4parameter_type@12@_WW4length_modifier@2@@Z 1006edd0 f i libucrtd:output.obj
 0001:0006dec0       ?validate_and_update_state_at_beginning_of_format_character@?$positional_parameter_base@DV?$stream_output_adapter@D@__crt_stdio_output@@@__crt_stdio_output@@IAE_NXZ 1006eec0 f i libucrtd:output.obj
 0001:0006e0f0       ?validate_and_update_state_at_beginning_of_format_character@?$positional_parameter_base@DV?$string_output_adapter@D@__crt_stdio_output@@@__crt_stdio_output@@IAE_NXZ 1006f0f0 f i libucrtd:output.obj
 0001:0006e320       ?validate_and_update_state_at_beginning_of_format_character@?$positional_parameter_base@_WV?$stream_output_adapter@_W@__crt_stdio_output@@@__crt_stdio_output@@IAE_NXZ 1006f320 f i libucrtd:output.obj
 0001:0006e550       ?validate_and_update_state_at_beginning_of_format_character@?$positional_parameter_base@_WV?$string_output_adapter@_W@__crt_stdio_output@@@__crt_stdio_output@@IAE_NXZ 1006f550 f i libucrtd:output.obj
 0001:0006e780       ?validate_and_update_state_at_beginning_of_format_character@?$standard_base@DV?$stream_output_adapter@D@__crt_stdio_output@@@__crt_stdio_output@@IAE_NXZ 1006f780 f i libucrtd:output.obj
 0001:0006e790       ?validate_and_update_state_at_beginning_of_format_character@?$standard_base@DV?$string_output_adapter@D@__crt_stdio_output@@@__crt_stdio_output@@IAE_NXZ 1006f790 f i libucrtd:output.obj
 0001:0006e7a0       ?validate_and_update_state_at_beginning_of_format_character@?$standard_base@_WV?$stream_output_adapter@_W@__crt_stdio_output@@@__crt_stdio_output@@IAE_NXZ 1006f7a0 f i libucrtd:output.obj
 0001:0006e7b0       ?validate_and_update_state_at_beginning_of_format_character@?$standard_base@_WV?$string_output_adapter@_W@__crt_stdio_output@@@__crt_stdio_output@@IAE_NXZ 1006f7b0 f i libucrtd:output.obj
 0001:0006e7c0       ?validate_and_update_state_at_end_of_format_string@?$format_validation_base@DV?$stream_output_adapter@D@__crt_stdio_output@@@__crt_stdio_output@@IAE_NXZ 1006f7c0 f i libucrtd:output.obj
 0001:0006e870       ?validate_and_update_state_at_end_of_format_string@?$format_validation_base@DV?$string_output_adapter@D@__crt_stdio_output@@@__crt_stdio_output@@IAE_NXZ 1006f870 f i libucrtd:output.obj
 0001:0006e920       ?validate_and_update_state_at_end_of_format_string@?$format_validation_base@_WV?$stream_output_adapter@_W@__crt_stdio_output@@@__crt_stdio_output@@IAE_NXZ 1006f920 f i libucrtd:output.obj
 0001:0006e9d0       ?validate_and_update_state_at_end_of_format_string@?$format_validation_base@_WV?$string_output_adapter@_W@__crt_stdio_output@@@__crt_stdio_output@@IAE_NXZ 1006f9d0 f i libucrtd:output.obj
 0001:0006ea80       ?validate_and_update_state_at_end_of_format_string@?$positional_parameter_base@DV?$stream_output_adapter@D@__crt_stdio_output@@@__crt_stdio_output@@IAE_NXZ 1006fa80 f i libucrtd:output.obj
 0001:0006ec30       ?validate_and_update_state_at_end_of_format_string@?$positional_parameter_base@DV?$string_output_adapter@D@__crt_stdio_output@@@__crt_stdio_output@@IAE_NXZ 1006fc30 f i libucrtd:output.obj
 0001:0006ede0       ?validate_and_update_state_at_end_of_format_string@?$positional_parameter_base@_WV?$stream_output_adapter@_W@__crt_stdio_output@@@__crt_stdio_output@@IAE_NXZ 1006fde0 f i libucrtd:output.obj
 0001:0006ef90       ?validate_and_update_state_at_end_of_format_string@?$positional_parameter_base@_WV?$string_output_adapter@_W@__crt_stdio_output@@@__crt_stdio_output@@IAE_NXZ 1006ff90 f i libucrtd:output.obj
 0001:0006f140       ?validate_and_update_state_at_end_of_format_string@?$standard_base@DV?$stream_output_adapter@D@__crt_stdio_output@@@__crt_stdio_output@@IBE_NXZ 10070140 f i libucrtd:output.obj
 0001:0006f150       ?validate_and_update_state_at_end_of_format_string@?$standard_base@DV?$string_output_adapter@D@__crt_stdio_output@@@__crt_stdio_output@@IBE_NXZ 10070150 f i libucrtd:output.obj
 0001:0006f160       ?validate_and_update_state_at_end_of_format_string@?$standard_base@_WV?$stream_output_adapter@_W@__crt_stdio_output@@@__crt_stdio_output@@IBE_NXZ 10070160 f i libucrtd:output.obj
 0001:0006f170       ?validate_and_update_state_at_end_of_format_string@?$standard_base@_WV?$string_output_adapter@_W@__crt_stdio_output@@@__crt_stdio_output@@IBE_NXZ 10070170 f i libucrtd:output.obj
 0001:0006f180       ?validate_state_for_type_case_a@?$positional_parameter_base@DV?$stream_output_adapter@D@__crt_stdio_output@@@__crt_stdio_output@@IAE_NXZ 10070180 f i libucrtd:output.obj
 0001:0006f290       ?validate_state_for_type_case_a@?$positional_parameter_base@DV?$string_output_adapter@D@__crt_stdio_output@@@__crt_stdio_output@@IAE_NXZ 10070290 f i libucrtd:output.obj
 0001:0006f3a0       ?validate_state_for_type_case_a@?$positional_parameter_base@_WV?$stream_output_adapter@_W@__crt_stdio_output@@@__crt_stdio_output@@IAE_NXZ 100703a0 f i libucrtd:output.obj
 0001:0006f4b0       ?validate_state_for_type_case_a@?$positional_parameter_base@_WV?$string_output_adapter@_W@__crt_stdio_output@@@__crt_stdio_output@@IAE_NXZ 100704b0 f i libucrtd:output.obj
 0001:0006f5c0       ?validate_state_for_type_case_a@?$standard_base@DV?$stream_output_adapter@D@__crt_stdio_output@@@__crt_stdio_output@@IBE_NXZ 100705c0 f i libucrtd:output.obj
 0001:0006f5d0       ?validate_state_for_type_case_a@?$standard_base@DV?$string_output_adapter@D@__crt_stdio_output@@@__crt_stdio_output@@IBE_NXZ 100705d0 f i libucrtd:output.obj
 0001:0006f5e0       ?validate_state_for_type_case_a@?$standard_base@_WV?$stream_output_adapter@_W@__crt_stdio_output@@@__crt_stdio_output@@IBE_NXZ 100705e0 f i libucrtd:output.obj
 0001:0006f5f0       ?validate_state_for_type_case_a@?$standard_base@_WV?$string_output_adapter@_W@__crt_stdio_output@@@__crt_stdio_output@@IBE_NXZ 100705f0 f i libucrtd:output.obj
 0001:0006f600       ?validate_stream_is_ansi_if_required@?$__acrt_stdio_char_traits@D@@SA_NQAU_iobuf@@@Z 10070600 f i libucrtd:output.obj
 0001:0006f730       ?validate_stream_is_ansi_if_required@?$__acrt_stdio_char_traits@_W@@SA_NQAU_iobuf@@@Z 10070730 f i libucrtd:output.obj
 0001:0006f740       ?wide_character_to_digit@__crt_strtox@@YAH_W@Z 10070740 f i libucrtd:output.obj
 0001:0006fa70       ?wide_null_string@?$output_processor@DV?$stream_output_adapter@D@__crt_stdio_output@@V?$format_validation_base@DV?$stream_output_adapter@D@__crt_stdio_output@@@2@@__crt_stdio_output@@CAPA_WXZ 10070a70 f i libucrtd:output.obj
 0001:0006fa80       ?wide_null_string@?$output_processor@DV?$stream_output_adapter@D@__crt_stdio_output@@V?$positional_parameter_base@DV?$stream_output_adapter@D@__crt_stdio_output@@@2@@__crt_stdio_output@@CAPA_WXZ 10070a80 f i libucrtd:output.obj
 0001:0006fa90       ?wide_null_string@?$output_processor@DV?$stream_output_adapter@D@__crt_stdio_output@@V?$standard_base@DV?$stream_output_adapter@D@__crt_stdio_output@@@2@@__crt_stdio_output@@CAPA_WXZ 10070a90 f i libucrtd:output.obj
 0001:0006faa0       ?wide_null_string@?$output_processor@DV?$string_output_adapter@D@__crt_stdio_output@@V?$format_validation_base@DV?$string_output_adapter@D@__crt_stdio_output@@@2@@__crt_stdio_output@@CAPA_WXZ 10070aa0 f i libucrtd:output.obj
 0001:0006fab0       ?wide_null_string@?$output_processor@DV?$string_output_adapter@D@__crt_stdio_output@@V?$positional_parameter_base@DV?$string_output_adapter@D@__crt_stdio_output@@@2@@__crt_stdio_output@@CAPA_WXZ 10070ab0 f i libucrtd:output.obj
 0001:0006fac0       ?wide_null_string@?$output_processor@DV?$string_output_adapter@D@__crt_stdio_output@@V?$standard_base@DV?$string_output_adapter@D@__crt_stdio_output@@@2@@__crt_stdio_output@@CAPA_WXZ 10070ac0 f i libucrtd:output.obj
 0001:0006fad0       ?wide_null_string@?$output_processor@_WV?$stream_output_adapter@_W@__crt_stdio_output@@V?$format_validation_base@_WV?$stream_output_adapter@_W@__crt_stdio_output@@@2@@__crt_stdio_output@@CAPA_WXZ 10070ad0 f i libucrtd:output.obj
 0001:0006fae0       ?wide_null_string@?$output_processor@_WV?$stream_output_adapter@_W@__crt_stdio_output@@V?$positional_parameter_base@_WV?$stream_output_adapter@_W@__crt_stdio_output@@@2@@__crt_stdio_output@@CAPA_WXZ 10070ae0 f i libucrtd:output.obj
 0001:0006faf0       ?wide_null_string@?$output_processor@_WV?$stream_output_adapter@_W@__crt_stdio_output@@V?$standard_base@_WV?$stream_output_adapter@_W@__crt_stdio_output@@@2@@__crt_stdio_output@@CAPA_WXZ 10070af0 f i libucrtd:output.obj
 0001:0006fb00       ?wide_null_string@?$output_processor@_WV?$string_output_adapter@_W@__crt_stdio_output@@V?$format_validation_base@_WV?$string_output_adapter@_W@__crt_stdio_output@@@2@@__crt_stdio_output@@CAPA_WXZ 10070b00 f i libucrtd:output.obj
 0001:0006fb10       ?wide_null_string@?$output_processor@_WV?$string_output_adapter@_W@__crt_stdio_output@@V?$positional_parameter_base@_WV?$string_output_adapter@_W@__crt_stdio_output@@@2@@__crt_stdio_output@@CAPA_WXZ 10070b10 f i libucrtd:output.obj
 0001:0006fb20       ?wide_null_string@?$output_processor@_WV?$string_output_adapter@_W@__crt_stdio_output@@V?$standard_base@_WV?$string_output_adapter@_W@__crt_stdio_output@@@2@@__crt_stdio_output@@CAPA_WXZ 10070b20 f i libucrtd:output.obj
 0001:0006fb30       ?write_character@?$output_adapter_common@DV?$stream_output_adapter@D@__crt_stdio_output@@@__crt_stdio_output@@QBEXDQAHAAV__crt_cached_ptd_host@@@Z 10070b30 f i libucrtd:output.obj
 0001:0006fb70       ?write_character@?$output_adapter_common@_WV?$stream_output_adapter@_W@__crt_stdio_output@@@__crt_stdio_output@@QBEX_WQAHAAV__crt_cached_ptd_host@@@Z 10070b70 f i libucrtd:output.obj
 0001:0006fbb0       ?write_character@?$string_output_adapter@D@__crt_stdio_output@@QBE_NDQAHAAV__crt_cached_ptd_host@@@Z 10070bb0 f i libucrtd:output.obj
 0001:0006fc40       ?write_character@?$string_output_adapter@_W@__crt_stdio_output@@QBE_N_WQAHAAV__crt_cached_ptd_host@@@Z 10070c40 f i libucrtd:output.obj
 0001:0006fce0       ?write_character_without_count_update@?$stream_output_adapter@D@__crt_stdio_output@@QBE_NDAAV__crt_cached_ptd_host@@@Z 10070ce0 f i libucrtd:output.obj
 0001:0006fd50       ?write_character_without_count_update@?$stream_output_adapter@_W@__crt_stdio_output@@QBE_N_WAAV__crt_cached_ptd_host@@@Z 10070d50 f i libucrtd:output.obj
 0001:0006fdc0       ?write_stored_string_tchar@?$output_processor@DV?$stream_output_adapter@D@__crt_stdio_output@@V?$format_validation_base@DV?$stream_output_adapter@D@__crt_stdio_output@@@2@@__crt_stdio_output@@AAE_ND@Z 10070dc0 f i libucrtd:output.obj
 0001:0006fee0       ?write_stored_string_tchar@?$output_processor@DV?$stream_output_adapter@D@__crt_stdio_output@@V?$positional_parameter_base@DV?$stream_output_adapter@D@__crt_stdio_output@@@2@@__crt_stdio_output@@AAE_ND@Z 10070ee0 f i libucrtd:output.obj
 0001:00070000       ?write_stored_string_tchar@?$output_processor@DV?$stream_output_adapter@D@__crt_stdio_output@@V?$standard_base@DV?$stream_output_adapter@D@__crt_stdio_output@@@2@@__crt_stdio_output@@AAE_ND@Z 10071000 f i libucrtd:output.obj
 0001:00070120       ?write_stored_string_tchar@?$output_processor@DV?$string_output_adapter@D@__crt_stdio_output@@V?$format_validation_base@DV?$string_output_adapter@D@__crt_stdio_output@@@2@@__crt_stdio_output@@AAE_ND@Z 10071120 f i libucrtd:output.obj
 0001:00070240       ?write_stored_string_tchar@?$output_processor@DV?$string_output_adapter@D@__crt_stdio_output@@V?$positional_parameter_base@DV?$string_output_adapter@D@__crt_stdio_output@@@2@@__crt_stdio_output@@AAE_ND@Z 10071240 f i libucrtd:output.obj
 0001:00070360       ?write_stored_string_tchar@?$output_processor@DV?$string_output_adapter@D@__crt_stdio_output@@V?$standard_base@DV?$string_output_adapter@D@__crt_stdio_output@@@2@@__crt_stdio_output@@AAE_ND@Z 10071360 f i libucrtd:output.obj
 0001:00070480       ?write_stored_string_tchar@?$output_processor@_WV?$stream_output_adapter@_W@__crt_stdio_output@@V?$format_validation_base@_WV?$stream_output_adapter@_W@__crt_stdio_output@@@2@@__crt_stdio_output@@AAE_N_W@Z 10071480 f i libucrtd:output.obj
 0001:00070590       ?write_stored_string_tchar@?$output_processor@_WV?$stream_output_adapter@_W@__crt_stdio_output@@V?$positional_parameter_base@_WV?$stream_output_adapter@_W@__crt_stdio_output@@@2@@__crt_stdio_output@@AAE_N_W@Z 10071590 f i libucrtd:output.obj
 0001:000706a0       ?write_stored_string_tchar@?$output_processor@_WV?$stream_output_adapter@_W@__crt_stdio_output@@V?$standard_base@_WV?$stream_output_adapter@_W@__crt_stdio_output@@@2@@__crt_stdio_output@@AAE_N_W@Z 100716a0 f i libucrtd:output.obj
 0001:000707b0       ?write_stored_string_tchar@?$output_processor@_WV?$string_output_adapter@_W@__crt_stdio_output@@V?$format_validation_base@_WV?$string_output_adapter@_W@__crt_stdio_output@@@2@@__crt_stdio_output@@AAE_N_W@Z 100717b0 f i libucrtd:output.obj
 0001:000708c0       ?write_stored_string_tchar@?$output_processor@_WV?$string_output_adapter@_W@__crt_stdio_output@@V?$positional_parameter_base@_WV?$string_output_adapter@_W@__crt_stdio_output@@@2@@__crt_stdio_output@@AAE_N_W@Z 100718c0 f i libucrtd:output.obj
 0001:000709d0       ?write_stored_string_tchar@?$output_processor@_WV?$string_output_adapter@_W@__crt_stdio_output@@V?$standard_base@_WV?$string_output_adapter@_W@__crt_stdio_output@@@2@@__crt_stdio_output@@AAE_N_W@Z 100719d0 f i libucrtd:output.obj
 0001:00070ae0       ?write_string@?$stream_output_adapter@D@__crt_stdio_output@@QBEXQBDHQAHAAV__crt_cached_ptd_host@@@Z 10071ae0 f i libucrtd:output.obj
 0001:00070b40       ?write_string@?$stream_output_adapter@_W@__crt_stdio_output@@QBEXQB_WHQAHAAV__crt_cached_ptd_host@@@Z 10071b40 f i libucrtd:output.obj
 0001:00070ba0       ?write_string@?$string_output_adapter@D@__crt_stdio_output@@QBEXQBDHQAHAAV__crt_cached_ptd_host@@@Z 10071ba0 f i libucrtd:output.obj
 0001:00070ca0       ?write_string@?$string_output_adapter@_W@__crt_stdio_output@@QBEXQB_WHQAHAAV__crt_cached_ptd_host@@@Z 10071ca0 f i libucrtd:output.obj
 0001:00070db0       ?write_string_impl@?$output_adapter_common@DV?$stream_output_adapter@D@__crt_stdio_output@@@__crt_stdio_output@@IBEXQBDHQAHAAV__crt_cached_ptd_host@@@Z 10071db0 f i libucrtd:output.obj
 0001:00070e70       ?write_string_impl@?$output_adapter_common@_WV?$stream_output_adapter@_W@__crt_stdio_output@@@__crt_stdio_output@@IBEXQB_WHQAHAAV__crt_cached_ptd_host@@@Z 10071e70 f i libucrtd:output.obj
 0001:00070f30       ___acrt_disable_global_locale_sync 10071f30 f i libucrtd:output.obj
 0001:00070f50       ___acrt_enable_global_locale_sync 10071f50 f i libucrtd:output.obj
 0001:00070f70       ___acrt_isleadbyte_l_noupdate 10071f70 f i libucrtd:output.obj
 0001:00070f90       ___acrt_locale_changed     10071f90 f i libucrtd:output.obj
 0001:00070fc0       ___acrt_locale_get_ctype_array_value 10071fc0 f i libucrtd:output.obj
 0001:00070ff0       ___ascii_iswalpha          10071ff0 f i libucrtd:output.obj
 0001:00071030       ___ascii_toupper           10072030 f i libucrtd:output.obj
 0001:00071050       ___ascii_towupper          10072050 f i libucrtd:output.obj
 0001:00071070       ___stdio_common_vfprintf   10072070 f   libucrtd:output.obj
 0001:000710c0       ___stdio_common_vfprintf_p 100720c0 f   libucrtd:output.obj
 0001:00071110       ___stdio_common_vfprintf_s 10072110 f   libucrtd:output.obj
 0001:00071160       ___stdio_common_vfwprintf  10072160 f   libucrtd:output.obj
 0001:000711b0       ___stdio_common_vfwprintf_p 100721b0 f   libucrtd:output.obj
 0001:00071200       ___stdio_common_vfwprintf_s 10072200 f   libucrtd:output.obj
 0001:00071250       ___stdio_common_vsnprintf_s 10072250 f   libucrtd:output.obj
 0001:000712a0       ___stdio_common_vsnwprintf_s 100722a0 f   libucrtd:output.obj
 0001:000712f0       ___stdio_common_vsprintf   100722f0 f   libucrtd:output.obj
 0001:00071340       ___stdio_common_vsprintf_p 10072340 f   libucrtd:output.obj
 0001:00071390       ___stdio_common_vsprintf_s 10072390 f   libucrtd:output.obj
 0001:000713e0       ___stdio_common_vswprintf  100723e0 f   libucrtd:output.obj
 0001:00071430       ___stdio_common_vswprintf_p 10072430 f   libucrtd:output.obj
 0001:00071480       ___stdio_common_vswprintf_s 10072480 f   libucrtd:output.obj
 0001:000714d0       __ctype_fast_check_internal 100724d0 f i libucrtd:output.obj
 0001:000714f0       __isdigit_fast_internal    100724f0 f i libucrtd:output.obj
 0001:00071510       __tolower_fast_internal    10072510 f i libucrtd:output.obj
 0001:00071530       _free                      10072530 f   libucrtd:free.obj
 0001:00071560       _malloc                    10072560 f   libucrtd:malloc.obj
 0001:00071580       ??$?RU?$__crt_report_hook_node@D@@@__crt_internal_free_policy@@QBEXQBU?$__crt_report_hook_node@D@@@Z 10072580 f i libucrtd:dbgrpt.obj
 0001:000715a0       ??$?RU?$__crt_report_hook_node@_W@@@__crt_internal_free_policy@@QBEXQBU?$__crt_report_hook_node@_W@@@Z 100725a0 f i libucrtd:dbgrpt.obj
 0001:00072470       ??$get_module_file_name@AAPAUHINSTANCE__@@AAY0BAF@DK@?$__crt_char_traits@D@@SAKAAPAUHINSTANCE__@@AAY0BAF@D$$QAK@Z 10073470 f i libucrtd:dbgrpt.obj
 0001:00072490       ??$get_module_file_name@AAPAUHINSTANCE__@@AAY0BAF@_WK@?$__crt_char_traits@_W@@SAKAAPAUHINSTANCE__@@AAY0BAF@_W$$QAK@Z 10073490 f i libucrtd:dbgrpt.obj
 0001:000724b0       ??$tcscpy_s@AAY0BAF@DIPBD@?$__crt_char_traits@D@@SAHAAY0BAF@D$$QAI$$QAPBD@Z 100734b0 f i libucrtd:dbgrpt.obj
 0001:000724d0       ??$tcscpy_s@AAY0BAF@_WIPB_W@?$__crt_char_traits@_W@@SAHAAY0BAF@_W$$QAI$$QAPB_W@Z 100734d0 f i libucrtd:dbgrpt.obj
 0001:000724f0       ??$tcslen@AAY0BAF@D@?$__crt_char_traits@D@@SAIAAY0BAF@D@Z 100734f0 f i libucrtd:dbgrpt.obj
 0001:00072510       ??$tcslen@AAY0BAF@_W@?$__crt_char_traits@_W@@SAIAAY0BAF@_W@Z 10073510 f i libucrtd:dbgrpt.obj
 0001:00072530       ??$tcslen@ABQBD@?$__crt_char_traits@D@@SAIABQBD@Z 10073530 f i libucrtd:dbgrpt.obj
 0001:00072550       ??$tcslen@ABQB_W@?$__crt_char_traits@_W@@SAIABQB_W@Z 10073550 f i libucrtd:dbgrpt.obj
 0001:00072650       ??0?$__crt_unique_heap_ptr@U?$__crt_report_hook_node@D@@U__crt_internal_free_policy@@@@QAE@QAU?$__crt_report_hook_node@D@@@Z 10073650 f i libucrtd:dbgrpt.obj
 0001:00072670       ??0?$__crt_unique_heap_ptr@U?$__crt_report_hook_node@_W@@U__crt_internal_free_policy@@@@QAE@QAU?$__crt_report_hook_node@_W@@@Z 10073670 f i libucrtd:dbgrpt.obj
 0001:00072690       ??1?$__crt_unique_heap_ptr@U?$__crt_report_hook_node@D@@U__crt_internal_free_policy@@@@QAE@XZ 10073690 f i libucrtd:dbgrpt.obj
 0001:000726b0       ??1?$__crt_unique_heap_ptr@U?$__crt_report_hook_node@_W@@U__crt_internal_free_policy@@@@QAE@XZ 100736b0 f i libucrtd:dbgrpt.obj
 0001:000726d0       ??B?$__crt_unique_heap_ptr@U?$__crt_report_hook_node@D@@U__crt_internal_free_policy@@@@QBE_NXZ 100736d0 f i libucrtd:dbgrpt.obj
 0001:000726f0       ??B?$__crt_unique_heap_ptr@U?$__crt_report_hook_node@_W@@U__crt_internal_free_policy@@@@QBE_NXZ 100736f0 f i libucrtd:dbgrpt.obj
 0001:00072c50       ?detach@?$__crt_unique_heap_ptr@U?$__crt_report_hook_node@D@@U__crt_internal_free_policy@@@@QAEPAU?$__crt_report_hook_node@D@@XZ 10073c50 f i libucrtd:dbgrpt.obj
 0001:00072c80       ?detach@?$__crt_unique_heap_ptr@U?$__crt_report_hook_node@_W@@U__crt_internal_free_policy@@@@QAEPAU?$__crt_report_hook_node@_W@@XZ 10073c80 f i libucrtd:dbgrpt.obj
 0001:00072cb0       ?get@?$__crt_unique_heap_ptr@U?$__crt_report_hook_node@D@@U__crt_internal_free_policy@@@@QBEPAU?$__crt_report_hook_node@D@@XZ 10073cb0 f i libucrtd:dbgrpt.obj
 0001:00072cd0       ?get@?$__crt_unique_heap_ptr@U?$__crt_report_hook_node@_W@@U__crt_internal_free_policy@@@@QBEPAU?$__crt_report_hook_node@_W@@XZ 10073cd0 f i libucrtd:dbgrpt.obj
 0001:00072d50       ?is_valid@?$__crt_unique_heap_ptr@U?$__crt_report_hook_node@D@@U__crt_internal_free_policy@@@@QBE_NXZ 10073d50 f i libucrtd:dbgrpt.obj
 0001:00072d80       ?is_valid@?$__crt_unique_heap_ptr@U?$__crt_report_hook_node@_W@@U__crt_internal_free_policy@@@@QBE_NXZ 10073d80 f i libucrtd:dbgrpt.obj
 0001:00072db0       ?release@?$__crt_unique_heap_ptr@U?$__crt_report_hook_node@D@@U__crt_internal_free_policy@@@@QAEXXZ 10073db0 f i libucrtd:dbgrpt.obj
 0001:00072de0       ?release@?$__crt_unique_heap_ptr@U?$__crt_report_hook_node@_W@@U__crt_internal_free_policy@@@@QAEXXZ 10073de0 f i libucrtd:dbgrpt.obj
 0001:00072e10       __CrtDbgReport             10073e10 f   libucrtd:dbgrpt.obj
 0001:00072e60       __CrtDbgReportW            10073e60 f   libucrtd:dbgrpt.obj
 0001:00072eb0       __CrtSetReportHook2        10073eb0 f   libucrtd:dbgrpt.obj
 0001:00072ed0       __CrtSetReportHookW2       10073ed0 f   libucrtd:dbgrpt.obj
 0001:00072ef0       ___acrt_MessageWindowA     10073ef0 f   libucrtd:dbgrpt.obj
 0001:00072f20       ___acrt_MessageWindowW     10073f20 f   libucrtd:dbgrpt.obj
 0001:00072f50       __invoke_watson_if_error   10073f50 f i libucrtd:dbgrpt.obj
 0001:00072f80       __invoke_watson_if_oneof   10073f80 f i libucrtd:dbgrpt.obj
 0001:00072fc0       __snwprintf_s              10073fc0 f i libucrtd:dbgrpt.obj
 0001:00073000       __vsnwprintf_s_l           10074000 f i libucrtd:dbgrpt.obj
 0001:00073380       _wcscpy_s                  10074380 f   libucrtd:wcscpy_s.obj
 0001:000740a0       ??1?$__crt_simd_cleanup_guard@$00@@QAE@XZ 100750a0 f i libucrtd:strnlen.obj
 0001:000740b0       ??1?$__crt_simd_cleanup_guard@$0A@@@QAE@XZ 100750b0 f i libucrtd:strnlen.obj
 0001:000740c0       ?compare_equals@?$__crt_simd_traits@$00E@@SA?AT__m256i@@T2@0@Z 100750c0 f i libucrtd:strnlen.obj
 0001:00074100       ?compare_equals@?$__crt_simd_traits@$00G@@SA?AT__m256i@@T2@0@Z 10075100 f i libucrtd:strnlen.obj
 0001:00074140       ?compare_equals@?$__crt_simd_traits@$0A@E@@SA?AT__m128i@@T2@0@Z 10075140 f i libucrtd:strnlen.obj
 0001:00074180       ?compare_equals@?$__crt_simd_traits@$0A@G@@SA?AT__m128i@@T2@0@Z 10075180 f i libucrtd:strnlen.obj
 0001:000741c0       ?compute_byte_mask@?$__crt_simd_pack_traits@$00@@SAHT__m256i@@@Z 100751c0 f i libucrtd:strnlen.obj
 0001:000741f0       ?compute_byte_mask@?$__crt_simd_pack_traits@$0A@@@SAHT__m128i@@@Z 100751f0 f i libucrtd:strnlen.obj
 0001:00074220       ?get_zero_pack@?$__crt_simd_pack_traits@$00@@SA?AT__m256i@@XZ 10075220 f i libucrtd:strnlen.obj
 0001:00074250       ?get_zero_pack@?$__crt_simd_pack_traits@$0A@@@SA?AT__m128i@@XZ 10075250 f i libucrtd:strnlen.obj
 0001:00074280       _strnlen                   10075280 f   libucrtd:strnlen.obj
 0001:000742a0       _wcslen                    100752a0 f   libucrtd:strnlen.obj
 0001:000742c0       _wcsnlen                   100752c0 f   libucrtd:strnlen.obj
 0001:000742e0       ??$__crt_fast_decode_pointer@P6AXPB_W00II@Z@@YAP6AXPB_W00II@ZQ6AX000II@Z@Z 100752e0 f i libucrtd:invalid_parameter.obj
 0001:00074310       ??$__crt_fast_encode_pointer@P6AXPB_W00II@Z@@YAP6AXPB_W00II@ZQ6AX000II@Z@Z 10075310 f i libucrtd:invalid_parameter.obj
 0001:00074340       ??$initialize_from_array@$$BY00Q6AXPB_W00II@Z@?$dual_state_global@P6AXPB_W00II@Z@__crt_state_management@@QAAXAAY00Q6AXPB_W00II@Z@Z 10075340 f i libucrtd:invalid_parameter.obj
 0001:00074390       ?__crt_rotate_pointer_value@@YAIIH@Z 10075390 f i libucrtd:invalid_parameter.obj
 0001:000743a0       ?check_synchronize_global_state_index@__crt_cached_ptd_host@@AAEIXZ 100753a0 f i libucrtd:invalid_parameter.obj
 0001:000743f0       ?dangerous_get_state_array@?$dual_state_global@P6AXPB_W00II@Z@__crt_state_management@@QAEPAP6AXPB_W00II@ZXZ 100753f0 f i libucrtd:invalid_parameter.obj
 0001:00074400       ?get_current_global_state_index@__crt_cached_ptd_host@@QAEIXZ 10075400 f i libucrtd:invalid_parameter.obj
 0001:00074420       ?get_current_state_index@__crt_state_management@@YAIXZ 10075420 f i libucrtd:invalid_parameter.obj
 0001:00074430       ?get_raw_ptd_noexit@__crt_cached_ptd_host@@QAEPAU__acrt_ptd@@XZ 10075430 f i libucrtd:invalid_parameter.obj
 0001:00074450       ?try_synchronize_per_thread_data@__crt_cached_ptd_host@@AAEPAU__acrt_ptd@@XZ 10075450 f i libucrtd:invalid_parameter.obj
 0001:00074480       ?value@?$dual_state_global@P6AXPB_W00II@Z@__crt_state_management@@QAEAAP6AXPB_W00II@ZAAV__crt_cached_ptd_host@@@Z 10075480 f i libucrtd:invalid_parameter.obj
 0001:000744a0       ?value@?$dual_state_global@P6AXPB_W00II@Z@__crt_state_management@@QAEAAP6AXPB_W00II@ZXZ 100754a0 f i libucrtd:invalid_parameter.obj
 0001:000744c0       ___acrt_call_reportfault   100754c0 f   libucrtd:invalid_parameter.obj
 0001:00074620       ___acrt_initialize_invalid_parameter_handler 10075620 f   libucrtd:invalid_parameter.obj
 0001:00074650       __get_invalid_parameter_handler 10075650 f   libucrtd:invalid_parameter.obj
 0001:00074670       __get_thread_local_invalid_parameter_handler 10075670 f   libucrtd:invalid_parameter.obj
 0001:000746a0       __invalid_parameter        100756a0 f   libucrtd:invalid_parameter.obj
 0001:000746e0       __invalid_parameter_internal 100756e0 f   libucrtd:invalid_parameter.obj
 0001:000747b0       __invalid_parameter_noinfo 100757b0 f   libucrtd:invalid_parameter.obj
 0001:000747d0       __invalid_parameter_noinfo_noreturn 100757d0 f   libucrtd:invalid_parameter.obj
 0001:00074800       __invoke_watson            10075800 f   libucrtd:invalid_parameter.obj
 0001:00074840       __set_invalid_parameter_handler 10075840 f   libucrtd:invalid_parameter.obj
 0001:00074890       __set_thread_local_invalid_parameter_handler 10075890 f   libucrtd:invalid_parameter.obj
 0001:000748c0       ?get_doserrno@__crt_cached_ptd_host@@QAEAAU?$cached@K@1@XZ 100758c0 f i libucrtd:errno.obj
 0001:000748e0       ?set@?$cached@K@__crt_cached_ptd_host@@QAEKK@Z 100758e0 f i libucrtd:errno.obj
 0001:00074910       ___acrt_errno_from_os_error 10075910 f   libucrtd:errno.obj
 0001:00074990       ___acrt_errno_map_os_error 10075990 f   libucrtd:errno.obj
 0001:000749c0       ___acrt_errno_map_os_error_ptd 100759c0 f   libucrtd:errno.obj
 0001:00074a10       ___doserrno                10075a10 f   libucrtd:errno.obj
 0001:00074a40       __errno                    10075a40 f   libucrtd:errno.obj
 0001:00074a70       __get_doserrno             10075a70 f   libucrtd:errno.obj
 0001:00074b00       __get_errno                10075b00 f   libucrtd:errno.obj
 0001:00074b90       __set_doserrno             10075b90 f   libucrtd:errno.obj
 0001:00074bc0       __set_errno                10075bc0 f   libucrtd:errno.obj
 0001:00074bf0       _calloc                    10075bf0 f   libucrtd:calloc.obj
 0001:00074c10       __recalloc                 10075c10 f   libucrtd:recalloc.obj
 0001:00074c40       __recalloc_base            10075c40 f   libucrtd:recalloc.obj
 0001:00074ce0       __resetstkoflw             10075ce0 f   libucrtd:resetstk.obj
 0001:00075240       _wcscat_s                  10076240 f   libucrtd:wcscat_s.obj
 0001:00075690       _wcsncpy_s                 10076690 f   libucrtd:wcsncpy_s.obj
 0001:000757d0       ___isascii                 100767d0 f   libucrtd:_ctype.obj
 0001:00075800       ___iscsym                  10076800 f   libucrtd:_ctype.obj
 0001:00075840       ___iscsymf                 10076840 f   libucrtd:_ctype.obj
 0001:00075880       ___toascii                 10076880 f   libucrtd:_ctype.obj
 0001:00075890       __isalnum_l                10076890 f   libucrtd:_ctype.obj
 0001:000758b0       __isalpha_l                100768b0 f   libucrtd:_ctype.obj
 0001:000758d0       __isblank_l                100768d0 f   libucrtd:_ctype.obj
 0001:000758f0       __iscntrl_l                100768f0 f   libucrtd:_ctype.obj
 0001:00075910       __iscsym_l                 10076910 f   libucrtd:_ctype.obj
 0001:00075950       __iscsymf_l                10076950 f   libucrtd:_ctype.obj
 0001:00075990       __isdigit_l                10076990 f   libucrtd:_ctype.obj
 0001:000759b0       __isgraph_l                100769b0 f   libucrtd:_ctype.obj
 0001:000759d0       __islower_l                100769d0 f   libucrtd:_ctype.obj
 0001:000759f0       __isprint_l                100769f0 f   libucrtd:_ctype.obj
 0001:00075a10       __ispunct_l                10076a10 f   libucrtd:_ctype.obj
 0001:00075a30       __isspace_l                10076a30 f   libucrtd:_ctype.obj
 0001:00075a50       __isupper_l                10076a50 f   libucrtd:_ctype.obj
 0001:00075a70       __isxdigit_l               10076a70 f   libucrtd:_ctype.obj
 0001:00075a90       _isalnum                   10076a90 f   libucrtd:_ctype.obj
 0001:00075ab0       _isalpha                   10076ab0 f   libucrtd:_ctype.obj
 0001:00075ad0       _isblank                   10076ad0 f   libucrtd:_ctype.obj
 0001:00075b00       _iscntrl                   10076b00 f   libucrtd:_ctype.obj
 0001:00075b20       _isdigit                   10076b20 f   libucrtd:_ctype.obj
 0001:00075b40       _isgraph                   10076b40 f   libucrtd:_ctype.obj
 0001:00075b60       _islower                   10076b60 f   libucrtd:_ctype.obj
 0001:00075b80       _isprint                   10076b80 f   libucrtd:_ctype.obj
 0001:00075ba0       _ispunct                   10076ba0 f   libucrtd:_ctype.obj
 0001:00075bc0       _isspace                   10076bc0 f   libucrtd:_ctype.obj
 0001:00075be0       _isupper                   10076be0 f   libucrtd:_ctype.obj
 0001:00075c00       _isxdigit                  10076c00 f   libucrtd:_ctype.obj
 0001:00075c20       _wcscat                    10076c20 f   libucrtd:wcscat.obj
 0001:00075c80       _wcscpy                    10076c80 f   libucrtd:wcscpy.obj
 0001:00076310       ??$open_file@ABQBDABQBDABHPAU_iobuf@@@?$__crt_char_traits@D@@SAPAU_iobuf@@ABQBD0ABH$$QAPAU1@@Z 10077310 f i libucrtd:fopen.obj
 0001:00076340       ??$open_file@ABQB_WABQB_WABHPAU_iobuf@@@?$__crt_char_traits@_W@@SAPAU_iobuf@@ABQB_W0ABH$$QAPAU1@@Z 10077340 f i libucrtd:fopen.obj
 0001:00076370       ?unlock@__crt_stdio_stream@@QBEXXZ 10077370 f i libucrtd:fopen.obj
 0001:00076390       __fsopen                   10077390 f   libucrtd:fopen.obj
 0001:000763b0       __wfopen                   100773b0 f   libucrtd:fopen.obj
 0001:000763d0       __wfopen_s                 100773d0 f   libucrtd:fopen.obj
 0001:000763f0       __wfsopen                  100773f0 f   libucrtd:fopen.obj
 0001:00076410       _fopen                     10077410 f   libucrtd:fopen.obj
 0001:00076430       _fopen_s                   10077430 f   libucrtd:fopen.obj
 0001:00076710       ?is_in_use@__crt_stdio_stream@@QBE_NXZ 10077710 f i libucrtd:fclose.obj
 0001:00076750       __fclose_nolock            10077750 f   libucrtd:fclose.obj
 0001:00076790       _fclose                    10077790 f   libucrtd:fclose.obj
 0001:00076a30       __fputc_nolock             10077a30 f   libucrtd:fputc.obj
 0001:00076a70       __fputc_nolock_internal    10077a70 f   libucrtd:fputc.obj
 0001:00076b00       __fputchar                 10077b00 f   libucrtd:fputc.obj
 0001:00076b20       __putc_nolock              10077b20 f   libucrtd:fputc.obj
 0001:00076b40       _fputc                     10077b40 f   libucrtd:fputc.obj
 0001:00076b80       _putc                      10077b80 f   libucrtd:fputc.obj
 0001:00076ba0       _putchar                   10077ba0 f   libucrtd:fputc.obj
 0001:00076c10       __seh_filter_dll           10077c10 f   libucrtd:exception_filter.obj
 0001:00076c40       __seh_filter_exe           10077c40 f   libucrtd:exception_filter.obj
 0001:00076e60       ??$?B$$A6GXPAXK0@Z@__crt_fast_encoded_nullptr_t@@QBEP6GXPAXK0@ZXZ 10077e60 f i libucrtd:exit.obj
 0001:00076f70       ??$__crt_fast_decode_pointer@P6GXPAXK0@Z@@YAP6GXPAXK0@ZQ6GX0K0@Z@Z 10077f70 f i libucrtd:exit.obj
 0001:00076fa0       ??$__crt_fast_encode_pointer@P6GXPAXK0@Z@@YAP6GXPAXK0@ZQ6GX0K0@Z@Z 10077fa0 f i libucrtd:exit.obj
 0001:00076fd0       ??$__crt_get_proc_address@P6GXI@Z@@YAP6GXI@ZQAUHINSTANCE__@@QBD@Z 10077fd0 f i libucrtd:exit.obj
 0001:00077060       ??0?$__crt_unique_handle_t@U__crt_hmodule_traits@@@@QAE@QAUHINSTANCE__@@@Z 10078060 f i libucrtd:exit.obj
 0001:00077080       ??1?$__crt_unique_handle_t@U__crt_hmodule_traits@@@@QAE@XZ 10078080 f i libucrtd:exit.obj
 0001:00077240       ?__acrt_select_exit_lock@@YA?AW4__acrt_lock_id@@XZ 10078240 f i libucrtd:exit.obj
 0001:00077250       ?__crt_fast_encode_pointer@@YA?AU__crt_fast_encoded_nullptr_t@@$$T@Z 10078250 f i libucrtd:exit.obj
 0001:00077280       ?close@?$__crt_unique_handle_t@U__crt_hmodule_traits@@@@QAEXXZ 10078280 f i libucrtd:exit.obj
 0001:000772c0       ?close@__crt_hmodule_traits@@SA_NPAUHINSTANCE__@@@Z 100782c0 f i libucrtd:exit.obj
 0001:000773f0       ?get@?$__crt_unique_handle_t@U__crt_hmodule_traits@@@@QBEPAUHINSTANCE__@@XZ 100783f0 f i libucrtd:exit.obj
 0001:00077410       ?get_address_of@?$__crt_unique_handle_t@U__crt_hmodule_traits@@@@QAEPAPAUHINSTANCE__@@XZ 10078410 f i libucrtd:exit.obj
 0001:00077420       ?get_invalid_value@__crt_hmodule_traits@@SAPAUHINSTANCE__@@XZ 10078420 f i libucrtd:exit.obj
 0001:000775d0       __Exit                     100785d0 f   libucrtd:exit.obj
 0001:000775f0       ___acrt_initialize_thread_local_exit_callback 100785f0 f   libucrtd:exit.obj
 0001:00077600       __c_exit                   10078600 f   libucrtd:exit.obj
 0001:00077620       __cexit                    10078620 f   libucrtd:exit.obj
 0001:00077640       __exit                     10078640 f   libucrtd:exit.obj
 0001:00077660       __is_c_termination_complete 10078660 f   libucrtd:exit.obj
 0001:00077680       __register_thread_local_exe_atexit_callback 10078680 f   libucrtd:exit.obj
 0001:000776c0       _exit                      100786c0 f   libucrtd:exit.obj
 0001:000776e0       _quick_exit                100786e0 f   libucrtd:exit.obj
 0001:00077700       ??$?RE@__crt_internal_free_policy@@QBEXQBE@Z 10078700 f i libucrtd:argv_parsing.obj
 0001:00077720       ??$?RPAD@__crt_internal_free_policy@@QBEXQBQAD@Z 10078720 f i libucrtd:argv_parsing.obj
 0001:00077740       ??$?RPA_W@__crt_internal_free_policy@@QBEXQBQA_W@Z 10078740 f i libucrtd:argv_parsing.obj
 0001:00077d00       ??$get_module_file_name@$$TAAY0BAF@DH@?$__crt_char_traits@D@@SAK$$QA$$TAAY0BAF@D$$QAH@Z 10078d00 f i libucrtd:argv_parsing.obj
 0001:00077d20       ??$get_module_file_name@$$TAAY0BAF@_WH@?$__crt_char_traits@_W@@SAK$$QA$$TAAY0BAF@_W$$QAH@Z 10078d20 f i libucrtd:argv_parsing.obj
 0001:00078460       ??$set_program_name@PAD@?$__crt_char_traits@D@@SAX$$QAPAD@Z 10079460 f i libucrtd:argv_parsing.obj
 0001:00078480       ??$set_program_name@PA_W@?$__crt_char_traits@_W@@SAX$$QAPA_W@Z 10079480 f i libucrtd:argv_parsing.obj
 0001:000784e0       ??0?$__crt_unique_heap_ptr@EU__crt_internal_free_policy@@@@QAE@QAE@Z 100794e0 f i libucrtd:argv_parsing.obj
 0001:00078500       ??0?$__crt_unique_heap_ptr@PADU__crt_internal_free_policy@@@@QAE@QAPAD@Z 10079500 f i libucrtd:argv_parsing.obj
 0001:00078520       ??0?$__crt_unique_heap_ptr@PA_WU__crt_internal_free_policy@@@@QAE@QAPA_W@Z 10079520 f i libucrtd:argv_parsing.obj
 0001:00078540       ??1?$__crt_unique_heap_ptr@EU__crt_internal_free_policy@@@@QAE@XZ 10079540 f i libucrtd:argv_parsing.obj
 0001:00078560       ??1?$__crt_unique_heap_ptr@PADU__crt_internal_free_policy@@@@QAE@XZ 10079560 f i libucrtd:argv_parsing.obj
 0001:00078580       ??1?$__crt_unique_heap_ptr@PA_WU__crt_internal_free_policy@@@@QAE@XZ 10079580 f i libucrtd:argv_parsing.obj
 0001:000785a0       ??B?$__crt_unique_heap_ptr@EU__crt_internal_free_policy@@@@QBE_NXZ 100795a0 f i libucrtd:argv_parsing.obj
 0001:00078660       ?detach@?$__crt_unique_heap_ptr@EU__crt_internal_free_policy@@@@QAEPAEXZ 10079660 f i libucrtd:argv_parsing.obj
 0001:00078690       ?detach@?$__crt_unique_heap_ptr@PADU__crt_internal_free_policy@@@@QAEPAPADXZ 10079690 f i libucrtd:argv_parsing.obj
 0001:000786c0       ?detach@?$__crt_unique_heap_ptr@PA_WU__crt_internal_free_policy@@@@QAEPAPA_WXZ 100796c0 f i libucrtd:argv_parsing.obj
 0001:00078750       ?get@?$__crt_unique_heap_ptr@EU__crt_internal_free_policy@@@@QBEPAEXZ 10079750 f i libucrtd:argv_parsing.obj
 0001:00078770       ?get@?$__crt_unique_heap_ptr@PADU__crt_internal_free_policy@@@@QBEPAPADXZ 10079770 f i libucrtd:argv_parsing.obj
 0001:00078790       ?get@?$__crt_unique_heap_ptr@PA_WU__crt_internal_free_policy@@@@QBEPAPA_WXZ 10079790 f i libucrtd:argv_parsing.obj
 0001:000787b0       ?get_address_of@?$__crt_unique_heap_ptr@PADU__crt_internal_free_policy@@@@QAEPAPAPADXZ 100797b0 f i libucrtd:argv_parsing.obj
 0001:000787c0       ?get_address_of@?$__crt_unique_heap_ptr@PA_WU__crt_internal_free_policy@@@@QAEPAPAPA_WXZ 100797c0 f i libucrtd:argv_parsing.obj
 0001:00078810       ?is_valid@?$__crt_unique_heap_ptr@EU__crt_internal_free_policy@@@@QBE_NXZ 10079810 f i libucrtd:argv_parsing.obj
 0001:00078840       ?release@?$__crt_unique_heap_ptr@EU__crt_internal_free_policy@@@@QAEXXZ 10079840 f i libucrtd:argv_parsing.obj
 0001:00078870       ?release@?$__crt_unique_heap_ptr@PADU__crt_internal_free_policy@@@@QAEXXZ 10079870 f i libucrtd:argv_parsing.obj
 0001:000788a0       ?release@?$__crt_unique_heap_ptr@PA_WU__crt_internal_free_policy@@@@QAEXXZ 100798a0 f i libucrtd:argv_parsing.obj
 0001:00078910       ___acrt_allocate_buffer_for_argv 10079910 f   libucrtd:argv_parsing.obj
 0001:000789d0       __configure_narrow_argv    100799d0 f   libucrtd:argv_parsing.obj
 0001:000789f0       __configure_wide_argv      100799f0 f   libucrtd:argv_parsing.obj
 0001:00078a10       __set_pgmptr               10079a10 f i libucrtd:argv_parsing.obj
 0001:00078a20       __set_wpgmptr              10079a20 f i libucrtd:argv_parsing.obj
 0001:00078a30       ??$?R_W@__crt_internal_free_policy@@QBEXQB_W@Z 10079a30 f i libucrtd:environment_initialization.obj
 0001:00079210       ??$get_environment_from_os@$$V@?$__crt_char_traits@D@@SAPADXZ 1007a210 f i libucrtd:environment_initialization.obj
 0001:00079220       ??$get_environment_from_os@$$V@?$__crt_char_traits@_W@@SAPA_WXZ 1007a220 f i libucrtd:environment_initialization.obj
 0001:000794f0       ??$set_variable_in_environment_nolock@PADH@?$__crt_char_traits@D@@SAH$$QAPAD$$QAH@Z 1007a4f0 f i libucrtd:environment_initialization.obj
 0001:00079510       ??$set_variable_in_environment_nolock@PA_WH@?$__crt_char_traits@_W@@SAH$$QAPA_W$$QAH@Z 1007a510 f i libucrtd:environment_initialization.obj
 0001:00079530       ??$tcscpy_s@PADABIAAPAD@?$__crt_char_traits@D@@SAH$$QAPADABIAAPAD@Z 1007a530 f i libucrtd:environment_initialization.obj
 0001:00079560       ??$tcscpy_s@PA_WABIAAPA_W@?$__crt_char_traits@_W@@SAH$$QAPA_WABIAAPA_W@Z 1007a560 f i libucrtd:environment_initialization.obj
 0001:00079590       ??$tcslen@AAPAD@?$__crt_char_traits@D@@SAIAAPAD@Z 1007a590 f i libucrtd:environment_initialization.obj
 0001:000795b0       ??$tcslen@AAPA_W@?$__crt_char_traits@_W@@SAIAAPA_W@Z 1007a5b0 f i libucrtd:environment_initialization.obj
 0001:000795d0       ??$uninitialize@A6AXAAPAPAD@_E@?$dual_state_global@PAPAD@__crt_state_management@@QAEXA6AXAAPAPAD@_E@Z 1007a5d0 f i libucrtd:environment_initialization.obj
 0001:00079650       ??$uninitialize@A6AXAAPAPA_W@_E@?$dual_state_global@PAPA_W@__crt_state_management@@QAEXA6AXAAPAPA_W@_E@Z 1007a650 f i libucrtd:environment_initialization.obj
 0001:00079730       ??0?$__crt_unique_heap_ptr@_WU__crt_internal_free_policy@@@@QAE@QA_W@Z 1007a730 f i libucrtd:environment_initialization.obj
 0001:00079750       ??1?$__crt_unique_heap_ptr@_WU__crt_internal_free_policy@@@@QAE@XZ 1007a750 f i libucrtd:environment_initialization.obj
 0001:00079770       ??B?$__crt_unique_heap_ptr@PADU__crt_internal_free_policy@@@@QBE_NXZ 1007a770 f i libucrtd:environment_initialization.obj
 0001:00079790       ??B?$__crt_unique_heap_ptr@PA_WU__crt_internal_free_policy@@@@QBE_NXZ 1007a790 f i libucrtd:environment_initialization.obj
 0001:000797b0       ??B?$__crt_unique_heap_ptr@_WU__crt_internal_free_policy@@@@QBE_NXZ 1007a7b0 f i libucrtd:environment_initialization.obj
 0001:000797d0       ?__crt_compute_required_transform_buffer_count@@YAIIQBD@Z 1007a7d0 f i libucrtd:environment_initialization.obj
 0001:000797f0       ?__crt_compute_required_transform_buffer_count@@YAIIQB_W@Z 1007a7f0 f i libucrtd:environment_initialization.obj
 0001:00079820       ?__crt_transform_string@@YAIIQBDQA_WI@Z 1007a820 f i libucrtd:environment_initialization.obj
 0001:00079850       ?__crt_transform_string@@YAIIQB_WQADI@Z 1007a850 f i libucrtd:environment_initialization.obj
 0001:00079880       ?detach@?$__crt_unique_heap_ptr@DU__crt_internal_free_policy@@@@QAEPADXZ 1007a880 f i libucrtd:environment_initialization.obj
 0001:000798b0       ?detach@?$__crt_unique_heap_ptr@_WU__crt_internal_free_policy@@@@QAEPA_WXZ 1007a8b0 f i libucrtd:environment_initialization.obj
 0001:000798e0       ?get@?$__crt_unique_heap_ptr@_WU__crt_internal_free_policy@@@@QBEPA_WXZ 1007a8e0 f i libucrtd:environment_initialization.obj
 0001:00079980       ?initialize@?$dual_state_global@PAPAD@__crt_state_management@@QAEXQAPAD@Z 1007a980 f i libucrtd:environment_initialization.obj
 0001:000799c0       ?initialize@?$dual_state_global@PAPA_W@__crt_state_management@@QAEXQAPA_W@Z 1007a9c0 f i libucrtd:environment_initialization.obj
 0001:00079a00       ?is_valid@?$__crt_unique_heap_ptr@PADU__crt_internal_free_policy@@@@QBE_NXZ 1007aa00 f i libucrtd:environment_initialization.obj
 0001:00079a30       ?is_valid@?$__crt_unique_heap_ptr@PA_WU__crt_internal_free_policy@@@@QBE_NXZ 1007aa30 f i libucrtd:environment_initialization.obj
 0001:00079a60       ?is_valid@?$__crt_unique_heap_ptr@_WU__crt_internal_free_policy@@@@QBE_NXZ 1007aa60 f i libucrtd:environment_initialization.obj
 0001:00079ab0       ?release@?$__crt_unique_heap_ptr@_WU__crt_internal_free_policy@@@@QAEXXZ 1007aab0 f i libucrtd:environment_initialization.obj
 0001:00079ae0       ?value@?$dual_state_global@PAPAD@__crt_state_management@@QAEAAPAPADXZ 1007aae0 f i libucrtd:environment_initialization.obj
 0001:00079b00       ?value@?$dual_state_global@PAPA_W@__crt_state_management@@QAEAAPAPA_WXZ 1007ab00 f i libucrtd:environment_initialization.obj
 0001:00079b20       ___dcrt_get_or_create_narrow_environment_nolock 1007ab20 f   libucrtd:environment_initialization.obj
 0001:00079b30       ___dcrt_get_or_create_wide_environment_nolock 1007ab30 f   libucrtd:environment_initialization.obj
 0001:00079b40       ___dcrt_uninitialize_environments_nolock 1007ab40 f   libucrtd:environment_initialization.obj
 0001:00079b90       ___p__environ              1007ab90 f   libucrtd:environment_initialization.obj
 0001:00079bb0       ___p__wenviron             1007abb0 f   libucrtd:environment_initialization.obj
 0001:00079bd0       __get_initial_narrow_environment 1007abd0 f   libucrtd:environment_initialization.obj
 0001:00079be0       __get_initial_wide_environment 1007abe0 f   libucrtd:environment_initialization.obj
 0001:00079bf0       __initialize_narrow_environment 1007abf0 f   libucrtd:environment_initialization.obj
 0001:00079c00       __initialize_wide_environment 1007ac00 f   libucrtd:environment_initialization.obj
 0001:00079c10       ??$?B$$A6AXXZ@__crt_fast_encoded_nullptr_t@@QBEP6AXXZXZ 1007ac10 f i libucrtd:onexit.obj
 0001:00079c30       ??$?BP6AXXZ@__crt_fast_encoded_nullptr_t@@QBEPAP6AXXZXZ 1007ac30 f i libucrtd:onexit.obj
 0001:00079c50       ??$?RP6AXXZ@__crt_internal_free_policy@@QBEXQBQ6AXXZ@Z 1007ac50 f i libucrtd:onexit.obj
 0001:00079e70       ??$__crt_fast_decode_pointer@P6AXXZ@@YAP6AXXZQ6AXXZ@Z 1007ae70 f i libucrtd:onexit.obj
 0001:00079ea0       ??$__crt_fast_decode_pointer@PAP6AXXZ@@YAPAP6AXXZQAP6AXXZ@Z 1007aea0 f i libucrtd:onexit.obj
 0001:00079ed0       ??$__crt_fast_encode_pointer@P6AHXZ@@YAP6AHXZQ6AHXZ@Z 1007aed0 f i libucrtd:onexit.obj
 0001:00079f00       ??$__crt_fast_encode_pointer@P6AXXZ@@YAP6AXXZQ6AXXZ@Z 1007af00 f i libucrtd:onexit.obj
 0001:00079f30       ??$__crt_fast_encode_pointer@PAP6AXXZ@@YAPAP6AXXZQAP6AXXZ@Z 1007af30 f i libucrtd:onexit.obj
 0001:0007a030       ??0?$__crt_unique_heap_ptr@P6AXXZU__crt_internal_free_policy@@@@QAE@QAP6AXXZ@Z 1007b030 f i libucrtd:onexit.obj
 0001:0007a050       ??1?$__crt_unique_heap_ptr@P6AXXZU__crt_internal_free_policy@@@@QAE@XZ 1007b050 f i libucrtd:onexit.obj
 0001:0007a070       ??1scoped_global_state_reset@__crt_state_management@@QAE@XZ 1007b070 f i libucrtd:onexit.obj
 0001:0007a4f0       ?detach@?$__crt_unique_heap_ptr@P6AXXZU__crt_internal_free_policy@@@@QAEPAP6AXXZXZ 1007b4f0 f i libucrtd:onexit.obj
 0001:0007a520       ?release@?$__crt_unique_heap_ptr@P6AXXZU__crt_internal_free_policy@@@@QAEXXZ 1007b520 f i libucrtd:onexit.obj
 0001:0007a550       __crt_at_quick_exit        1007b550 f   libucrtd:onexit.obj
 0001:0007a570       __crt_atexit               1007b570 f   libucrtd:onexit.obj
 0001:0007a590       __execute_onexit_table     1007b590 f   libucrtd:onexit.obj
 0001:0007a5d0       __initialize_onexit_table  1007b5d0 f   libucrtd:onexit.obj
 0001:0007a630       __register_onexit_function 1007b630 f   libucrtd:onexit.obj
 0001:0007a880       ??$?BX@__crt_fast_encoded_nullptr_t@@QBEPAXXZ 1007b880 f i libucrtd:initialization.obj
 0001:0007a8a0       ??$__crt_fast_encode_pointer@PAX@@YAPAXQAX@Z 1007b8a0 f i libucrtd:initialization.obj
 0001:0007a990       ?initialize@?$dual_state_global@PAU__crt_locale_data@@@__crt_state_management@@QAEXQAU__crt_locale_data@@@Z 1007b990 f i libucrtd:initialization.obj
 0001:0007a9d0       ___acrt_initialize         1007b9d0 f   libucrtd:initialization.obj
 0001:0007a9f0       ___acrt_thread_attach      1007b9f0 f   libucrtd:initialization.obj
 0001:0007aa10       ___acrt_thread_detach      1007ba10 f   libucrtd:initialization.obj
 0001:0007aa20       ___acrt_uninitialize       1007ba20 f   libucrtd:initialization.obj
 0001:0007aa40       ___acrt_uninitialize_critical 1007ba40 f   libucrtd:initialization.obj
 0001:0007aa60       ??0_LocaleUpdate@@QAE@QAU__crt_locale_pointers@@@Z 1007ba60 f i libucrtd:debug_heap.obj
 0001:0007ab30       ??1_LocaleUpdate@@QAE@XZ   1007bb30 f i libucrtd:debug_heap.obj
 0001:0007ab60       ?GetLocaleT@_LocaleUpdate@@QAEPAU__crt_locale_pointers@@XZ 1007bb60 f i libucrtd:debug_heap.obj
 0001:0007c5b0       __CrtCheckMemory           1007d5b0 f   libucrtd:debug_heap.obj
 0001:0007c740       __CrtDoForAllClientObjects 1007d740 f   libucrtd:debug_heap.obj
 0001:0007c8a0       __CrtDumpMemoryLeaks       1007d8a0 f   libucrtd:debug_heap.obj
 0001:0007c940       __CrtGetAllocHook          1007d940 f   libucrtd:debug_heap.obj
 0001:0007c950       __CrtGetDumpClient         1007d950 f   libucrtd:debug_heap.obj
 0001:0007c960       __CrtIsMemoryBlock         1007d960 f   libucrtd:debug_heap.obj
 0001:0007cab0       __CrtIsValidHeapPointer    1007dab0 f   libucrtd:debug_heap.obj
 0001:0007caf0       __CrtIsValidPointer        1007daf0 f   libucrtd:debug_heap.obj
 0001:0007cb20       __CrtMemCheckpoint         1007db20 f   libucrtd:debug_heap.obj
 0001:0007cd50       __CrtMemDifference         1007dd50 f   libucrtd:debug_heap.obj
 0001:0007cfc0       __CrtMemDumpAllObjectsSince 1007dfc0 f   libucrtd:debug_heap.obj
 0001:0007d060       __CrtMemDumpStatistics     1007e060 f   libucrtd:debug_heap.obj
 0001:0007d190       __CrtReportBlockType       1007e190 f   libucrtd:debug_heap.obj
 0001:0007d1c0       __CrtSetAllocHook          1007e1c0 f   libucrtd:debug_heap.obj
 0001:0007d1e0       __CrtSetBreakAlloc         1007e1e0 f   libucrtd:debug_heap.obj
 0001:0007d200       __CrtSetDbgBlockType       1007e200 f   libucrtd:debug_heap.obj
 0001:0007d2e0       __CrtSetDbgFlag            1007e2e0 f   libucrtd:debug_heap.obj
 0001:0007d450       __CrtSetDumpClient         1007e450 f   libucrtd:debug_heap.obj
 0001:0007d470       ___acrt_get_locale_data_prefix 1007e470 f i libucrtd:debug_heap.obj
 0001:0007d490       ___p__crtBreakAlloc        1007e490 f   libucrtd:debug_heap.obj
 0001:0007d4a0       ___p__crtDbgFlag           1007e4a0 f   libucrtd:debug_heap.obj
 0001:0007d4b0       __aligned_free_dbg         1007e4b0 f   libucrtd:debug_heap.obj
 0001:0007d560       __aligned_malloc_dbg       1007e560 f   libucrtd:debug_heap.obj
 0001:0007d590       __aligned_msize_dbg        1007e590 f   libucrtd:debug_heap.obj
 0001:0007d6c0       __aligned_offset_malloc_dbg 1007e6c0 f   libucrtd:debug_heap.obj
 0001:0007d8a0       __aligned_offset_realloc_dbg 1007e8a0 f   libucrtd:debug_heap.obj
 0001:0007dbb0       __aligned_offset_recalloc_dbg 1007ebb0 f   libucrtd:debug_heap.obj
 0001:0007dc70       __aligned_realloc_dbg      1007ec70 f   libucrtd:debug_heap.obj
 0001:0007dca0       __aligned_recalloc_dbg     1007eca0 f   libucrtd:debug_heap.obj
 0001:0007dcd0       __calloc_dbg               1007ecd0 f   libucrtd:debug_heap.obj
 0001:0007dd40       __chvalidchk_l             1007ed40 f i libucrtd:debug_heap.obj
 0001:0007dd60       __expand_dbg               1007ed60 f   libucrtd:debug_heap.obj
 0001:0007de90       __free_dbg                 1007ee90 f   libucrtd:debug_heap.obj
 0001:0007df40       __ischartype_l             1007ef40 f i libucrtd:debug_heap.obj
 0001:0007dfc0       __malloc_dbg               1007efc0 f   libucrtd:debug_heap.obj
 0001:0007dfe0       __msize_dbg                1007efe0 f   libucrtd:debug_heap.obj
 0001:0007e170       __realloc_dbg              1007f170 f   libucrtd:debug_heap.obj
 0001:0007e210       __recalloc_dbg             1007f210 f   libucrtd:debug_heap.obj
 0001:0007e2c0       __initterm                 1007f2c0 f   libucrtd:initterm.obj
 0001:0007e310       __initterm_e               1007f310 f   libucrtd:initterm.obj
 0001:0007e680       _strcpy_s                  1007f680 f   libucrtd:strcpy_s.obj
 0001:0007eab0       _strcat_s                  1007fab0 f   libucrtd:strcat_s.obj
 0001:0007ead0       ??$?B$$A6AHI@Z@__crt_fast_encoded_nullptr_t@@QBEP6AHI@ZXZ 1007fad0 f i libucrtd:new_handler.obj
 0001:0007eaf0       ??$__crt_fast_decode_pointer@P6AHI@Z@@YAP6AHI@ZQ6AHI@Z@Z 1007faf0 f i libucrtd:new_handler.obj
 0001:0007eb20       ??$__crt_fast_encode_pointer@P6AHI@Z@@YAP6AHI@ZQ6AHI@Z@Z 1007fb20 f i libucrtd:new_handler.obj
 0001:0007eb50       ?_set_new_handler@@YAP6AHI@ZH@Z 1007fb50 f   libucrtd:new_handler.obj
 0001:0007ebb0       ?initialize@?$dual_state_global@P6AHI@Z@__crt_state_management@@QAEXQ6AHI@Z@Z 1007fbb0 f i libucrtd:new_handler.obj
 0001:0007ebf0       ?value@?$dual_state_global@P6AHI@Z@__crt_state_management@@QAEAAP6AHI@ZXZ 1007fbf0 f i libucrtd:new_handler.obj
 0001:0007ec10       ___acrt_initialize_new_handler 1007fc10 f   libucrtd:new_handler.obj
 0001:0007ec30       __callnewh                 1007fc30 f   libucrtd:new_handler.obj
 0001:0007ec80       __query_new_handler        1007fc80 f   libucrtd:new_handler.obj
 0001:0007ed10       __set_new_handler          1007fd10 f   libucrtd:new_handler.obj
 0001:0007edf0       __get_terminate            1007fdf0 f   libucrtd:terminate.obj
 0001:0007ee10       _set_terminate             1007fe10 f   libucrtd:terminate.obj
 0001:0007ee40       _terminate                 1007fe40 f   libucrtd:terminate.obj
 0001:0007f840       __makepath                 10080840 f   libucrtd:makepath.obj
 0001:0007f870       __makepath_s               10080870 f   libucrtd:makepath.obj
 0001:0007f8a0       __wmakepath                100808a0 f   libucrtd:makepath.obj
 0001:0007f8d0       __wmakepath_s              100808d0 f   libucrtd:makepath.obj
 0001:000813a0       ??$tcsncpy_s@AAPADIAAPBDABI@?$__crt_char_traits@D@@SAHAAPAD$$QAIAAPBDABI@Z 100823a0 f i libucrtd:splitpath.obj
 0001:000813d0       ??$tcsncpy_s@AAPADIAAPBDH@?$__crt_char_traits@D@@SAHAAPAD$$QAIAAPBD$$QAH@Z 100823d0 f i libucrtd:splitpath.obj
 0001:00081400       ??$tcsncpy_s@AAPA_WIAAPB_WABI@?$__crt_char_traits@_W@@SAHAAPA_W$$QAIAAPB_WABI@Z 10082400 f i libucrtd:splitpath.obj
 0001:00081430       ??$tcsncpy_s@AAPA_WIAAPB_WH@?$__crt_char_traits@_W@@SAHAAPA_W$$QAIAAPB_W$$QAH@Z 10082430 f i libucrtd:splitpath.obj
 0001:00081670       __splitpath                10082670 f   libucrtd:splitpath.obj
 0001:000816a0       __splitpath_s              100826a0 f   libucrtd:splitpath.obj
 0001:000816f0       __wsplitpath               100826f0 f   libucrtd:splitpath.obj
 0001:00081720       __wsplitpath_s             10082720 f   libucrtd:splitpath.obj
 0001:00081770       __set_abort_behavior       10082770 f   libucrtd:abort.obj
 0001:000817a0       _abort                     100827a0 f   libucrtd:abort.obj
 0001:00081810       _strcmp                    10082810 f   libucrtd:strcmp.obj
 0001:000818a0       _strlen                    100828a0 f   libucrtd:strlen.obj
 0001:00081930       ??$is_overflow_condition@_K@__crt_strtox@@YA_NI_K@Z 10082930 f i libucrtd:atox.obj
 0001:000819c0       ??$make_c_string_character_source@D$$T@__crt_strtox@@YA?AV?$c_string_character_source@D@0@QBD$$T@Z 100829c0 f i libucrtd:atox.obj
 0001:000819e0       ??$make_c_string_character_source@_W$$T@__crt_strtox@@YA?AV?$c_string_character_source@_W@0@QB_W$$T@Z 100829e0 f i libucrtd:atox.obj
 0001:00081a00       ??$parse_integer@KV?$c_string_character_source@D@__crt_strtox@@$00@__crt_strtox@@YAKAAV__crt_cached_ptd_host@@V?$c_string_character_source@D@0@H_N@Z 10082a00 f i libucrtd:atox.obj
 0001:00081d60       ??$parse_integer@KV?$c_string_character_source@_W@__crt_strtox@@$00@__crt_strtox@@YAKAAV__crt_cached_ptd_host@@V?$c_string_character_source@_W@0@H_N@Z 10082d60 f i libucrtd:atox.obj
 0001:000820d0       ??$parse_integer@_KV?$c_string_character_source@D@__crt_strtox@@$00@__crt_strtox@@YA_KAAV__crt_cached_ptd_host@@V?$c_string_character_source@D@0@H_N@Z 100830d0 f i libucrtd:atox.obj
 0001:000824c0       ??$parse_integer@_KV?$c_string_character_source@_W@__crt_strtox@@$00@__crt_strtox@@YA_KAAV__crt_cached_ptd_host@@V?$c_string_character_source@_W@0@H_N@Z 100834c0 f i libucrtd:atox.obj
 0001:000828b0       ??$parse_integer_from_string@JD$$T@__crt_strtox@@YAJQBD$$THQAU__crt_locale_pointers@@@Z 100838b0 f i libucrtd:atox.obj
 0001:00082910       ??$parse_integer_from_string@J_W$$T@__crt_strtox@@YAJQB_W$$THQAU__crt_locale_pointers@@@Z 10083910 f i libucrtd:atox.obj
 0001:00082970       ??$parse_integer_from_string@_JD$$T@__crt_strtox@@YA_JQBD$$THQAU__crt_locale_pointers@@@Z 10083970 f i libucrtd:atox.obj
 0001:000829d0       ??$parse_integer_from_string@_J_W$$T@__crt_strtox@@YA_JQB_W$$THQAU__crt_locale_pointers@@@Z 100839d0 f i libucrtd:atox.obj
 0001:00082a30       ?is_space@__crt_strtox@@YA_NDQAU__crt_locale_pointers@@@Z 10083a30 f i libucrtd:atox.obj
 0001:00082a70       ?is_space@__crt_strtox@@YA_N_WPAU__crt_locale_pointers@@@Z 10083a70 f i libucrtd:atox.obj
 0001:00082aa0       ?maximum_signed_value@__crt_strtox@@YA_J_K@Z 10083aa0 f i libucrtd:atox.obj
 0001:00082ab0       ?minimum_signed_value@__crt_strtox@@YA_J_K@Z 10083ab0 f i libucrtd:atox.obj
 0001:00082ac0       __atoi64                   10083ac0 f   libucrtd:atox.obj
 0001:00082ae0       __atoi64_l                 10083ae0 f   libucrtd:atox.obj
 0001:00082b00       __atoi_l                   10083b00 f   libucrtd:atox.obj
 0001:00082b20       __atol_l                   10083b20 f   libucrtd:atox.obj
 0001:00082b40       __atoll_l                  10083b40 f   libucrtd:atox.obj
 0001:00082b60       __wtoi                     10083b60 f   libucrtd:atox.obj
 0001:00082b80       __wtoi64                   10083b80 f   libucrtd:atox.obj
 0001:00082ba0       __wtoi64_l                 10083ba0 f   libucrtd:atox.obj
 0001:00082bc0       __wtoi_l                   10083bc0 f   libucrtd:atox.obj
 0001:00082be0       __wtol                     10083be0 f   libucrtd:atox.obj
 0001:00082c00       __wtol_l                   10083c00 f   libucrtd:atox.obj
 0001:00082c20       __wtoll                    10083c20 f   libucrtd:atox.obj
 0001:00082c40       __wtoll_l                  10083c40 f   libucrtd:atox.obj
 0001:00082c60       _atoi                      10083c60 f   libucrtd:atox.obj
 0001:00082c80       _atol                      10083c80 f   libucrtd:atox.obj
 0001:00082ca0       _atoll                     10083ca0 f   libucrtd:atox.obj
 0001:00082cc0       _strncmp                   10083cc0 f   libucrtd:strncmp.obj
 0001:00082d40       _wcsncmp                   10083d40 f   libucrtd:wcsncmp.obj
 0001:00082da0       __CrtGetDebugFillThreshold 10083da0 f   libucrtd:debug_fill_threshold.obj
 0001:00082db0       __CrtSetDebugFillThreshold 10083db0 f   libucrtd:debug_fill_threshold.obj
 0001:00082dd0       ?value@?$dual_state_global@PAU__crt_locale_data@@@__crt_state_management@@QAEAAPAU__crt_locale_data@@XZ 10083dd0 f i libucrtd:locale_update.obj
 0001:00082df0       ?value@?$dual_state_global@PAU__crt_multibyte_data@@@__crt_state_management@@QAEAAPAU__crt_multibyte_data@@XZ 10083df0 f i libucrtd:locale_update.obj
 0001:00082e10       ?value_explicit@?$dual_state_global@PAU__crt_locale_data@@@__crt_state_management@@QAEAAPAU__crt_locale_data@@I@Z 10083e10 f i libucrtd:locale_update.obj
 0001:00082e30       ?value_explicit@?$dual_state_global@PAU__crt_multibyte_data@@@__crt_state_management@@QAEAAPAU__crt_multibyte_data@@I@Z 10083e30 f i libucrtd:locale_update.obj
 0001:00082e50       ___acrt_should_sync_with_global_locale 10083e50 f i libucrtd:locale_update.obj
 0001:00082e80       ___acrt_update_locale_info 10083e80 f   libucrtd:locale_update.obj
 0001:00082ec0       ___acrt_update_locale_info_explicit 10083ec0 f   libucrtd:locale_update.obj
 0001:00082f00       ___acrt_update_multibyte_info 10083f00 f   libucrtd:locale_update.obj
 0001:00082f40       ___acrt_update_multibyte_info_explicit 10083f40 f   libucrtd:locale_update.obj
 0001:00082f80       ?__acrt_fp_classify@@YA?AW4__acrt_fp_class@@ABN@Z 10083f80 f i libucrtd:cvt.obj
 0001:000830a0       ?__acrt_fp_is_negative@@YA_NABN@Z 100840a0 f i libucrtd:cvt.obj
 0001:000842b0       ?strrchr@@YAPADQADH@Z      100852b0 f i libucrtd:cvt.obj
 0001:000842d0       ___acrt_fp_format          100852d0 f   libucrtd:cvt.obj
 0001:00084750       ?value_or@?$cached@H@__crt_cached_ptd_host@@QBEHH@Z 10085750 f i libucrtd:wctomb.obj
 0001:00084780       __wctomb_internal          10085780 f   libucrtd:wctomb.obj
 0001:00084b00       __wctomb_l                 10085b00 f   libucrtd:wctomb.obj
 0001:00084b80       __wctomb_s_l               10085b80 f   libucrtd:wctomb.obj
 0001:00084bd0       _wctomb                    10085bd0 f   libucrtd:wctomb.obj
 0001:00084c40       _wctomb_s                  10085c40 f   libucrtd:wctomb.obj
 0001:00084c90       __isleadbyte_fast_internal 10085c90 f i libucrtd:mbtowc.obj
 0001:00084cb0       __mbtowc_internal          10085cb0 f   libucrtd:mbtowc.obj
 0001:00084f40       __mbtowc_l                 10085f40 f   libucrtd:mbtowc.obj
 0001:00084f80       _mbtowc                    10085f80 f   libucrtd:mbtowc.obj
 0001:00084fc0       ?lowio_handle@__crt_stdio_stream@@QBEHXZ 10085fc0 f i libucrtd:fileno.obj
 0001:00084fe0       __fileno                   10085fe0 f   libucrtd:fileno.obj
 0001:00085080       ??$?RPAU__crt_stdio_stream_data@@@__crt_internal_free_policy@@QBEXQBQAU__crt_stdio_stream_data@@@Z 10086080 f i libucrtd:_file.obj
 0001:000850a0       ??0?$__crt_unique_heap_ptr@PAU__crt_stdio_stream_data@@U__crt_internal_free_policy@@@@QAE@QAPAU__crt_stdio_stream_data@@@Z 100860a0 f i libucrtd:_file.obj
 0001:000850c0       ??1?$__crt_unique_heap_ptr@PAU__crt_stdio_stream_data@@U__crt_internal_free_policy@@@@QAE@XZ 100860c0 f i libucrtd:_file.obj
 0001:000850e0       ?detach@?$__crt_unique_heap_ptr@PAU__crt_stdio_stream_data@@U__crt_internal_free_policy@@@@QAEPAPAU__crt_stdio_stream_data@@XZ 100860e0 f i libucrtd:_file.obj
 0001:00085110       ?release@?$__crt_unique_heap_ptr@PAU__crt_stdio_stream_data@@U__crt_internal_free_policy@@@@QAEXXZ 10086110 f i libucrtd:_file.obj
 0001:00085140       ___acrt_initialize_stdio   10086140 f   libucrtd:_file.obj
 0001:000852b0       ___acrt_iob_func           100862b0 f   libucrtd:_file.obj
 0001:000852c0       ___acrt_uninitialize_stdio 100862c0 f   libucrtd:_file.obj
 0001:00085340       __get_stream_buffer_pointers 10086340 f   libucrtd:_file.obj
 0001:00085420       __lock_file                10086420 f   libucrtd:_file.obj
 0001:00085450       __unlock_file              10086450 f   libucrtd:_file.obj
 0001:00085480       __get_printf_count_output  10086480 f   libucrtd:printf_count_output.obj
 0001:000854b0       __set_printf_count_output  100864b0 f   libucrtd:printf_count_output.obj
 0001:000856b0       __fputwc_nolock            100866b0 f   libucrtd:fputwc.obj
 0001:000856f0       __fputwc_nolock_internal   100866f0 f   libucrtd:fputwc.obj
 0001:00085900       __fputwchar                10086900 f   libucrtd:fputwc.obj
 0001:00085920       __putwc_nolock             10086920 f   libucrtd:fputwc.obj
 0001:00085940       _fputwc                    10086940 f   libucrtd:fputwc.obj
 0001:00085980       _putwc                     10086980 f   libucrtd:fputwc.obj
 0001:000859a0       _putwchar                  100869a0 f   libucrtd:fputwc.obj
 0001:000859c0       ?has_any_buffer@__crt_stdio_stream@@QBE_NXZ 100869c0 f i libucrtd:_sftbuf.obj
 0001:000859e0       ?has_any_of@__crt_stdio_stream@@QBE_NJ@Z 100869e0 f i libucrtd:_sftbuf.obj
 0001:00085a20       ?has_temporary_buffer@__crt_stdio_stream@@QBE_NXZ 10086a20 f i libucrtd:_sftbuf.obj
 0001:00085a40       ?set_flags@__crt_stdio_stream@@QBE_NJ@Z 10086a40 f i libucrtd:_sftbuf.obj
 0001:00085a90       ?unset_flags@__crt_stdio_stream@@QBE_NJ@Z 10086a90 f i libucrtd:_sftbuf.obj
 0001:00085ae0       ___acrt_should_use_temporary_buffer 10086ae0 f   libucrtd:_sftbuf.obj
 0001:00085b30       ___acrt_stdio_begin_temporary_buffering_nolock 10086b30 f   libucrtd:_sftbuf.obj
 0001:00085d00       ___acrt_stdio_end_temporary_buffering_nolock 10086d00 f   libucrtd:_sftbuf.obj
 0001:00085d80       ??$?RU__acrt_ptd@@@__crt_internal_free_policy@@QBEXQBU__acrt_ptd@@@Z 10086d80 f i libucrtd:per_thread_data.obj
 0001:000862f0       ??0?$__crt_unique_heap_ptr@U__acrt_ptd@@U__crt_internal_free_policy@@@@QAE@QAU__acrt_ptd@@@Z 100872f0 f i libucrtd:per_thread_data.obj
 0001:00086310       ??1?$__crt_unique_heap_ptr@U__acrt_ptd@@U__crt_internal_free_policy@@@@QAE@XZ 10087310 f i libucrtd:per_thread_data.obj
 0001:00086330       ??B?$__crt_unique_heap_ptr@U__acrt_ptd@@U__crt_internal_free_policy@@@@QBE_NXZ 10087330 f i libucrtd:per_thread_data.obj
 0001:00086640       ?dangerous_get_state_array@?$dual_state_global@PAU__crt_locale_data@@@__crt_state_management@@QAEPAPAU__crt_locale_data@@XZ 10087640 f i libucrtd:per_thread_data.obj
 0001:000867e0       ?detach@?$__crt_unique_heap_ptr@U__acrt_ptd@@U__crt_internal_free_policy@@@@QAEPAU__acrt_ptd@@XZ 100877e0 f i libucrtd:per_thread_data.obj
 0001:00086810       ?get@?$__crt_unique_heap_ptr@U__acrt_ptd@@U__crt_internal_free_policy@@@@QBEPAU__acrt_ptd@@XZ 10087810 f i libucrtd:per_thread_data.obj
 0001:000869b0       ?is_valid@?$__crt_unique_heap_ptr@U__acrt_ptd@@U__crt_internal_free_policy@@@@QBE_NXZ 100879b0 f i libucrtd:per_thread_data.obj
 0001:000869e0       ?release@?$__crt_unique_heap_ptr@U__acrt_ptd@@U__crt_internal_free_policy@@@@QAEXXZ 100879e0 f i libucrtd:per_thread_data.obj
 0001:00086ad0       ___acrt_freeptd            10087ad0 f   libucrtd:per_thread_data.obj
 0001:00086b00       ___acrt_getptd             10087b00 f   libucrtd:per_thread_data.obj
 0001:00086b20       ___acrt_getptd_head        10087b20 f   libucrtd:per_thread_data.obj
 0001:00086b40       ___acrt_getptd_noexit      10087b40 f   libucrtd:per_thread_data.obj
 0001:00086b50       ___acrt_getptd_noexit_explicit 10087b50 f   libucrtd:per_thread_data.obj
 0001:00086b70       ___acrt_initialize_ptd     10087b70 f   libucrtd:per_thread_data.obj
 0001:00086bb0       ___acrt_uninitialize_ptd   10087bb0 f   libucrtd:per_thread_data.obj
 0001:00086be0       ___threadhandle            10087be0 f   libucrtd:per_thread_data.obj
 0001:00086bf0       ___threadid                10087bf0 f   libucrtd:per_thread_data.obj
 0001:00086c10       ??$?RU__crt_locale_data@@@__crt_internal_free_policy@@QBEXQBU__crt_locale_data@@@Z 10087c10 f i libucrtd:wsetlocale.obj
 0001:00086c30       ??$?RU__crt_locale_pointers@@@__crt_internal_free_policy@@QBEXQBU__crt_locale_pointers@@@Z 10087c30 f i libucrtd:wsetlocale.obj
 0001:00086c50       ??$?RU__crt_multibyte_data@@@__crt_internal_free_policy@@QBEXQBU__crt_multibyte_data@@@Z 10087c50 f i libucrtd:wsetlocale.obj
 0001:00087330       ??0?$__crt_unique_heap_ptr@U__crt_locale_data@@U__crt_internal_free_policy@@@@QAE@QAU__crt_locale_data@@@Z 10088330 f i libucrtd:wsetlocale.obj
 0001:00087350       ??0?$__crt_unique_heap_ptr@U__crt_locale_pointers@@U__crt_internal_free_policy@@@@QAE@QAU__crt_locale_pointers@@@Z 10088350 f i libucrtd:wsetlocale.obj
 0001:00087370       ??0?$__crt_unique_heap_ptr@U__crt_multibyte_data@@U__crt_internal_free_policy@@@@QAE@QAU__crt_multibyte_data@@@Z 10088370 f i libucrtd:wsetlocale.obj
 0001:00087390       ??0_expandlocale_locale_name_cache@@QAE@QA_WIQAU__crt_qualified_locale_data@@@Z 10088390 f i libucrtd:wsetlocale.obj
 0001:00087400       ??1?$__crt_unique_heap_ptr@U__crt_locale_data@@U__crt_internal_free_policy@@@@QAE@XZ 10088400 f i libucrtd:wsetlocale.obj
 0001:00087420       ??1?$__crt_unique_heap_ptr@U__crt_locale_pointers@@U__crt_internal_free_policy@@@@QAE@XZ 10088420 f i libucrtd:wsetlocale.obj
 0001:00087440       ??1?$__crt_unique_heap_ptr@U__crt_multibyte_data@@U__crt_internal_free_policy@@@@QAE@XZ 10088440 f i libucrtd:wsetlocale.obj
 0001:00087460       ??1_expandlocale_locale_name_cache@@QAE@XZ 10088460 f i libucrtd:wsetlocale.obj
 0001:000874c0       ??B?$__crt_unique_heap_ptr@U__crt_locale_data@@U__crt_internal_free_policy@@@@QBE_NXZ 100884c0 f i libucrtd:wsetlocale.obj
 0001:000874e0       ??B?$__crt_unique_heap_ptr@U__crt_locale_pointers@@U__crt_internal_free_policy@@@@QBE_NXZ 100884e0 f i libucrtd:wsetlocale.obj
 0001:00087500       ??B?$__crt_unique_heap_ptr@U__crt_multibyte_data@@U__crt_internal_free_policy@@@@QBE_NXZ 10088500 f i libucrtd:wsetlocale.obj
 0001:000878f0       ?commit_locale_name@_expandlocale_locale_name_cache@@QAEXQB_WI@Z 100888f0 f i libucrtd:wsetlocale.obj
 0001:00087950       ?commit_locale_name_cache_already_updated@_expandlocale_locale_name_cache@@QAEXQB_WI@Z 10088950 f i libucrtd:wsetlocale.obj
 0001:000879b0       ?detach@?$__crt_unique_heap_ptr@U__crt_locale_data@@U__crt_internal_free_policy@@@@QAEPAU__crt_locale_data@@XZ 100889b0 f i libucrtd:wsetlocale.obj
 0001:000879e0       ?detach@?$__crt_unique_heap_ptr@U__crt_locale_pointers@@U__crt_internal_free_policy@@@@QAEPAU__crt_locale_pointers@@XZ 100889e0 f i libucrtd:wsetlocale.obj
 0001:00087a10       ?detach@?$__crt_unique_heap_ptr@U__crt_multibyte_data@@U__crt_internal_free_policy@@@@QAEPAU__crt_multibyte_data@@XZ 10088a10 f i libucrtd:wsetlocale.obj
 0001:00087a40       ?get@?$__crt_unique_heap_ptr@U__crt_locale_data@@U__crt_internal_free_policy@@@@QBEPAU__crt_locale_data@@XZ 10088a40 f i libucrtd:wsetlocale.obj
 0001:00087a60       ?get@?$__crt_unique_heap_ptr@U__crt_locale_pointers@@U__crt_internal_free_policy@@@@QBEPAU__crt_locale_pointers@@XZ 10088a60 f i libucrtd:wsetlocale.obj
 0001:00087a80       ?get@?$__crt_unique_heap_ptr@U__crt_multibyte_data@@U__crt_internal_free_policy@@@@QBEPAU__crt_multibyte_data@@XZ 10088a80 f i libucrtd:wsetlocale.obj
 0001:00087aa0       ?is_valid@?$__crt_unique_heap_ptr@U__crt_locale_data@@U__crt_internal_free_policy@@@@QBE_NXZ 10088aa0 f i libucrtd:wsetlocale.obj
 0001:00087ad0       ?is_valid@?$__crt_unique_heap_ptr@U__crt_locale_pointers@@U__crt_internal_free_policy@@@@QBE_NXZ 10088ad0 f i libucrtd:wsetlocale.obj
 0001:00087b00       ?is_valid@?$__crt_unique_heap_ptr@U__crt_multibyte_data@@U__crt_internal_free_policy@@@@QBE_NXZ 10088b00 f i libucrtd:wsetlocale.obj
 0001:00087b30       ?release@?$__crt_unique_heap_ptr@U__crt_locale_data@@U__crt_internal_free_policy@@@@QAEXXZ 10088b30 f i libucrtd:wsetlocale.obj
 0001:00087b60       ?release@?$__crt_unique_heap_ptr@U__crt_locale_pointers@@U__crt_internal_free_policy@@@@QAEXXZ 10088b60 f i libucrtd:wsetlocale.obj
 0001:00087b90       ?release@?$__crt_unique_heap_ptr@U__crt_multibyte_data@@U__crt_internal_free_policy@@@@QAEXXZ 10088b90 f i libucrtd:wsetlocale.obj
 0001:00087bc0       ___acrt_copy_locale_name   10088bc0 f   libucrtd:wsetlocale.obj
 0001:00087c60       ___acrt_set_locale_changed 10088c60 f   libucrtd:wsetlocale.obj
 0001:00087c80       ___acrt_uninitialize_locale 10088c80 f   libucrtd:wsetlocale.obj
 0001:00087ca0       ___ascii_tolower           10088ca0 f i libucrtd:wsetlocale.obj
 0001:00087cc0       ___ascii_towlower          10088cc0 f i libucrtd:wsetlocale.obj
 0001:00087ce0       ___lc_lctowcs              10088ce0 f   libucrtd:wsetlocale.obj
 0001:00087d90       ___lc_wcstolc              10088d90 f   libucrtd:wsetlocale.obj
 0001:00087fc0       __configthreadlocale       10088fc0 f   libucrtd:wsetlocale.obj
 0001:00088140       __create_locale            10089140 f   libucrtd:wsetlocale.obj
 0001:00088780       __free_locale              10089780 f   libucrtd:wsetlocale.obj
 0001:000888b0       __get_current_locale       100898b0 f   libucrtd:wsetlocale.obj
 0001:00088990       __wcreate_locale           10089990 f   libucrtd:wsetlocale.obj
 0001:00088be0       __wcscats                  10089be0 f   libucrtd:wsetlocale.obj
 0001:00088c60       __wsetlocale               10089c60 f   libucrtd:wsetlocale.obj
 0001:0008a370       ___p___mb_cur_max          1008b370 f   libucrtd:nlsdata.obj
 0001:0008a670       ___acrt_initialize_lowio   1008b670 f   libucrtd:ioinit.obj
 0001:0008a710       ___acrt_uninitialize_lowio 1008b710 f   libucrtd:ioinit.obj
 0001:0008a770       __CrtGetReportHook         1008b770 f   libucrtd:dbgrptt.obj
 0001:0008a780       __CrtSetReportFile         1008b780 f   libucrtd:dbgrptt.obj
 0001:0008a880       __CrtSetReportHook         1008b880 f   libucrtd:dbgrptt.obj
 0001:0008a8a0       __CrtSetReportMode         1008b8a0 f   libucrtd:dbgrptt.obj
 0001:0008a9e0       __VCrtDbgReportA           1008b9e0 f   libucrtd:dbgrptt.obj
 0001:0008b2b0       __VCrtDbgReportW           1008c2b0 f   libucrtd:dbgrptt.obj
 0001:0008bcd0       __snprintf_s               1008ccd0 f i libucrtd:dbgrptt.obj
 0001:0008bd10       __vsnprintf_s              1008cd10 f i libucrtd:dbgrptt.obj
 0001:0008bd40       __vsnprintf_s_l            1008cd40 f i libucrtd:dbgrptt.obj
 0001:0008bda0       ??$__acrt_convert_wcs_mbs_cp@_WDV<lambda_0fec1a7b3f42a53036604e18c2d5e07e>@@U__crt_win32_buffer_no_resizing@@@@YAHQB_WAAV?$__crt_win32_buffer@DU__crt_win32_buffer_no_resizing@@@@ABV<lambda_0fec1a7b3f42a53036604e18c2d5e07e>@@I@Z 1008cda0 f i libucrtd:getmodulefilenamea.obj
 0001:0008bee0       ??$__acrt_wcs_to_mbs_cp@U__crt_win32_buffer_no_resizing@@@@YAHQB_WAAV?$__crt_win32_buffer@DU__crt_win32_buffer_no_resizing@@@@I@Z 1008cee0 f i libucrtd:getmodulefilenamea.obj
 0001:0008bf10       ??0?$__crt_win32_buffer@DU__crt_win32_buffer_no_resizing@@@@QAE@QADI@Z 1008cf10 f i libucrtd:getmodulefilenamea.obj
 0001:0008bf60       ??1?$__crt_win32_buffer@DU__crt_win32_buffer_no_resizing@@@@QAE@XZ 1008cf60 f i libucrtd:getmodulefilenamea.obj
 0001:0008bfb0       ??R<lambda_0fec1a7b3f42a53036604e18c2d5e07e>@@QBEHIQB_WQADI@Z 1008cfb0 f i libucrtd:getmodulefilenamea.obj
 0001:0008bfe0       ?__acrt_get_utf8_acp_compatibility_codepage@@YAIXZ 1008cfe0 f i libucrtd:getmodulefilenamea.obj
 0001:0008c070       ?_deallocate@?$__crt_win32_buffer@DU__crt_win32_buffer_no_resizing@@@@AAEXXZ 1008d070 f i libucrtd:getmodulefilenamea.obj
 0001:0008c0c0       ?allocate@?$__crt_win32_buffer@DU__crt_win32_buffer_no_resizing@@@@QAEHI@Z 1008d0c0 f i libucrtd:getmodulefilenamea.obj
 0001:0008c130       ?allocate@__crt_win32_buffer_no_resizing@@SAHQAPAXIABV__crt_win32_buffer_empty_debug_info@@@Z 1008d130 f i libucrtd:getmodulefilenamea.obj
 0001:0008c150       ?capacity@?$__crt_win32_buffer@DU__crt_win32_buffer_no_resizing@@@@QBEIXZ 1008d150 f i libucrtd:getmodulefilenamea.obj
 0001:0008c170       ?data@?$__crt_win32_buffer@DU__crt_win32_buffer_no_resizing@@@@QAEPADXZ 1008d170 f i libucrtd:getmodulefilenamea.obj
 0001:0008c190       ?deallocate@__crt_win32_buffer_no_resizing@@SAXQAXABV__crt_win32_buffer_empty_debug_info@@@Z 1008d190 f i libucrtd:getmodulefilenamea.obj
 0001:0008c1a0       ?debug_info@?$__crt_win32_buffer@DU__crt_win32_buffer_no_resizing@@@@QBEABV__crt_win32_buffer_empty_debug_info@@XZ 1008d1a0 f i libucrtd:getmodulefilenamea.obj
 0001:0008c1b0       ?set_to_nullptr@?$__crt_win32_buffer@DU__crt_win32_buffer_no_resizing@@@@QAEXXZ 1008d1b0 f i libucrtd:getmodulefilenamea.obj
 0001:0008c1f0       ?size@?$__crt_win32_buffer@DU__crt_win32_buffer_no_resizing@@@@QAEXI@Z 1008d1f0 f i libucrtd:getmodulefilenamea.obj
 0001:0008c210       ?size@?$__crt_win32_buffer@DU__crt_win32_buffer_no_resizing@@@@QBEIXZ 1008d210 f i libucrtd:getmodulefilenamea.obj
 0001:0008c230       ___acrt_GetModuleFileNameA 1008d230 f   libucrtd:getmodulefilenamea.obj
 0001:0008c510       ??$message_box@$$TABQBDABQBDK@?$__crt_char_traits@D@@SAH$$QA$$TABQBD1$$QAK@Z 1008d510 f i libucrtd:crtmbox.obj
 0001:0008c540       ??$message_box@$$TABQB_WABQB_WK@?$__crt_char_traits@_W@@SAH$$QA$$TABQB_W1$$QAK@Z 1008d540 f i libucrtd:crtmbox.obj
 0001:0008c570       ??$message_box@PAUHWND__@@ABQBDABQBDABI@?$__crt_char_traits@D@@SAH$$QAPAUHWND__@@ABQBD1ABI@Z 1008d570 f i libucrtd:crtmbox.obj
 0001:0008c5a0       ??$message_box@PAUHWND__@@ABQB_WABQB_WABI@?$__crt_char_traits@_W@@SAH$$QAPAUHWND__@@ABQB_W1ABI@Z 1008d5a0 f i libucrtd:crtmbox.obj
 0001:0008c5d0       ??$output_debug_string@ABQBD@?$__crt_char_traits@D@@SAXABQBD@Z 1008d5d0 f i libucrtd:crtmbox.obj
 0001:0008c5f0       ??$output_debug_string@ABQB_W@?$__crt_char_traits@_W@@SAXABQB_W@Z 1008d5f0 f i libucrtd:crtmbox.obj
 0001:0008c610       ___acrt_show_narrow_message_box 1008d610 f   libucrtd:crtmbox.obj
 0001:0008c630       ___acrt_show_wide_message_box 1008d630 f   libucrtd:crtmbox.obj
 0001:0008c650       ___acrt_initialize_locks   1008d650 f   libucrtd:locks.obj
 0001:0008c6b0       ___acrt_lock               1008d6b0 f   libucrtd:locks.obj
 0001:0008c6d0       ___acrt_uninitialize_locks 1008d6d0 f   libucrtd:locks.obj
 0001:0008c720       ___acrt_unlock             1008d720 f   libucrtd:locks.obj
 0001:0008c740       __lock_locales             1008d740 f   libucrtd:locks.obj
 0001:0008c760       __unlock_locales           1008d760 f   libucrtd:locks.obj
 0001:0008c780       ??$?B$$A6AXH@Z@__crt_fast_encoded_nullptr_t@@QBEP6AXH@ZXZ 1008d780 f i libucrtd:signal.obj
 0001:0008c8a0       ??$__crt_fast_decode_pointer@P6AXH@Z@@YAP6AXH@ZQ6AXH@Z@Z 1008d8a0 f i libucrtd:signal.obj
 0001:0008c8d0       ??$__crt_fast_encode_pointer@P6AXH@Z@@YAP6AXH@ZQ6AXH@Z@Z 1008d8d0 f i libucrtd:signal.obj
 0001:0008cb80       ?initialize@?$dual_state_global@P6AXH@Z@__crt_state_management@@QAEXQ6AXH@Z@Z 1008db80 f i libucrtd:signal.obj
 0001:0008ccc0       ?value@?$dual_state_global@P6AXH@Z@__crt_state_management@@QAEAAP6AXH@ZXZ 1008dcc0 f i libucrtd:signal.obj
 0001:0008cce0       ___acrt_get_sigabrt_handler 1008dce0 f   libucrtd:signal.obj
 0001:0008cd00       ___acrt_initialize_signal_handlers 1008dd00 f   libucrtd:signal.obj
 0001:0008cd40       ___fpecode                 1008dd40 f   libucrtd:signal.obj
 0001:0008cd50       ___pxcptinfoptrs           1008dd50 f   libucrtd:signal.obj
 0001:0008cd60       _raise                     1008dd60 f   libucrtd:signal.obj
 0001:0008d140       _signal                    1008e140 f   libucrtd:signal.obj
 0001:0008d3d0       __msize                    1008e3d0 f   libucrtd:msize.obj
 0001:0008d3f0       __msize_base               1008e3f0 f   libucrtd:msize.obj
 0001:0008d490       __realloc_base             1008e490 f   libucrtd:realloc_base.obj
 0001:0008d550       ??$?B$$A6GHPA_WKJ@Z@__crt_fast_encoded_nullptr_t@@QBEP6GHPA_WKJ@ZXZ 1008e550 f i libucrtd:winapi_thunks.obj
 0001:0008d670       ??$__crt_fast_decode_pointer@P6GHPA_WKJ@Z@@YAP6GHPA_WKJ@ZQ6GH0KJ@Z@Z 1008e670 f i libucrtd:winapi_thunks.obj
 0001:0008d6a0       ??$__crt_fast_decode_pointer@PAX@@YAPAXQAX@Z 1008e6a0 f i libucrtd:winapi_thunks.obj
 0001:0008d6d0       ??$__crt_fast_encode_pointer@P6GHPA_WKJ@Z@@YAP6GHPA_WKJ@ZQ6GH0KJ@Z@Z 1008e6d0 f i libucrtd:winapi_thunks.obj
 0001:0008e030       _GetCurrentThreadEffectiveToken 1008f030 f i libucrtd:winapi_thunks.obj
 0001:0008e040       ___acrt_AppPolicyGetProcessTerminationMethodInternal@4 1008f040 f   libucrtd:winapi_thunks.obj
 0001:0008e090       ___acrt_AppPolicyGetShowDeveloperDiagnosticInternal@4 1008f090 f   libucrtd:winapi_thunks.obj
 0001:0008e0e0       ___acrt_AppPolicyGetThreadInitializationTypeInternal@4 1008f0e0 f   libucrtd:winapi_thunks.obj
 0001:0008e130       ___acrt_AppPolicyGetWindowingModelInternal@4 1008f130 f   libucrtd:winapi_thunks.obj
 0001:0008e180       ___acrt_AreFileApisANSI@0  1008f180 f   libucrtd:winapi_thunks.obj
 0001:0008e1c0       ___acrt_CompareStringEx@36 1008f1c0 f   libucrtd:winapi_thunks.obj
 0001:0008e250       ___acrt_EnumSystemLocalesEx@16 1008f250 f   libucrtd:winapi_thunks.obj
 0001:0008e2b0       ___acrt_FlsAlloc@4         1008f2b0 f   libucrtd:winapi_thunks.obj
 0001:0008e2f0       ___acrt_FlsFree@4          1008f2f0 f   libucrtd:winapi_thunks.obj
 0001:0008e340       ___acrt_FlsGetValue@4      1008f340 f   libucrtd:winapi_thunks.obj
 0001:0008e390       ___acrt_FlsSetValue@8      1008f390 f   libucrtd:winapi_thunks.obj
 0001:0008e3e0       ___acrt_GetDateFormatEx@28 1008f3e0 f   libucrtd:winapi_thunks.obj
 0001:0008e460       ___acrt_GetEnabledXStateFeatures@0 1008f460 f   libucrtd:winapi_thunks.obj
 0001:0008e4a0       ___acrt_GetLocaleInfoEx@16 1008f4a0 f   libucrtd:winapi_thunks.obj
 0001:0008e510       ___acrt_GetSystemTimePreciseAsFileTime@4 1008f510 f   libucrtd:winapi_thunks.obj
 0001:0008e560       ___acrt_GetTimeFormatEx@24 1008f560 f   libucrtd:winapi_thunks.obj
 0001:0008e5e0       ___acrt_GetUserDefaultLocaleName@8 1008f5e0 f   libucrtd:winapi_thunks.obj
 0001:0008e640       ___acrt_GetXStateFeaturesMask@8 1008f640 f   libucrtd:winapi_thunks.obj
 0001:0008e690       ___acrt_InitializeCriticalSectionEx@12 1008f690 f   libucrtd:winapi_thunks.obj
 0001:0008e6e0       ___acrt_IsValidLocaleName@4 1008f6e0 f   libucrtd:winapi_thunks.obj
 0001:0008e730       ___acrt_LCIDToLocaleName@16 1008f730 f   libucrtd:winapi_thunks.obj
 0001:0008e790       ___acrt_LCMapStringEx@36   1008f790 f   libucrtd:winapi_thunks.obj
 0001:0008e810       ___acrt_LocaleNameToLCID@8 1008f810 f   libucrtd:winapi_thunks.obj
 0001:0008e860       ___acrt_LocateXStateFeature@12 1008f860 f   libucrtd:winapi_thunks.obj
 0001:0008e8b0       ___acrt_MessageBoxA@16     1008f8b0 f   libucrtd:winapi_thunks.obj
 0001:0008e900       ___acrt_MessageBoxW@16     1008f900 f   libucrtd:winapi_thunks.obj
 0001:0008e950       ___acrt_RoInitialize@4     1008f950 f   libucrtd:winapi_thunks.obj
 0001:0008e990       ___acrt_RoUninitialize@0   1008f990 f   libucrtd:winapi_thunks.obj
 0001:0008e9c0       ___acrt_RtlGenRandom@8     1008f9c0 f   libucrtd:winapi_thunks.obj
 0001:0008ea10       ___acrt_SetThreadStackGuarantee@4 1008fa10 f   libucrtd:winapi_thunks.obj
 0001:0008ea50       ___acrt_can_show_message_box 1008fa50 f   libucrtd:winapi_thunks.obj
 0001:0008ea90       ___acrt_can_use_vista_locale_apis 1008fa90 f   libucrtd:winapi_thunks.obj
 0001:0008eac0       ___acrt_can_use_xstate_apis 1008fac0 f   libucrtd:winapi_thunks.obj
 0001:0008eaf0       ___acrt_eagerly_load_locale_apis 1008faf0 f   libucrtd:winapi_thunks.obj
 0001:0008eb30       ___acrt_get_parent_window  1008fb30 f   libucrtd:winapi_thunks.obj
 0001:0008eba0       ___acrt_initialize_winapi_thunks 1008fba0 f   libucrtd:winapi_thunks.obj
 0001:0008ec10       ___acrt_is_interactive     1008fc10 f   libucrtd:winapi_thunks.obj
 0001:0008ecc0       ___acrt_uninitialize_winapi_thunks 1008fcc0 f   libucrtd:winapi_thunks.obj
 0001:0008ed30       __chvalidator              1008fd30 f   libucrtd:isctype.obj
 0001:0008ed80       __chvalidator_l            1008fd80 f   libucrtd:isctype.obj
 0001:0008ee00       __isctype                  1008fe00 f   libucrtd:isctype.obj
 0001:0008ee40       __isctype_l                1008fe40 f   libucrtd:isctype.obj
 0001:0008efd0       ??$?RU__crt_stdio_stream_data@@@__crt_internal_free_policy@@QBEXQBU__crt_stdio_stream_data@@@Z 1008ffd0 f i libucrtd:stream.obj
 0001:0008eff0       ??0?$__crt_unique_heap_ptr@U__crt_stdio_stream_data@@U__crt_internal_free_policy@@@@QAE@QAU__crt_stdio_stream_data@@@Z 1008fff0 f i libucrtd:stream.obj
 0001:0008f010       ??0__crt_stdio_stream@@QAE@QAU__crt_stdio_stream_data@@@Z 10090010 f i libucrtd:stream.obj
 0001:0008f030       ??0__crt_stdio_stream@@QAE@XZ 10090030 f i libucrtd:stream.obj
 0001:0008f050       ??1?$__crt_unique_heap_ptr@U__crt_stdio_stream_data@@U__crt_internal_free_policy@@@@QAE@XZ 10090050 f i libucrtd:stream.obj
 0001:0008f070       ?__acrt_stdio_allocate_stream@@YA?AV__crt_stdio_stream@@XZ 10090070 f   libucrtd:stream.obj
 0001:0008f160       ?__acrt_stdio_free_stream@@YAXV__crt_stdio_stream@@@Z 10090160 f   libucrtd:stream.obj
 0001:0008f1e0       ?deallocate@__crt_stdio_stream@@QAEXXZ 100901e0 f i libucrtd:stream.obj
 0001:0008f200       ?detach@?$__crt_unique_heap_ptr@U__crt_stdio_stream_data@@U__crt_internal_free_policy@@@@QAEPAU__crt_stdio_stream_data@@XZ 10090200 f i libucrtd:stream.obj
 0001:0008f370       ?lock@__crt_stdio_stream@@QBEXXZ 10090370 f i libucrtd:stream.obj
 0001:0008f390       ?release@?$__crt_unique_heap_ptr@U__crt_stdio_stream_data@@U__crt_internal_free_policy@@@@QAEXXZ 10090390 f i libucrtd:stream.obj
 0001:0008f3c0       ?try_allocate@__crt_stdio_stream@@QAE_NXZ 100903c0 f i libucrtd:stream.obj
 0001:0008f410       ??$__acrt_stdio_parse_mode@D@@YA?AU__acrt_stdio_stream_mode@@QBD@Z 10090410 f i libucrtd:openfile.obj
 0001:0008fc80       ??$__acrt_stdio_parse_mode@_W@@YA?AU__acrt_stdio_stream_mode@@QB_W@Z 10090c80 f i libucrtd:openfile.obj
 0001:00090810       ??$tcsncmp@AAPBDAAY02$$CBDI@?$__crt_char_traits@D@@SAHAAPBDAAY02$$CBD$$QAI@Z 10091810 f i libucrtd:openfile.obj
 0001:00090830       ??$tcsncmp@AAPB_WAAY02$$CB_WI@?$__crt_char_traits@_W@@SAHAAPB_WAAY02$$CB_W$$QAI@Z 10091830 f i libucrtd:openfile.obj
 0001:00090850       ??$tcsnicmp@AAPBDAAY04$$CBDI@?$__crt_char_traits@D@@SAHAAPBDAAY04$$CBD$$QAI@Z 10091850 f i libucrtd:openfile.obj
 0001:00090870       ??$tcsnicmp@AAPBDAAY06$$CBDI@?$__crt_char_traits@D@@SAHAAPBDAAY06$$CBD$$QAI@Z 10091870 f i libucrtd:openfile.obj
 0001:00090890       ??$tcsnicmp@AAPBDAAY07$$CBDI@?$__crt_char_traits@D@@SAHAAPBDAAY07$$CBD$$QAI@Z 10091890 f i libucrtd:openfile.obj
 0001:000908b0       ??$tcsnicmp@AAPB_WAAY04$$CB_WI@?$__crt_char_traits@_W@@SAHAAPB_WAAY04$$CB_W$$QAI@Z 100918b0 f i libucrtd:openfile.obj
 0001:000908d0       ??$tcsnicmp@AAPB_WAAY06$$CB_WI@?$__crt_char_traits@_W@@SAHAAPB_WAAY06$$CB_W$$QAI@Z 100918d0 f i libucrtd:openfile.obj
 0001:000908f0       ??$tcsnicmp@AAPB_WAAY07$$CB_WI@?$__crt_char_traits@_W@@SAHAAPB_WAAY07$$CB_W$$QAI@Z 100918f0 f i libucrtd:openfile.obj
 0001:00090910       ??$tsopen_s@PAHABQBDABHABHH@?$__crt_char_traits@D@@SAH$$QAPAHABQBDABH2$$QAH@Z 10091910 f i libucrtd:openfile.obj
 0001:00090940       ??$tsopen_s@PAHABQB_WABHABHH@?$__crt_char_traits@_W@@SAH$$QAPAHABQB_WABH2$$QAH@Z 10091940 f i libucrtd:openfile.obj
 0001:00090970       ?__acrt_stdio_parse_mode_D@@YA_NAAU__acrt_stdio_stream_mode@@@Z 10091970 f i libucrtd:openfile.obj
 0001:000909a0       ?__acrt_stdio_parse_mode_N@@YA_NAAU__acrt_stdio_stream_mode@@@Z 100919a0 f i libucrtd:openfile.obj
 0001:000909c0       ?__acrt_stdio_parse_mode_R@@YA_NAAU__acrt_stdio_stream_mode@@AA_N@Z 100919c0 f i libucrtd:openfile.obj
 0001:000909f0       ?__acrt_stdio_parse_mode_S@@YA_NAAU__acrt_stdio_stream_mode@@AA_N@Z 100919f0 f i libucrtd:openfile.obj
 0001:00090a20       ?__acrt_stdio_parse_mode_T@@YA_NAAU__acrt_stdio_stream_mode@@@Z 10091a20 f i libucrtd:openfile.obj
 0001:00090a50       ?__acrt_stdio_parse_mode_b@@YA_NAAU__acrt_stdio_stream_mode@@@Z 10091a50 f i libucrtd:openfile.obj
 0001:00090a80       ?__acrt_stdio_parse_mode_c@@YA_NAAU__acrt_stdio_stream_mode@@AA_N@Z 10091a80 f i libucrtd:openfile.obj
 0001:00090ab0       ?__acrt_stdio_parse_mode_n@@YA_NAAU__acrt_stdio_stream_mode@@AA_N@Z 10091ab0 f i libucrtd:openfile.obj
 0001:00090ae0       ?__acrt_stdio_parse_mode_plus@@YA_NAAU__acrt_stdio_stream_mode@@AA_N@Z 10091ae0 f i libucrtd:openfile.obj
 0001:00090b50       ?__acrt_stdio_parse_mode_t@@YA_NAAU__acrt_stdio_stream_mode@@@Z 10091b50 f i libucrtd:openfile.obj
 0001:00090b80       ?__acrt_stdio_parse_mode_x@@YA_NAAU__acrt_stdio_stream_mode@@@Z 10091b80 f i libucrtd:openfile.obj
 0001:00090bb0       __openfile                 10091bb0 f   libucrtd:openfile.obj
 0001:00090be0       __wopenfile                10091be0 f   libucrtd:openfile.obj
 0001:00090f20       __close                    10091f20 f   libucrtd:close.obj
 0001:00090f60       __close_internal           10091f60 f   libucrtd:close.obj
 0001:00091130       __close_nolock             10092130 f   libucrtd:close.obj
 0001:00091170       __close_nolock_internal    10092170 f   libucrtd:close.obj
 0001:000911d0       ?has_crt_buffer@__crt_stdio_stream@@QBE_NXZ 100921d0 f i libucrtd:_freebuf.obj
 0001:000911f0       ___acrt_stdio_free_buffer_nolock 100921f0 f   libucrtd:_freebuf.obj
 0001:000918f0       ?__acrt_stdio_reset_buffer@@YAXV__crt_stdio_stream@@@Z 100928f0 f i libucrtd:fflush.obj
 0001:00091ac0       ?has_all_of@__crt_stdio_stream@@QBE_NJ@Z 10092ac0 f i libucrtd:fflush.obj
 0001:00091b90       ___acrt_stdio_flush_nolock 10092b90 f   libucrtd:fflush.obj
 0001:00091c70       __fflush_nolock            10092c70 f   libucrtd:fflush.obj
 0001:00091cb0       __flushall                 10092cb0 f   libucrtd:fflush.obj
 0001:00091cd0       _fflush                    10092cd0 f   libucrtd:fflush.obj
 0001:000924b0       ?has_big_buffer@__crt_stdio_stream@@QBE_NXZ 100934b0 f i libucrtd:_flsbuf.obj
 0001:000925b0       ___acrt_stdio_flush_and_write_narrow_nolock 100935b0 f   libucrtd:_flsbuf.obj
 0001:000925e0       ___acrt_stdio_flush_and_write_wide_nolock 100935e0 f   libucrtd:_flsbuf.obj
 0001:00092910       ___acrt_get_begin_thread_init_policy 10093910 f   libucrtd:win_policies.obj
 0001:00092930       ___acrt_get_developer_information_policy 10093930 f   libucrtd:win_policies.obj
 0001:00092950       ___acrt_get_process_end_policy 10093950 f   libucrtd:win_policies.obj
 0001:00092970       ___acrt_get_windowing_model_policy 10093970 f   libucrtd:win_policies.obj
