 OPOSCashChanger

 Timestamp is 600f778f (Tue Jan 26 10:59:43 2021)

 Preferred load address is 10000000

 Start         Length     Name                   Class
 0001:00000000 00000d90H .text$di                CODE
 0001:00000d90 000a9bb0H .text$mn                CODE
 0001:000aa940 000001c0H .text$x                 CODE
 0001:000aab00 00000120H .text$yd                CODE
 0002:00000000 00000358H .idata$5                DATA
 0002:00000358 00000008H .00cfg                  DATA
 0002:00000360 00000004H .CRT$XCA                DATA
 0002:00000364 00000004H .CRT$XCL                DATA
 0002:00000368 0000006cH .CRT$XCU                DATA
 0002:000003d4 00000004H .CRT$XCZ                DATA
 0002:000003d8 00000004H .CRT$XIA                DATA
 0002:000003dc 00000014H .CRT$XIC                DATA
 0002:000003f0 00000004H .CRT$XIZ                DATA
 0002:000003f4 00000004H .CRT$XLA                DATA
 0002:000003f8 00000004H .CRT$XLZ                DATA
 0002:000003fc 00000004H .CRT$XPA                DATA
 0002:00000400 00000008H .CRT$XPX                DATA
 0002:00000408 00000004H .CRT$XPXA               DATA
 0002:0000040c 00000004H .CRT$XPZ                DATA
 0002:00000410 00000004H .CRT$XTA                DATA
 0002:00000414 0000000cH .CRT$XTZ                DATA
 0002:00000418 00000000H .gfids$y                DATA
 0002:00000420 00030060H .rdata                  DATA
 0002:00030480 00000004H .rdata$CastGuardVftablesA DATA
 0002:00030484 00000004H .rdata$CastGuardVftablesC DATA
 0002:00030488 00000018H .rdata$T                DATA
 0002:000304a0 0000033cH .rdata$r                DATA
 0002:000307dc 00000044H .rdata$sxdata           DATA
 0002:00030820 0000044cH .rdata$zzzdbg           DATA
 0002:00030c6c 00000004H .rtc$IAA                DATA
 0002:00030c70 00000018H .rtc$IMZ                DATA
 0002:00030c88 00000004H .rtc$IZZ                DATA
 0002:00030c8c 00000004H .rtc$TAA                DATA
 0002:00030c90 00000018H .rtc$TMZ                DATA
 0002:00030ca8 00000004H .rtc$TZZ                DATA
 0002:00030cac 00000004H .tls                    DATA
 0002:00030cb0 00000004H .tls$                   DATA
 0002:00030cb4 00000004H .tls$ZZZ                DATA
 0002:00030cb8 00000e4cH .xdata$x                DATA
 0002:00031b04 00000004H ATL$__a                 DATA
 0002:00031b08 00000008H ATL$__z                 DATA
 0002:00031b10 000000acH .edata                  DATA
 0002:00031bbc 00000078H .idata$2                DATA
 0002:00031c34 00000014H .idata$3                DATA
 0002:00031c48 00000358H .idata$4                DATA
 0002:00031fa0 00000d56H .idata$6                DATA
 0003:00000000 00000be0H .data                   DATA
 0003:00000be0 00000138H .data$r                 DATA
 0003:00000d18 00003588H .bss                    DATA
 0004:00000000 00000220H .rsrc$01                DATA
 0004:00000220 00004ea8H .rsrc$02                DATA

  Address         Publics by Value              Rva+Base       Lib:Object

 0000:00000000       ___hybrid_auxiliary_iat    00000000     <absolute>
 0000:00000000       ___guard_fids_table        00000000     <absolute>
 0000:00000000       ___arm64x_extra_rfe_table  00000000     <absolute>
 0000:00000000       ___hybrid_code_map_count   00000000     <absolute>
 0000:00000000       ___volatile_metadata       00000000     <absolute>
 0000:00000000       ___arm64x_redirection_metadata_count 00000000     <absolute>
 0000:00000000       ___x64_code_ranges_to_entry_points 00000000     <absolute>
 0000:00000000       ___dynamic_value_reloc_table 00000000     <absolute>
 0000:00000000       ___x64_code_ranges_to_entry_points_count 00000000     <absolute>
 0000:00000000       ___arm64x_extra_rfe_table_size 00000000     <absolute>
 0000:00000000       ___guard_eh_cont_table     00000000     <absolute>
 0000:00000000       __except_list              00000000     <absolute>
 0000:00000000       ___hybrid_code_map         00000000     <absolute>
 0000:00000000       ___guard_longjmp_count     00000000     <absolute>
 0000:00000000       ___enclave_config          00000000     <absolute>
 0000:00000000       ___guard_longjmp_table     00000000     <absolute>
 0000:00000000       ___AbsoluteZero            00000000     <absolute>
 0000:00000000       ___guard_iat_count         00000000     <absolute>
 0000:00000000       ___arm64x_native_entrypoint 00000000     <absolute>
 0000:00000000       ___guard_eh_cont_count     00000000     <absolute>
 0000:00000000       ___guard_iat_table         00000000     <absolute>
 0000:00000000       ___guard_fids_count        00000000     <absolute>
 0000:00000000       ___arm64x_redirection_metadata 00000000     <absolute>
 0000:00000011       ___safe_se_handler_count   00000011     <absolute>
 0000:0000002c       __tls_array                0000002c     <absolute>
 0000:00000100       ___guard_flags             00000100     <absolute>
 0000:00000000       ___ImageBase               10000000     <linker-defined>
 0001:00000d90       ?_assert@@YAXPB_W0I@Z      10001d90 f   Assert.obj
 0001:00000ec0       ___local_stdio_printf_options 10001ec0 f i Assert.obj
 0001:00000ed0       ___vswprintf_l             10001ed0 f i Assert.obj
 0001:00000f00       __swprintf                 10001f00 f i Assert.obj
 0001:00000f60       __vswprintf_c_l            10001f60 f i Assert.obj
 0001:00000fd0       __vswprintf_l              10001fd0 f i Assert.obj
 0001:00001000       ?cw_memcpy@@YGHPADPB_WH@Z  10002000 f   CWString.obj
 0001:00001060       ?cw_memcpy@@YGHPA_WPBDH@Z  10002060 f   CWString.obj
 0001:000010c0       ?cw_memcpy@@YGHPADPBDH@Z   100020c0 f   CWString.obj
 0001:00001110       ?cw_memcpy@@YGHPA_WPB_WH@Z 10002110 f   CWString.obj
 0001:00001150       ?cw_memset@@YAXPADDH@Z     10002150 f   CWString.obj
 0001:00001170       ?cw_memset@@YAXPA_W_WH@Z   10002170 f   CWString.obj
 0001:00001190       ?cw_strlen@@YAHPBD@Z       10002190 f   CWString.obj
 0001:000011e0       ?cw_strlen@@YAHPB_W@Z      100021e0 f   CWString.obj
 0001:00001230       ?cw_strcpy@@YAHPADPB_W@Z   10002230 f   CWString.obj
 0001:00001250       ?cw_strcpy@@YAHPA_WPBD@Z   10002250 f   CWString.obj
 0001:00001270       ?cw_strcpy@@YAHPADPBD@Z    10002270 f   CWString.obj
 0001:00001290       ?cw_strcpy@@YAHPA_WPB_W@Z  10002290 f   CWString.obj
 0001:000012b0       ?cw_strcat@@YAHPADPB_W@Z   100022b0 f   CWString.obj
 0001:000012e0       ?cw_strcat@@YAHPA_WPBD@Z   100022e0 f   CWString.obj
 0001:00001310       ?cw_strcat@@YAHPADPBD@Z    10002310 f   CWString.obj
 0001:00001340       ?cw_strcat@@YAHPA_WPB_W@Z  10002340 f   CWString.obj
 0001:00001370       ?cw_dup@@YGXPBDAAHAAPA_W1@Z 10002370 f   CWString.obj
 0001:00001430       ?cw_dup@@YGXPB_WAAHAAPAD1@Z 10002430 f   CWString.obj
 0001:000014e0       ?DupChar@_CW@@AAEXXZ       100024e0 f   CWString.obj
 0001:00001530       ?DupWide@_CW@@AAEXXZ       10002530 f   CWString.obj
 0001:00001580       ?GetCharsMbcs@_CW@@QAEHXZ  10002580 f   CWString.obj
 0001:000015e0       ?GetCharsWide@_CW@@QAEHXZ  100025e0 f   CWString.obj
 0001:00001640       ?SetVARIANT_BOOL@OposVariant@@QAEXF@Z 10002640 f   OposVariant.obj
 0001:000016a0       ?SetVARIANT_BOOL_Ptr@OposVariant@@QAEXPAFAAJ@Z 100026a0 f   OposVariant.obj
 0001:000016f0       ?GetLONG@OposVariant@@QAEJXZ 100026f0 f   OposVariant.obj
 0001:00001780       ?ChangeLONG@OposVariant@@QAEXPAJAAJ@Z 10002780 f   OposVariant.obj
 0001:00001840       ?SetLONG@OposVariant@@QAEXJ@Z 10002840 f   OposVariant.obj
 0001:00001880       ?SetLONG_Ptr@OposVariant@@QAEXPAJAAJ@Z 10002880 f   OposVariant.obj
 0001:000018d0       ?ChangeCURRENCY@OposVariant@@QAEXPATtagCY@@AAJ@Z 100028d0 f   OposVariant.obj
 0001:00001990       ?SetCURRENCY@OposVariant@@QAEXTtagCY@@@Z 10002990 f   OposVariant.obj
 0001:000019d0       ?SetCURRENCY_Ptr@OposVariant@@QAEXPATtagCY@@AAJ@Z 100029d0 f   OposVariant.obj
 0001:00001a20       ?ChangeBSTR@OposVariant@@QAEXPAPA_WAAJ@Z 10002a20 f   OposVariant.obj
 0001:00001ae0       ?SetBSTR@OposVariant@@QAEXPA_WAAJ@Z 10002ae0 f   OposVariant.obj
 0001:00001b30       ?SetBSTR_Copy@OposVariant@@QAEXPA_WAAJ@Z 10002b30 f   OposVariant.obj
 0001:00001bd0       ?SetBSTR_OutPtr@OposVariant@@QAE_NPAPA_WAAJ@Z 10002bd0 f   OposVariant.obj
 0001:00001c20       ?SetBSTR_InOutPtr@OposVariant@@QAE_NPAPA_WAAJ@Z 10002c20 f   OposVariant.obj
 0001:00001c70       ?SetVARIANT@OposVariant@@QAEXAAUtagVARIANT@@GAAJ@Z 10002c70 f   OposVariant.obj
 0001:00001cf0       ?SetVARIANT_Ptr@OposVariant@@QAEXAAPAUtagVARIANT@@GAAJ@Z 10002cf0 f   OposVariant.obj
 0001:00001d90       ?SetString@OposVariant@@QAEXPB_WAAJ@Z 10002d90 f   OposVariant.obj
 0001:00001e20       ?SetDispatch_Ptr@OposVariant@@QAEXPAUIDispatch@@AAJ@Z 10002e20 f   OposVariant.obj
 0001:00001e90       ??0OposDispParms@@QAE@PAVOposVariant@@H@Z 10002e90 f   OposVariant.obj
 0001:00001f60       ??1OposDispParms@@QAE@XZ   10002f60 f   OposVariant.obj
 0001:00001fb0       ??$AtlMultiply@I@ATL@@YAJPAIII@Z 10002fb0 f i OposVariant.obj
 0001:00002010       ??0?$CHeapPtr@_WVCCRTAllocator@ATL@@@ATL@@QAE@XZ 10003010 f i OposVariant.obj
 0001:00002040       ??0?$CHeapPtrBase@_WVCCRTAllocator@ATL@@@ATL@@IAE@XZ 10003040 f i OposVariant.obj
 0001:00002060       ??0?$CSimpleArray@GV?$CSimpleArrayEqualHelper@G@ATL@@@ATL@@QAE@XZ 10003060 f i OposVariant.obj
 0001:000020a0       ??0?$CTraceCategoryEx@$00$0A@@ATL@@QAE@PB_W@Z 100030a0 f i OposVariant.obj
 0001:000020d0       ??0?$CTraceCategoryEx@$01$0A@@ATL@@QAE@PB_W@Z 100030d0 f i OposVariant.obj
 0001:00002100       ??0?$CTraceCategoryEx@$03$0A@@ATL@@QAE@PB_W@Z 10003100 f i OposVariant.obj
 0001:00002130       ??0?$CTraceCategoryEx@$07$0A@@ATL@@QAE@PB_W@Z 10003130 f i OposVariant.obj
 0001:00002160       ??0?$CTraceCategoryEx@$0BA@$0A@@ATL@@QAE@PB_W@Z 10003160 f i OposVariant.obj
 0001:00002190       ??0?$CTraceCategoryEx@$0BAA@$0A@@ATL@@QAE@PB_W@Z 10003190 f i OposVariant.obj
 0001:000021d0       ??0?$CTraceCategoryEx@$0BAAA@$0A@@ATL@@QAE@PB_W@Z 100031d0 f i OposVariant.obj
 0001:00002210       ??0?$CTraceCategoryEx@$0BAAAA@$0A@@ATL@@QAE@PB_W@Z 10003210 f i OposVariant.obj
 0001:00002250       ??0?$CTraceCategoryEx@$0BAAAAA@$0A@@ATL@@QAE@PB_W@Z 10003250 f i OposVariant.obj
 0001:00002290       ??0?$CTraceCategoryEx@$0CA@$0A@@ATL@@QAE@PB_W@Z 10003290 f i OposVariant.obj
 0001:000022c0       ??0?$CTraceCategoryEx@$0CAA@$0A@@ATL@@QAE@PB_W@Z 100032c0 f i OposVariant.obj
 0001:00002300       ??0?$CTraceCategoryEx@$0CAAA@$0A@@ATL@@QAE@PB_W@Z 10003300 f i OposVariant.obj
 0001:00002340       ??0?$CTraceCategoryEx@$0CAAAA@$0A@@ATL@@QAE@PB_W@Z 10003340 f i OposVariant.obj
 0001:00002380       ??0?$CTraceCategoryEx@$0CAAAAA@$0A@@ATL@@QAE@PB_W@Z 10003380 f i OposVariant.obj
 0001:000023c0       ??0?$CTraceCategoryEx@$0EA@$0A@@ATL@@QAE@PB_W@Z 100033c0 f i OposVariant.obj
 0001:000023f0       ??0?$CTraceCategoryEx@$0EAA@$0A@@ATL@@QAE@PB_W@Z 100033f0 f i OposVariant.obj
 0001:00002430       ??0?$CTraceCategoryEx@$0EAAA@$0A@@ATL@@QAE@PB_W@Z 10003430 f i OposVariant.obj
 0001:00002470       ??0?$CTraceCategoryEx@$0EAAAA@$0A@@ATL@@QAE@PB_W@Z 10003470 f i OposVariant.obj
 0001:000024b0       ??0?$CTraceCategoryEx@$0EAAAAA@$0A@@ATL@@QAE@PB_W@Z 100034b0 f i OposVariant.obj
 0001:000024f0       ??0?$CTraceCategoryEx@$0IA@$0A@@ATL@@QAE@PB_W@Z 100034f0 f i OposVariant.obj
 0001:00002530       ??0?$CTraceCategoryEx@$0IAA@$0A@@ATL@@QAE@PB_W@Z 10003530 f i OposVariant.obj
 0001:00002570       ??0?$CTraceCategoryEx@$0IAAA@$0A@@ATL@@QAE@PB_W@Z 10003570 f i OposVariant.obj
 0001:000025b0       ??0?$CTraceCategoryEx@$0IAAAA@$0A@@ATL@@QAE@PB_W@Z 100035b0 f i OposVariant.obj
 0001:000025f0       ??0CAtlComModule@ATL@@QAE@XZ 100035f0 f i OposVariant.obj
 0001:000026d0       ??0CAtlWinModule@ATL@@QAE@XZ 100036d0 f i OposVariant.obj
 0001:00002760       ??0CComCriticalSection@ATL@@QAE@XZ 10003760 f i OposVariant.obj
 0001:00002790       ??0CPreserveLastError@ATL@@QAE@XZ 10003790 f i OposVariant.obj
 0001:000027d0       ??0CTraceFileAndLineInfo@ATL@@QAE@PBDH@Z 100037d0 f i OposVariant.obj
 0001:00002800       ??0_ATL_COM_MODULE70@ATL@@QAE@XZ 10003800 f i OposVariant.obj
 0001:00002830       ??0_ATL_WIN_MODULE70@ATL@@QAE@XZ 10003830 f i OposVariant.obj
 0001:00002870       ??1?$CHeapPtr@_WVCCRTAllocator@ATL@@@ATL@@QAE@XZ 10003870 f i OposVariant.obj
 0001:000028a0       ??1?$CHeapPtrBase@_WVCCRTAllocator@ATL@@@ATL@@QAE@XZ 100038a0 f i OposVariant.obj
 0001:000028d0       ??1?$CSimpleArray@GV?$CSimpleArrayEqualHelper@G@ATL@@@ATL@@QAE@XZ 100038d0 f i OposVariant.obj
 0001:00002900       ??1CAtlComModule@ATL@@QAE@XZ 10003900 f i OposVariant.obj
 0001:00002930       ??1CAtlWinModule@ATL@@QAE@XZ 10003930 f i OposVariant.obj
 0001:00002960       ??1CComBSTR@ATL@@QAE@XZ    10003960 f i OposVariant.obj
 0001:000029a0       ??1CComCriticalSection@ATL@@QAE@XZ 100039a0 f i OposVariant.obj
 0001:000029c0       ??1CPreserveLastError@ATL@@QAE@XZ 100039c0 f i OposVariant.obj
 0001:00002a00       ??1_ATL_COM_MODULE70@ATL@@QAE@XZ 10003a00 f i OposVariant.obj
 0001:00002a30       ??1_ATL_WIN_MODULE70@ATL@@QAE@XZ 10003a30 f i OposVariant.obj
 0001:00002a70       ??1stringdispid@CComTypeInfoHolder@ATL@@QAE@XZ 10003a70 f i OposVariant.obj
 0001:00002aa0       ??A?$CSimpleArray@GV?$CSimpleArrayEqualHelper@G@ATL@@@ATL@@QAEAAGH@Z 10003aa0 f i OposVariant.obj
 0001:00002b20       ??B?$CHeapPtrBase@_WVCCRTAllocator@ATL@@@ATL@@QBEPA_WXZ 10003b20 f i OposVariant.obj
 0001:00002b40       ??B?$CTraceCategoryEx@$01$0A@@ATL@@QAEIXZ 10003b40 f i OposVariant.obj
 0001:00002b60       ??B?$CTraceCategoryEx@$0CA@$0A@@ATL@@QAEIXZ 10003b60 f i OposVariant.obj
 0001:00002b80       ??RCTraceFileAndLineInfo@ATL@@QBAXHIPB_WZZ 10003b80 f i OposVariant.obj
 0001:00002c20       ??_Estringdispid@CComTypeInfoHolder@ATL@@QAEPAXI@Z 10003c20 f i OposVariant.obj
 0001:00002cb0       ??_H@YGXPAXIIP6EPAX0@Z@Z   10003cb0 f i OposVariant.obj
 0001:00002d20       ??_I@YGXPAXIIP6EX0@Z@Z     10003d20 f i OposVariant.obj
 0001:00002da0       ?Allocate@?$CHeapPtr@_WVCCRTAllocator@ATL@@@ATL@@QAE_NI@Z 10003da0 f i OposVariant.obj
 0001:00002e30       ?Allocate@CCRTAllocator@ATL@@SAPAXI@Z 10003e30 f i OposVariant.obj
 0001:00002e50       ?AllocateBytes@?$CHeapPtrBase@_WVCCRTAllocator@ATL@@@ATL@@QAE_NI@Z 10003e50 f i OposVariant.obj
 0001:00002ec0       ?AtlWinModuleInit@ATL@@YGJPAU_ATL_WIN_MODULE70@1@@Z 10003ec0 f i OposVariant.obj
 0001:00002f90       ?AtlWinModuleTerm@ATL@@YGJPAU_ATL_WIN_MODULE70@1@PAUHINSTANCE__@@@Z 10003f90 f i OposVariant.obj
 0001:00003050       ?Clear@OposVariant@@QAEJXZ 10004050 f i OposVariant.obj
 0001:00003090       ?Free@?$CHeapPtrBase@_WVCCRTAllocator@ATL@@@ATL@@QAEXXZ 10004090 f i OposVariant.obj
 0001:000030d0       ?Free@CCRTAllocator@ATL@@SAXPAX@Z 100040d0 f i OposVariant.obj
 0001:000030f0       ?GetCategoryName@CTrace@ATL@@CAPA_WI@Z 100040f0 f i OposVariant.obj
 0001:00003140       ?GetModuleInstance@CAtlBaseModule@ATL@@QAEPAUHINSTANCE__@@XZ 10004140 f i OposVariant.obj
 0001:00003160       ?GetSize@?$CSimpleArray@GV?$CSimpleArrayEqualHelper@G@ATL@@@ATL@@QBEHXZ 10004160 f i OposVariant.obj
 0001:00003180       ?Init@CComCriticalSection@ATL@@QAEJXZ 10004180 f i OposVariant.obj
 0001:000031e0       ?RegisterCategory@CTrace@ATL@@SAXPB_WI@Z 100041e0 f i OposVariant.obj
 0001:00003270       ?RemoveAll@?$CSimpleArray@GV?$CSimpleArrayEqualHelper@G@ATL@@@ATL@@QAEXXZ 10004270 f i OposVariant.obj
 0001:000032f0       ?Term@CAtlComModule@ATL@@QAEXXZ 100042f0 f i OposVariant.obj
 0001:000033b0       ?Term@CAtlWinModule@ATL@@QAEXXZ 100043b0 f i OposVariant.obj
 0001:000033e0       ?Term@CComCriticalSection@ATL@@QAEJXZ 100043e0 f i OposVariant.obj
 0001:00003420       ?TraceV@CTrace@ATL@@CAXPBDHIIPB_W@Z 10004420 f i OposVariant.obj
 0001:000036a0       ?TraceV@CTrace@ATL@@SAXPBDHIIPB_WPAD@Z 100046a0 f i OposVariant.obj
 0001:000037e0       ?_AtlInitializeCriticalSectionEx@ATL@@YAHPAU_RTL_CRITICAL_SECTION@@KK@Z 100047e0 f i OposVariant.obj
 0001:00003810       ?_AtlRaiseException@ATL@@YAXKK@Z 10004810 f i OposVariant.obj
 0001:00003840       _HRESULT_FROM_WIN32        10004840 f i OposVariant.obj
 0001:00003880       __vswprintf_s_l            10004880 f i OposVariant.obj
 0001:000038f0       _swprintf_s                100048f0 f i OposVariant.obj
 0001:00003950       ?ObjectMain@CComObjectRootBase@ATL@@SGX_N@Z 10004950 f i CashChanger.obj
 0001:00003960       ?GetCategoryMap@CComObjectRootBase@ATL@@SAPBU_ATL_CATMAP_ENTRY@2@XZ 10004960 f i CashChanger.obj
 0001:00003970       ?GetObjectDescription@?$CComCoClass@VCOPOSCashChanger@@$1?CLSID_OPOSCashChanger@@3U_GUID@@B@ATL@@SGPB_WXZ 10004970 f i CashChanger.obj
 0001:00003980       ?UpdateRegistry@COPOSCashChanger@@SGJH@Z 10004980 f i CashChanger.obj
 0001:000039a0       ?CreateInstance@?$CComCreator@V?$CComObjectCached@VCComClassFactory@ATL@@@ATL@@@ATL@@SGJPAXABU_GUID@@PAPAX@Z 100049a0 f i CashChanger.obj
 0001:00003b20       ?CreateInstance@?$CComCreator2@V?$CComCreator@V?$CComObject@VCOPOSCashChanger@@@ATL@@@ATL@@V?$CComCreator@V?$CComAggObject@VCOPOSCashChanger@@@ATL@@@2@@ATL@@SGJPAXABU_GUID@@PAPAX@Z 10004b20 f i CashChanger.obj
 0001:00003cd0       _DllGetClassObject@12      10004cd0 f   CashChanger.obj
 0001:00003d00       _DllCanUnloadNow@0         10004d00 f   CashChanger.obj
 0001:00003d40       _DllRegisterServer@0       10004d40 f   CashChanger.obj
 0001:00003d60       _DllUnregisterServer@0     10004d60 f   CashChanger.obj
 0001:00003ef0       _DllMain@12                10004ef0 f   CashChanger.obj
 0001:00003f50       ??$?2G@Wrapper@?$CSimpleArray@GV?$CSimpleArrayEqualHelper@G@ATL@@@ATL@@SAPAXIPAG@Z 10004f50 f i CashChanger.obj
 0001:00003f60       ??$?2PA_W@?$Wrapper@PA_W@?$CSimpleMap@PA_WPA_WVCExpansionVectorEqualHelper@ATL@@@ATL@@SAPAXIPAPA_W@Z 10004f60 f i CashChanger.obj
 0001:00003f70       ??$?4UITypeInfo2@@@?$CComPtr@UITypeInfo@@@ATL@@QAEPAUITypeInfo@@ABV?$CComPtr@UITypeInfo2@@@1@@Z 10004f70 f i CashChanger.obj
 0001:00003fd0       ??$AtlAdd@K@ATL@@YAJPAKKK@Z 10004fd0 f i CashChanger.obj
 0001:00004010       ??$AtlAdd@_K@ATL@@YAJPA_K_K1@Z 10005010 f i CashChanger.obj
 0001:00004080       ??$AtlAddThrow@K@ATL@@YAKKK@Z 10005080 f i CashChanger.obj
 0001:00004100       ??$AtlModuleRegisterWndClassInfoT@VAtlModuleRegisterWndClassInfoParamW@ATL@@@ATL@@YAGPAU_ATL_BASE_MODULE70@0@PAU_ATL_WIN_MODULE70@0@PAU_ATL_WNDCLASSINFOW@0@PAP6GJPAUHWND__@@IIJ@ZVAtlModuleRegisterWndClassInfoParamW@0@@Z 10005100 f i CashChanger.obj
 0001:00004510       ??$AtlMultiply@H@ATL@@YAJPAHHH@Z 10005510 f i CashChanger.obj
 0001:00004590       ??$AtlMultiply@K@ATL@@YAJPAKKK@Z 10005590 f i CashChanger.obj
 0001:000045f0       ??$AtlMultiplyThrow@I@ATL@@YAIII@Z 100055f0 f i CashChanger.obj
 0001:00004670       ??$QueryInterface@UIPersistStream@@@IUnknown@@QAGJPAPAUIPersistStream@@@Z 10005670 f i CashChanger.obj
 0001:000046a0       ??$QueryInterface@UITypeInfo2@@@IUnknown@@QAGJPAPAUITypeInfo2@@@Z 100056a0 f i CashChanger.obj
 0001:000046d0       ??0?$CAtlModuleT@VCComModule@ATL@@@ATL@@QAE@XZ 100056d0 f i CashChanger.obj
 0001:00004700       ??0?$CAtlSafeAllocBufferManager@VCCRTAllocator@ATL@@@_ATL_SAFE_ALLOCA_IMPL@ATL@@QAE@XZ 10005700 f i CashChanger.obj
 0001:00004720       ??0?$CAutoVectorPtr@_W@ATL@@QAE@XZ 10005720 f i CashChanger.obj
 0001:00004740       ??0?$CComAggObject@VCOPOSCashChanger@@@ATL@@QAE@PAX@Z 10005740 f i CashChanger.obj
 0001:000047b0       ??0?$CComContainedObject@VCOPOSCashChanger@@@ATL@@QAE@PAX@Z 100057b0 f i CashChanger.obj
 0001:000048c0       ??0?$CComCritSecLock@VCComCriticalSection@ATL@@@ATL@@QAE@AAVCComCriticalSection@1@_N@Z 100058c0 f i CashChanger.obj
 0001:00004920       ??0?$CComEnum@UIEnumConnectionPoints@@$1?_GUID_b196b285_bab4_101a_b69c_00aa00341d07@@3U__s_GUID@@BPAUIConnectionPoint@@V?$_CopyInterface@UIConnectionPoint@@@ATL@@VCComSingleThreadModel@6@@ATL@@QAE@XZ 10005920 f i CashChanger.obj
 0001:00004960       ??0?$CComEnum@UIEnumConnections@@$1?_GUID_b196b287_bab4_101a_b69c_00aa00341d07@@3U__s_GUID@@BUtagCONNECTDATA@@V?$_Copy@UtagCONNECTDATA@@@ATL@@VCComSingleThreadModel@6@@ATL@@QAE@XZ 10005960 f i CashChanger.obj
 0001:000049a0       ??0?$CComEnumImpl@UIEnumConnectionPoints@@$1?_GUID_b196b285_bab4_101a_b69c_00aa00341d07@@3U__s_GUID@@BPAUIConnectionPoint@@V?$_CopyInterface@UIConnectionPoint@@@ATL@@@ATL@@QAE@XZ 100059a0 f i CashChanger.obj
 0001:00004a00       ??0?$CComEnumImpl@UIEnumConnections@@$1?_GUID_b196b287_bab4_101a_b69c_00aa00341d07@@3U__s_GUID@@BUtagCONNECTDATA@@V?$_Copy@UtagCONNECTDATA@@@ATL@@@ATL@@QAE@XZ 10005a00 f i CashChanger.obj
 0001:00004a60       ??0?$CComObject@V?$CComEnum@UIEnumConnectionPoints@@$1?_GUID_b196b285_bab4_101a_b69c_00aa00341d07@@3U__s_GUID@@BPAUIConnectionPoint@@V?$_CopyInterface@UIConnectionPoint@@@ATL@@VCComSingleThreadModel@6@@ATL@@@ATL@@QAE@PAX@Z 10005a60 f i CashChanger.obj
 0001:00004ab0       ??0?$CComObject@V?$CComEnum@UIEnumConnections@@$1?_GUID_b196b287_bab4_101a_b69c_00aa00341d07@@3U__s_GUID@@BUtagCONNECTDATA@@V?$_Copy@UtagCONNECTDATA@@@ATL@@VCComSingleThreadModel@6@@ATL@@@ATL@@QAE@PAX@Z 10005ab0 f i CashChanger.obj
 0001:00004b00       ??0?$CComObject@VCOPOSCashChanger@@@ATL@@QAE@PAX@Z 10005b00 f i CashChanger.obj
 0001:00004c20       ??0?$CComObjectCached@VCComClassFactory@ATL@@@ATL@@QAE@PAX@Z 10005c20 f i CashChanger.obj
 0001:00004c60       ??0?$CComObjectRootEx@VCComMultiThreadModel@ATL@@@ATL@@QAE@XZ 10005c60 f i CashChanger.obj
 0001:00004ca0       ??0?$CComObjectRootEx@VCComSingleThreadModel@ATL@@@ATL@@QAE@XZ 10005ca0 f i CashChanger.obj
 0001:00004cd0       ??0?$CComPtr@UIAdviseSink@@@ATL@@QAE@PAUIAdviseSink@@@Z 10005cd0 f i CashChanger.obj
 0001:00004d00       ??0?$CComPtr@UICatRegister@@@ATL@@QAE@XZ 10005d00 f i CashChanger.obj
 0001:00004d30       ??0?$CComPtr@UIConnectionPoint@@@ATL@@QAE@XZ 10005d30 f i CashChanger.obj
 0001:00004d60       ??0?$CComPtr@UIConnectionPointContainer@@@ATL@@QAE@XZ 10005d60 f i CashChanger.obj
 0001:00004d90       ??0?$CComPtr@UIDataObject@@@ATL@@QAE@XZ 10005d90 f i CashChanger.obj
 0001:00004dc0       ??0?$CComPtr@UIDispatch@@@ATL@@QAE@XZ 10005dc0 f i CashChanger.obj
 0001:00004df0       ??0?$CComPtr@UIOleClientSite@@@ATL@@QAE@PAUIOleClientSite@@@Z 10005df0 f i CashChanger.obj
 0001:00004e20       ??0?$CComPtr@UIOleControlSite@@@ATL@@QAE@XZ 10005e20 f i CashChanger.obj
 0001:00004e50       ??0?$CComPtr@UIOleInPlaceActiveObject@@@ATL@@QAE@XZ 10005e50 f i CashChanger.obj
 0001:00004e80       ??0?$CComPtr@UIOleInPlaceFrame@@@ATL@@QAE@XZ 10005e80 f i CashChanger.obj
 0001:00004eb0       ??0?$CComPtr@UIOleInPlaceObject@@@ATL@@QAE@XZ 10005eb0 f i CashChanger.obj
 0001:00004ee0       ??0?$CComPtr@UIOleInPlaceUIWindow@@@ATL@@QAE@XZ 10005ee0 f i CashChanger.obj
 0001:00004f10       ??0?$CComPtr@UIOleObject@@@ATL@@QAE@XZ 10005f10 f i CashChanger.obj
 0001:00004f40       ??0?$CComPtr@UIPersistStream@@@ATL@@QAE@XZ 10005f40 f i CashChanger.obj
 0001:00004f70       ??0?$CComPtr@UIPersistStreamInit@@@ATL@@QAE@XZ 10005f70 f i CashChanger.obj
 0001:00004fa0       ??0?$CComPtr@UIPointerInactive@@@ATL@@QAE@XZ 10005fa0 f i CashChanger.obj
 0001:00004fd0       ??0?$CComPtr@UIProvideClassInfo2@@@ATL@@QAE@XZ 10005fd0 f i CashChanger.obj
 0001:00005000       ??0?$CComPtr@UISpecifyPropertyPages@@@ATL@@QAE@XZ 10006000 f i CashChanger.obj
 0001:00005030       ??0?$CComPtr@UIStream@@@ATL@@QAE@XZ 10006030 f i CashChanger.obj
 0001:00005060       ??0?$CComPtr@UITypeInfo2@@@ATL@@QAE@XZ 10006060 f i CashChanger.obj
 0001:00005090       ??0?$CComPtr@UITypeInfo@@@ATL@@QAE@ABV01@@Z 10006090 f i CashChanger.obj
 0001:000050c0       ??0?$CComPtr@UITypeInfo@@@ATL@@QAE@XZ 100060c0 f i CashChanger.obj
 0001:000050f0       ??0?$CComPtr@UITypeLib@@@ATL@@QAE@XZ 100060f0 f i CashChanger.obj
 0001:00005120       ??0?$CComPtr@UIUnknown@@@ATL@@QAE@ABV01@@Z 10006120 f i CashChanger.obj
 0001:00005150       ??0?$CComPtr@UIUnknown@@@ATL@@QAE@PAUIUnknown@@@Z 10006150 f i CashChanger.obj
 0001:00005180       ??0?$CComPtr@UIUnknown@@@ATL@@QAE@XZ 10006180 f i CashChanger.obj
 0001:000051b0       ??0?$CComPtr@UIViewObjectEx@@@ATL@@QAE@XZ 100061b0 f i CashChanger.obj
 0001:000051e0       ??0?$CComPtrBase@UIAdviseSink@@@ATL@@IAE@PAUIAdviseSink@@@Z 100061e0 f i CashChanger.obj
 0001:00005230       ??0?$CComPtrBase@UICatRegister@@@ATL@@IAE@XZ 10006230 f i CashChanger.obj
 0001:00005250       ??0?$CComPtrBase@UIConnectionPoint@@@ATL@@IAE@XZ 10006250 f i CashChanger.obj
 0001:00005270       ??0?$CComPtrBase@UIConnectionPointContainer@@@ATL@@IAE@XZ 10006270 f i CashChanger.obj
 0001:00005290       ??0?$CComPtrBase@UIDataObject@@@ATL@@IAE@XZ 10006290 f i CashChanger.obj
 0001:000052b0       ??0?$CComPtrBase@UIDispatch@@@ATL@@IAE@XZ 100062b0 f i CashChanger.obj
 0001:000052d0       ??0?$CComPtrBase@UIOleClientSite@@@ATL@@IAE@PAUIOleClientSite@@@Z 100062d0 f i CashChanger.obj
 0001:00005320       ??0?$CComPtrBase@UIOleControlSite@@@ATL@@IAE@XZ 10006320 f i CashChanger.obj
 0001:00005340       ??0?$CComPtrBase@UIOleInPlaceActiveObject@@@ATL@@IAE@XZ 10006340 f i CashChanger.obj
 0001:00005360       ??0?$CComPtrBase@UIOleInPlaceFrame@@@ATL@@IAE@XZ 10006360 f i CashChanger.obj
 0001:00005380       ??0?$CComPtrBase@UIOleInPlaceObject@@@ATL@@IAE@XZ 10006380 f i CashChanger.obj
 0001:000053a0       ??0?$CComPtrBase@UIOleInPlaceUIWindow@@@ATL@@IAE@XZ 100063a0 f i CashChanger.obj
 0001:000053c0       ??0?$CComPtrBase@UIOleObject@@@ATL@@IAE@XZ 100063c0 f i CashChanger.obj
 0001:000053e0       ??0?$CComPtrBase@UIPersistStream@@@ATL@@IAE@XZ 100063e0 f i CashChanger.obj
 0001:00005400       ??0?$CComPtrBase@UIPersistStreamInit@@@ATL@@IAE@XZ 10006400 f i CashChanger.obj
 0001:00005420       ??0?$CComPtrBase@UIPointerInactive@@@ATL@@IAE@XZ 10006420 f i CashChanger.obj
 0001:00005440       ??0?$CComPtrBase@UIProvideClassInfo2@@@ATL@@IAE@XZ 10006440 f i CashChanger.obj
 0001:00005460       ??0?$CComPtrBase@UISpecifyPropertyPages@@@ATL@@IAE@XZ 10006460 f i CashChanger.obj
 0001:00005480       ??0?$CComPtrBase@UIStream@@@ATL@@IAE@XZ 10006480 f i CashChanger.obj
 0001:000054a0       ??0?$CComPtrBase@UITypeInfo2@@@ATL@@IAE@XZ 100064a0 f i CashChanger.obj
 0001:000054c0       ??0?$CComPtrBase@UITypeInfo@@@ATL@@IAE@PAUITypeInfo@@@Z 100064c0 f i CashChanger.obj
 0001:00005510       ??0?$CComPtrBase@UITypeInfo@@@ATL@@IAE@XZ 10006510 f i CashChanger.obj
 0001:00005530       ??0?$CComPtrBase@UITypeLib@@@ATL@@IAE@XZ 10006530 f i CashChanger.obj
 0001:00005550       ??0?$CComPtrBase@UIUnknown@@@ATL@@IAE@PAUIUnknown@@@Z 10006550 f i CashChanger.obj
 0001:000055a0       ??0?$CComPtrBase@UIUnknown@@@ATL@@IAE@XZ 100065a0 f i CashChanger.obj
 0001:000055c0       ??0?$CComPtrBase@UIViewObjectEx@@@ATL@@IAE@XZ 100065c0 f i CashChanger.obj
 0001:000055e0       ??0?$CComQIPtr@UIOleControlSite@@$1?_GUID_b196b289_bab4_101a_b69c_00aa00341d07@@3U__s_GUID@@B@ATL@@QAE@PAUIUnknown@@@Z 100065e0 f i CashChanger.obj
 0001:00005640       ??0?$CComQIPtr@UIOleObject@@$1?_GUID_00000112_0000_0000_c000_000000000046@@3U__s_GUID@@B@ATL@@QAE@XZ 10006640 f i CashChanger.obj
 0001:00005670       ??0?$CComQIPtr@UISpecifyPropertyPages@@$1?_GUID_b196b28b_bab4_101a_b69c_00aa00341d07@@3U__s_GUID@@B@ATL@@QAE@XZ 10006670 f i CashChanger.obj
 0001:000056a0       ??0?$CSimpleMap@PA_WPA_WVCExpansionVectorEqualHelper@ATL@@@ATL@@QAE@XZ 100066a0 f i CashChanger.obj
 0001:000056e0       ??0?$CTempBuffer@E$0BAA@VCCRTAllocator@ATL@@@ATL@@QAE@XZ 100066e0 f i CashChanger.obj
 0001:00005700       ??0?$CTempBuffer@_W$0BAA@VCCRTAllocator@ATL@@@ATL@@QAE@XZ 10006700 f i CashChanger.obj
 0001:00005720       ??0?$CTempBuffer@_W$0EAA@VCCRTAllocator@ATL@@@ATL@@QAE@XZ 10006720 f i CashChanger.obj
 0001:00005740       ??0?$Wrapper@PA_W@?$CSimpleMap@PA_WPA_WVCExpansionVectorEqualHelper@ATL@@@ATL@@QAE@ABQA_W@Z 10006740 f i CashChanger.obj
 0001:00005770       ??0CAtlModule@ATL@@QAE@XZ  10006770 f i CashChanger.obj
 0001:00005890       ??0CComAutoDeleteCriticalSection@ATL@@QAE@XZ 10006890 f i CashChanger.obj
 0001:000058c0       ??0CComBSTR@ATL@@QAE@XZ    100068c0 f i CashChanger.obj
 0001:000058e0       ??0CComClassFactory@ATL@@QAE@XZ 100068e0 f i CashChanger.obj
 0001:00005920       ??0CComModule@ATL@@QAE@XZ  10006920 f i CashChanger.obj
 0001:00005990       ??0CComObjectRootBase@ATL@@QAE@XZ 10006990 f i CashChanger.obj
 0001:000059b0       ??0CComSafeDeleteCriticalSection@ATL@@QAE@XZ 100069b0 f i CashChanger.obj
 0001:000059e0       ??0CComVariant@ATL@@QAE@XZ 100069e0 f i CashChanger.obj
 0001:00005a30       ??0CExpansionVector@ATL@@QAE@XZ 10006a30 f i CashChanger.obj
 0001:00005a60       ??0CParseBuffer@CRegParser@ATL@@QAE@H@Z 10006a60 f i CashChanger.obj
 0001:00005ad0       ??0CRegKey@ATL@@QAE@PAUHKEY__@@@Z 10006ad0 f i CashChanger.obj
 0001:00005b10       ??0CRegKey@ATL@@QAE@PAVCAtlTransactionManager@1@@Z 10006b10 f i CashChanger.obj
 0001:00005b50       ??0CRegObject@ATL@@QAE@XZ  10006b50 f i CashChanger.obj
 0001:00005b90       ??0CRegParser@ATL@@QAE@PAVCRegObject@1@@Z 10006b90 f i CashChanger.obj
 0001:00005bc0       ??0IClassFactory@@QAE@XZ   10006bc0 f i CashChanger.obj
 0001:00005bf0       ??0IEnumConnectionPoints@@QAE@XZ 10006bf0 f i CashChanger.obj
 0001:00005c20       ??0IEnumConnections@@QAE@XZ 10006c20 f i CashChanger.obj
 0001:00005c50       ??0IRegistrarBase@@QAE@XZ  10006c50 f i CashChanger.obj
 0001:00005c80       ??0IUnknown@@QAE@XZ        10006c80 f i CashChanger.obj
 0001:00005ca0       ??0ModuleLockHelper@ATL@@QAE@XZ 10006ca0 f i CashChanger.obj
 0001:00005ce0       ??0OposVariant@@QAE@XZ     10006ce0 f i CashChanger.obj
 0001:00005d10       ??0Wrapper@?$CSimpleArray@GV?$CSimpleArrayEqualHelper@G@ATL@@@ATL@@QAE@ABG@Z 10006d10 f i CashChanger.obj
 0001:00005d40       ??0_ATL_MODULE70@ATL@@QAE@XZ 10006d40 f i CashChanger.obj
 0001:00005d70       ??0_ATL_MSG@ATL@@QAE@PAUHWND__@@IIJH@Z 10006d70 f i CashChanger.obj
 0001:00005de0       ??0_U_MENUorID@ATL@@QAE@I@Z 10006de0 f i CashChanger.obj
 0001:00005e00       ??0_U_RECT@ATL@@QAE@AAUtagRECT@@@Z 10006e00 f i CashChanger.obj
 0001:00005e20       ??0stringdispid@CComTypeInfoHolder@ATL@@QAE@XZ 10006e20 f i CashChanger.obj
 0001:00005e60       ??1?$CAtlModuleT@VCComModule@ATL@@@ATL@@UAE@XZ 10006e60 f i CashChanger.obj
 0001:00005e90       ??1?$CAtlSafeAllocBufferManager@VCCRTAllocator@ATL@@@_ATL_SAFE_ALLOCA_IMPL@ATL@@QAE@XZ 10006e90 f i CashChanger.obj
 0001:00005ee0       ??1?$CAutoVectorPtr@_W@ATL@@QAE@XZ 10006ee0 f i CashChanger.obj
 0001:00005f10       ??1?$CComAggObject@VCOPOSCashChanger@@@ATL@@UAE@XZ 10006f10 f i CashChanger.obj
 0001:00005f80       ??1?$CComContainedObject@VCOPOSCashChanger@@@ATL@@UAE@XZ 10006f80 f i CashChanger.obj
 0001:00005fb0       ??1?$CComCritSecLock@VCComCriticalSection@ATL@@@ATL@@QAE@XZ 10006fb0 f i CashChanger.obj
 0001:00005fe0       ??1?$CComEnum@UIEnumConnectionPoints@@$1?_GUID_b196b285_bab4_101a_b69c_00aa00341d07@@3U__s_GUID@@BPAUIConnectionPoint@@V?$_CopyInterface@UIConnectionPoint@@@ATL@@VCComSingleThreadModel@6@@ATL@@UAE@XZ 10006fe0 f i CashChanger.obj
 0001:00006010       ??1?$CComEnum@UIEnumConnections@@$1?_GUID_b196b287_bab4_101a_b69c_00aa00341d07@@3U__s_GUID@@BUtagCONNECTDATA@@V?$_Copy@UtagCONNECTDATA@@@ATL@@VCComSingleThreadModel@6@@ATL@@UAE@XZ 10007010 f i CashChanger.obj
 0001:00006040       ??1?$CComEnumImpl@UIEnumConnectionPoints@@$1?_GUID_b196b285_bab4_101a_b69c_00aa00341d07@@3U__s_GUID@@BPAUIConnectionPoint@@V?$_CopyInterface@UIConnectionPoint@@@ATL@@@ATL@@UAE@XZ 10007040 f i CashChanger.obj
 0001:000060d0       ??1?$CComEnumImpl@UIEnumConnections@@$1?_GUID_b196b287_bab4_101a_b69c_00aa00341d07@@3U__s_GUID@@BUtagCONNECTDATA@@V?$_Copy@UtagCONNECTDATA@@@ATL@@@ATL@@UAE@XZ 100070d0 f i CashChanger.obj
 0001:00006160       ??1?$CComObject@V?$CComEnum@UIEnumConnectionPoints@@$1?_GUID_b196b285_bab4_101a_b69c_00aa00341d07@@3U__s_GUID@@BPAUIConnectionPoint@@V?$_CopyInterface@UIConnectionPoint@@@ATL@@VCComSingleThreadModel@6@@ATL@@@ATL@@UAE@XZ 10007160 f i CashChanger.obj
 0001:000061c0       ??1?$CComObject@V?$CComEnum@UIEnumConnections@@$1?_GUID_b196b287_bab4_101a_b69c_00aa00341d07@@3U__s_GUID@@BUtagCONNECTDATA@@V?$_Copy@UtagCONNECTDATA@@@ATL@@VCComSingleThreadModel@6@@ATL@@@ATL@@UAE@XZ 100071c0 f i CashChanger.obj
 0001:00006220       ??1?$CComObject@VCOPOSCashChanger@@@ATL@@UAE@XZ 10007220 f i CashChanger.obj
 0001:00006360       ??1?$CComObjectCached@VCComClassFactory@ATL@@@ATL@@UAE@XZ 10007360 f i CashChanger.obj
 0001:000063b0       ??1?$CComObjectRootEx@VCComMultiThreadModel@ATL@@@ATL@@QAE@XZ 100073b0 f i CashChanger.obj
 0001:000063e0       ??1?$CComObjectRootEx@VCComSingleThreadModel@ATL@@@ATL@@QAE@XZ 100073e0 f i CashChanger.obj
 0001:00006410       ??1?$CComPtr@UIAdviseSink@@@ATL@@QAE@XZ 10007410 f i CashChanger.obj
 0001:00006440       ??1?$CComPtr@UICatRegister@@@ATL@@QAE@XZ 10007440 f i CashChanger.obj
 0001:00006470       ??1?$CComPtr@UIConnectionPoint@@@ATL@@QAE@XZ 10007470 f i CashChanger.obj
 0001:000064a0       ??1?$CComPtr@UIConnectionPointContainer@@@ATL@@QAE@XZ 100074a0 f i CashChanger.obj
 0001:000064d0       ??1?$CComPtr@UIDataObject@@@ATL@@QAE@XZ 100074d0 f i CashChanger.obj
 0001:00006500       ??1?$CComPtr@UIDispatch@@@ATL@@QAE@XZ 10007500 f i CashChanger.obj
 0001:00006530       ??1?$CComPtr@UIOleClientSite@@@ATL@@QAE@XZ 10007530 f i CashChanger.obj
 0001:00006560       ??1?$CComPtr@UIOleControlSite@@@ATL@@QAE@XZ 10007560 f i CashChanger.obj
 0001:00006590       ??1?$CComPtr@UIOleInPlaceActiveObject@@@ATL@@QAE@XZ 10007590 f i CashChanger.obj
 0001:000065c0       ??1?$CComPtr@UIOleInPlaceFrame@@@ATL@@QAE@XZ 100075c0 f i CashChanger.obj
 0001:000065f0       ??1?$CComPtr@UIOleInPlaceObject@@@ATL@@QAE@XZ 100075f0 f i CashChanger.obj
 0001:00006620       ??1?$CComPtr@UIOleInPlaceUIWindow@@@ATL@@QAE@XZ 10007620 f i CashChanger.obj
 0001:00006650       ??1?$CComPtr@UIOleObject@@@ATL@@QAE@XZ 10007650 f i CashChanger.obj
 0001:00006680       ??1?$CComPtr@UIPersistStream@@@ATL@@QAE@XZ 10007680 f i CashChanger.obj
 0001:000066b0       ??1?$CComPtr@UIPersistStreamInit@@@ATL@@QAE@XZ 100076b0 f i CashChanger.obj
 0001:000066e0       ??1?$CComPtr@UIPointerInactive@@@ATL@@QAE@XZ 100076e0 f i CashChanger.obj
 0001:00006710       ??1?$CComPtr@UIProvideClassInfo2@@@ATL@@QAE@XZ 10007710 f i CashChanger.obj
 0001:00006740       ??1?$CComPtr@UISpecifyPropertyPages@@@ATL@@QAE@XZ 10007740 f i CashChanger.obj
 0001:00006770       ??1?$CComPtr@UIStream@@@ATL@@QAE@XZ 10007770 f i CashChanger.obj
 0001:000067a0       ??1?$CComPtr@UITypeInfo2@@@ATL@@QAE@XZ 100077a0 f i CashChanger.obj
 0001:000067d0       ??1?$CComPtr@UITypeInfo@@@ATL@@QAE@XZ 100077d0 f i CashChanger.obj
 0001:00006800       ??1?$CComPtr@UITypeLib@@@ATL@@QAE@XZ 10007800 f i CashChanger.obj
 0001:00006830       ??1?$CComPtr@UIUnknown@@@ATL@@QAE@XZ 10007830 f i CashChanger.obj
 0001:00006860       ??1?$CComPtr@UIViewObjectEx@@@ATL@@QAE@XZ 10007860 f i CashChanger.obj
 0001:00006890       ??1?$CComPtrBase@UIAdviseSink@@@ATL@@QAE@XZ 10007890 f i CashChanger.obj
 0001:000068e0       ??1?$CComPtrBase@UICatRegister@@@ATL@@QAE@XZ 100078e0 f i CashChanger.obj
 0001:00006930       ??1?$CComPtrBase@UIConnectionPoint@@@ATL@@QAE@XZ 10007930 f i CashChanger.obj
 0001:00006980       ??1?$CComPtrBase@UIConnectionPointContainer@@@ATL@@QAE@XZ 10007980 f i CashChanger.obj
 0001:000069d0       ??1?$CComPtrBase@UIDataObject@@@ATL@@QAE@XZ 100079d0 f i CashChanger.obj
 0001:00006a20       ??1?$CComPtrBase@UIDispatch@@@ATL@@QAE@XZ 10007a20 f i CashChanger.obj
 0001:00006a70       ??1?$CComPtrBase@UIOleClientSite@@@ATL@@QAE@XZ 10007a70 f i CashChanger.obj
 0001:00006ac0       ??1?$CComPtrBase@UIOleControlSite@@@ATL@@QAE@XZ 10007ac0 f i CashChanger.obj
 0001:00006b10       ??1?$CComPtrBase@UIOleInPlaceActiveObject@@@ATL@@QAE@XZ 10007b10 f i CashChanger.obj
 0001:00006b60       ??1?$CComPtrBase@UIOleInPlaceFrame@@@ATL@@QAE@XZ 10007b60 f i CashChanger.obj
 0001:00006bb0       ??1?$CComPtrBase@UIOleInPlaceObject@@@ATL@@QAE@XZ 10007bb0 f i CashChanger.obj
 0001:00006c00       ??1?$CComPtrBase@UIOleInPlaceUIWindow@@@ATL@@QAE@XZ 10007c00 f i CashChanger.obj
 0001:00006c50       ??1?$CComPtrBase@UIOleObject@@@ATL@@QAE@XZ 10007c50 f i CashChanger.obj
 0001:00006ca0       ??1?$CComPtrBase@UIPersistStream@@@ATL@@QAE@XZ 10007ca0 f i CashChanger.obj
 0001:00006cf0       ??1?$CComPtrBase@UIPersistStreamInit@@@ATL@@QAE@XZ 10007cf0 f i CashChanger.obj
 0001:00006d40       ??1?$CComPtrBase@UIPointerInactive@@@ATL@@QAE@XZ 10007d40 f i CashChanger.obj
 0001:00006d90       ??1?$CComPtrBase@UIProvideClassInfo2@@@ATL@@QAE@XZ 10007d90 f i CashChanger.obj
 0001:00006de0       ??1?$CComPtrBase@UISpecifyPropertyPages@@@ATL@@QAE@XZ 10007de0 f i CashChanger.obj
 0001:00006e30       ??1?$CComPtrBase@UIStream@@@ATL@@QAE@XZ 10007e30 f i CashChanger.obj
 0001:00006e80       ??1?$CComPtrBase@UITypeInfo2@@@ATL@@QAE@XZ 10007e80 f i CashChanger.obj
 0001:00006ed0       ??1?$CComPtrBase@UITypeInfo@@@ATL@@QAE@XZ 10007ed0 f i CashChanger.obj
 0001:00006f20       ??1?$CComPtrBase@UITypeLib@@@ATL@@QAE@XZ 10007f20 f i CashChanger.obj
 0001:00006f70       ??1?$CComPtrBase@UIUnknown@@@ATL@@QAE@XZ 10007f70 f i CashChanger.obj
 0001:00006fc0       ??1?$CComPtrBase@UIViewObjectEx@@@ATL@@QAE@XZ 10007fc0 f i CashChanger.obj
 0001:00007010       ??1?$CComQIPtr@UIOleControlSite@@$1?_GUID_b196b289_bab4_101a_b69c_00aa00341d07@@3U__s_GUID@@B@ATL@@QAE@XZ 10008010 f i CashChanger.obj
 0001:00007040       ??1?$CComQIPtr@UIOleObject@@$1?_GUID_00000112_0000_0000_c000_000000000046@@3U__s_GUID@@B@ATL@@QAE@XZ 10008040 f i CashChanger.obj
 0001:00007070       ??1?$CComQIPtr@UISpecifyPropertyPages@@$1?_GUID_b196b28b_bab4_101a_b69c_00aa00341d07@@3U__s_GUID@@B@ATL@@QAE@XZ 10008070 f i CashChanger.obj
 0001:000070a0       ??1?$CSimpleMap@PA_WPA_WVCExpansionVectorEqualHelper@ATL@@@ATL@@QAE@XZ 100080a0 f i CashChanger.obj
 0001:000070d0       ??1?$CTempBuffer@E$0BAA@VCCRTAllocator@ATL@@@ATL@@QAE@XZ 100080d0 f i CashChanger.obj
 0001:00007110       ??1?$CTempBuffer@_W$0BAA@VCCRTAllocator@ATL@@@ATL@@QAE@XZ 10008110 f i CashChanger.obj
 0001:00007150       ??1?$CTempBuffer@_W$0EAA@VCCRTAllocator@ATL@@@ATL@@QAE@XZ 10008150 f i CashChanger.obj
 0001:00007190       ??1CAtlModule@ATL@@UAE@XZ  10008190 f i CashChanger.obj
 0001:000071c0       ??1CComAutoDeleteCriticalSection@ATL@@QAE@XZ 100081c0 f i CashChanger.obj
 0001:000071f0       ??1CComClassFactory@ATL@@UAE@XZ 100081f0 f i CashChanger.obj
 0001:00007220       ??1CComModule@ATL@@UAE@XZ  10008220 f i CashChanger.obj
 0001:00007250       ??1CComObjectRootBase@ATL@@QAE@XZ 10008250 f i CashChanger.obj
 0001:00007270       ??1CComSafeDeleteCriticalSection@ATL@@QAE@XZ 10008270 f i CashChanger.obj
 0001:000072b0       ??1CComVariant@ATL@@QAE@XZ 100082b0 f i CashChanger.obj
 0001:00007310       ??1CExpansionVector@ATL@@QAE@XZ 10008310 f i CashChanger.obj
 0001:00007340       ??1CParseBuffer@CRegParser@ATL@@QAE@XZ 10008340 f i CashChanger.obj
 0001:00007380       ??1CRegKey@ATL@@QAE@XZ     10008380 f i CashChanger.obj
 0001:000073b0       ??1CRegObject@ATL@@UAE@XZ  100083b0 f i CashChanger.obj
 0001:000073f0       ??1ModuleLockHelper@ATL@@QAE@XZ 100083f0 f i CashChanger.obj
 0001:00007430       ??1OposVariant@@QAE@XZ     10008430 f i CashChanger.obj
 0001:00007460       ??1_ATL_MODULE70@ATL@@QAE@XZ 10008460 f i CashChanger.obj
 0001:00007490       ??4?$CComPtr@UIAdviseSink@@@ATL@@QAEPAUIAdviseSink@@PAU2@@Z 10008490 f i CashChanger.obj
 0001:000074f0       ??4?$CComPtr@UIOleClientSite@@@ATL@@QAEPAUIOleClientSite@@PAU2@@Z 100084f0 f i CashChanger.obj
 0001:00007550       ??4?$CComPtr@UIUnknown@@@ATL@@QAEPAUIUnknown@@PAU2@@Z 10008550 f i CashChanger.obj
 0001:000075b0       ??4?$CComQIPtr@UIOleObject@@$1?_GUID_00000112_0000_0000_c000_000000000046@@3U__s_GUID@@B@ATL@@QAEPAUIOleObject@@PAUIUnknown@@@Z 100085b0 f i CashChanger.obj
 0001:00007600       ??4?$CComQIPtr@UISpecifyPropertyPages@@$1?_GUID_b196b28b_bab4_101a_b69c_00aa00341d07@@3U__s_GUID@@B@ATL@@QAEPAUISpecifyPropertyPages@@PAUIUnknown@@@Z 10008600 f i CashChanger.obj
 0001:00007650       ??7?$CComPtrBase@UIOleClientSite@@@ATL@@QBE_NXZ 10008650 f i CashChanger.obj
 0001:00007690       ??7?$CComPtrBase@UIOleInPlaceSiteWindowless@@@ATL@@QBE_NXZ 10008690 f i CashChanger.obj
 0001:000076d0       ??7CComBSTR@ATL@@QBE_NXZ   100086d0 f i CashChanger.obj
 0001:00007710       ??8?$CComPtrBase@UIConnectionPointContainer@@@ATL@@QBE_NPAUIConnectionPointContainer@@@Z 10008710 f i CashChanger.obj
 0001:00007750       ??8?$CComPtrBase@UIDataAdviseHolder@@@ATL@@QBE_NPAUIDataAdviseHolder@@@Z 10008750 f i CashChanger.obj
 0001:00007790       ??8?$CComPtrBase@UIOleAdviseHolder@@@ATL@@QBE_NPAUIOleAdviseHolder@@@Z 10008790 f i CashChanger.obj
 0001:000077d0       ??8?$CComPtrBase@UIOleClientSite@@@ATL@@QBE_NPAUIOleClientSite@@@Z 100087d0 f i CashChanger.obj
 0001:00007810       ??8?$CComPtrBase@UIOleControlSite@@@ATL@@QBE_NPAUIOleControlSite@@@Z 10008810 f i CashChanger.obj
 0001:00007850       ??8?$CComPtrBase@UIOleInPlaceObject@@@ATL@@QBE_NPAUIOleInPlaceObject@@@Z 10008850 f i CashChanger.obj
 0001:00007890       ??8?$CComPtrBase@UIOleInPlaceSiteWindowless@@@ATL@@QBE_NPAUIOleInPlaceSiteWindowless@@@Z 10008890 f i CashChanger.obj
 0001:000078d0       ??8?$CComPtrBase@UIOleObject@@@ATL@@QBE_NPAUIOleObject@@@Z 100088d0 f i CashChanger.obj
 0001:00007910       ??8?$CComPtrBase@UIPersistStream@@@ATL@@QBE_NPAUIPersistStream@@@Z 10008910 f i CashChanger.obj
 0001:00007950       ??8?$CComPtrBase@UIPersistStreamInit@@@ATL@@QBE_NPAUIPersistStreamInit@@@Z 10008950 f i CashChanger.obj
 0001:00007990       ??8?$CComPtrBase@UIPointerInactive@@@ATL@@QBE_NPAUIPointerInactive@@@Z 10008990 f i CashChanger.obj
 0001:000079d0       ??8?$CComPtrBase@UIUnknown@@@ATL@@QBE_NPAUIUnknown@@@Z 100089d0 f i CashChanger.obj
 0001:00007a10       ??8?$CComPtrBase@UIViewObjectEx@@@ATL@@QBE_NPAUIViewObjectEx@@@Z 10008a10 f i CashChanger.obj
 0001:00007a50       ??8CComBSTR@ATL@@QBE_NH@Z  10008a50 f i CashChanger.obj
 0001:00007ab0       ??9?$CComPtrBase@UIConnectionPointContainer@@@ATL@@QBE_NPAUIConnectionPointContainer@@@Z 10008ab0 f i CashChanger.obj
 0001:00007b00       ??9?$CComPtrBase@UIDataAdviseHolder@@@ATL@@QBE_NPAUIDataAdviseHolder@@@Z 10008b00 f i CashChanger.obj
 0001:00007b50       ??9?$CComPtrBase@UIOleAdviseHolder@@@ATL@@QBE_NPAUIOleAdviseHolder@@@Z 10008b50 f i CashChanger.obj
 0001:00007ba0       ??9?$CComPtrBase@UIOleClientSite@@@ATL@@QBE_NPAUIOleClientSite@@@Z 10008ba0 f i CashChanger.obj
 0001:00007bf0       ??9?$CComPtrBase@UIOleControlSite@@@ATL@@QBE_NPAUIOleControlSite@@@Z 10008bf0 f i CashChanger.obj
 0001:00007c40       ??9?$CComPtrBase@UIOleInPlaceObject@@@ATL@@QBE_NPAUIOleInPlaceObject@@@Z 10008c40 f i CashChanger.obj
 0001:00007c90       ??9?$CComPtrBase@UIOleInPlaceSiteWindowless@@@ATL@@QBE_NPAUIOleInPlaceSiteWindowless@@@Z 10008c90 f i CashChanger.obj
 0001:00007ce0       ??9?$CComPtrBase@UIOleObject@@@ATL@@QBE_NPAUIOleObject@@@Z 10008ce0 f i CashChanger.obj
 0001:00007d30       ??9?$CComPtrBase@UIPersistStream@@@ATL@@QBE_NPAUIPersistStream@@@Z 10008d30 f i CashChanger.obj
 0001:00007d80       ??9?$CComPtrBase@UIPersistStreamInit@@@ATL@@QBE_NPAUIPersistStreamInit@@@Z 10008d80 f i CashChanger.obj
 0001:00007dd0       ??9?$CComPtrBase@UIPointerInactive@@@ATL@@QBE_NPAUIPointerInactive@@@Z 10008dd0 f i CashChanger.obj
 0001:00007e20       ??9?$CComPtrBase@UIUnknown@@@ATL@@QBE_NPAUIUnknown@@@Z 10008e20 f i CashChanger.obj
 0001:00007e70       ??9?$CComPtrBase@UIViewObjectEx@@@ATL@@QBE_NPAUIViewObjectEx@@@Z 10008e70 f i CashChanger.obj
 0001:00007ec0       ??9CComBSTR@ATL@@QBE_NH@Z  10008ec0 f i CashChanger.obj
 0001:00007f10       ??B?$CComPtrBase@UIAdviseSink@@@ATL@@QBEPAUIAdviseSink@@XZ 10008f10 f i CashChanger.obj
 0001:00007f30       ??B?$CComPtrBase@UIDataAdviseHolder@@@ATL@@QBEPAUIDataAdviseHolder@@XZ 10008f30 f i CashChanger.obj
 0001:00007f50       ??B?$CComPtrBase@UIDataObject@@@ATL@@QBEPAUIDataObject@@XZ 10008f50 f i CashChanger.obj
 0001:00007f70       ??B?$CComPtrBase@UIOleAdviseHolder@@@ATL@@QBEPAUIOleAdviseHolder@@XZ 10008f70 f i CashChanger.obj
 0001:00007f90       ??B?$CComPtrBase@UIOleClientSite@@@ATL@@QBEPAUIOleClientSite@@XZ 10008f90 f i CashChanger.obj
 0001:00007fb0       ??B?$CComPtrBase@UIOleControlSite@@@ATL@@QBEPAUIOleControlSite@@XZ 10008fb0 f i CashChanger.obj
 0001:00007fd0       ??B?$CComPtrBase@UIOleInPlaceActiveObject@@@ATL@@QBEPAUIOleInPlaceActiveObject@@XZ 10008fd0 f i CashChanger.obj
 0001:00007ff0       ??B?$CComPtrBase@UIOleInPlaceFrame@@@ATL@@QBEPAUIOleInPlaceFrame@@XZ 10008ff0 f i CashChanger.obj
 0001:00008010       ??B?$CComPtrBase@UIOleInPlaceSiteWindowless@@@ATL@@QBEPAUIOleInPlaceSiteWindowless@@XZ 10009010 f i CashChanger.obj
 0001:00008030       ??B?$CComPtrBase@UIOleInPlaceUIWindow@@@ATL@@QBEPAUIOleInPlaceUIWindow@@XZ 10009030 f i CashChanger.obj
 0001:00008050       ??B?$CComPtrBase@UIOleObject@@@ATL@@QBEPAUIOleObject@@XZ 10009050 f i CashChanger.obj
 0001:00008070       ??B?$CComPtrBase@UIPersistStream@@@ATL@@QBEPAUIPersistStream@@XZ 10009070 f i CashChanger.obj
 0001:00008090       ??B?$CComPtrBase@UIProvideClassInfo2@@@ATL@@QBEPAUIProvideClassInfo2@@XZ 10009090 f i CashChanger.obj
 0001:000080b0       ??B?$CComPtrBase@UISpecifyPropertyPages@@@ATL@@QBEPAUISpecifyPropertyPages@@XZ 100090b0 f i CashChanger.obj
 0001:000080d0       ??B?$CComPtrBase@UIStream@@@ATL@@QBEPAUIStream@@XZ 100090d0 f i CashChanger.obj
 0001:000080f0       ??B?$CComPtrBase@UITypeInfo2@@@ATL@@QBEPAUITypeInfo2@@XZ 100090f0 f i CashChanger.obj
 0001:00008110       ??B?$CComPtrBase@UITypeInfo@@@ATL@@QBEPAUITypeInfo@@XZ 10009110 f i CashChanger.obj
 0001:00008130       ??B?$CComPtrBase@UITypeLib@@@ATL@@QBEPAUITypeLib@@XZ 10009130 f i CashChanger.obj
 0001:00008150       ??B?$CComPtrBase@UIUnknown@@@ATL@@QBEPAUIUnknown@@XZ 10009150 f i CashChanger.obj
 0001:00008170       ??B?$CTempBuffer@E$0BAA@VCCRTAllocator@ATL@@@ATL@@QBEPAEXZ 10009170 f i CashChanger.obj
 0001:00008190       ??B?$CTempBuffer@_W$0BAA@VCCRTAllocator@ATL@@@ATL@@QBEPA_WXZ 10009190 f i CashChanger.obj
 0001:000081b0       ??B?$CTempBuffer@_W$0EAA@VCCRTAllocator@ATL@@@ATL@@QBEPA_WXZ 100091b0 f i CashChanger.obj
 0001:000081d0       ??B?$CTraceCategoryEx@$00$0A@@ATL@@QAEIXZ 100091d0 f i CashChanger.obj
 0001:000081f0       ??B?$CTraceCategoryEx@$07$0A@@ATL@@QAEIXZ 100091f0 f i CashChanger.obj
 0001:00008210       ??B?$CTraceCategoryEx@$0CAAA@$0A@@ATL@@QAEIXZ 10009210 f i CashChanger.obj
 0001:00008230       ??B?$CTraceCategoryEx@$0EA@$0A@@ATL@@QAEIXZ 10009230 f i CashChanger.obj
 0001:00008250       ??B?$CTraceCategoryEx@$0IAA@$0A@@ATL@@QAEIXZ 10009250 f i CashChanger.obj
 0001:00008270       ??BCComBSTR@ATL@@QBEPA_WXZ 10009270 f i CashChanger.obj
 0001:00008290       ??BCRegKey@ATL@@QBEPAUHKEY__@@XZ 10009290 f i CashChanger.obj
 0001:000082b0       ??C?$CComPtrBase@UIAdviseSink@@@ATL@@QBEPAV?$_NoAddRefReleaseOnCComPtr@UIAdviseSink@@@1@XZ 100092b0 f i CashChanger.obj
 0001:00008300       ??C?$CComPtrBase@UICatRegister@@@ATL@@QBEPAV?$_NoAddRefReleaseOnCComPtr@UICatRegister@@@1@XZ 10009300 f i CashChanger.obj
 0001:00008350       ??C?$CComPtrBase@UIConnectionPoint@@@ATL@@QBEPAV?$_NoAddRefReleaseOnCComPtr@UIConnectionPoint@@@1@XZ 10009350 f i CashChanger.obj
 0001:000083a0       ??C?$CComPtrBase@UIConnectionPointContainer@@@ATL@@QBEPAV?$_NoAddRefReleaseOnCComPtr@UIConnectionPointContainer@@@1@XZ 100093a0 f i CashChanger.obj
 0001:000083f0       ??C?$CComPtrBase@UIDataAdviseHolder@@@ATL@@QBEPAV?$_NoAddRefReleaseOnCComPtr@UIDataAdviseHolder@@@1@XZ 100093f0 f i CashChanger.obj
 0001:00008440       ??C?$CComPtrBase@UIOleAdviseHolder@@@ATL@@QBEPAV?$_NoAddRefReleaseOnCComPtr@UIOleAdviseHolder@@@1@XZ 10009440 f i CashChanger.obj
 0001:00008490       ??C?$CComPtrBase@UIOleClientSite@@@ATL@@QBEPAV?$_NoAddRefReleaseOnCComPtr@UIOleClientSite@@@1@XZ 10009490 f i CashChanger.obj
 0001:000084e0       ??C?$CComPtrBase@UIOleControlSite@@@ATL@@QBEPAV?$_NoAddRefReleaseOnCComPtr@UIOleControlSite@@@1@XZ 100094e0 f i CashChanger.obj
 0001:00008530       ??C?$CComPtrBase@UIOleInPlaceFrame@@@ATL@@QBEPAV?$_NoAddRefReleaseOnCComPtr@UIOleInPlaceFrame@@@1@XZ 10009530 f i CashChanger.obj
 0001:00008580       ??C?$CComPtrBase@UIOleInPlaceObject@@@ATL@@QBEPAV?$_NoAddRefReleaseOnCComPtr@UIOleInPlaceObject@@@1@XZ 10009580 f i CashChanger.obj
 0001:000085d0       ??C?$CComPtrBase@UIOleInPlaceSiteWindowless@@@ATL@@QBEPAV?$_NoAddRefReleaseOnCComPtr@UIOleInPlaceSiteWindowless@@@1@XZ 100095d0 f i CashChanger.obj
 0001:00008620       ??C?$CComPtrBase@UIOleInPlaceUIWindow@@@ATL@@QBEPAV?$_NoAddRefReleaseOnCComPtr@UIOleInPlaceUIWindow@@@1@XZ 10009620 f i CashChanger.obj
 0001:00008670       ??C?$CComPtrBase@UIOleObject@@@ATL@@QBEPAV?$_NoAddRefReleaseOnCComPtr@UIOleObject@@@1@XZ 10009670 f i CashChanger.obj
 0001:000086c0       ??C?$CComPtrBase@UIPersistStream@@@ATL@@QBEPAV?$_NoAddRefReleaseOnCComPtr@UIPersistStream@@@1@XZ 100096c0 f i CashChanger.obj
 0001:00008710       ??C?$CComPtrBase@UIPersistStreamInit@@@ATL@@QBEPAV?$_NoAddRefReleaseOnCComPtr@UIPersistStreamInit@@@1@XZ 10009710 f i CashChanger.obj
 0001:00008760       ??C?$CComPtrBase@UIPointerInactive@@@ATL@@QBEPAV?$_NoAddRefReleaseOnCComPtr@UIPointerInactive@@@1@XZ 10009760 f i CashChanger.obj
 0001:000087b0       ??C?$CComPtrBase@UIProvideClassInfo2@@@ATL@@QBEPAV?$_NoAddRefReleaseOnCComPtr@UIProvideClassInfo2@@@1@XZ 100097b0 f i CashChanger.obj
 0001:00008800       ??C?$CComPtrBase@UISpecifyPropertyPages@@@ATL@@QBEPAV?$_NoAddRefReleaseOnCComPtr@UISpecifyPropertyPages@@@1@XZ 10009800 f i CashChanger.obj
 0001:00008850       ??C?$CComPtrBase@UITypeInfo@@@ATL@@QBEPAV?$_NoAddRefReleaseOnCComPtr@UITypeInfo@@@1@XZ 10009850 f i CashChanger.obj
 0001:000088a0       ??C?$CComPtrBase@UITypeLib@@@ATL@@QBEPAV?$_NoAddRefReleaseOnCComPtr@UITypeLib@@@1@XZ 100098a0 f i CashChanger.obj
 0001:000088f0       ??C?$CComPtrBase@UIUnknown@@@ATL@@QBEPAV?$_NoAddRefReleaseOnCComPtr@UIUnknown@@@1@XZ 100098f0 f i CashChanger.obj
 0001:00008940       ??C?$CComPtrBase@UIViewObjectEx@@@ATL@@QBEPAV?$_NoAddRefReleaseOnCComPtr@UIViewObjectEx@@@1@XZ 10009940 f i CashChanger.obj
 0001:00008990       ??I?$CComPtrBase@UICatRegister@@@ATL@@QAEPAPAUICatRegister@@XZ 10009990 f i CashChanger.obj
 0001:000089e0       ??I?$CComPtrBase@UIConnectionPoint@@@ATL@@QAEPAPAUIConnectionPoint@@XZ 100099e0 f i CashChanger.obj
 0001:00008a30       ??I?$CComPtrBase@UIConnectionPointContainer@@@ATL@@QAEPAPAUIConnectionPointContainer@@XZ 10009a30 f i CashChanger.obj
 0001:00008a80       ??I?$CComPtrBase@UIDataAdviseHolder@@@ATL@@QAEPAPAUIDataAdviseHolder@@XZ 10009a80 f i CashChanger.obj
 0001:00008ad0       ??I?$CComPtrBase@UIDataObject@@@ATL@@QAEPAPAUIDataObject@@XZ 10009ad0 f i CashChanger.obj
 0001:00008b20       ??I?$CComPtrBase@UIDispatch@@@ATL@@QAEPAPAUIDispatch@@XZ 10009b20 f i CashChanger.obj
 0001:00008b70       ??I?$CComPtrBase@UIOleAdviseHolder@@@ATL@@QAEPAPAUIOleAdviseHolder@@XZ 10009b70 f i CashChanger.obj
 0001:00008bc0       ??I?$CComPtrBase@UIOleControlSite@@@ATL@@QAEPAPAUIOleControlSite@@XZ 10009bc0 f i CashChanger.obj
 0001:00008c10       ??I?$CComPtrBase@UIOleInPlaceActiveObject@@@ATL@@QAEPAPAUIOleInPlaceActiveObject@@XZ 10009c10 f i CashChanger.obj
 0001:00008c60       ??I?$CComPtrBase@UIOleInPlaceFrame@@@ATL@@QAEPAPAUIOleInPlaceFrame@@XZ 10009c60 f i CashChanger.obj
 0001:00008cb0       ??I?$CComPtrBase@UIOleInPlaceObject@@@ATL@@QAEPAPAUIOleInPlaceObject@@XZ 10009cb0 f i CashChanger.obj
 0001:00008d00       ??I?$CComPtrBase@UIOleInPlaceSiteWindowless@@@ATL@@QAEPAPAUIOleInPlaceSiteWindowless@@XZ 10009d00 f i CashChanger.obj
 0001:00008d50       ??I?$CComPtrBase@UIOleInPlaceUIWindow@@@ATL@@QAEPAPAUIOleInPlaceUIWindow@@XZ 10009d50 f i CashChanger.obj
 0001:00008da0       ??I?$CComPtrBase@UIOleObject@@@ATL@@QAEPAPAUIOleObject@@XZ 10009da0 f i CashChanger.obj
 0001:00008df0       ??I?$CComPtrBase@UIPersistStream@@@ATL@@QAEPAPAUIPersistStream@@XZ 10009df0 f i CashChanger.obj
 0001:00008e40       ??I?$CComPtrBase@UIPointerInactive@@@ATL@@QAEPAPAUIPointerInactive@@XZ 10009e40 f i CashChanger.obj
 0001:00008e90       ??I?$CComPtrBase@UIProvideClassInfo2@@@ATL@@QAEPAPAUIProvideClassInfo2@@XZ 10009e90 f i CashChanger.obj
 0001:00008ee0       ??I?$CComPtrBase@UIStream@@@ATL@@QAEPAPAUIStream@@XZ 10009ee0 f i CashChanger.obj
 0001:00008f30       ??I?$CComPtrBase@UITypeInfo2@@@ATL@@QAEPAPAUITypeInfo2@@XZ 10009f30 f i CashChanger.obj
 0001:00008f80       ??I?$CComPtrBase@UITypeInfo@@@ATL@@QAEPAPAUITypeInfo@@XZ 10009f80 f i CashChanger.obj
 0001:00008fd0       ??I?$CComPtrBase@UITypeLib@@@ATL@@QAEPAPAUITypeLib@@XZ 10009fd0 f i CashChanger.obj
 0001:00009020       ??I?$CComPtrBase@UIUnknown@@@ATL@@QAEPAPAUIUnknown@@XZ 1000a020 f i CashChanger.obj
 0001:00009070       ??I?$CComPtrBase@UIViewObjectEx@@@ATL@@QAEPAPAUIViewObjectEx@@XZ 1000a070 f i CashChanger.obj
 0001:000090c0       ??ICComBSTR@ATL@@QAEPAPA_WXZ 1000a0c0 f i CashChanger.obj
 0001:000090d5       ??_E?$CComContainedObject@VCOPOSCashChanger@@@ATL@@W3AEPAXI@Z 1000a0d5 f i CashChanger.obj
 0001:000090dd       ??_E?$CComContainedObject@VCOPOSCashChanger@@@ATL@@WEM@AEPAXI@Z 1000a0dd f i CashChanger.obj
 0001:000090e5       ??_E?$CComObject@VCOPOSCashChanger@@@ATL@@W3AEPAXI@Z 1000a0e5 f i CashChanger.obj
 0001:000090ed       ??_E?$CComObject@VCOPOSCashChanger@@@ATL@@WEM@AEPAXI@Z 1000a0ed f i CashChanger.obj
 0001:00009100       ??_E?$CComAggObject@VCOPOSCashChanger@@@ATL@@UAEPAXI@Z 1000a100 f i CashChanger.obj
 0001:00009100       ??_G?$CComAggObject@VCOPOSCashChanger@@@ATL@@UAEPAXI@Z 1000a100 f i CashChanger.obj
 0001:00009150       ??_G?$CComContainedObject@VCOPOSCashChanger@@@ATL@@UAEPAXI@Z 1000a150 f i CashChanger.obj
 0001:00009150       ??_E?$CComContainedObject@VCOPOSCashChanger@@@ATL@@UAEPAXI@Z 1000a150 f i CashChanger.obj
 0001:000091a0       ??_G?$CComObject@V?$CComEnum@UIEnumConnectionPoints@@$1?_GUID_b196b285_bab4_101a_b69c_00aa00341d07@@3U__s_GUID@@BPAUIConnectionPoint@@V?$_CopyInterface@UIConnectionPoint@@@ATL@@VCComSingleThreadModel@6@@ATL@@@ATL@@UAEPAXI@Z 1000a1a0 f i CashChanger.obj
 0001:000091a0       ??_E?$CComObject@V?$CComEnum@UIEnumConnectionPoints@@$1?_GUID_b196b285_bab4_101a_b69c_00aa00341d07@@3U__s_GUID@@BPAUIConnectionPoint@@V?$_CopyInterface@UIConnectionPoint@@@ATL@@VCComSingleThreadModel@6@@ATL@@@ATL@@UAEPAXI@Z 1000a1a0 f i CashChanger.obj
 0001:000091e0       ??_E?$CComObject@V?$CComEnum@UIEnumConnections@@$1?_GUID_b196b287_bab4_101a_b69c_00aa00341d07@@3U__s_GUID@@BUtagCONNECTDATA@@V?$_Copy@UtagCONNECTDATA@@@ATL@@VCComSingleThreadModel@6@@ATL@@@ATL@@UAEPAXI@Z 1000a1e0 f i CashChanger.obj
 0001:000091e0       ??_G?$CComObject@V?$CComEnum@UIEnumConnections@@$1?_GUID_b196b287_bab4_101a_b69c_00aa00341d07@@3U__s_GUID@@BUtagCONNECTDATA@@V?$_Copy@UtagCONNECTDATA@@@ATL@@VCComSingleThreadModel@6@@ATL@@@ATL@@UAEPAXI@Z 1000a1e0 f i CashChanger.obj
 0001:00009220       ??_E?$CComObject@VCOPOSCashChanger@@@ATL@@UAEPAXI@Z 1000a220 f i CashChanger.obj
 0001:00009220       ??_G?$CComObject@VCOPOSCashChanger@@@ATL@@UAEPAXI@Z 1000a220 f i CashChanger.obj
 0001:00009270       ??_G?$CComObjectCached@VCComClassFactory@ATL@@@ATL@@UAEPAXI@Z 1000a270 f i CashChanger.obj
 0001:00009270       ??_E?$CComObjectCached@VCComClassFactory@ATL@@@ATL@@UAEPAXI@Z 1000a270 f i CashChanger.obj
 0001:000092b0       ??_GCComClassFactory@ATL@@UAEPAXI@Z 1000a2b0 f i CashChanger.obj
 0001:000092b0       ??_ECComClassFactory@ATL@@UAEPAXI@Z 1000a2b0 f i CashChanger.obj
 0001:000092f0       ??_ECComModule@ATL@@UAEPAXI@Z 1000a2f0 f i CashChanger.obj
 0001:000092f0       ??_GCComModule@ATL@@UAEPAXI@Z 1000a2f0 f i CashChanger.obj
 0001:00009330       ??_GCRegObject@ATL@@UAEPAXI@Z 1000a330 f i CashChanger.obj
 0001:00009330       ??_ECRegObject@ATL@@UAEPAXI@Z 1000a330 f i CashChanger.obj
 0001:00009370       ?Add@?$CSimpleArray@GV?$CSimpleArrayEqualHelper@G@ATL@@@ATL@@QAEHABG@Z 1000a370 f i CashChanger.obj
 0001:000094c0       ?Add@?$CSimpleMap@PA_WPA_WVCExpansionVectorEqualHelper@ATL@@@ATL@@QAEHABQA_W0@Z 1000a4c0 f i CashChanger.obj
 0001:00009580       ?Add@CComDynamicUnkArray@ATL@@QAEKPAUIUnknown@@@Z 1000a580 f i CashChanger.obj
 0001:00009720       ?Add@CExpansionVector@ATL@@QAEHPB_W0@Z 1000a720 f i CashChanger.obj
 0001:000099b0       ?AddChar@CParseBuffer@CRegParser@ATL@@QAEHPB_W@Z 1000a9b0 f i CashChanger.obj
 0001:000099f0       ?AddCommonRGSReplacements@?$CAtlModuleT@VCComModule@ATL@@@ATL@@UAEJPAUIRegistrarBase@@@Z 1000a9f0 f i CashChanger.obj
 0001:00009a40       ?AddCreateWndData@CAtlWinModule@ATL@@QAEXPAU_AtlCreateWndData@2@PAX@Z 1000aa40 f i CashChanger.obj
 0001:00009a70       ?AddRef@?$CComAggObject@VCOPOSCashChanger@@@ATL@@UAGKXZ 1000aa70 f i CashChanger.obj
 0001:00009a90       ?AddRef@?$CComContainedObject@VCOPOSCashChanger@@@ATL@@UAGKXZ 1000aa90 f i CashChanger.obj
 0001:00009aac       ?AddRef@?$CComContainedObject@VCOPOSCashChanger@@@ATL@@WHA@AGKXZ 1000aaac f i CashChanger.obj
 0001:00009ab6       ?AddRef@?$CComContainedObject@VCOPOSCashChanger@@@ATL@@WHE@AGKXZ 1000aab6 f i CashChanger.obj
 0001:00009ac0       ?AddRef@?$CComContainedObject@VCOPOSCashChanger@@@ATL@@WHI@AGKXZ 1000aac0 f i CashChanger.obj
 0001:00009aca       ?AddRef@?$CComContainedObject@VCOPOSCashChanger@@@ATL@@WHM@AGKXZ 1000aaca f i CashChanger.obj
 0001:00009ad4       ?AddRef@?$CComContainedObject@VCOPOSCashChanger@@@ATL@@WIA@AGKXZ 1000aad4 f i CashChanger.obj
 0001:00009ae1       ?AddRef@?$CComContainedObject@VCOPOSCashChanger@@@ATL@@WIE@AGKXZ 1000aae1 f i CashChanger.obj
 0001:00009aee       ?AddRef@?$CComContainedObject@VCOPOSCashChanger@@@ATL@@WII@AGKXZ 1000aaee f i CashChanger.obj
 0001:00009afb       ?AddRef@?$CComContainedObject@VCOPOSCashChanger@@@ATL@@WIM@AGKXZ 1000aafb f i CashChanger.obj
 0001:00009b08       ?AddRef@?$CComContainedObject@VCOPOSCashChanger@@@ATL@@WJA@AGKXZ 1000ab08 f i CashChanger.obj
 0001:00009b15       ?AddRef@?$CComContainedObject@VCOPOSCashChanger@@@ATL@@WJE@AGKXZ 1000ab15 f i CashChanger.obj
 0001:00009b22       ?AddRef@?$CComContainedObject@VCOPOSCashChanger@@@ATL@@WJI@AGKXZ 1000ab22 f i CashChanger.obj
 0001:00009b2f       ?AddRef@?$CComContainedObject@VCOPOSCashChanger@@@ATL@@WJM@AGKXZ 1000ab2f f i CashChanger.obj
 0001:00009b3c       ?AddRef@?$CComContainedObject@VCOPOSCashChanger@@@ATL@@WKA@AGKXZ 1000ab3c f i CashChanger.obj
 0001:00009b49       ?AddRef@?$CComContainedObject@VCOPOSCashChanger@@@ATL@@WKI@AGKXZ 1000ab49 f i CashChanger.obj
 0001:00009b56       ?AddRef@?$CComContainedObject@VCOPOSCashChanger@@@ATL@@WLE@AGKXZ 1000ab56 f i CashChanger.obj
 0001:00009b70       ?AddRef@?$CComObject@V?$CComEnum@UIEnumConnectionPoints@@$1?_GUID_b196b285_bab4_101a_b69c_00aa00341d07@@3U__s_GUID@@BPAUIConnectionPoint@@V?$_CopyInterface@UIConnectionPoint@@@ATL@@VCComSingleThreadModel@6@@ATL@@@ATL@@UAGKXZ 1000ab70 f i CashChanger.obj
 0001:00009b90       ?AddRef@?$CComObject@V?$CComEnum@UIEnumConnections@@$1?_GUID_b196b287_bab4_101a_b69c_00aa00341d07@@3U__s_GUID@@BUtagCONNECTDATA@@V?$_Copy@UtagCONNECTDATA@@@ATL@@VCComSingleThreadModel@6@@ATL@@@ATL@@UAGKXZ 1000ab90 f i CashChanger.obj
 0001:00009bb0       ?AddRef@?$CComObject@VCOPOSCashChanger@@@ATL@@UAGKXZ 1000abb0 f i CashChanger.obj
 0001:00009bcc       ?AddRef@?$CComObject@VCOPOSCashChanger@@@ATL@@WHA@AGKXZ 1000abcc f i CashChanger.obj
 0001:00009bd6       ?AddRef@?$CComObject@VCOPOSCashChanger@@@ATL@@WHE@AGKXZ 1000abd6 f i CashChanger.obj
 0001:00009be0       ?AddRef@?$CComObject@VCOPOSCashChanger@@@ATL@@WHI@AGKXZ 1000abe0 f i CashChanger.obj
 0001:00009bea       ?AddRef@?$CComObject@VCOPOSCashChanger@@@ATL@@WHM@AGKXZ 1000abea f i CashChanger.obj
 0001:00009bf4       ?AddRef@?$CComObject@VCOPOSCashChanger@@@ATL@@WIA@AGKXZ 1000abf4 f i CashChanger.obj
 0001:00009c01       ?AddRef@?$CComObject@VCOPOSCashChanger@@@ATL@@WIE@AGKXZ 1000ac01 f i CashChanger.obj
 0001:00009c0e       ?AddRef@?$CComObject@VCOPOSCashChanger@@@ATL@@WII@AGKXZ 1000ac0e f i CashChanger.obj
 0001:00009c1b       ?AddRef@?$CComObject@VCOPOSCashChanger@@@ATL@@WIM@AGKXZ 1000ac1b f i CashChanger.obj
 0001:00009c28       ?AddRef@?$CComObject@VCOPOSCashChanger@@@ATL@@WJA@AGKXZ 1000ac28 f i CashChanger.obj
 0001:00009c35       ?AddRef@?$CComObject@VCOPOSCashChanger@@@ATL@@WJE@AGKXZ 1000ac35 f i CashChanger.obj
 0001:00009c42       ?AddRef@?$CComObject@VCOPOSCashChanger@@@ATL@@WJI@AGKXZ 1000ac42 f i CashChanger.obj
 0001:00009c4f       ?AddRef@?$CComObject@VCOPOSCashChanger@@@ATL@@WJM@AGKXZ 1000ac4f f i CashChanger.obj
 0001:00009c5c       ?AddRef@?$CComObject@VCOPOSCashChanger@@@ATL@@WKA@AGKXZ 1000ac5c f i CashChanger.obj
 0001:00009c69       ?AddRef@?$CComObject@VCOPOSCashChanger@@@ATL@@WKI@AGKXZ 1000ac69 f i CashChanger.obj
 0001:00009c76       ?AddRef@?$CComObject@VCOPOSCashChanger@@@ATL@@WLE@AGKXZ 1000ac76 f i CashChanger.obj
 0001:00009c90       ?AddRef@?$CComObjectCached@VCComClassFactory@ATL@@@ATL@@UAGKXZ 1000ac90 f i CashChanger.obj
 0001:00009ce0       ?AddRef@CRegObject@ATL@@UAGKXZ 1000ace0 f i CashChanger.obj
 0001:00009d30       ?AddReplacement@CRegObject@ATL@@UAGJPB_W0@Z 1000ad30 f i CashChanger.obj
 0001:00009e40       ?AddString@CParseBuffer@CRegParser@ATL@@QAEHPB_W@Z 1000ae40 f i CashChanger.obj
 0001:00009f30       ?AddTermFunc@CAtlModule@ATL@@QAEJP6GXK@ZK@Z 1000af30 f i CashChanger.obj
 0001:00009f80       ?AddValue@CRegParser@ATL@@IAEJAAVCRegKey@2@PB_WPA_W@Z 1000af80 f i CashChanger.obj
 0001:0000a710       ?Advise@?$CProxy_IOPOSEvents@VCOPOSCashChanger@@@@UAGJPAUIUnknown@@PAK@Z 1000b710 f i CashChanger.obj
 0001:0000a760       ?Advise@?$IConnectionPointImpl@VCOPOSCashChanger@@$1?DIID__IOPOSCashChangerEvents@@3U_GUID@@BVCComDynamicUnkArray@ATL@@@ATL@@UAGJPAUIUnknown@@PAK@Z 1000b760 f i CashChanger.obj
 0001:0000a900       ?Advise@?$IConnectionPointImpl@VCOPOSCashChanger@@$1?IID_IPropertyNotifySink@@3U_GUID@@BVCComDynamicUnkArray@ATL@@@ATL@@UAGJPAUIUnknown@@PAK@Z 1000b900 f i CashChanger.obj
 0001:0000aaa0       ?Advise@?$IOleObjectImpl@VCOPOSCashChanger@@@ATL@@UAGJPAUIAdviseSink@@PAK@Z 1000baa0 f i CashChanger.obj
 0001:0000ab30       ?Allocate@?$CAtlSafeAllocBufferManager@VCCRTAllocator@ATL@@@_ATL_SAFE_ALLOCA_IMPL@ATL@@QAEPAXK@Z 1000bb30 f i CashChanger.obj
 0001:0000aba0       ?Allocate@?$CTempBuffer@E$0BAA@VCCRTAllocator@ATL@@@ATL@@QAEPAEI@Z 1000bba0 f i CashChanger.obj
 0001:0000abe0       ?Allocate@?$CTempBuffer@_W$0BAA@VCCRTAllocator@ATL@@@ATL@@QAEPA_WI@Z 1000bbe0 f i CashChanger.obj
 0001:0000ac20       ?Allocate@?$CTempBuffer@_W$0EAA@VCCRTAllocator@ATL@@@ATL@@QAEPA_WI@Z 1000bc20 f i CashChanger.obj
 0001:0000ac60       ?AllocateBytes@?$CTempBuffer@E$0BAA@VCCRTAllocator@ATL@@@ATL@@QAEPAEI@Z 1000bc60 f i CashChanger.obj
 0001:0000ace0       ?AllocateBytes@?$CTempBuffer@_W$0BAA@VCCRTAllocator@ATL@@@ATL@@QAEPA_WI@Z 1000bce0 f i CashChanger.obj
 0001:0000ad60       ?AllocateBytes@?$CTempBuffer@_W$0EAA@VCCRTAllocator@ATL@@@ATL@@QAEPA_WI@Z 1000bd60 f i CashChanger.obj
 0001:0000ade0       ?AllocateHeap@?$CTempBuffer@E$0BAA@VCCRTAllocator@ATL@@@ATL@@AAEXI@Z 1000bde0 f i CashChanger.obj
 0001:0000ae30       ?AllocateHeap@?$CTempBuffer@_W$0BAA@VCCRTAllocator@ATL@@@ATL@@AAEXI@Z 1000be30 f i CashChanger.obj
 0001:0000ae80       ?AllocateHeap@?$CTempBuffer@_W$0EAA@VCCRTAllocator@ATL@@@ATL@@AAEXI@Z 1000be80 f i CashChanger.obj
 0001:0000aed0       ?Append@CParseBuffer@CRegParser@ATL@@QAEHPB_WH@Z 1000bed0 f i CashChanger.obj
 0001:0000b070       ?AtlCallTermFunc@ATL@@YGXPAU_ATL_MODULE70@1@@Z 1000c070 f i CashChanger.obj
 0001:0000b110       ?AtlCoTaskMemCAlloc@ATL@@YAPAXKK@Z 1000c110 f i CashChanger.obj
 0001:0000b1a0       ?AtlCoTaskMemRecalloc@ATL@@YAPAXPAXKK@Z 1000c1a0 f i CashChanger.obj
 0001:0000b240       ?AtlComModuleGetClassObject@ATL@@YGJPAU_ATL_COM_MODULE70@1@ABU_GUID@@1PAPAX@Z 1000c240 f i CashChanger.obj
 0001:0000b4d0       ?AtlComModuleRegisterServer@ATL@@YGJPAU_ATL_COM_MODULE70@1@HPBU_GUID@@@Z 1000c4d0 f i CashChanger.obj
 0001:0000b660       ?AtlComModuleUnregisterServer@ATL@@YGJPAU_ATL_COM_MODULE70@1@HPBU_GUID@@@Z 1000c660 f i CashChanger.obj
 0001:0000b790       ?AtlComQIPtrAssign2@ATL@@YAXPAPAUIUnknown@@PAU2@ABU_GUID@@@Z 1000c790 f i CashChanger.obj
 0001:0000b810       ?AtlCreateTargetDC@ATL@@YGPAUHDC__@@PAU2@PAUtagDVTARGETDEVICE@@@Z 1000c810 f i CashChanger.obj
 0001:0000b9b0       ?AtlCrtErrorCheck@ATL@@YAHH@Z 1000c9b0 f i CashChanger.obj
 0001:0000ba80       ?AtlGetPerUserRegistration@ATL@@YGJPA_N@Z 1000ca80 f i CashChanger.obj
 0001:0000bab0       ?AtlHiMetricToPixel@ATL@@YGXPBUtagSIZE@@PAU2@@Z 1000cab0 f i CashChanger.obj
 0001:0000bc80       ?AtlHresultFromLastError@ATL@@YAJXZ 1000cc80 f i CashChanger.obj
 0001:0000bcc0       ?AtlHresultFromWin32@ATL@@YAJK@Z 1000ccc0 f i CashChanger.obj
 0001:0000bce0       ?AtlIPersistStreamInit_Load@ATL@@YGJPAUIStream@@PBUATL_PROPMAP_ENTRY@1@PAXPAUIUnknown@@@Z 1000cce0 f i CashChanger.obj
 0001:0000c140       ?AtlIPersistStreamInit_Save@ATL@@YGJPAUIStream@@HPBUATL_PROPMAP_ENTRY@1@PAXPAUIUnknown@@@Z 1000d140 f i CashChanger.obj
 0001:0000c520       ?AtlInternalOleLoadFromStream@ATL@@YAJPAUIStream@@ABU_GUID@@PAPAXTClassesAllowedInStream@1@K@Z 1000d520 f i CashChanger.obj
 0001:0000c7c0       ?AtlInternalQueryInterface@ATL@@YGJPAXPBU_ATL_INTMAP_ENTRY@1@ABU_GUID@@PAPAX@Z 1000d7c0 f i CashChanger.obj
 0001:0000c9f0       ?AtlLoadTypeLib@ATL@@YGJPAUHINSTANCE__@@PB_WPAPA_WPAPAUITypeLib@@@Z 1000d9f0 f i CashChanger.obj
 0001:0000ce50       ?AtlModuleAddTermFunc@ATL@@YGJPAU_ATL_MODULE70@1@P6GXK@ZK@Z 1000de50 f i CashChanger.obj
 0001:0000cfb0       ?AtlRegisterClassCategoriesHelper@ATL@@YGJABU_GUID@@PBU_ATL_CATMAP_ENTRY@1@H@Z 1000dfb0 f i CashChanger.obj
 0001:0000d690       ?AtlRegisterTypeLib@ATL@@YGJPAUHINSTANCE__@@PB_W@Z 1000e690 f i CashChanger.obj
 0001:0000d9d0       ?AtlThrowImpl@ATL@@YGXJ@Z  1000e9d0 f i CashChanger.obj
 0001:0000da80       ?AtlUnRegisterTypeLib@ATL@@YGJPAUHINSTANCE__@@PB_W@Z 1000ea80 f i CashChanger.obj
 0001:0000dc90       ?AtlWinModuleAddCreateWndData@ATL@@YGXPAU_ATL_WIN_MODULE70@1@PAU_AtlCreateWndData@1@PAX@Z 1000ec90 f i CashChanger.obj
 0001:0000de00       ?AtlWinModuleExtractCreateWndData@ATL@@YGPAXPAU_ATL_WIN_MODULE70@1@@Z 1000ee00 f i CashChanger.obj
 0001:0000df80       ?AtlWinModuleRegisterClassExW@ATL@@YGGPAU_ATL_WIN_MODULE70@1@PBUtagWNDCLASSEXW@@@Z 1000ef80 f i CashChanger.obj
 0001:0000e050       ?AtlWinModuleRegisterWndClassInfoW@ATL@@YGGPAU_ATL_WIN_MODULE70@1@PAU_ATL_BASE_MODULE70@1@PAU_ATL_WNDCLASSINFOW@1@PAP6GJPAUHWND__@@IIJ@Z@Z 1000f050 f i CashChanger.obj
 0001:0000e0e0       ?Attach@?$CAutoVectorPtr@_W@ATL@@QAEXPA_W@Z 1000f0e0 f i CashChanger.obj
 0001:0000e140       ?Attach@CComBSTR@ATL@@QAEXPA_W@Z 1000f140 f i CashChanger.obj
 0001:0000e190       ?Attach@CRegKey@ATL@@QAEXPAUHKEY__@@@Z 1000f190 f i CashChanger.obj
 0001:0000e200       ?CanForceRemoveKey@CRegParser@ATL@@IAEHPB_W@Z 1000f200 f i CashChanger.obj
 0001:0000e270       ?ChToByte@CRegParser@ATL@@KAE_W@Z 1000f270 f i CashChanger.obj
 0001:0000e390       ?ChangeType@CComVariant@ATL@@QAEJGPBUtagVARIANT@@@Z 1000f390 f i CashChanger.obj
 0001:0000e3f0       ?Cleanup@CComTypeInfoHolder@ATL@@SGXK@Z 1000f3f0 f i CashChanger.obj
 0001:0000e4c0       ?Clear@CComVariant@ATL@@QAEJXZ 1000f4c0 f i CashChanger.obj
 0001:0000e500       ?ClearReplacements@CExpansionVector@ATL@@QAEJXZ 1000f500 f i CashChanger.obj
 0001:0000e590       ?ClearReplacements@CRegObject@ATL@@UAGJXZ 1000f590 f i CashChanger.obj
 0001:0000e5e0       ?Clone@?$CComEnumImpl@UIEnumConnectionPoints@@$1?_GUID_b196b285_bab4_101a_b69c_00aa00341d07@@3U__s_GUID@@BPAUIConnectionPoint@@V?$_CopyInterface@UIConnectionPoint@@@ATL@@@ATL@@UAGJPAPAUIEnumConnectionPoints@@@Z 1000f5e0 f i CashChanger.obj
 0001:0000e750       ?Clone@?$CComEnumImpl@UIEnumConnections@@$1?_GUID_b196b287_bab4_101a_b69c_00aa00341d07@@3U__s_GUID@@BUtagCONNECTDATA@@V?$_Copy@UtagCONNECTDATA@@@ATL@@@ATL@@UAGJPAPAUIEnumConnections@@@Z 1000f750 f i CashChanger.obj
 0001:0000e8c0       ?Close@?$IOleObjectImpl@VCOPOSCashChanger@@@ATL@@UAGJK@Z 1000f8c0 f i CashChanger.obj
 0001:0000e950       ?Close@CRegKey@ATL@@QAEJXZ 1000f950 f i CashChanger.obj
 0001:0000e9c0       ?ContextSensitiveHelp@?$IOleInPlaceActiveObjectImpl@VCOPOSCashChanger@@@ATL@@UAGJH@Z 1000f9c0 f i CashChanger.obj
 0001:0000ea30       ?ContextSensitiveHelp@?$IOleInPlaceObjectWindowlessImpl@VCOPOSCashChanger@@@ATL@@UAGJH@Z 1000fa30 f i CashChanger.obj
 0001:0000eaa0       ?ControlQueryInterface@?$CComControl@VCOPOSCashChanger@@V?$CWindowImpl@VCOPOSCashChanger@@VCWindow@ATL@@V?$CWinTraits@$0FGAAAAAA@$0A@@3@@ATL@@@ATL@@UAEJABU_GUID@@PAPAX@Z 1000faa0 f i CashChanger.obj
 0001:0000eb20       ?CreateControlWindow@?$CComControl@VCOPOSCashChanger@@V?$CWindowImpl@VCOPOSCashChanger@@VCWindow@ATL@@V?$CWinTraits@$0FGAAAAAA@$0A@@3@@ATL@@@ATL@@UAEPAUHWND__@@PAU3@AAUtagRECT@@@Z 1000fb20 f i CashChanger.obj
 0001:0000eba0       ?CreateInstance@?$CComCreator@V?$CComAggObject@VCOPOSCashChanger@@@ATL@@@ATL@@SGJPAXABU_GUID@@PAPAX@Z 1000fba0 f i CashChanger.obj
 0001:0000ed20       ?CreateInstance@?$CComCreator@V?$CComObject@VCOPOSCashChanger@@@ATL@@@ATL@@SGJPAXABU_GUID@@PAPAX@Z 1000fd20 f i CashChanger.obj
 0001:0000eeb0       ?CreateInstance@?$CComObject@V?$CComEnum@UIEnumConnectionPoints@@$1?_GUID_b196b285_bab4_101a_b69c_00aa00341d07@@3U__s_GUID@@BPAUIConnectionPoint@@V?$_CopyInterface@UIConnectionPoint@@@ATL@@VCComSingleThreadModel@6@@ATL@@@ATL@@SGJPAPAV12@@Z 1000feb0 f i CashChanger.obj
 0001:0000f020       ?CreateInstance@?$CComObject@V?$CComEnum@UIEnumConnections@@$1?_GUID_b196b287_bab4_101a_b69c_00aa00341d07@@3U__s_GUID@@BUtagCONNECTDATA@@V?$_Copy@UtagCONNECTDATA@@@ATL@@VCComSingleThreadModel@6@@ATL@@@ATL@@SGJPAPAV12@@Z 10010020 f i CashChanger.obj
 0001:0000f190       ?CreateInstance@CComClassFactory@ATL@@UAGJPAUIUnknown@@ABU_GUID@@PAPAX@Z 10010190 f i CashChanger.obj
 0001:0000f280       ?DAdvise@?$IDataObjectImpl@VCOPOSCashChanger@@@ATL@@UAGJPAUtagFORMATETC@@KPAUIAdviseSink@@PAK@Z 10010280 f i CashChanger.obj
 0001:0000f380       ?DEVMODEOLE2T_EX@@YAPAU_devicemodeW@@PAU1@@Z 10010380 f i CashChanger.obj
 0001:0000f390       ?DUnadvise@?$IDataObjectImpl@VCOPOSCashChanger@@@ATL@@UAGJK@Z 10010390 f i CashChanger.obj
 0001:0000f460       ?Decrement@CComMultiThreadModel@ATL@@SGKPAJ@Z 10010460 f i CashChanger.obj
 0001:0000f480       ?Decrement@CComSingleThreadModel@ATL@@SGKPAJ@Z 10010480 f i CashChanger.obj
 0001:0000f4a0       ?DefWindowProcW@?$CWindowImplBaseT@VCWindow@ATL@@V?$CWinTraits@$0FGAAAAAA@$0A@@2@@ATL@@QAEJIIJ@Z 100104a0 f i CashChanger.obj
 0001:0000f4f0       ?DefaultReflectionHandler@?$CWindowImplRoot@VCWindow@ATL@@@ATL@@SAHPAUHWND__@@IIJAAJ@Z 100104f0 f i CashChanger.obj
 0001:0000f6e0       ?DeleteSubKey@CRegKey@ATL@@QAEJPB_W@Z 100106e0 f i CashChanger.obj
 0001:0000f7f0       ?DeleteValue@CRegKey@ATL@@QAEJPB_W@Z 100107f0 f i CashChanger.obj
 0001:0000f860       ?Detach@?$CAutoVectorPtr@_W@ATL@@QAEPA_WXZ 10010860 f i CashChanger.obj
 0001:0000f890       ?Detach@?$CComPtrBase@UIPersistStream@@@ATL@@QAEPAUIPersistStream@@XZ 10010890 f i CashChanger.obj
 0001:0000f8c0       ?Detach@?$CComPtrBase@UITypeInfo@@@ATL@@QAEPAUITypeInfo@@XZ 100108c0 f i CashChanger.obj
 0001:0000f8f0       ?Detach@?$CComPtrBase@UIUnknown@@@ATL@@QAEPAUIUnknown@@XZ 100108f0 f i CashChanger.obj
 0001:0000f920       ?Detach@CComBSTR@ATL@@QAEPA_WXZ 10010920 f i CashChanger.obj
 0001:0000f950       ?Detach@CParseBuffer@CRegParser@ATL@@QAEPA_WXZ 10010950 f i CashChanger.obj
 0001:0000f9a0       ?Detach@CRegKey@ATL@@QAEPAUHKEY__@@XZ 100109a0 f i CashChanger.obj
 0001:0000f9f0       ?DoEvent@COPOSCashChanger@@IAEXIIJ@Z 100109f0 f i CashChanger.obj
 0001:0000fb30       ?DoVerb@?$IOleObjectImpl@VCOPOSCashChanger@@@ATL@@UAGJJPAUtagMSG@@PAUIOleClientSite@@JPAUHWND__@@PBUtagRECT@@@Z 10010b30 f i CashChanger.obj
 0001:0000fd40       ?DoVerbDiscardUndo@?$IOleObjectImpl@VCOPOSCashChanger@@@ATL@@QAEJPBUtagRECT@@PAUHWND__@@@Z 10010d40 f i CashChanger.obj
 0001:0000fdb0       ?DoVerbHide@?$IOleObjectImpl@VCOPOSCashChanger@@@ATL@@QAEJPBUtagRECT@@PAUHWND__@@@Z 10010db0 f i CashChanger.obj
 0001:0000fe60       ?DoVerbInPlaceActivate@?$IOleObjectImpl@VCOPOSCashChanger@@@ATL@@QAEJPBUtagRECT@@PAUHWND__@@@Z 10010e60 f i CashChanger.obj
 0001:0000ff00       ?DoVerbOpen@?$IOleObjectImpl@VCOPOSCashChanger@@@ATL@@QAEJPBUtagRECT@@PAUHWND__@@@Z 10010f00 f i CashChanger.obj
 0001:0000ff70       ?DoVerbPrimary@?$IOleObjectImpl@VCOPOSCashChanger@@@ATL@@QAEJPBUtagRECT@@PAUHWND__@@@Z 10010f70 f i CashChanger.obj
 0001:00010080       ?DoVerbProperties@CComControlBase@ATL@@QAEJPBUtagRECT@@PAUHWND__@@@Z 10011080 f i CashChanger.obj
 0001:000103a0       ?DoVerbShow@?$IOleObjectImpl@VCOPOSCashChanger@@@ATL@@QAEJPBUtagRECT@@PAUHWND__@@@Z 100113a0 f i CashChanger.obj
 0001:00010430       ?DoVerbUIActivate@?$IOleObjectImpl@VCOPOSCashChanger@@@ATL@@QAEJPBUtagRECT@@PAUHWND__@@@Z 10011430 f i CashChanger.obj
 0001:000104d0       ?DoesVerbActivate@CComControlBase@ATL@@QAEHJ@Z 100114d0 f i CashChanger.obj
 0001:00010540       ?DoesVerbUIActivate@CComControlBase@ATL@@QAEHJ@Z 10011540 f i CashChanger.obj
 0001:000105c0       ?Draw@?$IViewObjectExImpl@VCOPOSCashChanger@@@ATL@@UAGJKJPAXPAUtagDVTARGETDEVICE@@PAUHDC__@@2PBU_RECTL@@3P6GHK@ZK@Z 100115c0 f i CashChanger.obj
 0001:00010660       ?Empty@CComBSTR@ATL@@QAEXXZ 10011660 f i CashChanger.obj
 0001:000106a0       ?EnableModeless@?$IOleInPlaceActiveObjectImpl@VCOPOSCashChanger@@@ATL@@UAGJH@Z 100116a0 f i CashChanger.obj
 0001:00010700       ?EndOfVar@CRegParser@ATL@@IAEHXZ 10011700 f i CashChanger.obj
 0001:00010770       ?EnsureTI@CComTypeInfoHolder@ATL@@QAEJK@Z 10011770 f i CashChanger.obj
 0001:000107d0       ?EnumAdvise@?$IOleObjectImpl@VCOPOSCashChanger@@@ATL@@UAGJPAPAUIEnumSTATDATA@@@Z 100117d0 f i CashChanger.obj
 0001:000108e0       ?EnumConnectionPoints@?$IConnectionPointContainerImpl@VCOPOSCashChanger@@@ATL@@UAGJPAPAUIEnumConnectionPoints@@@Z 100118e0 f i CashChanger.obj
 0001:00010d10       ?EnumConnections@?$IConnectionPointImpl@VCOPOSCashChanger@@$1?DIID__IOPOSCashChangerEvents@@3U_GUID@@BVCComDynamicUnkArray@ATL@@@ATL@@UAGJPAPAUIEnumConnections@@@Z 10011d10 f i CashChanger.obj
 0001:00010f60       ?EnumConnections@?$IConnectionPointImpl@VCOPOSCashChanger@@$1?IID_IPropertyNotifySink@@3U_GUID@@BVCComDynamicUnkArray@ATL@@@ATL@@UAGJPAPAUIEnumConnections@@@Z 10011f60 f i CashChanger.obj
 0001:000111b0       ?EnumDAdvise@?$IDataObjectImpl@VCOPOSCashChanger@@@ATL@@UAGJPAPAUIEnumSTATDATA@@@Z 100121b0 f i CashChanger.obj
 0001:000112b0       ?EnumFormatEtc@?$IDataObjectImpl@VCOPOSCashChanger@@@ATL@@UAGJKPAPAUIEnumFORMATETC@@@Z 100122b0 f i CashChanger.obj
 0001:00011320       ?EnumVerbs@?$IOleObjectImpl@VCOPOSCashChanger@@@ATL@@UAGJPAPAUIEnumOLEVERB@@@Z 10012320 f i CashChanger.obj
 0001:000113d0       ?EscapeSingleQuote@CAtlModule@ATL@@SAXPA_WIPB_W@Z 100123d0 f i CashChanger.obj
 0001:00011480       ?ExtractCreateWndData@CAtlWinModule@ATL@@QAEPAXXZ 10012480 f i CashChanger.obj
 0001:000114b0       ?FAccessAllowed@?$IObjectSafetyImpl@VCOPOSCashChanger@@$02@ATL@@MAEHXZ 100124b0 f i CashChanger.obj
 0001:000114d0       ?FinalConstruct@?$CComAggObject@VCOPOSCashChanger@@@ATL@@QAEJXZ 100124d0 f i CashChanger.obj
 0001:00011510       ?FinalConstruct@CComObjectRootBase@ATL@@QAEJXZ 10012510 f i CashChanger.obj
 0001:00011530       ?FinalConstruct@CRegObject@ATL@@QAEJXZ 10012530 f i CashChanger.obj
 0001:00011560       ?FinalRelease@?$CComAggObject@VCOPOSCashChanger@@@ATL@@QAEXXZ 10012560 f i CashChanger.obj
 0001:000115a0       ?FinalRelease@CComObjectRootBase@ATL@@QAEXXZ 100125a0 f i CashChanger.obj
 0001:000115c0       ?FindConnectionPoint@?$IConnectionPointContainerImpl@VCOPOSCashChanger@@@ATL@@UAGJABU_GUID@@PAPAUIConnectionPoint@@@Z 100125c0 f i CashChanger.obj
 0001:00011710       ?FindKey@?$CSimpleMap@PA_WPA_WVCExpansionVectorEqualHelper@ATL@@@ATL@@QBEHABQA_W@Z 10012710 f i CashChanger.obj
 0001:00011780       ?FireTheEvent@?$CProxy_IOPOSEvents@VCOPOSCashChanger@@@@IAEXPAUIUnknown@@PAVOposVariant@@IAAJPB_WJ@Z 10012780 f i CashChanger.obj
 0001:000118f0       ?FireViewChange@CComControlBase@ATL@@QAEJXZ 100128f0 f i CashChanger.obj
 0001:000119b0       ?Fire_DataEvent@?$CProxy_IOPOSEvents@VCOPOSCashChanger@@@@QAEXJ@Z 100129b0 f i CashChanger.obj
 0001:00011b10       ?Fire_DirectIOEvent@?$CProxy_IOPOSEvents@VCOPOSCashChanger@@@@QAEXJPAJPAPA_W@Z 10012b10 f i CashChanger.obj
 0001:00011ce0       ?Fire_StatusUpdateEvent@?$CProxy_IOPOSEvents@VCOPOSCashChanger@@@@QAEXJ@Z 10012ce0 f i CashChanger.obj
 0001:00011e40       ?FormatWindowClassName@AtlModuleRegisterWndClassInfoParamW@ATL@@SAXPA_WKPAX@Z 10012e40 f i CashChanger.obj
 0001:00011e70       ?Free@?$CAutoVectorPtr@_W@ATL@@QAEXXZ 10012e70 f i CashChanger.obj
 0001:00011ec0       ?FreeHeap@?$CTempBuffer@E$0BAA@VCCRTAllocator@ATL@@@ATL@@AAEXXZ 10012ec0 f i CashChanger.obj
 0001:00011ef0       ?FreeHeap@?$CTempBuffer@_W$0BAA@VCCRTAllocator@ATL@@@ATL@@AAEXXZ 10012ef0 f i CashChanger.obj
 0001:00011f20       ?FreeHeap@?$CTempBuffer@_W$0EAA@VCCRTAllocator@ATL@@@ATL@@AAEXXZ 10012f20 f i CashChanger.obj
 0001:00011f50       ?Freeze@?$IViewObjectExImpl@VCOPOSCashChanger@@@ATL@@UAGJKJPAXPAK@Z 10012f50 f i CashChanger.obj
 0001:00011fc0       ?GenerateError@CRegParser@ATL@@IAEJI@Z 10012fc0 f i CashChanger.obj
 0001:00011fe0       ?GetAdvise@?$IViewObjectExImpl@VCOPOSCashChanger@@@ATL@@UAGJPAK0PAPAUIAdviseSink@@@Z 10012fe0 f i CashChanger.obj
 0001:000120e0       ?GetAmbientLocaleID@CComControlBase@ATL@@QAEJAAK@Z 100130e0 f i CashChanger.obj
 0001:000121c0       ?GetAmbientProperty@CComControlBase@ATL@@QAEJJAAUtagVARIANT@@@Z 100131c0 f i CashChanger.obj
 0001:00012210       ?GetAmbientUserMode@CComControlBase@ATL@@QAEJAAH@Z 10013210 f i CashChanger.obj
 0001:00012310       ?GetAppId@?$CAtlModuleT@VCComModule@ATL@@@ATL@@SAPB_WXZ 10013310 f i CashChanger.obj
 0001:00012320       ?GetAt@CComDynamicUnkArray@ATL@@QAEPAUIUnknown@@H@Z 10013320 f i CashChanger.obj
 0001:000123a0       ?GetCanonicalFormatEtc@?$IDataObjectImpl@VCOPOSCashChanger@@@ATL@@UAGJPAUtagFORMATETC@@0@Z 100133a0 f i CashChanger.obj
 0001:00012410       ?GetClassID@?$IPersistStorageImpl@VCOPOSCashChanger@@@ATL@@UAGJPAU_GUID@@@Z 10013410 f i CashChanger.obj
 0001:00012490       ?GetClassID@?$IPersistStreamInitImpl@VCOPOSCashChanger@@@ATL@@UAGJPAU_GUID@@@Z 10013490 f i CashChanger.obj
 0001:00012510       ?GetClassInfoExW@AtlModuleRegisterWndClassInfoParamW@ATL@@SAHPAUHINSTANCE__@@PB_WPAUtagWNDCLASSEXW@@@Z 10013510 f i CashChanger.obj
 0001:00012540       ?GetClassInfoW@?$IProvideClassInfo2Impl@$1?CLSID_OPOSCashChanger@@3U_GUID@@B$1?DIID__IOPOSCashChangerEvents@@3U2@B$1?LIBID_OposCashChanger_CCO@@3U2@B$00$0A@VCComTypeInfoHolder@ATL@@@ATL@@UAGJPAPAUITypeInfo@@@Z 10013540 f i CashChanger.obj
 0001:00012560       ?GetClassObject@CComModule@ATL@@QAEJABU_GUID@@0PAPAX@Z 10013560 f i CashChanger.obj
 0001:00012760       ?GetClientSite@?$IOleObjectImpl@VCOPOSCashChanger@@@ATL@@UAGJPAPAUIOleClientSite@@@Z 10013760 f i CashChanger.obj
 0001:000127f0       ?GetClipboardData@?$IOleObjectImpl@VCOPOSCashChanger@@@ATL@@UAGJKPAPAUIDataObject@@@Z 100137f0 f i CashChanger.obj
 0001:00012860       ?GetCodeAddress@CDynamicStdCallThunk2@ATL@@QAEPAXXZ 10013860 f i CashChanger.obj
 0001:00012890       ?GetColorSet@?$IViewObjectExImpl@VCOPOSCashChanger@@@ATL@@UAGJKJPAXPAUtagDVTARGETDEVICE@@PAUHDC__@@PAPAUtagLOGPALETTE@@@Z 10013890 f i CashChanger.obj
 0001:00012900       ?GetConnMap@COPOSCashChanger@@SAPBU_ATL_CONNMAP_ENTRY@ATL@@PAH@Z 10013900 f i CashChanger.obj
 0001:00012a40       ?GetConnectionInterface@?$IConnectionPointImpl@VCOPOSCashChanger@@$1?DIID__IOPOSCashChangerEvents@@3U_GUID@@BVCComDynamicUnkArray@ATL@@@ATL@@UAGJPAU_GUID@@@Z 10013a40 f i CashChanger.obj
 0001:00012a80       ?GetConnectionInterface@?$IConnectionPointImpl@VCOPOSCashChanger@@$1?IID_IPropertyNotifySink@@3U_GUID@@BVCComDynamicUnkArray@ATL@@@ATL@@UAGJPAU_GUID@@@Z 10013a80 f i CashChanger.obj
 0001:00012ac0       ?GetConnectionPointContainer@?$IConnectionPointImpl@VCOPOSCashChanger@@$1?DIID__IOPOSCashChangerEvents@@3U_GUID@@BVCComDynamicUnkArray@ATL@@@ATL@@UAGJPAPAUIConnectionPointContainer@@@Z 10013ac0 f i CashChanger.obj
 0001:00012b30       ?GetConnectionPointContainer@?$IConnectionPointImpl@VCOPOSCashChanger@@$1?IID_IPropertyNotifySink@@3U_GUID@@BVCComDynamicUnkArray@ATL@@@ATL@@UAGJPAPAUIConnectionPointContainer@@@Z 10013b30 f i CashChanger.obj
 0001:00012ba0       ?GetContentExtent@?$IQuickActivateImpl@VCOPOSCashChanger@@@ATL@@UAGJPAUtagSIZE@@@Z 10013ba0 f i CashChanger.obj
 0001:00012c30       ?GetControlInfo@?$IOleControlImpl@VCOPOSCashChanger@@@ATL@@UAGJPAUtagCONTROLINFO@@@Z 10013c30 f i CashChanger.obj
 0001:00012ca0       ?GetCookie@CComDynamicUnkArray@ATL@@QAGKPAPAUIUnknown@@@Z 10013ca0 f i CashChanger.obj
 0001:00012d60       ?GetData@?$IDataObjectImpl@VCOPOSCashChanger@@@ATL@@UAGJPAUtagFORMATETC@@PAUtagSTGMEDIUM@@@Z 10013d60 f i CashChanger.obj
 0001:00012df0       ?GetData@CAtlSafeAllocBufferNode@?$CAtlSafeAllocBufferManager@VCCRTAllocator@ATL@@@_ATL_SAFE_ALLOCA_IMPL@ATL@@QAEPAXXZ 10013df0 f i CashChanger.obj
 0001:00012e10       ?GetDataHere@?$IDataObjectImpl@VCOPOSCashChanger@@@ATL@@UAGJPAUtagFORMATETC@@PAUtagSTGMEDIUM@@@Z 10013e10 f i CashChanger.obj
 0001:00012e80       ?GetDropTarget@?$IOleInPlaceObjectWindowlessImpl@VCOPOSCashChanger@@@ATL@@UAGJPAPAUIDropTarget@@@Z 10013e80 f i CashChanger.obj
 0001:00012ef0       ?GetExtent@?$IOleObjectImpl@VCOPOSCashChanger@@@ATL@@UAGJKPAUtagSIZE@@@Z 10013ef0 f i CashChanger.obj
 0001:00012f90       ?GetExtent@?$IViewObjectExImpl@VCOPOSCashChanger@@@ATL@@UAGJKJPAUtagDVTARGETDEVICE@@PAUtagSIZE@@@Z 10013f90 f i CashChanger.obj
 0001:00013060       ?GetGITPtr@CAtlModule@ATL@@UAEJPAPAUIGlobalInterfaceTable@@@Z 10014060 f i CashChanger.obj
 0001:00013160       ?GetGUID@?$IProvideClassInfo2Impl@$1?CLSID_OPOSCashChanger@@3U_GUID@@B$1?DIID__IOPOSCashChangerEvents@@3U2@B$1?LIBID_OposCashChanger_CCO@@3U2@B$00$0A@VCComTypeInfoHolder@ATL@@@ATL@@UAGJKPAU_GUID@@@Z 10014160 f i CashChanger.obj
 0001:000131e0       ?GetIDsOfNames@?$IDispatchImpl@UIOPOSCashChanger@@$1?IID_IOPOSCashChanger@@3U_GUID@@B$1?LIBID_OposCashChanger_CCO@@3U3@B$00$0A@VCComTypeInfoHolder@ATL@@@ATL@@UAGJABU_GUID@@PAPA_WIKPAJ@Z 100141e0 f i CashChanger.obj
 0001:00013210       ?GetIDsOfNames@CComTypeInfoHolder@ATL@@QAEJABU_GUID@@PAPA_WIKPAJ@Z 10014210 f i CashChanger.obj
 0001:000133c0       ?GetInterfaceSafetyOptions@?$IObjectSafetyImpl@VCOPOSCashChanger@@$02@ATL@@UAGJABU_GUID@@PAK1@Z 100143c0 f i CashChanger.obj
 0001:00013530       ?GetKeyAt@?$CSimpleMap@PA_WPA_WVCExpansionVectorEqualHelper@ATL@@@ATL@@QBEAAPA_WH@Z 10014530 f i CashChanger.obj
 0001:000135b0       ?GetLockCount@CAtlModule@ATL@@UAEJXZ 100145b0 f i CashChanger.obj
 0001:000135d0       ?GetMiscStatus@?$IOleObjectImpl@VCOPOSCashChanger@@@ATL@@UAGJKPAK@Z 100145d0 f i CashChanger.obj
 0001:00013640       ?GetMoniker@?$IOleObjectImpl@VCOPOSCashChanger@@@ATL@@UAGJKKPAPAUIMoniker@@@Z 10014640 f i CashChanger.obj
 0001:000136b0       ?GetNaturalExtent@?$IViewObjectExImpl@VCOPOSCashChanger@@@ATL@@UAGJKJPAUtagDVTARGETDEVICE@@PAUHDC__@@PAUtagExtentInfo@@PAUtagSIZE@@@Z 100146b0 f i CashChanger.obj
 0001:000137d0       ?GetObjectCLSID@?$CComCoClass@VCOPOSCashChanger@@$1?CLSID_OPOSCashChanger@@3U_GUID@@B@ATL@@SGABU_GUID@@XZ 100147d0 f i CashChanger.obj
 0001:000137e0       ?GetPages@?$ISpecifyPropertyPagesImpl@VCOPOSCashChanger@@@ATL@@UAGJPAUtagCAUUID@@@Z 100147e0 f i CashChanger.obj
 0001:00013850       ?GetPagesHelper@?$ISpecifyPropertyPagesImpl@VCOPOSCashChanger@@@ATL@@IAEJPAUtagCAUUID@@PBUATL_PROPMAP_ENTRY@2@@Z 10014850 f i CashChanger.obj
 0001:00013a50       ?GetProperty@?$CComPtr@UIDispatch@@@ATL@@QAEJJPAUtagVARIANT@@@Z 10014a50 f i CashChanger.obj
 0001:00013a90       ?GetProperty@?$CComPtr@UIDispatch@@@ATL@@SAJPAUIDispatch@@JPAUtagVARIANT@@@Z 10014a90 f i CashChanger.obj
 0001:00013bf0       ?GetPropertyMap@COPOSCashChanger@@SAPBUATL_PROPMAP_ENTRY@ATL@@XZ 10014bf0 f i CashChanger.obj
 0001:00013c00       ?GetRect@?$IViewObjectExImpl@VCOPOSCashChanger@@@ATL@@UAGJKPAU_RECTL@@@Z 10014c00 f i CashChanger.obj
 0001:00013c70       ?GetSize@?$CSimpleMap@PA_WPA_WVCExpansionVectorEqualHelper@ATL@@@ATL@@QBEHXZ 10014c70 f i CashChanger.obj
 0001:00013c90       ?GetSize@CComDynamicUnkArray@ATL@@QBEHXZ 10014c90 f i CashChanger.obj
 0001:00013cb0       ?GetSizeMax@?$IPersistStreamInitImpl@VCOPOSCashChanger@@@ATL@@UAGJPAT_ULARGE_INTEGER@@@Z 10014cb0 f i CashChanger.obj
 0001:00014220       ?GetSizeMax@CComVariant@ATL@@QBEJPAT_ULARGE_INTEGER@@@Z 10015220 f i CashChanger.obj
 0001:00014580       ?GetStreamSize@CComBSTR@ATL@@SAKPA_W@Z 10015580 f i CashChanger.obj
 0001:000145d0       ?GetTI@CComTypeInfoHolder@ATL@@QAEJK@Z 100155d0 f i CashChanger.obj
 0001:00014de0       ?GetTI@CComTypeInfoHolder@ATL@@QAEJKPAPAUITypeInfo@@@Z 10015de0 f i CashChanger.obj
 0001:00014ea0       ?GetTypeInfo@?$IDispatchImpl@UIOPOSCashChanger@@$1?IID_IOPOSCashChanger@@3U_GUID@@B$1?LIBID_OposCashChanger_CCO@@3U3@B$00$0A@VCComTypeInfoHolder@ATL@@@ATL@@UAGJIKPAPAUITypeInfo@@@Z 10015ea0 f i CashChanger.obj
 0001:00014ed0       ?GetTypeInfo@CComTypeInfoHolder@ATL@@QAEJIKPAPAUITypeInfo@@@Z 10015ed0 f i CashChanger.obj
 0001:00014f10       ?GetTypeInfoCount@?$IDispatchImpl@UIOPOSCashChanger@@$1?IID_IOPOSCashChanger@@3U_GUID@@B$1?LIBID_OposCashChanger_CCO@@3U3@B$00$0A@VCComTypeInfoHolder@ATL@@@ATL@@UAGJPAI@Z 10015f10 f i CashChanger.obj
 0001:00014f30       ?GetUnknown@CComDynamicUnkArray@ATL@@QAGPAUIUnknown@@K@Z 10015f30 f i CashChanger.obj
 0001:00014fa0       ?GetUnknown@COPOSCashChanger@@QAEPAUIUnknown@@XZ 10015fa0 f i CashChanger.obj
 0001:00014fd0       ?GetUserClassID@?$IOleObjectImpl@VCOPOSCashChanger@@@ATL@@UAGJPAU_GUID@@@Z 10015fd0 f i CashChanger.obj
 0001:00015080       ?GetUserType@?$IOleObjectImpl@VCOPOSCashChanger@@@ATL@@UAGJKPAPA_W@Z 10016080 f i CashChanger.obj
 0001:000150f0       ?GetValueAt@?$CSimpleMap@PA_WPA_WVCExpansionVectorEqualHelper@ATL@@@ATL@@QBEAAPA_WH@Z 100160f0 f i CashChanger.obj
 0001:00015170       ?GetViewStatus@?$IViewObjectExImpl@VCOPOSCashChanger@@@ATL@@UAGJPAK@Z 10016170 f i CashChanger.obj
 0001:00015230       ?GetWNDPROC@CWndProcThunk@ATL@@QAEP6GJPAUHWND__@@IIJ@ZXZ 10016230 f i CashChanger.obj
 0001:00015260       ?GetWindow@?$IOleInPlaceActiveObjectImpl@VCOPOSCashChanger@@@ATL@@UAGJPAPAUHWND__@@@Z 10016260 f i CashChanger.obj
 0001:00015330       ?GetWindow@?$IOleInPlaceObjectWindowlessImpl@VCOPOSCashChanger@@@ATL@@UAGJPAPAUHWND__@@@Z 10016330 f i CashChanger.obj
 0001:00015400       ?GetWindowLongPtrW@@YAJPAUHWND__@@H@Z 10016400 f i CashChanger.obj
 0001:00015430       ?GetWindowProc@?$CWindowImplBaseT@VCWindow@ATL@@V?$CWinTraits@$0FGAAAAAA@$0A@@2@@ATL@@UAEP6GJPAUHWND__@@IIJ@ZXZ 10016430 f i CashChanger.obj
 0001:00015450       ?GetWndCaption@?$CWindowImpl@VCOPOSCashChanger@@VCWindow@ATL@@V?$CWinTraits@$0FGAAAAAA@$0A@@3@@ATL@@SAPB_WXZ 10016450 f i CashChanger.obj
 0001:00015460       ?GetWndClassInfo@?$CWindowImpl@VCOPOSCashChanger@@VCWindow@ATL@@V?$CWinTraits@$0FGAAAAAA@$0A@@3@@ATL@@SAAAU_ATL_WNDCLASSINFOW@2@XZ 10016460 f i CashChanger.obj
 0001:00015470       ?GetWndClassName@CWindow@ATL@@SAPB_WXZ 10016470 f i CashChanger.obj
 0001:00015480       ?GetWndExStyle@?$CWinTraits@$0FGAAAAAA@$0A@@ATL@@SAKK@Z 10016480 f i CashChanger.obj
 0001:000154b0       ?GetWndExStyle@?$CWindowImplBaseT@VCWindow@ATL@@V?$CWinTraits@$0FGAAAAAA@$0A@@2@@ATL@@SAKK@Z 100164b0 f i CashChanger.obj
 0001:000154d0       ?GetWndStyle@?$CWinTraits@$0FGAAAAAA@$0A@@ATL@@SAKK@Z 100164d0 f i CashChanger.obj
 0001:00015500       ?GetWndStyle@?$CWindowImplBaseT@VCWindow@ATL@@V?$CWinTraits@$0FGAAAAAA@$0A@@2@@ATL@@SAKK@Z 10016500 f i CashChanger.obj
 0001:00015520       ?GetZoomInfo@CComControlBase@ATL@@QAEXAAUATL_DRAWINFO@@@Z 10016520 f i CashChanger.obj
 0001:00015690       ?HKeyFromString@CRegParser@ATL@@KAPAUHKEY__@@PA_W@Z 10016690 f i CashChanger.obj
 0001:00015700       ?HandsOffStorage@?$IPersistStorageImpl@VCOPOSCashChanger@@@ATL@@UAGJXZ 10016700 f i CashChanger.obj
 0001:00015760       ?HasSubKeys@CRegParser@ATL@@IAEHPAUHKEY__@@@Z 10016760 f i CashChanger.obj
 0001:00015870       ?IDataObject_GetData@CComControlBase@ATL@@QAEJPAUtagFORMATETC@@PAUtagSTGMEDIUM@@@Z 10016870 f i CashChanger.obj
 0001:00015c90       ?IOleInPlaceObject_InPlaceDeactivate@CComControlBase@ATL@@QAEJXZ 10016c90 f i CashChanger.obj
 0001:00015e90       ?IOleInPlaceObject_SetObjectRects@CComControlBase@ATL@@QAEJPBUtagRECT@@0@Z 10016e90 f i CashChanger.obj
 0001:00016050       ?IOleInPlaceObject_UIDeactivate@CComControlBase@ATL@@QAEJXZ 10017050 f i CashChanger.obj
 0001:000162c0       ?IOleObject_Advise@CComControlBase@ATL@@QAEJPAUIAdviseSink@@PAK@Z 100172c0 f i CashChanger.obj
 0001:00016370       ?IOleObject_Close@CComControlBase@ATL@@QAEJK@Z 10017370 f i CashChanger.obj
 0001:00016620       ?IOleObject_GetClientSite@CComControlBase@ATL@@QAEJPAPAUIOleClientSite@@@Z 10017620 f i CashChanger.obj
 0001:000166c0       ?IOleObject_SetClientSite@CComControlBase@ATL@@QAEJPAUIOleClientSite@@@Z 100176c0 f i CashChanger.obj
 0001:00016790       ?IOleObject_SetExtent@CComControlBase@ATL@@QAEJKPAUtagSIZE@@@Z 10017790 f i CashChanger.obj
 0001:000168d0       ?IPSI_GetIPersistStreamInit@?$IPersistStorageImpl@VCOPOSCashChanger@@@ATL@@AAEPAUIPersistStreamInit@@XZ 100178d0 f i CashChanger.obj
 0001:000169a0       ?IPersistStreamInit_Load@?$IPersistStreamInitImpl@VCOPOSCashChanger@@@ATL@@QAEJPAUIStream@@PBUATL_PROPMAP_ENTRY@2@@Z 100179a0 f i CashChanger.obj
 0001:00016a20       ?IPersistStreamInit_Save@?$IPersistStreamInitImpl@VCOPOSCashChanger@@@ATL@@QAEJPAUIStream@@HPBUATL_PROPMAP_ENTRY@2@@Z 10017a20 f i CashChanger.obj
 0001:00016ab0       ?IQuickActivate_QuickActivate@CComControlBase@ATL@@QAEJPAUtagQACONTAINER@@PAUtagQACONTROL@@@Z 10017ab0 f i CashChanger.obj
 0001:00017100       ?IViewObject_Draw@CComControlBase@ATL@@QAEJKJPAXPAUtagDVTARGETDEVICE@@PAUHDC__@@2PBU_RECTL@@3@Z 10018100 f i CashChanger.obj
 0001:000173a0       ?InPlaceActivate@CComControlBase@ATL@@QAEJJPBUtagRECT@@@Z 100183a0 f i CashChanger.obj
 0001:00017d30       ?InPlaceDeactivate@?$IOleInPlaceObjectWindowlessImpl@VCOPOSCashChanger@@@ATL@@UAGJXZ 10018d30 f i CashChanger.obj
 0001:00017db0       ?Increment@CComMultiThreadModel@ATL@@SGKPAJ@Z 10018db0 f i CashChanger.obj
 0001:00017dd0       ?Increment@CComSingleThreadModel@ATL@@SGKPAJ@Z 10018dd0 f i CashChanger.obj
 0001:00017df0       ?Init@?$CComEnumImpl@UIEnumConnectionPoints@@$1?_GUID_b196b285_bab4_101a_b69c_00aa00341d07@@3U__s_GUID@@BPAUIConnectionPoint@@V?$_CopyInterface@UIConnectionPoint@@@ATL@@@ATL@@QAEJPAPAUIConnectionPoint@@0PAUIUnknown@@W4CComEnumFlags@2@@Z 10018df0 f i CashChanger.obj
 0001:00017fd0       ?Init@?$CComEnumImpl@UIEnumConnections@@$1?_GUID_b196b287_bab4_101a_b69c_00aa00341d07@@3U__s_GUID@@BUtagCONNECTDATA@@V?$_Copy@UtagCONNECTDATA@@@ATL@@@ATL@@QAEJPAUtagCONNECTDATA@@0PAUIUnknown@@W4CComEnumFlags@2@@Z 10018fd0 f i CashChanger.obj
 0001:000181b0       ?Init@CComFakeCriticalSection@ATL@@QAEJXZ 100191b0 f i CashChanger.obj
 0001:000181d0       ?Init@CComModule@ATL@@QAEJPAU_ATL_OBJMAP_ENTRY30@2@PAUHINSTANCE__@@PBU_GUID@@@Z 100191d0 f i CashChanger.obj
 0001:000182c0       ?Init@CComSafeDeleteCriticalSection@ATL@@QAEJXZ 100192c0 f i CashChanger.obj
 0001:00018340       ?Init@CDynamicStdCallThunk2@ATL@@QAEHKPAX@Z 10019340 f i CashChanger.obj
 0001:000183a0       ?Init@CWndProcThunk@ATL@@QAEHP6GJPAUHWND__@@IIJ@ZPAX@Z 100193a0 f i CashChanger.obj
 0001:000183e0       ?InitFromData@?$IOleObjectImpl@VCOPOSCashChanger@@@ATL@@UAGJPAUIDataObject@@HK@Z 100193e0 f i CashChanger.obj
 0001:00018450       ?InitLibId@?$CAtlModuleT@VCComModule@ATL@@@ATL@@SAXXZ 10019450 f i CashChanger.obj
 0001:00018460       ?InitNew@?$IPersistStorageImpl@VCOPOSCashChanger@@@ATL@@UAGJPAUIStorage@@@Z 10019460 f i CashChanger.obj
 0001:00018550       ?InitNew@?$IPersistStreamInitImpl@VCOPOSCashChanger@@@ATL@@UAGJXZ 10019550 f i CashChanger.obj
 0001:000185e0       ?InlineIsEqualUnknown@ATL@@YGHABU_GUID@@@Z 100195e0 f i CashChanger.obj
 0001:00018650       ?InternalAddRef@?$CComObjectRootEx@VCComMultiThreadModel@ATL@@@ATL@@QAEKXZ 10019650 f i CashChanger.obj
 0001:000186b0       ?InternalAddRef@?$CComObjectRootEx@VCComSingleThreadModel@ATL@@@ATL@@QAEKXZ 100196b0 f i CashChanger.obj
 0001:00018710       ?InternalFinalConstructAddRef@CComObjectRootBase@ATL@@QAEXXZ 10019710 f i CashChanger.obj
 0001:00018730       ?InternalFinalConstructAddRef@COPOSCashChanger@@QAEXXZ 10019730 f i CashChanger.obj
 0001:00018760       ?InternalFinalConstructRelease@CComObjectRootBase@ATL@@QAEXXZ 10019760 f i CashChanger.obj
 0001:000187b0       ?InternalFinalConstructRelease@COPOSCashChanger@@QAEXXZ 100197b0 f i CashChanger.obj
 0001:000187e0       ?InternalGetSite@CComControlBase@ATL@@QAEJABU_GUID@@PAPAX@Z 100197e0 f i CashChanger.obj
 0001:000188a0       ?InternalQueryInterface@CComObjectRootBase@ATL@@SGJPAXPBU_ATL_INTMAP_ENTRY@2@ABU_GUID@@PAPAX@Z 100198a0 f i CashChanger.obj
 0001:00018960       ?InternalRelease@?$CComObjectRootEx@VCComMultiThreadModel@ATL@@@ATL@@QAEKXZ 10019960 f i CashChanger.obj
 0001:000189d0       ?InternalRelease@?$CComObjectRootEx@VCComSingleThreadModel@ATL@@@ATL@@QAEKXZ 100199d0 f i CashChanger.obj
 0001:00018a40       ?InternalSetAtIndex@?$CSimpleArray@GV?$CSimpleArrayEqualHelper@G@ATL@@@ATL@@QAEXHABG@Z 10019a40 f i CashChanger.obj
 0001:00018ab0       ?InternalSetAtIndex@?$CSimpleMap@PA_WPA_WVCExpansionVectorEqualHelper@ATL@@@ATL@@QAEXHABQA_W0@Z 10019ab0 f i CashChanger.obj
 0001:00018b50       ?Invoke@?$IDispatchImpl@UIOPOSCashChanger@@$1?IID_IOPOSCashChanger@@3U_GUID@@B$1?LIBID_OposCashChanger_CCO@@3U3@B$00$0A@VCComTypeInfoHolder@ATL@@@ATL@@UAGJJABU_GUID@@KGPAUtagDISPPARAMS@@PAUtagVARIANT@@PAUtagEXCEPINFO@@PAI@Z 10019b50 f i CashChanger.obj
 0001:00018b90       ?Invoke@CComTypeInfoHolder@ATL@@QAEJPAUIDispatch@@JABU_GUID@@KGPAUtagDISPPARAMS@@PAUtagVARIANT@@PAUtagEXCEPINFO@@PAI@Z 10019b90 f i CashChanger.obj
 0001:00018c20       ?IsDirty@?$IPersistStorageImpl@VCOPOSCashChanger@@@ATL@@UAGJXZ 10019c20 f i CashChanger.obj
 0001:00018d10       ?IsDirty@?$IPersistStreamInitImpl@VCOPOSCashChanger@@@ATL@@UAGJXZ 10019d10 f i CashChanger.obj
 0001:00018db0       ?IsEqualKey@CExpansionVectorEqualHelper@ATL@@SA_NQA_W0@Z 10019db0 f i CashChanger.obj
 0001:00018de0       ?IsEqualObject@?$CComPtrBase@UIOleClientSite@@@ATL@@QAE_NPAUIUnknown@@@Z 10019de0 f i CashChanger.obj
 0001:00018f10       ?IsEqualObject@?$CComPtrBase@UITypeInfo@@@ATL@@QAE_NPAUIUnknown@@@Z 10019f10 f i CashChanger.obj
 0001:00019040       ?IsSpace@CRegParser@ATL@@IAEH_W@Z 1001a040 f i CashChanger.obj
 0001:000190b0       ?IsUpToDate@?$IOleObjectImpl@VCOPOSCashChanger@@@ATL@@UAGJXZ 1001a0b0 f i CashChanger.obj
 0001:00019110       ?Length@CComBSTR@ATL@@QBEIXZ 1001a110 f i CashChanger.obj
 0001:00019150       ?Load@?$IPersistStorageImpl@VCOPOSCashChanger@@@ATL@@UAGJPAUIStorage@@@Z 1001a150 f i CashChanger.obj
 0001:000192b0       ?Load@?$IPersistStreamInitImpl@VCOPOSCashChanger@@@ATL@@UAGJPAUIStream@@@Z 1001a2b0 f i CashChanger.obj
 0001:00019340       ?LoadCursorW@AtlModuleRegisterWndClassInfoParamW@ATL@@SAPAUHICON__@@PAUHINSTANCE__@@PB_W@Z 1001a340 f i CashChanger.obj
 0001:00019370       ?LoadNameCache@CComTypeInfoHolder@ATL@@QAEJPAUITypeInfo@@@Z 1001a370 f i CashChanger.obj
 0001:00019600       ?Lock@?$CComCritSecLock@VCComCriticalSection@ATL@@@ATL@@QAEJXZ 1001a600 f i CashChanger.obj
 0001:000196b0       ?Lock@?$CComObjectRootEx@VCComSingleThreadModel@ATL@@@ATL@@QAEXXZ 1001a6b0 f i CashChanger.obj
 0001:000196d0       ?Lock@CAtlModule@ATL@@UAEJXZ 1001a6d0 f i CashChanger.obj
 0001:00019700       ?Lock@CComCriticalSection@ATL@@QAEJXZ 1001a700 f i CashChanger.obj
 0001:00019740       ?Lock@CComFakeCriticalSection@ATL@@QAEJXZ 1001a740 f i CashChanger.obj
 0001:00019760       ?LockServer@CComClassFactory@ATL@@UAGJH@Z 1001a760 f i CashChanger.obj
 0001:000197c0       ?Lookup@?$CSimpleMap@PA_WPA_WVCExpansionVectorEqualHelper@ATL@@@ATL@@QBEPA_WABQA_W@Z 1001a7c0 f i CashChanger.obj
 0001:00019810       ?Next@?$CComEnumImpl@UIEnumConnectionPoints@@$1?_GUID_b196b285_bab4_101a_b69c_00aa00341d07@@3U__s_GUID@@BPAUIConnectionPoint@@V?$_CopyInterface@UIConnectionPoint@@@ATL@@@ATL@@UAGJKPAPAUIConnectionPoint@@PAK@Z 1001a810 f i CashChanger.obj
 0001:00019980       ?Next@?$CComEnumImpl@UIEnumConnections@@$1?_GUID_b196b287_bab4_101a_b69c_00aa00341d07@@3U__s_GUID@@BUtagCONNECTDATA@@V?$_Copy@UtagCONNECTDATA@@@ATL@@@ATL@@UAGJKPAUtagCONNECTDATA@@PAK@Z 1001a980 f i CashChanger.obj
 0001:00019af0       ?NextToken@CRegParser@ATL@@IAEJPA_W@Z 1001aaf0 f i CashChanger.obj
 0001:00019d90       ?OLE2CT_EX@@YAPB_WPB_WI@Z  1001ad90 f i CashChanger.obj
 0001:00019da0       ?OLE2CT_EX_DEF@@YAPB_WPB_W@Z 1001ada0 f i CashChanger.obj
 0001:00019db0       ?OLE2T_EX@@YAPA_WPA_WI@Z   1001adb0 f i CashChanger.obj
 0001:00019dc0       ?OnAmbientPropertyChange@?$IOleControlImpl@VCOPOSCashChanger@@@ATL@@UAGJJ@Z 1001adc0 f i CashChanger.obj
 0001:00019e50       ?OnDocWindowActivate@?$IOleInPlaceActiveObjectImpl@VCOPOSCashChanger@@@ATL@@UAGJH@Z 1001ae50 f i CashChanger.obj
 0001:00019ee0       ?OnDrawAdvanced@CComControlBase@ATL@@UAEJAAUATL_DRAWINFO@@@Z 1001aee0 f i CashChanger.obj
 0001:0001a100       ?OnFinalMessage@?$CWindowImplBaseT@VCWindow@ATL@@V?$CWinTraits@$0FGAAAAAA@$0A@@2@@ATL@@UAEXPAUHWND__@@@Z 1001b100 f i CashChanger.obj
 0001:0001a120       ?OnFrameWindowActivate@?$IOleInPlaceActiveObjectImpl@VCOPOSCashChanger@@@ATL@@UAGJH@Z 1001b120 f i CashChanger.obj
 0001:0001a180       ?OnKillFocus@CComControlBase@ATL@@QAEJIIJAAH@Z 1001b180 f i CashChanger.obj
 0001:0001a280       ?OnMnemonic@?$IOleControlImpl@VCOPOSCashChanger@@@ATL@@UAGJPAUtagMSG@@@Z 1001b280 f i CashChanger.obj
 0001:0001a2f0       ?OnMouseActivate@CComControlBase@ATL@@QAEJIIJAAH@Z 1001b2f0 f i CashChanger.obj
 0001:0001a440       ?OnPaint@CComControlBase@ATL@@QAEJIIJAAH@Z 1001b440 f i CashChanger.obj
 0001:0001a5c0       ?OnPostVerbDiscardUndo@?$IOleObjectImpl@VCOPOSCashChanger@@@ATL@@QAEJXZ 1001b5c0 f i CashChanger.obj
 0001:0001a5e0       ?OnPostVerbHide@?$IOleObjectImpl@VCOPOSCashChanger@@@ATL@@QAEJXZ 1001b5e0 f i CashChanger.obj
 0001:0001a600       ?OnPostVerbInPlaceActivate@?$IOleObjectImpl@VCOPOSCashChanger@@@ATL@@QAEJXZ 1001b600 f i CashChanger.obj
 0001:0001a620       ?OnPostVerbOpen@?$IOleObjectImpl@VCOPOSCashChanger@@@ATL@@QAEJXZ 1001b620 f i CashChanger.obj
 0001:0001a640       ?OnPostVerbShow@?$IOleObjectImpl@VCOPOSCashChanger@@@ATL@@QAEJXZ 1001b640 f i CashChanger.obj
 0001:0001a660       ?OnPostVerbUIActivate@?$IOleObjectImpl@VCOPOSCashChanger@@@ATL@@QAEJXZ 1001b660 f i CashChanger.obj
 0001:0001a680       ?OnPreVerbDiscardUndo@?$IOleObjectImpl@VCOPOSCashChanger@@@ATL@@QAEJXZ 1001b680 f i CashChanger.obj
 0001:0001a6a0       ?OnPreVerbHide@?$IOleObjectImpl@VCOPOSCashChanger@@@ATL@@QAEJXZ 1001b6a0 f i CashChanger.obj
 0001:0001a6c0       ?OnPreVerbInPlaceActivate@?$IOleObjectImpl@VCOPOSCashChanger@@@ATL@@QAEJXZ 1001b6c0 f i CashChanger.obj
 0001:0001a6e0       ?OnPreVerbOpen@?$IOleObjectImpl@VCOPOSCashChanger@@@ATL@@QAEJXZ 1001b6e0 f i CashChanger.obj
 0001:0001a700       ?OnPreVerbShow@?$IOleObjectImpl@VCOPOSCashChanger@@@ATL@@QAEJXZ 1001b700 f i CashChanger.obj
 0001:0001a720       ?OnPreVerbUIActivate@?$IOleObjectImpl@VCOPOSCashChanger@@@ATL@@QAEJXZ 1001b720 f i CashChanger.obj
 0001:0001a740       ?OnSetFocus@CComControlBase@ATL@@QAEJIIJAAH@Z 1001b740 f i CashChanger.obj
 0001:0001a8d0       ?OnWindowMessage@?$IOleInPlaceObjectWindowlessImpl@VCOPOSCashChanger@@@ATL@@UAGJIIJPAJ@Z 1001b8d0 f i CashChanger.obj
 0001:0001aa30       ?Open@CRegKey@ATL@@QAEJPAUHKEY__@@PB_WK@Z 1001ba30 f i CashChanger.obj
 0001:0001ab80       ?OuterAddRef@CComObjectRootBase@ATL@@QAEKXZ 1001bb80 f i CashChanger.obj
 0001:0001abc0       ?OuterQueryInterface@CComObjectRootBase@ATL@@QAEJABU_GUID@@PAPAX@Z 1001bbc0 f i CashChanger.obj
 0001:0001ac10       ?OuterRelease@CComObjectRootBase@ATL@@QAEKXZ 1001bc10 f i CashChanger.obj
 0001:0001ac50       ?PreProcessBuffer@CRegParser@ATL@@QAEJPA_WPAPA_W@Z 1001bc50 f i CashChanger.obj
 0001:0001b190       ?PreTranslateAccelerator@CComControlBase@ATL@@QAEHPAUtagMSG@@AAJ@Z 1001c190 f i CashChanger.obj
 0001:0001b1b0       ?ProcessWindowMessage@?$CComControl@VCOPOSCashChanger@@V?$CWindowImpl@VCOPOSCashChanger@@VCWindow@ATL@@V?$CWinTraits@$0FGAAAAAA@$0A@@3@@ATL@@@ATL@@UAEHPAUHWND__@@IIJAAJK@Z 1001c1b0 f i CashChanger.obj
 0001:0001b380       ?ProcessWindowMessage@COPOSCashChanger@@UAEHPAUHWND__@@IIJAAJK@Z 1001c380 f i CashChanger.obj
 0001:0001b480       ?PutProperty@?$CComPtr@UIDispatch@@@ATL@@QAEJJPAUtagVARIANT@@@Z 1001c480 f i CashChanger.obj
 0001:0001b4c0       ?PutProperty@?$CComPtr@UIDispatch@@@ATL@@SAJPAUIDispatch@@JPAUtagVARIANT@@@Z 1001c4c0 f i CashChanger.obj
 0001:0001b6b0       ?QueryGetData@?$IDataObjectImpl@VCOPOSCashChanger@@@ATL@@UAGJPAUtagFORMATETC@@@Z 1001c6b0 f i CashChanger.obj
 0001:0001b720       ?QueryHitPoint@?$IViewObjectExImpl@VCOPOSCashChanger@@@ATL@@UAGJKPBUtagRECT@@UtagPOINT@@JPAK@Z 1001c720 f i CashChanger.obj
 0001:0001b830       ?QueryHitRect@?$IViewObjectExImpl@VCOPOSCashChanger@@@ATL@@UAGJKPBUtagRECT@@0JPAK@Z 1001c830 f i CashChanger.obj
 0001:0001b980       ?QueryInterface@?$CComAggObject@VCOPOSCashChanger@@@ATL@@UAGJABU_GUID@@PAPAX@Z 1001c980 f i CashChanger.obj
 0001:0001ba30       ?QueryInterface@?$CComContainedObject@VCOPOSCashChanger@@@ATL@@UAGJABU_GUID@@PAPAX@Z 1001ca30 f i CashChanger.obj
 0001:0001ba54       ?QueryInterface@?$CComContainedObject@VCOPOSCashChanger@@@ATL@@WHA@AGJABU_GUID@@PAPAX@Z 1001ca54 f i CashChanger.obj
 0001:0001ba5e       ?QueryInterface@?$CComContainedObject@VCOPOSCashChanger@@@ATL@@WHE@AGJABU_GUID@@PAPAX@Z 1001ca5e f i CashChanger.obj
 0001:0001ba68       ?QueryInterface@?$CComContainedObject@VCOPOSCashChanger@@@ATL@@WHI@AGJABU_GUID@@PAPAX@Z 1001ca68 f i CashChanger.obj
 0001:0001ba72       ?QueryInterface@?$CComContainedObject@VCOPOSCashChanger@@@ATL@@WHM@AGJABU_GUID@@PAPAX@Z 1001ca72 f i CashChanger.obj
 0001:0001ba7c       ?QueryInterface@?$CComContainedObject@VCOPOSCashChanger@@@ATL@@WIA@AGJABU_GUID@@PAPAX@Z 1001ca7c f i CashChanger.obj
 0001:0001ba89       ?QueryInterface@?$CComContainedObject@VCOPOSCashChanger@@@ATL@@WIE@AGJABU_GUID@@PAPAX@Z 1001ca89 f i CashChanger.obj
 0001:0001ba96       ?QueryInterface@?$CComContainedObject@VCOPOSCashChanger@@@ATL@@WII@AGJABU_GUID@@PAPAX@Z 1001ca96 f i CashChanger.obj
 0001:0001baa3       ?QueryInterface@?$CComContainedObject@VCOPOSCashChanger@@@ATL@@WIM@AGJABU_GUID@@PAPAX@Z 1001caa3 f i CashChanger.obj
 0001:0001bab0       ?QueryInterface@?$CComContainedObject@VCOPOSCashChanger@@@ATL@@WJA@AGJABU_GUID@@PAPAX@Z 1001cab0 f i CashChanger.obj
 0001:0001babd       ?QueryInterface@?$CComContainedObject@VCOPOSCashChanger@@@ATL@@WJE@AGJABU_GUID@@PAPAX@Z 1001cabd f i CashChanger.obj
 0001:0001baca       ?QueryInterface@?$CComContainedObject@VCOPOSCashChanger@@@ATL@@WJI@AGJABU_GUID@@PAPAX@Z 1001caca f i CashChanger.obj
 0001:0001bad7       ?QueryInterface@?$CComContainedObject@VCOPOSCashChanger@@@ATL@@WJM@AGJABU_GUID@@PAPAX@Z 1001cad7 f i CashChanger.obj
 0001:0001bae4       ?QueryInterface@?$CComContainedObject@VCOPOSCashChanger@@@ATL@@WKA@AGJABU_GUID@@PAPAX@Z 1001cae4 f i CashChanger.obj
 0001:0001bb00       ?QueryInterface@?$CComObject@V?$CComEnum@UIEnumConnectionPoints@@$1?_GUID_b196b285_bab4_101a_b69c_00aa00341d07@@3U__s_GUID@@BPAUIConnectionPoint@@V?$_CopyInterface@UIConnectionPoint@@@ATL@@VCComSingleThreadModel@6@@ATL@@@ATL@@UAGJABU_GUID@@PAPAX@Z 1001cb00 f i CashChanger.obj
 0001:0001bb20       ?QueryInterface@?$CComObject@V?$CComEnum@UIEnumConnections@@$1?_GUID_b196b287_bab4_101a_b69c_00aa00341d07@@3U__s_GUID@@BUtagCONNECTDATA@@V?$_Copy@UtagCONNECTDATA@@@ATL@@VCComSingleThreadModel@6@@ATL@@@ATL@@UAGJABU_GUID@@PAPAX@Z 1001cb20 f i CashChanger.obj
 0001:0001bb40       ?QueryInterface@?$CComObject@VCOPOSCashChanger@@@ATL@@UAGJABU_GUID@@PAPAX@Z 1001cb40 f i CashChanger.obj
 0001:0001bb5e       ?QueryInterface@?$CComObject@VCOPOSCashChanger@@@ATL@@WHA@AGJABU_GUID@@PAPAX@Z 1001cb5e f i CashChanger.obj
 0001:0001bb68       ?QueryInterface@?$CComObject@VCOPOSCashChanger@@@ATL@@WHE@AGJABU_GUID@@PAPAX@Z 1001cb68 f i CashChanger.obj
 0001:0001bb72       ?QueryInterface@?$CComObject@VCOPOSCashChanger@@@ATL@@WHI@AGJABU_GUID@@PAPAX@Z 1001cb72 f i CashChanger.obj
 0001:0001bb7c       ?QueryInterface@?$CComObject@VCOPOSCashChanger@@@ATL@@WHM@AGJABU_GUID@@PAPAX@Z 1001cb7c f i CashChanger.obj
 0001:0001bb86       ?QueryInterface@?$CComObject@VCOPOSCashChanger@@@ATL@@WIA@AGJABU_GUID@@PAPAX@Z 1001cb86 f i CashChanger.obj
 0001:0001bb93       ?QueryInterface@?$CComObject@VCOPOSCashChanger@@@ATL@@WIE@AGJABU_GUID@@PAPAX@Z 1001cb93 f i CashChanger.obj
 0001:0001bba0       ?QueryInterface@?$CComObject@VCOPOSCashChanger@@@ATL@@WII@AGJABU_GUID@@PAPAX@Z 1001cba0 f i CashChanger.obj
 0001:0001bbad       ?QueryInterface@?$CComObject@VCOPOSCashChanger@@@ATL@@WIM@AGJABU_GUID@@PAPAX@Z 1001cbad f i CashChanger.obj
 0001:0001bbba       ?QueryInterface@?$CComObject@VCOPOSCashChanger@@@ATL@@WJA@AGJABU_GUID@@PAPAX@Z 1001cbba f i CashChanger.obj
 0001:0001bbc7       ?QueryInterface@?$CComObject@VCOPOSCashChanger@@@ATL@@WJE@AGJABU_GUID@@PAPAX@Z 1001cbc7 f i CashChanger.obj
 0001:0001bbd4       ?QueryInterface@?$CComObject@VCOPOSCashChanger@@@ATL@@WJI@AGJABU_GUID@@PAPAX@Z 1001cbd4 f i CashChanger.obj
 0001:0001bbe1       ?QueryInterface@?$CComObject@VCOPOSCashChanger@@@ATL@@WJM@AGJABU_GUID@@PAPAX@Z 1001cbe1 f i CashChanger.obj
 0001:0001bbee       ?QueryInterface@?$CComObject@VCOPOSCashChanger@@@ATL@@WKA@AGJABU_GUID@@PAPAX@Z 1001cbee f i CashChanger.obj
 0001:0001bc00       ?QueryInterface@?$CComObjectCached@VCComClassFactory@ATL@@@ATL@@UAGJABU_GUID@@PAPAX@Z 1001cc00 f i CashChanger.obj
 0001:0001bc20       ?QueryInterface@CRegObject@ATL@@UAGJABU_GUID@@PAPAX@Z 1001cc20 f i CashChanger.obj
 0001:0001bc70       ?QuickActivate@?$IQuickActivateImpl@VCOPOSCashChanger@@@ATL@@UAGJPAUtagQACONTAINER@@PAUtagQACONTROL@@@Z 1001cc70 f i CashChanger.obj
 0001:0001bd00       ?ReactivateAndUndo@?$IOleInPlaceObjectWindowlessImpl@VCOPOSCashChanger@@@ATL@@UAGJXZ 1001cd00 f i CashChanger.obj
 0001:0001bd70       ?ReadFromStream@CComBSTR@ATL@@QAEJPAUIStream@@@Z 1001cd70 f i CashChanger.obj
 0001:0001c170       ?ReadFromStream@CComVariant@ATL@@QAEJPAUIStream@@GTClassesAllowedInStream@2@K@Z 1001d170 f i CashChanger.obj
 0001:0001c4d0       ?RecurseDeleteKey@CRegKey@ATL@@QAEJPB_W@Z 1001d4d0 f i CashChanger.obj
 0001:0001c6b0       ?RegCreateKeyExW@CAtlTransactionManager@ATL@@QAEJPAUHKEY__@@PB_WKPA_WKKQAU_SECURITY_ATTRIBUTES@@PAPAU3@PAK@Z 1001d6b0 f i CashChanger.obj
 0001:0001c7e0       ?RegDeleteKeyW@CAtlTransactionManager@ATL@@QAEJPAUHKEY__@@PB_W@Z 1001d7e0 f i CashChanger.obj
 0001:0001c8e0       ?RegOpenKeyExW@CAtlTransactionManager@ATL@@QAEJPAUHKEY__@@PB_WKKPAPAU3@@Z 1001d8e0 f i CashChanger.obj
 0001:0001c9f0       ?Register@_ATL_WNDCLASSINFOW@ATL@@QAEGPAP6GJPAUHWND__@@IIJ@Z@Z 1001d9f0 f i CashChanger.obj
 0001:0001ca30       ?RegisterBuffer@CRegParser@ATL@@QAEJPA_WH@Z 1001da30 f i CashChanger.obj
 0001:0001cd60       ?RegisterClassExW@AtlModuleRegisterWndClassInfoParamW@ATL@@SAGPAU_ATL_WIN_MODULE70@2@PBUtagWNDCLASSEXW@@@Z 1001dd60 f i CashChanger.obj
 0001:0001cd80       ?RegisterFromResource@CRegObject@ATL@@IAEJPB_W00H@Z 1001dd80 f i CashChanger.obj
 0001:0001d110       ?RegisterServer@?$CAtlModuleT@VCComModule@ATL@@@ATL@@QAEJHPBU_GUID@@@Z 1001e110 f i CashChanger.obj
 0001:0001d190       ?RegisterServer@CAtlComModule@ATL@@QAEJHPBU_GUID@@@Z 1001e190 f i CashChanger.obj
 0001:0001d1c0       ?RegisterServer@CComModule@ATL@@QAEJHPBU_GUID@@@Z 1001e1c0 f i CashChanger.obj
 0001:0001d2a0       ?RegisterSubkeys@CRegParser@ATL@@IAEJPA_WPAUHKEY__@@HH@Z 1001e2a0 f i CashChanger.obj
 0001:0001ddc0       ?Release@?$CComAggObject@VCOPOSCashChanger@@@ATL@@UAGKXZ 1001edc0 f i CashChanger.obj
 0001:0001de80       ?Release@?$CComContainedObject@VCOPOSCashChanger@@@ATL@@UAGKXZ 1001ee80 f i CashChanger.obj
 0001:0001de9c       ?Release@?$CComContainedObject@VCOPOSCashChanger@@@ATL@@WHA@AGKXZ 1001ee9c f i CashChanger.obj
 0001:0001dea6       ?Release@?$CComContainedObject@VCOPOSCashChanger@@@ATL@@WHE@AGKXZ 1001eea6 f i CashChanger.obj
 0001:0001deb0       ?Release@?$CComContainedObject@VCOPOSCashChanger@@@ATL@@WHI@AGKXZ 1001eeb0 f i CashChanger.obj
 0001:0001deba       ?Release@?$CComContainedObject@VCOPOSCashChanger@@@ATL@@WHM@AGKXZ 1001eeba f i CashChanger.obj
 0001:0001dec4       ?Release@?$CComContainedObject@VCOPOSCashChanger@@@ATL@@WIA@AGKXZ 1001eec4 f i CashChanger.obj
 0001:0001ded1       ?Release@?$CComContainedObject@VCOPOSCashChanger@@@ATL@@WIE@AGKXZ 1001eed1 f i CashChanger.obj
 0001:0001dede       ?Release@?$CComContainedObject@VCOPOSCashChanger@@@ATL@@WII@AGKXZ 1001eede f i CashChanger.obj
 0001:0001deeb       ?Release@?$CComContainedObject@VCOPOSCashChanger@@@ATL@@WIM@AGKXZ 1001eeeb f i CashChanger.obj
 0001:0001def8       ?Release@?$CComContainedObject@VCOPOSCashChanger@@@ATL@@WJA@AGKXZ 1001eef8 f i CashChanger.obj
 0001:0001df05       ?Release@?$CComContainedObject@VCOPOSCashChanger@@@ATL@@WJE@AGKXZ 1001ef05 f i CashChanger.obj
 0001:0001df12       ?Release@?$CComContainedObject@VCOPOSCashChanger@@@ATL@@WJI@AGKXZ 1001ef12 f i CashChanger.obj
 0001:0001df1f       ?Release@?$CComContainedObject@VCOPOSCashChanger@@@ATL@@WJM@AGKXZ 1001ef1f f i CashChanger.obj
 0001:0001df2c       ?Release@?$CComContainedObject@VCOPOSCashChanger@@@ATL@@WKA@AGKXZ 1001ef2c f i CashChanger.obj
 0001:0001df39       ?Release@?$CComContainedObject@VCOPOSCashChanger@@@ATL@@WKI@AGKXZ 1001ef39 f i CashChanger.obj
 0001:0001df46       ?Release@?$CComContainedObject@VCOPOSCashChanger@@@ATL@@WLE@AGKXZ 1001ef46 f i CashChanger.obj
 0001:0001df60       ?Release@?$CComObject@V?$CComEnum@UIEnumConnectionPoints@@$1?_GUID_b196b285_bab4_101a_b69c_00aa00341d07@@3U__s_GUID@@BPAUIConnectionPoint@@V?$_CopyInterface@UIConnectionPoint@@@ATL@@VCComSingleThreadModel@6@@ATL@@@ATL@@UAGKXZ 1001ef60 f i CashChanger.obj
 0001:0001e020       ?Release@?$CComObject@V?$CComEnum@UIEnumConnections@@$1?_GUID_b196b287_bab4_101a_b69c_00aa00341d07@@3U__s_GUID@@BUtagCONNECTDATA@@V?$_Copy@UtagCONNECTDATA@@@ATL@@VCComSingleThreadModel@6@@ATL@@@ATL@@UAGKXZ 1001f020 f i CashChanger.obj
 0001:0001e0e0       ?Release@?$CComObject@VCOPOSCashChanger@@@ATL@@UAGKXZ 1001f0e0 f i CashChanger.obj
 0001:0001e199       ?Release@?$CComObject@VCOPOSCashChanger@@@ATL@@WHA@AGKXZ 1001f199 f i CashChanger.obj
 0001:0001e1a3       ?Release@?$CComObject@VCOPOSCashChanger@@@ATL@@WHE@AGKXZ 1001f1a3 f i CashChanger.obj
 0001:0001e1ad       ?Release@?$CComObject@VCOPOSCashChanger@@@ATL@@WHI@AGKXZ 1001f1ad f i CashChanger.obj
 0001:0001e1b7       ?Release@?$CComObject@VCOPOSCashChanger@@@ATL@@WHM@AGKXZ 1001f1b7 f i CashChanger.obj
 0001:0001e1c1       ?Release@?$CComObject@VCOPOSCashChanger@@@ATL@@WIA@AGKXZ 1001f1c1 f i CashChanger.obj
 0001:0001e1ce       ?Release@?$CComObject@VCOPOSCashChanger@@@ATL@@WIE@AGKXZ 1001f1ce f i CashChanger.obj
 0001:0001e1db       ?Release@?$CComObject@VCOPOSCashChanger@@@ATL@@WII@AGKXZ 1001f1db f i CashChanger.obj
 0001:0001e1e8       ?Release@?$CComObject@VCOPOSCashChanger@@@ATL@@WIM@AGKXZ 1001f1e8 f i CashChanger.obj
 0001:0001e1f5       ?Release@?$CComObject@VCOPOSCashChanger@@@ATL@@WJA@AGKXZ 1001f1f5 f i CashChanger.obj
 0001:0001e202       ?Release@?$CComObject@VCOPOSCashChanger@@@ATL@@WJE@AGKXZ 1001f202 f i CashChanger.obj
 0001:0001e20f       ?Release@?$CComObject@VCOPOSCashChanger@@@ATL@@WJI@AGKXZ 1001f20f f i CashChanger.obj
 0001:0001e21c       ?Release@?$CComObject@VCOPOSCashChanger@@@ATL@@WJM@AGKXZ 1001f21c f i CashChanger.obj
 0001:0001e229       ?Release@?$CComObject@VCOPOSCashChanger@@@ATL@@WKA@AGKXZ 1001f229 f i CashChanger.obj
 0001:0001e236       ?Release@?$CComObject@VCOPOSCashChanger@@@ATL@@WKI@AGKXZ 1001f236 f i CashChanger.obj
 0001:0001e243       ?Release@?$CComObject@VCOPOSCashChanger@@@ATL@@WLE@AGKXZ 1001f243 f i CashChanger.obj
 0001:0001e250       ?Release@?$CComObjectCached@VCComClassFactory@ATL@@@ATL@@UAGKXZ 1001f250 f i CashChanger.obj
 0001:0001e2f0       ?Release@?$CComPtrBase@UIAdviseSink@@@ATL@@QAEXXZ 1001f2f0 f i CashChanger.obj
 0001:0001e350       ?Release@?$CComPtrBase@UIDispatch@@@ATL@@QAEXXZ 1001f350 f i CashChanger.obj
 0001:0001e3b0       ?Release@?$CComPtrBase@UIOleInPlaceSiteWindowless@@@ATL@@QAEXXZ 1001f3b0 f i CashChanger.obj
 0001:0001e410       ?Release@CRegObject@ATL@@UAGKXZ 1001f410 f i CashChanger.obj
 0001:0001e450       ?Remove@CComDynamicUnkArray@ATL@@QAEHK@Z 1001f450 f i CashChanger.obj
 0001:0001e500       ?RemoveAll@?$CSimpleMap@PA_WPA_WVCExpansionVectorEqualHelper@ATL@@@ATL@@QAEXXZ 1001f500 f i CashChanger.obj
 0001:0001e590       ?Reset@?$CComEnumImpl@UIEnumConnectionPoints@@$1?_GUID_b196b285_bab4_101a_b69c_00aa00341d07@@3U__s_GUID@@BPAUIConnectionPoint@@V?$_CopyInterface@UIConnectionPoint@@@ATL@@@ATL@@UAGJXZ 1001f590 f i CashChanger.obj
 0001:0001e5b0       ?Reset@?$CComEnumImpl@UIEnumConnections@@$1?_GUID_b196b287_bab4_101a_b69c_00aa00341d07@@3U__s_GUID@@BUtagCONNECTDATA@@V?$_Copy@UtagCONNECTDATA@@@ATL@@@ATL@@UAGJXZ 1001f5b0 f i CashChanger.obj
 0001:0001e5d0       ?ResizeBorder@?$IOleInPlaceActiveObjectImpl@VCOPOSCashChanger@@@ATL@@UAGJPBUtagRECT@@PAUIOleInPlaceUIWindow@@H@Z 1001f5d0 f i CashChanger.obj
 0001:0001e630       ?ResourceRegister@CRegObject@ATL@@QAGJPB_WI0@Z 1001f630 f i CashChanger.obj
 0001:0001e710       ?ResourceRegisterSz@CRegObject@ATL@@QAGJPB_W00@Z 1001f710 f i CashChanger.obj
 0001:0001e810       ?ResourceUnregister@CRegObject@ATL@@QAGJPB_WI0@Z 1001f810 f i CashChanger.obj
 0001:0001e8f0       ?ResourceUnregisterSz@CRegObject@ATL@@QAGJPB_W00@Z 1001f8f0 f i CashChanger.obj
 0001:0001e9f0       ?SOData@COPOSCashChanger@@MAGJJ@Z 1001f9f0 f i CashChanger.obj
 0001:0001ea70       ?SODirectIO@COPOSCashChanger@@MAGJJPAJPAPA_W@Z 1001fa70 f i CashChanger.obj
 0001:0001ec30       ?SOErrorDummy@COPOSCashChanger@@MAGJJJJPAJ@Z 1001fc30 f i CashChanger.obj
 0001:0001ec40       ?SOOutputCompleteDummy@COPOSCashChanger@@MAGJJ@Z 1001fc40 f i CashChanger.obj
 0001:0001ec50       ?SOStatusUpdate@COPOSCashChanger@@MAGJJ@Z 1001fc50 f i CashChanger.obj
 0001:0001ecd0       ?Save@?$IPersistStorageImpl@VCOPOSCashChanger@@@ATL@@UAGJPAUIStorage@@H@Z 1001fcd0 f i CashChanger.obj
 0001:0001ee30       ?Save@?$IPersistStreamInitImpl@VCOPOSCashChanger@@@ATL@@UAGJPAUIStream@@H@Z 1001fe30 f i CashChanger.obj
 0001:0001eec0       ?SaveCompleted@?$IPersistStorageImpl@VCOPOSCashChanger@@@ATL@@UAGJPAUIStorage@@@Z 1001fec0 f i CashChanger.obj
 0001:0001ef20       ?SendOnDataChange@CComControlBase@ATL@@QAEJK@Z 1001ff20 f i CashChanger.obj
 0001:0001f010       ?SendOnSave@CComControlBase@ATL@@QAEJXZ 10020010 f i CashChanger.obj
 0001:0001f080       ?SendOnViewChange@CComControlBase@ATL@@QAEJKJ@Z 10020080 f i CashChanger.obj
 0001:0001f0f0       ?SetAdvise@?$IViewObjectExImpl@VCOPOSCashChanger@@@ATL@@UAGJKKPAUIAdviseSink@@@Z 100200f0 f i CashChanger.obj
 0001:0001f180       ?SetClientSite@?$IOleObjectImpl@VCOPOSCashChanger@@@ATL@@UAGJPAUIOleClientSite@@@Z 10020180 f i CashChanger.obj
 0001:0001f210       ?SetColorScheme@?$IOleObjectImpl@VCOPOSCashChanger@@@ATL@@UAGJPAUtagLOGPALETTE@@@Z 10020210 f i CashChanger.obj
 0001:0001f280       ?SetContentExtent@?$IQuickActivateImpl@VCOPOSCashChanger@@@ATL@@UAGJPAUtagSIZE@@@Z 10020280 f i CashChanger.obj
 0001:0001f310       ?SetControlFocus@CComControlBase@ATL@@QAEHH@Z 10020310 f i CashChanger.obj
 0001:0001f490       ?SetDWORDValue@CRegKey@ATL@@QAEJPB_WK@Z 10020490 f i CashChanger.obj
 0001:0001f510       ?SetData@?$IDataObjectImpl@VCOPOSCashChanger@@@ATL@@UAGJPAUtagFORMATETC@@PAUtagSTGMEDIUM@@H@Z 10020510 f i CashChanger.obj
 0001:0001f580       ?SetExtent@?$IOleObjectImpl@VCOPOSCashChanger@@@ATL@@UAGJKPAUtagSIZE@@@Z 10020580 f i CashChanger.obj
 0001:0001f610       ?SetHostNames@?$IOleObjectImpl@VCOPOSCashChanger@@@ATL@@UAGJPB_W0@Z 10020610 f i CashChanger.obj
 0001:0001f670       ?SetInterfaceSafetyOptions@?$IObjectSafetyImpl@VCOPOSCashChanger@@$02@ATL@@UAGJABU_GUID@@KK@Z 10020670 f i CashChanger.obj
 0001:0001f7e0       ?SetMoniker@?$IOleObjectImpl@VCOPOSCashChanger@@@ATL@@UAGJKPAUIMoniker@@@Z 100207e0 f i CashChanger.obj
 0001:0001f850       ?SetMultiStringValue@CRegKey@ATL@@QAEJPB_W0@Z 10020850 f i CashChanger.obj
 0001:0001f970       ?SetObjectRects@?$IOleInPlaceObjectWindowlessImpl@VCOPOSCashChanger@@@ATL@@UAGJPBUtagRECT@@0@Z 10020970 f i CashChanger.obj
 0001:0001fa00       ?SetStringValue@CRegKey@ATL@@QAEJPB_W0K@Z 10020a00 f i CashChanger.obj
 0001:0001fb30       ?SetVoid@CComClassFactory@ATL@@QAEXPAX@Z 10020b30 f i CashChanger.obj
 0001:0001fb50       ?SetVoid@CComObjectRootBase@ATL@@QAEXPAX@Z 10020b50 f i CashChanger.obj
 0001:0001fb70       ?SetWindowLongPtrW@@YAJPAUHWND__@@HJ@Z 10020b70 f i CashChanger.obj
 0001:0001fba0       ?ShowWindow@CWindow@ATL@@QAEHH@Z 10020ba0 f i CashChanger.obj
 0001:0001fc20       ?Skip@?$CComEnumImpl@UIEnumConnectionPoints@@$1?_GUID_b196b285_bab4_101a_b69c_00aa00341d07@@3U__s_GUID@@BPAUIConnectionPoint@@V?$_CopyInterface@UIConnectionPoint@@@ATL@@@ATL@@UAGJK@Z 10020c20 f i CashChanger.obj
 0001:0001fca0       ?Skip@?$CComEnumImpl@UIEnumConnections@@$1?_GUID_b196b287_bab4_101a_b69c_00aa00341d07@@3U__s_GUID@@BUtagCONNECTDATA@@V?$_Copy@UtagCONNECTDATA@@@ATL@@@ATL@@UAGJK@Z 10020ca0 f i CashChanger.obj
 0001:0001fd20       ?SkipAssignment@CRegParser@ATL@@IAEJPA_W@Z 10020d20 f i CashChanger.obj
 0001:0001fe00       ?SkipWhiteSpace@CRegParser@ATL@@IAEXXZ 10020e00 f i CashChanger.obj
 0001:0001fe50       ?StartWindowProc@?$CWindowImplBaseT@VCWindow@ATL@@V?$CWinTraits@$0FGAAAAAA@$0A@@2@@ATL@@SGJPAUHWND__@@IIJ@Z 10020e50 f i CashChanger.obj
 0001:0001ff70       ?StrChrW@CRegParser@ATL@@KAPA_WPA_W_W@Z 10020f70 f i CashChanger.obj
 0001:0001ffe0       ?StrFromMap@CRegObject@ATL@@QAEPB_WPA_W@Z 10020fe0 f i CashChanger.obj
 0001:00020070       ?Swap@?$CComPtrBase@UIAdviseSink@@@ATL@@IAEXAAV12@@Z 10021070 f i CashChanger.obj
 0001:000200b0       ?Swap@?$CComPtrBase@UIOleClientSite@@@ATL@@IAEXAAV12@@Z 100210b0 f i CashChanger.obj
 0001:000200f0       ?Swap@?$CComPtrBase@UIUnknown@@@ATL@@IAEXAAV12@@Z 100210f0 f i CashChanger.obj
 0001:00020130       ?T2COLE_EX@@YAPB_WPB_WI@Z  10021130 f i CashChanger.obj
 0001:00020140       ?T2OLE_EX@@YAPA_WPA_WI@Z   10021140 f i CashChanger.obj
 0001:00020150       ?Term@CAtlModule@ATL@@QAEXXZ 10021150 f i CashChanger.obj
 0001:00020200       ?Term@CComModule@ATL@@QAEXXZ 10021200 f i CashChanger.obj
 0001:000202f0       ?TranslateAcceleratorW@?$IOleInPlaceActiveObjectImpl@VCOPOSCashChanger@@@ATL@@UAGJPAUtagMSG@@@Z 100212f0 f i CashChanger.obj
 0001:000204f0       ?UIDeactivate@?$IOleInPlaceObjectWindowlessImpl@VCOPOSCashChanger@@@ATL@@UAGJXZ 100214f0 f i CashChanger.obj
 0001:00020570       ?Unadvise@?$CProxy_IOPOSEvents@VCOPOSCashChanger@@@@UAGJK@Z 10021570 f i CashChanger.obj
 0001:000205b0       ?Unadvise@?$IConnectionPointImpl@VCOPOSCashChanger@@$1?DIID__IOPOSCashChangerEvents@@3U_GUID@@BVCComDynamicUnkArray@ATL@@@ATL@@UAGJK@Z 100215b0 f i CashChanger.obj
 0001:00020680       ?Unadvise@?$IConnectionPointImpl@VCOPOSCashChanger@@$1?IID_IPropertyNotifySink@@3U_GUID@@BVCComDynamicUnkArray@ATL@@@ATL@@UAGJK@Z 10021680 f i CashChanger.obj
 0001:00020750       ?Unadvise@?$IOleObjectImpl@VCOPOSCashChanger@@@ATL@@UAGJK@Z 10021750 f i CashChanger.obj
 0001:00020820       ?Unfreeze@?$IViewObjectExImpl@VCOPOSCashChanger@@@ATL@@UAGJK@Z 10021820 f i CashChanger.obj
 0001:00020890       ?Unlock@?$CComCritSecLock@VCComCriticalSection@ATL@@@ATL@@QAEXXZ 10021890 f i CashChanger.obj
 0001:00020900       ?Unlock@?$CComObjectRootEx@VCComSingleThreadModel@ATL@@@ATL@@QAEXXZ 10021900 f i CashChanger.obj
 0001:00020920       ?Unlock@CAtlModule@ATL@@UAEJXZ 10021920 f i CashChanger.obj
 0001:00020950       ?Unlock@CComCriticalSection@ATL@@QAEJXZ 10021950 f i CashChanger.obj
 0001:00020990       ?Unlock@CComFakeCriticalSection@ATL@@QAEJXZ 10021990 f i CashChanger.obj
 0001:000209b0       ?UnregisterServer@?$CAtlModuleT@VCComModule@ATL@@@ATL@@QAEJHPBU_GUID@@@Z 100219b0 f i CashChanger.obj
 0001:00020a20       ?UnregisterServer@CAtlComModule@ATL@@QAEJHPBU_GUID@@@Z 10021a20 f i CashChanger.obj
 0001:00020a50       ?UnregisterServer@CComModule@ATL@@QAEJHPBU_GUID@@@Z 10021a50 f i CashChanger.obj
 0001:00020b30       ?Update@?$IOleObjectImpl@VCOPOSCashChanger@@@ATL@@UAGJXZ 10021b30 f i CashChanger.obj
 0001:00020b90       ?UpdateRegistryFromResource@CAtlModule@ATL@@QAGJIHPAU_ATL_REGMAP_ENTRY@2@@Z 10021b90 f i CashChanger.obj
 0001:00021060       ?UpdateRegistryFromResource@CAtlModule@ATL@@QAGJPB_WHPAU_ATL_REGMAP_ENTRY@2@@Z 10022060 f i CashChanger.obj
 0001:00021550       ?UpdateRegistryFromResource@CComModule@ATL@@UAGJIHPAU_ATL_REGMAP_ENTRY@2@@Z 10022550 f i CashChanger.obj
 0001:00021580       ?UpdateRegistryFromResource@CComModule@ATL@@UAGJPB_WHPAU_ATL_REGMAP_ENTRY@2@@Z 10022580 f i CashChanger.obj
 0001:000215b0       ?UpdateRegistryFromResourceD@CComModule@ATL@@UAGJIHPAU_ATL_REGMAP_ENTRY@2@@Z 100225b0 f i CashChanger.obj
 0001:000215c0       ?UpdateRegistryFromResourceD@CComModule@ATL@@UAGJPB_WHPAU_ATL_REGMAP_ENTRY@2@@Z 100225c0 f i CashChanger.obj
 0001:000215d0       ?VTFromRegType@CRegParser@ATL@@KAHPB_WAAG@Z 100225d0 f i CashChanger.obj
 0001:000216b0       ?WindowProc@?$CWindowImplBaseT@VCWindow@ATL@@V?$CWinTraits@$0FGAAAAAA@$0A@@2@@ATL@@SGJPAUHWND__@@IIJ@Z 100226b0 f i CashChanger.obj
 0001:000218c0       ?WriteToStream@CComBSTR@ATL@@QAEJPAUIStream@@@Z 100228c0 f i CashChanger.obj
 0001:00021a20       ?WriteToStream@CComVariant@ATL@@QAEJPAUIStream@@@Z 10022a20 f i CashChanger.obj
 0001:00021d60       ?WriteToStream@CComVariant@ATL@@QAEJPAUIStream@@G@Z 10022d60 f i CashChanger.obj
 0001:00021e30       ?_AtlFinalConstruct@CComObjectRootBase@ATL@@QAEJXZ 10022e30 f i CashChanger.obj
 0001:00021e50       ?_AtlGetConversionACP@ATL@@YGIXZ 10022e50 f i CashChanger.obj
 0001:00021e60       ?_AtlInitialConstruct@?$CComAggObject@VCOPOSCashChanger@@@ATL@@QAEJXZ 10022e60 f i CashChanger.obj
 0001:00021eb0       ?_AtlInitialConstruct@?$CComObjectRootEx@VCComMultiThreadModel@ATL@@@ATL@@QAEJXZ 10022eb0 f i CashChanger.obj
 0001:00021ee0       ?_AtlInitialConstruct@?$CComObjectRootEx@VCComSingleThreadModel@ATL@@@ATL@@QAEJXZ 10022ee0 f i CashChanger.obj
 0001:00021f00       ?_AtlVerifyStackAvailable@_ATL_SAFE_ALLOCA_IMPL@ATL@@YA_NK@Z 10022f00 f i CashChanger.obj
 0001:000220b0       ?_GetEntries@?$CComEnum@UIEnumConnectionPoints@@$1?_GUID_b196b285_bab4_101a_b69c_00aa00341d07@@3U__s_GUID@@BPAUIConnectionPoint@@V?$_CopyInterface@UIConnectionPoint@@@ATL@@VCComSingleThreadModel@6@@ATL@@SGPBU_ATL_INTMAP_ENTRY@2@XZ 100230b0 f i CashChanger.obj
 0001:000220d0       ?_GetEntries@?$CComEnum@UIEnumConnections@@$1?_GUID_b196b287_bab4_101a_b69c_00aa00341d07@@3U__s_GUID@@BUtagCONNECTDATA@@V?$_Copy@UtagCONNECTDATA@@@ATL@@VCComSingleThreadModel@6@@ATL@@SGPBU_ATL_INTMAP_ENTRY@2@XZ 100230d0 f i CashChanger.obj
 0001:000220f0       ?_GetEntries@CComClassFactory@ATL@@SGPBU_ATL_INTMAP_ENTRY@2@XZ 100230f0 f i CashChanger.obj
 0001:00022110       ?_GetEntries@COPOSCashChanger@@SGPBU_ATL_INTMAP_ENTRY@ATL@@XZ 10023110 f i CashChanger.obj
 0001:00022130       ?_GetRawUnknown@COPOSCashChanger@@QAEPAUIUnknown@@XZ 10023130 f i CashChanger.obj
 0001:000221a0       ?_GetViewStatus@COPOSCashChanger@@QAEKXZ 100231a0 f i CashChanger.obj
 0001:000221c0       ?_InternalQueryInterface@?$CComEnum@UIEnumConnectionPoints@@$1?_GUID_b196b285_bab4_101a_b69c_00aa00341d07@@3U__s_GUID@@BPAUIConnectionPoint@@V?$_CopyInterface@UIConnectionPoint@@@ATL@@VCComSingleThreadModel@6@@ATL@@QAEJABU_GUID@@PAPAX@Z 100231c0 f i CashChanger.obj
 0001:00022200       ?_InternalQueryInterface@?$CComEnum@UIEnumConnections@@$1?_GUID_b196b287_bab4_101a_b69c_00aa00341d07@@3U__s_GUID@@BUtagCONNECTDATA@@V?$_Copy@UtagCONNECTDATA@@@ATL@@VCComSingleThreadModel@6@@ATL@@QAEJABU_GUID@@PAPAX@Z 10023200 f i CashChanger.obj
 0001:00022240       ?_InternalQueryInterface@CComClassFactory@ATL@@QAEJABU_GUID@@PAPAX@Z 10023240 f i CashChanger.obj
 0001:00022280       ?_InternalQueryInterface@COPOSCashChanger@@QAEJABU_GUID@@PAPAX@Z 10023280 f i CashChanger.obj
 0001:000222c0       ?_LocCPQueryInterface@?$IConnectionPointImpl@VCOPOSCashChanger@@$1?DIID__IOPOSCashChangerEvents@@3U_GUID@@BVCComDynamicUnkArray@ATL@@@ATL@@UAGJABU_GUID@@PAPAX@Z 100232c0 f i CashChanger.obj
 0001:00022360       ?_LocCPQueryInterface@?$IConnectionPointImpl@VCOPOSCashChanger@@$1?IID_IPropertyNotifySink@@3U_GUID@@BVCComDynamicUnkArray@ATL@@@ATL@@UAGJABU_GUID@@PAPAX@Z 10023360 f i CashChanger.obj
 0001:00022400       ?atlCreate@?$CWindowImpl@VCOPOSCashChanger@@VCWindow@ATL@@V?$CWinTraits@$0FGAAAAAA@$0A@@3@@ATL@@QAEPAUHWND__@@PAU3@V_U_RECT@2@PB_WKKV_U_MENUorID@2@PAX@Z 10023400 f i CashChanger.obj
 0001:000224b0       ?atlCreate@?$CWindowImplBaseT@VCWindow@ATL@@V?$CWinTraits@$0FGAAAAAA@$0A@@2@@ATL@@QAEPAUHWND__@@PAU3@V_U_RECT@2@PB_WKKV_U_MENUorID@2@GPAX@Z 100234b0 f i CashChanger.obj
 0001:00022630       ?atlCreate@CRegKey@ATL@@QAEJPAUHKEY__@@PB_WPA_WKKPAU_SECURITY_ATTRIBUTES@@PAK@Z 10023630 f i CashChanger.obj
 0001:00022790       ?begin@CComDynamicUnkArray@ATL@@QAEPAPAUIUnknown@@XZ 10023790 f i CashChanger.obj
 0001:000227b0       ?copy@?$_Copy@UtagCONNECTDATA@@@ATL@@SAJPAUtagCONNECTDATA@@PBU3@@Z 100237b0 f i CashChanger.obj
 0001:00022870       ?copy@?$_CopyInterface@UIConnectionPoint@@@ATL@@SAJPAPAUIConnectionPoint@@PBQAU3@@Z 10023870 f i CashChanger.obj
 0001:00022930       ?destroy@?$_Copy@UtagCONNECTDATA@@@ATL@@SAXPAUtagCONNECTDATA@@@Z 10023930 f i CashChanger.obj
 0001:00022970       ?destroy@?$_CopyInterface@UIConnectionPoint@@@ATL@@SAXPAPAUIConnectionPoint@@@Z 10023970 f i CashChanger.obj
 0001:000229b0       ?end@CComDynamicUnkArray@ATL@@QAEPAPAUIUnknown@@XZ 100239b0 f i CashChanger.obj
 0001:000229d0       ?init@?$_Copy@UtagCONNECTDATA@@@ATL@@SAXPAUtagCONNECTDATA@@@Z 100239d0 f i CashChanger.obj
 0001:000229e0       ?init@?$_CopyInterface@UIConnectionPoint@@@ATL@@SAXPAPAUIConnectionPoint@@@Z 100239e0 f i CashChanger.obj
 0001:000229f0       ?memcpy_s@Checked@ATL@@YAXPAXIPBXI@Z 100239f0 f i CashChanger.obj
 0001:00022a20       ?ocscpy_s@@YA_NPA_WIPB_W@Z 10023a20 f i CashChanger.obj
 0001:00022a80       ?ocslen@@YAHPB_W@Z         10023a80 f i CashChanger.obj
 0001:00022ab0       ?tcsncpy_s@Checked@ATL@@YAHPA_WIPB_WI@Z 10023ab0 f i CashChanger.obj
 0001:00022ae0       ?wcscat_s@Checked@ATL@@YAXPA_WIPB_W@Z 10023ae0 f i CashChanger.obj
 0001:00022b10       ?wcscpy_s@Checked@ATL@@YAXPA_WIPB_W@Z 10023b10 f i CashChanger.obj
 0001:00022b40       ?wcsncpy_s@Checked@ATL@@YAHPA_WIPB_WI@Z 10023b40 f i CashChanger.obj
 0001:00022b70       ?wcsstr@@YAPA_WPA_WPB_W@Z  10023b70 f i CashChanger.obj
 0001:00022b90       _InlineIsEqualGUID         10023b90 f i CashChanger.obj
 0001:00022c30       _IsEqualGUID               10023c30 f i CashChanger.obj
 0001:00022c80       ??0COPOSCashChanger@@QAE@XZ 10023c80 f   CashChangerImpl.obj
 0001:00022d90       ?FinalConstruct@COPOSCashChanger@@QAEJXZ 10023d90 f   CashChangerImpl.obj
 0001:00022e60       ??1COPOSCashChanger@@UAE@XZ 10023e60 f   CashChangerImpl.obj
 0001:00022f40       ?WriteTrace@COPOSCashChanger@@QAAXPB_WZZ 10023f40 f   CashChangerImpl.obj
 0001:00022ff0       ?WriteTraceString@COPOSCashChanger@@QAEXPB_WPA_W@Z 10023ff0 f   CashChangerImpl.obj
 0001:00023360       ?WriteTraceString@COPOSCashChanger@@QAAXPAXHHHPB_WZZ 10024360 f   CashChangerImpl.obj
 0001:00023590       ?WriteTraceError@COPOSCashChanger@@QAEXPB_WK@Z 10024590 f   CashChangerImpl.obj
 0001:00023680       ?WriteTraceMethods@COPOSCashChanger@@QAEXPAJH@Z 10024680 f   CashChangerImpl.obj
 0001:000236f0       ?GetOposProp@COPOSCashChanger@@IAEJPBDJPAJJ@Z 100246f0 f   CashChangerImpl.obj
 0001:00023960       ?SetOposProp@COPOSCashChanger@@IAEJPBDJJJ@Z 10024960 f   CashChangerImpl.obj
 0001:00023bf0       ?GetOposProp@COPOSCashChanger@@IAEJPBDJPAFJ@Z 10024bf0 f   CashChangerImpl.obj
 0001:00023c90       ?SetOposProp@COPOSCashChanger@@IAEJPBDJFJ@Z 10024c90 f   CashChangerImpl.obj
 0001:00023cf0       ?GetOposProp@COPOSCashChanger@@IAEJPBDJPAPA_WJ@Z 10024cf0 f   CashChangerImpl.obj
 0001:00023f70       ?SetOposProp@COPOSCashChanger@@IAEJPBDJPA_WJ@Z 10024f70 f   CashChangerImpl.obj
 0001:000242b0       ?DoInvoke@COPOSCashChanger@@IAEJPBDJPAVOposVariant@@IHPAJ_N@Z 100252b0 f   CashChangerImpl.obj
 0001:00024be0       ?SetCOFreezeEvents@COPOSCashChanger@@IAEXF@Z 10025be0 f   CashChangerImpl.obj
 0001:00024d20       ?FreezeEvents@COPOSCashChanger@@MAGJH@Z 10025d20 f   CashChangerImpl.obj
 0001:00024e00       ?OnDraw@COPOSCashChanger@@MAEJAAUATL_DRAWINFO@@@Z 10025e00 f   CashChangerImpl.obj
 0001:00024fa0       ?SOProcessID@COPOSCashChanger@@UAGJPAJ@Z 10025fa0 f   CashChangerImpl.obj
 0001:00024fe0       ?get_OpenResult@COPOSCashChanger@@UAGJPAJ@Z 10025fe0 f   CashChangerImpl.obj
 0001:00025020       ?get_BinaryConversion@COPOSCashChanger@@UAGJPAJ@Z 10026020 f   CashChangerImpl.obj
 0001:00025050       ?put_BinaryConversion@COPOSCashChanger@@UAGJJ@Z 10026050 f   CashChangerImpl.obj
 0001:00025080       ?get_CheckHealthText@COPOSCashChanger@@UAGJPAPA_W@Z 10026080 f   CashChangerImpl.obj
 0001:000250b0       ?get_Claimed@COPOSCashChanger@@UAGJPAF@Z 100260b0 f   CashChangerImpl.obj
 0001:000250e0       ?get_DeviceEnabled@COPOSCashChanger@@UAGJPAF@Z 100260e0 f   CashChangerImpl.obj
 0001:00025110       ?put_DeviceEnabled@COPOSCashChanger@@UAGJF@Z 10026110 f   CashChangerImpl.obj
 0001:00025140       ?get_FreezeEvents@COPOSCashChanger@@UAGJPAF@Z 10026140 f   CashChangerImpl.obj
 0001:00025170       ?put_FreezeEvents@COPOSCashChanger@@UAGJF@Z 10026170 f   CashChangerImpl.obj
 0001:00025200       ?get_ResultCode@COPOSCashChanger@@UAGJPAJ@Z 10026200 f   CashChangerImpl.obj
 0001:00025290       ?get_ResultCodeExtended@COPOSCashChanger@@UAGJPAJ@Z 10026290 f   CashChangerImpl.obj
 0001:000252c0       ?get_State@COPOSCashChanger@@UAGJPAJ@Z 100262c0 f   CashChangerImpl.obj
 0001:00025310       ?get_ControlObjectDescription@COPOSCashChanger@@UAGJPAPA_W@Z 10026310 f   CashChangerImpl.obj
 0001:00025390       ?get_ControlObjectVersion@COPOSCashChanger@@UAGJPAJ@Z 10026390 f   CashChangerImpl.obj
 0001:000253d0       ?get_ServiceObjectDescription@COPOSCashChanger@@UAGJPAPA_W@Z 100263d0 f   CashChangerImpl.obj
 0001:00025400       ?get_ServiceObjectVersion@COPOSCashChanger@@UAGJPAJ@Z 10026400 f   CashChangerImpl.obj
 0001:00025430       ?get_DeviceDescription@COPOSCashChanger@@UAGJPAPA_W@Z 10026430 f   CashChangerImpl.obj
 0001:00025460       ?get_DeviceName@COPOSCashChanger@@UAGJPAPA_W@Z 10026460 f   CashChangerImpl.obj
 0001:00025490       ?CheckHealth@COPOSCashChanger@@UAGJJPAJ@Z 10026490 f   CashChangerImpl.obj
 0001:00025530       ?ClaimDevice@COPOSCashChanger@@UAGJJPAJ@Z 10026530 f   CashChangerImpl.obj
 0001:00025610       ?Close@COPOSCashChanger@@UAGJPAJ@Z 10026610 f   CashChangerImpl.obj
 0001:000256e0       ?DirectIO@COPOSCashChanger@@UAGJJPAJPAPA_W0@Z 100266e0 f   CashChangerImpl.obj
 0001:000257f0       ?Open@COPOSCashChanger@@UAGJPA_WPAJ@Z 100267f0 f   CashChangerImpl.obj
 0001:000269e0       ?ReleaseDevice@COPOSCashChanger@@UAGJPAJ@Z 100279e0 f   CashChangerImpl.obj
 0001:00026a50       ?get_AsyncMode@COPOSCashChanger@@UAGJPAF@Z 10027a50 f   CashChangerImpl.obj
 0001:00026a80       ?put_AsyncMode@COPOSCashChanger@@UAGJF@Z 10027a80 f   CashChangerImpl.obj
 0001:00026ab0       ?get_AsyncResultCode@COPOSCashChanger@@UAGJPAJ@Z 10027ab0 f   CashChangerImpl.obj
 0001:00026ae0       ?get_AsyncResultCodeExtended@COPOSCashChanger@@UAGJPAJ@Z 10027ae0 f   CashChangerImpl.obj
 0001:00026b10       ?get_CapDiscrepancy@COPOSCashChanger@@UAGJPAF@Z 10027b10 f   CashChangerImpl.obj
 0001:00026b40       ?get_CapEmptySensor@COPOSCashChanger@@UAGJPAF@Z 10027b40 f   CashChangerImpl.obj
 0001:00026b70       ?get_CapFullSensor@COPOSCashChanger@@UAGJPAF@Z 10027b70 f   CashChangerImpl.obj
 0001:00026ba0       ?get_CapNearEmptySensor@COPOSCashChanger@@UAGJPAF@Z 10027ba0 f   CashChangerImpl.obj
 0001:00026bd0       ?get_CapNearFullSensor@COPOSCashChanger@@UAGJPAF@Z 10027bd0 f   CashChangerImpl.obj
 0001:00026c00       ?get_CurrencyCashList@COPOSCashChanger@@UAGJPAPA_W@Z 10027c00 f   CashChangerImpl.obj
 0001:00026c30       ?get_CurrencyCode@COPOSCashChanger@@UAGJPAPA_W@Z 10027c30 f   CashChangerImpl.obj
 0001:00026c60       ?put_CurrencyCode@COPOSCashChanger@@UAGJPA_W@Z 10027c60 f   CashChangerImpl.obj
 0001:00026c90       ?get_CurrencyCodeList@COPOSCashChanger@@UAGJPAPA_W@Z 10027c90 f   CashChangerImpl.obj
 0001:00026cc0       ?get_CurrentExit@COPOSCashChanger@@UAGJPAJ@Z 10027cc0 f   CashChangerImpl.obj
 0001:00026cf0       ?put_CurrentExit@COPOSCashChanger@@UAGJJ@Z 10027cf0 f   CashChangerImpl.obj
 0001:00026d20       ?get_DeviceExits@COPOSCashChanger@@UAGJPAJ@Z 10027d20 f   CashChangerImpl.obj
 0001:00026d50       ?get_DeviceStatus@COPOSCashChanger@@UAGJPAJ@Z 10027d50 f   CashChangerImpl.obj
 0001:00026d80       ?get_ExitCashList@COPOSCashChanger@@UAGJPAPA_W@Z 10027d80 f   CashChangerImpl.obj
 0001:00026db0       ?get_FullStatus@COPOSCashChanger@@UAGJPAJ@Z 10027db0 f   CashChangerImpl.obj
 0001:00026de0       ?DispenseCash@COPOSCashChanger@@UAGJPA_WPAJ@Z 10027de0 f   CashChangerImpl.obj
 0001:00026e90       ?DispenseChange@COPOSCashChanger@@UAGJJPAJ@Z 10027e90 f   CashChangerImpl.obj
 0001:00026f30       ?ReadCashCounts@COPOSCashChanger@@UAGJPAPA_WPAFPAJ@Z 10027f30 f   CashChangerImpl.obj
 0001:00027020       ?get_CapPowerReporting@COPOSCashChanger@@UAGJPAJ@Z 10028020 f   CashChangerImpl.obj
 0001:00027050       ?get_PowerNotify@COPOSCashChanger@@UAGJPAJ@Z 10028050 f   CashChangerImpl.obj
 0001:00027080       ?put_PowerNotify@COPOSCashChanger@@UAGJJ@Z 10028080 f   CashChangerImpl.obj
 0001:000270b0       ?get_PowerState@COPOSCashChanger@@UAGJPAJ@Z 100280b0 f   CashChangerImpl.obj
 0001:000270e0       ?get_DataCount@COPOSCashChanger@@UAGJPAJ@Z 100280e0 f   CashChangerImpl.obj
 0001:00027110       ?get_DataEventEnabled@COPOSCashChanger@@UAGJPAF@Z 10028110 f   CashChangerImpl.obj
 0001:00027140       ?put_DataEventEnabled@COPOSCashChanger@@UAGJF@Z 10028140 f   CashChangerImpl.obj
 0001:00027170       ?ClearInput@COPOSCashChanger@@UAGJPAJ@Z 10028170 f   CashChangerImpl.obj
 0001:000271a0       ?get_CapDeposit@COPOSCashChanger@@UAGJPAF@Z 100281a0 f   CashChangerImpl.obj
 0001:000271d0       ?get_CapDepositDataEvent@COPOSCashChanger@@UAGJPAF@Z 100281d0 f   CashChangerImpl.obj
 0001:00027200       ?get_CapPauseDeposit@COPOSCashChanger@@UAGJPAF@Z 10028200 f   CashChangerImpl.obj
 0001:00027230       ?get_CapRepayDeposit@COPOSCashChanger@@UAGJPAF@Z 10028230 f   CashChangerImpl.obj
 0001:00027260       ?get_DepositAmount@COPOSCashChanger@@UAGJPAJ@Z 10028260 f   CashChangerImpl.obj
 0001:00027290       ?get_DepositCashList@COPOSCashChanger@@UAGJPAPA_W@Z 10028290 f   CashChangerImpl.obj
 0001:000272c0       ?get_DepositCodeList@COPOSCashChanger@@UAGJPAPA_W@Z 100282c0 f   CashChangerImpl.obj
 0001:000272f0       ?get_DepositCounts@COPOSCashChanger@@UAGJPAPA_W@Z 100282f0 f   CashChangerImpl.obj
 0001:00027320       ?get_DepositStatus@COPOSCashChanger@@UAGJPAJ@Z 10028320 f   CashChangerImpl.obj
 0001:00027350       ?BeginDeposit@COPOSCashChanger@@UAGJPAJ@Z 10028350 f   CashChangerImpl.obj
 0001:00027380       ?EndDeposit@COPOSCashChanger@@UAGJJPAJ@Z 10028380 f   CashChangerImpl.obj
 0001:00027420       ?FixDeposit@COPOSCashChanger@@UAGJPAJ@Z 10028420 f   CashChangerImpl.obj
 0001:00027450       ?PauseDeposit@COPOSCashChanger@@UAGJJPAJ@Z 10028450 f   CashChangerImpl.obj
 0001:000274f0       ?get_CapStatisticsReporting@COPOSCashChanger@@UAGJPAF@Z 100284f0 f   CashChangerImpl.obj
 0001:00027520       ?get_CapUpdateStatistics@COPOSCashChanger@@UAGJPAF@Z 10028520 f   CashChangerImpl.obj
 0001:00027550       ?ResetStatistics@COPOSCashChanger@@UAGJPA_WPAJ@Z 10028550 f   CashChangerImpl.obj
 0001:00027600       ?RetrieveStatistics@COPOSCashChanger@@UAGJPAPA_WPAJ@Z 10028600 f   CashChangerImpl.obj
 0001:000276b0       ?UpdateStatistics@COPOSCashChanger@@UAGJPA_WPAJ@Z 100286b0 f   CashChangerImpl.obj
 0001:00027760       ?get_CapCompareFirmwareVersion@COPOSCashChanger@@UAGJPAF@Z 10028760 f   CashChangerImpl.obj
 0001:00027790       ?get_CapUpdateFirmware@COPOSCashChanger@@UAGJPAF@Z 10028790 f   CashChangerImpl.obj
 0001:000277c0       ?CompareFirmwareVersion@COPOSCashChanger@@UAGJPA_WPAJ1@Z 100287c0 f   CashChangerImpl.obj
 0001:000278b0       ?UpdateFirmware@COPOSCashChanger@@UAGJPA_WPAJ@Z 100288b0 f   CashChangerImpl.obj
 0001:00027960       ?get_CapJamSensor@COPOSCashChanger@@UAGJPAF@Z 10028960 f   CashChangerImpl.obj
 0001:00027990       ?get_CapRealTimeData@COPOSCashChanger@@UAGJPAF@Z 10028990 f   CashChangerImpl.obj
 0001:000279c0       ?get_CurrentService@COPOSCashChanger@@UAGJPAJ@Z 100289c0 f   CashChangerImpl.obj
 0001:000279f0       ?put_CurrentService@COPOSCashChanger@@UAGJJ@Z 100289f0 f   CashChangerImpl.obj
 0001:00027a20       ?get_RealTimeDataEnabled@COPOSCashChanger@@UAGJPAF@Z 10028a20 f   CashChangerImpl.obj
 0001:00027a50       ?put_RealTimeDataEnabled@COPOSCashChanger@@UAGJF@Z 10028a50 f   CashChangerImpl.obj
 0001:00027a80       ?get_ServiceCount@COPOSCashChanger@@UAGJPAJ@Z 10028a80 f   CashChangerImpl.obj
 0001:00027ab0       ?get_ServiceIndex@COPOSCashChanger@@UAGJPAJ@Z 10028ab0 f   CashChangerImpl.obj
 0001:00027ae0       ?AdjustCashCounts@COPOSCashChanger@@UAGJPA_WPAJ@Z 10028ae0 f   CashChangerImpl.obj
 0001:00027b90       ??0?$CComControl@VCOPOSCashChanger@@V?$CWindowImpl@VCOPOSCashChanger@@VCWindow@ATL@@V?$CWinTraits@$0FGAAAAAA@$0A@@3@@ATL@@@ATL@@QAE@XZ 10028b90 f i CashChangerImpl.obj
 0001:00027bd0       ??0?$CComPtr@UIAdviseSink@@@ATL@@QAE@XZ 10028bd0 f i CashChangerImpl.obj
 0001:00027c00       ??0?$CComPtr@UIDataAdviseHolder@@@ATL@@QAE@XZ 10028c00 f i CashChangerImpl.obj
 0001:00027c30       ??0?$CComPtr@UIOleAdviseHolder@@@ATL@@QAE@XZ 10028c30 f i CashChangerImpl.obj
 0001:00027c60       ??0?$CComPtr@UIOleClientSite@@@ATL@@QAE@XZ 10028c60 f i CashChangerImpl.obj
 0001:00027c90       ??0?$CComPtr@UIOleInPlaceSiteWindowless@@@ATL@@QAE@XZ 10028c90 f i CashChangerImpl.obj
 0001:00027cc0       ??0?$CComPtrBase@UIAdviseSink@@@ATL@@IAE@XZ 10028cc0 f i CashChangerImpl.obj
 0001:00027ce0       ??0?$CComPtrBase@UIDataAdviseHolder@@@ATL@@IAE@XZ 10028ce0 f i CashChangerImpl.obj
 0001:00027d00       ??0?$CComPtrBase@UIOleAdviseHolder@@@ATL@@IAE@XZ 10028d00 f i CashChangerImpl.obj
 0001:00027d20       ??0?$CComPtrBase@UIOleClientSite@@@ATL@@IAE@XZ 10028d20 f i CashChangerImpl.obj
 0001:00027d40       ??0?$CComPtrBase@UIOleInPlaceSiteWindowless@@@ATL@@IAE@XZ 10028d40 f i CashChangerImpl.obj
 0001:00027d60       ??0?$CComQIPtr@UIDispatch@@$1?_GUID_00020400_0000_0000_c000_000000000046@@3U__s_GUID@@B@ATL@@QAE@XZ 10028d60 f i CashChangerImpl.obj
 0001:00027d90       ??0?$CProxy_IOPOSEvents@VCOPOSCashChanger@@@@QAE@PAVCOPOSCashChanger@@@Z 10028d90 f i CashChangerImpl.obj
 0001:00027df0       ??0?$CWindowImpl@VCOPOSCashChanger@@VCWindow@ATL@@V?$CWinTraits@$0FGAAAAAA@$0A@@3@@ATL@@QAE@XZ 10028df0 f i CashChangerImpl.obj
 0001:00027e20       ??0?$CWindowImplBaseT@VCWindow@ATL@@V?$CWinTraits@$0FGAAAAAA@$0A@@2@@ATL@@QAE@XZ 10028e20 f i CashChangerImpl.obj
 0001:00027e60       ??0?$CWindowImplRoot@VCWindow@ATL@@@ATL@@QAE@XZ 10028e60 f i CashChangerImpl.obj
 0001:00027ec0       ??0?$IConnectionPointContainerImpl@VCOPOSCashChanger@@@ATL@@QAE@XZ 10028ec0 f i CashChangerImpl.obj
 0001:00027ef0       ??0?$IConnectionPointImpl@VCOPOSCashChanger@@$1?DIID__IOPOSCashChangerEvents@@3U_GUID@@BVCComDynamicUnkArray@ATL@@@ATL@@QAE@XZ 10028ef0 f i CashChangerImpl.obj
 0001:00027f30       ??0?$IConnectionPointImpl@VCOPOSCashChanger@@$1?IID_IPropertyNotifySink@@3U_GUID@@BVCComDynamicUnkArray@ATL@@@ATL@@QAE@XZ 10028f30 f i CashChangerImpl.obj
 0001:00027f70       ??0?$IDataObjectImpl@VCOPOSCashChanger@@@ATL@@QAE@XZ 10028f70 f i CashChangerImpl.obj
 0001:00027fa0       ??0?$IDispatchImpl@UIOPOSCashChanger@@$1?IID_IOPOSCashChanger@@3U_GUID@@B$1?LIBID_OposCashChanger_CCO@@3U3@B$00$0A@VCComTypeInfoHolder@ATL@@@ATL@@QAE@XZ 10028fa0 f i CashChangerImpl.obj
 0001:00027fd0       ??0?$IObjectSafetyImpl@VCOPOSCashChanger@@$02@ATL@@QAE@XZ 10028fd0 f i CashChangerImpl.obj
 0001:00028010       ??0?$IOleControlImpl@VCOPOSCashChanger@@@ATL@@QAE@XZ 10029010 f i CashChangerImpl.obj
 0001:00028040       ??0?$IOleInPlaceActiveObjectImpl@VCOPOSCashChanger@@@ATL@@QAE@XZ 10029040 f i CashChangerImpl.obj
 0001:00028070       ??0?$IOleInPlaceObjectWindowlessImpl@VCOPOSCashChanger@@@ATL@@QAE@XZ 10029070 f i CashChangerImpl.obj
 0001:000280a0       ??0?$IOleObjectImpl@VCOPOSCashChanger@@@ATL@@QAE@XZ 100290a0 f i CashChangerImpl.obj
 0001:000280d0       ??0?$IPersistStorageImpl@VCOPOSCashChanger@@@ATL@@QAE@XZ 100290d0 f i CashChangerImpl.obj
 0001:00028100       ??0?$IPersistStreamInitImpl@VCOPOSCashChanger@@@ATL@@QAE@XZ 10029100 f i CashChangerImpl.obj
 0001:00028130       ??0?$IPropertyNotifySinkCP@VCOPOSCashChanger@@VCComDynamicUnkArray@ATL@@@ATL@@QAE@XZ 10029130 f i CashChangerImpl.obj
 0001:00028160       ??0?$IProvideClassInfo2Impl@$1?CLSID_OPOSCashChanger@@3U_GUID@@B$1?DIID__IOPOSCashChangerEvents@@3U2@B$1?LIBID_OposCashChanger_CCO@@3U2@B$00$0A@VCComTypeInfoHolder@ATL@@@ATL@@QAE@XZ 10029160 f i CashChangerImpl.obj
 0001:00028190       ??0?$IQuickActivateImpl@VCOPOSCashChanger@@@ATL@@QAE@XZ 10029190 f i CashChangerImpl.obj
 0001:000281c0       ??0?$ISpecifyPropertyPagesImpl@VCOPOSCashChanger@@@ATL@@QAE@XZ 100291c0 f i CashChangerImpl.obj
 0001:000281f0       ??0?$IViewObjectExImpl@VCOPOSCashChanger@@@ATL@@QAE@XZ 100291f0 f i CashChangerImpl.obj
 0001:00028220       ??0?$_ICPLocator@$1?DIID__IOPOSCashChangerEvents@@3U_GUID@@B@ATL@@QAE@XZ 10029220 f i CashChangerImpl.obj
 0001:00028240       ??0?$_ICPLocator@$1?IID_IPropertyNotifySink@@3U_GUID@@B@ATL@@QAE@XZ 10029240 f i CashChangerImpl.obj
 0001:00028260       ??0CComControlBase@ATL@@QAE@AAPAUHWND__@@@Z 10029260 f i CashChangerImpl.obj
 0001:00028410       ??0CComDynamicUnkArray@ATL@@QAE@XZ 10029410 f i CashChangerImpl.obj
 0001:00028440       ??0CDynamicStdCallThunk2@ATL@@QAE@XZ 10029440 f i CashChangerImpl.obj
 0001:00028460       ??0CMessageMap@ATL@@QAE@XZ 10029460 f i CashChangerImpl.obj
 0001:00028480       ??0CWindow@ATL@@QAE@PAUHWND__@@@Z 10029480 f i CashChangerImpl.obj
 0001:000284a0       ??0CWndProcThunk@ATL@@QAE@XZ 100294a0 f i CashChangerImpl.obj
 0001:000284d0       ??0IConnectionPointContainer@@QAE@XZ 100294d0 f i CashChangerImpl.obj
 0001:00028500       ??0IDataObject@@QAE@XZ     10029500 f i CashChangerImpl.obj
 0001:00028530       ??0IDispatch@@QAE@XZ       10029530 f i CashChangerImpl.obj
 0001:00028560       ??0IOPOSCashChanger@@QAE@XZ 10029560 f i CashChangerImpl.obj
 0001:00028590       ??0IOPOSCashChanger_1_11@@QAE@XZ 10029590 f i CashChangerImpl.obj
 0001:000285c0       ??0IOPOSCashChanger_1_5@@QAE@XZ 100295c0 f i CashChangerImpl.obj
 0001:000285f0       ??0IOPOSCashChanger_1_8@@QAE@XZ 100295f0 f i CashChangerImpl.obj
 0001:00028620       ??0IOPOSCashChanger_1_9@@QAE@XZ 10029620 f i CashChangerImpl.obj
 0001:00028650       ??0IObjectSafety@@QAE@XZ   10029650 f i CashChangerImpl.obj
 0001:00028680       ??0IOleControl@@QAE@XZ     10029680 f i CashChangerImpl.obj
 0001:000286b0       ??0IOleInPlaceActiveObject@@QAE@XZ 100296b0 f i CashChangerImpl.obj
 0001:000286e0       ??0IOleInPlaceObject@@QAE@XZ 100296e0 f i CashChangerImpl.obj
 0001:00028710       ??0IOleInPlaceObjectWindowless@@QAE@XZ 10029710 f i CashChangerImpl.obj
 0001:00028740       ??0IOleObject@@QAE@XZ      10029740 f i CashChangerImpl.obj
 0001:00028770       ??0IOleWindow@@QAE@XZ      10029770 f i CashChangerImpl.obj
 0001:000287a0       ??0IPersist@@QAE@XZ        100297a0 f i CashChangerImpl.obj
 0001:000287d0       ??0IPersistStorage@@QAE@XZ 100297d0 f i CashChangerImpl.obj
 0001:00028800       ??0IPersistStreamInit@@QAE@XZ 10029800 f i CashChangerImpl.obj
 0001:00028830       ??0IProvideClassInfo2@@QAE@XZ 10029830 f i CashChangerImpl.obj
 0001:00028860       ??0IProvideClassInfo@@QAE@XZ 10029860 f i CashChangerImpl.obj
 0001:00028890       ??0IQuickActivate@@QAE@XZ  10029890 f i CashChangerImpl.obj
 0001:000288c0       ??0ISpecifyPropertyPages@@QAE@XZ 100298c0 f i CashChangerImpl.obj
 0001:000288f0       ??0IViewObject2@@QAE@XZ    100298f0 f i CashChangerImpl.obj
 0001:00028920       ??0IViewObject@@QAE@XZ     10029920 f i CashChangerImpl.obj
 0001:00028950       ??0IViewObjectEx@@QAE@XZ   10029950 f i CashChangerImpl.obj
 0001:00028980       ??0OposVariantResult@@QAE@XZ 10029980 f i CashChangerImpl.obj
 0001:000289b0       ??0_CW@@QAE@PBD@Z          100299b0 f i CashChangerImpl.obj
 0001:000289f0       ??0_CW@@QAE@PB_W@Z         100299f0 f i CashChangerImpl.obj
 0001:00028a30       ??0_CWNCC@@QAE@PBD@Z       10029a30 f i CashChangerImpl.obj
 0001:00028a60       ??1?$CComControl@VCOPOSCashChanger@@V?$CWindowImpl@VCOPOSCashChanger@@VCWindow@ATL@@V?$CWinTraits@$0FGAAAAAA@$0A@@3@@ATL@@@ATL@@UAE@XZ 10029a60 f i CashChangerImpl.obj
 0001:00028a90       ??1?$CComPtr@UIDataAdviseHolder@@@ATL@@QAE@XZ 10029a90 f i CashChangerImpl.obj
 0001:00028ac0       ??1?$CComPtr@UIOleAdviseHolder@@@ATL@@QAE@XZ 10029ac0 f i CashChangerImpl.obj
 0001:00028af0       ??1?$CComPtr@UIOleInPlaceSiteWindowless@@@ATL@@QAE@XZ 10029af0 f i CashChangerImpl.obj
 0001:00028b20       ??1?$CComPtrBase@UIDataAdviseHolder@@@ATL@@QAE@XZ 10029b20 f i CashChangerImpl.obj
 0001:00028b70       ??1?$CComPtrBase@UIOleAdviseHolder@@@ATL@@QAE@XZ 10029b70 f i CashChangerImpl.obj
 0001:00028bc0       ??1?$CComPtrBase@UIOleInPlaceSiteWindowless@@@ATL@@QAE@XZ 10029bc0 f i CashChangerImpl.obj
 0001:00028c10       ??1?$CComQIPtr@UIDispatch@@$1?_GUID_00020400_0000_0000_c000_000000000046@@3U__s_GUID@@B@ATL@@QAE@XZ 10029c10 f i CashChangerImpl.obj
 0001:00028c40       ??1?$CProxy_IOPOSEvents@VCOPOSCashChanger@@@@QAE@XZ 10029c40 f i CashChangerImpl.obj
 0001:00028c70       ??1?$CWindowImpl@VCOPOSCashChanger@@VCWindow@ATL@@V?$CWinTraits@$0FGAAAAAA@$0A@@3@@ATL@@UAE@XZ 10029c70 f i CashChangerImpl.obj
 0001:00028ca0       ??1?$CWindowImplBaseT@VCWindow@ATL@@V?$CWinTraits@$0FGAAAAAA@$0A@@2@@ATL@@UAE@XZ 10029ca0 f i CashChangerImpl.obj
 0001:00028cd0       ??1?$CWindowImplRoot@VCWindow@ATL@@@ATL@@UAE@XZ 10029cd0 f i CashChangerImpl.obj
 0001:00028d70       ??1?$IConnectionPointImpl@VCOPOSCashChanger@@$1?DIID__IOPOSCashChangerEvents@@3U_GUID@@BVCComDynamicUnkArray@ATL@@@ATL@@QAE@XZ 10029d70 f i CashChangerImpl.obj
 0001:00028df0       ??1?$IConnectionPointImpl@VCOPOSCashChanger@@$1?IID_IPropertyNotifySink@@3U_GUID@@BVCComDynamicUnkArray@ATL@@@ATL@@QAE@XZ 10029df0 f i CashChangerImpl.obj
 0001:00028e70       ??1?$IPropertyNotifySinkCP@VCOPOSCashChanger@@VCComDynamicUnkArray@ATL@@@ATL@@QAE@XZ 10029e70 f i CashChangerImpl.obj
 0001:00028ea0       ??1CComControlBase@ATL@@UAE@XZ 10029ea0 f i CashChangerImpl.obj
 0001:00028f60       ??1CComDynamicUnkArray@ATL@@QAE@XZ 10029f60 f i CashChangerImpl.obj
 0001:00028fa0       ??1CDynamicStdCallThunk2@ATL@@QAE@XZ 10029fa0 f i CashChangerImpl.obj
 0001:00028fd0       ??1CWndProcThunk@ATL@@QAE@XZ 10029fd0 f i CashChangerImpl.obj
 0001:00029000       ??1OposVariantResult@@QAE@XZ 1002a000 f i CashChangerImpl.obj
 0001:00029030       ??1_CW@@QAE@XZ             1002a030 f i CashChangerImpl.obj
 0001:000290a0       ??1_CWNCC@@QAE@XZ          1002a0a0 f i CashChangerImpl.obj
 0001:000290d0       ??B_CW@@QAEPB_WXZ          1002a0d0 f i CashChangerImpl.obj
 0001:00029110       ??B_CWNCC@@QAEPA_WXZ       1002a110 f i CashChangerImpl.obj
 0001:00029140       ??_EOposVariant@@QAEPAXI@Z 1002a140 f i CashChangerImpl.obj
 0001:000291d0       ?EventClaim@COPOSCashChanger@@IAEXXZ 1002a1d0 f i CashChangerImpl.obj
 0001:00029210       ?EventClose@COPOSCashChanger@@IAEXXZ 1002a210 f i CashChangerImpl.obj
 0001:000292b0       ?EventInit@COPOSCashChanger@@IAEJXZ 1002a2b0 f i CashChangerImpl.obj
 0001:000294e0       ?EventOpen@COPOSCashChanger@@IAEXXZ 1002a4e0 f i CashChangerImpl.obj
 0001:00029520       ?EventPreCloseRelease@COPOSCashChanger@@IAEXXZ 1002a520 f i CashChangerImpl.obj
 0001:000295a0       ?EventUninit@COPOSCashChanger@@IAEXXZ 1002a5a0 f i CashChangerImpl.obj
 0001:000296d0       ?EventWindowProc@COPOSCashChanger@@IAGJIIJ@Z 1002a6d0 f i CashChangerImpl.obj
 0001:000297f0       ?FireEventCleanup@COPOSCashChanger@@IAEXXZ 1002a7f0 f i CashChangerImpl.obj
 0001:00029840       ?FireEventSetup@COPOSCashChanger@@IAE_NXZ 1002a840 f i CashChangerImpl.obj
 0001:000298b0       ?GetModuleInstance@CComModule@ATL@@QAEPAUHINSTANCE__@@XZ 1002a8b0 f i CashChangerImpl.obj
 0001:000298d0       ?SetRC@COPOSCashChanger@@IAEJJ@Z 1002a8d0 f i CashChangerImpl.obj
 0001:00029900       ?s_EventWindowProc@COPOSCashChanger@@KGJPAUHWND__@@IIJ@Z 1002a900 f i CashChangerImpl.obj
 0001:000299a0       __snwprintf                1002a9a0 f i CashChangerImpl.obj
 0001:00029a00       __vfwprintf_l              1002aa00 f i CashChangerImpl.obj
 0001:00029a30       __vsnwprintf               1002aa30 f i CashChangerImpl.obj
 0001:00029a60       __vsnwprintf_l             1002aa60 f i CashChangerImpl.obj
 0001:00029ad0       _vfwprintf                 1002aad0 f i CashChangerImpl.obj
 0001:00029af2       _DebugBreak@0              1002aaf2 f   kernel32:KERNEL32.dll
 0001:00029af8       _Sleep@4                   1002aaf8 f   kernel32:KERNEL32.dll
 0001:00029afe       _GetCurrentProcess@0       1002aafe f   kernel32:KERNEL32.dll
 0001:00029b04       _TerminateProcess@8        1002ab04 f   kernel32:KERNEL32.dll
 0001:00029b0a       _MultiByteToWideChar@24    1002ab0a f   kernel32:KERNEL32.dll
 0001:00029b10       _WideCharToMultiByte@32    1002ab10 f   kernel32:KERNEL32.dll
 0001:00029b16       _DecodePointer@4           1002ab16 f   kernel32:KERNEL32.dll
 0001:00029b1c       _RaiseException@16         1002ab1c f   kernel32:KERNEL32.dll
 0001:00029b22       _GetLastError@0            1002ab22 f   kernel32:KERNEL32.dll
 0001:00029b28       _SetLastError@4            1002ab28 f   kernel32:KERNEL32.dll
 0001:00029b2e       _InitializeCriticalSectionEx@12 1002ab2e f   kernel32:KERNEL32.dll
 0001:00029b34       _DeleteCriticalSection@4   1002ab34 f   kernel32:KERNEL32.dll
 0001:00029b3a       _EncodePointer@4           1002ab3a f   kernel32:KERNEL32.dll
 0001:00029b40       _EnterCriticalSection@4    1002ab40 f   kernel32:KERNEL32.dll
 0001:00029b46       _LeaveCriticalSection@4    1002ab46 f   kernel32:KERNEL32.dll
 0001:00029b4c       _ResetEvent@4              1002ab4c f   kernel32:KERNEL32.dll
 0001:00029b52       _ReleaseMutex@4            1002ab52 f   kernel32:KERNEL32.dll
 0001:00029b58       _WaitForSingleObject@8     1002ab58 f   kernel32:KERNEL32.dll
 0001:00029b5e       _GetCurrentThreadId@0      1002ab5e f   kernel32:KERNEL32.dll
 0001:00029b64       _DisableThreadLibraryCalls@4 1002ab64 f   kernel32:KERNEL32.dll
 0001:00029b6a       _FreeLibrary@4             1002ab6a f   kernel32:KERNEL32.dll
 0001:00029b70       _GetModuleFileNameW@12     1002ab70 f   kernel32:KERNEL32.dll
 0001:00029b76       _GetModuleHandleW@4        1002ab76 f   kernel32:KERNEL32.dll
 0001:00029b7c       _GetProcAddress@8          1002ab7c f   kernel32:KERNEL32.dll
 0001:00029b82       _LoadLibraryExW@12         1002ab82 f   kernel32:KERNEL32.dll
 0001:00029b88       _LoadResource@8            1002ab88 f   kernel32:KERNEL32.dll
 0001:00029b8e       _SizeofResource@8          1002ab8e f   kernel32:KERNEL32.dll
 0001:00029b94       _FindResourceW@12          1002ab94 f   kernel32:KERNEL32.dll
 0001:00029b9a       _GlobalAlloc@8             1002ab9a f   kernel32:KERNEL32.dll
 0001:00029ba0       _GlobalUnlock@4            1002aba0 f   kernel32:KERNEL32.dll
 0001:00029ba6       _GlobalLock@4              1002aba6 f   kernel32:KERNEL32.dll
 0001:00029bac       _MulDiv@12                 1002abac f   kernel32:KERNEL32.dll
 0001:00029bb2       _lstrcmpiW@8               1002abb2 f   kernel32:KERNEL32.dll
 0001:00029bb8       _DeleteFileW@4             1002abb8 f   kernel32:KERNEL32.dll
 0001:00029bbe       _CloseHandle@4             1002abbe f   kernel32:KERNEL32.dll
 0001:00029bc4       _SetEvent@4                1002abc4 f   kernel32:KERNEL32.dll
 0001:00029bca       _CreateMutexW@12           1002abca f   kernel32:KERNEL32.dll
 0001:00029bd0       _CreateEventW@16           1002abd0 f   kernel32:KERNEL32.dll
 0001:00029bd6       _GetCurrentProcessId@0     1002abd6 f   kernel32:KERNEL32.dll
 0001:00029bdc       _LocalFree@4               1002abdc f   kernel32:KERNEL32.dll
 0001:00029be2       _FormatMessageW@28         1002abe2 f   kernel32:KERNEL32.dll
 0001:00029be8       _GetActiveWindow@0         1002abe8 f   user32:USER32.dll
 0001:00029bee       _MessageBoxW@16            1002abee f   user32:USER32.dll
 0001:00029bf4       _UnregisterClassW@8        1002abf4 f   user32:USER32.dll
 0001:00029bfa       _PostMessageW@16           1002abfa f   user32:USER32.dll
 0001:00029c00       _DefWindowProcW@16         1002ac00 f   user32:USER32.dll
 0001:00029c06       _CallWindowProcW@20        1002ac06 f   user32:USER32.dll
 0001:00029c0c       _RegisterClassExW@4        1002ac0c f   user32:USER32.dll
 0001:00029c12       _GetClassInfoExW@12        1002ac12 f   user32:USER32.dll
 0001:00029c18       _CreateWindowExW@48        1002ac18 f   user32:USER32.dll
 0001:00029c1e       _IsWindow@4                1002ac1e f   user32:USER32.dll
 0001:00029c24       _IsChild@8                 1002ac24 f   user32:USER32.dll
 0001:00029c2a       _DestroyWindow@4           1002ac2a f   user32:USER32.dll
 0001:00029c30       _ShowWindow@8              1002ac30 f   user32:USER32.dll
 0001:00029c36       _SetWindowPos@28           1002ac36 f   user32:USER32.dll
 0001:00029c3c       _CharNextW@4               1002ac3c f   user32:USER32.dll
 0001:00029c42       _SetFocus@4                1002ac42 f   user32:USER32.dll
 0001:00029c48       _GetFocus@0                1002ac48 f   user32:USER32.dll
 0001:00029c4e       _GetKeyState@4             1002ac4e f   user32:USER32.dll
 0001:00029c54       _GetDC@4                   1002ac54 f   user32:USER32.dll
 0001:00029c5a       _ReleaseDC@8               1002ac5a f   user32:USER32.dll
 0001:00029c60       _BeginPaint@8              1002ac60 f   user32:USER32.dll
 0001:00029c66       _EndPaint@8                1002ac66 f   user32:USER32.dll
 0001:00029c6c       _SetWindowRgn@12           1002ac6c f   user32:USER32.dll
 0001:00029c72       _InvalidateRect@12         1002ac72 f   user32:USER32.dll
 0001:00029c78       _GetClientRect@8           1002ac78 f   user32:USER32.dll
 0001:00029c7e       _IntersectRect@12          1002ac7e f   user32:USER32.dll
 0001:00029c84       _UnionRect@12              1002ac84 f   user32:USER32.dll
 0001:00029c8a       _OffsetRect@12             1002ac8a f   user32:USER32.dll
 0001:00029c90       _EqualRect@8               1002ac90 f   user32:USER32.dll
 0001:00029c96       _PtInRect@12               1002ac96 f   user32:USER32.dll
 0001:00029c9c       _GetWindowLongW@8          1002ac9c f   user32:USER32.dll
 0001:00029ca2       _SetWindowLongW@12         1002aca2 f   user32:USER32.dll
 0001:00029ca8       _GetParent@4               1002aca8 f   user32:USER32.dll
 0001:00029cae       _LoadCursorW@8             1002acae f   user32:USER32.dll
 0001:00029cb4       _PeekMessageW@20           1002acb4 f   user32:USER32.dll
 0001:00029cba       _RegisterClassW@4          1002acba f   user32:USER32.dll
 0001:00029cc0       _LoadBitmapW@8             1002acc0 f   user32:USER32.dll
 0001:00029cc6       _CloseMetaFile@4           1002acc6 f   gdi32:GDI32.dll
 0001:00029ccc       _CreateDCW@16              1002accc f   gdi32:GDI32.dll
 0001:00029cd2       _CreateMetaFileW@4         1002acd2 f   gdi32:GDI32.dll
 0001:00029cd8       _CreateRectRgnIndirect@4   1002acd8 f   gdi32:GDI32.dll
 0001:00029cde       _DeleteDC@4                1002acde f   gdi32:GDI32.dll
 0001:00029ce4       _DeleteMetaFile@4          1002ace4 f   gdi32:GDI32.dll
 0001:00029cea       _GetDeviceCaps@8           1002acea f   gdi32:GDI32.dll
 0001:00029cf0       _RestoreDC@8               1002acf0 f   gdi32:GDI32.dll
 0001:00029cf6       _SaveDC@4                  1002acf6 f   gdi32:GDI32.dll
 0001:00029cfc       _SetMapMode@8              1002acfc f   gdi32:GDI32.dll
 0001:00029d02       _LPtoDP@12                 1002ad02 f   gdi32:GDI32.dll
 0001:00029d08       _SetViewportOrgEx@16       1002ad08 f   gdi32:GDI32.dll
 0001:00029d0e       _SetWindowExtEx@16         1002ad0e f   gdi32:GDI32.dll
 0001:00029d14       _SetWindowOrgEx@16         1002ad14 f   gdi32:GDI32.dll
 0001:00029d1a       _BitBlt@36                 1002ad1a f   gdi32:GDI32.dll
 0001:00029d20       _CreateCompatibleDC@4      1002ad20 f   gdi32:GDI32.dll
 0001:00029d26       _DeleteObject@4            1002ad26 f   gdi32:GDI32.dll
 0001:00029d2c       _SelectObject@8            1002ad2c f   gdi32:GDI32.dll
 0001:00029d32       _GetObjectW@12             1002ad32 f   gdi32:GDI32.dll
 0001:00029d38       _RegCloseKey@4             1002ad38 f   advapi32:ADVAPI32.dll
 0001:00029d3e       _RegCreateKeyExW@36        1002ad3e f   advapi32:ADVAPI32.dll
 0001:00029d44       _RegDeleteKeyW@8           1002ad44 f   advapi32:ADVAPI32.dll
 0001:00029d4a       _RegDeleteValueW@8         1002ad4a f   advapi32:ADVAPI32.dll
 0001:00029d50       _RegEnumKeyExW@32          1002ad50 f   advapi32:ADVAPI32.dll
 0001:00029d56       _RegOpenKeyExW@20          1002ad56 f   advapi32:ADVAPI32.dll
 0001:00029d5c       _RegQueryInfoKeyW@48       1002ad5c f   advapi32:ADVAPI32.dll
 0001:00029d62       _RegSetValueExW@24         1002ad62 f   advapi32:ADVAPI32.dll
 0001:00029d68       _RegQueryValueExW@24       1002ad68 f   advapi32:ADVAPI32.dll
 0001:00029d6e       _CoCreateInstance@20       1002ad6e f   ole32:ole32.dll
 0001:00029d74       _StringFromGUID2@12        1002ad74 f   ole32:ole32.dll
 0001:00029d7a       _CoTaskMemAlloc@4          1002ad7a f   ole32:ole32.dll
 0001:00029d80       _CoTaskMemRealloc@8        1002ad80 f   ole32:ole32.dll
 0001:00029d86       _CoTaskMemFree@4           1002ad86 f   ole32:ole32.dll
 0001:00029d8c       _ReadClassStm@8            1002ad8c f   ole32:ole32.dll
 0001:00029d92       _WriteClassStm@8           1002ad92 f   ole32:ole32.dll
 0001:00029d98       _CreateDataAdviseHolder@4  1002ad98 f   ole32:ole32.dll
 0001:00029d9e       _OleSaveToStream@8         1002ad9e f   ole32:ole32.dll
 0001:00029da4       _CreateOleAdviseHolder@4   1002ada4 f   ole32:ole32.dll
 0001:00029daa       _OleRegGetUserType@12      1002adaa f   ole32:ole32.dll
 0001:00029db0       _OleRegGetMiscStatus@12    1002adb0 f   ole32:ole32.dll
 0001:00029db6       _OleRegEnumVerbs@8         1002adb6 f   ole32:ole32.dll
 0001:00029dbc       _CLSIDFromProgID@8         1002adbc f   ole32:ole32.dll
 0001:00029dc2       _SysAllocString@4          1002adc2 f   oleaut32:OLEAUT32.dll
 0001:00029dc8       _SysAllocStringLen@8       1002adc8 f   oleaut32:OLEAUT32.dll
 0001:00029dce       _SysFreeString@4           1002adce f   oleaut32:OLEAUT32.dll
 0001:00029dd4       _SysStringLen@4            1002add4 f   oleaut32:OLEAUT32.dll
 0001:00029dda       _VariantClear@4            1002adda f   oleaut32:OLEAUT32.dll
 0001:00029de0       _VariantCopyInd@8          1002ade0 f   oleaut32:OLEAUT32.dll
 0001:00029de6       _VariantChangeType@16      1002ade6 f   oleaut32:OLEAUT32.dll
 0001:00029dec       _SysStringByteLen@4        1002adec f   oleaut32:OLEAUT32.dll
 0001:00029df2       _SysAllocStringByteLen@8   1002adf2 f   oleaut32:OLEAUT32.dll
 0001:00029df8       _VariantInit@4             1002adf8 f   oleaut32:OLEAUT32.dll
 0001:00029dfe       _VarUI4FromStr@16          1002adfe f   oleaut32:OLEAUT32.dll
 0001:00029e04       _LoadTypeLib@8             1002ae04 f   oleaut32:OLEAUT32.dll
 0001:00029e0a       _LoadRegTypeLib@20         1002ae0a f   oleaut32:OLEAUT32.dll
 0001:00029e10       _RegisterTypeLib@12        1002ae10 f   oleaut32:OLEAUT32.dll
 0001:00029e16       _UnRegisterTypeLib@20      1002ae16 f   oleaut32:OLEAUT32.dll
 0001:00029e1c       _OleCreatePropertyFrame@44 1002ae1c f   oleaut32:OLEAUT32.dll
 0001:00029e30       @_RTC_AllocaHelper@12      1002ae30 f   LIBCMTD:stack.obj
 0001:00029e70       @_RTC_CheckStackVars2@12   1002ae70 f   LIBCMTD:stack.obj
 0001:00029f50       @_RTC_CheckStackVars@8     1002af50 f   LIBCMTD:stack.obj
 0001:00029fb0       __RTC_CheckEsp             1002afb0 f   LIBCMTD:stack.obj
 0001:00029ff0       @__security_check_cookie@4 1002aff0 f   LIBCMTD:secchk.obj
 0001:0002a010       __CRT_RTC_INIT             1002b010 f   LIBCMTD:init.obj
 0001:0002a020       __CRT_RTC_INITW            1002b020 f   LIBCMTD:init.obj
 0001:0002a030       __RTC_InitBase             1002b030 f   LIBCMTD:init.obj
 0001:0002a060       __RTC_Shutdown             1002b060 f   LIBCMTD:init.obj
 0001:0002a080       ??_U@YAPAXI@Z              1002b080 f   LIBCMTD:new_array.obj
 0001:0002a0a0       ??3@YAXPAXI@Z              1002b0a0 f   LIBCMTD:delete_scalar_size.obj
 0001:0002a0c0       ??_V@YAXPAX@Z              1002b0c0 f   LIBCMTD:delete_array.obj
 0001:0002a0e0       ??_V@YAXPAXI@Z             1002b0e0 f   LIBCMTD:delete_array_size.obj
 0001:0002a100       ?configure_argv@__scrt_narrow_argv_policy@@SAHXZ 1002b100 f i LIBCMTD:utility.obj
 0001:0002a1b0       ?initialize_environment@__scrt_narrow_environment_policy@@SAHXZ 1002b1b0 f i LIBCMTD:utility.obj
 0001:0002a230       _NtCurrentTeb              1002b230 f i LIBCMTD:utility.obj
 0001:0002a240       ___scrt_acquire_startup_lock 1002b240 f   LIBCMTD:utility.obj
 0001:0002a290       ___scrt_dllmain_after_initialize_c 1002b290 f   LIBCMTD:utility.obj
 0001:0002a2c0       ___scrt_dllmain_before_initialize_c 1002b2c0 f   LIBCMTD:utility.obj
 0001:0002a2e0       ___scrt_dllmain_crt_thread_attach 1002b2e0 f   LIBCMTD:utility.obj
 0001:0002a310       ___scrt_dllmain_crt_thread_detach 1002b310 f   LIBCMTD:utility.obj
 0001:0002a330       ___scrt_dllmain_exception_filter 1002b330 f   LIBCMTD:utility.obj
 0001:0002a380       ___scrt_dllmain_uninitialize_c 1002b380 f   LIBCMTD:utility.obj
 0001:0002a3b0       ___scrt_dllmain_uninitialize_critical 1002b3b0 f   LIBCMTD:utility.obj
 0001:0002a3d0       ___scrt_initialize_crt     1002b3d0 f   LIBCMTD:utility.obj
 0001:0002a420       ___scrt_initialize_onexit_tables 1002b420 f   LIBCMTD:utility.obj
 0001:0002a500       ___scrt_is_nonwritable_in_current_image 1002b500 f   LIBCMTD:utility.obj
 0001:0002a630       ___scrt_release_startup_lock 1002b630 f   LIBCMTD:utility.obj
 0001:0002a660       ___scrt_uninitialize_crt   1002b660 f   LIBCMTD:utility.obj
 0001:0002a6a0       __onexit                   1002b6a0 f   LIBCMTD:utility.obj
 0001:0002a710       _at_quick_exit             1002b710 f   LIBCMTD:utility.obj
 0001:0002a750       _atexit                    1002b750 f   LIBCMTD:utility.obj
 0001:0002a780       ??3@YAXPAX@Z               1002b780 f   LIBCMTD:delete_scalar.obj
 0001:0002a7a0       ___raise_securityfailure   1002b7a0 f   LIBCMTD:gs_report.obj
 0001:0002a7d0       ___report_gsfailure        1002b7d0 f   LIBCMTD:gs_report.obj
 0001:0002a8e0       ___report_rangecheckfailure 1002b8e0 f   LIBCMTD:gs_report.obj
 0001:0002a8f0       ___report_securityfailure  1002b8f0 f   LIBCMTD:gs_report.obj
 0001:0002a9d0       ___report_securityfailureEx 1002b9d0 f   LIBCMTD:gs_report.obj
 0001:0002ac20       __Init_thread_abort        1002bc20 f   LIBCMTD:thread_safe_statics.obj
 0001:0002ac40       __Init_thread_footer       1002bc40 f   LIBCMTD:thread_safe_statics.obj
 0001:0002ac90       __Init_thread_header       1002bc90 f   LIBCMTD:thread_safe_statics.obj
 0001:0002ad00       __Init_thread_lock         1002bd00 f   LIBCMTD:thread_safe_statics.obj
 0001:0002ad10       __Init_thread_notify       1002bd10 f   LIBCMTD:thread_safe_statics.obj
 0001:0002ad60       __Init_thread_unlock       1002bd60 f   LIBCMTD:thread_safe_statics.obj
 0001:0002ad70       __Init_thread_wait         1002bd70 f   LIBCMTD:thread_safe_statics.obj
 0001:0002ae00       ??2@YAPAXIABUnothrow_t@std@@@Z 1002be00 f   LIBCMTD:new_scalar_nothrow.obj
 0001:0002ae90       ??_U@YAPAXIABUnothrow_t@std@@@Z 1002be90 f   LIBCMTD:new_array_nothrow.obj
 0001:0002aeb0       __allmul                   1002beb0 f   LIBCMTD:llmul.obj
 0001:0002aef0       __alloca_probe_16          1002bef0 f   LIBCMTD:alloca16.obj
 0001:0002af06       __alloca_probe_8           1002bf06     LIBCMTD:alloca16.obj
 0001:0002af20       __chkstk                   1002bf20 f   LIBCMTD:chkstk.obj
 0001:0002af20       __alloca_probe             1002bf20 f   LIBCMTD:chkstk.obj
 0001:0002b420       __CRT_INIT@12              1002c420 f   LIBCMTD:dll_dllmain.obj
 0001:0002b440       __DllMainCRTStartup@12     1002c440 f   LIBCMTD:dll_dllmain.obj
 0001:0002b500       ?_RTC_AllocaFailure@@YAXPAXPAU_RTC_ALLOCA_NODE@@H@Z 1002c500 f   LIBCMTD:error.obj
 0001:0002b5f0       ?_RTC_Failure@@YAXPAXH@Z   1002c5f0 f   LIBCMTD:error.obj
 0001:0002b640       ?_RTC_StackFailure@@YAXPAXPBD@Z 1002c640 f   LIBCMTD:error.obj
 0001:0002ba00       __RTC_UninitUse            1002ca00 f   LIBCMTD:error.obj
 0001:0002bab0       __vsprintf_s_l             1002cab0 f i LIBCMTD:error.obj
 0001:0002bae0       _sprintf_s                 1002cae0 f i LIBCMTD:error.obj
 0001:0002bb00       ?_RTC_GetErrorFunc@@YAP6AHHPBDH00ZZPBX@Z 1002cb00 f   LIBCMTD:userapi.obj
 0001:0002bb10       ?_RTC_GetErrorFuncW@@YAP6AHHPB_WH00ZZPBX@Z 1002cb10 f   LIBCMTD:userapi.obj
 0001:0002bb20       __RTC_GetErrDesc           1002cb20 f   LIBCMTD:userapi.obj
 0001:0002bb40       __RTC_NumErrors            1002cb40 f   LIBCMTD:userapi.obj
 0001:0002bb50       __RTC_SetErrorFunc         1002cb50 f   LIBCMTD:userapi.obj
 0001:0002bb70       __RTC_SetErrorFuncW        1002cb70 f   LIBCMTD:userapi.obj
 0001:0002bb90       __RTC_SetErrorType         1002cb90 f   LIBCMTD:userapi.obj
 0001:0002bbc0       ??2@YAPAXI@Z               1002cbc0 f   LIBCMTD:new_scalar.obj
 0001:0002bc10       ___isa_available_init      1002cc10 f   LIBCMTD:cpu_disp.obj
 0001:0002bf50       __get_startup_argv_mode    1002cf50 f   LIBCMTD:argv_mode.obj
 0001:0002bf60       ___scrt_is_ucrt_dll_in_use 1002cf60 f   LIBCMTD:ucrt_detection.obj
 0001:0002bf90       ___scrt_fastfail           1002cf90 f   LIBCMTD:utility_desktop.obj
 0001:0002c0d0       ___scrt_get_show_window_mode 1002d0d0 f   LIBCMTD:utility_desktop.obj
 0001:0002c110       ___scrt_initialize_mta     1002d110 f   LIBCMTD:utility_desktop.obj
 0001:0002c120       ___scrt_initialize_winrt   1002d120 f   LIBCMTD:utility_desktop.obj
 0001:0002c130       ___scrt_is_managed_app     1002d130 f   LIBCMTD:utility_desktop.obj
 0001:0002c1c0       ___scrt_set_unhandled_exception_filter 1002d1c0 f   LIBCMTD:utility_desktop.obj
 0001:0002c1d0       ___scrt_stub_for_initialize_mta 1002d1d0 f   LIBCMTD:utility_desktop.obj
 0001:0002c1d0       ___scrt_exe_initialize_mta 1002d1d0 f   LIBCMTD:utility_desktop.obj
 0001:0002c1e0       ___scrt_unhandled_exception_filter@4 1002d1e0 f   LIBCMTD:utility_desktop.obj
 0001:0002c260       __crt_debugger_hook        1002d260 f   LIBCMTD:utility_desktop.obj
 0001:0002c270       @_guard_check_icall_nop@4  1002d270 f i LIBCMTD:guard_support.obj
 0001:0002c280       _ReadNoFence               1002d280 f i LIBCMTD:guard_support.obj
 0001:0002c2a0       _ReadPointerNoFence        1002d2a0 f i LIBCMTD:guard_support.obj
 0001:0002c2c0       ___castguard_check_failure_debugbreak 1002d2c0 f i LIBCMTD:guard_support.obj
 0001:0002c2e0       ___castguard_check_failure_fastfail 1002d2e0 f i LIBCMTD:guard_support.obj
 0001:0002c300       ___castguard_check_failure_nop 1002d300 f i LIBCMTD:guard_support.obj
 0001:0002c310       ___castguard_check_failure_os_handled 1002d310 f i LIBCMTD:guard_support.obj
 0001:0002c390       ___castguard_slow_path_check_debugbreak 1002d390 f i LIBCMTD:guard_support.obj
 0001:0002c3c0       ___castguard_slow_path_check_fastfail 1002d3c0 f i LIBCMTD:guard_support.obj
 0001:0002c400       ___castguard_slow_path_check_nop 1002d400 f i LIBCMTD:guard_support.obj
 0001:0002c410       ___castguard_slow_path_check_os_handled 1002d410 f i LIBCMTD:guard_support.obj
 0001:0002c4b0       __guard_icall_checks_enforced 1002d4b0 f i LIBCMTD:guard_support.obj
 0001:0002c550       ___security_init_cookie    1002d550 f   LIBCMTD:gs_support.obj
 0001:0002c5d0       ?__scrt_initialize_type_info@@YAXXZ 1002d5d0 f   LIBCMTD:tncleanup.obj
 0001:0002c5e0       ?__scrt_uninitialize_type_info@@YAXXZ 1002d5e0 f   LIBCMTD:tncleanup.obj
 0001:0002c600       ___local_stdio_scanf_options 1002d600 f i LIBCMTD:default_local_stdio_options.obj
 0001:0002c610       ___scrt_initialize_default_local_stdio_options 1002d610 f   LIBCMTD:default_local_stdio_options.obj
 0001:0002c650       ___scrt_get_dyn_tls_init_callback 1002d650 f   LIBCMTD:dyn_tls_init.obj
 0001:0002c660       __RTC_Initialize           1002d660 f   LIBCMTD:initsect.obj
 0001:0002c690       __RTC_Terminate            1002d690 f   LIBCMTD:initsect.obj
 0001:0002cb40       ?_RTC_GetSrcLine@@YAHPAEPA_WKPAH1K@Z 1002db40 f   LIBCMTD:pdblkup.obj
 0001:0002cec0       __except_handler4_noexcept 1002dec0 f   LIBCMTD:chandler4_noexcept.obj
 0001:0002cf20       ??0bad_alloc@std@@AAE@QBD@Z 1002df20 f i LIBCMTD:throw_bad_alloc.obj
 0001:0002cf50       ??0bad_alloc@std@@QAE@ABV01@@Z 1002df50 f i LIBCMTD:throw_bad_alloc.obj
 0001:0002cf80       ??0bad_alloc@std@@QAE@XZ   1002df80 f i LIBCMTD:throw_bad_alloc.obj
 0001:0002cfb0       ??0bad_array_new_length@std@@QAE@ABV01@@Z 1002dfb0 f i LIBCMTD:throw_bad_alloc.obj
 0001:0002cfe0       ??0bad_array_new_length@std@@QAE@XZ 1002dfe0 f i LIBCMTD:throw_bad_alloc.obj
 0001:0002d010       ??0exception@std@@QAE@ABV01@@Z 1002e010 f i LIBCMTD:throw_bad_alloc.obj
 0001:0002d050       ??0exception@std@@QAE@QBDH@Z 1002e050 f i LIBCMTD:throw_bad_alloc.obj
 0001:0002d080       ??1bad_alloc@std@@UAE@XZ   1002e080 f i LIBCMTD:throw_bad_alloc.obj
 0001:0002d0a0       ??1bad_array_new_length@std@@UAE@XZ 1002e0a0 f i LIBCMTD:throw_bad_alloc.obj
 0001:0002d0c0       ??1exception@std@@UAE@XZ   1002e0c0 f i LIBCMTD:throw_bad_alloc.obj
 0001:0002d0f0       ??_Ebad_alloc@std@@UAEPAXI@Z 1002e0f0 f i LIBCMTD:throw_bad_alloc.obj
 0001:0002d0f0       ??_Gbad_alloc@std@@UAEPAXI@Z 1002e0f0 f i LIBCMTD:throw_bad_alloc.obj
 0001:0002d120       ??_Ebad_array_new_length@std@@UAEPAXI@Z 1002e120 f i LIBCMTD:throw_bad_alloc.obj
 0001:0002d120       ??_Gbad_array_new_length@std@@UAEPAXI@Z 1002e120 f i LIBCMTD:throw_bad_alloc.obj
 0001:0002d150       ??_Eexception@std@@UAEPAXI@Z 1002e150 f i LIBCMTD:throw_bad_alloc.obj
 0001:0002d150       ??_Gexception@std@@UAEPAXI@Z 1002e150 f i LIBCMTD:throw_bad_alloc.obj
 0001:0002d180       ?__scrt_throw_std_bad_alloc@@YAXXZ 1002e180 f   LIBCMTD:throw_bad_alloc.obj
 0001:0002d1a0       ?__scrt_throw_std_bad_array_new_length@@YAXXZ 1002e1a0 f   LIBCMTD:throw_bad_alloc.obj
 0001:0002d1c0       ?what@exception@std@@UBEPBDXZ 1002e1c0 f i LIBCMTD:throw_bad_alloc.obj
 0001:0002d1f0       ??1type_info@@UAE@XZ       1002e1f0 f   LIBCMTD:std_type_info_static.obj
 0001:0002d210       ??_Gtype_info@@UAEPAXI@Z   1002e210 f i LIBCMTD:std_type_info_static.obj
 0001:0002d210       ??_Etype_info@@UAEPAXI@Z   1002e210 f i LIBCMTD:std_type_info_static.obj
 0001:0002d23e       ??$?2PAUHINSTANCE__@@@Wrapper@?$CSimpleArray@PAUHINSTANCE__@@V?$CSimpleArrayEqualHelper@PAUHINSTANCE__@@@ATL@@@ATL@@SAPAXIPAPAUHINSTANCE__@@@Z 1002e23e f i atls:atlbase.obj
 0001:0002d246       ??0?$CSimpleArray@PAUHINSTANCE__@@V?$CSimpleArrayEqualHelper@PAUHINSTANCE__@@@ATL@@@ATL@@QAE@XZ 1002e246 f i atls:atlbase.obj
 0001:0002d253       ??0CAtlBaseModule@ATL@@QAE@XZ 1002e253 f   atls:atlbase.obj
 0001:0002d2a6       ??0Wrapper@?$CSimpleArray@PAUHINSTANCE__@@V?$CSimpleArrayEqualHelper@PAUHINSTANCE__@@@ATL@@@ATL@@QAE@ABQAUHINSTANCE__@@@Z 1002e2a6 f i atls:atlbase.obj
 0001:0002d2b6       ??0_ATL_BASE_MODULE70@ATL@@QAE@XZ 1002e2b6 f i atls:atlbase.obj
 0001:0002d2d9       ??1?$CSimpleArray@PAUHINSTANCE__@@V?$CSimpleArrayEqualHelper@PAUHINSTANCE__@@@ATL@@@ATL@@QAE@XZ 1002e2d9 f i atls:atlbase.obj
 0001:0002d2de       ??1CAtlBaseModule@ATL@@QAE@XZ 1002e2de f   atls:atlbase.obj
 0001:0002d2f4       ??1_ATL_BASE_MODULE70@ATL@@QAE@XZ 1002e2f4 f i atls:atlbase.obj
 0001:0002d2fc       ??A?$CSimpleArray@PAUHINSTANCE__@@V?$CSimpleArrayEqualHelper@PAUHINSTANCE__@@@ATL@@@ATL@@QAEAAPAUHINSTANCE__@@H@Z 1002e2fc f i atls:atlbase.obj
 0001:0002d321       ?Add@?$CSimpleArray@PAUHINSTANCE__@@V?$CSimpleArrayEqualHelper@PAUHINSTANCE__@@@ATL@@@ATL@@QAEHABQAUHINSTANCE__@@@Z 1002e321 f i atls:atlbase.obj
 0001:0002d3a3       ?AddResourceInstance@CAtlBaseModule@ATL@@QAE_NPAUHINSTANCE__@@@Z 1002e3a3 f   atls:atlbase.obj
 0001:0002d3d6       ?GetHInstanceAt@CAtlBaseModule@ATL@@QAEPAUHINSTANCE__@@H@Z 1002e3d6 f   atls:atlbase.obj
 0001:0002d41b       ?GetSize@?$CSimpleArray@PAUHINSTANCE__@@V?$CSimpleArrayEqualHelper@PAUHINSTANCE__@@@ATL@@@ATL@@QBEHXZ 1002e41b f i atls:atlbase.obj
 0001:0002d41f       ?InternalSetAtIndex@?$CSimpleArray@PAUHINSTANCE__@@V?$CSimpleArrayEqualHelper@PAUHINSTANCE__@@@ATL@@@ATL@@QAEXHABQAUHINSTANCE__@@@Z 1002e41f f i atls:atlbase.obj
 0001:0002d439       ?RemoveAll@?$CSimpleArray@PAUHINSTANCE__@@V?$CSimpleArrayEqualHelper@PAUHINSTANCE__@@@ATL@@@ATL@@QAEXXZ 1002e439 f i atls:atlbase.obj
 0001:0002d456       ?RemoveAt@?$CSimpleArray@PAUHINSTANCE__@@V?$CSimpleArrayEqualHelper@PAUHINSTANCE__@@@ATL@@@ATL@@QAEHH@Z 1002e456 f i atls:atlbase.obj
 0001:0002d4a4       ?RemoveResourceInstance@CAtlBaseModule@ATL@@QAE_NPAUHINSTANCE__@@@Z 1002e4a4 f   atls:atlbase.obj
 0001:0002d501       ?memmove_s@Checked@ATL@@YAXPAXIPBXI@Z 1002e501 f i atls:atlbase.obj
 0001:0002d85e       ?GetCodeAddress@_stdcallthunk@ATL@@QAEPAXXZ 1002e85e f i atls:atlthunk.obj
 0001:0002d888       ?Init@_stdcallthunk@ATL@@QAEHKPAX@Z 1002e888 f i atls:atlthunk.obj
 0001:0002d8bd       ?__AllocStdCallThunk@@YGPAXXZ 1002e8bd f   atls:atlthunk.obj
 0001:0002d8c2       ?__AllocStdCallThunk@ATL@@YGPAXXZ 1002e8c2 f   atls:atlthunk.obj
 0001:0002d8c7       ?__AllocStdCallThunk_cmn@@YAPAXXZ 1002e8c7 f   atls:atlthunk.obj
 0001:0002d98d       ?__FreeStdCallThunk@@YGXPAX@Z 1002e98d f   atls:atlthunk.obj
 0001:0002d99d       ?__FreeStdCallThunk@ATL@@YGXPAX@Z 1002e99d f   atls:atlthunk.obj
 0001:0002d9ad       ?__FreeStdCallThunk_cmn@@YAXPAX@Z 1002e9ad f   atls:atlthunk.obj
 0001:0002da48       _AtlThunk_AllocateData@0   1002ea48 f   atls:atlthunk.obj
 0001:0002daad       _AtlThunk_DataToCode@4     1002eaad f   atls:atlthunk.obj
 0001:0002daf4       _AtlThunk_FreeData@4       1002eaf4 f   atls:atlthunk.obj
 0001:0002db4a       _AtlThunk_InitData@12      1002eb4a f   atls:atlthunk.obj
 0001:0002db99       _MemoryBarrier             1002eb99 f i atls:atlthunk.obj
 0001:0002dba7       __InlineInterlockedCompareExchangePointer 1002eba7 f i atls:atlthunk.obj
 0001:0002dbc0       _memset                    1002ebc0 f   libvcruntimed:memset.obj
 0001:0002dd20       ??$__crt_interlocked_exchange_pointer@$$A6AXXZP6AXXZ@@YAP6AXXZPDS6AXXZQ6AXXZ@Z 1002ed20 f i libvcruntimed:purevirt.obj
 0001:0002dd30       ??$__crt_interlocked_read_pointer@$$A6AXXZ@@YAP6AXXZPDS6AXXZ@Z 1002ed30 f i libvcruntimed:purevirt.obj
 0001:0002dd50       ?__crt_interlocked_read_32@@YAHPDH@Z 1002ed50 f i libvcruntimed:purevirt.obj
 0001:0002dd70       __get_purecall_handler     1002ed70 f   libvcruntimed:purevirt.obj
 0001:0002dd90       __purecall                 1002ed90 f   libvcruntimed:purevirt.obj
 0001:0002ddc0       __set_purecall_handler     1002edc0 f   libvcruntimed:purevirt.obj
 0001:0002df90       _memcmp                    1002ef90 f   libvcruntimed:memcmp.obj
 0001:0002e860       _memcpy                    1002f860 f   libvcruntimed:memcpy.obj
 0001:0002ede0       _wcsstr                    1002fde0 f   libvcruntimed:wcsstr.obj
 0001:0002f310       __except_handler4          10030310 f   libvcruntimed:chandler4.obj
 0001:0002f500       ___vcrt_initialize         10030500 f   libvcruntimed:initialization.obj
 0001:0002f540       ___vcrt_thread_attach      10030540 f   libvcruntimed:initialization.obj
 0001:0002f560       ___vcrt_thread_detach      10030560 f   libvcruntimed:initialization.obj
 0001:0002f580       ___vcrt_uninitialize       10030580 f   libvcruntimed:initialization.obj
 0001:0002f5a0       ___vcrt_uninitialize_critical 100305a0 f   libvcruntimed:initialization.obj
 0001:0002f5c0       ??$?0AAViterator@TryBlockMap@__FrameHandler3@@AAV012@$0A@@?$pair@Viterator@TryBlockMap@__FrameHandler3@@V123@@std@@QAE@AAViterator@TryBlockMap@__FrameHandler3@@0@Z 100305c0 f i libvcruntimed:trnsctrl.obj
 0001:0002f610       ??$forward@AAViterator@TryBlockMap@__FrameHandler3@@@std@@YAAAViterator@TryBlockMap@__FrameHandler3@@AAV123@@Z 10030610 f i libvcruntimed:trnsctrl.obj
 0001:0002f620       ??0iterator@TryBlockMap@__FrameHandler3@@QAE@AAV12@I@Z 10030620 f i libvcruntimed:trnsctrl.obj
 0001:0002f650       ?GetRangeOfTrysToCheck@__FrameHandler3@@SA?AU?$pair@Viterator@TryBlockMap@__FrameHandler3@@V123@@std@@AAVTryBlockMap@1@HPAXPBU_s_FuncInfo@@H@Z 10030650 f   libvcruntimed:trnsctrl.obj
 0001:0002f730       ?_CallCatchBlock2@@YAPAXPAUEHRegistrationNode@@PBU_s_FuncInfo@@PAXHK@Z 10030730 f   libvcruntimed:trnsctrl.obj
 0001:0002f7a0       ?_CallSETranslator@@YAHPAUEHExceptionRecord@@PAUEHRegistrationNode@@PAX2PBU_s_FuncInfo@@H1@Z 100307a0 f   libvcruntimed:trnsctrl.obj
 0001:0002f8a0       ?_JumpToContinuation@@YGXPAXPAUEHRegistrationNode@@@Z 100308a0 f   libvcruntimed:trnsctrl.obj
 0001:0002f8e0       ?_UnwindNestedFrames@@YGXPAUEHRegistrationNode@@PAUEHExceptionRecord@@@Z 100308e0 f   libvcruntimed:trnsctrl.obj
 0001:0002f940       __CatchGuardHandler        10030940 f   libvcruntimed:trnsctrl.obj
 0001:0002f990       __CreateFrameInfo          10030990 f   libvcruntimed:trnsctrl.obj
 0001:0002f9c0       __FindAndUnlinkFrame       100309c0 f   libvcruntimed:trnsctrl.obj
 0001:0002fa30       __TranslatorGuardHandler   10030a30 f   libvcruntimed:trnsctrl.obj
 0001:0002fae0       ___CxxFrameHandler         10030ae0 f   libvcruntimed:trnsctrl.obj
 0001:0002fb20       ___CxxFrameHandler2        10030b20 f   libvcruntimed:trnsctrl.obj
 0001:0002fb60       ___CxxFrameHandler3        10030b60 f   libvcruntimed:trnsctrl.obj
 0001:0002fba0       ___CxxLongjmpUnwind@4      10030ba0 f   libvcruntimed:trnsctrl.obj
 0001:0002fbe0       ___DestructExceptionObject 10030be0 f   libvcruntimed:ehhelpers.obj
 0001:0002fd00       ?_CallMemberFunction0@@YGXQAX0@Z 10030d00 f i libvcruntimed:ehhelpers.obj
 0001:0002fda0       ?raw_name@type_info@@QBEPBDXZ 10030da0 f i libvcruntimed:ehhelpers.obj
 0001:0002fdc0       __IsExceptionObjectToBeDestroyed 10030dc0 f   libvcruntimed:ehhelpers.obj
 0001:0002fe00       __SetWinRTOutOfMemoryExceptionCallback 10030e00 f   libvcruntimed:ehhelpers.obj
 0001:0002fe10       ___AdjustPointer           10030e10 f   libvcruntimed:ehhelpers.obj
 0001:0002fe60       ___FrameUnwindFilter       10030e60 f   libvcruntimed:ehhelpers.obj
 0001:0002fef0       ___GetPlatformExceptionInfo 10030ef0 f   libvcruntimed:ehhelpers.obj
 0001:0002ff70       ___current_exception       10030f70 f   libvcruntimed:ehhelpers.obj
 0001:0002ff80       ___current_exception_context 10030f80 f   libvcruntimed:ehhelpers.obj
 0001:0002ff90       ___processing_throw        10030f90 f   libvcruntimed:ehhelpers.obj
 0001:0002ffa0       ___std_terminate           10030fa0 f   libvcruntimed:ehhelpers.obj
 0001:0002ffb0       __is_exception_typeof      10030fb0 f   libvcruntimed:ehhelpers.obj
 0001:000300b0       ??$?RD@__crt_internal_free_policy@@QBEXQBD@Z 100310b0 f i libvcruntimed:std_type_info.obj
 0001:000300d0       ??$?RX@__crt_internal_free_policy@@QBEXQBX@Z 100310d0 f i libvcruntimed:std_type_info.obj
 0001:000300f0       ??$__crt_interlocked_compare_exchange_pointer@$$CBDPAD$$T@@YAPBDPDSBDQAD$$T@Z 100310f0 f i libvcruntimed:std_type_info.obj
 0001:00030110       ??$__crt_interlocked_read_pointer@$$CBD@@YAPBDPDSBD@Z 10031110 f i libvcruntimed:std_type_info.obj
 0001:00030130       ??0?$__crt_unique_heap_ptr@DU__crt_internal_free_policy@@@@QAE@QAD@Z 10031130 f i libvcruntimed:std_type_info.obj
 0001:00030150       ??0?$__crt_unique_heap_ptr@XU__crt_internal_free_policy@@@@QAE@QAX@Z 10031150 f i libvcruntimed:std_type_info.obj
 0001:00030170       ??1?$__crt_unique_heap_ptr@DU__crt_internal_free_policy@@@@QAE@XZ 10031170 f i libvcruntimed:std_type_info.obj
 0001:00030190       ??1?$__crt_unique_heap_ptr@XU__crt_internal_free_policy@@@@QAE@XZ 10031190 f i libvcruntimed:std_type_info.obj
 0001:000301b0       ??B?$__crt_unique_heap_ptr@DU__crt_internal_free_policy@@@@QBE_NXZ 100311b0 f i libvcruntimed:std_type_info.obj
 0001:000301d0       ??B?$__crt_unique_heap_ptr@XU__crt_internal_free_policy@@@@QBE_NXZ 100311d0 f i libvcruntimed:std_type_info.obj
 0001:00030260       ?detach@?$__crt_unique_heap_ptr@XU__crt_internal_free_policy@@@@QAEPAXXZ 10031260 f i libvcruntimed:std_type_info.obj
 0001:00030290       ?get@?$__crt_unique_heap_ptr@DU__crt_internal_free_policy@@@@QBEPADXZ 10031290 f i libvcruntimed:std_type_info.obj
 0001:000302a0       ?get@?$__crt_unique_heap_ptr@XU__crt_internal_free_policy@@@@QBEPAXXZ 100312a0 f i libvcruntimed:std_type_info.obj
 0001:000302b0       ?is_valid@?$__crt_unique_heap_ptr@DU__crt_internal_free_policy@@@@QBE_NXZ 100312b0 f i libvcruntimed:std_type_info.obj
 0001:000302e0       ?is_valid@?$__crt_unique_heap_ptr@XU__crt_internal_free_policy@@@@QBE_NXZ 100312e0 f i libvcruntimed:std_type_info.obj
 0001:00030310       ?release@?$__crt_unique_heap_ptr@DU__crt_internal_free_policy@@@@QAEXXZ 10031310 f i libvcruntimed:std_type_info.obj
 0001:00030340       ?release@?$__crt_unique_heap_ptr@XU__crt_internal_free_policy@@@@QAEXXZ 10031340 f i libvcruntimed:std_type_info.obj
 0001:00030370       ___std_type_info_compare   10031370 f   libvcruntimed:std_type_info.obj
 0001:000303a0       ___std_type_info_destroy_list 100313a0 f   libvcruntimed:std_type_info.obj
 0001:000303e0       ___std_type_info_hash      100313e0 f   libvcruntimed:std_type_info.obj
 0001:00030440       ___std_type_info_name      10031440 f   libvcruntimed:std_type_info.obj
 0001:00030620       ___vcrt_GetModuleFileNameW 10031620 f   libvcruntimed:winapi_thunks.obj
 0001:00030640       ___vcrt_GetModuleHandleW   10031640 f   libvcruntimed:winapi_thunks.obj
 0001:00030650       ___vcrt_LoadLibraryExW     10031650 f   libvcruntimed:winapi_thunks.obj
 0001:00030670       ??$?RD@__crt_public_free_policy@@QBEXQBD@Z 10031670 f i libvcruntimed:std_exception.obj
 0001:00030690       ??0?$__crt_unique_heap_ptr@DU__crt_public_free_policy@@@@QAE@QAD@Z 10031690 f i libvcruntimed:std_exception.obj
 0001:000306b0       ??1?$__crt_unique_heap_ptr@DU__crt_public_free_policy@@@@QAE@XZ 100316b0 f i libvcruntimed:std_exception.obj
 0001:000306d0       ??B?$__crt_unique_heap_ptr@DU__crt_public_free_policy@@@@QBE_NXZ 100316d0 f i libvcruntimed:std_exception.obj
 0001:000306f0       ?detach@?$__crt_unique_heap_ptr@DU__crt_public_free_policy@@@@QAEPADXZ 100316f0 f i libvcruntimed:std_exception.obj
 0001:00030720       ?get@?$__crt_unique_heap_ptr@DU__crt_public_free_policy@@@@QBEPADXZ 10031720 f i libvcruntimed:std_exception.obj
 0001:00030730       ?is_valid@?$__crt_unique_heap_ptr@DU__crt_public_free_policy@@@@QBE_NXZ 10031730 f i libvcruntimed:std_exception.obj
 0001:00030760       ?release@?$__crt_unique_heap_ptr@DU__crt_public_free_policy@@@@QAEXXZ 10031760 f i libvcruntimed:std_exception.obj
 0001:00030790       ___std_exception_copy      10031790 f   libvcruntimed:std_exception.obj
 0001:00030880       ___std_exception_destroy   10031880 f   libvcruntimed:std_exception.obj
 0001:000308b0       __CxxThrowException@8      100318b0 f   libvcruntimed:throw.obj
 0001:00030960       _memmove                   10031960 f   libvcruntimed:memmove.obj
 0001:00030ee0       __local_unwind4            10031ee0 f   libvcruntimed:exsup4.obj
 0001:00030fb4       __seh_longjmp_unwind4@4    10031fb4 f   libvcruntimed:exsup4.obj
 0001:00030fdc       @_EH4_CallFilterFunc@8     10031fdc f   libvcruntimed:exsup4.obj
 0001:00030ff4       @_EH4_TransferToHandler@8  10031ff4 f   libvcruntimed:exsup4.obj
 0001:00031010       @_EH4_GlobalUnwind2@8      10032010 f   libvcruntimed:exsup4.obj
 0001:0003102c       @_EH4_LocalUnwind@16       1003202c f   libvcruntimed:exsup4.obj
 0001:00031060       ___except_validate_context_record 10032060 f   libvcruntimed:jbcxrval.obj
 0001:000310b0       ___except_validate_jump_buffer 100320b0 f   libvcruntimed:jbcxrval.obj
 0001:000310d0       ___except_validate_jump_buffer_common 100320d0 f i libvcruntimed:jbcxrval.obj
 0001:00031130       ??$?RU__vcrt_ptd@@@__crt_internal_free_policy@@QBEXQBU__vcrt_ptd@@@Z 10032130 f i libvcruntimed:per_thread_data.obj
 0001:00031150       ??0?$__crt_unique_heap_ptr@U__vcrt_ptd@@U__crt_internal_free_policy@@@@QAE@QAU__vcrt_ptd@@@Z 10032150 f i libvcruntimed:per_thread_data.obj
 0001:00031190       ??1?$__crt_unique_heap_ptr@U__vcrt_ptd@@U__crt_internal_free_policy@@@@QAE@XZ 10032190 f i libvcruntimed:per_thread_data.obj
 0001:000311d0       ??B?$__crt_unique_heap_ptr@U__vcrt_ptd@@U__crt_internal_free_policy@@@@QBE_NXZ 100321d0 f i libvcruntimed:per_thread_data.obj
 0001:000311f0       ?detach@?$__crt_unique_heap_ptr@U__vcrt_ptd@@U__crt_internal_free_policy@@@@QAEPAU__vcrt_ptd@@XZ 100321f0 f i libvcruntimed:per_thread_data.obj
 0001:00031220       ?get@?$__crt_unique_heap_ptr@U__vcrt_ptd@@U__crt_internal_free_policy@@@@QBEPAU__vcrt_ptd@@XZ 10032220 f i libvcruntimed:per_thread_data.obj
 0001:00031230       ?is_valid@?$__crt_unique_heap_ptr@U__vcrt_ptd@@U__crt_internal_free_policy@@@@QBE_NXZ 10032230 f i libvcruntimed:per_thread_data.obj
 0001:00031260       ?release@?$__crt_unique_heap_ptr@U__vcrt_ptd@@U__crt_internal_free_policy@@@@QAEXXZ 10032260 f i libvcruntimed:per_thread_data.obj
 0001:000312c0       ___vcrt_freefls@4          100322c0 f   libvcruntimed:per_thread_data.obj
 0001:000312f0       ___vcrt_freeptd            100322f0 f   libvcruntimed:per_thread_data.obj
 0001:00031350       ___vcrt_getptd             10032350 f   libvcruntimed:per_thread_data.obj
 0001:00031370       ___vcrt_getptd_noexit      10032370 f   libvcruntimed:per_thread_data.obj
 0001:000314d0       ___vcrt_getptd_noinit      100324d0 f   libvcruntimed:per_thread_data.obj
 0001:00031530       ___vcrt_initialize_ptd     10032530 f   libvcruntimed:per_thread_data.obj
 0001:00031580       ___vcrt_uninitialize_ptd   10032580 f   libvcruntimed:per_thread_data.obj
 0001:000315b0       ___vcrt_initialize_locks   100325b0 f   libvcruntimed:locks.obj
 0001:00031610       ___vcrt_lock               10032610 f   libvcruntimed:locks.obj
 0001:00031630       ___vcrt_uninitialize_locks 10032630 f   libvcruntimed:locks.obj
 0001:00031680       ___vcrt_unlock             10032680 f   libvcruntimed:locks.obj
 0001:00032210       ??$TypeMatchHelper@V__FrameHandler3@@@@YAHPBU_s_HandlerType@@PBU_s_CatchableType@@PBU_s_ThrowInfo@@@Z 10033210 f i libvcruntimed:frame.obj
 0001:000322f0       ??$__InternalCxxFrameHandler@V__FrameHandler3@@@@YA?AW4_EXCEPTION_DISPOSITION@@PAUEHExceptionRecord@@PAUEHRegistrationNode@@PAU_CONTEXT@@PAXPBU_s_FuncInfo@@H1E@Z 100332f0 f i libvcruntimed:frame.obj
 0001:000324b0       ??0HandlerMap@__FrameHandler3@@QAE@PBU_s_TryBlockMapEntry@@II@Z 100334b0 f i libvcruntimed:frame.obj
 0001:000324e0       ??0TryBlockMap@__FrameHandler3@@QAE@PBU_s_FuncInfo@@I@Z 100334e0 f i libvcruntimed:frame.obj
 0001:00032510       ??0bad_exception@std@@QAE@ABV01@@Z 10033510 f i libvcruntimed:frame.obj
 0001:00032540       ??0bad_exception@std@@QAE@XZ 10033540 f i libvcruntimed:frame.obj
 0001:00032570       ??0iterator@HandlerMap@__FrameHandler3@@QAE@AAV12@I@Z 10033570 f i libvcruntimed:frame.obj
 0001:000325a0       ??1bad_exception@std@@UAE@XZ 100335a0 f i libvcruntimed:frame.obj
 0001:000325c0       ??8iterator@HandlerMap@__FrameHandler3@@QBE_NABV012@@Z 100335c0 f i libvcruntimed:frame.obj
 0001:000325f0       ??8type_info@@QBE_NABV0@@Z 100335f0 f i libvcruntimed:frame.obj
 0001:00032630       ??9iterator@HandlerMap@__FrameHandler3@@QBE_NABV012@@Z 10033630 f i libvcruntimed:frame.obj
 0001:00032670       ??Diterator@HandlerMap@__FrameHandler3@@QAE?BU_s_HandlerType@@XZ 10033670 f i libvcruntimed:frame.obj
 0001:000326b0       ??Diterator@TryBlockMap@__FrameHandler3@@QAE?BU_s_TryBlockMapEntry@@XZ 100336b0 f i libvcruntimed:frame.obj
 0001:00032700       ??Eiterator@HandlerMap@__FrameHandler3@@QAEAAV012@XZ 10033700 f i libvcruntimed:frame.obj
 0001:00032720       ??Eiterator@TryBlockMap@__FrameHandler3@@QAEAAV012@XZ 10033720 f i libvcruntimed:frame.obj
 0001:00032740       ??Miterator@TryBlockMap@__FrameHandler3@@QBE_NABV012@@Z 10033740 f i libvcruntimed:frame.obj
 0001:00032770       ??_Gbad_exception@std@@UAEPAXI@Z 10033770 f i libvcruntimed:frame.obj
 0001:00032770       ??_Ebad_exception@std@@UAEPAXI@Z 10033770 f i libvcruntimed:frame.obj
 0001:000327a0       ?BuildCatchObject@__FrameHandler3@@SAXPAUEHExceptionRecord@@PAXPBU_s_HandlerType@@PBU_s_CatchableType@@@Z 100337a0 f   libvcruntimed:frame.obj
 0001:000327c0       ?BuildCatchObjectHelper@__FrameHandler3@@SAHPAUEHExceptionRecord@@PAXPBU_s_HandlerType@@PBU_s_CatchableType@@@Z 100337c0 f   libvcruntimed:frame.obj
 0001:00032b60       ?FrameUnwindToEmptyState@__FrameHandler3@@SAXPAUEHRegistrationNode@@PAXPBU_s_FuncInfo@@@Z 10033b60 f   libvcruntimed:frame.obj
 0001:00032b80       ?FrameUnwindToState@__FrameHandler3@@SAXPAUEHRegistrationNode@@PAXPBU_s_FuncInfo@@H@Z 10033b80 f   libvcruntimed:frame.obj
 0001:00032d00       ?GetMaxState@__FrameHandler3@@SAHPAXPBU_s_FuncInfo@@@Z 10033d00 f i libvcruntimed:frame.obj
 0001:00032e20       ?TypeMatch@__FrameHandler3@@SAHPBU_s_HandlerType@@PBU_s_CatchableType@@PBU_s_ThrowInfo@@@Z 10033e20 f   libvcruntimed:frame.obj
 0001:00032e40       ?_CallMemberFunction1@@YGXQAX00@Z 10033e40 f i libvcruntimed:frame.obj
 0001:00032e70       ?_CallMemberFunction2@@YGXQAX00H@Z 10033e70 f i libvcruntimed:frame.obj
 0001:00032ea0       ?begin@HandlerMap@__FrameHandler3@@QAE?AViterator@12@XZ 10033ea0 f i libvcruntimed:frame.obj
 0001:00032ec0       ?end@HandlerMap@__FrameHandler3@@QAE?AViterator@12@XZ 10033ec0 f i libvcruntimed:frame.obj
 0001:00032ef0       ?getESTypes@__FrameHandler3@@SAPBU_s_ESTypeList@@PBU_s_FuncInfo@@@Z 10033ef0 f i libvcruntimed:frame.obj
 0001:00032f00       ?getLastEntry@HandlerMap@__FrameHandler3@@QAEPBU_s_HandlerType@@XZ 10033f00 f i libvcruntimed:frame.obj
 0001:00032f20       ?getMagicNum@__FrameHandler3@@SAIPBU_s_FuncInfo@@@Z 10033f20 f i libvcruntimed:frame.obj
 0001:00032f30       ?getNumTryBlocks@TryBlockMap@__FrameHandler3@@QAEIXZ 10033f30 f i libvcruntimed:frame.obj
 0001:00032f50       ?isEHs@__FrameHandler3@@SA_NPBU_s_FuncInfo@@@Z 10033f50 f i libvcruntimed:frame.obj
 0001:00032f80       ?isNoExcept@__FrameHandler3@@SA_NPBU_s_FuncInfo@@@Z 10033f80 f i libvcruntimed:frame.obj
 0001:00032fb0       ___BuildCatchObject        10033fb0 f   libvcruntimed:frame.obj
 0001:00032fd0       ___BuildCatchObjectHelper  10033fd0 f   libvcruntimed:frame.obj
 0001:00032ff0       ___TypeMatch               10033ff0 f   libvcruntimed:frame.obj
 0001:00033010       ___vcrt_EncodePointer      10034010 f i libvcruntimed:frame.obj
 0001:00033020       __CallSettingFrame@12      10034020 f   libvcruntimed:lowhelpr.obj
 0001:00033047       __NLG_Return               10034047     libvcruntimed:lowhelpr.obj
 0001:00033070       ??$?0$00@DName@@QAE@PBDU?$StringLifeSelector@$00@@@Z 10034070 f i libvcruntimed:undname.obj
 0001:000330c0       ??$?0$00@pcharNode@@QAE@PBDHU?$StringLifeSelector@$00@@@Z 100340c0 f i libvcruntimed:undname.obj
 0001:00033100       ??$?0$01@DName@@QAE@PBDU?$StringLifeSelector@$01@@@Z 10034100 f i libvcruntimed:undname.obj
 0001:00033150       ??$?0$01@pcharNode@@QAE@PBDHU?$StringLifeSelector@$01@@@Z 10034150 f i libvcruntimed:undname.obj
 0001:000331d0       ??$?0$0A@@DName@@QAE@PBDU?$StringLifeSelector@$0A@@@@Z 100341d0 f i libvcruntimed:undname.obj
 0001:00033220       ??$?0$0A@@pcharNode@@QAE@PBDHU?$StringLifeSelector@$0A@@@@Z 10034220 f i libvcruntimed:undname.obj
 0001:000332a0       ??$?0_K$0A@@?$optional@_K@std@@QAE@$$QA_K@Z 100342a0 f i libvcruntimed:undname.obj
 0001:000332e0       ??$?0_K@?$_Optional_construct_base@_K@std@@QAE@Uin_place_t@1@$$QA_K@Z 100342e0 f i libvcruntimed:undname.obj
 0001:00033310       ??$?0_K@?$_Optional_destruct_base@_K$00@std@@QAE@Uin_place_t@1@$$QA_K@Z 10034310 f i libvcruntimed:undname.obj
 0001:00033340       ??$append@VDNameNode@@@DName@@AAEXPBVDNameNode@@@Z 10034340 f i libvcruntimed:undname.obj
 0001:000333d0       ??$append@VDNameStatusNode@@@DName@@AAEXPBVDNameStatusNode@@@Z 100343d0 f i libvcruntimed:undname.obj
 0001:00033460       ??$append@VcharNode@@@DName@@AAEXPBVcharNode@@@Z 10034460 f i libvcruntimed:undname.obj
 0001:000334f0       ??$append@VpDNameNode@@@DName@@AAEXPBVpDNameNode@@@Z 100344f0 f i libvcruntimed:undname.obj
 0001:00033580       ??$append@VpcharNode@@@DName@@AAEXPBVpcharNode@@@Z 10034580 f i libvcruntimed:undname.obj
 0001:00033610       ??$doPchar@$00@DName@@AAEXPBDH@Z 10034610 f i libvcruntimed:undname.obj
 0001:00033720       ??$doPchar@$01@DName@@AAEXPBDH@Z 10034720 f i libvcruntimed:undname.obj
 0001:00033830       ??$doPchar@$0A@@DName@@AAEXPBDH@Z 10034830 f i libvcruntimed:undname.obj
 0001:00033940       ??$forward@_K@std@@YA$$QA_KAA_K@Z 10034940 f i libvcruntimed:undname.obj
 0001:00033950       ??$size@D$04@std@@YAIAAY04$$CBD@Z 10034950 f i libvcruntimed:undname.obj
 0001:00033960       ??$size@D$0EB@@std@@YAIAAY0EB@$$CBD@Z 10034960 f i libvcruntimed:undname.obj
 0001:00033970       ??0?$_Optional_construct_base@_K@std@@QAE@XZ 10034970 f i libvcruntimed:undname.obj
 0001:00033990       ??0?$_Optional_destruct_base@_K$00@std@@QAE@XZ 10034990 f i libvcruntimed:undname.obj
 0001:000339b0       ??0?$optional@_K@std@@QAE@XZ 100349b0 f i libvcruntimed:undname.obj
 0001:000339d0       ??0Block@_HeapManager@@QAE@XZ 100349d0 f i libvcruntimed:undname.obj
 0001:000339f0       ??0DName@@QAE@AAPBDD@Z     100349f0 f   libvcruntimed:undname.obj
 0001:00033b60       ??0DName@@QAE@ABUStringLiteral@@@Z 10034b60 f   libvcruntimed:undname.obj
 0001:00033bb0       ??0DName@@QAE@ABV0@@Z      10034bb0 f i libvcruntimed:undname.obj
 0001:00033be0       ??0DName@@QAE@D@Z          10034be0 f   libvcruntimed:undname.obj
 0001:00033c10       ??0DName@@QAE@PAV0@@Z      10034c10 f   libvcruntimed:undname.obj
 0001:00033cc0       ??0DName@@QAE@W4DNameStatus@@@Z 10034cc0 f   libvcruntimed:undname.obj
 0001:00033d60       ??0DName@@QAE@XZ           10034d60 f i libvcruntimed:undname.obj
 0001:00033d90       ??0DName@@QAE@_J@Z         10034d90 f   libvcruntimed:undname.obj
 0001:00033e80       ??0DName@@QAE@_K@Z         10034e80 f   libvcruntimed:undname.obj
 0001:00033f30       ??0DNameNode@@IAE@XZ       10034f30 f i libvcruntimed:undname.obj
 0001:00033f50       ??0Replicator@@QAE@XZ      10034f50 f i libvcruntimed:undname.obj
 0001:00033f90       ??0UnDecorator@@QAE@PBDP6APADJ@ZK@Z 10034f90 f i libvcruntimed:undname.obj
 0001:00034010       ??0_Nontrivial_dummy_type@std@@QAE@XZ 10035010 f i libvcruntimed:undname.obj
 0001:00034020       ??0charNode@@QAE@D@Z       10035020 f i libvcruntimed:undname.obj
 0001:00034050       ??0pDNameNode@@QAE@PAVDName@@@Z 10035050 f   libvcruntimed:undname.obj
 0001:000340b0       ??0pairNode@@QAE@PBVDNameNode@@0@Z 100350b0 f i libvcruntimed:undname.obj
 0001:00034110       ??2@YAPAXIAAV_HeapManager@@H@Z 10035110 f   libvcruntimed:undname.obj
 0001:00034150       ??4DName@@QAEAAV0@ABUStringLiteral@@@Z 10035150 f   libvcruntimed:undname.obj
 0001:00034190       ??4DName@@QAEAAV0@ABV0@@Z  10035190 f   libvcruntimed:undname.obj
 0001:000341c0       ??4DName@@QAEAAV0@D@Z      100351c0 f i libvcruntimed:undname.obj
 0001:000341f0       ??4DName@@QAEAAV0@PAV0@@Z  100351f0 f   libvcruntimed:undname.obj
 0001:00034290       ??4DName@@QAEAAV0@W4DNameStatus@@@Z 10035290 f   libvcruntimed:undname.obj
 0001:00034310       ??AReplicator@@QBE?AVDName@@H@Z 10035310 f   libvcruntimed:undname.obj
 0001:00034380       ??B?$optional@_K@std@@QBE_NXZ 10035380 f i libvcruntimed:undname.obj
 0001:000343a0       ??D?$optional@_K@std@@QGAEAA_KXZ 100353a0 f i libvcruntimed:undname.obj
 0001:000343b0       ??H@YA?AVDName@@ABUStringLiteral@@ABV0@@Z 100353b0 f i libvcruntimed:undname.obj
 0001:000343e0       ??H@YA?AVDName@@DABV0@@Z   100353e0 f i libvcruntimed:undname.obj
 0001:00034410       ??H@YA?AVDName@@W4DNameStatus@@ABV0@@Z 10035410 f i libvcruntimed:undname.obj
 0001:00034440       ??HDName@@QBE?AV0@ABUStringLiteral@@@Z 10035440 f   libvcruntimed:undname.obj
 0001:00034480       ??HDName@@QBE?AV0@ABV0@@Z  10035480 f   libvcruntimed:undname.obj
 0001:000344c0       ??HDName@@QBE?AV0@D@Z      100354c0 f   libvcruntimed:undname.obj
 0001:00034500       ??HDName@@QBE?AV0@PAV0@@Z  10035500 f   libvcruntimed:undname.obj
 0001:00034540       ??HDName@@QBE?AV0@W4DNameStatus@@@Z 10035540 f   libvcruntimed:undname.obj
 0001:00034580       ??HStringLiteral@@QBE?AU0@H@Z 10035580 f i libvcruntimed:undname.obj
 0001:000345b0       ??YDName@@QAEAAV0@ABUStringLiteral@@@Z 100355b0 f   libvcruntimed:undname.obj
 0001:00034650       ??YDName@@QAEAAV0@ABV0@@Z  10035650 f   libvcruntimed:undname.obj
 0001:000346f0       ??YDName@@QAEAAV0@D@Z      100356f0 f   libvcruntimed:undname.obj
 0001:00034770       ??YDName@@QAEAAV0@PAV0@@Z  10035770 f   libvcruntimed:undname.obj
 0001:00034820       ??YDName@@QAEAAV0@W4DNameStatus@@@Z 10035820 f   libvcruntimed:undname.obj
 0001:00034880       ??YReplicator@@QAEAAV0@ABVDName@@@Z 10035880 f   libvcruntimed:undname.obj
 0001:00034910       ??_5DName@@QAEAAV0@ABV0@@Z 10035910 f   libvcruntimed:undname.obj
 0001:00034970       ??__K_l@@YA?AUStringLiteral@@PBDI@Z 10035970 f i libvcruntimed:undname.obj
 0001:00034990       ?Constructor@_HeapManager@@QAEXP6APAXI@ZP6AXPAX@Z@Z 10035990 f i libvcruntimed:undname.obj
 0001:000349d0       ?Destructor@_HeapManager@@QAEXXZ 100359d0 f i libvcruntimed:undname.obj
 0001:00034a40       ?UScore@UnDecorator@@SA?AUStringLiteral@@W4Tokens@@@Z 10035a40 f   libvcruntimed:undname.obj
 0001:00034a90       ?composeDeclaration@UnDecorator@@CA?AVDName@@ABV2@@Z 10035a90 f i libvcruntimed:undname.obj
 0001:00036a00       ?dbGetString@DName@@QBEPADXZ 10037a00 f   libvcruntimed:undname.obj
 0001:00036a20       ?doAccessSpecifiers@UnDecorator@@SAHXZ 10037a20 f i libvcruntimed:undname.obj
 0001:00036a50       ?doAllocationLanguage@UnDecorator@@SAHXZ 10037a50 f i libvcruntimed:undname.obj
 0001:00036a80       ?doAllocationModel@UnDecorator@@SAHXZ 10037a80 f i libvcruntimed:undname.obj
 0001:00036ab0       ?doEcsu@UnDecorator@@SAHXZ 10037ab0 f i libvcruntimed:undname.obj
 0001:00036ae0       ?doEllipsis@UnDecorator@@SAHXZ 10037ae0 f i libvcruntimed:undname.obj
 0001:00036b10       ?doFunctionReturns@UnDecorator@@SAHXZ 10037b10 f i libvcruntimed:undname.obj
 0001:00036b40       ?doMSKeywords@UnDecorator@@SAHXZ 10037b40 f i libvcruntimed:undname.obj
 0001:00036b70       ?doMemberTypes@UnDecorator@@SAHXZ 10037b70 f i libvcruntimed:undname.obj
 0001:00036ba0       ?doNameOnly@UnDecorator@@SAHXZ 10037ba0 f i libvcruntimed:undname.obj
 0001:00036bb0       ?doNoIdentCharCheck@UnDecorator@@SAHXZ 10037bb0 f i libvcruntimed:undname.obj
 0001:00036bc0       ?doPchar@DName@@AAEXD@Z    10037bc0 f   libvcruntimed:undname.obj
 0001:00036c30       ?doPtr64@UnDecorator@@SAHXZ 10037c30 f i libvcruntimed:undname.obj
 0001:00036c60       ?doRestrictionSpec@UnDecorator@@SAHXZ 10037c60 f i libvcruntimed:undname.obj
 0001:00036c90       ?doThisTypes@UnDecorator@@SAHXZ 10037c90 f i libvcruntimed:undname.obj
 0001:00036cc0       ?doThrowTypes@UnDecorator@@SAHXZ 10037cc0 f i libvcruntimed:undname.obj
 0001:00036cf0       ?doTypeOnly@UnDecorator@@SAHXZ 10037cf0 f i libvcruntimed:undname.obj
 0001:00036d00       ?doUnderScore@UnDecorator@@SAHXZ 10037d00 f i libvcruntimed:undname.obj
 0001:00036d30       ?getArgumentList@UnDecorator@@CA?AVDName@@XZ 10037d30 f   libvcruntimed:undname.obj
 0001:00036e80       ?getArgumentTypes@UnDecorator@@CA?AVDName@@XZ 10037e80 f   libvcruntimed:undname.obj
 0001:00037090       ?getArrayObject@UnDecorator@@CA?AVDName@@XZ 10038090 f   libvcruntimed:undname.obj
 0001:00037170       ?getArrayType@UnDecorator@@CA?AVDName@@ABV2@@Z 10038170 f i libvcruntimed:undname.obj
 0001:00037410       ?getBasedType@UnDecorator@@CA?AVDName@@XZ 10038410 f   libvcruntimed:undname.obj
 0001:00037500       ?getBasicDataType@UnDecorator@@CA?AVDName@@ABV2@@Z 10038500 f   libvcruntimed:undname.obj
 0001:00037e10       ?getCHPEName@UnDecorator@@QAEPADPADH@Z 10038e10 f i libvcruntimed:undname.obj
 0001:00037f70       ?getCallIndex@UnDecorator@@CA?AVDName@@XZ 10038f70 f i libvcruntimed:undname.obj
 0001:00037f90       ?getCallingConvention@UnDecorator@@CA?AVDName@@XZ 10038f90 f   libvcruntimed:undname.obj
 0001:000381d0       ?getDataIndirectType@UnDecorator@@CA?AVDName@@ABV2@W4IndirectionKind@@0H@Z 100391d0 f   libvcruntimed:undname.obj
 0001:00038af0       ?getDataIndirectType@UnDecorator@@CA?AVDName@@XZ 10039af0 f i libvcruntimed:undname.obj
 0001:00038b30       ?getDataType@UnDecorator@@CA?AVDName@@PAV2@@Z 10039b30 f   libvcruntimed:undname.obj
 0001:00038c70       ?getDecoratedName@UnDecorator@@CA?AVDName@@XZ 10039c70 f   libvcruntimed:undname.obj
 0001:000390b0       ?getDimension@UnDecorator@@CA?AVDName@@_N@Z 1003a0b0 f   libvcruntimed:undname.obj
 0001:00039310       ?getDispatchTarget@UnDecorator@@CA?AVDName@@XZ 1003a310 f   libvcruntimed:undname.obj
 0001:000393b0       ?getDisplacement@UnDecorator@@CA?AVDName@@XZ 1003a3b0 f i libvcruntimed:undname.obj
 0001:000393d0       ?getECSUDataType@UnDecorator@@CA?AVDName@@XZ 1003a3d0 f   libvcruntimed:undname.obj
 0001:00039630       ?getECSUName@UnDecorator@@CA?AVDName@@XZ 1003a630 f i libvcruntimed:undname.obj
 0001:00039650       ?getEnumType@UnDecorator@@CA?AVDName@@XZ 1003a650 f i libvcruntimed:undname.obj
 0001:00039800       ?getExtendedDataIndirectType@UnDecorator@@CA?AVDName@@AAW4IndirectionKind@@AA_NH@Z 1003a800 f   libvcruntimed:undname.obj
 0001:00039a50       ?getExternalDataType@UnDecorator@@CA?AVDName@@ABV2@@Z 1003aa50 f i libvcruntimed:undname.obj
 0001:00039af0       ?getFloatingPoint@UnDecorator@@CA?AVDName@@H@Z 1003aaf0 f   libvcruntimed:undname.obj
 0001:00039ca0       ?getFunctionIndirectType@UnDecorator@@CA?AVDName@@ABV2@@Z 1003aca0 f   libvcruntimed:undname.obj
 0001:0003a180       ?getGuardNumber@UnDecorator@@CA?AVDName@@XZ 1003b180 f i libvcruntimed:undname.obj
 0001:0003a1a0       ?getLastChar@DName@@QBEDXZ 1003b1a0 f i libvcruntimed:undname.obj
 0001:0003a1e0       ?getLastChar@DNameStatusNode@@UBEDXZ 1003b1e0 f i libvcruntimed:undname.obj
 0001:0003a210       ?getLastChar@charNode@@UBEDXZ 1003b210 f i libvcruntimed:undname.obj
 0001:0003a230       ?getLastChar@pDNameNode@@UBEDXZ 1003b230 f i libvcruntimed:undname.obj
 0001:0003a260       ?getLastChar@pairNode@@UBEDXZ 1003b260 f i libvcruntimed:undname.obj
 0001:0003a2d0       ?getLastChar@pcharNode@@UBEDXZ 1003b2d0 f i libvcruntimed:undname.obj
 0001:0003a310       ?getLexicalFrame@UnDecorator@@CA?AVDName@@XZ 1003b310 f i libvcruntimed:undname.obj
 0001:0003a350       ?getMemoryWithBuffer@_HeapManager@@QAEPAXI@Z 1003b350 f   libvcruntimed:undname.obj
 0001:0003a440       ?getMemoryWithoutBuffer@_HeapManager@@QAEPAXI@Z 1003b440 f   libvcruntimed:undname.obj
 0001:0003a480       ?getNoexcept@UnDecorator@@CA?AVDName@@XZ 1003b480 f   libvcruntimed:undname.obj
 0001:0003a500       ?getNumberOfDimensions@UnDecorator@@CAHXZ 1003b500 f   libvcruntimed:undname.obj
 0001:0003a600       ?getOperatorName@UnDecorator@@CA?AVDName@@_NPA_N@Z 1003b600 f i libvcruntimed:undname.obj
 0001:0003b0f0       ?getPointerType@UnDecorator@@CA?AVDName@@ABV2@0@Z 1003c0f0 f i libvcruntimed:undname.obj
 0001:0003b110       ?getPointerTypeArray@UnDecorator@@CA?AVDName@@ABV2@0@Z 1003c110 f i libvcruntimed:undname.obj
 0001:0003b130       ?getPrimaryDataType@UnDecorator@@CA?AVDName@@ABV2@@Z 1003c130 f   libvcruntimed:undname.obj
 0001:0003b5c0       ?getPtrRefDataType@UnDecorator@@CA?AVDName@@ABV2@H@Z 1003c5c0 f   libvcruntimed:undname.obj
 0001:0003b870       ?getPtrRefType@UnDecorator@@CA?AVDName@@ABV2@0W4IndirectionKind@@@Z 1003c870 f   libvcruntimed:undname.obj
 0001:0003b9f0       ?getReferenceType@UnDecorator@@CA?AVDName@@ABV2@0W4IndirectionKind@@@Z 1003c9f0 f i libvcruntimed:undname.obj
 0001:0003ba10       ?getRestrictionSpec@UnDecorator@@CA?AVDName@@XZ 1003ca10 f   libvcruntimed:undname.obj
 0001:0003bbd0       ?getReturnType@UnDecorator@@CA?AVDName@@PAV2@@Z 1003cbd0 f   libvcruntimed:undname.obj
 0001:0003bc20       ?getScope@UnDecorator@@CA?AVDName@@XZ 1003cc20 f   libvcruntimed:undname.obj
 0001:0003c1b0       ?getScopedName@UnDecorator@@CA?AVDName@@XZ 1003d1b0 f   libvcruntimed:undname.obj
 0001:0003c300       ?getSignedDimension@UnDecorator@@CA?AVDName@@XZ 1003d300 f   libvcruntimed:undname.obj
 0001:0003c380       ?getStorageConvention@UnDecorator@@CA?AVDName@@XZ 1003d380 f i libvcruntimed:undname.obj
 0001:0003c3a0       ?getString@DName@@QBEPADPAD0@Z 1003d3a0 f i libvcruntimed:undname.obj
 0001:0003c400       ?getString@DName@@QBEPADPADH@Z 1003d400 f i libvcruntimed:undname.obj
 0001:0003c490       ?getString@DNameStatusNode@@UBEPADPAD0@Z 1003d490 f i libvcruntimed:undname.obj
 0001:0003c4d0       ?getString@charNode@@UBEPADPAD0@Z 1003d4d0 f i libvcruntimed:undname.obj
 0001:0003c500       ?getString@pDNameNode@@UBEPADPAD0@Z 1003d500 f i libvcruntimed:undname.obj
 0001:0003c540       ?getString@pairNode@@UBEPADPAD0@Z 1003d540 f i libvcruntimed:undname.obj
 0001:0003c5d0       ?getString@pcharNode@@UBEPADPAD0@Z 1003d5d0 f i libvcruntimed:undname.obj
 0001:0003c600       ?getStringEncoding@UnDecorator@@CA?AVDName@@W4PrefixKind@@H@Z 1003d600 f   libvcruntimed:undname.obj
 0001:0003c710       ?getStringHelper@@YAPADPADPBD1H@Z 1003d710 f i libvcruntimed:undname.obj
 0001:0003c750       ?getStringObject@UnDecorator@@CA?AVDName@@XZ 1003d750 f   libvcruntimed:undname.obj
 0001:0003c800       ?getSymbolName@UnDecorator@@CA?AVDName@@XZ 1003d800 f i libvcruntimed:undname.obj
 0001:0003c890       ?getTemplateArgumentList@UnDecorator@@CA?AVDName@@XZ 1003d890 f   libvcruntimed:undname.obj
 0001:0003cb80       ?getTemplateName@UnDecorator@@CA?AVDName@@_N@Z 1003db80 f   libvcruntimed:undname.obj
 0001:0003cd40       ?getTemplateNonTypeArgument@UnDecorator@@CA?AVDName@@XZ 1003dd40 f   libvcruntimed:undname.obj
 0001:0003d280       ?getTemplateTypeArgument@UnDecorator@@CA?AVDName@@XZ 1003e280 f   libvcruntimed:undname.obj
 0001:0003d420       ?getThisType@UnDecorator@@CA?AVDName@@XZ 1003e420 f i libvcruntimed:undname.obj
 0001:0003d460       ?getThrowTypes@UnDecorator@@CA?AVDName@@XZ 1003e460 f   libvcruntimed:undname.obj
 0001:0003d4a0       ?getTypeEncoding@UnDecorator@@CAHXZ 1003e4a0 f i libvcruntimed:undname.obj
 0001:0003df60       ?getUndecoratedName@UnDecorator@@QAEPADPADH@Z 1003ef60 f i libvcruntimed:undname.obj
 0001:0003e0c0       ?getVCallThunkType@UnDecorator@@CA?AVDName@@XZ 1003f0c0 f i libvcruntimed:undname.obj
 0001:0003e140       ?getValue@UnDecorator@@CA?AV?$optional@_K@std@@XZ 1003f140 f   libvcruntimed:undname.obj
 0001:0003e200       ?getValueObject@UnDecorator@@CA?AVDName@@XZ 1003f200 f   libvcruntimed:undname.obj
 0001:0003e3c0       ?getVbTableType@UnDecorator@@CA?AVDName@@ABV2@@Z 1003f3c0 f i libvcruntimed:undname.obj
 0001:0003e3e0       ?getVdispMapType@UnDecorator@@CA?AVDName@@ABV2@@Z 1003f3e0 f i libvcruntimed:undname.obj
 0001:0003e470       ?getVfTableType@UnDecorator@@CA?AVDName@@ABV2@@Z 1003f470 f i libvcruntimed:undname.obj
 0001:0003e670       ?getZName@UnDecorator@@CA?AVDName@@_N0@Z 1003f670 f   libvcruntimed:undname.obj
 0001:0003e9b0       ?haveTemplateParameters@UnDecorator@@SAHXZ 1003f9b0 f i libvcruntimed:undname.obj
 0001:0003e9c0       ?isArray@DName@@QBEHXZ     1003f9c0 f i libvcruntimed:undname.obj
 0001:0003e9e0       ?isComArray@DName@@QBEHXZ  1003f9e0 f i libvcruntimed:undname.obj
 0001:0003ea00       ?isEmpty@DName@@QBEHXZ     1003fa00 f i libvcruntimed:undname.obj
 0001:0003ea30       ?isFull@Replicator@@QBEHXZ 1003fa30 f i libvcruntimed:undname.obj
 0001:0003ea60       ?isNoTE@DName@@QBEHXZ      1003fa60 f i libvcruntimed:undname.obj
 0001:0003ea80       ?isPinPtr@DName@@QBEHXZ    1003fa80 f i libvcruntimed:undname.obj
 0001:0003eaa0       ?isPtrRef@DName@@QBEHXZ    1003faa0 f i libvcruntimed:undname.obj
 0001:0003eac0       ?isUDC@DName@@QBEHXZ       1003fac0 f i libvcruntimed:undname.obj
 0001:0003eb00       ?isUDTThunk@DName@@QBEHXZ  1003fb00 f i libvcruntimed:undname.obj
 0001:0003eb40       ?isVCallThunk@DName@@QBEHXZ 1003fb40 f i libvcruntimed:undname.obj
 0001:0003eb60       ?isValid@DName@@QBEHXZ     1003fb60 f i libvcruntimed:undname.obj
 0001:0003eba0       ?length@DName@@QBEHXZ      1003fba0 f i libvcruntimed:undname.obj
 0001:0003ebe0       ?length@DNameStatusNode@@UBEHXZ 1003fbe0 f i libvcruntimed:undname.obj
 0001:0003ec00       ?length@charNode@@UBEHXZ   1003fc00 f i libvcruntimed:undname.obj
 0001:0003ec10       ?length@pDNameNode@@UBEHXZ 1003fc10 f i libvcruntimed:undname.obj
 0001:0003ec40       ?length@pairNode@@UBEHXZ   1003fc40 f i libvcruntimed:undname.obj
 0001:0003ecb0       ?length@pcharNode@@UBEHXZ  1003fcb0 f i libvcruntimed:undname.obj
 0001:0003ecd0       ?make@DNameStatusNode@@SAPBV1@W4DNameStatus@@@Z 1003fcd0 f i libvcruntimed:undname.obj
 0001:0003ed00       ?parseDecoratedName@UnDecorator@@CA?AVDName@@XZ 1003fd00 f   libvcruntimed:undname.obj
 0001:0003ee90       ?raw_length@DNameStatusNode@@UBEHXZ 1003fe90 f i libvcruntimed:undname.obj
 0001:0003eeb0       ?raw_length@charNode@@UBEHXZ 1003feb0 f i libvcruntimed:undname.obj
 0001:0003eed0       ?raw_length@pDNameNode@@UBEHXZ 1003fed0 f i libvcruntimed:undname.obj
 0001:0003eee0       ?raw_length@pairNode@@UBEHXZ 1003fee0 f i libvcruntimed:undname.obj
 0001:0003ef00       ?raw_length@pcharNode@@UBEHXZ 1003ff00 f i libvcruntimed:undname.obj
 0001:0003ef20       ?setIsArray@DName@@QAEXXZ  1003ff20 f i libvcruntimed:undname.obj
 0001:0003ef40       ?setIsComArray@DName@@QAEXXZ 1003ff40 f i libvcruntimed:undname.obj
 0001:0003ef60       ?setIsNoTE@DName@@QAEXXZ   1003ff60 f i libvcruntimed:undname.obj
 0001:0003ef80       ?setIsPinPtr@DName@@QAEXXZ 1003ff80 f i libvcruntimed:undname.obj
 0001:0003efa0       ?setIsUDC@DName@@QAEXXZ    1003ffa0 f i libvcruntimed:undname.obj
 0001:0003efd0       ?setIsVCallThunk@DName@@QAEXXZ 1003ffd0 f i libvcruntimed:undname.obj
 0001:0003eff0       ?setPtrRef@DName@@QAEAAV1@XZ 1003fff0 f i libvcruntimed:undname.obj
 0001:0003f010       ?status@DName@@QBE?AW4DNameStatus@@XZ 10040010 f i libvcruntimed:undname.obj
 0001:0003f110       ___unDName                 10040110 f   libvcruntimed:undname.obj
 0001:0003f140       ___unDNameEx               10040140 f   libvcruntimed:undname.obj
 0001:0003f210       _unDNameGenerateCHPE       10040210 f   libvcruntimed:undname.obj
 0001:0003f270       __global_unwind2           10040270 f   libvcruntimed:exsup.obj
 0001:0003f2d6       __local_unwind2            100402d6 f   libvcruntimed:exsup.obj
 0001:0003f35a       __abnormal_termination     1004035a f   libvcruntimed:exsup.obj
 0001:0003f380       __NLG_Notify1              10040380 f   libvcruntimed:exsup.obj
 0001:0003f38c       __NLG_Notify               1004038c f   libvcruntimed:exsup.obj
 0001:0003f3a3       __NLG_Dispatch             100403a3     libvcruntimed:exsup.obj
 0001:0003f3a3       __NLG_Dispatch2            100403a3     libvcruntimed:exsup.obj
 0001:0003f3ab       __NLG_Call                 100403ab f   libvcruntimed:exsup.obj
 0001:0003f3ad       __NLG_Return2              100403ad     libvcruntimed:exsup.obj
 0001:0003f3b0       ??$__crt_interlocked_exchange_pointer@UHINSTANCE__@@PAU1@@@YAPAUHINSTANCE__@@PDSAU0@QAU0@@Z 100403b0 f i libvcruntimed:winapi_downlevel.obj
 0001:0003f3c0       ??$__crt_interlocked_exchange_pointer@UHINSTANCE__@@PAX@@YAPAUHINSTANCE__@@PDSAU0@QAX@Z 100403c0 f i libvcruntimed:winapi_downlevel.obj
 0001:0003f3d0       ??$__crt_interlocked_exchange_pointer@XPAX@@YAPAXPDSAXQAX@Z 100403d0 f i libvcruntimed:winapi_downlevel.obj
 0001:0003f3e0       ??$__crt_interlocked_read_pointer@UHINSTANCE__@@@@YAPAUHINSTANCE__@@PDSAU0@@Z 100403e0 f i libvcruntimed:winapi_downlevel.obj
 0001:0003f400       ??$__crt_interlocked_read_pointer@X@@YAPAXPDSAX@Z 10040400 f i libvcruntimed:winapi_downlevel.obj
 0001:0003f7d0       ___vcrt_FlsAlloc           100407d0 f   libvcruntimed:winapi_downlevel.obj
 0001:0003f810       ___vcrt_FlsFree            10040810 f   libvcruntimed:winapi_downlevel.obj
 0001:0003f850       ___vcrt_FlsGetValue        10040850 f   libvcruntimed:winapi_downlevel.obj
 0001:0003f890       ___vcrt_FlsSetValue        10040890 f   libvcruntimed:winapi_downlevel.obj
 0001:0003f8e0       ___vcrt_InitializeCriticalSectionEx 100408e0 f   libvcruntimed:winapi_downlevel.obj
 0001:0003f960       __get_unexpected           10040960 f   libvcruntimed:unexpected.obj
 0001:0003f980       _set_unexpected            10040980 f   libvcruntimed:unexpected.obj
 0001:0003f9b0       _unexpected                100409b0 f   libvcruntimed:unexpected.obj
 0001:0003f9f0       ?GetCurrentState@__FrameHandler3@@SAHPAUEHRegistrationNode@@PAXPBU_s_FuncInfo@@@Z 100409f0 f   libvcruntimed:ehstate.obj
 0001:0003fa20       ?SetState@__FrameHandler3@@SAXPAUEHRegistrationNode@@PBU_s_FuncInfo@@H@Z 10040a20 f   libvcruntimed:ehstate.obj
 0001:0003fa30       ??$?0ABV?$stream_output_adapter@D@__crt_stdio_output@@AB_KABQBDABQAU__crt_locale_pointers@@ABQAD@?$format_validation_base@DV?$stream_output_adapter@D@__crt_stdio_output@@@__crt_stdio_output@@IAE@ABV?$stream_output_adapter@D@1@AB_KABQBDABQAU__crt_locale_pointers@@ABQAD@Z 10040a30 f i libucrtd:output.obj
 0001:0003fa60       ??$?0ABV?$stream_output_adapter@D@__crt_stdio_output@@AB_KABQBDABQAU__crt_locale_pointers@@ABQAD@?$positional_parameter_base@DV?$stream_output_adapter@D@__crt_stdio_output@@@__crt_stdio_output@@IAE@ABV?$stream_output_adapter@D@1@AB_KABQBDABQAU__crt_locale_pointers@@ABQAD@Z 10040a60 f i libucrtd:output.obj
 0001:0003fae0       ??$?0ABV?$stream_output_adapter@D@__crt_stdio_output@@AB_KABQBDABQAU__crt_locale_pointers@@ABQAD@?$standard_base@DV?$stream_output_adapter@D@__crt_stdio_output@@@__crt_stdio_output@@IAE@ABV?$stream_output_adapter@D@1@AB_KABQBDABQAU__crt_locale_pointers@@ABQAD@Z 10040ae0 f i libucrtd:output.obj
 0001:0003fb30       ??$?0ABV?$stream_output_adapter@_W@__crt_stdio_output@@AB_KABQB_WABQAU__crt_locale_pointers@@ABQAD@?$format_validation_base@_WV?$stream_output_adapter@_W@__crt_stdio_output@@@__crt_stdio_output@@IAE@ABV?$stream_output_adapter@_W@1@AB_KABQB_WABQAU__crt_locale_pointers@@ABQAD@Z 10040b30 f i libucrtd:output.obj
 0001:0003fb60       ??$?0ABV?$stream_output_adapter@_W@__crt_stdio_output@@AB_KABQB_WABQAU__crt_locale_pointers@@ABQAD@?$positional_parameter_base@_WV?$stream_output_adapter@_W@__crt_stdio_output@@@__crt_stdio_output@@IAE@ABV?$stream_output_adapter@_W@1@AB_KABQB_WABQAU__crt_locale_pointers@@ABQAD@Z 10040b60 f i libucrtd:output.obj
 0001:0003fbe0       ??$?0ABV?$stream_output_adapter@_W@__crt_stdio_output@@AB_KABQB_WABQAU__crt_locale_pointers@@ABQAD@?$standard_base@_WV?$stream_output_adapter@_W@__crt_stdio_output@@@__crt_stdio_output@@IAE@ABV?$stream_output_adapter@_W@1@AB_KABQB_WABQAU__crt_locale_pointers@@ABQAD@Z 10040be0 f i libucrtd:output.obj
 0001:0003fc30       ??$?0ABV?$string_output_adapter@D@__crt_stdio_output@@AB_KABQBDABQAU__crt_locale_pointers@@ABQAD@?$format_validation_base@DV?$string_output_adapter@D@__crt_stdio_output@@@__crt_stdio_output@@IAE@ABV?$string_output_adapter@D@1@AB_KABQBDABQAU__crt_locale_pointers@@ABQAD@Z 10040c30 f i libucrtd:output.obj
 0001:0003fc60       ??$?0ABV?$string_output_adapter@D@__crt_stdio_output@@AB_KABQBDABQAU__crt_locale_pointers@@ABQAD@?$positional_parameter_base@DV?$string_output_adapter@D@__crt_stdio_output@@@__crt_stdio_output@@IAE@ABV?$string_output_adapter@D@1@AB_KABQBDABQAU__crt_locale_pointers@@ABQAD@Z 10040c60 f i libucrtd:output.obj
 0001:0003fce0       ??$?0ABV?$string_output_adapter@D@__crt_stdio_output@@AB_KABQBDABQAU__crt_locale_pointers@@ABQAD@?$standard_base@DV?$string_output_adapter@D@__crt_stdio_output@@@__crt_stdio_output@@IAE@ABV?$string_output_adapter@D@1@AB_KABQBDABQAU__crt_locale_pointers@@ABQAD@Z 10040ce0 f i libucrtd:output.obj
 0001:0003fd30       ??$?0ABV?$string_output_adapter@_W@__crt_stdio_output@@AB_KABQB_WABQAU__crt_locale_pointers@@ABQAD@?$format_validation_base@_WV?$string_output_adapter@_W@__crt_stdio_output@@@__crt_stdio_output@@IAE@ABV?$string_output_adapter@_W@1@AB_KABQB_WABQAU__crt_locale_pointers@@ABQAD@Z 10040d30 f i libucrtd:output.obj
 0001:0003fd60       ??$?0ABV?$string_output_adapter@_W@__crt_stdio_output@@AB_KABQB_WABQAU__crt_locale_pointers@@ABQAD@?$positional_parameter_base@_WV?$string_output_adapter@_W@__crt_stdio_output@@@__crt_stdio_output@@IAE@ABV?$string_output_adapter@_W@1@AB_KABQB_WABQAU__crt_locale_pointers@@ABQAD@Z 10040d60 f i libucrtd:output.obj
 0001:0003fde0       ??$?0ABV?$string_output_adapter@_W@__crt_stdio_output@@AB_KABQB_WABQAU__crt_locale_pointers@@ABQAD@?$standard_base@_WV?$string_output_adapter@_W@__crt_stdio_output@@@__crt_stdio_output@@IAE@ABV?$string_output_adapter@_W@1@AB_KABQB_WABQAU__crt_locale_pointers@@ABQAD@Z 10040de0 f i libucrtd:output.obj
 0001:00040310       ??$__crt_interlocked_read@J@@YAJPDJ@Z 10041310 f i libucrtd:output.obj
 0001:000430b0       ??$count@D@formatting_buffer@__crt_stdio_output@@QBEIXZ 100440b0 f i libucrtd:output.obj
 0001:000430f0       ??$count@_W@formatting_buffer@__crt_stdio_output@@QBEIXZ 100440f0 f i libucrtd:output.obj
 0001:00043130       ??$data@D@formatting_buffer@__crt_stdio_output@@QAEPADXZ 10044130 f i libucrtd:output.obj
 0001:00043170       ??$data@_W@formatting_buffer@__crt_stdio_output@@QAEPA_WXZ 10044170 f i libucrtd:output.obj
 0001:000431b0       ??$ensure_buffer_is_big_enough@D@formatting_buffer@__crt_stdio_output@@QAE_NI@Z 100441b0 f i libucrtd:output.obj
 0001:00043290       ??$ensure_buffer_is_big_enough@_W@formatting_buffer@__crt_stdio_output@@QAE_NI@Z 10044290 f i libucrtd:output.obj
 0001:00043380       ??$extract_argument_from_va_list@C_J@?$positional_parameter_base@DV?$stream_output_adapter@D@__crt_stdio_output@@@__crt_stdio_output@@IAE_NAA_J@Z 10044380 f i libucrtd:output.obj
 0001:000434c0       ??$extract_argument_from_va_list@C_J@?$positional_parameter_base@DV?$string_output_adapter@D@__crt_stdio_output@@@__crt_stdio_output@@IAE_NAA_J@Z 100444c0 f i libucrtd:output.obj
 0001:00043600       ??$extract_argument_from_va_list@C_J@?$positional_parameter_base@_WV?$stream_output_adapter@_W@__crt_stdio_output@@@__crt_stdio_output@@IAE_NAA_J@Z 10044600 f i libucrtd:output.obj
 0001:00043740       ??$extract_argument_from_va_list@C_J@?$positional_parameter_base@_WV?$string_output_adapter@_W@__crt_stdio_output@@@__crt_stdio_output@@IAE_NAA_J@Z 10044740 f i libucrtd:output.obj
 0001:00043880       ??$extract_argument_from_va_list@C_J@?$standard_base@DV?$stream_output_adapter@D@__crt_stdio_output@@@__crt_stdio_output@@IAE_NAA_J@Z 10044880 f i libucrtd:output.obj
 0001:000438b0       ??$extract_argument_from_va_list@C_J@?$standard_base@DV?$string_output_adapter@D@__crt_stdio_output@@@__crt_stdio_output@@IAE_NAA_J@Z 100448b0 f i libucrtd:output.obj
 0001:000438e0       ??$extract_argument_from_va_list@C_J@?$standard_base@_WV?$stream_output_adapter@_W@__crt_stdio_output@@@__crt_stdio_output@@IAE_NAA_J@Z 100448e0 f i libucrtd:output.obj
 0001:00043910       ??$extract_argument_from_va_list@C_J@?$standard_base@_WV?$string_output_adapter@_W@__crt_stdio_output@@@__crt_stdio_output@@IAE_NAA_J@Z 10044910 f i libucrtd:output.obj
 0001:00043940       ??$extract_argument_from_va_list@E_J@?$positional_parameter_base@DV?$stream_output_adapter@D@__crt_stdio_output@@@__crt_stdio_output@@IAE_NAA_J@Z 10044940 f i libucrtd:output.obj
 0001:00043a80       ??$extract_argument_from_va_list@E_J@?$positional_parameter_base@DV?$string_output_adapter@D@__crt_stdio_output@@@__crt_stdio_output@@IAE_NAA_J@Z 10044a80 f i libucrtd:output.obj
 0001:00043bc0       ??$extract_argument_from_va_list@E_J@?$positional_parameter_base@_WV?$stream_output_adapter@_W@__crt_stdio_output@@@__crt_stdio_output@@IAE_NAA_J@Z 10044bc0 f i libucrtd:output.obj
 0001:00043d00       ??$extract_argument_from_va_list@E_J@?$positional_parameter_base@_WV?$string_output_adapter@_W@__crt_stdio_output@@@__crt_stdio_output@@IAE_NAA_J@Z 10044d00 f i libucrtd:output.obj
 0001:00043e40       ??$extract_argument_from_va_list@E_J@?$standard_base@DV?$stream_output_adapter@D@__crt_stdio_output@@@__crt_stdio_output@@IAE_NAA_J@Z 10044e40 f i libucrtd:output.obj
 0001:00043e70       ??$extract_argument_from_va_list@E_J@?$standard_base@DV?$string_output_adapter@D@__crt_stdio_output@@@__crt_stdio_output@@IAE_NAA_J@Z 10044e70 f i libucrtd:output.obj
 0001:00043ea0       ??$extract_argument_from_va_list@E_J@?$standard_base@_WV?$stream_output_adapter@_W@__crt_stdio_output@@@__crt_stdio_output@@IAE_NAA_J@Z 10044ea0 f i libucrtd:output.obj
 0001:00043ed0       ??$extract_argument_from_va_list@E_J@?$standard_base@_WV?$string_output_adapter@_W@__crt_stdio_output@@@__crt_stdio_output@@IAE_NAA_J@Z 10044ed0 f i libucrtd:output.obj
 0001:00043f00       ??$extract_argument_from_va_list@F_J@?$positional_parameter_base@DV?$stream_output_adapter@D@__crt_stdio_output@@@__crt_stdio_output@@IAE_NAA_J@Z 10044f00 f i libucrtd:output.obj
 0001:00044030       ??$extract_argument_from_va_list@F_J@?$positional_parameter_base@DV?$string_output_adapter@D@__crt_stdio_output@@@__crt_stdio_output@@IAE_NAA_J@Z 10045030 f i libucrtd:output.obj
 0001:00044160       ??$extract_argument_from_va_list@F_J@?$positional_parameter_base@_WV?$stream_output_adapter@_W@__crt_stdio_output@@@__crt_stdio_output@@IAE_NAA_J@Z 10045160 f i libucrtd:output.obj
 0001:00044290       ??$extract_argument_from_va_list@F_J@?$positional_parameter_base@_WV?$string_output_adapter@_W@__crt_stdio_output@@@__crt_stdio_output@@IAE_NAA_J@Z 10045290 f i libucrtd:output.obj
 0001:000443c0       ??$extract_argument_from_va_list@F_J@?$standard_base@DV?$stream_output_adapter@D@__crt_stdio_output@@@__crt_stdio_output@@IAE_NAA_J@Z 100453c0 f i libucrtd:output.obj
 0001:000443f0       ??$extract_argument_from_va_list@F_J@?$standard_base@DV?$string_output_adapter@D@__crt_stdio_output@@@__crt_stdio_output@@IAE_NAA_J@Z 100453f0 f i libucrtd:output.obj
 0001:00044420       ??$extract_argument_from_va_list@F_J@?$standard_base@_WV?$stream_output_adapter@_W@__crt_stdio_output@@@__crt_stdio_output@@IAE_NAA_J@Z 10045420 f i libucrtd:output.obj
 0001:00044450       ??$extract_argument_from_va_list@F_J@?$standard_base@_WV?$string_output_adapter@_W@__crt_stdio_output@@@__crt_stdio_output@@IAE_NAA_J@Z 10045450 f i libucrtd:output.obj
 0001:00044480       ??$extract_argument_from_va_list@GD@?$positional_parameter_base@DV?$stream_output_adapter@D@__crt_stdio_output@@@__crt_stdio_output@@IAE_NAAD@Z 10045480 f i libucrtd:output.obj
 0001:000445b0       ??$extract_argument_from_va_list@GD@?$positional_parameter_base@DV?$string_output_adapter@D@__crt_stdio_output@@@__crt_stdio_output@@IAE_NAAD@Z 100455b0 f i libucrtd:output.obj
 0001:000446e0       ??$extract_argument_from_va_list@GD@?$standard_base@DV?$stream_output_adapter@D@__crt_stdio_output@@@__crt_stdio_output@@IAE_NAAD@Z 100456e0 f i libucrtd:output.obj
 0001:00044710       ??$extract_argument_from_va_list@GD@?$standard_base@DV?$string_output_adapter@D@__crt_stdio_output@@@__crt_stdio_output@@IAE_NAAD@Z 10045710 f i libucrtd:output.obj
 0001:00044740       ??$extract_argument_from_va_list@G_J@?$positional_parameter_base@DV?$stream_output_adapter@D@__crt_stdio_output@@@__crt_stdio_output@@IAE_NAA_J@Z 10045740 f i libucrtd:output.obj
 0001:00044880       ??$extract_argument_from_va_list@G_J@?$positional_parameter_base@DV?$string_output_adapter@D@__crt_stdio_output@@@__crt_stdio_output@@IAE_NAA_J@Z 10045880 f i libucrtd:output.obj
 0001:000449c0       ??$extract_argument_from_va_list@G_J@?$positional_parameter_base@_WV?$stream_output_adapter@_W@__crt_stdio_output@@@__crt_stdio_output@@IAE_NAA_J@Z 100459c0 f i libucrtd:output.obj
 0001:00044b00       ??$extract_argument_from_va_list@G_J@?$positional_parameter_base@_WV?$string_output_adapter@_W@__crt_stdio_output@@@__crt_stdio_output@@IAE_NAA_J@Z 10045b00 f i libucrtd:output.obj
 0001:00044c40       ??$extract_argument_from_va_list@G_J@?$standard_base@DV?$stream_output_adapter@D@__crt_stdio_output@@@__crt_stdio_output@@IAE_NAA_J@Z 10045c40 f i libucrtd:output.obj
 0001:00044c70       ??$extract_argument_from_va_list@G_J@?$standard_base@DV?$string_output_adapter@D@__crt_stdio_output@@@__crt_stdio_output@@IAE_NAA_J@Z 10045c70 f i libucrtd:output.obj
 0001:00044ca0       ??$extract_argument_from_va_list@G_J@?$standard_base@_WV?$stream_output_adapter@_W@__crt_stdio_output@@@__crt_stdio_output@@IAE_NAA_J@Z 10045ca0 f i libucrtd:output.obj
 0001:00044cd0       ??$extract_argument_from_va_list@G_J@?$standard_base@_WV?$string_output_adapter@_W@__crt_stdio_output@@@__crt_stdio_output@@IAE_NAA_J@Z 10045cd0 f i libucrtd:output.obj
 0001:00044d00       ??$extract_argument_from_va_list@H_J@?$positional_parameter_base@DV?$stream_output_adapter@D@__crt_stdio_output@@@__crt_stdio_output@@IAE_NAA_J@Z 10045d00 f i libucrtd:output.obj
 0001:00044e30       ??$extract_argument_from_va_list@H_J@?$positional_parameter_base@DV?$string_output_adapter@D@__crt_stdio_output@@@__crt_stdio_output@@IAE_NAA_J@Z 10045e30 f i libucrtd:output.obj
 0001:00044f60       ??$extract_argument_from_va_list@H_J@?$positional_parameter_base@_WV?$stream_output_adapter@_W@__crt_stdio_output@@@__crt_stdio_output@@IAE_NAA_J@Z 10045f60 f i libucrtd:output.obj
 0001:00045090       ??$extract_argument_from_va_list@H_J@?$positional_parameter_base@_WV?$string_output_adapter@_W@__crt_stdio_output@@@__crt_stdio_output@@IAE_NAA_J@Z 10046090 f i libucrtd:output.obj
 0001:000451c0       ??$extract_argument_from_va_list@H_J@?$standard_base@DV?$stream_output_adapter@D@__crt_stdio_output@@@__crt_stdio_output@@IAE_NAA_J@Z 100461c0 f i libucrtd:output.obj
 0001:000451f0       ??$extract_argument_from_va_list@H_J@?$standard_base@DV?$string_output_adapter@D@__crt_stdio_output@@@__crt_stdio_output@@IAE_NAA_J@Z 100461f0 f i libucrtd:output.obj
 0001:00045220       ??$extract_argument_from_va_list@H_J@?$standard_base@_WV?$stream_output_adapter@_W@__crt_stdio_output@@@__crt_stdio_output@@IAE_NAA_J@Z 10046220 f i libucrtd:output.obj
 0001:00045250       ??$extract_argument_from_va_list@H_J@?$standard_base@_WV?$string_output_adapter@_W@__crt_stdio_output@@@__crt_stdio_output@@IAE_NAA_J@Z 10046250 f i libucrtd:output.obj
 0001:00045280       ??$extract_argument_from_va_list@I_J@?$positional_parameter_base@DV?$stream_output_adapter@D@__crt_stdio_output@@@__crt_stdio_output@@IAE_NAA_J@Z 10046280 f i libucrtd:output.obj
 0001:000453b0       ??$extract_argument_from_va_list@I_J@?$positional_parameter_base@DV?$string_output_adapter@D@__crt_stdio_output@@@__crt_stdio_output@@IAE_NAA_J@Z 100463b0 f i libucrtd:output.obj
 0001:000454e0       ??$extract_argument_from_va_list@I_J@?$positional_parameter_base@_WV?$stream_output_adapter@_W@__crt_stdio_output@@@__crt_stdio_output@@IAE_NAA_J@Z 100464e0 f i libucrtd:output.obj
 0001:00045610       ??$extract_argument_from_va_list@I_J@?$positional_parameter_base@_WV?$string_output_adapter@_W@__crt_stdio_output@@@__crt_stdio_output@@IAE_NAA_J@Z 10046610 f i libucrtd:output.obj
 0001:00045740       ??$extract_argument_from_va_list@I_J@?$standard_base@DV?$stream_output_adapter@D@__crt_stdio_output@@@__crt_stdio_output@@IAE_NAA_J@Z 10046740 f i libucrtd:output.obj
 0001:00045770       ??$extract_argument_from_va_list@I_J@?$standard_base@DV?$string_output_adapter@D@__crt_stdio_output@@@__crt_stdio_output@@IAE_NAA_J@Z 10046770 f i libucrtd:output.obj
 0001:000457a0       ??$extract_argument_from_va_list@I_J@?$standard_base@_WV?$stream_output_adapter@_W@__crt_stdio_output@@@__crt_stdio_output@@IAE_NAA_J@Z 100467a0 f i libucrtd:output.obj
 0001:000457d0       ??$extract_argument_from_va_list@I_J@?$standard_base@_WV?$string_output_adapter@_W@__crt_stdio_output@@@__crt_stdio_output@@IAE_NAA_J@Z 100467d0 f i libucrtd:output.obj
 0001:00045800       ??$extract_argument_from_va_list@PADPAD@?$positional_parameter_base@DV?$stream_output_adapter@D@__crt_stdio_output@@@__crt_stdio_output@@IAE_NAAPAD@Z 10046800 f i libucrtd:output.obj
 0001:00045930       ??$extract_argument_from_va_list@PADPAD@?$positional_parameter_base@DV?$string_output_adapter@D@__crt_stdio_output@@@__crt_stdio_output@@IAE_NAAPAD@Z 10046930 f i libucrtd:output.obj
 0001:00045a60       ??$extract_argument_from_va_list@PADPAD@?$positional_parameter_base@_WV?$stream_output_adapter@_W@__crt_stdio_output@@@__crt_stdio_output@@IAE_NAAPAD@Z 10046a60 f i libucrtd:output.obj
 0001:00045b90       ??$extract_argument_from_va_list@PADPAD@?$positional_parameter_base@_WV?$string_output_adapter@_W@__crt_stdio_output@@@__crt_stdio_output@@IAE_NAAPAD@Z 10046b90 f i libucrtd:output.obj
 0001:00045cc0       ??$extract_argument_from_va_list@PADPAD@?$standard_base@DV?$stream_output_adapter@D@__crt_stdio_output@@@__crt_stdio_output@@IAE_NAAPAD@Z 10046cc0 f i libucrtd:output.obj
 0001:00045cf0       ??$extract_argument_from_va_list@PADPAD@?$standard_base@DV?$string_output_adapter@D@__crt_stdio_output@@@__crt_stdio_output@@IAE_NAAPAD@Z 10046cf0 f i libucrtd:output.obj
 0001:00045d20       ??$extract_argument_from_va_list@PADPAD@?$standard_base@_WV?$stream_output_adapter@_W@__crt_stdio_output@@@__crt_stdio_output@@IAE_NAAPAD@Z 10046d20 f i libucrtd:output.obj
 0001:00045d50       ??$extract_argument_from_va_list@PADPAD@?$standard_base@_WV?$string_output_adapter@_W@__crt_stdio_output@@@__crt_stdio_output@@IAE_NAAPAD@Z 10046d50 f i libucrtd:output.obj
 0001:00045d80       ??$extract_argument_from_va_list@PAUansi_string@?1??type_case_Z@?$output_processor@DV?$stream_output_adapter@D@__crt_stdio_output@@V?$format_validation_base@DV?$stream_output_adapter@D@__crt_stdio_output@@@2@@__crt_stdio_output@@AAE_NXZ@PAU1?1??234@AAE_NXZ@@?$standard_base@DV?$stream_output_adapter@D@__crt_stdio_output@@@__crt_stdio_output@@IAE_NAAPAUansi_string@?1??type_case_Z@?$output_processor@DV?$stream_output_adapter@D@__crt_stdio_output@@V?$format_validation_base@DV?$stream_output_adapter@D@__crt_stdio_output@@@2@@1@AAE_NXZ@@Z 10046d80 f i libucrtd:output.obj
 0001:00045db0       ??$extract_argument_from_va_list@PAUansi_string@?1??type_case_Z@?$output_processor@DV?$stream_output_adapter@D@__crt_stdio_output@@V?$positional_parameter_base@DV?$stream_output_adapter@D@__crt_stdio_output@@@2@@__crt_stdio_output@@AAE_NXZ@PAU1?1??234@AAE_NXZ@@?$positional_parameter_base@DV?$stream_output_adapter@D@__crt_stdio_output@@@__crt_stdio_output@@IAE_NAAPAUansi_string@?1??type_case_Z@?$output_processor@DV?$stream_output_adapter@D@__crt_stdio_output@@V?$positional_parameter_base@DV?$stream_output_adapter@D@__crt_stdio_output@@@2@@1@AAE_NXZ@@Z 10046db0 f i libucrtd:output.obj
 0001:00045ee0       ??$extract_argument_from_va_list@PAUansi_string@?1??type_case_Z@?$output_processor@DV?$stream_output_adapter@D@__crt_stdio_output@@V?$positional_parameter_base@DV?$stream_output_adapter@D@__crt_stdio_output@@@2@@__crt_stdio_output@@AAE_NXZ@PAU1?1??234@AAE_NXZ@@?$standard_base@DV?$stream_output_adapter@D@__crt_stdio_output@@@__crt_stdio_output@@IAE_NAAPAUansi_string@?1??type_case_Z@?$output_processor@DV?$stream_output_adapter@D@__crt_stdio_output@@V?$positional_parameter_base@DV?$stream_output_adapter@D@__crt_stdio_output@@@2@@1@AAE_NXZ@@Z 10046ee0 f i libucrtd:output.obj
 0001:00045f10       ??$extract_argument_from_va_list@PAUansi_string@?1??type_case_Z@?$output_processor@DV?$stream_output_adapter@D@__crt_stdio_output@@V?$standard_base@DV?$stream_output_adapter@D@__crt_stdio_output@@@2@@__crt_stdio_output@@AAE_NXZ@PAU1?1??234@AAE_NXZ@@?$standard_base@DV?$stream_output_adapter@D@__crt_stdio_output@@@__crt_stdio_output@@IAE_NAAPAUansi_string@?1??type_case_Z@?$output_processor@DV?$stream_output_adapter@D@__crt_stdio_output@@V?$standard_base@DV?$stream_output_adapter@D@__crt_stdio_output@@@2@@1@AAE_NXZ@@Z 10046f10 f i libucrtd:output.obj
 0001:00045f40       ??$extract_argument_from_va_list@PAUansi_string@?1??type_case_Z@?$output_processor@DV?$string_output_adapter@D@__crt_stdio_output@@V?$format_validation_base@DV?$string_output_adapter@D@__crt_stdio_output@@@2@@__crt_stdio_output@@AAE_NXZ@PAU1?1??234@AAE_NXZ@@?$standard_base@DV?$string_output_adapter@D@__crt_stdio_output@@@__crt_stdio_output@@IAE_NAAPAUansi_string@?1??type_case_Z@?$output_processor@DV?$string_output_adapter@D@__crt_stdio_output@@V?$format_validation_base@DV?$string_output_adapter@D@__crt_stdio_output@@@2@@1@AAE_NXZ@@Z 10046f40 f i libucrtd:output.obj
 0001:00045f70       ??$extract_argument_from_va_list@PAUansi_string@?1??type_case_Z@?$output_processor@DV?$string_output_adapter@D@__crt_stdio_output@@V?$positional_parameter_base@DV?$string_output_adapter@D@__crt_stdio_output@@@2@@__crt_stdio_output@@AAE_NXZ@PAU1?1??234@AAE_NXZ@@?$positional_parameter_base@DV?$string_output_adapter@D@__crt_stdio_output@@@__crt_stdio_output@@IAE_NAAPAUansi_string@?1??type_case_Z@?$output_processor@DV?$string_output_adapter@D@__crt_stdio_output@@V?$positional_parameter_base@DV?$string_output_adapter@D@__crt_stdio_output@@@2@@1@AAE_NXZ@@Z 10046f70 f i libucrtd:output.obj
 0001:000460a0       ??$extract_argument_from_va_list@PAUansi_string@?1??type_case_Z@?$output_processor@DV?$string_output_adapter@D@__crt_stdio_output@@V?$positional_parameter_base@DV?$string_output_adapter@D@__crt_stdio_output@@@2@@__crt_stdio_output@@AAE_NXZ@PAU1?1??234@AAE_NXZ@@?$standard_base@DV?$string_output_adapter@D@__crt_stdio_output@@@__crt_stdio_output@@IAE_NAAPAUansi_string@?1??type_case_Z@?$output_processor@DV?$string_output_adapter@D@__crt_stdio_output@@V?$positional_parameter_base@DV?$string_output_adapter@D@__crt_stdio_output@@@2@@1@AAE_NXZ@@Z 100470a0 f i libucrtd:output.obj
 0001:000460d0       ??$extract_argument_from_va_list@PAUansi_string@?1??type_case_Z@?$output_processor@DV?$string_output_adapter@D@__crt_stdio_output@@V?$standard_base@DV?$string_output_adapter@D@__crt_stdio_output@@@2@@__crt_stdio_output@@AAE_NXZ@PAU1?1??234@AAE_NXZ@@?$standard_base@DV?$string_output_adapter@D@__crt_stdio_output@@@__crt_stdio_output@@IAE_NAAPAUansi_string@?1??type_case_Z@?$output_processor@DV?$string_output_adapter@D@__crt_stdio_output@@V?$standard_base@DV?$string_output_adapter@D@__crt_stdio_output@@@2@@1@AAE_NXZ@@Z 100470d0 f i libucrtd:output.obj
 0001:00046100       ??$extract_argument_from_va_list@PAUansi_string@?1??type_case_Z@?$output_processor@_WV?$stream_output_adapter@_W@__crt_stdio_output@@V?$format_validation_base@_WV?$stream_output_adapter@_W@__crt_stdio_output@@@2@@__crt_stdio_output@@AAE_NXZ@PAU1?1??234@AAE_NXZ@@?$standard_base@_WV?$stream_output_adapter@_W@__crt_stdio_output@@@__crt_stdio_output@@IAE_NAAPAUansi_string@?1??type_case_Z@?$output_processor@_WV?$stream_output_adapter@_W@__crt_stdio_output@@V?$format_validation_base@_WV?$stream_output_adapter@_W@__crt_stdio_output@@@2@@1@AAE_NXZ@@Z 10047100 f i libucrtd:output.obj
 0001:00046130       ??$extract_argument_from_va_list@PAUansi_string@?1??type_case_Z@?$output_processor@_WV?$stream_output_adapter@_W@__crt_stdio_output@@V?$positional_parameter_base@_WV?$stream_output_adapter@_W@__crt_stdio_output@@@2@@__crt_stdio_output@@AAE_NXZ@PAU1?1??234@AAE_NXZ@@?$positional_parameter_base@_WV?$stream_output_adapter@_W@__crt_stdio_output@@@__crt_stdio_output@@IAE_NAAPAUansi_string@?1??type_case_Z@?$output_processor@_WV?$stream_output_adapter@_W@__crt_stdio_output@@V?$positional_parameter_base@_WV?$stream_output_adapter@_W@__crt_stdio_output@@@2@@1@AAE_NXZ@@Z 10047130 f i libucrtd:output.obj
 0001:00046260       ??$extract_argument_from_va_list@PAUansi_string@?1??type_case_Z@?$output_processor@_WV?$stream_output_adapter@_W@__crt_stdio_output@@V?$positional_parameter_base@_WV?$stream_output_adapter@_W@__crt_stdio_output@@@2@@__crt_stdio_output@@AAE_NXZ@PAU1?1??234@AAE_NXZ@@?$standard_base@_WV?$stream_output_adapter@_W@__crt_stdio_output@@@__crt_stdio_output@@IAE_NAAPAUansi_string@?1??type_case_Z@?$output_processor@_WV?$stream_output_adapter@_W@__crt_stdio_output@@V?$positional_parameter_base@_WV?$stream_output_adapter@_W@__crt_stdio_output@@@2@@1@AAE_NXZ@@Z 10047260 f i libucrtd:output.obj
 0001:00046290       ??$extract_argument_from_va_list@PAUansi_string@?1??type_case_Z@?$output_processor@_WV?$stream_output_adapter@_W@__crt_stdio_output@@V?$standard_base@_WV?$stream_output_adapter@_W@__crt_stdio_output@@@2@@__crt_stdio_output@@AAE_NXZ@PAU1?1??234@AAE_NXZ@@?$standard_base@_WV?$stream_output_adapter@_W@__crt_stdio_output@@@__crt_stdio_output@@IAE_NAAPAUansi_string@?1??type_case_Z@?$output_processor@_WV?$stream_output_adapter@_W@__crt_stdio_output@@V?$standard_base@_WV?$stream_output_adapter@_W@__crt_stdio_output@@@2@@1@AAE_NXZ@@Z 10047290 f i libucrtd:output.obj
 0001:000462c0       ??$extract_argument_from_va_list@PAUansi_string@?1??type_case_Z@?$output_processor@_WV?$string_output_adapter@_W@__crt_stdio_output@@V?$format_validation_base@_WV?$string_output_adapter@_W@__crt_stdio_output@@@2@@__crt_stdio_output@@AAE_NXZ@PAU1?1??234@AAE_NXZ@@?$standard_base@_WV?$string_output_adapter@_W@__crt_stdio_output@@@__crt_stdio_output@@IAE_NAAPAUansi_string@?1??type_case_Z@?$output_processor@_WV?$string_output_adapter@_W@__crt_stdio_output@@V?$format_validation_base@_WV?$string_output_adapter@_W@__crt_stdio_output@@@2@@1@AAE_NXZ@@Z 100472c0 f i libucrtd:output.obj
 0001:000462f0       ??$extract_argument_from_va_list@PAUansi_string@?1??type_case_Z@?$output_processor@_WV?$string_output_adapter@_W@__crt_stdio_output@@V?$positional_parameter_base@_WV?$string_output_adapter@_W@__crt_stdio_output@@@2@@__crt_stdio_output@@AAE_NXZ@PAU1?1??234@AAE_NXZ@@?$positional_parameter_base@_WV?$string_output_adapter@_W@__crt_stdio_output@@@__crt_stdio_output@@IAE_NAAPAUansi_string@?1??type_case_Z@?$output_processor@_WV?$string_output_adapter@_W@__crt_stdio_output@@V?$positional_parameter_base@_WV?$string_output_adapter@_W@__crt_stdio_output@@@2@@1@AAE_NXZ@@Z 100472f0 f i libucrtd:output.obj
 0001:00046420       ??$extract_argument_from_va_list@PAUansi_string@?1??type_case_Z@?$output_processor@_WV?$string_output_adapter@_W@__crt_stdio_output@@V?$positional_parameter_base@_WV?$string_output_adapter@_W@__crt_stdio_output@@@2@@__crt_stdio_output@@AAE_NXZ@PAU1?1??234@AAE_NXZ@@?$standard_base@_WV?$string_output_adapter@_W@__crt_stdio_output@@@__crt_stdio_output@@IAE_NAAPAUansi_string@?1??type_case_Z@?$output_processor@_WV?$string_output_adapter@_W@__crt_stdio_output@@V?$positional_parameter_base@_WV?$string_output_adapter@_W@__crt_stdio_output@@@2@@1@AAE_NXZ@@Z 10047420 f i libucrtd:output.obj
 0001:00046450       ??$extract_argument_from_va_list@PAUansi_string@?1??type_case_Z@?$output_processor@_WV?$string_output_adapter@_W@__crt_stdio_output@@V?$standard_base@_WV?$string_output_adapter@_W@__crt_stdio_output@@@2@@__crt_stdio_output@@AAE_NXZ@PAU1?1??234@AAE_NXZ@@?$standard_base@_WV?$string_output_adapter@_W@__crt_stdio_output@@@__crt_stdio_output@@IAE_NAAPAUansi_string@?1??type_case_Z@?$output_processor@_WV?$string_output_adapter@_W@__crt_stdio_output@@V?$standard_base@_WV?$string_output_adapter@_W@__crt_stdio_output@@@2@@1@AAE_NXZ@@Z 10047450 f i libucrtd:output.obj
 0001:00046480       ??$extract_argument_from_va_list@PAXPAX@?$positional_parameter_base@DV?$stream_output_adapter@D@__crt_stdio_output@@@__crt_stdio_output@@IAE_NAAPAX@Z 10047480 f i libucrtd:output.obj
 0001:000465b0       ??$extract_argument_from_va_list@PAXPAX@?$positional_parameter_base@DV?$string_output_adapter@D@__crt_stdio_output@@@__crt_stdio_output@@IAE_NAAPAX@Z 100475b0 f i libucrtd:output.obj
 0001:000466e0       ??$extract_argument_from_va_list@PAXPAX@?$positional_parameter_base@_WV?$stream_output_adapter@_W@__crt_stdio_output@@@__crt_stdio_output@@IAE_NAAPAX@Z 100476e0 f i libucrtd:output.obj
 0001:00046810       ??$extract_argument_from_va_list@PAXPAX@?$positional_parameter_base@_WV?$string_output_adapter@_W@__crt_stdio_output@@@__crt_stdio_output@@IAE_NAAPAX@Z 10047810 f i libucrtd:output.obj
 0001:00046940       ??$extract_argument_from_va_list@PAXPAX@?$standard_base@DV?$stream_output_adapter@D@__crt_stdio_output@@@__crt_stdio_output@@IAE_NAAPAX@Z 10047940 f i libucrtd:output.obj
 0001:00046970       ??$extract_argument_from_va_list@PAXPAX@?$standard_base@DV?$string_output_adapter@D@__crt_stdio_output@@@__crt_stdio_output@@IAE_NAAPAX@Z 10047970 f i libucrtd:output.obj
 0001:000469a0       ??$extract_argument_from_va_list@PAXPAX@?$standard_base@_WV?$stream_output_adapter@_W@__crt_stdio_output@@@__crt_stdio_output@@IAE_NAAPAX@Z 100479a0 f i libucrtd:output.obj
 0001:000469d0       ??$extract_argument_from_va_list@PAXPAX@?$standard_base@_WV?$string_output_adapter@_W@__crt_stdio_output@@@__crt_stdio_output@@IAE_NAAPAX@Z 100479d0 f i libucrtd:output.obj
 0001:00046a00       ??$extract_argument_from_va_list@U_CRT_DOUBLE@@U1@@?$positional_parameter_base@DV?$stream_output_adapter@D@__crt_stdio_output@@@__crt_stdio_output@@IAE_NAAU_CRT_DOUBLE@@@Z 10047a00 f i libucrtd:output.obj
 0001:00046b60       ??$extract_argument_from_va_list@U_CRT_DOUBLE@@U1@@?$positional_parameter_base@DV?$string_output_adapter@D@__crt_stdio_output@@@__crt_stdio_output@@IAE_NAAU_CRT_DOUBLE@@@Z 10047b60 f i libucrtd:output.obj
 0001:00046cc0       ??$extract_argument_from_va_list@U_CRT_DOUBLE@@U1@@?$positional_parameter_base@_WV?$stream_output_adapter@_W@__crt_stdio_output@@@__crt_stdio_output@@IAE_NAAU_CRT_DOUBLE@@@Z 10047cc0 f i libucrtd:output.obj
 0001:00046e20       ??$extract_argument_from_va_list@U_CRT_DOUBLE@@U1@@?$positional_parameter_base@_WV?$string_output_adapter@_W@__crt_stdio_output@@@__crt_stdio_output@@IAE_NAAU_CRT_DOUBLE@@@Z 10047e20 f i libucrtd:output.obj
 0001:00046f80       ??$extract_argument_from_va_list@U_CRT_DOUBLE@@U1@@?$standard_base@DV?$stream_output_adapter@D@__crt_stdio_output@@@__crt_stdio_output@@IAE_NAAU_CRT_DOUBLE@@@Z 10047f80 f i libucrtd:output.obj
 0001:00046fd0       ??$extract_argument_from_va_list@U_CRT_DOUBLE@@U1@@?$standard_base@DV?$string_output_adapter@D@__crt_stdio_output@@@__crt_stdio_output@@IAE_NAAU_CRT_DOUBLE@@@Z 10047fd0 f i libucrtd:output.obj
 0001:00047020       ??$extract_argument_from_va_list@U_CRT_DOUBLE@@U1@@?$standard_base@_WV?$stream_output_adapter@_W@__crt_stdio_output@@@__crt_stdio_output@@IAE_NAAU_CRT_DOUBLE@@@Z 10048020 f i libucrtd:output.obj
 0001:00047070       ??$extract_argument_from_va_list@U_CRT_DOUBLE@@U1@@?$standard_base@_WV?$string_output_adapter@_W@__crt_stdio_output@@@__crt_stdio_output@@IAE_NAAU_CRT_DOUBLE@@@Z 10048070 f i libucrtd:output.obj
 0001:000470c0       ??$extract_argument_from_va_list@_J_J@?$positional_parameter_base@DV?$stream_output_adapter@D@__crt_stdio_output@@@__crt_stdio_output@@IAE_NAA_J@Z 100480c0 f i libucrtd:output.obj
 0001:000471f0       ??$extract_argument_from_va_list@_J_J@?$positional_parameter_base@DV?$string_output_adapter@D@__crt_stdio_output@@@__crt_stdio_output@@IAE_NAA_J@Z 100481f0 f i libucrtd:output.obj
 0001:00047320       ??$extract_argument_from_va_list@_J_J@?$positional_parameter_base@_WV?$stream_output_adapter@_W@__crt_stdio_output@@@__crt_stdio_output@@IAE_NAA_J@Z 10048320 f i libucrtd:output.obj
 0001:00047450       ??$extract_argument_from_va_list@_J_J@?$positional_parameter_base@_WV?$string_output_adapter@_W@__crt_stdio_output@@@__crt_stdio_output@@IAE_NAA_J@Z 10048450 f i libucrtd:output.obj
 0001:00047580       ??$extract_argument_from_va_list@_J_J@?$standard_base@DV?$stream_output_adapter@D@__crt_stdio_output@@@__crt_stdio_output@@IAE_NAA_J@Z 10048580 f i libucrtd:output.obj
 0001:000475b0       ??$extract_argument_from_va_list@_J_J@?$standard_base@DV?$string_output_adapter@D@__crt_stdio_output@@@__crt_stdio_output@@IAE_NAA_J@Z 100485b0 f i libucrtd:output.obj
 0001:000475e0       ??$extract_argument_from_va_list@_J_J@?$standard_base@_WV?$stream_output_adapter@_W@__crt_stdio_output@@@__crt_stdio_output@@IAE_NAA_J@Z 100485e0 f i libucrtd:output.obj
 0001:00047610       ??$extract_argument_from_va_list@_J_J@?$standard_base@_WV?$string_output_adapter@_W@__crt_stdio_output@@@__crt_stdio_output@@IAE_NAA_J@Z 10048610 f i libucrtd:output.obj
 0001:00047640       ??$extract_argument_from_va_list@_K_J@?$positional_parameter_base@DV?$stream_output_adapter@D@__crt_stdio_output@@@__crt_stdio_output@@IAE_NAA_J@Z 10048640 f i libucrtd:output.obj
 0001:00047770       ??$extract_argument_from_va_list@_K_J@?$positional_parameter_base@DV?$string_output_adapter@D@__crt_stdio_output@@@__crt_stdio_output@@IAE_NAA_J@Z 10048770 f i libucrtd:output.obj
 0001:000478a0       ??$extract_argument_from_va_list@_K_J@?$positional_parameter_base@_WV?$stream_output_adapter@_W@__crt_stdio_output@@@__crt_stdio_output@@IAE_NAA_J@Z 100488a0 f i libucrtd:output.obj
 0001:000479d0       ??$extract_argument_from_va_list@_K_J@?$positional_parameter_base@_WV?$string_output_adapter@_W@__crt_stdio_output@@@__crt_stdio_output@@IAE_NAA_J@Z 100489d0 f i libucrtd:output.obj
 0001:00047b00       ??$extract_argument_from_va_list@_K_J@?$standard_base@DV?$stream_output_adapter@D@__crt_stdio_output@@@__crt_stdio_output@@IAE_NAA_J@Z 10048b00 f i libucrtd:output.obj
 0001:00047b30       ??$extract_argument_from_va_list@_K_J@?$standard_base@DV?$string_output_adapter@D@__crt_stdio_output@@@__crt_stdio_output@@IAE_NAA_J@Z 10048b30 f i libucrtd:output.obj
 0001:00047b60       ??$extract_argument_from_va_list@_K_J@?$standard_base@_WV?$stream_output_adapter@_W@__crt_stdio_output@@@__crt_stdio_output@@IAE_NAA_J@Z 10048b60 f i libucrtd:output.obj
 0001:00047b90       ??$extract_argument_from_va_list@_K_J@?$standard_base@_WV?$string_output_adapter@_W@__crt_stdio_output@@@__crt_stdio_output@@IAE_NAA_J@Z 10048b90 f i libucrtd:output.obj
 0001:00047bc0       ??$extract_argument_from_va_list@_W_W@?$positional_parameter_base@DV?$stream_output_adapter@D@__crt_stdio_output@@@__crt_stdio_output@@IAE_NAA_W@Z 10048bc0 f i libucrtd:output.obj
 0001:00047cf0       ??$extract_argument_from_va_list@_W_W@?$positional_parameter_base@DV?$string_output_adapter@D@__crt_stdio_output@@@__crt_stdio_output@@IAE_NAA_W@Z 10048cf0 f i libucrtd:output.obj
 0001:00047e20       ??$extract_argument_from_va_list@_W_W@?$positional_parameter_base@_WV?$stream_output_adapter@_W@__crt_stdio_output@@@__crt_stdio_output@@IAE_NAA_W@Z 10048e20 f i libucrtd:output.obj
 0001:00047f50       ??$extract_argument_from_va_list@_W_W@?$positional_parameter_base@_WV?$string_output_adapter@_W@__crt_stdio_output@@@__crt_stdio_output@@IAE_NAA_W@Z 10048f50 f i libucrtd:output.obj
 0001:00048080       ??$extract_argument_from_va_list@_W_W@?$standard_base@DV?$stream_output_adapter@D@__crt_stdio_output@@@__crt_stdio_output@@IAE_NAA_W@Z 10049080 f i libucrtd:output.obj
 0001:000480b0       ??$extract_argument_from_va_list@_W_W@?$standard_base@DV?$string_output_adapter@D@__crt_stdio_output@@@__crt_stdio_output@@IAE_NAA_W@Z 100490b0 f i libucrtd:output.obj
 0001:000480e0       ??$extract_argument_from_va_list@_W_W@?$standard_base@_WV?$stream_output_adapter@_W@__crt_stdio_output@@@__crt_stdio_output@@IAE_NAA_W@Z 100490e0 f i libucrtd:output.obj
 0001:00048110       ??$extract_argument_from_va_list@_W_W@?$standard_base@_WV?$string_output_adapter@_W@__crt_stdio_output@@@__crt_stdio_output@@IAE_NAA_W@Z 10049110 f i libucrtd:output.obj
 0001:00048140       ??$get_parameter_type@D@?$positional_parameter_base@DV?$stream_output_adapter@D@__crt_stdio_output@@@__crt_stdio_output@@CA?AW4parameter_type@01@PAD@Z 10049140 f i libucrtd:output.obj
 0001:00048150       ??$get_parameter_type@D@?$positional_parameter_base@DV?$string_output_adapter@D@__crt_stdio_output@@@__crt_stdio_output@@CA?AW4parameter_type@01@PAD@Z 10049150 f i libucrtd:output.obj
 0001:00048160       ??$get_parameter_type@D@?$positional_parameter_base@_WV?$stream_output_adapter@_W@__crt_stdio_output@@@__crt_stdio_output@@CA?AW4parameter_type@01@PAD@Z 10049160 f i libucrtd:output.obj
 0001:00048170       ??$get_parameter_type@D@?$positional_parameter_base@_WV?$string_output_adapter@_W@__crt_stdio_output@@@__crt_stdio_output@@CA?AW4parameter_type@01@PAD@Z 10049170 f i libucrtd:output.obj
 0001:00048180       ??$get_parameter_type@Uansi_string@?1??type_case_Z@?$output_processor@DV?$stream_output_adapter@D@__crt_stdio_output@@V?$positional_parameter_base@DV?$stream_output_adapter@D@__crt_stdio_output@@@2@@__crt_stdio_output@@AAE_NXZ@@?$positional_parameter_base@DV?$stream_output_adapter@D@__crt_stdio_output@@@__crt_stdio_output@@CA?AW4parameter_type@01@PAUansi_string@?1??type_case_Z@?$output_processor@DV?$stream_output_adapter@D@__crt_stdio_output@@V?$positional_parameter_base@DV?$stream_output_adapter@D@__crt_stdio_output@@@2@@1@AAE_NXZ@@Z 10049180 f i libucrtd:output.obj
 0001:00048190       ??$get_parameter_type@Uansi_string@?1??type_case_Z@?$output_processor@DV?$string_output_adapter@D@__crt_stdio_output@@V?$positional_parameter_base@DV?$string_output_adapter@D@__crt_stdio_output@@@2@@__crt_stdio_output@@AAE_NXZ@@?$positional_parameter_base@DV?$string_output_adapter@D@__crt_stdio_output@@@__crt_stdio_output@@CA?AW4parameter_type@01@PAUansi_string@?1??type_case_Z@?$output_processor@DV?$string_output_adapter@D@__crt_stdio_output@@V?$positional_parameter_base@DV?$string_output_adapter@D@__crt_stdio_output@@@2@@1@AAE_NXZ@@Z 10049190 f i libucrtd:output.obj
 0001:000481a0       ??$get_parameter_type@Uansi_string@?1??type_case_Z@?$output_processor@_WV?$stream_output_adapter@_W@__crt_stdio_output@@V?$positional_parameter_base@_WV?$stream_output_adapter@_W@__crt_stdio_output@@@2@@__crt_stdio_output@@AAE_NXZ@@?$positional_parameter_base@_WV?$stream_output_adapter@_W@__crt_stdio_output@@@__crt_stdio_output@@CA?AW4parameter_type@01@PAUansi_string@?1??type_case_Z@?$output_processor@_WV?$stream_output_adapter@_W@__crt_stdio_output@@V?$positional_parameter_base@_WV?$stream_output_adapter@_W@__crt_stdio_output@@@2@@1@AAE_NXZ@@Z 100491a0 f i libucrtd:output.obj
 0001:000481b0       ??$get_parameter_type@Uansi_string@?1??type_case_Z@?$output_processor@_WV?$string_output_adapter@_W@__crt_stdio_output@@V?$positional_parameter_base@_WV?$string_output_adapter@_W@__crt_stdio_output@@@2@@__crt_stdio_output@@AAE_NXZ@@?$positional_parameter_base@_WV?$string_output_adapter@_W@__crt_stdio_output@@@__crt_stdio_output@@CA?AW4parameter_type@01@PAUansi_string@?1??type_case_Z@?$output_processor@_WV?$string_output_adapter@_W@__crt_stdio_output@@V?$positional_parameter_base@_WV?$string_output_adapter@_W@__crt_stdio_output@@@2@@1@AAE_NXZ@@Z 100491b0 f i libucrtd:output.obj
 0001:000481c0       ??$get_parameter_type@X@?$positional_parameter_base@DV?$stream_output_adapter@D@__crt_stdio_output@@@__crt_stdio_output@@CA?AW4parameter_type@01@PAX@Z 100491c0 f i libucrtd:output.obj
 0001:000481d0       ??$get_parameter_type@X@?$positional_parameter_base@DV?$string_output_adapter@D@__crt_stdio_output@@@__crt_stdio_output@@CA?AW4parameter_type@01@PAX@Z 100491d0 f i libucrtd:output.obj
 0001:000481e0       ??$get_parameter_type@X@?$positional_parameter_base@_WV?$stream_output_adapter@_W@__crt_stdio_output@@@__crt_stdio_output@@CA?AW4parameter_type@01@PAX@Z 100491e0 f i libucrtd:output.obj
 0001:000481f0       ??$get_parameter_type@X@?$positional_parameter_base@_WV?$string_output_adapter@_W@__crt_stdio_output@@@__crt_stdio_output@@CA?AW4parameter_type@01@PAX@Z 100491f0 f i libucrtd:output.obj
 0001:00048200       ??$is_character_specifier@D@?$positional_parameter_base@DV?$stream_output_adapter@D@__crt_stdio_output@@@__crt_stdio_output@@CA_ND@Z 10049200 f i libucrtd:output.obj
 0001:00048230       ??$is_character_specifier@D@?$positional_parameter_base@DV?$string_output_adapter@D@__crt_stdio_output@@@__crt_stdio_output@@CA_ND@Z 10049230 f i libucrtd:output.obj
 0001:00048260       ??$is_character_specifier@_W@?$positional_parameter_base@_WV?$stream_output_adapter@_W@__crt_stdio_output@@@__crt_stdio_output@@CA_N_W@Z 10049260 f i libucrtd:output.obj
 0001:00048290       ??$is_character_specifier@_W@?$positional_parameter_base@_WV?$string_output_adapter@_W@__crt_stdio_output@@@__crt_stdio_output@@CA_N_W@Z 10049290 f i libucrtd:output.obj
 0001:000482c0       ??$is_integral_specifier@D@?$positional_parameter_base@DV?$stream_output_adapter@D@__crt_stdio_output@@@__crt_stdio_output@@CA_ND@Z 100492c0 f i libucrtd:output.obj
 0001:00048320       ??$is_integral_specifier@D@?$positional_parameter_base@DV?$string_output_adapter@D@__crt_stdio_output@@@__crt_stdio_output@@CA_ND@Z 10049320 f i libucrtd:output.obj
 0001:00048380       ??$is_integral_specifier@_W@?$positional_parameter_base@_WV?$stream_output_adapter@_W@__crt_stdio_output@@@__crt_stdio_output@@CA_N_W@Z 10049380 f i libucrtd:output.obj
 0001:000483e0       ??$is_integral_specifier@_W@?$positional_parameter_base@_WV?$string_output_adapter@_W@__crt_stdio_output@@@__crt_stdio_output@@CA_N_W@Z 100493e0 f i libucrtd:output.obj
 0001:00048440       ??$is_pointer_specifier@D@?$positional_parameter_base@DV?$stream_output_adapter@D@__crt_stdio_output@@@__crt_stdio_output@@CA_ND@Z 10049440 f i libucrtd:output.obj
 0001:00048470       ??$is_pointer_specifier@D@?$positional_parameter_base@DV?$string_output_adapter@D@__crt_stdio_output@@@__crt_stdio_output@@CA_ND@Z 10049470 f i libucrtd:output.obj
 0001:000484a0       ??$is_pointer_specifier@_W@?$positional_parameter_base@_WV?$stream_output_adapter@_W@__crt_stdio_output@@@__crt_stdio_output@@CA_N_W@Z 100494a0 f i libucrtd:output.obj
 0001:000484d0       ??$is_pointer_specifier@_W@?$positional_parameter_base@_WV?$string_output_adapter@_W@__crt_stdio_output@@@__crt_stdio_output@@CA_N_W@Z 100494d0 f i libucrtd:output.obj
 0001:00048500       ??$is_string_specifier@D@?$positional_parameter_base@DV?$stream_output_adapter@D@__crt_stdio_output@@@__crt_stdio_output@@CA_ND@Z 10049500 f i libucrtd:output.obj
 0001:00048530       ??$is_string_specifier@D@?$positional_parameter_base@DV?$string_output_adapter@D@__crt_stdio_output@@@__crt_stdio_output@@CA_ND@Z 10049530 f i libucrtd:output.obj
 0001:00048560       ??$is_string_specifier@_W@?$positional_parameter_base@_WV?$stream_output_adapter@_W@__crt_stdio_output@@@__crt_stdio_output@@CA_N_W@Z 10049560 f i libucrtd:output.obj
 0001:00048590       ??$is_string_specifier@_W@?$positional_parameter_base@_WV?$string_output_adapter@_W@__crt_stdio_output@@@__crt_stdio_output@@CA_N_W@Z 10049590 f i libucrtd:output.obj
 0001:000485c0       ??$is_wide_character_specifier@D@__crt_stdio_output@@YA_N_KDW4length_modifier@0@@Z 100495c0 f i libucrtd:output.obj
 0001:00048640       ??$is_wide_character_specifier@_W@__crt_stdio_output@@YA_N_K_WW4length_modifier@0@@Z 10049640 f i libucrtd:output.obj
 0001:00048700       ??$peek_va_arg@C@__crt_stdio_output@@YACPAD@Z 10049700 f i libucrtd:output.obj
 0001:00048720       ??$peek_va_arg@E@__crt_stdio_output@@YAEPAD@Z 10049720 f i libucrtd:output.obj
 0001:00048740       ??$peek_va_arg@F@__crt_stdio_output@@YAFPAD@Z 10049740 f i libucrtd:output.obj
 0001:00048760       ??$peek_va_arg@G@__crt_stdio_output@@YAGPAD@Z 10049760 f i libucrtd:output.obj
 0001:00048780       ??$peek_va_arg@H@__crt_stdio_output@@YAHPAD@Z 10049780 f i libucrtd:output.obj
 0001:000487a0       ??$peek_va_arg@I@__crt_stdio_output@@YAIPAD@Z 100497a0 f i libucrtd:output.obj
 0001:000487c0       ??$peek_va_arg@PAD@__crt_stdio_output@@YAPADPAD@Z 100497c0 f i libucrtd:output.obj
 0001:000487e0       ??$peek_va_arg@PAUansi_string@?1??type_case_Z@?$output_processor@DV?$stream_output_adapter@D@__crt_stdio_output@@V?$positional_parameter_base@DV?$stream_output_adapter@D@__crt_stdio_output@@@2@@__crt_stdio_output@@AAE_NXZ@@__crt_stdio_output@@YAPAUansi_string@?1??type_case_Z@?$output_processor@DV?$stream_output_adapter@D@__crt_stdio_output@@V?$positional_parameter_base@DV?$stream_output_adapter@D@__crt_stdio_output@@@2@@0@AAE_NXZ@PAD@Z 100497e0 f i libucrtd:output.obj
 0001:00048800       ??$peek_va_arg@PAUansi_string@?1??type_case_Z@?$output_processor@DV?$string_output_adapter@D@__crt_stdio_output@@V?$positional_parameter_base@DV?$string_output_adapter@D@__crt_stdio_output@@@2@@__crt_stdio_output@@AAE_NXZ@@__crt_stdio_output@@YAPAUansi_string@?1??type_case_Z@?$output_processor@DV?$string_output_adapter@D@__crt_stdio_output@@V?$positional_parameter_base@DV?$string_output_adapter@D@__crt_stdio_output@@@2@@0@AAE_NXZ@PAD@Z 10049800 f i libucrtd:output.obj
 0001:00048820       ??$peek_va_arg@PAUansi_string@?1??type_case_Z@?$output_processor@_WV?$stream_output_adapter@_W@__crt_stdio_output@@V?$positional_parameter_base@_WV?$stream_output_adapter@_W@__crt_stdio_output@@@2@@__crt_stdio_output@@AAE_NXZ@@__crt_stdio_output@@YAPAUansi_string@?1??type_case_Z@?$output_processor@_WV?$stream_output_adapter@_W@__crt_stdio_output@@V?$positional_parameter_base@_WV?$stream_output_adapter@_W@__crt_stdio_output@@@2@@0@AAE_NXZ@PAD@Z 10049820 f i libucrtd:output.obj
 0001:00048840       ??$peek_va_arg@PAUansi_string@?1??type_case_Z@?$output_processor@_WV?$string_output_adapter@_W@__crt_stdio_output@@V?$positional_parameter_base@_WV?$string_output_adapter@_W@__crt_stdio_output@@@2@@__crt_stdio_output@@AAE_NXZ@@__crt_stdio_output@@YAPAUansi_string@?1??type_case_Z@?$output_processor@_WV?$string_output_adapter@_W@__crt_stdio_output@@V?$positional_parameter_base@_WV?$string_output_adapter@_W@__crt_stdio_output@@@2@@0@AAE_NXZ@PAD@Z 10049840 f i libucrtd:output.obj
 0001:00048860       ??$peek_va_arg@PAX@__crt_stdio_output@@YAPAXPAD@Z 10049860 f i libucrtd:output.obj
 0001:00048880       ??$peek_va_arg@U_CRT_DOUBLE@@@__crt_stdio_output@@YA?AU_CRT_DOUBLE@@PAD@Z 10049880 f i libucrtd:output.obj
 0001:000488a0       ??$peek_va_arg@_J@__crt_stdio_output@@YA_JPAD@Z 100498a0 f i libucrtd:output.obj
 0001:000488c0       ??$peek_va_arg@_K@__crt_stdio_output@@YA_KPAD@Z 100498c0 f i libucrtd:output.obj
 0001:000488e0       ??$peek_va_arg@_W@__crt_stdio_output@@YA_WPAD@Z 100498e0 f i libucrtd:output.obj
 0001:00048900       ??$puttc_nolock@ABDPAU_iobuf@@@?$__crt_char_traits@D@@SAHABD$$QAPAU_iobuf@@@Z 10049900 f i libucrtd:output.obj
 0001:00048920       ??$puttc_nolock@AB_WPAU_iobuf@@@?$__crt_char_traits@_W@@SAGAB_W$$QAPAU_iobuf@@@Z 10049920 f i libucrtd:output.obj
 0001:00048940       ??$read_va_arg@C@__crt_stdio_output@@YACAAPAD@Z 10049940 f i libucrtd:output.obj
 0001:00048960       ??$read_va_arg@E@__crt_stdio_output@@YAEAAPAD@Z 10049960 f i libucrtd:output.obj
 0001:00048980       ??$read_va_arg@F@__crt_stdio_output@@YAFAAPAD@Z 10049980 f i libucrtd:output.obj
 0001:000489a0       ??$read_va_arg@G@__crt_stdio_output@@YAGAAPAD@Z 100499a0 f i libucrtd:output.obj
 0001:000489c0       ??$read_va_arg@H@__crt_stdio_output@@YAHAAPAD@Z 100499c0 f i libucrtd:output.obj
 0001:000489e0       ??$read_va_arg@I@__crt_stdio_output@@YAIAAPAD@Z 100499e0 f i libucrtd:output.obj
 0001:00048a00       ??$read_va_arg@PAD@__crt_stdio_output@@YAPADAAPAD@Z 10049a00 f i libucrtd:output.obj
 0001:00048a20       ??$read_va_arg@PAUansi_string@?1??type_case_Z@?$output_processor@DV?$stream_output_adapter@D@__crt_stdio_output@@V?$format_validation_base@DV?$stream_output_adapter@D@__crt_stdio_output@@@2@@__crt_stdio_output@@AAE_NXZ@@__crt_stdio_output@@YAPAUansi_string@?1??type_case_Z@?$output_processor@DV?$stream_output_adapter@D@__crt_stdio_output@@V?$format_validation_base@DV?$stream_output_adapter@D@__crt_stdio_output@@@2@@0@AAE_NXZ@AAPAD@Z 10049a20 f i libucrtd:output.obj
 0001:00048a40       ??$read_va_arg@PAUansi_string@?1??type_case_Z@?$output_processor@DV?$stream_output_adapter@D@__crt_stdio_output@@V?$positional_parameter_base@DV?$stream_output_adapter@D@__crt_stdio_output@@@2@@__crt_stdio_output@@AAE_NXZ@@__crt_stdio_output@@YAPAUansi_string@?1??type_case_Z@?$output_processor@DV?$stream_output_adapter@D@__crt_stdio_output@@V?$positional_parameter_base@DV?$stream_output_adapter@D@__crt_stdio_output@@@2@@0@AAE_NXZ@AAPAD@Z 10049a40 f i libucrtd:output.obj
 0001:00048a60       ??$read_va_arg@PAUansi_string@?1??type_case_Z@?$output_processor@DV?$stream_output_adapter@D@__crt_stdio_output@@V?$standard_base@DV?$stream_output_adapter@D@__crt_stdio_output@@@2@@__crt_stdio_output@@AAE_NXZ@@__crt_stdio_output@@YAPAUansi_string@?1??type_case_Z@?$output_processor@DV?$stream_output_adapter@D@__crt_stdio_output@@V?$standard_base@DV?$stream_output_adapter@D@__crt_stdio_output@@@2@@0@AAE_NXZ@AAPAD@Z 10049a60 f i libucrtd:output.obj
 0001:00048a80       ??$read_va_arg@PAUansi_string@?1??type_case_Z@?$output_processor@DV?$string_output_adapter@D@__crt_stdio_output@@V?$format_validation_base@DV?$string_output_adapter@D@__crt_stdio_output@@@2@@__crt_stdio_output@@AAE_NXZ@@__crt_stdio_output@@YAPAUansi_string@?1??type_case_Z@?$output_processor@DV?$string_output_adapter@D@__crt_stdio_output@@V?$format_validation_base@DV?$string_output_adapter@D@__crt_stdio_output@@@2@@0@AAE_NXZ@AAPAD@Z 10049a80 f i libucrtd:output.obj
 0001:00048aa0       ??$read_va_arg@PAUansi_string@?1??type_case_Z@?$output_processor@DV?$string_output_adapter@D@__crt_stdio_output@@V?$positional_parameter_base@DV?$string_output_adapter@D@__crt_stdio_output@@@2@@__crt_stdio_output@@AAE_NXZ@@__crt_stdio_output@@YAPAUansi_string@?1??type_case_Z@?$output_processor@DV?$string_output_adapter@D@__crt_stdio_output@@V?$positional_parameter_base@DV?$string_output_adapter@D@__crt_stdio_output@@@2@@0@AAE_NXZ@AAPAD@Z 10049aa0 f i libucrtd:output.obj
 0001:00048ac0       ??$read_va_arg@PAUansi_string@?1??type_case_Z@?$output_processor@DV?$string_output_adapter@D@__crt_stdio_output@@V?$standard_base@DV?$string_output_adapter@D@__crt_stdio_output@@@2@@__crt_stdio_output@@AAE_NXZ@@__crt_stdio_output@@YAPAUansi_string@?1??type_case_Z@?$output_processor@DV?$string_output_adapter@D@__crt_stdio_output@@V?$standard_base@DV?$string_output_adapter@D@__crt_stdio_output@@@2@@0@AAE_NXZ@AAPAD@Z 10049ac0 f i libucrtd:output.obj
 0001:00048ae0       ??$read_va_arg@PAUansi_string@?1??type_case_Z@?$output_processor@_WV?$stream_output_adapter@_W@__crt_stdio_output@@V?$format_validation_base@_WV?$stream_output_adapter@_W@__crt_stdio_output@@@2@@__crt_stdio_output@@AAE_NXZ@@__crt_stdio_output@@YAPAUansi_string@?1??type_case_Z@?$output_processor@_WV?$stream_output_adapter@_W@__crt_stdio_output@@V?$format_validation_base@_WV?$stream_output_adapter@_W@__crt_stdio_output@@@2@@0@AAE_NXZ@AAPAD@Z 10049ae0 f i libucrtd:output.obj
 0001:00048b00       ??$read_va_arg@PAUansi_string@?1??type_case_Z@?$output_processor@_WV?$stream_output_adapter@_W@__crt_stdio_output@@V?$positional_parameter_base@_WV?$stream_output_adapter@_W@__crt_stdio_output@@@2@@__crt_stdio_output@@AAE_NXZ@@__crt_stdio_output@@YAPAUansi_string@?1??type_case_Z@?$output_processor@_WV?$stream_output_adapter@_W@__crt_stdio_output@@V?$positional_parameter_base@_WV?$stream_output_adapter@_W@__crt_stdio_output@@@2@@0@AAE_NXZ@AAPAD@Z 10049b00 f i libucrtd:output.obj
 0001:00048b20       ??$read_va_arg@PAUansi_string@?1??type_case_Z@?$output_processor@_WV?$stream_output_adapter@_W@__crt_stdio_output@@V?$standard_base@_WV?$stream_output_adapter@_W@__crt_stdio_output@@@2@@__crt_stdio_output@@AAE_NXZ@@__crt_stdio_output@@YAPAUansi_string@?1??type_case_Z@?$output_processor@_WV?$stream_output_adapter@_W@__crt_stdio_output@@V?$standard_base@_WV?$stream_output_adapter@_W@__crt_stdio_output@@@2@@0@AAE_NXZ@AAPAD@Z 10049b20 f i libucrtd:output.obj
 0001:00048b40       ??$read_va_arg@PAUansi_string@?1??type_case_Z@?$output_processor@_WV?$string_output_adapter@_W@__crt_stdio_output@@V?$format_validation_base@_WV?$string_output_adapter@_W@__crt_stdio_output@@@2@@__crt_stdio_output@@AAE_NXZ@@__crt_stdio_output@@YAPAUansi_string@?1??type_case_Z@?$output_processor@_WV?$string_output_adapter@_W@__crt_stdio_output@@V?$format_validation_base@_WV?$string_output_adapter@_W@__crt_stdio_output@@@2@@0@AAE_NXZ@AAPAD@Z 10049b40 f i libucrtd:output.obj
 0001:00048b60       ??$read_va_arg@PAUansi_string@?1??type_case_Z@?$output_processor@_WV?$string_output_adapter@_W@__crt_stdio_output@@V?$positional_parameter_base@_WV?$string_output_adapter@_W@__crt_stdio_output@@@2@@__crt_stdio_output@@AAE_NXZ@@__crt_stdio_output@@YAPAUansi_string@?1??type_case_Z@?$output_processor@_WV?$string_output_adapter@_W@__crt_stdio_output@@V?$positional_parameter_base@_WV?$string_output_adapter@_W@__crt_stdio_output@@@2@@0@AAE_NXZ@AAPAD@Z 10049b60 f i libucrtd:output.obj
 0001:00048b80       ??$read_va_arg@PAUansi_string@?1??type_case_Z@?$output_processor@_WV?$string_output_adapter@_W@__crt_stdio_output@@V?$standard_base@_WV?$string_output_adapter@_W@__crt_stdio_output@@@2@@__crt_stdio_output@@AAE_NXZ@@__crt_stdio_output@@YAPAUansi_string@?1??type_case_Z@?$output_processor@_WV?$string_output_adapter@_W@__crt_stdio_output@@V?$standard_base@_WV?$string_output_adapter@_W@__crt_stdio_output@@@2@@0@AAE_NXZ@AAPAD@Z 10049b80 f i libucrtd:output.obj
 0001:00048ba0       ??$read_va_arg@PAX@__crt_stdio_output@@YAPAXAAPAD@Z 10049ba0 f i libucrtd:output.obj
 0001:00048bc0       ??$read_va_arg@U_CRT_DOUBLE@@@__crt_stdio_output@@YA?AU_CRT_DOUBLE@@AAPAD@Z 10049bc0 f i libucrtd:output.obj
 0001:00048be0       ??$read_va_arg@_J@__crt_stdio_output@@YA_JAAPAD@Z 10049be0 f i libucrtd:output.obj
 0001:00048c00       ??$read_va_arg@_K@__crt_stdio_output@@YA_KAAPAD@Z 10049c00 f i libucrtd:output.obj
 0001:00048c20       ??$read_va_arg@_W@__crt_stdio_output@@YA_WAAPAD@Z 10049c20 f i libucrtd:output.obj
 0001:00048c40       ??$scratch_count@D@formatting_buffer@__crt_stdio_output@@QBEIXZ 10049c40 f i libucrtd:output.obj
 0001:00048c60       ??$scratch_data@D@formatting_buffer@__crt_stdio_output@@QAEPADXZ 10049c60 f i libucrtd:output.obj
 0001:00048cb0       ??$tcstol@AAPBDPAPADH@?$__crt_char_traits@D@@SAJAAPBD$$QAPAPAD$$QAH@Z 10049cb0 f i libucrtd:output.obj
 0001:00048ce0       ??$tcstol@AAPB_WPAPA_WH@?$__crt_char_traits@_W@@SAJAAPB_W$$QAPAPA_W$$QAH@Z 10049ce0 f i libucrtd:output.obj
 0001:00048d10       ??$tcstol@PBDPAPADH@?$__crt_char_traits@D@@SAJ$$QAPBD$$QAPAPAD$$QAH@Z 10049d10 f i libucrtd:output.obj
 0001:00048d40       ??$tcstol@PB_WPAPA_WH@?$__crt_char_traits@_W@@SAJ$$QAPB_W$$QAPAPA_W$$QAH@Z 10049d40 f i libucrtd:output.obj
 0001:00048d70       ??$type_case_integer_parse_into_buffer@I@?$output_processor@DV?$stream_output_adapter@D@__crt_stdio_output@@V?$format_validation_base@DV?$stream_output_adapter@D@__crt_stdio_output@@@2@@__crt_stdio_output@@AAEXII_N@Z 10049d70 f i libucrtd:output.obj
 0001:00048e40       ??$type_case_integer_parse_into_buffer@I@?$output_processor@DV?$stream_output_adapter@D@__crt_stdio_output@@V?$positional_parameter_base@DV?$stream_output_adapter@D@__crt_stdio_output@@@2@@__crt_stdio_output@@AAEXII_N@Z 10049e40 f i libucrtd:output.obj
 0001:00048f10       ??$type_case_integer_parse_into_buffer@I@?$output_processor@DV?$stream_output_adapter@D@__crt_stdio_output@@V?$standard_base@DV?$stream_output_adapter@D@__crt_stdio_output@@@2@@__crt_stdio_output@@AAEXII_N@Z 10049f10 f i libucrtd:output.obj
 0001:00048fe0       ??$type_case_integer_parse_into_buffer@I@?$output_processor@DV?$string_output_adapter@D@__crt_stdio_output@@V?$format_validation_base@DV?$string_output_adapter@D@__crt_stdio_output@@@2@@__crt_stdio_output@@AAEXII_N@Z 10049fe0 f i libucrtd:output.obj
 0001:000490b0       ??$type_case_integer_parse_into_buffer@I@?$output_processor@DV?$string_output_adapter@D@__crt_stdio_output@@V?$positional_parameter_base@DV?$string_output_adapter@D@__crt_stdio_output@@@2@@__crt_stdio_output@@AAEXII_N@Z 1004a0b0 f i libucrtd:output.obj
 0001:00049180       ??$type_case_integer_parse_into_buffer@I@?$output_processor@DV?$string_output_adapter@D@__crt_stdio_output@@V?$standard_base@DV?$string_output_adapter@D@__crt_stdio_output@@@2@@__crt_stdio_output@@AAEXII_N@Z 1004a180 f i libucrtd:output.obj
 0001:00049250       ??$type_case_integer_parse_into_buffer@I@?$output_processor@_WV?$stream_output_adapter@_W@__crt_stdio_output@@V?$format_validation_base@_WV?$stream_output_adapter@_W@__crt_stdio_output@@@2@@__crt_stdio_output@@AAEXII_N@Z 1004a250 f i libucrtd:output.obj
 0001:00049330       ??$type_case_integer_parse_into_buffer@I@?$output_processor@_WV?$stream_output_adapter@_W@__crt_stdio_output@@V?$positional_parameter_base@_WV?$stream_output_adapter@_W@__crt_stdio_output@@@2@@__crt_stdio_output@@AAEXII_N@Z 1004a330 f i libucrtd:output.obj
 0001:00049410       ??$type_case_integer_parse_into_buffer@I@?$output_processor@_WV?$stream_output_adapter@_W@__crt_stdio_output@@V?$standard_base@_WV?$stream_output_adapter@_W@__crt_stdio_output@@@2@@__crt_stdio_output@@AAEXII_N@Z 1004a410 f i libucrtd:output.obj
 0001:000494f0       ??$type_case_integer_parse_into_buffer@I@?$output_processor@_WV?$string_output_adapter@_W@__crt_stdio_output@@V?$format_validation_base@_WV?$string_output_adapter@_W@__crt_stdio_output@@@2@@__crt_stdio_output@@AAEXII_N@Z 1004a4f0 f i libucrtd:output.obj
 0001:000495d0       ??$type_case_integer_parse_into_buffer@I@?$output_processor@_WV?$string_output_adapter@_W@__crt_stdio_output@@V?$positional_parameter_base@_WV?$string_output_adapter@_W@__crt_stdio_output@@@2@@__crt_stdio_output@@AAEXII_N@Z 1004a5d0 f i libucrtd:output.obj
 0001:000496b0       ??$type_case_integer_parse_into_buffer@I@?$output_processor@_WV?$string_output_adapter@_W@__crt_stdio_output@@V?$standard_base@_WV?$string_output_adapter@_W@__crt_stdio_output@@@2@@__crt_stdio_output@@AAEXII_N@Z 1004a6b0 f i libucrtd:output.obj
 0001:00049790       ??$type_case_integer_parse_into_buffer@_K@?$output_processor@DV?$stream_output_adapter@D@__crt_stdio_output@@V?$format_validation_base@DV?$stream_output_adapter@D@__crt_stdio_output@@@2@@__crt_stdio_output@@AAEX_KI_N@Z 1004a790 f i libucrtd:output.obj
 0001:00049880       ??$type_case_integer_parse_into_buffer@_K@?$output_processor@DV?$stream_output_adapter@D@__crt_stdio_output@@V?$positional_parameter_base@DV?$stream_output_adapter@D@__crt_stdio_output@@@2@@__crt_stdio_output@@AAEX_KI_N@Z 1004a880 f i libucrtd:output.obj
 0001:00049970       ??$type_case_integer_parse_into_buffer@_K@?$output_processor@DV?$stream_output_adapter@D@__crt_stdio_output@@V?$standard_base@DV?$stream_output_adapter@D@__crt_stdio_output@@@2@@__crt_stdio_output@@AAEX_KI_N@Z 1004a970 f i libucrtd:output.obj
 0001:00049a60       ??$type_case_integer_parse_into_buffer@_K@?$output_processor@DV?$string_output_adapter@D@__crt_stdio_output@@V?$format_validation_base@DV?$string_output_adapter@D@__crt_stdio_output@@@2@@__crt_stdio_output@@AAEX_KI_N@Z 1004aa60 f i libucrtd:output.obj
 0001:00049b50       ??$type_case_integer_parse_into_buffer@_K@?$output_processor@DV?$string_output_adapter@D@__crt_stdio_output@@V?$positional_parameter_base@DV?$string_output_adapter@D@__crt_stdio_output@@@2@@__crt_stdio_output@@AAEX_KI_N@Z 1004ab50 f i libucrtd:output.obj
 0001:00049c40       ??$type_case_integer_parse_into_buffer@_K@?$output_processor@DV?$string_output_adapter@D@__crt_stdio_output@@V?$standard_base@DV?$string_output_adapter@D@__crt_stdio_output@@@2@@__crt_stdio_output@@AAEX_KI_N@Z 1004ac40 f i libucrtd:output.obj
 0001:00049d30       ??$type_case_integer_parse_into_buffer@_K@?$output_processor@_WV?$stream_output_adapter@_W@__crt_stdio_output@@V?$format_validation_base@_WV?$stream_output_adapter@_W@__crt_stdio_output@@@2@@__crt_stdio_output@@AAEX_KI_N@Z 1004ad30 f i libucrtd:output.obj
 0001:00049e30       ??$type_case_integer_parse_into_buffer@_K@?$output_processor@_WV?$stream_output_adapter@_W@__crt_stdio_output@@V?$positional_parameter_base@_WV?$stream_output_adapter@_W@__crt_stdio_output@@@2@@__crt_stdio_output@@AAEX_KI_N@Z 1004ae30 f i libucrtd:output.obj
 0001:00049f30       ??$type_case_integer_parse_into_buffer@_K@?$output_processor@_WV?$stream_output_adapter@_W@__crt_stdio_output@@V?$standard_base@_WV?$stream_output_adapter@_W@__crt_stdio_output@@@2@@__crt_stdio_output@@AAEX_KI_N@Z 1004af30 f i libucrtd:output.obj
 0001:0004a030       ??$type_case_integer_parse_into_buffer@_K@?$output_processor@_WV?$string_output_adapter@_W@__crt_stdio_output@@V?$format_validation_base@_WV?$string_output_adapter@_W@__crt_stdio_output@@@2@@__crt_stdio_output@@AAEX_KI_N@Z 1004b030 f i libucrtd:output.obj
 0001:0004a130       ??$type_case_integer_parse_into_buffer@_K@?$output_processor@_WV?$string_output_adapter@_W@__crt_stdio_output@@V?$positional_parameter_base@_WV?$string_output_adapter@_W@__crt_stdio_output@@@2@@__crt_stdio_output@@AAEX_KI_N@Z 1004b130 f i libucrtd:output.obj
 0001:0004a230       ??$type_case_integer_parse_into_buffer@_K@?$output_processor@_WV?$string_output_adapter@_W@__crt_stdio_output@@V?$standard_base@_WV?$string_output_adapter@_W@__crt_stdio_output@@@2@@__crt_stdio_output@@AAEX_KI_N@Z 1004b230 f i libucrtd:output.obj
 0001:0004a330       ??$write_multiple_characters@V?$stream_output_adapter@D@__crt_stdio_output@@D@__crt_stdio_output@@YAXABV?$stream_output_adapter@D@0@DHQAH@Z 1004b330 f i libucrtd:output.obj
 0001:0004a380       ??$write_multiple_characters@V?$stream_output_adapter@_W@__crt_stdio_output@@D@__crt_stdio_output@@YAXABV?$stream_output_adapter@_W@0@DHQAH@Z 1004b380 f i libucrtd:output.obj
 0001:0004a3d0       ??$write_multiple_characters@V?$string_output_adapter@D@__crt_stdio_output@@D@__crt_stdio_output@@YAXABV?$string_output_adapter@D@0@DHQAH@Z 1004b3d0 f i libucrtd:output.obj
 0001:0004a420       ??$write_multiple_characters@V?$string_output_adapter@_W@__crt_stdio_output@@D@__crt_stdio_output@@YAXABV?$string_output_adapter@_W@0@DHQAH@Z 1004b420 f i libucrtd:output.obj
 0001:0004a770       ??0?$common_data@D@__crt_stdio_output@@IAE@XZ 1004b770 f i libucrtd:output.obj
 0001:0004a820       ??0?$common_data@_W@__crt_stdio_output@@IAE@XZ 1004b820 f i libucrtd:output.obj
 0001:0004a8d0       ??0?$output_adapter_data@DV?$stream_output_adapter@D@__crt_stdio_output@@@__crt_stdio_output@@IAE@ABV?$stream_output_adapter@D@1@_KQBDQAU__crt_locale_pointers@@QAD@Z 1004b8d0 f i libucrtd:output.obj
 0001:0004a930       ??0?$output_adapter_data@DV?$string_output_adapter@D@__crt_stdio_output@@@__crt_stdio_output@@IAE@ABV?$string_output_adapter@D@1@_KQBDQAU__crt_locale_pointers@@QAD@Z 1004b930 f i libucrtd:output.obj
 0001:0004a990       ??0?$output_adapter_data@_WV?$stream_output_adapter@_W@__crt_stdio_output@@@__crt_stdio_output@@IAE@ABV?$stream_output_adapter@_W@1@_KQB_WQAU__crt_locale_pointers@@QAD@Z 1004b990 f i libucrtd:output.obj
 0001:0004a9f0       ??0?$output_adapter_data@_WV?$string_output_adapter@_W@__crt_stdio_output@@@__crt_stdio_output@@IAE@ABV?$string_output_adapter@_W@1@_KQB_WQAU__crt_locale_pointers@@QAD@Z 1004b9f0 f i libucrtd:output.obj
 0001:0004aa50       ??0?$output_processor@DV?$stream_output_adapter@D@__crt_stdio_output@@V?$format_validation_base@DV?$stream_output_adapter@D@__crt_stdio_output@@@2@@__crt_stdio_output@@QAE@ABV?$stream_output_adapter@D@1@_KQBDQAU__crt_locale_pointers@@QAD@Z 1004ba50 f i libucrtd:output.obj
 0001:0004aa80       ??0?$output_processor@DV?$stream_output_adapter@D@__crt_stdio_output@@V?$positional_parameter_base@DV?$stream_output_adapter@D@__crt_stdio_output@@@2@@__crt_stdio_output@@QAE@ABV?$stream_output_adapter@D@1@_KQBDQAU__crt_locale_pointers@@QAD@Z 1004ba80 f i libucrtd:output.obj
 0001:0004aab0       ??0?$output_processor@DV?$stream_output_adapter@D@__crt_stdio_output@@V?$standard_base@DV?$stream_output_adapter@D@__crt_stdio_output@@@2@@__crt_stdio_output@@QAE@ABV?$stream_output_adapter@D@1@_KQBDQAU__crt_locale_pointers@@QAD@Z 1004bab0 f i libucrtd:output.obj
 0001:0004aae0       ??0?$output_processor@DV?$string_output_adapter@D@__crt_stdio_output@@V?$format_validation_base@DV?$string_output_adapter@D@__crt_stdio_output@@@2@@__crt_stdio_output@@QAE@ABV?$string_output_adapter@D@1@_KQBDQAU__crt_locale_pointers@@QAD@Z 1004bae0 f i libucrtd:output.obj
 0001:0004ab10       ??0?$output_processor@DV?$string_output_adapter@D@__crt_stdio_output@@V?$positional_parameter_base@DV?$string_output_adapter@D@__crt_stdio_output@@@2@@__crt_stdio_output@@QAE@ABV?$string_output_adapter@D@1@_KQBDQAU__crt_locale_pointers@@QAD@Z 1004bb10 f i libucrtd:output.obj
 0001:0004ab40       ??0?$output_processor@DV?$string_output_adapter@D@__crt_stdio_output@@V?$standard_base@DV?$string_output_adapter@D@__crt_stdio_output@@@2@@__crt_stdio_output@@QAE@ABV?$string_output_adapter@D@1@_KQBDQAU__crt_locale_pointers@@QAD@Z 1004bb40 f i libucrtd:output.obj
 0001:0004ab70       ??0?$output_processor@_WV?$stream_output_adapter@_W@__crt_stdio_output@@V?$format_validation_base@_WV?$stream_output_adapter@_W@__crt_stdio_output@@@2@@__crt_stdio_output@@QAE@ABV?$stream_output_adapter@_W@1@_KQB_WQAU__crt_locale_pointers@@QAD@Z 1004bb70 f i libucrtd:output.obj
 0001:0004aba0       ??0?$output_processor@_WV?$stream_output_adapter@_W@__crt_stdio_output@@V?$positional_parameter_base@_WV?$stream_output_adapter@_W@__crt_stdio_output@@@2@@__crt_stdio_output@@QAE@ABV?$stream_output_adapter@_W@1@_KQB_WQAU__crt_locale_pointers@@QAD@Z 1004bba0 f i libucrtd:output.obj
 0001:0004abd0       ??0?$output_processor@_WV?$stream_output_adapter@_W@__crt_stdio_output@@V?$standard_base@_WV?$stream_output_adapter@_W@__crt_stdio_output@@@2@@__crt_stdio_output@@QAE@ABV?$stream_output_adapter@_W@1@_KQB_WQAU__crt_locale_pointers@@QAD@Z 1004bbd0 f i libucrtd:output.obj
 0001:0004ac00       ??0?$output_processor@_WV?$string_output_adapter@_W@__crt_stdio_output@@V?$format_validation_base@_WV?$string_output_adapter@_W@__crt_stdio_output@@@2@@__crt_stdio_output@@QAE@ABV?$string_output_adapter@_W@1@_KQB_WQAU__crt_locale_pointers@@QAD@Z 1004bc00 f i libucrtd:output.obj
 0001:0004ac30       ??0?$output_processor@_WV?$string_output_adapter@_W@__crt_stdio_output@@V?$positional_parameter_base@_WV?$string_output_adapter@_W@__crt_stdio_output@@@2@@__crt_stdio_output@@QAE@ABV?$string_output_adapter@_W@1@_KQB_WQAU__crt_locale_pointers@@QAD@Z 1004bc30 f i libucrtd:output.obj
 0001:0004ac60       ??0?$output_processor@_WV?$string_output_adapter@_W@__crt_stdio_output@@V?$standard_base@_WV?$string_output_adapter@_W@__crt_stdio_output@@@2@@__crt_stdio_output@@QAE@ABV?$string_output_adapter@_W@1@_KQB_WQAU__crt_locale_pointers@@QAD@Z 1004bc60 f i libucrtd:output.obj
 0001:0004ac90       ??0?$stream_output_adapter@D@__crt_stdio_output@@QAE@QAU_iobuf@@@Z 1004bc90 f i libucrtd:output.obj
 0001:0004acb0       ??0?$stream_output_adapter@_W@__crt_stdio_output@@QAE@QAU_iobuf@@@Z 1004bcb0 f i libucrtd:output.obj
 0001:0004acd0       ??0?$string_output_adapter@D@__crt_stdio_output@@QAE@QAU?$string_output_adapter_context@D@1@@Z 1004bcd0 f i libucrtd:output.obj
 0001:0004acf0       ??0?$string_output_adapter@_W@__crt_stdio_output@@QAE@QAU?$string_output_adapter_context@_W@1@@Z 1004bcf0 f i libucrtd:output.obj
 0001:0004ad10       ??0_LocaleUpdate@@QAE@QAU__crt_locale_pointers@@@Z 1004bd10 f i libucrtd:output.obj
 0001:0004ade0       ??0__acrt_stdio_temporary_buffering_guard@@QAE@QAU_iobuf@@@Z 1004bde0 f i libucrtd:output.obj
 0001:0004ae10       ??0__crt_deferred_errno_cache@@QAE@XZ 1004be10 f i libucrtd:output.obj
 0001:0004ae30       ??0__crt_errno_guard@@QAE@QAH@Z 1004be30 f i libucrtd:output.obj
 0001:0004ae60       ??0__crt_stdio_stream@@QAE@QAU_iobuf@@@Z 1004be60 f i libucrtd:output.obj
 0001:0004ae80       ??0formatting_buffer@__crt_stdio_output@@QAE@XZ 1004be80 f i libucrtd:output.obj
 0001:0004aeb0       ??1?$common_data@D@__crt_stdio_output@@QAE@XZ 1004beb0 f i libucrtd:output.obj
 0001:0004aed0       ??1?$common_data@_W@__crt_stdio_output@@QAE@XZ 1004bed0 f i libucrtd:output.obj
 0001:0004aef0       ??1?$format_validation_base@DV?$stream_output_adapter@D@__crt_stdio_output@@@__crt_stdio_output@@QAE@XZ 1004bef0 f i libucrtd:output.obj
 0001:0004af10       ??1?$format_validation_base@DV?$string_output_adapter@D@__crt_stdio_output@@@__crt_stdio_output@@QAE@XZ 1004bf10 f i libucrtd:output.obj
 0001:0004af30       ??1?$format_validation_base@_WV?$stream_output_adapter@_W@__crt_stdio_output@@@__crt_stdio_output@@QAE@XZ 1004bf30 f i libucrtd:output.obj
 0001:0004af50       ??1?$format_validation_base@_WV?$string_output_adapter@_W@__crt_stdio_output@@@__crt_stdio_output@@QAE@XZ 1004bf50 f i libucrtd:output.obj
 0001:0004af70       ??1?$output_adapter_data@DV?$stream_output_adapter@D@__crt_stdio_output@@@__crt_stdio_output@@QAE@XZ 1004bf70 f i libucrtd:output.obj
 0001:0004af90       ??1?$output_adapter_data@DV?$string_output_adapter@D@__crt_stdio_output@@@__crt_stdio_output@@QAE@XZ 1004bf90 f i libucrtd:output.obj
 0001:0004afb0       ??1?$output_adapter_data@_WV?$stream_output_adapter@_W@__crt_stdio_output@@@__crt_stdio_output@@QAE@XZ 1004bfb0 f i libucrtd:output.obj
 0001:0004afd0       ??1?$output_adapter_data@_WV?$string_output_adapter@_W@__crt_stdio_output@@@__crt_stdio_output@@QAE@XZ 1004bfd0 f i libucrtd:output.obj
 0001:0004aff0       ??1?$output_processor@DV?$stream_output_adapter@D@__crt_stdio_output@@V?$format_validation_base@DV?$stream_output_adapter@D@__crt_stdio_output@@@2@@__crt_stdio_output@@QAE@XZ 1004bff0 f i libucrtd:output.obj
 0001:0004b010       ??1?$output_processor@DV?$stream_output_adapter@D@__crt_stdio_output@@V?$positional_parameter_base@DV?$stream_output_adapter@D@__crt_stdio_output@@@2@@__crt_stdio_output@@QAE@XZ 1004c010 f i libucrtd:output.obj
 0001:0004b030       ??1?$output_processor@DV?$stream_output_adapter@D@__crt_stdio_output@@V?$standard_base@DV?$stream_output_adapter@D@__crt_stdio_output@@@2@@__crt_stdio_output@@QAE@XZ 1004c030 f i libucrtd:output.obj
 0001:0004b050       ??1?$output_processor@DV?$string_output_adapter@D@__crt_stdio_output@@V?$format_validation_base@DV?$string_output_adapter@D@__crt_stdio_output@@@2@@__crt_stdio_output@@QAE@XZ 1004c050 f i libucrtd:output.obj
 0001:0004b070       ??1?$output_processor@DV?$string_output_adapter@D@__crt_stdio_output@@V?$positional_parameter_base@DV?$string_output_adapter@D@__crt_stdio_output@@@2@@__crt_stdio_output@@QAE@XZ 1004c070 f i libucrtd:output.obj
 0001:0004b090       ??1?$output_processor@DV?$string_output_adapter@D@__crt_stdio_output@@V?$standard_base@DV?$string_output_adapter@D@__crt_stdio_output@@@2@@__crt_stdio_output@@QAE@XZ 1004c090 f i libucrtd:output.obj
 0001:0004b0b0       ??1?$output_processor@_WV?$stream_output_adapter@_W@__crt_stdio_output@@V?$format_validation_base@_WV?$stream_output_adapter@_W@__crt_stdio_output@@@2@@__crt_stdio_output@@QAE@XZ 1004c0b0 f i libucrtd:output.obj
 0001:0004b0d0       ??1?$output_processor@_WV?$stream_output_adapter@_W@__crt_stdio_output@@V?$positional_parameter_base@_WV?$stream_output_adapter@_W@__crt_stdio_output@@@2@@__crt_stdio_output@@QAE@XZ 1004c0d0 f i libucrtd:output.obj
 0001:0004b0f0       ??1?$output_processor@_WV?$stream_output_adapter@_W@__crt_stdio_output@@V?$standard_base@_WV?$stream_output_adapter@_W@__crt_stdio_output@@@2@@__crt_stdio_output@@QAE@XZ 1004c0f0 f i libucrtd:output.obj
 0001:0004b110       ??1?$output_processor@_WV?$string_output_adapter@_W@__crt_stdio_output@@V?$format_validation_base@_WV?$string_output_adapter@_W@__crt_stdio_output@@@2@@__crt_stdio_output@@QAE@XZ 1004c110 f i libucrtd:output.obj
 0001:0004b130       ??1?$output_processor@_WV?$string_output_adapter@_W@__crt_stdio_output@@V?$positional_parameter_base@_WV?$string_output_adapter@_W@__crt_stdio_output@@@2@@__crt_stdio_output@@QAE@XZ 1004c130 f i libucrtd:output.obj
 0001:0004b150       ??1?$output_processor@_WV?$string_output_adapter@_W@__crt_stdio_output@@V?$standard_base@_WV?$string_output_adapter@_W@__crt_stdio_output@@@2@@__crt_stdio_output@@QAE@XZ 1004c150 f i libucrtd:output.obj
 0001:0004b170       ??1?$positional_parameter_base@DV?$stream_output_adapter@D@__crt_stdio_output@@@__crt_stdio_output@@QAE@XZ 1004c170 f i libucrtd:output.obj
 0001:0004b190       ??1?$positional_parameter_base@DV?$string_output_adapter@D@__crt_stdio_output@@@__crt_stdio_output@@QAE@XZ 1004c190 f i libucrtd:output.obj
 0001:0004b1b0       ??1?$positional_parameter_base@_WV?$stream_output_adapter@_W@__crt_stdio_output@@@__crt_stdio_output@@QAE@XZ 1004c1b0 f i libucrtd:output.obj
 0001:0004b1d0       ??1?$positional_parameter_base@_WV?$string_output_adapter@_W@__crt_stdio_output@@@__crt_stdio_output@@QAE@XZ 1004c1d0 f i libucrtd:output.obj
 0001:0004b1f0       ??1?$standard_base@DV?$stream_output_adapter@D@__crt_stdio_output@@@__crt_stdio_output@@QAE@XZ 1004c1f0 f i libucrtd:output.obj
 0001:0004b210       ??1?$standard_base@DV?$string_output_adapter@D@__crt_stdio_output@@@__crt_stdio_output@@QAE@XZ 1004c210 f i libucrtd:output.obj
 0001:0004b230       ??1?$standard_base@_WV?$stream_output_adapter@_W@__crt_stdio_output@@@__crt_stdio_output@@QAE@XZ 1004c230 f i libucrtd:output.obj
 0001:0004b250       ??1?$standard_base@_WV?$string_output_adapter@_W@__crt_stdio_output@@@__crt_stdio_output@@QAE@XZ 1004c250 f i libucrtd:output.obj
 0001:0004b270       ??1_LocaleUpdate@@QAE@XZ   1004c270 f i libucrtd:output.obj
 0001:0004b2a0       ??1__acrt_stdio_temporary_buffering_guard@@QAE@XZ 1004c2a0 f i libucrtd:output.obj
 0001:0004b2d0       ??1__crt_errno_guard@@QAE@XZ 1004c2d0 f i libucrtd:output.obj
 0001:0004b300       ??1formatting_buffer@__crt_stdio_output@@QAE@XZ 1004c300 f i libucrtd:output.obj
 0001:0004b320       ??4?$__crt_unique_heap_ptr@DU__crt_internal_free_policy@@@@QAEAAV0@$$QAV0@@Z 1004c320 f i libucrtd:output.obj
 0001:0004b350       ??A?$spectre_mitigated_lookup_table@Ustate_transition_pair@__crt_stdio_output@@$0IA@@__crt_stdio_output@@QBEABUstate_transition_pair@1@I@Z 1004c350 f i libucrtd:output.obj
 0001:0004b370       ??C__crt_stdio_stream@@QBEPAU__crt_stdio_stream_data@@XZ 1004c370 f i libucrtd:output.obj
 0001:0004bab0       ?GetLocaleT@_LocaleUpdate@@QAEPAU__crt_locale_pointers@@XZ 1004cab0 f i libucrtd:output.obj
 0001:0004bad0       ?adjust_hexit@?$output_processor@DV?$stream_output_adapter@D@__crt_stdio_output@@V?$format_validation_base@DV?$stream_output_adapter@D@__crt_stdio_output@@@2@@__crt_stdio_output@@CADH_N@Z 1004cad0 f i libucrtd:output.obj
 0001:0004bb10       ?adjust_hexit@?$output_processor@DV?$stream_output_adapter@D@__crt_stdio_output@@V?$positional_parameter_base@DV?$stream_output_adapter@D@__crt_stdio_output@@@2@@__crt_stdio_output@@CADH_N@Z 1004cb10 f i libucrtd:output.obj
 0001:0004bb50       ?adjust_hexit@?$output_processor@DV?$stream_output_adapter@D@__crt_stdio_output@@V?$standard_base@DV?$stream_output_adapter@D@__crt_stdio_output@@@2@@__crt_stdio_output@@CADH_N@Z 1004cb50 f i libucrtd:output.obj
 0001:0004bb90       ?adjust_hexit@?$output_processor@DV?$string_output_adapter@D@__crt_stdio_output@@V?$format_validation_base@DV?$string_output_adapter@D@__crt_stdio_output@@@2@@__crt_stdio_output@@CADH_N@Z 1004cb90 f i libucrtd:output.obj
 0001:0004bbd0       ?adjust_hexit@?$output_processor@DV?$string_output_adapter@D@__crt_stdio_output@@V?$positional_parameter_base@DV?$string_output_adapter@D@__crt_stdio_output@@@2@@__crt_stdio_output@@CADH_N@Z 1004cbd0 f i libucrtd:output.obj
 0001:0004bc10       ?adjust_hexit@?$output_processor@DV?$string_output_adapter@D@__crt_stdio_output@@V?$standard_base@DV?$string_output_adapter@D@__crt_stdio_output@@@2@@__crt_stdio_output@@CADH_N@Z 1004cc10 f i libucrtd:output.obj
 0001:0004bc50       ?adjust_hexit@?$output_processor@_WV?$stream_output_adapter@_W@__crt_stdio_output@@V?$format_validation_base@_WV?$stream_output_adapter@_W@__crt_stdio_output@@@2@@__crt_stdio_output@@CADH_N@Z 1004cc50 f i libucrtd:output.obj
 0001:0004bc90       ?adjust_hexit@?$output_processor@_WV?$stream_output_adapter@_W@__crt_stdio_output@@V?$positional_parameter_base@_WV?$stream_output_adapter@_W@__crt_stdio_output@@@2@@__crt_stdio_output@@CADH_N@Z 1004cc90 f i libucrtd:output.obj
 0001:0004bcd0       ?adjust_hexit@?$output_processor@_WV?$stream_output_adapter@_W@__crt_stdio_output@@V?$standard_base@_WV?$stream_output_adapter@_W@__crt_stdio_output@@@2@@__crt_stdio_output@@CADH_N@Z 1004ccd0 f i libucrtd:output.obj
 0001:0004bd10       ?adjust_hexit@?$output_processor@_WV?$string_output_adapter@_W@__crt_stdio_output@@V?$format_validation_base@_WV?$string_output_adapter@_W@__crt_stdio_output@@@2@@__crt_stdio_output@@CADH_N@Z 1004cd10 f i libucrtd:output.obj
 0001:0004bd50       ?adjust_hexit@?$output_processor@_WV?$string_output_adapter@_W@__crt_stdio_output@@V?$positional_parameter_base@_WV?$string_output_adapter@_W@__crt_stdio_output@@@2@@__crt_stdio_output@@CADH_N@Z 1004cd50 f i libucrtd:output.obj
 0001:0004bd90       ?adjust_hexit@?$output_processor@_WV?$string_output_adapter@_W@__crt_stdio_output@@V?$standard_base@_WV?$string_output_adapter@_W@__crt_stdio_output@@@2@@__crt_stdio_output@@CADH_N@Z 1004cd90 f i libucrtd:output.obj
 0001:0004bdd0       ?advance_to_next_pass@?$positional_parameter_base@DV?$stream_output_adapter@D@__crt_stdio_output@@@__crt_stdio_output@@IAE_NXZ 1004cdd0 f i libucrtd:output.obj
 0001:0004be70       ?advance_to_next_pass@?$positional_parameter_base@DV?$string_output_adapter@D@__crt_stdio_output@@@__crt_stdio_output@@IAE_NXZ 1004ce70 f i libucrtd:output.obj
 0001:0004bf10       ?advance_to_next_pass@?$positional_parameter_base@_WV?$stream_output_adapter@_W@__crt_stdio_output@@@__crt_stdio_output@@IAE_NXZ 1004cf10 f i libucrtd:output.obj
 0001:0004bfb0       ?advance_to_next_pass@?$positional_parameter_base@_WV?$string_output_adapter@_W@__crt_stdio_output@@@__crt_stdio_output@@IAE_NXZ 1004cfb0 f i libucrtd:output.obj
 0001:0004c050       ?advance_to_next_pass@?$standard_base@DV?$stream_output_adapter@D@__crt_stdio_output@@@__crt_stdio_output@@IAE_NXZ 1004d050 f i libucrtd:output.obj
 0001:0004c0a0       ?advance_to_next_pass@?$standard_base@DV?$string_output_adapter@D@__crt_stdio_output@@@__crt_stdio_output@@IAE_NXZ 1004d0a0 f i libucrtd:output.obj
 0001:0004c0f0       ?advance_to_next_pass@?$standard_base@_WV?$stream_output_adapter@_W@__crt_stdio_output@@@__crt_stdio_output@@IAE_NXZ 1004d0f0 f i libucrtd:output.obj
 0001:0004c140       ?advance_to_next_pass@?$standard_base@_WV?$string_output_adapter@_W@__crt_stdio_output@@@__crt_stdio_output@@IAE_NXZ 1004d140 f i libucrtd:output.obj
 0001:0004c190       ?crop_zeroes@__crt_stdio_output@@YAXPADQAU__crt_locale_pointers@@@Z 1004d190 f i libucrtd:output.obj
 0001:0004c290       ?find_next_state@?$output_processor@DV?$stream_output_adapter@D@__crt_stdio_output@@V?$format_validation_base@DV?$stream_output_adapter@D@__crt_stdio_output@@@2@@__crt_stdio_output@@ABE?AW4state@2@DW432@@Z 1004d290 f i libucrtd:output.obj
 0001:0004c300       ?find_next_state@?$output_processor@DV?$stream_output_adapter@D@__crt_stdio_output@@V?$positional_parameter_base@DV?$stream_output_adapter@D@__crt_stdio_output@@@2@@__crt_stdio_output@@ABE?AW4state@2@DW432@@Z 1004d300 f i libucrtd:output.obj
 0001:0004c370       ?find_next_state@?$output_processor@DV?$stream_output_adapter@D@__crt_stdio_output@@V?$standard_base@DV?$stream_output_adapter@D@__crt_stdio_output@@@2@@__crt_stdio_output@@ABE?AW4state@2@DW432@@Z 1004d370 f i libucrtd:output.obj
 0001:0004c3e0       ?find_next_state@?$output_processor@DV?$string_output_adapter@D@__crt_stdio_output@@V?$format_validation_base@DV?$string_output_adapter@D@__crt_stdio_output@@@2@@__crt_stdio_output@@ABE?AW4state@2@DW432@@Z 1004d3e0 f i libucrtd:output.obj
 0001:0004c450       ?find_next_state@?$output_processor@DV?$string_output_adapter@D@__crt_stdio_output@@V?$positional_parameter_base@DV?$string_output_adapter@D@__crt_stdio_output@@@2@@__crt_stdio_output@@ABE?AW4state@2@DW432@@Z 1004d450 f i libucrtd:output.obj
 0001:0004c4c0       ?find_next_state@?$output_processor@DV?$string_output_adapter@D@__crt_stdio_output@@V?$standard_base@DV?$string_output_adapter@D@__crt_stdio_output@@@2@@__crt_stdio_output@@ABE?AW4state@2@DW432@@Z 1004d4c0 f i libucrtd:output.obj
 0001:0004c530       ?find_next_state@?$output_processor@_WV?$stream_output_adapter@_W@__crt_stdio_output@@V?$format_validation_base@_WV?$stream_output_adapter@_W@__crt_stdio_output@@@2@@__crt_stdio_output@@ABE?AW4state@2@_WW432@@Z 1004d530 f i libucrtd:output.obj
 0001:0004c5a0       ?find_next_state@?$output_processor@_WV?$stream_output_adapter@_W@__crt_stdio_output@@V?$positional_parameter_base@_WV?$stream_output_adapter@_W@__crt_stdio_output@@@2@@__crt_stdio_output@@ABE?AW4state@2@_WW432@@Z 1004d5a0 f i libucrtd:output.obj
 0001:0004c610       ?find_next_state@?$output_processor@_WV?$stream_output_adapter@_W@__crt_stdio_output@@V?$standard_base@_WV?$stream_output_adapter@_W@__crt_stdio_output@@@2@@__crt_stdio_output@@ABE?AW4state@2@_WW432@@Z 1004d610 f i libucrtd:output.obj
 0001:0004c680       ?find_next_state@?$output_processor@_WV?$string_output_adapter@_W@__crt_stdio_output@@V?$format_validation_base@_WV?$string_output_adapter@_W@__crt_stdio_output@@@2@@__crt_stdio_output@@ABE?AW4state@2@_WW432@@Z 1004d680 f i libucrtd:output.obj
 0001:0004c6f0       ?find_next_state@?$output_processor@_WV?$string_output_adapter@_W@__crt_stdio_output@@V?$positional_parameter_base@_WV?$string_output_adapter@_W@__crt_stdio_output@@@2@@__crt_stdio_output@@ABE?AW4state@2@_WW432@@Z 1004d6f0 f i libucrtd:output.obj
 0001:0004c760       ?find_next_state@?$output_processor@_WV?$string_output_adapter@_W@__crt_stdio_output@@V?$standard_base@_WV?$string_output_adapter@_W@__crt_stdio_output@@@2@@__crt_stdio_output@@ABE?AW4state@2@_WW432@@Z 1004d760 f i libucrtd:output.obj
 0001:0004c7d0       ?force_decimal_point@__crt_stdio_output@@YAXPADQAU__crt_locale_pointers@@@Z 1004d7d0 f i libucrtd:output.obj
 0001:0004c8a0       ?get@__crt_deferred_errno_cache@@QAEAAHXZ 1004d8a0 f i libucrtd:output.obj
 0001:0004c8d0       ?get_flags@__crt_stdio_stream@@QBEJXZ 1004d8d0 f i libucrtd:output.obj
 0001:0004c8f0       ?get_parameter_type@?$positional_parameter_base@DV?$stream_output_adapter@D@__crt_stdio_output@@@__crt_stdio_output@@CA?AW4parameter_type@12@F@Z 1004d8f0 f i libucrtd:output.obj
 0001:0004c900       ?get_parameter_type@?$positional_parameter_base@DV?$stream_output_adapter@D@__crt_stdio_output@@@__crt_stdio_output@@CA?AW4parameter_type@12@G@Z 1004d900 f i libucrtd:output.obj
 0001:0004c910       ?get_parameter_type@?$positional_parameter_base@DV?$stream_output_adapter@D@__crt_stdio_output@@@__crt_stdio_output@@CA?AW4parameter_type@12@H@Z 1004d910 f i libucrtd:output.obj
 0001:0004c920       ?get_parameter_type@?$positional_parameter_base@DV?$stream_output_adapter@D@__crt_stdio_output@@@__crt_stdio_output@@CA?AW4parameter_type@12@I@Z 1004d920 f i libucrtd:output.obj
 0001:0004c930       ?get_parameter_type@?$positional_parameter_base@DV?$stream_output_adapter@D@__crt_stdio_output@@@__crt_stdio_output@@CA?AW4parameter_type@12@U_CRT_DOUBLE@@@Z 1004d930 f i libucrtd:output.obj
 0001:0004c940       ?get_parameter_type@?$positional_parameter_base@DV?$stream_output_adapter@D@__crt_stdio_output@@@__crt_stdio_output@@CA?AW4parameter_type@12@_J@Z 1004d940 f i libucrtd:output.obj
 0001:0004c950       ?get_parameter_type@?$positional_parameter_base@DV?$stream_output_adapter@D@__crt_stdio_output@@@__crt_stdio_output@@CA?AW4parameter_type@12@_K@Z 1004d950 f i libucrtd:output.obj
 0001:0004c960       ?get_parameter_type@?$positional_parameter_base@DV?$stream_output_adapter@D@__crt_stdio_output@@@__crt_stdio_output@@CA?AW4parameter_type@12@_W@Z 1004d960 f i libucrtd:output.obj
 0001:0004c970       ?get_parameter_type@?$positional_parameter_base@DV?$string_output_adapter@D@__crt_stdio_output@@@__crt_stdio_output@@CA?AW4parameter_type@12@F@Z 1004d970 f i libucrtd:output.obj
 0001:0004c980       ?get_parameter_type@?$positional_parameter_base@DV?$string_output_adapter@D@__crt_stdio_output@@@__crt_stdio_output@@CA?AW4parameter_type@12@G@Z 1004d980 f i libucrtd:output.obj
 0001:0004c990       ?get_parameter_type@?$positional_parameter_base@DV?$string_output_adapter@D@__crt_stdio_output@@@__crt_stdio_output@@CA?AW4parameter_type@12@H@Z 1004d990 f i libucrtd:output.obj
 0001:0004c9a0       ?get_parameter_type@?$positional_parameter_base@DV?$string_output_adapter@D@__crt_stdio_output@@@__crt_stdio_output@@CA?AW4parameter_type@12@I@Z 1004d9a0 f i libucrtd:output.obj
 0001:0004c9b0       ?get_parameter_type@?$positional_parameter_base@DV?$string_output_adapter@D@__crt_stdio_output@@@__crt_stdio_output@@CA?AW4parameter_type@12@U_CRT_DOUBLE@@@Z 1004d9b0 f i libucrtd:output.obj
 0001:0004c9c0       ?get_parameter_type@?$positional_parameter_base@DV?$string_output_adapter@D@__crt_stdio_output@@@__crt_stdio_output@@CA?AW4parameter_type@12@_J@Z 1004d9c0 f i libucrtd:output.obj
 0001:0004c9d0       ?get_parameter_type@?$positional_parameter_base@DV?$string_output_adapter@D@__crt_stdio_output@@@__crt_stdio_output@@CA?AW4parameter_type@12@_K@Z 1004d9d0 f i libucrtd:output.obj
 0001:0004c9e0       ?get_parameter_type@?$positional_parameter_base@DV?$string_output_adapter@D@__crt_stdio_output@@@__crt_stdio_output@@CA?AW4parameter_type@12@_W@Z 1004d9e0 f i libucrtd:output.obj
 0001:0004c9f0       ?get_parameter_type@?$positional_parameter_base@_WV?$stream_output_adapter@_W@__crt_stdio_output@@@__crt_stdio_output@@CA?AW4parameter_type@12@F@Z 1004d9f0 f i libucrtd:output.obj
 0001:0004ca00       ?get_parameter_type@?$positional_parameter_base@_WV?$stream_output_adapter@_W@__crt_stdio_output@@@__crt_stdio_output@@CA?AW4parameter_type@12@G@Z 1004da00 f i libucrtd:output.obj
 0001:0004ca10       ?get_parameter_type@?$positional_parameter_base@_WV?$stream_output_adapter@_W@__crt_stdio_output@@@__crt_stdio_output@@CA?AW4parameter_type@12@H@Z 1004da10 f i libucrtd:output.obj
 0001:0004ca20       ?get_parameter_type@?$positional_parameter_base@_WV?$stream_output_adapter@_W@__crt_stdio_output@@@__crt_stdio_output@@CA?AW4parameter_type@12@I@Z 1004da20 f i libucrtd:output.obj
 0001:0004ca30       ?get_parameter_type@?$positional_parameter_base@_WV?$stream_output_adapter@_W@__crt_stdio_output@@@__crt_stdio_output@@CA?AW4parameter_type@12@U_CRT_DOUBLE@@@Z 1004da30 f i libucrtd:output.obj
 0001:0004ca40       ?get_parameter_type@?$positional_parameter_base@_WV?$stream_output_adapter@_W@__crt_stdio_output@@@__crt_stdio_output@@CA?AW4parameter_type@12@_J@Z 1004da40 f i libucrtd:output.obj
 0001:0004ca50       ?get_parameter_type@?$positional_parameter_base@_WV?$stream_output_adapter@_W@__crt_stdio_output@@@__crt_stdio_output@@CA?AW4parameter_type@12@_K@Z 1004da50 f i libucrtd:output.obj
 0001:0004ca60       ?get_parameter_type@?$positional_parameter_base@_WV?$stream_output_adapter@_W@__crt_stdio_output@@@__crt_stdio_output@@CA?AW4parameter_type@12@_W@Z 1004da60 f i libucrtd:output.obj
 0001:0004ca70       ?get_parameter_type@?$positional_parameter_base@_WV?$string_output_adapter@_W@__crt_stdio_output@@@__crt_stdio_output@@CA?AW4parameter_type@12@F@Z 1004da70 f i libucrtd:output.obj
 0001:0004ca80       ?get_parameter_type@?$positional_parameter_base@_WV?$string_output_adapter@_W@__crt_stdio_output@@@__crt_stdio_output@@CA?AW4parameter_type@12@G@Z 1004da80 f i libucrtd:output.obj
 0001:0004ca90       ?get_parameter_type@?$positional_parameter_base@_WV?$string_output_adapter@_W@__crt_stdio_output@@@__crt_stdio_output@@CA?AW4parameter_type@12@H@Z 1004da90 f i libucrtd:output.obj
 0001:0004caa0       ?get_parameter_type@?$positional_parameter_base@_WV?$string_output_adapter@_W@__crt_stdio_output@@@__crt_stdio_output@@CA?AW4parameter_type@12@I@Z 1004daa0 f i libucrtd:output.obj
 0001:0004cab0       ?get_parameter_type@?$positional_parameter_base@_WV?$string_output_adapter@_W@__crt_stdio_output@@@__crt_stdio_output@@CA?AW4parameter_type@12@U_CRT_DOUBLE@@@Z 1004dab0 f i libucrtd:output.obj
 0001:0004cac0       ?get_parameter_type@?$positional_parameter_base@_WV?$string_output_adapter@_W@__crt_stdio_output@@@__crt_stdio_output@@CA?AW4parameter_type@12@_J@Z 1004dac0 f i libucrtd:output.obj
 0001:0004cad0       ?get_parameter_type@?$positional_parameter_base@_WV?$string_output_adapter@_W@__crt_stdio_output@@@__crt_stdio_output@@CA?AW4parameter_type@12@_K@Z 1004dad0 f i libucrtd:output.obj
 0001:0004cae0       ?get_parameter_type@?$positional_parameter_base@_WV?$string_output_adapter@_W@__crt_stdio_output@@@__crt_stdio_output@@CA?AW4parameter_type@12@_W@Z 1004dae0 f i libucrtd:output.obj
 0001:0004caf0       ?has_flag@?$output_processor@DV?$stream_output_adapter@D@__crt_stdio_output@@V?$format_validation_base@DV?$stream_output_adapter@D@__crt_stdio_output@@@2@@__crt_stdio_output@@ABE_NI@Z 1004daf0 f i libucrtd:output.obj
 0001:0004cb20       ?has_flag@?$output_processor@DV?$stream_output_adapter@D@__crt_stdio_output@@V?$positional_parameter_base@DV?$stream_output_adapter@D@__crt_stdio_output@@@2@@__crt_stdio_output@@ABE_NI@Z 1004db20 f i libucrtd:output.obj
 0001:0004cb50       ?has_flag@?$output_processor@DV?$stream_output_adapter@D@__crt_stdio_output@@V?$standard_base@DV?$stream_output_adapter@D@__crt_stdio_output@@@2@@__crt_stdio_output@@ABE_NI@Z 1004db50 f i libucrtd:output.obj
 0001:0004cb80       ?has_flag@?$output_processor@DV?$string_output_adapter@D@__crt_stdio_output@@V?$format_validation_base@DV?$string_output_adapter@D@__crt_stdio_output@@@2@@__crt_stdio_output@@ABE_NI@Z 1004db80 f i libucrtd:output.obj
 0001:0004cbb0       ?has_flag@?$output_processor@DV?$string_output_adapter@D@__crt_stdio_output@@V?$positional_parameter_base@DV?$string_output_adapter@D@__crt_stdio_output@@@2@@__crt_stdio_output@@ABE_NI@Z 1004dbb0 f i libucrtd:output.obj
 0001:0004cbe0       ?has_flag@?$output_processor@DV?$string_output_adapter@D@__crt_stdio_output@@V?$standard_base@DV?$string_output_adapter@D@__crt_stdio_output@@@2@@__crt_stdio_output@@ABE_NI@Z 1004dbe0 f i libucrtd:output.obj
 0001:0004cc10       ?has_flag@?$output_processor@_WV?$stream_output_adapter@_W@__crt_stdio_output@@V?$format_validation_base@_WV?$stream_output_adapter@_W@__crt_stdio_output@@@2@@__crt_stdio_output@@ABE_NI@Z 1004dc10 f i libucrtd:output.obj
 0001:0004cc40       ?has_flag@?$output_processor@_WV?$stream_output_adapter@_W@__crt_stdio_output@@V?$positional_parameter_base@_WV?$stream_output_adapter@_W@__crt_stdio_output@@@2@@__crt_stdio_output@@ABE_NI@Z 1004dc40 f i libucrtd:output.obj
 0001:0004cc70       ?has_flag@?$output_processor@_WV?$stream_output_adapter@_W@__crt_stdio_output@@V?$standard_base@_WV?$stream_output_adapter@_W@__crt_stdio_output@@@2@@__crt_stdio_output@@ABE_NI@Z 1004dc70 f i libucrtd:output.obj
 0001:0004cca0       ?has_flag@?$output_processor@_WV?$string_output_adapter@_W@__crt_stdio_output@@V?$format_validation_base@_WV?$string_output_adapter@_W@__crt_stdio_output@@@2@@__crt_stdio_output@@ABE_NI@Z 1004dca0 f i libucrtd:output.obj
 0001:0004ccd0       ?has_flag@?$output_processor@_WV?$string_output_adapter@_W@__crt_stdio_output@@V?$positional_parameter_base@_WV?$string_output_adapter@_W@__crt_stdio_output@@@2@@__crt_stdio_output@@ABE_NI@Z 1004dcd0 f i libucrtd:output.obj
 0001:0004cd00       ?has_flag@?$output_processor@_WV?$string_output_adapter@_W@__crt_stdio_output@@V?$standard_base@_WV?$string_output_adapter@_W@__crt_stdio_output@@@2@@__crt_stdio_output@@ABE_NI@Z 1004dd00 f i libucrtd:output.obj
 0001:0004cd30       ?is_positional_parameter_reappearance_consistent@?$positional_parameter_base@DV?$stream_output_adapter@D@__crt_stdio_output@@@__crt_stdio_output@@AAE_NABUparameter_data@12@W4parameter_type@12@DW4length_modifier@2@@Z 1004dd30 f i libucrtd:output.obj
 0001:0004cf60       ?is_positional_parameter_reappearance_consistent@?$positional_parameter_base@DV?$string_output_adapter@D@__crt_stdio_output@@@__crt_stdio_output@@AAE_NABUparameter_data@12@W4parameter_type@12@DW4length_modifier@2@@Z 1004df60 f i libucrtd:output.obj
 0001:0004d190       ?is_positional_parameter_reappearance_consistent@?$positional_parameter_base@_WV?$stream_output_adapter@_W@__crt_stdio_output@@@__crt_stdio_output@@AAE_NABUparameter_data@12@W4parameter_type@12@_WW4length_modifier@2@@Z 1004e190 f i libucrtd:output.obj
 0001:0004d3c0       ?is_positional_parameter_reappearance_consistent@?$positional_parameter_base@_WV?$string_output_adapter@_W@__crt_stdio_output@@@__crt_stdio_output@@AAE_NABUparameter_data@12@W4parameter_type@12@_WW4length_modifier@2@@Z 1004e3c0 f i libucrtd:output.obj
 0001:0004d5f0       ?is_string_backed@__crt_stdio_stream@@QBE_NXZ 1004e5f0 f i libucrtd:output.obj
 0001:0004d630       ?narrow_null_string@?$output_processor@DV?$stream_output_adapter@D@__crt_stdio_output@@V?$format_validation_base@DV?$stream_output_adapter@D@__crt_stdio_output@@@2@@__crt_stdio_output@@CAPADXZ 1004e630 f i libucrtd:output.obj
 0001:0004d640       ?narrow_null_string@?$output_processor@DV?$stream_output_adapter@D@__crt_stdio_output@@V?$positional_parameter_base@DV?$stream_output_adapter@D@__crt_stdio_output@@@2@@__crt_stdio_output@@CAPADXZ 1004e640 f i libucrtd:output.obj
 0001:0004d650       ?narrow_null_string@?$output_processor@DV?$stream_output_adapter@D@__crt_stdio_output@@V?$standard_base@DV?$stream_output_adapter@D@__crt_stdio_output@@@2@@__crt_stdio_output@@CAPADXZ 1004e650 f i libucrtd:output.obj
 0001:0004d660       ?narrow_null_string@?$output_processor@DV?$string_output_adapter@D@__crt_stdio_output@@V?$format_validation_base@DV?$string_output_adapter@D@__crt_stdio_output@@@2@@__crt_stdio_output@@CAPADXZ 1004e660 f i libucrtd:output.obj
 0001:0004d670       ?narrow_null_string@?$output_processor@DV?$string_output_adapter@D@__crt_stdio_output@@V?$positional_parameter_base@DV?$string_output_adapter@D@__crt_stdio_output@@@2@@__crt_stdio_output@@CAPADXZ 1004e670 f i libucrtd:output.obj
 0001:0004d680       ?narrow_null_string@?$output_processor@DV?$string_output_adapter@D@__crt_stdio_output@@V?$standard_base@DV?$string_output_adapter@D@__crt_stdio_output@@@2@@__crt_stdio_output@@CAPADXZ 1004e680 f i libucrtd:output.obj
 0001:0004d690       ?narrow_null_string@?$output_processor@_WV?$stream_output_adapter@_W@__crt_stdio_output@@V?$format_validation_base@_WV?$stream_output_adapter@_W@__crt_stdio_output@@@2@@__crt_stdio_output@@CAPADXZ 1004e690 f i libucrtd:output.obj
 0001:0004d6a0       ?narrow_null_string@?$output_processor@_WV?$stream_output_adapter@_W@__crt_stdio_output@@V?$positional_parameter_base@_WV?$stream_output_adapter@_W@__crt_stdio_output@@@2@@__crt_stdio_output@@CAPADXZ 1004e6a0 f i libucrtd:output.obj
 0001:0004d6b0       ?narrow_null_string@?$output_processor@_WV?$stream_output_adapter@_W@__crt_stdio_output@@V?$standard_base@_WV?$stream_output_adapter@_W@__crt_stdio_output@@@2@@__crt_stdio_output@@CAPADXZ 1004e6b0 f i libucrtd:output.obj
 0001:0004d6c0       ?narrow_null_string@?$output_processor@_WV?$string_output_adapter@_W@__crt_stdio_output@@V?$format_validation_base@_WV?$string_output_adapter@_W@__crt_stdio_output@@@2@@__crt_stdio_output@@CAPADXZ 1004e6c0 f i libucrtd:output.obj
 0001:0004d6d0       ?narrow_null_string@?$output_processor@_WV?$string_output_adapter@_W@__crt_stdio_output@@V?$positional_parameter_base@_WV?$string_output_adapter@_W@__crt_stdio_output@@@2@@__crt_stdio_output@@CAPADXZ 1004e6d0 f i libucrtd:output.obj
 0001:0004d6e0       ?narrow_null_string@?$output_processor@_WV?$string_output_adapter@_W@__crt_stdio_output@@V?$standard_base@_WV?$string_output_adapter@_W@__crt_stdio_output@@@2@@__crt_stdio_output@@CAPADXZ 1004e6e0 f i libucrtd:output.obj
 0001:0004d6f0       ?parse_int_from_format_string@?$output_processor@DV?$stream_output_adapter@D@__crt_stdio_output@@V?$format_validation_base@DV?$stream_output_adapter@D@__crt_stdio_output@@@2@@__crt_stdio_output@@AAE_NQAH@Z 1004e6f0 f i libucrtd:output.obj
 0001:0004d7b0       ?parse_int_from_format_string@?$output_processor@DV?$stream_output_adapter@D@__crt_stdio_output@@V?$positional_parameter_base@DV?$stream_output_adapter@D@__crt_stdio_output@@@2@@__crt_stdio_output@@AAE_NQAH@Z 1004e7b0 f i libucrtd:output.obj
 0001:0004d870       ?parse_int_from_format_string@?$output_processor@DV?$stream_output_adapter@D@__crt_stdio_output@@V?$standard_base@DV?$stream_output_adapter@D@__crt_stdio_output@@@2@@__crt_stdio_output@@AAE_NQAH@Z 1004e870 f i libucrtd:output.obj
 0001:0004d930       ?parse_int_from_format_string@?$output_processor@DV?$string_output_adapter@D@__crt_stdio_output@@V?$format_validation_base@DV?$string_output_adapter@D@__crt_stdio_output@@@2@@__crt_stdio_output@@AAE_NQAH@Z 1004e930 f i libucrtd:output.obj
 0001:0004d9f0       ?parse_int_from_format_string@?$output_processor@DV?$string_output_adapter@D@__crt_stdio_output@@V?$positional_parameter_base@DV?$string_output_adapter@D@__crt_stdio_output@@@2@@__crt_stdio_output@@AAE_NQAH@Z 1004e9f0 f i libucrtd:output.obj
 0001:0004dab0       ?parse_int_from_format_string@?$output_processor@DV?$string_output_adapter@D@__crt_stdio_output@@V?$standard_base@DV?$string_output_adapter@D@__crt_stdio_output@@@2@@__crt_stdio_output@@AAE_NQAH@Z 1004eab0 f i libucrtd:output.obj
 0001:0004db70       ?parse_int_from_format_string@?$output_processor@_WV?$stream_output_adapter@_W@__crt_stdio_output@@V?$format_validation_base@_WV?$stream_output_adapter@_W@__crt_stdio_output@@@2@@__crt_stdio_output@@AAE_NQAH@Z 1004eb70 f i libucrtd:output.obj
 0001:0004dc30       ?parse_int_from_format_string@?$output_processor@_WV?$stream_output_adapter@_W@__crt_stdio_output@@V?$positional_parameter_base@_WV?$stream_output_adapter@_W@__crt_stdio_output@@@2@@__crt_stdio_output@@AAE_NQAH@Z 1004ec30 f i libucrtd:output.obj
 0001:0004dcf0       ?parse_int_from_format_string@?$output_processor@_WV?$stream_output_adapter@_W@__crt_stdio_output@@V?$standard_base@_WV?$stream_output_adapter@_W@__crt_stdio_output@@@2@@__crt_stdio_output@@AAE_NQAH@Z 1004ecf0 f i libucrtd:output.obj
 0001:0004ddb0       ?parse_int_from_format_string@?$output_processor@_WV?$string_output_adapter@_W@__crt_stdio_output@@V?$format_validation_base@_WV?$string_output_adapter@_W@__crt_stdio_output@@@2@@__crt_stdio_output@@AAE_NQAH@Z 1004edb0 f i libucrtd:output.obj
 0001:0004de70       ?parse_int_from_format_string@?$output_processor@_WV?$string_output_adapter@_W@__crt_stdio_output@@V?$positional_parameter_base@_WV?$string_output_adapter@_W@__crt_stdio_output@@@2@@__crt_stdio_output@@AAE_NQAH@Z 1004ee70 f i libucrtd:output.obj
 0001:0004df30       ?parse_int_from_format_string@?$output_processor@_WV?$string_output_adapter@_W@__crt_stdio_output@@V?$standard_base@_WV?$string_output_adapter@_W@__crt_stdio_output@@@2@@__crt_stdio_output@@AAE_NQAH@Z 1004ef30 f i libucrtd:output.obj
 0001:0004dff0       ?process@?$output_processor@DV?$stream_output_adapter@D@__crt_stdio_output@@V?$format_validation_base@DV?$stream_output_adapter@D@__crt_stdio_output@@@2@@__crt_stdio_output@@QAEHXZ 1004eff0 f i libucrtd:output.obj
 0001:0004e2a0       ?process@?$output_processor@DV?$stream_output_adapter@D@__crt_stdio_output@@V?$positional_parameter_base@DV?$stream_output_adapter@D@__crt_stdio_output@@@2@@__crt_stdio_output@@QAEHXZ 1004f2a0 f i libucrtd:output.obj
 0001:0004e550       ?process@?$output_processor@DV?$stream_output_adapter@D@__crt_stdio_output@@V?$standard_base@DV?$stream_output_adapter@D@__crt_stdio_output@@@2@@__crt_stdio_output@@QAEHXZ 1004f550 f i libucrtd:output.obj
 0001:0004e800       ?process@?$output_processor@DV?$string_output_adapter@D@__crt_stdio_output@@V?$format_validation_base@DV?$string_output_adapter@D@__crt_stdio_output@@@2@@__crt_stdio_output@@QAEHXZ 1004f800 f i libucrtd:output.obj
 0001:0004eab0       ?process@?$output_processor@DV?$string_output_adapter@D@__crt_stdio_output@@V?$positional_parameter_base@DV?$string_output_adapter@D@__crt_stdio_output@@@2@@__crt_stdio_output@@QAEHXZ 1004fab0 f i libucrtd:output.obj
 0001:0004ed60       ?process@?$output_processor@DV?$string_output_adapter@D@__crt_stdio_output@@V?$standard_base@DV?$string_output_adapter@D@__crt_stdio_output@@@2@@__crt_stdio_output@@QAEHXZ 1004fd60 f i libucrtd:output.obj
 0001:0004f010       ?process@?$output_processor@_WV?$stream_output_adapter@_W@__crt_stdio_output@@V?$format_validation_base@_WV?$stream_output_adapter@_W@__crt_stdio_output@@@2@@__crt_stdio_output@@QAEHXZ 10050010 f i libucrtd:output.obj
 0001:0004f2c0       ?process@?$output_processor@_WV?$stream_output_adapter@_W@__crt_stdio_output@@V?$positional_parameter_base@_WV?$stream_output_adapter@_W@__crt_stdio_output@@@2@@__crt_stdio_output@@QAEHXZ 100502c0 f i libucrtd:output.obj
 0001:0004f570       ?process@?$output_processor@_WV?$stream_output_adapter@_W@__crt_stdio_output@@V?$standard_base@_WV?$stream_output_adapter@_W@__crt_stdio_output@@@2@@__crt_stdio_output@@QAEHXZ 10050570 f i libucrtd:output.obj
 0001:0004f820       ?process@?$output_processor@_WV?$string_output_adapter@_W@__crt_stdio_output@@V?$format_validation_base@_WV?$string_output_adapter@_W@__crt_stdio_output@@@2@@__crt_stdio_output@@QAEHXZ 10050820 f i libucrtd:output.obj
 0001:0004fad0       ?process@?$output_processor@_WV?$string_output_adapter@_W@__crt_stdio_output@@V?$positional_parameter_base@_WV?$string_output_adapter@_W@__crt_stdio_output@@@2@@__crt_stdio_output@@QAEHXZ 10050ad0 f i libucrtd:output.obj
 0001:0004fd80       ?process@?$output_processor@_WV?$string_output_adapter@_W@__crt_stdio_output@@V?$standard_base@_WV?$string_output_adapter@_W@__crt_stdio_output@@@2@@__crt_stdio_output@@QAEHXZ 10050d80 f i libucrtd:output.obj
 0001:00050030       ?public_stream@__crt_stdio_stream@@QBEPAU_iobuf@@XZ 10051030 f i libucrtd:output.obj
 0001:00050050       ?set_flag@?$output_processor@DV?$stream_output_adapter@D@__crt_stdio_output@@V?$format_validation_base@DV?$stream_output_adapter@D@__crt_stdio_output@@@2@@__crt_stdio_output@@AAEXI@Z 10051050 f i libucrtd:output.obj
 0001:00050070       ?set_flag@?$output_processor@DV?$stream_output_adapter@D@__crt_stdio_output@@V?$positional_parameter_base@DV?$stream_output_adapter@D@__crt_stdio_output@@@2@@__crt_stdio_output@@AAEXI@Z 10051070 f i libucrtd:output.obj
 0001:00050090       ?set_flag@?$output_processor@DV?$stream_output_adapter@D@__crt_stdio_output@@V?$standard_base@DV?$stream_output_adapter@D@__crt_stdio_output@@@2@@__crt_stdio_output@@AAEXI@Z 10051090 f i libucrtd:output.obj
 0001:000500b0       ?set_flag@?$output_processor@DV?$string_output_adapter@D@__crt_stdio_output@@V?$format_validation_base@DV?$string_output_adapter@D@__crt_stdio_output@@@2@@__crt_stdio_output@@AAEXI@Z 100510b0 f i libucrtd:output.obj
 0001:000500d0       ?set_flag@?$output_processor@DV?$string_output_adapter@D@__crt_stdio_output@@V?$positional_parameter_base@DV?$string_output_adapter@D@__crt_stdio_output@@@2@@__crt_stdio_output@@AAEXI@Z 100510d0 f i libucrtd:output.obj
 0001:000500f0       ?set_flag@?$output_processor@DV?$string_output_adapter@D@__crt_stdio_output@@V?$standard_base@DV?$string_output_adapter@D@__crt_stdio_output@@@2@@__crt_stdio_output@@AAEXI@Z 100510f0 f i libucrtd:output.obj
 0001:00050110       ?set_flag@?$output_processor@_WV?$stream_output_adapter@_W@__crt_stdio_output@@V?$format_validation_base@_WV?$stream_output_adapter@_W@__crt_stdio_output@@@2@@__crt_stdio_output@@AAEXI@Z 10051110 f i libucrtd:output.obj
 0001:00050130       ?set_flag@?$output_processor@_WV?$stream_output_adapter@_W@__crt_stdio_output@@V?$positional_parameter_base@_WV?$stream_output_adapter@_W@__crt_stdio_output@@@2@@__crt_stdio_output@@AAEXI@Z 10051130 f i libucrtd:output.obj
 0001:00050150       ?set_flag@?$output_processor@_WV?$stream_output_adapter@_W@__crt_stdio_output@@V?$standard_base@_WV?$stream_output_adapter@_W@__crt_stdio_output@@@2@@__crt_stdio_output@@AAEXI@Z 10051150 f i libucrtd:output.obj
 0001:00050170       ?set_flag@?$output_processor@_WV?$string_output_adapter@_W@__crt_stdio_output@@V?$format_validation_base@_WV?$string_output_adapter@_W@__crt_stdio_output@@@2@@__crt_stdio_output@@AAEXI@Z 10051170 f i libucrtd:output.obj
 0001:00050190       ?set_flag@?$output_processor@_WV?$string_output_adapter@_W@__crt_stdio_output@@V?$positional_parameter_base@_WV?$string_output_adapter@_W@__crt_stdio_output@@@2@@__crt_stdio_output@@AAEXI@Z 10051190 f i libucrtd:output.obj
 0001:000501b0       ?set_flag@?$output_processor@_WV?$string_output_adapter@_W@__crt_stdio_output@@V?$standard_base@_WV?$string_output_adapter@_W@__crt_stdio_output@@@2@@__crt_stdio_output@@AAEXI@Z 100511b0 f i libucrtd:output.obj
 0001:000501d0       ?should_format@?$positional_parameter_base@DV?$stream_output_adapter@D@__crt_stdio_output@@@__crt_stdio_output@@IAE_NXZ 100511d0 f i libucrtd:output.obj
 0001:00050210       ?should_format@?$positional_parameter_base@DV?$string_output_adapter@D@__crt_stdio_output@@@__crt_stdio_output@@IAE_NXZ 10051210 f i libucrtd:output.obj
 0001:00050250       ?should_format@?$positional_parameter_base@_WV?$stream_output_adapter@_W@__crt_stdio_output@@@__crt_stdio_output@@IAE_NXZ 10051250 f i libucrtd:output.obj
 0001:00050290       ?should_format@?$positional_parameter_base@_WV?$string_output_adapter@_W@__crt_stdio_output@@@__crt_stdio_output@@IAE_NXZ 10051290 f i libucrtd:output.obj
 0001:000502d0       ?should_format@?$standard_base@DV?$stream_output_adapter@D@__crt_stdio_output@@@__crt_stdio_output@@IAE_NXZ 100512d0 f i libucrtd:output.obj
 0001:000502e0       ?should_format@?$standard_base@DV?$string_output_adapter@D@__crt_stdio_output@@@__crt_stdio_output@@IAE_NXZ 100512e0 f i libucrtd:output.obj
 0001:000502f0       ?should_format@?$standard_base@_WV?$stream_output_adapter@_W@__crt_stdio_output@@@__crt_stdio_output@@IAE_NXZ 100512f0 f i libucrtd:output.obj
 0001:00050300       ?should_format@?$standard_base@_WV?$string_output_adapter@_W@__crt_stdio_output@@@__crt_stdio_output@@IAE_NXZ 10051300 f i libucrtd:output.obj
 0001:00050310       ?should_skip_normal_state_processing@?$positional_parameter_base@DV?$stream_output_adapter@D@__crt_stdio_output@@@__crt_stdio_output@@IAE_NXZ 10051310 f i libucrtd:output.obj
 0001:00050360       ?should_skip_normal_state_processing@?$positional_parameter_base@DV?$string_output_adapter@D@__crt_stdio_output@@@__crt_stdio_output@@IAE_NXZ 10051360 f i libucrtd:output.obj
 0001:000503b0       ?should_skip_normal_state_processing@?$positional_parameter_base@_WV?$stream_output_adapter@_W@__crt_stdio_output@@@__crt_stdio_output@@IAE_NXZ 100513b0 f i libucrtd:output.obj
 0001:00050400       ?should_skip_normal_state_processing@?$positional_parameter_base@_WV?$string_output_adapter@_W@__crt_stdio_output@@@__crt_stdio_output@@IAE_NXZ 10051400 f i libucrtd:output.obj
 0001:00050450       ?should_skip_normal_state_processing@?$standard_base@DV?$stream_output_adapter@D@__crt_stdio_output@@@__crt_stdio_output@@IAE_NXZ 10051450 f i libucrtd:output.obj
 0001:00050460       ?should_skip_normal_state_processing@?$standard_base@DV?$string_output_adapter@D@__crt_stdio_output@@@__crt_stdio_output@@IAE_NXZ 10051460 f i libucrtd:output.obj
 0001:00050470       ?should_skip_normal_state_processing@?$standard_base@_WV?$stream_output_adapter@_W@__crt_stdio_output@@@__crt_stdio_output@@IAE_NXZ 10051470 f i libucrtd:output.obj
 0001:00050480       ?should_skip_normal_state_processing@?$standard_base@_WV?$string_output_adapter@_W@__crt_stdio_output@@@__crt_stdio_output@@IAE_NXZ 10051480 f i libucrtd:output.obj
 0001:00050490       ?should_skip_type_state_output@?$positional_parameter_base@DV?$stream_output_adapter@D@__crt_stdio_output@@@__crt_stdio_output@@IBE_NXZ 10051490 f i libucrtd:output.obj
 0001:000504d0       ?should_skip_type_state_output@?$positional_parameter_base@DV?$string_output_adapter@D@__crt_stdio_output@@@__crt_stdio_output@@IBE_NXZ 100514d0 f i libucrtd:output.obj
 0001:00050510       ?should_skip_type_state_output@?$positional_parameter_base@_WV?$stream_output_adapter@_W@__crt_stdio_output@@@__crt_stdio_output@@IBE_NXZ 10051510 f i libucrtd:output.obj
 0001:00050550       ?should_skip_type_state_output@?$positional_parameter_base@_WV?$string_output_adapter@_W@__crt_stdio_output@@@__crt_stdio_output@@IBE_NXZ 10051550 f i libucrtd:output.obj
 0001:00050590       ?should_skip_type_state_output@?$standard_base@DV?$stream_output_adapter@D@__crt_stdio_output@@@__crt_stdio_output@@IBE_NXZ 10051590 f i libucrtd:output.obj
 0001:000505a0       ?should_skip_type_state_output@?$standard_base@DV?$string_output_adapter@D@__crt_stdio_output@@@__crt_stdio_output@@IBE_NXZ 100515a0 f i libucrtd:output.obj
 0001:000505b0       ?should_skip_type_state_output@?$standard_base@_WV?$stream_output_adapter@_W@__crt_stdio_output@@@__crt_stdio_output@@IBE_NXZ 100515b0 f i libucrtd:output.obj
 0001:000505c0       ?should_skip_type_state_output@?$standard_base@_WV?$string_output_adapter@_W@__crt_stdio_output@@@__crt_stdio_output@@IBE_NXZ 100515c0 f i libucrtd:output.obj
 0001:000505d0       ?state_case_dot@?$output_processor@DV?$stream_output_adapter@D@__crt_stdio_output@@V?$format_validation_base@DV?$stream_output_adapter@D@__crt_stdio_output@@@2@@__crt_stdio_output@@AAE_NXZ 100515d0 f i libucrtd:output.obj
 0001:000505f0       ?state_case_dot@?$output_processor@DV?$stream_output_adapter@D@__crt_stdio_output@@V?$positional_parameter_base@DV?$stream_output_adapter@D@__crt_stdio_output@@@2@@__crt_stdio_output@@AAE_NXZ 100515f0 f i libucrtd:output.obj
 0001:00050610       ?state_case_dot@?$output_processor@DV?$stream_output_adapter@D@__crt_stdio_output@@V?$standard_base@DV?$stream_output_adapter@D@__crt_stdio_output@@@2@@__crt_stdio_output@@AAE_NXZ 10051610 f i libucrtd:output.obj
 0001:00050630       ?state_case_dot@?$output_processor@DV?$string_output_adapter@D@__crt_stdio_output@@V?$format_validation_base@DV?$string_output_adapter@D@__crt_stdio_output@@@2@@__crt_stdio_output@@AAE_NXZ 10051630 f i libucrtd:output.obj
 0001:00050650       ?state_case_dot@?$output_processor@DV?$string_output_adapter@D@__crt_stdio_output@@V?$positional_parameter_base@DV?$string_output_adapter@D@__crt_stdio_output@@@2@@__crt_stdio_output@@AAE_NXZ 10051650 f i libucrtd:output.obj
 0001:00050670       ?state_case_dot@?$output_processor@DV?$string_output_adapter@D@__crt_stdio_output@@V?$standard_base@DV?$string_output_adapter@D@__crt_stdio_output@@@2@@__crt_stdio_output@@AAE_NXZ 10051670 f i libucrtd:output.obj
 0001:00050690       ?state_case_dot@?$output_processor@_WV?$stream_output_adapter@_W@__crt_stdio_output@@V?$format_validation_base@_WV?$stream_output_adapter@_W@__crt_stdio_output@@@2@@__crt_stdio_output@@AAE_NXZ 10051690 f i libucrtd:output.obj
 0001:000506b0       ?state_case_dot@?$output_processor@_WV?$stream_output_adapter@_W@__crt_stdio_output@@V?$positional_parameter_base@_WV?$stream_output_adapter@_W@__crt_stdio_output@@@2@@__crt_stdio_output@@AAE_NXZ 100516b0 f i libucrtd:output.obj
 0001:000506d0       ?state_case_dot@?$output_processor@_WV?$stream_output_adapter@_W@__crt_stdio_output@@V?$standard_base@_WV?$stream_output_adapter@_W@__crt_stdio_output@@@2@@__crt_stdio_output@@AAE_NXZ 100516d0 f i libucrtd:output.obj
 0001:000506f0       ?state_case_dot@?$output_processor@_WV?$string_output_adapter@_W@__crt_stdio_output@@V?$format_validation_base@_WV?$string_output_adapter@_W@__crt_stdio_output@@@2@@__crt_stdio_output@@AAE_NXZ 100516f0 f i libucrtd:output.obj
 0001:00050710       ?state_case_dot@?$output_processor@_WV?$string_output_adapter@_W@__crt_stdio_output@@V?$positional_parameter_base@_WV?$string_output_adapter@_W@__crt_stdio_output@@@2@@__crt_stdio_output@@AAE_NXZ 10051710 f i libucrtd:output.obj
 0001:00050730       ?state_case_dot@?$output_processor@_WV?$string_output_adapter@_W@__crt_stdio_output@@V?$standard_base@_WV?$string_output_adapter@_W@__crt_stdio_output@@@2@@__crt_stdio_output@@AAE_NXZ 10051730 f i libucrtd:output.obj
 0001:00050750       ?state_case_flag@?$output_processor@DV?$stream_output_adapter@D@__crt_stdio_output@@V?$format_validation_base@DV?$stream_output_adapter@D@__crt_stdio_output@@@2@@__crt_stdio_output@@AAE_NXZ 10051750 f i libucrtd:output.obj
 0001:00050800       ?state_case_flag@?$output_processor@DV?$stream_output_adapter@D@__crt_stdio_output@@V?$positional_parameter_base@DV?$stream_output_adapter@D@__crt_stdio_output@@@2@@__crt_stdio_output@@AAE_NXZ 10051800 f i libucrtd:output.obj
 0001:000508b0       ?state_case_flag@?$output_processor@DV?$stream_output_adapter@D@__crt_stdio_output@@V?$standard_base@DV?$stream_output_adapter@D@__crt_stdio_output@@@2@@__crt_stdio_output@@AAE_NXZ 100518b0 f i libucrtd:output.obj
 0001:00050960       ?state_case_flag@?$output_processor@DV?$string_output_adapter@D@__crt_stdio_output@@V?$format_validation_base@DV?$string_output_adapter@D@__crt_stdio_output@@@2@@__crt_stdio_output@@AAE_NXZ 10051960 f i libucrtd:output.obj
 0001:00050a10       ?state_case_flag@?$output_processor@DV?$string_output_adapter@D@__crt_stdio_output@@V?$positional_parameter_base@DV?$string_output_adapter@D@__crt_stdio_output@@@2@@__crt_stdio_output@@AAE_NXZ 10051a10 f i libucrtd:output.obj
 0001:00050ac0       ?state_case_flag@?$output_processor@DV?$string_output_adapter@D@__crt_stdio_output@@V?$standard_base@DV?$string_output_adapter@D@__crt_stdio_output@@@2@@__crt_stdio_output@@AAE_NXZ 10051ac0 f i libucrtd:output.obj
 0001:00050b70       ?state_case_flag@?$output_processor@_WV?$stream_output_adapter@_W@__crt_stdio_output@@V?$format_validation_base@_WV?$stream_output_adapter@_W@__crt_stdio_output@@@2@@__crt_stdio_output@@AAE_NXZ 10051b70 f i libucrtd:output.obj
 0001:00050c20       ?state_case_flag@?$output_processor@_WV?$stream_output_adapter@_W@__crt_stdio_output@@V?$positional_parameter_base@_WV?$stream_output_adapter@_W@__crt_stdio_output@@@2@@__crt_stdio_output@@AAE_NXZ 10051c20 f i libucrtd:output.obj
 0001:00050cd0       ?state_case_flag@?$output_processor@_WV?$stream_output_adapter@_W@__crt_stdio_output@@V?$standard_base@_WV?$stream_output_adapter@_W@__crt_stdio_output@@@2@@__crt_stdio_output@@AAE_NXZ 10051cd0 f i libucrtd:output.obj
 0001:00050d80       ?state_case_flag@?$output_processor@_WV?$string_output_adapter@_W@__crt_stdio_output@@V?$format_validation_base@_WV?$string_output_adapter@_W@__crt_stdio_output@@@2@@__crt_stdio_output@@AAE_NXZ 10051d80 f i libucrtd:output.obj
 0001:00050e30       ?state_case_flag@?$output_processor@_WV?$string_output_adapter@_W@__crt_stdio_output@@V?$positional_parameter_base@_WV?$string_output_adapter@_W@__crt_stdio_output@@@2@@__crt_stdio_output@@AAE_NXZ 10051e30 f i libucrtd:output.obj
 0001:00050ee0       ?state_case_flag@?$output_processor@_WV?$string_output_adapter@_W@__crt_stdio_output@@V?$standard_base@_WV?$string_output_adapter@_W@__crt_stdio_output@@@2@@__crt_stdio_output@@AAE_NXZ 10051ee0 f i libucrtd:output.obj
 0001:00050f90       ?state_case_normal@?$output_processor@DV?$stream_output_adapter@D@__crt_stdio_output@@V?$format_validation_base@DV?$stream_output_adapter@D@__crt_stdio_output@@@2@@__crt_stdio_output@@AAE_NXZ 10051f90 f i libucrtd:output.obj
 0001:00051040       ?state_case_normal@?$output_processor@DV?$stream_output_adapter@D@__crt_stdio_output@@V?$positional_parameter_base@DV?$stream_output_adapter@D@__crt_stdio_output@@@2@@__crt_stdio_output@@AAE_NXZ 10052040 f i libucrtd:output.obj
 0001:000510f0       ?state_case_normal@?$output_processor@DV?$stream_output_adapter@D@__crt_stdio_output@@V?$standard_base@DV?$stream_output_adapter@D@__crt_stdio_output@@@2@@__crt_stdio_output@@AAE_NXZ 100520f0 f i libucrtd:output.obj
 0001:000511a0       ?state_case_normal@?$output_processor@DV?$string_output_adapter@D@__crt_stdio_output@@V?$format_validation_base@DV?$string_output_adapter@D@__crt_stdio_output@@@2@@__crt_stdio_output@@AAE_NXZ 100521a0 f i libucrtd:output.obj
 0001:00051250       ?state_case_normal@?$output_processor@DV?$string_output_adapter@D@__crt_stdio_output@@V?$positional_parameter_base@DV?$string_output_adapter@D@__crt_stdio_output@@@2@@__crt_stdio_output@@AAE_NXZ 10052250 f i libucrtd:output.obj
 0001:00051300       ?state_case_normal@?$output_processor@DV?$string_output_adapter@D@__crt_stdio_output@@V?$standard_base@DV?$string_output_adapter@D@__crt_stdio_output@@@2@@__crt_stdio_output@@AAE_NXZ 10052300 f i libucrtd:output.obj
 0001:000513b0       ?state_case_normal@?$output_processor@_WV?$stream_output_adapter@_W@__crt_stdio_output@@V?$format_validation_base@_WV?$stream_output_adapter@_W@__crt_stdio_output@@@2@@__crt_stdio_output@@AAE_NXZ 100523b0 f i libucrtd:output.obj
 0001:00051460       ?state_case_normal@?$output_processor@_WV?$stream_output_adapter@_W@__crt_stdio_output@@V?$positional_parameter_base@_WV?$stream_output_adapter@_W@__crt_stdio_output@@@2@@__crt_stdio_output@@AAE_NXZ 10052460 f i libucrtd:output.obj
 0001:00051510       ?state_case_normal@?$output_processor@_WV?$stream_output_adapter@_W@__crt_stdio_output@@V?$standard_base@_WV?$stream_output_adapter@_W@__crt_stdio_output@@@2@@__crt_stdio_output@@AAE_NXZ 10052510 f i libucrtd:output.obj
 0001:000515c0       ?state_case_normal@?$output_processor@_WV?$string_output_adapter@_W@__crt_stdio_output@@V?$format_validation_base@_WV?$string_output_adapter@_W@__crt_stdio_output@@@2@@__crt_stdio_output@@AAE_NXZ 100525c0 f i libucrtd:output.obj
 0001:00051670       ?state_case_normal@?$output_processor@_WV?$string_output_adapter@_W@__crt_stdio_output@@V?$positional_parameter_base@_WV?$string_output_adapter@_W@__crt_stdio_output@@@2@@__crt_stdio_output@@AAE_NXZ 10052670 f i libucrtd:output.obj
 0001:00051720       ?state_case_normal@?$output_processor@_WV?$string_output_adapter@_W@__crt_stdio_output@@V?$standard_base@_WV?$string_output_adapter@_W@__crt_stdio_output@@@2@@__crt_stdio_output@@AAE_NXZ 10052720 f i libucrtd:output.obj
 0001:000517d0       ?state_case_normal_common@?$output_processor@DV?$stream_output_adapter@D@__crt_stdio_output@@V?$format_validation_base@DV?$stream_output_adapter@D@__crt_stdio_output@@@2@@__crt_stdio_output@@AAE_NXZ 100527d0 f i libucrtd:output.obj
 0001:00051820       ?state_case_normal_common@?$output_processor@DV?$stream_output_adapter@D@__crt_stdio_output@@V?$positional_parameter_base@DV?$stream_output_adapter@D@__crt_stdio_output@@@2@@__crt_stdio_output@@AAE_NXZ 10052820 f i libucrtd:output.obj
 0001:00051870       ?state_case_normal_common@?$output_processor@DV?$stream_output_adapter@D@__crt_stdio_output@@V?$standard_base@DV?$stream_output_adapter@D@__crt_stdio_output@@@2@@__crt_stdio_output@@AAE_NXZ 10052870 f i libucrtd:output.obj
 0001:000518c0       ?state_case_normal_common@?$output_processor@DV?$string_output_adapter@D@__crt_stdio_output@@V?$format_validation_base@DV?$string_output_adapter@D@__crt_stdio_output@@@2@@__crt_stdio_output@@AAE_NXZ 100528c0 f i libucrtd:output.obj
 0001:00051910       ?state_case_normal_common@?$output_processor@DV?$string_output_adapter@D@__crt_stdio_output@@V?$positional_parameter_base@DV?$string_output_adapter@D@__crt_stdio_output@@@2@@__crt_stdio_output@@AAE_NXZ 10052910 f i libucrtd:output.obj
 0001:00051960       ?state_case_normal_common@?$output_processor@DV?$string_output_adapter@D@__crt_stdio_output@@V?$standard_base@DV?$string_output_adapter@D@__crt_stdio_output@@@2@@__crt_stdio_output@@AAE_NXZ 10052960 f i libucrtd:output.obj
 0001:000519b0       ?state_case_normal_common@?$output_processor@_WV?$stream_output_adapter@_W@__crt_stdio_output@@V?$format_validation_base@_WV?$stream_output_adapter@_W@__crt_stdio_output@@@2@@__crt_stdio_output@@AAE_NXZ 100529b0 f i libucrtd:output.obj
 0001:00051a00       ?state_case_normal_common@?$output_processor@_WV?$stream_output_adapter@_W@__crt_stdio_output@@V?$positional_parameter_base@_WV?$stream_output_adapter@_W@__crt_stdio_output@@@2@@__crt_stdio_output@@AAE_NXZ 10052a00 f i libucrtd:output.obj
 0001:00051a50       ?state_case_normal_common@?$output_processor@_WV?$stream_output_adapter@_W@__crt_stdio_output@@V?$standard_base@_WV?$stream_output_adapter@_W@__crt_stdio_output@@@2@@__crt_stdio_output@@AAE_NXZ 10052a50 f i libucrtd:output.obj
 0001:00051aa0       ?state_case_normal_common@?$output_processor@_WV?$string_output_adapter@_W@__crt_stdio_output@@V?$format_validation_base@_WV?$string_output_adapter@_W@__crt_stdio_output@@@2@@__crt_stdio_output@@AAE_NXZ 10052aa0 f i libucrtd:output.obj
 0001:00051af0       ?state_case_normal_common@?$output_processor@_WV?$string_output_adapter@_W@__crt_stdio_output@@V?$positional_parameter_base@_WV?$string_output_adapter@_W@__crt_stdio_output@@@2@@__crt_stdio_output@@AAE_NXZ 10052af0 f i libucrtd:output.obj
 0001:00051b40       ?state_case_normal_common@?$output_processor@_WV?$string_output_adapter@_W@__crt_stdio_output@@V?$standard_base@_WV?$string_output_adapter@_W@__crt_stdio_output@@@2@@__crt_stdio_output@@AAE_NXZ 10052b40 f i libucrtd:output.obj
 0001:00051b90       ?state_case_normal_tchar@?$output_processor@DV?$stream_output_adapter@D@__crt_stdio_output@@V?$format_validation_base@DV?$stream_output_adapter@D@__crt_stdio_output@@@2@@__crt_stdio_output@@AAE_ND@Z 10052b90 f i libucrtd:output.obj
 0001:00051c90       ?state_case_normal_tchar@?$output_processor@DV?$stream_output_adapter@D@__crt_stdio_output@@V?$positional_parameter_base@DV?$stream_output_adapter@D@__crt_stdio_output@@@2@@__crt_stdio_output@@AAE_ND@Z 10052c90 f i libucrtd:output.obj
 0001:00051d90       ?state_case_normal_tchar@?$output_processor@DV?$stream_output_adapter@D@__crt_stdio_output@@V?$standard_base@DV?$stream_output_adapter@D@__crt_stdio_output@@@2@@__crt_stdio_output@@AAE_ND@Z 10052d90 f i libucrtd:output.obj
 0001:00051e90       ?state_case_normal_tchar@?$output_processor@DV?$string_output_adapter@D@__crt_stdio_output@@V?$format_validation_base@DV?$string_output_adapter@D@__crt_stdio_output@@@2@@__crt_stdio_output@@AAE_ND@Z 10052e90 f i libucrtd:output.obj
 0001:00051f90       ?state_case_normal_tchar@?$output_processor@DV?$string_output_adapter@D@__crt_stdio_output@@V?$positional_parameter_base@DV?$string_output_adapter@D@__crt_stdio_output@@@2@@__crt_stdio_output@@AAE_ND@Z 10052f90 f i libucrtd:output.obj
 0001:00052090       ?state_case_normal_tchar@?$output_processor@DV?$string_output_adapter@D@__crt_stdio_output@@V?$standard_base@DV?$string_output_adapter@D@__crt_stdio_output@@@2@@__crt_stdio_output@@AAE_ND@Z 10053090 f i libucrtd:output.obj
 0001:00052190       ?state_case_normal_tchar@?$output_processor@_WV?$stream_output_adapter@_W@__crt_stdio_output@@V?$format_validation_base@_WV?$stream_output_adapter@_W@__crt_stdio_output@@@2@@__crt_stdio_output@@AAE_N_W@Z 10053190 f i libucrtd:output.obj
 0001:000521b0       ?state_case_normal_tchar@?$output_processor@_WV?$stream_output_adapter@_W@__crt_stdio_output@@V?$positional_parameter_base@_WV?$stream_output_adapter@_W@__crt_stdio_output@@@2@@__crt_stdio_output@@AAE_N_W@Z 100531b0 f i libucrtd:output.obj
 0001:000521d0       ?state_case_normal_tchar@?$output_processor@_WV?$stream_output_adapter@_W@__crt_stdio_output@@V?$standard_base@_WV?$stream_output_adapter@_W@__crt_stdio_output@@@2@@__crt_stdio_output@@AAE_N_W@Z 100531d0 f i libucrtd:output.obj
 0001:000521f0       ?state_case_normal_tchar@?$output_processor@_WV?$string_output_adapter@_W@__crt_stdio_output@@V?$format_validation_base@_WV?$string_output_adapter@_W@__crt_stdio_output@@@2@@__crt_stdio_output@@AAE_N_W@Z 100531f0 f i libucrtd:output.obj
 0001:00052210       ?state_case_normal_tchar@?$output_processor@_WV?$string_output_adapter@_W@__crt_stdio_output@@V?$positional_parameter_base@_WV?$string_output_adapter@_W@__crt_stdio_output@@@2@@__crt_stdio_output@@AAE_N_W@Z 10053210 f i libucrtd:output.obj
 0001:00052230       ?state_case_normal_tchar@?$output_processor@_WV?$string_output_adapter@_W@__crt_stdio_output@@V?$standard_base@_WV?$string_output_adapter@_W@__crt_stdio_output@@@2@@__crt_stdio_output@@AAE_N_W@Z 10053230 f i libucrtd:output.obj
 0001:00052250       ?state_case_percent@?$output_processor@DV?$stream_output_adapter@D@__crt_stdio_output@@V?$format_validation_base@DV?$stream_output_adapter@D@__crt_stdio_output@@@2@@__crt_stdio_output@@AAE_NXZ 10053250 f i libucrtd:output.obj
 0001:000522a0       ?state_case_percent@?$output_processor@DV?$stream_output_adapter@D@__crt_stdio_output@@V?$positional_parameter_base@DV?$stream_output_adapter@D@__crt_stdio_output@@@2@@__crt_stdio_output@@AAE_NXZ 100532a0 f i libucrtd:output.obj
 0001:000522f0       ?state_case_percent@?$output_processor@DV?$stream_output_adapter@D@__crt_stdio_output@@V?$standard_base@DV?$stream_output_adapter@D@__crt_stdio_output@@@2@@__crt_stdio_output@@AAE_NXZ 100532f0 f i libucrtd:output.obj
 0001:00052340       ?state_case_percent@?$output_processor@DV?$string_output_adapter@D@__crt_stdio_output@@V?$format_validation_base@DV?$string_output_adapter@D@__crt_stdio_output@@@2@@__crt_stdio_output@@AAE_NXZ 10053340 f i libucrtd:output.obj
 0001:00052390       ?state_case_percent@?$output_processor@DV?$string_output_adapter@D@__crt_stdio_output@@V?$positional_parameter_base@DV?$string_output_adapter@D@__crt_stdio_output@@@2@@__crt_stdio_output@@AAE_NXZ 10053390 f i libucrtd:output.obj
 0001:000523e0       ?state_case_percent@?$output_processor@DV?$string_output_adapter@D@__crt_stdio_output@@V?$standard_base@DV?$string_output_adapter@D@__crt_stdio_output@@@2@@__crt_stdio_output@@AAE_NXZ 100533e0 f i libucrtd:output.obj
 0001:00052430       ?state_case_percent@?$output_processor@_WV?$stream_output_adapter@_W@__crt_stdio_output@@V?$format_validation_base@_WV?$stream_output_adapter@_W@__crt_stdio_output@@@2@@__crt_stdio_output@@AAE_NXZ 10053430 f i libucrtd:output.obj
 0001:00052480       ?state_case_percent@?$output_processor@_WV?$stream_output_adapter@_W@__crt_stdio_output@@V?$positional_parameter_base@_WV?$stream_output_adapter@_W@__crt_stdio_output@@@2@@__crt_stdio_output@@AAE_NXZ 10053480 f i libucrtd:output.obj
 0001:000524d0       ?state_case_percent@?$output_processor@_WV?$stream_output_adapter@_W@__crt_stdio_output@@V?$standard_base@_WV?$stream_output_adapter@_W@__crt_stdio_output@@@2@@__crt_stdio_output@@AAE_NXZ 100534d0 f i libucrtd:output.obj
 0001:00052520       ?state_case_percent@?$output_processor@_WV?$string_output_adapter@_W@__crt_stdio_output@@V?$format_validation_base@_WV?$string_output_adapter@_W@__crt_stdio_output@@@2@@__crt_stdio_output@@AAE_NXZ 10053520 f i libucrtd:output.obj
 0001:00052570       ?state_case_percent@?$output_processor@_WV?$string_output_adapter@_W@__crt_stdio_output@@V?$positional_parameter_base@_WV?$string_output_adapter@_W@__crt_stdio_output@@@2@@__crt_stdio_output@@AAE_NXZ 10053570 f i libucrtd:output.obj
 0001:000525c0       ?state_case_percent@?$output_processor@_WV?$string_output_adapter@_W@__crt_stdio_output@@V?$standard_base@_WV?$string_output_adapter@_W@__crt_stdio_output@@@2@@__crt_stdio_output@@AAE_NXZ 100535c0 f i libucrtd:output.obj
 0001:00052610       ?state_case_precision@?$output_processor@DV?$stream_output_adapter@D@__crt_stdio_output@@V?$format_validation_base@DV?$stream_output_adapter@D@__crt_stdio_output@@@2@@__crt_stdio_output@@AAE_NXZ 10053610 f i libucrtd:output.obj
 0001:00052680       ?state_case_precision@?$output_processor@DV?$stream_output_adapter@D@__crt_stdio_output@@V?$positional_parameter_base@DV?$stream_output_adapter@D@__crt_stdio_output@@@2@@__crt_stdio_output@@AAE_NXZ 10053680 f i libucrtd:output.obj
 0001:000526f0       ?state_case_precision@?$output_processor@DV?$stream_output_adapter@D@__crt_stdio_output@@V?$standard_base@DV?$stream_output_adapter@D@__crt_stdio_output@@@2@@__crt_stdio_output@@AAE_NXZ 100536f0 f i libucrtd:output.obj
 0001:00052760       ?state_case_precision@?$output_processor@DV?$string_output_adapter@D@__crt_stdio_output@@V?$format_validation_base@DV?$string_output_adapter@D@__crt_stdio_output@@@2@@__crt_stdio_output@@AAE_NXZ 10053760 f i libucrtd:output.obj
 0001:000527d0       ?state_case_precision@?$output_processor@DV?$string_output_adapter@D@__crt_stdio_output@@V?$positional_parameter_base@DV?$string_output_adapter@D@__crt_stdio_output@@@2@@__crt_stdio_output@@AAE_NXZ 100537d0 f i libucrtd:output.obj
 0001:00052840       ?state_case_precision@?$output_processor@DV?$string_output_adapter@D@__crt_stdio_output@@V?$standard_base@DV?$string_output_adapter@D@__crt_stdio_output@@@2@@__crt_stdio_output@@AAE_NXZ 10053840 f i libucrtd:output.obj
 0001:000528b0       ?state_case_precision@?$output_processor@_WV?$stream_output_adapter@_W@__crt_stdio_output@@V?$format_validation_base@_WV?$stream_output_adapter@_W@__crt_stdio_output@@@2@@__crt_stdio_output@@AAE_NXZ 100538b0 f i libucrtd:output.obj
 0001:00052920       ?state_case_precision@?$output_processor@_WV?$stream_output_adapter@_W@__crt_stdio_output@@V?$positional_parameter_base@_WV?$stream_output_adapter@_W@__crt_stdio_output@@@2@@__crt_stdio_output@@AAE_NXZ 10053920 f i libucrtd:output.obj
 0001:00052990       ?state_case_precision@?$output_processor@_WV?$stream_output_adapter@_W@__crt_stdio_output@@V?$standard_base@_WV?$stream_output_adapter@_W@__crt_stdio_output@@@2@@__crt_stdio_output@@AAE_NXZ 10053990 f i libucrtd:output.obj
 0001:00052a00       ?state_case_precision@?$output_processor@_WV?$string_output_adapter@_W@__crt_stdio_output@@V?$format_validation_base@_WV?$string_output_adapter@_W@__crt_stdio_output@@@2@@__crt_stdio_output@@AAE_NXZ 10053a00 f i libucrtd:output.obj
 0001:00052a70       ?state_case_precision@?$output_processor@_WV?$string_output_adapter@_W@__crt_stdio_output@@V?$positional_parameter_base@_WV?$string_output_adapter@_W@__crt_stdio_output@@@2@@__crt_stdio_output@@AAE_NXZ 10053a70 f i libucrtd:output.obj
 0001:00052ae0       ?state_case_precision@?$output_processor@_WV?$string_output_adapter@_W@__crt_stdio_output@@V?$standard_base@_WV?$string_output_adapter@_W@__crt_stdio_output@@@2@@__crt_stdio_output@@AAE_NXZ 10053ae0 f i libucrtd:output.obj
 0001:00052b50       ?state_case_size@?$output_processor@DV?$stream_output_adapter@D@__crt_stdio_output@@V?$format_validation_base@DV?$stream_output_adapter@D@__crt_stdio_output@@@2@@__crt_stdio_output@@AAE_NXZ 10053b50 f i libucrtd:output.obj
 0001:00052f20       ?state_case_size@?$output_processor@DV?$stream_output_adapter@D@__crt_stdio_output@@V?$positional_parameter_base@DV?$stream_output_adapter@D@__crt_stdio_output@@@2@@__crt_stdio_output@@AAE_NXZ 10053f20 f i libucrtd:output.obj
 0001:000532f0       ?state_case_size@?$output_processor@DV?$stream_output_adapter@D@__crt_stdio_output@@V?$standard_base@DV?$stream_output_adapter@D@__crt_stdio_output@@@2@@__crt_stdio_output@@AAE_NXZ 100542f0 f i libucrtd:output.obj
 0001:000536c0       ?state_case_size@?$output_processor@DV?$string_output_adapter@D@__crt_stdio_output@@V?$format_validation_base@DV?$string_output_adapter@D@__crt_stdio_output@@@2@@__crt_stdio_output@@AAE_NXZ 100546c0 f i libucrtd:output.obj
 0001:00053a90       ?state_case_size@?$output_processor@DV?$string_output_adapter@D@__crt_stdio_output@@V?$positional_parameter_base@DV?$string_output_adapter@D@__crt_stdio_output@@@2@@__crt_stdio_output@@AAE_NXZ 10054a90 f i libucrtd:output.obj
 0001:00053e60       ?state_case_size@?$output_processor@DV?$string_output_adapter@D@__crt_stdio_output@@V?$standard_base@DV?$string_output_adapter@D@__crt_stdio_output@@@2@@__crt_stdio_output@@AAE_NXZ 10054e60 f i libucrtd:output.obj
 0001:00054230       ?state_case_size@?$output_processor@_WV?$stream_output_adapter@_W@__crt_stdio_output@@V?$format_validation_base@_WV?$stream_output_adapter@_W@__crt_stdio_output@@@2@@__crt_stdio_output@@AAE_NXZ 10055230 f i libucrtd:output.obj
 0001:00054600       ?state_case_size@?$output_processor@_WV?$stream_output_adapter@_W@__crt_stdio_output@@V?$positional_parameter_base@_WV?$stream_output_adapter@_W@__crt_stdio_output@@@2@@__crt_stdio_output@@AAE_NXZ 10055600 f i libucrtd:output.obj
 0001:000549d0       ?state_case_size@?$output_processor@_WV?$stream_output_adapter@_W@__crt_stdio_output@@V?$standard_base@_WV?$stream_output_adapter@_W@__crt_stdio_output@@@2@@__crt_stdio_output@@AAE_NXZ 100559d0 f i libucrtd:output.obj
 0001:00054da0       ?state_case_size@?$output_processor@_WV?$string_output_adapter@_W@__crt_stdio_output@@V?$format_validation_base@_WV?$string_output_adapter@_W@__crt_stdio_output@@@2@@__crt_stdio_output@@AAE_NXZ 10055da0 f i libucrtd:output.obj
 0001:00055170       ?state_case_size@?$output_processor@_WV?$string_output_adapter@_W@__crt_stdio_output@@V?$positional_parameter_base@_WV?$string_output_adapter@_W@__crt_stdio_output@@@2@@__crt_stdio_output@@AAE_NXZ 10056170 f i libucrtd:output.obj
 0001:00055540       ?state_case_size@?$output_processor@_WV?$string_output_adapter@_W@__crt_stdio_output@@V?$standard_base@_WV?$string_output_adapter@_W@__crt_stdio_output@@@2@@__crt_stdio_output@@AAE_NXZ 10056540 f i libucrtd:output.obj
 0001:00055910       ?state_case_type@?$output_processor@DV?$stream_output_adapter@D@__crt_stdio_output@@V?$format_validation_base@DV?$stream_output_adapter@D@__crt_stdio_output@@@2@@__crt_stdio_output@@AAE_NXZ 10056910 f i libucrtd:output.obj
 0001:00055cc0       ?state_case_type@?$output_processor@DV?$stream_output_adapter@D@__crt_stdio_output@@V?$positional_parameter_base@DV?$stream_output_adapter@D@__crt_stdio_output@@@2@@__crt_stdio_output@@AAE_NXZ 10056cc0 f i libucrtd:output.obj
 0001:00056070       ?state_case_type@?$output_processor@DV?$stream_output_adapter@D@__crt_stdio_output@@V?$standard_base@DV?$stream_output_adapter@D@__crt_stdio_output@@@2@@__crt_stdio_output@@AAE_NXZ 10057070 f i libucrtd:output.obj
 0001:00056420       ?state_case_type@?$output_processor@DV?$string_output_adapter@D@__crt_stdio_output@@V?$format_validation_base@DV?$string_output_adapter@D@__crt_stdio_output@@@2@@__crt_stdio_output@@AAE_NXZ 10057420 f i libucrtd:output.obj
 0001:000567d0       ?state_case_type@?$output_processor@DV?$string_output_adapter@D@__crt_stdio_output@@V?$positional_parameter_base@DV?$string_output_adapter@D@__crt_stdio_output@@@2@@__crt_stdio_output@@AAE_NXZ 100577d0 f i libucrtd:output.obj
 0001:00056b80       ?state_case_type@?$output_processor@DV?$string_output_adapter@D@__crt_stdio_output@@V?$standard_base@DV?$string_output_adapter@D@__crt_stdio_output@@@2@@__crt_stdio_output@@AAE_NXZ 10057b80 f i libucrtd:output.obj
 0001:00056f30       ?state_case_type@?$output_processor@_WV?$stream_output_adapter@_W@__crt_stdio_output@@V?$format_validation_base@_WV?$stream_output_adapter@_W@__crt_stdio_output@@@2@@__crt_stdio_output@@AAE_NXZ 10057f30 f i libucrtd:output.obj
 0001:00057310       ?state_case_type@?$output_processor@_WV?$stream_output_adapter@_W@__crt_stdio_output@@V?$positional_parameter_base@_WV?$stream_output_adapter@_W@__crt_stdio_output@@@2@@__crt_stdio_output@@AAE_NXZ 10058310 f i libucrtd:output.obj
 0001:000576f0       ?state_case_type@?$output_processor@_WV?$stream_output_adapter@_W@__crt_stdio_output@@V?$standard_base@_WV?$stream_output_adapter@_W@__crt_stdio_output@@@2@@__crt_stdio_output@@AAE_NXZ 100586f0 f i libucrtd:output.obj
 0001:00057ad0       ?state_case_type@?$output_processor@_WV?$string_output_adapter@_W@__crt_stdio_output@@V?$format_validation_base@_WV?$string_output_adapter@_W@__crt_stdio_output@@@2@@__crt_stdio_output@@AAE_NXZ 10058ad0 f i libucrtd:output.obj
 0001:00057eb0       ?state_case_type@?$output_processor@_WV?$string_output_adapter@_W@__crt_stdio_output@@V?$positional_parameter_base@_WV?$string_output_adapter@_W@__crt_stdio_output@@@2@@__crt_stdio_output@@AAE_NXZ 10058eb0 f i libucrtd:output.obj
 0001:00058290       ?state_case_type@?$output_processor@_WV?$string_output_adapter@_W@__crt_stdio_output@@V?$standard_base@_WV?$string_output_adapter@_W@__crt_stdio_output@@@2@@__crt_stdio_output@@AAE_NXZ 10059290 f i libucrtd:output.obj
 0001:00058670       ?state_case_width@?$output_processor@DV?$stream_output_adapter@D@__crt_stdio_output@@V?$format_validation_base@DV?$stream_output_adapter@D@__crt_stdio_output@@@2@@__crt_stdio_output@@AAE_NXZ 10059670 f i libucrtd:output.obj
 0001:000586f0       ?state_case_width@?$output_processor@DV?$stream_output_adapter@D@__crt_stdio_output@@V?$positional_parameter_base@DV?$stream_output_adapter@D@__crt_stdio_output@@@2@@__crt_stdio_output@@AAE_NXZ 100596f0 f i libucrtd:output.obj
 0001:00058770       ?state_case_width@?$output_processor@DV?$stream_output_adapter@D@__crt_stdio_output@@V?$standard_base@DV?$stream_output_adapter@D@__crt_stdio_output@@@2@@__crt_stdio_output@@AAE_NXZ 10059770 f i libucrtd:output.obj
 0001:000587f0       ?state_case_width@?$output_processor@DV?$string_output_adapter@D@__crt_stdio_output@@V?$format_validation_base@DV?$string_output_adapter@D@__crt_stdio_output@@@2@@__crt_stdio_output@@AAE_NXZ 100597f0 f i libucrtd:output.obj
 0001:00058870       ?state_case_width@?$output_processor@DV?$string_output_adapter@D@__crt_stdio_output@@V?$positional_parameter_base@DV?$string_output_adapter@D@__crt_stdio_output@@@2@@__crt_stdio_output@@AAE_NXZ 10059870 f i libucrtd:output.obj
 0001:000588f0       ?state_case_width@?$output_processor@DV?$string_output_adapter@D@__crt_stdio_output@@V?$standard_base@DV?$string_output_adapter@D@__crt_stdio_output@@@2@@__crt_stdio_output@@AAE_NXZ 100598f0 f i libucrtd:output.obj
 0001:00058970       ?state_case_width@?$output_processor@_WV?$stream_output_adapter@_W@__crt_stdio_output@@V?$format_validation_base@_WV?$stream_output_adapter@_W@__crt_stdio_output@@@2@@__crt_stdio_output@@AAE_NXZ 10059970 f i libucrtd:output.obj
 0001:000589f0       ?state_case_width@?$output_processor@_WV?$stream_output_adapter@_W@__crt_stdio_output@@V?$positional_parameter_base@_WV?$stream_output_adapter@_W@__crt_stdio_output@@@2@@__crt_stdio_output@@AAE_NXZ 100599f0 f i libucrtd:output.obj
 0001:00058a70       ?state_case_width@?$output_processor@_WV?$stream_output_adapter@_W@__crt_stdio_output@@V?$standard_base@_WV?$stream_output_adapter@_W@__crt_stdio_output@@@2@@__crt_stdio_output@@AAE_NXZ 10059a70 f i libucrtd:output.obj
 0001:00058af0       ?state_case_width@?$output_processor@_WV?$string_output_adapter@_W@__crt_stdio_output@@V?$format_validation_base@_WV?$string_output_adapter@_W@__crt_stdio_output@@@2@@__crt_stdio_output@@AAE_NXZ 10059af0 f i libucrtd:output.obj
 0001:00058b70       ?state_case_width@?$output_processor@_WV?$string_output_adapter@_W@__crt_stdio_output@@V?$positional_parameter_base@_WV?$string_output_adapter@_W@__crt_stdio_output@@@2@@__crt_stdio_output@@AAE_NXZ 10059b70 f i libucrtd:output.obj
 0001:00058bf0       ?state_case_width@?$output_processor@_WV?$string_output_adapter@_W@__crt_stdio_output@@V?$standard_base@_WV?$string_output_adapter@_W@__crt_stdio_output@@@2@@__crt_stdio_output@@AAE_NXZ 10059bf0 f i libucrtd:output.obj
 0001:00058c70       ?state_count@?$format_validation_base@DV?$stream_output_adapter@D@__crt_stdio_output@@@__crt_stdio_output@@KAIXZ 10059c70 f i libucrtd:output.obj
 0001:00058c80       ?state_count@?$format_validation_base@DV?$string_output_adapter@D@__crt_stdio_output@@@__crt_stdio_output@@KAIXZ 10059c80 f i libucrtd:output.obj
 0001:00058c90       ?state_count@?$format_validation_base@_WV?$stream_output_adapter@_W@__crt_stdio_output@@@__crt_stdio_output@@KAIXZ 10059c90 f i libucrtd:output.obj
 0001:00058ca0       ?state_count@?$format_validation_base@_WV?$string_output_adapter@_W@__crt_stdio_output@@@__crt_stdio_output@@KAIXZ 10059ca0 f i libucrtd:output.obj
 0001:00058cb0       ?state_count@?$standard_base@DV?$stream_output_adapter@D@__crt_stdio_output@@@__crt_stdio_output@@KAIXZ 10059cb0 f i libucrtd:output.obj
 0001:00058cc0       ?state_count@?$standard_base@DV?$string_output_adapter@D@__crt_stdio_output@@@__crt_stdio_output@@KAIXZ 10059cc0 f i libucrtd:output.obj
 0001:00058cd0       ?state_count@?$standard_base@_WV?$stream_output_adapter@_W@__crt_stdio_output@@@__crt_stdio_output@@KAIXZ 10059cd0 f i libucrtd:output.obj
 0001:00058ce0       ?state_count@?$standard_base@_WV?$string_output_adapter@_W@__crt_stdio_output@@@__crt_stdio_output@@KAIXZ 10059ce0 f i libucrtd:output.obj
 0001:00058cf0       ?state_transition_table@?$format_validation_base@DV?$stream_output_adapter@D@__crt_stdio_output@@@__crt_stdio_output@@KAABV?$spectre_mitigated_lookup_table@Ustate_transition_pair@__crt_stdio_output@@$0IA@@2@XZ 10059cf0 f i libucrtd:output.obj
 0001:00058d00       ?state_transition_table@?$format_validation_base@DV?$string_output_adapter@D@__crt_stdio_output@@@__crt_stdio_output@@KAABV?$spectre_mitigated_lookup_table@Ustate_transition_pair@__crt_stdio_output@@$0IA@@2@XZ 10059d00 f i libucrtd:output.obj
 0001:00058d10       ?state_transition_table@?$format_validation_base@_WV?$stream_output_adapter@_W@__crt_stdio_output@@@__crt_stdio_output@@KAABV?$spectre_mitigated_lookup_table@Ustate_transition_pair@__crt_stdio_output@@$0IA@@2@XZ 10059d10 f i libucrtd:output.obj
 0001:00058d20       ?state_transition_table@?$format_validation_base@_WV?$string_output_adapter@_W@__crt_stdio_output@@@__crt_stdio_output@@KAABV?$spectre_mitigated_lookup_table@Ustate_transition_pair@__crt_stdio_output@@$0IA@@2@XZ 10059d20 f i libucrtd:output.obj
 0001:00058d30       ?state_transition_table@?$standard_base@DV?$stream_output_adapter@D@__crt_stdio_output@@@__crt_stdio_output@@KAABV?$spectre_mitigated_lookup_table@Ustate_transition_pair@__crt_stdio_output@@$0IA@@2@XZ 10059d30 f i libucrtd:output.obj
 0001:00058d40       ?state_transition_table@?$standard_base@DV?$string_output_adapter@D@__crt_stdio_output@@@__crt_stdio_output@@KAABV?$spectre_mitigated_lookup_table@Ustate_transition_pair@__crt_stdio_output@@$0IA@@2@XZ 10059d40 f i libucrtd:output.obj
 0001:00058d50       ?state_transition_table@?$standard_base@_WV?$stream_output_adapter@_W@__crt_stdio_output@@@__crt_stdio_output@@KAABV?$spectre_mitigated_lookup_table@Ustate_transition_pair@__crt_stdio_output@@$0IA@@2@XZ 10059d50 f i libucrtd:output.obj
 0001:00058d60       ?state_transition_table@?$standard_base@_WV?$string_output_adapter@_W@__crt_stdio_output@@@__crt_stdio_output@@KAABV?$spectre_mitigated_lookup_table@Ustate_transition_pair@__crt_stdio_output@@$0IA@@2@XZ 10059d60 f i libucrtd:output.obj
 0001:00058d70       ?tchar_string@?$common_data@D@__crt_stdio_output@@IAEAAPADD@Z 10059d70 f i libucrtd:output.obj
 0001:00058d90       ?tchar_string@?$common_data@D@__crt_stdio_output@@IAEAAPADXZ 10059d90 f i libucrtd:output.obj
 0001:00058db0       ?tchar_string@?$common_data@_W@__crt_stdio_output@@IAEAAPA_WXZ 10059db0 f i libucrtd:output.obj
 0001:00058dd0       ?tchar_string@?$common_data@_W@__crt_stdio_output@@IAEAAPA_W_W@Z 10059dd0 f i libucrtd:output.obj
 0001:00058df0       ?to_integer_size@__crt_stdio_output@@YAIW4length_modifier@1@@Z 10059df0 f i libucrtd:output.obj
 0001:00058e90       ?type_case_X@?$output_processor@DV?$stream_output_adapter@D@__crt_stdio_output@@V?$format_validation_base@DV?$stream_output_adapter@D@__crt_stdio_output@@@2@@__crt_stdio_output@@AAE_NXZ 10059e90 f i libucrtd:output.obj
 0001:00058eb0       ?type_case_X@?$output_processor@DV?$stream_output_adapter@D@__crt_stdio_output@@V?$positional_parameter_base@DV?$stream_output_adapter@D@__crt_stdio_output@@@2@@__crt_stdio_output@@AAE_NXZ 10059eb0 f i libucrtd:output.obj
 0001:00058ed0       ?type_case_X@?$output_processor@DV?$stream_output_adapter@D@__crt_stdio_output@@V?$standard_base@DV?$stream_output_adapter@D@__crt_stdio_output@@@2@@__crt_stdio_output@@AAE_NXZ 10059ed0 f i libucrtd:output.obj
 0001:00058ef0       ?type_case_X@?$output_processor@DV?$string_output_adapter@D@__crt_stdio_output@@V?$format_validation_base@DV?$string_output_adapter@D@__crt_stdio_output@@@2@@__crt_stdio_output@@AAE_NXZ 10059ef0 f i libucrtd:output.obj
 0001:00058f10       ?type_case_X@?$output_processor@DV?$string_output_adapter@D@__crt_stdio_output@@V?$positional_parameter_base@DV?$string_output_adapter@D@__crt_stdio_output@@@2@@__crt_stdio_output@@AAE_NXZ 10059f10 f i libucrtd:output.obj
 0001:00058f30       ?type_case_X@?$output_processor@DV?$string_output_adapter@D@__crt_stdio_output@@V?$standard_base@DV?$string_output_adapter@D@__crt_stdio_output@@@2@@__crt_stdio_output@@AAE_NXZ 10059f30 f i libucrtd:output.obj
 0001:00058f50       ?type_case_X@?$output_processor@_WV?$stream_output_adapter@_W@__crt_stdio_output@@V?$format_validation_base@_WV?$stream_output_adapter@_W@__crt_stdio_output@@@2@@__crt_stdio_output@@AAE_NXZ 10059f50 f i libucrtd:output.obj
 0001:00058f70       ?type_case_X@?$output_processor@_WV?$stream_output_adapter@_W@__crt_stdio_output@@V?$positional_parameter_base@_WV?$stream_output_adapter@_W@__crt_stdio_output@@@2@@__crt_stdio_output@@AAE_NXZ 10059f70 f i libucrtd:output.obj
 0001:00058f90       ?type_case_X@?$output_processor@_WV?$stream_output_adapter@_W@__crt_stdio_output@@V?$standard_base@_WV?$stream_output_adapter@_W@__crt_stdio_output@@@2@@__crt_stdio_output@@AAE_NXZ 10059f90 f i libucrtd:output.obj
 0001:00058fb0       ?type_case_X@?$output_processor@_WV?$string_output_adapter@_W@__crt_stdio_output@@V?$format_validation_base@_WV?$string_output_adapter@_W@__crt_stdio_output@@@2@@__crt_stdio_output@@AAE_NXZ 10059fb0 f i libucrtd:output.obj
 0001:00058fd0       ?type_case_X@?$output_processor@_WV?$string_output_adapter@_W@__crt_stdio_output@@V?$positional_parameter_base@_WV?$string_output_adapter@_W@__crt_stdio_output@@@2@@__crt_stdio_output@@AAE_NXZ 10059fd0 f i libucrtd:output.obj
 0001:00058ff0       ?type_case_X@?$output_processor@_WV?$string_output_adapter@_W@__crt_stdio_output@@V?$standard_base@_WV?$string_output_adapter@_W@__crt_stdio_output@@@2@@__crt_stdio_output@@AAE_NXZ 10059ff0 f i libucrtd:output.obj
 0001:00059010       ?type_case_Z@?$output_processor@DV?$stream_output_adapter@D@__crt_stdio_output@@V?$format_validation_base@DV?$stream_output_adapter@D@__crt_stdio_output@@@2@@__crt_stdio_output@@AAE_NXZ 1005a010 f i libucrtd:output.obj
 0001:00059100       ?type_case_Z@?$output_processor@DV?$stream_output_adapter@D@__crt_stdio_output@@V?$positional_parameter_base@DV?$stream_output_adapter@D@__crt_stdio_output@@@2@@__crt_stdio_output@@AAE_NXZ 1005a100 f i libucrtd:output.obj
 0001:000591f0       ?type_case_Z@?$output_processor@DV?$stream_output_adapter@D@__crt_stdio_output@@V?$standard_base@DV?$stream_output_adapter@D@__crt_stdio_output@@@2@@__crt_stdio_output@@AAE_NXZ 1005a1f0 f i libucrtd:output.obj
 0001:000592e0       ?type_case_Z@?$output_processor@DV?$string_output_adapter@D@__crt_stdio_output@@V?$format_validation_base@DV?$string_output_adapter@D@__crt_stdio_output@@@2@@__crt_stdio_output@@AAE_NXZ 1005a2e0 f i libucrtd:output.obj
 0001:000593d0       ?type_case_Z@?$output_processor@DV?$string_output_adapter@D@__crt_stdio_output@@V?$positional_parameter_base@DV?$string_output_adapter@D@__crt_stdio_output@@@2@@__crt_stdio_output@@AAE_NXZ 1005a3d0 f i libucrtd:output.obj
 0001:000594c0       ?type_case_Z@?$output_processor@DV?$string_output_adapter@D@__crt_stdio_output@@V?$standard_base@DV?$string_output_adapter@D@__crt_stdio_output@@@2@@__crt_stdio_output@@AAE_NXZ 1005a4c0 f i libucrtd:output.obj
 0001:000595b0       ?type_case_Z@?$output_processor@_WV?$stream_output_adapter@_W@__crt_stdio_output@@V?$format_validation_base@_WV?$stream_output_adapter@_W@__crt_stdio_output@@@2@@__crt_stdio_output@@AAE_NXZ 1005a5b0 f i libucrtd:output.obj
 0001:000596a0       ?type_case_Z@?$output_processor@_WV?$stream_output_adapter@_W@__crt_stdio_output@@V?$positional_parameter_base@_WV?$stream_output_adapter@_W@__crt_stdio_output@@@2@@__crt_stdio_output@@AAE_NXZ 1005a6a0 f i libucrtd:output.obj
 0001:00059790       ?type_case_Z@?$output_processor@_WV?$stream_output_adapter@_W@__crt_stdio_output@@V?$standard_base@_WV?$stream_output_adapter@_W@__crt_stdio_output@@@2@@__crt_stdio_output@@AAE_NXZ 1005a790 f i libucrtd:output.obj
 0001:00059880       ?type_case_Z@?$output_processor@_WV?$string_output_adapter@_W@__crt_stdio_output@@V?$format_validation_base@_WV?$string_output_adapter@_W@__crt_stdio_output@@@2@@__crt_stdio_output@@AAE_NXZ 1005a880 f i libucrtd:output.obj
 0001:00059970       ?type_case_Z@?$output_processor@_WV?$string_output_adapter@_W@__crt_stdio_output@@V?$positional_parameter_base@_WV?$string_output_adapter@_W@__crt_stdio_output@@@2@@__crt_stdio_output@@AAE_NXZ 1005a970 f i libucrtd:output.obj
 0001:00059a60       ?type_case_Z@?$output_processor@_WV?$string_output_adapter@_W@__crt_stdio_output@@V?$standard_base@_WV?$string_output_adapter@_W@__crt_stdio_output@@@2@@__crt_stdio_output@@AAE_NXZ 1005aa60 f i libucrtd:output.obj
 0001:00059b50       ?type_case_a@?$output_processor@DV?$stream_output_adapter@D@__crt_stdio_output@@V?$format_validation_base@DV?$stream_output_adapter@D@__crt_stdio_output@@@2@@__crt_stdio_output@@AAE_NXZ 1005ab50 f i libucrtd:output.obj
 0001:00059dc0       ?type_case_a@?$output_processor@DV?$stream_output_adapter@D@__crt_stdio_output@@V?$positional_parameter_base@DV?$stream_output_adapter@D@__crt_stdio_output@@@2@@__crt_stdio_output@@AAE_NXZ 1005adc0 f i libucrtd:output.obj
 0001:0005a030       ?type_case_a@?$output_processor@DV?$stream_output_adapter@D@__crt_stdio_output@@V?$standard_base@DV?$stream_output_adapter@D@__crt_stdio_output@@@2@@__crt_stdio_output@@AAE_NXZ 1005b030 f i libucrtd:output.obj
 0001:0005a2a0       ?type_case_a@?$output_processor@DV?$string_output_adapter@D@__crt_stdio_output@@V?$format_validation_base@DV?$string_output_adapter@D@__crt_stdio_output@@@2@@__crt_stdio_output@@AAE_NXZ 1005b2a0 f i libucrtd:output.obj
 0001:0005a510       ?type_case_a@?$output_processor@DV?$string_output_adapter@D@__crt_stdio_output@@V?$positional_parameter_base@DV?$string_output_adapter@D@__crt_stdio_output@@@2@@__crt_stdio_output@@AAE_NXZ 1005b510 f i libucrtd:output.obj
 0001:0005a780       ?type_case_a@?$output_processor@DV?$string_output_adapter@D@__crt_stdio_output@@V?$standard_base@DV?$string_output_adapter@D@__crt_stdio_output@@@2@@__crt_stdio_output@@AAE_NXZ 1005b780 f i libucrtd:output.obj
 0001:0005a9f0       ?type_case_a@?$output_processor@_WV?$stream_output_adapter@_W@__crt_stdio_output@@V?$format_validation_base@_WV?$stream_output_adapter@_W@__crt_stdio_output@@@2@@__crt_stdio_output@@AAE_NXZ 1005b9f0 f i libucrtd:output.obj
 0001:0005ac60       ?type_case_a@?$output_processor@_WV?$stream_output_adapter@_W@__crt_stdio_output@@V?$positional_parameter_base@_WV?$stream_output_adapter@_W@__crt_stdio_output@@@2@@__crt_stdio_output@@AAE_NXZ 1005bc60 f i libucrtd:output.obj
 0001:0005aed0       ?type_case_a@?$output_processor@_WV?$stream_output_adapter@_W@__crt_stdio_output@@V?$standard_base@_WV?$stream_output_adapter@_W@__crt_stdio_output@@@2@@__crt_stdio_output@@AAE_NXZ 1005bed0 f i libucrtd:output.obj
 0001:0005b140       ?type_case_a@?$output_processor@_WV?$string_output_adapter@_W@__crt_stdio_output@@V?$format_validation_base@_WV?$string_output_adapter@_W@__crt_stdio_output@@@2@@__crt_stdio_output@@AAE_NXZ 1005c140 f i libucrtd:output.obj
 0001:0005b3b0       ?type_case_a@?$output_processor@_WV?$string_output_adapter@_W@__crt_stdio_output@@V?$positional_parameter_base@_WV?$string_output_adapter@_W@__crt_stdio_output@@@2@@__crt_stdio_output@@AAE_NXZ 1005c3b0 f i libucrtd:output.obj
 0001:0005b620       ?type_case_a@?$output_processor@_WV?$string_output_adapter@_W@__crt_stdio_output@@V?$standard_base@_WV?$string_output_adapter@_W@__crt_stdio_output@@@2@@__crt_stdio_output@@AAE_NXZ 1005c620 f i libucrtd:output.obj
 0001:0005b890       ?type_case_c@?$output_processor@DV?$stream_output_adapter@D@__crt_stdio_output@@V?$format_validation_base@DV?$stream_output_adapter@D@__crt_stdio_output@@@2@@__crt_stdio_output@@AAE_NXZ 1005c890 f i libucrtd:output.obj
 0001:0005b8b0       ?type_case_c@?$output_processor@DV?$stream_output_adapter@D@__crt_stdio_output@@V?$positional_parameter_base@DV?$stream_output_adapter@D@__crt_stdio_output@@@2@@__crt_stdio_output@@AAE_NXZ 1005c8b0 f i libucrtd:output.obj
 0001:0005b8d0       ?type_case_c@?$output_processor@DV?$stream_output_adapter@D@__crt_stdio_output@@V?$standard_base@DV?$stream_output_adapter@D@__crt_stdio_output@@@2@@__crt_stdio_output@@AAE_NXZ 1005c8d0 f i libucrtd:output.obj
 0001:0005b8f0       ?type_case_c@?$output_processor@DV?$string_output_adapter@D@__crt_stdio_output@@V?$format_validation_base@DV?$string_output_adapter@D@__crt_stdio_output@@@2@@__crt_stdio_output@@AAE_NXZ 1005c8f0 f i libucrtd:output.obj
 0001:0005b910       ?type_case_c@?$output_processor@DV?$string_output_adapter@D@__crt_stdio_output@@V?$positional_parameter_base@DV?$string_output_adapter@D@__crt_stdio_output@@@2@@__crt_stdio_output@@AAE_NXZ 1005c910 f i libucrtd:output.obj
 0001:0005b930       ?type_case_c@?$output_processor@DV?$string_output_adapter@D@__crt_stdio_output@@V?$standard_base@DV?$string_output_adapter@D@__crt_stdio_output@@@2@@__crt_stdio_output@@AAE_NXZ 1005c930 f i libucrtd:output.obj
 0001:0005b950       ?type_case_c@?$output_processor@_WV?$stream_output_adapter@_W@__crt_stdio_output@@V?$format_validation_base@_WV?$stream_output_adapter@_W@__crt_stdio_output@@@2@@__crt_stdio_output@@AAE_NXZ 1005c950 f i libucrtd:output.obj
 0001:0005b970       ?type_case_c@?$output_processor@_WV?$stream_output_adapter@_W@__crt_stdio_output@@V?$positional_parameter_base@_WV?$stream_output_adapter@_W@__crt_stdio_output@@@2@@__crt_stdio_output@@AAE_NXZ 1005c970 f i libucrtd:output.obj
 0001:0005b990       ?type_case_c@?$output_processor@_WV?$stream_output_adapter@_W@__crt_stdio_output@@V?$standard_base@_WV?$stream_output_adapter@_W@__crt_stdio_output@@@2@@__crt_stdio_output@@AAE_NXZ 1005c990 f i libucrtd:output.obj
 0001:0005b9b0       ?type_case_c@?$output_processor@_WV?$string_output_adapter@_W@__crt_stdio_output@@V?$format_validation_base@_WV?$string_output_adapter@_W@__crt_stdio_output@@@2@@__crt_stdio_output@@AAE_NXZ 1005c9b0 f i libucrtd:output.obj
 0001:0005b9d0       ?type_case_c@?$output_processor@_WV?$string_output_adapter@_W@__crt_stdio_output@@V?$positional_parameter_base@_WV?$string_output_adapter@_W@__crt_stdio_output@@@2@@__crt_stdio_output@@AAE_NXZ 1005c9d0 f i libucrtd:output.obj
 0001:0005b9f0       ?type_case_c@?$output_processor@_WV?$string_output_adapter@_W@__crt_stdio_output@@V?$standard_base@_WV?$string_output_adapter@_W@__crt_stdio_output@@@2@@__crt_stdio_output@@AAE_NXZ 1005c9f0 f i libucrtd:output.obj
 0001:0005ba10       ?type_case_c_tchar@?$output_processor@DV?$stream_output_adapter@D@__crt_stdio_output@@V?$format_validation_base@DV?$stream_output_adapter@D@__crt_stdio_output@@@2@@__crt_stdio_output@@AAE_ND@Z 1005ca10 f i libucrtd:output.obj
 0001:0005bb20       ?type_case_c_tchar@?$output_processor@DV?$stream_output_adapter@D@__crt_stdio_output@@V?$positional_parameter_base@DV?$stream_output_adapter@D@__crt_stdio_output@@@2@@__crt_stdio_output@@AAE_ND@Z 1005cb20 f i libucrtd:output.obj
 0001:0005bc30       ?type_case_c_tchar@?$output_processor@DV?$stream_output_adapter@D@__crt_stdio_output@@V?$standard_base@DV?$stream_output_adapter@D@__crt_stdio_output@@@2@@__crt_stdio_output@@AAE_ND@Z 1005cc30 f i libucrtd:output.obj
 0001:0005bd40       ?type_case_c_tchar@?$output_processor@DV?$string_output_adapter@D@__crt_stdio_output@@V?$format_validation_base@DV?$string_output_adapter@D@__crt_stdio_output@@@2@@__crt_stdio_output@@AAE_ND@Z 1005cd40 f i libucrtd:output.obj
 0001:0005be50       ?type_case_c_tchar@?$output_processor@DV?$string_output_adapter@D@__crt_stdio_output@@V?$positional_parameter_base@DV?$string_output_adapter@D@__crt_stdio_output@@@2@@__crt_stdio_output@@AAE_ND@Z 1005ce50 f i libucrtd:output.obj
 0001:0005bf60       ?type_case_c_tchar@?$output_processor@DV?$string_output_adapter@D@__crt_stdio_output@@V?$standard_base@DV?$string_output_adapter@D@__crt_stdio_output@@@2@@__crt_stdio_output@@AAE_ND@Z 1005cf60 f i libucrtd:output.obj
 0001:0005c070       ?type_case_c_tchar@?$output_processor@_WV?$stream_output_adapter@_W@__crt_stdio_output@@V?$format_validation_base@_WV?$stream_output_adapter@_W@__crt_stdio_output@@@2@@__crt_stdio_output@@AAE_N_W@Z 1005d070 f i libucrtd:output.obj
 0001:0005c170       ?type_case_c_tchar@?$output_processor@_WV?$stream_output_adapter@_W@__crt_stdio_output@@V?$positional_parameter_base@_WV?$stream_output_adapter@_W@__crt_stdio_output@@@2@@__crt_stdio_output@@AAE_N_W@Z 1005d170 f i libucrtd:output.obj
 0001:0005c270       ?type_case_c_tchar@?$output_processor@_WV?$stream_output_adapter@_W@__crt_stdio_output@@V?$standard_base@_WV?$stream_output_adapter@_W@__crt_stdio_output@@@2@@__crt_stdio_output@@AAE_N_W@Z 1005d270 f i libucrtd:output.obj
 0001:0005c370       ?type_case_c_tchar@?$output_processor@_WV?$string_output_adapter@_W@__crt_stdio_output@@V?$format_validation_base@_WV?$string_output_adapter@_W@__crt_stdio_output@@@2@@__crt_stdio_output@@AAE_N_W@Z 1005d370 f i libucrtd:output.obj
 0001:0005c470       ?type_case_c_tchar@?$output_processor@_WV?$string_output_adapter@_W@__crt_stdio_output@@V?$positional_parameter_base@_WV?$string_output_adapter@_W@__crt_stdio_output@@@2@@__crt_stdio_output@@AAE_N_W@Z 1005d470 f i libucrtd:output.obj
 0001:0005c570       ?type_case_c_tchar@?$output_processor@_WV?$string_output_adapter@_W@__crt_stdio_output@@V?$standard_base@_WV?$string_output_adapter@_W@__crt_stdio_output@@@2@@__crt_stdio_output@@AAE_N_W@Z 1005d570 f i libucrtd:output.obj
 0001:0005c670       ?type_case_d@?$output_processor@DV?$stream_output_adapter@D@__crt_stdio_output@@V?$format_validation_base@DV?$stream_output_adapter@D@__crt_stdio_output@@@2@@__crt_stdio_output@@AAE_NXZ 1005d670 f i libucrtd:output.obj
 0001:0005c6a0       ?type_case_d@?$output_processor@DV?$stream_output_adapter@D@__crt_stdio_output@@V?$positional_parameter_base@DV?$stream_output_adapter@D@__crt_stdio_output@@@2@@__crt_stdio_output@@AAE_NXZ 1005d6a0 f i libucrtd:output.obj
 0001:0005c6d0       ?type_case_d@?$output_processor@DV?$stream_output_adapter@D@__crt_stdio_output@@V?$standard_base@DV?$stream_output_adapter@D@__crt_stdio_output@@@2@@__crt_stdio_output@@AAE_NXZ 1005d6d0 f i libucrtd:output.obj
 0001:0005c700       ?type_case_d@?$output_processor@DV?$string_output_adapter@D@__crt_stdio_output@@V?$format_validation_base@DV?$string_output_adapter@D@__crt_stdio_output@@@2@@__crt_stdio_output@@AAE_NXZ 1005d700 f i libucrtd:output.obj
 0001:0005c730       ?type_case_d@?$output_processor@DV?$string_output_adapter@D@__crt_stdio_output@@V?$positional_parameter_base@DV?$string_output_adapter@D@__crt_stdio_output@@@2@@__crt_stdio_output@@AAE_NXZ 1005d730 f i libucrtd:output.obj
 0001:0005c760       ?type_case_d@?$output_processor@DV?$string_output_adapter@D@__crt_stdio_output@@V?$standard_base@DV?$string_output_adapter@D@__crt_stdio_output@@@2@@__crt_stdio_output@@AAE_NXZ 1005d760 f i libucrtd:output.obj
 0001:0005c790       ?type_case_d@?$output_processor@_WV?$stream_output_adapter@_W@__crt_stdio_output@@V?$format_validation_base@_WV?$stream_output_adapter@_W@__crt_stdio_output@@@2@@__crt_stdio_output@@AAE_NXZ 1005d790 f i libucrtd:output.obj
 0001:0005c7c0       ?type_case_d@?$output_processor@_WV?$stream_output_adapter@_W@__crt_stdio_output@@V?$positional_parameter_base@_WV?$stream_output_adapter@_W@__crt_stdio_output@@@2@@__crt_stdio_output@@AAE_NXZ 1005d7c0 f i libucrtd:output.obj
 0001:0005c7f0       ?type_case_d@?$output_processor@_WV?$stream_output_adapter@_W@__crt_stdio_output@@V?$standard_base@_WV?$stream_output_adapter@_W@__crt_stdio_output@@@2@@__crt_stdio_output@@AAE_NXZ 1005d7f0 f i libucrtd:output.obj
 0001:0005c820       ?type_case_d@?$output_processor@_WV?$string_output_adapter@_W@__crt_stdio_output@@V?$format_validation_base@_WV?$string_output_adapter@_W@__crt_stdio_output@@@2@@__crt_stdio_output@@AAE_NXZ 1005d820 f i libucrtd:output.obj
 0001:0005c850       ?type_case_d@?$output_processor@_WV?$string_output_adapter@_W@__crt_stdio_output@@V?$positional_parameter_base@_WV?$string_output_adapter@_W@__crt_stdio_output@@@2@@__crt_stdio_output@@AAE_NXZ 1005d850 f i libucrtd:output.obj
 0001:0005c880       ?type_case_d@?$output_processor@_WV?$string_output_adapter@_W@__crt_stdio_output@@V?$standard_base@_WV?$string_output_adapter@_W@__crt_stdio_output@@@2@@__crt_stdio_output@@AAE_NXZ 1005d880 f i libucrtd:output.obj
 0001:0005c8b0       ?type_case_integer@?$output_processor@DV?$stream_output_adapter@D@__crt_stdio_output@@V?$format_validation_base@DV?$stream_output_adapter@D@__crt_stdio_output@@@2@@__crt_stdio_output@@AAE_NI_N@Z 1005d8b0 f i libucrtd:output.obj
 0001:0005cc00       ?type_case_integer@?$output_processor@DV?$stream_output_adapter@D@__crt_stdio_output@@V?$positional_parameter_base@DV?$stream_output_adapter@D@__crt_stdio_output@@@2@@__crt_stdio_output@@AAE_NI_N@Z 1005dc00 f i libucrtd:output.obj
 0001:0005cf50       ?type_case_integer@?$output_processor@DV?$stream_output_adapter@D@__crt_stdio_output@@V?$standard_base@DV?$stream_output_adapter@D@__crt_stdio_output@@@2@@__crt_stdio_output@@AAE_NI_N@Z 1005df50 f i libucrtd:output.obj
 0001:0005d2a0       ?type_case_integer@?$output_processor@DV?$string_output_adapter@D@__crt_stdio_output@@V?$format_validation_base@DV?$string_output_adapter@D@__crt_stdio_output@@@2@@__crt_stdio_output@@AAE_NI_N@Z 1005e2a0 f i libucrtd:output.obj
 0001:0005d5f0       ?type_case_integer@?$output_processor@DV?$string_output_adapter@D@__crt_stdio_output@@V?$positional_parameter_base@DV?$string_output_adapter@D@__crt_stdio_output@@@2@@__crt_stdio_output@@AAE_NI_N@Z 1005e5f0 f i libucrtd:output.obj
 0001:0005d940       ?type_case_integer@?$output_processor@DV?$string_output_adapter@D@__crt_stdio_output@@V?$standard_base@DV?$string_output_adapter@D@__crt_stdio_output@@@2@@__crt_stdio_output@@AAE_NI_N@Z 1005e940 f i libucrtd:output.obj
 0001:0005dc90       ?type_case_integer@?$output_processor@_WV?$stream_output_adapter@_W@__crt_stdio_output@@V?$format_validation_base@_WV?$stream_output_adapter@_W@__crt_stdio_output@@@2@@__crt_stdio_output@@AAE_NI_N@Z 1005ec90 f i libucrtd:output.obj
 0001:0005dfe0       ?type_case_integer@?$output_processor@_WV?$stream_output_adapter@_W@__crt_stdio_output@@V?$positional_parameter_base@_WV?$stream_output_adapter@_W@__crt_stdio_output@@@2@@__crt_stdio_output@@AAE_NI_N@Z 1005efe0 f i libucrtd:output.obj
 0001:0005e330       ?type_case_integer@?$output_processor@_WV?$stream_output_adapter@_W@__crt_stdio_output@@V?$standard_base@_WV?$stream_output_adapter@_W@__crt_stdio_output@@@2@@__crt_stdio_output@@AAE_NI_N@Z 1005f330 f i libucrtd:output.obj
 0001:0005e680       ?type_case_integer@?$output_processor@_WV?$string_output_adapter@_W@__crt_stdio_output@@V?$format_validation_base@_WV?$string_output_adapter@_W@__crt_stdio_output@@@2@@__crt_stdio_output@@AAE_NI_N@Z 1005f680 f i libucrtd:output.obj
 0001:0005e9d0       ?type_case_integer@?$output_processor@_WV?$string_output_adapter@_W@__crt_stdio_output@@V?$positional_parameter_base@_WV?$string_output_adapter@_W@__crt_stdio_output@@@2@@__crt_stdio_output@@AAE_NI_N@Z 1005f9d0 f i libucrtd:output.obj
 0001:0005ed20       ?type_case_integer@?$output_processor@_WV?$string_output_adapter@_W@__crt_stdio_output@@V?$standard_base@_WV?$string_output_adapter@_W@__crt_stdio_output@@@2@@__crt_stdio_output@@AAE_NI_N@Z 1005fd20 f i libucrtd:output.obj
 0001:0005f070       ?type_case_n@?$output_processor@DV?$stream_output_adapter@D@__crt_stdio_output@@V?$format_validation_base@DV?$stream_output_adapter@D@__crt_stdio_output@@@2@@__crt_stdio_output@@AAE_NXZ 10060070 f i libucrtd:output.obj
 0001:0005f260       ?type_case_n@?$output_processor@DV?$stream_output_adapter@D@__crt_stdio_output@@V?$positional_parameter_base@DV?$stream_output_adapter@D@__crt_stdio_output@@@2@@__crt_stdio_output@@AAE_NXZ 10060260 f i libucrtd:output.obj
 0001:0005f450       ?type_case_n@?$output_processor@DV?$stream_output_adapter@D@__crt_stdio_output@@V?$standard_base@DV?$stream_output_adapter@D@__crt_stdio_output@@@2@@__crt_stdio_output@@AAE_NXZ 10060450 f i libucrtd:output.obj
 0001:0005f640       ?type_case_n@?$output_processor@DV?$string_output_adapter@D@__crt_stdio_output@@V?$format_validation_base@DV?$string_output_adapter@D@__crt_stdio_output@@@2@@__crt_stdio_output@@AAE_NXZ 10060640 f i libucrtd:output.obj
 0001:0005f830       ?type_case_n@?$output_processor@DV?$string_output_adapter@D@__crt_stdio_output@@V?$positional_parameter_base@DV?$string_output_adapter@D@__crt_stdio_output@@@2@@__crt_stdio_output@@AAE_NXZ 10060830 f i libucrtd:output.obj
 0001:0005fa20       ?type_case_n@?$output_processor@DV?$string_output_adapter@D@__crt_stdio_output@@V?$standard_base@DV?$string_output_adapter@D@__crt_stdio_output@@@2@@__crt_stdio_output@@AAE_NXZ 10060a20 f i libucrtd:output.obj
 0001:0005fc10       ?type_case_n@?$output_processor@_WV?$stream_output_adapter@_W@__crt_stdio_output@@V?$format_validation_base@_WV?$stream_output_adapter@_W@__crt_stdio_output@@@2@@__crt_stdio_output@@AAE_NXZ 10060c10 f i libucrtd:output.obj
 0001:0005fe00       ?type_case_n@?$output_processor@_WV?$stream_output_adapter@_W@__crt_stdio_output@@V?$positional_parameter_base@_WV?$stream_output_adapter@_W@__crt_stdio_output@@@2@@__crt_stdio_output@@AAE_NXZ 10060e00 f i libucrtd:output.obj
 0001:0005fff0       ?type_case_n@?$output_processor@_WV?$stream_output_adapter@_W@__crt_stdio_output@@V?$standard_base@_WV?$stream_output_adapter@_W@__crt_stdio_output@@@2@@__crt_stdio_output@@AAE_NXZ 10060ff0 f i libucrtd:output.obj
 0001:000601e0       ?type_case_n@?$output_processor@_WV?$string_output_adapter@_W@__crt_stdio_output@@V?$format_validation_base@_WV?$string_output_adapter@_W@__crt_stdio_output@@@2@@__crt_stdio_output@@AAE_NXZ 100611e0 f i libucrtd:output.obj
 0001:000603d0       ?type_case_n@?$output_processor@_WV?$string_output_adapter@_W@__crt_stdio_output@@V?$positional_parameter_base@_WV?$string_output_adapter@_W@__crt_stdio_output@@@2@@__crt_stdio_output@@AAE_NXZ 100613d0 f i libucrtd:output.obj
 0001:000605c0       ?type_case_n@?$output_processor@_WV?$string_output_adapter@_W@__crt_stdio_output@@V?$standard_base@_WV?$string_output_adapter@_W@__crt_stdio_output@@@2@@__crt_stdio_output@@AAE_NXZ 100615c0 f i libucrtd:output.obj
 0001:000607b0       ?type_case_o@?$output_processor@DV?$stream_output_adapter@D@__crt_stdio_output@@V?$format_validation_base@DV?$stream_output_adapter@D@__crt_stdio_output@@@2@@__crt_stdio_output@@AAE_NXZ 100617b0 f i libucrtd:output.obj
 0001:000607f0       ?type_case_o@?$output_processor@DV?$stream_output_adapter@D@__crt_stdio_output@@V?$positional_parameter_base@DV?$stream_output_adapter@D@__crt_stdio_output@@@2@@__crt_stdio_output@@AAE_NXZ 100617f0 f i libucrtd:output.obj
 0001:00060830       ?type_case_o@?$output_processor@DV?$stream_output_adapter@D@__crt_stdio_output@@V?$standard_base@DV?$stream_output_adapter@D@__crt_stdio_output@@@2@@__crt_stdio_output@@AAE_NXZ 10061830 f i libucrtd:output.obj
 0001:00060870       ?type_case_o@?$output_processor@DV?$string_output_adapter@D@__crt_stdio_output@@V?$format_validation_base@DV?$string_output_adapter@D@__crt_stdio_output@@@2@@__crt_stdio_output@@AAE_NXZ 10061870 f i libucrtd:output.obj
 0001:000608b0       ?type_case_o@?$output_processor@DV?$string_output_adapter@D@__crt_stdio_output@@V?$positional_parameter_base@DV?$string_output_adapter@D@__crt_stdio_output@@@2@@__crt_stdio_output@@AAE_NXZ 100618b0 f i libucrtd:output.obj
 0001:000608f0       ?type_case_o@?$output_processor@DV?$string_output_adapter@D@__crt_stdio_output@@V?$standard_base@DV?$string_output_adapter@D@__crt_stdio_output@@@2@@__crt_stdio_output@@AAE_NXZ 100618f0 f i libucrtd:output.obj
 0001:00060930       ?type_case_o@?$output_processor@_WV?$stream_output_adapter@_W@__crt_stdio_output@@V?$format_validation_base@_WV?$stream_output_adapter@_W@__crt_stdio_output@@@2@@__crt_stdio_output@@AAE_NXZ 10061930 f i libucrtd:output.obj
 0001:00060970       ?type_case_o@?$output_processor@_WV?$stream_output_adapter@_W@__crt_stdio_output@@V?$positional_parameter_base@_WV?$stream_output_adapter@_W@__crt_stdio_output@@@2@@__crt_stdio_output@@AAE_NXZ 10061970 f i libucrtd:output.obj
 0001:000609b0       ?type_case_o@?$output_processor@_WV?$stream_output_adapter@_W@__crt_stdio_output@@V?$standard_base@_WV?$stream_output_adapter@_W@__crt_stdio_output@@@2@@__crt_stdio_output@@AAE_NXZ 100619b0 f i libucrtd:output.obj
 0001:000609f0       ?type_case_o@?$output_processor@_WV?$string_output_adapter@_W@__crt_stdio_output@@V?$format_validation_base@_WV?$string_output_adapter@_W@__crt_stdio_output@@@2@@__crt_stdio_output@@AAE_NXZ 100619f0 f i libucrtd:output.obj
 0001:00060a30       ?type_case_o@?$output_processor@_WV?$string_output_adapter@_W@__crt_stdio_output@@V?$positional_parameter_base@_WV?$string_output_adapter@_W@__crt_stdio_output@@@2@@__crt_stdio_output@@AAE_NXZ 10061a30 f i libucrtd:output.obj
 0001:00060a70       ?type_case_o@?$output_processor@_WV?$string_output_adapter@_W@__crt_stdio_output@@V?$standard_base@_WV?$string_output_adapter@_W@__crt_stdio_output@@@2@@__crt_stdio_output@@AAE_NXZ 10061a70 f i libucrtd:output.obj
 0001:00060ab0       ?type_case_p@?$output_processor@DV?$stream_output_adapter@D@__crt_stdio_output@@V?$format_validation_base@DV?$stream_output_adapter@D@__crt_stdio_output@@@2@@__crt_stdio_output@@AAE_NXZ 10061ab0 f i libucrtd:output.obj
 0001:00060ae0       ?type_case_p@?$output_processor@DV?$stream_output_adapter@D@__crt_stdio_output@@V?$positional_parameter_base@DV?$stream_output_adapter@D@__crt_stdio_output@@@2@@__crt_stdio_output@@AAE_NXZ 10061ae0 f i libucrtd:output.obj
 0001:00060b10       ?type_case_p@?$output_processor@DV?$stream_output_adapter@D@__crt_stdio_output@@V?$standard_base@DV?$stream_output_adapter@D@__crt_stdio_output@@@2@@__crt_stdio_output@@AAE_NXZ 10061b10 f i libucrtd:output.obj
 0001:00060b40       ?type_case_p@?$output_processor@DV?$string_output_adapter@D@__crt_stdio_output@@V?$format_validation_base@DV?$string_output_adapter@D@__crt_stdio_output@@@2@@__crt_stdio_output@@AAE_NXZ 10061b40 f i libucrtd:output.obj
 0001:00060b70       ?type_case_p@?$output_processor@DV?$string_output_adapter@D@__crt_stdio_output@@V?$positional_parameter_base@DV?$string_output_adapter@D@__crt_stdio_output@@@2@@__crt_stdio_output@@AAE_NXZ 10061b70 f i libucrtd:output.obj
 0001:00060ba0       ?type_case_p@?$output_processor@DV?$string_output_adapter@D@__crt_stdio_output@@V?$standard_base@DV?$string_output_adapter@D@__crt_stdio_output@@@2@@__crt_stdio_output@@AAE_NXZ 10061ba0 f i libucrtd:output.obj
 0001:00060bd0       ?type_case_p@?$output_processor@_WV?$stream_output_adapter@_W@__crt_stdio_output@@V?$format_validation_base@_WV?$stream_output_adapter@_W@__crt_stdio_output@@@2@@__crt_stdio_output@@AAE_NXZ 10061bd0 f i libucrtd:output.obj
 0001:00060c00       ?type_case_p@?$output_processor@_WV?$stream_output_adapter@_W@__crt_stdio_output@@V?$positional_parameter_base@_WV?$stream_output_adapter@_W@__crt_stdio_output@@@2@@__crt_stdio_output@@AAE_NXZ 10061c00 f i libucrtd:output.obj
 0001:00060c30       ?type_case_p@?$output_processor@_WV?$stream_output_adapter@_W@__crt_stdio_output@@V?$standard_base@_WV?$stream_output_adapter@_W@__crt_stdio_output@@@2@@__crt_stdio_output@@AAE_NXZ 10061c30 f i libucrtd:output.obj
 0001:00060c60       ?type_case_p@?$output_processor@_WV?$string_output_adapter@_W@__crt_stdio_output@@V?$format_validation_base@_WV?$string_output_adapter@_W@__crt_stdio_output@@@2@@__crt_stdio_output@@AAE_NXZ 10061c60 f i libucrtd:output.obj
 0001:00060c90       ?type_case_p@?$output_processor@_WV?$string_output_adapter@_W@__crt_stdio_output@@V?$positional_parameter_base@_WV?$string_output_adapter@_W@__crt_stdio_output@@@2@@__crt_stdio_output@@AAE_NXZ 10061c90 f i libucrtd:output.obj
 0001:00060cc0       ?type_case_p@?$output_processor@_WV?$string_output_adapter@_W@__crt_stdio_output@@V?$standard_base@_WV?$string_output_adapter@_W@__crt_stdio_output@@@2@@__crt_stdio_output@@AAE_NXZ 10061cc0 f i libucrtd:output.obj
 0001:00060cf0       ?type_case_s@?$output_processor@DV?$stream_output_adapter@D@__crt_stdio_output@@V?$format_validation_base@DV?$stream_output_adapter@D@__crt_stdio_output@@@2@@__crt_stdio_output@@AAE_NXZ 10061cf0 f i libucrtd:output.obj
 0001:00060de0       ?type_case_s@?$output_processor@DV?$stream_output_adapter@D@__crt_stdio_output@@V?$positional_parameter_base@DV?$stream_output_adapter@D@__crt_stdio_output@@@2@@__crt_stdio_output@@AAE_NXZ 10061de0 f i libucrtd:output.obj
 0001:00060ed0       ?type_case_s@?$output_processor@DV?$stream_output_adapter@D@__crt_stdio_output@@V?$standard_base@DV?$stream_output_adapter@D@__crt_stdio_output@@@2@@__crt_stdio_output@@AAE_NXZ 10061ed0 f i libucrtd:output.obj
 0001:00060fc0       ?type_case_s@?$output_processor@DV?$string_output_adapter@D@__crt_stdio_output@@V?$format_validation_base@DV?$string_output_adapter@D@__crt_stdio_output@@@2@@__crt_stdio_output@@AAE_NXZ 10061fc0 f i libucrtd:output.obj
 0001:000610b0       ?type_case_s@?$output_processor@DV?$string_output_adapter@D@__crt_stdio_output@@V?$positional_parameter_base@DV?$string_output_adapter@D@__crt_stdio_output@@@2@@__crt_stdio_output@@AAE_NXZ 100620b0 f i libucrtd:output.obj
 0001:000611a0       ?type_case_s@?$output_processor@DV?$string_output_adapter@D@__crt_stdio_output@@V?$standard_base@DV?$string_output_adapter@D@__crt_stdio_output@@@2@@__crt_stdio_output@@AAE_NXZ 100621a0 f i libucrtd:output.obj
 0001:00061290       ?type_case_s@?$output_processor@_WV?$stream_output_adapter@_W@__crt_stdio_output@@V?$format_validation_base@_WV?$stream_output_adapter@_W@__crt_stdio_output@@@2@@__crt_stdio_output@@AAE_NXZ 10062290 f i libucrtd:output.obj
 0001:00061380       ?type_case_s@?$output_processor@_WV?$stream_output_adapter@_W@__crt_stdio_output@@V?$positional_parameter_base@_WV?$stream_output_adapter@_W@__crt_stdio_output@@@2@@__crt_stdio_output@@AAE_NXZ 10062380 f i libucrtd:output.obj
 0001:00061470       ?type_case_s@?$output_processor@_WV?$stream_output_adapter@_W@__crt_stdio_output@@V?$standard_base@_WV?$stream_output_adapter@_W@__crt_stdio_output@@@2@@__crt_stdio_output@@AAE_NXZ 10062470 f i libucrtd:output.obj
 0001:00061560       ?type_case_s@?$output_processor@_WV?$string_output_adapter@_W@__crt_stdio_output@@V?$format_validation_base@_WV?$string_output_adapter@_W@__crt_stdio_output@@@2@@__crt_stdio_output@@AAE_NXZ 10062560 f i libucrtd:output.obj
 0001:00061650       ?type_case_s@?$output_processor@_WV?$string_output_adapter@_W@__crt_stdio_output@@V?$positional_parameter_base@_WV?$string_output_adapter@_W@__crt_stdio_output@@@2@@__crt_stdio_output@@AAE_NXZ 10062650 f i libucrtd:output.obj
 0001:00061740       ?type_case_s@?$output_processor@_WV?$string_output_adapter@_W@__crt_stdio_output@@V?$standard_base@_WV?$string_output_adapter@_W@__crt_stdio_output@@@2@@__crt_stdio_output@@AAE_NXZ 10062740 f i libucrtd:output.obj
 0001:00061830       ?type_case_s_compute_narrow_string_length@?$output_processor@DV?$stream_output_adapter@D@__crt_stdio_output@@V?$format_validation_base@DV?$stream_output_adapter@D@__crt_stdio_output@@@2@@__crt_stdio_output@@ABEHHD@Z 10062830 f i libucrtd:output.obj
 0001:00061860       ?type_case_s_compute_narrow_string_length@?$output_processor@DV?$stream_output_adapter@D@__crt_stdio_output@@V?$positional_parameter_base@DV?$stream_output_adapter@D@__crt_stdio_output@@@2@@__crt_stdio_output@@ABEHHD@Z 10062860 f i libucrtd:output.obj
 0001:00061890       ?type_case_s_compute_narrow_string_length@?$output_processor@DV?$stream_output_adapter@D@__crt_stdio_output@@V?$standard_base@DV?$stream_output_adapter@D@__crt_stdio_output@@@2@@__crt_stdio_output@@ABEHHD@Z 10062890 f i libucrtd:output.obj
 0001:000618c0       ?type_case_s_compute_narrow_string_length@?$output_processor@DV?$string_output_adapter@D@__crt_stdio_output@@V?$format_validation_base@DV?$string_output_adapter@D@__crt_stdio_output@@@2@@__crt_stdio_output@@ABEHHD@Z 100628c0 f i libucrtd:output.obj
 0001:000618f0       ?type_case_s_compute_narrow_string_length@?$output_processor@DV?$string_output_adapter@D@__crt_stdio_output@@V?$positional_parameter_base@DV?$string_output_adapter@D@__crt_stdio_output@@@2@@__crt_stdio_output@@ABEHHD@Z 100628f0 f i libucrtd:output.obj
 0001:00061920       ?type_case_s_compute_narrow_string_length@?$output_processor@DV?$string_output_adapter@D@__crt_stdio_output@@V?$standard_base@DV?$string_output_adapter@D@__crt_stdio_output@@@2@@__crt_stdio_output@@ABEHHD@Z 10062920 f i libucrtd:output.obj
 0001:00061950       ?type_case_s_compute_narrow_string_length@?$output_processor@_WV?$stream_output_adapter@_W@__crt_stdio_output@@V?$format_validation_base@_WV?$stream_output_adapter@_W@__crt_stdio_output@@@2@@__crt_stdio_output@@ABEHH_W@Z 10062950 f i libucrtd:output.obj
 0001:000619c0       ?type_case_s_compute_narrow_string_length@?$output_processor@_WV?$stream_output_adapter@_W@__crt_stdio_output@@V?$positional_parameter_base@_WV?$stream_output_adapter@_W@__crt_stdio_output@@@2@@__crt_stdio_output@@ABEHH_W@Z 100629c0 f i libucrtd:output.obj
 0001:00061a30       ?type_case_s_compute_narrow_string_length@?$output_processor@_WV?$stream_output_adapter@_W@__crt_stdio_output@@V?$standard_base@_WV?$stream_output_adapter@_W@__crt_stdio_output@@@2@@__crt_stdio_output@@ABEHH_W@Z 10062a30 f i libucrtd:output.obj
 0001:00061aa0       ?type_case_s_compute_narrow_string_length@?$output_processor@_WV?$string_output_adapter@_W@__crt_stdio_output@@V?$format_validation_base@_WV?$string_output_adapter@_W@__crt_stdio_output@@@2@@__crt_stdio_output@@ABEHH_W@Z 10062aa0 f i libucrtd:output.obj
 0001:00061b10       ?type_case_s_compute_narrow_string_length@?$output_processor@_WV?$string_output_adapter@_W@__crt_stdio_output@@V?$positional_parameter_base@_WV?$string_output_adapter@_W@__crt_stdio_output@@@2@@__crt_stdio_output@@ABEHH_W@Z 10062b10 f i libucrtd:output.obj
 0001:00061b80       ?type_case_s_compute_narrow_string_length@?$output_processor@_WV?$string_output_adapter@_W@__crt_stdio_output@@V?$standard_base@_WV?$string_output_adapter@_W@__crt_stdio_output@@@2@@__crt_stdio_output@@ABEHH_W@Z 10062b80 f i libucrtd:output.obj
 0001:00061bf0       ?type_case_u@?$output_processor@DV?$stream_output_adapter@D@__crt_stdio_output@@V?$format_validation_base@DV?$stream_output_adapter@D@__crt_stdio_output@@@2@@__crt_stdio_output@@AAE_NXZ 10062bf0 f i libucrtd:output.obj
 0001:00061c10       ?type_case_u@?$output_processor@DV?$stream_output_adapter@D@__crt_stdio_output@@V?$positional_parameter_base@DV?$stream_output_adapter@D@__crt_stdio_output@@@2@@__crt_stdio_output@@AAE_NXZ 10062c10 f i libucrtd:output.obj
 0001:00061c30       ?type_case_u@?$output_processor@DV?$stream_output_adapter@D@__crt_stdio_output@@V?$standard_base@DV?$stream_output_adapter@D@__crt_stdio_output@@@2@@__crt_stdio_output@@AAE_NXZ 10062c30 f i libucrtd:output.obj
 0001:00061c50       ?type_case_u@?$output_processor@DV?$string_output_adapter@D@__crt_stdio_output@@V?$format_validation_base@DV?$string_output_adapter@D@__crt_stdio_output@@@2@@__crt_stdio_output@@AAE_NXZ 10062c50 f i libucrtd:output.obj
 0001:00061c70       ?type_case_u@?$output_processor@DV?$string_output_adapter@D@__crt_stdio_output@@V?$positional_parameter_base@DV?$string_output_adapter@D@__crt_stdio_output@@@2@@__crt_stdio_output@@AAE_NXZ 10062c70 f i libucrtd:output.obj
 0001:00061c90       ?type_case_u@?$output_processor@DV?$string_output_adapter@D@__crt_stdio_output@@V?$standard_base@DV?$string_output_adapter@D@__crt_stdio_output@@@2@@__crt_stdio_output@@AAE_NXZ 10062c90 f i libucrtd:output.obj
 0001:00061cb0       ?type_case_u@?$output_processor@_WV?$stream_output_adapter@_W@__crt_stdio_output@@V?$format_validation_base@_WV?$stream_output_adapter@_W@__crt_stdio_output@@@2@@__crt_stdio_output@@AAE_NXZ 10062cb0 f i libucrtd:output.obj
 0001:00061cd0       ?type_case_u@?$output_processor@_WV?$stream_output_adapter@_W@__crt_stdio_output@@V?$positional_parameter_base@_WV?$stream_output_adapter@_W@__crt_stdio_output@@@2@@__crt_stdio_output@@AAE_NXZ 10062cd0 f i libucrtd:output.obj
 0001:00061cf0       ?type_case_u@?$output_processor@_WV?$stream_output_adapter@_W@__crt_stdio_output@@V?$standard_base@_WV?$stream_output_adapter@_W@__crt_stdio_output@@@2@@__crt_stdio_output@@AAE_NXZ 10062cf0 f i libucrtd:output.obj
 0001:00061d10       ?type_case_u@?$output_processor@_WV?$string_output_adapter@_W@__crt_stdio_output@@V?$format_validation_base@_WV?$string_output_adapter@_W@__crt_stdio_output@@@2@@__crt_stdio_output@@AAE_NXZ 10062d10 f i libucrtd:output.obj
 0001:00061d30       ?type_case_u@?$output_processor@_WV?$string_output_adapter@_W@__crt_stdio_output@@V?$positional_parameter_base@_WV?$string_output_adapter@_W@__crt_stdio_output@@@2@@__crt_stdio_output@@AAE_NXZ 10062d30 f i libucrtd:output.obj
 0001:00061d50       ?type_case_u@?$output_processor@_WV?$string_output_adapter@_W@__crt_stdio_output@@V?$standard_base@_WV?$string_output_adapter@_W@__crt_stdio_output@@@2@@__crt_stdio_output@@AAE_NXZ 10062d50 f i libucrtd:output.obj
 0001:00061d70       ?type_case_x@?$output_processor@DV?$stream_output_adapter@D@__crt_stdio_output@@V?$format_validation_base@DV?$stream_output_adapter@D@__crt_stdio_output@@@2@@__crt_stdio_output@@AAE_NXZ 10062d70 f i libucrtd:output.obj
 0001:00061d90       ?type_case_x@?$output_processor@DV?$stream_output_adapter@D@__crt_stdio_output@@V?$positional_parameter_base@DV?$stream_output_adapter@D@__crt_stdio_output@@@2@@__crt_stdio_output@@AAE_NXZ 10062d90 f i libucrtd:output.obj
 0001:00061db0       ?type_case_x@?$output_processor@DV?$stream_output_adapter@D@__crt_stdio_output@@V?$standard_base@DV?$stream_output_adapter@D@__crt_stdio_output@@@2@@__crt_stdio_output@@AAE_NXZ 10062db0 f i libucrtd:output.obj
 0001:00061dd0       ?type_case_x@?$output_processor@DV?$string_output_adapter@D@__crt_stdio_output@@V?$format_validation_base@DV?$string_output_adapter@D@__crt_stdio_output@@@2@@__crt_stdio_output@@AAE_NXZ 10062dd0 f i libucrtd:output.obj
 0001:00061df0       ?type_case_x@?$output_processor@DV?$string_output_adapter@D@__crt_stdio_output@@V?$positional_parameter_base@DV?$string_output_adapter@D@__crt_stdio_output@@@2@@__crt_stdio_output@@AAE_NXZ 10062df0 f i libucrtd:output.obj
 0001:00061e10       ?type_case_x@?$output_processor@DV?$string_output_adapter@D@__crt_stdio_output@@V?$standard_base@DV?$string_output_adapter@D@__crt_stdio_output@@@2@@__crt_stdio_output@@AAE_NXZ 10062e10 f i libucrtd:output.obj
 0001:00061e30       ?type_case_x@?$output_processor@_WV?$stream_output_adapter@_W@__crt_stdio_output@@V?$format_validation_base@_WV?$stream_output_adapter@_W@__crt_stdio_output@@@2@@__crt_stdio_output@@AAE_NXZ 10062e30 f i libucrtd:output.obj
 0001:00061e50       ?type_case_x@?$output_processor@_WV?$stream_output_adapter@_W@__crt_stdio_output@@V?$positional_parameter_base@_WV?$stream_output_adapter@_W@__crt_stdio_output@@@2@@__crt_stdio_output@@AAE_NXZ 10062e50 f i libucrtd:output.obj
 0001:00061e70       ?type_case_x@?$output_processor@_WV?$stream_output_adapter@_W@__crt_stdio_output@@V?$standard_base@_WV?$stream_output_adapter@_W@__crt_stdio_output@@@2@@__crt_stdio_output@@AAE_NXZ 10062e70 f i libucrtd:output.obj
 0001:00061e90       ?type_case_x@?$output_processor@_WV?$string_output_adapter@_W@__crt_stdio_output@@V?$format_validation_base@_WV?$string_output_adapter@_W@__crt_stdio_output@@@2@@__crt_stdio_output@@AAE_NXZ 10062e90 f i libucrtd:output.obj
 0001:00061eb0       ?type_case_x@?$output_processor@_WV?$string_output_adapter@_W@__crt_stdio_output@@V?$positional_parameter_base@_WV?$string_output_adapter@_W@__crt_stdio_output@@@2@@__crt_stdio_output@@AAE_NXZ 10062eb0 f i libucrtd:output.obj
 0001:00061ed0       ?type_case_x@?$output_processor@_WV?$string_output_adapter@_W@__crt_stdio_output@@V?$standard_base@_WV?$string_output_adapter@_W@__crt_stdio_output@@@2@@__crt_stdio_output@@AAE_NXZ 10062ed0 f i libucrtd:output.obj
 0001:00061ef0       ?unset_flag@?$output_processor@DV?$stream_output_adapter@D@__crt_stdio_output@@V?$format_validation_base@DV?$stream_output_adapter@D@__crt_stdio_output@@@2@@__crt_stdio_output@@AAEXI@Z 10062ef0 f i libucrtd:output.obj
 0001:00061f10       ?unset_flag@?$output_processor@DV?$stream_output_adapter@D@__crt_stdio_output@@V?$positional_parameter_base@DV?$stream_output_adapter@D@__crt_stdio_output@@@2@@__crt_stdio_output@@AAEXI@Z 10062f10 f i libucrtd:output.obj
 0001:00061f30       ?unset_flag@?$output_processor@DV?$stream_output_adapter@D@__crt_stdio_output@@V?$standard_base@DV?$stream_output_adapter@D@__crt_stdio_output@@@2@@__crt_stdio_output@@AAEXI@Z 10062f30 f i libucrtd:output.obj
 0001:00061f50       ?unset_flag@?$output_processor@DV?$string_output_adapter@D@__crt_stdio_output@@V?$format_validation_base@DV?$string_output_adapter@D@__crt_stdio_output@@@2@@__crt_stdio_output@@AAEXI@Z 10062f50 f i libucrtd:output.obj
 0001:00061f70       ?unset_flag@?$output_processor@DV?$string_output_adapter@D@__crt_stdio_output@@V?$positional_parameter_base@DV?$string_output_adapter@D@__crt_stdio_output@@@2@@__crt_stdio_output@@AAEXI@Z 10062f70 f i libucrtd:output.obj
 0001:00061f90       ?unset_flag@?$output_processor@DV?$string_output_adapter@D@__crt_stdio_output@@V?$standard_base@DV?$string_output_adapter@D@__crt_stdio_output@@@2@@__crt_stdio_output@@AAEXI@Z 10062f90 f i libucrtd:output.obj
 0001:00061fb0       ?unset_flag@?$output_processor@_WV?$stream_output_adapter@_W@__crt_stdio_output@@V?$format_validation_base@_WV?$stream_output_adapter@_W@__crt_stdio_output@@@2@@__crt_stdio_output@@AAEXI@Z 10062fb0 f i libucrtd:output.obj
 0001:00061fd0       ?unset_flag@?$output_processor@_WV?$stream_output_adapter@_W@__crt_stdio_output@@V?$positional_parameter_base@_WV?$stream_output_adapter@_W@__crt_stdio_output@@@2@@__crt_stdio_output@@AAEXI@Z 10062fd0 f i libucrtd:output.obj
 0001:00061ff0       ?unset_flag@?$output_processor@_WV?$stream_output_adapter@_W@__crt_stdio_output@@V?$standard_base@_WV?$stream_output_adapter@_W@__crt_stdio_output@@@2@@__crt_stdio_output@@AAEXI@Z 10062ff0 f i libucrtd:output.obj
 0001:00062010       ?unset_flag@?$output_processor@_WV?$string_output_adapter@_W@__crt_stdio_output@@V?$format_validation_base@_WV?$string_output_adapter@_W@__crt_stdio_output@@@2@@__crt_stdio_output@@AAEXI@Z 10063010 f i libucrtd:output.obj
 0001:00062030       ?unset_flag@?$output_processor@_WV?$string_output_adapter@_W@__crt_stdio_output@@V?$positional_parameter_base@_WV?$string_output_adapter@_W@__crt_stdio_output@@@2@@__crt_stdio_output@@AAEXI@Z 10063030 f i libucrtd:output.obj
 0001:00062050       ?unset_flag@?$output_processor@_WV?$string_output_adapter@_W@__crt_stdio_output@@V?$standard_base@_WV?$string_output_adapter@_W@__crt_stdio_output@@@2@@__crt_stdio_output@@AAEXI@Z 10063050 f i libucrtd:output.obj
 0001:00062070       ?update_field_width@?$positional_parameter_base@DV?$stream_output_adapter@D@__crt_stdio_output@@@__crt_stdio_output@@IAE_NXZ 10063070 f i libucrtd:output.obj
 0001:000621f0       ?update_field_width@?$positional_parameter_base@DV?$string_output_adapter@D@__crt_stdio_output@@@__crt_stdio_output@@IAE_NXZ 100631f0 f i libucrtd:output.obj
 0001:00062370       ?update_field_width@?$positional_parameter_base@_WV?$stream_output_adapter@_W@__crt_stdio_output@@@__crt_stdio_output@@IAE_NXZ 10063370 f i libucrtd:output.obj
 0001:000624f0       ?update_field_width@?$positional_parameter_base@_WV?$string_output_adapter@_W@__crt_stdio_output@@@__crt_stdio_output@@IAE_NXZ 100634f0 f i libucrtd:output.obj
 0001:00062670       ?update_field_width@?$standard_base@DV?$stream_output_adapter@D@__crt_stdio_output@@@__crt_stdio_output@@IAE_NXZ 10063670 f i libucrtd:output.obj
 0001:000626a0       ?update_field_width@?$standard_base@DV?$string_output_adapter@D@__crt_stdio_output@@@__crt_stdio_output@@IAE_NXZ 100636a0 f i libucrtd:output.obj
 0001:000626d0       ?update_field_width@?$standard_base@_WV?$stream_output_adapter@_W@__crt_stdio_output@@@__crt_stdio_output@@IAE_NXZ 100636d0 f i libucrtd:output.obj
 0001:00062700       ?update_field_width@?$standard_base@_WV?$string_output_adapter@_W@__crt_stdio_output@@@__crt_stdio_output@@IAE_NXZ 10063700 f i libucrtd:output.obj
 0001:00062730       ?update_precision@?$positional_parameter_base@DV?$stream_output_adapter@D@__crt_stdio_output@@@__crt_stdio_output@@IAE_NXZ 10063730 f i libucrtd:output.obj
 0001:000628b0       ?update_precision@?$positional_parameter_base@DV?$string_output_adapter@D@__crt_stdio_output@@@__crt_stdio_output@@IAE_NXZ 100638b0 f i libucrtd:output.obj
 0001:00062a30       ?update_precision@?$positional_parameter_base@_WV?$stream_output_adapter@_W@__crt_stdio_output@@@__crt_stdio_output@@IAE_NXZ 10063a30 f i libucrtd:output.obj
 0001:00062bb0       ?update_precision@?$positional_parameter_base@_WV?$string_output_adapter@_W@__crt_stdio_output@@@__crt_stdio_output@@IAE_NXZ 10063bb0 f i libucrtd:output.obj
 0001:00062d30       ?update_precision@?$standard_base@DV?$stream_output_adapter@D@__crt_stdio_output@@@__crt_stdio_output@@IAE_NXZ 10063d30 f i libucrtd:output.obj
 0001:00062d60       ?update_precision@?$standard_base@DV?$string_output_adapter@D@__crt_stdio_output@@@__crt_stdio_output@@IAE_NXZ 10063d60 f i libucrtd:output.obj
 0001:00062d90       ?update_precision@?$standard_base@_WV?$stream_output_adapter@_W@__crt_stdio_output@@@__crt_stdio_output@@IAE_NXZ 10063d90 f i libucrtd:output.obj
 0001:00062dc0       ?update_precision@?$standard_base@_WV?$string_output_adapter@_W@__crt_stdio_output@@@__crt_stdio_output@@IAE_NXZ 10063dc0 f i libucrtd:output.obj
 0001:00062df0       ?valid@__crt_stdio_stream@@QBE_NXZ 10063df0 f i libucrtd:output.obj
 0001:00062e20       ?validate@?$stream_output_adapter@D@__crt_stdio_output@@QBE_NXZ 10063e20 f i libucrtd:output.obj
 0001:00062ed0       ?validate@?$stream_output_adapter@_W@__crt_stdio_output@@QBE_NXZ 10063ed0 f i libucrtd:output.obj
 0001:00062f80       ?validate@?$string_output_adapter@D@__crt_stdio_output@@QBE_NXZ 10063f80 f i libucrtd:output.obj
 0001:00063010       ?validate@?$string_output_adapter@_W@__crt_stdio_output@@QBE_NXZ 10064010 f i libucrtd:output.obj
 0001:000630a0       ?validate_and_store_parameter_data@?$positional_parameter_base@DV?$stream_output_adapter@D@__crt_stdio_output@@@__crt_stdio_output@@AAE_NAAUparameter_data@12@W4parameter_type@12@DW4length_modifier@2@@Z 100640a0 f i libucrtd:output.obj
 0001:00063170       ?validate_and_store_parameter_data@?$positional_parameter_base@DV?$string_output_adapter@D@__crt_stdio_output@@@__crt_stdio_output@@AAE_NAAUparameter_data@12@W4parameter_type@12@DW4length_modifier@2@@Z 10064170 f i libucrtd:output.obj
 0001:00063240       ?validate_and_store_parameter_data@?$positional_parameter_base@_WV?$stream_output_adapter@_W@__crt_stdio_output@@@__crt_stdio_output@@AAE_NAAUparameter_data@12@W4parameter_type@12@_WW4length_modifier@2@@Z 10064240 f i libucrtd:output.obj
 0001:00063320       ?validate_and_store_parameter_data@?$positional_parameter_base@_WV?$string_output_adapter@_W@__crt_stdio_output@@@__crt_stdio_output@@AAE_NAAUparameter_data@12@W4parameter_type@12@_WW4length_modifier@2@@Z 10064320 f i libucrtd:output.obj
 0001:00063400       ?validate_and_update_state_at_beginning_of_format_character@?$positional_parameter_base@DV?$stream_output_adapter@D@__crt_stdio_output@@@__crt_stdio_output@@IAE_NXZ 10064400 f i libucrtd:output.obj
 0001:00063620       ?validate_and_update_state_at_beginning_of_format_character@?$positional_parameter_base@DV?$string_output_adapter@D@__crt_stdio_output@@@__crt_stdio_output@@IAE_NXZ 10064620 f i libucrtd:output.obj
 0001:00063840       ?validate_and_update_state_at_beginning_of_format_character@?$positional_parameter_base@_WV?$stream_output_adapter@_W@__crt_stdio_output@@@__crt_stdio_output@@IAE_NXZ 10064840 f i libucrtd:output.obj
 0001:00063a60       ?validate_and_update_state_at_beginning_of_format_character@?$positional_parameter_base@_WV?$string_output_adapter@_W@__crt_stdio_output@@@__crt_stdio_output@@IAE_NXZ 10064a60 f i libucrtd:output.obj
 0001:00063c80       ?validate_and_update_state_at_beginning_of_format_character@?$standard_base@DV?$stream_output_adapter@D@__crt_stdio_output@@@__crt_stdio_output@@IAE_NXZ 10064c80 f i libucrtd:output.obj
 0001:00063c90       ?validate_and_update_state_at_beginning_of_format_character@?$standard_base@DV?$string_output_adapter@D@__crt_stdio_output@@@__crt_stdio_output@@IAE_NXZ 10064c90 f i libucrtd:output.obj
 0001:00063ca0       ?validate_and_update_state_at_beginning_of_format_character@?$standard_base@_WV?$stream_output_adapter@_W@__crt_stdio_output@@@__crt_stdio_output@@IAE_NXZ 10064ca0 f i libucrtd:output.obj
 0001:00063cb0       ?validate_and_update_state_at_beginning_of_format_character@?$standard_base@_WV?$string_output_adapter@_W@__crt_stdio_output@@@__crt_stdio_output@@IAE_NXZ 10064cb0 f i libucrtd:output.obj
 0001:00063cc0       ?validate_and_update_state_at_end_of_format_string@?$format_validation_base@DV?$stream_output_adapter@D@__crt_stdio_output@@@__crt_stdio_output@@IBE_NXZ 10064cc0 f i libucrtd:output.obj
 0001:00063d60       ?validate_and_update_state_at_end_of_format_string@?$format_validation_base@DV?$string_output_adapter@D@__crt_stdio_output@@@__crt_stdio_output@@IBE_NXZ 10064d60 f i libucrtd:output.obj
 0001:00063e00       ?validate_and_update_state_at_end_of_format_string@?$format_validation_base@_WV?$stream_output_adapter@_W@__crt_stdio_output@@@__crt_stdio_output@@IBE_NXZ 10064e00 f i libucrtd:output.obj
 0001:00063ea0       ?validate_and_update_state_at_end_of_format_string@?$format_validation_base@_WV?$string_output_adapter@_W@__crt_stdio_output@@@__crt_stdio_output@@IBE_NXZ 10064ea0 f i libucrtd:output.obj
 0001:00063f40       ?validate_and_update_state_at_end_of_format_string@?$positional_parameter_base@DV?$stream_output_adapter@D@__crt_stdio_output@@@__crt_stdio_output@@IAE_NXZ 10064f40 f i libucrtd:output.obj
 0001:000640e0       ?validate_and_update_state_at_end_of_format_string@?$positional_parameter_base@DV?$string_output_adapter@D@__crt_stdio_output@@@__crt_stdio_output@@IAE_NXZ 100650e0 f i libucrtd:output.obj
 0001:00064280       ?validate_and_update_state_at_end_of_format_string@?$positional_parameter_base@_WV?$stream_output_adapter@_W@__crt_stdio_output@@@__crt_stdio_output@@IAE_NXZ 10065280 f i libucrtd:output.obj
 0001:00064420       ?validate_and_update_state_at_end_of_format_string@?$positional_parameter_base@_WV?$string_output_adapter@_W@__crt_stdio_output@@@__crt_stdio_output@@IAE_NXZ 10065420 f i libucrtd:output.obj
 0001:000645c0       ?validate_and_update_state_at_end_of_format_string@?$standard_base@DV?$stream_output_adapter@D@__crt_stdio_output@@@__crt_stdio_output@@IBE_NXZ 100655c0 f i libucrtd:output.obj
 0001:000645d0       ?validate_and_update_state_at_end_of_format_string@?$standard_base@DV?$string_output_adapter@D@__crt_stdio_output@@@__crt_stdio_output@@IBE_NXZ 100655d0 f i libucrtd:output.obj
 0001:000645e0       ?validate_and_update_state_at_end_of_format_string@?$standard_base@_WV?$stream_output_adapter@_W@__crt_stdio_output@@@__crt_stdio_output@@IBE_NXZ 100655e0 f i libucrtd:output.obj
 0001:000645f0       ?validate_and_update_state_at_end_of_format_string@?$standard_base@_WV?$string_output_adapter@_W@__crt_stdio_output@@@__crt_stdio_output@@IBE_NXZ 100655f0 f i libucrtd:output.obj
 0001:00064600       ?validate_state_for_type_case_a@?$positional_parameter_base@DV?$stream_output_adapter@D@__crt_stdio_output@@@__crt_stdio_output@@IAE_NXZ 10065600 f i libucrtd:output.obj
 0001:000646f0       ?validate_state_for_type_case_a@?$positional_parameter_base@DV?$string_output_adapter@D@__crt_stdio_output@@@__crt_stdio_output@@IAE_NXZ 100656f0 f i libucrtd:output.obj
 0001:000647e0       ?validate_state_for_type_case_a@?$positional_parameter_base@_WV?$stream_output_adapter@_W@__crt_stdio_output@@@__crt_stdio_output@@IAE_NXZ 100657e0 f i libucrtd:output.obj
 0001:000648d0       ?validate_state_for_type_case_a@?$positional_parameter_base@_WV?$string_output_adapter@_W@__crt_stdio_output@@@__crt_stdio_output@@IAE_NXZ 100658d0 f i libucrtd:output.obj
 0001:000649c0       ?validate_state_for_type_case_a@?$standard_base@DV?$stream_output_adapter@D@__crt_stdio_output@@@__crt_stdio_output@@IBE_NXZ 100659c0 f i libucrtd:output.obj
 0001:000649d0       ?validate_state_for_type_case_a@?$standard_base@DV?$string_output_adapter@D@__crt_stdio_output@@@__crt_stdio_output@@IBE_NXZ 100659d0 f i libucrtd:output.obj
 0001:000649e0       ?validate_state_for_type_case_a@?$standard_base@_WV?$stream_output_adapter@_W@__crt_stdio_output@@@__crt_stdio_output@@IBE_NXZ 100659e0 f i libucrtd:output.obj
 0001:000649f0       ?validate_state_for_type_case_a@?$standard_base@_WV?$string_output_adapter@_W@__crt_stdio_output@@@__crt_stdio_output@@IBE_NXZ 100659f0 f i libucrtd:output.obj
 0001:00064a00       ?validate_stream_is_ansi_if_required@?$__acrt_stdio_char_traits@D@@SA_NQAU_iobuf@@@Z 10065a00 f i libucrtd:output.obj
 0001:00064b30       ?validate_stream_is_ansi_if_required@?$__acrt_stdio_char_traits@_W@@SA_NQAU_iobuf@@@Z 10065b30 f i libucrtd:output.obj
 0001:00064b40       ?wide_null_string@?$output_processor@DV?$stream_output_adapter@D@__crt_stdio_output@@V?$format_validation_base@DV?$stream_output_adapter@D@__crt_stdio_output@@@2@@__crt_stdio_output@@CAPA_WXZ 10065b40 f i libucrtd:output.obj
 0001:00064b50       ?wide_null_string@?$output_processor@DV?$stream_output_adapter@D@__crt_stdio_output@@V?$positional_parameter_base@DV?$stream_output_adapter@D@__crt_stdio_output@@@2@@__crt_stdio_output@@CAPA_WXZ 10065b50 f i libucrtd:output.obj
 0001:00064b60       ?wide_null_string@?$output_processor@DV?$stream_output_adapter@D@__crt_stdio_output@@V?$standard_base@DV?$stream_output_adapter@D@__crt_stdio_output@@@2@@__crt_stdio_output@@CAPA_WXZ 10065b60 f i libucrtd:output.obj
 0001:00064b70       ?wide_null_string@?$output_processor@DV?$string_output_adapter@D@__crt_stdio_output@@V?$format_validation_base@DV?$string_output_adapter@D@__crt_stdio_output@@@2@@__crt_stdio_output@@CAPA_WXZ 10065b70 f i libucrtd:output.obj
 0001:00064b80       ?wide_null_string@?$output_processor@DV?$string_output_adapter@D@__crt_stdio_output@@V?$positional_parameter_base@DV?$string_output_adapter@D@__crt_stdio_output@@@2@@__crt_stdio_output@@CAPA_WXZ 10065b80 f i libucrtd:output.obj
 0001:00064b90       ?wide_null_string@?$output_processor@DV?$string_output_adapter@D@__crt_stdio_output@@V?$standard_base@DV?$string_output_adapter@D@__crt_stdio_output@@@2@@__crt_stdio_output@@CAPA_WXZ 10065b90 f i libucrtd:output.obj
 0001:00064ba0       ?wide_null_string@?$output_processor@_WV?$stream_output_adapter@_W@__crt_stdio_output@@V?$format_validation_base@_WV?$stream_output_adapter@_W@__crt_stdio_output@@@2@@__crt_stdio_output@@CAPA_WXZ 10065ba0 f i libucrtd:output.obj
 0001:00064bb0       ?wide_null_string@?$output_processor@_WV?$stream_output_adapter@_W@__crt_stdio_output@@V?$positional_parameter_base@_WV?$stream_output_adapter@_W@__crt_stdio_output@@@2@@__crt_stdio_output@@CAPA_WXZ 10065bb0 f i libucrtd:output.obj
 0001:00064bc0       ?wide_null_string@?$output_processor@_WV?$stream_output_adapter@_W@__crt_stdio_output@@V?$standard_base@_WV?$stream_output_adapter@_W@__crt_stdio_output@@@2@@__crt_stdio_output@@CAPA_WXZ 10065bc0 f i libucrtd:output.obj
 0001:00064bd0       ?wide_null_string@?$output_processor@_WV?$string_output_adapter@_W@__crt_stdio_output@@V?$format_validation_base@_WV?$string_output_adapter@_W@__crt_stdio_output@@@2@@__crt_stdio_output@@CAPA_WXZ 10065bd0 f i libucrtd:output.obj
 0001:00064be0       ?wide_null_string@?$output_processor@_WV?$string_output_adapter@_W@__crt_stdio_output@@V?$positional_parameter_base@_WV?$string_output_adapter@_W@__crt_stdio_output@@@2@@__crt_stdio_output@@CAPA_WXZ 10065be0 f i libucrtd:output.obj
 0001:00064bf0       ?wide_null_string@?$output_processor@_WV?$string_output_adapter@_W@__crt_stdio_output@@V?$standard_base@_WV?$string_output_adapter@_W@__crt_stdio_output@@@2@@__crt_stdio_output@@CAPA_WXZ 10065bf0 f i libucrtd:output.obj
 0001:00064c00       ?write_character@?$output_adapter_common@DV?$stream_output_adapter@D@__crt_stdio_output@@@__crt_stdio_output@@QBEXDQAH@Z 10065c00 f i libucrtd:output.obj
 0001:00064c40       ?write_character@?$output_adapter_common@_WV?$stream_output_adapter@_W@__crt_stdio_output@@@__crt_stdio_output@@QBEX_WQAH@Z 10065c40 f i libucrtd:output.obj
 0001:00064c80       ?write_character@?$string_output_adapter@D@__crt_stdio_output@@QBE_NDQAH@Z 10065c80 f i libucrtd:output.obj
 0001:00064d10       ?write_character@?$string_output_adapter@_W@__crt_stdio_output@@QBE_N_WQAH@Z 10065d10 f i libucrtd:output.obj
 0001:00064db0       ?write_character_without_count_update@?$stream_output_adapter@D@__crt_stdio_output@@QBE_ND@Z 10065db0 f i libucrtd:output.obj
 0001:00064e20       ?write_character_without_count_update@?$stream_output_adapter@_W@__crt_stdio_output@@QBE_N_W@Z 10065e20 f i libucrtd:output.obj
 0001:00064e90       ?write_stored_string_tchar@?$output_processor@DV?$stream_output_adapter@D@__crt_stdio_output@@V?$format_validation_base@DV?$stream_output_adapter@D@__crt_stdio_output@@@2@@__crt_stdio_output@@AAE_ND@Z 10065e90 f i libucrtd:output.obj
 0001:00064fb0       ?write_stored_string_tchar@?$output_processor@DV?$stream_output_adapter@D@__crt_stdio_output@@V?$positional_parameter_base@DV?$stream_output_adapter@D@__crt_stdio_output@@@2@@__crt_stdio_output@@AAE_ND@Z 10065fb0 f i libucrtd:output.obj
 0001:000650d0       ?write_stored_string_tchar@?$output_processor@DV?$stream_output_adapter@D@__crt_stdio_output@@V?$standard_base@DV?$stream_output_adapter@D@__crt_stdio_output@@@2@@__crt_stdio_output@@AAE_ND@Z 100660d0 f i libucrtd:output.obj
 0001:000651f0       ?write_stored_string_tchar@?$output_processor@DV?$string_output_adapter@D@__crt_stdio_output@@V?$format_validation_base@DV?$string_output_adapter@D@__crt_stdio_output@@@2@@__crt_stdio_output@@AAE_ND@Z 100661f0 f i libucrtd:output.obj
 0001:00065310       ?write_stored_string_tchar@?$output_processor@DV?$string_output_adapter@D@__crt_stdio_output@@V?$positional_parameter_base@DV?$string_output_adapter@D@__crt_stdio_output@@@2@@__crt_stdio_output@@AAE_ND@Z 10066310 f i libucrtd:output.obj
 0001:00065430       ?write_stored_string_tchar@?$output_processor@DV?$string_output_adapter@D@__crt_stdio_output@@V?$standard_base@DV?$string_output_adapter@D@__crt_stdio_output@@@2@@__crt_stdio_output@@AAE_ND@Z 10066430 f i libucrtd:output.obj
 0001:00065550       ?write_stored_string_tchar@?$output_processor@_WV?$stream_output_adapter@_W@__crt_stdio_output@@V?$format_validation_base@_WV?$stream_output_adapter@_W@__crt_stdio_output@@@2@@__crt_stdio_output@@AAE_N_W@Z 10066550 f i libucrtd:output.obj
 0001:00065640       ?write_stored_string_tchar@?$output_processor@_WV?$stream_output_adapter@_W@__crt_stdio_output@@V?$positional_parameter_base@_WV?$stream_output_adapter@_W@__crt_stdio_output@@@2@@__crt_stdio_output@@AAE_N_W@Z 10066640 f i libucrtd:output.obj
 0001:00065730       ?write_stored_string_tchar@?$output_processor@_WV?$stream_output_adapter@_W@__crt_stdio_output@@V?$standard_base@_WV?$stream_output_adapter@_W@__crt_stdio_output@@@2@@__crt_stdio_output@@AAE_N_W@Z 10066730 f i libucrtd:output.obj
 0001:00065820       ?write_stored_string_tchar@?$output_processor@_WV?$string_output_adapter@_W@__crt_stdio_output@@V?$format_validation_base@_WV?$string_output_adapter@_W@__crt_stdio_output@@@2@@__crt_stdio_output@@AAE_N_W@Z 10066820 f i libucrtd:output.obj
 0001:00065910       ?write_stored_string_tchar@?$output_processor@_WV?$string_output_adapter@_W@__crt_stdio_output@@V?$positional_parameter_base@_WV?$string_output_adapter@_W@__crt_stdio_output@@@2@@__crt_stdio_output@@AAE_N_W@Z 10066910 f i libucrtd:output.obj
 0001:00065a00       ?write_stored_string_tchar@?$output_processor@_WV?$string_output_adapter@_W@__crt_stdio_output@@V?$standard_base@_WV?$string_output_adapter@_W@__crt_stdio_output@@@2@@__crt_stdio_output@@AAE_N_W@Z 10066a00 f i libucrtd:output.obj
 0001:00065af0       ?write_string@?$stream_output_adapter@D@__crt_stdio_output@@QBEXQBDHQAHAAV__crt_deferred_errno_cache@@@Z 10066af0 f i libucrtd:output.obj
 0001:00065b50       ?write_string@?$stream_output_adapter@_W@__crt_stdio_output@@QBEXQB_WHQAHAAV__crt_deferred_errno_cache@@@Z 10066b50 f i libucrtd:output.obj
 0001:00065bb0       ?write_string@?$string_output_adapter@D@__crt_stdio_output@@QBEXQBDHQAHAAV__crt_deferred_errno_cache@@@Z 10066bb0 f i libucrtd:output.obj
 0001:00065cb0       ?write_string@?$string_output_adapter@_W@__crt_stdio_output@@QBEXQB_WHQAHAAV__crt_deferred_errno_cache@@@Z 10066cb0 f i libucrtd:output.obj
 0001:00065dc0       ?write_string_impl@?$output_adapter_common@DV?$stream_output_adapter@D@__crt_stdio_output@@@__crt_stdio_output@@IBEXQBDHQAHAAV__crt_deferred_errno_cache@@@Z 10066dc0 f i libucrtd:output.obj
 0001:00065e60       ?write_string_impl@?$output_adapter_common@_WV?$stream_output_adapter@_W@__crt_stdio_output@@@__crt_stdio_output@@IBEXQB_WHQAHAAV__crt_deferred_errno_cache@@@Z 10066e60 f i libucrtd:output.obj
 0001:00065f00       ___acrt_disable_global_locale_sync 10066f00 f i libucrtd:output.obj
 0001:00065f20       ___acrt_enable_global_locale_sync 10066f20 f i libucrtd:output.obj
 0001:00065f40       ___acrt_isleadbyte_l_noupdate 10066f40 f i libucrtd:output.obj
 0001:00065f60       ___acrt_locale_changed     10066f60 f i libucrtd:output.obj
 0001:00065f90       ___acrt_locale_get_ctype_array_value 10066f90 f i libucrtd:output.obj
 0001:00065fc0       ___stdio_common_vfprintf   10066fc0 f   libucrtd:output.obj
 0001:00065ff0       ___stdio_common_vfprintf_p 10066ff0 f   libucrtd:output.obj
 0001:00066020       ___stdio_common_vfprintf_s 10067020 f   libucrtd:output.obj
 0001:00066050       ___stdio_common_vfwprintf  10067050 f   libucrtd:output.obj
 0001:00066080       ___stdio_common_vfwprintf_p 10067080 f   libucrtd:output.obj
 0001:000660b0       ___stdio_common_vfwprintf_s 100670b0 f   libucrtd:output.obj
 0001:000660e0       ___stdio_common_vsnprintf_s 100670e0 f   libucrtd:output.obj
 0001:00066110       ___stdio_common_vsnwprintf_s 10067110 f   libucrtd:output.obj
 0001:00066140       ___stdio_common_vsprintf   10067140 f   libucrtd:output.obj
 0001:00066170       ___stdio_common_vsprintf_p 10067170 f   libucrtd:output.obj
 0001:000661a0       ___stdio_common_vsprintf_s 100671a0 f   libucrtd:output.obj
 0001:000661d0       ___stdio_common_vswprintf  100671d0 f   libucrtd:output.obj
 0001:00066200       ___stdio_common_vswprintf_p 10067200 f   libucrtd:output.obj
 0001:00066230       ___stdio_common_vswprintf_s 10067230 f   libucrtd:output.obj
 0001:00066260       __ctype_fast_check_internal 10067260 f i libucrtd:output.obj
 0001:00066280       __isdigit_fast_internal    10067280 f i libucrtd:output.obj
 0001:000662a0       __tolower_fast_internal    100672a0 f i libucrtd:output.obj
 0001:000662c0       _free                      100672c0 f   libucrtd:free.obj
 0001:000662f0       _malloc                    100672f0 f   libucrtd:malloc.obj
 0001:00066310       ??$?RU?$__crt_report_hook_node@D@@@__crt_internal_free_policy@@QBEXQBU?$__crt_report_hook_node@D@@@Z 10067310 f i libucrtd:dbgrpt.obj
 0001:00066330       ??$?RU?$__crt_report_hook_node@_W@@@__crt_internal_free_policy@@QBEXQBU?$__crt_report_hook_node@_W@@@Z 10067330 f i libucrtd:dbgrpt.obj
 0001:00067120       ??$get_module_file_name@AAPAUHINSTANCE__@@AAY0BAF@DK@?$__crt_char_traits@D@@SAKAAPAUHINSTANCE__@@AAY0BAF@D$$QAK@Z 10068120 f i libucrtd:dbgrpt.obj
 0001:00067140       ??$get_module_file_name@AAPAUHINSTANCE__@@AAY0BAF@_WK@?$__crt_char_traits@_W@@SAKAAPAUHINSTANCE__@@AAY0BAF@_W$$QAK@Z 10068140 f i libucrtd:dbgrpt.obj
 0001:00067160       ??$tcscpy_s@AAY0BAF@DIPBD@?$__crt_char_traits@D@@SAHAAY0BAF@D$$QAI$$QAPBD@Z 10068160 f i libucrtd:dbgrpt.obj
 0001:00067180       ??$tcscpy_s@AAY0BAF@_WIPB_W@?$__crt_char_traits@_W@@SAHAAY0BAF@_W$$QAI$$QAPB_W@Z 10068180 f i libucrtd:dbgrpt.obj
 0001:000671a0       ??$tcslen@AAY0BAF@D@?$__crt_char_traits@D@@SAIAAY0BAF@D@Z 100681a0 f i libucrtd:dbgrpt.obj
 0001:000671c0       ??$tcslen@AAY0BAF@_W@?$__crt_char_traits@_W@@SAIAAY0BAF@_W@Z 100681c0 f i libucrtd:dbgrpt.obj
 0001:000671e0       ??$tcslen@ABQBD@?$__crt_char_traits@D@@SAIABQBD@Z 100681e0 f i libucrtd:dbgrpt.obj
 0001:00067200       ??$tcslen@ABQB_W@?$__crt_char_traits@_W@@SAIABQB_W@Z 10068200 f i libucrtd:dbgrpt.obj
 0001:00067300       ??0?$__crt_unique_heap_ptr@U?$__crt_report_hook_node@D@@U__crt_internal_free_policy@@@@QAE@QAU?$__crt_report_hook_node@D@@@Z 10068300 f i libucrtd:dbgrpt.obj
 0001:00067320       ??0?$__crt_unique_heap_ptr@U?$__crt_report_hook_node@_W@@U__crt_internal_free_policy@@@@QAE@QAU?$__crt_report_hook_node@_W@@@Z 10068320 f i libucrtd:dbgrpt.obj
 0001:00067340       ??1?$__crt_unique_heap_ptr@U?$__crt_report_hook_node@D@@U__crt_internal_free_policy@@@@QAE@XZ 10068340 f i libucrtd:dbgrpt.obj
 0001:00067360       ??1?$__crt_unique_heap_ptr@U?$__crt_report_hook_node@_W@@U__crt_internal_free_policy@@@@QAE@XZ 10068360 f i libucrtd:dbgrpt.obj
 0001:00067380       ??B?$__crt_unique_heap_ptr@U?$__crt_report_hook_node@D@@U__crt_internal_free_policy@@@@QBE_NXZ 10068380 f i libucrtd:dbgrpt.obj
 0001:000673a0       ??B?$__crt_unique_heap_ptr@U?$__crt_report_hook_node@_W@@U__crt_internal_free_policy@@@@QBE_NXZ 100683a0 f i libucrtd:dbgrpt.obj
 0001:000678e0       ?detach@?$__crt_unique_heap_ptr@U?$__crt_report_hook_node@D@@U__crt_internal_free_policy@@@@QAEPAU?$__crt_report_hook_node@D@@XZ 100688e0 f i libucrtd:dbgrpt.obj
 0001:00067910       ?detach@?$__crt_unique_heap_ptr@U?$__crt_report_hook_node@_W@@U__crt_internal_free_policy@@@@QAEPAU?$__crt_report_hook_node@_W@@XZ 10068910 f i libucrtd:dbgrpt.obj
 0001:00067940       ?get@?$__crt_unique_heap_ptr@U?$__crt_report_hook_node@D@@U__crt_internal_free_policy@@@@QBEPAU?$__crt_report_hook_node@D@@XZ 10068940 f i libucrtd:dbgrpt.obj
 0001:00067960       ?get@?$__crt_unique_heap_ptr@U?$__crt_report_hook_node@_W@@U__crt_internal_free_policy@@@@QBEPAU?$__crt_report_hook_node@_W@@XZ 10068960 f i libucrtd:dbgrpt.obj
 0001:000679e0       ?is_valid@?$__crt_unique_heap_ptr@U?$__crt_report_hook_node@D@@U__crt_internal_free_policy@@@@QBE_NXZ 100689e0 f i libucrtd:dbgrpt.obj
 0001:00067a10       ?is_valid@?$__crt_unique_heap_ptr@U?$__crt_report_hook_node@_W@@U__crt_internal_free_policy@@@@QBE_NXZ 10068a10 f i libucrtd:dbgrpt.obj
 0001:00067a40       ?release@?$__crt_unique_heap_ptr@U?$__crt_report_hook_node@D@@U__crt_internal_free_policy@@@@QAEXXZ 10068a40 f i libucrtd:dbgrpt.obj
 0001:00067a70       ?release@?$__crt_unique_heap_ptr@U?$__crt_report_hook_node@_W@@U__crt_internal_free_policy@@@@QAEXXZ 10068a70 f i libucrtd:dbgrpt.obj
 0001:00067aa0       __CrtDbgReport             10068aa0 f   libucrtd:dbgrpt.obj
 0001:00067af0       __CrtDbgReportW            10068af0 f   libucrtd:dbgrpt.obj
 0001:00067b40       __CrtSetReportHook2        10068b40 f   libucrtd:dbgrpt.obj
 0001:00067b60       __CrtSetReportHookW2       10068b60 f   libucrtd:dbgrpt.obj
 0001:00067b80       ___acrt_MessageWindowA     10068b80 f   libucrtd:dbgrpt.obj
 0001:00067bb0       ___acrt_MessageWindowW     10068bb0 f   libucrtd:dbgrpt.obj
 0001:00067be0       __invoke_watson_if_error   10068be0 f i libucrtd:dbgrpt.obj
 0001:00067c10       __invoke_watson_if_oneof   10068c10 f i libucrtd:dbgrpt.obj
 0001:00067c50       __snwprintf_s              10068c50 f i libucrtd:dbgrpt.obj
 0001:00067c90       __vsnwprintf_s_l           10068c90 f i libucrtd:dbgrpt.obj
 0001:00068010       _wcscpy_s                  10069010 f   libucrtd:wcscpy_s.obj
 0001:00068d30       ??1?$__crt_simd_cleanup_guard@$00@@QAE@XZ 10069d30 f i libucrtd:strnlen.obj
 0001:00068d40       ??1?$__crt_simd_cleanup_guard@$0A@@@QAE@XZ 10069d40 f i libucrtd:strnlen.obj
 0001:00068d50       ?compare_equals@?$__crt_simd_traits@$00E@@SA?AT__m256i@@T2@0@Z 10069d50 f i libucrtd:strnlen.obj
 0001:00068d90       ?compare_equals@?$__crt_simd_traits@$00G@@SA?AT__m256i@@T2@0@Z 10069d90 f i libucrtd:strnlen.obj
 0001:00068dd0       ?compare_equals@?$__crt_simd_traits@$0A@E@@SA?AT__m128i@@T2@0@Z 10069dd0 f i libucrtd:strnlen.obj
 0001:00068e10       ?compare_equals@?$__crt_simd_traits@$0A@G@@SA?AT__m128i@@T2@0@Z 10069e10 f i libucrtd:strnlen.obj
 0001:00068e50       ?compute_byte_mask@?$__crt_simd_pack_traits@$00@@SAHT__m256i@@@Z 10069e50 f i libucrtd:strnlen.obj
 0001:00068e80       ?compute_byte_mask@?$__crt_simd_pack_traits@$0A@@@SAHT__m128i@@@Z 10069e80 f i libucrtd:strnlen.obj
 0001:00068eb0       ?get_zero_pack@?$__crt_simd_pack_traits@$00@@SA?AT__m256i@@XZ 10069eb0 f i libucrtd:strnlen.obj
 0001:00068ee0       ?get_zero_pack@?$__crt_simd_pack_traits@$0A@@@SA?AT__m128i@@XZ 10069ee0 f i libucrtd:strnlen.obj
 0001:00068f10       _strnlen                   10069f10 f   libucrtd:strnlen.obj
 0001:00068f30       _wcslen                    10069f30 f   libucrtd:strnlen.obj
 0001:00068f50       _wcsnlen                   10069f50 f   libucrtd:strnlen.obj
 0001:00068f70       ??$__crt_fast_decode_pointer@P6AXPB_W00II@Z@@YAP6AXPB_W00II@ZQ6AX000II@Z@Z 10069f70 f i libucrtd:invalid_parameter.obj
 0001:00068fa0       ??$__crt_fast_encode_pointer@P6AXPB_W00II@Z@@YAP6AXPB_W00II@ZQ6AX000II@Z@Z 10069fa0 f i libucrtd:invalid_parameter.obj
 0001:00068fd0       ??$initialize_from_array@$$BY00Q6AXPB_W00II@Z@?$dual_state_global@P6AXPB_W00II@Z@__crt_state_management@@QAAXAAY00Q6AXPB_W00II@Z@Z 10069fd0 f i libucrtd:invalid_parameter.obj
 0001:00069020       ?__crt_rotate_pointer_value@@YAIIH@Z 1006a020 f i libucrtd:invalid_parameter.obj
 0001:00069030       ?dangerous_get_state_array@?$dual_state_global@P6AXPB_W00II@Z@__crt_state_management@@QAEPAP6AXPB_W00II@ZXZ 1006a030 f i libucrtd:invalid_parameter.obj
 0001:00069040       ?get_current_state_index@__crt_state_management@@YAIXZ 1006a040 f i libucrtd:invalid_parameter.obj
 0001:00069050       ?value@?$dual_state_global@P6AXPB_W00II@Z@__crt_state_management@@QAEAAP6AXPB_W00II@ZXZ 1006a050 f i libucrtd:invalid_parameter.obj
 0001:00069070       ___acrt_call_reportfault   1006a070 f   libucrtd:invalid_parameter.obj
 0001:000691d0       ___acrt_initialize_invalid_parameter_handler 1006a1d0 f   libucrtd:invalid_parameter.obj
 0001:00069200       __get_invalid_parameter_handler 1006a200 f   libucrtd:invalid_parameter.obj
 0001:00069220       __get_thread_local_invalid_parameter_handler 1006a220 f   libucrtd:invalid_parameter.obj
 0001:00069250       __invalid_parameter        1006a250 f   libucrtd:invalid_parameter.obj
 0001:00069310       __invalid_parameter_noinfo 1006a310 f   libucrtd:invalid_parameter.obj
 0001:00069330       __invalid_parameter_noinfo_noreturn 1006a330 f   libucrtd:invalid_parameter.obj
 0001:00069360       __invoke_watson            1006a360 f   libucrtd:invalid_parameter.obj
 0001:000693a0       __set_invalid_parameter_handler 1006a3a0 f   libucrtd:invalid_parameter.obj
 0001:000693f0       __set_thread_local_invalid_parameter_handler 1006a3f0 f   libucrtd:invalid_parameter.obj
 0001:00069420       ___acrt_errno_from_os_error 1006a420 f   libucrtd:errno.obj
 0001:000694a0       ___acrt_errno_map_os_error 1006a4a0 f   libucrtd:errno.obj
 0001:000694d0       ___doserrno                1006a4d0 f   libucrtd:errno.obj
 0001:00069500       __errno                    1006a500 f   libucrtd:errno.obj
 0001:00069530       __get_doserrno             1006a530 f   libucrtd:errno.obj
 0001:000695c0       __get_errno                1006a5c0 f   libucrtd:errno.obj
 0001:00069650       __set_doserrno             1006a650 f   libucrtd:errno.obj
 0001:00069680       __set_errno                1006a680 f   libucrtd:errno.obj
 0001:000696b0       _calloc                    1006a6b0 f   libucrtd:calloc.obj
 0001:000696d0       __recalloc                 1006a6d0 f   libucrtd:recalloc.obj
 0001:00069700       __recalloc_base            1006a700 f   libucrtd:recalloc.obj
 0001:0006979a       __resetstkoflw             1006a79a f   libucrtd:resetstk.obj
 0001:00069c80       _wcscat_s                  1006ac80 f   libucrtd:wcscat_s.obj
 0001:0006a0d0       _wcsncpy_s                 1006b0d0 f   libucrtd:wcsncpy_s.obj
 0001:0006a210       ___isascii                 1006b210 f   libucrtd:_ctype.obj
 0001:0006a240       ___iscsym                  1006b240 f   libucrtd:_ctype.obj
 0001:0006a280       ___iscsymf                 1006b280 f   libucrtd:_ctype.obj
 0001:0006a2c0       ___toascii                 1006b2c0 f   libucrtd:_ctype.obj
 0001:0006a2d0       __isalnum_l                1006b2d0 f   libucrtd:_ctype.obj
 0001:0006a2f0       __isalpha_l                1006b2f0 f   libucrtd:_ctype.obj
 0001:0006a310       __isblank_l                1006b310 f   libucrtd:_ctype.obj
 0001:0006a330       __iscntrl_l                1006b330 f   libucrtd:_ctype.obj
 0001:0006a350       __iscsym_l                 1006b350 f   libucrtd:_ctype.obj
 0001:0006a390       __iscsymf_l                1006b390 f   libucrtd:_ctype.obj
 0001:0006a3d0       __isdigit_l                1006b3d0 f   libucrtd:_ctype.obj
 0001:0006a3f0       __isgraph_l                1006b3f0 f   libucrtd:_ctype.obj
 0001:0006a410       __islower_l                1006b410 f   libucrtd:_ctype.obj
 0001:0006a430       __isprint_l                1006b430 f   libucrtd:_ctype.obj
 0001:0006a450       __ispunct_l                1006b450 f   libucrtd:_ctype.obj
 0001:0006a470       __isspace_l                1006b470 f   libucrtd:_ctype.obj
 0001:0006a490       __isupper_l                1006b490 f   libucrtd:_ctype.obj
 0001:0006a4b0       __isxdigit_l               1006b4b0 f   libucrtd:_ctype.obj
 0001:0006a4d0       _isalnum                   1006b4d0 f   libucrtd:_ctype.obj
 0001:0006a4f0       _isalpha                   1006b4f0 f   libucrtd:_ctype.obj
 0001:0006a510       _isblank                   1006b510 f   libucrtd:_ctype.obj
 0001:0006a540       _iscntrl                   1006b540 f   libucrtd:_ctype.obj
 0001:0006a560       _isdigit                   1006b560 f   libucrtd:_ctype.obj
 0001:0006a580       _isgraph                   1006b580 f   libucrtd:_ctype.obj
 0001:0006a5a0       _islower                   1006b5a0 f   libucrtd:_ctype.obj
 0001:0006a5c0       _isprint                   1006b5c0 f   libucrtd:_ctype.obj
 0001:0006a5e0       _ispunct                   1006b5e0 f   libucrtd:_ctype.obj
 0001:0006a600       _isspace                   1006b600 f   libucrtd:_ctype.obj
 0001:0006a620       _isupper                   1006b620 f   libucrtd:_ctype.obj
 0001:0006a640       _isxdigit                  1006b640 f   libucrtd:_ctype.obj
 0001:0006a660       _wcscat                    1006b660 f   libucrtd:wcscat.obj
 0001:0006a6c0       _wcscpy                    1006b6c0 f   libucrtd:wcscpy.obj
 0001:0006ad50       ??$open_file@ABQBDABQBDABHPAU_iobuf@@@?$__crt_char_traits@D@@SAPAU_iobuf@@ABQBD0ABH$$QAPAU1@@Z 1006bd50 f i libucrtd:fopen.obj
 0001:0006ad80       ??$open_file@ABQB_WABQB_WABHPAU_iobuf@@@?$__crt_char_traits@_W@@SAPAU_iobuf@@ABQB_W0ABH$$QAPAU1@@Z 1006bd80 f i libucrtd:fopen.obj
 0001:0006adb0       ?unlock@__crt_stdio_stream@@QBEXXZ 1006bdb0 f i libucrtd:fopen.obj
 0001:0006add0       __fsopen                   1006bdd0 f   libucrtd:fopen.obj
 0001:0006adf0       __wfopen                   1006bdf0 f   libucrtd:fopen.obj
 0001:0006ae10       __wfopen_s                 1006be10 f   libucrtd:fopen.obj
 0001:0006ae30       __wfsopen                  1006be30 f   libucrtd:fopen.obj
 0001:0006ae50       _fopen                     1006be50 f   libucrtd:fopen.obj
 0001:0006ae70       _fopen_s                   1006be70 f   libucrtd:fopen.obj
 0001:0006ae90       ?is_in_use@__crt_stdio_stream@@QBE_NXZ 1006be90 f i libucrtd:fclose.obj
 0001:0006aed0       __fclose_nolock            1006bed0 f   libucrtd:fclose.obj
 0001:0006b010       _fclose                    1006c010 f   libucrtd:fclose.obj
 0001:0006b160       __fputc_nolock             1006c160 f   libucrtd:fputc.obj
 0001:0006b1f0       __fputchar                 1006c1f0 f   libucrtd:fputc.obj
 0001:0006b210       __putc_nolock              1006c210 f   libucrtd:fputc.obj
 0001:0006b230       _fputc                     1006c230 f   libucrtd:fputc.obj
 0001:0006b470       _putc                      1006c470 f   libucrtd:fputc.obj
 0001:0006b490       _putchar                   1006c490 f   libucrtd:fputc.obj
 0001:0006b500       __seh_filter_dll           1006c500 f   libucrtd:exception_filter.obj
 0001:0006b530       __seh_filter_exe           1006c530 f   libucrtd:exception_filter.obj
 0001:0006b740       ??$?B$$A6GXPAXK0@Z@__crt_fast_encoded_nullptr_t@@QBEP6GXPAXK0@ZXZ 1006c740 f i libucrtd:exit.obj
 0001:0006b820       ??$__crt_fast_decode_pointer@P6GXPAXK0@Z@@YAP6GXPAXK0@ZQ6GX0K0@Z@Z 1006c820 f i libucrtd:exit.obj
 0001:0006b850       ??$__crt_fast_encode_pointer@P6GXPAXK0@Z@@YAP6GXPAXK0@ZQ6GX0K0@Z@Z 1006c850 f i libucrtd:exit.obj
 0001:0006b880       ??$__crt_get_proc_address@P6GXI@Z@@YAP6GXI@ZQAUHINSTANCE__@@QBD@Z 1006c880 f i libucrtd:exit.obj
 0001:0006b910       ??0?$__crt_unique_handle_t@U__crt_hmodule_traits@@@@QAE@QAUHINSTANCE__@@@Z 1006c910 f i libucrtd:exit.obj
 0001:0006b930       ??1?$__crt_unique_handle_t@U__crt_hmodule_traits@@@@QAE@XZ 1006c930 f i libucrtd:exit.obj
 0001:0006baf0       ?__acrt_select_exit_lock@@YA?AW4__acrt_lock_id@@XZ 1006caf0 f i libucrtd:exit.obj
 0001:0006bb00       ?__crt_fast_encode_pointer@@YA?AU__crt_fast_encoded_nullptr_t@@$$T@Z 1006cb00 f i libucrtd:exit.obj
 0001:0006bb30       ?close@?$__crt_unique_handle_t@U__crt_hmodule_traits@@@@QAEXXZ 1006cb30 f i libucrtd:exit.obj
 0001:0006bb70       ?close@__crt_hmodule_traits@@SA_NPAUHINSTANCE__@@@Z 1006cb70 f i libucrtd:exit.obj
 0001:0006bc60       ?get@?$__crt_unique_handle_t@U__crt_hmodule_traits@@@@QBEPAUHINSTANCE__@@XZ 1006cc60 f i libucrtd:exit.obj
 0001:0006bc80       ?get_address_of@?$__crt_unique_handle_t@U__crt_hmodule_traits@@@@QAEPAPAUHINSTANCE__@@XZ 1006cc80 f i libucrtd:exit.obj
 0001:0006bc90       ?get_invalid_value@__crt_hmodule_traits@@SAPAUHINSTANCE__@@XZ 1006cc90 f i libucrtd:exit.obj
 0001:0006be10       __Exit                     1006ce10 f   libucrtd:exit.obj
 0001:0006be30       ___acrt_initialize_thread_local_exit_callback 1006ce30 f   libucrtd:exit.obj
 0001:0006be40       __c_exit                   1006ce40 f   libucrtd:exit.obj
 0001:0006be60       __cexit                    1006ce60 f   libucrtd:exit.obj
 0001:0006be80       __exit                     1006ce80 f   libucrtd:exit.obj
 0001:0006bea0       __is_c_termination_complete 1006cea0 f   libucrtd:exit.obj
 0001:0006bec0       __register_thread_local_exe_atexit_callback 1006cec0 f   libucrtd:exit.obj
 0001:0006bf00       _exit                      1006cf00 f   libucrtd:exit.obj
 0001:0006bf20       _quick_exit                1006cf20 f   libucrtd:exit.obj
 0001:0006bf40       ??$?RE@__crt_internal_free_policy@@QBEXQBE@Z 1006cf40 f i libucrtd:argv_parsing.obj
 0001:0006bf60       ??$?RPAD@__crt_internal_free_policy@@QBEXQBQAD@Z 1006cf60 f i libucrtd:argv_parsing.obj
 0001:0006bf80       ??$?RPA_W@__crt_internal_free_policy@@QBEXQBQA_W@Z 1006cf80 f i libucrtd:argv_parsing.obj
 0001:0006c4e0       ??$get_module_file_name@$$TAAY0BAF@DH@?$__crt_char_traits@D@@SAK$$QA$$TAAY0BAF@D$$QAH@Z 1006d4e0 f i libucrtd:argv_parsing.obj
 0001:0006c500       ??$get_module_file_name@$$TAAY0BAF@_WH@?$__crt_char_traits@_W@@SAK$$QA$$TAAY0BAF@_W$$QAH@Z 1006d500 f i libucrtd:argv_parsing.obj
 0001:0006cc20       ??$set_program_name@PAD@?$__crt_char_traits@D@@SAX$$QAPAD@Z 1006dc20 f i libucrtd:argv_parsing.obj
 0001:0006cc40       ??$set_program_name@PA_W@?$__crt_char_traits@_W@@SAX$$QAPA_W@Z 1006dc40 f i libucrtd:argv_parsing.obj
 0001:0006cca0       ??0?$__crt_unique_heap_ptr@EU__crt_internal_free_policy@@@@QAE@QAE@Z 1006dca0 f i libucrtd:argv_parsing.obj
 0001:0006ccc0       ??0?$__crt_unique_heap_ptr@PADU__crt_internal_free_policy@@@@QAE@QAPAD@Z 1006dcc0 f i libucrtd:argv_parsing.obj
 0001:0006cce0       ??0?$__crt_unique_heap_ptr@PA_WU__crt_internal_free_policy@@@@QAE@QAPA_W@Z 1006dce0 f i libucrtd:argv_parsing.obj
 0001:0006cd00       ??1?$__crt_unique_heap_ptr@EU__crt_internal_free_policy@@@@QAE@XZ 1006dd00 f i libucrtd:argv_parsing.obj
 0001:0006cd20       ??1?$__crt_unique_heap_ptr@PADU__crt_internal_free_policy@@@@QAE@XZ 1006dd20 f i libucrtd:argv_parsing.obj
 0001:0006cd40       ??1?$__crt_unique_heap_ptr@PA_WU__crt_internal_free_policy@@@@QAE@XZ 1006dd40 f i libucrtd:argv_parsing.obj
 0001:0006cd60       ??B?$__crt_unique_heap_ptr@EU__crt_internal_free_policy@@@@QBE_NXZ 1006dd60 f i libucrtd:argv_parsing.obj
 0001:0006ce20       ?detach@?$__crt_unique_heap_ptr@EU__crt_internal_free_policy@@@@QAEPAEXZ 1006de20 f i libucrtd:argv_parsing.obj
 0001:0006ce50       ?detach@?$__crt_unique_heap_ptr@PADU__crt_internal_free_policy@@@@QAEPAPADXZ 1006de50 f i libucrtd:argv_parsing.obj
 0001:0006ce80       ?detach@?$__crt_unique_heap_ptr@PA_WU__crt_internal_free_policy@@@@QAEPAPA_WXZ 1006de80 f i libucrtd:argv_parsing.obj
 0001:0006cf10       ?get@?$__crt_unique_heap_ptr@EU__crt_internal_free_policy@@@@QBEPAEXZ 1006df10 f i libucrtd:argv_parsing.obj
 0001:0006cf30       ?get@?$__crt_unique_heap_ptr@PADU__crt_internal_free_policy@@@@QBEPAPADXZ 1006df30 f i libucrtd:argv_parsing.obj
 0001:0006cf50       ?get@?$__crt_unique_heap_ptr@PA_WU__crt_internal_free_policy@@@@QBEPAPA_WXZ 1006df50 f i libucrtd:argv_parsing.obj
 0001:0006cf70       ?get_address_of@?$__crt_unique_heap_ptr@PADU__crt_internal_free_policy@@@@QAEPAPAPADXZ 1006df70 f i libucrtd:argv_parsing.obj
 0001:0006cf80       ?get_address_of@?$__crt_unique_heap_ptr@PA_WU__crt_internal_free_policy@@@@QAEPAPAPA_WXZ 1006df80 f i libucrtd:argv_parsing.obj
 0001:0006cfd0       ?is_valid@?$__crt_unique_heap_ptr@EU__crt_internal_free_policy@@@@QBE_NXZ 1006dfd0 f i libucrtd:argv_parsing.obj
 0001:0006d000       ?release@?$__crt_unique_heap_ptr@EU__crt_internal_free_policy@@@@QAEXXZ 1006e000 f i libucrtd:argv_parsing.obj
 0001:0006d030       ?release@?$__crt_unique_heap_ptr@PADU__crt_internal_free_policy@@@@QAEXXZ 1006e030 f i libucrtd:argv_parsing.obj
 0001:0006d060       ?release@?$__crt_unique_heap_ptr@PA_WU__crt_internal_free_policy@@@@QAEXXZ 1006e060 f i libucrtd:argv_parsing.obj
 0001:0006d0d0       ___acrt_allocate_buffer_for_argv 1006e0d0 f   libucrtd:argv_parsing.obj
 0001:0006d190       __configure_narrow_argv    1006e190 f   libucrtd:argv_parsing.obj
 0001:0006d1b0       __configure_wide_argv      1006e1b0 f   libucrtd:argv_parsing.obj
 0001:0006d1d0       __set_pgmptr               1006e1d0 f i libucrtd:argv_parsing.obj
 0001:0006d1e0       __set_wpgmptr              1006e1e0 f i libucrtd:argv_parsing.obj
 0001:0006d1ef       ??$?R_W@__crt_internal_free_policy@@QBEXQB_W@Z 1006e1ef f i libucrtd:environment_initialization.obj
 0001:0006d658       ??$get_environment_from_os@$$V@?$__crt_char_traits@D@@SAPADXZ 1006e658 f i libucrtd:environment_initialization.obj
 0001:0006d65d       ??$get_environment_from_os@$$V@?$__crt_char_traits@_W@@SAPA_WXZ 1006e65d f i libucrtd:environment_initialization.obj
 0001:0006d786       ??$set_variable_in_environment_nolock@PADH@?$__crt_char_traits@D@@SAH$$QAPAD$$QAH@Z 1006e786 f i libucrtd:environment_initialization.obj
 0001:0006d79e       ??$set_variable_in_environment_nolock@PA_WH@?$__crt_char_traits@_W@@SAH$$QAPA_W$$QAH@Z 1006e79e f i libucrtd:environment_initialization.obj
 0001:0006d7b6       ??$tcscpy_s@PADABIAAPAD@?$__crt_char_traits@D@@SAH$$QAPADABIAAPAD@Z 1006e7b6 f i libucrtd:environment_initialization.obj
 0001:0006d7d4       ??$tcscpy_s@PA_WABIAAPA_W@?$__crt_char_traits@_W@@SAH$$QAPA_WABIAAPA_W@Z 1006e7d4 f i libucrtd:environment_initialization.obj
 0001:0006d7f2       ??$tcslen@AAPAD@?$__crt_char_traits@D@@SAIAAPAD@Z 1006e7f2 f i libucrtd:environment_initialization.obj
 0001:0006d80a       ??$tcslen@AAPA_W@?$__crt_char_traits@_W@@SAIAAPA_W@Z 1006e80a f i libucrtd:environment_initialization.obj
 0001:0006d828       ??$uninitialize@A6AXAAPAPAD@Z@?$dual_state_global@PAPAD@__crt_state_management@@QAEXA6AXAAPAPAD@Z@Z 1006e828 f i libucrtd:environment_initialization.obj
 0001:0006d851       ??$uninitialize@A6AXAAPAPA_W@Z@?$dual_state_global@PAPA_W@__crt_state_management@@QAEXA6AXAAPAPA_W@Z@Z 1006e851 f i libucrtd:environment_initialization.obj
 0001:0006d8b0       ??0?$__crt_unique_heap_ptr@_WU__crt_internal_free_policy@@@@QAE@QA_W@Z 1006e8b0 f i libucrtd:environment_initialization.obj
 0001:0006d8c0       ??1?$__crt_unique_heap_ptr@_WU__crt_internal_free_policy@@@@QAE@XZ 1006e8c0 f i libucrtd:environment_initialization.obj
 0001:0006d8d5       ??B?$__crt_unique_heap_ptr@PADU__crt_internal_free_policy@@@@QBE_NXZ 1006e8d5 f i libucrtd:environment_initialization.obj
 0001:0006d8dc       ??B?$__crt_unique_heap_ptr@PA_WU__crt_internal_free_policy@@@@QBE_NXZ 1006e8dc f i libucrtd:environment_initialization.obj
 0001:0006d8e3       ??B?$__crt_unique_heap_ptr@_WU__crt_internal_free_policy@@@@QBE_NXZ 1006e8e3 f i libucrtd:environment_initialization.obj
 0001:0006d8ea       ?__crt_compute_required_transform_buffer_count@@YAIIQBD@Z 1006e8ea f i libucrtd:environment_initialization.obj
 0001:0006d906       ?__crt_compute_required_transform_buffer_count@@YAIIQB_W@Z 1006e906 f i libucrtd:environment_initialization.obj
 0001:0006d924       ?__crt_transform_string@@YAIIQBDQA_WI@Z 1006e924 f i libucrtd:environment_initialization.obj
 0001:0006d943       ?__crt_transform_string@@YAIIQB_WQADI@Z 1006e943 f i libucrtd:environment_initialization.obj
 0001:0006d965       ?detach@?$__crt_unique_heap_ptr@DU__crt_internal_free_policy@@@@QAEPADXZ 1006e965 f i libucrtd:environment_initialization.obj
 0001:0006d96b       ?detach@?$__crt_unique_heap_ptr@_WU__crt_internal_free_policy@@@@QAEPA_WXZ 1006e96b f i libucrtd:environment_initialization.obj
 0001:0006d971       ?get@?$__crt_unique_heap_ptr@_WU__crt_internal_free_policy@@@@QBEPA_WXZ 1006e971 f i libucrtd:environment_initialization.obj
 0001:0006d998       ?initialize@?$dual_state_global@PAPAD@__crt_state_management@@QAEXQAPAD@Z 1006e998 f i libucrtd:environment_initialization.obj
 0001:0006d9be       ?initialize@?$dual_state_global@PAPA_W@__crt_state_management@@QAEXQAPA_W@Z 1006e9be f i libucrtd:environment_initialization.obj
 0001:0006d9e4       ?is_valid@?$__crt_unique_heap_ptr@PADU__crt_internal_free_policy@@@@QBE_NXZ 1006e9e4 f i libucrtd:environment_initialization.obj
 0001:0006d9eb       ?is_valid@?$__crt_unique_heap_ptr@PA_WU__crt_internal_free_policy@@@@QBE_NXZ 1006e9eb f i libucrtd:environment_initialization.obj
 0001:0006d9f2       ?is_valid@?$__crt_unique_heap_ptr@_WU__crt_internal_free_policy@@@@QBE_NXZ 1006e9f2 f i libucrtd:environment_initialization.obj
 0001:0006da01       ?release@?$__crt_unique_heap_ptr@_WU__crt_internal_free_policy@@@@QAEXXZ 1006ea01 f i libucrtd:environment_initialization.obj
 0001:0006da16       ?value@?$dual_state_global@PAPAD@__crt_state_management@@QAEAAPAPADXZ 1006ea16 f i libucrtd:environment_initialization.obj
 0001:0006da19       ?value@?$dual_state_global@PAPA_W@__crt_state_management@@QAEAAPAPA_WXZ 1006ea19 f i libucrtd:environment_initialization.obj
 0001:0006da1c       ___dcrt_get_or_create_narrow_environment_nolock 1006ea1c f   libucrtd:environment_initialization.obj
 0001:0006da21       ___dcrt_get_or_create_wide_environment_nolock 1006ea21 f   libucrtd:environment_initialization.obj
 0001:0006da26       ___dcrt_uninitialize_environments_nolock 1006ea26 f   libucrtd:environment_initialization.obj
 0001:0006da5d       ___p__environ              1006ea5d f   libucrtd:environment_initialization.obj
 0001:0006da63       ___p__wenviron             1006ea63 f   libucrtd:environment_initialization.obj
 0001:0006da69       __get_initial_narrow_environment 1006ea69 f   libucrtd:environment_initialization.obj
 0001:0006da7d       __get_initial_wide_environment 1006ea7d f   libucrtd:environment_initialization.obj
 0001:0006da91       __initialize_narrow_environment 1006ea91 f   libucrtd:environment_initialization.obj
 0001:0006da96       __initialize_wide_environment 1006ea96 f   libucrtd:environment_initialization.obj
 0001:0006daa0       ??$?B$$A6AXXZ@__crt_fast_encoded_nullptr_t@@QBEP6AXXZXZ 1006eaa0 f i libucrtd:onexit.obj
 0001:0006dac0       ??$?BP6AXXZ@__crt_fast_encoded_nullptr_t@@QBEPAP6AXXZXZ 1006eac0 f i libucrtd:onexit.obj
 0001:0006dae0       ??$?RP6AXXZ@__crt_internal_free_policy@@QBEXQBQ6AXXZ@Z 1006eae0 f i libucrtd:onexit.obj
 0001:0006dca0       ??$__crt_fast_decode_pointer@P6AXXZ@@YAP6AXXZQ6AXXZ@Z 1006eca0 f i libucrtd:onexit.obj
 0001:0006dcd0       ??$__crt_fast_decode_pointer@PAP6AXXZ@@YAPAP6AXXZQAP6AXXZ@Z 1006ecd0 f i libucrtd:onexit.obj
 0001:0006dd00       ??$__crt_fast_encode_pointer@P6AHXZ@@YAP6AHXZQ6AHXZ@Z 1006ed00 f i libucrtd:onexit.obj
 0001:0006dd30       ??$__crt_fast_encode_pointer@P6AXXZ@@YAP6AXXZQ6AXXZ@Z 1006ed30 f i libucrtd:onexit.obj
 0001:0006dd60       ??$__crt_fast_encode_pointer@PAP6AXXZ@@YAPAP6AXXZQAP6AXXZ@Z 1006ed60 f i libucrtd:onexit.obj
 0001:0006de60       ??0?$__crt_unique_heap_ptr@P6AXXZU__crt_internal_free_policy@@@@QAE@QAP6AXXZ@Z 1006ee60 f i libucrtd:onexit.obj
 0001:0006de80       ??1?$__crt_unique_heap_ptr@P6AXXZU__crt_internal_free_policy@@@@QAE@XZ 1006ee80 f i libucrtd:onexit.obj
 0001:0006dea0       ??1scoped_global_state_reset@__crt_state_management@@QAE@XZ 1006eea0 f i libucrtd:onexit.obj
 0001:0006e310       ?detach@?$__crt_unique_heap_ptr@P6AXXZU__crt_internal_free_policy@@@@QAEPAP6AXXZXZ 1006f310 f i libucrtd:onexit.obj
 0001:0006e340       ?release@?$__crt_unique_heap_ptr@P6AXXZU__crt_internal_free_policy@@@@QAEXXZ 1006f340 f i libucrtd:onexit.obj
 0001:0006e370       __crt_at_quick_exit        1006f370 f   libucrtd:onexit.obj
 0001:0006e390       __crt_atexit               1006f390 f   libucrtd:onexit.obj
 0001:0006e3b0       __execute_onexit_table     1006f3b0 f   libucrtd:onexit.obj
 0001:0006e3e0       __initialize_onexit_table  1006f3e0 f   libucrtd:onexit.obj
 0001:0006e440       __register_onexit_function 1006f440 f   libucrtd:onexit.obj
 0001:0006e680       ??$?BX@__crt_fast_encoded_nullptr_t@@QBEPAXXZ 1006f680 f i libucrtd:initialization.obj
 0001:0006e6a0       ??$__crt_fast_encode_pointer@PAX@@YAPAXQAX@Z 1006f6a0 f i libucrtd:initialization.obj
 0001:0006e760       ?initialize@?$dual_state_global@PAU__crt_locale_data@@@__crt_state_management@@QAEXQAU__crt_locale_data@@@Z 1006f760 f i libucrtd:initialization.obj
 0001:0006e7a0       ___acrt_initialize         1006f7a0 f   libucrtd:initialization.obj
 0001:0006e7c0       ___acrt_thread_attach      1006f7c0 f   libucrtd:initialization.obj
 0001:0006e7e0       ___acrt_thread_detach      1006f7e0 f   libucrtd:initialization.obj
 0001:0006e7f0       ___acrt_uninitialize       1006f7f0 f   libucrtd:initialization.obj
 0001:0006e810       ___acrt_uninitialize_critical 1006f810 f   libucrtd:initialization.obj
 0001:00070080       __CrtCheckMemory           10071080 f   libucrtd:debug_heap.obj
 0001:00070210       __CrtDoForAllClientObjects 10071210 f   libucrtd:debug_heap.obj
 0001:00070360       __CrtDumpMemoryLeaks       10071360 f   libucrtd:debug_heap.obj
 0001:00070400       __CrtGetAllocHook          10071400 f   libucrtd:debug_heap.obj
 0001:00070410       __CrtGetDumpClient         10071410 f   libucrtd:debug_heap.obj
 0001:00070420       __CrtIsMemoryBlock         10071420 f   libucrtd:debug_heap.obj
 0001:00070570       __CrtIsValidHeapPointer    10071570 f   libucrtd:debug_heap.obj
 0001:000705a0       __CrtIsValidPointer        100715a0 f   libucrtd:debug_heap.obj
 0001:000705d0       __CrtMemCheckpoint         100715d0 f   libucrtd:debug_heap.obj
 0001:00070800       __CrtMemDifference         10071800 f   libucrtd:debug_heap.obj
 0001:00070a70       __CrtMemDumpAllObjectsSince 10071a70 f   libucrtd:debug_heap.obj
 0001:00070b10       __CrtMemDumpStatistics     10071b10 f   libucrtd:debug_heap.obj
 0001:00070c40       __CrtReportBlockType       10071c40 f   libucrtd:debug_heap.obj
 0001:00070c70       __CrtSetAllocHook          10071c70 f   libucrtd:debug_heap.obj
 0001:00070c90       __CrtSetBreakAlloc         10071c90 f   libucrtd:debug_heap.obj
 0001:00070cb0       __CrtSetDbgBlockType       10071cb0 f   libucrtd:debug_heap.obj
 0001:00070d90       __CrtSetDbgFlag            10071d90 f   libucrtd:debug_heap.obj
 0001:00070f00       __CrtSetDumpClient         10071f00 f   libucrtd:debug_heap.obj
 0001:00070f20       ___acrt_get_locale_data_prefix 10071f20 f i libucrtd:debug_heap.obj
 0001:00070f40       ___p__crtBreakAlloc        10071f40 f   libucrtd:debug_heap.obj
 0001:00070f50       ___p__crtDbgFlag           10071f50 f   libucrtd:debug_heap.obj
 0001:00070f60       __aligned_free_dbg         10071f60 f   libucrtd:debug_heap.obj
 0001:00071010       __aligned_malloc_dbg       10072010 f   libucrtd:debug_heap.obj
 0001:00071040       __aligned_msize_dbg        10072040 f   libucrtd:debug_heap.obj
 0001:00071170       __aligned_offset_malloc_dbg 10072170 f   libucrtd:debug_heap.obj
 0001:00071350       __aligned_offset_realloc_dbg 10072350 f   libucrtd:debug_heap.obj
 0001:00071660       __aligned_offset_recalloc_dbg 10072660 f   libucrtd:debug_heap.obj
 0001:00071720       __aligned_realloc_dbg      10072720 f   libucrtd:debug_heap.obj
 0001:00071750       __aligned_recalloc_dbg     10072750 f   libucrtd:debug_heap.obj
 0001:00071780       __calloc_dbg               10072780 f   libucrtd:debug_heap.obj
 0001:000717f0       __chvalidchk_l             100727f0 f i libucrtd:debug_heap.obj
 0001:00071810       __expand_dbg               10072810 f   libucrtd:debug_heap.obj
 0001:00071940       __free_dbg                 10072940 f   libucrtd:debug_heap.obj
 0001:000719f0       __ischartype_l             100729f0 f i libucrtd:debug_heap.obj
 0001:00071a70       __malloc_dbg               10072a70 f   libucrtd:debug_heap.obj
 0001:00071a90       __msize_dbg                10072a90 f   libucrtd:debug_heap.obj
 0001:00071c20       __realloc_dbg              10072c20 f   libucrtd:debug_heap.obj
 0001:00071cc0       __recalloc_dbg             10072cc0 f   libucrtd:debug_heap.obj
 0001:00071d70       __initterm                 10072d70 f   libucrtd:initterm.obj
 0001:00071dc0       __initterm_e               10072dc0 f   libucrtd:initterm.obj
 0001:00072130       _strcpy_s                  10073130 f   libucrtd:strcpy_s.obj
 0001:00072560       _strcat_s                  10073560 f   libucrtd:strcat_s.obj
 0001:00072580       ??$?B$$A6AHI@Z@__crt_fast_encoded_nullptr_t@@QBEP6AHI@ZXZ 10073580 f i libucrtd:new_handler.obj
 0001:000725a0       ??$__crt_fast_decode_pointer@P6AHI@Z@@YAP6AHI@ZQ6AHI@Z@Z 100735a0 f i libucrtd:new_handler.obj
 0001:000725d0       ??$__crt_fast_encode_pointer@P6AHI@Z@@YAP6AHI@ZQ6AHI@Z@Z 100735d0 f i libucrtd:new_handler.obj
 0001:00072600       ?_set_new_handler@@YAP6AHI@ZH@Z 10073600 f   libucrtd:new_handler.obj
 0001:00072660       ?initialize@?$dual_state_global@P6AHI@Z@__crt_state_management@@QAEXQ6AHI@Z@Z 10073660 f i libucrtd:new_handler.obj
 0001:000726a0       ?value@?$dual_state_global@P6AHI@Z@__crt_state_management@@QAEAAP6AHI@ZXZ 100736a0 f i libucrtd:new_handler.obj
 0001:000726c0       ___acrt_initialize_new_handler 100736c0 f   libucrtd:new_handler.obj
 0001:000726e0       __callnewh                 100736e0 f   libucrtd:new_handler.obj
 0001:00072720       __query_new_handler        10073720 f   libucrtd:new_handler.obj
 0001:000727b0       __set_new_handler          100737b0 f   libucrtd:new_handler.obj
 0001:00072890       __get_terminate            10073890 f   libucrtd:terminate.obj
 0001:000728b0       _set_terminate             100738b0 f   libucrtd:terminate.obj
 0001:000728e0       _terminate                 100738e0 f   libucrtd:terminate.obj
 0001:000732b0       __makepath                 100742b0 f   libucrtd:makepath.obj
 0001:000732e0       __makepath_s               100742e0 f   libucrtd:makepath.obj
 0001:00073310       __wmakepath                10074310 f   libucrtd:makepath.obj
 0001:00073340       __wmakepath_s              10074340 f   libucrtd:makepath.obj
 0001:00074c90       ??$tcsncpy_s@AAPADIAAPBDABI@?$__crt_char_traits@D@@SAHAAPAD$$QAIAAPBDABI@Z 10075c90 f i libucrtd:splitpath.obj
 0001:00074cc0       ??$tcsncpy_s@AAPADIAAPBDH@?$__crt_char_traits@D@@SAHAAPAD$$QAIAAPBD$$QAH@Z 10075cc0 f i libucrtd:splitpath.obj
 0001:00074cf0       ??$tcsncpy_s@AAPA_WIAAPB_WABI@?$__crt_char_traits@_W@@SAHAAPA_W$$QAIAAPB_WABI@Z 10075cf0 f i libucrtd:splitpath.obj
 0001:00074d20       ??$tcsncpy_s@AAPA_WIAAPB_WH@?$__crt_char_traits@_W@@SAHAAPA_W$$QAIAAPB_W$$QAH@Z 10075d20 f i libucrtd:splitpath.obj
 0001:00074f60       __splitpath                10075f60 f   libucrtd:splitpath.obj
 0001:00074f90       __splitpath_s              10075f90 f   libucrtd:splitpath.obj
 0001:00074fe0       __wsplitpath               10075fe0 f   libucrtd:splitpath.obj
 0001:00075010       __wsplitpath_s             10076010 f   libucrtd:splitpath.obj
 0001:00075060       __set_abort_behavior       10076060 f   libucrtd:abort.obj
 0001:00075090       _abort                     10076090 f   libucrtd:abort.obj
 0001:00075100       _strcmp                    10076100 f   libucrtd:strcmp.obj
 0001:00075190       _strlen                    10076190 f   libucrtd:strlen.obj
 0001:00075220       ??$is_overflow_condition@K@__crt_strtox@@YA_NIK@Z 10076220 f i libucrtd:atox.obj
 0001:00075280       ??$is_overflow_condition@_K@__crt_strtox@@YA_NI_K@Z 10076280 f i libucrtd:atox.obj
 0001:00075310       ??$make_c_string_character_source@D$$T@__crt_strtox@@YA?AV?$c_string_character_source@D@0@QBD$$T@Z 10076310 f i libucrtd:atox.obj
 0001:00075330       ??$make_c_string_character_source@_W$$T@__crt_strtox@@YA?AV?$c_string_character_source@_W@0@QB_W$$T@Z 10076330 f i libucrtd:atox.obj
 0001:00075350       ??$parse_integer@KV?$c_string_character_source@D@__crt_strtox@@@__crt_strtox@@YAKQAU__crt_locale_pointers@@V?$c_string_character_source@D@0@H_N@Z 10076350 f i libucrtd:atox.obj
 0001:000756c0       ??$parse_integer@KV?$c_string_character_source@_W@__crt_strtox@@@__crt_strtox@@YAKQAU__crt_locale_pointers@@V?$c_string_character_source@_W@0@H_N@Z 100766c0 f i libucrtd:atox.obj
 0001:00075a30       ??$parse_integer@_KV?$c_string_character_source@D@__crt_strtox@@@__crt_strtox@@YA_KQAU__crt_locale_pointers@@V?$c_string_character_source@D@0@H_N@Z 10076a30 f i libucrtd:atox.obj
 0001:00075e50       ??$parse_integer@_KV?$c_string_character_source@_W@__crt_strtox@@@__crt_strtox@@YA_KQAU__crt_locale_pointers@@V?$c_string_character_source@_W@0@H_N@Z 10076e50 f i libucrtd:atox.obj
 0001:00076280       ??$parse_integer_from_string@JD$$T@__crt_strtox@@YAJQBD$$THQAU__crt_locale_pointers@@@Z 10077280 f i libucrtd:atox.obj
 0001:000762c0       ??$parse_integer_from_string@J_W$$T@__crt_strtox@@YAJQB_W$$THQAU__crt_locale_pointers@@@Z 100772c0 f i libucrtd:atox.obj
 0001:00076300       ??$parse_integer_from_string@_JD$$T@__crt_strtox@@YA_JQBD$$THQAU__crt_locale_pointers@@@Z 10077300 f i libucrtd:atox.obj
 0001:00076340       ??$parse_integer_from_string@_J_W$$T@__crt_strtox@@YA_JQB_W$$THQAU__crt_locale_pointers@@@Z 10077340 f i libucrtd:atox.obj
 0001:00076380       ??0?$c_string_character_source@D@__crt_strtox@@QAE@QBDQAPBD@Z 10077380 f i libucrtd:atox.obj
 0001:000763c0       ??0?$c_string_character_source@_W@__crt_strtox@@QAE@QB_WQAPB_W@Z 100773c0 f i libucrtd:atox.obj
 0001:00076400       ??1?$c_string_character_source@D@__crt_strtox@@QAE@XZ 10077400 f i libucrtd:atox.obj
 0001:00076430       ??1?$c_string_character_source@_W@__crt_strtox@@QAE@XZ 10077430 f i libucrtd:atox.obj
 0001:00076460       ?get@?$c_string_character_source@D@__crt_strtox@@QAEDXZ 10077460 f i libucrtd:atox.obj
 0001:00076490       ?get@?$c_string_character_source@_W@__crt_strtox@@QAE_WXZ 10077490 f i libucrtd:atox.obj
 0001:000764c0       ?is_space@__crt_strtox@@YA_NDQAU__crt_locale_pointers@@@Z 100774c0 f i libucrtd:atox.obj
 0001:00076500       ?is_space@__crt_strtox@@YA_N_WPAU__crt_locale_pointers@@@Z 10077500 f i libucrtd:atox.obj
 0001:00076530       ?maximum_signed_value@__crt_strtox@@YAJK@Z 10077530 f i libucrtd:atox.obj
 0001:00076540       ?maximum_signed_value@__crt_strtox@@YA_J_K@Z 10077540 f i libucrtd:atox.obj
 0001:00076550       ?minimum_signed_value@__crt_strtox@@YAJK@Z 10077550 f i libucrtd:atox.obj
 0001:00076560       ?minimum_signed_value@__crt_strtox@@YA_J_K@Z 10077560 f i libucrtd:atox.obj
 0001:00076570       ?parse_digit@__crt_strtox@@YAID@Z 10077570 f i libucrtd:atox.obj
 0001:000765d0       ?parse_digit@__crt_strtox@@YAI_W@Z 100775d0 f i libucrtd:atox.obj
 0001:00076620       ?restore_state@?$c_string_character_source@D@__crt_strtox@@QAE_NQBD@Z 10077620 f i libucrtd:atox.obj
 0001:00076640       ?restore_state@?$c_string_character_source@_W@__crt_strtox@@QAE_NQB_W@Z 10077640 f i libucrtd:atox.obj
 0001:00076660       ?save_state@?$c_string_character_source@D@__crt_strtox@@QBEPBDXZ 10077660 f i libucrtd:atox.obj
 0001:00076680       ?save_state@?$c_string_character_source@_W@__crt_strtox@@QBEPB_WXZ 10077680 f i libucrtd:atox.obj
 0001:000766a0       ?unget@?$c_string_character_source@D@__crt_strtox@@QAEXD@Z 100776a0 f i libucrtd:atox.obj
 0001:00076750       ?unget@?$c_string_character_source@_W@__crt_strtox@@QAEX_W@Z 10077750 f i libucrtd:atox.obj
 0001:00076800       ?validate@?$c_string_character_source@D@__crt_strtox@@QBE_NXZ 10077800 f i libucrtd:atox.obj
 0001:00076890       ?validate@?$c_string_character_source@_W@__crt_strtox@@QBE_NXZ 10077890 f i libucrtd:atox.obj
 0001:00076920       ?wide_character_to_digit@__crt_strtox@@YAH_W@Z 10077920 f i libucrtd:atox.obj
 0001:00076c50       ___ascii_iswalpha          10077c50 f i libucrtd:atox.obj
 0001:00076c90       ___ascii_toupper           10077c90 f i libucrtd:atox.obj
 0001:00076cb0       ___ascii_towupper          10077cb0 f i libucrtd:atox.obj
 0001:00076cd0       __atoi64                   10077cd0 f   libucrtd:atox.obj
 0001:00076cf0       __atoi64_l                 10077cf0 f   libucrtd:atox.obj
 0001:00076d10       __atoi_l                   10077d10 f   libucrtd:atox.obj
 0001:00076d30       __atol_l                   10077d30 f   libucrtd:atox.obj
 0001:00076d50       __atoll_l                  10077d50 f   libucrtd:atox.obj
 0001:00076d70       __wtoi                     10077d70 f   libucrtd:atox.obj
 0001:00076d90       __wtoi64                   10077d90 f   libucrtd:atox.obj
 0001:00076db0       __wtoi64_l                 10077db0 f   libucrtd:atox.obj
 0001:00076dd0       __wtoi_l                   10077dd0 f   libucrtd:atox.obj
 0001:00076df0       __wtol                     10077df0 f   libucrtd:atox.obj
 0001:00076e10       __wtol_l                   10077e10 f   libucrtd:atox.obj
 0001:00076e30       __wtoll                    10077e30 f   libucrtd:atox.obj
 0001:00076e50       __wtoll_l                  10077e50 f   libucrtd:atox.obj
 0001:00076e70       _atoi                      10077e70 f   libucrtd:atox.obj
 0001:00076e90       _atol                      10077e90 f   libucrtd:atox.obj
 0001:00076eb0       _atoll                     10077eb0 f   libucrtd:atox.obj
 0001:00076ed0       _strncmp                   10077ed0 f   libucrtd:strncmp.obj
 0001:00076f50       _wcsncmp                   10077f50 f   libucrtd:wcsncmp.obj
 0001:00076fb0       __CrtGetDebugFillThreshold 10077fb0 f   libucrtd:debug_fill_threshold.obj
 0001:00076fc0       __CrtSetDebugFillThreshold 10077fc0 f   libucrtd:debug_fill_threshold.obj
 0001:00076fe0       ??$make_c_string_character_source@DPAPAD@__crt_strtox@@YA?AV?$c_string_character_source@D@0@QBDQAPAD@Z 10077fe0 f i libucrtd:strtox.obj
 0001:00077000       ??$make_c_string_character_source@_WPAPA_W@__crt_strtox@@YA?AV?$c_string_character_source@_W@0@QB_WQAPA_W@Z 10078000 f i libucrtd:strtox.obj
 0001:00077020       ??$parse_integer_from_string@JDPAPAD@__crt_strtox@@YAJQBDQAPADHQAU__crt_locale_pointers@@@Z 10078020 f i libucrtd:strtox.obj
 0001:00077060       ??$parse_integer_from_string@J_WPAPA_W@__crt_strtox@@YAJQB_WQAPA_WHQAU__crt_locale_pointers@@@Z 10078060 f i libucrtd:strtox.obj
 0001:000770a0       ??$parse_integer_from_string@KDPAPAD@__crt_strtox@@YAKQBDQAPADHQAU__crt_locale_pointers@@@Z 100780a0 f i libucrtd:strtox.obj
 0001:000770e0       ??$parse_integer_from_string@K_WPAPA_W@__crt_strtox@@YAKQB_WQAPA_WHQAU__crt_locale_pointers@@@Z 100780e0 f i libucrtd:strtox.obj
 0001:00077120       ??$parse_integer_from_string@_JDPAPAD@__crt_strtox@@YA_JQBDQAPADHQAU__crt_locale_pointers@@@Z 10078120 f i libucrtd:strtox.obj
 0001:00077160       ??$parse_integer_from_string@_J_WPAPA_W@__crt_strtox@@YA_JQB_WQAPA_WHQAU__crt_locale_pointers@@@Z 10078160 f i libucrtd:strtox.obj
 0001:000771a0       ??$parse_integer_from_string@_KDPAPAD@__crt_strtox@@YA_KQBDQAPADHQAU__crt_locale_pointers@@@Z 100781a0 f i libucrtd:strtox.obj
 0001:000771e0       ??$parse_integer_from_string@_K_WPAPA_W@__crt_strtox@@YA_KQB_WQAPA_WHQAU__crt_locale_pointers@@@Z 100781e0 f i libucrtd:strtox.obj
 0001:00077220       __strtoi64                 10078220 f   libucrtd:strtox.obj
 0001:00077240       __strtoi64_l               10078240 f   libucrtd:strtox.obj
 0001:00077260       __strtoimax_l              10078260 f   libucrtd:strtox.obj
 0001:00077280       __strtol_l                 10078280 f   libucrtd:strtox.obj
 0001:000772a0       __strtoll_l                100782a0 f   libucrtd:strtox.obj
 0001:000772c0       __strtoui64                100782c0 f   libucrtd:strtox.obj
 0001:000772e0       __strtoui64_l              100782e0 f   libucrtd:strtox.obj
 0001:00077300       __strtoul_l                10078300 f   libucrtd:strtox.obj
 0001:00077320       __strtoull_l               10078320 f   libucrtd:strtox.obj
 0001:00077340       __strtoumax_l              10078340 f   libucrtd:strtox.obj
 0001:00077360       __wcstoi64                 10078360 f   libucrtd:strtox.obj
 0001:00077380       __wcstoi64_l               10078380 f   libucrtd:strtox.obj
 0001:000773a0       __wcstoimax_l              100783a0 f   libucrtd:strtox.obj
 0001:000773c0       __wcstol_l                 100783c0 f   libucrtd:strtox.obj
 0001:000773e0       __wcstoll_l                100783e0 f   libucrtd:strtox.obj
 0001:00077400       __wcstoui64                10078400 f   libucrtd:strtox.obj
 0001:00077420       __wcstoui64_l              10078420 f   libucrtd:strtox.obj
 0001:00077440       __wcstoul_l                10078440 f   libucrtd:strtox.obj
 0001:00077460       __wcstoull_l               10078460 f   libucrtd:strtox.obj
 0001:00077480       __wcstoumax_l              10078480 f   libucrtd:strtox.obj
 0001:000774a0       _strtoimax                 100784a0 f   libucrtd:strtox.obj
 0001:000774c0       _strtol                    100784c0 f   libucrtd:strtox.obj
 0001:000774e0       _strtoll                   100784e0 f   libucrtd:strtox.obj
 0001:00077500       _strtoul                   10078500 f   libucrtd:strtox.obj
 0001:00077520       _strtoull                  10078520 f   libucrtd:strtox.obj
 0001:00077540       _strtoumax                 10078540 f   libucrtd:strtox.obj
 0001:00077560       _wcstoimax                 10078560 f   libucrtd:strtox.obj
 0001:00077580       _wcstol                    10078580 f   libucrtd:strtox.obj
 0001:000775a0       _wcstoll                   100785a0 f   libucrtd:strtox.obj
 0001:000775c0       _wcstoul                   100785c0 f   libucrtd:strtox.obj
 0001:000775e0       _wcstoull                  100785e0 f   libucrtd:strtox.obj
 0001:00077600       _wcstoumax                 10078600 f   libucrtd:strtox.obj
 0001:00077620       __mbtowc_l                 10078620 f   libucrtd:mbtowc.obj
 0001:00077940       _mbtowc                    10078940 f   libucrtd:mbtowc.obj
 0001:00077960       __wctomb_l                 10078960 f   libucrtd:wctomb.obj
 0001:000779e0       __wctomb_s_l               100789e0 f   libucrtd:wctomb.obj
 0001:00077da0       _wctomb                    10078da0 f   libucrtd:wctomb.obj
 0001:00077df0       _wctomb_s                  10078df0 f   libucrtd:wctomb.obj
 0001:00077e20       ??$?RU__acrt_ptd@@@__crt_internal_free_policy@@QBEXQBU__acrt_ptd@@@Z 10078e20 f i libucrtd:per_thread_data.obj
 0001:000782d0       ??0?$__crt_unique_heap_ptr@U__acrt_ptd@@U__crt_internal_free_policy@@@@QAE@QAU__acrt_ptd@@@Z 100792d0 f i libucrtd:per_thread_data.obj
 0001:000782f0       ??0__crt_scoped_get_last_error_reset@@QAE@XZ 100792f0 f i libucrtd:per_thread_data.obj
 0001:00078310       ??1?$__crt_unique_heap_ptr@U__acrt_ptd@@U__crt_internal_free_policy@@@@QAE@XZ 10079310 f i libucrtd:per_thread_data.obj
 0001:00078330       ??1__crt_scoped_get_last_error_reset@@QAE@XZ 10079330 f i libucrtd:per_thread_data.obj
 0001:00078350       ??B?$__crt_unique_heap_ptr@U__acrt_ptd@@U__crt_internal_free_policy@@@@QBE_NXZ 10079350 f i libucrtd:per_thread_data.obj
 0001:00078630       ?dangerous_get_state_array@?$dual_state_global@PAU__crt_locale_data@@@__crt_state_management@@QAEPAPAU__crt_locale_data@@XZ 10079630 f i libucrtd:per_thread_data.obj
 0001:000787b0       ?detach@?$__crt_unique_heap_ptr@U__acrt_ptd@@U__crt_internal_free_policy@@@@QAEPAU__acrt_ptd@@XZ 100797b0 f i libucrtd:per_thread_data.obj
 0001:000787e0       ?get@?$__crt_unique_heap_ptr@U__acrt_ptd@@U__crt_internal_free_policy@@@@QBEPAU__acrt_ptd@@XZ 100797e0 f i libucrtd:per_thread_data.obj
 0001:00078800       ?get_current_state_index@__crt_state_management@@YAIABV__crt_scoped_get_last_error_reset@@@Z 10079800 f i libucrtd:per_thread_data.obj
 0001:00078970       ?is_valid@?$__crt_unique_heap_ptr@U__acrt_ptd@@U__crt_internal_free_policy@@@@QBE_NXZ 10079970 f i libucrtd:per_thread_data.obj
 0001:000789a0       ?release@?$__crt_unique_heap_ptr@U__acrt_ptd@@U__crt_internal_free_policy@@@@QAEXXZ 100799a0 f i libucrtd:per_thread_data.obj
 0001:00078a90       ?value@?$dual_state_global@PAU__crt_locale_data@@@__crt_state_management@@QAEAAPAU__crt_locale_data@@XZ 10079a90 f i libucrtd:per_thread_data.obj
 0001:00078ab0       ___acrt_freeptd            10079ab0 f   libucrtd:per_thread_data.obj
 0001:00078ae0       ___acrt_getptd             10079ae0 f   libucrtd:per_thread_data.obj
 0001:00078b00       ___acrt_getptd_head        10079b00 f   libucrtd:per_thread_data.obj
 0001:00078b20       ___acrt_getptd_noexit      10079b20 f   libucrtd:per_thread_data.obj
 0001:00078b30       ___acrt_initialize_ptd     10079b30 f   libucrtd:per_thread_data.obj
 0001:00078b70       ___acrt_uninitialize_ptd   10079b70 f   libucrtd:per_thread_data.obj
 0001:00078ba0       ___threadhandle            10079ba0 f   libucrtd:per_thread_data.obj
 0001:00078bb0       ___threadid                10079bb0 f   libucrtd:per_thread_data.obj
 0001:00078bc0       ?value@?$dual_state_global@PAU__crt_multibyte_data@@@__crt_state_management@@QAEAAPAU__crt_multibyte_data@@XZ 10079bc0 f i libucrtd:locale_update.obj
 0001:00078be0       ___acrt_should_sync_with_global_locale 10079be0 f i libucrtd:locale_update.obj
 0001:00078c10       ___acrt_update_locale_info 10079c10 f   libucrtd:locale_update.obj
 0001:00078c50       ___acrt_update_multibyte_info 10079c50 f   libucrtd:locale_update.obj
 0001:00078c90       ?__acrt_fp_classify@@YA?AW4__acrt_fp_class@@ABN@Z 10079c90 f i libucrtd:cvt.obj
 0001:00078db0       ?__acrt_fp_is_negative@@YA_NABN@Z 10079db0 f i libucrtd:cvt.obj
 0001:0007a0a0       ?strrchr@@YAPADQADH@Z      1007b0a0 f i libucrtd:cvt.obj
 0001:0007a0c0       ___acrt_fp_format          1007b0c0 f   libucrtd:cvt.obj
 0001:0007a580       __fputwc_nolock            1007b580 f   libucrtd:fputwc.obj
 0001:0007a770       __fputwchar                1007b770 f   libucrtd:fputwc.obj
 0001:0007a790       __putwc_nolock             1007b790 f   libucrtd:fputwc.obj
 0001:0007a7b0       _fputwc                    1007b7b0 f   libucrtd:fputwc.obj
 0001:0007a8c0       _putwc                     1007b8c0 f   libucrtd:fputwc.obj
 0001:0007a8e0       _putwchar                  1007b8e0 f   libucrtd:fputwc.obj
 0001:0007a900       ?lowio_handle@__crt_stdio_stream@@QBEHXZ 1007b900 f i libucrtd:fileno.obj
 0001:0007a920       __fileno                   1007b920 f   libucrtd:fileno.obj
 0001:0007a9c0       ??$?RPAU__crt_stdio_stream_data@@@__crt_internal_free_policy@@QBEXQBQAU__crt_stdio_stream_data@@@Z 1007b9c0 f i libucrtd:_file.obj
 0001:0007a9e0       ??0?$__crt_unique_heap_ptr@PAU__crt_stdio_stream_data@@U__crt_internal_free_policy@@@@QAE@QAPAU__crt_stdio_stream_data@@@Z 1007b9e0 f i libucrtd:_file.obj
 0001:0007aa00       ??1?$__crt_unique_heap_ptr@PAU__crt_stdio_stream_data@@U__crt_internal_free_policy@@@@QAE@XZ 1007ba00 f i libucrtd:_file.obj
 0001:0007aa20       ?detach@?$__crt_unique_heap_ptr@PAU__crt_stdio_stream_data@@U__crt_internal_free_policy@@@@QAEPAPAU__crt_stdio_stream_data@@XZ 1007ba20 f i libucrtd:_file.obj
 0001:0007aa50       ?release@?$__crt_unique_heap_ptr@PAU__crt_stdio_stream_data@@U__crt_internal_free_policy@@@@QAEXXZ 1007ba50 f i libucrtd:_file.obj
 0001:0007aa80       ___acrt_initialize_stdio   1007ba80 f   libucrtd:_file.obj
 0001:0007abf0       ___acrt_iob_func           1007bbf0 f   libucrtd:_file.obj
 0001:0007ac00       ___acrt_uninitialize_stdio 1007bc00 f   libucrtd:_file.obj
 0001:0007ac80       __get_stream_buffer_pointers 1007bc80 f   libucrtd:_file.obj
 0001:0007ad60       __lock_file                1007bd60 f   libucrtd:_file.obj
 0001:0007ad90       __unlock_file              1007bd90 f   libucrtd:_file.obj
 0001:0007adc0       __get_printf_count_output  1007bdc0 f   libucrtd:printf_count_output.obj
 0001:0007adf0       __set_printf_count_output  1007bdf0 f   libucrtd:printf_count_output.obj
 0001:0007ae50       ?has_any_buffer@__crt_stdio_stream@@QBE_NXZ 1007be50 f i libucrtd:_sftbuf.obj
 0001:0007ae70       ?has_any_of@__crt_stdio_stream@@QBE_NJ@Z 1007be70 f i libucrtd:_sftbuf.obj
 0001:0007aeb0       ?has_temporary_buffer@__crt_stdio_stream@@QBE_NXZ 1007beb0 f i libucrtd:_sftbuf.obj
 0001:0007aed0       ?set_flags@__crt_stdio_stream@@QBE_NJ@Z 1007bed0 f i libucrtd:_sftbuf.obj
 0001:0007af20       ?unset_flags@__crt_stdio_stream@@QBE_NJ@Z 1007bf20 f i libucrtd:_sftbuf.obj
 0001:0007af70       ___acrt_should_use_temporary_buffer 1007bf70 f   libucrtd:_sftbuf.obj
 0001:0007afc0       ___acrt_stdio_begin_temporary_buffering_nolock 1007bfc0 f   libucrtd:_sftbuf.obj
 0001:0007b170       ___acrt_stdio_end_temporary_buffering_nolock 1007c170 f   libucrtd:_sftbuf.obj
 0001:0007b200       ??$?RU__crt_locale_data@@@__crt_internal_free_policy@@QBEXQBU__crt_locale_data@@@Z 1007c200 f i libucrtd:wsetlocale.obj
 0001:0007b220       ??$?RU__crt_locale_pointers@@@__crt_internal_free_policy@@QBEXQBU__crt_locale_pointers@@@Z 1007c220 f i libucrtd:wsetlocale.obj
 0001:0007b240       ??$?RU__crt_multibyte_data@@@__crt_internal_free_policy@@QBEXQBU__crt_multibyte_data@@@Z 1007c240 f i libucrtd:wsetlocale.obj
 0001:0007b830       ??0?$__crt_unique_heap_ptr@U__crt_locale_data@@U__crt_internal_free_policy@@@@QAE@QAU__crt_locale_data@@@Z 1007c830 f i libucrtd:wsetlocale.obj
 0001:0007b850       ??0?$__crt_unique_heap_ptr@U__crt_locale_pointers@@U__crt_internal_free_policy@@@@QAE@QAU__crt_locale_pointers@@@Z 1007c850 f i libucrtd:wsetlocale.obj
 0001:0007b870       ??0?$__crt_unique_heap_ptr@U__crt_multibyte_data@@U__crt_internal_free_policy@@@@QAE@QAU__crt_multibyte_data@@@Z 1007c870 f i libucrtd:wsetlocale.obj
 0001:0007b890       ??0_expandlocale_locale_name_cache@@QAE@QA_WIQAU__crt_qualified_locale_data@@@Z 1007c890 f i libucrtd:wsetlocale.obj
 0001:0007b900       ??1?$__crt_unique_heap_ptr@U__crt_locale_data@@U__crt_internal_free_policy@@@@QAE@XZ 1007c900 f i libucrtd:wsetlocale.obj
 0001:0007b920       ??1?$__crt_unique_heap_ptr@U__crt_locale_pointers@@U__crt_internal_free_policy@@@@QAE@XZ 1007c920 f i libucrtd:wsetlocale.obj
 0001:0007b940       ??1?$__crt_unique_heap_ptr@U__crt_multibyte_data@@U__crt_internal_free_policy@@@@QAE@XZ 1007c940 f i libucrtd:wsetlocale.obj
 0001:0007b960       ??1_expandlocale_locale_name_cache@@QAE@XZ 1007c960 f i libucrtd:wsetlocale.obj
 0001:0007b9c0       ??B?$__crt_unique_heap_ptr@U__crt_locale_data@@U__crt_internal_free_policy@@@@QBE_NXZ 1007c9c0 f i libucrtd:wsetlocale.obj
 0001:0007b9e0       ??B?$__crt_unique_heap_ptr@U__crt_locale_pointers@@U__crt_internal_free_policy@@@@QBE_NXZ 1007c9e0 f i libucrtd:wsetlocale.obj
 0001:0007ba00       ??B?$__crt_unique_heap_ptr@U__crt_multibyte_data@@U__crt_internal_free_policy@@@@QBE_NXZ 1007ca00 f i libucrtd:wsetlocale.obj
 0001:0007bde0       ?commit_locale_name@_expandlocale_locale_name_cache@@QAEXQB_WI@Z 1007cde0 f i libucrtd:wsetlocale.obj
 0001:0007be40       ?commit_locale_name_cache_already_updated@_expandlocale_locale_name_cache@@QAEXQB_WI@Z 1007ce40 f i libucrtd:wsetlocale.obj
 0001:0007bea0       ?detach@?$__crt_unique_heap_ptr@U__crt_locale_data@@U__crt_internal_free_policy@@@@QAEPAU__crt_locale_data@@XZ 1007cea0 f i libucrtd:wsetlocale.obj
 0001:0007bed0       ?detach@?$__crt_unique_heap_ptr@U__crt_locale_pointers@@U__crt_internal_free_policy@@@@QAEPAU__crt_locale_pointers@@XZ 1007ced0 f i libucrtd:wsetlocale.obj
 0001:0007bf00       ?detach@?$__crt_unique_heap_ptr@U__crt_multibyte_data@@U__crt_internal_free_policy@@@@QAEPAU__crt_multibyte_data@@XZ 1007cf00 f i libucrtd:wsetlocale.obj
 0001:0007bf30       ?get@?$__crt_unique_heap_ptr@U__crt_locale_data@@U__crt_internal_free_policy@@@@QBEPAU__crt_locale_data@@XZ 1007cf30 f i libucrtd:wsetlocale.obj
 0001:0007bf50       ?get@?$__crt_unique_heap_ptr@U__crt_locale_pointers@@U__crt_internal_free_policy@@@@QBEPAU__crt_locale_pointers@@XZ 1007cf50 f i libucrtd:wsetlocale.obj
 0001:0007bf70       ?get@?$__crt_unique_heap_ptr@U__crt_multibyte_data@@U__crt_internal_free_policy@@@@QBEPAU__crt_multibyte_data@@XZ 1007cf70 f i libucrtd:wsetlocale.obj
 0001:0007bf90       ?is_valid@?$__crt_unique_heap_ptr@U__crt_locale_data@@U__crt_internal_free_policy@@@@QBE_NXZ 1007cf90 f i libucrtd:wsetlocale.obj
 0001:0007bfc0       ?is_valid@?$__crt_unique_heap_ptr@U__crt_locale_pointers@@U__crt_internal_free_policy@@@@QBE_NXZ 1007cfc0 f i libucrtd:wsetlocale.obj
 0001:0007bff0       ?is_valid@?$__crt_unique_heap_ptr@U__crt_multibyte_data@@U__crt_internal_free_policy@@@@QBE_NXZ 1007cff0 f i libucrtd:wsetlocale.obj
 0001:0007c020       ?release@?$__crt_unique_heap_ptr@U__crt_locale_data@@U__crt_internal_free_policy@@@@QAEXXZ 1007d020 f i libucrtd:wsetlocale.obj
 0001:0007c050       ?release@?$__crt_unique_heap_ptr@U__crt_locale_pointers@@U__crt_internal_free_policy@@@@QAEXXZ 1007d050 f i libucrtd:wsetlocale.obj
 0001:0007c080       ?release@?$__crt_unique_heap_ptr@U__crt_multibyte_data@@U__crt_internal_free_policy@@@@QAEXXZ 1007d080 f i libucrtd:wsetlocale.obj
 0001:0007c0b0       ___acrt_copy_locale_name   1007d0b0 f   libucrtd:wsetlocale.obj
 0001:0007c150       ___acrt_set_locale_changed 1007d150 f   libucrtd:wsetlocale.obj
 0001:0007c170       ___acrt_uninitialize_locale 1007d170 f   libucrtd:wsetlocale.obj
 0001:0007c190       ___ascii_tolower           1007d190 f i libucrtd:wsetlocale.obj
 0001:0007c1b0       ___ascii_towlower          1007d1b0 f i libucrtd:wsetlocale.obj
 0001:0007c1d0       ___lc_lctowcs              1007d1d0 f   libucrtd:wsetlocale.obj
 0001:0007c280       ___lc_wcstolc              1007d280 f   libucrtd:wsetlocale.obj
 0001:0007c4b0       __configthreadlocale       1007d4b0 f   libucrtd:wsetlocale.obj
 0001:0007c630       __create_locale            1007d630 f   libucrtd:wsetlocale.obj
 0001:0007cc70       __free_locale              1007dc70 f   libucrtd:wsetlocale.obj
 0001:0007cda0       __get_current_locale       1007dda0 f   libucrtd:wsetlocale.obj
 0001:0007ce70       __wcreate_locale           1007de70 f   libucrtd:wsetlocale.obj
 0001:0007d0b0       __wcscats                  1007e0b0 f   libucrtd:wsetlocale.obj
 0001:0007d130       __wsetlocale               1007e130 f   libucrtd:wsetlocale.obj
 0001:0007e820       ___p___mb_cur_max          1007f820 f   libucrtd:nlsdata.obj
 0001:0007eb20       ___acrt_initialize_lowio   1007fb20 f   libucrtd:ioinit.obj
 0001:0007ebc0       ___acrt_uninitialize_lowio 1007fbc0 f   libucrtd:ioinit.obj
 0001:0007ec20       __CrtGetReportHook         1007fc20 f   libucrtd:dbgrptt.obj
 0001:0007ec30       __CrtSetReportFile         1007fc30 f   libucrtd:dbgrptt.obj
 0001:0007ed30       __CrtSetReportHook         1007fd30 f   libucrtd:dbgrptt.obj
 0001:0007ed50       __CrtSetReportMode         1007fd50 f   libucrtd:dbgrptt.obj
 0001:0007ee90       __VCrtDbgReportA           1007fe90 f   libucrtd:dbgrptt.obj
 0001:0007f710       __VCrtDbgReportW           10080710 f   libucrtd:dbgrptt.obj
 0001:000800c0       __snprintf_s               100810c0 f i libucrtd:dbgrptt.obj
 0001:00080100       __vsnprintf_s              10081100 f i libucrtd:dbgrptt.obj
 0001:00080130       __vsnprintf_s_l            10081130 f i libucrtd:dbgrptt.obj
 0001:000802c0       ??$__acrt_wcs_to_mbs_cp@U__crt_win32_buffer_no_resizing@@@@YAHQB_WAAV?$__crt_win32_buffer@DU__crt_win32_buffer_no_resizing@@@@I@Z 100812c0 f i libucrtd:getmodulefilenamea.obj
 0001:000802f0       ??0?$__crt_win32_buffer@DU__crt_win32_buffer_no_resizing@@@@QAE@QADI@Z 100812f0 f i libucrtd:getmodulefilenamea.obj
 0001:00080340       ??1?$__crt_win32_buffer@DU__crt_win32_buffer_no_resizing@@@@QAE@XZ 10081340 f i libucrtd:getmodulefilenamea.obj
 0001:000803b0       ?__acrt_get_utf8_acp_compatibility_codepage@@YAIXZ 100813b0 f i libucrtd:getmodulefilenamea.obj
 0001:00080440       ?_deallocate@?$__crt_win32_buffer@DU__crt_win32_buffer_no_resizing@@@@AAEXXZ 10081440 f i libucrtd:getmodulefilenamea.obj
 0001:00080480       ?allocate@?$__crt_win32_buffer@DU__crt_win32_buffer_no_resizing@@@@QAEHI@Z 10081480 f i libucrtd:getmodulefilenamea.obj
 0001:000804f0       ?allocate@__crt_win32_buffer_no_resizing@@SAHQAPAXIABV__crt_win32_buffer_empty_debug_info@@@Z 100814f0 f i libucrtd:getmodulefilenamea.obj
 0001:00080510       ?capacity@?$__crt_win32_buffer@DU__crt_win32_buffer_no_resizing@@@@QBEIXZ 10081510 f i libucrtd:getmodulefilenamea.obj
 0001:00080530       ?data@?$__crt_win32_buffer@DU__crt_win32_buffer_no_resizing@@@@QAEPADXZ 10081530 f i libucrtd:getmodulefilenamea.obj
 0001:00080550       ?deallocate@__crt_win32_buffer_no_resizing@@SAXQAXABV__crt_win32_buffer_empty_debug_info@@@Z 10081550 f i libucrtd:getmodulefilenamea.obj
 0001:00080560       ?debug_info@?$__crt_win32_buffer@DU__crt_win32_buffer_no_resizing@@@@QBEABV__crt_win32_buffer_empty_debug_info@@XZ 10081560 f i libucrtd:getmodulefilenamea.obj
 0001:00080570       ?set_to_nullptr@?$__crt_win32_buffer@DU__crt_win32_buffer_no_resizing@@@@QAEXXZ 10081570 f i libucrtd:getmodulefilenamea.obj
 0001:000805b0       ?size@?$__crt_win32_buffer@DU__crt_win32_buffer_no_resizing@@@@QAEXI@Z 100815b0 f i libucrtd:getmodulefilenamea.obj
 0001:000805d0       ?size@?$__crt_win32_buffer@DU__crt_win32_buffer_no_resizing@@@@QBEIXZ 100815d0 f i libucrtd:getmodulefilenamea.obj
 0001:000805f0       ___acrt_GetModuleFileNameA 100815f0 f   libucrtd:getmodulefilenamea.obj
 0001:000808d0       ??$message_box@$$TABQBDABQBDK@?$__crt_char_traits@D@@SAH$$QA$$TABQBD1$$QAK@Z 100818d0 f i libucrtd:crtmbox.obj
 0001:00080900       ??$message_box@$$TABQB_WABQB_WK@?$__crt_char_traits@_W@@SAH$$QA$$TABQB_W1$$QAK@Z 10081900 f i libucrtd:crtmbox.obj
 0001:00080930       ??$message_box@PAUHWND__@@ABQBDABQBDABI@?$__crt_char_traits@D@@SAH$$QAPAUHWND__@@ABQBD1ABI@Z 10081930 f i libucrtd:crtmbox.obj
 0001:00080960       ??$message_box@PAUHWND__@@ABQB_WABQB_WABI@?$__crt_char_traits@_W@@SAH$$QAPAUHWND__@@ABQB_W1ABI@Z 10081960 f i libucrtd:crtmbox.obj
 0001:00080990       ??$output_debug_string@ABQBD@?$__crt_char_traits@D@@SAXABQBD@Z 10081990 f i libucrtd:crtmbox.obj
 0001:000809b0       ??$output_debug_string@ABQB_W@?$__crt_char_traits@_W@@SAXABQB_W@Z 100819b0 f i libucrtd:crtmbox.obj
 0001:000809d0       ___acrt_show_narrow_message_box 100819d0 f   libucrtd:crtmbox.obj
 0001:000809f0       ___acrt_show_wide_message_box 100819f0 f   libucrtd:crtmbox.obj
 0001:00080a10       ___acrt_initialize_locks   10081a10 f   libucrtd:locks.obj
 0001:00080a70       ___acrt_lock               10081a70 f   libucrtd:locks.obj
 0001:00080a90       ___acrt_uninitialize_locks 10081a90 f   libucrtd:locks.obj
 0001:00080ae0       ___acrt_unlock             10081ae0 f   libucrtd:locks.obj
 0001:00080b00       __lock_locales             10081b00 f   libucrtd:locks.obj
 0001:00080b20       __unlock_locales           10081b20 f   libucrtd:locks.obj
 0001:00080b40       ??$?B$$A6AXH@Z@__crt_fast_encoded_nullptr_t@@QBEP6AXH@ZXZ 10081b40 f i libucrtd:signal.obj
 0001:00080c30       ??$__crt_fast_decode_pointer@P6AXH@Z@@YAP6AXH@ZQ6AXH@Z@Z 10081c30 f i libucrtd:signal.obj
 0001:00080c60       ??$__crt_fast_encode_pointer@P6AXH@Z@@YAP6AXH@ZQ6AXH@Z@Z 10081c60 f i libucrtd:signal.obj
 0001:00080f10       ?initialize@?$dual_state_global@P6AXH@Z@__crt_state_management@@QAEXQ6AXH@Z@Z 10081f10 f i libucrtd:signal.obj
 0001:00081050       ?value@?$dual_state_global@P6AXH@Z@__crt_state_management@@QAEAAP6AXH@ZXZ 10082050 f i libucrtd:signal.obj
 0001:00081070       ___acrt_get_sigabrt_handler 10082070 f   libucrtd:signal.obj
 0001:00081090       ___acrt_initialize_signal_handlers 10082090 f   libucrtd:signal.obj
 0001:000810d0       ___fpecode                 100820d0 f   libucrtd:signal.obj
 0001:000810e0       ___pxcptinfoptrs           100820e0 f   libucrtd:signal.obj
 0001:000810f0       _raise                     100820f0 f   libucrtd:signal.obj
 0001:000814c0       _signal                    100824c0 f   libucrtd:signal.obj
 0001:00081740       __msize                    10082740 f   libucrtd:msize.obj
 0001:00081760       __msize_base               10082760 f   libucrtd:msize.obj
 0001:00081800       __realloc_base             10082800 f   libucrtd:realloc_base.obj
 0001:000818c0       ??$?B$$A6GHPA_WKJ@Z@__crt_fast_encoded_nullptr_t@@QBEP6GHPA_WKJ@ZXZ 100828c0 f i libucrtd:winapi_thunks.obj
 0001:000819b0       ??$__crt_fast_decode_pointer@P6GHPA_WKJ@Z@@YAP6GHPA_WKJ@ZQ6GH0KJ@Z@Z 100829b0 f i libucrtd:winapi_thunks.obj
 0001:000819e0       ??$__crt_fast_decode_pointer@PAX@@YAPAXQAX@Z 100829e0 f i libucrtd:winapi_thunks.obj
 0001:00081a10       ??$__crt_fast_encode_pointer@P6GHPA_WKJ@Z@@YAP6GHPA_WKJ@ZQ6GH0KJ@Z@Z 10082a10 f i libucrtd:winapi_thunks.obj
 0001:00082370       _GetCurrentThreadEffectiveToken 10083370 f i libucrtd:winapi_thunks.obj
 0001:00082380       ___acrt_AppPolicyGetProcessTerminationMethodInternal@4 10083380 f   libucrtd:winapi_thunks.obj
 0001:000823c0       ___acrt_AppPolicyGetShowDeveloperDiagnosticInternal@4 100833c0 f   libucrtd:winapi_thunks.obj
 0001:00082400       ___acrt_AppPolicyGetThreadInitializationTypeInternal@4 10083400 f   libucrtd:winapi_thunks.obj
 0001:00082440       ___acrt_AppPolicyGetWindowingModelInternal@4 10083440 f   libucrtd:winapi_thunks.obj
 0001:00082480       ___acrt_AreFileApisANSI@0  10083480 f   libucrtd:winapi_thunks.obj
 0001:000824c0       ___acrt_CompareStringEx@36 100834c0 f   libucrtd:winapi_thunks.obj
 0001:00082540       ___acrt_EnumSystemLocalesEx@16 10083540 f   libucrtd:winapi_thunks.obj
 0001:000825a0       ___acrt_FlsAlloc@4         100835a0 f   libucrtd:winapi_thunks.obj
 0001:000825e0       ___acrt_FlsFree@4          100835e0 f   libucrtd:winapi_thunks.obj
 0001:00082620       ___acrt_FlsGetValue@4      10083620 f   libucrtd:winapi_thunks.obj
 0001:00082660       ___acrt_FlsSetValue@8      10083660 f   libucrtd:winapi_thunks.obj
 0001:000826b0       ___acrt_GetDateFormatEx@28 100836b0 f   libucrtd:winapi_thunks.obj
 0001:00082730       ___acrt_GetEnabledXStateFeatures@0 10083730 f   libucrtd:winapi_thunks.obj
 0001:00082770       ___acrt_GetLocaleInfoEx@16 10083770 f   libucrtd:winapi_thunks.obj
 0001:000827d0       ___acrt_GetSystemTimePreciseAsFileTime@4 100837d0 f   libucrtd:winapi_thunks.obj
 0001:00082810       ___acrt_GetTimeFormatEx@24 10083810 f   libucrtd:winapi_thunks.obj
 0001:00082880       ___acrt_GetUserDefaultLocaleName@8 10083880 f   libucrtd:winapi_thunks.obj
 0001:000828d0       ___acrt_GetXStateFeaturesMask@8 100838d0 f   libucrtd:winapi_thunks.obj
 0001:00082910       ___acrt_InitializeCriticalSectionEx@12 10083910 f   libucrtd:winapi_thunks.obj
 0001:00082960       ___acrt_IsValidLocaleName@4 10083960 f   libucrtd:winapi_thunks.obj
 0001:000829b0       ___acrt_LCIDToLocaleName@16 100839b0 f   libucrtd:winapi_thunks.obj
 0001:00082a10       ___acrt_LCMapStringEx@36   10083a10 f   libucrtd:winapi_thunks.obj
 0001:00082a90       ___acrt_LocaleNameToLCID@8 10083a90 f   libucrtd:winapi_thunks.obj
 0001:00082ae0       ___acrt_LocateXStateFeature@12 10083ae0 f   libucrtd:winapi_thunks.obj
 0001:00082b30       ___acrt_MessageBoxA@16     10083b30 f   libucrtd:winapi_thunks.obj
 0001:00082b80       ___acrt_MessageBoxW@16     10083b80 f   libucrtd:winapi_thunks.obj
 0001:00082bd0       ___acrt_RoInitialize@4     10083bd0 f   libucrtd:winapi_thunks.obj
 0001:00082c10       ___acrt_RoUninitialize@0   10083c10 f   libucrtd:winapi_thunks.obj
 0001:00082c40       ___acrt_RtlGenRandom@8     10083c40 f   libucrtd:winapi_thunks.obj
 0001:00082c80       ___acrt_SetThreadStackGuarantee@4 10083c80 f   libucrtd:winapi_thunks.obj
 0001:00082cc0       ___acrt_can_show_message_box 10083cc0 f   libucrtd:winapi_thunks.obj
 0001:00082d00       ___acrt_can_use_vista_locale_apis 10083d00 f   libucrtd:winapi_thunks.obj
 0001:00082d30       ___acrt_can_use_xstate_apis 10083d30 f   libucrtd:winapi_thunks.obj
 0001:00082d60       ___acrt_eagerly_load_locale_apis 10083d60 f   libucrtd:winapi_thunks.obj
 0001:00082da0       ___acrt_get_parent_window  10083da0 f   libucrtd:winapi_thunks.obj
 0001:00082e10       ___acrt_initialize_winapi_thunks 10083e10 f   libucrtd:winapi_thunks.obj
 0001:00082e80       ___acrt_is_interactive     10083e80 f   libucrtd:winapi_thunks.obj
 0001:00082f30       ___acrt_uninitialize_winapi_thunks 10083f30 f   libucrtd:winapi_thunks.obj
 0001:00082fa0       __chvalidator              10083fa0 f   libucrtd:isctype.obj
 0001:00082ff0       __chvalidator_l            10083ff0 f   libucrtd:isctype.obj
 0001:00083070       __isctype                  10084070 f   libucrtd:isctype.obj
 0001:000830b0       __isctype_l                100840b0 f   libucrtd:isctype.obj
 0001:00083230       __isleadbyte_fast_internal 10084230 f i libucrtd:isctype.obj
 0001:00083250       ??$?RU__crt_stdio_stream_data@@@__crt_internal_free_policy@@QBEXQBU__crt_stdio_stream_data@@@Z 10084250 f i libucrtd:stream.obj
 0001:00083270       ??0?$__crt_unique_heap_ptr@U__crt_stdio_stream_data@@U__crt_internal_free_policy@@@@QAE@QAU__crt_stdio_stream_data@@@Z 10084270 f i libucrtd:stream.obj
 0001:00083290       ??0__crt_stdio_stream@@QAE@QAU__crt_stdio_stream_data@@@Z 10084290 f i libucrtd:stream.obj
 0001:000832b0       ??0__crt_stdio_stream@@QAE@XZ 100842b0 f i libucrtd:stream.obj
 0001:000832d0       ??1?$__crt_unique_heap_ptr@U__crt_stdio_stream_data@@U__crt_internal_free_policy@@@@QAE@XZ 100842d0 f i libucrtd:stream.obj
 0001:000832f0       ?__acrt_stdio_allocate_stream@@YA?AV__crt_stdio_stream@@XZ 100842f0 f   libucrtd:stream.obj
 0001:000833e0       ?__acrt_stdio_free_stream@@YAXV__crt_stdio_stream@@@Z 100843e0 f   libucrtd:stream.obj
 0001:00083460       ?deallocate@__crt_stdio_stream@@QAEXXZ 10084460 f i libucrtd:stream.obj
 0001:00083480       ?detach@?$__crt_unique_heap_ptr@U__crt_stdio_stream_data@@U__crt_internal_free_policy@@@@QAEPAU__crt_stdio_stream_data@@XZ 10084480 f i libucrtd:stream.obj
 0001:000835f0       ?lock@__crt_stdio_stream@@QBEXXZ 100845f0 f i libucrtd:stream.obj
 0001:00083610       ?release@?$__crt_unique_heap_ptr@U__crt_stdio_stream_data@@U__crt_internal_free_policy@@@@QAEXXZ 10084610 f i libucrtd:stream.obj
 0001:00083640       ?try_allocate@__crt_stdio_stream@@QAE_NXZ 10084640 f i libucrtd:stream.obj
 0001:00083690       ??$__acrt_stdio_parse_mode@D@@YA?AU__acrt_stdio_stream_mode@@QBD@Z 10084690 f i libucrtd:openfile.obj
 0001:00083f00       ??$__acrt_stdio_parse_mode@_W@@YA?AU__acrt_stdio_stream_mode@@QB_W@Z 10084f00 f i libucrtd:openfile.obj
 0001:00084a90       ??$tcsncmp@AAPBDAAY02$$CBDI@?$__crt_char_traits@D@@SAHAAPBDAAY02$$CBD$$QAI@Z 10085a90 f i libucrtd:openfile.obj
 0001:00084ab0       ??$tcsncmp@AAPB_WAAY02$$CB_WI@?$__crt_char_traits@_W@@SAHAAPB_WAAY02$$CB_W$$QAI@Z 10085ab0 f i libucrtd:openfile.obj
 0001:00084ad0       ??$tcsnicmp@AAPBDAAY04$$CBDI@?$__crt_char_traits@D@@SAHAAPBDAAY04$$CBD$$QAI@Z 10085ad0 f i libucrtd:openfile.obj
 0001:00084af0       ??$tcsnicmp@AAPBDAAY06$$CBDI@?$__crt_char_traits@D@@SAHAAPBDAAY06$$CBD$$QAI@Z 10085af0 f i libucrtd:openfile.obj
 0001:00084b10       ??$tcsnicmp@AAPBDAAY07$$CBDI@?$__crt_char_traits@D@@SAHAAPBDAAY07$$CBD$$QAI@Z 10085b10 f i libucrtd:openfile.obj
 0001:00084b30       ??$tcsnicmp@AAPB_WAAY04$$CB_WI@?$__crt_char_traits@_W@@SAHAAPB_WAAY04$$CB_W$$QAI@Z 10085b30 f i libucrtd:openfile.obj
 0001:00084b50       ??$tcsnicmp@AAPB_WAAY06$$CB_WI@?$__crt_char_traits@_W@@SAHAAPB_WAAY06$$CB_W$$QAI@Z 10085b50 f i libucrtd:openfile.obj
 0001:00084b70       ??$tcsnicmp@AAPB_WAAY07$$CB_WI@?$__crt_char_traits@_W@@SAHAAPB_WAAY07$$CB_W$$QAI@Z 10085b70 f i libucrtd:openfile.obj
 0001:00084b90       ??$tsopen_s@PAHABQBDABHABHH@?$__crt_char_traits@D@@SAH$$QAPAHABQBDABH2$$QAH@Z 10085b90 f i libucrtd:openfile.obj
 0001:00084bc0       ??$tsopen_s@PAHABQB_WABHABHH@?$__crt_char_traits@_W@@SAH$$QAPAHABQB_WABH2$$QAH@Z 10085bc0 f i libucrtd:openfile.obj
 0001:00084bf0       ?__acrt_stdio_parse_mode_D@@YA_NAAU__acrt_stdio_stream_mode@@@Z 10085bf0 f i libucrtd:openfile.obj
 0001:00084c20       ?__acrt_stdio_parse_mode_N@@YA_NAAU__acrt_stdio_stream_mode@@@Z 10085c20 f i libucrtd:openfile.obj
 0001:00084c40       ?__acrt_stdio_parse_mode_R@@YA_NAAU__acrt_stdio_stream_mode@@AA_N@Z 10085c40 f i libucrtd:openfile.obj
 0001:00084c70       ?__acrt_stdio_parse_mode_S@@YA_NAAU__acrt_stdio_stream_mode@@AA_N@Z 10085c70 f i libucrtd:openfile.obj
 0001:00084ca0       ?__acrt_stdio_parse_mode_T@@YA_NAAU__acrt_stdio_stream_mode@@@Z 10085ca0 f i libucrtd:openfile.obj
 0001:00084cd0       ?__acrt_stdio_parse_mode_b@@YA_NAAU__acrt_stdio_stream_mode@@@Z 10085cd0 f i libucrtd:openfile.obj
 0001:00084d00       ?__acrt_stdio_parse_mode_c@@YA_NAAU__acrt_stdio_stream_mode@@AA_N@Z 10085d00 f i libucrtd:openfile.obj
 0001:00084d30       ?__acrt_stdio_parse_mode_n@@YA_NAAU__acrt_stdio_stream_mode@@AA_N@Z 10085d30 f i libucrtd:openfile.obj
 0001:00084d60       ?__acrt_stdio_parse_mode_plus@@YA_NAAU__acrt_stdio_stream_mode@@AA_N@Z 10085d60 f i libucrtd:openfile.obj
 0001:00084dd0       ?__acrt_stdio_parse_mode_t@@YA_NAAU__acrt_stdio_stream_mode@@@Z 10085dd0 f i libucrtd:openfile.obj
 0001:00084e00       ?__acrt_stdio_parse_mode_x@@YA_NAAU__acrt_stdio_stream_mode@@@Z 10085e00 f i libucrtd:openfile.obj
 0001:00084e30       __openfile                 10085e30 f   libucrtd:openfile.obj
 0001:00084e60       __wopenfile                10085e60 f   libucrtd:openfile.obj
 0001:00085140       __close                    10086140 f   libucrtd:close.obj
 0001:000852c0       __close_nolock             100862c0 f   libucrtd:close.obj
 0001:00085320       ?has_crt_buffer@__crt_stdio_stream@@QBE_NXZ 10086320 f i libucrtd:_freebuf.obj
 0001:00085340       ___acrt_stdio_free_buffer_nolock 10086340 f   libucrtd:_freebuf.obj
 0001:000859a0       ?__acrt_stdio_reset_buffer@@YAXV__crt_stdio_stream@@@Z 100869a0 f i libucrtd:fflush.obj
 0001:00085aa0       ?has_all_of@__crt_stdio_stream@@QBE_NJ@Z 10086aa0 f i libucrtd:fflush.obj
 0001:00085b70       ___acrt_stdio_flush_nolock 10086b70 f   libucrtd:fflush.obj
 0001:00085c40       __fflush_nolock            10086c40 f   libucrtd:fflush.obj
 0001:00085cc0       __flushall                 10086cc0 f   libucrtd:fflush.obj
 0001:00085ce0       _fflush                    10086ce0 f   libucrtd:fflush.obj
 0001:00086430       ?has_big_buffer@__crt_stdio_stream@@QBE_NXZ 10087430 f i libucrtd:_flsbuf.obj
 0001:00086530       ___acrt_stdio_flush_and_write_narrow_nolock 10087530 f   libucrtd:_flsbuf.obj
 0001:00086560       ___acrt_stdio_flush_and_write_wide_nolock 10087560 f   libucrtd:_flsbuf.obj
 0001:00086890       ___acrt_get_begin_thread_init_policy 10087890 f   libucrtd:win_policies.obj
 0001:000868b0       ___acrt_get_developer_information_policy 100878b0 f   libucrtd:win_policies.obj
 0001:000868d0       ___acrt_get_process_end_policy 100878d0 f   libucrtd:win_policies.obj
 0001:000868f0       ___acrt_get_windowing_model_policy 100878f0 f   libucrtd:win_policies.obj
 0001:00086bc0       ??$__acrt_mbs_to_wcs_cp@U__crt_win32_buffer_internal_dynamic_resizing@@@@YAHQBDAAV?$__crt_win32_buffer@_WU__crt_win32_buffer_internal_dynamic_resizing@@@@I@Z 10087bc0 f i libucrtd:argv_wildcards.obj
 0001:00086bf0       ??$__acrt_wcs_to_mbs_cp@U__crt_win32_buffer_internal_dynamic_resizing@@@@YAHQB_WAAV?$__crt_win32_buffer@DU__crt_win32_buffer_internal_dynamic_resizing@@@@I@Z 10087bf0 f i libucrtd:argv_wildcards.obj
 0001:00087b40       ??$tcsncpy_s@AAPADIAAPADABI@?$__crt_char_traits@D@@SAHAAPAD$$QAI0ABI@Z 10088b40 f i libucrtd:argv_wildcards.obj
 0001:00087b70       ??$tcsncpy_s@AAPA_WIAAPA_WABI@?$__crt_char_traits@_W@@SAHAAPA_W$$QAI0ABI@Z 10088b70 f i libucrtd:argv_wildcards.obj
 0001:00087ba0       ??$tcsncpy_s@PADABIABQBDABI@?$__crt_char_traits@D@@SAH$$QAPADABIABQBD1@Z 10088ba0 f i libucrtd:argv_wildcards.obj
 0001:00087bd0       ??$tcsncpy_s@PADIABQBDABI@?$__crt_char_traits@D@@SAH$$QAPAD$$QAIABQBDABI@Z 10088bd0 f i libucrtd:argv_wildcards.obj
 0001:00087c00       ??$tcsncpy_s@PA_WABIABQB_WABI@?$__crt_char_traits@_W@@SAH$$QAPA_WABIABQB_W1@Z 10088c00 f i libucrtd:argv_wildcards.obj
 0001:00087c30       ??$tcsncpy_s@PA_WIABQB_WABI@?$__crt_char_traits@_W@@SAH$$QAPA_W$$QAIABQB_WABI@Z 10088c30 f i libucrtd:argv_wildcards.obj
 0001:00087c60       ??$tcspbrk@AAPADAAY02$$CBD@?$__crt_char_traits@D@@SAPADAAPADAAY02$$CBD@Z 10088c60 f i libucrtd:argv_wildcards.obj
 0001:00087c80       ??$tcspbrk@AAPA_WAAY02$$CB_W@?$__crt_char_traits@_W@@SAPA_WAAPA_WAAY02$$CB_W@Z 10088c80 f i libucrtd:argv_wildcards.obj
 0001:00087ca0       ??0?$__crt_unique_handle_t@U__crt_findfile_traits@@@@QAE@QAX@Z 10088ca0 f i libucrtd:argv_wildcards.obj
 0001:00087cc0       ??0?$__crt_win32_buffer@DU__crt_win32_buffer_internal_dynamic_resizing@@@@QAE@XZ 10088cc0 f i libucrtd:argv_wildcards.obj
 0001:00087d10       ??0?$__crt_win32_buffer@_WU__crt_win32_buffer_internal_dynamic_resizing@@@@QAE@XZ 10088d10 f i libucrtd:argv_wildcards.obj
 0001:00087dc0       ??1?$__crt_unique_handle_t@U__crt_findfile_traits@@@@QAE@XZ 10088dc0 f i libucrtd:argv_wildcards.obj
 0001:00087de0       ??1?$__crt_win32_buffer@DU__crt_win32_buffer_internal_dynamic_resizing@@@@QAE@XZ 10088de0 f i libucrtd:argv_wildcards.obj
 0001:00087e20       ??1?$__crt_win32_buffer@_WU__crt_win32_buffer_internal_dynamic_resizing@@@@QAE@XZ 10088e20 f i libucrtd:argv_wildcards.obj
 0001:00088080       ?_deallocate@?$__crt_win32_buffer@DU__crt_win32_buffer_internal_dynamic_resizing@@@@AAEXXZ 10089080 f i libucrtd:argv_wildcards.obj
 0001:000880c0       ?_deallocate@?$__crt_win32_buffer@_WU__crt_win32_buffer_internal_dynamic_resizing@@@@AAEXXZ 100890c0 f i libucrtd:argv_wildcards.obj
 0001:00088100       ?allocate@?$__crt_win32_buffer@DU__crt_win32_buffer_internal_dynamic_resizing@@@@QAEHI@Z 10089100 f i libucrtd:argv_wildcards.obj
 0001:00088170       ?allocate@?$__crt_win32_buffer@_WU__crt_win32_buffer_internal_dynamic_resizing@@@@QAEHI@Z 10089170 f i libucrtd:argv_wildcards.obj
 0001:000881e0       ?allocate@__crt_win32_buffer_internal_dynamic_resizing@@SAHQAPAXIABV__crt_win32_buffer_empty_debug_info@@@Z 100891e0 f i libucrtd:argv_wildcards.obj
 0001:00088320       ?capacity@?$__crt_win32_buffer@DU__crt_win32_buffer_internal_dynamic_resizing@@@@QBEIXZ 10089320 f i libucrtd:argv_wildcards.obj
 0001:00088340       ?capacity@?$__crt_win32_buffer@_WU__crt_win32_buffer_internal_dynamic_resizing@@@@QBEIXZ 10089340 f i libucrtd:argv_wildcards.obj
 0001:00088360       ?close@?$__crt_unique_handle_t@U__crt_findfile_traits@@@@QAEXXZ 10089360 f i libucrtd:argv_wildcards.obj
 0001:000883a0       ?close@__crt_findfile_traits@@SA_NPAX@Z 100893a0 f i libucrtd:argv_wildcards.obj
 0001:000883d0       ?data@?$__crt_win32_buffer@DU__crt_win32_buffer_internal_dynamic_resizing@@@@QAEPADXZ 100893d0 f i libucrtd:argv_wildcards.obj
 0001:000883f0       ?data@?$__crt_win32_buffer@_WU__crt_win32_buffer_internal_dynamic_resizing@@@@QAEPA_WXZ 100893f0 f i libucrtd:argv_wildcards.obj
 0001:00088410       ?deallocate@__crt_win32_buffer_internal_dynamic_resizing@@SAXQAXABV__crt_win32_buffer_empty_debug_info@@@Z 10089410 f i libucrtd:argv_wildcards.obj
 0001:00088430       ?debug_info@?$__crt_win32_buffer@DU__crt_win32_buffer_internal_dynamic_resizing@@@@QBEABV__crt_win32_buffer_empty_debug_info@@XZ 10089430 f i libucrtd:argv_wildcards.obj
 0001:00088440       ?debug_info@?$__crt_win32_buffer@_WU__crt_win32_buffer_internal_dynamic_resizing@@@@QBEABV__crt_win32_buffer_empty_debug_info@@XZ 10089440 f i libucrtd:argv_wildcards.obj
 0001:00088750       ?get@?$__crt_unique_handle_t@U__crt_findfile_traits@@@@QBEPAXXZ 10089750 f i libucrtd:argv_wildcards.obj
 0001:000887c0       ?get_invalid_value@__crt_findfile_traits@@SAPAXXZ 100897c0 f i libucrtd:argv_wildcards.obj
 0001:00088850       ?set_to_nullptr@?$__crt_win32_buffer@DU__crt_win32_buffer_internal_dynamic_resizing@@@@QAEXXZ 10089850 f i libucrtd:argv_wildcards.obj
 0001:00088890       ?set_to_nullptr@?$__crt_win32_buffer@_WU__crt_win32_buffer_internal_dynamic_resizing@@@@QAEXXZ 10089890 f i libucrtd:argv_wildcards.obj
 0001:000888d0       ?size@?$__crt_win32_buffer@DU__crt_win32_buffer_internal_dynamic_resizing@@@@QAEXI@Z 100898d0 f i libucrtd:argv_wildcards.obj
 0001:000888f0       ?size@?$__crt_win32_buffer@_WU__crt_win32_buffer_internal_dynamic_resizing@@@@QAEXI@Z 100898f0 f i libucrtd:argv_wildcards.obj
 0001:00088950       ?strpbrk@@YAPADQADQBD@Z    10089950 f i libucrtd:argv_wildcards.obj
 0001:00088970       ?wcspbrk@@YAPA_WPA_WPB_W@Z 10089970 f i libucrtd:argv_wildcards.obj
 0001:00088990       ___acrt_expand_narrow_argv_wildcards 10089990 f   libucrtd:argv_wildcards.obj
 0001:000889b0       ___acrt_expand_wide_argv_wildcards 100899b0 f   libucrtd:argv_wildcards.obj
 0001:00088a90       ??$initialize_from_array@$$BY10BAA@E@?$dual_state_global@PAE@__crt_state_management@@QAAXAAY10BAA@E@Z 10089a90 f i libucrtd:mbctype.obj
 0001:00088ae0       ??$initialize_from_array@$$BY10BAB@E@?$dual_state_global@PAE@__crt_state_management@@QAAXAAY10BAB@E@Z 10089ae0 f i libucrtd:mbctype.obj
 0001:00088d50       ?dangerous_get_state_array@?$dual_state_global@PAE@__crt_state_management@@QAEPAPAEXZ 10089d50 f i libucrtd:mbctype.obj
 0001:00088d60       ?dangerous_get_state_array@?$dual_state_global@PAU__crt_multibyte_data@@@__crt_state_management@@QAEPAPAU__crt_multibyte_data@@XZ 10089d60 f i libucrtd:mbctype.obj
 0001:00088e30       ?initialize@?$dual_state_global@PAU__crt_multibyte_data@@@__crt_state_management@@QAEXQAU__crt_multibyte_data@@@Z 10089e30 f i libucrtd:mbctype.obj
 0001:00089580       ?value@?$dual_state_global@PAE@__crt_state_management@@QAEAAPAEXZ 1008a580 f i libucrtd:mbctype.obj
 0001:000895a0       ___acrt_initialize_multibyte 1008a5a0 f   libucrtd:mbctype.obj
 0001:00089650       ___acrt_update_thread_multibyte_data 1008a650 f   libucrtd:mbctype.obj
 0001:00089670       ___p__mbcasemap            1008a670 f   libucrtd:mbctype.obj
 0001:00089690       ___p__mbctype              1008a690 f   libucrtd:mbctype.obj
 0001:000896b0       __getmbcp                  1008a6b0 f   libucrtd:mbctype.obj
 0001:00089720       __setmbcp                  1008a720 f   libucrtd:mbctype.obj
 0001:00089750       __setmbcp_nolock           1008a750 f   libucrtd:mbctype.obj
 0001:00089cc1       __ismbbalnum               1008acc1 f   libucrtd:ismbbyte.obj
 0001:00089cdc       __ismbbalnum_l             1008acdc f   libucrtd:ismbbyte.obj
 0001:00089cf8       __ismbbalpha               1008acf8 f   libucrtd:ismbbyte.obj
 0001:00089d13       __ismbbalpha_l             1008ad13 f   libucrtd:ismbbyte.obj
 0001:00089d2f       __ismbbblank               1008ad2f f   libucrtd:ismbbyte.obj
 0001:00089d52       __ismbbblank_l             1008ad52 f   libucrtd:ismbbyte.obj
 0001:00089d76       __ismbbgraph               1008ad76 f   libucrtd:ismbbyte.obj
 0001:00089d91       __ismbbgraph_l             1008ad91 f   libucrtd:ismbbyte.obj
 0001:00089dad       __ismbbkalnum              1008adad f   libucrtd:ismbbyte.obj
 0001:00089dc5       __ismbbkalnum_l            1008adc5 f   libucrtd:ismbbyte.obj
 0001:00089dde       __ismbbkana                1008adde f   libucrtd:ismbbyte.obj
 0001:00089df1       __ismbbkana_l              1008adf1 f   libucrtd:ismbbyte.obj
 0001:00089e40       __ismbbkprint              1008ae40 f   libucrtd:ismbbyte.obj
 0001:00089e58       __ismbbkprint_l            1008ae58 f   libucrtd:ismbbyte.obj
 0001:00089e71       __ismbbkpunct              1008ae71 f   libucrtd:ismbbyte.obj
 0001:00089e89       __ismbbkpunct_l            1008ae89 f   libucrtd:ismbbyte.obj
 0001:00089ea2       __ismbblead                1008aea2 f   libucrtd:ismbbyte.obj
 0001:00089eba       __ismbblead_l              1008aeba f   libucrtd:ismbbyte.obj
 0001:00089ed3       __ismbbprint               1008aed3 f   libucrtd:ismbbyte.obj
 0001:00089eee       __ismbbprint_l             1008aeee f   libucrtd:ismbbyte.obj
 0001:00089f0a       __ismbbpunct               1008af0a f   libucrtd:ismbbyte.obj
 0001:00089f22       __ismbbpunct_l             1008af22 f   libucrtd:ismbbyte.obj
 0001:00089f3b       __ismbbtrail               1008af3b f   libucrtd:ismbbyte.obj
