 Opos_Constants

 Timestamp is 5c43fc85 (Sun Jan 20 13:43:49 2019)

 Preferred load address is 0000000180000000

 Start         Length     Name                   Class
 0001:00000000 00000a00H .text$di                CODE
 0001:00000a00 0009b0f0H .text$mn                CODE
 0001:0009baf0 00000020H .text$mn$00             CODE
 0001:0009bb10 00000fe0H .text$x                 CODE
 0001:0009caf0 000000f4H .text$yd                CODE
 0002:00000000 000003f0H .idata$5                DATA
 0002:000003f0 00000010H .00cfg                  DATA
 0002:00000400 00000008H .CRT$XCA                DATA
 0002:00000408 00000008H .CRT$XCL                DATA
 0002:00000410 000000d0H .CRT$XCU                DATA
 0002:000004e0 00000008H .CRT$XCZ                DATA
 0002:000004e8 00000008H .CRT$XIA                DATA
 0002:000004f0 00000018H .CRT$XIC                DATA
 0002:00000508 00000008H .CRT$XIZ                DATA
 0002:00000510 00000008H .CRT$XPA                DATA
 0002:00000518 00000010H .CRT$XPX                DATA
 0002:00000528 00000008H .CRT$XPXA               DATA
 0002:00000530 00000008H .CRT$XPZ                DATA
 0002:00000538 00000008H .CRT$XTA                DATA
 0002:00000540 00000010H .CRT$XTZ                DATA
 0002:00000548 00000000H .gfids$x                DATA
 0002:00000548 00000000H .gfids$y                DATA
 0002:00000550 00027ba0H .rdata                  DATA
 0002:000280f0 0000056cH .rdata$r                DATA
 0002:0002865c 000003b4H .rdata$zzzdbg           DATA
 0002:00028a10 00000008H .rtc$IAA                DATA
 0002:00028a18 00000010H .rtc$IMZ                DATA
 0002:00028a28 00000008H .rtc$IZZ                DATA
 0002:00028a30 00000008H .rtc$TAA                DATA
 0002:00028a38 00000010H .rtc$TMZ                DATA
 0002:00028a48 00000008H .rtc$TZZ                DATA
 0002:00028a50 00006bf8H .xdata                  DATA
 0002:0002f648 00000150H .xdata$x                DATA
 0002:0002f798 00000008H ATL$__a                 DATA
 0002:0002f7a0 00000010H ATL$__z                 DATA
 0002:0002f7b0 000000acH .edata                  DATA
 0002:0002f85c 00000064H .idata$2                DATA
 0002:0002f8c0 00000018H .idata$3                DATA
 0002:0002f8d8 000003f0H .idata$4                DATA
 0002:0002fcc8 000008a6H .idata$6                DATA
 0003:00000000 000009e0H .data                   DATA
 0003:000009e0 000001a0H .data$r                 DATA
 0003:00000b80 00003dccH .bss                    DATA
 0004:00000000 0000870cH .pdata                  DATA
 0005:00000000 00000140H .rsrc$01                DATA
 0005:00000140 0001add0H .rsrc$02                DATA

  Address         Publics by Value              Rva+Base               Lib:Object

 0000:00000000       __guard_longjmp_table      0000000000000000     <absolute>
 0000:00000000       ___safe_se_handler_count   0000000000000000     <absolute>
 0000:00000000       __guard_longjmp_count      0000000000000000     <absolute>
 0000:00000000       __enclave_config           0000000000000000     <absolute>
 0000:00000000       __guard_fids_count         0000000000000000     <absolute>
 0000:00000000       __dynamic_value_reloc_table 0000000000000000     <absolute>
 0000:00000000       __guard_iat_table          0000000000000000     <absolute>
 0000:00000000       __volatile_metadata        0000000000000000     <absolute>
 0000:00000000       __hybrid_code_map          0000000000000000     <absolute>
 0000:00000000       ___safe_se_handler_table   0000000000000000     <absolute>
 0000:00000000       __hybrid_code_map_count    0000000000000000     <absolute>
 0000:00000000       __guard_fids_table         0000000000000000     <absolute>
 0000:00000000       __guard_iat_count          0000000000000000     <absolute>
 0000:00000000       __hybrid_auxiliary_iat     0000000000000000     <absolute>
 0000:00000100       __guard_flags              0000000000000100     <absolute>
 0000:00000000       __ImageBase                0000000180000000     <linker-defined>
 0001:00000a00       ??$AtlMultiply@_K@ATL@@YAJPEA_K_K1@Z 0000000180001a00 f i StdAfx.obj
 0001:00000a80       ??0?$CHeapPtr@_WVCCRTAllocator@ATL@@@ATL@@QEAA@XZ 0000000180001a80 f i StdAfx.obj
 0001:00000ac0       ??0?$CHeapPtrBase@_WVCCRTAllocator@ATL@@@ATL@@IEAA@XZ 0000000180001ac0 f i StdAfx.obj
 0001:00000ae0       ??0?$CSimpleArray@GV?$CSimpleArrayEqualHelper@G@ATL@@@ATL@@QEAA@XZ 0000000180001ae0 f i StdAfx.obj
 0001:00000b20       ??0?$CTraceCategoryEx@$00$0A@@ATL@@QEAA@PEB_W@Z 0000000180001b20 f i StdAfx.obj
 0001:00000b60       ??0?$CTraceCategoryEx@$01$0A@@ATL@@QEAA@PEB_W@Z 0000000180001b60 f i StdAfx.obj
 0001:00000ba0       ??0?$CTraceCategoryEx@$03$0A@@ATL@@QEAA@PEB_W@Z 0000000180001ba0 f i StdAfx.obj
 0001:00000be0       ??0?$CTraceCategoryEx@$07$0A@@ATL@@QEAA@PEB_W@Z 0000000180001be0 f i StdAfx.obj
 0001:00000c20       ??0?$CTraceCategoryEx@$0BA@$0A@@ATL@@QEAA@PEB_W@Z 0000000180001c20 f i StdAfx.obj
 0001:00000c60       ??0?$CTraceCategoryEx@$0BAA@$0A@@ATL@@QEAA@PEB_W@Z 0000000180001c60 f i StdAfx.obj
 0001:00000ca0       ??0?$CTraceCategoryEx@$0BAAA@$0A@@ATL@@QEAA@PEB_W@Z 0000000180001ca0 f i StdAfx.obj
 0001:00000ce0       ??0?$CTraceCategoryEx@$0BAAAA@$0A@@ATL@@QEAA@PEB_W@Z 0000000180001ce0 f i StdAfx.obj
 0001:00000d20       ??0?$CTraceCategoryEx@$0BAAAAA@$0A@@ATL@@QEAA@PEB_W@Z 0000000180001d20 f i StdAfx.obj
 0001:00000d60       ??0?$CTraceCategoryEx@$0CA@$0A@@ATL@@QEAA@PEB_W@Z 0000000180001d60 f i StdAfx.obj
 0001:00000da0       ??0?$CTraceCategoryEx@$0CAA@$0A@@ATL@@QEAA@PEB_W@Z 0000000180001da0 f i StdAfx.obj
 0001:00000de0       ??0?$CTraceCategoryEx@$0CAAA@$0A@@ATL@@QEAA@PEB_W@Z 0000000180001de0 f i StdAfx.obj
 0001:00000e20       ??0?$CTraceCategoryEx@$0CAAAA@$0A@@ATL@@QEAA@PEB_W@Z 0000000180001e20 f i StdAfx.obj
 0001:00000e60       ??0?$CTraceCategoryEx@$0CAAAAA@$0A@@ATL@@QEAA@PEB_W@Z 0000000180001e60 f i StdAfx.obj
 0001:00000ea0       ??0?$CTraceCategoryEx@$0EA@$0A@@ATL@@QEAA@PEB_W@Z 0000000180001ea0 f i StdAfx.obj
 0001:00000ee0       ??0?$CTraceCategoryEx@$0EAA@$0A@@ATL@@QEAA@PEB_W@Z 0000000180001ee0 f i StdAfx.obj
 0001:00000f20       ??0?$CTraceCategoryEx@$0EAAA@$0A@@ATL@@QEAA@PEB_W@Z 0000000180001f20 f i StdAfx.obj
 0001:00000f60       ??0?$CTraceCategoryEx@$0EAAAA@$0A@@ATL@@QEAA@PEB_W@Z 0000000180001f60 f i StdAfx.obj
 0001:00000fa0       ??0?$CTraceCategoryEx@$0EAAAAA@$0A@@ATL@@QEAA@PEB_W@Z 0000000180001fa0 f i StdAfx.obj
 0001:00000fe0       ??0?$CTraceCategoryEx@$0IA@$0A@@ATL@@QEAA@PEB_W@Z 0000000180001fe0 f i StdAfx.obj
 0001:00001020       ??0?$CTraceCategoryEx@$0IAA@$0A@@ATL@@QEAA@PEB_W@Z 0000000180002020 f i StdAfx.obj
 0001:00001060       ??0?$CTraceCategoryEx@$0IAAA@$0A@@ATL@@QEAA@PEB_W@Z 0000000180002060 f i StdAfx.obj
 0001:000010a0       ??0?$CTraceCategoryEx@$0IAAAA@$0A@@ATL@@QEAA@PEB_W@Z 00000001800020a0 f i StdAfx.obj
 0001:000010e0       ??0CAtlComModule@ATL@@QEAA@XZ 00000001800020e0 f i StdAfx.obj
 0001:00001200       ??0CAtlWinModule@ATL@@QEAA@XZ 0000000180002200 f i StdAfx.obj
 0001:000012b0       ??0CComCriticalSection@ATL@@QEAA@XZ 00000001800022b0 f i StdAfx.obj
 0001:000012f0       ??0CPreserveLastError@ATL@@QEAA@XZ 00000001800022f0 f i StdAfx.obj
 0001:00001330       ??0CTraceFileAndLineInfo@ATL@@QEAA@PEBDH@Z 0000000180002330 f i StdAfx.obj
 0001:00001360       ??0_ATL_COM_MODULE70@ATL@@QEAA@XZ 0000000180002360 f i StdAfx.obj
 0001:000013a0       ??0_ATL_WIN_MODULE70@ATL@@QEAA@XZ 00000001800023a0 f i StdAfx.obj
 0001:000013f0       ??1?$CHeapPtr@_WVCCRTAllocator@ATL@@@ATL@@QEAA@XZ 00000001800023f0 f i StdAfx.obj
 0001:00001420       ??1?$CHeapPtrBase@_WVCCRTAllocator@ATL@@@ATL@@QEAA@XZ 0000000180002420 f i StdAfx.obj
 0001:00001450       ??1?$CSimpleArray@GV?$CSimpleArrayEqualHelper@G@ATL@@@ATL@@QEAA@XZ 0000000180002450 f i StdAfx.obj
 0001:00001480       ??1CAtlComModule@ATL@@QEAA@XZ 0000000180002480 f i StdAfx.obj
 0001:000014c0       ??1CAtlWinModule@ATL@@QEAA@XZ 00000001800024c0 f i StdAfx.obj
 0001:00001500       ??1CComBSTR@ATL@@QEAA@XZ   0000000180002500 f i StdAfx.obj
 0001:00001540       ??1CComCriticalSection@ATL@@QEAA@XZ 0000000180002540 f i StdAfx.obj
 0001:00001550       ??1CPreserveLastError@ATL@@QEAA@XZ 0000000180002550 f i StdAfx.obj
 0001:00001590       ??1_ATL_COM_MODULE70@ATL@@QEAA@XZ 0000000180002590 f i StdAfx.obj
 0001:000015d0       ??1_ATL_WIN_MODULE70@ATL@@QEAA@XZ 00000001800025d0 f i StdAfx.obj
 0001:00001620       ??1stringdispid@CComTypeInfoHolder@ATL@@QEAA@XZ 0000000180002620 f i StdAfx.obj
 0001:00001660       ??A?$CSimpleArray@GV?$CSimpleArrayEqualHelper@G@ATL@@@ATL@@QEAAAEAGH@Z 0000000180002660 f i StdAfx.obj
 0001:00001710       ??B?$CHeapPtrBase@_WVCCRTAllocator@ATL@@@ATL@@QEBAPEA_WXZ 0000000180002710 f i StdAfx.obj
 0001:00001720       ??B?$CTraceCategoryEx@$01$0A@@ATL@@QEAAIXZ 0000000180002720 f i StdAfx.obj
 0001:00001730       ??B?$CTraceCategoryEx@$0CA@$0A@@ATL@@QEAAIXZ 0000000180002730 f i StdAfx.obj
 0001:00001740       ??RCTraceFileAndLineInfo@ATL@@QEBAXHIPEB_WZZ 0000000180002740 f i StdAfx.obj
 0001:000017f0       ??_Estringdispid@CComTypeInfoHolder@ATL@@QEAAPEAXI@Z 00000001800027f0 f i StdAfx.obj
 0001:000018a0       ??_H@YAXPEAX_K1P6APEAX0@Z@Z 00000001800028a0 f i StdAfx.obj
 0001:00001930       ??_I@YAXPEAX_K1P6AX0@Z@Z   0000000180002930 f i StdAfx.obj
 0001:000019e0       ?Allocate@?$CHeapPtr@_WVCCRTAllocator@ATL@@@ATL@@QEAA_N_K@Z 00000001800029e0 f i StdAfx.obj
 0001:00001a60       ?Allocate@CCRTAllocator@ATL@@SAPEAX_K@Z 0000000180002a60 f i StdAfx.obj
 0001:00001a90       ?AllocateBytes@?$CHeapPtrBase@_WVCCRTAllocator@ATL@@@ATL@@QEAA_N_K@Z 0000000180002a90 f i StdAfx.obj
 0001:00001b30       ?AtlWinModuleInit@ATL@@YAJPEAU_ATL_WIN_MODULE70@1@@Z 0000000180002b30 f i StdAfx.obj
 0001:00001c30       ?AtlWinModuleTerm@ATL@@YAJPEAU_ATL_WIN_MODULE70@1@PEAUHINSTANCE__@@@Z 0000000180002c30 f i StdAfx.obj
 0001:00001d20       ?Free@?$CHeapPtrBase@_WVCCRTAllocator@ATL@@@ATL@@QEAAXXZ 0000000180002d20 f i StdAfx.obj
 0001:00001d60       ?Free@CCRTAllocator@ATL@@SAXPEAX@Z 0000000180002d60 f i StdAfx.obj
 0001:00001d90       ?GetCategoryName@CTrace@ATL@@CAPEA_WI@Z 0000000180002d90 f i StdAfx.obj
 0001:00001e10       ?GetModuleInstance@CAtlBaseModule@ATL@@QEAAPEAUHINSTANCE__@@XZ 0000000180002e10 f i StdAfx.obj
 0001:00001e30       ?GetSize@?$CSimpleArray@GV?$CSimpleArrayEqualHelper@G@ATL@@@ATL@@QEBAHXZ 0000000180002e30 f i StdAfx.obj
 0001:00001e40       ?Init@CComCriticalSection@ATL@@QEAAJXZ 0000000180002e40 f i StdAfx.obj
 0001:00001ea0       ?RegisterCategory@CTrace@ATL@@SAXPEB_WI@Z 0000000180002ea0 f i StdAfx.obj
 0001:00001f80       ?RemoveAll@?$CSimpleArray@GV?$CSimpleArrayEqualHelper@G@ATL@@@ATL@@QEAAXXZ 0000000180002f80 f i StdAfx.obj
 0001:00002010       ?Term@CAtlComModule@ATL@@QEAAXXZ 0000000180003010 f i StdAfx.obj
 0001:000020f0       ?Term@CAtlWinModule@ATL@@QEAAXXZ 00000001800030f0 f i StdAfx.obj
 0001:00002130       ?Term@CComCriticalSection@ATL@@QEAAJXZ 0000000180003130 f i StdAfx.obj
 0001:00002170       ?TraceV@CTrace@ATL@@CAXPEBDHIIPEB_W@Z 0000000180003170 f i StdAfx.obj
 0001:00002420       ?TraceV@CTrace@ATL@@SAXPEBDHIIPEB_WPEAD@Z 0000000180003420 f i StdAfx.obj
 0001:000025d0       ?_AtlInitializeCriticalSectionEx@ATL@@YAHPEAU_RTL_CRITICAL_SECTION@@KK@Z 00000001800035d0 f i StdAfx.obj
 0001:00002620       ?_AtlRaiseException@ATL@@YAXKK@Z 0000000180003620 f i StdAfx.obj
 0001:00002660       HRESULT_FROM_WIN32         0000000180003660 f i StdAfx.obj
 0001:000026b0       __local_stdio_printf_options 00000001800036b0 f i StdAfx.obj
 0001:000026c0       _vswprintf_s_l             00000001800036c0 f i StdAfx.obj
 0001:00002750       swprintf_s                 0000000180003750 f i StdAfx.obj
 0001:00002940       DllGetClassObject          0000000180003940 f   OposConstants.obj
 0001:00002990       DllCanUnloadNow            0000000180003990 f   OposConstants.obj
 0001:000029e0       DllRegisterServer          00000001800039e0 f   OposConstants.obj
 0001:00002a20       DllUnregisterServer        0000000180003a20 f   OposConstants.obj
 0001:00002c20       DllMain                    0000000180003c20 f   OposConstants.obj
 0001:00002ca0       ??$?2PEA_W@?$Wrapper@PEA_W@?$CSimpleMap@PEA_WPEA_WVCExpansionVectorEqualHelper@ATL@@@ATL@@SAPEAX_KPEAPEA_W@Z 0000000180003ca0 f i OposConstants.obj
 0001:00002cc0       ??$AtlMultiply@K@ATL@@YAJPEAKKK@Z 0000000180003cc0 f i OposConstants.obj
 0001:00002d30       ??$AtlMultiplyThrow@_K@ATL@@YA_K_K0@Z 0000000180003d30 f i OposConstants.obj
 0001:00002da0       ??0?$CAtlModuleT@VCComModule@ATL@@@ATL@@QEAA@XZ 0000000180003da0 f i OposConstants.obj
 0001:00002de0       ??0?$CAtlSafeAllocBufferManager@VCCRTAllocator@ATL@@@_ATL_SAFE_ALLOCA_IMPL@ATL@@QEAA@XZ 0000000180003de0 f i OposConstants.obj
 0001:00002e00       ??0?$CAutoVectorPtr@_W@ATL@@QEAA@XZ 0000000180003e00 f i OposConstants.obj
 0001:00002e20       ??0?$CComCritSecLock@VCComCriticalSection@ATL@@@ATL@@QEAA@AEAVCComCriticalSection@1@_N@Z 0000000180003e20 f i OposConstants.obj
 0001:00002e90       ??0?$CComPtr@UICatRegister@@@ATL@@QEAA@XZ 0000000180003e90 f i OposConstants.obj
 0001:00002ed0       ??0?$CComPtr@UITypeLib@@@ATL@@QEAA@XZ 0000000180003ed0 f i OposConstants.obj
 0001:00002f10       ??0?$CComPtrBase@UICatRegister@@@ATL@@IEAA@XZ 0000000180003f10 f i OposConstants.obj
 0001:00002f30       ??0?$CComPtrBase@UITypeLib@@@ATL@@IEAA@XZ 0000000180003f30 f i OposConstants.obj
 0001:00002f50       ??0?$CSimpleMap@PEA_WPEA_WVCExpansionVectorEqualHelper@ATL@@@ATL@@QEAA@XZ 0000000180003f50 f i OposConstants.obj
 0001:00002f90       ??0?$CTempBuffer@E$0BAA@VCCRTAllocator@ATL@@@ATL@@QEAA@XZ 0000000180003f90 f i OposConstants.obj
 0001:00002fb0       ??0?$CTempBuffer@_W$0BAA@VCCRTAllocator@ATL@@@ATL@@QEAA@XZ 0000000180003fb0 f i OposConstants.obj
 0001:00002fd0       ??0?$CTempBuffer@_W$0EAA@VCCRTAllocator@ATL@@@ATL@@QEAA@XZ 0000000180003fd0 f i OposConstants.obj
 0001:00002ff0       ??0?$Wrapper@PEA_W@?$CSimpleMap@PEA_WPEA_WVCExpansionVectorEqualHelper@ATL@@@ATL@@QEAA@AEBQEA_W@Z 0000000180003ff0 f i OposConstants.obj
 0001:00003020       ??0CAtlModule@ATL@@QEAA@XZ 0000000180004020 f i OposConstants.obj
 0001:00003190       ??0CComBSTR@ATL@@QEAA@XZ   0000000180004190 f i OposConstants.obj
 0001:000031b0       ??0CComModule@ATL@@QEAA@XZ 00000001800041b0 f i OposConstants.obj
 0001:00003250       ??0CExpansionVector@ATL@@QEAA@XZ 0000000180004250 f i OposConstants.obj
 0001:00003290       ??0CParseBuffer@CRegParser@ATL@@QEAA@H@Z 0000000180004290 f i OposConstants.obj
 0001:00003320       ??0CRegKey@ATL@@QEAA@PEAUHKEY__@@@Z 0000000180004320 f i OposConstants.obj
 0001:00003360       ??0CRegKey@ATL@@QEAA@PEAVCAtlTransactionManager@1@@Z 0000000180004360 f i OposConstants.obj
 0001:000033a0       ??0CRegObject@ATL@@QEAA@XZ 00000001800043a0 f i OposConstants.obj
 0001:00003400       ??0CRegParser@ATL@@QEAA@PEAVCRegObject@1@@Z 0000000180004400 f i OposConstants.obj
 0001:00003430       ??0IRegistrarBase@@QEAA@XZ 0000000180004430 f i OposConstants.obj
 0001:00003470       ??0IUnknown@@QEAA@XZ       0000000180004470 f i OposConstants.obj
 0001:00003480       ??0_ATL_MODULE70@ATL@@QEAA@XZ 0000000180004480 f i OposConstants.obj
 0001:000034c0       ??1?$CAtlModuleT@VCComModule@ATL@@@ATL@@UEAA@XZ 00000001800044c0 f i OposConstants.obj
 0001:000034f0       ??1?$CAtlSafeAllocBufferManager@VCCRTAllocator@ATL@@@_ATL_SAFE_ALLOCA_IMPL@ATL@@QEAA@XZ 00000001800044f0 f i OposConstants.obj
 0001:00003550       ??1?$CAutoVectorPtr@_W@ATL@@QEAA@XZ 0000000180004550 f i OposConstants.obj
 0001:00003580       ??1?$CComCritSecLock@VCComCriticalSection@ATL@@@ATL@@QEAA@XZ 0000000180004580 f i OposConstants.obj
 0001:000035c0       ??1?$CComPtr@UICatRegister@@@ATL@@QEAA@XZ 00000001800045c0 f i OposConstants.obj
 0001:000035f0       ??1?$CComPtr@UITypeLib@@@ATL@@QEAA@XZ 00000001800045f0 f i OposConstants.obj
 0001:00003620       ??1?$CComPtrBase@UICatRegister@@@ATL@@QEAA@XZ 0000000180004620 f i OposConstants.obj
 0001:00003670       ??1?$CComPtrBase@UITypeLib@@@ATL@@QEAA@XZ 0000000180004670 f i OposConstants.obj
 0001:000036c0       ??1?$CSimpleMap@PEA_WPEA_WVCExpansionVectorEqualHelper@ATL@@@ATL@@QEAA@XZ 00000001800046c0 f i OposConstants.obj
 0001:000036f0       ??1?$CTempBuffer@E$0BAA@VCCRTAllocator@ATL@@@ATL@@QEAA@XZ 00000001800046f0 f i OposConstants.obj
 0001:00003740       ??1?$CTempBuffer@_W$0BAA@VCCRTAllocator@ATL@@@ATL@@QEAA@XZ 0000000180004740 f i OposConstants.obj
 0001:00003790       ??1?$CTempBuffer@_W$0EAA@VCCRTAllocator@ATL@@@ATL@@QEAA@XZ 0000000180004790 f i OposConstants.obj
 0001:000037e0       ??1CAtlModule@ATL@@UEAA@XZ 00000001800047e0 f i OposConstants.obj
 0001:00003820       ??1CComModule@ATL@@UEAA@XZ 0000000180004820 f i OposConstants.obj
 0001:00003860       ??1CExpansionVector@ATL@@QEAA@XZ 0000000180004860 f i OposConstants.obj
 0001:000038a0       ??1CParseBuffer@CRegParser@ATL@@QEAA@XZ 00000001800048a0 f i OposConstants.obj
 0001:000038e0       ??1CRegKey@ATL@@QEAA@XZ    00000001800048e0 f i OposConstants.obj
 0001:00003910       ??1CRegObject@ATL@@UEAA@XZ 0000000180004910 f i OposConstants.obj
 0001:00003960       ??1_ATL_MODULE70@ATL@@QEAA@XZ 0000000180004960 f i OposConstants.obj
 0001:000039a0       ??7CComBSTR@ATL@@QEBA_NXZ  00000001800049a0 f i OposConstants.obj
 0001:000039f0       ??8CComBSTR@ATL@@QEBA_NH@Z 00000001800049f0 f i OposConstants.obj
 0001:00003a70       ??9CComBSTR@ATL@@QEBA_NH@Z 0000000180004a70 f i OposConstants.obj
 0001:00003ad0       ??B?$CComPtrBase@UITypeLib@@@ATL@@QEBAPEAUITypeLib@@XZ 0000000180004ad0 f i OposConstants.obj
 0001:00003ae0       ??B?$CTempBuffer@E$0BAA@VCCRTAllocator@ATL@@@ATL@@QEBAPEAEXZ 0000000180004ae0 f i OposConstants.obj
 0001:00003af0       ??B?$CTempBuffer@_W$0BAA@VCCRTAllocator@ATL@@@ATL@@QEBAPEA_WXZ 0000000180004af0 f i OposConstants.obj
 0001:00003b00       ??B?$CTempBuffer@_W$0EAA@VCCRTAllocator@ATL@@@ATL@@QEBAPEA_WXZ 0000000180004b00 f i OposConstants.obj
 0001:00003b10       ??B?$CTraceCategoryEx@$00$0A@@ATL@@QEAAIXZ 0000000180004b10 f i OposConstants.obj
 0001:00003b20       ??B?$CTraceCategoryEx@$07$0A@@ATL@@QEAAIXZ 0000000180004b20 f i OposConstants.obj
 0001:00003b30       ??B?$CTraceCategoryEx@$0CAAA@$0A@@ATL@@QEAAIXZ 0000000180004b30 f i OposConstants.obj
 0001:00003b40       ??BCComBSTR@ATL@@QEBAPEA_WXZ 0000000180004b40 f i OposConstants.obj
 0001:00003b50       ??BCRegKey@ATL@@QEBAPEAUHKEY__@@XZ 0000000180004b50 f i OposConstants.obj
 0001:00003b60       ??C?$CComPtrBase@UICatRegister@@@ATL@@QEBAPEAV?$_NoAddRefReleaseOnCComPtr@UICatRegister@@@1@XZ 0000000180004b60 f i OposConstants.obj
 0001:00003be0       ??C?$CComPtrBase@UITypeLib@@@ATL@@QEBAPEAV?$_NoAddRefReleaseOnCComPtr@UITypeLib@@@1@XZ 0000000180004be0 f i OposConstants.obj
 0001:00003c60       ??I?$CComPtrBase@UICatRegister@@@ATL@@QEAAPEAPEAUICatRegister@@XZ 0000000180004c60 f i OposConstants.obj
 0001:00003cd0       ??I?$CComPtrBase@UITypeLib@@@ATL@@QEAAPEAPEAUITypeLib@@XZ 0000000180004cd0 f i OposConstants.obj
 0001:00003d40       ??ICComBSTR@ATL@@QEAAPEAPEA_WXZ 0000000180004d40 f i OposConstants.obj
 0001:00003d50       ??_ECComModule@ATL@@UEAAPEAXI@Z 0000000180004d50 f i OposConstants.obj
 0001:00003d50       ??_GCComModule@ATL@@UEAAPEAXI@Z 0000000180004d50 f i OposConstants.obj
 0001:00003db0       ??_ECRegObject@ATL@@UEAAPEAXI@Z 0000000180004db0 f i OposConstants.obj
 0001:00003db0       ??_GCRegObject@ATL@@UEAAPEAXI@Z 0000000180004db0 f i OposConstants.obj
 0001:00003e10       ?Add@?$CSimpleMap@PEA_WPEA_WVCExpansionVectorEqualHelper@ATL@@@ATL@@QEAAHAEBQEA_W0@Z 0000000180004e10 f i OposConstants.obj
 0001:00003f00       ?Add@CExpansionVector@ATL@@QEAAHPEB_W0@Z 0000000180004f00 f i OposConstants.obj
 0001:00004230       ?AddChar@CParseBuffer@CRegParser@ATL@@QEAAHPEB_W@Z 0000000180005230 f i OposConstants.obj
 0001:00004280       ?AddCommonRGSReplacements@?$CAtlModuleT@VCComModule@ATL@@@ATL@@UEAAJPEAUIRegistrarBase@@@Z 0000000180005280 f i OposConstants.obj
 0001:000042e0       ?AddRef@CRegObject@ATL@@UEAAKXZ 00000001800052e0 f i OposConstants.obj
 0001:00004350       ?AddReplacement@CRegObject@ATL@@UEAAJPEB_W0@Z 0000000180005350 f i OposConstants.obj
 0001:00004480       ?AddString@CParseBuffer@CRegParser@ATL@@QEAAHPEB_W@Z 0000000180005480 f i OposConstants.obj
 0001:00004570       ?AddValue@CRegParser@ATL@@IEAAJAEAVCRegKey@2@PEB_WPEA_W@Z 0000000180005570 f i OposConstants.obj
 0001:00004e40       ?Allocate@?$CTempBuffer@E$0BAA@VCCRTAllocator@ATL@@@ATL@@QEAAPEAE_K@Z 0000000180005e40 f i OposConstants.obj
 0001:00004e90       ?Allocate@?$CTempBuffer@_W$0BAA@VCCRTAllocator@ATL@@@ATL@@QEAAPEA_W_K@Z 0000000180005e90 f i OposConstants.obj
 0001:00004ee0       ?Allocate@?$CTempBuffer@_W$0EAA@VCCRTAllocator@ATL@@@ATL@@QEAAPEA_W_K@Z 0000000180005ee0 f i OposConstants.obj
 0001:00004f30       ?AllocateBytes@?$CTempBuffer@E$0BAA@VCCRTAllocator@ATL@@@ATL@@QEAAPEAE_K@Z 0000000180005f30 f i OposConstants.obj
 0001:00004fe0       ?AllocateBytes@?$CTempBuffer@_W$0BAA@VCCRTAllocator@ATL@@@ATL@@QEAAPEA_W_K@Z 0000000180005fe0 f i OposConstants.obj
 0001:00005090       ?AllocateBytes@?$CTempBuffer@_W$0EAA@VCCRTAllocator@ATL@@@ATL@@QEAAPEA_W_K@Z 0000000180006090 f i OposConstants.obj
 0001:00005140       ?AllocateHeap@?$CTempBuffer@E$0BAA@VCCRTAllocator@ATL@@@ATL@@AEAAX_K@Z 0000000180006140 f i OposConstants.obj
 0001:000051a0       ?AllocateHeap@?$CTempBuffer@_W$0BAA@VCCRTAllocator@ATL@@@ATL@@AEAAX_K@Z 00000001800061a0 f i OposConstants.obj
 0001:00005200       ?AllocateHeap@?$CTempBuffer@_W$0EAA@VCCRTAllocator@ATL@@@ATL@@AEAAX_K@Z 0000000180006200 f i OposConstants.obj
 0001:00005260       ?Append@CParseBuffer@CRegParser@ATL@@QEAAHPEB_WH@Z 0000000180006260 f i OposConstants.obj
 0001:00005490       ?AtlCallTermFunc@ATL@@YAXPEAU_ATL_MODULE70@1@@Z 0000000180006490 f i OposConstants.obj
 0001:00005540       ?AtlCoTaskMemCAlloc@ATL@@YAPEAXKK@Z 0000000180006540 f i OposConstants.obj
 0001:000055c0       ?AtlCoTaskMemRecalloc@ATL@@YAPEAXPEAXKK@Z 00000001800065c0 f i OposConstants.obj
 0001:00005640       ?AtlComModuleGetClassObject@ATL@@YAJPEAU_ATL_COM_MODULE70@1@AEBU_GUID@@1PEAPEAX@Z 0000000180006640 f i OposConstants.obj
 0001:00005970       ?AtlComModuleRegisterServer@ATL@@YAJPEAU_ATL_COM_MODULE70@1@HPEBU_GUID@@@Z 0000000180006970 f i OposConstants.obj
 0001:00005b70       ?AtlComModuleUnregisterServer@ATL@@YAJPEAU_ATL_COM_MODULE70@1@HPEBU_GUID@@@Z 0000000180006b70 f i OposConstants.obj
 0001:00005cd0       ?AtlCrtErrorCheck@ATL@@YAHH@Z 0000000180006cd0 f i OposConstants.obj
 0001:00005d50       ?AtlGetPerUserRegistration@ATL@@YAJPEA_N@Z 0000000180006d50 f i OposConstants.obj
 0001:00005d80       ?AtlHresultFromLastError@ATL@@YAJXZ 0000000180006d80 f i OposConstants.obj
 0001:00005db0       ?AtlHresultFromWin32@ATL@@YAJK@Z 0000000180006db0 f i OposConstants.obj
 0001:00005de0       ?AtlLoadTypeLib@ATL@@YAJPEAUHINSTANCE__@@PEB_WPEAPEA_WPEAPEAUITypeLib@@@Z 0000000180006de0 f i OposConstants.obj
 0001:000062b0       ?AtlRegisterClassCategoriesHelper@ATL@@YAJAEBU_GUID@@PEBU_ATL_CATMAP_ENTRY@1@H@Z 00000001800072b0 f i OposConstants.obj
 0001:00006a80       ?AtlRegisterTypeLib@ATL@@YAJPEAUHINSTANCE__@@PEB_W@Z 0000000180007a80 f i OposConstants.obj
 0001:00006de0       ?AtlThrowImpl@ATL@@YAXJ@Z  0000000180007de0 f i OposConstants.obj
 0001:00006ec0       ?AtlUnRegisterTypeLib@ATL@@YAJPEAUHINSTANCE__@@PEB_W@Z 0000000180007ec0 f i OposConstants.obj
 0001:000070f0       ?Attach@?$CAutoVectorPtr@_W@ATL@@QEAAXPEA_W@Z 00000001800080f0 f i OposConstants.obj
 0001:00007180       ?Attach@CRegKey@ATL@@QEAAXPEAUHKEY__@@@Z 0000000180008180 f i OposConstants.obj
 0001:00007220       ?CanForceRemoveKey@CRegParser@ATL@@IEAAHPEB_W@Z 0000000180008220 f i OposConstants.obj
 0001:00007290       ?ChToByte@CRegParser@ATL@@KAE_W@Z 0000000180008290 f i OposConstants.obj
 0001:000073f0       ?ClearReplacements@CExpansionVector@ATL@@QEAAJXZ 00000001800083f0 f i OposConstants.obj
 0001:00007490       ?ClearReplacements@CRegObject@ATL@@UEAAJXZ 0000000180008490 f i OposConstants.obj
 0001:000074f0       ?Close@CRegKey@ATL@@QEAAJXZ 00000001800084f0 f i OposConstants.obj
 0001:00007560       ?Decrement@CComMultiThreadModel@ATL@@SAKPEAJ@Z 0000000180008560 f i OposConstants.obj
 0001:00007580       ?DeleteSubKey@CRegKey@ATL@@QEAAJPEB_W@Z 0000000180008580 f i OposConstants.obj
 0001:000076b0       ?DeleteValue@CRegKey@ATL@@QEAAJPEB_W@Z 00000001800086b0 f i OposConstants.obj
 0001:00007740       ?Detach@?$CAutoVectorPtr@_W@ATL@@QEAAPEA_WXZ 0000000180008740 f i OposConstants.obj
 0001:00007780       ?Detach@CParseBuffer@CRegParser@ATL@@QEAAPEA_WXZ 0000000180008780 f i OposConstants.obj
 0001:000077e0       ?Detach@CRegKey@ATL@@QEAAPEAUHKEY__@@XZ 00000001800087e0 f i OposConstants.obj
 0001:00007840       ?EndOfVar@CRegParser@ATL@@IEAAHXZ 0000000180008840 f i OposConstants.obj
 0001:000078a0       ?EscapeSingleQuote@CAtlModule@ATL@@SAXPEA_W_KPEB_W@Z 00000001800088a0 f i OposConstants.obj
 0001:000079a0       ?FinalConstruct@CRegObject@ATL@@QEAAJXZ 00000001800089a0 f i OposConstants.obj
 0001:000079e0       ?FindKey@?$CSimpleMap@PEA_WPEA_WVCExpansionVectorEqualHelper@ATL@@@ATL@@QEBAHAEBQEA_W@Z 00000001800089e0 f i OposConstants.obj
 0001:00007a60       ?Free@?$CAutoVectorPtr@_W@ATL@@QEAAXXZ 0000000180008a60 f i OposConstants.obj
 0001:00007ab0       ?FreeHeap@?$CTempBuffer@E$0BAA@VCCRTAllocator@ATL@@@ATL@@AEAAXXZ 0000000180008ab0 f i OposConstants.obj
 0001:00007af0       ?FreeHeap@?$CTempBuffer@_W$0BAA@VCCRTAllocator@ATL@@@ATL@@AEAAXXZ 0000000180008af0 f i OposConstants.obj
 0001:00007b30       ?FreeHeap@?$CTempBuffer@_W$0EAA@VCCRTAllocator@ATL@@@ATL@@AEAAXXZ 0000000180008b30 f i OposConstants.obj
 0001:00007b70       ?GenerateError@CRegParser@ATL@@IEAAJI@Z 0000000180008b70 f i OposConstants.obj
 0001:00007b90       ?GetAppId@?$CAtlModuleT@VCComModule@ATL@@@ATL@@SAPEB_WXZ 0000000180008b90 f i OposConstants.obj
 0001:00007ba0       ?GetClassObject@CComModule@ATL@@QEAAJAEBU_GUID@@0PEAPEAX@Z 0000000180008ba0 f i OposConstants.obj
 0001:00007e10       ?GetGITPtr@CAtlModule@ATL@@UEAAJPEAPEAUIGlobalInterfaceTable@@@Z 0000000180008e10 f i OposConstants.obj
 0001:00007f50       ?GetKeyAt@?$CSimpleMap@PEA_WPEA_WVCExpansionVectorEqualHelper@ATL@@@ATL@@QEBAAEAPEA_WH@Z 0000000180008f50 f i OposConstants.obj
 0001:00008000       ?GetLockCount@CAtlModule@ATL@@UEAAJXZ 0000000180009000 f i OposConstants.obj
 0001:00008010       ?GetSize@?$CSimpleMap@PEA_WPEA_WVCExpansionVectorEqualHelper@ATL@@@ATL@@QEBAHXZ 0000000180009010 f i OposConstants.obj
 0001:00008020       ?GetValueAt@?$CSimpleMap@PEA_WPEA_WVCExpansionVectorEqualHelper@ATL@@@ATL@@QEBAAEAPEA_WH@Z 0000000180009020 f i OposConstants.obj
 0001:000080d0       ?HKeyFromString@CRegParser@ATL@@KAPEAUHKEY__@@PEA_W@Z 00000001800090d0 f i OposConstants.obj
 0001:00008160       ?HasSubKeys@CRegParser@ATL@@IEAAHPEAUHKEY__@@@Z 0000000180009160 f i OposConstants.obj
 0001:000082d0       ?Increment@CComMultiThreadModel@ATL@@SAKPEAJ@Z 00000001800092d0 f i OposConstants.obj
 0001:000082f0       ?Init@CComFakeCriticalSection@ATL@@QEAAJXZ 00000001800092f0 f i OposConstants.obj
 0001:00008300       ?Init@CComModule@ATL@@QEAAJPEAU_ATL_OBJMAP_ENTRY30@2@PEAUHINSTANCE__@@PEBU_GUID@@@Z 0000000180009300 f i OposConstants.obj
 0001:000083f0       ?InitLibId@?$CAtlModuleT@VCComModule@ATL@@@ATL@@SAXXZ 00000001800093f0 f i OposConstants.obj
 0001:00008400       ?InternalSetAtIndex@?$CSimpleMap@PEA_WPEA_WVCExpansionVectorEqualHelper@ATL@@@ATL@@QEAAXHAEBQEA_W0@Z 0000000180009400 f i OposConstants.obj
 0001:000084d0       ?IsEqualKey@CExpansionVectorEqualHelper@ATL@@SA_NQEA_W0@Z 00000001800094d0 f i OposConstants.obj
 0001:00008520       ?IsSpace@CRegParser@ATL@@IEAAH_W@Z 0000000180009520 f i OposConstants.obj
 0001:00008580       ?Length@CComBSTR@ATL@@QEBAIXZ 0000000180009580 f i OposConstants.obj
 0001:000085c0       ?Lock@?$CComCritSecLock@VCComCriticalSection@ATL@@@ATL@@QEAAJXZ 00000001800095c0 f i OposConstants.obj
 0001:000086b0       ?Lock@CAtlModule@ATL@@UEAAJXZ 00000001800096b0 f i OposConstants.obj
 0001:000086f0       ?Lock@CComCriticalSection@ATL@@QEAAJXZ 00000001800096f0 f i OposConstants.obj
 0001:00008730       ?Lock@CComFakeCriticalSection@ATL@@QEAAJXZ 0000000180009730 f i OposConstants.obj
 0001:00008740       ?Lookup@?$CSimpleMap@PEA_WPEA_WVCExpansionVectorEqualHelper@ATL@@@ATL@@QEBAPEA_WAEBQEA_W@Z 0000000180009740 f i OposConstants.obj
 0001:000087a0       ?NextToken@CRegParser@ATL@@IEAAJPEA_W@Z 00000001800097a0 f i OposConstants.obj
 0001:00008b30       ?OLE2CT_EX@@YAPEB_WPEB_WI@Z 0000000180009b30 f i OposConstants.obj
 0001:00008b50       ?OLE2T_EX@@YAPEA_WPEA_WI@Z 0000000180009b50 f i OposConstants.obj
 0001:00008b70       ?Open@CRegKey@ATL@@QEAAJPEAUHKEY__@@PEB_WK@Z 0000000180009b70 f i OposConstants.obj
 0001:00008cf0       ?PreProcessBuffer@CRegParser@ATL@@QEAAJPEA_WPEAPEA_W@Z 0000000180009cf0 f i OposConstants.obj
 0001:000093d0       ?QueryInterface@CRegObject@ATL@@UEAAJAEBU_GUID@@PEAPEAX@Z 000000018000a3d0 f i OposConstants.obj
 0001:00009450       ?RecurseDeleteKey@CRegKey@ATL@@QEAAJPEB_W@Z 000000018000a450 f i OposConstants.obj
 0001:00009670       ?RegCreateKeyExW@CAtlTransactionManager@ATL@@QEAAJPEAUHKEY__@@PEB_WKPEA_WKKQEAU_SECURITY_ATTRIBUTES@@PEAPEAU3@PEAK@Z 000000018000a670 f i OposConstants.obj
 0001:00009840       ?RegDeleteKeyW@CAtlTransactionManager@ATL@@QEAAJPEAUHKEY__@@PEB_W@Z 000000018000a840 f i OposConstants.obj
 0001:00009950       ?RegOpenKeyExW@CAtlTransactionManager@ATL@@QEAAJPEAUHKEY__@@PEB_WKKPEAPEAU3@@Z 000000018000a950 f i OposConstants.obj
 0001:00009aa0       ?RegisterBuffer@CRegParser@ATL@@QEAAJPEA_WH@Z 000000018000aaa0 f i OposConstants.obj
 0001:00009e90       ?RegisterFromResource@CRegObject@ATL@@IEAAJPEB_W00H@Z 000000018000ae90 f i OposConstants.obj
 0001:0000a2f0       ?RegisterServer@?$CAtlModuleT@VCComModule@ATL@@@ATL@@QEAAJHPEBU_GUID@@@Z 000000018000b2f0 f i OposConstants.obj
 0001:0000a370       ?RegisterServer@CAtlComModule@ATL@@QEAAJHPEBU_GUID@@@Z 000000018000b370 f i OposConstants.obj
 0001:0000a3b0       ?RegisterServer@CComModule@ATL@@QEAAJHPEBU_GUID@@@Z 000000018000b3b0 f i OposConstants.obj
 0001:0000a4b0       ?RegisterSubkeys@CRegParser@ATL@@IEAAJPEA_WPEAUHKEY__@@HH@Z 000000018000b4b0 f i OposConstants.obj
 0001:0000b290       ?Release@CRegObject@ATL@@UEAAKXZ 000000018000c290 f i OposConstants.obj
 0001:0000b300       ?RemoveAll@?$CSimpleMap@PEA_WPEA_WVCExpansionVectorEqualHelper@ATL@@@ATL@@QEAAXXZ 000000018000c300 f i OposConstants.obj
 0001:0000b3a0       ?ResourceRegister@CRegObject@ATL@@QEAAJPEB_WI0@Z 000000018000c3a0 f i OposConstants.obj
 0001:0000b480       ?ResourceRegisterSz@CRegObject@ATL@@QEAAJPEB_W00@Z 000000018000c480 f i OposConstants.obj
 0001:0000b5a0       ?ResourceUnregister@CRegObject@ATL@@QEAAJPEB_WI0@Z 000000018000c5a0 f i OposConstants.obj
 0001:0000b680       ?ResourceUnregisterSz@CRegObject@ATL@@QEAAJPEB_W00@Z 000000018000c680 f i OposConstants.obj
 0001:0000b7a0       ?SetDWORDValue@CRegKey@ATL@@QEAAJPEB_WK@Z 000000018000c7a0 f i OposConstants.obj
 0001:0000b850       ?SetMultiStringValue@CRegKey@ATL@@QEAAJPEB_W0@Z 000000018000c850 f i OposConstants.obj
 0001:0000b9c0       ?SetStringValue@CRegKey@ATL@@QEAAJPEB_W0K@Z 000000018000c9c0 f i OposConstants.obj
 0001:0000bb40       ?SkipAssignment@CRegParser@ATL@@IEAAJPEA_W@Z 000000018000cb40 f i OposConstants.obj
 0001:0000bc40       ?SkipWhiteSpace@CRegParser@ATL@@IEAAXXZ 000000018000cc40 f i OposConstants.obj
 0001:0000bca0       ?StrChrW@CRegParser@ATL@@KAPEA_WPEA_W_W@Z 000000018000cca0 f i OposConstants.obj
 0001:0000bd20       ?StrFromMap@CRegObject@ATL@@QEAAPEB_WPEA_W@Z 000000018000cd20 f i OposConstants.obj
 0001:0000bde0       ?T2COLE_EX@@YAPEB_WPEB_WI@Z 000000018000cde0 f i OposConstants.obj
 0001:0000be00       ?T2OLE_EX@@YAPEA_WPEA_WI@Z 000000018000ce00 f i OposConstants.obj
 0001:0000be20       ?Term@CAtlModule@ATL@@QEAAXXZ 000000018000ce20 f i OposConstants.obj
 0001:0000bee0       ?Term@CComModule@ATL@@QEAAXXZ 000000018000cee0 f i OposConstants.obj
 0001:0000bfd0       ?Unlock@?$CComCritSecLock@VCComCriticalSection@ATL@@@ATL@@QEAAXXZ 000000018000cfd0 f i OposConstants.obj
 0001:0000c060       ?Unlock@CAtlModule@ATL@@UEAAJXZ 000000018000d060 f i OposConstants.obj
 0001:0000c0a0       ?Unlock@CComCriticalSection@ATL@@QEAAJXZ 000000018000d0a0 f i OposConstants.obj
 0001:0000c0e0       ?Unlock@CComFakeCriticalSection@ATL@@QEAAJXZ 000000018000d0e0 f i OposConstants.obj
 0001:0000c0f0       ?UnregisterServer@?$CAtlModuleT@VCComModule@ATL@@@ATL@@QEAAJHPEBU_GUID@@@Z 000000018000d0f0 f i OposConstants.obj
 0001:0000c160       ?UnregisterServer@CAtlComModule@ATL@@QEAAJHPEBU_GUID@@@Z 000000018000d160 f i OposConstants.obj
 0001:0000c1a0       ?UnregisterServer@CComModule@ATL@@QEAAJHPEBU_GUID@@@Z 000000018000d1a0 f i OposConstants.obj
 0001:0000c290       ?UpdateRegistryFromResource@CAtlModule@ATL@@QEAAJIHPEAU_ATL_REGMAP_ENTRY@2@@Z 000000018000d290 f i OposConstants.obj
 0001:0000c7c0       ?UpdateRegistryFromResource@CAtlModule@ATL@@QEAAJPEB_WHPEAU_ATL_REGMAP_ENTRY@2@@Z 000000018000d7c0 f i OposConstants.obj
 0001:0000cd10       ?UpdateRegistryFromResource@CComModule@ATL@@UEAAJIHPEAU_ATL_REGMAP_ENTRY@2@@Z 000000018000dd10 f i OposConstants.obj
 0001:0000cd60       ?UpdateRegistryFromResource@CComModule@ATL@@UEAAJPEB_WHPEAU_ATL_REGMAP_ENTRY@2@@Z 000000018000dd60 f i OposConstants.obj
 0001:0000cdb0       ?UpdateRegistryFromResourceD@CComModule@ATL@@UEAAJIHPEAU_ATL_REGMAP_ENTRY@2@@Z 000000018000ddb0 f i OposConstants.obj
 0001:0000cdd0       ?UpdateRegistryFromResourceD@CComModule@ATL@@UEAAJPEB_WHPEAU_ATL_REGMAP_ENTRY@2@@Z 000000018000ddd0 f i OposConstants.obj
 0001:0000cdf0       ?VTFromRegType@CRegParser@ATL@@KAHPEB_WAEAG@Z 000000018000ddf0 f i OposConstants.obj
 0001:0000ced0       ?_AtlGetConversionACP@ATL@@YAIXZ 000000018000ded0 f i OposConstants.obj
 0001:0000cee0       ?atlCreate@CRegKey@ATL@@QEAAJPEAUHKEY__@@PEB_WPEA_WKKPEAU_SECURITY_ATTRIBUTES@@PEAK@Z 000000018000dee0 f i OposConstants.obj
 0001:0000d0d0       ?memcpy_s@Checked@ATL@@YAXPEAX_KPEBX1@Z 000000018000e0d0 f i OposConstants.obj
 0001:0000d130       ?ocscpy_s@@YA_NPEA_W_KPEB_W@Z 000000018000e130 f i OposConstants.obj
 0001:0000d1b0       ?ocslen@@YAHPEB_W@Z        000000018000e1b0 f i OposConstants.obj
 0001:0000d1f0       ?tcsncpy_s@Checked@ATL@@YAHPEA_W_KPEB_W1@Z 000000018000e1f0 f i OposConstants.obj
 0001:0000d250       ?wcscat_s@Checked@ATL@@YAXPEA_W_KPEB_W@Z 000000018000e250 f i OposConstants.obj
 0001:0000d2a0       ?wcscpy_s@Checked@ATL@@YAXPEA_W_KPEB_W@Z 000000018000e2a0 f i OposConstants.obj
 0001:0000d2f0       ?wcsncpy_s@Checked@ATL@@YAHPEA_W_KPEB_W1@Z 000000018000e2f0 f i OposConstants.obj
 0001:0000d350       ?wcsstr@@YAPEA_WPEA_WPEB_W@Z 000000018000e350 f i OposConstants.obj
 0001:0000d390       InlineIsEqualGUID          000000018000e390 f i OposConstants.obj
 0001:0000d460       IsEqualGUID                000000018000e460 f i OposConstants.obj
 0001:0000d4b8       DecodePointer              000000018000e4b8 f   kernel32:KERNEL32.dll
 0001:0000d4be       RaiseException             000000018000e4be f   kernel32:KERNEL32.dll
 0001:0000d4c4       GetLastError               000000018000e4c4 f   kernel32:KERNEL32.dll
 0001:0000d4ca       SetLastError               000000018000e4ca f   kernel32:KERNEL32.dll
 0001:0000d4d0       InitializeCriticalSectionEx 000000018000e4d0 f   kernel32:KERNEL32.dll
 0001:0000d4d6       DeleteCriticalSection      000000018000e4d6 f   kernel32:KERNEL32.dll
 0001:0000d4dc       EncodePointer              000000018000e4dc f   kernel32:KERNEL32.dll
 0001:0000d4e2       EnterCriticalSection       000000018000e4e2 f   kernel32:KERNEL32.dll
 0001:0000d4e8       LeaveCriticalSection       000000018000e4e8 f   kernel32:KERNEL32.dll
 0001:0000d4ee       DisableThreadLibraryCalls  000000018000e4ee f   kernel32:KERNEL32.dll
 0001:0000d4f4       FreeLibrary                000000018000e4f4 f   kernel32:KERNEL32.dll
 0001:0000d4fa       GetModuleFileNameW         000000018000e4fa f   kernel32:KERNEL32.dll
 0001:0000d500       GetModuleHandleW           000000018000e500 f   kernel32:KERNEL32.dll
 0001:0000d506       GetProcAddress             000000018000e506 f   kernel32:KERNEL32.dll
 0001:0000d50c       LoadLibraryExW             000000018000e50c f   kernel32:KERNEL32.dll
 0001:0000d512       LoadResource               000000018000e512 f   kernel32:KERNEL32.dll
 0001:0000d518       SizeofResource             000000018000e518 f   kernel32:KERNEL32.dll
 0001:0000d51e       lstrcmpiW                  000000018000e51e f   kernel32:KERNEL32.dll
 0001:0000d524       FindResourceW              000000018000e524 f   kernel32:KERNEL32.dll
 0001:0000d52a       MultiByteToWideChar        000000018000e52a f   kernel32:KERNEL32.dll
 0001:0000d530       UnregisterClassW           000000018000e530 f   user32:USER32.dll
 0001:0000d536       CharNextW                  000000018000e536 f   user32:USER32.dll
 0001:0000d53c       RegCloseKey                000000018000e53c f   advapi32:ADVAPI32.dll
 0001:0000d542       RegCreateKeyExW            000000018000e542 f   advapi32:ADVAPI32.dll
 0001:0000d548       RegDeleteKeyW              000000018000e548 f   advapi32:ADVAPI32.dll
 0001:0000d54e       RegDeleteValueW            000000018000e54e f   advapi32:ADVAPI32.dll
 0001:0000d554       RegEnumKeyExW              000000018000e554 f   advapi32:ADVAPI32.dll
 0001:0000d55a       RegOpenKeyExW              000000018000e55a f   advapi32:ADVAPI32.dll
 0001:0000d560       RegQueryInfoKeyW           000000018000e560 f   advapi32:ADVAPI32.dll
 0001:0000d566       RegSetValueExW             000000018000e566 f   advapi32:ADVAPI32.dll
 0001:0000d56c       CoCreateInstance           000000018000e56c f   ole32:ole32.dll
 0001:0000d572       StringFromGUID2            000000018000e572 f   ole32:ole32.dll
 0001:0000d578       CoTaskMemAlloc             000000018000e578 f   ole32:ole32.dll
 0001:0000d57e       CoTaskMemRealloc           000000018000e57e f   ole32:ole32.dll
 0001:0000d584       CoTaskMemFree              000000018000e584 f   ole32:ole32.dll
 0001:0000d58a       SysFreeString              000000018000e58a f   oleaut32:OLEAUT32.dll
 0001:0000d590       SysAllocString             000000018000e590 f   oleaut32:OLEAUT32.dll
 0001:0000d596       SysStringLen               000000018000e596 f   oleaut32:OLEAUT32.dll
 0001:0000d59c       VarUI4FromStr              000000018000e59c f   oleaut32:OLEAUT32.dll
 0001:0000d5a2       LoadTypeLib                000000018000e5a2 f   oleaut32:OLEAUT32.dll
 0001:0000d5a8       RegisterTypeLib            000000018000e5a8 f   oleaut32:OLEAUT32.dll
 0001:0000d5ae       UnRegisterTypeLib          000000018000e5ae f   oleaut32:OLEAUT32.dll
 0001:0000d5b4       ??$?2PEAUHINSTANCE__@@@Wrapper@?$CSimpleArray@PEAUHINSTANCE__@@V?$CSimpleArrayEqualHelper@PEAUHINSTANCE__@@@ATL@@@ATL@@SAPEAX_KPEAPEAUHINSTANCE__@@@Z 000000018000e5b4 f i atls:atlbase.obj
 0001:0000d5b8       ??0?$CSimpleArray@PEAUHINSTANCE__@@V?$CSimpleArrayEqualHelper@PEAUHINSTANCE__@@@ATL@@@ATL@@QEAA@XZ 000000018000e5b8 f i atls:atlbase.obj
 0001:0000d5c8       ??0CAtlBaseModule@ATL@@QEAA@XZ 000000018000e5c8 f   atls:atlbase.obj
 0001:0000d670       ??0Wrapper@?$CSimpleArray@PEAUHINSTANCE__@@V?$CSimpleArrayEqualHelper@PEAUHINSTANCE__@@@ATL@@@ATL@@QEAA@AEBQEAUHINSTANCE__@@@Z 000000018000e670 f i atls:atlbase.obj
 0001:0000d67c       ??0_ATL_BASE_MODULE70@ATL@@QEAA@XZ 000000018000e67c f i atls:atlbase.obj
 0001:0000d6a8       ??1?$CSimpleArray@PEAUHINSTANCE__@@V?$CSimpleArrayEqualHelper@PEAUHINSTANCE__@@@ATL@@@ATL@@QEAA@XZ 000000018000e6a8 f i atls:atlbase.obj
 0001:0000d6d0       ??1CAtlBaseModule@ATL@@QEAA@XZ 000000018000e6d0 f   atls:atlbase.obj
 0001:0000d704       ??1_ATL_BASE_MODULE70@ATL@@QEAA@XZ 000000018000e704 f i atls:atlbase.obj
 0001:0000d730       ??A?$CSimpleArray@PEAUHINSTANCE__@@V?$CSimpleArrayEqualHelper@PEAUHINSTANCE__@@@ATL@@@ATL@@QEAAAEAPEAUHINSTANCE__@@H@Z 000000018000e730 f i atls:atlbase.obj
 0001:0000d75c       ?Add@?$CSimpleArray@PEAUHINSTANCE__@@V?$CSimpleArrayEqualHelper@PEAUHINSTANCE__@@@ATL@@@ATL@@QEAAHAEBQEAUHINSTANCE__@@@Z 000000018000e75c f i atls:atlbase.obj
 0001:0000d810       ?AddResourceInstance@CAtlBaseModule@ATL@@QEAA_NPEAUHINSTANCE__@@@Z 000000018000e810 f   atls:atlbase.obj
 0001:0000d858       ?GetHInstanceAt@CAtlBaseModule@ATL@@QEAAPEAUHINSTANCE__@@H@Z 000000018000e858 f   atls:atlbase.obj
 0001:0000d8d0       ?GetSize@?$CSimpleArray@PEAUHINSTANCE__@@V?$CSimpleArrayEqualHelper@PEAUHINSTANCE__@@@ATL@@@ATL@@QEBAHXZ 000000018000e8d0 f i atls:atlbase.obj
 0001:0000d8d4       ?InternalSetAtIndex@?$CSimpleArray@PEAUHINSTANCE__@@V?$CSimpleArrayEqualHelper@PEAUHINSTANCE__@@@ATL@@@ATL@@QEAAXHAEBQEAUHINSTANCE__@@@Z 000000018000e8d4 f i atls:atlbase.obj
 0001:0000d8ec       ?RemoveAll@?$CSimpleArray@PEAUHINSTANCE__@@V?$CSimpleArrayEqualHelper@PEAUHINSTANCE__@@@ATL@@@ATL@@QEAAXXZ 000000018000e8ec f i atls:atlbase.obj
 0001:0000d914       ?RemoveAt@?$CSimpleArray@PEAUHINSTANCE__@@V?$CSimpleArrayEqualHelper@PEAUHINSTANCE__@@@ATL@@@ATL@@QEAAHH@Z 000000018000e914 f i atls:atlbase.obj
 0001:0000d9b8       ?RemoveResourceInstance@CAtlBaseModule@ATL@@QEAA_NPEAUHINSTANCE__@@@Z 000000018000e9b8 f   atls:atlbase.obj
 0001:0000da40       ?memmove_s@Checked@ATL@@YAXPEAX_KPEBX1@Z 000000018000ea40 f i atls:atlbase.obj
 0001:0000daf0       ??3@YAXPEAX_K@Z            000000018000eaf0 f   LIBCMTD:delete_scalar_size.obj
 0001:0000db10       ??_V@YAXPEAX_K@Z           000000018000eb10 f   LIBCMTD:delete_array_size.obj
 0001:0000db30       ??$__crt_fast_decode_pointer@PEAP6AXXZ@@YAPEAP6AXXZQEAP6AXXZ@Z 000000018000eb30 f i LIBCMTD:utility.obj
 0001:0000db70       ??$__crt_fast_encode_pointer@PEAP6AXXZ@@YAPEAP6AXXZQEAP6AXXZ@Z 000000018000eb70 f i LIBCMTD:utility.obj
 0001:0000dbb0       ?__crt_rotate_pointer_value@@YA_K_KH@Z 000000018000ebb0 f i LIBCMTD:utility.obj
 0001:0000dbd0       ?configure_argv@__scrt_narrow_argv_policy@@SAHXZ 000000018000ebd0 f i LIBCMTD:utility.obj
 0001:0000dcc0       ?initialize_environment@__scrt_narrow_environment_policy@@SAHXZ 000000018000ecc0 f i LIBCMTD:utility.obj
 0001:0000dd60       NtCurrentTeb               000000018000ed60 f i LIBCMTD:utility.obj
 0001:0000dd70       __scrt_acquire_startup_lock 000000018000ed70 f   LIBCMTD:utility.obj
 0001:0000dde0       __scrt_dllmain_after_initialize_c 000000018000ede0 f   LIBCMTD:utility.obj
 0001:0000de10       __scrt_dllmain_before_initialize_c 000000018000ee10 f   LIBCMTD:utility.obj
 0001:0000de30       __scrt_dllmain_crt_thread_attach 000000018000ee30 f   LIBCMTD:utility.obj
 0001:0000de60       __scrt_dllmain_crt_thread_detach 000000018000ee60 f   LIBCMTD:utility.obj
 0001:0000de80       __scrt_dllmain_exception_filter 000000018000ee80 f   LIBCMTD:utility.obj
 0001:0000dee0       __scrt_dllmain_uninitialize_c 000000018000eee0 f   LIBCMTD:utility.obj
 0001:0000df10       __scrt_dllmain_uninitialize_critical 000000018000ef10 f   LIBCMTD:utility.obj
 0001:0000df30       __scrt_initialize_crt      000000018000ef30 f   LIBCMTD:utility.obj
 0001:0000df80       __scrt_initialize_onexit_tables 000000018000ef80 f   LIBCMTD:utility.obj
 0001:0000e090       __scrt_is_nonwritable_in_current_image 000000018000f090 f   LIBCMTD:utility.obj
 0001:0000e120       __scrt_release_startup_lock 000000018000f120 f   LIBCMTD:utility.obj
 0001:0000e150       __scrt_uninitialize_crt    000000018000f150 f   LIBCMTD:utility.obj
 0001:0000e190       _onexit                    000000018000f190 f   LIBCMTD:utility.obj
 0001:0000e220       at_quick_exit              000000018000f220 f   LIBCMTD:utility.obj
 0001:0000e270       atexit                     000000018000f270 f   LIBCMTD:utility.obj
 0001:0000e2b0       _RTC_AllocaHelper          000000018000f2b0 f   LIBCMTD:stack.obj
 0001:0000e2f0       _RTC_CheckStackVars        000000018000f2f0 f   LIBCMTD:stack.obj
 0001:0000e380       _RTC_CheckStackVars2       000000018000f380 f   LIBCMTD:stack.obj
 0001:0000e490       _CRT_RTC_INIT              000000018000f490 f   LIBCMTD:init.obj
 0001:0000e4a0       _CRT_RTC_INITW             000000018000f4a0 f   LIBCMTD:init.obj
 0001:0000e4b0       _RTC_InitBase              000000018000f4b0 f   LIBCMTD:init.obj
 0001:0000e4f0       _RTC_Shutdown              000000018000f4f0 f   LIBCMTD:init.obj
 0001:0000e520       __GSHandlerCheck           000000018000f520 f   LIBCMTD:gshandler.obj
 0001:0000e560       __GSHandlerCheckCommon     000000018000f560 f   LIBCMTD:gshandler.obj
 0001:0000e670       __security_check_cookie    000000018000f670 f   LIBCMTD:amdsecgs.obj
 0001:0000e6a0       ??3@YAXPEAX@Z              000000018000f6a0 f   LIBCMTD:delete_scalar.obj
 0001:0000e6c0       ??_V@YAXPEAX@Z             000000018000f6c0 f   LIBCMTD:delete_array.obj
 0001:0000e6e0       __raise_securityfailure    000000018000f6e0 f   LIBCMTD:gs_report.obj
 0001:0000e720       __report_gsfailure         000000018000f720 f   LIBCMTD:gs_report.obj
 0001:0000e800       __report_rangecheckfailure 000000018000f800 f   LIBCMTD:gs_report.obj
 0001:0000e820       __report_securityfailure   000000018000f820 f   LIBCMTD:gs_report.obj
 0001:0000e8c0       __report_securityfailureEx 000000018000f8c0 f   LIBCMTD:gs_report.obj
 0001:0000eb30       ??_U@YAPEAX_KAEBUnothrow_t@std@@@Z 000000018000fb30 f   LIBCMTD:new_array_nothrow.obj
 0001:0000eb70       __chkstk                   000000018000fb70 f   LIBCMTD:chkstk.obj
 0001:0000eb70       _alloca_probe              000000018000fb70 f   LIBCMTD:chkstk.obj
 0001:0000efc0       _CRT_INIT                  000000018000ffc0 f   LIBCMTD:dll_dllmain.obj
 0001:0000eff0       _DllMainCRTStartup         000000018000fff0 f   LIBCMTD:dll_dllmain.obj
 0001:0000f030       _guard_check_icall_nop     0000000180010030 f i LIBCMTD:guard_support.obj
 0001:0000f040       ReadNoFence64              0000000180010040 f i LIBCMTD:guard_support.obj
 0001:0000f060       ReadPointerNoFence         0000000180010060 f i LIBCMTD:guard_support.obj
 0001:0000f080       _guard_icall_checks_enforced 0000000180010080 f i LIBCMTD:guard_support.obj
 0001:0000f0c0       _guard_rf_checks_enforced  00000001800100c0 f i LIBCMTD:guard_support.obj
 0001:0000f0d0       __isa_available_init       00000001800100d0 f   LIBCMTD:cpu_disp.obj
 0001:0000f440       _get_startup_argv_mode     0000000180010440 f   LIBCMTD:argv_mode.obj
 0001:0000f450       __scrt_is_ucrt_dll_in_use  0000000180010450 f   LIBCMTD:ucrt_detection.obj
 0001:0000f480       __crt_debugger_hook        0000000180010480 f   LIBCMTD:utility_desktop.obj
 0001:0000f490       __scrt_fastfail            0000000180010490 f   LIBCMTD:utility_desktop.obj
 0001:0000f630       __scrt_get_show_window_mode 0000000180010630 f   LIBCMTD:utility_desktop.obj
 0001:0000f690       __scrt_initialize_mta      0000000180010690 f   LIBCMTD:utility_desktop.obj
 0001:0000f6a0       __scrt_initialize_winrt    00000001800106a0 f   LIBCMTD:utility_desktop.obj
 0001:0000f6b0       __scrt_is_managed_app      00000001800106b0 f   LIBCMTD:utility_desktop.obj
 0001:0000f760       __scrt_set_unhandled_exception_filter 0000000180010760 f   LIBCMTD:utility_desktop.obj
 0001:0000f780       __scrt_exe_initialize_mta  0000000180010780 f   LIBCMTD:utility_desktop.obj
 0001:0000f780       __scrt_stub_for_initialize_mta 0000000180010780 f   LIBCMTD:utility_desktop.obj
 0001:0000f790       __scrt_unhandled_exception_filter 0000000180010790 f   LIBCMTD:utility_desktop.obj
 0001:0000f8a0       ?_RTC_AllocaFailure@@YAXPEAXPEAU_RTC_ALLOCA_NODE@@H@Z 00000001800108a0 f   LIBCMTD:error.obj
 0001:0000fa00       ?_RTC_Failure@@YAXPEAXH@Z  0000000180010a00 f   LIBCMTD:error.obj
 0001:0000fa50       ?_RTC_StackFailure@@YAXPEAXPEBD@Z 0000000180010a50 f   LIBCMTD:error.obj
 0001:0000fe80       _RTC_UninitUse             0000000180010e80 f   LIBCMTD:error.obj
 0001:0000ff50       _vsprintf_s_l              0000000180010f50 f i LIBCMTD:error.obj
 0001:0000ffc0       sprintf_s                  0000000180010fc0 f i LIBCMTD:error.obj
 0001:0000fff0       ?_RTC_GetErrorFunc@@YAP6AHHPEBDH00ZZPEBX@Z 0000000180010ff0 f   LIBCMTD:userapi.obj
 0001:00010000       ?_RTC_GetErrorFuncW@@YAP6AHHPEB_WH00ZZPEBX@Z 0000000180011000 f   LIBCMTD:userapi.obj
 0001:00010010       _RTC_GetErrDesc            0000000180011010 f   LIBCMTD:userapi.obj
 0001:00010030       _RTC_NumErrors             0000000180011030 f   LIBCMTD:userapi.obj
 0001:00010040       _RTC_SetErrorFunc          0000000180011040 f   LIBCMTD:userapi.obj
 0001:00010060       _RTC_SetErrorFuncW         0000000180011060 f   LIBCMTD:userapi.obj
 0001:00010080       _RTC_SetErrorType          0000000180011080 f   LIBCMTD:userapi.obj
 0001:000100a0       ??2@YAPEAX_KAEBUnothrow_t@std@@@Z 00000001800110a0 f   LIBCMTD:new_scalar_nothrow.obj
 0001:000101a0       __security_init_cookie     00000001800111a0 f   LIBCMTD:gs_support.obj
 0001:00010220       ?__scrt_initialize_type_info@@YAXXZ 0000000180011220 f   LIBCMTD:tncleanup.obj
 0001:00010240       ?__scrt_uninitialize_type_info@@YAXXZ 0000000180011240 f   LIBCMTD:tncleanup.obj
 0001:00010260       __local_stdio_scanf_options 0000000180011260 f i LIBCMTD:default_local_stdio_options.obj
 0001:00010270       __scrt_initialize_default_local_stdio_options 0000000180011270 f   LIBCMTD:default_local_stdio_options.obj
 0001:000102c0       __scrt_get_dyn_tls_init_callback 00000001800112c0 f   LIBCMTD:dyn_tls_init.obj
 0001:000102d0       _RTC_Initialize            00000001800112d0 f   LIBCMTD:initsect.obj
 0001:00010320       _RTC_Terminate             0000000180011320 f   LIBCMTD:initsect.obj
 0001:00010880       ?_RTC_GetSrcLine@@YAHPEAEPEA_WKPEAH1K@Z 0000000180011880 f   LIBCMTD:pdblkup.obj
 0001:00010c50       ??2@YAPEAX_K@Z             0000000180011c50 f   LIBCMTD:new_scalar.obj
 0001:00010ca0       ??0bad_alloc@std@@AEAA@QEBD@Z 0000000180011ca0 f i LIBCMTD:throw_bad_alloc.obj
 0001:00010ce0       ??0bad_alloc@std@@QEAA@AEBV01@@Z 0000000180011ce0 f i LIBCMTD:throw_bad_alloc.obj
 0001:00010d20       ??0bad_alloc@std@@QEAA@XZ  0000000180011d20 f i LIBCMTD:throw_bad_alloc.obj
 0001:00010d60       ??0bad_array_new_length@std@@QEAA@AEBV01@@Z 0000000180011d60 f i LIBCMTD:throw_bad_alloc.obj
 0001:00010da0       ??0bad_array_new_length@std@@QEAA@XZ 0000000180011da0 f i LIBCMTD:throw_bad_alloc.obj
 0001:00010de0       ??0exception@std@@QEAA@AEBV01@@Z 0000000180011de0 f i LIBCMTD:throw_bad_alloc.obj
 0001:00010e40       ??0exception@std@@QEAA@QEBDH@Z 0000000180011e40 f i LIBCMTD:throw_bad_alloc.obj
 0001:00010e90       ??1bad_alloc@std@@UEAA@XZ  0000000180011e90 f i LIBCMTD:throw_bad_alloc.obj
 0001:00010eb0       ??1bad_array_new_length@std@@UEAA@XZ 0000000180011eb0 f i LIBCMTD:throw_bad_alloc.obj
 0001:00010ed0       ??1exception@std@@UEAA@XZ  0000000180011ed0 f i LIBCMTD:throw_bad_alloc.obj
 0001:00010f00       ??_Ebad_alloc@std@@UEAAPEAXI@Z 0000000180011f00 f i LIBCMTD:throw_bad_alloc.obj
 0001:00010f00       ??_Gbad_alloc@std@@UEAAPEAXI@Z 0000000180011f00 f i LIBCMTD:throw_bad_alloc.obj
 0001:00010f40       ??_Gbad_array_new_length@std@@UEAAPEAXI@Z 0000000180011f40 f i LIBCMTD:throw_bad_alloc.obj
 0001:00010f40       ??_Ebad_array_new_length@std@@UEAAPEAXI@Z 0000000180011f40 f i LIBCMTD:throw_bad_alloc.obj
 0001:00010f80       ??_Gexception@std@@UEAAPEAXI@Z 0000000180011f80 f i LIBCMTD:throw_bad_alloc.obj
 0001:00010f80       ??_Eexception@std@@UEAAPEAXI@Z 0000000180011f80 f i LIBCMTD:throw_bad_alloc.obj
 0001:00010fc0       ?__scrt_throw_std_bad_alloc@@YAXXZ 0000000180011fc0 f   LIBCMTD:throw_bad_alloc.obj
 0001:00010ff0       ?__scrt_throw_std_bad_array_new_length@@YAXXZ 0000000180011ff0 f   LIBCMTD:throw_bad_alloc.obj
 0001:00011020       ?what@exception@std@@UEBAPEBDXZ 0000000180012020 f i LIBCMTD:throw_bad_alloc.obj
 0001:00011060       ??1type_info@@UEAA@XZ      0000000180012060 f   LIBCMTD:std_type_info_static.obj
 0001:00011080       ??_Gtype_info@@UEAAPEAXI@Z 0000000180012080 f i LIBCMTD:std_type_info_static.obj
 0001:00011080       ??_Etype_info@@UEAAPEAXI@Z 0000000180012080 f i LIBCMTD:std_type_info_static.obj
 0001:000110d0       memset_repmovs             00000001800120d0 f   libvcruntimed:memset.obj
 0001:000110f0       memset                     00000001800120f0 f   libvcruntimed:memset.obj
 0001:00011290       memcmp                     0000000180012290 f   libvcruntimed:memcmp.obj
 0001:00011370       memcpy_repmovs             0000000180012370 f   libvcruntimed:memcpy.obj
 0001:00011390       memcpy                     0000000180012390 f   libvcruntimed:memcpy.obj
 0001:00011390       memmove                    0000000180012390 f   libvcruntimed:memcpy.obj
 0001:000117d0       wcsstr                     00000001800127d0 f   libvcruntimed:wcsstr.obj
 0001:00011e30       __vcrt_initialize          0000000180012e30 f   libvcruntimed:initialization.obj
 0001:00011e70       __vcrt_thread_attach       0000000180012e70 f   libvcruntimed:initialization.obj
 0001:00011e90       __vcrt_thread_detach       0000000180012e90 f   libvcruntimed:initialization.obj
 0001:00011eb0       __vcrt_uninitialize        0000000180012eb0 f   libvcruntimed:initialization.obj
 0001:00011ee0       __vcrt_uninitialize_critical 0000000180012ee0 f   libvcruntimed:initialization.obj
 0001:00011f00       __C_specific_handler       0000000180012f00 f   libvcruntimed:riscchandler.obj
 0001:00012340       __C_specific_handler_noexcept 0000000180013340 f   libvcruntimed:chandler_noexcept.obj
 0001:000123b0       ??$?0AEAViterator@TryBlockMap@__FrameHandler3@@AEAV012@$0A@@?$pair@Viterator@TryBlockMap@__FrameHandler3@@V123@@std@@QEAA@AEAViterator@TryBlockMap@__FrameHandler3@@0@Z 00000001800133b0 f i libvcruntimed:risctrnsctrl.obj
 0001:00012410       ??$?0AEAViterator@TryBlockMap@__FrameHandler4@@AEAV012@$0A@@?$pair@Viterator@TryBlockMap@__FrameHandler4@@V123@@std@@QEAA@AEAViterator@TryBlockMap@__FrameHandler4@@0@Z 0000000180013410 f i libvcruntimed:risctrnsctrl.obj
 0001:000125d0       ??$_CallSETranslator@V__FrameHandler3@@@@YAHPEAUEHExceptionRecord@@PEA_KPEAU_CONTEXT@@PEAU_xDISPATCHER_CONTEXT@@PEBU_s_FuncInfo@@K1@Z 00000001800135d0 f i libvcruntimed:risctrnsctrl.obj
 0001:00012650       ??$_CallSETranslator@V__FrameHandler4@@@@YAHPEAUEHExceptionRecord@@PEA_KPEAU_CONTEXT@@PEAU_xDISPATCHER_CONTEXT@@PEAUFuncInfo4@@K1@Z 0000000180013650 f i libvcruntimed:risctrnsctrl.obj
 0001:000126d0       ??$forward@AEAViterator@TryBlockMap@__FrameHandler3@@@std@@YAAEAViterator@TryBlockMap@__FrameHandler3@@AEAV123@@Z 00000001800136d0 f i libvcruntimed:risctrnsctrl.obj
 0001:000126e0       ??$forward@AEAViterator@TryBlockMap@__FrameHandler4@@@std@@YAAEAViterator@TryBlockMap@__FrameHandler4@@AEAV123@@Z 00000001800136e0 f i libvcruntimed:risctrnsctrl.obj
 0001:000126f0       ??0FuncInfo4@@QEAA@XZ      00000001800136f0 f i libvcruntimed:risctrnsctrl.obj
 0001:00012740       ??0iterator@TryBlockMap@__FrameHandler3@@QEAA@AEAV12@I@Z 0000000180013740 f i libvcruntimed:risctrnsctrl.obj
 0001:00012770       ??0iterator@TryBlockMap@__FrameHandler4@@QEAA@AEAV12@I@Z 0000000180013770 f i libvcruntimed:risctrnsctrl.obj
 0001:000127a0       ??4iterator@TryBlockMap@__FrameHandler4@@QEAAAEAV012@AEBV012@@Z 00000001800137a0 f i libvcruntimed:risctrnsctrl.obj
 0001:000127c0       ??9iterator@TryBlockMap@__FrameHandler4@@QEBA_NAEBV012@@Z 00000001800137c0 f i libvcruntimed:risctrnsctrl.obj
 0001:00012800       ??Diterator@TryBlockMap@__FrameHandler4@@QEAAPEAUTryBlockMapEntry4@@XZ 0000000180013800 f i libvcruntimed:risctrnsctrl.obj
 0001:00012820       ??Eiterator@TryBlockMap@__FrameHandler4@@QEAAAEAV012@XZ 0000000180013820 f i libvcruntimed:risctrnsctrl.obj
 0001:00012860       ?CatchTryBlock@__FrameHandler3@@SAPEBU_s_TryBlockMapEntry@@PEBU_s_FuncInfo@@H@Z 0000000180013860 f   libvcruntimed:risctrnsctrl.obj
 0001:00012900       ?DecompFuncInfo@@YAXPEAEAEAUFuncInfo4@@@Z 0000000180013900 f i libvcruntimed:risctrnsctrl.obj
 0001:000129f0       ?DecompTryBlock@TryBlockMap@__FrameHandler4@@AEAAXXZ 00000001800139f0 f i libvcruntimed:risctrnsctrl.obj
 0001:00012a70       ?ExecutionInCatch@__FrameHandler3@@SA_NPEAU_xDISPATCHER_CONTEXT@@PEBU_s_FuncInfo@@@Z 0000000180013a70 f   libvcruntimed:risctrnsctrl.obj
 0001:00012ac0       ?ExecutionInCatch@__FrameHandler4@@SA_NPEAU_xDISPATCHER_CONTEXT@@PEAUFuncInfo4@@@Z 0000000180013ac0 f   libvcruntimed:risctrnsctrl.obj
 0001:00012b00       ?FrameUnwindToEmptyState@__FrameHandler3@@SAXPEA_KPEAU_xDISPATCHER_CONTEXT@@PEBU_s_FuncInfo@@@Z 0000000180013b00 f   libvcruntimed:risctrnsctrl.obj
 0001:00012ba0       ?FrameUnwindToEmptyState@__FrameHandler4@@SAXPEA_KPEAU_xDISPATCHER_CONTEXT@@PEAUFuncInfo4@@@Z 0000000180013ba0 f   libvcruntimed:risctrnsctrl.obj
 0001:00012bf0       ?GetEstablisherFrame@__FrameHandler3@@SAPEA_KPEA_KPEAU_xDISPATCHER_CONTEXT@@PEBU_s_FuncInfo@@0@Z 0000000180013bf0 f   libvcruntimed:risctrnsctrl.obj
 0001:00012d60       ?GetEstablisherFrame@__FrameHandler4@@SAPEA_KPEA_KPEAU_xDISPATCHER_CONTEXT@@PEAUFuncInfo4@@0@Z 0000000180013d60 f   libvcruntimed:risctrnsctrl.obj
 0001:00012dd0       ?GetRangeOfTrysToCheck@__FrameHandler3@@SA?AU?$pair@Viterator@TryBlockMap@__FrameHandler3@@V123@@std@@AEAVTryBlockMap@1@HH@Z 0000000180013dd0 f   libvcruntimed:risctrnsctrl.obj
 0001:00013020       ?GetRangeOfTrysToCheck@__FrameHandler4@@SA?AU?$pair@Viterator@TryBlockMap@__FrameHandler4@@V123@@std@@AEAVTryBlockMap@1@HH@Z 0000000180014020 f   libvcruntimed:risctrnsctrl.obj
 0001:000131b0       ?ReadInt@@YAHPEAPEAE@Z     00000001800141b0 f i libvcruntimed:risctrnsctrl.obj
 0001:000131f0       ?ReadUnsigned@@YAIPEAPEAE@Z 00000001800141f0 f i libvcruntimed:risctrnsctrl.obj
 0001:00013280       ?UnwindNestedFrames@__FrameHandler3@@SAXPEA_KPEAUEHExceptionRecord@@PEAU_CONTEXT@@0PEAXPEBU_s_FuncInfo@@HHPEBU_s_HandlerType@@PEAU_xDISPATCHER_CONTEXT@@E@Z 0000000180014280 f   libvcruntimed:risctrnsctrl.obj
 0001:000133f0       ?UnwindNestedFrames@__FrameHandler4@@SAXPEA_KPEAUEHExceptionRecord@@PEAU_CONTEXT@@0PEAXPEAUFuncInfo4@@HHPEAUHandlerType4@@PEAU_xDISPATCHER_CONTEXT@@E@Z 00000001800143f0 f   libvcruntimed:risctrnsctrl.obj
 0001:00013620       ?__FuncToImageRelOffset@@YA_KPEAU_xDISPATCHER_CONTEXT@@I@Z 0000000180014620 f   libvcruntimed:risctrnsctrl.obj
 0001:00013650       ?begin@TryBlockMap@__FrameHandler4@@QEAA?AViterator@12@XZ 0000000180014650 f i libvcruntimed:risctrnsctrl.obj
 0001:00013680       ?end@TryBlockMap@__FrameHandler4@@QEAA?AViterator@12@XZ 0000000180014680 f i libvcruntimed:risctrnsctrl.obj
 0001:000136b0       ?getFuncInfo@TryBlockMap@__FrameHandler3@@QEAAPEBU_s_FuncInfo@@XZ 00000001800146b0 f i libvcruntimed:risctrnsctrl.obj
 0001:000136c0       ?getpDC@TryBlockMap@__FrameHandler3@@QEAAPEAU_xDISPATCHER_CONTEXT@@XZ 00000001800146c0 f i libvcruntimed:risctrnsctrl.obj
 0001:000136d0       ?incrementToSentinel@iterator@TryBlockMap@__FrameHandler4@@QEAAXXZ 00000001800146d0 f i libvcruntimed:risctrnsctrl.obj
 0001:000136f0       ?setBuffer@TryBlockMap@__FrameHandler4@@QEAAXViterator@12@@Z 00000001800146f0 f i libvcruntimed:risctrnsctrl.obj
 0001:00013760       _CreateFrameInfo           0000000180014760 f   libvcruntimed:risctrnsctrl.obj
 0001:000137d0       _FindAndUnlinkFrame        00000001800147d0 f   libvcruntimed:risctrnsctrl.obj
 0001:00013850       _GetImageBase              0000000180014850 f   libvcruntimed:risctrnsctrl.obj
 0001:00013870       _GetThrowImageBase         0000000180014870 f   libvcruntimed:risctrnsctrl.obj
 0001:00013890       _SetImageBase              0000000180014890 f   libvcruntimed:risctrnsctrl.obj
 0001:000138b0       _SetThrowImageBase         00000001800148b0 f   libvcruntimed:risctrnsctrl.obj
 0001:000138d0       __CxxFrameHandler          00000001800148d0 f   libvcruntimed:risctrnsctrl.obj
 0001:00013910       __CxxFrameHandler2         0000000180014910 f   libvcruntimed:risctrnsctrl.obj
 0001:00013950       __CxxFrameHandler3         0000000180014950 f   libvcruntimed:risctrnsctrl.obj
 0001:00013a10       __CxxFrameHandler4         0000000180014a10 f   libvcruntimed:risctrnsctrl.obj
 0001:00013b30       ??$?RD@__crt_internal_free_policy@@QEBAXQEBD@Z 0000000180014b30 f i libvcruntimed:std_type_info.obj
 0001:00013b60       ??$?RX@__crt_internal_free_policy@@QEBAXQEBX@Z 0000000180014b60 f i libvcruntimed:std_type_info.obj
 0001:00013b90       ??$__crt_interlocked_compare_exchange_pointer@$$CBDPEAD$$T@@YAPEBDPEDSEBDQEAD$$T@Z 0000000180014b90 f i libvcruntimed:std_type_info.obj
 0001:00013bd0       ??$__crt_interlocked_read_pointer@$$CBD@@YAPEBDPEDSEBD@Z 0000000180014bd0 f i libvcruntimed:std_type_info.obj
 0001:00013bf0       ??0?$__crt_unique_heap_ptr@DU__crt_internal_free_policy@@@@QEAA@QEAD@Z 0000000180014bf0 f i libvcruntimed:std_type_info.obj
 0001:00013c10       ??0?$__crt_unique_heap_ptr@XU__crt_internal_free_policy@@@@QEAA@QEAX@Z 0000000180014c10 f i libvcruntimed:std_type_info.obj
 0001:00013c30       ??1?$__crt_unique_heap_ptr@DU__crt_internal_free_policy@@@@QEAA@XZ 0000000180014c30 f i libvcruntimed:std_type_info.obj
 0001:00013c50       ??1?$__crt_unique_heap_ptr@XU__crt_internal_free_policy@@@@QEAA@XZ 0000000180014c50 f i libvcruntimed:std_type_info.obj
 0001:00013c90       ??B?$__crt_unique_heap_ptr@DU__crt_internal_free_policy@@@@QEBA_NXZ 0000000180014c90 f i libvcruntimed:std_type_info.obj
 0001:00013cb0       ??B?$__crt_unique_heap_ptr@XU__crt_internal_free_policy@@@@QEBA_NXZ 0000000180014cb0 f i libvcruntimed:std_type_info.obj
 0001:00013d30       ?__crt_interlocked_read_64@@YA_JPED_J@Z 0000000180014d30 f i libvcruntimed:std_type_info.obj
 0001:00013d50       ?detach@?$__crt_unique_heap_ptr@XU__crt_internal_free_policy@@@@QEAAPEAXXZ 0000000180014d50 f i libvcruntimed:std_type_info.obj
 0001:00013d80       ?get@?$__crt_unique_heap_ptr@DU__crt_internal_free_policy@@@@QEBAPEADXZ 0000000180014d80 f i libvcruntimed:std_type_info.obj
 0001:00013d90       ?get@?$__crt_unique_heap_ptr@XU__crt_internal_free_policy@@@@QEBAPEAXXZ 0000000180014d90 f i libvcruntimed:std_type_info.obj
 0001:00013da0       ?is_valid@?$__crt_unique_heap_ptr@DU__crt_internal_free_policy@@@@QEBA_NXZ 0000000180014da0 f i libvcruntimed:std_type_info.obj
 0001:00013dd0       ?is_valid@?$__crt_unique_heap_ptr@XU__crt_internal_free_policy@@@@QEBA_NXZ 0000000180014dd0 f i libvcruntimed:std_type_info.obj
 0001:00013e00       ?release@?$__crt_unique_heap_ptr@DU__crt_internal_free_policy@@@@QEAAXXZ 0000000180014e00 f i libvcruntimed:std_type_info.obj
 0001:00013e30       ?release@?$__crt_unique_heap_ptr@XU__crt_internal_free_policy@@@@QEAAXXZ 0000000180014e30 f i libvcruntimed:std_type_info.obj
 0001:00013e60       __std_type_info_compare    0000000180014e60 f   libvcruntimed:std_type_info.obj
 0001:00013ea0       __std_type_info_destroy_list 0000000180014ea0 f   libvcruntimed:std_type_info.obj
 0001:00013f00       __std_type_info_hash       0000000180014f00 f   libvcruntimed:std_type_info.obj
 0001:00013fb0       __std_type_info_name       0000000180014fb0 f   libvcruntimed:std_type_info.obj
 0001:000142a0       __vcrt_GetModuleFileNameW  00000001800152a0 f   libvcruntimed:winapi_thunks.obj
 0001:000142d0       __vcrt_GetModuleHandleW    00000001800152d0 f   libvcruntimed:winapi_thunks.obj
 0001:000142f0       __vcrt_LoadLibraryExW      00000001800152f0 f   libvcruntimed:winapi_thunks.obj
 0001:00014320       ??$?RD@__crt_public_free_policy@@QEBAXQEBD@Z 0000000180015320 f i libvcruntimed:std_exception.obj
 0001:00014340       ??0?$__crt_unique_heap_ptr@DU__crt_public_free_policy@@@@QEAA@QEAD@Z 0000000180015340 f i libvcruntimed:std_exception.obj
 0001:00014360       ??1?$__crt_unique_heap_ptr@DU__crt_public_free_policy@@@@QEAA@XZ 0000000180015360 f i libvcruntimed:std_exception.obj
 0001:00014380       ??B?$__crt_unique_heap_ptr@DU__crt_public_free_policy@@@@QEBA_NXZ 0000000180015380 f i libvcruntimed:std_exception.obj
 0001:000143a0       ?detach@?$__crt_unique_heap_ptr@DU__crt_public_free_policy@@@@QEAAPEADXZ 00000001800153a0 f i libvcruntimed:std_exception.obj
 0001:000143d0       ?get@?$__crt_unique_heap_ptr@DU__crt_public_free_policy@@@@QEBAPEADXZ 00000001800153d0 f i libvcruntimed:std_exception.obj
 0001:000143e0       ?is_valid@?$__crt_unique_heap_ptr@DU__crt_public_free_policy@@@@QEBA_NXZ 00000001800153e0 f i libvcruntimed:std_exception.obj
 0001:00014410       ?release@?$__crt_unique_heap_ptr@DU__crt_public_free_policy@@@@QEAAXXZ 0000000180015410 f i libvcruntimed:std_exception.obj
 0001:00014440       __std_exception_copy       0000000180015440 f   libvcruntimed:std_exception.obj
 0001:00014570       __std_exception_destroy    0000000180015570 f   libvcruntimed:std_exception.obj
 0001:000145b0       _CxxThrowException         00000001800155b0 f   libvcruntimed:throw.obj
 0001:00014700       ??$?RU__vcrt_ptd@@@__crt_internal_free_policy@@QEBAXQEBU__vcrt_ptd@@@Z 0000000180015700 f i libvcruntimed:per_thread_data.obj
 0001:00014730       ??0?$__crt_unique_heap_ptr@U__vcrt_ptd@@U__crt_internal_free_policy@@@@QEAA@QEAU__vcrt_ptd@@@Z 0000000180015730 f i libvcruntimed:per_thread_data.obj
 0001:00014770       ??1?$__crt_unique_heap_ptr@U__vcrt_ptd@@U__crt_internal_free_policy@@@@QEAA@XZ 0000000180015770 f i libvcruntimed:per_thread_data.obj
 0001:000147b0       ??B?$__crt_unique_heap_ptr@U__vcrt_ptd@@U__crt_internal_free_policy@@@@QEBA_NXZ 00000001800157b0 f i libvcruntimed:per_thread_data.obj
 0001:000147d0       ?detach@?$__crt_unique_heap_ptr@U__vcrt_ptd@@U__crt_internal_free_policy@@@@QEAAPEAU__vcrt_ptd@@XZ 00000001800157d0 f i libvcruntimed:per_thread_data.obj
 0001:00014800       ?get@?$__crt_unique_heap_ptr@U__vcrt_ptd@@U__crt_internal_free_policy@@@@QEBAPEAU__vcrt_ptd@@XZ 0000000180015800 f i libvcruntimed:per_thread_data.obj
 0001:00014810       ?is_valid@?$__crt_unique_heap_ptr@U__vcrt_ptd@@U__crt_internal_free_policy@@@@QEBA_NXZ 0000000180015810 f i libvcruntimed:per_thread_data.obj
 0001:00014840       ?release@?$__crt_unique_heap_ptr@U__vcrt_ptd@@U__crt_internal_free_policy@@@@QEAAXXZ 0000000180015840 f i libvcruntimed:per_thread_data.obj
 0001:000148c0       __vcrt_freefls             00000001800158c0 f   libvcruntimed:per_thread_data.obj
 0001:00014900       __vcrt_freeptd             0000000180015900 f   libvcruntimed:per_thread_data.obj
 0001:00014960       __vcrt_getptd              0000000180015960 f   libvcruntimed:per_thread_data.obj
 0001:00014990       __vcrt_getptd_noexit       0000000180015990 f   libvcruntimed:per_thread_data.obj
 0001:00014b30       __vcrt_getptd_noinit       0000000180015b30 f   libvcruntimed:per_thread_data.obj
 0001:00014b90       __vcrt_initialize_ptd      0000000180015b90 f   libvcruntimed:per_thread_data.obj
 0001:00014be0       __vcrt_uninitialize_ptd    0000000180015be0 f   libvcruntimed:per_thread_data.obj
 0001:00014c10       __vcrt_initialize_locks    0000000180015c10 f   libvcruntimed:locks.obj
 0001:00014c80       __vcrt_lock                0000000180015c80 f   libvcruntimed:locks.obj
 0001:00014cb0       __vcrt_uninitialize_locks  0000000180015cb0 f   libvcruntimed:locks.obj
 0001:00014d10       __vcrt_unlock              0000000180015d10 f   libvcruntimed:locks.obj
 0001:00014d40       ??$?BX@__crt_fast_encoded_nullptr_t@@QEBAPEAXXZ 0000000180015d40 f i libvcruntimed:winapi_downlevel.obj
 0001:00014d60       ??$__crt_fast_decode_pointer@PEAX@@YAPEAXQEAX@Z 0000000180015d60 f i libvcruntimed:winapi_downlevel.obj
 0001:00014da0       ??$__crt_fast_encode_pointer@PEAX@@YAPEAXQEAX@Z 0000000180015da0 f i libvcruntimed:winapi_downlevel.obj
 0001:00014de0       ??$__crt_interlocked_exchange_pointer@UHINSTANCE__@@PEAU1@@@YAPEAUHINSTANCE__@@PEDSEAU0@QEAU0@@Z 0000000180015de0 f i libvcruntimed:winapi_downlevel.obj
 0001:00014e00       ??$__crt_interlocked_exchange_pointer@UHINSTANCE__@@PEAX@@YAPEAUHINSTANCE__@@PEDSEAU0@QEAX@Z 0000000180015e00 f i libvcruntimed:winapi_downlevel.obj
 0001:00014e20       ??$__crt_interlocked_exchange_pointer@XPEAX@@YAPEAXPEDSEAXQEAX@Z 0000000180015e20 f i libvcruntimed:winapi_downlevel.obj
 0001:00014e40       ??$__crt_interlocked_read_pointer@UHINSTANCE__@@@@YAPEAUHINSTANCE__@@PEDSEAU0@@Z 0000000180015e40 f i libvcruntimed:winapi_downlevel.obj
 0001:00014e60       ??$__crt_interlocked_read_pointer@X@@YAPEAXPEDSEAX@Z 0000000180015e60 f i libvcruntimed:winapi_downlevel.obj
 0001:00014e80       ?__crt_fast_encode_pointer@@YA?AU__crt_fast_encoded_nullptr_t@@$$T@Z 0000000180015e80 f i libvcruntimed:winapi_downlevel.obj
 0001:000153e0       __vcrt_FlsAlloc            00000001800163e0 f   libvcruntimed:winapi_downlevel.obj
 0001:00015430       __vcrt_FlsFree             0000000180016430 f   libvcruntimed:winapi_downlevel.obj
 0001:00015480       __vcrt_FlsGetValue         0000000180016480 f   libvcruntimed:winapi_downlevel.obj
 0001:000154d0       __vcrt_FlsSetValue         00000001800164d0 f   libvcruntimed:winapi_downlevel.obj
 0001:00015530       __vcrt_InitializeCriticalSectionEx 0000000180016530 f   libvcruntimed:winapi_downlevel.obj
 0001:00015590       __vcrt_initialize_winapi_thunks 0000000180016590 f   libvcruntimed:winapi_downlevel.obj
 0001:00015610       __vcrt_uninitialize_winapi_thunks 0000000180016610 f   libvcruntimed:winapi_downlevel.obj
 0001:000156b0       ??$?B$$A6AXXZ@__crt_fast_encoded_nullptr_t@@QEBAP6AXXZXZ 00000001800166b0 f i libvcruntimed:purevirt_data.obj
 0001:000156d0       ??$__crt_fast_encode_pointer@P6AXXZ@@YAP6AXXZQ6AXXZ@Z 00000001800166d0 f i libvcruntimed:purevirt_data.obj
 0001:00015710       __vcrt_initialize_pure_virtual_call_handler 0000000180016710 f   libvcruntimed:purevirt_data.obj
 0001:00015750       _NLG_Notify                0000000180016750 f   libvcruntimed:notify.obj
 0001:00015770       __NLG_Dispatch2            0000000180016770 f   libvcruntimed:notify.obj
 0001:00015780       __NLG_Return2              0000000180016780 f   libvcruntimed:notify.obj
 0001:000157a0       __except_validate_context_record 00000001800167a0 f   libvcruntimed:jbcxrval.obj
 0001:00015800       __except_validate_jump_buffer 0000000180016800 f   libvcruntimed:jbcxrval.obj
 0001:00015820       __except_validate_jump_buffer_common 0000000180016820 f i libvcruntimed:jbcxrval.obj
 0001:000158a0       __DestructExceptionObject  00000001800168a0 f   libvcruntimed:ehhelpers.obj
 0001:000159a0       ?_CallMemberFunction0@@YAXQEAX0@Z 00000001800169a0 f i libvcruntimed:ehhelpers.obj
 0001:000159d0       ?raw_name@type_info@@QEBAPEBDXZ 00000001800169d0 f i libvcruntimed:ehhelpers.obj
 0001:000159e0       _IsExceptionObjectToBeDestroyed 00000001800169e0 f   libvcruntimed:ehhelpers.obj
 0001:00015a30       _SetWinRTOutOfMemoryExceptionCallback 0000000180016a30 f   libvcruntimed:ehhelpers.obj
 0001:00015a50       __AdjustPointer            0000000180016a50 f   libvcruntimed:ehhelpers.obj
 0001:00015ad0       __FrameUnwindFilter        0000000180016ad0 f   libvcruntimed:ehhelpers.obj
 0001:00015b60       __GetPlatformExceptionInfo 0000000180016b60 f   libvcruntimed:ehhelpers.obj
 0001:00015c10       __current_exception        0000000180016c10 f   libvcruntimed:ehhelpers.obj
 0001:00015c30       __current_exception_context 0000000180016c30 f   libvcruntimed:ehhelpers.obj
 0001:00015c50       __processing_throw         0000000180016c50 f   libvcruntimed:ehhelpers.obj
 0001:00015c70       __std_terminate            0000000180016c70 f   libvcruntimed:ehhelpers.obj
 0001:00015c80       _is_exception_typeof       0000000180016c80 f   libvcruntimed:ehhelpers.obj
 0001:00015dd0       ?GetCurrentState@__FrameHandler3@@SAHPEA_KPEAU_xDISPATCHER_CONTEXT@@PEBU_s_FuncInfo@@@Z 0000000180016dd0 f   libvcruntimed:ehstate.obj
 0001:00015e30       ?GetUnwindTryBlock@__FrameHandler3@@SAHPEA_KPEAU_xDISPATCHER_CONTEXT@@PEBU_s_FuncInfo@@@Z 0000000180016e30 f   libvcruntimed:ehstate.obj
 0001:00015e80       ?SetState@__FrameHandler3@@SAXPEA_KPEBU_s_FuncInfo@@H@Z 0000000180016e80 f   libvcruntimed:ehstate.obj
 0001:00015eb0       ?SetUnwindTryBlock@__FrameHandler3@@SAXPEA_KPEAU_xDISPATCHER_CONTEXT@@PEBU_s_FuncInfo@@H@Z 0000000180016eb0 f   libvcruntimed:ehstate.obj
 0001:00015f20       ?StateFromControlPc@__FrameHandler3@@SAHPEBU_s_FuncInfo@@PEAU_xDISPATCHER_CONTEXT@@@Z 0000000180016f20 f   libvcruntimed:ehstate.obj
 0001:00015f60       ?StateFromControlPc@__FrameHandler4@@SAHPEAUFuncInfo4@@PEAU_xDISPATCHER_CONTEXT@@@Z 0000000180016f60 f   libvcruntimed:ehstate.obj
 0001:00015fa0       ?StateFromIp@__FrameHandler3@@SAHPEBU_s_FuncInfo@@PEAU_xDISPATCHER_CONTEXT@@_K@Z 0000000180016fa0 f   libvcruntimed:ehstate.obj
 0001:00016090       ?StateFromIp@__FrameHandler4@@SAHPEAUFuncInfo4@@PEAU_xDISPATCHER_CONTEXT@@_K@Z 0000000180017090 f   libvcruntimed:ehstate.obj
 0001:00018360       ??$TypeMatchHelper@V__FrameHandler3@@@@YAHPEBU_s_HandlerType@@PEBU_s_CatchableType@@PEBU_s_ThrowInfo@@@Z 0000000180019360 f i libvcruntimed:frame.obj
 0001:00018550       ??$TypeMatchHelper@V__FrameHandler4@@@@YAHPEAUHandlerType4@@PEBU_s_CatchableType@@PEBU_s_ThrowInfo@@@Z 0000000180019550 f i libvcruntimed:frame.obj
 0001:00018740       ??$__InternalCxxFrameHandler@V__FrameHandler3@@@@YA?AW4_EXCEPTION_DISPOSITION@@PEAUEHExceptionRecord@@PEA_KPEAU_CONTEXT@@PEAU_xDISPATCHER_CONTEXT@@PEBU_s_FuncInfo@@H1E@Z 0000000180019740 f i libvcruntimed:frame.obj
 0001:00018bc0       ??$__InternalCxxFrameHandler@V__FrameHandler4@@@@YA?AW4_EXCEPTION_DISPOSITION@@PEAUEHExceptionRecord@@PEA_KPEAU_CONTEXT@@PEAU_xDISPATCHER_CONTEXT@@PEAUFuncInfo4@@H1E@Z 0000000180019bc0 f i libvcruntimed:frame.obj
 0001:00019060       ??0HandlerMap@__FrameHandler3@@QEAA@PEBU_s_TryBlockMapEntry@@PEAU_xDISPATCHER_CONTEXT@@@Z 000000018001a060 f i libvcruntimed:frame.obj
 0001:000190a0       ??0HandlerMap@__FrameHandler4@@QEAA@PEAUTryBlockMapEntry4@@PEAU_xDISPATCHER_CONTEXT@@@Z 000000018001a0a0 f i libvcruntimed:frame.obj
 0001:00019120       ??0HandlerType4@@QEAA@XZ   000000018001a120 f i libvcruntimed:frame.obj
 0001:00019140       ??0TryBlockMap@__FrameHandler3@@QEAA@PEBU_s_FuncInfo@@PEAU_xDISPATCHER_CONTEXT@@@Z 000000018001a140 f i libvcruntimed:frame.obj
 0001:00019170       ??0TryBlockMap@__FrameHandler4@@QEAA@PEAUFuncInfo4@@PEAU_xDISPATCHER_CONTEXT@@@Z 000000018001a170 f i libvcruntimed:frame.obj
 0001:00019200       ??0UWMap@@QEAA@PEAE@Z      000000018001a200 f i libvcruntimed:frame.obj
 0001:00019250       ??0bad_exception@std@@QEAA@AEBV01@@Z 000000018001a250 f i libvcruntimed:frame.obj
 0001:00019290       ??0bad_exception@std@@QEAA@XZ 000000018001a290 f i libvcruntimed:frame.obj
 0001:000192d0       ??0iterator@HandlerMap@__FrameHandler3@@QEAA@AEAV12@I@Z 000000018001a2d0 f i libvcruntimed:frame.obj
 0001:00019300       ??0iterator@HandlerMap@__FrameHandler4@@QEAA@AEAV12@I@Z 000000018001a300 f i libvcruntimed:frame.obj
 0001:00019330       ??0iterator@UWMap@@QEAA@AEAV1@PEAE@Z 000000018001a330 f i libvcruntimed:frame.obj
 0001:00019360       ??1bad_exception@std@@UEAA@XZ 000000018001a360 f i libvcruntimed:frame.obj
 0001:00019380       ??4iterator@UWMap@@QEAAAEAV01@AEBV01@@Z 000000018001a380 f i libvcruntimed:frame.obj
 0001:000193b0       ??8iterator@HandlerMap@__FrameHandler3@@QEBA_NAEBV012@@Z 000000018001a3b0 f i libvcruntimed:frame.obj
 0001:000193f0       ??8iterator@HandlerMap@__FrameHandler4@@QEBA_NAEBV012@@Z 000000018001a3f0 f i libvcruntimed:frame.obj
 0001:00019430       ??8type_info@@QEBA_NAEBV0@@Z 000000018001a430 f i libvcruntimed:frame.obj
 0001:00019480       ??9iterator@HandlerMap@__FrameHandler3@@QEBA_NAEBV012@@Z 000000018001a480 f i libvcruntimed:frame.obj
 0001:000194c0       ??9iterator@HandlerMap@__FrameHandler4@@QEBA_NAEBV012@@Z 000000018001a4c0 f i libvcruntimed:frame.obj
 0001:00019500       ??Diterator@HandlerMap@__FrameHandler3@@QEAAPEBU_s_HandlerType@@XZ 000000018001a500 f i libvcruntimed:frame.obj
 0001:00019530       ??Diterator@HandlerMap@__FrameHandler4@@QEAAPEAUHandlerType4@@XZ 000000018001a530 f i libvcruntimed:frame.obj
 0001:00019550       ??Diterator@TryBlockMap@__FrameHandler3@@QEAAPEBU_s_TryBlockMapEntry@@XZ 000000018001a550 f i libvcruntimed:frame.obj
 0001:00019590       ??Diterator@UWMap@@QEAA?AUUnwindMapEntry4@@XZ 000000018001a590 f i libvcruntimed:frame.obj
 0001:000195f0       ??Eiterator@HandlerMap@__FrameHandler3@@QEAAAEAV012@XZ 000000018001a5f0 f i libvcruntimed:frame.obj
 0001:00019610       ??Eiterator@HandlerMap@__FrameHandler4@@QEAAAEAV012@XZ 000000018001a610 f i libvcruntimed:frame.obj
 0001:00019650       ??Eiterator@TryBlockMap@__FrameHandler3@@QEAAAEAV012@XZ 000000018001a650 f i libvcruntimed:frame.obj
 0001:00019670       ??Eiterator@UWMap@@QEAAAEAV01@XZ 000000018001a670 f i libvcruntimed:frame.obj
 0001:000196b0       ??Giterator@UWMap@@QEBA_JAEBV01@@Z 000000018001a6b0 f i libvcruntimed:frame.obj
 0001:000196d0       ??Miterator@TryBlockMap@__FrameHandler3@@QEBA_NAEBV012@@Z 000000018001a6d0 f i libvcruntimed:frame.obj
 0001:00019710       ??Miterator@TryBlockMap@__FrameHandler4@@QEBA_NAEBV012@@Z 000000018001a710 f i libvcruntimed:frame.obj
 0001:00019750       ??Oiterator@UWMap@@QEBA_NAEBV01@@Z 000000018001a750 f i libvcruntimed:frame.obj
 0001:00019790       ??Piterator@UWMap@@QEBA_NAEBV01@@Z 000000018001a790 f i libvcruntimed:frame.obj
 0001:000197d0       ??_Ebad_exception@std@@UEAAPEAXI@Z 000000018001a7d0 f i libvcruntimed:frame.obj
 0001:000197d0       ??_Gbad_exception@std@@UEAAPEAXI@Z 000000018001a7d0 f i libvcruntimed:frame.obj
 0001:00019810       ?BuildCatchObject@__FrameHandler3@@SAXPEAUEHExceptionRecord@@PEAXPEBU_s_HandlerType@@PEBU_s_CatchableType@@@Z 000000018001a810 f   libvcruntimed:frame.obj
 0001:00019850       ?BuildCatchObject@__FrameHandler4@@SAXPEAUEHExceptionRecord@@PEAXPEAUHandlerType4@@PEBU_s_CatchableType@@@Z 000000018001a850 f   libvcruntimed:frame.obj
 0001:00019890       ?BuildCatchObjectHelper@__FrameHandler3@@SAHPEAUEHExceptionRecord@@PEAXPEBU_s_HandlerType@@PEBU_s_CatchableType@@@Z 000000018001a890 f   libvcruntimed:frame.obj
 0001:000198d0       ?BuildCatchObjectHelper@__FrameHandler4@@SAHPEAUEHExceptionRecord@@PEAXPEAUHandlerType4@@PEBU_s_CatchableType@@@Z 000000018001a8d0 f   libvcruntimed:frame.obj
 0001:00019910       ?CxxCallCatchBlock@__FrameHandler3@@SAPEAXPEAU_EXCEPTION_RECORD@@@Z 000000018001a910 f   libvcruntimed:frame.obj
 0001:00019b70       ?CxxCallCatchBlock@__FrameHandler4@@SAPEAXPEAU_EXCEPTION_RECORD@@@Z 000000018001ab70 f   libvcruntimed:frame.obj
 0001:00019eb0       ?DecompHandler@HandlerMap@__FrameHandler4@@AEAAXXZ 000000018001aeb0 f i libvcruntimed:frame.obj
 0001:0001a140       ?FrameUnwindToState@__FrameHandler3@@SAXPEA_KPEAU_xDISPATCHER_CONTEXT@@PEBU_s_FuncInfo@@H@Z 000000018001b140 f   libvcruntimed:frame.obj
 0001:0001a3d0       ?FrameUnwindToState@__FrameHandler4@@SAXPEA_KPEAU_xDISPATCHER_CONTEXT@@PEAUFuncInfo4@@H@Z 000000018001b3d0 f   libvcruntimed:frame.obj
 0001:0001a780       ?GetHandlerSearchState@__FrameHandler3@@SAHPEA_KPEAU_xDISPATCHER_CONTEXT@@PEBU_s_FuncInfo@@@Z 000000018001b780 f i libvcruntimed:frame.obj
 0001:0001a830       ?GetHandlerSearchState@__FrameHandler4@@SAHPEA_KPEAU_xDISPATCHER_CONTEXT@@PEAUFuncInfo4@@@Z 000000018001b830 f i libvcruntimed:frame.obj
 0001:0001a890       ?GetMaxState@__FrameHandler3@@SAHPEAU_xDISPATCHER_CONTEXT@@PEBU_s_FuncInfo@@@Z 000000018001b890 f i libvcruntimed:frame.obj
 0001:0001a8b0       ?GetMaxState@__FrameHandler4@@SAHPEAU_xDISPATCHER_CONTEXT@@PEAUFuncInfo4@@@Z 000000018001b8b0 f i libvcruntimed:frame.obj
 0001:0001ab10       ?ReadEntry@UWMap@@AEAAXXZ  000000018001bb10 f i libvcruntimed:frame.obj
 0001:0001abd0       ?TypeMatch@__FrameHandler3@@SAHPEBU_s_HandlerType@@PEBU_s_CatchableType@@PEBU_s_ThrowInfo@@@Z 000000018001bbd0 f   libvcruntimed:frame.obj
 0001:0001ac00       ?TypeMatch@__FrameHandler4@@SAHPEAUHandlerType4@@PEBU_s_CatchableType@@PEBU_s_ThrowInfo@@@Z 000000018001bc00 f   libvcruntimed:frame.obj
 0001:0001ac30       ?WalkBack@UWMap@@AEAAPEAEXZ 000000018001bc30 f i libvcruntimed:frame.obj
 0001:0001ac80       ?_CallMemberFunction1@@YAXQEAX00@Z 000000018001bc80 f i libvcruntimed:frame.obj
 0001:0001acb0       ?_CallMemberFunction2@@YAXQEAX00H@Z 000000018001bcb0 f i libvcruntimed:frame.obj
 0001:0001acf0       ?_ValidateExecute@@YA_NP6A_JXZ@Z 000000018001bcf0 f i libvcruntimed:frame.obj
 0001:0001ad10       ?_ValidateRead@@YA_NPEBXI@Z 000000018001bd10 f i libvcruntimed:frame.obj
 0001:0001ad30       ?_ValidateWrite@@YA_NPEAXI@Z 000000018001bd30 f i libvcruntimed:frame.obj
 0001:0001ad90       ?begin@HandlerMap@__FrameHandler3@@QEAA?AViterator@12@XZ 000000018001bd90 f i libvcruntimed:frame.obj
 0001:0001adc0       ?begin@HandlerMap@__FrameHandler4@@QEAA?AViterator@12@XZ 000000018001bdc0 f i libvcruntimed:frame.obj
 0001:0001adf0       ?begin@UWMap@@QEAA?AViterator@1@XZ 000000018001bdf0 f i libvcruntimed:frame.obj
 0001:0001ae20       ?end@HandlerMap@__FrameHandler3@@QEAA?AViterator@12@XZ 000000018001be20 f i libvcruntimed:frame.obj
 0001:0001ae50       ?end@HandlerMap@__FrameHandler4@@QEAA?AViterator@12@XZ 000000018001be50 f i libvcruntimed:frame.obj
 0001:0001ae80       ?getESTypes@__FrameHandler3@@SAPEBU_s_ESTypeList@@PEBU_s_FuncInfo@@@Z 000000018001be80 f i libvcruntimed:frame.obj
 0001:0001aec0       ?getESTypes@__FrameHandler4@@SAPEBU_s_ESTypeList@@PEAUFuncInfo4@@@Z 000000018001bec0 f i libvcruntimed:frame.obj
 0001:0001aed0       ?getLastEntry@HandlerMap@__FrameHandler3@@QEAAPEBU_s_HandlerType@@XZ 000000018001bed0 f i libvcruntimed:frame.obj
 0001:0001aef0       ?getLastEntry@HandlerMap@__FrameHandler4@@QEAAPEAUHandlerType4@@XZ 000000018001bef0 f i libvcruntimed:frame.obj
 0001:0001af30       ?getMagicNum@__FrameHandler3@@SAIPEBU_s_FuncInfo@@@Z 000000018001bf30 f i libvcruntimed:frame.obj
 0001:0001af50       ?getMagicNum@__FrameHandler4@@SAIPEAUFuncInfo4@@@Z 000000018001bf50 f i libvcruntimed:frame.obj
 0001:0001af60       ?getNumTryBlocks@TryBlockMap@__FrameHandler3@@QEAAIXZ 000000018001bf60 f i libvcruntimed:frame.obj
 0001:0001af80       ?getNumTryBlocks@TryBlockMap@__FrameHandler4@@QEAAIXZ 000000018001bf80 f i libvcruntimed:frame.obj
 0001:0001af90       ?getOffsetIter@UWMap@@QEAA?AViterator@1@_J@Z 000000018001bf90 f i libvcruntimed:frame.obj
 0001:0001afd0       ?getStartStop@UWMap@@QEAAXHHAEAViterator@1@0@Z 000000018001bfd0 f i libvcruntimed:frame.obj
 0001:0001b130       ?getStateIter@UWMap@@QEAA?AViterator@1@H@Z 000000018001c130 f i libvcruntimed:frame.obj
 0001:0001b1f0       ?isEHs@__FrameHandler3@@SA_NPEBU_s_FuncInfo@@@Z 000000018001c1f0 f i libvcruntimed:frame.obj
 0001:0001b230       ?isEHs@__FrameHandler4@@SA_NPEAUFuncInfo4@@@Z 000000018001c230 f i libvcruntimed:frame.obj
 0001:0001b250       ?isNoExcept@__FrameHandler3@@SA_NPEBU_s_FuncInfo@@@Z 000000018001c250 f i libvcruntimed:frame.obj
 0001:0001b290       ?isNoExcept@__FrameHandler4@@SA_NPEAUFuncInfo4@@@Z 000000018001c290 f i libvcruntimed:frame.obj
 0001:0001b2b0       ?reset@HandlerType4@@QEAAXXZ 000000018001c2b0 f i libvcruntimed:frame.obj
 0001:0001b310       ?resetBuffer@HandlerMap@__FrameHandler4@@QEAAXXZ 000000018001c310 f i libvcruntimed:frame.obj
 0001:0001b330       ?setBuffer@HandlerMap@__FrameHandler4@@QEAAXI@Z 000000018001c330 f i libvcruntimed:frame.obj
 0001:0001b390       __BuildCatchObject         000000018001c390 f   libvcruntimed:frame.obj
 0001:0001b3d0       __BuildCatchObjectHelper   000000018001c3d0 f   libvcruntimed:frame.obj
 0001:0001b410       __TypeMatch                000000018001c410 f   libvcruntimed:frame.obj
 0001:0001b440       __vcrt_EncodePointer       000000018001c440 f i libvcruntimed:frame.obj
 0001:0001b460       ??0Block@_HeapManager@@QEAA@XZ 000000018001c460 f i libvcruntimed:undname.obj
 0001:0001b480       ??0DName@@QEAA@AEAPEBDD@Z  000000018001c480 f   libvcruntimed:undname.obj
 0001:0001b730       ??0DName@@QEAA@AEBV0@@Z    000000018001c730 f i libvcruntimed:undname.obj
 0001:0001b760       ??0DName@@QEAA@D@Z         000000018001c760 f   libvcruntimed:undname.obj
 0001:0001b7b0       ??0DName@@QEAA@PEAV0@@Z    000000018001c7b0 f   libvcruntimed:undname.obj
 0001:0001b890       ??0DName@@QEAA@PEBD@Z      000000018001c890 f   libvcruntimed:undname.obj
 0001:0001b900       ??0DName@@QEAA@W4DNameStatus@@@Z 000000018001c900 f   libvcruntimed:undname.obj
 0001:0001b9b0       ??0DName@@QEAA@XZ          000000018001c9b0 f i libvcruntimed:undname.obj
 0001:0001b9e0       ??0DName@@QEAA@_J@Z        000000018001c9e0 f   libvcruntimed:undname.obj
 0001:0001baf0       ??0DName@@QEAA@_K@Z        000000018001caf0 f   libvcruntimed:undname.obj
 0001:0001bbc0       ??0DNameNode@@IEAA@XZ      000000018001cbc0 f i libvcruntimed:undname.obj
 0001:0001bbe0       ??0Replicator@@QEAA@XZ     000000018001cbe0 f i libvcruntimed:undname.obj
 0001:0001bc20       ??0UnDecorator@@QEAA@PEBDP6APEADJ@ZK@Z 000000018001cc20 f i libvcruntimed:undname.obj
 0001:0001bcd0       ??0charNode@@QEAA@D@Z      000000018001ccd0 f i libvcruntimed:undname.obj
 0001:0001bd10       ??0pDNameNode@@QEAA@PEAVDName@@@Z 000000018001cd10 f   libvcruntimed:undname.obj
 0001:0001bd90       ??0pairNode@@QEAA@PEBVDNameNode@@0@Z 000000018001cd90 f i libvcruntimed:undname.obj
 0001:0001bdf0       ??0pcharNode@@QEAA@PEBDH@Z 000000018001cdf0 f   libvcruntimed:undname.obj
 0001:0001bee0       ??2@YAPEAX_KAEAV_HeapManager@@H@Z 000000018001cee0 f i libvcruntimed:undname.obj
 0001:0001bf10       ??4DName@@QEAAAEAV0@AEBV0@@Z 000000018001cf10 f   libvcruntimed:undname.obj
 0001:0001bf40       ??4DName@@QEAAAEAV0@D@Z    000000018001cf40 f i libvcruntimed:undname.obj
 0001:0001bf90       ??4DName@@QEAAAEAV0@PEAV0@@Z 000000018001cf90 f   libvcruntimed:undname.obj
 0001:0001c060       ??4DName@@QEAAAEAV0@PEBD@Z 000000018001d060 f   libvcruntimed:undname.obj
 0001:0001c0b0       ??4DName@@QEAAAEAV0@W4DNameStatus@@@Z 000000018001d0b0 f   libvcruntimed:undname.obj
 0001:0001c140       ??AReplicator@@QEBA?AVDName@@H@Z 000000018001d140 f   libvcruntimed:undname.obj
 0001:0001c1d0       ??H@YA?AVDName@@DAEBV0@@Z  000000018001d1d0 f i libvcruntimed:undname.obj
 0001:0001c220       ??H@YA?AVDName@@PEBDAEBV0@@Z 000000018001d220 f i libvcruntimed:undname.obj
 0001:0001c270       ??H@YA?AVDName@@W4DNameStatus@@AEBV0@@Z 000000018001d270 f i libvcruntimed:undname.obj
 0001:0001c2c0       ??HDName@@QEBA?AV0@AEBV0@@Z 000000018001d2c0 f   libvcruntimed:undname.obj
 0001:0001c310       ??HDName@@QEBA?AV0@D@Z     000000018001d310 f   libvcruntimed:undname.obj
 0001:0001c360       ??HDName@@QEBA?AV0@PEAV0@@Z 000000018001d360 f   libvcruntimed:undname.obj
 0001:0001c3b0       ??HDName@@QEBA?AV0@PEBD@Z  000000018001d3b0 f   libvcruntimed:undname.obj
 0001:0001c400       ??HDName@@QEBA?AV0@W4DNameStatus@@@Z 000000018001d400 f   libvcruntimed:undname.obj
 0001:0001c450       ??YDName@@QEAAAEAV0@AEBV0@@Z 000000018001d450 f   libvcruntimed:undname.obj
 0001:0001c4e0       ??YDName@@QEAAAEAV0@D@Z    000000018001d4e0 f   libvcruntimed:undname.obj
 0001:0001c580       ??YDName@@QEAAAEAV0@PEAV0@@Z 000000018001d580 f   libvcruntimed:undname.obj
 0001:0001c670       ??YDName@@QEAAAEAV0@PEBD@Z 000000018001d670 f   libvcruntimed:undname.obj
 0001:0001c730       ??YDName@@QEAAAEAV0@W4DNameStatus@@@Z 000000018001d730 f   libvcruntimed:undname.obj
 0001:0001c7a0       ??YReplicator@@QEAAAEAV0@AEBVDName@@@Z 000000018001d7a0 f   libvcruntimed:undname.obj
 0001:0001c860       ??_5DName@@QEAAAEAV0@AEBV0@@Z 000000018001d860 f   libvcruntimed:undname.obj
 0001:0001c8d0       ?Constructor@_HeapManager@@QEAAXP6APEAX_K@ZP6AXPEAX@Z@Z 000000018001d8d0 f i libvcruntimed:undname.obj
 0001:0001c930       ?Destructor@_HeapManager@@QEAAXXZ 000000018001d930 f i libvcruntimed:undname.obj
 0001:0001c9b0       ?UScore@UnDecorator@@SAPEBDW4Tokens@@@Z 000000018001d9b0 f   libvcruntimed:undname.obj
 0001:0001c9f0       ?append@DName@@AEAAXPEBVDNameNode@@@Z 000000018001d9f0 f   libvcruntimed:undname.obj
 0001:0001caa0       ?composeDeclaration@UnDecorator@@CA?AVDName@@AEBV2@@Z 000000018001daa0 f i libvcruntimed:undname.obj
 0001:0001ee40       ?dbGetString@DName@@QEBAPEADXZ 000000018001fe40 f   libvcruntimed:undname.obj
 0001:0001ee70       ?doAccessSpecifiers@UnDecorator@@SAHXZ 000000018001fe70 f i libvcruntimed:undname.obj
 0001:0001eea0       ?doAllocationLanguage@UnDecorator@@SAHXZ 000000018001fea0 f i libvcruntimed:undname.obj
 0001:0001eed0       ?doAllocationModel@UnDecorator@@SAHXZ 000000018001fed0 f i libvcruntimed:undname.obj
 0001:0001ef00       ?doEcsu@UnDecorator@@SAHXZ 000000018001ff00 f i libvcruntimed:undname.obj
 0001:0001ef30       ?doEllipsis@UnDecorator@@SAHXZ 000000018001ff30 f i libvcruntimed:undname.obj
 0001:0001ef60       ?doFunctionReturns@UnDecorator@@SAHXZ 000000018001ff60 f i libvcruntimed:undname.obj
 0001:0001ef90       ?doMSKeywords@UnDecorator@@SAHXZ 000000018001ff90 f i libvcruntimed:undname.obj
 0001:0001efc0       ?doMemberTypes@UnDecorator@@SAHXZ 000000018001ffc0 f i libvcruntimed:undname.obj
 0001:0001eff0       ?doNameOnly@UnDecorator@@SAHXZ 000000018001fff0 f i libvcruntimed:undname.obj
 0001:0001f000       ?doNoIdentCharCheck@UnDecorator@@SAHXZ 0000000180020000 f i libvcruntimed:undname.obj
 0001:0001f010       ?doPchar@DName@@AEAAXPEBDH@Z 0000000180020010 f   libvcruntimed:undname.obj
 0001:0001f1a0       ?doPtr64@UnDecorator@@SAHXZ 00000001800201a0 f i libvcruntimed:undname.obj
 0001:0001f1d0       ?doRestrictionSpec@UnDecorator@@SAHXZ 00000001800201d0 f i libvcruntimed:undname.obj
 0001:0001f200       ?doThisTypes@UnDecorator@@SAHXZ 0000000180020200 f i libvcruntimed:undname.obj
 0001:0001f230       ?doThrowTypes@UnDecorator@@SAHXZ 0000000180020230 f i libvcruntimed:undname.obj
 0001:0001f260       ?doTypeOnly@UnDecorator@@SAHXZ 0000000180020260 f i libvcruntimed:undname.obj
 0001:0001f270       ?doUnderScore@UnDecorator@@SAHXZ 0000000180020270 f i libvcruntimed:undname.obj
 0001:0001f2a0       ?getArgumentList@UnDecorator@@CA?AVDName@@XZ 00000001800202a0 f   libvcruntimed:undname.obj
 0001:0001f450       ?getArgumentTypes@UnDecorator@@CA?AVDName@@XZ 0000000180020450 f   libvcruntimed:undname.obj
 0001:0001f600       ?getArrayType@UnDecorator@@CA?AVDName@@AEBV2@@Z 0000000180020600 f i libvcruntimed:undname.obj
 0001:0001f980       ?getBasedType@UnDecorator@@CA?AVDName@@XZ 0000000180020980 f   libvcruntimed:undname.obj
 0001:0001fa80       ?getBasicDataType@UnDecorator@@CA?AVDName@@AEBV2@@Z 0000000180020a80 f   libvcruntimed:undname.obj
 0001:00020220       ?getCHPEName@UnDecorator@@QEAAPEADPEADH@Z 0000000180021220 f i libvcruntimed:undname.obj
 0001:000203f0       ?getCallIndex@UnDecorator@@CA?AVDName@@XZ 00000001800213f0 f i libvcruntimed:undname.obj
 0001:00020410       ?getCallingConvention@UnDecorator@@CA?AVDName@@XZ 0000000180021410 f   libvcruntimed:undname.obj
 0001:000206c0       ?getDataIndirectType@UnDecorator@@CA?AVDName@@AEBV2@PEBD0H@Z 00000001800216c0 f   libvcruntimed:undname.obj
 0001:000212a0       ?getDataIndirectType@UnDecorator@@CA?AVDName@@XZ 00000001800222a0 f i libvcruntimed:undname.obj
 0001:00021300       ?getDataType@UnDecorator@@CA?AVDName@@PEAV2@@Z 0000000180022300 f   libvcruntimed:undname.obj
 0001:00021490       ?getDecoratedName@UnDecorator@@CA?AVDName@@XZ 0000000180022490 f   libvcruntimed:undname.obj
 0001:00021950       ?getDimension@UnDecorator@@CA?AVDName@@_N@Z 0000000180022950 f   libvcruntimed:undname.obj
 0001:00021cb0       ?getDispatchTarget@UnDecorator@@CA?AVDName@@XZ 0000000180022cb0 f   libvcruntimed:undname.obj
 0001:00021d80       ?getDisplacement@UnDecorator@@CA?AVDName@@XZ 0000000180022d80 f i libvcruntimed:undname.obj
 0001:00021da0       ?getECSUDataType@UnDecorator@@CA?AVDName@@XZ 0000000180022da0 f   libvcruntimed:undname.obj
 0001:00021ff0       ?getECSUName@UnDecorator@@CA?AVDName@@XZ 0000000180022ff0 f i libvcruntimed:undname.obj
 0001:00022010       ?getEnumType@UnDecorator@@CA?AVDName@@XZ 0000000180023010 f i libvcruntimed:undname.obj
 0001:000221a0       ?getExtendedDataIndirectType@UnDecorator@@CA?AVDName@@AEAPEBDAEA_NH@Z 00000001800231a0 f   libvcruntimed:undname.obj
 0001:000224e0       ?getExternalDataType@UnDecorator@@CA?AVDName@@AEBV2@@Z 00000001800234e0 f i libvcruntimed:undname.obj
 0001:000225c0       ?getFunctionIndirectType@UnDecorator@@CA?AVDName@@AEBV2@@Z 00000001800235c0 f   libvcruntimed:undname.obj
 0001:00022c90       ?getGuardNumber@UnDecorator@@CA?AVDName@@XZ 0000000180023c90 f i libvcruntimed:undname.obj
 0001:00022cb0       ?getLastChar@DName@@QEBADXZ 0000000180023cb0 f i libvcruntimed:undname.obj
 0001:00022d00       ?getLastChar@DNameStatusNode@@UEBADXZ 0000000180023d00 f i libvcruntimed:undname.obj
 0001:00022d40       ?getLastChar@charNode@@UEBADXZ 0000000180023d40 f i libvcruntimed:undname.obj
 0001:00022d50       ?getLastChar@pDNameNode@@UEBADXZ 0000000180023d50 f i libvcruntimed:undname.obj
 0001:00022d90       ?getLastChar@pairNode@@UEBADXZ 0000000180023d90 f i libvcruntimed:undname.obj
 0001:00022e10       ?getLastChar@pcharNode@@UEBADXZ 0000000180023e10 f i libvcruntimed:undname.obj
 0001:00022e50       ?getLexicalFrame@UnDecorator@@CA?AVDName@@XZ 0000000180023e50 f i libvcruntimed:undname.obj
 0001:00022ea0       ?getMemory@_HeapManager@@QEAAPEAX_KH@Z 0000000180023ea0 f   libvcruntimed:undname.obj
 0001:00023020       ?getNoexcept@UnDecorator@@CA?AVDName@@XZ 0000000180024020 f   libvcruntimed:undname.obj
 0001:000230b0       ?getNumberOfDimensions@UnDecorator@@CAHXZ 00000001800240b0 f   libvcruntimed:undname.obj
 0001:000231d0       ?getOperatorName@UnDecorator@@CA?AVDName@@_NPEA_N@Z 00000001800241d0 f i libvcruntimed:undname.obj
 0001:00024030       ?getPointerType@UnDecorator@@CA?AVDName@@AEBV2@0@Z 0000000180025030 f i libvcruntimed:undname.obj
 0001:00024080       ?getPointerTypeArray@UnDecorator@@CA?AVDName@@AEBV2@0@Z 0000000180025080 f i libvcruntimed:undname.obj
 0001:000240d0       ?getPrimaryDataType@UnDecorator@@CA?AVDName@@AEBV2@@Z 00000001800250d0 f   libvcruntimed:undname.obj
 0001:000245c0       ?getPtrRefDataType@UnDecorator@@CA?AVDName@@AEBV2@H@Z 00000001800255c0 f   libvcruntimed:undname.obj
 0001:00024860       ?getPtrRefType@UnDecorator@@CA?AVDName@@AEBV2@0PEBD@Z 0000000180025860 f   libvcruntimed:undname.obj
 0001:00024a70       ?getReferenceType@UnDecorator@@CA?AVDName@@AEBV2@0PEBD@Z 0000000180025a70 f i libvcruntimed:undname.obj
 0001:00024ab0       ?getRestrictionSpec@UnDecorator@@CA?AVDName@@XZ 0000000180025ab0 f   libvcruntimed:undname.obj
 0001:00024c80       ?getReturnType@UnDecorator@@CA?AVDName@@PEAV2@@Z 0000000180025c80 f   libvcruntimed:undname.obj
 0001:00024ce0       ?getScope@UnDecorator@@CA?AVDName@@XZ 0000000180025ce0 f   libvcruntimed:undname.obj
 0001:00025400       ?getScopedName@UnDecorator@@CA?AVDName@@XZ 0000000180026400 f   libvcruntimed:undname.obj
 0001:000255b0       ?getSignedDimension@UnDecorator@@CA?AVDName@@XZ 00000001800265b0 f   libvcruntimed:undname.obj
 0001:00025640       ?getStorageConvention@UnDecorator@@CA?AVDName@@XZ 0000000180026640 f i libvcruntimed:undname.obj
 0001:00025660       ?getString@DName@@QEBAPEADPEAD0@Z 0000000180026660 f i libvcruntimed:undname.obj
 0001:000256e0       ?getString@DName@@QEBAPEADPEADH@Z 00000001800266e0 f i libvcruntimed:undname.obj
 0001:000257a0       ?getString@DNameStatusNode@@UEBAPEADPEAD0@Z 00000001800267a0 f i libvcruntimed:undname.obj
 0001:000257f0       ?getString@charNode@@UEBAPEADPEAD0@Z 00000001800267f0 f i libvcruntimed:undname.obj
 0001:00025830       ?getString@pDNameNode@@UEBAPEADPEAD0@Z 0000000180026830 f i libvcruntimed:undname.obj
 0001:00025890       ?getString@pairNode@@UEBAPEADPEAD0@Z 0000000180026890 f i libvcruntimed:undname.obj
 0001:00025960       ?getString@pcharNode@@UEBAPEADPEAD0@Z 0000000180026960 f i libvcruntimed:undname.obj
 0001:000259a0       ?getStringEncoding@UnDecorator@@CA?AVDName@@PEBDH@Z 00000001800269a0 f   libvcruntimed:undname.obj
 0001:00025ae0       ?getStringHelper@@YAPEADPEADPEBD1H@Z 0000000180026ae0 f i libvcruntimed:undname.obj
 0001:00025b50       ?getSymbolName@UnDecorator@@CA?AVDName@@XZ 0000000180026b50 f i libvcruntimed:undname.obj
 0001:00025bf0       ?getTemplateArgumentList@UnDecorator@@CA?AVDName@@XZ 0000000180026bf0 f   libvcruntimed:undname.obj
 0001:000260b0       ?getTemplateConstant@UnDecorator@@CA?AVDName@@XZ 00000001800270b0 f   libvcruntimed:undname.obj
 0001:000267d0       ?getTemplateName@UnDecorator@@CA?AVDName@@_N@Z 00000001800277d0 f   libvcruntimed:undname.obj
 0001:00026a30       ?getThisType@UnDecorator@@CA?AVDName@@XZ 0000000180027a30 f i libvcruntimed:undname.obj
 0001:00026a90       ?getThrowTypes@UnDecorator@@CA?AVDName@@XZ 0000000180027a90 f   libvcruntimed:undname.obj
 0001:00026ae0       ?getTypeEncoding@UnDecorator@@CAHXZ 0000000180027ae0 f i libvcruntimed:undname.obj
 0001:000276e0       ?getUndecoratedName@UnDecorator@@QEAAPEADPEADH@Z 00000001800286e0 f i libvcruntimed:undname.obj
 0001:000278a0       ?getVCallThunkType@UnDecorator@@CA?AVDName@@XZ 00000001800288a0 f i libvcruntimed:undname.obj
 0001:00027920       ?getVbTableType@UnDecorator@@CA?AVDName@@AEBV2@@Z 0000000180028920 f i libvcruntimed:undname.obj
 0001:00027950       ?getVdispMapType@UnDecorator@@CA?AVDName@@AEBV2@@Z 0000000180028950 f i libvcruntimed:undname.obj
 0001:000279f0       ?getVfTableType@UnDecorator@@CA?AVDName@@AEBV2@@Z 00000001800289f0 f i libvcruntimed:undname.obj
 0001:00027c50       ?getZName@UnDecorator@@CA?AVDName@@_N0@Z 0000000180028c50 f   libvcruntimed:undname.obj
 0001:00028040       ?haveTemplateParameters@UnDecorator@@SAHXZ 0000000180029040 f i libvcruntimed:undname.obj
 0001:00028050       ?isArray@DName@@QEBAHXZ    0000000180029050 f i libvcruntimed:undname.obj
 0001:00028070       ?isComArray@DName@@QEBAHXZ 0000000180029070 f i libvcruntimed:undname.obj
 0001:00028090       ?isEmpty@DName@@QEBAHXZ    0000000180029090 f i libvcruntimed:undname.obj
 0001:000280c0       ?isFull@Replicator@@QEBAHXZ 00000001800290c0 f i libvcruntimed:undname.obj
 0001:000280f0       ?isNoTE@DName@@QEBAHXZ     00000001800290f0 f i libvcruntimed:undname.obj
 0001:00028110       ?isPinPtr@DName@@QEBAHXZ   0000000180029110 f i libvcruntimed:undname.obj
 0001:00028130       ?isPtrRef@DName@@QEBAHXZ   0000000180029130 f i libvcruntimed:undname.obj
 0001:00028150       ?isUDC@DName@@QEBAHXZ      0000000180029150 f i libvcruntimed:undname.obj
 0001:000281a0       ?isUDTThunk@DName@@QEBAHXZ 00000001800291a0 f i libvcruntimed:undname.obj
 0001:000281f0       ?isVCallThunk@DName@@QEBAHXZ 00000001800291f0 f i libvcruntimed:undname.obj
 0001:00028210       ?isValid@DName@@QEBAHXZ    0000000180029210 f i libvcruntimed:undname.obj
 0001:00028250       ?length@DName@@QEBAHXZ     0000000180029250 f i libvcruntimed:undname.obj
 0001:000282a0       ?length@DNameStatusNode@@UEBAHXZ 00000001800292a0 f i libvcruntimed:undname.obj
 0001:000282b0       ?length@charNode@@UEBAHXZ  00000001800292b0 f i libvcruntimed:undname.obj
 0001:000282c0       ?length@pDNameNode@@UEBAHXZ 00000001800292c0 f i libvcruntimed:undname.obj
 0001:00028300       ?length@pairNode@@UEBAHXZ  0000000180029300 f i libvcruntimed:undname.obj
 0001:00028390       ?length@pcharNode@@UEBAHXZ 0000000180029390 f i libvcruntimed:undname.obj
 0001:000283a0       ?make@DNameStatusNode@@SAPEBV1@W4DNameStatus@@@Z 00000001800293a0 f i libvcruntimed:undname.obj
 0001:000283f0       ?parseDecoratedName@UnDecorator@@CA?AVDName@@XZ 00000001800293f0 f   libvcruntimed:undname.obj
 0001:000285d0       ?setIsArray@DName@@QEAAXXZ 00000001800295d0 f i libvcruntimed:undname.obj
 0001:000285f0       ?setIsComArray@DName@@QEAAXXZ 00000001800295f0 f i libvcruntimed:undname.obj
 0001:00028610       ?setIsNoTE@DName@@QEAAXXZ  0000000180029610 f i libvcruntimed:undname.obj
 0001:00028630       ?setIsPinPtr@DName@@QEAAXXZ 0000000180029630 f i libvcruntimed:undname.obj
 0001:00028650       ?setIsUDC@DName@@QEAAXXZ   0000000180029650 f i libvcruntimed:undname.obj
 0001:00028680       ?setIsVCallThunk@DName@@QEAAXXZ 0000000180029680 f i libvcruntimed:undname.obj
 0001:000286a0       ?setPtrRef@DName@@QEAAAEAV1@XZ 00000001800296a0 f i libvcruntimed:undname.obj
 0001:000286c0       ?status@DName@@QEBA?AW4DNameStatus@@XZ 00000001800296c0 f i libvcruntimed:undname.obj
 0001:000287f0       __unDName                  00000001800297f0 f   libvcruntimed:undname.obj
 0001:00028850       __unDNameEx                0000000180029850 f   libvcruntimed:undname.obj
 0001:00028910       unDNameGenerateCHPE        0000000180029910 f   libvcruntimed:undname.obj
 0001:000289d0       _CallSettingFrame          00000001800299d0 f   libvcruntimed:handlers.obj
 0001:00028a20       _CallSettingFrameEncoded   0000000180029a20 f   libvcruntimed:handlers.obj
 0001:00028a70       ??$__crt_fast_decode_pointer@P6AXXZ@@YAP6AXXZQ6AXXZ@Z 0000000180029a70 f i libvcruntimed:purevirt.obj
 0001:00028ab0       ??$__crt_interlocked_exchange_pointer@$$A6AXXZP6AXXZ@@YAP6AXXZPEDS6AXXZQ6AXXZ@Z 0000000180029ab0 f i libvcruntimed:purevirt.obj
 0001:00028ad0       ??$__crt_interlocked_read_pointer@$$A6AXXZ@@YAP6AXXZPEDS6AXXZ@Z 0000000180029ad0 f i libvcruntimed:purevirt.obj
 0001:00028af0       _get_purecall_handler      0000000180029af0 f   libvcruntimed:purevirt.obj
 0001:00028b10       _purecall                  0000000180029b10 f   libvcruntimed:purevirt.obj
 0001:00028b50       _set_purecall_handler      0000000180029b50 f   libvcruntimed:purevirt.obj
 0001:00028b80       free                       0000000180029b80 f   libucrtd:free.obj
 0001:00028ba0       malloc                     0000000180029ba0 f   libucrtd:malloc.obj
 0001:00028bd0       ??$?RU?$__crt_report_hook_node@D@@@__crt_internal_free_policy@@QEBAXQEBU?$__crt_report_hook_node@D@@@Z 0000000180029bd0 f i libucrtd:dbgrpt.obj
 0001:00028c00       ??$?RU?$__crt_report_hook_node@_W@@@__crt_internal_free_policy@@QEBAXQEBU?$__crt_report_hook_node@_W@@@Z 0000000180029c00 f i libucrtd:dbgrpt.obj
 0001:00028c30       ??$?RV<lambda_48a95ab302c68b6787c202ce7b2428f2>@@AEAV<lambda_be7e00bcb36969a0670e3c91fd6c4917>@@V<lambda_95ad94005304955f3afd56db85f2c0f0>@@@?$__crt_seh_guarded_call@H@@QEAAH$$QEAV<lambda_48a95ab302c68b6787c202ce7b2428f2>@@AEAV<lambda_be7e00bcb36969a0670e3c91fd6c4917>@@$$QEAV<lambda_95ad94005304955f3afd56db85f2c0f0>@@@Z 0000000180029c30 f i libucrtd:dbgrpt.obj
 0001:00028c80       ??$?RV<lambda_af6322564f367be6e210c9b3b377439e>@@AEAV<lambda_ade3d750d30aed7d611b25c09e4cbaa9>@@V<lambda_f1c030d06c6692bdc9654ba3f7602b04>@@@?$__crt_seh_guarded_call@H@@QEAAH$$QEAV<lambda_af6322564f367be6e210c9b3b377439e>@@AEAV<lambda_ade3d750d30aed7d611b25c09e4cbaa9>@@$$QEAV<lambda_f1c030d06c6692bdc9654ba3f7602b04>@@@Z 0000000180029c80 f i libucrtd:dbgrpt.obj
 0001:00028cd0       ??$__acrt_lock_and_call@V<lambda_ade3d750d30aed7d611b25c09e4cbaa9>@@@@YAHW4__acrt_lock_id@@$$QEAV<lambda_ade3d750d30aed7d611b25c09e4cbaa9>@@@Z 0000000180029cd0 f i libucrtd:dbgrpt.obj
 0001:00028d40       ??$__acrt_lock_and_call@V<lambda_be7e00bcb36969a0670e3c91fd6c4917>@@@@YAHW4__acrt_lock_id@@$$QEAV<lambda_be7e00bcb36969a0670e3c91fd6c4917>@@@Z 0000000180029d40 f i libucrtd:dbgrpt.obj
 0001:00028db0       ??$__vcrt_va_start_verify_argument_type@QEBD@@YAXXZ 0000000180029db0 f i libucrtd:dbgrpt.obj
 0001:00028dc0       ??$__vcrt_va_start_verify_argument_type@QEB_W@@YAXXZ 0000000180029dc0 f i libucrtd:dbgrpt.obj
 0001:00029e60       ??$get_module_file_name@AEAPEAUHINSTANCE__@@AEAY0BAF@DK@?$__crt_char_traits@D@@SAKAEAPEAUHINSTANCE__@@AEAY0BAF@D$$QEAK@Z 000000018002ae60 f i libucrtd:dbgrpt.obj
 0001:00029ea0       ??$get_module_file_name@AEAPEAUHINSTANCE__@@AEAY0BAF@_WK@?$__crt_char_traits@_W@@SAKAEAPEAUHINSTANCE__@@AEAY0BAF@_W$$QEAK@Z 000000018002aea0 f i libucrtd:dbgrpt.obj
 0001:00029ee0       ??$tcscpy_s@AEAY0BAF@D_KPEBD@?$__crt_char_traits@D@@SAHAEAY0BAF@D$$QEA_K$$QEAPEBD@Z 000000018002aee0 f i libucrtd:dbgrpt.obj
 0001:00029f20       ??$tcscpy_s@AEAY0BAF@_W_KPEB_W@?$__crt_char_traits@_W@@SAHAEAY0BAF@_W$$QEA_K$$QEAPEB_W@Z 000000018002af20 f i libucrtd:dbgrpt.obj
 0001:00029f60       ??$tcslen@AEAY0BAF@D@?$__crt_char_traits@D@@SA_KAEAY0BAF@D@Z 000000018002af60 f i libucrtd:dbgrpt.obj
 0001:00029f80       ??$tcslen@AEAY0BAF@_W@?$__crt_char_traits@_W@@SA_KAEAY0BAF@_W@Z 000000018002af80 f i libucrtd:dbgrpt.obj
 0001:00029fa0       ??$tcslen@AEBQEBD@?$__crt_char_traits@D@@SA_KAEBQEBD@Z 000000018002afa0 f i libucrtd:dbgrpt.obj
 0001:00029fc0       ??$tcslen@AEBQEB_W@?$__crt_char_traits@_W@@SA_KAEBQEB_W@Z 000000018002afc0 f i libucrtd:dbgrpt.obj
 0001:0002a0c0       ??0?$__crt_unique_heap_ptr@U?$__crt_report_hook_node@D@@U__crt_internal_free_policy@@@@QEAA@QEAU?$__crt_report_hook_node@D@@@Z 000000018002b0c0 f i libucrtd:dbgrpt.obj
 0001:0002a0e0       ??0?$__crt_unique_heap_ptr@U?$__crt_report_hook_node@_W@@U__crt_internal_free_policy@@@@QEAA@QEAU?$__crt_report_hook_node@_W@@@Z 000000018002b0e0 f i libucrtd:dbgrpt.obj
 0001:0002a100       ??1?$__crt_unique_heap_ptr@U?$__crt_report_hook_node@D@@U__crt_internal_free_policy@@@@QEAA@XZ 000000018002b100 f i libucrtd:dbgrpt.obj
 0001:0002a120       ??1?$__crt_unique_heap_ptr@U?$__crt_report_hook_node@_W@@U__crt_internal_free_policy@@@@QEAA@XZ 000000018002b120 f i libucrtd:dbgrpt.obj
 0001:0002a140       ??B?$__crt_unique_heap_ptr@U?$__crt_report_hook_node@D@@U__crt_internal_free_policy@@@@QEBA_NXZ 000000018002b140 f i libucrtd:dbgrpt.obj
 0001:0002a160       ??B?$__crt_unique_heap_ptr@U?$__crt_report_hook_node@_W@@U__crt_internal_free_policy@@@@QEBA_NXZ 000000018002b160 f i libucrtd:dbgrpt.obj
 0001:0002a840       ?detach@?$__crt_unique_heap_ptr@U?$__crt_report_hook_node@D@@U__crt_internal_free_policy@@@@QEAAPEAU?$__crt_report_hook_node@D@@XZ 000000018002b840 f i libucrtd:dbgrpt.obj
 0001:0002a870       ?detach@?$__crt_unique_heap_ptr@U?$__crt_report_hook_node@_W@@U__crt_internal_free_policy@@@@QEAAPEAU?$__crt_report_hook_node@_W@@XZ 000000018002b870 f i libucrtd:dbgrpt.obj
 0001:0002a8a0       ?get@?$__crt_unique_heap_ptr@U?$__crt_report_hook_node@D@@U__crt_internal_free_policy@@@@QEBAPEAU?$__crt_report_hook_node@D@@XZ 000000018002b8a0 f i libucrtd:dbgrpt.obj
 0001:0002a8b0       ?get@?$__crt_unique_heap_ptr@U?$__crt_report_hook_node@_W@@U__crt_internal_free_policy@@@@QEBAPEAU?$__crt_report_hook_node@_W@@XZ 000000018002b8b0 f i libucrtd:dbgrpt.obj
 0001:0002a920       ?is_valid@?$__crt_unique_heap_ptr@U?$__crt_report_hook_node@D@@U__crt_internal_free_policy@@@@QEBA_NXZ 000000018002b920 f i libucrtd:dbgrpt.obj
 0001:0002a950       ?is_valid@?$__crt_unique_heap_ptr@U?$__crt_report_hook_node@_W@@U__crt_internal_free_policy@@@@QEBA_NXZ 000000018002b950 f i libucrtd:dbgrpt.obj
 0001:0002a980       ?release@?$__crt_unique_heap_ptr@U?$__crt_report_hook_node@D@@U__crt_internal_free_policy@@@@QEAAXXZ 000000018002b980 f i libucrtd:dbgrpt.obj
 0001:0002a9c0       ?release@?$__crt_unique_heap_ptr@U?$__crt_report_hook_node@_W@@U__crt_internal_free_policy@@@@QEAAXXZ 000000018002b9c0 f i libucrtd:dbgrpt.obj
 0001:0002aa00       _CrtDbgReport              000000018002ba00 f   libucrtd:dbgrpt.obj
 0001:0002aa80       _CrtDbgReportW             000000018002ba80 f   libucrtd:dbgrpt.obj
 0001:0002ab00       _CrtSetReportHook2         000000018002bb00 f   libucrtd:dbgrpt.obj
 0001:0002ab20       _CrtSetReportHookW2        000000018002bb20 f   libucrtd:dbgrpt.obj
 0001:0002ab40       __acrt_MessageWindowA      000000018002bb40 f   libucrtd:dbgrpt.obj
 0001:0002ab90       __acrt_MessageWindowW      000000018002bb90 f   libucrtd:dbgrpt.obj
 0001:0002abe0       _invoke_watson_if_error    000000018002bbe0 f i libucrtd:dbgrpt.obj
 0001:0002ac30       _invoke_watson_if_oneof    000000018002bc30 f i libucrtd:dbgrpt.obj
 0001:0002ac90       _snwprintf_s               000000018002bc90 f i libucrtd:dbgrpt.obj
 0001:0002ad00       _vsnwprintf_s_l            000000018002bd00 f i libucrtd:dbgrpt.obj
 0001:0002b260       wcscpy_s                   000000018002c260 f   libucrtd:wcscpy_s.obj
 0001:0002b290       wcslen                     000000018002c290 f   libucrtd:wcslen.obj
 0001:0002b2e0       ??$?0AEBV?$stream_output_adapter@D@__crt_stdio_output@@AEB_KAEBQEBDAEBQEAU__crt_locale_pointers@@AEBQEAD@?$format_validation_base@DV?$stream_output_adapter@D@__crt_stdio_output@@@__crt_stdio_output@@IEAA@AEBV?$stream_output_adapter@D@1@AEB_KAEBQEBDAEBQEAU__crt_locale_pointers@@AEBQEAD@Z 000000018002c2e0 f i libucrtd:output.obj
 0001:0002b330       ??$?0AEBV?$stream_output_adapter@D@__crt_stdio_output@@AEB_KAEBQEBDAEBQEAU__crt_locale_pointers@@AEBQEAD@?$positional_parameter_base@DV?$stream_output_adapter@D@__crt_stdio_output@@@__crt_stdio_output@@IEAA@AEBV?$stream_output_adapter@D@1@AEB_KAEBQEBDAEBQEAU__crt_locale_pointers@@AEBQEAD@Z 000000018002c330 f i libucrtd:output.obj
 0001:0002b3d0       ??$?0AEBV?$stream_output_adapter@D@__crt_stdio_output@@AEB_KAEBQEBDAEBQEAU__crt_locale_pointers@@AEBQEAD@?$standard_base@DV?$stream_output_adapter@D@__crt_stdio_output@@@__crt_stdio_output@@IEAA@AEBV?$stream_output_adapter@D@1@AEB_KAEBQEBDAEBQEAU__crt_locale_pointers@@AEBQEAD@Z 000000018002c3d0 f i libucrtd:output.obj
 0001:0002b440       ??$?0AEBV?$stream_output_adapter@_W@__crt_stdio_output@@AEB_KAEBQEB_WAEBQEAU__crt_locale_pointers@@AEBQEAD@?$format_validation_base@_WV?$stream_output_adapter@_W@__crt_stdio_output@@@__crt_stdio_output@@IEAA@AEBV?$stream_output_adapter@_W@1@AEB_KAEBQEB_WAEBQEAU__crt_locale_pointers@@AEBQEAD@Z 000000018002c440 f i libucrtd:output.obj
 0001:0002b490       ??$?0AEBV?$stream_output_adapter@_W@__crt_stdio_output@@AEB_KAEBQEB_WAEBQEAU__crt_locale_pointers@@AEBQEAD@?$positional_parameter_base@_WV?$stream_output_adapter@_W@__crt_stdio_output@@@__crt_stdio_output@@IEAA@AEBV?$stream_output_adapter@_W@1@AEB_KAEBQEB_WAEBQEAU__crt_locale_pointers@@AEBQEAD@Z 000000018002c490 f i libucrtd:output.obj
 0001:0002b530       ??$?0AEBV?$stream_output_adapter@_W@__crt_stdio_output@@AEB_KAEBQEB_WAEBQEAU__crt_locale_pointers@@AEBQEAD@?$standard_base@_WV?$stream_output_adapter@_W@__crt_stdio_output@@@__crt_stdio_output@@IEAA@AEBV?$stream_output_adapter@_W@1@AEB_KAEBQEB_WAEBQEAU__crt_locale_pointers@@AEBQEAD@Z 000000018002c530 f i libucrtd:output.obj
 0001:0002b5a0       ??$?0AEBV?$string_output_adapter@D@__crt_stdio_output@@AEB_KAEBQEBDAEBQEAU__crt_locale_pointers@@AEBQEAD@?$format_validation_base@DV?$string_output_adapter@D@__crt_stdio_output@@@__crt_stdio_output@@IEAA@AEBV?$string_output_adapter@D@1@AEB_KAEBQEBDAEBQEAU__crt_locale_pointers@@AEBQEAD@Z 000000018002c5a0 f i libucrtd:output.obj
 0001:0002b5f0       ??$?0AEBV?$string_output_adapter@D@__crt_stdio_output@@AEB_KAEBQEBDAEBQEAU__crt_locale_pointers@@AEBQEAD@?$positional_parameter_base@DV?$string_output_adapter@D@__crt_stdio_output@@@__crt_stdio_output@@IEAA@AEBV?$string_output_adapter@D@1@AEB_KAEBQEBDAEBQEAU__crt_locale_pointers@@AEBQEAD@Z 000000018002c5f0 f i libucrtd:output.obj
 0001:0002b690       ??$?0AEBV?$string_output_adapter@D@__crt_stdio_output@@AEB_KAEBQEBDAEBQEAU__crt_locale_pointers@@AEBQEAD@?$standard_base@DV?$string_output_adapter@D@__crt_stdio_output@@@__crt_stdio_output@@IEAA@AEBV?$string_output_adapter@D@1@AEB_KAEBQEBDAEBQEAU__crt_locale_pointers@@AEBQEAD@Z 000000018002c690 f i libucrtd:output.obj
 0001:0002b700       ??$?0AEBV?$string_output_adapter@_W@__crt_stdio_output@@AEB_KAEBQEB_WAEBQEAU__crt_locale_pointers@@AEBQEAD@?$format_validation_base@_WV?$string_output_adapter@_W@__crt_stdio_output@@@__crt_stdio_output@@IEAA@AEBV?$string_output_adapter@_W@1@AEB_KAEBQEB_WAEBQEAU__crt_locale_pointers@@AEBQEAD@Z 000000018002c700 f i libucrtd:output.obj
 0001:0002b750       ??$?0AEBV?$string_output_adapter@_W@__crt_stdio_output@@AEB_KAEBQEB_WAEBQEAU__crt_locale_pointers@@AEBQEAD@?$positional_parameter_base@_WV?$string_output_adapter@_W@__crt_stdio_output@@@__crt_stdio_output@@IEAA@AEBV?$string_output_adapter@_W@1@AEB_KAEBQEB_WAEBQEAU__crt_locale_pointers@@AEBQEAD@Z 000000018002c750 f i libucrtd:output.obj
 0001:0002b7f0       ??$?0AEBV?$string_output_adapter@_W@__crt_stdio_output@@AEB_KAEBQEB_WAEBQEAU__crt_locale_pointers@@AEBQEAD@?$standard_base@_WV?$string_output_adapter@_W@__crt_stdio_output@@@__crt_stdio_output@@IEAA@AEBV?$string_output_adapter@_W@1@AEB_KAEBQEB_WAEBQEAU__crt_locale_pointers@@AEBQEAD@Z 000000018002c7f0 f i libucrtd:output.obj
 0001:0002b860       ??$?RV<lambda_2647abb55a408a205467c4169a724277>@@AEAV<lambda_576477a770bb5ab586b2d9569451c7f7>@@V<lambda_c2b006f504a10a4cf14b9a1fbce2a01e>@@@?$__crt_seh_guarded_call@H@@QEAAH$$QEAV<lambda_2647abb55a408a205467c4169a724277>@@AEAV<lambda_576477a770bb5ab586b2d9569451c7f7>@@$$QEAV<lambda_c2b006f504a10a4cf14b9a1fbce2a01e>@@@Z 000000018002c860 f i libucrtd:output.obj
 0001:0002b8b0       ??$?RV<lambda_2b8ba55cb2a29189d70f882b678c7350>@@AEAV<lambda_ab9668973a2a61b07c64846465621f55>@@V<lambda_748afda9c1ab82b4e15f74dcdf75db74>@@@?$__crt_seh_guarded_call@H@@QEAAH$$QEAV<lambda_2b8ba55cb2a29189d70f882b678c7350>@@AEAV<lambda_ab9668973a2a61b07c64846465621f55>@@$$QEAV<lambda_748afda9c1ab82b4e15f74dcdf75db74>@@@Z 000000018002c8b0 f i libucrtd:output.obj
 0001:0002b900       ??$?RV<lambda_4942f9dcb8a83a0b649775421cdab7f2>@@AEAV<lambda_9fdeb54d99e6c7e515b8c19e0613d470>@@V<lambda_f61bc4569557b8ad96931f67d51af400>@@@?$__crt_seh_guarded_call@H@@QEAAH$$QEAV<lambda_4942f9dcb8a83a0b649775421cdab7f2>@@AEAV<lambda_9fdeb54d99e6c7e515b8c19e0613d470>@@$$QEAV<lambda_f61bc4569557b8ad96931f67d51af400>@@@Z 000000018002c900 f i libucrtd:output.obj
 0001:0002b950       ??$?RV<lambda_7b91131dde12e1c3dfc74ff76b3f2eac>@@AEAV<lambda_dd75445284c072d0bd3768540cc698fa>@@V<lambda_16bc4ecb55b4718497c16bceaea2ceaf>@@@?$__crt_seh_guarded_call@H@@QEAAH$$QEAV<lambda_7b91131dde12e1c3dfc74ff76b3f2eac>@@AEAV<lambda_dd75445284c072d0bd3768540cc698fa>@@$$QEAV<lambda_16bc4ecb55b4718497c16bceaea2ceaf>@@@Z 000000018002c950 f i libucrtd:output.obj
 0001:0002b9a0       ??$?RV<lambda_aa279a7bcb127014629d5b1d62c7325d>@@AEAV<lambda_0a64b6a4deda75c01876f29c44fc5eb3>@@V<lambda_3323e69fbefe9d1a11713e670d47cdfa>@@@?$__crt_seh_guarded_call@H@@QEAAH$$QEAV<lambda_aa279a7bcb127014629d5b1d62c7325d>@@AEAV<lambda_0a64b6a4deda75c01876f29c44fc5eb3>@@$$QEAV<lambda_3323e69fbefe9d1a11713e670d47cdfa>@@@Z 000000018002c9a0 f i libucrtd:output.obj
 0001:0002b9f0       ??$?RV<lambda_c232a0c49490a30f399a8430f51b50ba>@@AEAV<lambda_7b6c652cce95ef5b7c2ff34f92bf0578>@@V<lambda_c415c6f6d9d103d7e93818ef66b8cc8a>@@@?$__crt_seh_guarded_call@H@@QEAAH$$QEAV<lambda_c232a0c49490a30f399a8430f51b50ba>@@AEAV<lambda_7b6c652cce95ef5b7c2ff34f92bf0578>@@$$QEAV<lambda_c415c6f6d9d103d7e93818ef66b8cc8a>@@@Z 000000018002c9f0 f i libucrtd:output.obj
 0001:0002ba40       ??$__acrt_lock_stream_and_call@V<lambda_0a64b6a4deda75c01876f29c44fc5eb3>@@@@YAHQEAU_iobuf@@$$QEAV<lambda_0a64b6a4deda75c01876f29c44fc5eb3>@@@Z 000000018002ca40 f i libucrtd:output.obj
 0001:0002bab0       ??$__acrt_lock_stream_and_call@V<lambda_576477a770bb5ab586b2d9569451c7f7>@@@@YAHQEAU_iobuf@@$$QEAV<lambda_576477a770bb5ab586b2d9569451c7f7>@@@Z 000000018002cab0 f i libucrtd:output.obj
 0001:0002bb20       ??$__acrt_lock_stream_and_call@V<lambda_7b6c652cce95ef5b7c2ff34f92bf0578>@@@@YAHQEAU_iobuf@@$$QEAV<lambda_7b6c652cce95ef5b7c2ff34f92bf0578>@@@Z 000000018002cb20 f i libucrtd:output.obj
 0001:0002bb90       ??$__acrt_lock_stream_and_call@V<lambda_9fdeb54d99e6c7e515b8c19e0613d470>@@@@YAHQEAU_iobuf@@$$QEAV<lambda_9fdeb54d99e6c7e515b8c19e0613d470>@@@Z 000000018002cb90 f i libucrtd:output.obj
 0001:0002bc00       ??$__acrt_lock_stream_and_call@V<lambda_ab9668973a2a61b07c64846465621f55>@@@@YAHQEAU_iobuf@@$$QEAV<lambda_ab9668973a2a61b07c64846465621f55>@@@Z 000000018002cc00 f i libucrtd:output.obj
 0001:0002bc70       ??$__acrt_lock_stream_and_call@V<lambda_dd75445284c072d0bd3768540cc698fa>@@@@YAHQEAU_iobuf@@$$QEAV<lambda_dd75445284c072d0bd3768540cc698fa>@@@Z 000000018002cc70 f i libucrtd:output.obj
 0001:0002bce0       ??$__crt_interlocked_read@J@@YAJPEDJ@Z 000000018002cce0 f i libucrtd:output.obj
 0001:0002f7c0       ??$count@D@formatting_buffer@__crt_stdio_output@@QEBA_KXZ 00000001800307c0 f i libucrtd:output.obj
 0001:0002f810       ??$data@D@formatting_buffer@__crt_stdio_output@@QEAAPEADXZ 0000000180030810 f i libucrtd:output.obj
 0001:0002f860       ??$data@_W@formatting_buffer@__crt_stdio_output@@QEAAPEA_WXZ 0000000180030860 f i libucrtd:output.obj
 0001:0002f8b0       ??$ensure_buffer_is_big_enough@D@formatting_buffer@__crt_stdio_output@@QEAA_N_K@Z 00000001800308b0 f i libucrtd:output.obj
 0001:0002f9e0       ??$extract_argument_from_va_list@C_J@?$positional_parameter_base@DV?$stream_output_adapter@D@__crt_stdio_output@@@__crt_stdio_output@@IEAA_NAEA_J@Z 00000001800309e0 f i libucrtd:output.obj
 0001:0002fb60       ??$extract_argument_from_va_list@C_J@?$positional_parameter_base@DV?$string_output_adapter@D@__crt_stdio_output@@@__crt_stdio_output@@IEAA_NAEA_J@Z 0000000180030b60 f i libucrtd:output.obj
 0001:0002fce0       ??$extract_argument_from_va_list@C_J@?$positional_parameter_base@_WV?$stream_output_adapter@_W@__crt_stdio_output@@@__crt_stdio_output@@IEAA_NAEA_J@Z 0000000180030ce0 f i libucrtd:output.obj
 0001:0002fe60       ??$extract_argument_from_va_list@C_J@?$positional_parameter_base@_WV?$string_output_adapter@_W@__crt_stdio_output@@@__crt_stdio_output@@IEAA_NAEA_J@Z 0000000180030e60 f i libucrtd:output.obj
 0001:0002ffe0       ??$extract_argument_from_va_list@C_J@?$standard_base@DV?$stream_output_adapter@D@__crt_stdio_output@@@__crt_stdio_output@@IEAA_NAEA_J@Z 0000000180030fe0 f i libucrtd:output.obj
 0001:00030020       ??$extract_argument_from_va_list@C_J@?$standard_base@DV?$string_output_adapter@D@__crt_stdio_output@@@__crt_stdio_output@@IEAA_NAEA_J@Z 0000000180031020 f i libucrtd:output.obj
 0001:00030060       ??$extract_argument_from_va_list@C_J@?$standard_base@_WV?$stream_output_adapter@_W@__crt_stdio_output@@@__crt_stdio_output@@IEAA_NAEA_J@Z 0000000180031060 f i libucrtd:output.obj
 0001:000300a0       ??$extract_argument_from_va_list@C_J@?$standard_base@_WV?$string_output_adapter@_W@__crt_stdio_output@@@__crt_stdio_output@@IEAA_NAEA_J@Z 00000001800310a0 f i libucrtd:output.obj
 0001:000300e0       ??$extract_argument_from_va_list@E_J@?$positional_parameter_base@DV?$stream_output_adapter@D@__crt_stdio_output@@@__crt_stdio_output@@IEAA_NAEA_J@Z 00000001800310e0 f i libucrtd:output.obj
 0001:00030260       ??$extract_argument_from_va_list@E_J@?$positional_parameter_base@DV?$string_output_adapter@D@__crt_stdio_output@@@__crt_stdio_output@@IEAA_NAEA_J@Z 0000000180031260 f i libucrtd:output.obj
 0001:000303e0       ??$extract_argument_from_va_list@E_J@?$positional_parameter_base@_WV?$stream_output_adapter@_W@__crt_stdio_output@@@__crt_stdio_output@@IEAA_NAEA_J@Z 00000001800313e0 f i libucrtd:output.obj
 0001:00030560       ??$extract_argument_from_va_list@E_J@?$positional_parameter_base@_WV?$string_output_adapter@_W@__crt_stdio_output@@@__crt_stdio_output@@IEAA_NAEA_J@Z 0000000180031560 f i libucrtd:output.obj
 0001:000306e0       ??$extract_argument_from_va_list@E_J@?$standard_base@DV?$stream_output_adapter@D@__crt_stdio_output@@@__crt_stdio_output@@IEAA_NAEA_J@Z 00000001800316e0 f i libucrtd:output.obj
 0001:00030720       ??$extract_argument_from_va_list@E_J@?$standard_base@DV?$string_output_adapter@D@__crt_stdio_output@@@__crt_stdio_output@@IEAA_NAEA_J@Z 0000000180031720 f i libucrtd:output.obj
 0001:00030760       ??$extract_argument_from_va_list@E_J@?$standard_base@_WV?$stream_output_adapter@_W@__crt_stdio_output@@@__crt_stdio_output@@IEAA_NAEA_J@Z 0000000180031760 f i libucrtd:output.obj
 0001:000307a0       ??$extract_argument_from_va_list@E_J@?$standard_base@_WV?$string_output_adapter@_W@__crt_stdio_output@@@__crt_stdio_output@@IEAA_NAEA_J@Z 00000001800317a0 f i libucrtd:output.obj
 0001:000307e0       ??$extract_argument_from_va_list@F_J@?$positional_parameter_base@DV?$stream_output_adapter@D@__crt_stdio_output@@@__crt_stdio_output@@IEAA_NAEA_J@Z 00000001800317e0 f i libucrtd:output.obj
 0001:00030960       ??$extract_argument_from_va_list@F_J@?$positional_parameter_base@DV?$string_output_adapter@D@__crt_stdio_output@@@__crt_stdio_output@@IEAA_NAEA_J@Z 0000000180031960 f i libucrtd:output.obj
 0001:00030ae0       ??$extract_argument_from_va_list@F_J@?$positional_parameter_base@_WV?$stream_output_adapter@_W@__crt_stdio_output@@@__crt_stdio_output@@IEAA_NAEA_J@Z 0000000180031ae0 f i libucrtd:output.obj
 0001:00030c60       ??$extract_argument_from_va_list@F_J@?$positional_parameter_base@_WV?$string_output_adapter@_W@__crt_stdio_output@@@__crt_stdio_output@@IEAA_NAEA_J@Z 0000000180031c60 f i libucrtd:output.obj
 0001:00030de0       ??$extract_argument_from_va_list@F_J@?$standard_base@DV?$stream_output_adapter@D@__crt_stdio_output@@@__crt_stdio_output@@IEAA_NAEA_J@Z 0000000180031de0 f i libucrtd:output.obj
 0001:00030e20       ??$extract_argument_from_va_list@F_J@?$standard_base@DV?$string_output_adapter@D@__crt_stdio_output@@@__crt_stdio_output@@IEAA_NAEA_J@Z 0000000180031e20 f i libucrtd:output.obj
 0001:00030e60       ??$extract_argument_from_va_list@F_J@?$standard_base@_WV?$stream_output_adapter@_W@__crt_stdio_output@@@__crt_stdio_output@@IEAA_NAEA_J@Z 0000000180031e60 f i libucrtd:output.obj
 0001:00030ea0       ??$extract_argument_from_va_list@F_J@?$standard_base@_WV?$string_output_adapter@_W@__crt_stdio_output@@@__crt_stdio_output@@IEAA_NAEA_J@Z 0000000180031ea0 f i libucrtd:output.obj
 0001:00030ee0       ??$extract_argument_from_va_list@GD@?$positional_parameter_base@DV?$stream_output_adapter@D@__crt_stdio_output@@@__crt_stdio_output@@IEAA_NAEAD@Z 0000000180031ee0 f i libucrtd:output.obj
 0001:00031060       ??$extract_argument_from_va_list@GD@?$positional_parameter_base@DV?$string_output_adapter@D@__crt_stdio_output@@@__crt_stdio_output@@IEAA_NAEAD@Z 0000000180032060 f i libucrtd:output.obj
 0001:000311e0       ??$extract_argument_from_va_list@GD@?$standard_base@DV?$stream_output_adapter@D@__crt_stdio_output@@@__crt_stdio_output@@IEAA_NAEAD@Z 00000001800321e0 f i libucrtd:output.obj
 0001:00031210       ??$extract_argument_from_va_list@GD@?$standard_base@DV?$string_output_adapter@D@__crt_stdio_output@@@__crt_stdio_output@@IEAA_NAEAD@Z 0000000180032210 f i libucrtd:output.obj
 0001:00031240       ??$extract_argument_from_va_list@G_J@?$positional_parameter_base@DV?$stream_output_adapter@D@__crt_stdio_output@@@__crt_stdio_output@@IEAA_NAEA_J@Z 0000000180032240 f i libucrtd:output.obj
 0001:000313c0       ??$extract_argument_from_va_list@G_J@?$positional_parameter_base@DV?$string_output_adapter@D@__crt_stdio_output@@@__crt_stdio_output@@IEAA_NAEA_J@Z 00000001800323c0 f i libucrtd:output.obj
 0001:00031540       ??$extract_argument_from_va_list@G_J@?$positional_parameter_base@_WV?$stream_output_adapter@_W@__crt_stdio_output@@@__crt_stdio_output@@IEAA_NAEA_J@Z 0000000180032540 f i libucrtd:output.obj
 0001:000316c0       ??$extract_argument_from_va_list@G_J@?$positional_parameter_base@_WV?$string_output_adapter@_W@__crt_stdio_output@@@__crt_stdio_output@@IEAA_NAEA_J@Z 00000001800326c0 f i libucrtd:output.obj
 0001:00031840       ??$extract_argument_from_va_list@G_J@?$standard_base@DV?$stream_output_adapter@D@__crt_stdio_output@@@__crt_stdio_output@@IEAA_NAEA_J@Z 0000000180032840 f i libucrtd:output.obj
 0001:00031880       ??$extract_argument_from_va_list@G_J@?$standard_base@DV?$string_output_adapter@D@__crt_stdio_output@@@__crt_stdio_output@@IEAA_NAEA_J@Z 0000000180032880 f i libucrtd:output.obj
 0001:000318c0       ??$extract_argument_from_va_list@G_J@?$standard_base@_WV?$stream_output_adapter@_W@__crt_stdio_output@@@__crt_stdio_output@@IEAA_NAEA_J@Z 00000001800328c0 f i libucrtd:output.obj
 0001:00031900       ??$extract_argument_from_va_list@G_J@?$standard_base@_WV?$string_output_adapter@_W@__crt_stdio_output@@@__crt_stdio_output@@IEAA_NAEA_J@Z 0000000180032900 f i libucrtd:output.obj
 0001:00031940       ??$extract_argument_from_va_list@H_J@?$positional_parameter_base@DV?$stream_output_adapter@D@__crt_stdio_output@@@__crt_stdio_output@@IEAA_NAEA_J@Z 0000000180032940 f i libucrtd:output.obj
 0001:00031ac0       ??$extract_argument_from_va_list@H_J@?$positional_parameter_base@DV?$string_output_adapter@D@__crt_stdio_output@@@__crt_stdio_output@@IEAA_NAEA_J@Z 0000000180032ac0 f i libucrtd:output.obj
 0001:00031c40       ??$extract_argument_from_va_list@H_J@?$positional_parameter_base@_WV?$stream_output_adapter@_W@__crt_stdio_output@@@__crt_stdio_output@@IEAA_NAEA_J@Z 0000000180032c40 f i libucrtd:output.obj
 0001:00031dc0       ??$extract_argument_from_va_list@H_J@?$positional_parameter_base@_WV?$string_output_adapter@_W@__crt_stdio_output@@@__crt_stdio_output@@IEAA_NAEA_J@Z 0000000180032dc0 f i libucrtd:output.obj
 0001:00031f40       ??$extract_argument_from_va_list@H_J@?$standard_base@DV?$stream_output_adapter@D@__crt_stdio_output@@@__crt_stdio_output@@IEAA_NAEA_J@Z 0000000180032f40 f i libucrtd:output.obj
 0001:00031f70       ??$extract_argument_from_va_list@H_J@?$standard_base@DV?$string_output_adapter@D@__crt_stdio_output@@@__crt_stdio_output@@IEAA_NAEA_J@Z 0000000180032f70 f i libucrtd:output.obj
 0001:00031fa0       ??$extract_argument_from_va_list@H_J@?$standard_base@_WV?$stream_output_adapter@_W@__crt_stdio_output@@@__crt_stdio_output@@IEAA_NAEA_J@Z 0000000180032fa0 f i libucrtd:output.obj
 0001:00031fd0       ??$extract_argument_from_va_list@H_J@?$standard_base@_WV?$string_output_adapter@_W@__crt_stdio_output@@@__crt_stdio_output@@IEAA_NAEA_J@Z 0000000180032fd0 f i libucrtd:output.obj
 0001:00032000       ??$extract_argument_from_va_list@I_J@?$positional_parameter_base@DV?$stream_output_adapter@D@__crt_stdio_output@@@__crt_stdio_output@@IEAA_NAEA_J@Z 0000000180033000 f i libucrtd:output.obj
 0001:00032180       ??$extract_argument_from_va_list@I_J@?$positional_parameter_base@DV?$string_output_adapter@D@__crt_stdio_output@@@__crt_stdio_output@@IEAA_NAEA_J@Z 0000000180033180 f i libucrtd:output.obj
 0001:00032300       ??$extract_argument_from_va_list@I_J@?$positional_parameter_base@_WV?$stream_output_adapter@_W@__crt_stdio_output@@@__crt_stdio_output@@IEAA_NAEA_J@Z 0000000180033300 f i libucrtd:output.obj
 0001:00032480       ??$extract_argument_from_va_list@I_J@?$positional_parameter_base@_WV?$string_output_adapter@_W@__crt_stdio_output@@@__crt_stdio_output@@IEAA_NAEA_J@Z 0000000180033480 f i libucrtd:output.obj
 0001:00032600       ??$extract_argument_from_va_list@I_J@?$standard_base@DV?$stream_output_adapter@D@__crt_stdio_output@@@__crt_stdio_output@@IEAA_NAEA_J@Z 0000000180033600 f i libucrtd:output.obj
 0001:00032630       ??$extract_argument_from_va_list@I_J@?$standard_base@DV?$string_output_adapter@D@__crt_stdio_output@@@__crt_stdio_output@@IEAA_NAEA_J@Z 0000000180033630 f i libucrtd:output.obj
 0001:00032660       ??$extract_argument_from_va_list@I_J@?$standard_base@_WV?$stream_output_adapter@_W@__crt_stdio_output@@@__crt_stdio_output@@IEAA_NAEA_J@Z 0000000180033660 f i libucrtd:output.obj
 0001:00032690       ??$extract_argument_from_va_list@I_J@?$standard_base@_WV?$string_output_adapter@_W@__crt_stdio_output@@@__crt_stdio_output@@IEAA_NAEA_J@Z 0000000180033690 f i libucrtd:output.obj
 0001:000326c0       ??$extract_argument_from_va_list@PEADPEAD@?$positional_parameter_base@DV?$stream_output_adapter@D@__crt_stdio_output@@@__crt_stdio_output@@IEAA_NAEAPEAD@Z 00000001800336c0 f i libucrtd:output.obj
 0001:00032840       ??$extract_argument_from_va_list@PEADPEAD@?$positional_parameter_base@DV?$string_output_adapter@D@__crt_stdio_output@@@__crt_stdio_output@@IEAA_NAEAPEAD@Z 0000000180033840 f i libucrtd:output.obj
 0001:000329c0       ??$extract_argument_from_va_list@PEADPEAD@?$positional_parameter_base@_WV?$stream_output_adapter@_W@__crt_stdio_output@@@__crt_stdio_output@@IEAA_NAEAPEAD@Z 00000001800339c0 f i libucrtd:output.obj
 0001:00032b40       ??$extract_argument_from_va_list@PEADPEAD@?$positional_parameter_base@_WV?$string_output_adapter@_W@__crt_stdio_output@@@__crt_stdio_output@@IEAA_NAEAPEAD@Z 0000000180033b40 f i libucrtd:output.obj
 0001:00032cc0       ??$extract_argument_from_va_list@PEADPEAD@?$standard_base@DV?$stream_output_adapter@D@__crt_stdio_output@@@__crt_stdio_output@@IEAA_NAEAPEAD@Z 0000000180033cc0 f i libucrtd:output.obj
 0001:00032cf0       ??$extract_argument_from_va_list@PEADPEAD@?$standard_base@DV?$string_output_adapter@D@__crt_stdio_output@@@__crt_stdio_output@@IEAA_NAEAPEAD@Z 0000000180033cf0 f i libucrtd:output.obj
 0001:00032d20       ??$extract_argument_from_va_list@PEADPEAD@?$standard_base@_WV?$stream_output_adapter@_W@__crt_stdio_output@@@__crt_stdio_output@@IEAA_NAEAPEAD@Z 0000000180033d20 f i libucrtd:output.obj
 0001:00032d50       ??$extract_argument_from_va_list@PEADPEAD@?$standard_base@_WV?$string_output_adapter@_W@__crt_stdio_output@@@__crt_stdio_output@@IEAA_NAEAPEAD@Z 0000000180033d50 f i libucrtd:output.obj
 0001:00032d80       ??$extract_argument_from_va_list@PEAUansi_string@?1??type_case_Z@?$output_processor@DV?$stream_output_adapter@D@__crt_stdio_output@@V?$format_validation_base@DV?$stream_output_adapter@D@__crt_stdio_output@@@2@@__crt_stdio_output@@AEAA_NXZ@PEAU1?1??234@AEAA_NXZ@@?$standard_base@DV?$stream_output_adapter@D@__crt_stdio_output@@@__crt_stdio_output@@IEAA_NAEAPEAUansi_string@?1??type_case_Z@?$output_processor@DV?$stream_output_adapter@D@__crt_stdio_output@@V?$format_validation_base@DV?$stream_output_adapter@D@__crt_stdio_output@@@2@@1@AEAA_NXZ@@Z 0000000180033d80 f i libucrtd:output.obj
 0001:00032db0       ??$extract_argument_from_va_list@PEAUansi_string@?1??type_case_Z@?$output_processor@DV?$stream_output_adapter@D@__crt_stdio_output@@V?$positional_parameter_base@DV?$stream_output_adapter@D@__crt_stdio_output@@@2@@__crt_stdio_output@@AEAA_NXZ@PEAU1?1??234@AEAA_NXZ@@?$positional_parameter_base@DV?$stream_output_adapter@D@__crt_stdio_output@@@__crt_stdio_output@@IEAA_NAEAPEAUansi_string@?1??type_case_Z@?$output_processor@DV?$stream_output_adapter@D@__crt_stdio_output@@V?$positional_parameter_base@DV?$stream_output_adapter@D@__crt_stdio_output@@@2@@1@AEAA_NXZ@@Z 0000000180033db0 f i libucrtd:output.obj
 0001:00032f30       ??$extract_argument_from_va_list@PEAUansi_string@?1??type_case_Z@?$output_processor@DV?$stream_output_adapter@D@__crt_stdio_output@@V?$positional_parameter_base@DV?$stream_output_adapter@D@__crt_stdio_output@@@2@@__crt_stdio_output@@AEAA_NXZ@PEAU1?1??234@AEAA_NXZ@@?$standard_base@DV?$stream_output_adapter@D@__crt_stdio_output@@@__crt_stdio_output@@IEAA_NAEAPEAUansi_string@?1??type_case_Z@?$output_processor@DV?$stream_output_adapter@D@__crt_stdio_output@@V?$positional_parameter_base@DV?$stream_output_adapter@D@__crt_stdio_output@@@2@@1@AEAA_NXZ@@Z 0000000180033f30 f i libucrtd:output.obj
 0001:00032f60       ??$extract_argument_from_va_list@PEAUansi_string@?1??type_case_Z@?$output_processor@DV?$stream_output_adapter@D@__crt_stdio_output@@V?$standard_base@DV?$stream_output_adapter@D@__crt_stdio_output@@@2@@__crt_stdio_output@@AEAA_NXZ@PEAU1?1??234@AEAA_NXZ@@?$standard_base@DV?$stream_output_adapter@D@__crt_stdio_output@@@__crt_stdio_output@@IEAA_NAEAPEAUansi_string@?1??type_case_Z@?$output_processor@DV?$stream_output_adapter@D@__crt_stdio_output@@V?$standard_base@DV?$stream_output_adapter@D@__crt_stdio_output@@@2@@1@AEAA_NXZ@@Z 0000000180033f60 f i libucrtd:output.obj
 0001:00032f90       ??$extract_argument_from_va_list@PEAUansi_string@?1??type_case_Z@?$output_processor@DV?$string_output_adapter@D@__crt_stdio_output@@V?$format_validation_base@DV?$string_output_adapter@D@__crt_stdio_output@@@2@@__crt_stdio_output@@AEAA_NXZ@PEAU1?1??234@AEAA_NXZ@@?$standard_base@DV?$string_output_adapter@D@__crt_stdio_output@@@__crt_stdio_output@@IEAA_NAEAPEAUansi_string@?1??type_case_Z@?$output_processor@DV?$string_output_adapter@D@__crt_stdio_output@@V?$format_validation_base@DV?$string_output_adapter@D@__crt_stdio_output@@@2@@1@AEAA_NXZ@@Z 0000000180033f90 f i libucrtd:output.obj
 0001:00032fc0       ??$extract_argument_from_va_list@PEAUansi_string@?1??type_case_Z@?$output_processor@DV?$string_output_adapter@D@__crt_stdio_output@@V?$positional_parameter_base@DV?$string_output_adapter@D@__crt_stdio_output@@@2@@__crt_stdio_output@@AEAA_NXZ@PEAU1?1??234@AEAA_NXZ@@?$positional_parameter_base@DV?$string_output_adapter@D@__crt_stdio_output@@@__crt_stdio_output@@IEAA_NAEAPEAUansi_string@?1??type_case_Z@?$output_processor@DV?$string_output_adapter@D@__crt_stdio_output@@V?$positional_parameter_base@DV?$string_output_adapter@D@__crt_stdio_output@@@2@@1@AEAA_NXZ@@Z 0000000180033fc0 f i libucrtd:output.obj
 0001:00033140       ??$extract_argument_from_va_list@PEAUansi_string@?1??type_case_Z@?$output_processor@DV?$string_output_adapter@D@__crt_stdio_output@@V?$positional_parameter_base@DV?$string_output_adapter@D@__crt_stdio_output@@@2@@__crt_stdio_output@@AEAA_NXZ@PEAU1?1??234@AEAA_NXZ@@?$standard_base@DV?$string_output_adapter@D@__crt_stdio_output@@@__crt_stdio_output@@IEAA_NAEAPEAUansi_string@?1??type_case_Z@?$output_processor@DV?$string_output_adapter@D@__crt_stdio_output@@V?$positional_parameter_base@DV?$string_output_adapter@D@__crt_stdio_output@@@2@@1@AEAA_NXZ@@Z 0000000180034140 f i libucrtd:output.obj
 0001:00033170       ??$extract_argument_from_va_list@PEAUansi_string@?1??type_case_Z@?$output_processor@DV?$string_output_adapter@D@__crt_stdio_output@@V?$standard_base@DV?$string_output_adapter@D@__crt_stdio_output@@@2@@__crt_stdio_output@@AEAA_NXZ@PEAU1?1??234@AEAA_NXZ@@?$standard_base@DV?$string_output_adapter@D@__crt_stdio_output@@@__crt_stdio_output@@IEAA_NAEAPEAUansi_string@?1??type_case_Z@?$output_processor@DV?$string_output_adapter@D@__crt_stdio_output@@V?$standard_base@DV?$string_output_adapter@D@__crt_stdio_output@@@2@@1@AEAA_NXZ@@Z 0000000180034170 f i libucrtd:output.obj
 0001:000331a0       ??$extract_argument_from_va_list@PEAUansi_string@?1??type_case_Z@?$output_processor@_WV?$stream_output_adapter@_W@__crt_stdio_output@@V?$format_validation_base@_WV?$stream_output_adapter@_W@__crt_stdio_output@@@2@@__crt_stdio_output@@AEAA_NXZ@PEAU1?1??234@AEAA_NXZ@@?$standard_base@_WV?$stream_output_adapter@_W@__crt_stdio_output@@@__crt_stdio_output@@IEAA_NAEAPEAUansi_string@?1??type_case_Z@?$output_processor@_WV?$stream_output_adapter@_W@__crt_stdio_output@@V?$format_validation_base@_WV?$stream_output_adapter@_W@__crt_stdio_output@@@2@@1@AEAA_NXZ@@Z 00000001800341a0 f i libucrtd:output.obj
 0001:000331d0       ??$extract_argument_from_va_list@PEAUansi_string@?1??type_case_Z@?$output_processor@_WV?$stream_output_adapter@_W@__crt_stdio_output@@V?$positional_parameter_base@_WV?$stream_output_adapter@_W@__crt_stdio_output@@@2@@__crt_stdio_output@@AEAA_NXZ@PEAU1?1??234@AEAA_NXZ@@?$positional_parameter_base@_WV?$stream_output_adapter@_W@__crt_stdio_output@@@__crt_stdio_output@@IEAA_NAEAPEAUansi_string@?1??type_case_Z@?$output_processor@_WV?$stream_output_adapter@_W@__crt_stdio_output@@V?$positional_parameter_base@_WV?$stream_output_adapter@_W@__crt_stdio_output@@@2@@1@AEAA_NXZ@@Z 00000001800341d0 f i libucrtd:output.obj
 0001:00033350       ??$extract_argument_from_va_list@PEAUansi_string@?1??type_case_Z@?$output_processor@_WV?$stream_output_adapter@_W@__crt_stdio_output@@V?$positional_parameter_base@_WV?$stream_output_adapter@_W@__crt_stdio_output@@@2@@__crt_stdio_output@@AEAA_NXZ@PEAU1?1??234@AEAA_NXZ@@?$standard_base@_WV?$stream_output_adapter@_W@__crt_stdio_output@@@__crt_stdio_output@@IEAA_NAEAPEAUansi_string@?1??type_case_Z@?$output_processor@_WV?$stream_output_adapter@_W@__crt_stdio_output@@V?$positional_parameter_base@_WV?$stream_output_adapter@_W@__crt_stdio_output@@@2@@1@AEAA_NXZ@@Z 0000000180034350 f i libucrtd:output.obj
 0001:00033380       ??$extract_argument_from_va_list@PEAUansi_string@?1??type_case_Z@?$output_processor@_WV?$stream_output_adapter@_W@__crt_stdio_output@@V?$standard_base@_WV?$stream_output_adapter@_W@__crt_stdio_output@@@2@@__crt_stdio_output@@AEAA_NXZ@PEAU1?1??234@AEAA_NXZ@@?$standard_base@_WV?$stream_output_adapter@_W@__crt_stdio_output@@@__crt_stdio_output@@IEAA_NAEAPEAUansi_string@?1??type_case_Z@?$output_processor@_WV?$stream_output_adapter@_W@__crt_stdio_output@@V?$standard_base@_WV?$stream_output_adapter@_W@__crt_stdio_output@@@2@@1@AEAA_NXZ@@Z 0000000180034380 f i libucrtd:output.obj
 0001:000333b0       ??$extract_argument_from_va_list@PEAUansi_string@?1??type_case_Z@?$output_processor@_WV?$string_output_adapter@_W@__crt_stdio_output@@V?$format_validation_base@_WV?$string_output_adapter@_W@__crt_stdio_output@@@2@@__crt_stdio_output@@AEAA_NXZ@PEAU1?1??234@AEAA_NXZ@@?$standard_base@_WV?$string_output_adapter@_W@__crt_stdio_output@@@__crt_stdio_output@@IEAA_NAEAPEAUansi_string@?1??type_case_Z@?$output_processor@_WV?$string_output_adapter@_W@__crt_stdio_output@@V?$format_validation_base@_WV?$string_output_adapter@_W@__crt_stdio_output@@@2@@1@AEAA_NXZ@@Z 00000001800343b0 f i libucrtd:output.obj
 0001:000333e0       ??$extract_argument_from_va_list@PEAUansi_string@?1??type_case_Z@?$output_processor@_WV?$string_output_adapter@_W@__crt_stdio_output@@V?$positional_parameter_base@_WV?$string_output_adapter@_W@__crt_stdio_output@@@2@@__crt_stdio_output@@AEAA_NXZ@PEAU1?1??234@AEAA_NXZ@@?$positional_parameter_base@_WV?$string_output_adapter@_W@__crt_stdio_output@@@__crt_stdio_output@@IEAA_NAEAPEAUansi_string@?1??type_case_Z@?$output_processor@_WV?$string_output_adapter@_W@__crt_stdio_output@@V?$positional_parameter_base@_WV?$string_output_adapter@_W@__crt_stdio_output@@@2@@1@AEAA_NXZ@@Z 00000001800343e0 f i libucrtd:output.obj
 0001:00033560       ??$extract_argument_from_va_list@PEAUansi_string@?1??type_case_Z@?$output_processor@_WV?$string_output_adapter@_W@__crt_stdio_output@@V?$positional_parameter_base@_WV?$string_output_adapter@_W@__crt_stdio_output@@@2@@__crt_stdio_output@@AEAA_NXZ@PEAU1?1??234@AEAA_NXZ@@?$standard_base@_WV?$string_output_adapter@_W@__crt_stdio_output@@@__crt_stdio_output@@IEAA_NAEAPEAUansi_string@?1??type_case_Z@?$output_processor@_WV?$string_output_adapter@_W@__crt_stdio_output@@V?$positional_parameter_base@_WV?$string_output_adapter@_W@__crt_stdio_output@@@2@@1@AEAA_NXZ@@Z 0000000180034560 f i libucrtd:output.obj
 0001:00033590       ??$extract_argument_from_va_list@PEAUansi_string@?1??type_case_Z@?$output_processor@_WV?$string_output_adapter@_W@__crt_stdio_output@@V?$standard_base@_WV?$string_output_adapter@_W@__crt_stdio_output@@@2@@__crt_stdio_output@@AEAA_NXZ@PEAU1?1??234@AEAA_NXZ@@?$standard_base@_WV?$string_output_adapter@_W@__crt_stdio_output@@@__crt_stdio_output@@IEAA_NAEAPEAUansi_string@?1??type_case_Z@?$output_processor@_WV?$string_output_adapter@_W@__crt_stdio_output@@V?$standard_base@_WV?$string_output_adapter@_W@__crt_stdio_output@@@2@@1@AEAA_NXZ@@Z 0000000180034590 f i libucrtd:output.obj
 0001:000335c0       ??$extract_argument_from_va_list@PEAXPEAX@?$positional_parameter_base@DV?$stream_output_adapter@D@__crt_stdio_output@@@__crt_stdio_output@@IEAA_NAEAPEAX@Z 00000001800345c0 f i libucrtd:output.obj
 0001:00033740       ??$extract_argument_from_va_list@PEAXPEAX@?$positional_parameter_base@DV?$string_output_adapter@D@__crt_stdio_output@@@__crt_stdio_output@@IEAA_NAEAPEAX@Z 0000000180034740 f i libucrtd:output.obj
 0001:000338c0       ??$extract_argument_from_va_list@PEAXPEAX@?$positional_parameter_base@_WV?$stream_output_adapter@_W@__crt_stdio_output@@@__crt_stdio_output@@IEAA_NAEAPEAX@Z 00000001800348c0 f i libucrtd:output.obj
 0001:00033a40       ??$extract_argument_from_va_list@PEAXPEAX@?$positional_parameter_base@_WV?$string_output_adapter@_W@__crt_stdio_output@@@__crt_stdio_output@@IEAA_NAEAPEAX@Z 0000000180034a40 f i libucrtd:output.obj
 0001:00033bc0       ??$extract_argument_from_va_list@PEAXPEAX@?$standard_base@DV?$stream_output_adapter@D@__crt_stdio_output@@@__crt_stdio_output@@IEAA_NAEAPEAX@Z 0000000180034bc0 f i libucrtd:output.obj
 0001:00033bf0       ??$extract_argument_from_va_list@PEAXPEAX@?$standard_base@DV?$string_output_adapter@D@__crt_stdio_output@@@__crt_stdio_output@@IEAA_NAEAPEAX@Z 0000000180034bf0 f i libucrtd:output.obj
 0001:00033c20       ??$extract_argument_from_va_list@PEAXPEAX@?$standard_base@_WV?$stream_output_adapter@_W@__crt_stdio_output@@@__crt_stdio_output@@IEAA_NAEAPEAX@Z 0000000180034c20 f i libucrtd:output.obj
 0001:00033c50       ??$extract_argument_from_va_list@PEAXPEAX@?$standard_base@_WV?$string_output_adapter@_W@__crt_stdio_output@@@__crt_stdio_output@@IEAA_NAEAPEAX@Z 0000000180034c50 f i libucrtd:output.obj
 0001:00033c80       ??$extract_argument_from_va_list@U_CRT_DOUBLE@@U1@@?$positional_parameter_base@DV?$stream_output_adapter@D@__crt_stdio_output@@@__crt_stdio_output@@IEAA_NAEAU_CRT_DOUBLE@@@Z 0000000180034c80 f i libucrtd:output.obj
 0001:00033e20       ??$extract_argument_from_va_list@U_CRT_DOUBLE@@U1@@?$positional_parameter_base@DV?$string_output_adapter@D@__crt_stdio_output@@@__crt_stdio_output@@IEAA_NAEAU_CRT_DOUBLE@@@Z 0000000180034e20 f i libucrtd:output.obj
 0001:00033fc0       ??$extract_argument_from_va_list@U_CRT_DOUBLE@@U1@@?$positional_parameter_base@_WV?$stream_output_adapter@_W@__crt_stdio_output@@@__crt_stdio_output@@IEAA_NAEAU_CRT_DOUBLE@@@Z 0000000180034fc0 f i libucrtd:output.obj
 0001:00034160       ??$extract_argument_from_va_list@U_CRT_DOUBLE@@U1@@?$positional_parameter_base@_WV?$string_output_adapter@_W@__crt_stdio_output@@@__crt_stdio_output@@IEAA_NAEAU_CRT_DOUBLE@@@Z 0000000180035160 f i libucrtd:output.obj
 0001:00034300       ??$extract_argument_from_va_list@U_CRT_DOUBLE@@U1@@?$standard_base@DV?$stream_output_adapter@D@__crt_stdio_output@@@__crt_stdio_output@@IEAA_NAEAU_CRT_DOUBLE@@@Z 0000000180035300 f i libucrtd:output.obj
 0001:00034350       ??$extract_argument_from_va_list@U_CRT_DOUBLE@@U1@@?$standard_base@DV?$string_output_adapter@D@__crt_stdio_output@@@__crt_stdio_output@@IEAA_NAEAU_CRT_DOUBLE@@@Z 0000000180035350 f i libucrtd:output.obj
 0001:000343a0       ??$extract_argument_from_va_list@U_CRT_DOUBLE@@U1@@?$standard_base@_WV?$stream_output_adapter@_W@__crt_stdio_output@@@__crt_stdio_output@@IEAA_NAEAU_CRT_DOUBLE@@@Z 00000001800353a0 f i libucrtd:output.obj
 0001:000343f0       ??$extract_argument_from_va_list@U_CRT_DOUBLE@@U1@@?$standard_base@_WV?$string_output_adapter@_W@__crt_stdio_output@@@__crt_stdio_output@@IEAA_NAEAU_CRT_DOUBLE@@@Z 00000001800353f0 f i libucrtd:output.obj
 0001:00034440       ??$extract_argument_from_va_list@_J_J@?$positional_parameter_base@DV?$stream_output_adapter@D@__crt_stdio_output@@@__crt_stdio_output@@IEAA_NAEA_J@Z 0000000180035440 f i libucrtd:output.obj
 0001:000345c0       ??$extract_argument_from_va_list@_J_J@?$positional_parameter_base@DV?$string_output_adapter@D@__crt_stdio_output@@@__crt_stdio_output@@IEAA_NAEA_J@Z 00000001800355c0 f i libucrtd:output.obj
 0001:00034740       ??$extract_argument_from_va_list@_J_J@?$positional_parameter_base@_WV?$stream_output_adapter@_W@__crt_stdio_output@@@__crt_stdio_output@@IEAA_NAEA_J@Z 0000000180035740 f i libucrtd:output.obj
 0001:000348c0       ??$extract_argument_from_va_list@_J_J@?$positional_parameter_base@_WV?$string_output_adapter@_W@__crt_stdio_output@@@__crt_stdio_output@@IEAA_NAEA_J@Z 00000001800358c0 f i libucrtd:output.obj
 0001:00034a40       ??$extract_argument_from_va_list@_J_J@?$standard_base@DV?$stream_output_adapter@D@__crt_stdio_output@@@__crt_stdio_output@@IEAA_NAEA_J@Z 0000000180035a40 f i libucrtd:output.obj
 0001:00034a70       ??$extract_argument_from_va_list@_J_J@?$standard_base@DV?$string_output_adapter@D@__crt_stdio_output@@@__crt_stdio_output@@IEAA_NAEA_J@Z 0000000180035a70 f i libucrtd:output.obj
 0001:00034aa0       ??$extract_argument_from_va_list@_J_J@?$standard_base@_WV?$stream_output_adapter@_W@__crt_stdio_output@@@__crt_stdio_output@@IEAA_NAEA_J@Z 0000000180035aa0 f i libucrtd:output.obj
 0001:00034ad0       ??$extract_argument_from_va_list@_J_J@?$standard_base@_WV?$string_output_adapter@_W@__crt_stdio_output@@@__crt_stdio_output@@IEAA_NAEA_J@Z 0000000180035ad0 f i libucrtd:output.obj
 0001:00034b00       ??$extract_argument_from_va_list@_K_J@?$positional_parameter_base@DV?$stream_output_adapter@D@__crt_stdio_output@@@__crt_stdio_output@@IEAA_NAEA_J@Z 0000000180035b00 f i libucrtd:output.obj
 0001:00034c80       ??$extract_argument_from_va_list@_K_J@?$positional_parameter_base@DV?$string_output_adapter@D@__crt_stdio_output@@@__crt_stdio_output@@IEAA_NAEA_J@Z 0000000180035c80 f i libucrtd:output.obj
 0001:00034e00       ??$extract_argument_from_va_list@_K_J@?$positional_parameter_base@_WV?$stream_output_adapter@_W@__crt_stdio_output@@@__crt_stdio_output@@IEAA_NAEA_J@Z 0000000180035e00 f i libucrtd:output.obj
 0001:00034f80       ??$extract_argument_from_va_list@_K_J@?$positional_parameter_base@_WV?$string_output_adapter@_W@__crt_stdio_output@@@__crt_stdio_output@@IEAA_NAEA_J@Z 0000000180035f80 f i libucrtd:output.obj
 0001:00035100       ??$extract_argument_from_va_list@_K_J@?$standard_base@DV?$stream_output_adapter@D@__crt_stdio_output@@@__crt_stdio_output@@IEAA_NAEA_J@Z 0000000180036100 f i libucrtd:output.obj
 0001:00035130       ??$extract_argument_from_va_list@_K_J@?$standard_base@DV?$string_output_adapter@D@__crt_stdio_output@@@__crt_stdio_output@@IEAA_NAEA_J@Z 0000000180036130 f i libucrtd:output.obj
 0001:00035160       ??$extract_argument_from_va_list@_K_J@?$standard_base@_WV?$stream_output_adapter@_W@__crt_stdio_output@@@__crt_stdio_output@@IEAA_NAEA_J@Z 0000000180036160 f i libucrtd:output.obj
 0001:00035190       ??$extract_argument_from_va_list@_K_J@?$standard_base@_WV?$string_output_adapter@_W@__crt_stdio_output@@@__crt_stdio_output@@IEAA_NAEA_J@Z 0000000180036190 f i libucrtd:output.obj
 0001:000351c0       ??$extract_argument_from_va_list@_W_W@?$positional_parameter_base@DV?$stream_output_adapter@D@__crt_stdio_output@@@__crt_stdio_output@@IEAA_NAEA_W@Z 00000001800361c0 f i libucrtd:output.obj
 0001:00035340       ??$extract_argument_from_va_list@_W_W@?$positional_parameter_base@DV?$string_output_adapter@D@__crt_stdio_output@@@__crt_stdio_output@@IEAA_NAEA_W@Z 0000000180036340 f i libucrtd:output.obj
 0001:000354c0       ??$extract_argument_from_va_list@_W_W@?$positional_parameter_base@_WV?$stream_output_adapter@_W@__crt_stdio_output@@@__crt_stdio_output@@IEAA_NAEA_W@Z 00000001800364c0 f i libucrtd:output.obj
 0001:00035640       ??$extract_argument_from_va_list@_W_W@?$positional_parameter_base@_WV?$string_output_adapter@_W@__crt_stdio_output@@@__crt_stdio_output@@IEAA_NAEA_W@Z 0000000180036640 f i libucrtd:output.obj
 0001:000357c0       ??$extract_argument_from_va_list@_W_W@?$standard_base@DV?$stream_output_adapter@D@__crt_stdio_output@@@__crt_stdio_output@@IEAA_NAEA_W@Z 00000001800367c0 f i libucrtd:output.obj
 0001:000357f0       ??$extract_argument_from_va_list@_W_W@?$standard_base@DV?$string_output_adapter@D@__crt_stdio_output@@@__crt_stdio_output@@IEAA_NAEA_W@Z 00000001800367f0 f i libucrtd:output.obj
 0001:00035820       ??$extract_argument_from_va_list@_W_W@?$standard_base@_WV?$stream_output_adapter@_W@__crt_stdio_output@@@__crt_stdio_output@@IEAA_NAEA_W@Z 0000000180036820 f i libucrtd:output.obj
 0001:00035850       ??$extract_argument_from_va_list@_W_W@?$standard_base@_WV?$string_output_adapter@_W@__crt_stdio_output@@@__crt_stdio_output@@IEAA_NAEA_W@Z 0000000180036850 f i libucrtd:output.obj
 0001:00035880       ??$get_parameter_type@D@?$positional_parameter_base@DV?$stream_output_adapter@D@__crt_stdio_output@@@__crt_stdio_output@@CA?AW4parameter_type@01@PEAD@Z 0000000180036880 f i libucrtd:output.obj
 0001:00035890       ??$get_parameter_type@D@?$positional_parameter_base@DV?$string_output_adapter@D@__crt_stdio_output@@@__crt_stdio_output@@CA?AW4parameter_type@01@PEAD@Z 0000000180036890 f i libucrtd:output.obj
 0001:000358a0       ??$get_parameter_type@D@?$positional_parameter_base@_WV?$stream_output_adapter@_W@__crt_stdio_output@@@__crt_stdio_output@@CA?AW4parameter_type@01@PEAD@Z 00000001800368a0 f i libucrtd:output.obj
 0001:000358b0       ??$get_parameter_type@D@?$positional_parameter_base@_WV?$string_output_adapter@_W@__crt_stdio_output@@@__crt_stdio_output@@CA?AW4parameter_type@01@PEAD@Z 00000001800368b0 f i libucrtd:output.obj
 0001:000358c0       ??$get_parameter_type@Uansi_string@?1??type_case_Z@?$output_processor@DV?$stream_output_adapter@D@__crt_stdio_output@@V?$positional_parameter_base@DV?$stream_output_adapter@D@__crt_stdio_output@@@2@@__crt_stdio_output@@AEAA_NXZ@@?$positional_parameter_base@DV?$stream_output_adapter@D@__crt_stdio_output@@@__crt_stdio_output@@CA?AW4parameter_type@01@PEAUansi_string@?1??type_case_Z@?$output_processor@DV?$stream_output_adapter@D@__crt_stdio_output@@V?$positional_parameter_base@DV?$stream_output_adapter@D@__crt_stdio_output@@@2@@1@AEAA_NXZ@@Z 00000001800368c0 f i libucrtd:output.obj
 0001:000358d0       ??$get_parameter_type@Uansi_string@?1??type_case_Z@?$output_processor@DV?$string_output_adapter@D@__crt_stdio_output@@V?$positional_parameter_base@DV?$string_output_adapter@D@__crt_stdio_output@@@2@@__crt_stdio_output@@AEAA_NXZ@@?$positional_parameter_base@DV?$string_output_adapter@D@__crt_stdio_output@@@__crt_stdio_output@@CA?AW4parameter_type@01@PEAUansi_string@?1??type_case_Z@?$output_processor@DV?$string_output_adapter@D@__crt_stdio_output@@V?$positional_parameter_base@DV?$string_output_adapter@D@__crt_stdio_output@@@2@@1@AEAA_NXZ@@Z 00000001800368d0 f i libucrtd:output.obj
 0001:000358e0       ??$get_parameter_type@Uansi_string@?1??type_case_Z@?$output_processor@_WV?$stream_output_adapter@_W@__crt_stdio_output@@V?$positional_parameter_base@_WV?$stream_output_adapter@_W@__crt_stdio_output@@@2@@__crt_stdio_output@@AEAA_NXZ@@?$positional_parameter_base@_WV?$stream_output_adapter@_W@__crt_stdio_output@@@__crt_stdio_output@@CA?AW4parameter_type@01@PEAUansi_string@?1??type_case_Z@?$output_processor@_WV?$stream_output_adapter@_W@__crt_stdio_output@@V?$positional_parameter_base@_WV?$stream_output_adapter@_W@__crt_stdio_output@@@2@@1@AEAA_NXZ@@Z 00000001800368e0 f i libucrtd:output.obj
 0001:000358f0       ??$get_parameter_type@Uansi_string@?1??type_case_Z@?$output_processor@_WV?$string_output_adapter@_W@__crt_stdio_output@@V?$positional_parameter_base@_WV?$string_output_adapter@_W@__crt_stdio_output@@@2@@__crt_stdio_output@@AEAA_NXZ@@?$positional_parameter_base@_WV?$string_output_adapter@_W@__crt_stdio_output@@@__crt_stdio_output@@CA?AW4parameter_type@01@PEAUansi_string@?1??type_case_Z@?$output_processor@_WV?$string_output_adapter@_W@__crt_stdio_output@@V?$positional_parameter_base@_WV?$string_output_adapter@_W@__crt_stdio_output@@@2@@1@AEAA_NXZ@@Z 00000001800368f0 f i libucrtd:output.obj
 0001:00035900       ??$get_parameter_type@X@?$positional_parameter_base@DV?$stream_output_adapter@D@__crt_stdio_output@@@__crt_stdio_output@@CA?AW4parameter_type@01@PEAX@Z 0000000180036900 f i libucrtd:output.obj
 0001:00035910       ??$get_parameter_type@X@?$positional_parameter_base@DV?$string_output_adapter@D@__crt_stdio_output@@@__crt_stdio_output@@CA?AW4parameter_type@01@PEAX@Z 0000000180036910 f i libucrtd:output.obj
 0001:00035920       ??$get_parameter_type@X@?$positional_parameter_base@_WV?$stream_output_adapter@_W@__crt_stdio_output@@@__crt_stdio_output@@CA?AW4parameter_type@01@PEAX@Z 0000000180036920 f i libucrtd:output.obj
 0001:00035930       ??$get_parameter_type@X@?$positional_parameter_base@_WV?$string_output_adapter@_W@__crt_stdio_output@@@__crt_stdio_output@@CA?AW4parameter_type@01@PEAX@Z 0000000180036930 f i libucrtd:output.obj
 0001:00035940       ??$is_character_specifier@D@?$positional_parameter_base@DV?$stream_output_adapter@D@__crt_stdio_output@@@__crt_stdio_output@@CA_ND@Z 0000000180036940 f i libucrtd:output.obj
 0001:00035980       ??$is_character_specifier@D@?$positional_parameter_base@DV?$string_output_adapter@D@__crt_stdio_output@@@__crt_stdio_output@@CA_ND@Z 0000000180036980 f i libucrtd:output.obj
 0001:000359c0       ??$is_character_specifier@_W@?$positional_parameter_base@_WV?$stream_output_adapter@_W@__crt_stdio_output@@@__crt_stdio_output@@CA_N_W@Z 00000001800369c0 f i libucrtd:output.obj
 0001:00035a00       ??$is_character_specifier@_W@?$positional_parameter_base@_WV?$string_output_adapter@_W@__crt_stdio_output@@@__crt_stdio_output@@CA_N_W@Z 0000000180036a00 f i libucrtd:output.obj
 0001:00035a40       ??$is_integral_specifier@D@?$positional_parameter_base@DV?$stream_output_adapter@D@__crt_stdio_output@@@__crt_stdio_output@@CA_ND@Z 0000000180036a40 f i libucrtd:output.obj
 0001:00035ab0       ??$is_integral_specifier@D@?$positional_parameter_base@DV?$string_output_adapter@D@__crt_stdio_output@@@__crt_stdio_output@@CA_ND@Z 0000000180036ab0 f i libucrtd:output.obj
 0001:00035b20       ??$is_integral_specifier@_W@?$positional_parameter_base@_WV?$stream_output_adapter@_W@__crt_stdio_output@@@__crt_stdio_output@@CA_N_W@Z 0000000180036b20 f i libucrtd:output.obj
 0001:00035b90       ??$is_integral_specifier@_W@?$positional_parameter_base@_WV?$string_output_adapter@_W@__crt_stdio_output@@@__crt_stdio_output@@CA_N_W@Z 0000000180036b90 f i libucrtd:output.obj
 0001:00035c00       ??$is_pointer_specifier@D@?$positional_parameter_base@DV?$stream_output_adapter@D@__crt_stdio_output@@@__crt_stdio_output@@CA_ND@Z 0000000180036c00 f i libucrtd:output.obj
 0001:00035c30       ??$is_pointer_specifier@D@?$positional_parameter_base@DV?$string_output_adapter@D@__crt_stdio_output@@@__crt_stdio_output@@CA_ND@Z 0000000180036c30 f i libucrtd:output.obj
 0001:00035c60       ??$is_pointer_specifier@_W@?$positional_parameter_base@_WV?$stream_output_adapter@_W@__crt_stdio_output@@@__crt_stdio_output@@CA_N_W@Z 0000000180036c60 f i libucrtd:output.obj
 0001:00035c90       ??$is_pointer_specifier@_W@?$positional_parameter_base@_WV?$string_output_adapter@_W@__crt_stdio_output@@@__crt_stdio_output@@CA_N_W@Z 0000000180036c90 f i libucrtd:output.obj
 0001:00035cc0       ??$is_string_specifier@D@?$positional_parameter_base@DV?$stream_output_adapter@D@__crt_stdio_output@@@__crt_stdio_output@@CA_ND@Z 0000000180036cc0 f i libucrtd:output.obj
 0001:00035d00       ??$is_string_specifier@D@?$positional_parameter_base@DV?$string_output_adapter@D@__crt_stdio_output@@@__crt_stdio_output@@CA_ND@Z 0000000180036d00 f i libucrtd:output.obj
 0001:00035d40       ??$is_string_specifier@_W@?$positional_parameter_base@_WV?$stream_output_adapter@_W@__crt_stdio_output@@@__crt_stdio_output@@CA_N_W@Z 0000000180036d40 f i libucrtd:output.obj
 0001:00035d80       ??$is_string_specifier@_W@?$positional_parameter_base@_WV?$string_output_adapter@_W@__crt_stdio_output@@@__crt_stdio_output@@CA_N_W@Z 0000000180036d80 f i libucrtd:output.obj
 0001:00035dc0       ??$is_wide_character_specifier@D@__crt_stdio_output@@YA_N_KDW4length_modifier@0@@Z 0000000180036dc0 f i libucrtd:output.obj
 0001:00035e60       ??$is_wide_character_specifier@_W@__crt_stdio_output@@YA_N_K_WW4length_modifier@0@@Z 0000000180036e60 f i libucrtd:output.obj
 0001:00035f30       ??$peek_va_arg@C@__crt_stdio_output@@YACPEAD@Z 0000000180036f30 f i libucrtd:output.obj
 0001:00035f90       ??$peek_va_arg@E@__crt_stdio_output@@YAEPEAD@Z 0000000180036f90 f i libucrtd:output.obj
 0001:00035ff0       ??$peek_va_arg@F@__crt_stdio_output@@YAFPEAD@Z 0000000180036ff0 f i libucrtd:output.obj
 0001:00036050       ??$peek_va_arg@G@__crt_stdio_output@@YAGPEAD@Z 0000000180037050 f i libucrtd:output.obj
 0001:000360b0       ??$peek_va_arg@H@__crt_stdio_output@@YAHPEAD@Z 00000001800370b0 f i libucrtd:output.obj
 0001:00036100       ??$peek_va_arg@I@__crt_stdio_output@@YAIPEAD@Z 0000000180037100 f i libucrtd:output.obj
 0001:00036150       ??$peek_va_arg@PEAD@__crt_stdio_output@@YAPEADPEAD@Z 0000000180037150 f i libucrtd:output.obj
 0001:000361b0       ??$peek_va_arg@PEAUansi_string@?1??type_case_Z@?$output_processor@DV?$stream_output_adapter@D@__crt_stdio_output@@V?$positional_parameter_base@DV?$stream_output_adapter@D@__crt_stdio_output@@@2@@__crt_stdio_output@@AEAA_NXZ@@__crt_stdio_output@@YAPEAUansi_string@?1??type_case_Z@?$output_processor@DV?$stream_output_adapter@D@__crt_stdio_output@@V?$positional_parameter_base@DV?$stream_output_adapter@D@__crt_stdio_output@@@2@@0@AEAA_NXZ@PEAD@Z 00000001800371b0 f i libucrtd:output.obj
 0001:00036210       ??$peek_va_arg@PEAUansi_string@?1??type_case_Z@?$output_processor@DV?$string_output_adapter@D@__crt_stdio_output@@V?$positional_parameter_base@DV?$string_output_adapter@D@__crt_stdio_output@@@2@@__crt_stdio_output@@AEAA_NXZ@@__crt_stdio_output@@YAPEAUansi_string@?1??type_case_Z@?$output_processor@DV?$string_output_adapter@D@__crt_stdio_output@@V?$positional_parameter_base@DV?$string_output_adapter@D@__crt_stdio_output@@@2@@0@AEAA_NXZ@PEAD@Z 0000000180037210 f i libucrtd:output.obj
 0001:00036270       ??$peek_va_arg@PEAUansi_string@?1??type_case_Z@?$output_processor@_WV?$stream_output_adapter@_W@__crt_stdio_output@@V?$positional_parameter_base@_WV?$stream_output_adapter@_W@__crt_stdio_output@@@2@@__crt_stdio_output@@AEAA_NXZ@@__crt_stdio_output@@YAPEAUansi_string@?1??type_case_Z@?$output_processor@_WV?$stream_output_adapter@_W@__crt_stdio_output@@V?$positional_parameter_base@_WV?$stream_output_adapter@_W@__crt_stdio_output@@@2@@0@AEAA_NXZ@PEAD@Z 0000000180037270 f i libucrtd:output.obj
 0001:000362d0       ??$peek_va_arg@PEAUansi_string@?1??type_case_Z@?$output_processor@_WV?$string_output_adapter@_W@__crt_stdio_output@@V?$positional_parameter_base@_WV?$string_output_adapter@_W@__crt_stdio_output@@@2@@__crt_stdio_output@@AEAA_NXZ@@__crt_stdio_output@@YAPEAUansi_string@?1??type_case_Z@?$output_processor@_WV?$string_output_adapter@_W@__crt_stdio_output@@V?$positional_parameter_base@_WV?$string_output_adapter@_W@__crt_stdio_output@@@2@@0@AEAA_NXZ@PEAD@Z 00000001800372d0 f i libucrtd:output.obj
 0001:00036330       ??$peek_va_arg@PEAX@__crt_stdio_output@@YAPEAXPEAD@Z 0000000180037330 f i libucrtd:output.obj
 0001:00036390       ??$peek_va_arg@U_CRT_DOUBLE@@@__crt_stdio_output@@YA?AU_CRT_DOUBLE@@PEAD@Z 0000000180037390 f i libucrtd:output.obj
 0001:000363f0       ??$peek_va_arg@_J@__crt_stdio_output@@YA_JPEAD@Z 00000001800373f0 f i libucrtd:output.obj
 0001:00036450       ??$peek_va_arg@_K@__crt_stdio_output@@YA_KPEAD@Z 0000000180037450 f i libucrtd:output.obj
 0001:000364b0       ??$peek_va_arg@_W@__crt_stdio_output@@YA_WPEAD@Z 00000001800374b0 f i libucrtd:output.obj
 0001:00036510       ??$puttc_nolock@AEBDPEAU_iobuf@@@?$__crt_char_traits@D@@SAHAEBD$$QEAPEAU_iobuf@@@Z 0000000180037510 f i libucrtd:output.obj
 0001:00036540       ??$puttc_nolock@AEB_WPEAU_iobuf@@@?$__crt_char_traits@_W@@SAGAEB_W$$QEAPEAU_iobuf@@@Z 0000000180037540 f i libucrtd:output.obj
 0001:00036570       ??$read_va_arg@C@__crt_stdio_output@@YACAEAPEAD@Z 0000000180037570 f i libucrtd:output.obj
 0001:000365e0       ??$read_va_arg@E@__crt_stdio_output@@YAEAEAPEAD@Z 00000001800375e0 f i libucrtd:output.obj
 0001:00036650       ??$read_va_arg@F@__crt_stdio_output@@YAFAEAPEAD@Z 0000000180037650 f i libucrtd:output.obj
 0001:000366c0       ??$read_va_arg@G@__crt_stdio_output@@YAGAEAPEAD@Z 00000001800376c0 f i libucrtd:output.obj
 0001:00036730       ??$read_va_arg@H@__crt_stdio_output@@YAHAEAPEAD@Z 0000000180037730 f i libucrtd:output.obj
 0001:00036790       ??$read_va_arg@I@__crt_stdio_output@@YAIAEAPEAD@Z 0000000180037790 f i libucrtd:output.obj
 0001:000367f0       ??$read_va_arg@PEAD@__crt_stdio_output@@YAPEADAEAPEAD@Z 00000001800377f0 f i libucrtd:output.obj
 0001:00036860       ??$read_va_arg@PEAUansi_string@?1??type_case_Z@?$output_processor@DV?$stream_output_adapter@D@__crt_stdio_output@@V?$format_validation_base@DV?$stream_output_adapter@D@__crt_stdio_output@@@2@@__crt_stdio_output@@AEAA_NXZ@@__crt_stdio_output@@YAPEAUansi_string@?1??type_case_Z@?$output_processor@DV?$stream_output_adapter@D@__crt_stdio_output@@V?$format_validation_base@DV?$stream_output_adapter@D@__crt_stdio_output@@@2@@0@AEAA_NXZ@AEAPEAD@Z 0000000180037860 f i libucrtd:output.obj
 0001:000368d0       ??$read_va_arg@PEAUansi_string@?1??type_case_Z@?$output_processor@DV?$stream_output_adapter@D@__crt_stdio_output@@V?$positional_parameter_base@DV?$stream_output_adapter@D@__crt_stdio_output@@@2@@__crt_stdio_output@@AEAA_NXZ@@__crt_stdio_output@@YAPEAUansi_string@?1??type_case_Z@?$output_processor@DV?$stream_output_adapter@D@__crt_stdio_output@@V?$positional_parameter_base@DV?$stream_output_adapter@D@__crt_stdio_output@@@2@@0@AEAA_NXZ@AEAPEAD@Z 00000001800378d0 f i libucrtd:output.obj
 0001:00036940       ??$read_va_arg@PEAUansi_string@?1??type_case_Z@?$output_processor@DV?$stream_output_adapter@D@__crt_stdio_output@@V?$standard_base@DV?$stream_output_adapter@D@__crt_stdio_output@@@2@@__crt_stdio_output@@AEAA_NXZ@@__crt_stdio_output@@YAPEAUansi_string@?1??type_case_Z@?$output_processor@DV?$stream_output_adapter@D@__crt_stdio_output@@V?$standard_base@DV?$stream_output_adapter@D@__crt_stdio_output@@@2@@0@AEAA_NXZ@AEAPEAD@Z 0000000180037940 f i libucrtd:output.obj
 0001:000369b0       ??$read_va_arg@PEAUansi_string@?1??type_case_Z@?$output_processor@DV?$string_output_adapter@D@__crt_stdio_output@@V?$format_validation_base@DV?$string_output_adapter@D@__crt_stdio_output@@@2@@__crt_stdio_output@@AEAA_NXZ@@__crt_stdio_output@@YAPEAUansi_string@?1??type_case_Z@?$output_processor@DV?$string_output_adapter@D@__crt_stdio_output@@V?$format_validation_base@DV?$string_output_adapter@D@__crt_stdio_output@@@2@@0@AEAA_NXZ@AEAPEAD@Z 00000001800379b0 f i libucrtd:output.obj
 0001:00036a20       ??$read_va_arg@PEAUansi_string@?1??type_case_Z@?$output_processor@DV?$string_output_adapter@D@__crt_stdio_output@@V?$positional_parameter_base@DV?$string_output_adapter@D@__crt_stdio_output@@@2@@__crt_stdio_output@@AEAA_NXZ@@__crt_stdio_output@@YAPEAUansi_string@?1??type_case_Z@?$output_processor@DV?$string_output_adapter@D@__crt_stdio_output@@V?$positional_parameter_base@DV?$string_output_adapter@D@__crt_stdio_output@@@2@@0@AEAA_NXZ@AEAPEAD@Z 0000000180037a20 f i libucrtd:output.obj
 0001:00036a90       ??$read_va_arg@PEAUansi_string@?1??type_case_Z@?$output_processor@DV?$string_output_adapter@D@__crt_stdio_output@@V?$standard_base@DV?$string_output_adapter@D@__crt_stdio_output@@@2@@__crt_stdio_output@@AEAA_NXZ@@__crt_stdio_output@@YAPEAUansi_string@?1??type_case_Z@?$output_processor@DV?$string_output_adapter@D@__crt_stdio_output@@V?$standard_base@DV?$string_output_adapter@D@__crt_stdio_output@@@2@@0@AEAA_NXZ@AEAPEAD@Z 0000000180037a90 f i libucrtd:output.obj
 0001:00036b00       ??$read_va_arg@PEAUansi_string@?1??type_case_Z@?$output_processor@_WV?$stream_output_adapter@_W@__crt_stdio_output@@V?$format_validation_base@_WV?$stream_output_adapter@_W@__crt_stdio_output@@@2@@__crt_stdio_output@@AEAA_NXZ@@__crt_stdio_output@@YAPEAUansi_string@?1??type_case_Z@?$output_processor@_WV?$stream_output_adapter@_W@__crt_stdio_output@@V?$format_validation_base@_WV?$stream_output_adapter@_W@__crt_stdio_output@@@2@@0@AEAA_NXZ@AEAPEAD@Z 0000000180037b00 f i libucrtd:output.obj
 0001:00036b70       ??$read_va_arg@PEAUansi_string@?1??type_case_Z@?$output_processor@_WV?$stream_output_adapter@_W@__crt_stdio_output@@V?$positional_parameter_base@_WV?$stream_output_adapter@_W@__crt_stdio_output@@@2@@__crt_stdio_output@@AEAA_NXZ@@__crt_stdio_output@@YAPEAUansi_string@?1??type_case_Z@?$output_processor@_WV?$stream_output_adapter@_W@__crt_stdio_output@@V?$positional_parameter_base@_WV?$stream_output_adapter@_W@__crt_stdio_output@@@2@@0@AEAA_NXZ@AEAPEAD@Z 0000000180037b70 f i libucrtd:output.obj
 0001:00036be0       ??$read_va_arg@PEAUansi_string@?1??type_case_Z@?$output_processor@_WV?$stream_output_adapter@_W@__crt_stdio_output@@V?$standard_base@_WV?$stream_output_adapter@_W@__crt_stdio_output@@@2@@__crt_stdio_output@@AEAA_NXZ@@__crt_stdio_output@@YAPEAUansi_string@?1??type_case_Z@?$output_processor@_WV?$stream_output_adapter@_W@__crt_stdio_output@@V?$standard_base@_WV?$stream_output_adapter@_W@__crt_stdio_output@@@2@@0@AEAA_NXZ@AEAPEAD@Z 0000000180037be0 f i libucrtd:output.obj
 0001:00036c50       ??$read_va_arg@PEAUansi_string@?1??type_case_Z@?$output_processor@_WV?$string_output_adapter@_W@__crt_stdio_output@@V?$format_validation_base@_WV?$string_output_adapter@_W@__crt_stdio_output@@@2@@__crt_stdio_output@@AEAA_NXZ@@__crt_stdio_output@@YAPEAUansi_string@?1??type_case_Z@?$output_processor@_WV?$string_output_adapter@_W@__crt_stdio_output@@V?$format_validation_base@_WV?$string_output_adapter@_W@__crt_stdio_output@@@2@@0@AEAA_NXZ@AEAPEAD@Z 0000000180037c50 f i libucrtd:output.obj
 0001:00036cc0       ??$read_va_arg@PEAUansi_string@?1??type_case_Z@?$output_processor@_WV?$string_output_adapter@_W@__crt_stdio_output@@V?$positional_parameter_base@_WV?$string_output_adapter@_W@__crt_stdio_output@@@2@@__crt_stdio_output@@AEAA_NXZ@@__crt_stdio_output@@YAPEAUansi_string@?1??type_case_Z@?$output_processor@_WV?$string_output_adapter@_W@__crt_stdio_output@@V?$positional_parameter_base@_WV?$string_output_adapter@_W@__crt_stdio_output@@@2@@0@AEAA_NXZ@AEAPEAD@Z 0000000180037cc0 f i libucrtd:output.obj
 0001:00036d30       ??$read_va_arg@PEAUansi_string@?1??type_case_Z@?$output_processor@_WV?$string_output_adapter@_W@__crt_stdio_output@@V?$standard_base@_WV?$string_output_adapter@_W@__crt_stdio_output@@@2@@__crt_stdio_output@@AEAA_NXZ@@__crt_stdio_output@@YAPEAUansi_string@?1??type_case_Z@?$output_processor@_WV?$string_output_adapter@_W@__crt_stdio_output@@V?$standard_base@_WV?$string_output_adapter@_W@__crt_stdio_output@@@2@@0@AEAA_NXZ@AEAPEAD@Z 0000000180037d30 f i libucrtd:output.obj
 0001:00036da0       ??$read_va_arg@PEAX@__crt_stdio_output@@YAPEAXAEAPEAD@Z 0000000180037da0 f i libucrtd:output.obj
 0001:00036e10       ??$read_va_arg@U_CRT_DOUBLE@@@__crt_stdio_output@@YA?AU_CRT_DOUBLE@@AEAPEAD@Z 0000000180037e10 f i libucrtd:output.obj
 0001:00036e80       ??$read_va_arg@_J@__crt_stdio_output@@YA_JAEAPEAD@Z 0000000180037e80 f i libucrtd:output.obj
 0001:00036ef0       ??$read_va_arg@_K@__crt_stdio_output@@YA_KAEAPEAD@Z 0000000180037ef0 f i libucrtd:output.obj
 0001:00036f60       ??$read_va_arg@_W@__crt_stdio_output@@YA_WAEAPEAD@Z 0000000180037f60 f i libucrtd:output.obj
 0001:00036fd0       ??$scratch_count@D@formatting_buffer@__crt_stdio_output@@QEBA_KXZ 0000000180037fd0 f i libucrtd:output.obj
 0001:00036ff0       ??$scratch_data@D@formatting_buffer@__crt_stdio_output@@QEAAPEADXZ 0000000180037ff0 f i libucrtd:output.obj
 0001:00037060       ??$tcstol@AEAPEBDPEAPEADH@?$__crt_char_traits@D@@SAJAEAPEBD$$QEAPEAPEAD$$QEAH@Z 0000000180038060 f i libucrtd:output.obj
 0001:000370a0       ??$tcstol@AEAPEB_WPEAPEA_WH@?$__crt_char_traits@_W@@SAJAEAPEB_W$$QEAPEAPEA_W$$QEAH@Z 00000001800380a0 f i libucrtd:output.obj
 0001:000370e0       ??$tcstol@PEBDPEAPEADH@?$__crt_char_traits@D@@SAJ$$QEAPEBD$$QEAPEAPEAD$$QEAH@Z 00000001800380e0 f i libucrtd:output.obj
 0001:00037120       ??$tcstol@PEB_WPEAPEA_WH@?$__crt_char_traits@_W@@SAJ$$QEAPEB_W$$QEAPEAPEA_W$$QEAH@Z 0000000180038120 f i libucrtd:output.obj
 0001:00037160       ??$type_case_integer_parse_into_buffer@I@?$output_processor@DV?$stream_output_adapter@D@__crt_stdio_output@@V?$format_validation_base@DV?$stream_output_adapter@D@__crt_stdio_output@@@2@@__crt_stdio_output@@AEAAXII_N@Z 0000000180038160 f i libucrtd:output.obj
 0001:00037280       ??$type_case_integer_parse_into_buffer@I@?$output_processor@DV?$stream_output_adapter@D@__crt_stdio_output@@V?$positional_parameter_base@DV?$stream_output_adapter@D@__crt_stdio_output@@@2@@__crt_stdio_output@@AEAAXII_N@Z 0000000180038280 f i libucrtd:output.obj
 0001:000373a0       ??$type_case_integer_parse_into_buffer@I@?$output_processor@DV?$stream_output_adapter@D@__crt_stdio_output@@V?$standard_base@DV?$stream_output_adapter@D@__crt_stdio_output@@@2@@__crt_stdio_output@@AEAAXII_N@Z 00000001800383a0 f i libucrtd:output.obj
 0001:000374c0       ??$type_case_integer_parse_into_buffer@I@?$output_processor@DV?$string_output_adapter@D@__crt_stdio_output@@V?$format_validation_base@DV?$string_output_adapter@D@__crt_stdio_output@@@2@@__crt_stdio_output@@AEAAXII_N@Z 00000001800384c0 f i libucrtd:output.obj
 0001:000375e0       ??$type_case_integer_parse_into_buffer@I@?$output_processor@DV?$string_output_adapter@D@__crt_stdio_output@@V?$positional_parameter_base@DV?$string_output_adapter@D@__crt_stdio_output@@@2@@__crt_stdio_output@@AEAAXII_N@Z 00000001800385e0 f i libucrtd:output.obj
 0001:00037700       ??$type_case_integer_parse_into_buffer@I@?$output_processor@DV?$string_output_adapter@D@__crt_stdio_output@@V?$standard_base@DV?$string_output_adapter@D@__crt_stdio_output@@@2@@__crt_stdio_output@@AEAAXII_N@Z 0000000180038700 f i libucrtd:output.obj
 0001:00037820       ??$type_case_integer_parse_into_buffer@I@?$output_processor@_WV?$stream_output_adapter@_W@__crt_stdio_output@@V?$format_validation_base@_WV?$stream_output_adapter@_W@__crt_stdio_output@@@2@@__crt_stdio_output@@AEAAXII_N@Z 0000000180038820 f i libucrtd:output.obj
 0001:00037950       ??$type_case_integer_parse_into_buffer@I@?$output_processor@_WV?$stream_output_adapter@_W@__crt_stdio_output@@V?$positional_parameter_base@_WV?$stream_output_adapter@_W@__crt_stdio_output@@@2@@__crt_stdio_output@@AEAAXII_N@Z 0000000180038950 f i libucrtd:output.obj
 0001:00037a80       ??$type_case_integer_parse_into_buffer@I@?$output_processor@_WV?$stream_output_adapter@_W@__crt_stdio_output@@V?$standard_base@_WV?$stream_output_adapter@_W@__crt_stdio_output@@@2@@__crt_stdio_output@@AEAAXII_N@Z 0000000180038a80 f i libucrtd:output.obj
 0001:00037bb0       ??$type_case_integer_parse_into_buffer@I@?$output_processor@_WV?$string_output_adapter@_W@__crt_stdio_output@@V?$format_validation_base@_WV?$string_output_adapter@_W@__crt_stdio_output@@@2@@__crt_stdio_output@@AEAAXII_N@Z 0000000180038bb0 f i libucrtd:output.obj
 0001:00037ce0       ??$type_case_integer_parse_into_buffer@I@?$output_processor@_WV?$string_output_adapter@_W@__crt_stdio_output@@V?$positional_parameter_base@_WV?$string_output_adapter@_W@__crt_stdio_output@@@2@@__crt_stdio_output@@AEAAXII_N@Z 0000000180038ce0 f i libucrtd:output.obj
 0001:00037e10       ??$type_case_integer_parse_into_buffer@I@?$output_processor@_WV?$string_output_adapter@_W@__crt_stdio_output@@V?$standard_base@_WV?$string_output_adapter@_W@__crt_stdio_output@@@2@@__crt_stdio_output@@AEAAXII_N@Z 0000000180038e10 f i libucrtd:output.obj
 0001:00037f40       ??$type_case_integer_parse_into_buffer@_K@?$output_processor@DV?$stream_output_adapter@D@__crt_stdio_output@@V?$format_validation_base@DV?$stream_output_adapter@D@__crt_stdio_output@@@2@@__crt_stdio_output@@AEAAX_KI_N@Z 0000000180038f40 f i libucrtd:output.obj
 0001:00038090       ??$type_case_integer_parse_into_buffer@_K@?$output_processor@DV?$stream_output_adapter@D@__crt_stdio_output@@V?$positional_parameter_base@DV?$stream_output_adapter@D@__crt_stdio_output@@@2@@__crt_stdio_output@@AEAAX_KI_N@Z 0000000180039090 f i libucrtd:output.obj
 0001:000381e0       ??$type_case_integer_parse_into_buffer@_K@?$output_processor@DV?$stream_output_adapter@D@__crt_stdio_output@@V?$standard_base@DV?$stream_output_adapter@D@__crt_stdio_output@@@2@@__crt_stdio_output@@AEAAX_KI_N@Z 00000001800391e0 f i libucrtd:output.obj
 0001:00038330       ??$type_case_integer_parse_into_buffer@_K@?$output_processor@DV?$string_output_adapter@D@__crt_stdio_output@@V?$format_validation_base@DV?$string_output_adapter@D@__crt_stdio_output@@@2@@__crt_stdio_output@@AEAAX_KI_N@Z 0000000180039330 f i libucrtd:output.obj
 0001:00038480       ??$type_case_integer_parse_into_buffer@_K@?$output_processor@DV?$string_output_adapter@D@__crt_stdio_output@@V?$positional_parameter_base@DV?$string_output_adapter@D@__crt_stdio_output@@@2@@__crt_stdio_output@@AEAAX_KI_N@Z 0000000180039480 f i libucrtd:output.obj
 0001:000385d0       ??$type_case_integer_parse_into_buffer@_K@?$output_processor@DV?$string_output_adapter@D@__crt_stdio_output@@V?$standard_base@DV?$string_output_adapter@D@__crt_stdio_output@@@2@@__crt_stdio_output@@AEAAX_KI_N@Z 00000001800395d0 f i libucrtd:output.obj
 0001:00038720       ??$type_case_integer_parse_into_buffer@_K@?$output_processor@_WV?$stream_output_adapter@_W@__crt_stdio_output@@V?$format_validation_base@_WV?$stream_output_adapter@_W@__crt_stdio_output@@@2@@__crt_stdio_output@@AEAAX_KI_N@Z 0000000180039720 f i libucrtd:output.obj
 0001:00038870       ??$type_case_integer_parse_into_buffer@_K@?$output_processor@_WV?$stream_output_adapter@_W@__crt_stdio_output@@V?$positional_parameter_base@_WV?$stream_output_adapter@_W@__crt_stdio_output@@@2@@__crt_stdio_output@@AEAAX_KI_N@Z 0000000180039870 f i libucrtd:output.obj
 0001:000389c0       ??$type_case_integer_parse_into_buffer@_K@?$output_processor@_WV?$stream_output_adapter@_W@__crt_stdio_output@@V?$standard_base@_WV?$stream_output_adapter@_W@__crt_stdio_output@@@2@@__crt_stdio_output@@AEAAX_KI_N@Z 00000001800399c0 f i libucrtd:output.obj
 0001:00038b10       ??$type_case_integer_parse_into_buffer@_K@?$output_processor@_WV?$string_output_adapter@_W@__crt_stdio_output@@V?$format_validation_base@_WV?$string_output_adapter@_W@__crt_stdio_output@@@2@@__crt_stdio_output@@AEAAX_KI_N@Z 0000000180039b10 f i libucrtd:output.obj
 0001:00038c60       ??$type_case_integer_parse_into_buffer@_K@?$output_processor@_WV?$string_output_adapter@_W@__crt_stdio_output@@V?$positional_parameter_base@_WV?$string_output_adapter@_W@__crt_stdio_output@@@2@@__crt_stdio_output@@AEAAX_KI_N@Z 0000000180039c60 f i libucrtd:output.obj
 0001:00038db0       ??$type_case_integer_parse_into_buffer@_K@?$output_processor@_WV?$string_output_adapter@_W@__crt_stdio_output@@V?$standard_base@_WV?$string_output_adapter@_W@__crt_stdio_output@@@2@@__crt_stdio_output@@AEAAX_KI_N@Z 0000000180039db0 f i libucrtd:output.obj
 0001:00038f00       ??$write_multiple_characters@V?$stream_output_adapter@D@__crt_stdio_output@@D@__crt_stdio_output@@YAXAEBV?$stream_output_adapter@D@0@DHQEAH@Z 0000000180039f00 f i libucrtd:output.obj
 0001:00038f60       ??$write_multiple_characters@V?$stream_output_adapter@_W@__crt_stdio_output@@D@__crt_stdio_output@@YAXAEBV?$stream_output_adapter@_W@0@DHQEAH@Z 0000000180039f60 f i libucrtd:output.obj
 0001:00038fc0       ??$write_multiple_characters@V?$string_output_adapter@D@__crt_stdio_output@@D@__crt_stdio_output@@YAXAEBV?$string_output_adapter@D@0@DHQEAH@Z 0000000180039fc0 f i libucrtd:output.obj
 0001:00039020       ??$write_multiple_characters@V?$string_output_adapter@_W@__crt_stdio_output@@D@__crt_stdio_output@@YAXAEBV?$string_output_adapter@_W@0@DHQEAH@Z 000000018003a020 f i libucrtd:output.obj
 0001:00039440       ??0?$common_data@D@__crt_stdio_output@@IEAA@XZ 000000018003a440 f i libucrtd:output.obj
 0001:00039510       ??0?$common_data@_W@__crt_stdio_output@@IEAA@XZ 000000018003a510 f i libucrtd:output.obj
 0001:000395e0       ??0?$output_adapter_data@DV?$stream_output_adapter@D@__crt_stdio_output@@@__crt_stdio_output@@IEAA@AEBV?$stream_output_adapter@D@1@_KQEBDQEAU__crt_locale_pointers@@QEAD@Z 000000018003a5e0 f i libucrtd:output.obj
 0001:00039660       ??0?$output_adapter_data@DV?$string_output_adapter@D@__crt_stdio_output@@@__crt_stdio_output@@IEAA@AEBV?$string_output_adapter@D@1@_KQEBDQEAU__crt_locale_pointers@@QEAD@Z 000000018003a660 f i libucrtd:output.obj
 0001:000396e0       ??0?$output_adapter_data@_WV?$stream_output_adapter@_W@__crt_stdio_output@@@__crt_stdio_output@@IEAA@AEBV?$stream_output_adapter@_W@1@_KQEB_WQEAU__crt_locale_pointers@@QEAD@Z 000000018003a6e0 f i libucrtd:output.obj
 0001:00039760       ??0?$output_adapter_data@_WV?$string_output_adapter@_W@__crt_stdio_output@@@__crt_stdio_output@@IEAA@AEBV?$string_output_adapter@_W@1@_KQEB_WQEAU__crt_locale_pointers@@QEAD@Z 000000018003a760 f i libucrtd:output.obj
 0001:000397e0       ??0?$output_processor@DV?$stream_output_adapter@D@__crt_stdio_output@@V?$format_validation_base@DV?$stream_output_adapter@D@__crt_stdio_output@@@2@@__crt_stdio_output@@QEAA@AEBV?$stream_output_adapter@D@1@_KQEBDQEAU__crt_locale_pointers@@QEAD@Z 000000018003a7e0 f i libucrtd:output.obj
 0001:00039840       ??0?$output_processor@DV?$stream_output_adapter@D@__crt_stdio_output@@V?$positional_parameter_base@DV?$stream_output_adapter@D@__crt_stdio_output@@@2@@__crt_stdio_output@@QEAA@AEBV?$stream_output_adapter@D@1@_KQEBDQEAU__crt_locale_pointers@@QEAD@Z 000000018003a840 f i libucrtd:output.obj
 0001:000398a0       ??0?$output_processor@DV?$stream_output_adapter@D@__crt_stdio_output@@V?$standard_base@DV?$stream_output_adapter@D@__crt_stdio_output@@@2@@__crt_stdio_output@@QEAA@AEBV?$stream_output_adapter@D@1@_KQEBDQEAU__crt_locale_pointers@@QEAD@Z 000000018003a8a0 f i libucrtd:output.obj
 0001:00039900       ??0?$output_processor@DV?$string_output_adapter@D@__crt_stdio_output@@V?$format_validation_base@DV?$string_output_adapter@D@__crt_stdio_output@@@2@@__crt_stdio_output@@QEAA@AEBV?$string_output_adapter@D@1@_KQEBDQEAU__crt_locale_pointers@@QEAD@Z 000000018003a900 f i libucrtd:output.obj
 0001:00039960       ??0?$output_processor@DV?$string_output_adapter@D@__crt_stdio_output@@V?$positional_parameter_base@DV?$string_output_adapter@D@__crt_stdio_output@@@2@@__crt_stdio_output@@QEAA@AEBV?$string_output_adapter@D@1@_KQEBDQEAU__crt_locale_pointers@@QEAD@Z 000000018003a960 f i libucrtd:output.obj
 0001:000399c0       ??0?$output_processor@DV?$string_output_adapter@D@__crt_stdio_output@@V?$standard_base@DV?$string_output_adapter@D@__crt_stdio_output@@@2@@__crt_stdio_output@@QEAA@AEBV?$string_output_adapter@D@1@_KQEBDQEAU__crt_locale_pointers@@QEAD@Z 000000018003a9c0 f i libucrtd:output.obj
 0001:00039a20       ??0?$output_processor@_WV?$stream_output_adapter@_W@__crt_stdio_output@@V?$format_validation_base@_WV?$stream_output_adapter@_W@__crt_stdio_output@@@2@@__crt_stdio_output@@QEAA@AEBV?$stream_output_adapter@_W@1@_KQEB_WQEAU__crt_locale_pointers@@QEAD@Z 000000018003aa20 f i libucrtd:output.obj
 0001:00039a80       ??0?$output_processor@_WV?$stream_output_adapter@_W@__crt_stdio_output@@V?$positional_parameter_base@_WV?$stream_output_adapter@_W@__crt_stdio_output@@@2@@__crt_stdio_output@@QEAA@AEBV?$stream_output_adapter@_W@1@_KQEB_WQEAU__crt_locale_pointers@@QEAD@Z 000000018003aa80 f i libucrtd:output.obj
 0001:00039ae0       ??0?$output_processor@_WV?$stream_output_adapter@_W@__crt_stdio_output@@V?$standard_base@_WV?$stream_output_adapter@_W@__crt_stdio_output@@@2@@__crt_stdio_output@@QEAA@AEBV?$stream_output_adapter@_W@1@_KQEB_WQEAU__crt_locale_pointers@@QEAD@Z 000000018003aae0 f i libucrtd:output.obj
 0001:00039b40       ??0?$output_processor@_WV?$string_output_adapter@_W@__crt_stdio_output@@V?$format_validation_base@_WV?$string_output_adapter@_W@__crt_stdio_output@@@2@@__crt_stdio_output@@QEAA@AEBV?$string_output_adapter@_W@1@_KQEB_WQEAU__crt_locale_pointers@@QEAD@Z 000000018003ab40 f i libucrtd:output.obj
 0001:00039ba0       ??0?$output_processor@_WV?$string_output_adapter@_W@__crt_stdio_output@@V?$positional_parameter_base@_WV?$string_output_adapter@_W@__crt_stdio_output@@@2@@__crt_stdio_output@@QEAA@AEBV?$string_output_adapter@_W@1@_KQEB_WQEAU__crt_locale_pointers@@QEAD@Z 000000018003aba0 f i libucrtd:output.obj
 0001:00039c00       ??0?$output_processor@_WV?$string_output_adapter@_W@__crt_stdio_output@@V?$standard_base@_WV?$string_output_adapter@_W@__crt_stdio_output@@@2@@__crt_stdio_output@@QEAA@AEBV?$string_output_adapter@_W@1@_KQEB_WQEAU__crt_locale_pointers@@QEAD@Z 000000018003ac00 f i libucrtd:output.obj
 0001:00039c60       ??0?$stream_output_adapter@D@__crt_stdio_output@@QEAA@QEAU_iobuf@@@Z 000000018003ac60 f i libucrtd:output.obj
 0001:00039c90       ??0?$stream_output_adapter@_W@__crt_stdio_output@@QEAA@QEAU_iobuf@@@Z 000000018003ac90 f i libucrtd:output.obj
 0001:00039cc0       ??0?$string_output_adapter@D@__crt_stdio_output@@QEAA@QEAU?$string_output_adapter_context@D@1@@Z 000000018003acc0 f i libucrtd:output.obj
 0001:00039ce0       ??0?$string_output_adapter@_W@__crt_stdio_output@@QEAA@QEAU?$string_output_adapter_context@_W@1@@Z 000000018003ace0 f i libucrtd:output.obj
 0001:00039d00       ??0_LocaleUpdate@@QEAA@QEAU__crt_locale_pointers@@@Z 000000018003ad00 f i libucrtd:output.obj
 0001:00039e20       ??0__acrt_stdio_temporary_buffering_guard@@QEAA@QEAU_iobuf@@@Z 000000018003ae20 f i libucrtd:output.obj
 0001:00039e60       ??0__crt_errno_guard@@QEAA@QEAH@Z 000000018003ae60 f i libucrtd:output.obj
 0001:00039ea0       ??0__crt_stdio_stream@@QEAA@QEAU_iobuf@@@Z 000000018003aea0 f i libucrtd:output.obj
 0001:00039ec0       ??0formatting_buffer@__crt_stdio_output@@QEAA@XZ 000000018003aec0 f i libucrtd:output.obj
 0001:00039f00       ??1?$common_data@D@__crt_stdio_output@@QEAA@XZ 000000018003af00 f i libucrtd:output.obj
 0001:00039f20       ??1?$common_data@_W@__crt_stdio_output@@QEAA@XZ 000000018003af20 f i libucrtd:output.obj
 0001:00039f40       ??1?$format_validation_base@DV?$stream_output_adapter@D@__crt_stdio_output@@@__crt_stdio_output@@QEAA@XZ 000000018003af40 f i libucrtd:output.obj
 0001:00039f60       ??1?$format_validation_base@DV?$string_output_adapter@D@__crt_stdio_output@@@__crt_stdio_output@@QEAA@XZ 000000018003af60 f i libucrtd:output.obj
 0001:00039f80       ??1?$format_validation_base@_WV?$stream_output_adapter@_W@__crt_stdio_output@@@__crt_stdio_output@@QEAA@XZ 000000018003af80 f i libucrtd:output.obj
 0001:00039fa0       ??1?$format_validation_base@_WV?$string_output_adapter@_W@__crt_stdio_output@@@__crt_stdio_output@@QEAA@XZ 000000018003afa0 f i libucrtd:output.obj
 0001:00039fc0       ??1?$output_adapter_data@DV?$stream_output_adapter@D@__crt_stdio_output@@@__crt_stdio_output@@QEAA@XZ 000000018003afc0 f i libucrtd:output.obj
 0001:00039fe0       ??1?$output_adapter_data@DV?$string_output_adapter@D@__crt_stdio_output@@@__crt_stdio_output@@QEAA@XZ 000000018003afe0 f i libucrtd:output.obj
 0001:0003a000       ??1?$output_adapter_data@_WV?$stream_output_adapter@_W@__crt_stdio_output@@@__crt_stdio_output@@QEAA@XZ 000000018003b000 f i libucrtd:output.obj
 0001:0003a020       ??1?$output_adapter_data@_WV?$string_output_adapter@_W@__crt_stdio_output@@@__crt_stdio_output@@QEAA@XZ 000000018003b020 f i libucrtd:output.obj
 0001:0003a040       ??1?$output_processor@DV?$stream_output_adapter@D@__crt_stdio_output@@V?$format_validation_base@DV?$stream_output_adapter@D@__crt_stdio_output@@@2@@__crt_stdio_output@@QEAA@XZ 000000018003b040 f i libucrtd:output.obj
 0001:0003a060       ??1?$output_processor@DV?$stream_output_adapter@D@__crt_stdio_output@@V?$positional_parameter_base@DV?$stream_output_adapter@D@__crt_stdio_output@@@2@@__crt_stdio_output@@QEAA@XZ 000000018003b060 f i libucrtd:output.obj
 0001:0003a080       ??1?$output_processor@DV?$stream_output_adapter@D@__crt_stdio_output@@V?$standard_base@DV?$stream_output_adapter@D@__crt_stdio_output@@@2@@__crt_stdio_output@@QEAA@XZ 000000018003b080 f i libucrtd:output.obj
 0001:0003a0a0       ??1?$output_processor@DV?$string_output_adapter@D@__crt_stdio_output@@V?$format_validation_base@DV?$string_output_adapter@D@__crt_stdio_output@@@2@@__crt_stdio_output@@QEAA@XZ 000000018003b0a0 f i libucrtd:output.obj
 0001:0003a0c0       ??1?$output_processor@DV?$string_output_adapter@D@__crt_stdio_output@@V?$positional_parameter_base@DV?$string_output_adapter@D@__crt_stdio_output@@@2@@__crt_stdio_output@@QEAA@XZ 000000018003b0c0 f i libucrtd:output.obj
 0001:0003a0e0       ??1?$output_processor@DV?$string_output_adapter@D@__crt_stdio_output@@V?$standard_base@DV?$string_output_adapter@D@__crt_stdio_output@@@2@@__crt_stdio_output@@QEAA@XZ 000000018003b0e0 f i libucrtd:output.obj
 0001:0003a100       ??1?$output_processor@_WV?$stream_output_adapter@_W@__crt_stdio_output@@V?$format_validation_base@_WV?$stream_output_adapter@_W@__crt_stdio_output@@@2@@__crt_stdio_output@@QEAA@XZ 000000018003b100 f i libucrtd:output.obj
 0001:0003a120       ??1?$output_processor@_WV?$stream_output_adapter@_W@__crt_stdio_output@@V?$positional_parameter_base@_WV?$stream_output_adapter@_W@__crt_stdio_output@@@2@@__crt_stdio_output@@QEAA@XZ 000000018003b120 f i libucrtd:output.obj
 0001:0003a140       ??1?$output_processor@_WV?$stream_output_adapter@_W@__crt_stdio_output@@V?$standard_base@_WV?$stream_output_adapter@_W@__crt_stdio_output@@@2@@__crt_stdio_output@@QEAA@XZ 000000018003b140 f i libucrtd:output.obj
 0001:0003a160       ??1?$output_processor@_WV?$string_output_adapter@_W@__crt_stdio_output@@V?$format_validation_base@_WV?$string_output_adapter@_W@__crt_stdio_output@@@2@@__crt_stdio_output@@QEAA@XZ 000000018003b160 f i libucrtd:output.obj
 0001:0003a180       ??1?$output_processor@_WV?$string_output_adapter@_W@__crt_stdio_output@@V?$positional_parameter_base@_WV?$string_output_adapter@_W@__crt_stdio_output@@@2@@__crt_stdio_output@@QEAA@XZ 000000018003b180 f i libucrtd:output.obj
 0001:0003a1a0       ??1?$output_processor@_WV?$string_output_adapter@_W@__crt_stdio_output@@V?$standard_base@_WV?$string_output_adapter@_W@__crt_stdio_output@@@2@@__crt_stdio_output@@QEAA@XZ 000000018003b1a0 f i libucrtd:output.obj
 0001:0003a1c0       ??1?$positional_parameter_base@DV?$stream_output_adapter@D@__crt_stdio_output@@@__crt_stdio_output@@QEAA@XZ 000000018003b1c0 f i libucrtd:output.obj
 0001:0003a1e0       ??1?$positional_parameter_base@DV?$string_output_adapter@D@__crt_stdio_output@@@__crt_stdio_output@@QEAA@XZ 000000018003b1e0 f i libucrtd:output.obj
 0001:0003a200       ??1?$positional_parameter_base@_WV?$stream_output_adapter@_W@__crt_stdio_output@@@__crt_stdio_output@@QEAA@XZ 000000018003b200 f i libucrtd:output.obj
 0001:0003a220       ??1?$positional_parameter_base@_WV?$string_output_adapter@_W@__crt_stdio_output@@@__crt_stdio_output@@QEAA@XZ 000000018003b220 f i libucrtd:output.obj
 0001:0003a240       ??1?$standard_base@DV?$stream_output_adapter@D@__crt_stdio_output@@@__crt_stdio_output@@QEAA@XZ 000000018003b240 f i libucrtd:output.obj
 0001:0003a260       ??1?$standard_base@DV?$string_output_adapter@D@__crt_stdio_output@@@__crt_stdio_output@@QEAA@XZ 000000018003b260 f i libucrtd:output.obj
 0001:0003a280       ??1?$standard_base@_WV?$stream_output_adapter@_W@__crt_stdio_output@@@__crt_stdio_output@@QEAA@XZ 000000018003b280 f i libucrtd:output.obj
 0001:0003a2a0       ??1?$standard_base@_WV?$string_output_adapter@_W@__crt_stdio_output@@@__crt_stdio_output@@QEAA@XZ 000000018003b2a0 f i libucrtd:output.obj
 0001:0003a2c0       ??1_LocaleUpdate@@QEAA@XZ  000000018003b2c0 f i libucrtd:output.obj
 0001:0003a300       ??1__acrt_stdio_temporary_buffering_guard@@QEAA@XZ 000000018003b300 f i libucrtd:output.obj
 0001:0003a330       ??1__crt_errno_guard@@QEAA@XZ 000000018003b330 f i libucrtd:output.obj
 0001:0003a360       ??1formatting_buffer@__crt_stdio_output@@QEAA@XZ 000000018003b360 f i libucrtd:output.obj
 0001:0003a390       ??4?$__crt_unique_heap_ptr@DU__crt_internal_free_policy@@@@QEAAAEAV0@$$QEAV0@@Z 000000018003b390 f i libucrtd:output.obj
 0001:0003a3d0       ??C__crt_stdio_stream@@QEBAPEAU__crt_stdio_stream_data@@XZ 000000018003b3d0 f i libucrtd:output.obj
 0001:0003ac80       ?GetLocaleT@_LocaleUpdate@@QEAAPEAU__crt_locale_pointers@@XZ 000000018003bc80 f i libucrtd:output.obj
 0001:0003ac90       ?__crt_interlocked_read_32@@YAHPEDH@Z 000000018003bc90 f i libucrtd:output.obj
 0001:0003acb0       ?adjust_hexit@?$output_processor@DV?$stream_output_adapter@D@__crt_stdio_output@@V?$format_validation_base@DV?$stream_output_adapter@D@__crt_stdio_output@@@2@@__crt_stdio_output@@CADH_N@Z 000000018003bcb0 f i libucrtd:output.obj
 0001:0003ad00       ?adjust_hexit@?$output_processor@DV?$stream_output_adapter@D@__crt_stdio_output@@V?$positional_parameter_base@DV?$stream_output_adapter@D@__crt_stdio_output@@@2@@__crt_stdio_output@@CADH_N@Z 000000018003bd00 f i libucrtd:output.obj
 0001:0003ad50       ?adjust_hexit@?$output_processor@DV?$stream_output_adapter@D@__crt_stdio_output@@V?$standard_base@DV?$stream_output_adapter@D@__crt_stdio_output@@@2@@__crt_stdio_output@@CADH_N@Z 000000018003bd50 f i libucrtd:output.obj
 0001:0003ada0       ?adjust_hexit@?$output_processor@DV?$string_output_adapter@D@__crt_stdio_output@@V?$format_validation_base@DV?$string_output_adapter@D@__crt_stdio_output@@@2@@__crt_stdio_output@@CADH_N@Z 000000018003bda0 f i libucrtd:output.obj
 0001:0003adf0       ?adjust_hexit@?$output_processor@DV?$string_output_adapter@D@__crt_stdio_output@@V?$positional_parameter_base@DV?$string_output_adapter@D@__crt_stdio_output@@@2@@__crt_stdio_output@@CADH_N@Z 000000018003bdf0 f i libucrtd:output.obj
 0001:0003ae40       ?adjust_hexit@?$output_processor@DV?$string_output_adapter@D@__crt_stdio_output@@V?$standard_base@DV?$string_output_adapter@D@__crt_stdio_output@@@2@@__crt_stdio_output@@CADH_N@Z 000000018003be40 f i libucrtd:output.obj
 0001:0003ae90       ?adjust_hexit@?$output_processor@_WV?$stream_output_adapter@_W@__crt_stdio_output@@V?$format_validation_base@_WV?$stream_output_adapter@_W@__crt_stdio_output@@@2@@__crt_stdio_output@@CADH_N@Z 000000018003be90 f i libucrtd:output.obj
 0001:0003aee0       ?adjust_hexit@?$output_processor@_WV?$stream_output_adapter@_W@__crt_stdio_output@@V?$positional_parameter_base@_WV?$stream_output_adapter@_W@__crt_stdio_output@@@2@@__crt_stdio_output@@CADH_N@Z 000000018003bee0 f i libucrtd:output.obj
 0001:0003af30       ?adjust_hexit@?$output_processor@_WV?$stream_output_adapter@_W@__crt_stdio_output@@V?$standard_base@_WV?$stream_output_adapter@_W@__crt_stdio_output@@@2@@__crt_stdio_output@@CADH_N@Z 000000018003bf30 f i libucrtd:output.obj
 0001:0003af80       ?adjust_hexit@?$output_processor@_WV?$string_output_adapter@_W@__crt_stdio_output@@V?$format_validation_base@_WV?$string_output_adapter@_W@__crt_stdio_output@@@2@@__crt_stdio_output@@CADH_N@Z 000000018003bf80 f i libucrtd:output.obj
 0001:0003afd0       ?adjust_hexit@?$output_processor@_WV?$string_output_adapter@_W@__crt_stdio_output@@V?$positional_parameter_base@_WV?$string_output_adapter@_W@__crt_stdio_output@@@2@@__crt_stdio_output@@CADH_N@Z 000000018003bfd0 f i libucrtd:output.obj
 0001:0003b020       ?adjust_hexit@?$output_processor@_WV?$string_output_adapter@_W@__crt_stdio_output@@V?$standard_base@_WV?$string_output_adapter@_W@__crt_stdio_output@@@2@@__crt_stdio_output@@CADH_N@Z 000000018003c020 f i libucrtd:output.obj
 0001:0003b070       ?advance_to_next_pass@?$positional_parameter_base@DV?$stream_output_adapter@D@__crt_stdio_output@@@__crt_stdio_output@@IEAA_NXZ 000000018003c070 f i libucrtd:output.obj
 0001:0003b120       ?advance_to_next_pass@?$positional_parameter_base@DV?$string_output_adapter@D@__crt_stdio_output@@@__crt_stdio_output@@IEAA_NXZ 000000018003c120 f i libucrtd:output.obj
 0001:0003b1d0       ?advance_to_next_pass@?$positional_parameter_base@_WV?$stream_output_adapter@_W@__crt_stdio_output@@@__crt_stdio_output@@IEAA_NXZ 000000018003c1d0 f i libucrtd:output.obj
 0001:0003b280       ?advance_to_next_pass@?$positional_parameter_base@_WV?$string_output_adapter@_W@__crt_stdio_output@@@__crt_stdio_output@@IEAA_NXZ 000000018003c280 f i libucrtd:output.obj
 0001:0003b330       ?advance_to_next_pass@?$standard_base@DV?$stream_output_adapter@D@__crt_stdio_output@@@__crt_stdio_output@@IEAA_NXZ 000000018003c330 f i libucrtd:output.obj
 0001:0003b380       ?advance_to_next_pass@?$standard_base@DV?$string_output_adapter@D@__crt_stdio_output@@@__crt_stdio_output@@IEAA_NXZ 000000018003c380 f i libucrtd:output.obj
 0001:0003b3d0       ?advance_to_next_pass@?$standard_base@_WV?$stream_output_adapter@_W@__crt_stdio_output@@@__crt_stdio_output@@IEAA_NXZ 000000018003c3d0 f i libucrtd:output.obj
 0001:0003b420       ?advance_to_next_pass@?$standard_base@_WV?$string_output_adapter@_W@__crt_stdio_output@@@__crt_stdio_output@@IEAA_NXZ 000000018003c420 f i libucrtd:output.obj
 0001:0003b470       ?crop_zeroes@__crt_stdio_output@@YAXPEADQEAU__crt_locale_pointers@@@Z 000000018003c470 f i libucrtd:output.obj
 0001:0003b5b0       ?find_next_state@?$output_processor@DV?$stream_output_adapter@D@__crt_stdio_output@@V?$format_validation_base@DV?$stream_output_adapter@D@__crt_stdio_output@@@2@@__crt_stdio_output@@AEBA?AW4state@2@DW432@@Z 000000018003c5b0 f i libucrtd:output.obj
 0001:0003b650       ?find_next_state@?$output_processor@DV?$stream_output_adapter@D@__crt_stdio_output@@V?$positional_parameter_base@DV?$stream_output_adapter@D@__crt_stdio_output@@@2@@__crt_stdio_output@@AEBA?AW4state@2@DW432@@Z 000000018003c650 f i libucrtd:output.obj
 0001:0003b6f0       ?find_next_state@?$output_processor@DV?$stream_output_adapter@D@__crt_stdio_output@@V?$standard_base@DV?$stream_output_adapter@D@__crt_stdio_output@@@2@@__crt_stdio_output@@AEBA?AW4state@2@DW432@@Z 000000018003c6f0 f i libucrtd:output.obj
 0001:0003b790       ?find_next_state@?$output_processor@DV?$string_output_adapter@D@__crt_stdio_output@@V?$format_validation_base@DV?$string_output_adapter@D@__crt_stdio_output@@@2@@__crt_stdio_output@@AEBA?AW4state@2@DW432@@Z 000000018003c790 f i libucrtd:output.obj
 0001:0003b830       ?find_next_state@?$output_processor@DV?$string_output_adapter@D@__crt_stdio_output@@V?$positional_parameter_base@DV?$string_output_adapter@D@__crt_stdio_output@@@2@@__crt_stdio_output@@AEBA?AW4state@2@DW432@@Z 000000018003c830 f i libucrtd:output.obj
 0001:0003b8d0       ?find_next_state@?$output_processor@DV?$string_output_adapter@D@__crt_stdio_output@@V?$standard_base@DV?$string_output_adapter@D@__crt_stdio_output@@@2@@__crt_stdio_output@@AEBA?AW4state@2@DW432@@Z 000000018003c8d0 f i libucrtd:output.obj
 0001:0003b970       ?find_next_state@?$output_processor@_WV?$stream_output_adapter@_W@__crt_stdio_output@@V?$format_validation_base@_WV?$stream_output_adapter@_W@__crt_stdio_output@@@2@@__crt_stdio_output@@AEBA?AW4state@2@_WW432@@Z 000000018003c970 f i libucrtd:output.obj
 0001:0003ba10       ?find_next_state@?$output_processor@_WV?$stream_output_adapter@_W@__crt_stdio_output@@V?$positional_parameter_base@_WV?$stream_output_adapter@_W@__crt_stdio_output@@@2@@__crt_stdio_output@@AEBA?AW4state@2@_WW432@@Z 000000018003ca10 f i libucrtd:output.obj
 0001:0003bab0       ?find_next_state@?$output_processor@_WV?$stream_output_adapter@_W@__crt_stdio_output@@V?$standard_base@_WV?$stream_output_adapter@_W@__crt_stdio_output@@@2@@__crt_stdio_output@@AEBA?AW4state@2@_WW432@@Z 000000018003cab0 f i libucrtd:output.obj
 0001:0003bb50       ?find_next_state@?$output_processor@_WV?$string_output_adapter@_W@__crt_stdio_output@@V?$format_validation_base@_WV?$string_output_adapter@_W@__crt_stdio_output@@@2@@__crt_stdio_output@@AEBA?AW4state@2@_WW432@@Z 000000018003cb50 f i libucrtd:output.obj
 0001:0003bbf0       ?find_next_state@?$output_processor@_WV?$string_output_adapter@_W@__crt_stdio_output@@V?$positional_parameter_base@_WV?$string_output_adapter@_W@__crt_stdio_output@@@2@@__crt_stdio_output@@AEBA?AW4state@2@_WW432@@Z 000000018003cbf0 f i libucrtd:output.obj
 0001:0003bc90       ?find_next_state@?$output_processor@_WV?$string_output_adapter@_W@__crt_stdio_output@@V?$standard_base@_WV?$string_output_adapter@_W@__crt_stdio_output@@@2@@__crt_stdio_output@@AEBA?AW4state@2@_WW432@@Z 000000018003cc90 f i libucrtd:output.obj
 0001:0003bd30       ?force_decimal_point@__crt_stdio_output@@YAXPEADQEAU__crt_locale_pointers@@@Z 000000018003cd30 f i libucrtd:output.obj
 0001:0003be10       ?get_flags@__crt_stdio_stream@@QEBAJXZ 000000018003ce10 f i libucrtd:output.obj
 0001:0003be40       ?get_parameter_type@?$positional_parameter_base@DV?$stream_output_adapter@D@__crt_stdio_output@@@__crt_stdio_output@@CA?AW4parameter_type@12@F@Z 000000018003ce40 f i libucrtd:output.obj
 0001:0003be50       ?get_parameter_type@?$positional_parameter_base@DV?$stream_output_adapter@D@__crt_stdio_output@@@__crt_stdio_output@@CA?AW4parameter_type@12@G@Z 000000018003ce50 f i libucrtd:output.obj
 0001:0003be60       ?get_parameter_type@?$positional_parameter_base@DV?$stream_output_adapter@D@__crt_stdio_output@@@__crt_stdio_output@@CA?AW4parameter_type@12@H@Z 000000018003ce60 f i libucrtd:output.obj
 0001:0003be70       ?get_parameter_type@?$positional_parameter_base@DV?$stream_output_adapter@D@__crt_stdio_output@@@__crt_stdio_output@@CA?AW4parameter_type@12@I@Z 000000018003ce70 f i libucrtd:output.obj
 0001:0003be80       ?get_parameter_type@?$positional_parameter_base@DV?$stream_output_adapter@D@__crt_stdio_output@@@__crt_stdio_output@@CA?AW4parameter_type@12@U_CRT_DOUBLE@@@Z 000000018003ce80 f i libucrtd:output.obj
 0001:0003be90       ?get_parameter_type@?$positional_parameter_base@DV?$stream_output_adapter@D@__crt_stdio_output@@@__crt_stdio_output@@CA?AW4parameter_type@12@_J@Z 000000018003ce90 f i libucrtd:output.obj
 0001:0003bea0       ?get_parameter_type@?$positional_parameter_base@DV?$stream_output_adapter@D@__crt_stdio_output@@@__crt_stdio_output@@CA?AW4parameter_type@12@_K@Z 000000018003cea0 f i libucrtd:output.obj
 0001:0003beb0       ?get_parameter_type@?$positional_parameter_base@DV?$stream_output_adapter@D@__crt_stdio_output@@@__crt_stdio_output@@CA?AW4parameter_type@12@_W@Z 000000018003ceb0 f i libucrtd:output.obj
 0001:0003bec0       ?get_parameter_type@?$positional_parameter_base@DV?$string_output_adapter@D@__crt_stdio_output@@@__crt_stdio_output@@CA?AW4parameter_type@12@F@Z 000000018003cec0 f i libucrtd:output.obj
 0001:0003bed0       ?get_parameter_type@?$positional_parameter_base@DV?$string_output_adapter@D@__crt_stdio_output@@@__crt_stdio_output@@CA?AW4parameter_type@12@G@Z 000000018003ced0 f i libucrtd:output.obj
 0001:0003bee0       ?get_parameter_type@?$positional_parameter_base@DV?$string_output_adapter@D@__crt_stdio_output@@@__crt_stdio_output@@CA?AW4parameter_type@12@H@Z 000000018003cee0 f i libucrtd:output.obj
 0001:0003bef0       ?get_parameter_type@?$positional_parameter_base@DV?$string_output_adapter@D@__crt_stdio_output@@@__crt_stdio_output@@CA?AW4parameter_type@12@I@Z 000000018003cef0 f i libucrtd:output.obj
 0001:0003bf00       ?get_parameter_type@?$positional_parameter_base@DV?$string_output_adapter@D@__crt_stdio_output@@@__crt_stdio_output@@CA?AW4parameter_type@12@U_CRT_DOUBLE@@@Z 000000018003cf00 f i libucrtd:output.obj
 0001:0003bf10       ?get_parameter_type@?$positional_parameter_base@DV?$string_output_adapter@D@__crt_stdio_output@@@__crt_stdio_output@@CA?AW4parameter_type@12@_J@Z 000000018003cf10 f i libucrtd:output.obj
 0001:0003bf20       ?get_parameter_type@?$positional_parameter_base@DV?$string_output_adapter@D@__crt_stdio_output@@@__crt_stdio_output@@CA?AW4parameter_type@12@_K@Z 000000018003cf20 f i libucrtd:output.obj
 0001:0003bf30       ?get_parameter_type@?$positional_parameter_base@DV?$string_output_adapter@D@__crt_stdio_output@@@__crt_stdio_output@@CA?AW4parameter_type@12@_W@Z 000000018003cf30 f i libucrtd:output.obj
 0001:0003bf40       ?get_parameter_type@?$positional_parameter_base@_WV?$stream_output_adapter@_W@__crt_stdio_output@@@__crt_stdio_output@@CA?AW4parameter_type@12@F@Z 000000018003cf40 f i libucrtd:output.obj
 0001:0003bf50       ?get_parameter_type@?$positional_parameter_base@_WV?$stream_output_adapter@_W@__crt_stdio_output@@@__crt_stdio_output@@CA?AW4parameter_type@12@G@Z 000000018003cf50 f i libucrtd:output.obj
 0001:0003bf60       ?get_parameter_type@?$positional_parameter_base@_WV?$stream_output_adapter@_W@__crt_stdio_output@@@__crt_stdio_output@@CA?AW4parameter_type@12@H@Z 000000018003cf60 f i libucrtd:output.obj
 0001:0003bf70       ?get_parameter_type@?$positional_parameter_base@_WV?$stream_output_adapter@_W@__crt_stdio_output@@@__crt_stdio_output@@CA?AW4parameter_type@12@I@Z 000000018003cf70 f i libucrtd:output.obj
 0001:0003bf80       ?get_parameter_type@?$positional_parameter_base@_WV?$stream_output_adapter@_W@__crt_stdio_output@@@__crt_stdio_output@@CA?AW4parameter_type@12@U_CRT_DOUBLE@@@Z 000000018003cf80 f i libucrtd:output.obj
 0001:0003bf90       ?get_parameter_type@?$positional_parameter_base@_WV?$stream_output_adapter@_W@__crt_stdio_output@@@__crt_stdio_output@@CA?AW4parameter_type@12@_J@Z 000000018003cf90 f i libucrtd:output.obj
 0001:0003bfa0       ?get_parameter_type@?$positional_parameter_base@_WV?$stream_output_adapter@_W@__crt_stdio_output@@@__crt_stdio_output@@CA?AW4parameter_type@12@_K@Z 000000018003cfa0 f i libucrtd:output.obj
 0001:0003bfb0       ?get_parameter_type@?$positional_parameter_base@_WV?$stream_output_adapter@_W@__crt_stdio_output@@@__crt_stdio_output@@CA?AW4parameter_type@12@_W@Z 000000018003cfb0 f i libucrtd:output.obj
 0001:0003bfc0       ?get_parameter_type@?$positional_parameter_base@_WV?$string_output_adapter@_W@__crt_stdio_output@@@__crt_stdio_output@@CA?AW4parameter_type@12@F@Z 000000018003cfc0 f i libucrtd:output.obj
 0001:0003bfd0       ?get_parameter_type@?$positional_parameter_base@_WV?$string_output_adapter@_W@__crt_stdio_output@@@__crt_stdio_output@@CA?AW4parameter_type@12@G@Z 000000018003cfd0 f i libucrtd:output.obj
 0001:0003bfe0       ?get_parameter_type@?$positional_parameter_base@_WV?$string_output_adapter@_W@__crt_stdio_output@@@__crt_stdio_output@@CA?AW4parameter_type@12@H@Z 000000018003cfe0 f i libucrtd:output.obj
 0001:0003bff0       ?get_parameter_type@?$positional_parameter_base@_WV?$string_output_adapter@_W@__crt_stdio_output@@@__crt_stdio_output@@CA?AW4parameter_type@12@I@Z 000000018003cff0 f i libucrtd:output.obj
 0001:0003c000       ?get_parameter_type@?$positional_parameter_base@_WV?$string_output_adapter@_W@__crt_stdio_output@@@__crt_stdio_output@@CA?AW4parameter_type@12@U_CRT_DOUBLE@@@Z 000000018003d000 f i libucrtd:output.obj
 0001:0003c010       ?get_parameter_type@?$positional_parameter_base@_WV?$string_output_adapter@_W@__crt_stdio_output@@@__crt_stdio_output@@CA?AW4parameter_type@12@_J@Z 000000018003d010 f i libucrtd:output.obj
 0001:0003c020       ?get_parameter_type@?$positional_parameter_base@_WV?$string_output_adapter@_W@__crt_stdio_output@@@__crt_stdio_output@@CA?AW4parameter_type@12@_K@Z 000000018003d020 f i libucrtd:output.obj
 0001:0003c030       ?get_parameter_type@?$positional_parameter_base@_WV?$string_output_adapter@_W@__crt_stdio_output@@@__crt_stdio_output@@CA?AW4parameter_type@12@_W@Z 000000018003d030 f i libucrtd:output.obj
 0001:0003c040       ?has_flag@?$output_processor@DV?$stream_output_adapter@D@__crt_stdio_output@@V?$format_validation_base@DV?$stream_output_adapter@D@__crt_stdio_output@@@2@@__crt_stdio_output@@AEBA_NI@Z 000000018003d040 f i libucrtd:output.obj
 0001:0003c080       ?has_flag@?$output_processor@DV?$stream_output_adapter@D@__crt_stdio_output@@V?$positional_parameter_base@DV?$stream_output_adapter@D@__crt_stdio_output@@@2@@__crt_stdio_output@@AEBA_NI@Z 000000018003d080 f i libucrtd:output.obj
 0001:0003c0c0       ?has_flag@?$output_processor@DV?$stream_output_adapter@D@__crt_stdio_output@@V?$standard_base@DV?$stream_output_adapter@D@__crt_stdio_output@@@2@@__crt_stdio_output@@AEBA_NI@Z 000000018003d0c0 f i libucrtd:output.obj
 0001:0003c100       ?has_flag@?$output_processor@DV?$string_output_adapter@D@__crt_stdio_output@@V?$format_validation_base@DV?$string_output_adapter@D@__crt_stdio_output@@@2@@__crt_stdio_output@@AEBA_NI@Z 000000018003d100 f i libucrtd:output.obj
 0001:0003c140       ?has_flag@?$output_processor@DV?$string_output_adapter@D@__crt_stdio_output@@V?$positional_parameter_base@DV?$string_output_adapter@D@__crt_stdio_output@@@2@@__crt_stdio_output@@AEBA_NI@Z 000000018003d140 f i libucrtd:output.obj
 0001:0003c180       ?has_flag@?$output_processor@DV?$string_output_adapter@D@__crt_stdio_output@@V?$standard_base@DV?$string_output_adapter@D@__crt_stdio_output@@@2@@__crt_stdio_output@@AEBA_NI@Z 000000018003d180 f i libucrtd:output.obj
 0001:0003c1c0       ?has_flag@?$output_processor@_WV?$stream_output_adapter@_W@__crt_stdio_output@@V?$format_validation_base@_WV?$stream_output_adapter@_W@__crt_stdio_output@@@2@@__crt_stdio_output@@AEBA_NI@Z 000000018003d1c0 f i libucrtd:output.obj
 0001:0003c200       ?has_flag@?$output_processor@_WV?$stream_output_adapter@_W@__crt_stdio_output@@V?$positional_parameter_base@_WV?$stream_output_adapter@_W@__crt_stdio_output@@@2@@__crt_stdio_output@@AEBA_NI@Z 000000018003d200 f i libucrtd:output.obj
 0001:0003c240       ?has_flag@?$output_processor@_WV?$stream_output_adapter@_W@__crt_stdio_output@@V?$standard_base@_WV?$stream_output_adapter@_W@__crt_stdio_output@@@2@@__crt_stdio_output@@AEBA_NI@Z 000000018003d240 f i libucrtd:output.obj
 0001:0003c280       ?has_flag@?$output_processor@_WV?$string_output_adapter@_W@__crt_stdio_output@@V?$format_validation_base@_WV?$string_output_adapter@_W@__crt_stdio_output@@@2@@__crt_stdio_output@@AEBA_NI@Z 000000018003d280 f i libucrtd:output.obj
 0001:0003c2c0       ?has_flag@?$output_processor@_WV?$string_output_adapter@_W@__crt_stdio_output@@V?$positional_parameter_base@_WV?$string_output_adapter@_W@__crt_stdio_output@@@2@@__crt_stdio_output@@AEBA_NI@Z 000000018003d2c0 f i libucrtd:output.obj
 0001:0003c300       ?has_flag@?$output_processor@_WV?$string_output_adapter@_W@__crt_stdio_output@@V?$standard_base@_WV?$string_output_adapter@_W@__crt_stdio_output@@@2@@__crt_stdio_output@@AEBA_NI@Z 000000018003d300 f i libucrtd:output.obj
 0001:0003c340       ?is_positional_parameter_reappearance_consistent@?$positional_parameter_base@DV?$stream_output_adapter@D@__crt_stdio_output@@@__crt_stdio_output@@AEAA_NAEBUparameter_data@12@W4parameter_type@12@DW4length_modifier@2@@Z 000000018003d340 f i libucrtd:output.obj
 0001:0003c5a0       ?is_positional_parameter_reappearance_consistent@?$positional_parameter_base@DV?$string_output_adapter@D@__crt_stdio_output@@@__crt_stdio_output@@AEAA_NAEBUparameter_data@12@W4parameter_type@12@DW4length_modifier@2@@Z 000000018003d5a0 f i libucrtd:output.obj
 0001:0003c800       ?is_positional_parameter_reappearance_consistent@?$positional_parameter_base@_WV?$stream_output_adapter@_W@__crt_stdio_output@@@__crt_stdio_output@@AEAA_NAEBUparameter_data@12@W4parameter_type@12@_WW4length_modifier@2@@Z 000000018003d800 f i libucrtd:output.obj
 0001:0003ca60       ?is_positional_parameter_reappearance_consistent@?$positional_parameter_base@_WV?$string_output_adapter@_W@__crt_stdio_output@@@__crt_stdio_output@@AEAA_NAEBUparameter_data@12@W4parameter_type@12@_WW4length_modifier@2@@Z 000000018003da60 f i libucrtd:output.obj
 0001:0003ccc0       ?is_string_backed@__crt_stdio_stream@@QEBA_NXZ 000000018003dcc0 f i libucrtd:output.obj
 0001:0003cd00       ?narrow_null_string@?$output_processor@DV?$stream_output_adapter@D@__crt_stdio_output@@V?$format_validation_base@DV?$stream_output_adapter@D@__crt_stdio_output@@@2@@__crt_stdio_output@@CAPEADXZ 000000018003dd00 f i libucrtd:output.obj
 0001:0003cd10       ?narrow_null_string@?$output_processor@DV?$stream_output_adapter@D@__crt_stdio_output@@V?$positional_parameter_base@DV?$stream_output_adapter@D@__crt_stdio_output@@@2@@__crt_stdio_output@@CAPEADXZ 000000018003dd10 f i libucrtd:output.obj
 0001:0003cd20       ?narrow_null_string@?$output_processor@DV?$stream_output_adapter@D@__crt_stdio_output@@V?$standard_base@DV?$stream_output_adapter@D@__crt_stdio_output@@@2@@__crt_stdio_output@@CAPEADXZ 000000018003dd20 f i libucrtd:output.obj
 0001:0003cd30       ?narrow_null_string@?$output_processor@DV?$string_output_adapter@D@__crt_stdio_output@@V?$format_validation_base@DV?$string_output_adapter@D@__crt_stdio_output@@@2@@__crt_stdio_output@@CAPEADXZ 000000018003dd30 f i libucrtd:output.obj
 0001:0003cd40       ?narrow_null_string@?$output_processor@DV?$string_output_adapter@D@__crt_stdio_output@@V?$positional_parameter_base@DV?$string_output_adapter@D@__crt_stdio_output@@@2@@__crt_stdio_output@@CAPEADXZ 000000018003dd40 f i libucrtd:output.obj
 0001:0003cd50       ?narrow_null_string@?$output_processor@DV?$string_output_adapter@D@__crt_stdio_output@@V?$standard_base@DV?$string_output_adapter@D@__crt_stdio_output@@@2@@__crt_stdio_output@@CAPEADXZ 000000018003dd50 f i libucrtd:output.obj
 0001:0003cd60       ?narrow_null_string@?$output_processor@_WV?$stream_output_adapter@_W@__crt_stdio_output@@V?$format_validation_base@_WV?$stream_output_adapter@_W@__crt_stdio_output@@@2@@__crt_stdio_output@@CAPEADXZ 000000018003dd60 f i libucrtd:output.obj
 0001:0003cd70       ?narrow_null_string@?$output_processor@_WV?$stream_output_adapter@_W@__crt_stdio_output@@V?$positional_parameter_base@_WV?$stream_output_adapter@_W@__crt_stdio_output@@@2@@__crt_stdio_output@@CAPEADXZ 000000018003dd70 f i libucrtd:output.obj
 0001:0003cd80       ?narrow_null_string@?$output_processor@_WV?$stream_output_adapter@_W@__crt_stdio_output@@V?$standard_base@_WV?$stream_output_adapter@_W@__crt_stdio_output@@@2@@__crt_stdio_output@@CAPEADXZ 000000018003dd80 f i libucrtd:output.obj
 0001:0003cd90       ?narrow_null_string@?$output_processor@_WV?$string_output_adapter@_W@__crt_stdio_output@@V?$format_validation_base@_WV?$string_output_adapter@_W@__crt_stdio_output@@@2@@__crt_stdio_output@@CAPEADXZ 000000018003dd90 f i libucrtd:output.obj
 0001:0003cda0       ?narrow_null_string@?$output_processor@_WV?$string_output_adapter@_W@__crt_stdio_output@@V?$positional_parameter_base@_WV?$string_output_adapter@_W@__crt_stdio_output@@@2@@__crt_stdio_output@@CAPEADXZ 000000018003dda0 f i libucrtd:output.obj
 0001:0003cdb0       ?narrow_null_string@?$output_processor@_WV?$string_output_adapter@_W@__crt_stdio_output@@V?$standard_base@_WV?$string_output_adapter@_W@__crt_stdio_output@@@2@@__crt_stdio_output@@CAPEADXZ 000000018003ddb0 f i libucrtd:output.obj
 0001:0003cdc0       ?parse_int_from_format_string@?$output_processor@DV?$stream_output_adapter@D@__crt_stdio_output@@V?$format_validation_base@DV?$stream_output_adapter@D@__crt_stdio_output@@@2@@__crt_stdio_output@@AEAA_NQEAH@Z 000000018003ddc0 f i libucrtd:output.obj
 0001:0003cea0       ?parse_int_from_format_string@?$output_processor@DV?$stream_output_adapter@D@__crt_stdio_output@@V?$positional_parameter_base@DV?$stream_output_adapter@D@__crt_stdio_output@@@2@@__crt_stdio_output@@AEAA_NQEAH@Z 000000018003dea0 f i libucrtd:output.obj
 0001:0003cf80       ?parse_int_from_format_string@?$output_processor@DV?$stream_output_adapter@D@__crt_stdio_output@@V?$standard_base@DV?$stream_output_adapter@D@__crt_stdio_output@@@2@@__crt_stdio_output@@AEAA_NQEAH@Z 000000018003df80 f i libucrtd:output.obj
 0001:0003d060       ?parse_int_from_format_string@?$output_processor@DV?$string_output_adapter@D@__crt_stdio_output@@V?$format_validation_base@DV?$string_output_adapter@D@__crt_stdio_output@@@2@@__crt_stdio_output@@AEAA_NQEAH@Z 000000018003e060 f i libucrtd:output.obj
 0001:0003d140       ?parse_int_from_format_string@?$output_processor@DV?$string_output_adapter@D@__crt_stdio_output@@V?$positional_parameter_base@DV?$string_output_adapter@D@__crt_stdio_output@@@2@@__crt_stdio_output@@AEAA_NQEAH@Z 000000018003e140 f i libucrtd:output.obj
 0001:0003d220       ?parse_int_from_format_string@?$output_processor@DV?$string_output_adapter@D@__crt_stdio_output@@V?$standard_base@DV?$string_output_adapter@D@__crt_stdio_output@@@2@@__crt_stdio_output@@AEAA_NQEAH@Z 000000018003e220 f i libucrtd:output.obj
 0001:0003d300       ?parse_int_from_format_string@?$output_processor@_WV?$stream_output_adapter@_W@__crt_stdio_output@@V?$format_validation_base@_WV?$stream_output_adapter@_W@__crt_stdio_output@@@2@@__crt_stdio_output@@AEAA_NQEAH@Z 000000018003e300 f i libucrtd:output.obj
 0001:0003d3e0       ?parse_int_from_format_string@?$output_processor@_WV?$stream_output_adapter@_W@__crt_stdio_output@@V?$positional_parameter_base@_WV?$stream_output_adapter@_W@__crt_stdio_output@@@2@@__crt_stdio_output@@AEAA_NQEAH@Z 000000018003e3e0 f i libucrtd:output.obj
 0001:0003d4c0       ?parse_int_from_format_string@?$output_processor@_WV?$stream_output_adapter@_W@__crt_stdio_output@@V?$standard_base@_WV?$stream_output_adapter@_W@__crt_stdio_output@@@2@@__crt_stdio_output@@AEAA_NQEAH@Z 000000018003e4c0 f i libucrtd:output.obj
 0001:0003d5a0       ?parse_int_from_format_string@?$output_processor@_WV?$string_output_adapter@_W@__crt_stdio_output@@V?$format_validation_base@_WV?$string_output_adapter@_W@__crt_stdio_output@@@2@@__crt_stdio_output@@AEAA_NQEAH@Z 000000018003e5a0 f i libucrtd:output.obj
 0001:0003d680       ?parse_int_from_format_string@?$output_processor@_WV?$string_output_adapter@_W@__crt_stdio_output@@V?$positional_parameter_base@_WV?$string_output_adapter@_W@__crt_stdio_output@@@2@@__crt_stdio_output@@AEAA_NQEAH@Z 000000018003e680 f i libucrtd:output.obj
 0001:0003d760       ?parse_int_from_format_string@?$output_processor@_WV?$string_output_adapter@_W@__crt_stdio_output@@V?$standard_base@_WV?$string_output_adapter@_W@__crt_stdio_output@@@2@@__crt_stdio_output@@AEAA_NQEAH@Z 000000018003e760 f i libucrtd:output.obj
 0001:0003d840       ?process@?$output_processor@DV?$stream_output_adapter@D@__crt_stdio_output@@V?$format_validation_base@DV?$stream_output_adapter@D@__crt_stdio_output@@@2@@__crt_stdio_output@@QEAAHXZ 000000018003e840 f i libucrtd:output.obj
 0001:0003dba0       ?process@?$output_processor@DV?$stream_output_adapter@D@__crt_stdio_output@@V?$positional_parameter_base@DV?$stream_output_adapter@D@__crt_stdio_output@@@2@@__crt_stdio_output@@QEAAHXZ 000000018003eba0 f i libucrtd:output.obj
 0001:0003df00       ?process@?$output_processor@DV?$stream_output_adapter@D@__crt_stdio_output@@V?$standard_base@DV?$stream_output_adapter@D@__crt_stdio_output@@@2@@__crt_stdio_output@@QEAAHXZ 000000018003ef00 f i libucrtd:output.obj
 0001:0003e260       ?process@?$output_processor@DV?$string_output_adapter@D@__crt_stdio_output@@V?$format_validation_base@DV?$string_output_adapter@D@__crt_stdio_output@@@2@@__crt_stdio_output@@QEAAHXZ 000000018003f260 f i libucrtd:output.obj
 0001:0003e5c0       ?process@?$output_processor@DV?$string_output_adapter@D@__crt_stdio_output@@V?$positional_parameter_base@DV?$string_output_adapter@D@__crt_stdio_output@@@2@@__crt_stdio_output@@QEAAHXZ 000000018003f5c0 f i libucrtd:output.obj
 0001:0003e920       ?process@?$output_processor@DV?$string_output_adapter@D@__crt_stdio_output@@V?$standard_base@DV?$string_output_adapter@D@__crt_stdio_output@@@2@@__crt_stdio_output@@QEAAHXZ 000000018003f920 f i libucrtd:output.obj
 0001:0003ec80       ?process@?$output_processor@_WV?$stream_output_adapter@_W@__crt_stdio_output@@V?$format_validation_base@_WV?$stream_output_adapter@_W@__crt_stdio_output@@@2@@__crt_stdio_output@@QEAAHXZ 000000018003fc80 f i libucrtd:output.obj
 0001:0003efe0       ?process@?$output_processor@_WV?$stream_output_adapter@_W@__crt_stdio_output@@V?$positional_parameter_base@_WV?$stream_output_adapter@_W@__crt_stdio_output@@@2@@__crt_stdio_output@@QEAAHXZ 000000018003ffe0 f i libucrtd:output.obj
 0001:0003f340       ?process@?$output_processor@_WV?$stream_output_adapter@_W@__crt_stdio_output@@V?$standard_base@_WV?$stream_output_adapter@_W@__crt_stdio_output@@@2@@__crt_stdio_output@@QEAAHXZ 0000000180040340 f i libucrtd:output.obj
 0001:0003f6a0       ?process@?$output_processor@_WV?$string_output_adapter@_W@__crt_stdio_output@@V?$format_validation_base@_WV?$string_output_adapter@_W@__crt_stdio_output@@@2@@__crt_stdio_output@@QEAAHXZ 00000001800406a0 f i libucrtd:output.obj
 0001:0003fa00       ?process@?$output_processor@_WV?$string_output_adapter@_W@__crt_stdio_output@@V?$positional_parameter_base@_WV?$string_output_adapter@_W@__crt_stdio_output@@@2@@__crt_stdio_output@@QEAAHXZ 0000000180040a00 f i libucrtd:output.obj
 0001:0003fd60       ?process@?$output_processor@_WV?$string_output_adapter@_W@__crt_stdio_output@@V?$standard_base@_WV?$string_output_adapter@_W@__crt_stdio_output@@@2@@__crt_stdio_output@@QEAAHXZ 0000000180040d60 f i libucrtd:output.obj
 0001:000400c0       ?public_stream@__crt_stdio_stream@@QEBAPEAU_iobuf@@XZ 00000001800410c0 f i libucrtd:output.obj
 0001:000400d0       ?set_flag@?$output_processor@DV?$stream_output_adapter@D@__crt_stdio_output@@V?$format_validation_base@DV?$stream_output_adapter@D@__crt_stdio_output@@@2@@__crt_stdio_output@@AEAAXI@Z 00000001800410d0 f i libucrtd:output.obj
 0001:000400f0       ?set_flag@?$output_processor@DV?$stream_output_adapter@D@__crt_stdio_output@@V?$positional_parameter_base@DV?$stream_output_adapter@D@__crt_stdio_output@@@2@@__crt_stdio_output@@AEAAXI@Z 00000001800410f0 f i libucrtd:output.obj
 0001:00040110       ?set_flag@?$output_processor@DV?$stream_output_adapter@D@__crt_stdio_output@@V?$standard_base@DV?$stream_output_adapter@D@__crt_stdio_output@@@2@@__crt_stdio_output@@AEAAXI@Z 0000000180041110 f i libucrtd:output.obj
 0001:00040130       ?set_flag@?$output_processor@DV?$string_output_adapter@D@__crt_stdio_output@@V?$format_validation_base@DV?$string_output_adapter@D@__crt_stdio_output@@@2@@__crt_stdio_output@@AEAAXI@Z 0000000180041130 f i libucrtd:output.obj
 0001:00040150       ?set_flag@?$output_processor@DV?$string_output_adapter@D@__crt_stdio_output@@V?$positional_parameter_base@DV?$string_output_adapter@D@__crt_stdio_output@@@2@@__crt_stdio_output@@AEAAXI@Z 0000000180041150 f i libucrtd:output.obj
 0001:00040170       ?set_flag@?$output_processor@DV?$string_output_adapter@D@__crt_stdio_output@@V?$standard_base@DV?$string_output_adapter@D@__crt_stdio_output@@@2@@__crt_stdio_output@@AEAAXI@Z 0000000180041170 f i libucrtd:output.obj
 0001:00040190       ?set_flag@?$output_processor@_WV?$stream_output_adapter@_W@__crt_stdio_output@@V?$format_validation_base@_WV?$stream_output_adapter@_W@__crt_stdio_output@@@2@@__crt_stdio_output@@AEAAXI@Z 0000000180041190 f i libucrtd:output.obj
 0001:000401b0       ?set_flag@?$output_processor@_WV?$stream_output_adapter@_W@__crt_stdio_output@@V?$positional_parameter_base@_WV?$stream_output_adapter@_W@__crt_stdio_output@@@2@@__crt_stdio_output@@AEAAXI@Z 00000001800411b0 f i libucrtd:output.obj
 0001:000401d0       ?set_flag@?$output_processor@_WV?$stream_output_adapter@_W@__crt_stdio_output@@V?$standard_base@_WV?$stream_output_adapter@_W@__crt_stdio_output@@@2@@__crt_stdio_output@@AEAAXI@Z 00000001800411d0 f i libucrtd:output.obj
 0001:000401f0       ?set_flag@?$output_processor@_WV?$string_output_adapter@_W@__crt_stdio_output@@V?$format_validation_base@_WV?$string_output_adapter@_W@__crt_stdio_output@@@2@@__crt_stdio_output@@AEAAXI@Z 00000001800411f0 f i libucrtd:output.obj
 0001:00040210       ?set_flag@?$output_processor@_WV?$string_output_adapter@_W@__crt_stdio_output@@V?$positional_parameter_base@_WV?$string_output_adapter@_W@__crt_stdio_output@@@2@@__crt_stdio_output@@AEAAXI@Z 0000000180041210 f i libucrtd:output.obj
 0001:00040230       ?set_flag@?$output_processor@_WV?$string_output_adapter@_W@__crt_stdio_output@@V?$standard_base@_WV?$string_output_adapter@_W@__crt_stdio_output@@@2@@__crt_stdio_output@@AEAAXI@Z 0000000180041230 f i libucrtd:output.obj
 0001:00040250       ?should_format@?$positional_parameter_base@DV?$stream_output_adapter@D@__crt_stdio_output@@@__crt_stdio_output@@IEAA_NXZ 0000000180041250 f i libucrtd:output.obj
 0001:00040290       ?should_format@?$positional_parameter_base@DV?$string_output_adapter@D@__crt_stdio_output@@@__crt_stdio_output@@IEAA_NXZ 0000000180041290 f i libucrtd:output.obj
 0001:000402d0       ?should_format@?$positional_parameter_base@_WV?$stream_output_adapter@_W@__crt_stdio_output@@@__crt_stdio_output@@IEAA_NXZ 00000001800412d0 f i libucrtd:output.obj
 0001:00040310       ?should_format@?$positional_parameter_base@_WV?$string_output_adapter@_W@__crt_stdio_output@@@__crt_stdio_output@@IEAA_NXZ 0000000180041310 f i libucrtd:output.obj
 0001:00040350       ?should_format@?$standard_base@DV?$stream_output_adapter@D@__crt_stdio_output@@@__crt_stdio_output@@IEAA_NXZ 0000000180041350 f i libucrtd:output.obj
 0001:00040360       ?should_format@?$standard_base@DV?$string_output_adapter@D@__crt_stdio_output@@@__crt_stdio_output@@IEAA_NXZ 0000000180041360 f i libucrtd:output.obj
 0001:00040370       ?should_format@?$standard_base@_WV?$stream_output_adapter@_W@__crt_stdio_output@@@__crt_stdio_output@@IEAA_NXZ 0000000180041370 f i libucrtd:output.obj
 0001:00040380       ?should_format@?$standard_base@_WV?$string_output_adapter@_W@__crt_stdio_output@@@__crt_stdio_output@@IEAA_NXZ 0000000180041380 f i libucrtd:output.obj
 0001:00040390       ?should_skip_normal_state_processing@?$positional_parameter_base@DV?$stream_output_adapter@D@__crt_stdio_output@@@__crt_stdio_output@@IEAA_NXZ 0000000180041390 f i libucrtd:output.obj
 0001:000403e0       ?should_skip_normal_state_processing@?$positional_parameter_base@DV?$string_output_adapter@D@__crt_stdio_output@@@__crt_stdio_output@@IEAA_NXZ 00000001800413e0 f i libucrtd:output.obj
 0001:00040430       ?should_skip_normal_state_processing@?$positional_parameter_base@_WV?$stream_output_adapter@_W@__crt_stdio_output@@@__crt_stdio_output@@IEAA_NXZ 0000000180041430 f i libucrtd:output.obj
 0001:00040480       ?should_skip_normal_state_processing@?$positional_parameter_base@_WV?$string_output_adapter@_W@__crt_stdio_output@@@__crt_stdio_output@@IEAA_NXZ 0000000180041480 f i libucrtd:output.obj
 0001:000404d0       ?should_skip_normal_state_processing@?$standard_base@DV?$stream_output_adapter@D@__crt_stdio_output@@@__crt_stdio_output@@IEAA_NXZ 00000001800414d0 f i libucrtd:output.obj
 0001:000404e0       ?should_skip_normal_state_processing@?$standard_base@DV?$string_output_adapter@D@__crt_stdio_output@@@__crt_stdio_output@@IEAA_NXZ 00000001800414e0 f i libucrtd:output.obj
 0001:000404f0       ?should_skip_normal_state_processing@?$standard_base@_WV?$stream_output_adapter@_W@__crt_stdio_output@@@__crt_stdio_output@@IEAA_NXZ 00000001800414f0 f i libucrtd:output.obj
 0001:00040500       ?should_skip_normal_state_processing@?$standard_base@_WV?$string_output_adapter@_W@__crt_stdio_output@@@__crt_stdio_output@@IEAA_NXZ 0000000180041500 f i libucrtd:output.obj
 0001:00040510       ?should_skip_type_state_output@?$positional_parameter_base@DV?$stream_output_adapter@D@__crt_stdio_output@@@__crt_stdio_output@@IEBA_NXZ 0000000180041510 f i libucrtd:output.obj
 0001:00040550       ?should_skip_type_state_output@?$positional_parameter_base@DV?$string_output_adapter@D@__crt_stdio_output@@@__crt_stdio_output@@IEBA_NXZ 0000000180041550 f i libucrtd:output.obj
 0001:00040590       ?should_skip_type_state_output@?$positional_parameter_base@_WV?$stream_output_adapter@_W@__crt_stdio_output@@@__crt_stdio_output@@IEBA_NXZ 0000000180041590 f i libucrtd:output.obj
 0001:000405d0       ?should_skip_type_state_output@?$positional_parameter_base@_WV?$string_output_adapter@_W@__crt_stdio_output@@@__crt_stdio_output@@IEBA_NXZ 00000001800415d0 f i libucrtd:output.obj
 0001:00040610       ?should_skip_type_state_output@?$standard_base@DV?$stream_output_adapter@D@__crt_stdio_output@@@__crt_stdio_output@@IEBA_NXZ 0000000180041610 f i libucrtd:output.obj
 0001:00040620       ?should_skip_type_state_output@?$standard_base@DV?$string_output_adapter@D@__crt_stdio_output@@@__crt_stdio_output@@IEBA_NXZ 0000000180041620 f i libucrtd:output.obj
 0001:00040630       ?should_skip_type_state_output@?$standard_base@_WV?$stream_output_adapter@_W@__crt_stdio_output@@@__crt_stdio_output@@IEBA_NXZ 0000000180041630 f i libucrtd:output.obj
 0001:00040640       ?should_skip_type_state_output@?$standard_base@_WV?$string_output_adapter@_W@__crt_stdio_output@@@__crt_stdio_output@@IEBA_NXZ 0000000180041640 f i libucrtd:output.obj
 0001:00040650       ?state_case_dot@?$output_processor@DV?$stream_output_adapter@D@__crt_stdio_output@@V?$format_validation_base@DV?$stream_output_adapter@D@__crt_stdio_output@@@2@@__crt_stdio_output@@AEAA_NXZ 0000000180041650 f i libucrtd:output.obj
 0001:00040670       ?state_case_dot@?$output_processor@DV?$stream_output_adapter@D@__crt_stdio_output@@V?$positional_parameter_base@DV?$stream_output_adapter@D@__crt_stdio_output@@@2@@__crt_stdio_output@@AEAA_NXZ 0000000180041670 f i libucrtd:output.obj
 0001:00040690       ?state_case_dot@?$output_processor@DV?$stream_output_adapter@D@__crt_stdio_output@@V?$standard_base@DV?$stream_output_adapter@D@__crt_stdio_output@@@2@@__crt_stdio_output@@AEAA_NXZ 0000000180041690 f i libucrtd:output.obj
 0001:000406b0       ?state_case_dot@?$output_processor@DV?$string_output_adapter@D@__crt_stdio_output@@V?$format_validation_base@DV?$string_output_adapter@D@__crt_stdio_output@@@2@@__crt_stdio_output@@AEAA_NXZ 00000001800416b0 f i libucrtd:output.obj
 0001:000406d0       ?state_case_dot@?$output_processor@DV?$string_output_adapter@D@__crt_stdio_output@@V?$positional_parameter_base@DV?$string_output_adapter@D@__crt_stdio_output@@@2@@__crt_stdio_output@@AEAA_NXZ 00000001800416d0 f i libucrtd:output.obj
 0001:000406f0       ?state_case_dot@?$output_processor@DV?$string_output_adapter@D@__crt_stdio_output@@V?$standard_base@DV?$string_output_adapter@D@__crt_stdio_output@@@2@@__crt_stdio_output@@AEAA_NXZ 00000001800416f0 f i libucrtd:output.obj
 0001:00040710       ?state_case_dot@?$output_processor@_WV?$stream_output_adapter@_W@__crt_stdio_output@@V?$format_validation_base@_WV?$stream_output_adapter@_W@__crt_stdio_output@@@2@@__crt_stdio_output@@AEAA_NXZ 0000000180041710 f i libucrtd:output.obj
 0001:00040730       ?state_case_dot@?$output_processor@_WV?$stream_output_adapter@_W@__crt_stdio_output@@V?$positional_parameter_base@_WV?$stream_output_adapter@_W@__crt_stdio_output@@@2@@__crt_stdio_output@@AEAA_NXZ 0000000180041730 f i libucrtd:output.obj
 0001:00040750       ?state_case_dot@?$output_processor@_WV?$stream_output_adapter@_W@__crt_stdio_output@@V?$standard_base@_WV?$stream_output_adapter@_W@__crt_stdio_output@@@2@@__crt_stdio_output@@AEAA_NXZ 0000000180041750 f i libucrtd:output.obj
 0001:00040770       ?state_case_dot@?$output_processor@_WV?$string_output_adapter@_W@__crt_stdio_output@@V?$format_validation_base@_WV?$string_output_adapter@_W@__crt_stdio_output@@@2@@__crt_stdio_output@@AEAA_NXZ 0000000180041770 f i libucrtd:output.obj
 0001:00040790       ?state_case_dot@?$output_processor@_WV?$string_output_adapter@_W@__crt_stdio_output@@V?$positional_parameter_base@_WV?$string_output_adapter@_W@__crt_stdio_output@@@2@@__crt_stdio_output@@AEAA_NXZ 0000000180041790 f i libucrtd:output.obj
 0001:000407b0       ?state_case_dot@?$output_processor@_WV?$string_output_adapter@_W@__crt_stdio_output@@V?$standard_base@_WV?$string_output_adapter@_W@__crt_stdio_output@@@2@@__crt_stdio_output@@AEAA_NXZ 00000001800417b0 f i libucrtd:output.obj
 0001:000407d0       ?state_case_flag@?$output_processor@DV?$stream_output_adapter@D@__crt_stdio_output@@V?$format_validation_base@DV?$stream_output_adapter@D@__crt_stdio_output@@@2@@__crt_stdio_output@@AEAA_NXZ 00000001800417d0 f i libucrtd:output.obj
 0001:00040870       ?state_case_flag@?$output_processor@DV?$stream_output_adapter@D@__crt_stdio_output@@V?$positional_parameter_base@DV?$stream_output_adapter@D@__crt_stdio_output@@@2@@__crt_stdio_output@@AEAA_NXZ 0000000180041870 f i libucrtd:output.obj
 0001:00040910       ?state_case_flag@?$output_processor@DV?$stream_output_adapter@D@__crt_stdio_output@@V?$standard_base@DV?$stream_output_adapter@D@__crt_stdio_output@@@2@@__crt_stdio_output@@AEAA_NXZ 0000000180041910 f i libucrtd:output.obj
 0001:000409b0       ?state_case_flag@?$output_processor@DV?$string_output_adapter@D@__crt_stdio_output@@V?$format_validation_base@DV?$string_output_adapter@D@__crt_stdio_output@@@2@@__crt_stdio_output@@AEAA_NXZ 00000001800419b0 f i libucrtd:output.obj
 0001:00040a50       ?state_case_flag@?$output_processor@DV?$string_output_adapter@D@__crt_stdio_output@@V?$positional_parameter_base@DV?$string_output_adapter@D@__crt_stdio_output@@@2@@__crt_stdio_output@@AEAA_NXZ 0000000180041a50 f i libucrtd:output.obj
 0001:00040af0       ?state_case_flag@?$output_processor@DV?$string_output_adapter@D@__crt_stdio_output@@V?$standard_base@DV?$string_output_adapter@D@__crt_stdio_output@@@2@@__crt_stdio_output@@AEAA_NXZ 0000000180041af0 f i libucrtd:output.obj
 0001:00040b90       ?state_case_flag@?$output_processor@_WV?$stream_output_adapter@_W@__crt_stdio_output@@V?$format_validation_base@_WV?$stream_output_adapter@_W@__crt_stdio_output@@@2@@__crt_stdio_output@@AEAA_NXZ 0000000180041b90 f i libucrtd:output.obj
 0001:00040c30       ?state_case_flag@?$output_processor@_WV?$stream_output_adapter@_W@__crt_stdio_output@@V?$positional_parameter_base@_WV?$stream_output_adapter@_W@__crt_stdio_output@@@2@@__crt_stdio_output@@AEAA_NXZ 0000000180041c30 f i libucrtd:output.obj
 0001:00040cd0       ?state_case_flag@?$output_processor@_WV?$stream_output_adapter@_W@__crt_stdio_output@@V?$standard_base@_WV?$stream_output_adapter@_W@__crt_stdio_output@@@2@@__crt_stdio_output@@AEAA_NXZ 0000000180041cd0 f i libucrtd:output.obj
 0001:00040d70       ?state_case_flag@?$output_processor@_WV?$string_output_adapter@_W@__crt_stdio_output@@V?$format_validation_base@_WV?$string_output_adapter@_W@__crt_stdio_output@@@2@@__crt_stdio_output@@AEAA_NXZ 0000000180041d70 f i libucrtd:output.obj
 0001:00040e10       ?state_case_flag@?$output_processor@_WV?$string_output_adapter@_W@__crt_stdio_output@@V?$positional_parameter_base@_WV?$string_output_adapter@_W@__crt_stdio_output@@@2@@__crt_stdio_output@@AEAA_NXZ 0000000180041e10 f i libucrtd:output.obj
 0001:00040eb0       ?state_case_flag@?$output_processor@_WV?$string_output_adapter@_W@__crt_stdio_output@@V?$standard_base@_WV?$string_output_adapter@_W@__crt_stdio_output@@@2@@__crt_stdio_output@@AEAA_NXZ 0000000180041eb0 f i libucrtd:output.obj
 0001:00040f50       ?state_case_normal@?$output_processor@DV?$stream_output_adapter@D@__crt_stdio_output@@V?$format_validation_base@DV?$stream_output_adapter@D@__crt_stdio_output@@@2@@__crt_stdio_output@@AEAA_NXZ 0000000180041f50 f i libucrtd:output.obj
 0001:00041030       ?state_case_normal@?$output_processor@DV?$stream_output_adapter@D@__crt_stdio_output@@V?$positional_parameter_base@DV?$stream_output_adapter@D@__crt_stdio_output@@@2@@__crt_stdio_output@@AEAA_NXZ 0000000180042030 f i libucrtd:output.obj
 0001:00041110       ?state_case_normal@?$output_processor@DV?$stream_output_adapter@D@__crt_stdio_output@@V?$standard_base@DV?$stream_output_adapter@D@__crt_stdio_output@@@2@@__crt_stdio_output@@AEAA_NXZ 0000000180042110 f i libucrtd:output.obj
 0001:000411f0       ?state_case_normal@?$output_processor@DV?$string_output_adapter@D@__crt_stdio_output@@V?$format_validation_base@DV?$string_output_adapter@D@__crt_stdio_output@@@2@@__crt_stdio_output@@AEAA_NXZ 00000001800421f0 f i libucrtd:output.obj
 0001:000412d0       ?state_case_normal@?$output_processor@DV?$string_output_adapter@D@__crt_stdio_output@@V?$positional_parameter_base@DV?$string_output_adapter@D@__crt_stdio_output@@@2@@__crt_stdio_output@@AEAA_NXZ 00000001800422d0 f i libucrtd:output.obj
 0001:000413b0       ?state_case_normal@?$output_processor@DV?$string_output_adapter@D@__crt_stdio_output@@V?$standard_base@DV?$string_output_adapter@D@__crt_stdio_output@@@2@@__crt_stdio_output@@AEAA_NXZ 00000001800423b0 f i libucrtd:output.obj
 0001:00041490       ?state_case_normal@?$output_processor@_WV?$stream_output_adapter@_W@__crt_stdio_output@@V?$format_validation_base@_WV?$stream_output_adapter@_W@__crt_stdio_output@@@2@@__crt_stdio_output@@AEAA_NXZ 0000000180042490 f i libucrtd:output.obj
 0001:00041570       ?state_case_normal@?$output_processor@_WV?$stream_output_adapter@_W@__crt_stdio_output@@V?$positional_parameter_base@_WV?$stream_output_adapter@_W@__crt_stdio_output@@@2@@__crt_stdio_output@@AEAA_NXZ 0000000180042570 f i libucrtd:output.obj
 0001:00041650       ?state_case_normal@?$output_processor@_WV?$stream_output_adapter@_W@__crt_stdio_output@@V?$standard_base@_WV?$stream_output_adapter@_W@__crt_stdio_output@@@2@@__crt_stdio_output@@AEAA_NXZ 0000000180042650 f i libucrtd:output.obj
 0001:00041730       ?state_case_normal@?$output_processor@_WV?$string_output_adapter@_W@__crt_stdio_output@@V?$format_validation_base@_WV?$string_output_adapter@_W@__crt_stdio_output@@@2@@__crt_stdio_output@@AEAA_NXZ 0000000180042730 f i libucrtd:output.obj
 0001:00041810       ?state_case_normal@?$output_processor@_WV?$string_output_adapter@_W@__crt_stdio_output@@V?$positional_parameter_base@_WV?$string_output_adapter@_W@__crt_stdio_output@@@2@@__crt_stdio_output@@AEAA_NXZ 0000000180042810 f i libucrtd:output.obj
 0001:000418f0       ?state_case_normal@?$output_processor@_WV?$string_output_adapter@_W@__crt_stdio_output@@V?$standard_base@_WV?$string_output_adapter@_W@__crt_stdio_output@@@2@@__crt_stdio_output@@AEAA_NXZ 00000001800428f0 f i libucrtd:output.obj
 0001:000419d0       ?state_case_normal_common@?$output_processor@DV?$stream_output_adapter@D@__crt_stdio_output@@V?$format_validation_base@DV?$stream_output_adapter@D@__crt_stdio_output@@@2@@__crt_stdio_output@@AEAA_NXZ 00000001800429d0 f i libucrtd:output.obj
 0001:00041a20       ?state_case_normal_common@?$output_processor@DV?$stream_output_adapter@D@__crt_stdio_output@@V?$positional_parameter_base@DV?$stream_output_adapter@D@__crt_stdio_output@@@2@@__crt_stdio_output@@AEAA_NXZ 0000000180042a20 f i libucrtd:output.obj
 0001:00041a70       ?state_case_normal_common@?$output_processor@DV?$stream_output_adapter@D@__crt_stdio_output@@V?$standard_base@DV?$stream_output_adapter@D@__crt_stdio_output@@@2@@__crt_stdio_output@@AEAA_NXZ 0000000180042a70 f i libucrtd:output.obj
 0001:00041ac0       ?state_case_normal_common@?$output_processor@DV?$string_output_adapter@D@__crt_stdio_output@@V?$format_validation_base@DV?$string_output_adapter@D@__crt_stdio_output@@@2@@__crt_stdio_output@@AEAA_NXZ 0000000180042ac0 f i libucrtd:output.obj
 0001:00041b10       ?state_case_normal_common@?$output_processor@DV?$string_output_adapter@D@__crt_stdio_output@@V?$positional_parameter_base@DV?$string_output_adapter@D@__crt_stdio_output@@@2@@__crt_stdio_output@@AEAA_NXZ 0000000180042b10 f i libucrtd:output.obj
 0001:00041b60       ?state_case_normal_common@?$output_processor@DV?$string_output_adapter@D@__crt_stdio_output@@V?$standard_base@DV?$string_output_adapter@D@__crt_stdio_output@@@2@@__crt_stdio_output@@AEAA_NXZ 0000000180042b60 f i libucrtd:output.obj
 0001:00041bb0       ?state_case_normal_common@?$output_processor@_WV?$stream_output_adapter@_W@__crt_stdio_output@@V?$format_validation_base@_WV?$stream_output_adapter@_W@__crt_stdio_output@@@2@@__crt_stdio_output@@AEAA_NXZ 0000000180042bb0 f i libucrtd:output.obj
 0001:00041c00       ?state_case_normal_common@?$output_processor@_WV?$stream_output_adapter@_W@__crt_stdio_output@@V?$positional_parameter_base@_WV?$stream_output_adapter@_W@__crt_stdio_output@@@2@@__crt_stdio_output@@AEAA_NXZ 0000000180042c00 f i libucrtd:output.obj
 0001:00041c50       ?state_case_normal_common@?$output_processor@_WV?$stream_output_adapter@_W@__crt_stdio_output@@V?$standard_base@_WV?$stream_output_adapter@_W@__crt_stdio_output@@@2@@__crt_stdio_output@@AEAA_NXZ 0000000180042c50 f i libucrtd:output.obj
 0001:00041ca0       ?state_case_normal_common@?$output_processor@_WV?$string_output_adapter@_W@__crt_stdio_output@@V?$format_validation_base@_WV?$string_output_adapter@_W@__crt_stdio_output@@@2@@__crt_stdio_output@@AEAA_NXZ 0000000180042ca0 f i libucrtd:output.obj
 0001:00041cf0       ?state_case_normal_common@?$output_processor@_WV?$string_output_adapter@_W@__crt_stdio_output@@V?$positional_parameter_base@_WV?$string_output_adapter@_W@__crt_stdio_output@@@2@@__crt_stdio_output@@AEAA_NXZ 0000000180042cf0 f i libucrtd:output.obj
 0001:00041d40       ?state_case_normal_common@?$output_processor@_WV?$string_output_adapter@_W@__crt_stdio_output@@V?$standard_base@_WV?$string_output_adapter@_W@__crt_stdio_output@@@2@@__crt_stdio_output@@AEAA_NXZ 0000000180042d40 f i libucrtd:output.obj
 0001:00041d90       ?state_case_normal_tchar@?$output_processor@DV?$stream_output_adapter@D@__crt_stdio_output@@V?$format_validation_base@DV?$stream_output_adapter@D@__crt_stdio_output@@@2@@__crt_stdio_output@@AEAA_ND@Z 0000000180042d90 f i libucrtd:output.obj
 0001:00041ed0       ?state_case_normal_tchar@?$output_processor@DV?$stream_output_adapter@D@__crt_stdio_output@@V?$positional_parameter_base@DV?$stream_output_adapter@D@__crt_stdio_output@@@2@@__crt_stdio_output@@AEAA_ND@Z 0000000180042ed0 f i libucrtd:output.obj
 0001:00042010       ?state_case_normal_tchar@?$output_processor@DV?$stream_output_adapter@D@__crt_stdio_output@@V?$standard_base@DV?$stream_output_adapter@D@__crt_stdio_output@@@2@@__crt_stdio_output@@AEAA_ND@Z 0000000180043010 f i libucrtd:output.obj
 0001:00042150       ?state_case_normal_tchar@?$output_processor@DV?$string_output_adapter@D@__crt_stdio_output@@V?$format_validation_base@DV?$string_output_adapter@D@__crt_stdio_output@@@2@@__crt_stdio_output@@AEAA_ND@Z 0000000180043150 f i libucrtd:output.obj
 0001:00042290       ?state_case_normal_tchar@?$output_processor@DV?$string_output_adapter@D@__crt_stdio_output@@V?$positional_parameter_base@DV?$string_output_adapter@D@__crt_stdio_output@@@2@@__crt_stdio_output@@AEAA_ND@Z 0000000180043290 f i libucrtd:output.obj
 0001:000423d0       ?state_case_normal_tchar@?$output_processor@DV?$string_output_adapter@D@__crt_stdio_output@@V?$standard_base@DV?$string_output_adapter@D@__crt_stdio_output@@@2@@__crt_stdio_output@@AEAA_ND@Z 00000001800433d0 f i libucrtd:output.obj
 0001:00042510       ?state_case_normal_tchar@?$output_processor@_WV?$stream_output_adapter@_W@__crt_stdio_output@@V?$format_validation_base@_WV?$stream_output_adapter@_W@__crt_stdio_output@@@2@@__crt_stdio_output@@AEAA_N_W@Z 0000000180043510 f i libucrtd:output.obj
 0001:00042530       ?state_case_normal_tchar@?$output_processor@_WV?$stream_output_adapter@_W@__crt_stdio_output@@V?$positional_parameter_base@_WV?$stream_output_adapter@_W@__crt_stdio_output@@@2@@__crt_stdio_output@@AEAA_N_W@Z 0000000180043530 f i libucrtd:output.obj
 0001:00042550       ?state_case_normal_tchar@?$output_processor@_WV?$stream_output_adapter@_W@__crt_stdio_output@@V?$standard_base@_WV?$stream_output_adapter@_W@__crt_stdio_output@@@2@@__crt_stdio_output@@AEAA_N_W@Z 0000000180043550 f i libucrtd:output.obj
 0001:00042570       ?state_case_normal_tchar@?$output_processor@_WV?$string_output_adapter@_W@__crt_stdio_output@@V?$format_validation_base@_WV?$string_output_adapter@_W@__crt_stdio_output@@@2@@__crt_stdio_output@@AEAA_N_W@Z 0000000180043570 f i libucrtd:output.obj
 0001:00042590       ?state_case_normal_tchar@?$output_processor@_WV?$string_output_adapter@_W@__crt_stdio_output@@V?$positional_parameter_base@_WV?$string_output_adapter@_W@__crt_stdio_output@@@2@@__crt_stdio_output@@AEAA_N_W@Z 0000000180043590 f i libucrtd:output.obj
 0001:000425b0       ?state_case_normal_tchar@?$output_processor@_WV?$string_output_adapter@_W@__crt_stdio_output@@V?$standard_base@_WV?$string_output_adapter@_W@__crt_stdio_output@@@2@@__crt_stdio_output@@AEAA_N_W@Z 00000001800435b0 f i libucrtd:output.obj
 0001:000425d0       ?state_case_percent@?$output_processor@DV?$stream_output_adapter@D@__crt_stdio_output@@V?$format_validation_base@DV?$stream_output_adapter@D@__crt_stdio_output@@@2@@__crt_stdio_output@@AEAA_NXZ 00000001800435d0 f i libucrtd:output.obj
 0001:00042620       ?state_case_percent@?$output_processor@DV?$stream_output_adapter@D@__crt_stdio_output@@V?$positional_parameter_base@DV?$stream_output_adapter@D@__crt_stdio_output@@@2@@__crt_stdio_output@@AEAA_NXZ 0000000180043620 f i libucrtd:output.obj
 0001:00042670       ?state_case_percent@?$output_processor@DV?$stream_output_adapter@D@__crt_stdio_output@@V?$standard_base@DV?$stream_output_adapter@D@__crt_stdio_output@@@2@@__crt_stdio_output@@AEAA_NXZ 0000000180043670 f i libucrtd:output.obj
 0001:000426c0       ?state_case_percent@?$output_processor@DV?$string_output_adapter@D@__crt_stdio_output@@V?$format_validation_base@DV?$string_output_adapter@D@__crt_stdio_output@@@2@@__crt_stdio_output@@AEAA_NXZ 00000001800436c0 f i libucrtd:output.obj
 0001:00042710       ?state_case_percent@?$output_processor@DV?$string_output_adapter@D@__crt_stdio_output@@V?$positional_parameter_base@DV?$string_output_adapter@D@__crt_stdio_output@@@2@@__crt_stdio_output@@AEAA_NXZ 0000000180043710 f i libucrtd:output.obj
 0001:00042760       ?state_case_percent@?$output_processor@DV?$string_output_adapter@D@__crt_stdio_output@@V?$standard_base@DV?$string_output_adapter@D@__crt_stdio_output@@@2@@__crt_stdio_output@@AEAA_NXZ 0000000180043760 f i libucrtd:output.obj
 0001:000427b0       ?state_case_percent@?$output_processor@_WV?$stream_output_adapter@_W@__crt_stdio_output@@V?$format_validation_base@_WV?$stream_output_adapter@_W@__crt_stdio_output@@@2@@__crt_stdio_output@@AEAA_NXZ 00000001800437b0 f i libucrtd:output.obj
 0001:00042800       ?state_case_percent@?$output_processor@_WV?$stream_output_adapter@_W@__crt_stdio_output@@V?$positional_parameter_base@_WV?$stream_output_adapter@_W@__crt_stdio_output@@@2@@__crt_stdio_output@@AEAA_NXZ 0000000180043800 f i libucrtd:output.obj
 0001:00042850       ?state_case_percent@?$output_processor@_WV?$stream_output_adapter@_W@__crt_stdio_output@@V?$standard_base@_WV?$stream_output_adapter@_W@__crt_stdio_output@@@2@@__crt_stdio_output@@AEAA_NXZ 0000000180043850 f i libucrtd:output.obj
 0001:000428a0       ?state_case_percent@?$output_processor@_WV?$string_output_adapter@_W@__crt_stdio_output@@V?$format_validation_base@_WV?$string_output_adapter@_W@__crt_stdio_output@@@2@@__crt_stdio_output@@AEAA_NXZ 00000001800438a0 f i libucrtd:output.obj
 0001:000428f0       ?state_case_percent@?$output_processor@_WV?$string_output_adapter@_W@__crt_stdio_output@@V?$positional_parameter_base@_WV?$string_output_adapter@_W@__crt_stdio_output@@@2@@__crt_stdio_output@@AEAA_NXZ 00000001800438f0 f i libucrtd:output.obj
 0001:00042940       ?state_case_percent@?$output_processor@_WV?$string_output_adapter@_W@__crt_stdio_output@@V?$standard_base@_WV?$string_output_adapter@_W@__crt_stdio_output@@@2@@__crt_stdio_output@@AEAA_NXZ 0000000180043940 f i libucrtd:output.obj
 0001:00042990       ?state_case_precision@?$output_processor@DV?$stream_output_adapter@D@__crt_stdio_output@@V?$format_validation_base@DV?$stream_output_adapter@D@__crt_stdio_output@@@2@@__crt_stdio_output@@AEAA_NXZ 0000000180043990 f i libucrtd:output.obj
 0001:00042a10       ?state_case_precision@?$output_processor@DV?$stream_output_adapter@D@__crt_stdio_output@@V?$positional_parameter_base@DV?$stream_output_adapter@D@__crt_stdio_output@@@2@@__crt_stdio_output@@AEAA_NXZ 0000000180043a10 f i libucrtd:output.obj
 0001:00042a90       ?state_case_precision@?$output_processor@DV?$stream_output_adapter@D@__crt_stdio_output@@V?$standard_base@DV?$stream_output_adapter@D@__crt_stdio_output@@@2@@__crt_stdio_output@@AEAA_NXZ 0000000180043a90 f i libucrtd:output.obj
 0001:00042b10       ?state_case_precision@?$output_processor@DV?$string_output_adapter@D@__crt_stdio_output@@V?$format_validation_base@DV?$string_output_adapter@D@__crt_stdio_output@@@2@@__crt_stdio_output@@AEAA_NXZ 0000000180043b10 f i libucrtd:output.obj
 0001:00042b90       ?state_case_precision@?$output_processor@DV?$string_output_adapter@D@__crt_stdio_output@@V?$positional_parameter_base@DV?$string_output_adapter@D@__crt_stdio_output@@@2@@__crt_stdio_output@@AEAA_NXZ 0000000180043b90 f i libucrtd:output.obj
 0001:00042c10       ?state_case_precision@?$output_processor@DV?$string_output_adapter@D@__crt_stdio_output@@V?$standard_base@DV?$string_output_adapter@D@__crt_stdio_output@@@2@@__crt_stdio_output@@AEAA_NXZ 0000000180043c10 f i libucrtd:output.obj
 0001:00042c90       ?state_case_precision@?$output_processor@_WV?$stream_output_adapter@_W@__crt_stdio_output@@V?$format_validation_base@_WV?$stream_output_adapter@_W@__crt_stdio_output@@@2@@__crt_stdio_output@@AEAA_NXZ 0000000180043c90 f i libucrtd:output.obj
 0001:00042d10       ?state_case_precision@?$output_processor@_WV?$stream_output_adapter@_W@__crt_stdio_output@@V?$positional_parameter_base@_WV?$stream_output_adapter@_W@__crt_stdio_output@@@2@@__crt_stdio_output@@AEAA_NXZ 0000000180043d10 f i libucrtd:output.obj
 0001:00042d90       ?state_case_precision@?$output_processor@_WV?$stream_output_adapter@_W@__crt_stdio_output@@V?$standard_base@_WV?$stream_output_adapter@_W@__crt_stdio_output@@@2@@__crt_stdio_output@@AEAA_NXZ 0000000180043d90 f i libucrtd:output.obj
 0001:00042e10       ?state_case_precision@?$output_processor@_WV?$string_output_adapter@_W@__crt_stdio_output@@V?$format_validation_base@_WV?$string_output_adapter@_W@__crt_stdio_output@@@2@@__crt_stdio_output@@AEAA_NXZ 0000000180043e10 f i libucrtd:output.obj
 0001:00042e90       ?state_case_precision@?$output_processor@_WV?$string_output_adapter@_W@__crt_stdio_output@@V?$positional_parameter_base@_WV?$string_output_adapter@_W@__crt_stdio_output@@@2@@__crt_stdio_output@@AEAA_NXZ 0000000180043e90 f i libucrtd:output.obj
 0001:00042f10       ?state_case_precision@?$output_processor@_WV?$string_output_adapter@_W@__crt_stdio_output@@V?$standard_base@_WV?$string_output_adapter@_W@__crt_stdio_output@@@2@@__crt_stdio_output@@AEAA_NXZ 0000000180043f10 f i libucrtd:output.obj
 0001:00042f90       ?state_case_size@?$output_processor@DV?$stream_output_adapter@D@__crt_stdio_output@@V?$format_validation_base@DV?$stream_output_adapter@D@__crt_stdio_output@@@2@@__crt_stdio_output@@AEAA_NXZ 0000000180043f90 f i libucrtd:output.obj
 0001:00043410       ?state_case_size@?$output_processor@DV?$stream_output_adapter@D@__crt_stdio_output@@V?$positional_parameter_base@DV?$stream_output_adapter@D@__crt_stdio_output@@@2@@__crt_stdio_output@@AEAA_NXZ 0000000180044410 f i libucrtd:output.obj
 0001:00043890       ?state_case_size@?$output_processor@DV?$stream_output_adapter@D@__crt_stdio_output@@V?$standard_base@DV?$stream_output_adapter@D@__crt_stdio_output@@@2@@__crt_stdio_output@@AEAA_NXZ 0000000180044890 f i libucrtd:output.obj
 0001:00043d10       ?state_case_size@?$output_processor@DV?$string_output_adapter@D@__crt_stdio_output@@V?$format_validation_base@DV?$string_output_adapter@D@__crt_stdio_output@@@2@@__crt_stdio_output@@AEAA_NXZ 0000000180044d10 f i libucrtd:output.obj
 0001:00044190       ?state_case_size@?$output_processor@DV?$string_output_adapter@D@__crt_stdio_output@@V?$positional_parameter_base@DV?$string_output_adapter@D@__crt_stdio_output@@@2@@__crt_stdio_output@@AEAA_NXZ 0000000180045190 f i libucrtd:output.obj
 0001:00044610       ?state_case_size@?$output_processor@DV?$string_output_adapter@D@__crt_stdio_output@@V?$standard_base@DV?$string_output_adapter@D@__crt_stdio_output@@@2@@__crt_stdio_output@@AEAA_NXZ 0000000180045610 f i libucrtd:output.obj
 0001:00044a90       ?state_case_size@?$output_processor@_WV?$stream_output_adapter@_W@__crt_stdio_output@@V?$format_validation_base@_WV?$stream_output_adapter@_W@__crt_stdio_output@@@2@@__crt_stdio_output@@AEAA_NXZ 0000000180045a90 f i libucrtd:output.obj
 0001:00044f10       ?state_case_size@?$output_processor@_WV?$stream_output_adapter@_W@__crt_stdio_output@@V?$positional_parameter_base@_WV?$stream_output_adapter@_W@__crt_stdio_output@@@2@@__crt_stdio_output@@AEAA_NXZ 0000000180045f10 f i libucrtd:output.obj
 0001:00045390       ?state_case_size@?$output_processor@_WV?$stream_output_adapter@_W@__crt_stdio_output@@V?$standard_base@_WV?$stream_output_adapter@_W@__crt_stdio_output@@@2@@__crt_stdio_output@@AEAA_NXZ 0000000180046390 f i libucrtd:output.obj
 0001:00045810       ?state_case_size@?$output_processor@_WV?$string_output_adapter@_W@__crt_stdio_output@@V?$format_validation_base@_WV?$string_output_adapter@_W@__crt_stdio_output@@@2@@__crt_stdio_output@@AEAA_NXZ 0000000180046810 f i libucrtd:output.obj
 0001:00045c90       ?state_case_size@?$output_processor@_WV?$string_output_adapter@_W@__crt_stdio_output@@V?$positional_parameter_base@_WV?$string_output_adapter@_W@__crt_stdio_output@@@2@@__crt_stdio_output@@AEAA_NXZ 0000000180046c90 f i libucrtd:output.obj
 0001:00046110       ?state_case_size@?$output_processor@_WV?$string_output_adapter@_W@__crt_stdio_output@@V?$standard_base@_WV?$string_output_adapter@_W@__crt_stdio_output@@@2@@__crt_stdio_output@@AEAA_NXZ 0000000180047110 f i libucrtd:output.obj
 0001:00046590       ?state_case_type@?$output_processor@DV?$stream_output_adapter@D@__crt_stdio_output@@V?$format_validation_base@DV?$stream_output_adapter@D@__crt_stdio_output@@@2@@__crt_stdio_output@@AEAA_NXZ 0000000180047590 f i libucrtd:output.obj
 0001:00046a20       ?state_case_type@?$output_processor@DV?$stream_output_adapter@D@__crt_stdio_output@@V?$positional_parameter_base@DV?$stream_output_adapter@D@__crt_stdio_output@@@2@@__crt_stdio_output@@AEAA_NXZ 0000000180047a20 f i libucrtd:output.obj
 0001:00046eb0       ?state_case_type@?$output_processor@DV?$stream_output_adapter@D@__crt_stdio_output@@V?$standard_base@DV?$stream_output_adapter@D@__crt_stdio_output@@@2@@__crt_stdio_output@@AEAA_NXZ 0000000180047eb0 f i libucrtd:output.obj
 0001:00047340       ?state_case_type@?$output_processor@DV?$string_output_adapter@D@__crt_stdio_output@@V?$format_validation_base@DV?$string_output_adapter@D@__crt_stdio_output@@@2@@__crt_stdio_output@@AEAA_NXZ 0000000180048340 f i libucrtd:output.obj
 0001:000477d0       ?state_case_type@?$output_processor@DV?$string_output_adapter@D@__crt_stdio_output@@V?$positional_parameter_base@DV?$string_output_adapter@D@__crt_stdio_output@@@2@@__crt_stdio_output@@AEAA_NXZ 00000001800487d0 f i libucrtd:output.obj
 0001:00047c60       ?state_case_type@?$output_processor@DV?$string_output_adapter@D@__crt_stdio_output@@V?$standard_base@DV?$string_output_adapter@D@__crt_stdio_output@@@2@@__crt_stdio_output@@AEAA_NXZ 0000000180048c60 f i libucrtd:output.obj
 0001:000480f0       ?state_case_type@?$output_processor@_WV?$stream_output_adapter@_W@__crt_stdio_output@@V?$format_validation_base@_WV?$stream_output_adapter@_W@__crt_stdio_output@@@2@@__crt_stdio_output@@AEAA_NXZ 00000001800490f0 f i libucrtd:output.obj
 0001:000485c0       ?state_case_type@?$output_processor@_WV?$stream_output_adapter@_W@__crt_stdio_output@@V?$positional_parameter_base@_WV?$stream_output_adapter@_W@__crt_stdio_output@@@2@@__crt_stdio_output@@AEAA_NXZ 00000001800495c0 f i libucrtd:output.obj
 0001:00048a90       ?state_case_type@?$output_processor@_WV?$stream_output_adapter@_W@__crt_stdio_output@@V?$standard_base@_WV?$stream_output_adapter@_W@__crt_stdio_output@@@2@@__crt_stdio_output@@AEAA_NXZ 0000000180049a90 f i libucrtd:output.obj
 0001:00048f60       ?state_case_type@?$output_processor@_WV?$string_output_adapter@_W@__crt_stdio_output@@V?$format_validation_base@_WV?$string_output_adapter@_W@__crt_stdio_output@@@2@@__crt_stdio_output@@AEAA_NXZ 0000000180049f60 f i libucrtd:output.obj
 0001:00049430       ?state_case_type@?$output_processor@_WV?$string_output_adapter@_W@__crt_stdio_output@@V?$positional_parameter_base@_WV?$string_output_adapter@_W@__crt_stdio_output@@@2@@__crt_stdio_output@@AEAA_NXZ 000000018004a430 f i libucrtd:output.obj
 0001:00049900       ?state_case_type@?$output_processor@_WV?$string_output_adapter@_W@__crt_stdio_output@@V?$standard_base@_WV?$string_output_adapter@_W@__crt_stdio_output@@@2@@__crt_stdio_output@@AEAA_NXZ 000000018004a900 f i libucrtd:output.obj
 0001:00049dd0       ?state_case_width@?$output_processor@DV?$stream_output_adapter@D@__crt_stdio_output@@V?$format_validation_base@DV?$stream_output_adapter@D@__crt_stdio_output@@@2@@__crt_stdio_output@@AEAA_NXZ 000000018004add0 f i libucrtd:output.obj
 0001:00049e60       ?state_case_width@?$output_processor@DV?$stream_output_adapter@D@__crt_stdio_output@@V?$positional_parameter_base@DV?$stream_output_adapter@D@__crt_stdio_output@@@2@@__crt_stdio_output@@AEAA_NXZ 000000018004ae60 f i libucrtd:output.obj
 0001:00049ef0       ?state_case_width@?$output_processor@DV?$stream_output_adapter@D@__crt_stdio_output@@V?$standard_base@DV?$stream_output_adapter@D@__crt_stdio_output@@@2@@__crt_stdio_output@@AEAA_NXZ 000000018004aef0 f i libucrtd:output.obj
 0001:00049f80       ?state_case_width@?$output_processor@DV?$string_output_adapter@D@__crt_stdio_output@@V?$format_validation_base@DV?$string_output_adapter@D@__crt_stdio_output@@@2@@__crt_stdio_output@@AEAA_NXZ 000000018004af80 f i libucrtd:output.obj
 0001:0004a010       ?state_case_width@?$output_processor@DV?$string_output_adapter@D@__crt_stdio_output@@V?$positional_parameter_base@DV?$string_output_adapter@D@__crt_stdio_output@@@2@@__crt_stdio_output@@AEAA_NXZ 000000018004b010 f i libucrtd:output.obj
 0001:0004a0a0       ?state_case_width@?$output_processor@DV?$string_output_adapter@D@__crt_stdio_output@@V?$standard_base@DV?$string_output_adapter@D@__crt_stdio_output@@@2@@__crt_stdio_output@@AEAA_NXZ 000000018004b0a0 f i libucrtd:output.obj
 0001:0004a130       ?state_case_width@?$output_processor@_WV?$stream_output_adapter@_W@__crt_stdio_output@@V?$format_validation_base@_WV?$stream_output_adapter@_W@__crt_stdio_output@@@2@@__crt_stdio_output@@AEAA_NXZ 000000018004b130 f i libucrtd:output.obj
 0001:0004a1c0       ?state_case_width@?$output_processor@_WV?$stream_output_adapter@_W@__crt_stdio_output@@V?$positional_parameter_base@_WV?$stream_output_adapter@_W@__crt_stdio_output@@@2@@__crt_stdio_output@@AEAA_NXZ 000000018004b1c0 f i libucrtd:output.obj
 0001:0004a250       ?state_case_width@?$output_processor@_WV?$stream_output_adapter@_W@__crt_stdio_output@@V?$standard_base@_WV?$stream_output_adapter@_W@__crt_stdio_output@@@2@@__crt_stdio_output@@AEAA_NXZ 000000018004b250 f i libucrtd:output.obj
 0001:0004a2e0       ?state_case_width@?$output_processor@_WV?$string_output_adapter@_W@__crt_stdio_output@@V?$format_validation_base@_WV?$string_output_adapter@_W@__crt_stdio_output@@@2@@__crt_stdio_output@@AEAA_NXZ 000000018004b2e0 f i libucrtd:output.obj
 0001:0004a370       ?state_case_width@?$output_processor@_WV?$string_output_adapter@_W@__crt_stdio_output@@V?$positional_parameter_base@_WV?$string_output_adapter@_W@__crt_stdio_output@@@2@@__crt_stdio_output@@AEAA_NXZ 000000018004b370 f i libucrtd:output.obj
 0001:0004a400       ?state_case_width@?$output_processor@_WV?$string_output_adapter@_W@__crt_stdio_output@@V?$standard_base@_WV?$string_output_adapter@_W@__crt_stdio_output@@@2@@__crt_stdio_output@@AEAA_NXZ 000000018004b400 f i libucrtd:output.obj
 0001:0004a490       ?state_count@?$format_validation_base@DV?$stream_output_adapter@D@__crt_stdio_output@@@__crt_stdio_output@@KAIXZ 000000018004b490 f i libucrtd:output.obj
 0001:0004a4a0       ?state_count@?$format_validation_base@DV?$string_output_adapter@D@__crt_stdio_output@@@__crt_stdio_output@@KAIXZ 000000018004b4a0 f i libucrtd:output.obj
 0001:0004a4b0       ?state_count@?$format_validation_base@_WV?$stream_output_adapter@_W@__crt_stdio_output@@@__crt_stdio_output@@KAIXZ 000000018004b4b0 f i libucrtd:output.obj
 0001:0004a4c0       ?state_count@?$format_validation_base@_WV?$string_output_adapter@_W@__crt_stdio_output@@@__crt_stdio_output@@KAIXZ 000000018004b4c0 f i libucrtd:output.obj
 0001:0004a4d0       ?state_count@?$standard_base@DV?$stream_output_adapter@D@__crt_stdio_output@@@__crt_stdio_output@@KAIXZ 000000018004b4d0 f i libucrtd:output.obj
 0001:0004a4e0       ?state_count@?$standard_base@DV?$string_output_adapter@D@__crt_stdio_output@@@__crt_stdio_output@@KAIXZ 000000018004b4e0 f i libucrtd:output.obj
 0001:0004a4f0       ?state_count@?$standard_base@_WV?$stream_output_adapter@_W@__crt_stdio_output@@@__crt_stdio_output@@KAIXZ 000000018004b4f0 f i libucrtd:output.obj
 0001:0004a500       ?state_count@?$standard_base@_WV?$string_output_adapter@_W@__crt_stdio_output@@@__crt_stdio_output@@KAIXZ 000000018004b500 f i libucrtd:output.obj
 0001:0004a510       ?state_transition_table@?$format_validation_base@DV?$stream_output_adapter@D@__crt_stdio_output@@@__crt_stdio_output@@KAPEBEXZ 000000018004b510 f i libucrtd:output.obj
 0001:0004a520       ?state_transition_table@?$format_validation_base@DV?$string_output_adapter@D@__crt_stdio_output@@@__crt_stdio_output@@KAPEBEXZ 000000018004b520 f i libucrtd:output.obj
 0001:0004a530       ?state_transition_table@?$format_validation_base@_WV?$stream_output_adapter@_W@__crt_stdio_output@@@__crt_stdio_output@@KAPEBEXZ 000000018004b530 f i libucrtd:output.obj
 0001:0004a540       ?state_transition_table@?$format_validation_base@_WV?$string_output_adapter@_W@__crt_stdio_output@@@__crt_stdio_output@@KAPEBEXZ 000000018004b540 f i libucrtd:output.obj
 0001:0004a550       ?state_transition_table@?$standard_base@DV?$stream_output_adapter@D@__crt_stdio_output@@@__crt_stdio_output@@KAPEBEXZ 000000018004b550 f i libucrtd:output.obj
 0001:0004a560       ?state_transition_table@?$standard_base@DV?$string_output_adapter@D@__crt_stdio_output@@@__crt_stdio_output@@KAPEBEXZ 000000018004b560 f i libucrtd:output.obj
 0001:0004a570       ?state_transition_table@?$standard_base@_WV?$stream_output_adapter@_W@__crt_stdio_output@@@__crt_stdio_output@@KAPEBEXZ 000000018004b570 f i libucrtd:output.obj
 0001:0004a580       ?state_transition_table@?$standard_base@_WV?$string_output_adapter@_W@__crt_stdio_output@@@__crt_stdio_output@@KAPEBEXZ 000000018004b580 f i libucrtd:output.obj
 0001:0004a590       ?to_integer_size@__crt_stdio_output@@YA_KW4length_modifier@1@@Z 000000018004b590 f i libucrtd:output.obj
 0001:0004a640       ?type_case_X@?$output_processor@DV?$stream_output_adapter@D@__crt_stdio_output@@V?$format_validation_base@DV?$stream_output_adapter@D@__crt_stdio_output@@@2@@__crt_stdio_output@@AEAA_NXZ 000000018004b640 f i libucrtd:output.obj
 0001:0004a660       ?type_case_X@?$output_processor@DV?$stream_output_adapter@D@__crt_stdio_output@@V?$positional_parameter_base@DV?$stream_output_adapter@D@__crt_stdio_output@@@2@@__crt_stdio_output@@AEAA_NXZ 000000018004b660 f i libucrtd:output.obj
 0001:0004a680       ?type_case_X@?$output_processor@DV?$stream_output_adapter@D@__crt_stdio_output@@V?$standard_base@DV?$stream_output_adapter@D@__crt_stdio_output@@@2@@__crt_stdio_output@@AEAA_NXZ 000000018004b680 f i libucrtd:output.obj
 0001:0004a6a0       ?type_case_X@?$output_processor@DV?$string_output_adapter@D@__crt_stdio_output@@V?$format_validation_base@DV?$string_output_adapter@D@__crt_stdio_output@@@2@@__crt_stdio_output@@AEAA_NXZ 000000018004b6a0 f i libucrtd:output.obj
 0001:0004a6c0       ?type_case_X@?$output_processor@DV?$string_output_adapter@D@__crt_stdio_output@@V?$positional_parameter_base@DV?$string_output_adapter@D@__crt_stdio_output@@@2@@__crt_stdio_output@@AEAA_NXZ 000000018004b6c0 f i libucrtd:output.obj
 0001:0004a6e0       ?type_case_X@?$output_processor@DV?$string_output_adapter@D@__crt_stdio_output@@V?$standard_base@DV?$string_output_adapter@D@__crt_stdio_output@@@2@@__crt_stdio_output@@AEAA_NXZ 000000018004b6e0 f i libucrtd:output.obj
 0001:0004a700       ?type_case_X@?$output_processor@_WV?$stream_output_adapter@_W@__crt_stdio_output@@V?$format_validation_base@_WV?$stream_output_adapter@_W@__crt_stdio_output@@@2@@__crt_stdio_output@@AEAA_NXZ 000000018004b700 f i libucrtd:output.obj
 0001:0004a720       ?type_case_X@?$output_processor@_WV?$stream_output_adapter@_W@__crt_stdio_output@@V?$positional_parameter_base@_WV?$stream_output_adapter@_W@__crt_stdio_output@@@2@@__crt_stdio_output@@AEAA_NXZ 000000018004b720 f i libucrtd:output.obj
 0001:0004a740       ?type_case_X@?$output_processor@_WV?$stream_output_adapter@_W@__crt_stdio_output@@V?$standard_base@_WV?$stream_output_adapter@_W@__crt_stdio_output@@@2@@__crt_stdio_output@@AEAA_NXZ 000000018004b740 f i libucrtd:output.obj
 0001:0004a760       ?type_case_X@?$output_processor@_WV?$string_output_adapter@_W@__crt_stdio_output@@V?$format_validation_base@_WV?$string_output_adapter@_W@__crt_stdio_output@@@2@@__crt_stdio_output@@AEAA_NXZ 000000018004b760 f i libucrtd:output.obj
 0001:0004a780       ?type_case_X@?$output_processor@_WV?$string_output_adapter@_W@__crt_stdio_output@@V?$positional_parameter_base@_WV?$string_output_adapter@_W@__crt_stdio_output@@@2@@__crt_stdio_output@@AEAA_NXZ 000000018004b780 f i libucrtd:output.obj
 0001:0004a7a0       ?type_case_X@?$output_processor@_WV?$string_output_adapter@_W@__crt_stdio_output@@V?$standard_base@_WV?$string_output_adapter@_W@__crt_stdio_output@@@2@@__crt_stdio_output@@AEAA_NXZ 000000018004b7a0 f i libucrtd:output.obj
 0001:0004a7c0       ?type_case_Z@?$output_processor@DV?$stream_output_adapter@D@__crt_stdio_output@@V?$format_validation_base@DV?$stream_output_adapter@D@__crt_stdio_output@@@2@@__crt_stdio_output@@AEAA_NXZ 000000018004b7c0 f i libucrtd:output.obj
 0001:0004a8e0       ?type_case_Z@?$output_processor@DV?$stream_output_adapter@D@__crt_stdio_output@@V?$positional_parameter_base@DV?$stream_output_adapter@D@__crt_stdio_output@@@2@@__crt_stdio_output@@AEAA_NXZ 000000018004b8e0 f i libucrtd:output.obj
 0001:0004aa00       ?type_case_Z@?$output_processor@DV?$stream_output_adapter@D@__crt_stdio_output@@V?$standard_base@DV?$stream_output_adapter@D@__crt_stdio_output@@@2@@__crt_stdio_output@@AEAA_NXZ 000000018004ba00 f i libucrtd:output.obj
 0001:0004ab20       ?type_case_Z@?$output_processor@DV?$string_output_adapter@D@__crt_stdio_output@@V?$format_validation_base@DV?$string_output_adapter@D@__crt_stdio_output@@@2@@__crt_stdio_output@@AEAA_NXZ 000000018004bb20 f i libucrtd:output.obj
 0001:0004ac40       ?type_case_Z@?$output_processor@DV?$string_output_adapter@D@__crt_stdio_output@@V?$positional_parameter_base@DV?$string_output_adapter@D@__crt_stdio_output@@@2@@__crt_stdio_output@@AEAA_NXZ 000000018004bc40 f i libucrtd:output.obj
 0001:0004ad60       ?type_case_Z@?$output_processor@DV?$string_output_adapter@D@__crt_stdio_output@@V?$standard_base@DV?$string_output_adapter@D@__crt_stdio_output@@@2@@__crt_stdio_output@@AEAA_NXZ 000000018004bd60 f i libucrtd:output.obj
 0001:0004ae80       ?type_case_Z@?$output_processor@_WV?$stream_output_adapter@_W@__crt_stdio_output@@V?$format_validation_base@_WV?$stream_output_adapter@_W@__crt_stdio_output@@@2@@__crt_stdio_output@@AEAA_NXZ 000000018004be80 f i libucrtd:output.obj
 0001:0004afa0       ?type_case_Z@?$output_processor@_WV?$stream_output_adapter@_W@__crt_stdio_output@@V?$positional_parameter_base@_WV?$stream_output_adapter@_W@__crt_stdio_output@@@2@@__crt_stdio_output@@AEAA_NXZ 000000018004bfa0 f i libucrtd:output.obj
 0001:0004b0c0       ?type_case_Z@?$output_processor@_WV?$stream_output_adapter@_W@__crt_stdio_output@@V?$standard_base@_WV?$stream_output_adapter@_W@__crt_stdio_output@@@2@@__crt_stdio_output@@AEAA_NXZ 000000018004c0c0 f i libucrtd:output.obj
 0001:0004b1e0       ?type_case_Z@?$output_processor@_WV?$string_output_adapter@_W@__crt_stdio_output@@V?$format_validation_base@_WV?$string_output_adapter@_W@__crt_stdio_output@@@2@@__crt_stdio_output@@AEAA_NXZ 000000018004c1e0 f i libucrtd:output.obj
 0001:0004b300       ?type_case_Z@?$output_processor@_WV?$string_output_adapter@_W@__crt_stdio_output@@V?$positional_parameter_base@_WV?$string_output_adapter@_W@__crt_stdio_output@@@2@@__crt_stdio_output@@AEAA_NXZ 000000018004c300 f i libucrtd:output.obj
 0001:0004b420       ?type_case_Z@?$output_processor@_WV?$string_output_adapter@_W@__crt_stdio_output@@V?$standard_base@_WV?$string_output_adapter@_W@__crt_stdio_output@@@2@@__crt_stdio_output@@AEAA_NXZ 000000018004c420 f i libucrtd:output.obj
 0001:0004b540       ?type_case_a@?$output_processor@DV?$stream_output_adapter@D@__crt_stdio_output@@V?$format_validation_base@DV?$stream_output_adapter@D@__crt_stdio_output@@@2@@__crt_stdio_output@@AEAA_NXZ 000000018004c540 f i libucrtd:output.obj
 0001:0004b8f0       ?type_case_a@?$output_processor@DV?$stream_output_adapter@D@__crt_stdio_output@@V?$positional_parameter_base@DV?$stream_output_adapter@D@__crt_stdio_output@@@2@@__crt_stdio_output@@AEAA_NXZ 000000018004c8f0 f i libucrtd:output.obj
 0001:0004bca0       ?type_case_a@?$output_processor@DV?$stream_output_adapter@D@__crt_stdio_output@@V?$standard_base@DV?$stream_output_adapter@D@__crt_stdio_output@@@2@@__crt_stdio_output@@AEAA_NXZ 000000018004cca0 f i libucrtd:output.obj
 0001:0004c050       ?type_case_a@?$output_processor@DV?$string_output_adapter@D@__crt_stdio_output@@V?$format_validation_base@DV?$string_output_adapter@D@__crt_stdio_output@@@2@@__crt_stdio_output@@AEAA_NXZ 000000018004d050 f i libucrtd:output.obj
 0001:0004c400       ?type_case_a@?$output_processor@DV?$string_output_adapter@D@__crt_stdio_output@@V?$positional_parameter_base@DV?$string_output_adapter@D@__crt_stdio_output@@@2@@__crt_stdio_output@@AEAA_NXZ 000000018004d400 f i libucrtd:output.obj
 0001:0004c7b0       ?type_case_a@?$output_processor@DV?$string_output_adapter@D@__crt_stdio_output@@V?$standard_base@DV?$string_output_adapter@D@__crt_stdio_output@@@2@@__crt_stdio_output@@AEAA_NXZ 000000018004d7b0 f i libucrtd:output.obj
 0001:0004cb60       ?type_case_a@?$output_processor@_WV?$stream_output_adapter@_W@__crt_stdio_output@@V?$format_validation_base@_WV?$stream_output_adapter@_W@__crt_stdio_output@@@2@@__crt_stdio_output@@AEAA_NXZ 000000018004db60 f i libucrtd:output.obj
 0001:0004cf10       ?type_case_a@?$output_processor@_WV?$stream_output_adapter@_W@__crt_stdio_output@@V?$positional_parameter_base@_WV?$stream_output_adapter@_W@__crt_stdio_output@@@2@@__crt_stdio_output@@AEAA_NXZ 000000018004df10 f i libucrtd:output.obj
 0001:0004d2c0       ?type_case_a@?$output_processor@_WV?$stream_output_adapter@_W@__crt_stdio_output@@V?$standard_base@_WV?$stream_output_adapter@_W@__crt_stdio_output@@@2@@__crt_stdio_output@@AEAA_NXZ 000000018004e2c0 f i libucrtd:output.obj
 0001:0004d670       ?type_case_a@?$output_processor@_WV?$string_output_adapter@_W@__crt_stdio_output@@V?$format_validation_base@_WV?$string_output_adapter@_W@__crt_stdio_output@@@2@@__crt_stdio_output@@AEAA_NXZ 000000018004e670 f i libucrtd:output.obj
 0001:0004da20       ?type_case_a@?$output_processor@_WV?$string_output_adapter@_W@__crt_stdio_output@@V?$positional_parameter_base@_WV?$string_output_adapter@_W@__crt_stdio_output@@@2@@__crt_stdio_output@@AEAA_NXZ 000000018004ea20 f i libucrtd:output.obj
 0001:0004ddd0       ?type_case_a@?$output_processor@_WV?$string_output_adapter@_W@__crt_stdio_output@@V?$standard_base@_WV?$string_output_adapter@_W@__crt_stdio_output@@@2@@__crt_stdio_output@@AEAA_NXZ 000000018004edd0 f i libucrtd:output.obj
 0001:0004e180       ?type_case_c@?$output_processor@DV?$stream_output_adapter@D@__crt_stdio_output@@V?$format_validation_base@DV?$stream_output_adapter@D@__crt_stdio_output@@@2@@__crt_stdio_output@@AEAA_NXZ 000000018004f180 f i libucrtd:output.obj
 0001:0004e1a0       ?type_case_c@?$output_processor@DV?$stream_output_adapter@D@__crt_stdio_output@@V?$positional_parameter_base@DV?$stream_output_adapter@D@__crt_stdio_output@@@2@@__crt_stdio_output@@AEAA_NXZ 000000018004f1a0 f i libucrtd:output.obj
 0001:0004e1c0       ?type_case_c@?$output_processor@DV?$stream_output_adapter@D@__crt_stdio_output@@V?$standard_base@DV?$stream_output_adapter@D@__crt_stdio_output@@@2@@__crt_stdio_output@@AEAA_NXZ 000000018004f1c0 f i libucrtd:output.obj
 0001:0004e1e0       ?type_case_c@?$output_processor@DV?$string_output_adapter@D@__crt_stdio_output@@V?$format_validation_base@DV?$string_output_adapter@D@__crt_stdio_output@@@2@@__crt_stdio_output@@AEAA_NXZ 000000018004f1e0 f i libucrtd:output.obj
 0001:0004e200       ?type_case_c@?$output_processor@DV?$string_output_adapter@D@__crt_stdio_output@@V?$positional_parameter_base@DV?$string_output_adapter@D@__crt_stdio_output@@@2@@__crt_stdio_output@@AEAA_NXZ 000000018004f200 f i libucrtd:output.obj
 0001:0004e220       ?type_case_c@?$output_processor@DV?$string_output_adapter@D@__crt_stdio_output@@V?$standard_base@DV?$string_output_adapter@D@__crt_stdio_output@@@2@@__crt_stdio_output@@AEAA_NXZ 000000018004f220 f i libucrtd:output.obj
 0001:0004e240       ?type_case_c@?$output_processor@_WV?$stream_output_adapter@_W@__crt_stdio_output@@V?$format_validation_base@_WV?$stream_output_adapter@_W@__crt_stdio_output@@@2@@__crt_stdio_output@@AEAA_NXZ 000000018004f240 f i libucrtd:output.obj
 0001:0004e260       ?type_case_c@?$output_processor@_WV?$stream_output_adapter@_W@__crt_stdio_output@@V?$positional_parameter_base@_WV?$stream_output_adapter@_W@__crt_stdio_output@@@2@@__crt_stdio_output@@AEAA_NXZ 000000018004f260 f i libucrtd:output.obj
 0001:0004e280       ?type_case_c@?$output_processor@_WV?$stream_output_adapter@_W@__crt_stdio_output@@V?$standard_base@_WV?$stream_output_adapter@_W@__crt_stdio_output@@@2@@__crt_stdio_output@@AEAA_NXZ 000000018004f280 f i libucrtd:output.obj
 0001:0004e2a0       ?type_case_c@?$output_processor@_WV?$string_output_adapter@_W@__crt_stdio_output@@V?$format_validation_base@_WV?$string_output_adapter@_W@__crt_stdio_output@@@2@@__crt_stdio_output@@AEAA_NXZ 000000018004f2a0 f i libucrtd:output.obj
 0001:0004e2c0       ?type_case_c@?$output_processor@_WV?$string_output_adapter@_W@__crt_stdio_output@@V?$positional_parameter_base@_WV?$string_output_adapter@_W@__crt_stdio_output@@@2@@__crt_stdio_output@@AEAA_NXZ 000000018004f2c0 f i libucrtd:output.obj
 0001:0004e2e0       ?type_case_c@?$output_processor@_WV?$string_output_adapter@_W@__crt_stdio_output@@V?$standard_base@_WV?$string_output_adapter@_W@__crt_stdio_output@@@2@@__crt_stdio_output@@AEAA_NXZ 000000018004f2e0 f i libucrtd:output.obj
 0001:0004e300       ?type_case_c_tchar@?$output_processor@DV?$stream_output_adapter@D@__crt_stdio_output@@V?$format_validation_base@DV?$stream_output_adapter@D@__crt_stdio_output@@@2@@__crt_stdio_output@@AEAA_ND@Z 000000018004f300 f i libucrtd:output.obj
 0001:0004e450       ?type_case_c_tchar@?$output_processor@DV?$stream_output_adapter@D@__crt_stdio_output@@V?$positional_parameter_base@DV?$stream_output_adapter@D@__crt_stdio_output@@@2@@__crt_stdio_output@@AEAA_ND@Z 000000018004f450 f i libucrtd:output.obj
 0001:0004e5a0       ?type_case_c_tchar@?$output_processor@DV?$stream_output_adapter@D@__crt_stdio_output@@V?$standard_base@DV?$stream_output_adapter@D@__crt_stdio_output@@@2@@__crt_stdio_output@@AEAA_ND@Z 000000018004f5a0 f i libucrtd:output.obj
 0001:0004e6f0       ?type_case_c_tchar@?$output_processor@DV?$string_output_adapter@D@__crt_stdio_output@@V?$format_validation_base@DV?$string_output_adapter@D@__crt_stdio_output@@@2@@__crt_stdio_output@@AEAA_ND@Z 000000018004f6f0 f i libucrtd:output.obj
 0001:0004e840       ?type_case_c_tchar@?$output_processor@DV?$string_output_adapter@D@__crt_stdio_output@@V?$positional_parameter_base@DV?$string_output_adapter@D@__crt_stdio_output@@@2@@__crt_stdio_output@@AEAA_ND@Z 000000018004f840 f i libucrtd:output.obj
 0001:0004e990       ?type_case_c_tchar@?$output_processor@DV?$string_output_adapter@D@__crt_stdio_output@@V?$standard_base@DV?$string_output_adapter@D@__crt_stdio_output@@@2@@__crt_stdio_output@@AEAA_ND@Z 000000018004f990 f i libucrtd:output.obj
 0001:0004eae0       ?type_case_c_tchar@?$output_processor@_WV?$stream_output_adapter@_W@__crt_stdio_output@@V?$format_validation_base@_WV?$stream_output_adapter@_W@__crt_stdio_output@@@2@@__crt_stdio_output@@AEAA_N_W@Z 000000018004fae0 f i libucrtd:output.obj
 0001:0004ec10       ?type_case_c_tchar@?$output_processor@_WV?$stream_output_adapter@_W@__crt_stdio_output@@V?$positional_parameter_base@_WV?$stream_output_adapter@_W@__crt_stdio_output@@@2@@__crt_stdio_output@@AEAA_N_W@Z 000000018004fc10 f i libucrtd:output.obj
 0001:0004ed40       ?type_case_c_tchar@?$output_processor@_WV?$stream_output_adapter@_W@__crt_stdio_output@@V?$standard_base@_WV?$stream_output_adapter@_W@__crt_stdio_output@@@2@@__crt_stdio_output@@AEAA_N_W@Z 000000018004fd40 f i libucrtd:output.obj
 0001:0004ee70       ?type_case_c_tchar@?$output_processor@_WV?$string_output_adapter@_W@__crt_stdio_output@@V?$format_validation_base@_WV?$string_output_adapter@_W@__crt_stdio_output@@@2@@__crt_stdio_output@@AEAA_N_W@Z 000000018004fe70 f i libucrtd:output.obj
 0001:0004efa0       ?type_case_c_tchar@?$output_processor@_WV?$string_output_adapter@_W@__crt_stdio_output@@V?$positional_parameter_base@_WV?$string_output_adapter@_W@__crt_stdio_output@@@2@@__crt_stdio_output@@AEAA_N_W@Z 000000018004ffa0 f i libucrtd:output.obj
 0001:0004f0d0       ?type_case_c_tchar@?$output_processor@_WV?$string_output_adapter@_W@__crt_stdio_output@@V?$standard_base@_WV?$string_output_adapter@_W@__crt_stdio_output@@@2@@__crt_stdio_output@@AEAA_N_W@Z 00000001800500d0 f i libucrtd:output.obj
 0001:0004f200       ?type_case_d@?$output_processor@DV?$stream_output_adapter@D@__crt_stdio_output@@V?$format_validation_base@DV?$stream_output_adapter@D@__crt_stdio_output@@@2@@__crt_stdio_output@@AEAA_NXZ 0000000180050200 f i libucrtd:output.obj
 0001:0004f230       ?type_case_d@?$output_processor@DV?$stream_output_adapter@D@__crt_stdio_output@@V?$positional_parameter_base@DV?$stream_output_adapter@D@__crt_stdio_output@@@2@@__crt_stdio_output@@AEAA_NXZ 0000000180050230 f i libucrtd:output.obj
 0001:0004f260       ?type_case_d@?$output_processor@DV?$stream_output_adapter@D@__crt_stdio_output@@V?$standard_base@DV?$stream_output_adapter@D@__crt_stdio_output@@@2@@__crt_stdio_output@@AEAA_NXZ 0000000180050260 f i libucrtd:output.obj
 0001:0004f290       ?type_case_d@?$output_processor@DV?$string_output_adapter@D@__crt_stdio_output@@V?$format_validation_base@DV?$string_output_adapter@D@__crt_stdio_output@@@2@@__crt_stdio_output@@AEAA_NXZ 0000000180050290 f i libucrtd:output.obj
 0001:0004f2c0       ?type_case_d@?$output_processor@DV?$string_output_adapter@D@__crt_stdio_output@@V?$positional_parameter_base@DV?$string_output_adapter@D@__crt_stdio_output@@@2@@__crt_stdio_output@@AEAA_NXZ 00000001800502c0 f i libucrtd:output.obj
 0001:0004f2f0       ?type_case_d@?$output_processor@DV?$string_output_adapter@D@__crt_stdio_output@@V?$standard_base@DV?$string_output_adapter@D@__crt_stdio_output@@@2@@__crt_stdio_output@@AEAA_NXZ 00000001800502f0 f i libucrtd:output.obj
 0001:0004f320       ?type_case_d@?$output_processor@_WV?$stream_output_adapter@_W@__crt_stdio_output@@V?$format_validation_base@_WV?$stream_output_adapter@_W@__crt_stdio_output@@@2@@__crt_stdio_output@@AEAA_NXZ 0000000180050320 f i libucrtd:output.obj
 0001:0004f350       ?type_case_d@?$output_processor@_WV?$stream_output_adapter@_W@__crt_stdio_output@@V?$positional_parameter_base@_WV?$stream_output_adapter@_W@__crt_stdio_output@@@2@@__crt_stdio_output@@AEAA_NXZ 0000000180050350 f i libucrtd:output.obj
 0001:0004f380       ?type_case_d@?$output_processor@_WV?$stream_output_adapter@_W@__crt_stdio_output@@V?$standard_base@_WV?$stream_output_adapter@_W@__crt_stdio_output@@@2@@__crt_stdio_output@@AEAA_NXZ 0000000180050380 f i libucrtd:output.obj
 0001:0004f3b0       ?type_case_d@?$output_processor@_WV?$string_output_adapter@_W@__crt_stdio_output@@V?$format_validation_base@_WV?$string_output_adapter@_W@__crt_stdio_output@@@2@@__crt_stdio_output@@AEAA_NXZ 00000001800503b0 f i libucrtd:output.obj
 0001:0004f3e0       ?type_case_d@?$output_processor@_WV?$string_output_adapter@_W@__crt_stdio_output@@V?$positional_parameter_base@_WV?$string_output_adapter@_W@__crt_stdio_output@@@2@@__crt_stdio_output@@AEAA_NXZ 00000001800503e0 f i libucrtd:output.obj
 0001:0004f410       ?type_case_d@?$output_processor@_WV?$string_output_adapter@_W@__crt_stdio_output@@V?$standard_base@_WV?$string_output_adapter@_W@__crt_stdio_output@@@2@@__crt_stdio_output@@AEAA_NXZ 0000000180050410 f i libucrtd:output.obj
 0001:0004f440       ?type_case_integer@?$output_processor@DV?$stream_output_adapter@D@__crt_stdio_output@@V?$format_validation_base@DV?$stream_output_adapter@D@__crt_stdio_output@@@2@@__crt_stdio_output@@AEAA_NI_N@Z 0000000180050440 f i libucrtd:output.obj
 0001:0004f870       ?type_case_integer@?$output_processor@DV?$stream_output_adapter@D@__crt_stdio_output@@V?$positional_parameter_base@DV?$stream_output_adapter@D@__crt_stdio_output@@@2@@__crt_stdio_output@@AEAA_NI_N@Z 0000000180050870 f i libucrtd:output.obj
 0001:0004fca0       ?type_case_integer@?$output_processor@DV?$stream_output_adapter@D@__crt_stdio_output@@V?$standard_base@DV?$stream_output_adapter@D@__crt_stdio_output@@@2@@__crt_stdio_output@@AEAA_NI_N@Z 0000000180050ca0 f i libucrtd:output.obj
 0001:000500d0       ?type_case_integer@?$output_processor@DV?$string_output_adapter@D@__crt_stdio_output@@V?$format_validation_base@DV?$string_output_adapter@D@__crt_stdio_output@@@2@@__crt_stdio_output@@AEAA_NI_N@Z 00000001800510d0 f i libucrtd:output.obj
 0001:00050500       ?type_case_integer@?$output_processor@DV?$string_output_adapter@D@__crt_stdio_output@@V?$positional_parameter_base@DV?$string_output_adapter@D@__crt_stdio_output@@@2@@__crt_stdio_output@@AEAA_NI_N@Z 0000000180051500 f i libucrtd:output.obj
 0001:00050930       ?type_case_integer@?$output_processor@DV?$string_output_adapter@D@__crt_stdio_output@@V?$standard_base@DV?$string_output_adapter@D@__crt_stdio_output@@@2@@__crt_stdio_output@@AEAA_NI_N@Z 0000000180051930 f i libucrtd:output.obj
 0001:00050d60       ?type_case_integer@?$output_processor@_WV?$stream_output_adapter@_W@__crt_stdio_output@@V?$format_validation_base@_WV?$stream_output_adapter@_W@__crt_stdio_output@@@2@@__crt_stdio_output@@AEAA_NI_N@Z 0000000180051d60 f i libucrtd:output.obj
 0001:00051190       ?type_case_integer@?$output_processor@_WV?$stream_output_adapter@_W@__crt_stdio_output@@V?$positional_parameter_base@_WV?$stream_output_adapter@_W@__crt_stdio_output@@@2@@__crt_stdio_output@@AEAA_NI_N@Z 0000000180052190 f i libucrtd:output.obj
 0001:000515c0       ?type_case_integer@?$output_processor@_WV?$stream_output_adapter@_W@__crt_stdio_output@@V?$standard_base@_WV?$stream_output_adapter@_W@__crt_stdio_output@@@2@@__crt_stdio_output@@AEAA_NI_N@Z 00000001800525c0 f i libucrtd:output.obj
 0001:000519f0       ?type_case_integer@?$output_processor@_WV?$string_output_adapter@_W@__crt_stdio_output@@V?$format_validation_base@_WV?$string_output_adapter@_W@__crt_stdio_output@@@2@@__crt_stdio_output@@AEAA_NI_N@Z 00000001800529f0 f i libucrtd:output.obj
 0001:00051e20       ?type_case_integer@?$output_processor@_WV?$string_output_adapter@_W@__crt_stdio_output@@V?$positional_parameter_base@_WV?$string_output_adapter@_W@__crt_stdio_output@@@2@@__crt_stdio_output@@AEAA_NI_N@Z 0000000180052e20 f i libucrtd:output.obj
 0001:00052250       ?type_case_integer@?$output_processor@_WV?$string_output_adapter@_W@__crt_stdio_output@@V?$standard_base@_WV?$string_output_adapter@_W@__crt_stdio_output@@@2@@__crt_stdio_output@@AEAA_NI_N@Z 0000000180053250 f i libucrtd:output.obj
 0001:00052680       ?type_case_n@?$output_processor@DV?$stream_output_adapter@D@__crt_stdio_output@@V?$format_validation_base@DV?$stream_output_adapter@D@__crt_stdio_output@@@2@@__crt_stdio_output@@AEAA_NXZ 0000000180053680 f i libucrtd:output.obj
 0001:000528c0       ?type_case_n@?$output_processor@DV?$stream_output_adapter@D@__crt_stdio_output@@V?$positional_parameter_base@DV?$stream_output_adapter@D@__crt_stdio_output@@@2@@__crt_stdio_output@@AEAA_NXZ 00000001800538c0 f i libucrtd:output.obj
 0001:00052b00       ?type_case_n@?$output_processor@DV?$stream_output_adapter@D@__crt_stdio_output@@V?$standard_base@DV?$stream_output_adapter@D@__crt_stdio_output@@@2@@__crt_stdio_output@@AEAA_NXZ 0000000180053b00 f i libucrtd:output.obj
 0001:00052d40       ?type_case_n@?$output_processor@DV?$string_output_adapter@D@__crt_stdio_output@@V?$format_validation_base@DV?$string_output_adapter@D@__crt_stdio_output@@@2@@__crt_stdio_output@@AEAA_NXZ 0000000180053d40 f i libucrtd:output.obj
 0001:00052f80       ?type_case_n@?$output_processor@DV?$string_output_adapter@D@__crt_stdio_output@@V?$positional_parameter_base@DV?$string_output_adapter@D@__crt_stdio_output@@@2@@__crt_stdio_output@@AEAA_NXZ 0000000180053f80 f i libucrtd:output.obj
 0001:000531c0       ?type_case_n@?$output_processor@DV?$string_output_adapter@D@__crt_stdio_output@@V?$standard_base@DV?$string_output_adapter@D@__crt_stdio_output@@@2@@__crt_stdio_output@@AEAA_NXZ 00000001800541c0 f i libucrtd:output.obj
 0001:00053400       ?type_case_n@?$output_processor@_WV?$stream_output_adapter@_W@__crt_stdio_output@@V?$format_validation_base@_WV?$stream_output_adapter@_W@__crt_stdio_output@@@2@@__crt_stdio_output@@AEAA_NXZ 0000000180054400 f i libucrtd:output.obj
 0001:00053640       ?type_case_n@?$output_processor@_WV?$stream_output_adapter@_W@__crt_stdio_output@@V?$positional_parameter_base@_WV?$stream_output_adapter@_W@__crt_stdio_output@@@2@@__crt_stdio_output@@AEAA_NXZ 0000000180054640 f i libucrtd:output.obj
 0001:00053880       ?type_case_n@?$output_processor@_WV?$stream_output_adapter@_W@__crt_stdio_output@@V?$standard_base@_WV?$stream_output_adapter@_W@__crt_stdio_output@@@2@@__crt_stdio_output@@AEAA_NXZ 0000000180054880 f i libucrtd:output.obj
 0001:00053ac0       ?type_case_n@?$output_processor@_WV?$string_output_adapter@_W@__crt_stdio_output@@V?$format_validation_base@_WV?$string_output_adapter@_W@__crt_stdio_output@@@2@@__crt_stdio_output@@AEAA_NXZ 0000000180054ac0 f i libucrtd:output.obj
 0001:00053d00       ?type_case_n@?$output_processor@_WV?$string_output_adapter@_W@__crt_stdio_output@@V?$positional_parameter_base@_WV?$string_output_adapter@_W@__crt_stdio_output@@@2@@__crt_stdio_output@@AEAA_NXZ 0000000180054d00 f i libucrtd:output.obj
 0001:00053f40       ?type_case_n@?$output_processor@_WV?$string_output_adapter@_W@__crt_stdio_output@@V?$standard_base@_WV?$string_output_adapter@_W@__crt_stdio_output@@@2@@__crt_stdio_output@@AEAA_NXZ 0000000180054f40 f i libucrtd:output.obj
 0001:00054180       ?type_case_o@?$output_processor@DV?$stream_output_adapter@D@__crt_stdio_output@@V?$format_validation_base@DV?$stream_output_adapter@D@__crt_stdio_output@@@2@@__crt_stdio_output@@AEAA_NXZ 0000000180055180 f i libucrtd:output.obj
 0001:000541d0       ?type_case_o@?$output_processor@DV?$stream_output_adapter@D@__crt_stdio_output@@V?$positional_parameter_base@DV?$stream_output_adapter@D@__crt_stdio_output@@@2@@__crt_stdio_output@@AEAA_NXZ 00000001800551d0 f i libucrtd:output.obj
 0001:00054220       ?type_case_o@?$output_processor@DV?$stream_output_adapter@D@__crt_stdio_output@@V?$standard_base@DV?$stream_output_adapter@D@__crt_stdio_output@@@2@@__crt_stdio_output@@AEAA_NXZ 0000000180055220 f i libucrtd:output.obj
 0001:00054270       ?type_case_o@?$output_processor@DV?$string_output_adapter@D@__crt_stdio_output@@V?$format_validation_base@DV?$string_output_adapter@D@__crt_stdio_output@@@2@@__crt_stdio_output@@AEAA_NXZ 0000000180055270 f i libucrtd:output.obj
 0001:000542c0       ?type_case_o@?$output_processor@DV?$string_output_adapter@D@__crt_stdio_output@@V?$positional_parameter_base@DV?$string_output_adapter@D@__crt_stdio_output@@@2@@__crt_stdio_output@@AEAA_NXZ 00000001800552c0 f i libucrtd:output.obj
 0001:00054310       ?type_case_o@?$output_processor@DV?$string_output_adapter@D@__crt_stdio_output@@V?$standard_base@DV?$string_output_adapter@D@__crt_stdio_output@@@2@@__crt_stdio_output@@AEAA_NXZ 0000000180055310 f i libucrtd:output.obj
 0001:00054360       ?type_case_o@?$output_processor@_WV?$stream_output_adapter@_W@__crt_stdio_output@@V?$format_validation_base@_WV?$stream_output_adapter@_W@__crt_stdio_output@@@2@@__crt_stdio_output@@AEAA_NXZ 0000000180055360 f i libucrtd:output.obj
 0001:000543b0       ?type_case_o@?$output_processor@_WV?$stream_output_adapter@_W@__crt_stdio_output@@V?$positional_parameter_base@_WV?$stream_output_adapter@_W@__crt_stdio_output@@@2@@__crt_stdio_output@@AEAA_NXZ 00000001800553b0 f i libucrtd:output.obj
 0001:00054400       ?type_case_o@?$output_processor@_WV?$stream_output_adapter@_W@__crt_stdio_output@@V?$standard_base@_WV?$stream_output_adapter@_W@__crt_stdio_output@@@2@@__crt_stdio_output@@AEAA_NXZ 0000000180055400 f i libucrtd:output.obj
 0001:00054450       ?type_case_o@?$output_processor@_WV?$string_output_adapter@_W@__crt_stdio_output@@V?$format_validation_base@_WV?$string_output_adapter@_W@__crt_stdio_output@@@2@@__crt_stdio_output@@AEAA_NXZ 0000000180055450 f i libucrtd:output.obj
 0001:000544a0       ?type_case_o@?$output_processor@_WV?$string_output_adapter@_W@__crt_stdio_output@@V?$positional_parameter_base@_WV?$string_output_adapter@_W@__crt_stdio_output@@@2@@__crt_stdio_output@@AEAA_NXZ 00000001800554a0 f i libucrtd:output.obj
 0001:000544f0       ?type_case_o@?$output_processor@_WV?$string_output_adapter@_W@__crt_stdio_output@@V?$standard_base@_WV?$string_output_adapter@_W@__crt_stdio_output@@@2@@__crt_stdio_output@@AEAA_NXZ 00000001800554f0 f i libucrtd:output.obj
 0001:00054540       ?type_case_p@?$output_processor@DV?$stream_output_adapter@D@__crt_stdio_output@@V?$format_validation_base@DV?$stream_output_adapter@D@__crt_stdio_output@@@2@@__crt_stdio_output@@AEAA_NXZ 0000000180055540 f i libucrtd:output.obj
 0001:00054580       ?type_case_p@?$output_processor@DV?$stream_output_adapter@D@__crt_stdio_output@@V?$positional_parameter_base@DV?$stream_output_adapter@D@__crt_stdio_output@@@2@@__crt_stdio_output@@AEAA_NXZ 0000000180055580 f i libucrtd:output.obj
 0001:000545c0       ?type_case_p@?$output_processor@DV?$stream_output_adapter@D@__crt_stdio_output@@V?$standard_base@DV?$stream_output_adapter@D@__crt_stdio_output@@@2@@__crt_stdio_output@@AEAA_NXZ 00000001800555c0 f i libucrtd:output.obj
 0001:00054600       ?type_case_p@?$output_processor@DV?$string_output_adapter@D@__crt_stdio_output@@V?$format_validation_base@DV?$string_output_adapter@D@__crt_stdio_output@@@2@@__crt_stdio_output@@AEAA_NXZ 0000000180055600 f i libucrtd:output.obj
 0001:00054640       ?type_case_p@?$output_processor@DV?$string_output_adapter@D@__crt_stdio_output@@V?$positional_parameter_base@DV?$string_output_adapter@D@__crt_stdio_output@@@2@@__crt_stdio_output@@AEAA_NXZ 0000000180055640 f i libucrtd:output.obj
 0001:00054680       ?type_case_p@?$output_processor@DV?$string_output_adapter@D@__crt_stdio_output@@V?$standard_base@DV?$string_output_adapter@D@__crt_stdio_output@@@2@@__crt_stdio_output@@AEAA_NXZ 0000000180055680 f i libucrtd:output.obj
 0001:000546c0       ?type_case_p@?$output_processor@_WV?$stream_output_adapter@_W@__crt_stdio_output@@V?$format_validation_base@_WV?$stream_output_adapter@_W@__crt_stdio_output@@@2@@__crt_stdio_output@@AEAA_NXZ 00000001800556c0 f i libucrtd:output.obj
 0001:00054700       ?type_case_p@?$output_processor@_WV?$stream_output_adapter@_W@__crt_stdio_output@@V?$positional_parameter_base@_WV?$stream_output_adapter@_W@__crt_stdio_output@@@2@@__crt_stdio_output@@AEAA_NXZ 0000000180055700 f i libucrtd:output.obj
 0001:00054740       ?type_case_p@?$output_processor@_WV?$stream_output_adapter@_W@__crt_stdio_output@@V?$standard_base@_WV?$stream_output_adapter@_W@__crt_stdio_output@@@2@@__crt_stdio_output@@AEAA_NXZ 0000000180055740 f i libucrtd:output.obj
 0001:00054780       ?type_case_p@?$output_processor@_WV?$string_output_adapter@_W@__crt_stdio_output@@V?$format_validation_base@_WV?$string_output_adapter@_W@__crt_stdio_output@@@2@@__crt_stdio_output@@AEAA_NXZ 0000000180055780 f i libucrtd:output.obj
 0001:000547c0       ?type_case_p@?$output_processor@_WV?$string_output_adapter@_W@__crt_stdio_output@@V?$positional_parameter_base@_WV?$string_output_adapter@_W@__crt_stdio_output@@@2@@__crt_stdio_output@@AEAA_NXZ 00000001800557c0 f i libucrtd:output.obj
 0001:00054800       ?type_case_p@?$output_processor@_WV?$string_output_adapter@_W@__crt_stdio_output@@V?$standard_base@_WV?$string_output_adapter@_W@__crt_stdio_output@@@2@@__crt_stdio_output@@AEAA_NXZ 0000000180055800 f i libucrtd:output.obj
 0001:00054840       ?type_case_s@?$output_processor@DV?$stream_output_adapter@D@__crt_stdio_output@@V?$format_validation_base@DV?$stream_output_adapter@D@__crt_stdio_output@@@2@@__crt_stdio_output@@AEAA_NXZ 0000000180055840 f i libucrtd:output.obj
 0001:00054960       ?type_case_s@?$output_processor@DV?$stream_output_adapter@D@__crt_stdio_output@@V?$positional_parameter_base@DV?$stream_output_adapter@D@__crt_stdio_output@@@2@@__crt_stdio_output@@AEAA_NXZ 0000000180055960 f i libucrtd:output.obj
 0001:00054a80       ?type_case_s@?$output_processor@DV?$stream_output_adapter@D@__crt_stdio_output@@V?$standard_base@DV?$stream_output_adapter@D@__crt_stdio_output@@@2@@__crt_stdio_output@@AEAA_NXZ 0000000180055a80 f i libucrtd:output.obj
 0001:00054ba0       ?type_case_s@?$output_processor@DV?$string_output_adapter@D@__crt_stdio_output@@V?$format_validation_base@DV?$string_output_adapter@D@__crt_stdio_output@@@2@@__crt_stdio_output@@AEAA_NXZ 0000000180055ba0 f i libucrtd:output.obj
 0001:00054cc0       ?type_case_s@?$output_processor@DV?$string_output_adapter@D@__crt_stdio_output@@V?$positional_parameter_base@DV?$string_output_adapter@D@__crt_stdio_output@@@2@@__crt_stdio_output@@AEAA_NXZ 0000000180055cc0 f i libucrtd:output.obj
 0001:00054de0       ?type_case_s@?$output_processor@DV?$string_output_adapter@D@__crt_stdio_output@@V?$standard_base@DV?$string_output_adapter@D@__crt_stdio_output@@@2@@__crt_stdio_output@@AEAA_NXZ 0000000180055de0 f i libucrtd:output.obj
 0001:00054f00       ?type_case_s@?$output_processor@_WV?$stream_output_adapter@_W@__crt_stdio_output@@V?$format_validation_base@_WV?$stream_output_adapter@_W@__crt_stdio_output@@@2@@__crt_stdio_output@@AEAA_NXZ 0000000180055f00 f i libucrtd:output.obj
 0001:00055020       ?type_case_s@?$output_processor@_WV?$stream_output_adapter@_W@__crt_stdio_output@@V?$positional_parameter_base@_WV?$stream_output_adapter@_W@__crt_stdio_output@@@2@@__crt_stdio_output@@AEAA_NXZ 0000000180056020 f i libucrtd:output.obj
 0001:00055140       ?type_case_s@?$output_processor@_WV?$stream_output_adapter@_W@__crt_stdio_output@@V?$standard_base@_WV?$stream_output_adapter@_W@__crt_stdio_output@@@2@@__crt_stdio_output@@AEAA_NXZ 0000000180056140 f i libucrtd:output.obj
 0001:00055260       ?type_case_s@?$output_processor@_WV?$string_output_adapter@_W@__crt_stdio_output@@V?$format_validation_base@_WV?$string_output_adapter@_W@__crt_stdio_output@@@2@@__crt_stdio_output@@AEAA_NXZ 0000000180056260 f i libucrtd:output.obj
 0001:00055380       ?type_case_s@?$output_processor@_WV?$string_output_adapter@_W@__crt_stdio_output@@V?$positional_parameter_base@_WV?$string_output_adapter@_W@__crt_stdio_output@@@2@@__crt_stdio_output@@AEAA_NXZ 0000000180056380 f i libucrtd:output.obj
 0001:000554a0       ?type_case_s@?$output_processor@_WV?$string_output_adapter@_W@__crt_stdio_output@@V?$standard_base@_WV?$string_output_adapter@_W@__crt_stdio_output@@@2@@__crt_stdio_output@@AEAA_NXZ 00000001800564a0 f i libucrtd:output.obj
 0001:000555c0       ?type_case_s_compute_narrow_string_length@?$output_processor@DV?$stream_output_adapter@D@__crt_stdio_output@@V?$format_validation_base@DV?$stream_output_adapter@D@__crt_stdio_output@@@2@@__crt_stdio_output@@AEBAHHD@Z 00000001800565c0 f i libucrtd:output.obj
 0001:000555f0       ?type_case_s_compute_narrow_string_length@?$output_processor@DV?$stream_output_adapter@D@__crt_stdio_output@@V?$positional_parameter_base@DV?$stream_output_adapter@D@__crt_stdio_output@@@2@@__crt_stdio_output@@AEBAHHD@Z 00000001800565f0 f i libucrtd:output.obj
 0001:00055620       ?type_case_s_compute_narrow_string_length@?$output_processor@DV?$stream_output_adapter@D@__crt_stdio_output@@V?$standard_base@DV?$stream_output_adapter@D@__crt_stdio_output@@@2@@__crt_stdio_output@@AEBAHHD@Z 0000000180056620 f i libucrtd:output.obj
 0001:00055650       ?type_case_s_compute_narrow_string_length@?$output_processor@DV?$string_output_adapter@D@__crt_stdio_output@@V?$format_validation_base@DV?$string_output_adapter@D@__crt_stdio_output@@@2@@__crt_stdio_output@@AEBAHHD@Z 0000000180056650 f i libucrtd:output.obj
 0001:00055680       ?type_case_s_compute_narrow_string_length@?$output_processor@DV?$string_output_adapter@D@__crt_stdio_output@@V?$positional_parameter_base@DV?$string_output_adapter@D@__crt_stdio_output@@@2@@__crt_stdio_output@@AEBAHHD@Z 0000000180056680 f i libucrtd:output.obj
 0001:000556b0       ?type_case_s_compute_narrow_string_length@?$output_processor@DV?$string_output_adapter@D@__crt_stdio_output@@V?$standard_base@DV?$string_output_adapter@D@__crt_stdio_output@@@2@@__crt_stdio_output@@AEBAHHD@Z 00000001800566b0 f i libucrtd:output.obj
 0001:000556e0       ?type_case_s_compute_narrow_string_length@?$output_processor@_WV?$stream_output_adapter@_W@__crt_stdio_output@@V?$format_validation_base@_WV?$stream_output_adapter@_W@__crt_stdio_output@@@2@@__crt_stdio_output@@AEBAHH_W@Z 00000001800566e0 f i libucrtd:output.obj
 0001:00055770       ?type_case_s_compute_narrow_string_length@?$output_processor@_WV?$stream_output_adapter@_W@__crt_stdio_output@@V?$positional_parameter_base@_WV?$stream_output_adapter@_W@__crt_stdio_output@@@2@@__crt_stdio_output@@AEBAHH_W@Z 0000000180056770 f i libucrtd:output.obj
 0001:00055800       ?type_case_s_compute_narrow_string_length@?$output_processor@_WV?$stream_output_adapter@_W@__crt_stdio_output@@V?$standard_base@_WV?$stream_output_adapter@_W@__crt_stdio_output@@@2@@__crt_stdio_output@@AEBAHH_W@Z 0000000180056800 f i libucrtd:output.obj
 0001:00055890       ?type_case_s_compute_narrow_string_length@?$output_processor@_WV?$string_output_adapter@_W@__crt_stdio_output@@V?$format_validation_base@_WV?$string_output_adapter@_W@__crt_stdio_output@@@2@@__crt_stdio_output@@AEBAHH_W@Z 0000000180056890 f i libucrtd:output.obj
 0001:00055920       ?type_case_s_compute_narrow_string_length@?$output_processor@_WV?$string_output_adapter@_W@__crt_stdio_output@@V?$positional_parameter_base@_WV?$string_output_adapter@_W@__crt_stdio_output@@@2@@__crt_stdio_output@@AEBAHH_W@Z 0000000180056920 f i libucrtd:output.obj
 0001:000559b0       ?type_case_s_compute_narrow_string_length@?$output_processor@_WV?$string_output_adapter@_W@__crt_stdio_output@@V?$standard_base@_WV?$string_output_adapter@_W@__crt_stdio_output@@@2@@__crt_stdio_output@@AEBAHH_W@Z 00000001800569b0 f i libucrtd:output.obj
 0001:00055a40       ?type_case_u@?$output_processor@DV?$stream_output_adapter@D@__crt_stdio_output@@V?$format_validation_base@DV?$stream_output_adapter@D@__crt_stdio_output@@@2@@__crt_stdio_output@@AEAA_NXZ 0000000180056a40 f i libucrtd:output.obj
 0001:00055a60       ?type_case_u@?$output_processor@DV?$stream_output_adapter@D@__crt_stdio_output@@V?$positional_parameter_base@DV?$stream_output_adapter@D@__crt_stdio_output@@@2@@__crt_stdio_output@@AEAA_NXZ 0000000180056a60 f i libucrtd:output.obj
 0001:00055a80       ?type_case_u@?$output_processor@DV?$stream_output_adapter@D@__crt_stdio_output@@V?$standard_base@DV?$stream_output_adapter@D@__crt_stdio_output@@@2@@__crt_stdio_output@@AEAA_NXZ 0000000180056a80 f i libucrtd:output.obj
 0001:00055aa0       ?type_case_u@?$output_processor@DV?$string_output_adapter@D@__crt_stdio_output@@V?$format_validation_base@DV?$string_output_adapter@D@__crt_stdio_output@@@2@@__crt_stdio_output@@AEAA_NXZ 0000000180056aa0 f i libucrtd:output.obj
 0001:00055ac0       ?type_case_u@?$output_processor@DV?$string_output_adapter@D@__crt_stdio_output@@V?$positional_parameter_base@DV?$string_output_adapter@D@__crt_stdio_output@@@2@@__crt_stdio_output@@AEAA_NXZ 0000000180056ac0 f i libucrtd:output.obj
 0001:00055ae0       ?type_case_u@?$output_processor@DV?$string_output_adapter@D@__crt_stdio_output@@V?$standard_base@DV?$string_output_adapter@D@__crt_stdio_output@@@2@@__crt_stdio_output@@AEAA_NXZ 0000000180056ae0 f i libucrtd:output.obj
 0001:00055b00       ?type_case_u@?$output_processor@_WV?$stream_output_adapter@_W@__crt_stdio_output@@V?$format_validation_base@_WV?$stream_output_adapter@_W@__crt_stdio_output@@@2@@__crt_stdio_output@@AEAA_NXZ 0000000180056b00 f i libucrtd:output.obj
 0001:00055b20       ?type_case_u@?$output_processor@_WV?$stream_output_adapter@_W@__crt_stdio_output@@V?$positional_parameter_base@_WV?$stream_output_adapter@_W@__crt_stdio_output@@@2@@__crt_stdio_output@@AEAA_NXZ 0000000180056b20 f i libucrtd:output.obj
 0001:00055b40       ?type_case_u@?$output_processor@_WV?$stream_output_adapter@_W@__crt_stdio_output@@V?$standard_base@_WV?$stream_output_adapter@_W@__crt_stdio_output@@@2@@__crt_stdio_output@@AEAA_NXZ 0000000180056b40 f i libucrtd:output.obj
 0001:00055b60       ?type_case_u@?$output_processor@_WV?$string_output_adapter@_W@__crt_stdio_output@@V?$format_validation_base@_WV?$string_output_adapter@_W@__crt_stdio_output@@@2@@__crt_stdio_output@@AEAA_NXZ 0000000180056b60 f i libucrtd:output.obj
 0001:00055b80       ?type_case_u@?$output_processor@_WV?$string_output_adapter@_W@__crt_stdio_output@@V?$positional_parameter_base@_WV?$string_output_adapter@_W@__crt_stdio_output@@@2@@__crt_stdio_output@@AEAA_NXZ 0000000180056b80 f i libucrtd:output.obj
 0001:00055ba0       ?type_case_u@?$output_processor@_WV?$string_output_adapter@_W@__crt_stdio_output@@V?$standard_base@_WV?$string_output_adapter@_W@__crt_stdio_output@@@2@@__crt_stdio_output@@AEAA_NXZ 0000000180056ba0 f i libucrtd:output.obj
 0001:00055bc0       ?type_case_x@?$output_processor@DV?$stream_output_adapter@D@__crt_stdio_output@@V?$format_validation_base@DV?$stream_output_adapter@D@__crt_stdio_output@@@2@@__crt_stdio_output@@AEAA_NXZ 0000000180056bc0 f i libucrtd:output.obj
 0001:00055be0       ?type_case_x@?$output_processor@DV?$stream_output_adapter@D@__crt_stdio_output@@V?$positional_parameter_base@DV?$stream_output_adapter@D@__crt_stdio_output@@@2@@__crt_stdio_output@@AEAA_NXZ 0000000180056be0 f i libucrtd:output.obj
 0001:00055c00       ?type_case_x@?$output_processor@DV?$stream_output_adapter@D@__crt_stdio_output@@V?$standard_base@DV?$stream_output_adapter@D@__crt_stdio_output@@@2@@__crt_stdio_output@@AEAA_NXZ 0000000180056c00 f i libucrtd:output.obj
 0001:00055c20       ?type_case_x@?$output_processor@DV?$string_output_adapter@D@__crt_stdio_output@@V?$format_validation_base@DV?$string_output_adapter@D@__crt_stdio_output@@@2@@__crt_stdio_output@@AEAA_NXZ 0000000180056c20 f i libucrtd:output.obj
 0001:00055c40       ?type_case_x@?$output_processor@DV?$string_output_adapter@D@__crt_stdio_output@@V?$positional_parameter_base@DV?$string_output_adapter@D@__crt_stdio_output@@@2@@__crt_stdio_output@@AEAA_NXZ 0000000180056c40 f i libucrtd:output.obj
 0001:00055c60       ?type_case_x@?$output_processor@DV?$string_output_adapter@D@__crt_stdio_output@@V?$standard_base@DV?$string_output_adapter@D@__crt_stdio_output@@@2@@__crt_stdio_output@@AEAA_NXZ 0000000180056c60 f i libucrtd:output.obj
 0001:00055c80       ?type_case_x@?$output_processor@_WV?$stream_output_adapter@_W@__crt_stdio_output@@V?$format_validation_base@_WV?$stream_output_adapter@_W@__crt_stdio_output@@@2@@__crt_stdio_output@@AEAA_NXZ 0000000180056c80 f i libucrtd:output.obj
 0001:00055ca0       ?type_case_x@?$output_processor@_WV?$stream_output_adapter@_W@__crt_stdio_output@@V?$positional_parameter_base@_WV?$stream_output_adapter@_W@__crt_stdio_output@@@2@@__crt_stdio_output@@AEAA_NXZ 0000000180056ca0 f i libucrtd:output.obj
 0001:00055cc0       ?type_case_x@?$output_processor@_WV?$stream_output_adapter@_W@__crt_stdio_output@@V?$standard_base@_WV?$stream_output_adapter@_W@__crt_stdio_output@@@2@@__crt_stdio_output@@AEAA_NXZ 0000000180056cc0 f i libucrtd:output.obj
 0001:00055ce0       ?type_case_x@?$output_processor@_WV?$string_output_adapter@_W@__crt_stdio_output@@V?$format_validation_base@_WV?$string_output_adapter@_W@__crt_stdio_output@@@2@@__crt_stdio_output@@AEAA_NXZ 0000000180056ce0 f i libucrtd:output.obj
 0001:00055d00       ?type_case_x@?$output_processor@_WV?$string_output_adapter@_W@__crt_stdio_output@@V?$positional_parameter_base@_WV?$string_output_adapter@_W@__crt_stdio_output@@@2@@__crt_stdio_output@@AEAA_NXZ 0000000180056d00 f i libucrtd:output.obj
 0001:00055d20       ?type_case_x@?$output_processor@_WV?$string_output_adapter@_W@__crt_stdio_output@@V?$standard_base@_WV?$string_output_adapter@_W@__crt_stdio_output@@@2@@__crt_stdio_output@@AEAA_NXZ 0000000180056d20 f i libucrtd:output.obj
 0001:00055d40       ?unset_flag@?$output_processor@DV?$stream_output_adapter@D@__crt_stdio_output@@V?$format_validation_base@DV?$stream_output_adapter@D@__crt_stdio_output@@@2@@__crt_stdio_output@@AEAAXI@Z 0000000180056d40 f i libucrtd:output.obj
 0001:00055d70       ?unset_flag@?$output_processor@DV?$stream_output_adapter@D@__crt_stdio_output@@V?$positional_parameter_base@DV?$stream_output_adapter@D@__crt_stdio_output@@@2@@__crt_stdio_output@@AEAAXI@Z 0000000180056d70 f i libucrtd:output.obj
 0001:00055da0       ?unset_flag@?$output_processor@DV?$stream_output_adapter@D@__crt_stdio_output@@V?$standard_base@DV?$stream_output_adapter@D@__crt_stdio_output@@@2@@__crt_stdio_output@@AEAAXI@Z 0000000180056da0 f i libucrtd:output.obj
 0001:00055dd0       ?unset_flag@?$output_processor@DV?$string_output_adapter@D@__crt_stdio_output@@V?$format_validation_base@DV?$string_output_adapter@D@__crt_stdio_output@@@2@@__crt_stdio_output@@AEAAXI@Z 0000000180056dd0 f i libucrtd:output.obj
 0001:00055e00       ?unset_flag@?$output_processor@DV?$string_output_adapter@D@__crt_stdio_output@@V?$positional_parameter_base@DV?$string_output_adapter@D@__crt_stdio_output@@@2@@__crt_stdio_output@@AEAAXI@Z 0000000180056e00 f i libucrtd:output.obj
 0001:00055e30       ?unset_flag@?$output_processor@DV?$string_output_adapter@D@__crt_stdio_output@@V?$standard_base@DV?$string_output_adapter@D@__crt_stdio_output@@@2@@__crt_stdio_output@@AEAAXI@Z 0000000180056e30 f i libucrtd:output.obj
 0001:00055e60       ?unset_flag@?$output_processor@_WV?$stream_output_adapter@_W@__crt_stdio_output@@V?$format_validation_base@_WV?$stream_output_adapter@_W@__crt_stdio_output@@@2@@__crt_stdio_output@@AEAAXI@Z 0000000180056e60 f i libucrtd:output.obj
 0001:00055e90       ?unset_flag@?$output_processor@_WV?$stream_output_adapter@_W@__crt_stdio_output@@V?$positional_parameter_base@_WV?$stream_output_adapter@_W@__crt_stdio_output@@@2@@__crt_stdio_output@@AEAAXI@Z 0000000180056e90 f i libucrtd:output.obj
 0001:00055ec0       ?unset_flag@?$output_processor@_WV?$stream_output_adapter@_W@__crt_stdio_output@@V?$standard_base@_WV?$stream_output_adapter@_W@__crt_stdio_output@@@2@@__crt_stdio_output@@AEAAXI@Z 0000000180056ec0 f i libucrtd:output.obj
 0001:00055ef0       ?unset_flag@?$output_processor@_WV?$string_output_adapter@_W@__crt_stdio_output@@V?$format_validation_base@_WV?$string_output_adapter@_W@__crt_stdio_output@@@2@@__crt_stdio_output@@AEAAXI@Z 0000000180056ef0 f i libucrtd:output.obj
 0001:00055f20       ?unset_flag@?$output_processor@_WV?$string_output_adapter@_W@__crt_stdio_output@@V?$positional_parameter_base@_WV?$string_output_adapter@_W@__crt_stdio_output@@@2@@__crt_stdio_output@@AEAAXI@Z 0000000180056f20 f i libucrtd:output.obj
 0001:00055f50       ?unset_flag@?$output_processor@_WV?$string_output_adapter@_W@__crt_stdio_output@@V?$standard_base@_WV?$string_output_adapter@_W@__crt_stdio_output@@@2@@__crt_stdio_output@@AEAAXI@Z 0000000180056f50 f i libucrtd:output.obj
 0001:00055f80       ?update_field_width@?$positional_parameter_base@DV?$stream_output_adapter@D@__crt_stdio_output@@@__crt_stdio_output@@IEAA_NXZ 0000000180056f80 f i libucrtd:output.obj
 0001:00056170       ?update_field_width@?$positional_parameter_base@DV?$string_output_adapter@D@__crt_stdio_output@@@__crt_stdio_output@@IEAA_NXZ 0000000180057170 f i libucrtd:output.obj
 0001:00056360       ?update_field_width@?$positional_parameter_base@_WV?$stream_output_adapter@_W@__crt_stdio_output@@@__crt_stdio_output@@IEAA_NXZ 0000000180057360 f i libucrtd:output.obj
 0001:00056550       ?update_field_width@?$positional_parameter_base@_WV?$string_output_adapter@_W@__crt_stdio_output@@@__crt_stdio_output@@IEAA_NXZ 0000000180057550 f i libucrtd:output.obj
 0001:00056740       ?update_field_width@?$standard_base@DV?$stream_output_adapter@D@__crt_stdio_output@@@__crt_stdio_output@@IEAA_NXZ 0000000180057740 f i libucrtd:output.obj
 0001:00056770       ?update_field_width@?$standard_base@DV?$string_output_adapter@D@__crt_stdio_output@@@__crt_stdio_output@@IEAA_NXZ 0000000180057770 f i libucrtd:output.obj
 0001:000567a0       ?update_field_width@?$standard_base@_WV?$stream_output_adapter@_W@__crt_stdio_output@@@__crt_stdio_output@@IEAA_NXZ 00000001800577a0 f i libucrtd:output.obj
 0001:000567d0       ?update_field_width@?$standard_base@_WV?$string_output_adapter@_W@__crt_stdio_output@@@__crt_stdio_output@@IEAA_NXZ 00000001800577d0 f i libucrtd:output.obj
 0001:00056800       ?update_precision@?$positional_parameter_base@DV?$stream_output_adapter@D@__crt_stdio_output@@@__crt_stdio_output@@IEAA_NXZ 0000000180057800 f i libucrtd:output.obj
 0001:000569f0       ?update_precision@?$positional_parameter_base@DV?$string_output_adapter@D@__crt_stdio_output@@@__crt_stdio_output@@IEAA_NXZ 00000001800579f0 f i libucrtd:output.obj
 0001:00056be0       ?update_precision@?$positional_parameter_base@_WV?$stream_output_adapter@_W@__crt_stdio_output@@@__crt_stdio_output@@IEAA_NXZ 0000000180057be0 f i libucrtd:output.obj
 0001:00056dd0       ?update_precision@?$positional_parameter_base@_WV?$string_output_adapter@_W@__crt_stdio_output@@@__crt_stdio_output@@IEAA_NXZ 0000000180057dd0 f i libucrtd:output.obj
 0001:00056fc0       ?update_precision@?$standard_base@DV?$stream_output_adapter@D@__crt_stdio_output@@@__crt_stdio_output@@IEAA_NXZ 0000000180057fc0 f i libucrtd:output.obj
 0001:00056ff0       ?update_precision@?$standard_base@DV?$string_output_adapter@D@__crt_stdio_output@@@__crt_stdio_output@@IEAA_NXZ 0000000180057ff0 f i libucrtd:output.obj
 0001:00057020       ?update_precision@?$standard_base@_WV?$stream_output_adapter@_W@__crt_stdio_output@@@__crt_stdio_output@@IEAA_NXZ 0000000180058020 f i libucrtd:output.obj
 0001:00057050       ?update_precision@?$standard_base@_WV?$string_output_adapter@_W@__crt_stdio_output@@@__crt_stdio_output@@IEAA_NXZ 0000000180058050 f i libucrtd:output.obj
 0001:00057080       ?valid@__crt_stdio_stream@@QEBA_NXZ 0000000180058080 f i libucrtd:output.obj
 0001:000570b0       ?validate@?$stream_output_adapter@D@__crt_stdio_output@@QEBA_NXZ 00000001800580b0 f i libucrtd:output.obj
 0001:00057190       ?validate@?$stream_output_adapter@_W@__crt_stdio_output@@QEBA_NXZ 0000000180058190 f i libucrtd:output.obj
 0001:00057270       ?validate@?$string_output_adapter@D@__crt_stdio_output@@QEBA_NXZ 0000000180058270 f i libucrtd:output.obj
 0001:00057330       ?validate@?$string_output_adapter@_W@__crt_stdio_output@@QEBA_NXZ 0000000180058330 f i libucrtd:output.obj
 0001:000573f0       ?validate_and_store_parameter_data@?$positional_parameter_base@DV?$stream_output_adapter@D@__crt_stdio_output@@@__crt_stdio_output@@AEAA_NAEAUparameter_data@12@W4parameter_type@12@DW4length_modifier@2@@Z 00000001800583f0 f i libucrtd:output.obj
 0001:00057510       ?validate_and_store_parameter_data@?$positional_parameter_base@DV?$string_output_adapter@D@__crt_stdio_output@@@__crt_stdio_output@@AEAA_NAEAUparameter_data@12@W4parameter_type@12@DW4length_modifier@2@@Z 0000000180058510 f i libucrtd:output.obj
 0001:00057630       ?validate_and_store_parameter_data@?$positional_parameter_base@_WV?$stream_output_adapter@_W@__crt_stdio_output@@@__crt_stdio_output@@AEAA_NAEAUparameter_data@12@W4parameter_type@12@_WW4length_modifier@2@@Z 0000000180058630 f i libucrtd:output.obj
 0001:00057750       ?validate_and_store_parameter_data@?$positional_parameter_base@_WV?$string_output_adapter@_W@__crt_stdio_output@@@__crt_stdio_output@@AEAA_NAEAUparameter_data@12@W4parameter_type@12@_WW4length_modifier@2@@Z 0000000180058750 f i libucrtd:output.obj
 0001:00057870       ?validate_and_update_state_at_beginning_of_format_character@?$positional_parameter_base@DV?$stream_output_adapter@D@__crt_stdio_output@@@__crt_stdio_output@@IEAA_NXZ 0000000180058870 f i libucrtd:output.obj
 0001:00057b50       ?validate_and_update_state_at_beginning_of_format_character@?$positional_parameter_base@DV?$string_output_adapter@D@__crt_stdio_output@@@__crt_stdio_output@@IEAA_NXZ 0000000180058b50 f i libucrtd:output.obj
 0001:00057e30       ?validate_and_update_state_at_beginning_of_format_character@?$positional_parameter_base@_WV?$stream_output_adapter@_W@__crt_stdio_output@@@__crt_stdio_output@@IEAA_NXZ 0000000180058e30 f i libucrtd:output.obj
 0001:00058110       ?validate_and_update_state_at_beginning_of_format_character@?$positional_parameter_base@_WV?$string_output_adapter@_W@__crt_stdio_output@@@__crt_stdio_output@@IEAA_NXZ 0000000180059110 f i libucrtd:output.obj
 0001:000583f0       ?validate_and_update_state_at_beginning_of_format_character@?$standard_base@DV?$stream_output_adapter@D@__crt_stdio_output@@@__crt_stdio_output@@IEAA_NXZ 00000001800593f0 f i libucrtd:output.obj
 0001:00058400       ?validate_and_update_state_at_beginning_of_format_character@?$standard_base@DV?$string_output_adapter@D@__crt_stdio_output@@@__crt_stdio_output@@IEAA_NXZ 0000000180059400 f i libucrtd:output.obj
 0001:00058410       ?validate_and_update_state_at_beginning_of_format_character@?$standard_base@_WV?$stream_output_adapter@_W@__crt_stdio_output@@@__crt_stdio_output@@IEAA_NXZ 0000000180059410 f i libucrtd:output.obj
 0001:00058420       ?validate_and_update_state_at_beginning_of_format_character@?$standard_base@_WV?$string_output_adapter@_W@__crt_stdio_output@@@__crt_stdio_output@@IEAA_NXZ 0000000180059420 f i libucrtd:output.obj
 0001:00058430       ?validate_and_update_state_at_end_of_format_string@?$format_validation_base@DV?$stream_output_adapter@D@__crt_stdio_output@@@__crt_stdio_output@@IEBA_NXZ 0000000180059430 f i libucrtd:output.obj
 0001:000584f0       ?validate_and_update_state_at_end_of_format_string@?$format_validation_base@DV?$string_output_adapter@D@__crt_stdio_output@@@__crt_stdio_output@@IEBA_NXZ 00000001800594f0 f i libucrtd:output.obj
 0001:000585b0       ?validate_and_update_state_at_end_of_format_string@?$format_validation_base@_WV?$stream_output_adapter@_W@__crt_stdio_output@@@__crt_stdio_output@@IEBA_NXZ 00000001800595b0 f i libucrtd:output.obj
 0001:00058670       ?validate_and_update_state_at_end_of_format_string@?$format_validation_base@_WV?$string_output_adapter@_W@__crt_stdio_output@@@__crt_stdio_output@@IEBA_NXZ 0000000180059670 f i libucrtd:output.obj
 0001:00058730       ?validate_and_update_state_at_end_of_format_string@?$positional_parameter_base@DV?$stream_output_adapter@D@__crt_stdio_output@@@__crt_stdio_output@@IEAA_NXZ 0000000180059730 f i libucrtd:output.obj
 0001:00058920       ?validate_and_update_state_at_end_of_format_string@?$positional_parameter_base@DV?$string_output_adapter@D@__crt_stdio_output@@@__crt_stdio_output@@IEAA_NXZ 0000000180059920 f i libucrtd:output.obj
 0001:00058b10       ?validate_and_update_state_at_end_of_format_string@?$positional_parameter_base@_WV?$stream_output_adapter@_W@__crt_stdio_output@@@__crt_stdio_output@@IEAA_NXZ 0000000180059b10 f i libucrtd:output.obj
 0001:00058d00       ?validate_and_update_state_at_end_of_format_string@?$positional_parameter_base@_WV?$string_output_adapter@_W@__crt_stdio_output@@@__crt_stdio_output@@IEAA_NXZ 0000000180059d00 f i libucrtd:output.obj
 0001:00058ef0       ?validate_and_update_state_at_end_of_format_string@?$standard_base@DV?$stream_output_adapter@D@__crt_stdio_output@@@__crt_stdio_output@@IEBA_NXZ 0000000180059ef0 f i libucrtd:output.obj
 0001:00058f00       ?validate_and_update_state_at_end_of_format_string@?$standard_base@DV?$string_output_adapter@D@__crt_stdio_output@@@__crt_stdio_output@@IEBA_NXZ 0000000180059f00 f i libucrtd:output.obj
 0001:00058f10       ?validate_and_update_state_at_end_of_format_string@?$standard_base@_WV?$stream_output_adapter@_W@__crt_stdio_output@@@__crt_stdio_output@@IEBA_NXZ 0000000180059f10 f i libucrtd:output.obj
 0001:00058f20       ?validate_and_update_state_at_end_of_format_string@?$standard_base@_WV?$string_output_adapter@_W@__crt_stdio_output@@@__crt_stdio_output@@IEBA_NXZ 0000000180059f20 f i libucrtd:output.obj
 0001:00058f30       ?validate_state_for_type_case_a@?$positional_parameter_base@DV?$stream_output_adapter@D@__crt_stdio_output@@@__crt_stdio_output@@IEAA_NXZ 0000000180059f30 f i libucrtd:output.obj
 0001:00059070       ?validate_state_for_type_case_a@?$positional_parameter_base@DV?$string_output_adapter@D@__crt_stdio_output@@@__crt_stdio_output@@IEAA_NXZ 000000018005a070 f i libucrtd:output.obj
 0001:000591b0       ?validate_state_for_type_case_a@?$positional_parameter_base@_WV?$stream_output_adapter@_W@__crt_stdio_output@@@__crt_stdio_output@@IEAA_NXZ 000000018005a1b0 f i libucrtd:output.obj
 0001:000592f0       ?validate_state_for_type_case_a@?$positional_parameter_base@_WV?$string_output_adapter@_W@__crt_stdio_output@@@__crt_stdio_output@@IEAA_NXZ 000000018005a2f0 f i libucrtd:output.obj
 0001:00059430       ?validate_state_for_type_case_a@?$standard_base@DV?$stream_output_adapter@D@__crt_stdio_output@@@__crt_stdio_output@@IEBA_NXZ 000000018005a430 f i libucrtd:output.obj
 0001:00059440       ?validate_state_for_type_case_a@?$standard_base@DV?$string_output_adapter@D@__crt_stdio_output@@@__crt_stdio_output@@IEBA_NXZ 000000018005a440 f i libucrtd:output.obj
 0001:00059450       ?validate_state_for_type_case_a@?$standard_base@_WV?$stream_output_adapter@_W@__crt_stdio_output@@@__crt_stdio_output@@IEBA_NXZ 000000018005a450 f i libucrtd:output.obj
 0001:00059460       ?validate_state_for_type_case_a@?$standard_base@_WV?$string_output_adapter@_W@__crt_stdio_output@@@__crt_stdio_output@@IEBA_NXZ 000000018005a460 f i libucrtd:output.obj
 0001:00059470       ?validate_stream_is_ansi_if_required@?$__acrt_stdio_char_traits@D@@SA_NQEAU_iobuf@@@Z 000000018005a470 f i libucrtd:output.obj
 0001:00059600       ?validate_stream_is_ansi_if_required@?$__acrt_stdio_char_traits@_W@@SA_NQEAU_iobuf@@@Z 000000018005a600 f i libucrtd:output.obj
 0001:00059610       ?wide_null_string@?$output_processor@DV?$stream_output_adapter@D@__crt_stdio_output@@V?$format_validation_base@DV?$stream_output_adapter@D@__crt_stdio_output@@@2@@__crt_stdio_output@@CAPEA_WXZ 000000018005a610 f i libucrtd:output.obj
 0001:00059620       ?wide_null_string@?$output_processor@DV?$stream_output_adapter@D@__crt_stdio_output@@V?$positional_parameter_base@DV?$stream_output_adapter@D@__crt_stdio_output@@@2@@__crt_stdio_output@@CAPEA_WXZ 000000018005a620 f i libucrtd:output.obj
 0001:00059630       ?wide_null_string@?$output_processor@DV?$stream_output_adapter@D@__crt_stdio_output@@V?$standard_base@DV?$stream_output_adapter@D@__crt_stdio_output@@@2@@__crt_stdio_output@@CAPEA_WXZ 000000018005a630 f i libucrtd:output.obj
 0001:00059640       ?wide_null_string@?$output_processor@DV?$string_output_adapter@D@__crt_stdio_output@@V?$format_validation_base@DV?$string_output_adapter@D@__crt_stdio_output@@@2@@__crt_stdio_output@@CAPEA_WXZ 000000018005a640 f i libucrtd:output.obj
 0001:00059650       ?wide_null_string@?$output_processor@DV?$string_output_adapter@D@__crt_stdio_output@@V?$positional_parameter_base@DV?$string_output_adapter@D@__crt_stdio_output@@@2@@__crt_stdio_output@@CAPEA_WXZ 000000018005a650 f i libucrtd:output.obj
 0001:00059660       ?wide_null_string@?$output_processor@DV?$string_output_adapter@D@__crt_stdio_output@@V?$standard_base@DV?$string_output_adapter@D@__crt_stdio_output@@@2@@__crt_stdio_output@@CAPEA_WXZ 000000018005a660 f i libucrtd:output.obj
 0001:00059670       ?wide_null_string@?$output_processor@_WV?$stream_output_adapter@_W@__crt_stdio_output@@V?$format_validation_base@_WV?$stream_output_adapter@_W@__crt_stdio_output@@@2@@__crt_stdio_output@@CAPEA_WXZ 000000018005a670 f i libucrtd:output.obj
 0001:00059680       ?wide_null_string@?$output_processor@_WV?$stream_output_adapter@_W@__crt_stdio_output@@V?$positional_parameter_base@_WV?$stream_output_adapter@_W@__crt_stdio_output@@@2@@__crt_stdio_output@@CAPEA_WXZ 000000018005a680 f i libucrtd:output.obj
 0001:00059690       ?wide_null_string@?$output_processor@_WV?$stream_output_adapter@_W@__crt_stdio_output@@V?$standard_base@_WV?$stream_output_adapter@_W@__crt_stdio_output@@@2@@__crt_stdio_output@@CAPEA_WXZ 000000018005a690 f i libucrtd:output.obj
 0001:000596a0       ?wide_null_string@?$output_processor@_WV?$string_output_adapter@_W@__crt_stdio_output@@V?$format_validation_base@_WV?$string_output_adapter@_W@__crt_stdio_output@@@2@@__crt_stdio_output@@CAPEA_WXZ 000000018005a6a0 f i libucrtd:output.obj
 0001:000596b0       ?wide_null_string@?$output_processor@_WV?$string_output_adapter@_W@__crt_stdio_output@@V?$positional_parameter_base@_WV?$string_output_adapter@_W@__crt_stdio_output@@@2@@__crt_stdio_output@@CAPEA_WXZ 000000018005a6b0 f i libucrtd:output.obj
 0001:000596c0       ?wide_null_string@?$output_processor@_WV?$string_output_adapter@_W@__crt_stdio_output@@V?$standard_base@_WV?$string_output_adapter@_W@__crt_stdio_output@@@2@@__crt_stdio_output@@CAPEA_WXZ 000000018005a6c0 f i libucrtd:output.obj
 0001:000596d0       ?write_character@?$stream_output_adapter@D@__crt_stdio_output@@QEBAXDQEAH@Z 000000018005a6d0 f i libucrtd:output.obj
 0001:00059770       ?write_character@?$stream_output_adapter@_W@__crt_stdio_output@@QEBAX_WQEAH@Z 000000018005a770 f i libucrtd:output.obj
 0001:00059810       ?write_character@?$string_output_adapter@D@__crt_stdio_output@@QEBA_NDQEAH@Z 000000018005a810 f i libucrtd:output.obj
 0001:000598d0       ?write_character@?$string_output_adapter@_W@__crt_stdio_output@@QEBA_N_WQEAH@Z 000000018005a8d0 f i libucrtd:output.obj
 0001:00059990       ?write_stored_string_tchar@?$output_processor@DV?$stream_output_adapter@D@__crt_stdio_output@@V?$format_validation_base@DV?$stream_output_adapter@D@__crt_stdio_output@@@2@@__crt_stdio_output@@AEAA_ND@Z 000000018005a990 f i libucrtd:output.obj
 0001:00059af0       ?write_stored_string_tchar@?$output_processor@DV?$stream_output_adapter@D@__crt_stdio_output@@V?$positional_parameter_base@DV?$stream_output_adapter@D@__crt_stdio_output@@@2@@__crt_stdio_output@@AEAA_ND@Z 000000018005aaf0 f i libucrtd:output.obj
 0001:00059c50       ?write_stored_string_tchar@?$output_processor@DV?$stream_output_adapter@D@__crt_stdio_output@@V?$standard_base@DV?$stream_output_adapter@D@__crt_stdio_output@@@2@@__crt_stdio_output@@AEAA_ND@Z 000000018005ac50 f i libucrtd:output.obj
 0001:00059db0       ?write_stored_string_tchar@?$output_processor@DV?$string_output_adapter@D@__crt_stdio_output@@V?$format_validation_base@DV?$string_output_adapter@D@__crt_stdio_output@@@2@@__crt_stdio_output@@AEAA_ND@Z 000000018005adb0 f i libucrtd:output.obj
 0001:00059f10       ?write_stored_string_tchar@?$output_processor@DV?$string_output_adapter@D@__crt_stdio_output@@V?$positional_parameter_base@DV?$string_output_adapter@D@__crt_stdio_output@@@2@@__crt_stdio_output@@AEAA_ND@Z 000000018005af10 f i libucrtd:output.obj
 0001:0005a070       ?write_stored_string_tchar@?$output_processor@DV?$string_output_adapter@D@__crt_stdio_output@@V?$standard_base@DV?$string_output_adapter@D@__crt_stdio_output@@@2@@__crt_stdio_output@@AEAA_ND@Z 000000018005b070 f i libucrtd:output.obj
 0001:0005a1d0       ?write_stored_string_tchar@?$output_processor@_WV?$stream_output_adapter@_W@__crt_stdio_output@@V?$format_validation_base@_WV?$stream_output_adapter@_W@__crt_stdio_output@@@2@@__crt_stdio_output@@AEAA_N_W@Z 000000018005b1d0 f i libucrtd:output.obj
 0001:0005a310       ?write_stored_string_tchar@?$output_processor@_WV?$stream_output_adapter@_W@__crt_stdio_output@@V?$positional_parameter_base@_WV?$stream_output_adapter@_W@__crt_stdio_output@@@2@@__crt_stdio_output@@AEAA_N_W@Z 000000018005b310 f i libucrtd:output.obj
 0001:0005a450       ?write_stored_string_tchar@?$output_processor@_WV?$stream_output_adapter@_W@__crt_stdio_output@@V?$standard_base@_WV?$stream_output_adapter@_W@__crt_stdio_output@@@2@@__crt_stdio_output@@AEAA_N_W@Z 000000018005b450 f i libucrtd:output.obj
 0001:0005a590       ?write_stored_string_tchar@?$output_processor@_WV?$string_output_adapter@_W@__crt_stdio_output@@V?$format_validation_base@_WV?$string_output_adapter@_W@__crt_stdio_output@@@2@@__crt_stdio_output@@AEAA_N_W@Z 000000018005b590 f i libucrtd:output.obj
 0001:0005a6d0       ?write_stored_string_tchar@?$output_processor@_WV?$string_output_adapter@_W@__crt_stdio_output@@V?$positional_parameter_base@_WV?$string_output_adapter@_W@__crt_stdio_output@@@2@@__crt_stdio_output@@AEAA_N_W@Z 000000018005b6d0 f i libucrtd:output.obj
 0001:0005a810       ?write_stored_string_tchar@?$output_processor@_WV?$string_output_adapter@_W@__crt_stdio_output@@V?$standard_base@_WV?$string_output_adapter@_W@__crt_stdio_output@@@2@@__crt_stdio_output@@AEAA_N_W@Z 000000018005b810 f i libucrtd:output.obj
 0001:0005a950       ?write_string@?$stream_output_adapter@D@__crt_stdio_output@@QEBAXQEBDHQEAH1@Z 000000018005b950 f i libucrtd:output.obj
 0001:0005aa50       ?write_string@?$stream_output_adapter@_W@__crt_stdio_output@@QEBAXQEB_WHQEAH1@Z 000000018005ba50 f i libucrtd:output.obj
 0001:0005ab50       ?write_string@?$string_output_adapter@D@__crt_stdio_output@@QEBAXQEBDHQEAH1@Z 000000018005bb50 f i libucrtd:output.obj
 0001:0005acd0       ?write_string@?$string_output_adapter@_W@__crt_stdio_output@@QEBAXQEB_WHQEAH1@Z 000000018005bcd0 f i libucrtd:output.obj
 0001:0005ae60       __acrt_isleadbyte_l_noupdate 000000018005be60 f i libucrtd:output.obj
 0001:0005ae90       __acrt_locale_changed      000000018005be90 f i libucrtd:output.obj
 0001:0005aec0       __stdio_common_vfprintf    000000018005bec0 f   libucrtd:output.obj
 0001:0005af00       __stdio_common_vfprintf_p  000000018005bf00 f   libucrtd:output.obj
 0001:0005af40       __stdio_common_vfprintf_s  000000018005bf40 f   libucrtd:output.obj
 0001:0005af80       __stdio_common_vfwprintf   000000018005bf80 f   libucrtd:output.obj
 0001:0005afc0       __stdio_common_vfwprintf_p 000000018005bfc0 f   libucrtd:output.obj
 0001:0005b000       __stdio_common_vfwprintf_s 000000018005c000 f   libucrtd:output.obj
 0001:0005b040       __stdio_common_vsnprintf_s 000000018005c040 f   libucrtd:output.obj
 0001:0005b0a0       __stdio_common_vsnwprintf_s 000000018005c0a0 f   libucrtd:output.obj
 0001:0005b100       __stdio_common_vsprintf    000000018005c100 f   libucrtd:output.obj
 0001:0005b150       __stdio_common_vsprintf_p  000000018005c150 f   libucrtd:output.obj
 0001:0005b1a0       __stdio_common_vsprintf_s  000000018005c1a0 f   libucrtd:output.obj
 0001:0005b1f0       __stdio_common_vswprintf   000000018005c1f0 f   libucrtd:output.obj
 0001:0005b240       __stdio_common_vswprintf_p 000000018005c240 f   libucrtd:output.obj
 0001:0005b290       __stdio_common_vswprintf_s 000000018005c290 f   libucrtd:output.obj
 0001:0005b2e0       ??$__crt_fast_decode_pointer@P6AXPEB_W00I_K@Z@@YAP6AXPEB_W00I_K@ZQ6AX000I1@Z@Z 000000018005c2e0 f i libucrtd:invalid_parameter.obj
 0001:0005b320       ??$__crt_fast_encode_pointer@P6AXPEB_W00I_K@Z@@YAP6AXPEB_W00I_K@ZQ6AX000I1@Z@Z 000000018005c320 f i libucrtd:invalid_parameter.obj
 0001:0005b400       ?get_current_state_index@__crt_state_management@@YA_KXZ 000000018005c400 f i libucrtd:invalid_parameter.obj
 0001:0005b410       ?initialize@?$dual_state_global@P6AXPEB_W00I_K@Z@__crt_state_management@@QEAAXQ6AXPEB_W00I_K@Z@Z 000000018005c410 f i libucrtd:invalid_parameter.obj
 0001:0005b460       ?value@?$dual_state_global@P6AXPEB_W00I_K@Z@__crt_state_management@@QEAAAEAP6AXPEB_W00I_K@ZXZ 000000018005c460 f i libucrtd:invalid_parameter.obj
 0001:0005b480       __acrt_call_reportfault    000000018005c480 f   libucrtd:invalid_parameter.obj
 0001:0005b5b0       __acrt_initialize_invalid_parameter_handler 000000018005c5b0 f   libucrtd:invalid_parameter.obj
 0001:0005b5d0       _get_invalid_parameter_handler 000000018005c5d0 f   libucrtd:invalid_parameter.obj
 0001:0005b5f0       _get_thread_local_invalid_parameter_handler 000000018005c5f0 f   libucrtd:invalid_parameter.obj
 0001:0005b620       _invalid_parameter         000000018005c620 f   libucrtd:invalid_parameter.obj
 0001:0005b730       _invalid_parameter_noinfo  000000018005c730 f   libucrtd:invalid_parameter.obj
 0001:0005b760       _invalid_parameter_noinfo_noreturn 000000018005c760 f   libucrtd:invalid_parameter.obj
 0001:0005b7a0       _invoke_watson             000000018005c7a0 f   libucrtd:invalid_parameter.obj
 0001:0005b800       _set_invalid_parameter_handler 000000018005c800 f   libucrtd:invalid_parameter.obj
 0001:0005b850       _set_thread_local_invalid_parameter_handler 000000018005c850 f   libucrtd:invalid_parameter.obj
 0001:0005b890       __acrt_errno_from_os_error 000000018005c890 f   libucrtd:errno.obj
 0001:0005b920       __acrt_errno_map_os_error  000000018005c920 f   libucrtd:errno.obj
 0001:0005b950       __doserrno                 000000018005c950 f   libucrtd:errno.obj
 0001:0005b980       _errno                     000000018005c980 f   libucrtd:errno.obj
 0001:0005b9b0       _get_doserrno              000000018005c9b0 f   libucrtd:errno.obj
 0001:0005ba70       _get_errno                 000000018005ca70 f   libucrtd:errno.obj
 0001:0005bb30       _set_doserrno              000000018005cb30 f   libucrtd:errno.obj
 0001:0005bb70       _set_errno                 000000018005cb70 f   libucrtd:errno.obj
 0001:0005bbb0       _recalloc                  000000018005cbb0 f   libucrtd:recalloc.obj
 0001:0005bc00       _recalloc_base             000000018005cc00 f   libucrtd:recalloc.obj
 0001:0005c360       wcscat_s                   000000018005d360 f   libucrtd:wcscat_s.obj
 0001:0005ca20       wcsncpy_s                  000000018005da20 f   libucrtd:wcsncpy_s.obj
 0001:0005cad0       _seh_filter_dll            000000018005dad0 f   libucrtd:exception_filter.obj
 0001:0005cb00       _seh_filter_exe            000000018005db00 f   libucrtd:exception_filter.obj
 0001:0005cdb0       ??$?B$$A6AXPEAXK0@Z@__crt_fast_encoded_nullptr_t@@QEBAP6AXPEAXK0@ZXZ 000000018005ddb0 f i libucrtd:exit.obj
 0001:0005cdd0       ??$__crt_fast_decode_pointer@P6AXPEAXK0@Z@@YAP6AXPEAXK0@ZQ6AX0K0@Z@Z 000000018005ddd0 f i libucrtd:exit.obj
 0001:0005ce10       ??$__crt_fast_encode_pointer@P6AXPEAXK0@Z@@YAP6AXPEAXK0@ZQ6AX0K0@Z@Z 000000018005de10 f i libucrtd:exit.obj
 0001:0005ce50       ??$__crt_get_proc_address@P6AXI@Z@@YAP6AXI@ZQEAUHINSTANCE__@@QEBD@Z 000000018005de50 f i libucrtd:exit.obj
 0001:0005ce80       ??0?$__crt_unique_handle_t@U__crt_hmodule_traits@@@@QEAA@QEAUHINSTANCE__@@@Z 000000018005de80 f i libucrtd:exit.obj
 0001:0005cea0       ??1?$__crt_unique_handle_t@U__crt_hmodule_traits@@@@QEAA@XZ 000000018005dea0 f i libucrtd:exit.obj
 0001:0005cee0       ?close@?$__crt_unique_handle_t@U__crt_hmodule_traits@@@@QEAAXXZ 000000018005dee0 f i libucrtd:exit.obj
 0001:0005cf20       ?close@__crt_hmodule_traits@@SA_NPEAUHINSTANCE__@@@Z 000000018005df20 f i libucrtd:exit.obj
 0001:0005d0f0       ?get@?$__crt_unique_handle_t@U__crt_hmodule_traits@@@@QEBAPEAUHINSTANCE__@@XZ 000000018005e0f0 f i libucrtd:exit.obj
 0001:0005d100       ?get_address_of@?$__crt_unique_handle_t@U__crt_hmodule_traits@@@@QEAAPEAPEAUHINSTANCE__@@XZ 000000018005e100 f i libucrtd:exit.obj
 0001:0005d110       ?get_invalid_value@__crt_hmodule_traits@@SAPEAUHINSTANCE__@@XZ 000000018005e110 f i libucrtd:exit.obj
 0001:0005d2e0       _Exit                      000000018005e2e0 f   libucrtd:exit.obj
 0001:0005d300       __acrt_initialize_thread_local_exit_callback 000000018005e300 f   libucrtd:exit.obj
 0001:0005d320       _c_exit                    000000018005e320 f   libucrtd:exit.obj
 0001:0005d340       _cexit                     000000018005e340 f   libucrtd:exit.obj
 0001:0005d360       _exit                      000000018005e360 f   libucrtd:exit.obj
 0001:0005d380       _is_c_termination_complete 000000018005e380 f   libucrtd:exit.obj
 0001:0005d3a0       _register_thread_local_exe_atexit_callback 000000018005e3a0 f   libucrtd:exit.obj
 0001:0005d3f0       exit                       000000018005e3f0 f   libucrtd:exit.obj
 0001:0005d410       quick_exit                 000000018005e410 f   libucrtd:exit.obj
 0001:0005d430       ??$?RE@__crt_internal_free_policy@@QEBAXQEBE@Z 000000018005e430 f i libucrtd:argv_parsing.obj
 0001:0005d460       ??$?RPEAD@__crt_internal_free_policy@@QEBAXQEBQEAD@Z 000000018005e460 f i libucrtd:argv_parsing.obj
 0001:0005d490       ??$?RPEA_W@__crt_internal_free_policy@@QEBAXQEBQEA_W@Z 000000018005e490 f i libucrtd:argv_parsing.obj
 0001:0005dbc0       ??$get_module_file_name@$$TAEAY0BAF@DH@?$__crt_char_traits@D@@SAK$$QEA$$TAEAY0BAF@D$$QEAH@Z 000000018005ebc0 f i libucrtd:argv_parsing.obj
 0001:0005dc00       ??$get_module_file_name@$$TAEAY0BAF@_WH@?$__crt_char_traits@_W@@SAK$$QEA$$TAEAY0BAF@_W$$QEAH@Z 000000018005ec00 f i libucrtd:argv_parsing.obj
 0001:0005e5b0       ??$set_program_name@PEAD@?$__crt_char_traits@D@@SAX$$QEAPEAD@Z 000000018005f5b0 f i libucrtd:argv_parsing.obj
 0001:0005e5d0       ??$set_program_name@PEA_W@?$__crt_char_traits@_W@@SAX$$QEAPEA_W@Z 000000018005f5d0 f i libucrtd:argv_parsing.obj
 0001:0005e630       ??0?$__crt_unique_heap_ptr@EU__crt_internal_free_policy@@@@QEAA@QEAE@Z 000000018005f630 f i libucrtd:argv_parsing.obj
 0001:0005e650       ??0?$__crt_unique_heap_ptr@PEADU__crt_internal_free_policy@@@@QEAA@QEAPEAD@Z 000000018005f650 f i libucrtd:argv_parsing.obj
 0001:0005e670       ??0?$__crt_unique_heap_ptr@PEA_WU__crt_internal_free_policy@@@@QEAA@QEAPEA_W@Z 000000018005f670 f i libucrtd:argv_parsing.obj
 0001:0005e690       ??1?$__crt_unique_heap_ptr@EU__crt_internal_free_policy@@@@QEAA@XZ 000000018005f690 f i libucrtd:argv_parsing.obj
 0001:0005e6b0       ??1?$__crt_unique_heap_ptr@PEADU__crt_internal_free_policy@@@@QEAA@XZ 000000018005f6b0 f i libucrtd:argv_parsing.obj
 0001:0005e6d0       ??1?$__crt_unique_heap_ptr@PEA_WU__crt_internal_free_policy@@@@QEAA@XZ 000000018005f6d0 f i libucrtd:argv_parsing.obj
 0001:0005e6f0       ??B?$__crt_unique_heap_ptr@EU__crt_internal_free_policy@@@@QEBA_NXZ 000000018005f6f0 f i libucrtd:argv_parsing.obj
 0001:0005e7d0       ?detach@?$__crt_unique_heap_ptr@EU__crt_internal_free_policy@@@@QEAAPEAEXZ 000000018005f7d0 f i libucrtd:argv_parsing.obj
 0001:0005e800       ?detach@?$__crt_unique_heap_ptr@PEADU__crt_internal_free_policy@@@@QEAAPEAPEADXZ 000000018005f800 f i libucrtd:argv_parsing.obj
 0001:0005e830       ?detach@?$__crt_unique_heap_ptr@PEA_WU__crt_internal_free_policy@@@@QEAAPEAPEA_WXZ 000000018005f830 f i libucrtd:argv_parsing.obj
 0001:0005e8f0       ?get@?$__crt_unique_heap_ptr@EU__crt_internal_free_policy@@@@QEBAPEAEXZ 000000018005f8f0 f i libucrtd:argv_parsing.obj
 0001:0005e900       ?get@?$__crt_unique_heap_ptr@PEADU__crt_internal_free_policy@@@@QEBAPEAPEADXZ 000000018005f900 f i libucrtd:argv_parsing.obj
 0001:0005e910       ?get@?$__crt_unique_heap_ptr@PEA_WU__crt_internal_free_policy@@@@QEBAPEAPEA_WXZ 000000018005f910 f i libucrtd:argv_parsing.obj
 0001:0005e920       ?get_address_of@?$__crt_unique_heap_ptr@PEADU__crt_internal_free_policy@@@@QEAAPEAPEAPEADXZ 000000018005f920 f i libucrtd:argv_parsing.obj
 0001:0005e930       ?get_address_of@?$__crt_unique_heap_ptr@PEA_WU__crt_internal_free_policy@@@@QEAAPEAPEAPEA_WXZ 000000018005f930 f i libucrtd:argv_parsing.obj
 0001:0005e980       ?is_valid@?$__crt_unique_heap_ptr@EU__crt_internal_free_policy@@@@QEBA_NXZ 000000018005f980 f i libucrtd:argv_parsing.obj
 0001:0005e9b0       ?release@?$__crt_unique_heap_ptr@EU__crt_internal_free_policy@@@@QEAAXXZ 000000018005f9b0 f i libucrtd:argv_parsing.obj
 0001:0005e9f0       ?release@?$__crt_unique_heap_ptr@PEADU__crt_internal_free_policy@@@@QEAAXXZ 000000018005f9f0 f i libucrtd:argv_parsing.obj
 0001:0005ea30       ?release@?$__crt_unique_heap_ptr@PEA_WU__crt_internal_free_policy@@@@QEAAXXZ 000000018005fa30 f i libucrtd:argv_parsing.obj
 0001:0005eac0       __acrt_allocate_buffer_for_argv 000000018005fac0 f   libucrtd:argv_parsing.obj
 0001:0005ebe0       _configure_narrow_argv     000000018005fbe0 f   libucrtd:argv_parsing.obj
 0001:0005ec00       _configure_wide_argv       000000018005fc00 f   libucrtd:argv_parsing.obj
 0001:0005ec20       _set_pgmptr                000000018005fc20 f i libucrtd:argv_parsing.obj
 0001:0005ec40       _set_wpgmptr               000000018005fc40 f i libucrtd:argv_parsing.obj
 0001:0005ec54       ??$?R_W@__crt_internal_free_policy@@QEBAXQEB_W@Z 000000018005fc54 f i libucrtd:environment_initialization.obj
 0001:0005f1b8       ??$get_environment_from_os@$$$V@?$__crt_char_traits@D@@SAPEADXZ 00000001800601b8 f i libucrtd:environment_initialization.obj
 0001:0005f1c0       ??$get_environment_from_os@$$$V@?$__crt_char_traits@_W@@SAPEA_WXZ 00000001800601c0 f i libucrtd:environment_initialization.obj
 0001:0005f390       ??$set_variable_in_environment_nolock@PEADH@?$__crt_char_traits@D@@SAH$$QEAPEAD$$QEAH@Z 0000000180060390 f i libucrtd:environment_initialization.obj
 0001:0005f39c       ??$set_variable_in_environment_nolock@PEA_WH@?$__crt_char_traits@_W@@SAH$$QEAPEA_W$$QEAH@Z 000000018006039c f i libucrtd:environment_initialization.obj
 0001:0005f3a8       ??$tcscpy_s@PEADAEB_KAEAPEAD@?$__crt_char_traits@D@@SAH$$QEAPEADAEB_KAEAPEAD@Z 00000001800603a8 f i libucrtd:environment_initialization.obj
 0001:0005f3b8       ??$tcscpy_s@PEA_WAEB_KAEAPEA_W@?$__crt_char_traits@_W@@SAH$$QEAPEA_WAEB_KAEAPEA_W@Z 00000001800603b8 f i libucrtd:environment_initialization.obj
 0001:0005f3c8       ??$tcslen@AEAPEAD@?$__crt_char_traits@D@@SA_KAEAPEAD@Z 00000001800603c8 f i libucrtd:environment_initialization.obj
 0001:0005f3dc       ??$tcslen@AEAPEA_W@?$__crt_char_traits@_W@@SA_KAEAPEA_W@Z 00000001800603dc f i libucrtd:environment_initialization.obj
 0001:0005f3f0       ??$uninitialize@A6AXAEAPEAPEAD@Z@?$dual_state_global@PEAPEAD@__crt_state_management@@QEAAXA6AXAEAPEAPEAD@Z@Z 00000001800603f0 f i libucrtd:environment_initialization.obj
 0001:0005f438       ??$uninitialize@A6AXAEAPEAPEA_W@Z@?$dual_state_global@PEAPEA_W@__crt_state_management@@QEAAXA6AXAEAPEAPEA_W@Z@Z 0000000180060438 f i libucrtd:environment_initialization.obj
 0001:0005f4b8       ??0?$__crt_unique_heap_ptr@_WU__crt_internal_free_policy@@@@QEAA@QEA_W@Z 00000001800604b8 f i libucrtd:environment_initialization.obj
 0001:0005f4c0       ??1?$__crt_unique_heap_ptr@_WU__crt_internal_free_policy@@@@QEAA@XZ 00000001800604c0 f i libucrtd:environment_initialization.obj
 0001:0005f4e0       ??B?$__crt_unique_heap_ptr@PEADU__crt_internal_free_policy@@@@QEBA_NXZ 00000001800604e0 f i libucrtd:environment_initialization.obj
 0001:0005f4ec       ??B?$__crt_unique_heap_ptr@PEA_WU__crt_internal_free_policy@@@@QEBA_NXZ 00000001800604ec f i libucrtd:environment_initialization.obj
 0001:0005f4f8       ??B?$__crt_unique_heap_ptr@_WU__crt_internal_free_policy@@@@QEBA_NXZ 00000001800604f8 f i libucrtd:environment_initialization.obj
 0001:0005f504       ?__crt_compute_required_transform_buffer_count@@YA_KIQEBD@Z 0000000180060504 f i libucrtd:environment_initialization.obj
 0001:0005f52c       ?__crt_compute_required_transform_buffer_count@@YA_KIQEB_W@Z 000000018006052c f i libucrtd:environment_initialization.obj
 0001:0005f55c       ?__crt_transform_string@@YA_KIQEBDQEA_W_K@Z 000000018006055c f i libucrtd:environment_initialization.obj
 0001:0005f580       ?__crt_transform_string@@YA_KIQEB_WQEAD_K@Z 0000000180060580 f i libucrtd:environment_initialization.obj
 0001:0005f5b0       ?detach@?$__crt_unique_heap_ptr@DU__crt_internal_free_policy@@@@QEAAPEADXZ 00000001800605b0 f i libucrtd:environment_initialization.obj
 0001:0005f5b8       ?detach@?$__crt_unique_heap_ptr@_WU__crt_internal_free_policy@@@@QEAAPEA_WXZ 00000001800605b8 f i libucrtd:environment_initialization.obj
 0001:0005f5c0       ?get@?$__crt_unique_heap_ptr@_WU__crt_internal_free_policy@@@@QEBAPEA_WXZ 00000001800605c0 f i libucrtd:environment_initialization.obj
 0001:0005f5f4       ?initialize@?$dual_state_global@PEAPEAD@__crt_state_management@@QEAAXQEAPEAD@Z 00000001800605f4 f i libucrtd:environment_initialization.obj
 0001:0005f628       ?initialize@?$dual_state_global@PEAPEA_W@__crt_state_management@@QEAAXQEAPEA_W@Z 0000000180060628 f i libucrtd:environment_initialization.obj
 0001:0005f65c       ?is_valid@?$__crt_unique_heap_ptr@PEADU__crt_internal_free_policy@@@@QEBA_NXZ 000000018006065c f i libucrtd:environment_initialization.obj
 0001:0005f668       ?is_valid@?$__crt_unique_heap_ptr@PEA_WU__crt_internal_free_policy@@@@QEBA_NXZ 0000000180060668 f i libucrtd:environment_initialization.obj
 0001:0005f674       ?is_valid@?$__crt_unique_heap_ptr@_WU__crt_internal_free_policy@@@@QEBA_NXZ 0000000180060674 f i libucrtd:environment_initialization.obj
 0001:0005f68c       ?release@?$__crt_unique_heap_ptr@_WU__crt_internal_free_policy@@@@QEAAXXZ 000000018006068c f i libucrtd:environment_initialization.obj
 0001:0005f6ac       ?value@?$dual_state_global@PEAPEAD@__crt_state_management@@QEAAAEAPEAPEADXZ 00000001800606ac f i libucrtd:environment_initialization.obj
 0001:0005f6b0       ?value@?$dual_state_global@PEAPEA_W@__crt_state_management@@QEAAAEAPEAPEA_WXZ 00000001800606b0 f i libucrtd:environment_initialization.obj
 0001:0005f6b4       __dcrt_get_or_create_narrow_environment_nolock 00000001800606b4 f   libucrtd:environment_initialization.obj
 0001:0005f6bc       __dcrt_get_or_create_wide_environment_nolock 00000001800606bc f   libucrtd:environment_initialization.obj
 0001:0005f6c4       __dcrt_uninitialize_environments_nolock 00000001800606c4 f   libucrtd:environment_initialization.obj
 0001:0005f6fc       __p__environ               00000001800606fc f   libucrtd:environment_initialization.obj
 0001:0005f704       __p__wenviron              0000000180060704 f   libucrtd:environment_initialization.obj
 0001:0005f70c       _get_initial_narrow_environment 000000018006070c f   libucrtd:environment_initialization.obj
 0001:0005f730       _get_initial_wide_environment 0000000180060730 f   libucrtd:environment_initialization.obj
 0001:0005f754       _initialize_narrow_environment 0000000180060754 f   libucrtd:environment_initialization.obj
 0001:0005f75c       _initialize_wide_environment 000000018006075c f   libucrtd:environment_initialization.obj
 0001:0005f770       ??$?BP6AXXZ@__crt_fast_encoded_nullptr_t@@QEBAPEAP6AXXZXZ 0000000180060770 f i libucrtd:onexit.obj
 0001:0005f790       ??$?RP6AXXZ@__crt_internal_free_policy@@QEBAXQEBQ6AXXZ@Z 0000000180060790 f i libucrtd:onexit.obj
 0001:0005f7c0       ??$?RV<lambda_b0d8f1f77f5878de4f648f281b223c15>@@AEAV<lambda_942beefa13ab35ff55f86422493ffd6a>@@V<lambda_7adb6fc9c0d6a5bd4e2d9c212ec7cdcc>@@@?$__crt_seh_guarded_call@H@@QEAAH$$QEAV<lambda_b0d8f1f77f5878de4f648f281b223c15>@@AEAV<lambda_942beefa13ab35ff55f86422493ffd6a>@@$$QEAV<lambda_7adb6fc9c0d6a5bd4e2d9c212ec7cdcc>@@@Z 00000001800607c0 f i libucrtd:onexit.obj
 0001:0005f810       ??$?RV<lambda_d22e02de4d14401f49897516b29a2b7c>@@AEAV<lambda_e971338317bfa523bb8920b43d823727>@@V<lambda_b0b8599c9027f5b14541fbbd6863d1f1>@@@?$__crt_seh_guarded_call@H@@QEAAH$$QEAV<lambda_d22e02de4d14401f49897516b29a2b7c>@@AEAV<lambda_e971338317bfa523bb8920b43d823727>@@$$QEAV<lambda_b0b8599c9027f5b14541fbbd6863d1f1>@@@Z 0000000180060810 f i libucrtd:onexit.obj
 0001:0005f860       ??$__acrt_lock_and_call@V<lambda_942beefa13ab35ff55f86422493ffd6a>@@@@YAHW4__acrt_lock_id@@$$QEAV<lambda_942beefa13ab35ff55f86422493ffd6a>@@@Z 0000000180060860 f i libucrtd:onexit.obj
 0001:0005f8d0       ??$__acrt_lock_and_call@V<lambda_e971338317bfa523bb8920b43d823727>@@@@YAHW4__acrt_lock_id@@$$QEAV<lambda_e971338317bfa523bb8920b43d823727>@@@Z 00000001800608d0 f i libucrtd:onexit.obj
 0001:0005f940       ??$__crt_fast_encode_pointer@P6AHXZ@@YAP6AHXZQ6AHXZ@Z 0000000180060940 f i libucrtd:onexit.obj
 0001:0005fa50       ??0?$__crt_unique_heap_ptr@P6AXXZU__crt_internal_free_policy@@@@QEAA@QEAP6AXXZ@Z 0000000180060a50 f i libucrtd:onexit.obj
 0001:0005fa70       ??1?$__crt_unique_heap_ptr@P6AXXZU__crt_internal_free_policy@@@@QEAA@XZ 0000000180060a70 f i libucrtd:onexit.obj
 0001:00060040       ?detach@?$__crt_unique_heap_ptr@P6AXXZU__crt_internal_free_policy@@@@QEAAPEAP6AXXZXZ 0000000180061040 f i libucrtd:onexit.obj
 0001:00060070       ?release@?$__crt_unique_heap_ptr@P6AXXZU__crt_internal_free_policy@@@@QEAAXXZ 0000000180061070 f i libucrtd:onexit.obj
 0001:000600b0       _crt_at_quick_exit         00000001800610b0 f   libucrtd:onexit.obj
 0001:000600d0       _crt_atexit                00000001800610d0 f   libucrtd:onexit.obj
 0001:000600f0       _execute_onexit_table      00000001800610f0 f   libucrtd:onexit.obj
 0001:00060120       _initialize_onexit_table   0000000180061120 f   libucrtd:onexit.obj
 0001:000601a0       _register_onexit_function  00000001800611a0 f   libucrtd:onexit.obj
 0001:00060420       ?initialize@?$dual_state_global@PEAU__crt_locale_data@@@__crt_state_management@@QEAAXQEAU__crt_locale_data@@@Z 0000000180061420 f i libucrtd:initialization.obj
 0001:00060470       __acrt_initialize          0000000180061470 f   libucrtd:initialization.obj
 0001:000604a0       __acrt_thread_attach       00000001800614a0 f   libucrtd:initialization.obj
 0001:000604c0       __acrt_thread_detach       00000001800614c0 f   libucrtd:initialization.obj
 0001:000604d0       __acrt_uninitialize        00000001800614d0 f   libucrtd:initialization.obj
 0001:00060500       __acrt_uninitialize_critical 0000000180061500 f   libucrtd:initialization.obj
 0001:00062500       _CrtCheckMemory            0000000180063500 f   libucrtd:debug_heap.obj
 0001:00062690       _CrtDoForAllClientObjects  0000000180063690 f   libucrtd:debug_heap.obj
 0001:000627d0       _CrtDumpMemoryLeaks        00000001800637d0 f   libucrtd:debug_heap.obj
 0001:00062890       _CrtGetAllocHook           0000000180063890 f   libucrtd:debug_heap.obj
 0001:000628a0       _CrtGetDumpClient          00000001800638a0 f   libucrtd:debug_heap.obj
 0001:000628b0       _CrtIsMemoryBlock          00000001800638b0 f   libucrtd:debug_heap.obj
 0001:000629f0       _CrtIsValidHeapPointer     00000001800639f0 f   libucrtd:debug_heap.obj
 0001:00062a30       _CrtIsValidPointer         0000000180063a30 f   libucrtd:debug_heap.obj
 0001:00062a70       _CrtMemCheckpoint          0000000180063a70 f   libucrtd:debug_heap.obj
 0001:00062cf0       _CrtMemDifference          0000000180063cf0 f   libucrtd:debug_heap.obj
 0001:00063050       _CrtMemDumpAllObjectsSince 0000000180064050 f   libucrtd:debug_heap.obj
 0001:000630b0       _CrtMemDumpStatistics      00000001800640b0 f   libucrtd:debug_heap.obj
 0001:00063240       _CrtReportBlockType        0000000180064240 f   libucrtd:debug_heap.obj
 0001:00063270       _CrtSetAllocHook           0000000180064270 f   libucrtd:debug_heap.obj
 0001:000632a0       _CrtSetBreakAlloc          00000001800642a0 f   libucrtd:debug_heap.obj
 0001:000632d0       _CrtSetDbgBlockType        00000001800642d0 f   libucrtd:debug_heap.obj
 0001:00063370       _CrtSetDbgFlag             0000000180064370 f   libucrtd:debug_heap.obj
 0001:000634d0       _CrtSetDumpClient          00000001800644d0 f   libucrtd:debug_heap.obj
 0001:00063500       __acrt_get_locale_data_prefix 0000000180064500 f i libucrtd:debug_heap.obj
 0001:00063520       __p__crtBreakAlloc         0000000180064520 f   libucrtd:debug_heap.obj
 0001:00063530       __p__crtDbgFlag            0000000180064530 f   libucrtd:debug_heap.obj
 0001:00063540       _aligned_free_dbg          0000000180064540 f   libucrtd:debug_heap.obj
 0001:00063630       _aligned_malloc_dbg        0000000180064630 f   libucrtd:debug_heap.obj
 0001:00063670       _aligned_msize_dbg         0000000180064670 f   libucrtd:debug_heap.obj
 0001:00063830       _aligned_offset_malloc_dbg 0000000180064830 f   libucrtd:debug_heap.obj
 0001:00063b20       _aligned_offset_realloc_dbg 0000000180064b20 f   libucrtd:debug_heap.obj
 0001:00063fd0       _aligned_offset_recalloc_dbg 0000000180064fd0 f   libucrtd:debug_heap.obj
 0001:000640f0       _aligned_realloc_dbg       00000001800650f0 f   libucrtd:debug_heap.obj
 0001:00064140       _aligned_recalloc_dbg      0000000180065140 f   libucrtd:debug_heap.obj
 0001:000641a0       _calloc_dbg                00000001800651a0 f   libucrtd:debug_heap.obj
 0001:00064240       _chvalidchk_l              0000000180065240 f i libucrtd:debug_heap.obj
 0001:00064270       _expand_dbg                0000000180065270 f   libucrtd:debug_heap.obj
 0001:000643a0       _free_dbg                  00000001800653a0 f   libucrtd:debug_heap.obj
 0001:00064410       _ischartype_l              0000000180065410 f i libucrtd:debug_heap.obj
 0001:00064470       _malloc_dbg                0000000180065470 f   libucrtd:debug_heap.obj
 0001:000644b0       _msize_dbg                 00000001800654b0 f   libucrtd:debug_heap.obj
 0001:00064650       _realloc_dbg               0000000180065650 f   libucrtd:debug_heap.obj
 0001:000646c0       _recalloc_dbg              00000001800656c0 f   libucrtd:debug_heap.obj
 0001:000647c0       _initterm                  00000001800657c0 f   libucrtd:initterm.obj
 0001:00064830       _initterm_e                0000000180065830 f   libucrtd:initterm.obj
 0001:000648f0       _get_terminate             00000001800658f0 f   libucrtd:terminate.obj
 0001:00064910       set_terminate              0000000180065910 f   libucrtd:terminate.obj
 0001:00064950       terminate                  0000000180065950 f   libucrtd:terminate.obj
 0001:00064e60       strcpy_s                   0000000180065e60 f   libucrtd:strcpy_s.obj
 0001:000654f0       strcat_s                   00000001800664f0 f   libucrtd:strcat_s.obj
 0001:000662e0       _makepath                  00000001800672e0 f   libucrtd:makepath.obj
 0001:00066330       _makepath_s                0000000180067330 f   libucrtd:makepath.obj
 0001:00066380       _wmakepath                 0000000180067380 f   libucrtd:makepath.obj
 0001:000663d0       _wmakepath_s               00000001800673d0 f   libucrtd:makepath.obj
 0001:000688a0       ??$tcsncpy_s@AEAPEAD_KAEAPEBDAEB_K@?$__crt_char_traits@D@@SAHAEAPEAD$$QEA_KAEAPEBDAEB_K@Z 00000001800698a0 f i libucrtd:splitpath.obj
 0001:000688f0       ??$tcsncpy_s@AEAPEAD_KAEAPEBDH@?$__crt_char_traits@D@@SAHAEAPEAD$$QEA_KAEAPEBD$$QEAH@Z 00000001800698f0 f i libucrtd:splitpath.obj
 0001:00068940       ??$tcsncpy_s@AEAPEA_W_KAEAPEB_WAEB_K@?$__crt_char_traits@_W@@SAHAEAPEA_W$$QEA_KAEAPEB_WAEB_K@Z 0000000180069940 f i libucrtd:splitpath.obj
 0001:00068990       ??$tcsncpy_s@AEAPEA_W_KAEAPEB_WH@?$__crt_char_traits@_W@@SAHAEAPEA_W$$QEA_KAEAPEB_W$$QEAH@Z 0000000180069990 f i libucrtd:splitpath.obj
 0001:00068bf0       _splitpath                 0000000180069bf0 f   libucrtd:splitpath.obj
 0001:00068c30       _splitpath_s               0000000180069c30 f   libucrtd:splitpath.obj
 0001:00068cd0       _wsplitpath                0000000180069cd0 f   libucrtd:splitpath.obj
 0001:00068d10       _wsplitpath_s              0000000180069d10 f   libucrtd:splitpath.obj
 0001:00068db0       ??$?B$$A6AH_K@Z@__crt_fast_encoded_nullptr_t@@QEBAP6AH_K@ZXZ 0000000180069db0 f i libucrtd:new_handler.obj
 0001:00068dd0       ??$__crt_fast_decode_pointer@P6AH_K@Z@@YAP6AH_K@ZQ6AH0@Z@Z 0000000180069dd0 f i libucrtd:new_handler.obj
 0001:00068e10       ??$__crt_fast_encode_pointer@P6AH_K@Z@@YAP6AH_K@ZQ6AH0@Z@Z 0000000180069e10 f i libucrtd:new_handler.obj
 0001:00068e50       ?_set_new_handler@@YAP6AH_K@ZH@Z 0000000180069e50 f   libucrtd:new_handler.obj
 0001:00068ec0       ?initialize@?$dual_state_global@P6AH_K@Z@__crt_state_management@@QEAAXQ6AH_K@Z@Z 0000000180069ec0 f i libucrtd:new_handler.obj
 0001:00068f10       ?value@?$dual_state_global@P6AH_K@Z@__crt_state_management@@QEAAAEAP6AH_K@ZXZ 0000000180069f10 f i libucrtd:new_handler.obj
 0001:00068f30       __acrt_initialize_new_handler 0000000180069f30 f   libucrtd:new_handler.obj
 0001:00068f50       _callnewh                  0000000180069f50 f   libucrtd:new_handler.obj
 0001:00068fa0       _query_new_handler         0000000180069fa0 f   libucrtd:new_handler.obj
 0001:00068fe0       _set_new_handler           0000000180069fe0 f   libucrtd:new_handler.obj
 0001:00069060       strcmp                     000000018006a060 f   libucrtd:strcmp.obj
 0001:000690e0       strlen                     000000018006a0e0 f   libucrtd:strlen.obj
 0001:00069190       _set_abort_behavior        000000018006a190 f   libucrtd:abort.obj
 0001:000691d0       abort                      000000018006a1d0 f   libucrtd:abort.obj
 0001:00069250       wcsncmp                    000000018006a250 f   libucrtd:wcsncmp.obj
 0001:000692e0       ??$is_overflow_condition@K@__crt_strtox@@YA_NIK@Z 000000018006a2e0 f i libucrtd:atox.obj
 0001:00069350       ??$is_overflow_condition@_K@__crt_strtox@@YA_NI_K@Z 000000018006a350 f i libucrtd:atox.obj
 0001:000693c0       ??$make_c_string_character_source@D$$T@__crt_strtox@@YA?AV?$c_string_character_source@D@0@QEBD$$T@Z 000000018006a3c0 f i libucrtd:atox.obj
 0001:00069400       ??$make_c_string_character_source@_W$$T@__crt_strtox@@YA?AV?$c_string_character_source@_W@0@QEB_W$$T@Z 000000018006a400 f i libucrtd:atox.obj
 0001:00069440       ??$parse_integer@KV?$c_string_character_source@D@__crt_strtox@@@__crt_strtox@@YAKQEAU__crt_locale_pointers@@V?$c_string_character_source@D@0@H_N@Z 000000018006a440 f i libucrtd:atox.obj
 0001:000698d0       ??$parse_integer@KV?$c_string_character_source@_W@__crt_strtox@@@__crt_strtox@@YAKQEAU__crt_locale_pointers@@V?$c_string_character_source@_W@0@H_N@Z 000000018006a8d0 f i libucrtd:atox.obj
 0001:00069d80       ??$parse_integer@_KV?$c_string_character_source@D@__crt_strtox@@@__crt_strtox@@YA_KQEAU__crt_locale_pointers@@V?$c_string_character_source@D@0@H_N@Z 000000018006ad80 f i libucrtd:atox.obj
 0001:0006a2a0       ??$parse_integer@_KV?$c_string_character_source@_W@__crt_strtox@@@__crt_strtox@@YA_KQEAU__crt_locale_pointers@@V?$c_string_character_source@_W@0@H_N@Z 000000018006b2a0 f i libucrtd:atox.obj
 0001:0006a7c0       ??$parse_integer_from_string@JD$$T@__crt_strtox@@YAJQEBD$$THQEAU__crt_locale_pointers@@@Z 000000018006b7c0 f i libucrtd:atox.obj
 0001:0006a810       ??$parse_integer_from_string@J_W$$T@__crt_strtox@@YAJQEB_W$$THQEAU__crt_locale_pointers@@@Z 000000018006b810 f i libucrtd:atox.obj
 0001:0006a860       ??$parse_integer_from_string@_JD$$T@__crt_strtox@@YA_JQEBD$$THQEAU__crt_locale_pointers@@@Z 000000018006b860 f i libucrtd:atox.obj
 0001:0006a8b0       ??$parse_integer_from_string@_J_W$$T@__crt_strtox@@YA_JQEB_W$$THQEAU__crt_locale_pointers@@@Z 000000018006b8b0 f i libucrtd:atox.obj
 0001:0006a900       ??0?$c_string_character_source@D@__crt_strtox@@QEAA@QEBDQEAPEBD@Z 000000018006b900 f i libucrtd:atox.obj
 0001:0006a950       ??0?$c_string_character_source@_W@__crt_strtox@@QEAA@QEB_WQEAPEB_W@Z 000000018006b950 f i libucrtd:atox.obj
 0001:0006a9a0       ??1?$c_string_character_source@D@__crt_strtox@@QEAA@XZ 000000018006b9a0 f i libucrtd:atox.obj
 0001:0006a9d0       ??1?$c_string_character_source@_W@__crt_strtox@@QEAA@XZ 000000018006b9d0 f i libucrtd:atox.obj
 0001:0006aa00       ?get@?$c_string_character_source@D@__crt_strtox@@QEAADXZ 000000018006ba00 f i libucrtd:atox.obj
 0001:0006aa40       ?get@?$c_string_character_source@_W@__crt_strtox@@QEAA_WXZ 000000018006ba40 f i libucrtd:atox.obj
 0001:0006aa80       ?is_space@__crt_strtox@@YA_NDQEAU__crt_locale_pointers@@@Z 000000018006ba80 f i libucrtd:atox.obj
 0001:0006aad0       ?is_space@__crt_strtox@@YA_N_WPEAU__crt_locale_pointers@@@Z 000000018006bad0 f i libucrtd:atox.obj
 0001:0006ab10       ?maximum_signed_value@__crt_strtox@@YAJK@Z 000000018006bb10 f i libucrtd:atox.obj
 0001:0006ab20       ?maximum_signed_value@__crt_strtox@@YA_J_K@Z 000000018006bb20 f i libucrtd:atox.obj
 0001:0006ab30       ?minimum_signed_value@__crt_strtox@@YAJK@Z 000000018006bb30 f i libucrtd:atox.obj
 0001:0006ab40       ?minimum_signed_value@__crt_strtox@@YA_J_K@Z 000000018006bb40 f i libucrtd:atox.obj
 0001:0006ab50       ?parse_digit@__crt_strtox@@YAID@Z 000000018006bb50 f i libucrtd:atox.obj
 0001:0006abc0       ?parse_digit@__crt_strtox@@YAI_W@Z 000000018006bbc0 f i libucrtd:atox.obj
 0001:0006ac50       ?restore_state@?$c_string_character_source@D@__crt_strtox@@QEAA_NQEBD@Z 000000018006bc50 f i libucrtd:atox.obj
 0001:0006ac70       ?restore_state@?$c_string_character_source@_W@__crt_strtox@@QEAA_NQEB_W@Z 000000018006bc70 f i libucrtd:atox.obj
 0001:0006ac90       ?save_state@?$c_string_character_source@D@__crt_strtox@@QEBAPEBDXZ 000000018006bc90 f i libucrtd:atox.obj
 0001:0006aca0       ?save_state@?$c_string_character_source@_W@__crt_strtox@@QEBAPEB_WXZ 000000018006bca0 f i libucrtd:atox.obj
 0001:0006acb0       ?unget@?$c_string_character_source@D@__crt_strtox@@QEAAXD@Z 000000018006bcb0 f i libucrtd:atox.obj
 0001:0006ad90       ?unget@?$c_string_character_source@_W@__crt_strtox@@QEAAX_W@Z 000000018006bd90 f i libucrtd:atox.obj
 0001:0006ae70       ?validate@?$c_string_character_source@D@__crt_strtox@@QEBA_NXZ 000000018006be70 f i libucrtd:atox.obj
 0001:0006af30       ?validate@?$c_string_character_source@_W@__crt_strtox@@QEBA_NXZ 000000018006bf30 f i libucrtd:atox.obj
 0001:0006aff0       ?wide_character_to_digit@__crt_strtox@@YAH_W@Z 000000018006bff0 f i libucrtd:atox.obj
 0001:0006b360       _atoi64                    000000018006c360 f   libucrtd:atox.obj
 0001:0006b390       _atoi64_l                  000000018006c390 f   libucrtd:atox.obj
 0001:0006b3c0       _atoi_l                    000000018006c3c0 f   libucrtd:atox.obj
 0001:0006b3f0       _atol_l                    000000018006c3f0 f   libucrtd:atox.obj
 0001:0006b420       _atoll_l                   000000018006c420 f   libucrtd:atox.obj
 0001:0006b450       _wtoi                      000000018006c450 f   libucrtd:atox.obj
 0001:0006b480       _wtoi64                    000000018006c480 f   libucrtd:atox.obj
 0001:0006b4b0       _wtoi64_l                  000000018006c4b0 f   libucrtd:atox.obj
 0001:0006b4e0       _wtoi_l                    000000018006c4e0 f   libucrtd:atox.obj
 0001:0006b510       _wtol                      000000018006c510 f   libucrtd:atox.obj
 0001:0006b540       _wtol_l                    000000018006c540 f   libucrtd:atox.obj
 0001:0006b570       _wtoll                     000000018006c570 f   libucrtd:atox.obj
 0001:0006b5a0       _wtoll_l                   000000018006c5a0 f   libucrtd:atox.obj
 0001:0006b5d0       atoi                       000000018006c5d0 f   libucrtd:atox.obj
 0001:0006b600       atol                       000000018006c600 f   libucrtd:atox.obj
 0001:0006b630       atoll                      000000018006c630 f   libucrtd:atox.obj
 0001:0006b670       strncmp                    000000018006c670 f   libucrtd:strncmp.obj
 0001:0006b6f0       _CrtGetReportHook          000000018006c6f0 f   libucrtd:dbgrptt.obj
 0001:0006b700       _CrtSetReportFile          000000018006c700 f   libucrtd:dbgrptt.obj
 0001:0006b860       _CrtSetReportHook          000000018006c860 f   libucrtd:dbgrptt.obj
 0001:0006b890       _CrtSetReportMode          000000018006c890 f   libucrtd:dbgrptt.obj
 0001:0006ba40       _VCrtDbgReportA            000000018006ca40 f   libucrtd:dbgrptt.obj
 0001:0006c460       _VCrtDbgReportW            000000018006d460 f   libucrtd:dbgrptt.obj
 0001:0006d000       _snprintf_s                000000018006e000 f i libucrtd:dbgrptt.obj
 0001:0006d070       _vsnprintf_s               000000018006e070 f i libucrtd:dbgrptt.obj
 0001:0006d0c0       _vsnprintf_s_l             000000018006e0c0 f i libucrtd:dbgrptt.obj
 0001:0006d140       _vsnwprintf_s              000000018006e140 f i libucrtd:dbgrptt.obj
 0001:0006d570       ??$message_box@$$TAEAPEBDAEAPEBDAEAI@?$__crt_char_traits@D@@SAH$$QEA$$TAEAPEBD1AEAI@Z 000000018006e570 f i libucrtd:crtmbox.obj
 0001:0006d5c0       ??$message_box@$$TAEAPEB_WAEAPEB_WAEAI@?$__crt_char_traits@_W@@SAH$$QEA$$TAEAPEB_W1AEAI@Z 000000018006e5c0 f i libucrtd:crtmbox.obj
 0001:0006d610       ??$message_box@$$TAEBQEBDAEBQEBDK@?$__crt_char_traits@D@@SAH$$QEA$$TAEBQEBD1$$QEAK@Z 000000018006e610 f i libucrtd:crtmbox.obj
 0001:0006d660       ??$message_box@$$TAEBQEB_WAEBQEB_WK@?$__crt_char_traits@_W@@SAH$$QEA$$TAEBQEB_W1$$QEAK@Z 000000018006e660 f i libucrtd:crtmbox.obj
 0001:0006d6b0       ??$message_box@PEAUHWND__@@AEBQEBDAEBQEBDAEBI@?$__crt_char_traits@D@@SAH$$QEAPEAUHWND__@@AEBQEBD1AEBI@Z 000000018006e6b0 f i libucrtd:crtmbox.obj
 0001:0006d700       ??$message_box@PEAUHWND__@@AEBQEB_WAEBQEB_WAEBI@?$__crt_char_traits@_W@@SAH$$QEAPEAUHWND__@@AEBQEB_W1AEBI@Z 000000018006e700 f i libucrtd:crtmbox.obj
 0001:0006d810       ??$output_debug_string@AEBQEBD@?$__crt_char_traits@D@@SAXAEBQEBD@Z 000000018006e810 f i libucrtd:crtmbox.obj
 0001:0006d830       ??$output_debug_string@AEBQEB_W@?$__crt_char_traits@_W@@SAXAEBQEB_W@Z 000000018006e830 f i libucrtd:crtmbox.obj
 0001:0006d850       ??0?$__crt_unique_handle_t@U__crt_handle_traits@@@@QEAA@QEAX@Z 000000018006e850 f i libucrtd:crtmbox.obj
 0001:0006d870       ??1?$__crt_unique_handle_t@U__crt_handle_traits@@@@QEAA@XZ 000000018006e870 f i libucrtd:crtmbox.obj
 0001:0006d890       ??B?$__crt_unique_handle_t@U__crt_handle_traits@@@@QEBA_NXZ 000000018006e890 f i libucrtd:crtmbox.obj
 0001:0006d8b0       ?close@?$__crt_unique_handle_t@U__crt_handle_traits@@@@QEAAXXZ 000000018006e8b0 f i libucrtd:crtmbox.obj
 0001:0006d8f0       ?close@__crt_handle_traits@@SA_NPEAX@Z 000000018006e8f0 f i libucrtd:crtmbox.obj
 0001:0006d930       ?get@?$__crt_unique_handle_t@U__crt_handle_traits@@@@QEBAPEAXXZ 000000018006e930 f i libucrtd:crtmbox.obj
 0001:0006d940       ?get_invalid_value@__crt_handle_traits@@SAPEAXXZ 000000018006e940 f i libucrtd:crtmbox.obj
 0001:0006d950       ?is_valid@?$__crt_unique_handle_t@U__crt_handle_traits@@@@QEBA_NXZ 000000018006e950 f i libucrtd:crtmbox.obj
 0001:0006d990       __acrt_show_narrow_message_box 000000018006e990 f   libucrtd:crtmbox.obj
 0001:0006d9c0       __acrt_show_wide_message_box 000000018006e9c0 f   libucrtd:crtmbox.obj
 0001:0006d9f0       __acrt_initialize_locks    000000018006e9f0 f   libucrtd:locks.obj
 0001:0006da60       __acrt_lock                000000018006ea60 f   libucrtd:locks.obj
 0001:0006da90       __acrt_uninitialize_locks  000000018006ea90 f   libucrtd:locks.obj
 0001:0006daf0       __acrt_unlock              000000018006eaf0 f   libucrtd:locks.obj
 0001:0006db20       _lock_locales              000000018006eb20 f   libucrtd:locks.obj
 0001:0006db40       _unlock_locales            000000018006eb40 f   libucrtd:locks.obj
 0001:0006db60       ??$?B$$A6AXH@Z@__crt_fast_encoded_nullptr_t@@QEBAP6AXH@ZXZ 000000018006eb60 f i libucrtd:signal.obj
 0001:0006db80       ??$?RV<lambda_c36588078e9f5dfd39652860aa6b3aaf>@@AEAV<lambda_ec61778202f4f5fc7e7711acc23c3bca>@@V<lambda_dc9d2797ccde5d239b4a0efae8ebd7db>@@@?$__crt_seh_guarded_call@P6AXH@Z@@QEAAP6AXH@Z$$QEAV<lambda_c36588078e9f5dfd39652860aa6b3aaf>@@AEAV<lambda_ec61778202f4f5fc7e7711acc23c3bca>@@$$QEAV<lambda_dc9d2797ccde5d239b4a0efae8ebd7db>@@@Z 000000018006eb80 f i libucrtd:signal.obj
 0001:0006dbd0       ??$__acrt_lock_and_call@V<lambda_ec61778202f4f5fc7e7711acc23c3bca>@@@@YAP6AXH@ZW4__acrt_lock_id@@$$QEAV<lambda_ec61778202f4f5fc7e7711acc23c3bca>@@@Z 000000018006ebd0 f i libucrtd:signal.obj
 0001:0006dc40       ??$__crt_fast_decode_pointer@P6AXH@Z@@YAP6AXH@ZQ6AXH@Z@Z 000000018006ec40 f i libucrtd:signal.obj
 0001:0006dc80       ??$__crt_fast_encode_pointer@P6AXH@Z@@YAP6AXH@ZQ6AXH@Z@Z 000000018006ec80 f i libucrtd:signal.obj
 0001:0006df00       ?initialize@?$dual_state_global@P6AXH@Z@__crt_state_management@@QEAAXQ6AXH@Z@Z 000000018006ef00 f i libucrtd:signal.obj
 0001:0006e010       ?value@?$dual_state_global@P6AXH@Z@__crt_state_management@@QEAAAEAP6AXH@ZXZ 000000018006f010 f i libucrtd:signal.obj
 0001:0006e030       __acrt_get_sigabrt_handler 000000018006f030 f   libucrtd:signal.obj
 0001:0006e050       __acrt_initialize_signal_handlers 000000018006f050 f   libucrtd:signal.obj
 0001:0006e0b0       __fpecode                  000000018006f0b0 f   libucrtd:signal.obj
 0001:0006e0d0       __pxcptinfoptrs            000000018006f0d0 f   libucrtd:signal.obj
 0001:0006e0f0       raise                      000000018006f0f0 f   libucrtd:signal.obj
 0001:0006e5d0       signal                     000000018006f5d0 f   libucrtd:signal.obj
 0001:0006e8c0       _CrtGetDebugFillThreshold  000000018006f8c0 f   libucrtd:debug_fill_threshold.obj
 0001:0006e8d0       _CrtSetDebugFillThreshold  000000018006f8d0 f   libucrtd:debug_fill_threshold.obj
 0001:0006e920       __isascii                  000000018006f920 f i libucrtd:_ctype.obj
 0001:0006e950       __iscsym                   000000018006f950 f i libucrtd:_ctype.obj
 0001:0006e990       __iscsymf                  000000018006f990 f i libucrtd:_ctype.obj
 0001:0006e9d0       __toascii                  000000018006f9d0 f i libucrtd:_ctype.obj
 0001:0006e9e0       _isalnum_l                 000000018006f9e0 f i libucrtd:_ctype.obj
 0001:0006ea30       _isalpha_l                 000000018006fa30 f i libucrtd:_ctype.obj
 0001:0006ea80       _isblank_l                 000000018006fa80 f i libucrtd:_ctype.obj
 0001:0006eaf0       _iscntrl_l                 000000018006faf0 f i libucrtd:_ctype.obj
 0001:0006eb40       _iscsym_l                  000000018006fb40 f i libucrtd:_ctype.obj
 0001:0006eb90       _iscsymf_l                 000000018006fb90 f i libucrtd:_ctype.obj
 0001:0006ebe0       _isdigit_l                 000000018006fbe0 f i libucrtd:_ctype.obj
 0001:0006ec30       _isgraph_l                 000000018006fc30 f i libucrtd:_ctype.obj
 0001:0006ec80       _islower_l                 000000018006fc80 f i libucrtd:_ctype.obj
 0001:0006ecd0       _isprint_l                 000000018006fcd0 f i libucrtd:_ctype.obj
 0001:0006ed20       _ispunct_l                 000000018006fd20 f i libucrtd:_ctype.obj
 0001:0006ed70       _isspace_l                 000000018006fd70 f i libucrtd:_ctype.obj
 0001:0006edc0       _isupper_l                 000000018006fdc0 f i libucrtd:_ctype.obj
 0001:0006ee10       _isxdigit_l                000000018006fe10 f i libucrtd:_ctype.obj
 0001:0006ee60       isalnum                    000000018006fe60 f i libucrtd:_ctype.obj
 0001:0006eea0       isalpha                    000000018006fea0 f i libucrtd:_ctype.obj
 0001:0006eee0       isblank                    000000018006fee0 f i libucrtd:_ctype.obj
 0001:0006ef40       iscntrl                    000000018006ff40 f i libucrtd:_ctype.obj
 0001:0006ef80       isdigit                    000000018006ff80 f i libucrtd:_ctype.obj
 0001:0006efc0       isgraph                    000000018006ffc0 f i libucrtd:_ctype.obj
 0001:0006f000       islower                    0000000180070000 f i libucrtd:_ctype.obj
 0001:0006f040       isprint                    0000000180070040 f i libucrtd:_ctype.obj
 0001:0006f080       ispunct                    0000000180070080 f i libucrtd:_ctype.obj
 0001:0006f0c0       isspace                    00000001800700c0 f i libucrtd:_ctype.obj
 0001:0006f100       isupper                    0000000180070100 f i libucrtd:_ctype.obj
 0001:0006f140       isxdigit                   0000000180070140 f i libucrtd:_ctype.obj
 0001:0006f8a0       _tolower                   00000001800708a0 f   libucrtd:tolower_toupper.obj
 0001:0006f8b0       _tolower_l                 00000001800708b0 f   libucrtd:tolower_toupper.obj
 0001:0006f8e0       _toupper                   00000001800708e0 f   libucrtd:tolower_toupper.obj
 0001:0006f8f0       _toupper_l                 00000001800708f0 f   libucrtd:tolower_toupper.obj
 0001:0006f920       tolower                    0000000180070920 f   libucrtd:tolower_toupper.obj
 0001:0006f980       toupper                    0000000180070980 f   libucrtd:tolower_toupper.obj
 0001:0006f9e0       ??$make_c_string_character_source@DPEAPEAD@__crt_strtox@@YA?AV?$c_string_character_source@D@0@QEBDQEAPEAD@Z 00000001800709e0 f i libucrtd:strtox.obj
 0001:0006fa20       ??$make_c_string_character_source@_WPEAPEA_W@__crt_strtox@@YA?AV?$c_string_character_source@_W@0@QEB_WQEAPEA_W@Z 0000000180070a20 f i libucrtd:strtox.obj
 0001:0006fa60       ??$parse_integer_from_string@JDPEAPEAD@__crt_strtox@@YAJQEBDQEAPEADHQEAU__crt_locale_pointers@@@Z 0000000180070a60 f i libucrtd:strtox.obj
 0001:0006fab0       ??$parse_integer_from_string@J_WPEAPEA_W@__crt_strtox@@YAJQEB_WQEAPEA_WHQEAU__crt_locale_pointers@@@Z 0000000180070ab0 f i libucrtd:strtox.obj
 0001:0006fb00       ??$parse_integer_from_string@KDPEAPEAD@__crt_strtox@@YAKQEBDQEAPEADHQEAU__crt_locale_pointers@@@Z 0000000180070b00 f i libucrtd:strtox.obj
 0001:0006fb50       ??$parse_integer_from_string@K_WPEAPEA_W@__crt_strtox@@YAKQEB_WQEAPEA_WHQEAU__crt_locale_pointers@@@Z 0000000180070b50 f i libucrtd:strtox.obj
 0001:0006fba0       ??$parse_integer_from_string@_JDPEAPEAD@__crt_strtox@@YA_JQEBDQEAPEADHQEAU__crt_locale_pointers@@@Z 0000000180070ba0 f i libucrtd:strtox.obj
 0001:0006fbf0       ??$parse_integer_from_string@_J_WPEAPEA_W@__crt_strtox@@YA_JQEB_WQEAPEA_WHQEAU__crt_locale_pointers@@@Z 0000000180070bf0 f i libucrtd:strtox.obj
 0001:0006fc40       ??$parse_integer_from_string@_KDPEAPEAD@__crt_strtox@@YA_KQEBDQEAPEADHQEAU__crt_locale_pointers@@@Z 0000000180070c40 f i libucrtd:strtox.obj
 0001:0006fc90       ??$parse_integer_from_string@_K_WPEAPEA_W@__crt_strtox@@YA_KQEB_WQEAPEA_WHQEAU__crt_locale_pointers@@@Z 0000000180070c90 f i libucrtd:strtox.obj
 0001:0006fce0       _strtoi64                  0000000180070ce0 f   libucrtd:strtox.obj
 0001:0006fd10       _strtoi64_l                0000000180070d10 f   libucrtd:strtox.obj
 0001:0006fd50       _strtoimax_l               0000000180070d50 f   libucrtd:strtox.obj
 0001:0006fd90       _strtol_l                  0000000180070d90 f   libucrtd:strtox.obj
 0001:0006fdd0       _strtoll_l                 0000000180070dd0 f   libucrtd:strtox.obj
 0001:0006fe10       _strtoui64                 0000000180070e10 f   libucrtd:strtox.obj
 0001:0006fe40       _strtoui64_l               0000000180070e40 f   libucrtd:strtox.obj
 0001:0006fe80       _strtoul_l                 0000000180070e80 f   libucrtd:strtox.obj
 0001:0006fec0       _strtoull_l                0000000180070ec0 f   libucrtd:strtox.obj
 0001:0006ff00       _strtoumax_l               0000000180070f00 f   libucrtd:strtox.obj
 0001:0006ff40       _wcstoi64                  0000000180070f40 f   libucrtd:strtox.obj
 0001:0006ff70       _wcstoi64_l                0000000180070f70 f   libucrtd:strtox.obj
 0001:0006ffb0       _wcstoimax_l               0000000180070fb0 f   libucrtd:strtox.obj
 0001:0006fff0       _wcstol_l                  0000000180070ff0 f   libucrtd:strtox.obj
 0001:00070030       _wcstoll_l                 0000000180071030 f   libucrtd:strtox.obj
 0001:00070070       _wcstoui64                 0000000180071070 f   libucrtd:strtox.obj
 0001:000700a0       _wcstoui64_l               00000001800710a0 f   libucrtd:strtox.obj
 0001:000700e0       _wcstoul_l                 00000001800710e0 f   libucrtd:strtox.obj
 0001:00070120       _wcstoull_l                0000000180071120 f   libucrtd:strtox.obj
 0001:00070160       _wcstoumax_l               0000000180071160 f   libucrtd:strtox.obj
 0001:000701a0       strtoimax                  00000001800711a0 f   libucrtd:strtox.obj
 0001:000701d0       strtol                     00000001800711d0 f   libucrtd:strtox.obj
 0001:00070200       strtoll                    0000000180071200 f   libucrtd:strtox.obj
 0001:00070230       strtoul                    0000000180071230 f   libucrtd:strtox.obj
 0001:00070260       strtoull                   0000000180071260 f   libucrtd:strtox.obj
 0001:00070290       strtoumax                  0000000180071290 f   libucrtd:strtox.obj
 0001:000702c0       wcstoimax                  00000001800712c0 f   libucrtd:strtox.obj
 0001:000702f0       wcstol                     00000001800712f0 f   libucrtd:strtox.obj
 0001:00070320       wcstoll                    0000000180071320 f   libucrtd:strtox.obj
 0001:00070350       wcstoul                    0000000180071350 f   libucrtd:strtox.obj
 0001:00070380       wcstoull                   0000000180071380 f   libucrtd:strtox.obj
 0001:000703b0       wcstoumax                  00000001800713b0 f   libucrtd:strtox.obj
 0001:000703e0       _mbtowc_l                  00000001800713e0 f   libucrtd:mbtowc.obj
 0001:00070710       mbtowc                     0000000180071710 f   libucrtd:mbtowc.obj
 0001:00070740       _wctomb_l                  0000000180071740 f   libucrtd:wctomb.obj
 0001:00070800       _wctomb_s_l                0000000180071800 f   libucrtd:wctomb.obj
 0001:00070ca0       wctomb                     0000000180071ca0 f   libucrtd:wctomb.obj
 0001:00070d00       wctomb_s                   0000000180071d00 f   libucrtd:wctomb.obj
 0001:00071990       ??1?$__crt_simd_cleanup_guard@$00@@QEAA@XZ 0000000180072990 f i libucrtd:strnlen.obj
 0001:000719a0       ??1?$__crt_simd_cleanup_guard@$0A@@@QEAA@XZ 00000001800729a0 f i libucrtd:strnlen.obj
 0001:000719b0       ?compare_equals@?$__crt_simd_traits@$00E@@SA?AT__m256i@@T2@0@Z 00000001800729b0 f i libucrtd:strnlen.obj
 0001:000719f0       ?compare_equals@?$__crt_simd_traits@$00G@@SA?AT__m256i@@T2@0@Z 00000001800729f0 f i libucrtd:strnlen.obj
 0001:00071a30       ?compare_equals@?$__crt_simd_traits@$0A@E@@SA?AT__m128i@@T2@0@Z 0000000180072a30 f i libucrtd:strnlen.obj
 0001:00071a60       ?compare_equals@?$__crt_simd_traits@$0A@G@@SA?AT__m128i@@T2@0@Z 0000000180072a60 f i libucrtd:strnlen.obj
 0001:00071a90       ?compute_byte_mask@?$__crt_simd_pack_traits@$00@@SAHT__m256i@@@Z 0000000180072a90 f i libucrtd:strnlen.obj
 0001:00071ab0       ?compute_byte_mask@?$__crt_simd_pack_traits@$0A@@@SAHT__m128i@@@Z 0000000180072ab0 f i libucrtd:strnlen.obj
 0001:00071ad0       ?get_zero_pack@?$__crt_simd_pack_traits@$00@@SA?AT__m256i@@XZ 0000000180072ad0 f i libucrtd:strnlen.obj
 0001:00071b00       ?get_zero_pack@?$__crt_simd_pack_traits@$0A@@@SA?AT__m128i@@XZ 0000000180072b00 f i libucrtd:strnlen.obj
 0001:00071b20       strnlen                    0000000180072b20 f   libucrtd:strnlen.obj
 0001:00071b50       wcsnlen                    0000000180072b50 f   libucrtd:strnlen.obj
 0001:00071b80       ??$?RU__acrt_ptd@@@__crt_internal_free_policy@@QEBAXQEBU__acrt_ptd@@@Z 0000000180072b80 f i libucrtd:per_thread_data.obj
 0001:00071bb0       ??$?RV<lambda_5e887d1dcbef67a5eb4283622ba103bf>@@AEAV<lambda_4466841279450cc726390878d4a41900>@@V<lambda_341c25c0346d94847f1f3c463c57e077>@@@?$__crt_seh_guarded_call@X@@QEAAX$$QEAV<lambda_5e887d1dcbef67a5eb4283622ba103bf>@@AEAV<lambda_4466841279450cc726390878d4a41900>@@$$QEAV<lambda_341c25c0346d94847f1f3c463c57e077>@@@Z 0000000180072bb0 f i libucrtd:per_thread_data.obj
 0001:00071bf0       ??$?RV<lambda_72d1df2b273a38828b1ce30cbf4cdab5>@@AEAV<lambda_876a65b173b8412d3a47c70a915b0cf4>@@V<lambda_41932305e351933ebe8f8be3ed8bb5dc>@@@?$__crt_seh_guarded_call@X@@QEAAX$$QEAV<lambda_72d1df2b273a38828b1ce30cbf4cdab5>@@AEAV<lambda_876a65b173b8412d3a47c70a915b0cf4>@@$$QEAV<lambda_41932305e351933ebe8f8be3ed8bb5dc>@@@Z 0000000180072bf0 f i libucrtd:per_thread_data.obj
 0001:00071c30       ??$?RV<lambda_8773731b9ba2edf4362dda13ebc82854>@@AEAV<lambda_6ac21da2756cd333d25ba1adc9a0001e>@@V<lambda_2c95662d60720604e97e3009a1ee1859>@@@?$__crt_seh_guarded_call@X@@QEAAX$$QEAV<lambda_8773731b9ba2edf4362dda13ebc82854>@@AEAV<lambda_6ac21da2756cd333d25ba1adc9a0001e>@@$$QEAV<lambda_2c95662d60720604e97e3009a1ee1859>@@@Z 0000000180072c30 f i libucrtd:per_thread_data.obj
 0001:00071c70       ??$?RV<lambda_fb3a7dec4e47f37f22dae91bb15c9095>@@AEAV<lambda_698284760c8add0bfb0756c19673e34b>@@V<lambda_dfb8eca1e75fef3034a8fb18dd509707>@@@?$__crt_seh_guarded_call@X@@QEAAX$$QEAV<lambda_fb3a7dec4e47f37f22dae91bb15c9095>@@AEAV<lambda_698284760c8add0bfb0756c19673e34b>@@$$QEAV<lambda_dfb8eca1e75fef3034a8fb18dd509707>@@@Z 0000000180072c70 f i libucrtd:per_thread_data.obj
 0001:00071cb0       ??$__acrt_lock_and_call@V<lambda_4466841279450cc726390878d4a41900>@@@@YAXW4__acrt_lock_id@@$$QEAV<lambda_4466841279450cc726390878d4a41900>@@@Z 0000000180072cb0 f i libucrtd:per_thread_data.obj
 0001:00071d20       ??$__acrt_lock_and_call@V<lambda_698284760c8add0bfb0756c19673e34b>@@@@YAXW4__acrt_lock_id@@$$QEAV<lambda_698284760c8add0bfb0756c19673e34b>@@@Z 0000000180072d20 f i libucrtd:per_thread_data.obj
 0001:00071d90       ??$__acrt_lock_and_call@V<lambda_6ac21da2756cd333d25ba1adc9a0001e>@@@@YAXW4__acrt_lock_id@@$$QEAV<lambda_6ac21da2756cd333d25ba1adc9a0001e>@@@Z 0000000180072d90 f i libucrtd:per_thread_data.obj
 0001:00071e00       ??$__acrt_lock_and_call@V<lambda_876a65b173b8412d3a47c70a915b0cf4>@@@@YAXW4__acrt_lock_id@@$$QEAV<lambda_876a65b173b8412d3a47c70a915b0cf4>@@@Z 0000000180072e00 f i libucrtd:per_thread_data.obj
 0001:00072000       ??0?$__crt_unique_heap_ptr@U__acrt_ptd@@U__crt_internal_free_policy@@@@QEAA@QEAU__acrt_ptd@@@Z 0000000180073000 f i libucrtd:per_thread_data.obj
 0001:00072020       ??0__crt_scoped_get_last_error_reset@@QEAA@XZ 0000000180073020 f i libucrtd:per_thread_data.obj
 0001:00072040       ??1?$__crt_unique_heap_ptr@U__acrt_ptd@@U__crt_internal_free_policy@@@@QEAA@XZ 0000000180073040 f i libucrtd:per_thread_data.obj
 0001:00072060       ??1__crt_scoped_get_last_error_reset@@QEAA@XZ 0000000180073060 f i libucrtd:per_thread_data.obj
 0001:00072080       ??B?$__crt_unique_heap_ptr@U__acrt_ptd@@U__crt_internal_free_policy@@@@QEBA_NXZ 0000000180073080 f i libucrtd:per_thread_data.obj
 0001:000723d0       ?dangerous_get_state_array@?$dual_state_global@PEAU__crt_locale_data@@@__crt_state_management@@QEAAPEAPEAU__crt_locale_data@@XZ 00000001800733d0 f i libucrtd:per_thread_data.obj
 0001:00072590       ?detach@?$__crt_unique_heap_ptr@U__acrt_ptd@@U__crt_internal_free_policy@@@@QEAAPEAU__acrt_ptd@@XZ 0000000180073590 f i libucrtd:per_thread_data.obj
 0001:000725c0       ?get@?$__crt_unique_heap_ptr@U__acrt_ptd@@U__crt_internal_free_policy@@@@QEBAPEAU__acrt_ptd@@XZ 00000001800735c0 f i libucrtd:per_thread_data.obj
 0001:00072730       ?is_valid@?$__crt_unique_heap_ptr@U__acrt_ptd@@U__crt_internal_free_policy@@@@QEBA_NXZ 0000000180073730 f i libucrtd:per_thread_data.obj
 0001:00072760       ?release@?$__crt_unique_heap_ptr@U__acrt_ptd@@U__crt_internal_free_policy@@@@QEAAXXZ 0000000180073760 f i libucrtd:per_thread_data.obj
 0001:000728a0       ?value@?$dual_state_global@PEAU__crt_locale_data@@@__crt_state_management@@QEAAAEAPEAU__crt_locale_data@@XZ 00000001800738a0 f i libucrtd:per_thread_data.obj
 0001:000728c0       __acrt_freeptd             00000001800738c0 f   libucrtd:per_thread_data.obj
 0001:00072900       __acrt_getptd              0000000180073900 f   libucrtd:per_thread_data.obj
 0001:00072930       __acrt_getptd_noexit       0000000180073930 f   libucrtd:per_thread_data.obj
 0001:00072940       __acrt_initialize_ptd      0000000180073940 f   libucrtd:per_thread_data.obj
 0001:00072980       __acrt_uninitialize_ptd    0000000180073980 f   libucrtd:per_thread_data.obj
 0001:000729b0       __threadhandle             00000001800739b0 f   libucrtd:per_thread_data.obj
 0001:000729c0       __threadid                 00000001800739c0 f   libucrtd:per_thread_data.obj
 0001:000729d0       __acrt_update_locale_info  00000001800739d0 f   libucrtd:locale_update.obj
 0001:00072a20       __acrt_update_multibyte_info 0000000180073a20 f   libucrtd:locale_update.obj
 0001:00072a70       ?__acrt_fp_classify@@YA?AW4__acrt_fp_class@@AEBN@Z 0000000180073a70 f i libucrtd:cvt.obj
 0001:00072b70       ?__acrt_fp_is_negative@@YA_NAEBN@Z 0000000180073b70 f i libucrtd:cvt.obj
 0001:000742f0       ?strrchr@@YAPEADQEADH@Z    00000001800752f0 f i libucrtd:cvt.obj
 0001:00074310       __acrt_fp_format           0000000180075310 f   libucrtd:cvt.obj
 0001:00074980       _fputwc_nolock             0000000180075980 f   libucrtd:fputwc.obj
 0001:00074bf0       _fputwchar                 0000000180075bf0 f   libucrtd:fputwc.obj
 0001:00074c20       _putwc_nolock              0000000180075c20 f   libucrtd:fputwc.obj
 0001:00074c50       fputwc                     0000000180075c50 f   libucrtd:fputwc.obj
 0001:00074d40       putwc                      0000000180075d40 f   libucrtd:fputwc.obj
 0001:00074d70       putwchar                   0000000180075d70 f   libucrtd:fputwc.obj
 0001:00074d90       ?lowio_handle@__crt_stdio_stream@@QEBAHXZ 0000000180075d90 f i libucrtd:fileno.obj
 0001:00074dc0       _fileno                    0000000180075dc0 f   libucrtd:fileno.obj
 0001:00074ea0       ??$?RPEAU__crt_stdio_stream_data@@@__crt_internal_free_policy@@QEBAXQEBQEAU__crt_stdio_stream_data@@@Z 0000000180075ea0 f i libucrtd:_file.obj
 0001:00074ed0       ??0?$__crt_unique_heap_ptr@PEAU__crt_stdio_stream_data@@U__crt_internal_free_policy@@@@QEAA@QEAPEAU__crt_stdio_stream_data@@@Z 0000000180075ed0 f i libucrtd:_file.obj
 0001:00074ef0       ??1?$__crt_unique_heap_ptr@PEAU__crt_stdio_stream_data@@U__crt_internal_free_policy@@@@QEAA@XZ 0000000180075ef0 f i libucrtd:_file.obj
 0001:00074f10       ?detach@?$__crt_unique_heap_ptr@PEAU__crt_stdio_stream_data@@U__crt_internal_free_policy@@@@QEAAPEAPEAU__crt_stdio_stream_data@@XZ 0000000180075f10 f i libucrtd:_file.obj
 0001:00074f40       ?release@?$__crt_unique_heap_ptr@PEAU__crt_stdio_stream_data@@U__crt_internal_free_policy@@@@QEAAXXZ 0000000180075f40 f i libucrtd:_file.obj
 0001:00074f80       __acrt_initialize_stdio    0000000180075f80 f   libucrtd:_file.obj
 0001:00075170       __acrt_iob_func            0000000180076170 f   libucrtd:_file.obj
 0001:00075190       __acrt_uninitialize_stdio  0000000180076190 f   libucrtd:_file.obj
 0001:00075220       _get_stream_buffer_pointers 0000000180076220 f   libucrtd:_file.obj
 0001:00075350       _lock_file                 0000000180076350 f   libucrtd:_file.obj
 0001:00075390       _unlock_file               0000000180076390 f   libucrtd:_file.obj
 0001:000753d0       _fputc_nolock              00000001800763d0 f   libucrtd:fputc.obj
 0001:00075480       _fputchar                  0000000180076480 f   libucrtd:fputc.obj
 0001:000754b0       _putc_nolock               00000001800764b0 f   libucrtd:fputc.obj
 0001:000754d0       fputc                      00000001800764d0 f   libucrtd:fputc.obj
 0001:00075770       putc                       0000000180076770 f   libucrtd:fputc.obj
 0001:00075790       putchar                    0000000180076790 f   libucrtd:fputc.obj
 0001:000757b0       _get_printf_count_output   00000001800767b0 f   libucrtd:printf_count_output.obj
 0001:000757e0       _set_printf_count_output   00000001800767e0 f   libucrtd:printf_count_output.obj
 0001:00075850       ?has_any_buffer@__crt_stdio_stream@@QEBA_NXZ 0000000180076850 f i libucrtd:_sftbuf.obj
 0001:00075870       ?has_any_of@__crt_stdio_stream@@QEBA_NJ@Z 0000000180076870 f i libucrtd:_sftbuf.obj
 0001:000758b0       ?has_temporary_buffer@__crt_stdio_stream@@QEBA_NXZ 00000001800768b0 f i libucrtd:_sftbuf.obj
 0001:000758d0       ?set_flags@__crt_stdio_stream@@QEBA_NJ@Z 00000001800768d0 f i libucrtd:_sftbuf.obj
 0001:00075940       ?unset_flags@__crt_stdio_stream@@QEBA_NJ@Z 0000000180076940 f i libucrtd:_sftbuf.obj
 0001:000759a0       __acrt_stdio_begin_temporary_buffering_nolock 00000001800769a0 f   libucrtd:_sftbuf.obj
 0001:00075be0       __acrt_stdio_end_temporary_buffering_nolock 0000000180076be0 f   libucrtd:_sftbuf.obj
 0001:00075c90       ??$?RU__crt_locale_data@@@__crt_internal_free_policy@@QEBAXQEBU__crt_locale_data@@@Z 0000000180076c90 f i libucrtd:wsetlocale.obj
 0001:00075cc0       ??$?RU__crt_locale_pointers@@@__crt_internal_free_policy@@QEBAXQEBU__crt_locale_pointers@@@Z 0000000180076cc0 f i libucrtd:wsetlocale.obj
 0001:00075cf0       ??$?RU__crt_multibyte_data@@@__crt_internal_free_policy@@QEBAXQEBU__crt_multibyte_data@@@Z 0000000180076cf0 f i libucrtd:wsetlocale.obj
 0001:00075d20       ??$?RV<lambda_042cd79da8f77d205c09f1121d22619e>@@AEAV<lambda_565169b3e3b494427ce1bebdd17b54ac>@@AEAV<lambda_f51fe5fd7c79a33db34fc9310f277369>@@@?$__crt_seh_guarded_call@X@@QEAAX$$QEAV<lambda_042cd79da8f77d205c09f1121d22619e>@@AEAV<lambda_565169b3e3b494427ce1bebdd17b54ac>@@AEAV<lambda_f51fe5fd7c79a33db34fc9310f277369>@@@Z 0000000180076d20 f i libucrtd:wsetlocale.obj
 0001:00075d60       ??$?RV<lambda_3e0436e1742da57cd73032a8c01babf8>@@AEAV<lambda_b7fb1a997d3ebc0cc0186c5835178808>@@V<lambda_eece23d6871d1810c6784d81edd5a05e>@@@?$__crt_seh_guarded_call@X@@QEAAX$$QEAV<lambda_3e0436e1742da57cd73032a8c01babf8>@@AEAV<lambda_b7fb1a997d3ebc0cc0186c5835178808>@@$$QEAV<lambda_eece23d6871d1810c6784d81edd5a05e>@@@Z 0000000180076d60 f i libucrtd:wsetlocale.obj
 0001:00075da0       ??$?RV<lambda_ede63489d7330338e618311e15f0c366>@@AEAV<lambda_176e34f99554166dd2fac165c457248c>@@V<lambda_b0463272cb7667df9361a74a62ea8ca5>@@@?$__crt_seh_guarded_call@X@@QEAAX$$QEAV<lambda_ede63489d7330338e618311e15f0c366>@@AEAV<lambda_176e34f99554166dd2fac165c457248c>@@$$QEAV<lambda_b0463272cb7667df9361a74a62ea8ca5>@@@Z 0000000180076da0 f i libucrtd:wsetlocale.obj
 0001:00075de0       ??$?RV<lambda_f622fd27d9451bffac5828193bdf6d20>@@AEAV<lambda_8ab6264a511d5dc8fee4743c3512d536>@@V<lambda_30a745c57dc0def3d1b1ce039b8a3c19>@@@?$__crt_seh_guarded_call@X@@QEAAX$$QEAV<lambda_f622fd27d9451bffac5828193bdf6d20>@@AEAV<lambda_8ab6264a511d5dc8fee4743c3512d536>@@$$QEAV<lambda_30a745c57dc0def3d1b1ce039b8a3c19>@@@Z 0000000180076de0 f i libucrtd:wsetlocale.obj
 0001:00075e20       ??$__acrt_lock_and_call@V<lambda_176e34f99554166dd2fac165c457248c>@@@@YAXW4__acrt_lock_id@@$$QEAV<lambda_176e34f99554166dd2fac165c457248c>@@@Z 0000000180076e20 f i libucrtd:wsetlocale.obj
 0001:00075e90       ??$__acrt_lock_and_call@V<lambda_8ab6264a511d5dc8fee4743c3512d536>@@@@YAXW4__acrt_lock_id@@$$QEAV<lambda_8ab6264a511d5dc8fee4743c3512d536>@@@Z 0000000180076e90 f i libucrtd:wsetlocale.obj
 0001:00075f00       ??$__acrt_lock_and_call@V<lambda_b7fb1a997d3ebc0cc0186c5835178808>@@@@YAXW4__acrt_lock_id@@$$QEAV<lambda_b7fb1a997d3ebc0cc0186c5835178808>@@@Z 0000000180076f00 f i libucrtd:wsetlocale.obj
 0001:00075f70       ??$__crt_call_and_cleanup@V<lambda_565169b3e3b494427ce1bebdd17b54ac>@@V<lambda_f51fe5fd7c79a33db34fc9310f277369>@@@@YAX$$QEAV<lambda_565169b3e3b494427ce1bebdd17b54ac>@@$$QEAV<lambda_f51fe5fd7c79a33db34fc9310f277369>@@@Z 0000000180076f70 f i libucrtd:wsetlocale.obj
 0001:00075fb0       ??$__vcrt_va_start_verify_argument_type@H@@YAXXZ 0000000180076fb0 f i libucrtd:wsetlocale.obj
 0001:000761a0       ??0?$__crt_unique_heap_ptr@U__crt_locale_data@@U__crt_internal_free_policy@@@@QEAA@QEAU__crt_locale_data@@@Z 00000001800771a0 f i libucrtd:wsetlocale.obj
 0001:000761c0       ??0?$__crt_unique_heap_ptr@U__crt_locale_pointers@@U__crt_internal_free_policy@@@@QEAA@QEAU__crt_locale_pointers@@@Z 00000001800771c0 f i libucrtd:wsetlocale.obj
 0001:000761e0       ??0?$__crt_unique_heap_ptr@U__crt_multibyte_data@@U__crt_internal_free_policy@@@@QEAA@QEAU__crt_multibyte_data@@@Z 00000001800771e0 f i libucrtd:wsetlocale.obj
 0001:00076200       ??1?$__crt_unique_heap_ptr@U__crt_locale_data@@U__crt_internal_free_policy@@@@QEAA@XZ 0000000180077200 f i libucrtd:wsetlocale.obj
 0001:00076220       ??1?$__crt_unique_heap_ptr@U__crt_locale_pointers@@U__crt_internal_free_policy@@@@QEAA@XZ 0000000180077220 f i libucrtd:wsetlocale.obj
 0001:00076240       ??1?$__crt_unique_heap_ptr@U__crt_multibyte_data@@U__crt_internal_free_policy@@@@QEAA@XZ 0000000180077240 f i libucrtd:wsetlocale.obj
 0001:00076260       ??B?$__crt_unique_heap_ptr@U__crt_locale_data@@U__crt_internal_free_policy@@@@QEBA_NXZ 0000000180077260 f i libucrtd:wsetlocale.obj
 0001:00076280       ??B?$__crt_unique_heap_ptr@U__crt_locale_pointers@@U__crt_internal_free_policy@@@@QEBA_NXZ 0000000180077280 f i libucrtd:wsetlocale.obj
 0001:000762a0       ??B?$__crt_unique_heap_ptr@U__crt_multibyte_data@@U__crt_internal_free_policy@@@@QEBA_NXZ 00000001800772a0 f i libucrtd:wsetlocale.obj
 0001:00076690       ?detach@?$__crt_unique_heap_ptr@U__crt_locale_data@@U__crt_internal_free_policy@@@@QEAAPEAU__crt_locale_data@@XZ 0000000180077690 f i libucrtd:wsetlocale.obj
 0001:000766c0       ?detach@?$__crt_unique_heap_ptr@U__crt_locale_pointers@@U__crt_internal_free_policy@@@@QEAAPEAU__crt_locale_pointers@@XZ 00000001800776c0 f i libucrtd:wsetlocale.obj
 0001:000766f0       ?detach@?$__crt_unique_heap_ptr@U__crt_multibyte_data@@U__crt_internal_free_policy@@@@QEAAPEAU__crt_multibyte_data@@XZ 00000001800776f0 f i libucrtd:wsetlocale.obj
 0001:00076720       ?get@?$__crt_unique_heap_ptr@U__crt_locale_data@@U__crt_internal_free_policy@@@@QEBAPEAU__crt_locale_data@@XZ 0000000180077720 f i libucrtd:wsetlocale.obj
 0001:00076730       ?get@?$__crt_unique_heap_ptr@U__crt_locale_pointers@@U__crt_internal_free_policy@@@@QEBAPEAU__crt_locale_pointers@@XZ 0000000180077730 f i libucrtd:wsetlocale.obj
 0001:00076740       ?get@?$__crt_unique_heap_ptr@U__crt_multibyte_data@@U__crt_internal_free_policy@@@@QEBAPEAU__crt_multibyte_data@@XZ 0000000180077740 f i libucrtd:wsetlocale.obj
 0001:00076750       ?is_valid@?$__crt_unique_heap_ptr@U__crt_locale_data@@U__crt_internal_free_policy@@@@QEBA_NXZ 0000000180077750 f i libucrtd:wsetlocale.obj
 0001:00076780       ?is_valid@?$__crt_unique_heap_ptr@U__crt_locale_pointers@@U__crt_internal_free_policy@@@@QEBA_NXZ 0000000180077780 f i libucrtd:wsetlocale.obj
 0001:000767b0       ?is_valid@?$__crt_unique_heap_ptr@U__crt_multibyte_data@@U__crt_internal_free_policy@@@@QEBA_NXZ 00000001800777b0 f i libucrtd:wsetlocale.obj
 0001:000767e0       ?release@?$__crt_unique_heap_ptr@U__crt_locale_data@@U__crt_internal_free_policy@@@@QEAAXXZ 00000001800777e0 f i libucrtd:wsetlocale.obj
 0001:00076820       ?release@?$__crt_unique_heap_ptr@U__crt_locale_pointers@@U__crt_internal_free_policy@@@@QEAAXXZ 0000000180077820 f i libucrtd:wsetlocale.obj
 0001:00076860       ?release@?$__crt_unique_heap_ptr@U__crt_multibyte_data@@U__crt_internal_free_policy@@@@QEAAXXZ 0000000180077860 f i libucrtd:wsetlocale.obj
 0001:000768a0       __acrt_copy_locale_name    00000001800778a0 f   libucrtd:wsetlocale.obj
 0001:00076970       __acrt_set_locale_changed  0000000180077970 f   libucrtd:wsetlocale.obj
 0001:00076980       __acrt_uninitialize_locale 0000000180077980 f   libucrtd:wsetlocale.obj
 0001:000769f0       __lc_lctowcs               00000001800779f0 f   libucrtd:wsetlocale.obj
 0001:00076ae0       __lc_wcstolc               0000000180077ae0 f   libucrtd:wsetlocale.obj
 0001:00076da0       _configthreadlocale        0000000180077da0 f   libucrtd:wsetlocale.obj
 0001:00076f60       _create_locale             0000000180077f60 f   libucrtd:wsetlocale.obj
 0001:00077000       _expandlocale              0000000180078000 f   libucrtd:wsetlocale.obj
 0001:000775b0       _free_locale               00000001800785b0 f   libucrtd:wsetlocale.obj
 0001:000776a0       _get_current_locale        00000001800786a0 f   libucrtd:wsetlocale.obj
 0001:000777b0       _wcreate_locale            00000001800787b0 f   libucrtd:wsetlocale.obj
 0001:00077aa0       _wcscats                   0000000180078aa0 f   libucrtd:wsetlocale.obj
 0001:00077b80       _wsetlocale                0000000180078b80 f   libucrtd:wsetlocale.obj
 0001:00078dc0       __p___mb_cur_max           0000000180079dc0 f   libucrtd:nlsdata.obj
 0001:000791a0       __acrt_initialize_lowio    000000018007a1a0 f   libucrtd:ioinit.obj
 0001:000791f0       __acrt_uninitialize_lowio  000000018007a1f0 f   libucrtd:ioinit.obj
 0001:00079270       _msize                     000000018007a270 f   libucrtd:msize.obj
 0001:00079290       _realloc_base              000000018007a290 f   libucrtd:realloc_base.obj
 0001:00079380       ??$?B$$A6AHPEA_WK_J@Z@__crt_fast_encoded_nullptr_t@@QEBAP6AHPEA_WK_J@ZXZ 000000018007a380 f i libucrtd:winapi_thunks.obj
 0001:000793a0       ??$?RV<lambda_630b2aca97f6d20d5b5ea6529ea6b6af>@@AEAV<lambda_af91936f1d075d609f72d9d8cba980af>@@V<lambda_e82fa975f615b5c7c7b0e4d178fdae67>@@@?$__crt_seh_guarded_call@H@@QEAAH$$QEAV<lambda_630b2aca97f6d20d5b5ea6529ea6b6af>@@AEAV<lambda_af91936f1d075d609f72d9d8cba980af>@@$$QEAV<lambda_e82fa975f615b5c7c7b0e4d178fdae67>@@@Z 000000018007a3a0 f i libucrtd:winapi_thunks.obj
 0001:000793f0       ??$__acrt_lock_and_call@V<lambda_af91936f1d075d609f72d9d8cba980af>@@@@YAHW4__acrt_lock_id@@$$QEAV<lambda_af91936f1d075d609f72d9d8cba980af>@@@Z 000000018007a3f0 f i libucrtd:winapi_thunks.obj
 0001:00079460       ??$__crt_fast_decode_pointer@P6AHPEA_WK_J@Z@@YAP6AHPEA_WK_J@ZQ6AH0K1@Z@Z 000000018007a460 f i libucrtd:winapi_thunks.obj
 0001:000794a0       ??$__crt_fast_encode_pointer@P6AHPEA_WK_J@Z@@YAP6AHPEA_WK_J@ZQ6AH0K1@Z@Z 000000018007a4a0 f i libucrtd:winapi_thunks.obj
 0001:0007a030       __acrt_AreFileApisANSI     000000018007b030 f   libucrtd:winapi_thunks.obj
 0001:0007a070       __acrt_CompareStringEx     000000018007b070 f   libucrtd:winapi_thunks.obj
 0001:0007a160       __acrt_EnumSystemLocalesEx 000000018007b160 f   libucrtd:winapi_thunks.obj
 0001:0007a1e0       __acrt_FlsAlloc            000000018007b1e0 f   libucrtd:winapi_thunks.obj
 0001:0007a230       __acrt_FlsFree             000000018007b230 f   libucrtd:winapi_thunks.obj
 0001:0007a280       __acrt_FlsGetValue         000000018007b280 f   libucrtd:winapi_thunks.obj
 0001:0007a2d0       __acrt_FlsSetValue         000000018007b2d0 f   libucrtd:winapi_thunks.obj
 0001:0007a330       __acrt_GetDateFormatEx     000000018007b330 f   libucrtd:winapi_thunks.obj
 0001:0007a3f0       __acrt_GetEnabledXStateFeatures 000000018007b3f0 f   libucrtd:winapi_thunks.obj
 0001:0007a430       __acrt_GetFileInformationByHandleEx 000000018007b430 f   libucrtd:winapi_thunks.obj
 0001:0007a4a0       __acrt_GetLocaleInfoEx     000000018007b4a0 f   libucrtd:winapi_thunks.obj
 0001:0007a520       __acrt_GetSystemTimePreciseAsFileTime 000000018007b520 f   libucrtd:winapi_thunks.obj
 0001:0007a570       __acrt_GetTimeFormatEx     000000018007b570 f   libucrtd:winapi_thunks.obj
 0001:0007a620       __acrt_GetUserDefaultLocaleName 000000018007b620 f   libucrtd:winapi_thunks.obj
 0001:0007a690       __acrt_GetXStateFeaturesMask 000000018007b690 f   libucrtd:winapi_thunks.obj
 0001:0007a6e0       __acrt_InitializeCriticalSectionEx 000000018007b6e0 f   libucrtd:winapi_thunks.obj
 0001:0007a750       __acrt_IsValidLocaleName   000000018007b750 f   libucrtd:winapi_thunks.obj
 0001:0007a7b0       __acrt_LCIDToLocaleName    000000018007b7b0 f   libucrtd:winapi_thunks.obj
 0001:0007a820       __acrt_LCMapStringEx       000000018007b820 f   libucrtd:winapi_thunks.obj
 0001:0007a910       __acrt_LocaleNameToLCID    000000018007b910 f   libucrtd:winapi_thunks.obj
 0001:0007a970       __acrt_LocateXStateFeature 000000018007b970 f   libucrtd:winapi_thunks.obj
 0001:0007a9d0       __acrt_MessageBoxA         000000018007b9d0 f   libucrtd:winapi_thunks.obj
 0001:0007aa40       __acrt_MessageBoxW         000000018007ba40 f   libucrtd:winapi_thunks.obj
 0001:0007aab0       __acrt_RoInitialize        000000018007bab0 f   libucrtd:winapi_thunks.obj
 0001:0007aaf0       __acrt_RoUninitialize      000000018007baf0 f   libucrtd:winapi_thunks.obj
 0001:0007ab30       __acrt_RtlGenRandom        000000018007bb30 f   libucrtd:winapi_thunks.obj
 0001:0007ab80       __acrt_SetThreadStackGuarantee 000000018007bb80 f   libucrtd:winapi_thunks.obj
 0001:0007abd0       __acrt_can_show_message_box 000000018007bbd0 f   libucrtd:winapi_thunks.obj
 0001:0007ac10       __acrt_can_use_vista_locale_apis 000000018007bc10 f   libucrtd:winapi_thunks.obj
 0001:0007ac40       __acrt_can_use_xstate_apis 000000018007bc40 f   libucrtd:winapi_thunks.obj
 0001:0007ac70       __acrt_get_parent_window   000000018007bc70 f   libucrtd:winapi_thunks.obj
 0001:0007acf0       __acrt_initialize_winapi_thunks 000000018007bcf0 f   libucrtd:winapi_thunks.obj
 0001:0007ad70       __acrt_is_interactive      000000018007bd70 f   libucrtd:winapi_thunks.obj
 0001:0007ae60       __acrt_is_packaged_app     000000018007be60 f   libucrtd:winapi_thunks.obj
 0001:0007afa0       __acrt_uninitialize_winapi_thunks 000000018007bfa0 f   libucrtd:winapi_thunks.obj
 0001:0007c460       ??$find_first_file_ex@AEBQEADW4_FINDEX_INFO_LEVELS@@PEAU_WIN32_FIND_DATAA@@W4_FINDEX_SEARCH_OPS@@$$TH@?$__crt_char_traits@D@@SAPEAXAEBQEAD$$QEAW4_FINDEX_INFO_LEVELS@@$$QEAPEAU_WIN32_FIND_DATAA@@$$QEAW4_FINDEX_SEARCH_OPS@@$$QEA$$T$$QEAH@Z 000000018007d460 f i libucrtd:argv_wildcards.obj
 0001:0007c4c0       ??$find_first_file_ex@AEBQEA_WW4_FINDEX_INFO_LEVELS@@PEAU_WIN32_FIND_DATAW@@W4_FINDEX_SEARCH_OPS@@$$TH@?$__crt_char_traits@_W@@SAPEAXAEBQEA_W$$QEAW4_FINDEX_INFO_LEVELS@@$$QEAPEAU_WIN32_FIND_DATAW@@$$QEAW4_FINDEX_SEARCH_OPS@@$$QEA$$T$$QEAH@Z 000000018007d4c0 f i libucrtd:argv_wildcards.obj
 0001:0007c520       ??$find_next_file@PEAXPEAU_WIN32_FIND_DATAA@@@?$__crt_char_traits@D@@SAH$$QEAPEAX$$QEAPEAU_WIN32_FIND_DATAA@@@Z 000000018007d520 f i libucrtd:argv_wildcards.obj
 0001:0007c550       ??$find_next_file@PEAXPEAU_WIN32_FIND_DATAW@@@?$__crt_char_traits@_W@@SAH$$QEAPEAX$$QEAPEAU_WIN32_FIND_DATAW@@@Z 000000018007d550 f i libucrtd:argv_wildcards.obj
 0001:0007c580       ??$tcsncpy_s@AEAPEAD_KAEAPEADAEB_K@?$__crt_char_traits@D@@SAHAEAPEAD$$QEA_K0AEB_K@Z 000000018007d580 f i libucrtd:argv_wildcards.obj
 0001:0007c5d0       ??$tcsncpy_s@AEAPEA_W_KAEAPEA_WAEB_K@?$__crt_char_traits@_W@@SAHAEAPEA_W$$QEA_K0AEB_K@Z 000000018007d5d0 f i libucrtd:argv_wildcards.obj
 0001:0007c620       ??$tcsncpy_s@PEAD$$CB_KAEBQEBDAEB_K@?$__crt_char_traits@D@@SAH$$QEAPEAD$$QEB_KAEBQEBDAEB_K@Z 000000018007d620 f i libucrtd:argv_wildcards.obj
 0001:0007c670       ??$tcsncpy_s@PEADAEB_KAEBQEBDAEB_K@?$__crt_char_traits@D@@SAH$$QEAPEADAEB_KAEBQEBD1@Z 000000018007d670 f i libucrtd:argv_wildcards.obj
 0001:0007c6c0       ??$tcsncpy_s@PEA_W$$CB_KAEBQEB_WAEB_K@?$__crt_char_traits@_W@@SAH$$QEAPEA_W$$QEB_KAEBQEB_WAEB_K@Z 000000018007d6c0 f i libucrtd:argv_wildcards.obj
 0001:0007c710       ??$tcsncpy_s@PEA_WAEB_KAEBQEB_WAEB_K@?$__crt_char_traits@_W@@SAH$$QEAPEA_WAEB_KAEBQEB_W1@Z 000000018007d710 f i libucrtd:argv_wildcards.obj
 0001:0007c760       ??$tcspbrk@AEAPEADAEAY02$$CBD@?$__crt_char_traits@D@@SAPEADAEAPEADAEAY02$$CBD@Z 000000018007d760 f i libucrtd:argv_wildcards.obj
 0001:0007c790       ??$tcspbrk@AEAPEA_WAEAY02$$CB_W@?$__crt_char_traits@_W@@SAPEA_WAEAPEA_WAEAY02$$CB_W@Z 000000018007d790 f i libucrtd:argv_wildcards.obj
 0001:0007c7c0       ??0?$__crt_unique_handle_t@U__crt_findfile_traits@@@@QEAA@QEAX@Z 000000018007d7c0 f i libucrtd:argv_wildcards.obj
 0001:0007c7e0       ??0?$argument_list@D@?A0xfeb59491@@QEAA@XZ 000000018007d7e0 f i libucrtd:argv_wildcards.obj
 0001:0007c820       ??0?$argument_list@_W@?A0xfeb59491@@QEAA@XZ 000000018007d820 f i libucrtd:argv_wildcards.obj
 0001:0007c860       ??1?$__crt_unique_handle_t@U__crt_findfile_traits@@@@QEAA@XZ 000000018007d860 f i libucrtd:argv_wildcards.obj
 0001:0007c880       ??1?$argument_list@D@?A0xfeb59491@@QEAA@XZ 000000018007d880 f i libucrtd:argv_wildcards.obj
 0001:0007c8f0       ??1?$argument_list@_W@?A0xfeb59491@@QEAA@XZ 000000018007d8f0 f i libucrtd:argv_wildcards.obj
 0001:0007ca20       ?append@?$argument_list@D@?A0xfeb59491@@QEAAHQEAD@Z 000000018007da20 f i libucrtd:argv_wildcards.obj
 0001:0007ca90       ?append@?$argument_list@_W@?A0xfeb59491@@QEAAHQEA_W@Z 000000018007da90 f i libucrtd:argv_wildcards.obj
 0001:0007cb00       ?begin@?$argument_list@D@?A0xfeb59491@@QEBAPEAPEADXZ 000000018007db00 f i libucrtd:argv_wildcards.obj
 0001:0007cb10       ?begin@?$argument_list@_W@?A0xfeb59491@@QEBAPEAPEA_WXZ 000000018007db10 f i libucrtd:argv_wildcards.obj
 0001:0007cb20       ?close@?$__crt_unique_handle_t@U__crt_findfile_traits@@@@QEAAXXZ 000000018007db20 f i libucrtd:argv_wildcards.obj
 0001:0007cb60       ?close@__crt_findfile_traits@@SA_NPEAX@Z 000000018007db60 f i libucrtd:argv_wildcards.obj
 0001:0007cba0       ?end@?$argument_list@D@?A0xfeb59491@@QEBAPEAPEADXZ 000000018007dba0 f i libucrtd:argv_wildcards.obj
 0001:0007cbb0       ?end@?$argument_list@_W@?A0xfeb59491@@QEBAPEAPEA_WXZ 000000018007dbb0 f i libucrtd:argv_wildcards.obj
 0001:0007cbc0       ?expand_if_necessary@?$argument_list@D@?A0xfeb59491@@AEAAHXZ 000000018007dbc0 f i libucrtd:argv_wildcards.obj
 0001:0007cda0       ?expand_if_necessary@?$argument_list@_W@?A0xfeb59491@@AEAAHXZ 000000018007dda0 f i libucrtd:argv_wildcards.obj
 0001:0007cf80       ?get@?$__crt_unique_handle_t@U__crt_findfile_traits@@@@QEBAPEAXXZ 000000018007df80 f i libucrtd:argv_wildcards.obj
 0001:0007cf90       ?get_invalid_value@__crt_findfile_traits@@SAPEAXXZ 000000018007df90 f i libucrtd:argv_wildcards.obj
 0001:0007cff0       ?size@?$argument_list@D@?A0xfeb59491@@QEBA_KXZ 000000018007dff0 f i libucrtd:argv_wildcards.obj
 0001:0007d010       ?size@?$argument_list@_W@?A0xfeb59491@@QEBA_KXZ 000000018007e010 f i libucrtd:argv_wildcards.obj
 0001:0007d030       ?strpbrk@@YAPEADQEADQEBD@Z 000000018007e030 f i libucrtd:argv_wildcards.obj
 0001:0007d060       ?wcspbrk@@YAPEA_WPEA_WPEB_W@Z 000000018007e060 f i libucrtd:argv_wildcards.obj
 0001:0007d090       __acrt_expand_narrow_argv_wildcards 000000018007e090 f   libucrtd:argv_wildcards.obj
 0001:0007d0c0       __acrt_expand_wide_argv_wildcards 000000018007e0c0 f   libucrtd:argv_wildcards.obj
 0001:0007d0f0       ??$?RV<lambda_441f2315ac0f593d45428a8fceb6abe6>@@AEAV<lambda_2f900415df1f7f624cdaaefe86d0b1c0>@@V<lambda_1d10a5a8ccb596b49763520e59d5af47>@@@?$__crt_seh_guarded_call@X@@QEAAX$$QEAV<lambda_441f2315ac0f593d45428a8fceb6abe6>@@AEAV<lambda_2f900415df1f7f624cdaaefe86d0b1c0>@@$$QEAV<lambda_1d10a5a8ccb596b49763520e59d5af47>@@@Z 000000018007e0f0 f i libucrtd:mbctype.obj
 0001:0007d130       ??$__acrt_lock_and_call@V<lambda_2f900415df1f7f624cdaaefe86d0b1c0>@@@@YAXW4__acrt_lock_id@@$$QEAV<lambda_2f900415df1f7f624cdaaefe86d0b1c0>@@@Z 000000018007e130 f i libucrtd:mbctype.obj
 0001:0007dc30       __acrt_initialize_multibyte 000000018007ec30 f   libucrtd:mbctype.obj
 0001:0007dc60       __acrt_update_thread_multibyte_data 000000018007ec60 f   libucrtd:mbctype.obj
 0001:0007dd70       __p__mbcasemap             000000018007ed70 f   libucrtd:mbctype.obj
 0001:0007dd90       __p__mbctype               000000018007ed90 f   libucrtd:mbctype.obj
 0001:0007ddb0       _getmbcp                   000000018007edb0 f   libucrtd:mbctype.obj
 0001:0007de30       _setmbcp                   000000018007ee30 f   libucrtd:mbctype.obj
 0001:0007de50       _setmbcp_nolock            000000018007ee50 f   libucrtd:mbctype.obj
 0001:0007e454       _ismbbalnum                000000018007f454 f   libucrtd:ismbbyte.obj
 0001:0007e46c       _ismbbalnum_l              000000018007f46c f   libucrtd:ismbbyte.obj
 0001:0007e488       _ismbbalpha                000000018007f488 f   libucrtd:ismbbyte.obj
 0001:0007e4a0       _ismbbalpha_l              000000018007f4a0 f   libucrtd:ismbbyte.obj
 0001:0007e4bc       _ismbbblank                000000018007f4bc f   libucrtd:ismbbyte.obj
 0001:0007e4d8       _ismbbblank_l              000000018007f4d8 f   libucrtd:ismbbyte.obj
 0001:0007e4f8       _ismbbgraph                000000018007f4f8 f   libucrtd:ismbbyte.obj
 0001:0007e510       _ismbbgraph_l              000000018007f510 f   libucrtd:ismbbyte.obj
 0001:0007e52c       _ismbbkalnum               000000018007f52c f   libucrtd:ismbbyte.obj
 0001:0007e540       _ismbbkalnum_l             000000018007f540 f   libucrtd:ismbbyte.obj
 0001:0007e558       _ismbbkana                 000000018007f558 f   libucrtd:ismbbyte.obj
 0001:0007e560       _ismbbkana_l               000000018007f560 f   libucrtd:ismbbyte.obj
 0001:0007e5c8       _ismbbkprint               000000018007f5c8 f   libucrtd:ismbbyte.obj
 0001:0007e5dc       _ismbbkprint_l             000000018007f5dc f   libucrtd:ismbbyte.obj
 0001:0007e5f4       _ismbbkpunct               000000018007f5f4 f   libucrtd:ismbbyte.obj
 0001:0007e608       _ismbbkpunct_l             000000018007f608 f   libucrtd:ismbbyte.obj
 0001:0007e620       _ismbblead                 000000018007f620 f   libucrtd:ismbbyte.obj
 0001:0007e634       _ismbblead_l               000000018007f634 f   libucrtd:ismbbyte.obj
 0001:0007e64c       _ismbbprint                000000018007f64c f   libucrtd:ismbbyte.obj
 0001:0007e664       _ismbbprint_l              000000018007f664 f   libucrtd:ismbbyte.obj
 0001:0007e680       _ismbbpunct                000000018007f680 f   libucrtd:ismbbyte.obj
 0001:0007e694       _ismbbpunct_l              000000018007f694 f   libucrtd:ismbbyte.obj
 0001:0007e6ac       _ismbbtrail                000000018007f6ac f   libucrtd:ismbbyte.obj
 0001:0007e6c0       _ismbbtrail_l              000000018007f6c0 f   libucrtd:ismbbyte.obj
 0001:0007e6e0       __acrt_initialize_command_line 000000018007f6e0 f   libucrtd:argv_data.obj
 0001:0007e710       __acrt_uninitialize_command_line 000000018007f710 f   libucrtd:argv_data.obj
 0001:0007e720       __p___argc                 000000018007f720 f   libucrtd:argv_data.obj
 0001:0007e730       __p___argv                 000000018007f730 f   libucrtd:argv_data.obj
 0001:0007e740       __p___wargv                000000018007f740 f   libucrtd:argv_data.obj
 0001:0007e750       __p__acmdln                000000018007f750 f   libucrtd:argv_data.obj
 0001:0007e760       __p__pgmptr                000000018007f760 f   libucrtd:argv_data.obj
 0001:0007e770       __p__wcmdln                000000018007f770 f   libucrtd:argv_data.obj
 0001:0007e780       __p__wpgmptr               000000018007f780 f   libucrtd:argv_data.obj
 0001:0007e790       _get_pgmptr                000000018007f790 f   libucrtd:argv_data.obj
 0001:0007e900       _get_wpgmptr               000000018007f900 f   libucrtd:argv_data.obj
 0001:0007ea70       ??0?$__crt_unique_handle_t@Uenvironment_strings_traits@?A0x3cdb3392@@@@QEAA@QEA_W@Z 000000018007fa70 f i libucrtd:get_environment_from_os.obj
 0001:0007ea78       ??1?$__crt_unique_handle_t@Uenvironment_strings_traits@?A0x3cdb3392@@@@QEAA@XZ 000000018007fa78 f i libucrtd:get_environment_from_os.obj
 0001:0007ea9c       ??B?$__crt_unique_handle_t@Uenvironment_strings_traits@?A0x3cdb3392@@@@QEBA_NXZ 000000018007fa9c f i libucrtd:get_environment_from_os.obj
 0001:0007eaa8       ?close@?$__crt_unique_handle_t@Uenvironment_strings_traits@?A0x3cdb3392@@@@QEAAXXZ 000000018007faa8 f i libucrtd:get_environment_from_os.obj
 0001:0007eacc       ?close@environment_strings_traits@?A0x3cdb3392@@SA_NPEA_W@Z 000000018007facc f i libucrtd:get_environment_from_os.obj
 0001:0007eb04       ?get@?$__crt_unique_handle_t@Uenvironment_strings_traits@?A0x3cdb3392@@@@QEBAPEA_WXZ 000000018007fb04 f i libucrtd:get_environment_from_os.obj
 0001:0007eb08       ?get_invalid_value@environment_strings_traits@?A0x3cdb3392@@SAPEA_WXZ 000000018007fb08 f i libucrtd:get_environment_from_os.obj
 0001:0007eb0c       ?is_valid@?$__crt_unique_handle_t@Uenvironment_strings_traits@?A0x3cdb3392@@@@QEBA_NXZ 000000018007fb0c f i libucrtd:get_environment_from_os.obj
 0001:0007eb18       __dcrt_get_narrow_environment_from_os 000000018007fb18 f   libucrtd:get_environment_from_os.obj
 0001:0007ec34       __dcrt_get_wide_environment_from_os 000000018007fc34 f   libucrtd:get_environment_from_os.obj
 0001:0007f918       ??$get_or_create_environment_nolock@$$$V@?$__crt_char_traits@D@@SAPEAPEADXZ 0000000180080918 f i libucrtd:setenv.obj
 0001:0007f920       ??$get_or_create_environment_nolock@$$$V@?$__crt_char_traits@_W@@SAPEAPEA_WXZ 0000000180080920 f i libucrtd:setenv.obj
 0001:0007f928       ??$set_environment_variable@AEBQEADQEAD@?$__crt_char_traits@D@@SAHAEBQEAD$$QEBQEAD@Z 0000000180080928 f i libucrtd:setenv.obj
 0001:0007f938       ??$set_environment_variable@AEBQEA_WQEA_W@?$__crt_char_traits@_W@@SAHAEBQEA_W$$QEBQEA_W@Z 0000000180080938 f i libucrtd:setenv.obj
 0001:0007f948       ??$tcschr@AEBQEADD@?$__crt_char_traits@D@@SAPEADAEBQEAD$$QEAD@Z 0000000180080948 f i libucrtd:setenv.obj
 0001:0007f954       ??$tcschr@AEBQEA_WD@?$__crt_char_traits@_W@@SAPEA_WAEBQEA_W$$QEAD@Z 0000000180080954 f i libucrtd:setenv.obj
 0001:0007f960       ??$tcscpy_s@AEAPEADAEB_KAEAPEAD@?$__crt_char_traits@D@@SAHAEAPEADAEB_K0@Z 0000000180080960 f i libucrtd:setenv.obj
 0001:0007f970       ??$tcscpy_s@AEAPEA_WAEB_KAEAPEA_W@?$__crt_char_traits@_W@@SAHAEAPEA_WAEB_K0@Z 0000000180080970 f i libucrtd:setenv.obj
 0001:0007f980       ??$tcscpy_s@AEBQEADAEB_KAEBQEAD@?$__crt_char_traits@D@@SAHAEBQEADAEB_K0@Z 0000000180080980 f i libucrtd:setenv.obj
 0001:0007f990       ??$tcscpy_s@AEBQEA_WAEB_KAEBQEA_W@?$__crt_char_traits@_W@@SAHAEBQEA_WAEB_K0@Z 0000000180080990 f i libucrtd:setenv.obj
 0001:0007f9a0       ??$tcslen@AEBQEAD@?$__crt_char_traits@D@@SA_KAEBQEAD@Z 00000001800809a0 f i libucrtd:setenv.obj
 0001:0007f9b4       ??$tcslen@AEBQEA_W@?$__crt_char_traits@_W@@SA_KAEBQEA_W@Z 00000001800809b4 f i libucrtd:setenv.obj
 0001:0007f9c8       ??$tcsnicoll@AEBQEBDAEAPEADAEB_K@?$__crt_char_traits@D@@SAHAEBQEBDAEAPEADAEB_K@Z 00000001800809c8 f i libucrtd:setenv.obj
 0001:0007f9d8       ??$tcsnicoll@AEBQEB_WAEAPEA_WAEB_K@?$__crt_char_traits@_W@@SAHAEBQEB_WAEAPEA_WAEB_K@Z 00000001800809d8 f i libucrtd:setenv.obj
 0001:0007f9e8       ??$tcsnlen@QEADH@?$__crt_char_traits@D@@SA_K$$QEBQEAD$$QEAH@Z 00000001800809e8 f i libucrtd:setenv.obj
 0001:0007f9f4       ??$tcsnlen@QEA_WH@?$__crt_char_traits@_W@@SA_K$$QEBQEA_W$$QEAH@Z 00000001800809f4 f i libucrtd:setenv.obj
 0001:0007fa30       ?strchr@@YAPEADQEADH@Z     0000000180080a30 f i libucrtd:setenv.obj
 0001:0007fa38       ?wcschr@@YAPEA_WPEA_W_W@Z  0000000180080a38 f i libucrtd:setenv.obj
 0001:0007fa40       __dcrt_set_variable_in_narrow_environment_nolock 0000000180080a40 f   libucrtd:setenv.obj
 0001:0007fa48       __dcrt_set_variable_in_wide_environment_nolock 0000000180080a48 f   libucrtd:setenv.obj
 0001:0007fa50       __acrt_getheap             0000000180080a50 f   libucrtd:heap_handle.obj
 0001:0007fab0       __acrt_initialize_heap     0000000180080ab0 f   libucrtd:heap_handle.obj
 0001:0007fae0       __acrt_uninitialize_heap   0000000180080ae0 f   libucrtd:heap_handle.obj
 0001:0007fb00       _get_heap_handle           0000000180080b00 f   libucrtd:heap_handle.obj
 0001:0007fb60       __acrt_execute_initializers 0000000180080b60 f   libucrtd:shared_initialization.obj
 0001:0007fc50       __acrt_execute_uninitializers 0000000180080c50 f   libucrtd:shared_initialization.obj
 0001:0007fcd0       ??$__crt_fast_decode_pointer@P6AHPEAU_exception@@@Z@@YAP6AHPEAU_exception@@@ZQ6AH0@Z@Z 0000000180080cd0 f i libucrtd:matherr.obj
 0001:0007fd10       ??$__crt_fast_encode_pointer@P6AHPEAU_exception@@@Z@@YAP6AHPEAU_exception@@@ZQ6AH0@Z@Z 0000000180080d10 f i libucrtd:matherr.obj
 0001:0007fd50       ?initialize@?$dual_state_global@P6AHPEAU_exception@@@Z@__crt_state_management@@QEAAXQ6AHPEAU_exception@@@Z@Z 0000000180080d50 f i libucrtd:matherr.obj
 0001:0007fda0       ?value@?$dual_state_global@P6AHPEAU_exception@@@Z@__crt_state_management@@QEAAAEAP6AHPEAU_exception@@@ZXZ 0000000180080da0 f i libucrtd:matherr.obj
 0001:0007fdc0       __acrt_has_user_matherr    0000000180080dc0 f   libucrtd:matherr.obj
 0001:0007fe00       __acrt_initialize_user_matherr 0000000180080e00 f   libucrtd:matherr.obj
 0001:0007fe20       __acrt_invoke_user_matherr 0000000180080e20 f   libucrtd:matherr.obj
 0001:0007fe80       __setusermatherr           0000000180080e80 f   libucrtd:matherr.obj
 0001:0007fec0       ??$__crt_interlocked_exchange_pointer@X$$T@@YAPEAXPEDSEAX$$T@Z 0000000180080ec0 f i libucrtd:free_base.obj
 0001:0007fef0       __acrt_get_msvcrt_heap_handle 0000000180080ef0 f   libucrtd:free_base.obj
 0001:0007ffc0       _free_base                 0000000180080fc0 f   libucrtd:free_base.obj
 0001:00080020       _aligned_free              0000000180081020 f   libucrtd:align.obj
 0001:00080040       _aligned_free_base         0000000180081040 f   libucrtd:align.obj
 0001:00080090       _aligned_malloc            0000000180081090 f   libucrtd:align.obj
 0001:000800c0       _aligned_malloc_base       00000001800810c0 f   libucrtd:align.obj
 0001:000800f0       _aligned_msize             00000001800810f0 f   libucrtd:align.obj
 0001:00080120       _aligned_msize_base        0000000180081120 f   libucrtd:align.obj
 0001:000802f0       _aligned_offset_malloc     00000001800812f0 f   libucrtd:align.obj
 0001:00080330       _aligned_offset_malloc_base 0000000180081330 f   libucrtd:align.obj
 0001:000805d0       _aligned_offset_realloc    00000001800815d0 f   libucrtd:align.obj
 0001:00080620       _aligned_offset_realloc_base 0000000180081620 f   libucrtd:align.obj
 0001:00080af0       _aligned_offset_recalloc   0000000180081af0 f   libucrtd:align.obj
 0001:00080b50       _aligned_offset_recalloc_base 0000000180081b50 f   libucrtd:align.obj
 0001:00080c50       _aligned_realloc           0000000180081c50 f   libucrtd:align.obj
 0001:00080c90       _aligned_realloc_base      0000000180081c90 f   libucrtd:align.obj
 0001:00080cc0       _aligned_recalloc          0000000180081cc0 f   libucrtd:align.obj
 0001:00080d10       _aligned_recalloc_base     0000000180081d10 f   libucrtd:align.obj
 0001:00080d50       _chvalidator               0000000180081d50 f   libucrtd:isctype.obj
 0001:00080dc0       _chvalidator_l             0000000180081dc0 f   libucrtd:isctype.obj
 0001:00080e90       _isctype                   0000000180081e90 f   libucrtd:isctype.obj
 0001:00080ee0       _isctype_l                 0000000180081ee0 f   libucrtd:isctype.obj
 0001:00081170       _expand                    0000000180082170 f   libucrtd:expand.obj
 0001:000811b0       _expand_base               00000001800821b0 f   libucrtd:expand.obj
 0001:00081340       ?value@?$dual_state_global@J@__crt_state_management@@QEAAAEAJXZ 0000000180082340 f i libucrtd:new_mode.obj
 0001:00081360       _query_new_mode            0000000180082360 f   libucrtd:new_mode.obj
 0001:00081380       _set_new_mode              0000000180082380 f   libucrtd:new_mode.obj
 0001:00081450       _CrtDefaultAllocHook       0000000180082450 f   libucrtd:debug_heap_hook.obj
 0001:0008146c       _mbsdec                    000000018008246c f   libucrtd:mbsdec.obj
 0001:00081474       _mbsdec_l                  0000000180082474 f   libucrtd:mbsdec.obj
 0001:00081c00       strncpy_s                  0000000180082c00 f   libucrtd:strncpy_s.obj
 0001:00081e10       __acrt_report_runtime_error 0000000180082e10 f   libucrtd:report_runtime_error.obj
 0001:00082090       _query_app_type            0000000180083090 f   libucrtd:report_runtime_error.obj
 0001:000820a0       _set_app_type              00000001800830a0 f   libucrtd:report_runtime_error.obj
 0001:000820b0       _iswctype_l                00000001800830b0 f   libucrtd:iswctype.obj
 0001:000820e0       iswctype                   00000001800830e0 f   libucrtd:iswctype.obj
 0001:000839b0       _i64toa                    00000001800849b0 f   libucrtd:xtoa.obj
 0001:00083a20       _i64toa_s                  0000000180084a20 f   libucrtd:xtoa.obj
 0001:00083a90       _i64tow                    0000000180084a90 f   libucrtd:xtoa.obj
 0001:00083b00       _i64tow_s                  0000000180084b00 f   libucrtd:xtoa.obj
 0001:00083b70       _itoa                      0000000180084b70 f   libucrtd:xtoa.obj
 0001:00083be0       _itoa_s                    0000000180084be0 f   libucrtd:xtoa.obj
 0001:00083c40       _itow                      0000000180084c40 f   libucrtd:xtoa.obj
 0001:00083cb0       _itow_s                    0000000180084cb0 f   libucrtd:xtoa.obj
 0001:00083d10       _ltoa                      0000000180084d10 f   libucrtd:xtoa.obj
 0001:00083d80       _ltoa_s                    0000000180084d80 f   libucrtd:xtoa.obj
 0001:00083de0       _ltow                      0000000180084de0 f   libucrtd:xtoa.obj
 0001:00083e50       _ltow_s                    0000000180084e50 f   libucrtd:xtoa.obj
 0001:00083eb0       _ui64toa                   0000000180084eb0 f   libucrtd:xtoa.obj
 0001:00083ef0       _ui64toa_s                 0000000180084ef0 f   libucrtd:xtoa.obj
 0001:00083f30       _ui64tow                   0000000180084f30 f   libucrtd:xtoa.obj
 0001:00083f70       _ui64tow_s                 0000000180084f70 f   libucrtd:xtoa.obj
 0001:00083fb0       _ultoa                     0000000180084fb0 f   libucrtd:xtoa.obj
 0001:00083ff0       _ultoa_s                   0000000180084ff0 f   libucrtd:xtoa.obj
 0001:00084030       _ultow                     0000000180085030 f   libucrtd:xtoa.obj
 0001:00084070       _ultow_s                   0000000180085070 f   libucrtd:xtoa.obj
 0001:00084620       _mbstowcs_l                0000000180085620 f   libucrtd:mbstowcs.obj
 0001:00084660       _mbstowcs_s_l              0000000180085660 f   libucrtd:mbstowcs.obj
 0001:00084c30       mbstowcs                   0000000180085c30 f   libucrtd:mbstowcs.obj
 0001:00084c90       mbstowcs_s                 0000000180085c90 f   libucrtd:mbstowcs.obj
 0001:000855b0       _wcstombs_l                00000001800865b0 f   libucrtd:wcstombs.obj
 0001:000855f0       _wcstombs_s_l              00000001800865f0 f   libucrtd:wcstombs.obj
 0001:00085b30       wcstombs                   0000000180086b30 f   libucrtd:wcstombs.obj
 0001:00085b60       wcstombs_s                 0000000180086b60 f   libucrtd:wcstombs.obj
 0001:00085bb0       __iswcsym                  0000000180086bb0 f i libucrtd:_wctype.obj
 0001:00085bf0       __iswcsymf                 0000000180086bf0 f i libucrtd:_wctype.obj
 0001:00085c30       _isleadbyte_l              0000000180086c30 f i libucrtd:_wctype.obj
 0001:00085c90       _iswalnum_l                0000000180086c90 f i libucrtd:_wctype.obj
 0001:00085cc0       _iswalpha_l                0000000180086cc0 f i libucrtd:_wctype.obj
 0001:00085cf0       _iswblank_l                0000000180086cf0 f i libucrtd:_wctype.obj
 0001:00085d30       _iswcntrl_l                0000000180086d30 f i libucrtd:_wctype.obj
 0001:00085d60       _iswcsym_l                 0000000180086d60 f i libucrtd:_wctype.obj
 0001:00085db0       _iswcsymf_l                0000000180086db0 f i libucrtd:_wctype.obj
 0001:00085e00       _iswdigit_l                0000000180086e00 f i libucrtd:_wctype.obj
 0001:00085e30       _iswgraph_l                0000000180086e30 f i libucrtd:_wctype.obj
 0001:00085e60       _iswlower_l                0000000180086e60 f i libucrtd:_wctype.obj
 0001:00085e90       _iswprint_l                0000000180086e90 f i libucrtd:_wctype.obj
 0001:00085ec0       _iswpunct_l                0000000180086ec0 f i libucrtd:_wctype.obj
 0001:00085ef0       _iswspace_l                0000000180086ef0 f i libucrtd:_wctype.obj
 0001:00085f20       _iswupper_l                0000000180086f20 f i libucrtd:_wctype.obj
 0001:00085f50       _iswxdigit_l               0000000180086f50 f i libucrtd:_wctype.obj
 0001:00085f80       isleadbyte                 0000000180086f80 f i libucrtd:_wctype.obj
 0001:00085fa0       iswalnum                   0000000180086fa0 f i libucrtd:_wctype.obj
 0001:00085fc0       iswalpha                   0000000180086fc0 f i libucrtd:_wctype.obj
 0001:00085fe0       iswascii                   0000000180086fe0 f i libucrtd:_wctype.obj
 0001:00086010       iswblank                   0000000180087010 f i libucrtd:_wctype.obj
 0001:00086050       iswcntrl                   0000000180087050 f i libucrtd:_wctype.obj
 0001:00086070       iswdigit                   0000000180087070 f i libucrtd:_wctype.obj
 0001:00086090       iswgraph                   0000000180087090 f i libucrtd:_wctype.obj
 0001:000860b0       iswlower                   00000001800870b0 f i libucrtd:_wctype.obj
 0001:000860d0       iswprint                   00000001800870d0 f i libucrtd:_wctype.obj
 0001:000860f0       iswpunct                   00000001800870f0 f i libucrtd:_wctype.obj
 0001:00086110       iswspace                   0000000180087110 f i libucrtd:_wctype.obj
 0001:00086130       iswupper                   0000000180087130 f i libucrtd:_wctype.obj
 0001:00086150       iswxdigit                  0000000180087150 f i libucrtd:_wctype.obj
 0001:00086170       ??0?$__crt_scoped_stack_ptr@_W@@QEAA@U?$__crt_scoped_stack_ptr_tag@_W@@@Z 0000000180087170 f i libucrtd:lcmapstringa.obj
 0001:00086190       ??0?$__crt_scoped_stack_ptr_tag@_W@@QEAA@QEA_W@Z 0000000180087190 f i libucrtd:lcmapstringa.obj
 0001:000861b0       ??1?$__crt_scoped_stack_ptr@_W@@QEAA@XZ 00000001800871b0 f i libucrtd:lcmapstringa.obj
 0001:000861d0       ??B?$__crt_scoped_stack_ptr@_W@@QEBA_NXZ 00000001800871d0 f i libucrtd:lcmapstringa.obj
 0001:000867f0       ?get@?$__crt_scoped_stack_ptr@_W@@QEBAPEA_WXZ 00000001800877f0 f i libucrtd:lcmapstringa.obj
 0001:00086800       _MallocaComputeSize        0000000180087800 f i libucrtd:lcmapstringa.obj
 0001:00086840       _MarkAllocaS               0000000180087840 f i libucrtd:lcmapstringa.obj
 0001:00086870       __acrt_LCMapStringA        0000000180087870 f   libucrtd:lcmapstringa.obj
 0001:00086920       _freea_crt                 0000000180087920 f i libucrtd:lcmapstringa.obj
 0001:000869c0       ??$?RG@__crt_internal_free_policy@@QEBAXQEBG@Z 00000001800879c0 f i libucrtd:initctype.obj
 0001:000869f0       ??$?RJ@__crt_internal_free_policy@@QEBAXQEBJ@Z 00000001800879f0 f i libucrtd:initctype.obj
 0001:00086a20       ??0?$__crt_unique_heap_ptr@GU__crt_internal_free_policy@@@@QEAA@QEAG@Z 0000000180087a20 f i libucrtd:initctype.obj
 0001:00086a40       ??0?$__crt_unique_heap_ptr@JU__crt_internal_free_policy@@@@QEAA@QEAJ@Z 0000000180087a40 f i libucrtd:initctype.obj
 0001:00086a60       ??1?$__crt_unique_heap_ptr@GU__crt_internal_free_policy@@@@QEAA@XZ 0000000180087a60 f i libucrtd:initctype.obj
 0001:00086a80       ??1?$__crt_unique_heap_ptr@JU__crt_internal_free_policy@@@@QEAA@XZ 0000000180087a80 f i libucrtd:initctype.obj
 0001:00086aa0       ?detach@?$__crt_unique_heap_ptr@GU__crt_internal_free_policy@@@@QEAAPEAGXZ 0000000180087aa0 f i libucrtd:initctype.obj
 0001:00086ad0       ?detach@?$__crt_unique_heap_ptr@JU__crt_internal_free_policy@@@@QEAAPEAJXZ 0000000180087ad0 f i libucrtd:initctype.obj
 0001:00086b00       ?release@?$__crt_unique_heap_ptr@GU__crt_internal_free_policy@@@@QEAAXXZ 0000000180087b00 f i libucrtd:initctype.obj
 0001:00086b40       ?release@?$__crt_unique_heap_ptr@JU__crt_internal_free_policy@@@@QEAAXXZ 0000000180087b40 f i libucrtd:initctype.obj
 0001:00086b80       ___lc_codepage_func        0000000180087b80 f   libucrtd:initctype.obj
 0001:00086bc0       ___lc_collate_cp_func      0000000180087bc0 f   libucrtd:initctype.obj
 0001:00086c00       ___lc_locale_name_func     0000000180087c00 f   libucrtd:initctype.obj
 0001:00086c40       ___mb_cur_max_func         0000000180087c40 f   libucrtd:initctype.obj
 0001:00086c80       ___mb_cur_max_l_func       0000000180087c80 f   libucrtd:initctype.obj
 0001:00086cc0       __acrt_locale_initialize_ctype 0000000180087cc0 f   libucrtd:initctype.obj
 0001:00087640       __acrt_add_locale_ref      0000000180088640 f   libucrtd:locale_refcounting.obj
 0001:000877a0       __acrt_free_locale         00000001800887a0 f   libucrtd:locale_refcounting.obj
 0001:00087b10       __acrt_locale_add_lc_time_reference 0000000180088b10 f   libucrtd:locale_refcounting.obj
 0001:00087b50       __acrt_locale_free_lc_time_if_unreferenced 0000000180088b50 f   libucrtd:locale_refcounting.obj
 0001:00087bb0       __acrt_locale_release_lc_time_reference 0000000180088bb0 f   libucrtd:locale_refcounting.obj
 0001:00087bf0       __acrt_release_locale_ref  0000000180088bf0 f   libucrtd:locale_refcounting.obj
 0001:00087d50       __acrt_update_thread_locale_data 0000000180088d50 f   libucrtd:locale_refcounting.obj
 0001:00087e00       _updatetlocinfoEx_nolock   0000000180088e00 f   libucrtd:locale_refcounting.obj
 0001:00087ea0       __acrt_fp_strflt_to_string 0000000180088ea0 f   libucrtd:_fptostr.obj
 0001:00088930       ??0big_integer@__crt_strtox@@QEAA@AEBU01@@Z 0000000180089930 f i libucrtd:cfout.obj
 0001:00088990       ??0big_integer@__crt_strtox@@QEAA@XZ 0000000180089990 f i libucrtd:cfout.obj
 0001:000889d0       ??0scoped_fp_state_reset@?A0xce32f86b@@QEAA@XZ 00000001800899d0 f i libucrtd:cfout.obj
 0001:00088a20       ??1scoped_fp_state_reset@?A0xce32f86b@@QEAA@XZ 0000000180089a20 f i libucrtd:cfout.obj
 0001:00088a50       ??4big_integer@__crt_strtox@@QEAAAEAU01@AEBU01@@Z 0000000180089a50 f i libucrtd:cfout.obj
 0001:00088ab0       ??8__crt_strtox@@YA_NAEBUbig_integer@0@0@Z 0000000180089ab0 f i libucrtd:cfout.obj
 0001:00088b20       ??9__crt_strtox@@YA_NAEBUbig_integer@0@0@Z 0000000180089b20 f i libucrtd:cfout.obj
 0001:00088b60       ?add_carry@__crt_strtox@@YAIAEAIII@Z 0000000180089b60 f i libucrtd:cfout.obj
 0001:00088bb0       ?add_multiply_carry@__crt_strtox@@YAIAEAIIII@Z 0000000180089bb0 f i libucrtd:cfout.obj
 0001:00088c10       ?bit_scan_reverse@__crt_strtox@@YAII@Z 0000000180089c10 f i libucrtd:cfout.obj
 0001:00088c50       ?count_sequential_high_zeroes@__crt_strtox@@YAII@Z 0000000180089c50 f i libucrtd:cfout.obj
 0001:00088c90       ?divide@__crt_strtox@@YA_KAEAUbig_integer@1@AEBU21@@Z 0000000180089c90 f i libucrtd:cfout.obj
 0001:00089650       ?is_zero@__crt_strtox@@YA_NAEBUbig_integer@1@@Z 000000018008a650 f i libucrtd:cfout.obj
 0001:00089680       ?make_big_integer@__crt_strtox@@YA?AUbig_integer@1@_K@Z 000000018008a680 f i libucrtd:cfout.obj
 0001:00089750       ?make_big_integer_power_of_two@__crt_strtox@@YA?AUbig_integer@1@I@Z 000000018008a750 f i libucrtd:cfout.obj
 0001:00089820       ?multiply@__crt_strtox@@YA_NAEAUbig_integer@1@AEBU21@@Z 000000018008a820 f i libucrtd:cfout.obj
 0001:00089ba0       ?multiply@__crt_strtox@@YA_NAEAUbig_integer@1@I@Z 000000018008aba0 f i libucrtd:cfout.obj
 0001:00089cc0       ?multiply_64_32@__crt_strtox@@YA_K_KI@Z 000000018008acc0 f i libucrtd:cfout.obj
 0001:00089ce0       ?multiply_by_power_of_ten@__crt_strtox@@YA_NAEAUbig_integer@1@I@Z 000000018008ace0 f i libucrtd:cfout.obj
 0001:00089e90       ?multiply_core@__crt_strtox@@YAIQEAIII@Z 000000018008ae90 f i libucrtd:cfout.obj
 0001:00089f10       ?shift_left@__crt_strtox@@YA_NAEAUbig_integer@1@I@Z 000000018008af10 f i libucrtd:cfout.obj
 0001:0008a240       __acrt_fltout              000000018008b240 f   libucrtd:cfout.obj
 0001:0008b090       ?has_big_buffer@__crt_stdio_stream@@QEBA_NXZ 000000018008c090 f i libucrtd:_flsbuf.obj
 0001:0008b0b0       __acrt_stdio_flush_and_write_narrow_nolock 000000018008c0b0 f   libucrtd:_flsbuf.obj
 0001:0008b0e0       __acrt_stdio_flush_and_write_wide_nolock 000000018008c0e0 f   libucrtd:_flsbuf.obj
 0001:0008b110       ??0__crt_stdio_stream@@QEAA@QEAU__crt_stdio_stream_data@@@Z 000000018008c110 f i libucrtd:closeall.obj
 0001:0008b130       ?is_in_use@__crt_stdio_stream@@QEBA_NXZ 000000018008c130 f i libucrtd:closeall.obj
 0001:0008b170       _fcloseall                 000000018008c170 f   libucrtd:closeall.obj
 0001:0008b280       ?__acrt_stdio_reset_buffer@@YAXV__crt_stdio_stream@@@Z 000000018008c280 f i libucrtd:fflush.obj
 0001:0008b2d0       ?has_all_of@__crt_stdio_stream@@QEBA_NJ@Z 000000018008c2d0 f i libucrtd:fflush.obj
 0001:0008b310       __acrt_stdio_flush_nolock  000000018008c310 f   libucrtd:fflush.obj
 0001:0008b430       _fflush_nolock             000000018008c430 f   libucrtd:fflush.obj
 0001:0008b4c0       _flushall                  000000018008c4c0 f   libucrtd:fflush.obj
 0001:0008b650       fflush                     000000018008c650 f   libucrtd:fflush.obj
 0001:0008b6a0       ?has_crt_buffer@__crt_stdio_stream@@QEBA_NXZ 000000018008c6a0 f i libucrtd:_freebuf.obj
 0001:0008b6c0       __acrt_stdio_free_buffer_nolock 000000018008c6c0 f   libucrtd:_freebuf.obj
 0001:0008b7a0       _isatty                    000000018008c7a0 f   libucrtd:isatty.obj
 0001:0008b8b0       ??$?RUlconv@@@__crt_internal_free_policy@@QEBAXQEBUlconv@@@Z 000000018008c8b0 f i libucrtd:initmon.obj
 0001:0008b8e0       ??0?$__crt_unique_heap_ptr@Ulconv@@U__crt_internal_free_policy@@@@QEAA@QEAUlconv@@@Z 000000018008c8e0 f i libucrtd:initmon.obj
 0001:0008b900       ??1?$__crt_unique_heap_ptr@Ulconv@@U__crt_internal_free_policy@@@@QEAA@XZ 000000018008c900 f i libucrtd:initmon.obj
 0001:0008b920       ?detach@?$__crt_unique_heap_ptr@Ulconv@@U__crt_internal_free_policy@@@@QEAAPEAUlconv@@XZ 000000018008c920 f i libucrtd:initmon.obj
 0001:0008b950       ?release@?$__crt_unique_heap_ptr@Ulconv@@U__crt_internal_free_policy@@@@QEAAXXZ 000000018008c950 f i libucrtd:initmon.obj
 0001:0008b990       __acrt_locale_free_monetary 000000018008c990 f   libucrtd:initmon.obj
 0001:0008bba0       __acrt_locale_initialize_monetary 000000018008cba0 f   libucrtd:initmon.obj
 0001:0008c550       __acrt_locale_free_numeric 000000018008d550 f   libucrtd:initnum.obj
 0001:0008c630       __acrt_locale_initialize_numeric 000000018008d630 f   libucrtd:initnum.obj
 0001:0008cc30       ??$?RU__crt_lc_time_data@@@__crt_internal_free_policy@@QEBAXQEBU__crt_lc_time_data@@@Z 000000018008dc30 f i libucrtd:inittime.obj
 0001:0008cd20       ??0?$__crt_unique_heap_ptr@U__crt_lc_time_data@@U__crt_internal_free_policy@@@@QEAA@QEAU__crt_lc_time_data@@@Z 000000018008dd20 f i libucrtd:inittime.obj
 0001:0008cd40       ??1?$__crt_unique_heap_ptr@U__crt_lc_time_data@@U__crt_internal_free_policy@@@@QEAA@XZ 000000018008dd40 f i libucrtd:inittime.obj
 0001:0008cd60       ??B?$__crt_unique_heap_ptr@U__crt_lc_time_data@@U__crt_internal_free_policy@@@@QEBA_NXZ 000000018008dd60 f i libucrtd:inittime.obj
 0001:0008cd80       ?detach@?$__crt_unique_heap_ptr@U__crt_lc_time_data@@U__crt_internal_free_policy@@@@QEAAPEAU__crt_lc_time_data@@XZ 000000018008dd80 f i libucrtd:inittime.obj
 0001:0008ce10       ?get@?$__crt_unique_heap_ptr@U__crt_lc_time_data@@U__crt_internal_free_policy@@@@QEBAPEAU__crt_lc_time_data@@XZ 000000018008de10 f i libucrtd:inittime.obj
 0001:0008d480       ?is_valid@?$__crt_unique_heap_ptr@U__crt_lc_time_data@@U__crt_internal_free_policy@@@@QEBA_NXZ 000000018008e480 f i libucrtd:inittime.obj
 0001:0008d4b0       ?release@?$__crt_unique_heap_ptr@U__crt_lc_time_data@@U__crt_internal_free_policy@@@@QEAAXXZ 000000018008e4b0 f i libucrtd:inittime.obj
 0001:0008d4f0       __acrt_locale_free_time    000000018008e4f0 f   libucrtd:inittime.obj
 0001:0008d660       __acrt_locale_initialize_time 000000018008e660 f   libucrtd:inittime.obj
 0001:0008d700       __pctype_func              000000018008e700 f   libucrtd:ctype.obj
 0001:0008d740       __pwctype_func             000000018008e740 f   libucrtd:ctype.obj
 0001:0008d750       wcscmp                     000000018008e750 f   libucrtd:wcscmp.obj
 0001:0008d7d0       wcscspn                    000000018008e7d0 f   libucrtd:wcscspn.obj
 0001:0008d870       wcspbrk                    000000018008e870 f   libucrtd:wcspbrk.obj
 0001:0008d8f0       __acrt_GetStringTypeA      000000018008e8f0 f   libucrtd:getstringtypea.obj
 0001:0008e7e0       __acrt_get_qualified_locale 000000018008f7e0 f   libucrtd:get_qualified_locale.obj
 0001:0008f860       __acrt_get_qualified_locale_downlevel 0000000180090860 f   libucrtd:getqloc_downlevel.obj
 0001:0008fbd0       localeconv                 0000000180090bd0 f   libucrtd:localeconv.obj
 0001:0008fc10       ??$?RU__crt_lowio_handle_data@@@__crt_internal_free_policy@@QEBAXQEBU__crt_lowio_handle_data@@@Z 0000000180090c10 f i libucrtd:osfinfo.obj
 0001:0008fc40       ??0?$__crt_unique_heap_ptr@U__crt_lowio_handle_data@@U__crt_internal_free_policy@@@@QEAA@QEAU__crt_lowio_handle_data@@@Z 0000000180090c40 f i libucrtd:osfinfo.obj
 0001:0008fc60       ??1?$__crt_unique_heap_ptr@U__crt_lowio_handle_data@@U__crt_internal_free_policy@@@@QEAA@XZ 0000000180090c60 f i libucrtd:osfinfo.obj
 0001:0008fc80       ??B?$__crt_unique_heap_ptr@U__crt_lowio_handle_data@@U__crt_internal_free_policy@@@@QEBA_NXZ 0000000180090c80 f i libucrtd:osfinfo.obj
 0001:0008fca0       ?detach@?$__crt_unique_heap_ptr@U__crt_lowio_handle_data@@U__crt_internal_free_policy@@@@QEAAPEAU__crt_lowio_handle_data@@XZ 0000000180090ca0 f i libucrtd:osfinfo.obj
 0001:0008fcd0       ?get@?$__crt_unique_heap_ptr@U__crt_lowio_handle_data@@U__crt_internal_free_policy@@@@QEBAPEAU__crt_lowio_handle_data@@XZ 0000000180090cd0 f i libucrtd:osfinfo.obj
 0001:0008fce0       ?is_valid@?$__crt_unique_heap_ptr@U__crt_lowio_handle_data@@U__crt_internal_free_policy@@@@QEBA_NXZ 0000000180090ce0 f i libucrtd:osfinfo.obj
 0001:0008fd10       ?release@?$__crt_unique_heap_ptr@U__crt_lowio_handle_data@@U__crt_internal_free_policy@@@@QEAAXXZ 0000000180090d10 f i libucrtd:osfinfo.obj
 0001:0008fd50       __acrt_lowio_create_handle_array 0000000180090d50 f   libucrtd:osfinfo.obj
 0001:0008fee0       __acrt_lowio_destroy_handle_array 0000000180090ee0 f   libucrtd:osfinfo.obj
 0001:0008ff60       __acrt_lowio_ensure_fh_exists 0000000180090f60 f   libucrtd:osfinfo.obj
 0001:000900c0       __acrt_lowio_lock_fh       00000001800910c0 f   libucrtd:osfinfo.obj
 0001:00090100       __acrt_lowio_set_os_handle 0000000180091100 f   libucrtd:osfinfo.obj
 0001:00090210       __acrt_lowio_unlock_fh     0000000180091210 f   libucrtd:osfinfo.obj
 0001:00090250       _alloc_osfhnd              0000000180091250 f   libucrtd:osfinfo.obj
 0001:00090450       _free_osfhnd               0000000180091450 f   libucrtd:osfinfo.obj
 0001:00090580       _get_osfhandle             0000000180091580 f   libucrtd:osfinfo.obj
 0001:00090780       _open_osfhandle            0000000180091780 f   libucrtd:osfinfo.obj
 0001:000909a0       _malloc_base               00000001800919a0 f   libucrtd:malloc_base.obj
 0001:00090c90       __acrt_DownlevelLCIDToLocaleName 0000000180091c90 f   libucrtd:lcidtoname_downlevel.obj
 0001:00090d90       __acrt_DownlevelLocaleNameToLCID 0000000180091d90 f   libucrtd:lcidtoname_downlevel.obj
 0001:00090df0       ??1scoped_global_state_reset@__crt_state_management@@QEAA@XZ 0000000180091df0 f i libucrtd:qsort.obj
 0001:00090f80       qsort                      0000000180091f80 f   libucrtd:qsort.obj
 0001:000916d0       strpbrk                    00000001800926d0 f   libucrtd:strpbrk.obj
 0001:00091830       _wcsnicoll                 0000000180092830 f   libucrtd:wcsnicol.obj
 0001:00091b60       _wcsnicoll_l               0000000180092b60 f   libucrtd:wcsnicol.obj
 0001:00091f90       _strnicoll                 0000000180092f90 f   libucrtd:strnicol.obj
 0001:00091ff0       _strnicoll_l               0000000180092ff0 f   libucrtd:strnicol.obj
 0001:000923d0       _set_error_mode            00000001800933d0 f   libucrtd:set_error_mode.obj
 0001:000924d0       __strncnt                  00000001800934d0 f   libucrtd:strncnt.obj
 0001:00092740       __acrt_GetLocaleInfoA      0000000180093740 f   libucrtd:getlocaleinfoa.obj
 0001:00092ba0       log10                      0000000180093ba0 f   libucrtd:log10.obj
 0001:00093150       ceil                       0000000180094150 f   libucrtd:ceil.obj
 0001:00093320       fegetenv                   0000000180094320 f   libucrtd:fegetenv.obj
 0001:00093350       fesetenv                   0000000180094350 f   libucrtd:fesetenv.obj
 0001:000933c0       feholdexcept               00000001800943c0 f   libucrtd:feholdexcept.obj
 0001:000944f0       _write                     00000001800954f0 f   libucrtd:write.obj
 0001:00094790       _write_nolock              0000000180095790 f   libucrtd:write.obj
 0001:00095630       _lseek                     0000000180096630 f   libucrtd:lseek.obj
 0001:00095660       _lseek_nolock              0000000180096660 f   libucrtd:lseek.obj
 0001:00095690       _lseeki64                  0000000180096690 f   libucrtd:lseek.obj
 0001:000956c0       _lseeki64_nolock           00000001800966c0 f   libucrtd:lseek.obj
 0001:000956f0       __acrt_stdio_allocate_buffer_nolock 00000001800966f0 f   libucrtd:_getbuf.obj
 0001:00095860       _fclose_nolock             0000000180096860 f   libucrtd:fclose.obj
 0001:000959f0       fclose                     00000001800969f0 f   libucrtd:fclose.obj
 0001:00095b30       ??$?RV<lambda_2ce24b26f23dade10250ef086380d911>@@AEAV<lambda_e9ab68cc08dfd839979545c079379e6e>@@V<lambda_6262c464c96e4c69799ed44814c7c457>@@@?$__crt_seh_guarded_call@H@@QEAAH$$QEAV<lambda_2ce24b26f23dade10250ef086380d911>@@AEAV<lambda_e9ab68cc08dfd839979545c079379e6e>@@$$QEAV<lambda_6262c464c96e4c69799ed44814c7c457>@@@Z 0000000180096b30 f i libucrtd:commit.obj
 0001:00095b80       ??$__acrt_lowio_lock_fh_and_call@V<lambda_e9ab68cc08dfd839979545c079379e6e>@@@@YAHH$$QEAV<lambda_e9ab68cc08dfd839979545c079379e6e>@@@Z 0000000180096b80 f i libucrtd:commit.obj
 0001:00095d60       _commit                    0000000180096d60 f   libucrtd:commit.obj
 0001:00095f30       _wcsicmp                   0000000180096f30 f   libucrtd:wcsicmp.obj
 0001:00096180       _wcsicmp_l                 0000000180097180 f   libucrtd:wcsicmp.obj
 0001:000964f0       _wcsnicmp                  00000001800974f0 f   libucrtd:wcsnicmp.obj
 0001:00096790       _wcsnicmp_l                0000000180097790 f   libucrtd:wcsnicmp.obj
 0001:00096b20       __acrt_CompareStringW      0000000180097b20 f   libucrtd:comparestringw.obj
 0001:00096c50       __ascii_strnicmp           0000000180097c50 f   libucrtd:strnicmp.obj
 0001:00096d30       _strnicmp                  0000000180097d30 f   libucrtd:strnicmp.obj
 0001:00096f80       _strnicmp_l                0000000180097f80 f   libucrtd:strnicmp.obj
 0001:000979d0       __acrt_CompareStringA      00000001800989d0 f   libucrtd:comparestringa.obj
 0001:00097a70       __acrt_initialize_fma3     0000000180098a70 f   libucrtd:fma3_available.obj
 0001:00097b20       _get_FMA3_enable           0000000180098b20 f   libucrtd:fma3_available.obj
 0001:00097b30       _set_FMA3_enable           0000000180098b30 f   libucrtd:fma3_available.obj
 0001:00097b50       _log10_special             0000000180098b50 f   libucrtd:log_special.obj
 0001:00097ba0       _log10f_special            0000000180098ba0 f   libucrtd:log_special.obj
 0001:00097bf0       _log_special               0000000180098bf0 f   libucrtd:log_special.obj
 0001:00097d60       _logf_special              0000000180098d60 f   libucrtd:log_special.obj
 0001:000980d0       _handle_error              00000001800990d0 f   libucrtd:libm_error.obj
 0001:00098260       _handle_errorf             0000000180099260 f   libucrtd:libm_error.obj
 0001:000983f0       _handle_nan                00000001800993f0 f   libucrtd:libm_error.obj
 0001:00098440       _handle_nanf               0000000180099440 f   libucrtd:libm_error.obj
 0001:00098480       __acrt_fenv_get_fp_status_word_from_exception_mask 0000000180099480 f   libucrtd:_fenvutils.obj
 0001:00098520       _getfpcontrolword          0000000180099520 f   libucrtd:_fenvutils.obj
 0001:00098540       _getfpstatusword           0000000180099540 f   libucrtd:_fenvutils.obj
 0001:00098560       _setfpcontrolword          0000000180099560 f   libucrtd:_fenvutils.obj
 0001:00098580       _setfpstatusword           0000000180099580 f   libucrtd:_fenvutils.obj
 0001:000987d0       _clearfp                   00000001800997d0 f   libucrtd:ieee.obj
 0001:000987f0       _control87                 00000001800997f0 f   libucrtd:ieee.obj
 0001:00098810       _controlfp                 0000000180099810 f   libucrtd:ieee.obj
 0001:00098840       _fpreset                   0000000180099840 f   libucrtd:ieee.obj
 0001:000989b0       _set_controlfp             00000001800999b0 f   libucrtd:ieee.obj
 0001:00098a10       _statusfp                  0000000180099a10 f   libucrtd:ieee.obj
 0001:00098b44       ??$?RV<lambda_9fda798407f8391327e99fec20084266>@@AEAV<lambda_6e3e78bb6855d1e4040e022c1b427e22>@@V<lambda_5d54a80e00f5dcce6acfc22736ebf0cf>@@@?$__crt_seh_guarded_call@G@@QEAAG$$QEAV<lambda_9fda798407f8391327e99fec20084266>@@AEAV<lambda_6e3e78bb6855d1e4040e022c1b427e22>@@$$QEAV<lambda_5d54a80e00f5dcce6acfc22736ebf0cf>@@@Z 0000000180099b44 f i libucrtd:putwch.obj
 0001:00098b84       ??$__acrt_lock_and_call@V<lambda_6e3e78bb6855d1e4040e022c1b427e22>@@@@YAGW4__acrt_lock_id@@$$QEAV<lambda_6e3e78bb6855d1e4040e022c1b427e22>@@@Z 0000000180099b84 f i libucrtd:putwch.obj
 0001:00098be0       _putwch                    0000000180099be0 f   libucrtd:putwch.obj
 0001:00098c1c       _putwch_nolock             0000000180099c1c f   libucrtd:putwch.obj
 0001:00098c80       ??$?RV<lambda_4f1f1a84956f0d44b74de224c960ff76>@@AEAV<lambda_a8f98972ebaa5f7148d35bffe53bd70d>@@V<lambda_f6ca65dda28655a1cf758c1c4e38e52a>@@@?$__crt_seh_guarded_call@H@@QEAAH$$QEAV<lambda_4f1f1a84956f0d44b74de224c960ff76>@@AEAV<lambda_a8f98972ebaa5f7148d35bffe53bd70d>@@$$QEAV<lambda_f6ca65dda28655a1cf758c1c4e38e52a>@@@Z 0000000180099c80 f i libucrtd:close.obj
 0001:00098cd0       ??$__acrt_lowio_lock_fh_and_call@V<lambda_a8f98972ebaa5f7148d35bffe53bd70d>@@@@YAHH$$QEAV<lambda_a8f98972ebaa5f7148d35bffe53bd70d>@@@Z 0000000180099cd0 f i libucrtd:close.obj
 0001:00098f70       _close                     0000000180099f70 f   libucrtd:close.obj
 0001:00099160       _close_nolock              000000018009a160 f   libucrtd:close.obj
 0001:000991d0       ??$?RU__crt_stdio_stream_data@@@__crt_internal_free_policy@@QEBAXQEBU__crt_stdio_stream_data@@@Z 000000018009a1d0 f i libucrtd:stream.obj
 0001:00099200       ??0?$__crt_unique_heap_ptr@U__crt_stdio_stream_data@@U__crt_internal_free_policy@@@@QEAA@QEAU__crt_stdio_stream_data@@@Z 000000018009a200 f i libucrtd:stream.obj
 0001:00099220       ??0__crt_stdio_stream@@QEAA@XZ 000000018009a220 f i libucrtd:stream.obj
 0001:00099240       ??1?$__crt_unique_heap_ptr@U__crt_stdio_stream_data@@U__crt_internal_free_policy@@@@QEAA@XZ 000000018009a240 f i libucrtd:stream.obj
 0001:00099260       ?__acrt_stdio_allocate_stream@@YA?AV__crt_stdio_stream@@XZ 000000018009a260 f   libucrtd:stream.obj
 0001:00099320       ?__acrt_stdio_free_stream@@YAXV__crt_stdio_stream@@@Z 000000018009a320 f   libucrtd:stream.obj
 0001:000993c0       ?deallocate@__crt_stdio_stream@@QEAAXXZ 000000018009a3c0 f i libucrtd:stream.obj
 0001:000993e0       ?detach@?$__crt_unique_heap_ptr@U__crt_stdio_stream_data@@U__crt_internal_free_policy@@@@QEAAPEAU__crt_stdio_stream_data@@XZ 000000018009a3e0 f i libucrtd:stream.obj
 0001:000995c0       ?lock@__crt_stdio_stream@@QEBAXXZ 000000018009a5c0 f i libucrtd:stream.obj
 0001:000995e0       ?release@?$__crt_unique_heap_ptr@U__crt_stdio_stream_data@@U__crt_internal_free_policy@@@@QEAAXXZ 000000018009a5e0 f i libucrtd:stream.obj
 0001:00099620       ?try_allocate@__crt_stdio_stream@@QEAA_NXZ 000000018009a620 f i libucrtd:stream.obj
 0001:00099690       ?unlock@__crt_stdio_stream@@QEBAXXZ 000000018009a690 f i libucrtd:stream.obj
 0001:000996b0       _towlower_l                000000018009a6b0 f   libucrtd:towlower.obj
 0001:00099870       towlower                   000000018009a870 f   libucrtd:towlower.obj
 0001:00099890       _errcode                   000000018009a890 f   libucrtd:fpexcept.obj
 0001:00099910       _except1                   000000018009a910 f   libucrtd:fpexcept.obj
 0001:00099a50       _except2                   000000018009aa50 f   libucrtd:fpexcept.obj
 0001:00099c10       _handle_exc                000000018009ac10 f   libucrtd:fpexcept.obj
 0001:0009a070       _handle_qnan2              000000018009b070 f   libucrtd:fpexcept.obj
 0001:0009a0a0       _raise_exc                 000000018009b0a0 f   libucrtd:fpexcept.obj
 0001:0009a100       _raise_exc_ex              000000018009b100 f   libucrtd:fpexcept.obj
 0001:0009a780       _raise_excf                000000018009b780 f   libucrtd:fpexcept.obj
 0001:0009a7e0       _set_errno_from_matherr    000000018009b7e0 f   libucrtd:fpexcept.obj
 0001:0009a830       _umatherr                  000000018009b830 f   libucrtd:fpexcept.obj
 0001:0009a900       _clrfp                     000000018009b900 f   libucrtd:fpctrl.obj
 0001:0009a930       _ctrlfp                    000000018009b930 f   libucrtd:fpctrl.obj
 0001:0009a9e0       _set_statfp                000000018009b9e0 f   libucrtd:fpctrl.obj
 0001:0009aa20       _statfp                    000000018009ba20 f   libucrtd:fpctrl.obj
 0001:0009aa60       _get_fpsr                  000000018009ba60 f   libucrtd:fpsr.obj
 0001:0009aa70       _set_fpsr                  000000018009ba70 f   libucrtd:fpsr.obj
 0001:0009aa7a       _fclrf                     000000018009ba7a f   libucrtd:fpsr.obj
 0001:0009aa8e       _frnd                      000000018009ba8e f   libucrtd:fpsr.obj
 0001:0009aab0       __dcrt_lowio_initialize_console_output 000000018009bab0 f   libucrtd:initcon.obj
 0001:0009aaec       __dcrt_terminate_console_output 000000018009baec f   libucrtd:initcon.obj
 0001:0009ab10       __acrt_LCMapStringW        000000018009bb10 f   libucrtd:lcmapstringw.obj
 0001:0009abd0       _add_exp                   000000018009bbd0 f   libucrtd:util.obj
 0001:0009ac10       _decomp                    000000018009bc10 f   libucrtd:util.obj
 0001:0009ad60       _get_exp                   000000018009bd60 f   libucrtd:util.obj
 0001:0009ada0       _set_bexp                  000000018009bda0 f   libucrtd:util.obj
 0001:0009ade0       _set_exp                   000000018009bde0 f   libucrtd:util.obj
 0001:0009ae30       _sptype                    000000018009be30 f   libucrtd:util.obj
 0001:0009aeab       IsDebuggerPresent          000000018009beab f   kernel32:KERNEL32.dll
 0001:0009aeb1       OutputDebugStringW         000000018009beb1 f   kernel32:KERNEL32.dll
 0001:0009aeb7       RtlCaptureContext          000000018009beb7 f   kernel32:KERNEL32.dll
 0001:0009aebd       RtlLookupFunctionEntry     000000018009bebd f   kernel32:KERNEL32.dll
 0001:0009aec3       RtlVirtualUnwind           000000018009bec3 f   kernel32:KERNEL32.dll
 0001:0009aec9       UnhandledExceptionFilter   000000018009bec9 f   kernel32:KERNEL32.dll
 0001:0009aecf       SetUnhandledExceptionFilter 000000018009becf f   kernel32:KERNEL32.dll
 0001:0009aed5       GetCurrentProcess          000000018009bed5 f   kernel32:KERNEL32.dll
 0001:0009aedb       TerminateProcess           000000018009bedb f   kernel32:KERNEL32.dll
 0001:0009aee1       IsProcessorFeaturePresent  000000018009bee1 f   kernel32:KERNEL32.dll
 0001:0009aee7       GetStartupInfoW            000000018009bee7 f   kernel32:KERNEL32.dll
 0001:0009aeed       WideCharToMultiByte        000000018009beed f   kernel32:KERNEL32.dll
 0001:0009aef3       QueryPerformanceCounter    000000018009bef3 f   kernel32:KERNEL32.dll
 0001:0009aef9       GetCurrentProcessId        000000018009bef9 f   kernel32:KERNEL32.dll
 0001:0009aeff       GetCurrentThreadId         000000018009beff f   kernel32:KERNEL32.dll
 0001:0009af05       GetSystemTimeAsFileTime    000000018009bf05 f   kernel32:KERNEL32.dll
 0001:0009af0b       InitializeSListHead        000000018009bf0b f   kernel32:KERNEL32.dll
 0001:0009af11       HeapAlloc                  000000018009bf11 f   kernel32:KERNEL32.dll
 0001:0009af17       HeapFree                   000000018009bf17 f   kernel32:KERNEL32.dll
 0001:0009af1d       GetProcessHeap             000000018009bf1d f   kernel32:KERNEL32.dll
 0001:0009af23       VirtualQuery               000000018009bf23 f   kernel32:KERNEL32.dll
 0001:0009af29       RtlUnwindEx                000000018009bf29 f   kernel32:KERNEL32.dll
 0001:0009af2f       InterlockedPushEntrySList  000000018009bf2f f   kernel32:KERNEL32.dll
 0001:0009af35       InterlockedFlushSList      000000018009bf35 f   kernel32:KERNEL32.dll
 0001:0009af3b       RtlPcToFileHeader          000000018009bf3b f   kernel32:KERNEL32.dll
 0001:0009af41       InitializeCriticalSectionAndSpinCount 000000018009bf41 f   kernel32:KERNEL32.dll
 0001:0009af47       TlsAlloc                   000000018009bf47 f   kernel32:KERNEL32.dll
 0001:0009af4d       TlsGetValue                000000018009bf4d f   kernel32:KERNEL32.dll
 0001:0009af53       TlsSetValue                000000018009bf53 f   kernel32:KERNEL32.dll
 0001:0009af59       TlsFree                    000000018009bf59 f   kernel32:KERNEL32.dll
 0001:0009af5f       GetModuleFileNameA         000000018009bf5f f   kernel32:KERNEL32.dll
 0001:0009af65       GetModuleHandleExW         000000018009bf65 f   kernel32:KERNEL32.dll
 0001:0009af6b       ExitProcess                000000018009bf6b f   kernel32:KERNEL32.dll
 0001:0009af71       HeapSize                   000000018009bf71 f   kernel32:KERNEL32.dll
 0001:0009af77       HeapValidate               000000018009bf77 f   kernel32:KERNEL32.dll
 0001:0009af7d       GetSystemInfo              000000018009bf7d f   kernel32:KERNEL32.dll
 0001:0009af83       GetStdHandle               000000018009bf83 f   kernel32:KERNEL32.dll
 0001:0009af89       GetFileType                000000018009bf89 f   kernel32:KERNEL32.dll
 0001:0009af8f       WriteFile                  000000018009bf8f f   kernel32:KERNEL32.dll
 0001:0009af95       OutputDebugStringA         000000018009bf95 f   kernel32:KERNEL32.dll
 0001:0009af9b       WriteConsoleW              000000018009bf9b f   kernel32:KERNEL32.dll
 0001:0009afa1       CloseHandle                000000018009bfa1 f   kernel32:KERNEL32.dll
 0001:0009afa7       WaitForSingleObjectEx      000000018009bfa7 f   kernel32:KERNEL32.dll
 0001:0009afad       CreateThread               000000018009bfad f   kernel32:KERNEL32.dll
 0001:0009afb3       SetConsoleCtrlHandler      000000018009bfb3 f   kernel32:KERNEL32.dll
 0001:0009afb9       GetCurrentThread           000000018009bfb9 f   kernel32:KERNEL32.dll
 0001:0009afbf       GetACP                     000000018009bfbf f   kernel32:KERNEL32.dll
 0001:0009afc5       HeapReAlloc                000000018009bfc5 f   kernel32:KERNEL32.dll
 0001:0009afcb       GetDateFormatW             000000018009bfcb f   kernel32:KERNEL32.dll
 0001:0009afd1       GetTimeFormatW             000000018009bfd1 f   kernel32:KERNEL32.dll
 0001:0009afd7       CompareStringW             000000018009bfd7 f   kernel32:KERNEL32.dll
 0001:0009afdd       LCMapStringW               000000018009bfdd f   kernel32:KERNEL32.dll
 0001:0009afe3       GetLocaleInfoW             000000018009bfe3 f   kernel32:KERNEL32.dll
 0001:0009afe9       IsValidLocale              000000018009bfe9 f   kernel32:KERNEL32.dll
 0001:0009afef       GetUserDefaultLCID         000000018009bfef f   kernel32:KERNEL32.dll
 0001:0009aff5       EnumSystemLocalesW         000000018009bff5 f   kernel32:KERNEL32.dll
 0001:0009affb       FindClose                  000000018009bffb f   kernel32:KERNEL32.dll
 0001:0009b001       FindFirstFileExA           000000018009c001 f   kernel32:KERNEL32.dll
 0001:0009b007       FindFirstFileExW           000000018009c007 f   kernel32:KERNEL32.dll
 0001:0009b00d       FindNextFileA              000000018009c00d f   kernel32:KERNEL32.dll
 0001:0009b013       FindNextFileW              000000018009c013 f   kernel32:KERNEL32.dll
 0001:0009b019       IsValidCodePage            000000018009c019 f   kernel32:KERNEL32.dll
 0001:0009b01f       GetOEMCP                   000000018009c01f f   kernel32:KERNEL32.dll
 0001:0009b025       GetCPInfo                  000000018009c025 f   kernel32:KERNEL32.dll
 0001:0009b02b       GetCommandLineA            000000018009c02b f   kernel32:KERNEL32.dll
 0001:0009b031       GetCommandLineW            000000018009c031 f   kernel32:KERNEL32.dll
 0001:0009b037       GetEnvironmentStringsW     000000018009c037 f   kernel32:KERNEL32.dll
 0001:0009b03d       FreeEnvironmentStringsW    000000018009c03d f   kernel32:KERNEL32.dll
 0001:0009b043       SetEnvironmentVariableA    000000018009c043 f   kernel32:KERNEL32.dll
 0001:0009b049       SetEnvironmentVariableW    000000018009c049 f   kernel32:KERNEL32.dll
 0001:0009b04f       HeapQueryInformation       000000018009c04f f   kernel32:KERNEL32.dll
 0001:0009b055       GetStringTypeW             000000018009c055 f   kernel32:KERNEL32.dll
 0001:0009b05b       SetStdHandle               000000018009c05b f   kernel32:KERNEL32.dll
 0001:0009b061       GetConsoleCP               000000018009c061 f   kernel32:KERNEL32.dll
 0001:0009b067       GetConsoleMode             000000018009c067 f   kernel32:KERNEL32.dll
 0001:0009b06d       SetFilePointerEx           000000018009c06d f   kernel32:KERNEL32.dll
 0001:0009b073       FlushFileBuffers           000000018009c073 f   kernel32:KERNEL32.dll
 0001:0009b079       CreateFileW                000000018009c079 f   kernel32:KERNEL32.dll
 0001:0009b080       _FindPESection             000000018009c080 f   LIBCMTD:pesect.obj
 0001:0009b130       _IsNonwritableInCurrentImage 000000018009c130 f   LIBCMTD:pesect.obj
 0001:0009b1c0       _ValidateImageBase         000000018009c1c0 f   LIBCMTD:pesect.obj
 0001:0009b240       __GSHandlerCheck_SEH       000000018009c240 f   LIBCMTD:gshandlerseh.obj
 0001:0009b300       __GSHandlerCheck_EH        000000018009c300 f   LIBCMTD:gshandlereh.obj
 0001:0009b3b0       strrchr                    000000018009c3b0 f   libvcruntimed:strrchr.obj
 0001:0009b7d0       _local_unwind              000000018009c7d0 f   libvcruntimed:jmpuwind.obj
 0001:0009b800       strchr                     000000018009c800 f   libvcruntimed:strchr.obj
 0001:0009b990       wcschr                     000000018009c990 f   libvcruntimed:wcschr.obj
 0001:0009bae1       RtlUnwind                  000000018009cae1 f   kernel32:KERNEL32.dll
 0001:0009bb00       _guard_dispatch_icall_nop  000000018009cb00 f   LIBCMTD:guard_dispatch.obj
 0002:00000000       __imp_RegQueryInfoKeyW     000000018009e000     advapi32:ADVAPI32.dll
 0002:00000008       __imp_RegOpenKeyExW        000000018009e008     advapi32:ADVAPI32.dll
 0002:00000010       __imp_RegEnumKeyExW        000000018009e010     advapi32:ADVAPI32.dll
 0002:00000018       __imp_RegDeleteValueW      000000018009e018     advapi32:ADVAPI32.dll
 0002:00000020       __imp_RegDeleteKeyW        000000018009e020     advapi32:ADVAPI32.dll
 0002:00000028       __imp_RegCreateKeyExW      000000018009e028     advapi32:ADVAPI32.dll
 0002:00000030       __imp_RegCloseKey          000000018009e030     advapi32:ADVAPI32.dll
 0002:00000038       __imp_RegSetValueExW       000000018009e038     advapi32:ADVAPI32.dll
 0002:00000040       \177ADVAPI32_NULL_THUNK_DATA 000000018009e040     advapi32:ADVAPI32.dll
 0002:00000048       __imp_DisableThreadLibraryCalls 000000018009e048     kernel32:KERNEL32.dll
 0002:00000050       __imp_FreeLibrary          000000018009e050     kernel32:KERNEL32.dll
 0002:00000058       __imp_GetModuleFileNameW   000000018009e058     kernel32:KERNEL32.dll
 0002:00000060       __imp_GetModuleHandleW     000000018009e060     kernel32:KERNEL32.dll
 0002:00000068       __imp_GetProcAddress       000000018009e068     kernel32:KERNEL32.dll
 0002:00000070       __imp_LoadLibraryExW       000000018009e070     kernel32:KERNEL32.dll
 0002:00000078       __imp_LoadResource         000000018009e078     kernel32:KERNEL32.dll
 0002:00000080       __imp_LeaveCriticalSection 000000018009e080     kernel32:KERNEL32.dll
 0002:00000088       __imp_lstrcmpiW            000000018009e088     kernel32:KERNEL32.dll
 0002:00000090       __imp_FindResourceW        000000018009e090     kernel32:KERNEL32.dll
 0002:00000098       __imp_MultiByteToWideChar  000000018009e098     kernel32:KERNEL32.dll
 0002:000000a0       __imp_CreateFileW          000000018009e0a0     kernel32:KERNEL32.dll
 0002:000000a8       __imp_FlushFileBuffers     000000018009e0a8     kernel32:KERNEL32.dll
 0002:000000b0       __imp_SetFilePointerEx     000000018009e0b0     kernel32:KERNEL32.dll
 0002:000000b8       __imp_GetConsoleMode       000000018009e0b8     kernel32:KERNEL32.dll
 0002:000000c0       __imp_EnterCriticalSection 000000018009e0c0     kernel32:KERNEL32.dll
 0002:000000c8       __imp_EncodePointer        000000018009e0c8     kernel32:KERNEL32.dll
 0002:000000d0       __imp_DeleteCriticalSection 000000018009e0d0     kernel32:KERNEL32.dll
 0002:000000d8       __imp_InitializeCriticalSectionEx 000000018009e0d8     kernel32:KERNEL32.dll
 0002:000000e0       __imp_SetLastError         000000018009e0e0     kernel32:KERNEL32.dll
 0002:000000e8       __imp_GetLastError         000000018009e0e8     kernel32:KERNEL32.dll
 0002:000000f0       __imp_RaiseException       000000018009e0f0     kernel32:KERNEL32.dll
 0002:000000f8       __imp_SizeofResource       000000018009e0f8     kernel32:KERNEL32.dll
 0002:00000100       __imp_DecodePointer        000000018009e100     kernel32:KERNEL32.dll
 0002:00000108       __imp_GetConsoleCP         000000018009e108     kernel32:KERNEL32.dll
 0002:00000110       __imp_SetStdHandle         000000018009e110     kernel32:KERNEL32.dll
 0002:00000118       __imp_GetStringTypeW       000000018009e118     kernel32:KERNEL32.dll
 0002:00000120       __imp_HeapQueryInformation 000000018009e120     kernel32:KERNEL32.dll
 0002:00000128       __imp_SetEnvironmentVariableW 000000018009e128     kernel32:KERNEL32.dll
 0002:00000130       __imp_SetEnvironmentVariableA 000000018009e130     kernel32:KERNEL32.dll
 0002:00000138       __imp_FreeEnvironmentStringsW 000000018009e138     kernel32:KERNEL32.dll
 0002:00000140       __imp_GetEnvironmentStringsW 000000018009e140     kernel32:KERNEL32.dll
 0002:00000148       __imp_GetCommandLineW      000000018009e148     kernel32:KERNEL32.dll
 0002:00000150       __imp_GetCommandLineA      000000018009e150     kernel32:KERNEL32.dll
 0002:00000158       __imp_GetCPInfo            000000018009e158     kernel32:KERNEL32.dll
 0002:00000160       __imp_GetOEMCP             000000018009e160     kernel32:KERNEL32.dll
 0002:00000168       __imp_IsValidCodePage      000000018009e168     kernel32:KERNEL32.dll
 0002:00000170       __imp_FindNextFileW        000000018009e170     kernel32:KERNEL32.dll
 0002:00000178       __imp_IsDebuggerPresent    000000018009e178     kernel32:KERNEL32.dll
 0002:00000180       __imp_OutputDebugStringW   000000018009e180     kernel32:KERNEL32.dll
 0002:00000188       __imp_RtlCaptureContext    000000018009e188     kernel32:KERNEL32.dll
 0002:00000190       __imp_RtlLookupFunctionEntry 000000018009e190     kernel32:KERNEL32.dll
 0002:00000198       __imp_RtlVirtualUnwind     000000018009e198     kernel32:KERNEL32.dll
 0002:000001a0       __imp_UnhandledExceptionFilter 000000018009e1a0     kernel32:KERNEL32.dll
 0002:000001a8       __imp_SetUnhandledExceptionFilter 000000018009e1a8     kernel32:KERNEL32.dll
 0002:000001b0       __imp_GetCurrentProcess    000000018009e1b0     kernel32:KERNEL32.dll
 0002:000001b8       __imp_TerminateProcess     000000018009e1b8     kernel32:KERNEL32.dll
 0002:000001c0       __imp_IsProcessorFeaturePresent 000000018009e1c0     kernel32:KERNEL32.dll
 0002:000001c8       __imp_GetStartupInfoW      000000018009e1c8     kernel32:KERNEL32.dll
 0002:000001d0       __imp_WideCharToMultiByte  000000018009e1d0     kernel32:KERNEL32.dll
 0002:000001d8       __imp_QueryPerformanceCounter 000000018009e1d8     kernel32:KERNEL32.dll
 0002:000001e0       __imp_GetCurrentProcessId  000000018009e1e0     kernel32:KERNEL32.dll
 0002:000001e8       __imp_GetCurrentThreadId   000000018009e1e8     kernel32:KERNEL32.dll
 0002:000001f0       __imp_GetSystemTimeAsFileTime 000000018009e1f0     kernel32:KERNEL32.dll
 0002:000001f8       __imp_InitializeSListHead  000000018009e1f8     kernel32:KERNEL32.dll
 0002:00000200       __imp_HeapAlloc            000000018009e200     kernel32:KERNEL32.dll
 0002:00000208       __imp_HeapFree             000000018009e208     kernel32:KERNEL32.dll
 0002:00000210       __imp_GetProcessHeap       000000018009e210     kernel32:KERNEL32.dll
 0002:00000218       __imp_VirtualQuery         000000018009e218     kernel32:KERNEL32.dll
 0002:00000220       __imp_RtlUnwindEx          000000018009e220     kernel32:KERNEL32.dll
 0002:00000228       __imp_InterlockedPushEntrySList 000000018009e228     kernel32:KERNEL32.dll
 0002:00000230       __imp_InterlockedFlushSList 000000018009e230     kernel32:KERNEL32.dll
 0002:00000238       __imp_RtlPcToFileHeader    000000018009e238     kernel32:KERNEL32.dll
 0002:00000240       __imp_InitializeCriticalSectionAndSpinCount 000000018009e240     kernel32:KERNEL32.dll
 0002:00000248       __imp_TlsAlloc             000000018009e248     kernel32:KERNEL32.dll
 0002:00000250       __imp_TlsGetValue          000000018009e250     kernel32:KERNEL32.dll
 0002:00000258       __imp_TlsSetValue          000000018009e258     kernel32:KERNEL32.dll
 0002:00000260       __imp_TlsFree              000000018009e260     kernel32:KERNEL32.dll
 0002:00000268       __imp_GetModuleFileNameA   000000018009e268     kernel32:KERNEL32.dll
 0002:00000270       __imp_GetModuleHandleExW   000000018009e270     kernel32:KERNEL32.dll
 0002:00000278       __imp_ExitProcess          000000018009e278     kernel32:KERNEL32.dll
 0002:00000280       __imp_HeapSize             000000018009e280     kernel32:KERNEL32.dll
 0002:00000288       __imp_HeapValidate         000000018009e288     kernel32:KERNEL32.dll
 0002:00000290       __imp_GetSystemInfo        000000018009e290     kernel32:KERNEL32.dll
 0002:00000298       __imp_GetStdHandle         000000018009e298     kernel32:KERNEL32.dll
 0002:000002a0       __imp_GetFileType          000000018009e2a0     kernel32:KERNEL32.dll
 0002:000002a8       __imp_WriteFile            000000018009e2a8     kernel32:KERNEL32.dll
 0002:000002b0       __imp_OutputDebugStringA   000000018009e2b0     kernel32:KERNEL32.dll
 0002:000002b8       __imp_WriteConsoleW        000000018009e2b8     kernel32:KERNEL32.dll
 0002:000002c0       __imp_CloseHandle          000000018009e2c0     kernel32:KERNEL32.dll
 0002:000002c8       __imp_WaitForSingleObjectEx 000000018009e2c8     kernel32:KERNEL32.dll
 0002:000002d0       __imp_CreateThread         000000018009e2d0     kernel32:KERNEL32.dll
 0002:000002d8       __imp_SetConsoleCtrlHandler 000000018009e2d8     kernel32:KERNEL32.dll
 0002:000002e0       __imp_GetCurrentThread     000000018009e2e0     kernel32:KERNEL32.dll
 0002:000002e8       __imp_GetACP               000000018009e2e8     kernel32:KERNEL32.dll
 0002:000002f0       __imp_HeapReAlloc          000000018009e2f0     kernel32:KERNEL32.dll
 0002:000002f8       __imp_GetDateFormatW       000000018009e2f8     kernel32:KERNEL32.dll
 0002:00000300       __imp_GetTimeFormatW       000000018009e300     kernel32:KERNEL32.dll
 0002:00000308       __imp_CompareStringW       000000018009e308     kernel32:KERNEL32.dll
 0002:00000310       __imp_LCMapStringW         000000018009e310     kernel32:KERNEL32.dll
 0002:00000318       __imp_GetLocaleInfoW       000000018009e318     kernel32:KERNEL32.dll
 0002:00000320       __imp_IsValidLocale        000000018009e320     kernel32:KERNEL32.dll
 0002:00000328       __imp_GetUserDefaultLCID   000000018009e328     kernel32:KERNEL32.dll
 0002:00000330       __imp_EnumSystemLocalesW   000000018009e330     kernel32:KERNEL32.dll
 0002:00000338       __imp_FindClose            000000018009e338     kernel32:KERNEL32.dll
 0002:00000340       __imp_FindFirstFileExA     000000018009e340     kernel32:KERNEL32.dll
 0002:00000348       __imp_FindFirstFileExW     000000018009e348     kernel32:KERNEL32.dll
 0002:00000350       __imp_FindNextFileA        000000018009e350     kernel32:KERNEL32.dll
 0002:00000358       __imp_RtlUnwind            000000018009e358     kernel32:KERNEL32.dll
 0002:00000360       \177KERNEL32_NULL_THUNK_DATA 000000018009e360     kernel32:KERNEL32.dll
 0002:00000368       __imp_LoadTypeLib          000000018009e368     oleaut32:OLEAUT32.dll
 0002:00000370       __imp_UnRegisterTypeLib    000000018009e370     oleaut32:OLEAUT32.dll
 0002:00000378       __imp_SysStringLen         000000018009e378     oleaut32:OLEAUT32.dll
 0002:00000380       __imp_SysAllocString       000000018009e380     oleaut32:OLEAUT32.dll
 0002:00000388       __imp_SysFreeString        000000018009e388     oleaut32:OLEAUT32.dll
 0002:00000390       __imp_VarUI4FromStr        000000018009e390     oleaut32:OLEAUT32.dll
 0002:00000398       __imp_RegisterTypeLib      000000018009e398     oleaut32:OLEAUT32.dll
 0002:000003a0       \177OLEAUT32_NULL_THUNK_DATA 000000018009e3a0     oleaut32:OLEAUT32.dll
 0002:000003a8       __imp_UnregisterClassW     000000018009e3a8     user32:USER32.dll
 0002:000003b0       __imp_CharNextW            000000018009e3b0     user32:USER32.dll
 0002:000003b8       \177USER32_NULL_THUNK_DATA 000000018009e3b8     user32:USER32.dll
 0002:000003c0       __imp_CoTaskMemRealloc     000000018009e3c0     ole32:ole32.dll
 0002:000003c8       __imp_CoCreateInstance     000000018009e3c8     ole32:ole32.dll
 0002:000003d0       __imp_StringFromGUID2      000000018009e3d0     ole32:ole32.dll
 0002:000003d8       __imp_CoTaskMemAlloc       000000018009e3d8     ole32:ole32.dll
 0002:000003e0       __imp_CoTaskMemFree        000000018009e3e0     ole32:ole32.dll
 0002:000003e8       \177ole32_NULL_THUNK_DATA  000000018009e3e8     ole32:ole32.dll
 0002:000003f0       __guard_check_icall_fptr   000000018009e3f0     LIBCMTD:guard_support.obj
 0002:000003f8       __guard_dispatch_icall_fptr 000000018009e3f8     LIBCMTD:guard_support.obj
 0002:00000400       __xc_a                     000000018009e400     LIBCMTD:initializers.obj
 0002:000004e0       __xc_z                     000000018009e4e0     LIBCMTD:initializers.obj
 0002:000004e8       __xi_a                     000000018009e4e8     LIBCMTD:initializers.obj
 0002:000004f0       __acrt_stdio_initializer   000000018009e4f0     libucrtd:stdio_initializer.obj
 0002:000004f8       __acrt_multibyte_initializer 000000018009e4f8     libucrtd:multibyte_initializer.obj
 0002:00000500       __acrt_tran_fma3_initializer 000000018009e500     libucrtd:fma3_initializer.obj
 0002:00000508       __xi_z                     000000018009e508     LIBCMTD:initializers.obj
 0002:00000510       __xp_a                     000000018009e510     LIBCMTD:initializers.obj
 0002:00000518       __acrt_locale_terminator   000000018009e518     libucrtd:locale_initializer.obj
 0002:00000520       __dcrt_console_output_terminator 000000018009e520     libucrtd:console_output_initializer.obj
 0002:00000528       __acrt_stdio_terminator    000000018009e528     libucrtd:stdio_initializer.obj
 0002:00000530       __xp_z                     000000018009e530     LIBCMTD:initializers.obj
 0002:00000538       __xt_a                     000000018009e538     LIBCMTD:initializers.obj
 0002:00000540       __xt_z                     000000018009e540     LIBCMTD:initializers.obj
 0002:000023f8       IID_IRegistrar             00000001800a03f8     StdAfx.obj
 0002:00002408       IID_IDocHostUIHandlerDispatch 00000001800a0408     StdAfx.obj
 0002:00002418       IID_IAxWinHostWindow       00000001800a0418     StdAfx.obj
 0002:00002428       IID_IAxWinHostWindowLic    00000001800a0428     StdAfx.obj
 0002:00002438       IID_IAxWinAmbientDispatch  00000001800a0438     StdAfx.obj
 0002:00002448       IID_IAxWinAmbientDispatchEx 00000001800a0448     StdAfx.obj
 0002:00002458       IID_IInternalConnection    00000001800a0458     StdAfx.obj
 0002:00002468       LIBID_ATLLib               00000001800a0468     StdAfx.obj
 0002:00002478       ?chDirSep@ATL@@3_WB        00000001800a0478     StdAfx.obj
 0002:0000247c       ?chRightBracket@ATL@@3_WB  00000001800a047c     StdAfx.obj
 0002:00002480       ?chLeftBracket@ATL@@3_WB   00000001800a0480     StdAfx.obj
 0002:00002484       ?chQuote@ATL@@3_WB         00000001800a0484     StdAfx.obj
 0002:00002488       ?chEquals@ATL@@3_WB        00000001800a0488     StdAfx.obj
 0002:00002490       ?szStringVal@ATL@@3QEB_WEB 00000001800a0490     StdAfx.obj
 0002:00002498       ?multiszStringVal@ATL@@3QEB_WEB 00000001800a0498     StdAfx.obj
 0002:000024a0       ?szDwordVal@ATL@@3QEB_WEB  00000001800a04a0     StdAfx.obj
 0002:000024a8       ?szBinaryVal@ATL@@3QEB_WEB 00000001800a04a8     StdAfx.obj
 0002:000024b0       ?szValToken@ATL@@3QEB_WEB  00000001800a04b0     StdAfx.obj
 0002:000024b8       ?szForceRemove@ATL@@3QEB_WEB 00000001800a04b8     StdAfx.obj
 0002:000024c0       ?szNoRemove@ATL@@3QEB_WEB  00000001800a04c0     StdAfx.obj
 0002:000024c8       ?szDelete@ATL@@3QEB_WEB    00000001800a04c8     StdAfx.obj
 0002:000024d0       CLSID_Registrar            00000001800a04d0     StdAfx.obj
 0002:000027a0       ??_C@_13COJANIEC@?$AA0@    00000001800a07a0     StdAfx.obj
 0002:000027a8       ??_C@_17CNPHIMPH@?$AA?$CF?$AAl?$AAs@ 00000001800a07a8     StdAfx.obj
 0002:000027b0       ??_C@_1OE@IAPLKPHI@?$AAc?$AA?3?$AA?2?$AAp?$AAr?$AAo?$AAg?$AAr?$AAa?$AAm?$AA?5?$AAf?$AAi?$AAl?$AAe@ 00000001800a07b0     StdAfx.obj
 0002:00002898       ??_C@_1O@LFNDFEBP@?$AA?$CF?$AAl?$AAs?$AA?5?$AA?9?$AA?5@ 00000001800a0898     StdAfx.obj
 0002:000028a8       ??_C@_1M@PGKOAACE@?$AA?$CF?$AAu?$AA?5?$AA?9?$AA?5@ 00000001800a08a8     StdAfx.obj
 0002:000028b8       ??_C@_1O@OAIPCDPO@?$AA?$CF?$AAl?$AAs?$AA?$CF?$AAl?$AAs@ 00000001800a08b8     StdAfx.obj
 0002:000028c8       ??_C@_17LGGGMOOB@?$AA?$CF?$AAh?$AAs@ 00000001800a08c8     StdAfx.obj
 0002:000028d0       ??_C@_1EO@EBPPKGOM@?$AAf?$AAa?$AAl?$AAs?$AAe?$AA?5?$AA?$CG?$AA?$CG?$AA?5?$AA?$CC?$AAT?$AAo?$AAo?$AA?5?$AAm@ 00000001800a08d0     StdAfx.obj
 0002:00002920       ??_C@_1OE@PDFAMNPL@?$AAc?$AA?3?$AA?2?$AAp?$AAr?$AAo?$AAg?$AAr?$AAa?$AAm?$AA?5?$AAf?$AAi?$AAl?$AAe@ 00000001800a0920     StdAfx.obj
 0002:00002a10       ??_C@_1OC@KJBACLGD@?$AAc?$AA?3?$AA?2?$AAp?$AAr?$AAo?$AAg?$AAr?$AAa?$AAm?$AA?5?$AAf?$AAi?$AAl?$AAe@ 00000001800a0a10     StdAfx.obj
 0002:00002b00       ??_C@_0HB@FHIMFEIJ@c?3?2program?5files?5?$CIx86?$CJ?2microsof@ 00000001800a0b00     StdAfx.obj
 0002:00002b80       ??_C@_1IA@KEEOONGN@?$AAE?$AAR?$AAR?$AAO?$AAR?$AA?5?$AA?3?$AA?5?$AAU?$AAn?$AAa?$AAb?$AAl?$AAe?$AA?5@ 00000001800a0b80     StdAfx.obj
 0002:00002c00       ??_C@_1IG@OPJAFKJH@?$AAE?$AAR?$AAR?$AAO?$AAR?$AA?5?$AA?3?$AA?5?$AAU?$AAn?$AAa?$AAb?$AAl?$AAe?$AA?5@ 00000001800a0c00     StdAfx.obj
 0002:00002c90       ??_C@_1EA@JHMKKLFC@?$AAn?$AAI?$AAn?$AAd?$AAe?$AAx?$AA?5?$AA?$DO?$AA?$DN?$AA?5?$AA0?$AA?5?$AA?$CG?$AA?$CG?$AA?5@ 00000001800a0c90     StdAfx.obj
 0002:00002cd0       ??_C@_1OK@GILLOEON@?$AAc?$AA?3?$AA?2?$AAp?$AAr?$AAo?$AAg?$AAr?$AAa?$AAm?$AA?5?$AAf?$AAi?$AAl?$AAe@ 00000001800a0cd0     StdAfx.obj
 0002:00002dc0       ??_C@_1BK@NHECDDNK@?$AAm?$AA_?$AAp?$AAD?$AAa?$AAt?$AAa?$AA?5?$AA?$DN?$AA?$DN?$AA?5?$AA0@ 00000001800a0dc0     StdAfx.obj
 0002:00004b78       LIBID_OPOSCONSTANTSLib     00000001800a2b78     OposConstants.obj
 0002:00006600       ??_C@_0HD@OEBHCJKM@c?3?2program?5files?5?$CIx86?$CJ?2microsof@ 00000001800a4600     OposConstants.obj
 0002:00006678       ??_C@_1CK@DFMKPFAK@?$AAA?$AAt?$AAl?$AAT?$AAh?$AAr?$AAo?$AAw?$AA?3?$AA?5?$AAh?$AAr?$AA?5?$AA?$DN?$AA?5@ 00000001800a4678     OposConstants.obj
 0002:000066a8       ??_C@_1M@HLGKFCJM@?$AAf?$AAa?$AAl?$AAs?$AAe@ 00000001800a46a8     OposConstants.obj
 0002:000066c0       ??_C@_1OG@LHONHIM@?$AAc?$AA?3?$AA?2?$AAp?$AAr?$AAo?$AAg?$AAr?$AAa?$AAm?$AA?5?$AAf?$AAi?$AAl?$AAe@ 00000001800a46c0     OposConstants.obj
 0002:000067a8       ??_C@_1BM@GBBOFEAE@?$AA_?$AA_?$AAa?$AAt?$AAl?$AA_?$AAc?$AAo?$AAn?$AAd?$AAV?$AAa?$AAl@ 00000001800a47a8     OposConstants.obj
 0002:000067d0       ??_C@_1OG@OAFGBIBO@?$AAc?$AA?3?$AA?2?$AAp?$AAr?$AAo?$AAg?$AAr?$AAa?$AAm?$AA?5?$AAf?$AAi?$AAl?$AAe@ 00000001800a47d0     OposConstants.obj
 0002:000068b8       _GUID_00000000_0000_0000_c000_000000000046 00000001800a48b8     OposConstants.obj
 0002:000068c8       ??_C@_1BG@ILBPLEEF@?$AAn?$AAN?$AAu?$AAl?$AAl?$AA?5?$AA?$DN?$AA?$DN?$AA?5?$AA0@ 00000001800a48c8     OposConstants.obj
 0002:000068e0       ??_C@_1PO@PBNILLCO@?$AAc?$AA?3?$AA?2?$AAp?$AAr?$AAo?$AAg?$AAr?$AAa?$AAm?$AA?5?$AAf?$AAi?$AAl?$AAe@ 00000001800a48e0     OposConstants.obj
 0002:000069e0       ??_C@_1BK@BIGILECK@?$AAA?$AAd?$AAv?$AAa?$AAp?$AAi?$AA3?$AA2?$AA?4?$AAd?$AAl?$AAl@ 00000001800a49e0     OposConstants.obj
 0002:00006a00       ??_C@_1BO@KNMGNOCJ@?$AAh?$AAA?$AAd?$AAv?$AAA?$AAP?$AAI?$AA3?$AA2?$AA?5?$AA?$CB?$AA?$DN?$AA?5?$AA0@ 00000001800a4a00     OposConstants.obj
 0002:00006a20       ??_C@_0BG@EKFFMJIO@RegOpenKeyTransactedW@ 00000001800a4a20     OposConstants.obj
 0002:00006a38       ??_C@_0BI@MNCFCPFK@RegCreateKeyTransactedW@ 00000001800a4a38     OposConstants.obj
 0002:00006a50       ??_C@_0BI@HAKLOOGP@RegDeleteKeyTransactedW@ 00000001800a4a50     OposConstants.obj
 0002:00006a68       ??_C@_1BG@OHCCAGNO@?$AA?$CB?$AAm?$AA_?$AAb?$AAL?$AAo?$AAc?$AAk?$AAe?$AAd@ 00000001800a4a68     OposConstants.obj
 0002:00006a80       ??_C@_1BE@NPGJNKLA@?$AAm?$AA_?$AAb?$AAL?$AAo?$AAc?$AAk?$AAe?$AAd@ 00000001800a4a80     OposConstants.obj
 0002:00006a98       ??_C@_1CC@DNHFMIHP@?$AA_?$AAp?$AAA?$AAt?$AAl?$AAM?$AAo?$AAd?$AAu?$AAl?$AAe?$AA?5?$AA?$DN?$AA?$DN?$AA?5@ 00000001800a4a98     OposConstants.obj
 0002:00006ac0       ??_C@_1HK@DFMOIGDB@?$AAE?$AAR?$AAR?$AAO?$AAR?$AA?5?$AA?3?$AA?5?$AAU?$AAn?$AAa?$AAb?$AAl?$AAe?$AA?5@ 00000001800a4ac0     OposConstants.obj
 0002:00006b40       _GUID_00000146_0000_0000_c000_000000000046 00000001800a4b40     OposConstants.obj
 0002:00006b50       ??_C@_1BG@LENCCAOJ@?$AAp?$AAp?$AAG?$AAI?$AAT?$AA?5?$AA?$CB?$AA?$DN?$AA?5?$AA0@ 00000001800a4b50     OposConstants.obj
 0002:00006b68       ??_C@_1BI@JBLBCKD@?$AAm?$AA_?$AAp?$AAG?$AAI?$AAT?$AA?5?$AA?$CB?$AA?$DN?$AA?5?$AA0@ 00000001800a4b68     OposConstants.obj
 0002:00006b80       ??_7CComModule@ATL@@6B@    00000001800a4b80     OposConstants.obj
 0002:00006bd0       ??_C@_1BM@NFPICFEL@?$AA_?$AAp?$AAM?$AAo?$AAd?$AAu?$AAl?$AAe?$AA?5?$AA?$DN?$AA?$DN?$AA?5?$AA0@ 00000001800a4bd0     OposConstants.obj
 0002:00006bf0       ??_C@_1BI@JPOONHGO@?$AAm?$AA_?$AAh?$AAK?$AAe?$AAy?$AA?5?$AA?$DN?$AA?$DN?$AA?5?$AA0@ 00000001800a4bf0     OposConstants.obj
 0002:00006c08       ??_C@_1BI@KCHMLGAI@?$AAm?$AA_?$AAh?$AAK?$AAe?$AAy?$AA?5?$AA?$CB?$AA?$DN?$AA?5?$AA0@ 00000001800a4c08     OposConstants.obj
 0002:00006c20       ??_C@_0BA@LILAPHGE@RegDeleteKeyExW@ 00000001800a4c20     OposConstants.obj
 0002:00006c30       ??_C@_1CA@JAHJEEHI@?$AAh?$AAK?$AAe?$AAy?$AAP?$AAa?$AAr?$AAe?$AAn?$AAt?$AA?5?$AA?$CB?$AA?$DN?$AA?5?$AA0@ 00000001800a4c30     OposConstants.obj
 0002:00006c50       ??_C@_1BG@OMKLFNDM@?$AAl?$AAR?$AAe?$AAs?$AA?5?$AA?$DN?$AA?$DN?$AA?5?$AA0?$AAL@ 00000001800a4c50     OposConstants.obj
 0002:00006c70       ??_C@_1EO@OGKOBPLN@?$AA?$CI?$AAd?$AAw?$AAT?$AAy?$AAp?$AAe?$AA?5?$AA?$DN?$AA?$DN?$AA?5?$AA?$CI?$AA?5?$AA1?$AA?5@ 00000001800a4c70     OposConstants.obj
 0002:00006cc0       ??_C@_1IA@CIKBLAHF@?$AAC?$AAR?$AAe?$AAg?$AAK?$AAe?$AAy?$AA?3?$AA?3?$AAR?$AAe?$AAc?$AAu?$AAr?$AAs@ 00000001800a4cc0     OposConstants.obj
 0002:00006d40       ??_C@_1DO@EIGOLNAA@?$AAl?$AAp?$AAs?$AAz?$AAK?$AAe?$AAy?$AA?5?$AA?$CB?$AA?$DN?$AA?5?$AA0?$AA?5?$AA?$CG?$AA?$CG@ 00000001800a4d40     OposConstants.obj
 0002:00006d80       ??_C@_1OC@HDBAKJH@?$AAc?$AA?3?$AA?2?$AAp?$AAr?$AAo?$AAg?$AAr?$AAa?$AAm?$AA?5?$AAf?$AAi?$AAl?$AAe@ 00000001800a4d80     OposConstants.obj
 0002:00006e68       ??_C@_1BG@MMFPEKL@?$AAs?$AAz?$AAK?$AAe?$AAy?$AA?5?$AA?$CB?$AA?$DN?$AA?5?$AA0@ 00000001800a4e68     OposConstants.obj
 0002:00006e80       ??_C@_1BK@LDPHGFPN@?$AAs?$AAz?$AAV?$AAa?$AAl?$AAu?$AAe?$AA?5?$AA?$CB?$AA?$DN?$AA?5?$AA0@ 00000001800a4e80     OposConstants.obj
 0002:00006ea0       ?rgszNeverDelete@CRegParser@ATL@@1QBQEB_WB 00000001800a4ea0     OposConstants.obj
 0002:00006f00       ??_C@_1O@JFMKDNFA@?$AAp?$AA?5?$AA?$CB?$AA?$DN?$AA?5?$AA0@ 00000001800a4f00     OposConstants.obj
 0002:00006f10       ??_7CRegObject@ATL@@6B@    00000001800a4f10     OposConstants.obj
 0002:00006f40       ??_C@_1JM@PMKLGAKF@?$AAs?$AAt?$AAa?$AAt?$AAi?$AAc?$AAa?$AAl?$AAl?$AAy?$AA?5?$AAl?$AAi?$AAn?$AAk@ 00000001800a4f40     OposConstants.obj
 0002:00006fe0       ??_C@_1KC@MLBIPPDL@?$AAL?$AA?$CC?$AAs?$AAt?$AAa?$AAt?$AAi?$AAc?$AAa?$AAl?$AAl?$AAy?$AA?5?$AAl?$AAi@ 00000001800a4fe0     OposConstants.obj
 0002:00007090       ??_C@_0HB@CLDHGDOF@c?3?2program?5files?5?$CIx86?$CJ?2microsof@ 00000001800a5090     OposConstants.obj
 0002:00007108       ??_C@_1DM@JBIDINMA@?$AAF?$AAa?$AAi?$AAl?$AAe?$AAd?$AA?5?$AAt?$AAo?$AA?5?$AAL?$AAo?$AAa?$AAd?$AAL@ 00000001800a5108     OposConstants.obj
 0002:00007150       ??_C@_1FE@HJDAOHJE@?$AAF?$AAa?$AAi?$AAl?$AAe?$AAd?$AA?5?$AAt?$AAo?$AA?5?$AAF?$AAi?$AAn?$AAd?$AAR@ 00000001800a5150     OposConstants.obj
 0002:000071b0       ??_C@_1FG@BBJFPKL@?$AAF?$AAa?$AAi?$AAl?$AAe?$AAd?$AA?5?$AAt?$AAo?$AA?5?$AAF?$AAi?$AAn?$AAd?$AAR@ 00000001800a51b0     OposConstants.obj
 0002:00007208       ??_C@_1DA@KJKEAFMD@?$AAF?$AAa?$AAi?$AAl?$AAe?$AAd?$AA?5?$AAt?$AAo?$AA?5?$AAL?$AAo?$AAa?$AAd?$AAR@ 00000001800a5208     OposConstants.obj
 0002:00007238       ??_C@_1CK@BCPDHANH@?$AAM?$AAa?$AAp?$AA?5?$AAE?$AAn?$AAt?$AAr?$AAy?$AA?5?$AAn?$AAo?$AAt?$AA?5?$AAf@ 00000001800a5238     OposConstants.obj
 0002:00007270       ??_C@_1FI@KMIOGKOO@?$AAB?$AAo?$AAg?$AAu?$AAs?$AA?5?$AAv?$AAa?$AAl?$AAu?$AAe?$AA?5?$AA?$CF?$AAT?$AAc@ 00000001800a5270     OposConstants.obj
 0002:000072d0       ?map@?1??HKeyFromString@CRegParser@ATL@@KAPEAUHKEY__@@PEA_W@Z@4QBUkeymap@?1??123@KAPEAU4@0@Z@B 00000001800a52d0     OposConstants.obj
 0002:000073b0       ??_C@_19NCHLBIN@?$AAH?$AAK?$AAC?$AAR@ 00000001800a53b0     OposConstants.obj
 0002:000073c0       ??_C@_19JAPAIJDE@?$AAH?$AAK?$AAC?$AAU@ 00000001800a53c0     OposConstants.obj
 0002:000073d0       ??_C@_19PEALEEJB@?$AAH?$AAK?$AAL?$AAM@ 00000001800a53d0     OposConstants.obj
 0002:000073e0       ??_C@_17PJOJPMPB@?$AAH?$AAK?$AAU@ 00000001800a53e0     OposConstants.obj
 0002:000073e8       ??_C@_19PNBHMJPL@?$AAH?$AAK?$AAP?$AAD@ 00000001800a53e8     OposConstants.obj
 0002:000073f8       ??_C@_19GFFAIJHG@?$AAH?$AAK?$AAD?$AAD@ 00000001800a53f8     OposConstants.obj
 0002:00007408       ??_C@_19OFICIBHH@?$AAH?$AAK?$AAC?$AAC@ 00000001800a5408     OposConstants.obj
 0002:00007418       ??_C@_1CE@PACHPJFI@?$AAH?$AAK?$AAE?$AAY?$AA_?$AAC?$AAL?$AAA?$AAS?$AAS?$AAE?$AAS?$AA_?$AAR?$AAO@ 00000001800a5418     OposConstants.obj
 0002:00007440       ??_C@_1CE@HLHNCBPM@?$AAH?$AAK?$AAE?$AAY?$AA_?$AAC?$AAU?$AAR?$AAR?$AAE?$AAN?$AAT?$AA_?$AAU?$AAS@ 00000001800a5440     OposConstants.obj
 0002:00007468       ??_C@_1CG@GFBEANJL@?$AAH?$AAK?$AAE?$AAY?$AA_?$AAL?$AAO?$AAC?$AAA?$AAL?$AA_?$AAM?$AAA?$AAC?$AAH@ 00000001800a5468     OposConstants.obj
 0002:00007490       ??_C@_1BG@BGODANIO@?$AAH?$AAK?$AAE?$AAY?$AA_?$AAU?$AAS?$AAE?$AAR?$AAS@ 00000001800a5490     OposConstants.obj
 0002:000074a8       ??_C@_1CM@KHNNAOIC@?$AAH?$AAK?$AAE?$AAY?$AA_?$AAP?$AAE?$AAR?$AAF?$AAO?$AAR?$AAM?$AAA?$AAN?$AAC@ 00000001800a54a8     OposConstants.obj
 0002:000074d8       ??_C@_1BM@HAGMMHIA@?$AAH?$AAK?$AAE?$AAY?$AA_?$AAD?$AAY?$AAN?$AA_?$AAD?$AAA?$AAT?$AAA@ 00000001800a54d8     OposConstants.obj
 0002:000074f8       ??_C@_1CI@BBJOACGG@?$AAH?$AAK?$AAE?$AAY?$AA_?$AAC?$AAU?$AAR?$AAR?$AAE?$AAN?$AAT?$AA_?$AAC?$AAO@ 00000001800a54f8     OposConstants.obj
 0002:00007520       ??_C@_1EI@CDDJHMMA@?$AAN?$AAe?$AAx?$AAt?$AAT?$AAo?$AAk?$AAe?$AAn?$AA?5?$AA?3?$AA?5?$AAU?$AAn?$AAe@ 00000001800a5520     OposConstants.obj
 0002:00007568       ??_C@_1DA@BDBPEMM@?$AA?$CF?$AAT?$AAs?$AA?5?$AAT?$AAy?$AAp?$AAe?$AA?5?$AAn?$AAo?$AAt?$AA?5?$AAs?$AAu@ 00000001800a5568     OposConstants.obj
 0002:00007598       ??_C@_1BA@HANLFFFG@?$AAd?$AAe?$AAf?$AAa?$AAu?$AAl?$AAt@ 00000001800a5598     OposConstants.obj
 0002:000075a8       ??_C@_1DE@GENBDOHF@?$AAS?$AAe?$AAt?$AAt?$AAi?$AAn?$AAg?$AA?5?$AAV?$AAa?$AAl?$AAu?$AAe?$AA?5?$AA?$CF@ 00000001800a55a8     OposConstants.obj
 0002:000075e0       ??_C@_1DC@OPMJCKIB@?$AAS?$AAe?$AAt?$AAt?$AAi?$AAn?$AAg?$AA?5?$AAV?$AAa?$AAl?$AAu?$AAe?$AA?5?$AA?$CF@ 00000001800a55e0     OposConstants.obj
 0002:00007620       ??_C@_1FK@OIDGAAMP@?$AAB?$AAi?$AAn?$AAa?$AAr?$AAy?$AA?5?$AAD?$AAa?$AAt?$AAa?$AA?5?$AAd?$AAo?$AAe@ 00000001800a5620     OposConstants.obj
 0002:00007680       ??_C@_1CM@LNIALBHN@?$AAS?$AAh?$AAo?$AAu?$AAl?$AAd?$AA?5?$AAn?$AAo?$AAt?$AA?5?$AAb?$AAe?$AA?5?$AAh@ 00000001800a5680     OposConstants.obj
 0002:000076b0       ??_C@_1BK@ODFKMBGC@?$AAl?$AAp?$AAs?$AAz?$AAR?$AAe?$AAg?$AA?5?$AA?$CB?$AA?$DN?$AA?5?$AA0@ 00000001800a56b0     OposConstants.obj
 0002:000076d0       ??_C@_1BK@DGLFCBHI@?$AAp?$AAp?$AAs?$AAz?$AAR?$AAe?$AAg?$AA?5?$AA?$CB?$AA?$DN?$AA?5?$AA0@ 00000001800a56d0     OposConstants.obj
 0002:000076f0       ??_C@_1EA@NHKLICFA@?$AAH?$AAK?$AAC?$AAU?$AA?$AN?$AA?6?$AA?$HL?$AA?7?$AAS?$AAo?$AAf?$AAt?$AAw?$AAa?$AAr@ 00000001800a56f0     OposConstants.obj
 0002:00007730       ??_C@_1BE@LJOLIMEM@?$AA?$AN?$AA?6?$AA?7?$AA?$HN?$AA?$AN?$AA?6?$AA?$HN?$AA?$AN?$AA?6@ 00000001800a5730     OposConstants.obj
 0002:00007748       ??_C@_1DG@KOLNJMBJ@?$AAE?$AAr?$AAr?$AAo?$AAr?$AA?5?$AAn?$AAo?$AA?5?$AAc?$AAl?$AAo?$AAs?$AAi?$AAn@ 00000001800a5748     OposConstants.obj
 0002:00007780       ??_C@_19IGGGDNCK@?$AA?$CF?$AAT?$AAs?$AA?6@ 00000001800a5780     OposConstants.obj
 0002:00007790       ??_C@_1DM@JFHAPNGI@?$AAH?$AAK?$AAe?$AAy?$AAF?$AAr?$AAo?$AAm?$AAS?$AAt?$AAr?$AAi?$AAn?$AAg?$AA?5@ 00000001800a5790     OposConstants.obj
 0002:000077d0       ??_C@_1FE@MCPBFDLN@?$AAS?$AAy?$AAn?$AAt?$AAa?$AAx?$AA?5?$AAe?$AAr?$AAr?$AAo?$AAr?$AA?0?$AA?5?$AAe@ 00000001800a57d0     OposConstants.obj
 0002:00007830       ??_C@_1EE@EMAKHHOG@?$AAF?$AAa?$AAi?$AAl?$AAe?$AAd?$AA?5?$AAt?$AAo?$AA?5?$AAr?$AAe?$AAg?$AAi?$AAs@ 00000001800a5830     OposConstants.obj
 0002:00007878       ??_C@_1BM@KJDIPNJ@?$AAN?$AAu?$AAm?$AA?5?$AAE?$AAl?$AAs?$AA?5?$AA?$DN?$AA?5?$AA?$CF?$AAd?$AA?6@ 00000001800a5878     OposConstants.obj
 0002:00007898       ??_C@_1BM@BEOOHDFB@?$AAD?$AAe?$AAl?$AAe?$AAt?$AAi?$AAn?$AAg?$AA?5?$AA?$CF?$AAT?$AAs?$AA?6@ 00000001800a5898     OposConstants.obj
 0002:000078b8       ??_C@_1CE@NOBELHPC@?$AAC?$AAr?$AAe?$AAa?$AAt?$AAi?$AAn?$AAg?$AA?5?$AAk?$AAe?$AAy?$AA?5?$AA?$CF?$AAT@ 00000001800a58b8     OposConstants.obj
 0002:000078e0       ??_C@_1CA@MKECKMBH@?$AAO?$AAp?$AAe?$AAn?$AAe?$AAd?$AA?5?$AAK?$AAe?$AAy?$AA?5?$AA?$CF?$AAT?$AAs?$AA?6@ 00000001800a58e0     OposConstants.obj
 0002:00007900       ??_C@_1FK@OAJHMKAA@?$AAI?$AAg?$AAn?$AAo?$AAr?$AAi?$AAn?$AAg?$AA?5?$AAO?$AAp?$AAe?$AAn?$AA?5?$AAk@ 00000001800a5900     OposConstants.obj
 0002:00007960       ??_C@_1CM@OHCCCDHD@?$AAE?$AAn?$AAd?$AAi?$AAn?$AAg?$AA?5?$AAR?$AAe?$AAc?$AAo?$AAv?$AAe?$AAr?$AAy@ 00000001800a5960     OposConstants.obj
 0002:00007990       ??_C@_1FA@ECAJCMBE@?$AAD?$AAe?$AAl?$AAe?$AAt?$AAi?$AAn?$AAg?$AA?5?$AAn?$AAo?$AAn?$AA?9?$AAe?$AAm@ 00000001800a5990     OposConstants.obj
 0002:000079e0       ??_C@_1CE@OGJGDPFE@?$AAD?$AAe?$AAl?$AAe?$AAt?$AAi?$AAn?$AAg?$AA?5?$AAK?$AAe?$AAy?$AA?5?$AA?$CF?$AAT@ 00000001800a59e0     OposConstants.obj
 0002:00007a08       ??_C@_1DC@HEJCCJC@?$AA0?$AA?5?$AA?$CB?$AA?$DN?$AA?5?$AAp?$AAM?$AAa?$AAp?$AAE?$AAn?$AAt?$AAr?$AAi?$AAe@ 00000001800a5a08     OposConstants.obj
 0002:00007a40       ??_C@_1O@MNLDABAF@?$AAM?$AAo?$AAd?$AAu?$AAl?$AAe@ 00000001800a5a40     OposConstants.obj
 0002:00007a50       ??_C@_1BG@JBACFMF@?$AAM?$AAo?$AAd?$AAu?$AAl?$AAe?$AA_?$AAR?$AAa?$AAw@ 00000001800a5a50     OposConstants.obj
 0002:00007a68       ??_C@_1BC@KAILKFFG@?$AAR?$AAE?$AAG?$AAI?$AAS?$AAT?$AAR?$AAY@ 00000001800a5a68     OposConstants.obj
 0002:00007a7c       ??_C@_11LOCGONAA@@         00000001800a5a7c     OposConstants.obj
 0002:00007a80       ??_C@_1EC@GOCPDDCL@?$AAp?$AAb?$AAs?$AAt?$AAr?$AAP?$AAa?$AAt?$AAh?$AA?5?$AA?$CB?$AA?$DN?$AA?5?$AA0?$AA?5@ 00000001800a5a80     OposConstants.obj
 0002:00007ac8       ??_C@_1CE@MNLFIKHJ@?$AAh?$AAI?$AAn?$AAs?$AAt?$AAT?$AAy?$AAp?$AAe?$AAL?$AAi?$AAb?$AA?5?$AA?$CB?$AA?$DN@ 00000001800a5ac8     OposConstants.obj
 0002:00007af0       ??_C@_19ILOCMLCJ@?$AA?4?$AAt?$AAl?$AAb@ 00000001800a5af0     OposConstants.obj
 0002:00007b00       _GUID_0002e012_0000_0000_c000_000000000046 00000001800a5b00     OposConstants.obj
 0002:00007b10       ??_C@_1OK@NEECLFPA@?$AA0?$AA?5?$AA?$CG?$AA?$CG?$AA?5?$AAL?$AA?$CC?$AAU?$AAs?$AAe?$AA?5?$AAO?$AAB?$AAJ?$AAE@ 00000001800a5b10     OposConstants.obj
 0002:00007c00       ??_C@_1CG@IDMIONOG@?$AAp?$AAE?$AAn?$AAt?$AAr?$AAy?$AA?9?$AA?$DO?$AAi?$AAT?$AAy?$AAp?$AAe?$AA?5?$AA?$DN@ 00000001800a5c00     OposConstants.obj
 0002:00007c28       ??_C@_1O@FHBGLCIO@?$AAC?$AAL?$AAS?$AAI?$AAD?$AA?2@ 00000001800a5c28     OposConstants.obj
 0002:00007c38       ??_C@_1CK@IFBKBFAA@?$AA?2?$AAR?$AAe?$AAq?$AAu?$AAi?$AAr?$AAe?$AAd?$AA?5?$AAC?$AAa?$AAt?$AAe?$AAg@ 00000001800a5c38     OposConstants.obj
 0002:00007c68       ??_C@_1DA@BIHALFED@?$AA?2?$AAI?$AAm?$AAp?$AAl?$AAe?$AAm?$AAe?$AAn?$AAt?$AAe?$AAd?$AA?5?$AAC?$AAa@ 00000001800a5c68     OposConstants.obj
 0002:00007c98       ??_C@_1BK@EDKOLFBJ@?$AAO?$AAL?$AAE?$AAA?$AAU?$AAT?$AA3?$AA2?$AA?4?$AAD?$AAL?$AAL@ 00000001800a5c98     OposConstants.obj
 0002:00007cb8       ??_C@_0BJ@CNLFOMHB@UnRegisterTypeLibForUser@ 00000001800a5cb8     OposConstants.obj
 0002:00007cd8       ??_C@_0BH@LBOMMKPJ@RegisterTypeLibForUser@ 00000001800a5cd8     OposConstants.obj
 0002:00007cf0       ??_C@_1CA@GAOMIJFK@?$AAp?$AAC?$AAo?$AAm?$AAM?$AAo?$AAd?$AAu?$AAl?$AAe?$AA?5?$AA?$CB?$AA?$DN?$AA?5?$AA0@ 00000001800a5cf0     OposConstants.obj
 0002:00007d10       ??_C@_1EA@JIHAIGJA@?$AAp?$AAC?$AAo?$AAm?$AAM?$AAo?$AAd?$AAu?$AAl?$AAe?$AA?9?$AA?$DO?$AAm?$AA_?$AAh@ 00000001800a5d10     OposConstants.obj
 0002:00007d50       ??_C@_1IO@OONIPMJC@?$AAE?$AAR?$AAR?$AAO?$AAR?$AA?5?$AA?3?$AA?5?$AAU?$AAn?$AAa?$AAb?$AAl?$AAe?$AA?5@ 00000001800a5d50     OposConstants.obj
 0002:00007de0       ??_C@_1IO@BDEIDBOP@?$AAE?$AAR?$AAR?$AAO?$AAR?$AA?5?$AA?3?$AA?5?$AAU?$AAn?$AAa?$AAb?$AAl?$AAe?$AA?5@ 00000001800a5de0     OposConstants.obj
 0002:00007e70       ??_C@_19LMDLLIGP@?$AAp?$AA?$DN?$AA?$DN?$AA0@ 00000001800a5e70     OposConstants.obj
 0002:00007e80       ??_C@_19JHCPJMAL@?$AAp?$AA?$CB?$AA?$DN?$AA0@ 00000001800a5e80     OposConstants.obj
 0002:00007e90       ??_C@_1BC@EMCLECFJ@?$AAm?$AA_?$AAp?$AA?5?$AA?$DN?$AA?$DN?$AA?5?$AA0@ 00000001800a5e90     OposConstants.obj
 0002:00007ea8       ??_C@_1M@PPPPCDEP@?$AAA?$AAP?$AAP?$AAI?$AAD@ 00000001800a5ea8     OposConstants.obj
 0002:00007eb8       GUID_NULL                  00000001800a5eb8     uuid:cguid_i.obj
 0002:00007ec8       CATID_MARSHALER            00000001800a5ec8     uuid:cguid_i.obj
 0002:00007ed8       IID_IRpcChannel            00000001800a5ed8     uuid:cguid_i.obj
 0002:00007ee8       IID_IRpcStub               00000001800a5ee8     uuid:cguid_i.obj
 0002:00007ef8       IID_IStubManager           00000001800a5ef8     uuid:cguid_i.obj
 0002:00007f08       IID_IRpcProxy              00000001800a5f08     uuid:cguid_i.obj
 0002:00007f18       IID_IProxyManager          00000001800a5f18     uuid:cguid_i.obj
 0002:00007f28       IID_IPSFactory             00000001800a5f28     uuid:cguid_i.obj
 0002:00007f38       IID_IInternalMoniker       00000001800a5f38     uuid:cguid_i.obj
 0002:00007f48       IID_IDfReserved1           00000001800a5f48     uuid:cguid_i.obj
 0002:00007f58       IID_IDfReserved2           00000001800a5f58     uuid:cguid_i.obj
 0002:00007f68       IID_IDfReserved3           00000001800a5f68     uuid:cguid_i.obj
 0002:00007f78       CLSID_StdMarshal           00000001800a5f78     uuid:cguid_i.obj
 0002:00007f88       IID_IStub                  00000001800a5f88     uuid:cguid_i.obj
 0002:00007f98       IID_IProxy                 00000001800a5f98     uuid:cguid_i.obj
 0002:00007fa8       IID_IEnumGeneric           00000001800a5fa8     uuid:cguid_i.obj
 0002:00007fb8       IID_IEnumHolder            00000001800a5fb8     uuid:cguid_i.obj
 0002:00007fc8       IID_IEnumCallback          00000001800a5fc8     uuid:cguid_i.obj
 0002:00007fd8       IID_IOleManager            00000001800a5fd8     uuid:cguid_i.obj
 0002:00007fe8       IID_IOlePresObj            00000001800a5fe8     uuid:cguid_i.obj
 0002:00007ff8       IID_IDebug                 00000001800a5ff8     uuid:cguid_i.obj
 0002:00008008       IID_IDebugStream           00000001800a6008     uuid:cguid_i.obj
 0002:00008018       CLSID_PSGenObject          00000001800a6018     uuid:cguid_i.obj
 0002:00008028       CLSID_PSClientSite         00000001800a6028     uuid:cguid_i.obj
 0002:00008038       CLSID_PSClassObject        00000001800a6038     uuid:cguid_i.obj
 0002:00008048       CLSID_PSInPlaceActive      00000001800a6048     uuid:cguid_i.obj
 0002:00008058       CLSID_PSInPlaceFrame       00000001800a6058     uuid:cguid_i.obj
 0002:00008068       CLSID_PSDragDrop           00000001800a6068     uuid:cguid_i.obj
 0002:00008078       CLSID_PSBindCtx            00000001800a6078     uuid:cguid_i.obj
 0002:00008088       CLSID_PSEnumerators        00000001800a6088     uuid:cguid_i.obj
 0002:00008098       CLSID_StaticMetafile       00000001800a6098     uuid:cguid_i.obj
 0002:000080a8       CLSID_StaticDib            00000001800a60a8     uuid:cguid_i.obj
 0002:000080b8       CLSID_Picture_Metafile     00000001800a60b8     uuid:cguid_i.obj
 0002:000080c8       CLSID_Picture_EnhMetafile  00000001800a60c8     uuid:cguid_i.obj
 0002:000080d8       CLSID_Picture_Dib          00000001800a60d8     uuid:cguid_i.obj
 0002:000080e8       CLSID_DCOMAccessControl    00000001800a60e8     uuid:cguid_i.obj
 0002:000080f8       CLSID_StdGlobalInterfaceTable 00000001800a60f8     uuid:cguid_i.obj
 0002:00008108       CLSID_ManualResetEvent     00000001800a6108     uuid:cguid_i.obj
 0002:00008118       CLSID_StdEvent             00000001800a6118     uuid:cguid_i.obj
 0002:00008128       CLSID_SynchronizeContainer 00000001800a6128     uuid:cguid_i.obj
 0002:00008138       CLSID_ComBinding           00000001800a6138     uuid:cguid_i.obj
 0002:00008148       CLSID_StdAsyncActManager   00000001800a6148     uuid:cguid_i.obj
 0002:00008158       CLSID_InProcFreeMarshaler  00000001800a6158     uuid:cguid_i.obj
 0002:00008168       CLSID_RemoteUnknownPSFactory 00000001800a6168     uuid:cguid_i.obj
 0002:00008178       IID_IRichEditOle           00000001800a6178     uuid:cguid_i.obj
 0002:00008188       IID_IRichEditOleCallback   00000001800a6188     uuid:cguid_i.obj
 0002:00008198       CLSID_AllClasses           00000001800a6198     uuid:cguid_i.obj
 0002:000081a8       CLSID_LocalMachineClasses  00000001800a61a8     uuid:cguid_i.obj
 0002:000081b8       CLSID_CurrentUserClasses   00000001800a61b8     uuid:cguid_i.obj
 0002:000081c8       CLSID_AddrControl          00000001800a61c8     uuid:cguid_i.obj
 0002:000081d8       CLSID_GlobalOptions        00000001800a61d8     uuid:cguid_i.obj
 0002:000081e8       CLSID_SurrogateManager     00000001800a61e8     uuid:cguid_i.obj
 0002:000081f8       CLSID_ContextSwitcher      00000001800a61f8     uuid:cguid_i.obj
 0002:00008208       CLSID_ActivationStore      00000001800a6208     uuid:cguid_i.obj
 0002:00008218       IID_IPropertyFrame         00000001800a6218     uuid:cguid_i.obj
 0002:00008228       CLSID_CFontPropPage        00000001800a6228     uuid:cguid_i.obj
 0002:00008238       CLSID_CColorPropPage       00000001800a6238     uuid:cguid_i.obj
 0002:00008248       CLSID_CPicturePropPage     00000001800a6248     uuid:cguid_i.obj
 0002:00008258       CLSID_StockFontPage        00000001800a6258     uuid:cguid_i.obj
 0002:00008268       CLSID_StockColorPage       00000001800a6268     uuid:cguid_i.obj
 0002:00008278       CLSID_StockPicturePage     00000001800a6278     uuid:cguid_i.obj
 0002:00008288       CLSID_PersistPropset       00000001800a6288     uuid:cguid_i.obj
 0002:00008298       CLSID_ConvertVBX           00000001800a6298     uuid:cguid_i.obj
 0002:000082a8       CLSID_StdFont              00000001800a62a8     uuid:cguid_i.obj
 0002:000082b8       CLSID_StdPicture           00000001800a62b8     uuid:cguid_i.obj
 0002:000082c8       GUID_HIMETRIC              00000001800a62c8     uuid:cguid_i.obj
 0002:000082d8       GUID_COLOR                 00000001800a62d8     uuid:cguid_i.obj
 0002:000082e8       GUID_XPOSPIXEL             00000001800a62e8     uuid:cguid_i.obj
 0002:000082f8       GUID_YPOSPIXEL             00000001800a62f8     uuid:cguid_i.obj
 0002:00008308       GUID_XSIZEPIXEL            00000001800a6308     uuid:cguid_i.obj
 0002:00008318       GUID_YSIZEPIXEL            00000001800a6318     uuid:cguid_i.obj
 0002:00008328       GUID_XPOS                  00000001800a6328     uuid:cguid_i.obj
 0002:00008338       GUID_YPOS                  00000001800a6338     uuid:cguid_i.obj
 0002:00008348       GUID_XSIZE                 00000001800a6348     uuid:cguid_i.obj
 0002:00008358       GUID_YSIZE                 00000001800a6358     uuid:cguid_i.obj
 0002:00008368       GUID_TRISTATE              00000001800a6368     uuid:cguid_i.obj
 0002:00008378       GUID_OPTIONVALUEEXCLUSIVE  00000001800a6378     uuid:cguid_i.obj
 0002:00008388       GUID_CHECKVALUEEXCLUSIVE   00000001800a6388     uuid:cguid_i.obj
 0002:00008398       GUID_FONTNAME              00000001800a6398     uuid:cguid_i.obj
 0002:000083a8       GUID_FONTSIZE              00000001800a63a8     uuid:cguid_i.obj
 0002:000083b8       GUID_FONTBOLD              00000001800a63b8     uuid:cguid_i.obj
 0002:000083c8       GUID_FONTITALIC            00000001800a63c8     uuid:cguid_i.obj
 0002:000083d8       GUID_FONTUNDERSCORE        00000001800a63d8     uuid:cguid_i.obj
 0002:000083e8       GUID_FONTSTRIKETHROUGH     00000001800a63e8     uuid:cguid_i.obj
 0002:000083f8       GUID_HANDLE                00000001800a63f8     uuid:cguid_i.obj
 0002:00008408       IID_StdOle                 00000001800a6408     uuid:cguid_i.obj
 0002:00008418       IID_ICursor                00000001800a6418     uuid:cguid_i.obj
 0002:00008428       IID_ICursorMove            00000001800a6428     uuid:cguid_i.obj
 0002:00008438       IID_ICursorScroll          00000001800a6438     uuid:cguid_i.obj
 0002:00008448       IID_ICursorUpdateARow      00000001800a6448     uuid:cguid_i.obj
 0002:00008458       IID_INotifyDBEvents        00000001800a6458     uuid:cguid_i.obj
 0002:00008468       IID_ICursorFind            00000001800a6468     uuid:cguid_i.obj
 0002:00008478       IID_IEntryID               00000001800a6478     uuid:cguid_i.obj
 0002:00008488       _GUID_NAMEONLY             00000001800a6488     uuid:cguid_i.obj
 0002:00008498       _DBBMKGUID                 00000001800a6498     uuid:cguid_i.obj
 0002:000084a8       _DBCIDGUID                 00000001800a64a8     uuid:cguid_i.obj
 0002:000084b8       IID_IBoundObject           00000001800a64b8     uuid:cguid_i.obj
 0002:000084c8       IID_IBoundObjectSite       00000001800a64c8     uuid:cguid_i.obj
 0002:000084d8       CLSID_GblComponentCategoriesMgr 00000001800a64d8     uuid:cguid_i.obj
 0002:000084e8       CLSID_ThumbnailFCNHandler  00000001800a64e8     uuid:cguid_i.obj
 0002:000084f8       CLSID_ThumbnailUpdater     00000001800a64f8     uuid:cguid_i.obj
 0002:00008508       IID_ICallbackWithNoReentrancyToApplicationSTA 00000001800a6508     uuid:cguid_i.obj
 0002:00008518       GUID_DEVCLASS_1394         00000001800a6518     uuid:cguid_i.obj
 0002:00008528       GUID_DEVCLASS_1394DEBUG    00000001800a6528     uuid:cguid_i.obj
 0002:00008538       GUID_DEVCLASS_61883        00000001800a6538     uuid:cguid_i.obj
 0002:00008548       GUID_DEVCLASS_ADAPTER      00000001800a6548     uuid:cguid_i.obj
 0002:00008558       GUID_DEVCLASS_APMSUPPORT   00000001800a6558     uuid:cguid_i.obj
 0002:00008568       GUID_DEVCLASS_AVC          00000001800a6568     uuid:cguid_i.obj
 0002:00008578       GUID_DEVCLASS_BATTERY      00000001800a6578     uuid:cguid_i.obj
 0002:00008588       GUID_DEVCLASS_BIOMETRIC    00000001800a6588     uuid:cguid_i.obj
 0002:00008598       GUID_DEVCLASS_BLUETOOTH    00000001800a6598     uuid:cguid_i.obj
 0002:000085a8       GUID_DEVCLASS_CDROM        00000001800a65a8     uuid:cguid_i.obj
 0002:000085b8       GUID_DEVCLASS_COMPUTER     00000001800a65b8     uuid:cguid_i.obj
 0002:000085c8       GUID_DEVCLASS_DECODER      00000001800a65c8     uuid:cguid_i.obj
 0002:000085d8       GUID_DEVCLASS_DISKDRIVE    00000001800a65d8     uuid:cguid_i.obj
 0002:000085e8       GUID_DEVCLASS_DISPLAY      00000001800a65e8     uuid:cguid_i.obj
 0002:000085f8       GUID_DEVCLASS_DOT4         00000001800a65f8     uuid:cguid_i.obj
 0002:00008608       GUID_DEVCLASS_DOT4PRINT    00000001800a6608     uuid:cguid_i.obj
 0002:00008618       GUID_DEVCLASS_ENUM1394     00000001800a6618     uuid:cguid_i.obj
 0002:00008628       GUID_DEVCLASS_FDC          00000001800a6628     uuid:cguid_i.obj
 0002:00008638       GUID_DEVCLASS_FLOPPYDISK   00000001800a6638     uuid:cguid_i.obj
 0002:00008648       GUID_DEVCLASS_GPS          00000001800a6648     uuid:cguid_i.obj
 0002:00008658       GUID_DEVCLASS_HDC          00000001800a6658     uuid:cguid_i.obj
 0002:00008668       GUID_DEVCLASS_HIDCLASS     00000001800a6668     uuid:cguid_i.obj
 0002:00008678       GUID_DEVCLASS_IMAGE        00000001800a6678     uuid:cguid_i.obj
 0002:00008688       GUID_DEVCLASS_INFINIBAND   00000001800a6688     uuid:cguid_i.obj
 0002:00008698       GUID_DEVCLASS_INFRARED     00000001800a6698     uuid:cguid_i.obj
 0002:000086a8       GUID_DEVCLASS_KEYBOARD     00000001800a66a8     uuid:cguid_i.obj
 0002:000086b8       GUID_DEVCLASS_LEGACYDRIVER 00000001800a66b8     uuid:cguid_i.obj
 0002:000086c8       GUID_DEVCLASS_MEDIA        00000001800a66c8     uuid:cguid_i.obj
 0002:000086d8       GUID_DEVCLASS_MEDIUM_CHANGER 00000001800a66d8     uuid:cguid_i.obj
 0002:000086e8       GUID_DEVCLASS_MEMORY       00000001800a66e8     uuid:cguid_i.obj
 0002:000086f8       GUID_DEVCLASS_MODEM        00000001800a66f8     uuid:cguid_i.obj
 0002:00008708       GUID_DEVCLASS_MONITOR      00000001800a6708     uuid:cguid_i.obj
 0002:00008718       GUID_DEVCLASS_MOUSE        00000001800a6718     uuid:cguid_i.obj
 0002:00008728       GUID_DEVCLASS_MTD          00000001800a6728     uuid:cguid_i.obj
 0002:00008738       GUID_DEVCLASS_MULTIFUNCTION 00000001800a6738     uuid:cguid_i.obj
 0002:00008748       GUID_DEVCLASS_MULTIPORTSERIAL 00000001800a6748     uuid:cguid_i.obj
 0002:00008758       GUID_DEVCLASS_NET          00000001800a6758     uuid:cguid_i.obj
 0002:00008768       GUID_DEVCLASS_NETCLIENT    00000001800a6768     uuid:cguid_i.obj
 0002:00008778       GUID_DEVCLASS_NETSERVICE   00000001800a6778     uuid:cguid_i.obj
 0002:00008788       GUID_DEVCLASS_NETTRANS     00000001800a6788     uuid:cguid_i.obj
 0002:00008798       GUID_DEVCLASS_NODRIVER     00000001800a6798     uuid:cguid_i.obj
 0002:000087a8       GUID_DEVCLASS_PCMCIA       00000001800a67a8     uuid:cguid_i.obj
 0002:000087b8       GUID_DEVCLASS_PNPPRINTERS  00000001800a67b8     uuid:cguid_i.obj
 0002:000087c8       GUID_DEVCLASS_PORTS        00000001800a67c8     uuid:cguid_i.obj
 0002:000087d8       GUID_DEVCLASS_PRINTER      00000001800a67d8     uuid:cguid_i.obj
 0002:000087e8       GUID_DEVCLASS_PRINTERUPGRADE 00000001800a67e8     uuid:cguid_i.obj
 0002:000087f8       GUID_DEVCLASS_PROCESSOR    00000001800a67f8     uuid:cguid_i.obj
 0002:00008808       GUID_DEVCLASS_SBP2         00000001800a6808     uuid:cguid_i.obj
 0002:00008818       GUID_DEVCLASS_SCSIADAPTER  00000001800a6818     uuid:cguid_i.obj
 0002:00008828       GUID_DEVCLASS_SECURITYACCELERATOR 00000001800a6828     uuid:cguid_i.obj
 0002:00008838       GUID_DEVCLASS_SENSOR       00000001800a6838     uuid:cguid_i.obj
 0002:00008848       GUID_DEVCLASS_SIDESHOW     00000001800a6848     uuid:cguid_i.obj
 0002:00008858       GUID_DEVCLASS_SMARTCARDREADER 00000001800a6858     uuid:cguid_i.obj
 0002:00008868       GUID_DEVCLASS_SOUND        00000001800a6868     uuid:cguid_i.obj
 0002:00008878       GUID_DEVCLASS_SYSTEM       00000001800a6878     uuid:cguid_i.obj
 0002:00008888       GUID_DEVCLASS_TAPEDRIVE    00000001800a6888     uuid:cguid_i.obj
 0002:00008898       GUID_DEVCLASS_UNKNOWN      00000001800a6898     uuid:cguid_i.obj
 0002:000088a8       GUID_DEVCLASS_USB          00000001800a68a8     uuid:cguid_i.obj
 0002:000088b8       GUID_DEVCLASS_VOLUME       00000001800a68b8     uuid:cguid_i.obj
 0002:000088c8       GUID_DEVCLASS_VOLUMESNAPSHOT 00000001800a68c8     uuid:cguid_i.obj
 0002:000088d8       GUID_DEVCLASS_WCEUSBS      00000001800a68d8     uuid:cguid_i.obj
 0002:000088e8       GUID_DEVCLASS_WPD          00000001800a68e8     uuid:cguid_i.obj
 0002:000088f8       GUID_DEVCLASS_EHSTORAGESILO 00000001800a68f8     uuid:cguid_i.obj
 0002:00008908       GUID_DEVCLASS_FIRMWARE     00000001800a6908     uuid:cguid_i.obj
 0002:00008918       GUID_DEVCLASS_EXTENSION    00000001800a6918     uuid:cguid_i.obj
 0002:00008928       GUID_DEVCLASS_FSFILTER_TOP 00000001800a6928     uuid:cguid_i.obj
 0002:00008938       GUID_DEVCLASS_FSFILTER_ACTIVITYMONITOR 00000001800a6938     uuid:cguid_i.obj
 0002:00008948       GUID_DEVCLASS_FSFILTER_UNDELETE 00000001800a6948     uuid:cguid_i.obj
 0002:00008958       GUID_DEVCLASS_FSFILTER_ANTIVIRUS 00000001800a6958     uuid:cguid_i.obj
 0002:00008968       GUID_DEVCLASS_FSFILTER_REPLICATION 00000001800a6968     uuid:cguid_i.obj
 0002:00008978       GUID_DEVCLASS_FSFILTER_CONTINUOUSBACKUP 00000001800a6978     uuid:cguid_i.obj
 0002:00008988       GUID_DEVCLASS_FSFILTER_CONTENTSCREENER 00000001800a6988     uuid:cguid_i.obj
 0002:00008998       GUID_DEVCLASS_FSFILTER_QUOTAMANAGEMENT 00000001800a6998     uuid:cguid_i.obj
 0002:000089a8       GUID_DEVCLASS_FSFILTER_SYSTEMRECOVERY 00000001800a69a8     uuid:cguid_i.obj
 0002:000089b8       GUID_DEVCLASS_FSFILTER_CFSMETADATASERVER 00000001800a69b8     uuid:cguid_i.obj
 0002:000089c8       GUID_DEVCLASS_FSFILTER_HSM 00000001800a69c8     uuid:cguid_i.obj
 0002:000089d8       GUID_DEVCLASS_FSFILTER_COMPRESSION 00000001800a69d8     uuid:cguid_i.obj
 0002:000089e8       GUID_DEVCLASS_FSFILTER_ENCRYPTION 00000001800a69e8     uuid:cguid_i.obj
 0002:000089f8       GUID_DEVCLASS_FSFILTER_VIRTUALIZATION 00000001800a69f8     uuid:cguid_i.obj
 0002:00008a08       GUID_DEVCLASS_FSFILTER_PHYSICALQUOTAMANAGEMENT 00000001800a6a08     uuid:cguid_i.obj
 0002:00008a18       GUID_DEVCLASS_FSFILTER_OPENFILEBACKUP 00000001800a6a18     uuid:cguid_i.obj
 0002:00008a28       GUID_DEVCLASS_FSFILTER_SECURITYENHANCER 00000001800a6a28     uuid:cguid_i.obj
 0002:00008a38       GUID_DEVCLASS_FSFILTER_COPYPROTECTION 00000001800a6a38     uuid:cguid_i.obj
 0002:00008a48       GUID_DEVCLASS_FSFILTER_BOTTOM 00000001800a6a48     uuid:cguid_i.obj
 0002:00008a58       GUID_DEVCLASS_FSFILTER_SYSTEM 00000001800a6a58     uuid:cguid_i.obj
 0002:00008a68       GUID_DEVCLASS_FSFILTER_INFRASTRUCTURE 00000001800a6a68     uuid:cguid_i.obj
 0002:00008a78       GUID_DEVINTERFACE_DISK     00000001800a6a78     uuid:cguid_i.obj
 0002:00008a88       GUID_DEVINTERFACE_CDROM    00000001800a6a88     uuid:cguid_i.obj
 0002:00008a98       GUID_DEVINTERFACE_PARTITION 00000001800a6a98     uuid:cguid_i.obj
 0002:00008aa8       GUID_DEVINTERFACE_TAPE     00000001800a6aa8     uuid:cguid_i.obj
 0002:00008ab8       GUID_DEVINTERFACE_WRITEONCEDISK 00000001800a6ab8     uuid:cguid_i.obj
 0002:00008ac8       GUID_DEVINTERFACE_VOLUME   00000001800a6ac8     uuid:cguid_i.obj
 0002:00008ad8       GUID_DEVINTERFACE_MEDIUMCHANGER 00000001800a6ad8     uuid:cguid_i.obj
 0002:00008ae8       GUID_DEVINTERFACE_FLOPPY   00000001800a6ae8     uuid:cguid_i.obj
 0002:00008af8       GUID_DEVINTERFACE_CDCHANGER 00000001800a6af8     uuid:cguid_i.obj
 0002:00008b08       GUID_DEVINTERFACE_STORAGEPORT 00000001800a6b08     uuid:cguid_i.obj
 0002:00008b18       GUID_DEVINTERFACE_VMLUN    00000001800a6b18     uuid:cguid_i.obj
 0002:00008b28       GUID_DEVINTERFACE_SES      00000001800a6b28     uuid:cguid_i.obj
 0002:00008b38       GUID_DEVINTERFACE_HIDDEN_VOLUME 00000001800a6b38     uuid:cguid_i.obj
 0002:00008b48       GUID_DEVINTERFACE_COMPORT  00000001800a6b48     uuid:cguid_i.obj
 0002:00008b58       GUID_DEVINTERFACE_SERENUM_BUS_ENUMERATOR 00000001800a6b58     uuid:cguid_i.obj
 0002:00008b68       CLSID_StdURLMoniker        00000001800a6b68     uuid:ieguids.obj
 0002:00008b78       CLSID_StdURLProtocol       00000001800a6b78     uuid:ieguids.obj
 0002:00008b88       CLSID_HttpProtocol         00000001800a6b88     uuid:ieguids.obj
 0002:00008b98       CLSID_FtpProtocol          00000001800a6b98     uuid:ieguids.obj
 0002:00008ba8       CLSID_GopherProtocol       00000001800a6ba8     uuid:ieguids.obj
 0002:00008bb8       CLSID_HttpSProtocol        00000001800a6bb8     uuid:ieguids.obj
 0002:00008bc8       CLSID_MkProtocol           00000001800a6bc8     uuid:ieguids.obj
 0002:00008bd8       CLSID_FileProtocol         00000001800a6bd8     uuid:ieguids.obj
 0002:00008be8       CLSID_PSUrlMonProxy        00000001800a6be8     uuid:ieguids.obj
 0002:00008bf8       CLSID_UrlMkBindCtx         00000001800a6bf8     uuid:ieguids.obj
 0002:00008c08       CLSID_ResProtocol          00000001800a6c08     uuid:ieguids.obj
 0002:00008c18       CLSID_AboutProtocol        00000001800a6c18     uuid:ieguids.obj
 0002:00008c28       CLSID_JSProtocol           00000001800a6c28     uuid:ieguids.obj
 0002:00008c38       CLSID_MailtoProtocol       00000001800a6c38     uuid:ieguids.obj
 0002:00008c48       CLSID_IE4_PROTOCOLS        00000001800a6c48     uuid:ieguids.obj
 0002:00008c58       IID_IAsyncMoniker          00000001800a6c58     uuid:ieguids.obj
 0002:00008c68       IID_IBindStatusCallbackHolder 00000001800a6c68     uuid:ieguids.obj
 0002:00008c78       IID_IAsyncBindCtx          00000001800a6c78     uuid:ieguids.obj
 0002:00008c88       IID_IBindStatusCallbackMsg 00000001800a6c88     uuid:ieguids.obj
 0002:00008c98       IID_IDebugRegister         00000001800a6c98     uuid:ieguids.obj
 0002:00008ca8       IID_IDebugOut              00000001800a6ca8     uuid:ieguids.obj
 0002:00008cb8       CLSID_StdNotificationMgr   00000001800a6cb8     uuid:ieguids.obj
 0002:00008cc8       CLSID_WebCheckDefaultProcess 00000001800a6cc8     uuid:ieguids.obj
 0002:00008cd8       IID_IEnumPropertyMap       00000001800a6cd8     uuid:ieguids.obj
 0002:00008ce8       IID_IPropertyMap           00000001800a6ce8     uuid:ieguids.obj
 0002:00008cf8       IID_INotification          00000001800a6cf8     uuid:ieguids.obj
 0002:00008d08       IID_INotificationMgr       00000001800a6d08     uuid:ieguids.obj
 0002:00008d18       IID_INotificationSink      00000001800a6d18     uuid:ieguids.obj
 0002:00008d28       IID_IScheduleGroup         00000001800a6d28     uuid:ieguids.obj
 0002:00008d38       IID_INotificationReport    00000001800a6d38     uuid:ieguids.obj
 0002:00008d48       IID_IEnumNotification      00000001800a6d48     uuid:ieguids.obj
 0002:00008d58       IID_IEnumScheduleGroup     00000001800a6d58     uuid:ieguids.obj
