 OPOSSmartCardRW

 Timestamp is 5d42a007 (Thu Aug  1 17:17:11 2019)

 Preferred load address is 0000000180000000

 Start         Length     Name                   Class
 0001:00000000 00001400H .text$di                CODE
 0001:00001400 000d2780H .text$mn                CODE
 0001:000d3b80 00000020H .text$mn$00             CODE
 0001:000d3ba0 00001360H .text$x                 CODE
 0001:000d4f00 000001b4H .text$yd                CODE
 0002:00000000 000006d8H .idata$5                DATA
 0002:000006d8 00000010H .00cfg                  DATA
 0002:000006e8 00000008H .CRT$XCA                DATA
 0002:000006f0 00000008H .CRT$XCL                DATA
 0002:000006f8 000000d8H .CRT$XCU                DATA
 0002:000007d0 00000008H .CRT$XCZ                DATA
 0002:000007d8 00000008H .CRT$XIA                DATA
 0002:000007e0 00000020H .CRT$XIC                DATA
 0002:00000800 00000008H .CRT$XIZ                DATA
 0002:00000808 00000008H .CRT$XLA                DATA
 0002:00000810 00000008H .CRT$XLZ                DATA
 0002:00000818 00000008H .CRT$XPA                DATA
 0002:00000820 00000010H .CRT$XPX                DATA
 0002:00000830 00000008H .CRT$XPXA               DATA
 0002:00000838 00000008H .CRT$XPZ                DATA
 0002:00000840 00000008H .CRT$XTA                DATA
 0002:00000848 00000008H .CRT$XTZ                DATA
 0002:00000850 00000000H .gfids$y                DATA
 0002:00000850 0003b1c8H .rdata                  DATA
 0002:0003ba18 00000028H .rdata$T                DATA
 0002:0003ba40 0000056cH .rdata$r                DATA
 0002:0003bfac 00000434H .rdata$zzzdbg           DATA
 0002:0003c3e0 00000008H .rtc$IAA                DATA
 0002:0003c3e8 00000030H .rtc$IMZ                DATA
 0002:0003c418 00000008H .rtc$IZZ                DATA
 0002:0003c420 00000008H .rtc$TAA                DATA
 0002:0003c428 00000030H .rtc$TMZ                DATA
 0002:0003c458 00000008H .rtc$TZZ                DATA
 0002:0003c460 00000004H .tls                    DATA
 0002:0003c464 00000004H .tls$                   DATA
 0002:0003c468 00000008H .tls$ZZZ                DATA
 0002:0003c470 000096e8H .xdata                  DATA
 0002:00045b58 00000150H .xdata$x                DATA
 0002:00045ca8 00000008H ATL$__a                 DATA
 0002:00045cb0 00000010H ATL$__z                 DATA
 0002:00045cc0 000000acH .edata                  DATA
 0002:00045d6c 00000078H .idata$2                DATA
 0002:00045de4 00000014H .idata$3                DATA
 0002:00045df8 000006d8H .idata$4                DATA
 0002:000464d0 00000db8H .idata$6                DATA
 0003:00000000 00000ec8H .data                   DATA
 0003:00000ec8 00000198H .data$r                 DATA
 0003:00001060 00003e9cH .bss                    DATA
 0004:00000000 0000bfdcH .pdata                  DATA
 0005:00000000 00000094H _RDATA                  DATA
 0006:00000000 00000220H .rsrc$01                DATA
 0006:00000220 00004390H .rsrc$02                DATA

  Address         Publics by Value              Rva+Base               Lib:Object

 0000:00000000       __guard_fids_table         0000000000000000     <absolute>
 0000:00000000       __AbsoluteZero             0000000000000000     <absolute>
 0000:00000000       __enclave_config           0000000000000000     <absolute>
 0000:00000000       __guard_fids_count         0000000000000000     <absolute>
 0000:00000000       __guard_longjmp_count      0000000000000000     <absolute>
 0000:00000000       __hybrid_auxiliary_iat     0000000000000000     <absolute>
 0000:00000000       ___safe_se_handler_table   0000000000000000     <absolute>
 0000:00000000       __volatile_metadata        0000000000000000     <absolute>
 0000:00000000       __hybrid_code_map_count    0000000000000000     <absolute>
 0000:00000000       __guard_iat_count          0000000000000000     <absolute>
 0000:00000000       __guard_longjmp_table      0000000000000000     <absolute>
 0000:00000000       ___safe_se_handler_count   0000000000000000     <absolute>
 0000:00000000       __dynamic_value_reloc_table 0000000000000000     <absolute>
 0000:00000000       __guard_iat_table          0000000000000000     <absolute>
 0000:00000000       __hybrid_code_map          0000000000000000     <absolute>
 0000:00000100       __guard_flags              0000000000000100     <absolute>
 0000:00000000       __ImageBase                0000000180000000     <linker-defined>
 0001:00001400       ?_assert@@YAXPEB_W0I@Z     0000000180002400 f   Assert.obj
 0001:00001500       __local_stdio_printf_options 0000000180002500 f i Assert.obj
 0001:00001510       __vswprintf_l              0000000180002510 f i Assert.obj
 0001:00001570       _swprintf                  0000000180002570 f i Assert.obj
 0001:000015f0       _vswprintf_c_l             00000001800025f0 f i Assert.obj
 0001:00001680       _vswprintf_l               0000000180002680 f i Assert.obj
 0001:000016e0       ?cw_memcpy@@YAHPEADPEB_WH@Z 00000001800026e0 f   CWString.obj
 0001:00001770       ?cw_memcpy@@YAHPEA_WPEBDH@Z 0000000180002770 f   CWString.obj
 0001:000017f0       ?cw_memcpy@@YAHPEADPEBDH@Z 00000001800027f0 f   CWString.obj
 0001:00001890       ?cw_memcpy@@YAHPEA_WPEB_WH@Z 0000000180002890 f   CWString.obj
 0001:00001900       ?cw_memset@@YAXPEADDH@Z    0000000180002900 f   CWString.obj
 0001:00001970       ?cw_memset@@YAXPEA_W_WH@Z  0000000180002970 f   CWString.obj
 0001:00001a10       ?cw_strlen@@YAHPEBD@Z      0000000180002a10 f   CWString.obj
 0001:00001a80       ?cw_strlen@@YAHPEB_W@Z     0000000180002a80 f   CWString.obj
 0001:00001af0       ?cw_strcpy@@YAHPEADPEB_W@Z 0000000180002af0 f   CWString.obj
 0001:00001b40       ?cw_strcpy@@YAHPEA_WPEBD@Z 0000000180002b40 f   CWString.obj
 0001:00001b90       ?cw_strcpy@@YAHPEADPEBD@Z  0000000180002b90 f   CWString.obj
 0001:00001be0       ?cw_strcpy@@YAHPEA_WPEB_W@Z 0000000180002be0 f   CWString.obj
 0001:00001c30       ?cw_strcat@@YAHPEADPEB_W@Z 0000000180002c30 f   CWString.obj
 0001:00001c90       ?cw_strcat@@YAHPEA_WPEBD@Z 0000000180002c90 f   CWString.obj
 0001:00001cf0       ?cw_strcat@@YAHPEADPEBD@Z  0000000180002cf0 f   CWString.obj
 0001:00001d50       ?cw_strcat@@YAHPEA_WPEB_W@Z 0000000180002d50 f   CWString.obj
 0001:00001db0       ?cw_dup@@YAXPEBDAEAHAEAPEA_W1@Z 0000000180002db0 f   CWString.obj
 0001:00001ec0       ?cw_dup@@YAXPEB_WAEAHAEAPEAD1@Z 0000000180002ec0 f   CWString.obj
 0001:00001fb0       ?DupChar@_CW@@AEAAXXZ      0000000180002fb0 f   CWString.obj
 0001:00002010       ?DupWide@_CW@@AEAAXXZ      0000000180003010 f   CWString.obj
 0001:00002080       ?GetCharsMbcs@_CW@@QEAAHXZ 0000000180003080 f   CWString.obj
 0001:000020f0       ?GetCharsWide@_CW@@QEAAHXZ 00000001800030f0 f   CWString.obj
 0001:00002160       ?SetVARIANT_BOOL@OposVariant@@QEAAXF@Z 0000000180003160 f   OposVariant.obj
 0001:000021d0       ?SetVARIANT_BOOL_Ptr@OposVariant@@QEAAXPEAFAEAJ@Z 00000001800031d0 f   OposVariant.obj
 0001:00002240       ?GetLONG@OposVariant@@QEAAJXZ 0000000180003240 f   OposVariant.obj
 0001:000022a0       ?ChangeLONG@OposVariant@@QEAAXPEAJAEAJ@Z 00000001800032a0 f   OposVariant.obj
 0001:00002350       ?SetLONG@OposVariant@@QEAAXJ@Z 0000000180003350 f   OposVariant.obj
 0001:000023b0       ?SetLONG_Ptr@OposVariant@@QEAAXPEAJAEAJ@Z 00000001800033b0 f   OposVariant.obj
 0001:00002420       ?ChangeCURRENCY@OposVariant@@QEAAXPEATtagCY@@AEAJ@Z 0000000180003420 f   OposVariant.obj
 0001:000024d0       ?SetCURRENCY@OposVariant@@QEAAXTtagCY@@@Z 00000001800034d0 f   OposVariant.obj
 0001:00002530       ?SetCURRENCY_Ptr@OposVariant@@QEAAXPEATtagCY@@AEAJ@Z 0000000180003530 f   OposVariant.obj
 0001:000025a0       ?ChangeBSTR@OposVariant@@QEAAXPEAPEA_WAEAJ@Z 00000001800035a0 f   OposVariant.obj
 0001:00002650       ?SetBSTR@OposVariant@@QEAAXPEA_WAEAJ@Z 0000000180003650 f   OposVariant.obj
 0001:000026d0       ?SetBSTR_Copy@OposVariant@@QEAAXPEA_WAEAJ@Z 00000001800036d0 f   OposVariant.obj
 0001:00002780       ?SetBSTR_OutPtr@OposVariant@@QEAA_NPEAPEA_WAEAJ@Z 0000000180003780 f   OposVariant.obj
 0001:000027f0       ?SetBSTR_InOutPtr@OposVariant@@QEAA_NPEAPEA_WAEAJ@Z 00000001800037f0 f   OposVariant.obj
 0001:00002870       ?SetVARIANT@OposVariant@@QEAAXAEAUtagVARIANT@@GAEAJ@Z 0000000180003870 f   OposVariant.obj
 0001:00002910       ?SetVARIANT_Ptr@OposVariant@@QEAAXAEAPEAUtagVARIANT@@GAEAJ@Z 0000000180003910 f   OposVariant.obj
 0001:000029c0       ?SetString@OposVariant@@QEAAXPEB_WAEAJ@Z 00000001800039c0 f   OposVariant.obj
 0001:00002a70       ?SetDispatch_Ptr@OposVariant@@QEAAXPEAUIDispatch@@AEAJ@Z 0000000180003a70 f   OposVariant.obj
 0001:00002b00       ??0OposDispParms@@QEAA@PEAVOposVariant@@H@Z 0000000180003b00 f   OposVariant.obj
 0001:00002c10       ??1OposDispParms@@QEAA@XZ  0000000180003c10 f   OposVariant.obj
 0001:00002c60       ??$AtlMultiply@_K@ATL@@YAJPEA_K_K1@Z 0000000180003c60 f i OposVariant.obj
 0001:00002ce0       ??0?$CHeapPtr@_WVCCRTAllocator@ATL@@@ATL@@QEAA@XZ 0000000180003ce0 f i OposVariant.obj
 0001:00002d20       ??0?$CHeapPtrBase@_WVCCRTAllocator@ATL@@@ATL@@IEAA@XZ 0000000180003d20 f i OposVariant.obj
 0001:00002d40       ??0?$CSimpleArray@GV?$CSimpleArrayEqualHelper@G@ATL@@@ATL@@QEAA@XZ 0000000180003d40 f i OposVariant.obj
 0001:00002d80       ??0?$CTraceCategoryEx@$00$0A@@ATL@@QEAA@PEB_W@Z 0000000180003d80 f i OposVariant.obj
 0001:00002dc0       ??0?$CTraceCategoryEx@$01$0A@@ATL@@QEAA@PEB_W@Z 0000000180003dc0 f i OposVariant.obj
 0001:00002e00       ??0?$CTraceCategoryEx@$03$0A@@ATL@@QEAA@PEB_W@Z 0000000180003e00 f i OposVariant.obj
 0001:00002e40       ??0?$CTraceCategoryEx@$07$0A@@ATL@@QEAA@PEB_W@Z 0000000180003e40 f i OposVariant.obj
 0001:00002e80       ??0?$CTraceCategoryEx@$0BA@$0A@@ATL@@QEAA@PEB_W@Z 0000000180003e80 f i OposVariant.obj
 0001:00002ec0       ??0?$CTraceCategoryEx@$0BAA@$0A@@ATL@@QEAA@PEB_W@Z 0000000180003ec0 f i OposVariant.obj
 0001:00002f00       ??0?$CTraceCategoryEx@$0BAAA@$0A@@ATL@@QEAA@PEB_W@Z 0000000180003f00 f i OposVariant.obj
 0001:00002f40       ??0?$CTraceCategoryEx@$0BAAAA@$0A@@ATL@@QEAA@PEB_W@Z 0000000180003f40 f i OposVariant.obj
 0001:00002f80       ??0?$CTraceCategoryEx@$0BAAAAA@$0A@@ATL@@QEAA@PEB_W@Z 0000000180003f80 f i OposVariant.obj
 0001:00002fc0       ??0?$CTraceCategoryEx@$0CA@$0A@@ATL@@QEAA@PEB_W@Z 0000000180003fc0 f i OposVariant.obj
 0001:00003000       ??0?$CTraceCategoryEx@$0CAA@$0A@@ATL@@QEAA@PEB_W@Z 0000000180004000 f i OposVariant.obj
 0001:00003040       ??0?$CTraceCategoryEx@$0CAAA@$0A@@ATL@@QEAA@PEB_W@Z 0000000180004040 f i OposVariant.obj
 0001:00003080       ??0?$CTraceCategoryEx@$0CAAAA@$0A@@ATL@@QEAA@PEB_W@Z 0000000180004080 f i OposVariant.obj
 0001:000030c0       ??0?$CTraceCategoryEx@$0CAAAAA@$0A@@ATL@@QEAA@PEB_W@Z 00000001800040c0 f i OposVariant.obj
 0001:00003100       ??0?$CTraceCategoryEx@$0EA@$0A@@ATL@@QEAA@PEB_W@Z 0000000180004100 f i OposVariant.obj
 0001:00003140       ??0?$CTraceCategoryEx@$0EAA@$0A@@ATL@@QEAA@PEB_W@Z 0000000180004140 f i OposVariant.obj
 0001:00003180       ??0?$CTraceCategoryEx@$0EAAA@$0A@@ATL@@QEAA@PEB_W@Z 0000000180004180 f i OposVariant.obj
 0001:000031c0       ??0?$CTraceCategoryEx@$0EAAAA@$0A@@ATL@@QEAA@PEB_W@Z 00000001800041c0 f i OposVariant.obj
 0001:00003200       ??0?$CTraceCategoryEx@$0EAAAAA@$0A@@ATL@@QEAA@PEB_W@Z 0000000180004200 f i OposVariant.obj
 0001:00003240       ??0?$CTraceCategoryEx@$0IA@$0A@@ATL@@QEAA@PEB_W@Z 0000000180004240 f i OposVariant.obj
 0001:00003280       ??0?$CTraceCategoryEx@$0IAA@$0A@@ATL@@QEAA@PEB_W@Z 0000000180004280 f i OposVariant.obj
 0001:000032c0       ??0?$CTraceCategoryEx@$0IAAA@$0A@@ATL@@QEAA@PEB_W@Z 00000001800042c0 f i OposVariant.obj
 0001:00003300       ??0?$CTraceCategoryEx@$0IAAAA@$0A@@ATL@@QEAA@PEB_W@Z 0000000180004300 f i OposVariant.obj
 0001:00003340       ??0CAtlComModule@ATL@@QEAA@XZ 0000000180004340 f i OposVariant.obj
 0001:00003460       ??0CAtlWinModule@ATL@@QEAA@XZ 0000000180004460 f i OposVariant.obj
 0001:00003510       ??0CComCriticalSection@ATL@@QEAA@XZ 0000000180004510 f i OposVariant.obj
 0001:00003550       ??0CPreserveLastError@ATL@@QEAA@XZ 0000000180004550 f i OposVariant.obj
 0001:00003590       ??0CTraceFileAndLineInfo@ATL@@QEAA@PEBDH@Z 0000000180004590 f i OposVariant.obj
 0001:000035c0       ??0_ATL_COM_MODULE70@ATL@@QEAA@XZ 00000001800045c0 f i OposVariant.obj
 0001:00003600       ??0_ATL_WIN_MODULE70@ATL@@QEAA@XZ 0000000180004600 f i OposVariant.obj
 0001:00003650       ??1?$CHeapPtr@_WVCCRTAllocator@ATL@@@ATL@@QEAA@XZ 0000000180004650 f i OposVariant.obj
 0001:00003680       ??1?$CHeapPtrBase@_WVCCRTAllocator@ATL@@@ATL@@QEAA@XZ 0000000180004680 f i OposVariant.obj
 0001:000036b0       ??1?$CSimpleArray@GV?$CSimpleArrayEqualHelper@G@ATL@@@ATL@@QEAA@XZ 00000001800046b0 f i OposVariant.obj
 0001:000036e0       ??1CAtlComModule@ATL@@QEAA@XZ 00000001800046e0 f i OposVariant.obj
 0001:00003720       ??1CAtlWinModule@ATL@@QEAA@XZ 0000000180004720 f i OposVariant.obj
 0001:00003760       ??1CComBSTR@ATL@@QEAA@XZ   0000000180004760 f i OposVariant.obj
 0001:000037a0       ??1CComCriticalSection@ATL@@QEAA@XZ 00000001800047a0 f i OposVariant.obj
 0001:000037b0       ??1CPreserveLastError@ATL@@QEAA@XZ 00000001800047b0 f i OposVariant.obj
 0001:000037f0       ??1_ATL_COM_MODULE70@ATL@@QEAA@XZ 00000001800047f0 f i OposVariant.obj
 0001:00003830       ??1_ATL_WIN_MODULE70@ATL@@QEAA@XZ 0000000180004830 f i OposVariant.obj
 0001:00003880       ??1stringdispid@CComTypeInfoHolder@ATL@@QEAA@XZ 0000000180004880 f i OposVariant.obj
 0001:000038c0       ??A?$CSimpleArray@GV?$CSimpleArrayEqualHelper@G@ATL@@@ATL@@QEAAAEAGH@Z 00000001800048c0 f i OposVariant.obj
 0001:00003970       ??B?$CHeapPtrBase@_WVCCRTAllocator@ATL@@@ATL@@QEBAPEA_WXZ 0000000180004970 f i OposVariant.obj
 0001:00003980       ??B?$CTraceCategoryEx@$01$0A@@ATL@@QEAAIXZ 0000000180004980 f i OposVariant.obj
 0001:00003990       ??B?$CTraceCategoryEx@$0CA@$0A@@ATL@@QEAAIXZ 0000000180004990 f i OposVariant.obj
 0001:000039a0       ??RCTraceFileAndLineInfo@ATL@@QEBAXHIPEB_WZZ 00000001800049a0 f i OposVariant.obj
 0001:00003a50       ??_Estringdispid@CComTypeInfoHolder@ATL@@QEAAPEAXI@Z 0000000180004a50 f i OposVariant.obj
 0001:00003b00       ??_H@YAXPEAX_K1P6APEAX0@Z@Z 0000000180004b00 f i OposVariant.obj
 0001:00003b90       ??_I@YAXPEAX_K1P6AX0@Z@Z   0000000180004b90 f i OposVariant.obj
 0001:00003c40       ?Allocate@?$CHeapPtr@_WVCCRTAllocator@ATL@@@ATL@@QEAA_N_K@Z 0000000180004c40 f i OposVariant.obj
 0001:00003cc0       ?Allocate@CCRTAllocator@ATL@@SAPEAX_K@Z 0000000180004cc0 f i OposVariant.obj
 0001:00003cf0       ?AllocateBytes@?$CHeapPtrBase@_WVCCRTAllocator@ATL@@@ATL@@QEAA_N_K@Z 0000000180004cf0 f i OposVariant.obj
 0001:00003d90       ?AtlWinModuleInit@ATL@@YAJPEAU_ATL_WIN_MODULE70@1@@Z 0000000180004d90 f i OposVariant.obj
 0001:00003e90       ?AtlWinModuleTerm@ATL@@YAJPEAU_ATL_WIN_MODULE70@1@PEAUHINSTANCE__@@@Z 0000000180004e90 f i OposVariant.obj
 0001:00003f80       ?Clear@OposVariant@@QEAAJXZ 0000000180004f80 f i OposVariant.obj
 0001:00003fc0       ?Free@?$CHeapPtrBase@_WVCCRTAllocator@ATL@@@ATL@@QEAAXXZ 0000000180004fc0 f i OposVariant.obj
 0001:00004000       ?Free@CCRTAllocator@ATL@@SAXPEAX@Z 0000000180005000 f i OposVariant.obj
 0001:00004030       ?GetCategoryName@CTrace@ATL@@CAPEA_WI@Z 0000000180005030 f i OposVariant.obj
 0001:000040b0       ?GetModuleInstance@CAtlBaseModule@ATL@@QEAAPEAUHINSTANCE__@@XZ 00000001800050b0 f i OposVariant.obj
 0001:000040d0       ?GetSize@?$CSimpleArray@GV?$CSimpleArrayEqualHelper@G@ATL@@@ATL@@QEBAHXZ 00000001800050d0 f i OposVariant.obj
 0001:000040e0       ?Init@CComCriticalSection@ATL@@QEAAJXZ 00000001800050e0 f i OposVariant.obj
 0001:00004140       ?RegisterCategory@CTrace@ATL@@SAXPEB_WI@Z 0000000180005140 f i OposVariant.obj
 0001:00004220       ?RemoveAll@?$CSimpleArray@GV?$CSimpleArrayEqualHelper@G@ATL@@@ATL@@QEAAXXZ 0000000180005220 f i OposVariant.obj
 0001:000042b0       ?Term@CAtlComModule@ATL@@QEAAXXZ 00000001800052b0 f i OposVariant.obj
 0001:00004390       ?Term@CAtlWinModule@ATL@@QEAAXXZ 0000000180005390 f i OposVariant.obj
 0001:000043d0       ?Term@CComCriticalSection@ATL@@QEAAJXZ 00000001800053d0 f i OposVariant.obj
 0001:00004410       ?TraceV@CTrace@ATL@@CAXPEBDHIIPEB_W@Z 0000000180005410 f i OposVariant.obj
 0001:000046c0       ?TraceV@CTrace@ATL@@SAXPEBDHIIPEB_WPEAD@Z 00000001800056c0 f i OposVariant.obj
 0001:00004870       ?_AtlInitializeCriticalSectionEx@ATL@@YAHPEAU_RTL_CRITICAL_SECTION@@KK@Z 0000000180005870 f i OposVariant.obj
 0001:000048c0       ?_AtlRaiseException@ATL@@YAXKK@Z 00000001800058c0 f i OposVariant.obj
 0001:00004900       HRESULT_FROM_WIN32         0000000180005900 f i OposVariant.obj
 0001:00004950       _vswprintf_s_l             0000000180005950 f i OposVariant.obj
 0001:000049e0       swprintf_s                 00000001800059e0 f i OposVariant.obj
 0001:00004a70       ?GetObjectDescription@?$CComCoClass@VCOPOSSmartCardRW@@$1?CLSID_OPOSSmartCardRW@@3U_GUID@@B@ATL@@SAPEB_WXZ 0000000180005a70 f i SmartCardRW.obj
 0001:00004a80       ?UpdateRegistry@COPOSSmartCardRW@@SAJH@Z 0000000180005a80 f i SmartCardRW.obj
 0001:00004ac0       ?CreateInstance@?$CComCreator@V?$CComObjectCached@VCComClassFactory@ATL@@@ATL@@@ATL@@SAJPEAXAEBU_GUID@@PEAPEAX@Z 0000000180005ac0 f i SmartCardRW.obj
 0001:00004cb0       ?CreateInstance@?$CComCreator2@V?$CComCreator@V?$CComObject@VCOPOSSmartCardRW@@@ATL@@@ATL@@V?$CComCreator@V?$CComAggObject@VCOPOSSmartCardRW@@@ATL@@@2@@ATL@@SAJPEAXAEBU_GUID@@PEAPEAX@Z 0000000180005cb0 f i SmartCardRW.obj
 0001:00004d60       ?ObjectMain@CComObjectRootBase@ATL@@SAX_N@Z 0000000180005d60 f i SmartCardRW.obj
 0001:00004d70       ?GetCategoryMap@CComObjectRootBase@ATL@@SAPEBU_ATL_CATMAP_ENTRY@2@XZ 0000000180005d70 f i SmartCardRW.obj
 0001:00004ee0       DllGetClassObject          0000000180005ee0 f   SmartCardRW.obj
 0001:00004f30       DllCanUnloadNow            0000000180005f30 f   SmartCardRW.obj
 0001:00004f80       DllRegisterServer          0000000180005f80 f   SmartCardRW.obj
 0001:00004fc0       DllUnregisterServer        0000000180005fc0 f   SmartCardRW.obj
 0001:000051c0       DllMain                    00000001800061c0 f   SmartCardRW.obj
 0001:00005240       ??$?2G@Wrapper@?$CSimpleArray@GV?$CSimpleArrayEqualHelper@G@ATL@@@ATL@@SAPEAX_KPEAG@Z 0000000180006240 f i SmartCardRW.obj
 0001:00005260       ??$?2PEA_W@?$Wrapper@PEA_W@?$CSimpleMap@PEA_WPEA_WVCExpansionVectorEqualHelper@ATL@@@ATL@@SAPEAX_KPEAPEA_W@Z 0000000180006260 f i SmartCardRW.obj
 0001:00005280       ??$?4UITypeInfo2@@@?$CComPtr@UITypeInfo@@@ATL@@QEAAPEAUITypeInfo@@AEBV?$CComPtr@UITypeInfo2@@@1@@Z 0000000180006280 f i SmartCardRW.obj
 0001:000052f0       ??$AtlAdd@_K@ATL@@YAJPEA_K_K1@Z 00000001800062f0 f i SmartCardRW.obj
 0001:00005360       ??$AtlAddThrow@_K@ATL@@YA_K_K0@Z 0000000180006360 f i SmartCardRW.obj
 0001:000053d0       ??$AtlModuleRegisterWndClassInfoT@VAtlModuleRegisterWndClassInfoParamW@ATL@@@ATL@@YAGPEAU_ATL_BASE_MODULE70@0@PEAU_ATL_WIN_MODULE70@0@PEAU_ATL_WNDCLASSINFOW@0@PEAP6A_JPEAUHWND__@@I_K_J@ZVAtlModuleRegisterWndClassInfoParamW@0@@Z 00000001800063d0 f i SmartCardRW.obj
 0001:000059a0       ??$AtlMultiply@H@ATL@@YAJPEAHHH@Z 00000001800069a0 f i SmartCardRW.obj
 0001:00005a10       ??$AtlMultiply@K@ATL@@YAJPEAKKK@Z 0000000180006a10 f i SmartCardRW.obj
 0001:00005a80       ??$AtlMultiplyThrow@_K@ATL@@YA_K_K0@Z 0000000180006a80 f i SmartCardRW.obj
 0001:00005af0       ??$QueryInterface@UIPersistStream@@@IUnknown@@QEAAJPEAPEAUIPersistStream@@@Z 0000000180006af0 f i SmartCardRW.obj
 0001:00005b40       ??$QueryInterface@UITypeInfo2@@@IUnknown@@QEAAJPEAPEAUITypeInfo2@@@Z 0000000180006b40 f i SmartCardRW.obj
 0001:00005b90       ??0?$CAtlModuleT@VCComModule@ATL@@@ATL@@QEAA@XZ 0000000180006b90 f i SmartCardRW.obj
 0001:00005bd0       ??0?$CAtlSafeAllocBufferManager@VCCRTAllocator@ATL@@@_ATL_SAFE_ALLOCA_IMPL@ATL@@QEAA@XZ 0000000180006bd0 f i SmartCardRW.obj
 0001:00005bf0       ??0?$CAutoVectorPtr@_W@ATL@@QEAA@XZ 0000000180006bf0 f i SmartCardRW.obj
 0001:00005c10       ??0?$CComAggObject@VCOPOSSmartCardRW@@@ATL@@QEAA@PEAX@Z 0000000180006c10 f i SmartCardRW.obj
 0001:00005ca0       ??0?$CComContainedObject@VCOPOSSmartCardRW@@@ATL@@QEAA@PEAX@Z 0000000180006ca0 f i SmartCardRW.obj
 0001:00005e40       ??0?$CComCritSecLock@VCComCriticalSection@ATL@@@ATL@@QEAA@AEAVCComCriticalSection@1@_N@Z 0000000180006e40 f i SmartCardRW.obj
 0001:00005eb0       ??0?$CComEnum@UIEnumConnectionPoints@@$1?_GUID_b196b285_bab4_101a_b69c_00aa00341d07@@3U__s_GUID@@BPEAUIConnectionPoint@@V?$_CopyInterface@UIConnectionPoint@@@ATL@@VCComSingleThreadModel@6@@ATL@@QEAA@XZ 0000000180006eb0 f i SmartCardRW.obj
 0001:00005f00       ??0?$CComEnum@UIEnumConnections@@$1?_GUID_b196b287_bab4_101a_b69c_00aa00341d07@@3U__s_GUID@@BUtagCONNECTDATA@@V?$_Copy@UtagCONNECTDATA@@@ATL@@VCComSingleThreadModel@6@@ATL@@QEAA@XZ 0000000180006f00 f i SmartCardRW.obj
 0001:00005f50       ??0?$CComEnumImpl@UIEnumConnectionPoints@@$1?_GUID_b196b285_bab4_101a_b69c_00aa00341d07@@3U__s_GUID@@BPEAUIConnectionPoint@@V?$_CopyInterface@UIConnectionPoint@@@ATL@@@ATL@@QEAA@XZ 0000000180006f50 f i SmartCardRW.obj
 0001:00005fd0       ??0?$CComEnumImpl@UIEnumConnections@@$1?_GUID_b196b287_bab4_101a_b69c_00aa00341d07@@3U__s_GUID@@BUtagCONNECTDATA@@V?$_Copy@UtagCONNECTDATA@@@ATL@@@ATL@@QEAA@XZ 0000000180006fd0 f i SmartCardRW.obj
 0001:00006050       ??0?$CComObject@V?$CComEnum@UIEnumConnectionPoints@@$1?_GUID_b196b285_bab4_101a_b69c_00aa00341d07@@3U__s_GUID@@BPEAUIConnectionPoint@@V?$_CopyInterface@UIConnectionPoint@@@ATL@@VCComSingleThreadModel@6@@ATL@@@ATL@@QEAA@PEAX@Z 0000000180007050 f i SmartCardRW.obj
 0001:000060b0       ??0?$CComObject@V?$CComEnum@UIEnumConnections@@$1?_GUID_b196b287_bab4_101a_b69c_00aa00341d07@@3U__s_GUID@@BUtagCONNECTDATA@@V?$_Copy@UtagCONNECTDATA@@@ATL@@VCComSingleThreadModel@6@@ATL@@@ATL@@QEAA@PEAX@Z 00000001800070b0 f i SmartCardRW.obj
 0001:00006110       ??0?$CComObject@VCOPOSSmartCardRW@@@ATL@@QEAA@PEAX@Z 0000000180007110 f i SmartCardRW.obj
 0001:000062b0       ??0?$CComObjectCached@VCComClassFactory@ATL@@@ATL@@QEAA@PEAX@Z 00000001800072b0 f i SmartCardRW.obj
 0001:00006300       ??0?$CComObjectRootEx@VCComMultiThreadModel@ATL@@@ATL@@QEAA@XZ 0000000180007300 f i SmartCardRW.obj
 0001:00006350       ??0?$CComObjectRootEx@VCComSingleThreadModel@ATL@@@ATL@@QEAA@XZ 0000000180007350 f i SmartCardRW.obj
 0001:00006390       ??0?$CComPtr@UIAdviseSink@@@ATL@@QEAA@PEAUIAdviseSink@@@Z 0000000180007390 f i SmartCardRW.obj
 0001:000063d0       ??0?$CComPtr@UICatRegister@@@ATL@@QEAA@XZ 00000001800073d0 f i SmartCardRW.obj
 0001:00006410       ??0?$CComPtr@UIConnectionPoint@@@ATL@@QEAA@XZ 0000000180007410 f i SmartCardRW.obj
 0001:00006450       ??0?$CComPtr@UIConnectionPointContainer@@@ATL@@QEAA@XZ 0000000180007450 f i SmartCardRW.obj
 0001:00006490       ??0?$CComPtr@UIDataObject@@@ATL@@QEAA@XZ 0000000180007490 f i SmartCardRW.obj
 0001:000064d0       ??0?$CComPtr@UIDispatch@@@ATL@@QEAA@XZ 00000001800074d0 f i SmartCardRW.obj
 0001:00006510       ??0?$CComPtr@UIOleClientSite@@@ATL@@QEAA@PEAUIOleClientSite@@@Z 0000000180007510 f i SmartCardRW.obj
 0001:00006550       ??0?$CComPtr@UIOleControlSite@@@ATL@@QEAA@XZ 0000000180007550 f i SmartCardRW.obj
 0001:00006590       ??0?$CComPtr@UIOleInPlaceActiveObject@@@ATL@@QEAA@XZ 0000000180007590 f i SmartCardRW.obj
 0001:000065d0       ??0?$CComPtr@UIOleInPlaceFrame@@@ATL@@QEAA@XZ 00000001800075d0 f i SmartCardRW.obj
 0001:00006610       ??0?$CComPtr@UIOleInPlaceObject@@@ATL@@QEAA@XZ 0000000180007610 f i SmartCardRW.obj
 0001:00006650       ??0?$CComPtr@UIOleInPlaceUIWindow@@@ATL@@QEAA@XZ 0000000180007650 f i SmartCardRW.obj
 0001:00006690       ??0?$CComPtr@UIOleObject@@@ATL@@QEAA@XZ 0000000180007690 f i SmartCardRW.obj
 0001:000066d0       ??0?$CComPtr@UIPersistStream@@@ATL@@QEAA@XZ 00000001800076d0 f i SmartCardRW.obj
 0001:00006710       ??0?$CComPtr@UIPersistStreamInit@@@ATL@@QEAA@XZ 0000000180007710 f i SmartCardRW.obj
 0001:00006750       ??0?$CComPtr@UIPointerInactive@@@ATL@@QEAA@XZ 0000000180007750 f i SmartCardRW.obj
 0001:00006790       ??0?$CComPtr@UIProvideClassInfo2@@@ATL@@QEAA@XZ 0000000180007790 f i SmartCardRW.obj
 0001:000067d0       ??0?$CComPtr@UISpecifyPropertyPages@@@ATL@@QEAA@XZ 00000001800077d0 f i SmartCardRW.obj
 0001:00006810       ??0?$CComPtr@UIStream@@@ATL@@QEAA@XZ 0000000180007810 f i SmartCardRW.obj
 0001:00006850       ??0?$CComPtr@UITypeInfo2@@@ATL@@QEAA@XZ 0000000180007850 f i SmartCardRW.obj
 0001:00006890       ??0?$CComPtr@UITypeInfo@@@ATL@@QEAA@AEBV01@@Z 0000000180007890 f i SmartCardRW.obj
 0001:000068d0       ??0?$CComPtr@UITypeInfo@@@ATL@@QEAA@XZ 00000001800078d0 f i SmartCardRW.obj
 0001:00006910       ??0?$CComPtr@UITypeLib@@@ATL@@QEAA@XZ 0000000180007910 f i SmartCardRW.obj
 0001:00006950       ??0?$CComPtr@UIUnknown@@@ATL@@QEAA@AEBV01@@Z 0000000180007950 f i SmartCardRW.obj
 0001:00006990       ??0?$CComPtr@UIUnknown@@@ATL@@QEAA@PEAUIUnknown@@@Z 0000000180007990 f i SmartCardRW.obj
 0001:000069d0       ??0?$CComPtr@UIUnknown@@@ATL@@QEAA@XZ 00000001800079d0 f i SmartCardRW.obj
 0001:00006a10       ??0?$CComPtr@UIViewObjectEx@@@ATL@@QEAA@XZ 0000000180007a10 f i SmartCardRW.obj
 0001:00006a50       ??0?$CComPtrBase@UIAdviseSink@@@ATL@@IEAA@PEAUIAdviseSink@@@Z 0000000180007a50 f i SmartCardRW.obj
 0001:00006ab0       ??0?$CComPtrBase@UICatRegister@@@ATL@@IEAA@XZ 0000000180007ab0 f i SmartCardRW.obj
 0001:00006ad0       ??0?$CComPtrBase@UIConnectionPoint@@@ATL@@IEAA@XZ 0000000180007ad0 f i SmartCardRW.obj
 0001:00006af0       ??0?$CComPtrBase@UIConnectionPointContainer@@@ATL@@IEAA@XZ 0000000180007af0 f i SmartCardRW.obj
 0001:00006b10       ??0?$CComPtrBase@UIDataObject@@@ATL@@IEAA@XZ 0000000180007b10 f i SmartCardRW.obj
 0001:00006b30       ??0?$CComPtrBase@UIDispatch@@@ATL@@IEAA@XZ 0000000180007b30 f i SmartCardRW.obj
 0001:00006b50       ??0?$CComPtrBase@UIOleClientSite@@@ATL@@IEAA@PEAUIOleClientSite@@@Z 0000000180007b50 f i SmartCardRW.obj
 0001:00006bb0       ??0?$CComPtrBase@UIOleControlSite@@@ATL@@IEAA@XZ 0000000180007bb0 f i SmartCardRW.obj
 0001:00006bd0       ??0?$CComPtrBase@UIOleInPlaceActiveObject@@@ATL@@IEAA@XZ 0000000180007bd0 f i SmartCardRW.obj
 0001:00006bf0       ??0?$CComPtrBase@UIOleInPlaceFrame@@@ATL@@IEAA@XZ 0000000180007bf0 f i SmartCardRW.obj
 0001:00006c10       ??0?$CComPtrBase@UIOleInPlaceObject@@@ATL@@IEAA@XZ 0000000180007c10 f i SmartCardRW.obj
 0001:00006c30       ??0?$CComPtrBase@UIOleInPlaceUIWindow@@@ATL@@IEAA@XZ 0000000180007c30 f i SmartCardRW.obj
 0001:00006c50       ??0?$CComPtrBase@UIOleObject@@@ATL@@IEAA@XZ 0000000180007c50 f i SmartCardRW.obj
 0001:00006c70       ??0?$CComPtrBase@UIPersistStream@@@ATL@@IEAA@XZ 0000000180007c70 f i SmartCardRW.obj
 0001:00006c90       ??0?$CComPtrBase@UIPersistStreamInit@@@ATL@@IEAA@XZ 0000000180007c90 f i SmartCardRW.obj
 0001:00006cb0       ??0?$CComPtrBase@UIPointerInactive@@@ATL@@IEAA@XZ 0000000180007cb0 f i SmartCardRW.obj
 0001:00006cd0       ??0?$CComPtrBase@UIProvideClassInfo2@@@ATL@@IEAA@XZ 0000000180007cd0 f i SmartCardRW.obj
 0001:00006cf0       ??0?$CComPtrBase@UISpecifyPropertyPages@@@ATL@@IEAA@XZ 0000000180007cf0 f i SmartCardRW.obj
 0001:00006d10       ??0?$CComPtrBase@UIStream@@@ATL@@IEAA@XZ 0000000180007d10 f i SmartCardRW.obj
 0001:00006d30       ??0?$CComPtrBase@UITypeInfo2@@@ATL@@IEAA@XZ 0000000180007d30 f i SmartCardRW.obj
 0001:00006d50       ??0?$CComPtrBase@UITypeInfo@@@ATL@@IEAA@PEAUITypeInfo@@@Z 0000000180007d50 f i SmartCardRW.obj
 0001:00006db0       ??0?$CComPtrBase@UITypeInfo@@@ATL@@IEAA@XZ 0000000180007db0 f i SmartCardRW.obj
 0001:00006dd0       ??0?$CComPtrBase@UITypeLib@@@ATL@@IEAA@XZ 0000000180007dd0 f i SmartCardRW.obj
 0001:00006df0       ??0?$CComPtrBase@UIUnknown@@@ATL@@IEAA@PEAUIUnknown@@@Z 0000000180007df0 f i SmartCardRW.obj
 0001:00006e50       ??0?$CComPtrBase@UIUnknown@@@ATL@@IEAA@XZ 0000000180007e50 f i SmartCardRW.obj
 0001:00006e70       ??0?$CComPtrBase@UIViewObjectEx@@@ATL@@IEAA@XZ 0000000180007e70 f i SmartCardRW.obj
 0001:00006e90       ??0?$CComQIPtr@UIOleControlSite@@$1?_GUID_b196b289_bab4_101a_b69c_00aa00341d07@@3U__s_GUID@@B@ATL@@QEAA@PEAUIUnknown@@@Z 0000000180007e90 f i SmartCardRW.obj
 0001:00006f00       ??0?$CComQIPtr@UIOleObject@@$1?_GUID_00000112_0000_0000_c000_000000000046@@3U__s_GUID@@B@ATL@@QEAA@XZ 0000000180007f00 f i SmartCardRW.obj
 0001:00006f40       ??0?$CComQIPtr@UISpecifyPropertyPages@@$1?_GUID_b196b28b_bab4_101a_b69c_00aa00341d07@@3U__s_GUID@@B@ATL@@QEAA@XZ 0000000180007f40 f i SmartCardRW.obj
 0001:00006f80       ??0?$CSimpleMap@PEA_WPEA_WVCExpansionVectorEqualHelper@ATL@@@ATL@@QEAA@XZ 0000000180007f80 f i SmartCardRW.obj
 0001:00006fc0       ??0?$CTempBuffer@E$0BAA@VCCRTAllocator@ATL@@@ATL@@QEAA@XZ 0000000180007fc0 f i SmartCardRW.obj
 0001:00006fe0       ??0?$CTempBuffer@_W$0BAA@VCCRTAllocator@ATL@@@ATL@@QEAA@XZ 0000000180007fe0 f i SmartCardRW.obj
 0001:00007000       ??0?$CTempBuffer@_W$0EAA@VCCRTAllocator@ATL@@@ATL@@QEAA@XZ 0000000180008000 f i SmartCardRW.obj
 0001:00007020       ??0?$Wrapper@PEA_W@?$CSimpleMap@PEA_WPEA_WVCExpansionVectorEqualHelper@ATL@@@ATL@@QEAA@AEBQEA_W@Z 0000000180008020 f i SmartCardRW.obj
 0001:00007050       ??0CAtlModule@ATL@@QEAA@XZ 0000000180008050 f i SmartCardRW.obj
 0001:000071c0       ??0CComAutoDeleteCriticalSection@ATL@@QEAA@XZ 00000001800081c0 f i SmartCardRW.obj
 0001:00007200       ??0CComBSTR@ATL@@QEAA@XZ   0000000180008200 f i SmartCardRW.obj
 0001:00007220       ??0CComClassFactory@ATL@@QEAA@XZ 0000000180008220 f i SmartCardRW.obj
 0001:00007280       ??0CComModule@ATL@@QEAA@XZ 0000000180008280 f i SmartCardRW.obj
 0001:00007320       ??0CComObjectRootBase@ATL@@QEAA@XZ 0000000180008320 f i SmartCardRW.obj
 0001:00007340       ??0CComSafeDeleteCriticalSection@ATL@@QEAA@XZ 0000000180008340 f i SmartCardRW.obj
 0001:00007380       ??0CComVariant@ATL@@QEAA@XZ 0000000180008380 f i SmartCardRW.obj
 0001:000073d0       ??0CExpansionVector@ATL@@QEAA@XZ 00000001800083d0 f i SmartCardRW.obj
 0001:00007410       ??0CParseBuffer@CRegParser@ATL@@QEAA@H@Z 0000000180008410 f i SmartCardRW.obj
 0001:000074a0       ??0CRegKey@ATL@@QEAA@PEAUHKEY__@@@Z 00000001800084a0 f i SmartCardRW.obj
 0001:000074e0       ??0CRegKey@ATL@@QEAA@PEAVCAtlTransactionManager@1@@Z 00000001800084e0 f i SmartCardRW.obj
 0001:00007520       ??0CRegObject@ATL@@QEAA@XZ 0000000180008520 f i SmartCardRW.obj
 0001:00007580       ??0CRegParser@ATL@@QEAA@PEAVCRegObject@1@@Z 0000000180008580 f i SmartCardRW.obj
 0001:000075b0       ??0IClassFactory@@QEAA@XZ  00000001800085b0 f i SmartCardRW.obj
 0001:000075f0       ??0IEnumConnectionPoints@@QEAA@XZ 00000001800085f0 f i SmartCardRW.obj
 0001:00007630       ??0IEnumConnections@@QEAA@XZ 0000000180008630 f i SmartCardRW.obj
 0001:00007670       ??0IRegistrarBase@@QEAA@XZ 0000000180008670 f i SmartCardRW.obj
 0001:000076b0       ??0IUnknown@@QEAA@XZ       00000001800086b0 f i SmartCardRW.obj
 0001:000076c0       ??0ModuleLockHelper@ATL@@QEAA@XZ 00000001800086c0 f i SmartCardRW.obj
 0001:00007700       ??0OposVariant@@QEAA@XZ    0000000180008700 f i SmartCardRW.obj
 0001:00007720       ??0Wrapper@?$CSimpleArray@GV?$CSimpleArrayEqualHelper@G@ATL@@@ATL@@QEAA@AEBG@Z 0000000180008720 f i SmartCardRW.obj
 0001:00007750       ??0_ATL_MODULE70@ATL@@QEAA@XZ 0000000180008750 f i SmartCardRW.obj
 0001:00007790       ??0_ATL_MSG@ATL@@QEAA@PEAUHWND__@@I_K_JH@Z 0000000180008790 f i SmartCardRW.obj
 0001:00007820       ??0_U_MENUorID@ATL@@QEAA@I@Z 0000000180008820 f i SmartCardRW.obj
 0001:00007840       ??0_U_RECT@ATL@@QEAA@AEAUtagRECT@@@Z 0000000180008840 f i SmartCardRW.obj
 0001:00007860       ??0stringdispid@CComTypeInfoHolder@ATL@@QEAA@XZ 0000000180008860 f i SmartCardRW.obj
 0001:000078b0       ??1?$CAtlModuleT@VCComModule@ATL@@@ATL@@UEAA@XZ 00000001800088b0 f i SmartCardRW.obj
 0001:000078e0       ??1?$CAtlSafeAllocBufferManager@VCCRTAllocator@ATL@@@_ATL_SAFE_ALLOCA_IMPL@ATL@@QEAA@XZ 00000001800088e0 f i SmartCardRW.obj
 0001:00007940       ??1?$CAutoVectorPtr@_W@ATL@@QEAA@XZ 0000000180008940 f i SmartCardRW.obj
 0001:00007970       ??1?$CComAggObject@VCOPOSSmartCardRW@@@ATL@@UEAA@XZ 0000000180008970 f i SmartCardRW.obj
 0001:000079f0       ??1?$CComContainedObject@VCOPOSSmartCardRW@@@ATL@@UEAA@XZ 00000001800089f0 f i SmartCardRW.obj
 0001:00007a20       ??1?$CComCritSecLock@VCComCriticalSection@ATL@@@ATL@@QEAA@XZ 0000000180008a20 f i SmartCardRW.obj
 0001:00007a60       ??1?$CComEnum@UIEnumConnectionPoints@@$1?_GUID_b196b285_bab4_101a_b69c_00aa00341d07@@3U__s_GUID@@BPEAUIConnectionPoint@@V?$_CopyInterface@UIConnectionPoint@@@ATL@@VCComSingleThreadModel@6@@ATL@@UEAA@XZ 0000000180008a60 f i SmartCardRW.obj
 0001:00007aa0       ??1?$CComEnum@UIEnumConnections@@$1?_GUID_b196b287_bab4_101a_b69c_00aa00341d07@@3U__s_GUID@@BUtagCONNECTDATA@@V?$_Copy@UtagCONNECTDATA@@@ATL@@VCComSingleThreadModel@6@@ATL@@UEAA@XZ 0000000180008aa0 f i SmartCardRW.obj
 0001:00007ae0       ??1?$CComEnumImpl@UIEnumConnectionPoints@@$1?_GUID_b196b285_bab4_101a_b69c_00aa00341d07@@3U__s_GUID@@BPEAUIConnectionPoint@@V?$_CopyInterface@UIConnectionPoint@@@ATL@@@ATL@@UEAA@XZ 0000000180008ae0 f i SmartCardRW.obj
 0001:00007b80       ??1?$CComEnumImpl@UIEnumConnections@@$1?_GUID_b196b287_bab4_101a_b69c_00aa00341d07@@3U__s_GUID@@BUtagCONNECTDATA@@V?$_Copy@UtagCONNECTDATA@@@ATL@@@ATL@@UEAA@XZ 0000000180008b80 f i SmartCardRW.obj
 0001:00007c20       ??1?$CComObject@V?$CComEnum@UIEnumConnectionPoints@@$1?_GUID_b196b285_bab4_101a_b69c_00aa00341d07@@3U__s_GUID@@BPEAUIConnectionPoint@@V?$_CopyInterface@UIConnectionPoint@@@ATL@@VCComSingleThreadModel@6@@ATL@@@ATL@@UEAA@XZ 0000000180008c20 f i SmartCardRW.obj
 0001:00007c90       ??1?$CComObject@V?$CComEnum@UIEnumConnections@@$1?_GUID_b196b287_bab4_101a_b69c_00aa00341d07@@3U__s_GUID@@BUtagCONNECTDATA@@V?$_Copy@UtagCONNECTDATA@@@ATL@@VCComSingleThreadModel@6@@ATL@@@ATL@@UEAA@XZ 0000000180008c90 f i SmartCardRW.obj
 0001:00007d00       ??1?$CComObject@VCOPOSSmartCardRW@@@ATL@@UEAA@XZ 0000000180008d00 f i SmartCardRW.obj
 0001:00007eb0       ??1?$CComObjectCached@VCComClassFactory@ATL@@@ATL@@UEAA@XZ 0000000180008eb0 f i SmartCardRW.obj
 0001:00007f10       ??1?$CComObjectRootEx@VCComMultiThreadModel@ATL@@@ATL@@QEAA@XZ 0000000180008f10 f i SmartCardRW.obj
 0001:00007f50       ??1?$CComObjectRootEx@VCComSingleThreadModel@ATL@@@ATL@@QEAA@XZ 0000000180008f50 f i SmartCardRW.obj
 0001:00007f80       ??1?$CComPtr@UIAdviseSink@@@ATL@@QEAA@XZ 0000000180008f80 f i SmartCardRW.obj
 0001:00007fb0       ??1?$CComPtr@UICatRegister@@@ATL@@QEAA@XZ 0000000180008fb0 f i SmartCardRW.obj
 0001:00007fe0       ??1?$CComPtr@UIConnectionPoint@@@ATL@@QEAA@XZ 0000000180008fe0 f i SmartCardRW.obj
 0001:00008010       ??1?$CComPtr@UIConnectionPointContainer@@@ATL@@QEAA@XZ 0000000180009010 f i SmartCardRW.obj
 0001:00008040       ??1?$CComPtr@UIDataObject@@@ATL@@QEAA@XZ 0000000180009040 f i SmartCardRW.obj
 0001:00008070       ??1?$CComPtr@UIDispatch@@@ATL@@QEAA@XZ 0000000180009070 f i SmartCardRW.obj
 0001:000080a0       ??1?$CComPtr@UIOleClientSite@@@ATL@@QEAA@XZ 00000001800090a0 f i SmartCardRW.obj
 0001:000080d0       ??1?$CComPtr@UIOleControlSite@@@ATL@@QEAA@XZ 00000001800090d0 f i SmartCardRW.obj
 0001:00008100       ??1?$CComPtr@UIOleInPlaceActiveObject@@@ATL@@QEAA@XZ 0000000180009100 f i SmartCardRW.obj
 0001:00008130       ??1?$CComPtr@UIOleInPlaceFrame@@@ATL@@QEAA@XZ 0000000180009130 f i SmartCardRW.obj
 0001:00008160       ??1?$CComPtr@UIOleInPlaceObject@@@ATL@@QEAA@XZ 0000000180009160 f i SmartCardRW.obj
 0001:00008190       ??1?$CComPtr@UIOleInPlaceUIWindow@@@ATL@@QEAA@XZ 0000000180009190 f i SmartCardRW.obj
 0001:000081c0       ??1?$CComPtr@UIOleObject@@@ATL@@QEAA@XZ 00000001800091c0 f i SmartCardRW.obj
 0001:000081f0       ??1?$CComPtr@UIPersistStream@@@ATL@@QEAA@XZ 00000001800091f0 f i SmartCardRW.obj
 0001:00008220       ??1?$CComPtr@UIPersistStreamInit@@@ATL@@QEAA@XZ 0000000180009220 f i SmartCardRW.obj
 0001:00008250       ??1?$CComPtr@UIPointerInactive@@@ATL@@QEAA@XZ 0000000180009250 f i SmartCardRW.obj
 0001:00008280       ??1?$CComPtr@UIProvideClassInfo2@@@ATL@@QEAA@XZ 0000000180009280 f i SmartCardRW.obj
 0001:000082b0       ??1?$CComPtr@UISpecifyPropertyPages@@@ATL@@QEAA@XZ 00000001800092b0 f i SmartCardRW.obj
 0001:000082e0       ??1?$CComPtr@UIStream@@@ATL@@QEAA@XZ 00000001800092e0 f i SmartCardRW.obj
 0001:00008310       ??1?$CComPtr@UITypeInfo2@@@ATL@@QEAA@XZ 0000000180009310 f i SmartCardRW.obj
 0001:00008340       ??1?$CComPtr@UITypeInfo@@@ATL@@QEAA@XZ 0000000180009340 f i SmartCardRW.obj
 0001:00008370       ??1?$CComPtr@UITypeLib@@@ATL@@QEAA@XZ 0000000180009370 f i SmartCardRW.obj
 0001:000083a0       ??1?$CComPtr@UIUnknown@@@ATL@@QEAA@XZ 00000001800093a0 f i SmartCardRW.obj
 0001:000083d0       ??1?$CComPtr@UIViewObjectEx@@@ATL@@QEAA@XZ 00000001800093d0 f i SmartCardRW.obj
 0001:00008400       ??1?$CComPtrBase@UIAdviseSink@@@ATL@@QEAA@XZ 0000000180009400 f i SmartCardRW.obj
 0001:00008450       ??1?$CComPtrBase@UICatRegister@@@ATL@@QEAA@XZ 0000000180009450 f i SmartCardRW.obj
 0001:000084a0       ??1?$CComPtrBase@UIConnectionPoint@@@ATL@@QEAA@XZ 00000001800094a0 f i SmartCardRW.obj
 0001:000084f0       ??1?$CComPtrBase@UIConnectionPointContainer@@@ATL@@QEAA@XZ 00000001800094f0 f i SmartCardRW.obj
 0001:00008540       ??1?$CComPtrBase@UIDataObject@@@ATL@@QEAA@XZ 0000000180009540 f i SmartCardRW.obj
 0001:00008590       ??1?$CComPtrBase@UIDispatch@@@ATL@@QEAA@XZ 0000000180009590 f i SmartCardRW.obj
 0001:000085e0       ??1?$CComPtrBase@UIOleClientSite@@@ATL@@QEAA@XZ 00000001800095e0 f i SmartCardRW.obj
 0001:00008630       ??1?$CComPtrBase@UIOleControlSite@@@ATL@@QEAA@XZ 0000000180009630 f i SmartCardRW.obj
 0001:00008680       ??1?$CComPtrBase@UIOleInPlaceActiveObject@@@ATL@@QEAA@XZ 0000000180009680 f i SmartCardRW.obj
 0001:000086d0       ??1?$CComPtrBase@UIOleInPlaceFrame@@@ATL@@QEAA@XZ 00000001800096d0 f i SmartCardRW.obj
 0001:00008720       ??1?$CComPtrBase@UIOleInPlaceObject@@@ATL@@QEAA@XZ 0000000180009720 f i SmartCardRW.obj
 0001:00008770       ??1?$CComPtrBase@UIOleInPlaceUIWindow@@@ATL@@QEAA@XZ 0000000180009770 f i SmartCardRW.obj
 0001:000087c0       ??1?$CComPtrBase@UIOleObject@@@ATL@@QEAA@XZ 00000001800097c0 f i SmartCardRW.obj
 0001:00008810       ??1?$CComPtrBase@UIPersistStream@@@ATL@@QEAA@XZ 0000000180009810 f i SmartCardRW.obj
 0001:00008860       ??1?$CComPtrBase@UIPersistStreamInit@@@ATL@@QEAA@XZ 0000000180009860 f i SmartCardRW.obj
 0001:000088b0       ??1?$CComPtrBase@UIPointerInactive@@@ATL@@QEAA@XZ 00000001800098b0 f i SmartCardRW.obj
 0001:00008900       ??1?$CComPtrBase@UIProvideClassInfo2@@@ATL@@QEAA@XZ 0000000180009900 f i SmartCardRW.obj
 0001:00008950       ??1?$CComPtrBase@UISpecifyPropertyPages@@@ATL@@QEAA@XZ 0000000180009950 f i SmartCardRW.obj
 0001:000089a0       ??1?$CComPtrBase@UIStream@@@ATL@@QEAA@XZ 00000001800099a0 f i SmartCardRW.obj
 0001:000089f0       ??1?$CComPtrBase@UITypeInfo2@@@ATL@@QEAA@XZ 00000001800099f0 f i SmartCardRW.obj
 0001:00008a40       ??1?$CComPtrBase@UITypeInfo@@@ATL@@QEAA@XZ 0000000180009a40 f i SmartCardRW.obj
 0001:00008a90       ??1?$CComPtrBase@UITypeLib@@@ATL@@QEAA@XZ 0000000180009a90 f i SmartCardRW.obj
 0001:00008ae0       ??1?$CComPtrBase@UIUnknown@@@ATL@@QEAA@XZ 0000000180009ae0 f i SmartCardRW.obj
 0001:00008b30       ??1?$CComPtrBase@UIViewObjectEx@@@ATL@@QEAA@XZ 0000000180009b30 f i SmartCardRW.obj
 0001:00008b80       ??1?$CComQIPtr@UIOleControlSite@@$1?_GUID_b196b289_bab4_101a_b69c_00aa00341d07@@3U__s_GUID@@B@ATL@@QEAA@XZ 0000000180009b80 f i SmartCardRW.obj
 0001:00008bb0       ??1?$CComQIPtr@UIOleObject@@$1?_GUID_00000112_0000_0000_c000_000000000046@@3U__s_GUID@@B@ATL@@QEAA@XZ 0000000180009bb0 f i SmartCardRW.obj
 0001:00008be0       ??1?$CComQIPtr@UISpecifyPropertyPages@@$1?_GUID_b196b28b_bab4_101a_b69c_00aa00341d07@@3U__s_GUID@@B@ATL@@QEAA@XZ 0000000180009be0 f i SmartCardRW.obj
 0001:00008c10       ??1?$CSimpleMap@PEA_WPEA_WVCExpansionVectorEqualHelper@ATL@@@ATL@@QEAA@XZ 0000000180009c10 f i SmartCardRW.obj
 0001:00008c40       ??1?$CTempBuffer@E$0BAA@VCCRTAllocator@ATL@@@ATL@@QEAA@XZ 0000000180009c40 f i SmartCardRW.obj
 0001:00008c90       ??1?$CTempBuffer@_W$0BAA@VCCRTAllocator@ATL@@@ATL@@QEAA@XZ 0000000180009c90 f i SmartCardRW.obj
 0001:00008ce0       ??1?$CTempBuffer@_W$0EAA@VCCRTAllocator@ATL@@@ATL@@QEAA@XZ 0000000180009ce0 f i SmartCardRW.obj
 0001:00008d30       ??1CAtlModule@ATL@@UEAA@XZ 0000000180009d30 f i SmartCardRW.obj
 0001:00008d70       ??1CComAutoDeleteCriticalSection@ATL@@QEAA@XZ 0000000180009d70 f i SmartCardRW.obj
 0001:00008da0       ??1CComClassFactory@ATL@@UEAA@XZ 0000000180009da0 f i SmartCardRW.obj
 0001:00008df0       ??1CComModule@ATL@@UEAA@XZ 0000000180009df0 f i SmartCardRW.obj
 0001:00008e30       ??1CComObjectRootBase@ATL@@QEAA@XZ 0000000180009e30 f i SmartCardRW.obj
 0001:00008e40       ??1CComSafeDeleteCriticalSection@ATL@@QEAA@XZ 0000000180009e40 f i SmartCardRW.obj
 0001:00008e90       ??1CComVariant@ATL@@QEAA@XZ 0000000180009e90 f i SmartCardRW.obj
 0001:00008f10       ??1CExpansionVector@ATL@@QEAA@XZ 0000000180009f10 f i SmartCardRW.obj
 0001:00008f50       ??1CParseBuffer@CRegParser@ATL@@QEAA@XZ 0000000180009f50 f i SmartCardRW.obj
 0001:00008f90       ??1CRegKey@ATL@@QEAA@XZ    0000000180009f90 f i SmartCardRW.obj
 0001:00008fc0       ??1CRegObject@ATL@@UEAA@XZ 0000000180009fc0 f i SmartCardRW.obj
 0001:00009010       ??1ModuleLockHelper@ATL@@QEAA@XZ 000000018000a010 f i SmartCardRW.obj
 0001:00009050       ??1OposVariant@@QEAA@XZ    000000018000a050 f i SmartCardRW.obj
 0001:00009090       ??1_ATL_MODULE70@ATL@@QEAA@XZ 000000018000a090 f i SmartCardRW.obj
 0001:000090d0       ??4?$CComPtr@UIAdviseSink@@@ATL@@QEAAPEAUIAdviseSink@@PEAU2@@Z 000000018000a0d0 f i SmartCardRW.obj
 0001:00009140       ??4?$CComPtr@UIOleClientSite@@@ATL@@QEAAPEAUIOleClientSite@@PEAU2@@Z 000000018000a140 f i SmartCardRW.obj
 0001:000091b0       ??4?$CComPtr@UIUnknown@@@ATL@@QEAAPEAUIUnknown@@PEAU2@@Z 000000018000a1b0 f i SmartCardRW.obj
 0001:00009220       ??4?$CComQIPtr@UIOleObject@@$1?_GUID_00000112_0000_0000_c000_000000000046@@3U__s_GUID@@B@ATL@@QEAAPEAUIOleObject@@PEAUIUnknown@@@Z 000000018000a220 f i SmartCardRW.obj
 0001:00009280       ??4?$CComQIPtr@UISpecifyPropertyPages@@$1?_GUID_b196b28b_bab4_101a_b69c_00aa00341d07@@3U__s_GUID@@B@ATL@@QEAAPEAUISpecifyPropertyPages@@PEAUIUnknown@@@Z 000000018000a280 f i SmartCardRW.obj
 0001:000092e0       ??7?$CComPtrBase@UIOleClientSite@@@ATL@@QEBA_NXZ 000000018000a2e0 f i SmartCardRW.obj
 0001:00009330       ??7?$CComPtrBase@UIOleInPlaceSiteWindowless@@@ATL@@QEBA_NXZ 000000018000a330 f i SmartCardRW.obj
 0001:00009380       ??7CComBSTR@ATL@@QEBA_NXZ  000000018000a380 f i SmartCardRW.obj
 0001:000093d0       ??8?$CComPtrBase@UIAdviseSink@@@ATL@@QEBA_NPEAUIAdviseSink@@@Z 000000018000a3d0 f i SmartCardRW.obj
 0001:00009420       ??8?$CComPtrBase@UIConnectionPointContainer@@@ATL@@QEBA_NPEAUIConnectionPointContainer@@@Z 000000018000a420 f i SmartCardRW.obj
 0001:00009470       ??8?$CComPtrBase@UIDataAdviseHolder@@@ATL@@QEBA_NPEAUIDataAdviseHolder@@@Z 000000018000a470 f i SmartCardRW.obj
 0001:000094c0       ??8?$CComPtrBase@UIOleAdviseHolder@@@ATL@@QEBA_NPEAUIOleAdviseHolder@@@Z 000000018000a4c0 f i SmartCardRW.obj
 0001:00009510       ??8?$CComPtrBase@UIOleClientSite@@@ATL@@QEBA_NPEAUIOleClientSite@@@Z 000000018000a510 f i SmartCardRW.obj
 0001:00009560       ??8?$CComPtrBase@UIOleControlSite@@@ATL@@QEBA_NPEAUIOleControlSite@@@Z 000000018000a560 f i SmartCardRW.obj
 0001:000095b0       ??8?$CComPtrBase@UIOleInPlaceObject@@@ATL@@QEBA_NPEAUIOleInPlaceObject@@@Z 000000018000a5b0 f i SmartCardRW.obj
 0001:00009600       ??8?$CComPtrBase@UIOleInPlaceSiteWindowless@@@ATL@@QEBA_NPEAUIOleInPlaceSiteWindowless@@@Z 000000018000a600 f i SmartCardRW.obj
 0001:00009650       ??8?$CComPtrBase@UIOleObject@@@ATL@@QEBA_NPEAUIOleObject@@@Z 000000018000a650 f i SmartCardRW.obj
 0001:000096a0       ??8?$CComPtrBase@UIPersistStream@@@ATL@@QEBA_NPEAUIPersistStream@@@Z 000000018000a6a0 f i SmartCardRW.obj
 0001:000096f0       ??8?$CComPtrBase@UIPersistStreamInit@@@ATL@@QEBA_NPEAUIPersistStreamInit@@@Z 000000018000a6f0 f i SmartCardRW.obj
 0001:00009740       ??8?$CComPtrBase@UIPointerInactive@@@ATL@@QEBA_NPEAUIPointerInactive@@@Z 000000018000a740 f i SmartCardRW.obj
 0001:00009790       ??8?$CComPtrBase@UIUnknown@@@ATL@@QEBA_NPEAUIUnknown@@@Z 000000018000a790 f i SmartCardRW.obj
 0001:000097e0       ??8?$CComPtrBase@UIViewObjectEx@@@ATL@@QEBA_NPEAUIViewObjectEx@@@Z 000000018000a7e0 f i SmartCardRW.obj
 0001:00009830       ??8CComBSTR@ATL@@QEBA_NH@Z 000000018000a830 f i SmartCardRW.obj
 0001:000098b0       ??9?$CComPtrBase@UIAdviseSink@@@ATL@@QEBA_NPEAUIAdviseSink@@@Z 000000018000a8b0 f i SmartCardRW.obj
 0001:00009910       ??9?$CComPtrBase@UIConnectionPointContainer@@@ATL@@QEBA_NPEAUIConnectionPointContainer@@@Z 000000018000a910 f i SmartCardRW.obj
 0001:00009970       ??9?$CComPtrBase@UIDataAdviseHolder@@@ATL@@QEBA_NPEAUIDataAdviseHolder@@@Z 000000018000a970 f i SmartCardRW.obj
 0001:000099d0       ??9?$CComPtrBase@UIOleAdviseHolder@@@ATL@@QEBA_NPEAUIOleAdviseHolder@@@Z 000000018000a9d0 f i SmartCardRW.obj
 0001:00009a30       ??9?$CComPtrBase@UIOleClientSite@@@ATL@@QEBA_NPEAUIOleClientSite@@@Z 000000018000aa30 f i SmartCardRW.obj
 0001:00009a90       ??9?$CComPtrBase@UIOleControlSite@@@ATL@@QEBA_NPEAUIOleControlSite@@@Z 000000018000aa90 f i SmartCardRW.obj
 0001:00009af0       ??9?$CComPtrBase@UIOleInPlaceObject@@@ATL@@QEBA_NPEAUIOleInPlaceObject@@@Z 000000018000aaf0 f i SmartCardRW.obj
 0001:00009b50       ??9?$CComPtrBase@UIOleInPlaceSiteWindowless@@@ATL@@QEBA_NPEAUIOleInPlaceSiteWindowless@@@Z 000000018000ab50 f i SmartCardRW.obj
 0001:00009bb0       ??9?$CComPtrBase@UIOleObject@@@ATL@@QEBA_NPEAUIOleObject@@@Z 000000018000abb0 f i SmartCardRW.obj
 0001:00009c10       ??9?$CComPtrBase@UIPersistStream@@@ATL@@QEBA_NPEAUIPersistStream@@@Z 000000018000ac10 f i SmartCardRW.obj
 0001:00009c70       ??9?$CComPtrBase@UIPersistStreamInit@@@ATL@@QEBA_NPEAUIPersistStreamInit@@@Z 000000018000ac70 f i SmartCardRW.obj
 0001:00009cd0       ??9?$CComPtrBase@UIPointerInactive@@@ATL@@QEBA_NPEAUIPointerInactive@@@Z 000000018000acd0 f i SmartCardRW.obj
 0001:00009d30       ??9?$CComPtrBase@UIUnknown@@@ATL@@QEBA_NPEAUIUnknown@@@Z 000000018000ad30 f i SmartCardRW.obj
 0001:00009d90       ??9?$CComPtrBase@UIViewObjectEx@@@ATL@@QEBA_NPEAUIViewObjectEx@@@Z 000000018000ad90 f i SmartCardRW.obj
 0001:00009df0       ??9CComBSTR@ATL@@QEBA_NH@Z 000000018000adf0 f i SmartCardRW.obj
 0001:00009e50       ??B?$CComPtrBase@UIAdviseSink@@@ATL@@QEBAPEAUIAdviseSink@@XZ 000000018000ae50 f i SmartCardRW.obj
 0001:00009e60       ??B?$CComPtrBase@UIDataAdviseHolder@@@ATL@@QEBAPEAUIDataAdviseHolder@@XZ 000000018000ae60 f i SmartCardRW.obj
 0001:00009e70       ??B?$CComPtrBase@UIDataObject@@@ATL@@QEBAPEAUIDataObject@@XZ 000000018000ae70 f i SmartCardRW.obj
 0001:00009e80       ??B?$CComPtrBase@UIOleAdviseHolder@@@ATL@@QEBAPEAUIOleAdviseHolder@@XZ 000000018000ae80 f i SmartCardRW.obj
 0001:00009e90       ??B?$CComPtrBase@UIOleClientSite@@@ATL@@QEBAPEAUIOleClientSite@@XZ 000000018000ae90 f i SmartCardRW.obj
 0001:00009ea0       ??B?$CComPtrBase@UIOleControlSite@@@ATL@@QEBAPEAUIOleControlSite@@XZ 000000018000aea0 f i SmartCardRW.obj
 0001:00009eb0       ??B?$CComPtrBase@UIOleInPlaceActiveObject@@@ATL@@QEBAPEAUIOleInPlaceActiveObject@@XZ 000000018000aeb0 f i SmartCardRW.obj
 0001:00009ec0       ??B?$CComPtrBase@UIOleInPlaceFrame@@@ATL@@QEBAPEAUIOleInPlaceFrame@@XZ 000000018000aec0 f i SmartCardRW.obj
 0001:00009ed0       ??B?$CComPtrBase@UIOleInPlaceSiteWindowless@@@ATL@@QEBAPEAUIOleInPlaceSiteWindowless@@XZ 000000018000aed0 f i SmartCardRW.obj
 0001:00009ee0       ??B?$CComPtrBase@UIOleInPlaceUIWindow@@@ATL@@QEBAPEAUIOleInPlaceUIWindow@@XZ 000000018000aee0 f i SmartCardRW.obj
 0001:00009ef0       ??B?$CComPtrBase@UIOleObject@@@ATL@@QEBAPEAUIOleObject@@XZ 000000018000aef0 f i SmartCardRW.obj
 0001:00009f00       ??B?$CComPtrBase@UIPersistStream@@@ATL@@QEBAPEAUIPersistStream@@XZ 000000018000af00 f i SmartCardRW.obj
 0001:00009f10       ??B?$CComPtrBase@UIProvideClassInfo2@@@ATL@@QEBAPEAUIProvideClassInfo2@@XZ 000000018000af10 f i SmartCardRW.obj
 0001:00009f20       ??B?$CComPtrBase@UISpecifyPropertyPages@@@ATL@@QEBAPEAUISpecifyPropertyPages@@XZ 000000018000af20 f i SmartCardRW.obj
 0001:00009f30       ??B?$CComPtrBase@UIStream@@@ATL@@QEBAPEAUIStream@@XZ 000000018000af30 f i SmartCardRW.obj
 0001:00009f40       ??B?$CComPtrBase@UITypeInfo2@@@ATL@@QEBAPEAUITypeInfo2@@XZ 000000018000af40 f i SmartCardRW.obj
 0001:00009f50       ??B?$CComPtrBase@UITypeInfo@@@ATL@@QEBAPEAUITypeInfo@@XZ 000000018000af50 f i SmartCardRW.obj
 0001:00009f60       ??B?$CComPtrBase@UITypeLib@@@ATL@@QEBAPEAUITypeLib@@XZ 000000018000af60 f i SmartCardRW.obj
 0001:00009f70       ??B?$CComPtrBase@UIUnknown@@@ATL@@QEBAPEAUIUnknown@@XZ 000000018000af70 f i SmartCardRW.obj
 0001:00009f80       ??B?$CTempBuffer@E$0BAA@VCCRTAllocator@ATL@@@ATL@@QEBAPEAEXZ 000000018000af80 f i SmartCardRW.obj
 0001:00009f90       ??B?$CTempBuffer@_W$0BAA@VCCRTAllocator@ATL@@@ATL@@QEBAPEA_WXZ 000000018000af90 f i SmartCardRW.obj
 0001:00009fa0       ??B?$CTempBuffer@_W$0EAA@VCCRTAllocator@ATL@@@ATL@@QEBAPEA_WXZ 000000018000afa0 f i SmartCardRW.obj
 0001:00009fb0       ??B?$CTraceCategoryEx@$00$0A@@ATL@@QEAAIXZ 000000018000afb0 f i SmartCardRW.obj
 0001:00009fc0       ??B?$CTraceCategoryEx@$07$0A@@ATL@@QEAAIXZ 000000018000afc0 f i SmartCardRW.obj
 0001:00009fd0       ??B?$CTraceCategoryEx@$0CAAA@$0A@@ATL@@QEAAIXZ 000000018000afd0 f i SmartCardRW.obj
 0001:00009fe0       ??B?$CTraceCategoryEx@$0EA@$0A@@ATL@@QEAAIXZ 000000018000afe0 f i SmartCardRW.obj
 0001:00009ff0       ??B?$CTraceCategoryEx@$0IAA@$0A@@ATL@@QEAAIXZ 000000018000aff0 f i SmartCardRW.obj
 0001:0000a000       ??BCComBSTR@ATL@@QEBAPEA_WXZ 000000018000b000 f i SmartCardRW.obj
 0001:0000a010       ??BCRegKey@ATL@@QEBAPEAUHKEY__@@XZ 000000018000b010 f i SmartCardRW.obj
 0001:0000a020       ??C?$CComPtrBase@UIAdviseSink@@@ATL@@QEBAPEAV?$_NoAddRefReleaseOnCComPtr@UIAdviseSink@@@1@XZ 000000018000b020 f i SmartCardRW.obj
 0001:0000a0a0       ??C?$CComPtrBase@UICatRegister@@@ATL@@QEBAPEAV?$_NoAddRefReleaseOnCComPtr@UICatRegister@@@1@XZ 000000018000b0a0 f i SmartCardRW.obj
 0001:0000a120       ??C?$CComPtrBase@UIConnectionPoint@@@ATL@@QEBAPEAV?$_NoAddRefReleaseOnCComPtr@UIConnectionPoint@@@1@XZ 000000018000b120 f i SmartCardRW.obj
 0001:0000a1a0       ??C?$CComPtrBase@UIConnectionPointContainer@@@ATL@@QEBAPEAV?$_NoAddRefReleaseOnCComPtr@UIConnectionPointContainer@@@1@XZ 000000018000b1a0 f i SmartCardRW.obj
 0001:0000a220       ??C?$CComPtrBase@UIDataAdviseHolder@@@ATL@@QEBAPEAV?$_NoAddRefReleaseOnCComPtr@UIDataAdviseHolder@@@1@XZ 000000018000b220 f i SmartCardRW.obj
 0001:0000a2a0       ??C?$CComPtrBase@UIOleAdviseHolder@@@ATL@@QEBAPEAV?$_NoAddRefReleaseOnCComPtr@UIOleAdviseHolder@@@1@XZ 000000018000b2a0 f i SmartCardRW.obj
 0001:0000a320       ??C?$CComPtrBase@UIOleClientSite@@@ATL@@QEBAPEAV?$_NoAddRefReleaseOnCComPtr@UIOleClientSite@@@1@XZ 000000018000b320 f i SmartCardRW.obj
 0001:0000a3a0       ??C?$CComPtrBase@UIOleControlSite@@@ATL@@QEBAPEAV?$_NoAddRefReleaseOnCComPtr@UIOleControlSite@@@1@XZ 000000018000b3a0 f i SmartCardRW.obj
 0001:0000a420       ??C?$CComPtrBase@UIOleInPlaceFrame@@@ATL@@QEBAPEAV?$_NoAddRefReleaseOnCComPtr@UIOleInPlaceFrame@@@1@XZ 000000018000b420 f i SmartCardRW.obj
 0001:0000a4a0       ??C?$CComPtrBase@UIOleInPlaceObject@@@ATL@@QEBAPEAV?$_NoAddRefReleaseOnCComPtr@UIOleInPlaceObject@@@1@XZ 000000018000b4a0 f i SmartCardRW.obj
 0001:0000a520       ??C?$CComPtrBase@UIOleInPlaceSiteWindowless@@@ATL@@QEBAPEAV?$_NoAddRefReleaseOnCComPtr@UIOleInPlaceSiteWindowless@@@1@XZ 000000018000b520 f i SmartCardRW.obj
 0001:0000a5a0       ??C?$CComPtrBase@UIOleInPlaceUIWindow@@@ATL@@QEBAPEAV?$_NoAddRefReleaseOnCComPtr@UIOleInPlaceUIWindow@@@1@XZ 000000018000b5a0 f i SmartCardRW.obj
 0001:0000a620       ??C?$CComPtrBase@UIOleObject@@@ATL@@QEBAPEAV?$_NoAddRefReleaseOnCComPtr@UIOleObject@@@1@XZ 000000018000b620 f i SmartCardRW.obj
 0001:0000a6a0       ??C?$CComPtrBase@UIPersistStream@@@ATL@@QEBAPEAV?$_NoAddRefReleaseOnCComPtr@UIPersistStream@@@1@XZ 000000018000b6a0 f i SmartCardRW.obj
 0001:0000a720       ??C?$CComPtrBase@UIPersistStreamInit@@@ATL@@QEBAPEAV?$_NoAddRefReleaseOnCComPtr@UIPersistStreamInit@@@1@XZ 000000018000b720 f i SmartCardRW.obj
 0001:0000a7a0       ??C?$CComPtrBase@UIPointerInactive@@@ATL@@QEBAPEAV?$_NoAddRefReleaseOnCComPtr@UIPointerInactive@@@1@XZ 000000018000b7a0 f i SmartCardRW.obj
 0001:0000a820       ??C?$CComPtrBase@UIProvideClassInfo2@@@ATL@@QEBAPEAV?$_NoAddRefReleaseOnCComPtr@UIProvideClassInfo2@@@1@XZ 000000018000b820 f i SmartCardRW.obj
 0001:0000a8a0       ??C?$CComPtrBase@UISpecifyPropertyPages@@@ATL@@QEBAPEAV?$_NoAddRefReleaseOnCComPtr@UISpecifyPropertyPages@@@1@XZ 000000018000b8a0 f i SmartCardRW.obj
 0001:0000a920       ??C?$CComPtrBase@UITypeInfo@@@ATL@@QEBAPEAV?$_NoAddRefReleaseOnCComPtr@UITypeInfo@@@1@XZ 000000018000b920 f i SmartCardRW.obj
 0001:0000a9a0       ??C?$CComPtrBase@UITypeLib@@@ATL@@QEBAPEAV?$_NoAddRefReleaseOnCComPtr@UITypeLib@@@1@XZ 000000018000b9a0 f i SmartCardRW.obj
 0001:0000aa20       ??C?$CComPtrBase@UIUnknown@@@ATL@@QEBAPEAV?$_NoAddRefReleaseOnCComPtr@UIUnknown@@@1@XZ 000000018000ba20 f i SmartCardRW.obj
 0001:0000aaa0       ??C?$CComPtrBase@UIViewObjectEx@@@ATL@@QEBAPEAV?$_NoAddRefReleaseOnCComPtr@UIViewObjectEx@@@1@XZ 000000018000baa0 f i SmartCardRW.obj
 0001:0000ab20       ??I?$CComPtrBase@UICatRegister@@@ATL@@QEAAPEAPEAUICatRegister@@XZ 000000018000bb20 f i SmartCardRW.obj
 0001:0000ab90       ??I?$CComPtrBase@UIConnectionPoint@@@ATL@@QEAAPEAPEAUIConnectionPoint@@XZ 000000018000bb90 f i SmartCardRW.obj
 0001:0000ac00       ??I?$CComPtrBase@UIConnectionPointContainer@@@ATL@@QEAAPEAPEAUIConnectionPointContainer@@XZ 000000018000bc00 f i SmartCardRW.obj
 0001:0000ac70       ??I?$CComPtrBase@UIDataAdviseHolder@@@ATL@@QEAAPEAPEAUIDataAdviseHolder@@XZ 000000018000bc70 f i SmartCardRW.obj
 0001:0000ace0       ??I?$CComPtrBase@UIDataObject@@@ATL@@QEAAPEAPEAUIDataObject@@XZ 000000018000bce0 f i SmartCardRW.obj
 0001:0000ad50       ??I?$CComPtrBase@UIDispatch@@@ATL@@QEAAPEAPEAUIDispatch@@XZ 000000018000bd50 f i SmartCardRW.obj
 0001:0000adc0       ??I?$CComPtrBase@UIOleAdviseHolder@@@ATL@@QEAAPEAPEAUIOleAdviseHolder@@XZ 000000018000bdc0 f i SmartCardRW.obj
 0001:0000ae30       ??I?$CComPtrBase@UIOleControlSite@@@ATL@@QEAAPEAPEAUIOleControlSite@@XZ 000000018000be30 f i SmartCardRW.obj
 0001:0000aea0       ??I?$CComPtrBase@UIOleInPlaceActiveObject@@@ATL@@QEAAPEAPEAUIOleInPlaceActiveObject@@XZ 000000018000bea0 f i SmartCardRW.obj
 0001:0000af10       ??I?$CComPtrBase@UIOleInPlaceFrame@@@ATL@@QEAAPEAPEAUIOleInPlaceFrame@@XZ 000000018000bf10 f i SmartCardRW.obj
 0001:0000af80       ??I?$CComPtrBase@UIOleInPlaceObject@@@ATL@@QEAAPEAPEAUIOleInPlaceObject@@XZ 000000018000bf80 f i SmartCardRW.obj
 0001:0000aff0       ??I?$CComPtrBase@UIOleInPlaceSiteWindowless@@@ATL@@QEAAPEAPEAUIOleInPlaceSiteWindowless@@XZ 000000018000bff0 f i SmartCardRW.obj
 0001:0000b060       ??I?$CComPtrBase@UIOleInPlaceUIWindow@@@ATL@@QEAAPEAPEAUIOleInPlaceUIWindow@@XZ 000000018000c060 f i SmartCardRW.obj
 0001:0000b0d0       ??I?$CComPtrBase@UIOleObject@@@ATL@@QEAAPEAPEAUIOleObject@@XZ 000000018000c0d0 f i SmartCardRW.obj
 0001:0000b140       ??I?$CComPtrBase@UIPersistStream@@@ATL@@QEAAPEAPEAUIPersistStream@@XZ 000000018000c140 f i SmartCardRW.obj
 0001:0000b1b0       ??I?$CComPtrBase@UIPointerInactive@@@ATL@@QEAAPEAPEAUIPointerInactive@@XZ 000000018000c1b0 f i SmartCardRW.obj
 0001:0000b220       ??I?$CComPtrBase@UIProvideClassInfo2@@@ATL@@QEAAPEAPEAUIProvideClassInfo2@@XZ 000000018000c220 f i SmartCardRW.obj
 0001:0000b290       ??I?$CComPtrBase@UIStream@@@ATL@@QEAAPEAPEAUIStream@@XZ 000000018000c290 f i SmartCardRW.obj
 0001:0000b300       ??I?$CComPtrBase@UITypeInfo2@@@ATL@@QEAAPEAPEAUITypeInfo2@@XZ 000000018000c300 f i SmartCardRW.obj
 0001:0000b370       ??I?$CComPtrBase@UITypeInfo@@@ATL@@QEAAPEAPEAUITypeInfo@@XZ 000000018000c370 f i SmartCardRW.obj
 0001:0000b3e0       ??I?$CComPtrBase@UITypeLib@@@ATL@@QEAAPEAPEAUITypeLib@@XZ 000000018000c3e0 f i SmartCardRW.obj
 0001:0000b450       ??I?$CComPtrBase@UIUnknown@@@ATL@@QEAAPEAPEAUIUnknown@@XZ 000000018000c450 f i SmartCardRW.obj
 0001:0000b4c0       ??I?$CComPtrBase@UIViewObjectEx@@@ATL@@QEAAPEAPEAUIViewObjectEx@@XZ 000000018000c4c0 f i SmartCardRW.obj
 0001:0000b530       ??ICComBSTR@ATL@@QEAAPEAPEA_WXZ 000000018000c530 f i SmartCardRW.obj
 0001:0000b540       ??_E?$CComContainedObject@VCOPOSSmartCardRW@@@ATL@@W7EAAPEAXI@Z 000000018000c540 f i SmartCardRW.obj
 0001:0000b54c       ??_E?$CComContainedObject@VCOPOSSmartCardRW@@@ATL@@WHA@EAAPEAXI@Z 000000018000c54c f i SmartCardRW.obj
 0001:0000b558       ??_E?$CComObject@VCOPOSSmartCardRW@@@ATL@@W7EAAPEAXI@Z 000000018000c558 f i SmartCardRW.obj
 0001:0000b564       ??_E?$CComObject@VCOPOSSmartCardRW@@@ATL@@WHA@EAAPEAXI@Z 000000018000c564 f i SmartCardRW.obj
 0001:0000b570       ??_G?$CComAggObject@VCOPOSSmartCardRW@@@ATL@@UEAAPEAXI@Z 000000018000c570 f i SmartCardRW.obj
 0001:0000b570       ??_E?$CComAggObject@VCOPOSSmartCardRW@@@ATL@@UEAAPEAXI@Z 000000018000c570 f i SmartCardRW.obj
 0001:0000b5d0       ??_G?$CComContainedObject@VCOPOSSmartCardRW@@@ATL@@UEAAPEAXI@Z 000000018000c5d0 f i SmartCardRW.obj
 0001:0000b5d0       ??_E?$CComContainedObject@VCOPOSSmartCardRW@@@ATL@@UEAAPEAXI@Z 000000018000c5d0 f i SmartCardRW.obj
 0001:0000b630       ??_G?$CComObject@V?$CComEnum@UIEnumConnectionPoints@@$1?_GUID_b196b285_bab4_101a_b69c_00aa00341d07@@3U__s_GUID@@BPEAUIConnectionPoint@@V?$_CopyInterface@UIConnectionPoint@@@ATL@@VCComSingleThreadModel@6@@ATL@@@ATL@@UEAAPEAXI@Z 000000018000c630 f i SmartCardRW.obj
 0001:0000b630       ??_E?$CComObject@V?$CComEnum@UIEnumConnectionPoints@@$1?_GUID_b196b285_bab4_101a_b69c_00aa00341d07@@3U__s_GUID@@BPEAUIConnectionPoint@@V?$_CopyInterface@UIConnectionPoint@@@ATL@@VCComSingleThreadModel@6@@ATL@@@ATL@@UEAAPEAXI@Z 000000018000c630 f i SmartCardRW.obj
 0001:0000b690       ??_E?$CComObject@V?$CComEnum@UIEnumConnections@@$1?_GUID_b196b287_bab4_101a_b69c_00aa00341d07@@3U__s_GUID@@BUtagCONNECTDATA@@V?$_Copy@UtagCONNECTDATA@@@ATL@@VCComSingleThreadModel@6@@ATL@@@ATL@@UEAAPEAXI@Z 000000018000c690 f i SmartCardRW.obj
 0001:0000b690       ??_G?$CComObject@V?$CComEnum@UIEnumConnections@@$1?_GUID_b196b287_bab4_101a_b69c_00aa00341d07@@3U__s_GUID@@BUtagCONNECTDATA@@V?$_Copy@UtagCONNECTDATA@@@ATL@@VCComSingleThreadModel@6@@ATL@@@ATL@@UEAAPEAXI@Z 000000018000c690 f i SmartCardRW.obj
 0001:0000b6f0       ??_E?$CComObject@VCOPOSSmartCardRW@@@ATL@@UEAAPEAXI@Z 000000018000c6f0 f i SmartCardRW.obj
 0001:0000b6f0       ??_G?$CComObject@VCOPOSSmartCardRW@@@ATL@@UEAAPEAXI@Z 000000018000c6f0 f i SmartCardRW.obj
 0001:0000b750       ??_G?$CComObjectCached@VCComClassFactory@ATL@@@ATL@@UEAAPEAXI@Z 000000018000c750 f i SmartCardRW.obj
 0001:0000b750       ??_E?$CComObjectCached@VCComClassFactory@ATL@@@ATL@@UEAAPEAXI@Z 000000018000c750 f i SmartCardRW.obj
 0001:0000b7b0       ??_ECComClassFactory@ATL@@UEAAPEAXI@Z 000000018000c7b0 f i SmartCardRW.obj
 0001:0000b7b0       ??_GCComClassFactory@ATL@@UEAAPEAXI@Z 000000018000c7b0 f i SmartCardRW.obj
 0001:0000b810       ??_ECComModule@ATL@@UEAAPEAXI@Z 000000018000c810 f i SmartCardRW.obj
 0001:0000b810       ??_GCComModule@ATL@@UEAAPEAXI@Z 000000018000c810 f i SmartCardRW.obj
 0001:0000b870       ??_GCRegObject@ATL@@UEAAPEAXI@Z 000000018000c870 f i SmartCardRW.obj
 0001:0000b870       ??_ECRegObject@ATL@@UEAAPEAXI@Z 000000018000c870 f i SmartCardRW.obj
 0001:0000b8d0       ?Add@?$CSimpleArray@GV?$CSimpleArrayEqualHelper@G@ATL@@@ATL@@QEAAHAEBG@Z 000000018000c8d0 f i SmartCardRW.obj
 0001:0000ba70       ?Add@?$CSimpleMap@PEA_WPEA_WVCExpansionVectorEqualHelper@ATL@@@ATL@@QEAAHAEBQEA_W0@Z 000000018000ca70 f i SmartCardRW.obj
 0001:0000bb60       ?Add@CComDynamicUnkArray@ATL@@QEAAKPEAUIUnknown@@@Z 000000018000cb60 f i SmartCardRW.obj
 0001:0000bd40       ?Add@CExpansionVector@ATL@@QEAAHPEB_W0@Z 000000018000cd40 f i SmartCardRW.obj
 0001:0000c070       ?AddChar@CParseBuffer@CRegParser@ATL@@QEAAHPEB_W@Z 000000018000d070 f i SmartCardRW.obj
 0001:0000c0c0       ?AddCommonRGSReplacements@?$CAtlModuleT@VCComModule@ATL@@@ATL@@UEAAJPEAUIRegistrarBase@@@Z 000000018000d0c0 f i SmartCardRW.obj
 0001:0000c120       ?AddCreateWndData@CAtlWinModule@ATL@@QEAAXPEAU_AtlCreateWndData@2@PEAX@Z 000000018000d120 f i SmartCardRW.obj
 0001:0000c170       ?AddRef@?$CComAggObject@VCOPOSSmartCardRW@@@ATL@@UEAAKXZ 000000018000d170 f i SmartCardRW.obj
 0001:0000c1b0       ?AddRef@?$CComContainedObject@VCOPOSSmartCardRW@@@ATL@@UEAAKXZ 000000018000d1b0 f i SmartCardRW.obj
 0001:0000c1e8       ?AddRef@?$CComContainedObject@VCOPOSSmartCardRW@@@ATL@@WBAA@EAAKXZ 000000018000d1e8 f i SmartCardRW.obj
 0001:0000c1f4       ?AddRef@?$CComContainedObject@VCOPOSSmartCardRW@@@ATL@@WBAI@EAAKXZ 000000018000d1f4 f i SmartCardRW.obj
 0001:0000c200       ?AddRef@?$CComContainedObject@VCOPOSSmartCardRW@@@ATL@@WBBA@EAAKXZ 000000018000d200 f i SmartCardRW.obj
 0001:0000c20c       ?AddRef@?$CComContainedObject@VCOPOSSmartCardRW@@@ATL@@WBBI@EAAKXZ 000000018000d20c f i SmartCardRW.obj
 0001:0000c218       ?AddRef@?$CComContainedObject@VCOPOSSmartCardRW@@@ATL@@WBCI@EAAKXZ 000000018000d218 f i SmartCardRW.obj
 0001:0000c224       ?AddRef@?$CComContainedObject@VCOPOSSmartCardRW@@@ATL@@WBEA@EAAKXZ 000000018000d224 f i SmartCardRW.obj
 0001:0000c230       ?AddRef@?$CComContainedObject@VCOPOSSmartCardRW@@@ATL@@WLI@EAAKXZ 000000018000d230 f i SmartCardRW.obj
 0001:0000c23c       ?AddRef@?$CComContainedObject@VCOPOSSmartCardRW@@@ATL@@WMA@EAAKXZ 000000018000d23c f i SmartCardRW.obj
 0001:0000c248       ?AddRef@?$CComContainedObject@VCOPOSSmartCardRW@@@ATL@@WMI@EAAKXZ 000000018000d248 f i SmartCardRW.obj
 0001:0000c254       ?AddRef@?$CComContainedObject@VCOPOSSmartCardRW@@@ATL@@WNA@EAAKXZ 000000018000d254 f i SmartCardRW.obj
 0001:0000c260       ?AddRef@?$CComContainedObject@VCOPOSSmartCardRW@@@ATL@@WNI@EAAKXZ 000000018000d260 f i SmartCardRW.obj
 0001:0000c26c       ?AddRef@?$CComContainedObject@VCOPOSSmartCardRW@@@ATL@@WOA@EAAKXZ 000000018000d26c f i SmartCardRW.obj
 0001:0000c278       ?AddRef@?$CComContainedObject@VCOPOSSmartCardRW@@@ATL@@WOI@EAAKXZ 000000018000d278 f i SmartCardRW.obj
 0001:0000c284       ?AddRef@?$CComContainedObject@VCOPOSSmartCardRW@@@ATL@@WPA@EAAKXZ 000000018000d284 f i SmartCardRW.obj
 0001:0000c290       ?AddRef@?$CComContainedObject@VCOPOSSmartCardRW@@@ATL@@WPI@EAAKXZ 000000018000d290 f i SmartCardRW.obj
 0001:0000c2a0       ?AddRef@?$CComObject@V?$CComEnum@UIEnumConnectionPoints@@$1?_GUID_b196b285_bab4_101a_b69c_00aa00341d07@@3U__s_GUID@@BPEAUIConnectionPoint@@V?$_CopyInterface@UIConnectionPoint@@@ATL@@VCComSingleThreadModel@6@@ATL@@@ATL@@UEAAKXZ 000000018000d2a0 f i SmartCardRW.obj
 0001:0000c2e0       ?AddRef@?$CComObject@V?$CComEnum@UIEnumConnections@@$1?_GUID_b196b287_bab4_101a_b69c_00aa00341d07@@3U__s_GUID@@BUtagCONNECTDATA@@V?$_Copy@UtagCONNECTDATA@@@ATL@@VCComSingleThreadModel@6@@ATL@@@ATL@@UEAAKXZ 000000018000d2e0 f i SmartCardRW.obj
 0001:0000c320       ?AddRef@?$CComObject@VCOPOSSmartCardRW@@@ATL@@UEAAKXZ 000000018000d320 f i SmartCardRW.obj
 0001:0000c358       ?AddRef@?$CComObject@VCOPOSSmartCardRW@@@ATL@@WBAA@EAAKXZ 000000018000d358 f i SmartCardRW.obj
 0001:0000c364       ?AddRef@?$CComObject@VCOPOSSmartCardRW@@@ATL@@WBAI@EAAKXZ 000000018000d364 f i SmartCardRW.obj
 0001:0000c370       ?AddRef@?$CComObject@VCOPOSSmartCardRW@@@ATL@@WBBA@EAAKXZ 000000018000d370 f i SmartCardRW.obj
 0001:0000c37c       ?AddRef@?$CComObject@VCOPOSSmartCardRW@@@ATL@@WBBI@EAAKXZ 000000018000d37c f i SmartCardRW.obj
 0001:0000c388       ?AddRef@?$CComObject@VCOPOSSmartCardRW@@@ATL@@WBCI@EAAKXZ 000000018000d388 f i SmartCardRW.obj
 0001:0000c394       ?AddRef@?$CComObject@VCOPOSSmartCardRW@@@ATL@@WBEA@EAAKXZ 000000018000d394 f i SmartCardRW.obj
 0001:0000c3a0       ?AddRef@?$CComObject@VCOPOSSmartCardRW@@@ATL@@WLI@EAAKXZ 000000018000d3a0 f i SmartCardRW.obj
 0001:0000c3ac       ?AddRef@?$CComObject@VCOPOSSmartCardRW@@@ATL@@WMA@EAAKXZ 000000018000d3ac f i SmartCardRW.obj
 0001:0000c3b8       ?AddRef@?$CComObject@VCOPOSSmartCardRW@@@ATL@@WMI@EAAKXZ 000000018000d3b8 f i SmartCardRW.obj
 0001:0000c3c4       ?AddRef@?$CComObject@VCOPOSSmartCardRW@@@ATL@@WNA@EAAKXZ 000000018000d3c4 f i SmartCardRW.obj
 0001:0000c3d0       ?AddRef@?$CComObject@VCOPOSSmartCardRW@@@ATL@@WNI@EAAKXZ 000000018000d3d0 f i SmartCardRW.obj
 0001:0000c3dc       ?AddRef@?$CComObject@VCOPOSSmartCardRW@@@ATL@@WOA@EAAKXZ 000000018000d3dc f i SmartCardRW.obj
 0001:0000c3e8       ?AddRef@?$CComObject@VCOPOSSmartCardRW@@@ATL@@WOI@EAAKXZ 000000018000d3e8 f i SmartCardRW.obj
 0001:0000c3f4       ?AddRef@?$CComObject@VCOPOSSmartCardRW@@@ATL@@WPA@EAAKXZ 000000018000d3f4 f i SmartCardRW.obj
 0001:0000c400       ?AddRef@?$CComObject@VCOPOSSmartCardRW@@@ATL@@WPI@EAAKXZ 000000018000d400 f i SmartCardRW.obj
 0001:0000c410       ?AddRef@?$CComObjectCached@VCComClassFactory@ATL@@@ATL@@UEAAKXZ 000000018000d410 f i SmartCardRW.obj
 0001:0000c470       ?AddRef@CRegObject@ATL@@UEAAKXZ 000000018000d470 f i SmartCardRW.obj
 0001:0000c4e0       ?AddReplacement@CRegObject@ATL@@UEAAJPEB_W0@Z 000000018000d4e0 f i SmartCardRW.obj
 0001:0000c610       ?AddString@CParseBuffer@CRegParser@ATL@@QEAAHPEB_W@Z 000000018000d610 f i SmartCardRW.obj
 0001:0000c700       ?AddTermFunc@CAtlModule@ATL@@QEAAJP6AX_K@Z0@Z 000000018000d700 f i SmartCardRW.obj
 0001:0000c770       ?AddValue@CRegParser@ATL@@IEAAJAEAVCRegKey@2@PEB_WPEA_W@Z 000000018000d770 f i SmartCardRW.obj
 0001:0000d040       ?Advise@?$CProxy_IOPOSEvents@VCOPOSSmartCardRW@@@@UEAAJPEAUIUnknown@@PEAK@Z 000000018000e040 f i SmartCardRW.obj
 0001:0000d0b0       ?Advise@?$IConnectionPointImpl@VCOPOSSmartCardRW@@$1?DIID__IOPOSSmartCardRWEvents@@3U_GUID@@BVCComDynamicUnkArray@ATL@@@ATL@@UEAAJPEAUIUnknown@@PEAK@Z 000000018000e0b0 f i SmartCardRW.obj
 0001:0000d2b0       ?Advise@?$IConnectionPointImpl@VCOPOSSmartCardRW@@$1?IID_IPropertyNotifySink@@3U_GUID@@BVCComDynamicUnkArray@ATL@@@ATL@@UEAAJPEAUIUnknown@@PEAK@Z 000000018000e2b0 f i SmartCardRW.obj
 0001:0000d4b0       ?Advise@?$IOleObjectImpl@VCOPOSSmartCardRW@@@ATL@@UEAAJPEAUIAdviseSink@@PEAK@Z 000000018000e4b0 f i SmartCardRW.obj
 0001:0000d570       ?Allocate@?$CAtlSafeAllocBufferManager@VCCRTAllocator@ATL@@@_ATL_SAFE_ALLOCA_IMPL@ATL@@QEAAPEAX_K@Z 000000018000e570 f i SmartCardRW.obj
 0001:0000d5f0       ?Allocate@?$CTempBuffer@E$0BAA@VCCRTAllocator@ATL@@@ATL@@QEAAPEAE_K@Z 000000018000e5f0 f i SmartCardRW.obj
 0001:0000d640       ?Allocate@?$CTempBuffer@_W$0BAA@VCCRTAllocator@ATL@@@ATL@@QEAAPEA_W_K@Z 000000018000e640 f i SmartCardRW.obj
 0001:0000d690       ?Allocate@?$CTempBuffer@_W$0EAA@VCCRTAllocator@ATL@@@ATL@@QEAAPEA_W_K@Z 000000018000e690 f i SmartCardRW.obj
 0001:0000d6e0       ?AllocateBytes@?$CTempBuffer@E$0BAA@VCCRTAllocator@ATL@@@ATL@@QEAAPEAE_K@Z 000000018000e6e0 f i SmartCardRW.obj
 0001:0000d790       ?AllocateBytes@?$CTempBuffer@_W$0BAA@VCCRTAllocator@ATL@@@ATL@@QEAAPEA_W_K@Z 000000018000e790 f i SmartCardRW.obj
 0001:0000d840       ?AllocateBytes@?$CTempBuffer@_W$0EAA@VCCRTAllocator@ATL@@@ATL@@QEAAPEA_W_K@Z 000000018000e840 f i SmartCardRW.obj
 0001:0000d8f0       ?AllocateHeap@?$CTempBuffer@E$0BAA@VCCRTAllocator@ATL@@@ATL@@AEAAX_K@Z 000000018000e8f0 f i SmartCardRW.obj
 0001:0000d950       ?AllocateHeap@?$CTempBuffer@_W$0BAA@VCCRTAllocator@ATL@@@ATL@@AEAAX_K@Z 000000018000e950 f i SmartCardRW.obj
 0001:0000d9b0       ?AllocateHeap@?$CTempBuffer@_W$0EAA@VCCRTAllocator@ATL@@@ATL@@AEAAX_K@Z 000000018000e9b0 f i SmartCardRW.obj
 0001:0000da10       ?Append@CParseBuffer@CRegParser@ATL@@QEAAHPEB_WH@Z 000000018000ea10 f i SmartCardRW.obj
 0001:0000dc40       ?AtlCallTermFunc@ATL@@YAXPEAU_ATL_MODULE70@1@@Z 000000018000ec40 f i SmartCardRW.obj
 0001:0000dcf0       ?AtlCoTaskMemCAlloc@ATL@@YAPEAXKK@Z 000000018000ecf0 f i SmartCardRW.obj
 0001:0000dd70       ?AtlCoTaskMemRecalloc@ATL@@YAPEAXPEAXKK@Z 000000018000ed70 f i SmartCardRW.obj
 0001:0000ddf0       ?AtlComModuleGetClassObject@ATL@@YAJPEAU_ATL_COM_MODULE70@1@AEBU_GUID@@1PEAPEAX@Z 000000018000edf0 f i SmartCardRW.obj
 0001:0000e120       ?AtlComModuleRegisterServer@ATL@@YAJPEAU_ATL_COM_MODULE70@1@HPEBU_GUID@@@Z 000000018000f120 f i SmartCardRW.obj
 0001:0000e320       ?AtlComModuleUnregisterServer@ATL@@YAJPEAU_ATL_COM_MODULE70@1@HPEBU_GUID@@@Z 000000018000f320 f i SmartCardRW.obj
 0001:0000e480       ?AtlComQIPtrAssign2@ATL@@YAXPEAPEAUIUnknown@@PEAU2@AEBU_GUID@@@Z 000000018000f480 f i SmartCardRW.obj
 0001:0000e510       ?AtlCreateTargetDC@ATL@@YAPEAUHDC__@@PEAU2@PEAUtagDVTARGETDEVICE@@@Z 000000018000f510 f i SmartCardRW.obj
 0001:0000e740       ?AtlCrtErrorCheck@ATL@@YAHH@Z 000000018000f740 f i SmartCardRW.obj
 0001:0000e7c0       ?AtlGetPerUserRegistration@ATL@@YAJPEA_N@Z 000000018000f7c0 f i SmartCardRW.obj
 0001:0000e7f0       ?AtlHiMetricToPixel@ATL@@YAXPEBUtagSIZE@@PEAU2@@Z 000000018000f7f0 f i SmartCardRW.obj
 0001:0000e9f0       ?AtlHresultFromLastError@ATL@@YAJXZ 000000018000f9f0 f i SmartCardRW.obj
 0001:0000ea20       ?AtlHresultFromWin32@ATL@@YAJK@Z 000000018000fa20 f i SmartCardRW.obj
 0001:0000ea50       ?AtlIPersistStreamInit_Load@ATL@@YAJPEAUIStream@@PEBUATL_PROPMAP_ENTRY@1@PEAXPEAUIUnknown@@@Z 000000018000fa50 f i SmartCardRW.obj
 0001:0000f0c0       ?AtlIPersistStreamInit_Save@ATL@@YAJPEAUIStream@@HPEBUATL_PROPMAP_ENTRY@1@PEAXPEAUIUnknown@@@Z 00000001800100c0 f i SmartCardRW.obj
 0001:0000f650       ?AtlInternalOleLoadFromStream@ATL@@YAJPEAUIStream@@AEBU_GUID@@PEAPEAXTClassesAllowedInStream@1@K@Z 0000000180010650 f i SmartCardRW.obj
 0001:0000f990       ?AtlInternalQueryInterface@ATL@@YAJPEAXPEBU_ATL_INTMAP_ENTRY@1@AEBU_GUID@@PEAPEAX@Z 0000000180010990 f i SmartCardRW.obj
 0001:0000fc50       ?AtlLoadTypeLib@ATL@@YAJPEAUHINSTANCE__@@PEB_WPEAPEA_WPEAPEAUITypeLib@@@Z 0000000180010c50 f i SmartCardRW.obj
 0001:00010120       ?AtlModuleAddTermFunc@ATL@@YAJPEAU_ATL_MODULE70@1@P6AX_K@Z1@Z 0000000180011120 f i SmartCardRW.obj
 0001:000102f0       ?AtlRegisterClassCategoriesHelper@ATL@@YAJAEBU_GUID@@PEBU_ATL_CATMAP_ENTRY@1@H@Z 00000001800112f0 f i SmartCardRW.obj
 0001:00010ac0       ?AtlRegisterTypeLib@ATL@@YAJPEAUHINSTANCE__@@PEB_W@Z 0000000180011ac0 f i SmartCardRW.obj
 0001:00010e20       ?AtlThrowImpl@ATL@@YAXJ@Z  0000000180011e20 f i SmartCardRW.obj
 0001:00010f00       ?AtlUnRegisterTypeLib@ATL@@YAJPEAUHINSTANCE__@@PEB_W@Z 0000000180011f00 f i SmartCardRW.obj
 0001:00011130       ?AtlWinModuleAddCreateWndData@ATL@@YAXPEAU_ATL_WIN_MODULE70@1@PEAU_AtlCreateWndData@1@PEAX@Z 0000000180012130 f i SmartCardRW.obj
 0001:00011320       ?AtlWinModuleExtractCreateWndData@ATL@@YAPEAXPEAU_ATL_WIN_MODULE70@1@@Z 0000000180012320 f i SmartCardRW.obj
 0001:00011520       ?AtlWinModuleRegisterClassExW@ATL@@YAGPEAU_ATL_WIN_MODULE70@1@PEBUtagWNDCLASSEXW@@@Z 0000000180012520 f i SmartCardRW.obj
 0001:000115f0       ?AtlWinModuleRegisterWndClassInfoW@ATL@@YAGPEAU_ATL_WIN_MODULE70@1@PEAU_ATL_BASE_MODULE70@1@PEAU_ATL_WNDCLASSINFOW@1@PEAP6A_JPEAUHWND__@@I_K_J@Z@Z 00000001800125f0 f i SmartCardRW.obj
 0001:00011660       ?Attach@?$CAutoVectorPtr@_W@ATL@@QEAAXPEA_W@Z 0000000180012660 f i SmartCardRW.obj
 0001:000116f0       ?Attach@CComBSTR@ATL@@QEAAXPEA_W@Z 00000001800126f0 f i SmartCardRW.obj
 0001:00011750       ?Attach@CRegKey@ATL@@QEAAXPEAUHKEY__@@@Z 0000000180012750 f i SmartCardRW.obj
 0001:000117f0       ?CanForceRemoveKey@CRegParser@ATL@@IEAAHPEB_W@Z 00000001800127f0 f i SmartCardRW.obj
 0001:00011860       ?ChToByte@CRegParser@ATL@@KAE_W@Z 0000000180012860 f i SmartCardRW.obj
 0001:000119c0       ?ChangeType@CComVariant@ATL@@QEAAJGPEBUtagVARIANT@@@Z 00000001800129c0 f i SmartCardRW.obj
 0001:00011a30       ?Cleanup@CComTypeInfoHolder@ATL@@SAX_K@Z 0000000180012a30 f i SmartCardRW.obj
 0001:00011b20       ?Clear@CComVariant@ATL@@QEAAJXZ 0000000180012b20 f i SmartCardRW.obj
 0001:00011b50       ?ClearReplacements@CExpansionVector@ATL@@QEAAJXZ 0000000180012b50 f i SmartCardRW.obj
 0001:00011bf0       ?ClearReplacements@CRegObject@ATL@@UEAAJXZ 0000000180012bf0 f i SmartCardRW.obj
 0001:00011c50       ?Clone@?$CComEnumImpl@UIEnumConnectionPoints@@$1?_GUID_b196b285_bab4_101a_b69c_00aa00341d07@@3U__s_GUID@@BPEAUIConnectionPoint@@V?$_CopyInterface@UIConnectionPoint@@@ATL@@@ATL@@UEAAJPEAPEAUIEnumConnectionPoints@@@Z 0000000180012c50 f i SmartCardRW.obj
 0001:00011e40       ?Clone@?$CComEnumImpl@UIEnumConnections@@$1?_GUID_b196b287_bab4_101a_b69c_00aa00341d07@@3U__s_GUID@@BUtagCONNECTDATA@@V?$_Copy@UtagCONNECTDATA@@@ATL@@@ATL@@UEAAJPEAPEAUIEnumConnections@@@Z 0000000180012e40 f i SmartCardRW.obj
 0001:00012030       ?Close@?$IOleObjectImpl@VCOPOSSmartCardRW@@@ATL@@UEAAJK@Z 0000000180013030 f i SmartCardRW.obj
 0001:000120e0       ?Close@CRegKey@ATL@@QEAAJXZ 00000001800130e0 f i SmartCardRW.obj
 0001:00012150       ?ContextSensitiveHelp@?$IOleInPlaceActiveObjectImpl@VCOPOSSmartCardRW@@@ATL@@UEAAJH@Z 0000000180013150 f i SmartCardRW.obj
 0001:000121d0       ?ContextSensitiveHelp@?$IOleInPlaceObjectWindowlessImpl@VCOPOSSmartCardRW@@@ATL@@UEAAJH@Z 00000001800131d0 f i SmartCardRW.obj
 0001:00012250       ?ControlQueryInterface@?$CComControl@VCOPOSSmartCardRW@@V?$CWindowImpl@VCOPOSSmartCardRW@@VCWindow@ATL@@V?$CWinTraits@$0FGAAAAAA@$0A@@3@@ATL@@@ATL@@UEAAJAEBU_GUID@@PEAPEAX@Z 0000000180013250 f i SmartCardRW.obj
 0001:000122e0       ?CreateControlWindow@?$CComControl@VCOPOSSmartCardRW@@V?$CWindowImpl@VCOPOSSmartCardRW@@VCWindow@ATL@@V?$CWinTraits@$0FGAAAAAA@$0A@@3@@ATL@@@ATL@@UEAAPEAUHWND__@@PEAU3@AEAUtagRECT@@@Z 00000001800132e0 f i SmartCardRW.obj
 0001:000123d0       ?CreateInstance@?$CComCreator@V?$CComAggObject@VCOPOSSmartCardRW@@@ATL@@@ATL@@SAJPEAXAEBU_GUID@@PEAPEAX@Z 00000001800133d0 f i SmartCardRW.obj
 0001:000125b0       ?CreateInstance@?$CComCreator@V?$CComObject@VCOPOSSmartCardRW@@@ATL@@@ATL@@SAJPEAXAEBU_GUID@@PEAPEAX@Z 00000001800135b0 f i SmartCardRW.obj
 0001:000127b0       ?CreateInstance@?$CComObject@V?$CComEnum@UIEnumConnectionPoints@@$1?_GUID_b196b285_bab4_101a_b69c_00aa00341d07@@3U__s_GUID@@BPEAUIConnectionPoint@@V?$_CopyInterface@UIConnectionPoint@@@ATL@@VCComSingleThreadModel@6@@ATL@@@ATL@@SAJPEAPEAV12@@Z 00000001800137b0 f i SmartCardRW.obj
 0001:00012970       ?CreateInstance@?$CComObject@V?$CComEnum@UIEnumConnections@@$1?_GUID_b196b287_bab4_101a_b69c_00aa00341d07@@3U__s_GUID@@BUtagCONNECTDATA@@V?$_Copy@UtagCONNECTDATA@@@ATL@@VCComSingleThreadModel@6@@ATL@@@ATL@@SAJPEAPEAV12@@Z 0000000180013970 f i SmartCardRW.obj
 0001:00012b30       ?CreateInstance@CComClassFactory@ATL@@UEAAJPEAUIUnknown@@AEBU_GUID@@PEAPEAX@Z 0000000180013b30 f i SmartCardRW.obj
 0001:00012c50       ?DAdvise@?$IDataObjectImpl@VCOPOSSmartCardRW@@@ATL@@UEAAJPEAUtagFORMATETC@@KPEAUIAdviseSink@@PEAK@Z 0000000180013c50 f i SmartCardRW.obj
 0001:00012db0       ?DEVMODEOLE2T_EX@@YAPEAU_devicemodeW@@PEAU1@@Z 0000000180013db0 f i SmartCardRW.obj
 0001:00012dc0       ?DUnadvise@?$IDataObjectImpl@VCOPOSSmartCardRW@@@ATL@@UEAAJK@Z 0000000180013dc0 f i SmartCardRW.obj
 0001:00012ec0       ?Decrement@CComMultiThreadModel@ATL@@SAKPEAJ@Z 0000000180013ec0 f i SmartCardRW.obj
 0001:00012ee0       ?Decrement@CComSingleThreadModel@ATL@@SAKPEAJ@Z 0000000180013ee0 f i SmartCardRW.obj
 0001:00012f00       ?DefWindowProcW@?$CWindowImplBaseT@VCWindow@ATL@@V?$CWinTraits@$0FGAAAAAA@$0A@@2@@ATL@@QEAA_JI_K_J@Z 0000000180013f00 f i SmartCardRW.obj
 0001:00012f60       ?DefaultReflectionHandler@?$CWindowImplRoot@VCWindow@ATL@@@ATL@@SAHPEAUHWND__@@I_K_JAEA_J@Z 0000000180013f60 f i SmartCardRW.obj
 0001:00013050       ?DeleteSubKey@CRegKey@ATL@@QEAAJPEB_W@Z 0000000180014050 f i SmartCardRW.obj
 0001:00013180       ?DeleteValue@CRegKey@ATL@@QEAAJPEB_W@Z 0000000180014180 f i SmartCardRW.obj
 0001:00013210       ?Detach@?$CAutoVectorPtr@_W@ATL@@QEAAPEA_WXZ 0000000180014210 f i SmartCardRW.obj
 0001:00013250       ?Detach@?$CComPtrBase@UIPersistStream@@@ATL@@QEAAPEAUIPersistStream@@XZ 0000000180014250 f i SmartCardRW.obj
 0001:00013290       ?Detach@?$CComPtrBase@UITypeInfo@@@ATL@@QEAAPEAUITypeInfo@@XZ 0000000180014290 f i SmartCardRW.obj
 0001:000132d0       ?Detach@?$CComPtrBase@UIUnknown@@@ATL@@QEAAPEAUIUnknown@@XZ 00000001800142d0 f i SmartCardRW.obj
 0001:00013310       ?Detach@CComBSTR@ATL@@QEAAPEA_WXZ 0000000180014310 f i SmartCardRW.obj
 0001:00013350       ?Detach@CParseBuffer@CRegParser@ATL@@QEAAPEA_WXZ 0000000180014350 f i SmartCardRW.obj
 0001:000133b0       ?Detach@CRegKey@ATL@@QEAAPEAUHKEY__@@XZ 00000001800143b0 f i SmartCardRW.obj
 0001:00013410       ?DoEvent@COPOSSmartCardRW@@IEAAXI_K_J@Z 0000000180014410 f i SmartCardRW.obj
 0001:00013550       ?DoVerb@?$IOleObjectImpl@VCOPOSSmartCardRW@@@ATL@@UEAAJJPEAUtagMSG@@PEAUIOleClientSite@@JPEAUHWND__@@PEBUtagRECT@@@Z 0000000180014550 f i SmartCardRW.obj
 0001:00013860       ?DoVerbDiscardUndo@?$IOleObjectImpl@VCOPOSSmartCardRW@@@ATL@@QEAAJPEBUtagRECT@@PEAUHWND__@@@Z 0000000180014860 f i SmartCardRW.obj
 0001:00013900       ?DoVerbHide@?$IOleObjectImpl@VCOPOSSmartCardRW@@@ATL@@QEAAJPEBUtagRECT@@PEAUHWND__@@@Z 0000000180014900 f i SmartCardRW.obj
 0001:000139e0       ?DoVerbInPlaceActivate@?$IOleObjectImpl@VCOPOSSmartCardRW@@@ATL@@QEAAJPEBUtagRECT@@PEAUHWND__@@@Z 00000001800149e0 f i SmartCardRW.obj
 0001:00013ac0       ?DoVerbOpen@?$IOleObjectImpl@VCOPOSSmartCardRW@@@ATL@@QEAAJPEBUtagRECT@@PEAUHWND__@@@Z 0000000180014ac0 f i SmartCardRW.obj
 0001:00013b60       ?DoVerbPrimary@?$IOleObjectImpl@VCOPOSSmartCardRW@@@ATL@@QEAAJPEBUtagRECT@@PEAUHWND__@@@Z 0000000180014b60 f i SmartCardRW.obj
 0001:00013ca0       ?DoVerbProperties@CComControlBase@ATL@@QEAAJPEBUtagRECT@@PEAUHWND__@@@Z 0000000180014ca0 f i SmartCardRW.obj
 0001:00014050       ?DoVerbShow@?$IOleObjectImpl@VCOPOSSmartCardRW@@@ATL@@QEAAJPEBUtagRECT@@PEAUHWND__@@@Z 0000000180015050 f i SmartCardRW.obj
 0001:00014110       ?DoVerbUIActivate@?$IOleObjectImpl@VCOPOSSmartCardRW@@@ATL@@QEAAJPEBUtagRECT@@PEAUHWND__@@@Z 0000000180015110 f i SmartCardRW.obj
 0001:000141f0       ?DoesVerbActivate@CComControlBase@ATL@@QEAAHJ@Z 00000001800151f0 f i SmartCardRW.obj
 0001:00014250       ?DoesVerbUIActivate@CComControlBase@ATL@@QEAAHJ@Z 0000000180015250 f i SmartCardRW.obj
 0001:000142d0       ?Draw@?$IViewObjectExImpl@VCOPOSSmartCardRW@@@ATL@@UEAAJKJPEAXPEAUtagDVTARGETDEVICE@@PEAUHDC__@@2PEBU_RECTL@@3P6AH_K@Z4@Z 00000001800152d0 f i SmartCardRW.obj
 0001:000143f0       ?Empty@CComBSTR@ATL@@QEAAXXZ 00000001800153f0 f i SmartCardRW.obj
 0001:00014430       ?EnableModeless@?$IOleInPlaceActiveObjectImpl@VCOPOSSmartCardRW@@@ATL@@UEAAJH@Z 0000000180015430 f i SmartCardRW.obj
 0001:000144a0       ?EndOfVar@CRegParser@ATL@@IEAAHXZ 00000001800154a0 f i SmartCardRW.obj
 0001:00014500       ?EnsureTI@CComTypeInfoHolder@ATL@@QEAAJK@Z 0000000180015500 f i SmartCardRW.obj
 0001:00014560       ?EnumAdvise@?$IOleObjectImpl@VCOPOSSmartCardRW@@@ATL@@UEAAJPEAPEAUIEnumSTATDATA@@@Z 0000000180015560 f i SmartCardRW.obj
 0001:000146c0       ?EnumConnectionPoints@?$IConnectionPointContainerImpl@VCOPOSSmartCardRW@@@ATL@@UEAAJPEAPEAUIEnumConnectionPoints@@@Z 00000001800156c0 f i SmartCardRW.obj
 0001:00014bb0       ?EnumConnections@?$IConnectionPointImpl@VCOPOSSmartCardRW@@$1?DIID__IOPOSSmartCardRWEvents@@3U_GUID@@BVCComDynamicUnkArray@ATL@@@ATL@@UEAAJPEAPEAUIEnumConnections@@@Z 0000000180015bb0 f i SmartCardRW.obj
 0001:00014f00       ?EnumConnections@?$IConnectionPointImpl@VCOPOSSmartCardRW@@$1?IID_IPropertyNotifySink@@3U_GUID@@BVCComDynamicUnkArray@ATL@@@ATL@@UEAAJPEAPEAUIEnumConnections@@@Z 0000000180015f00 f i SmartCardRW.obj
 0001:00015250       ?EnumDAdvise@?$IDataObjectImpl@VCOPOSSmartCardRW@@@ATL@@UEAAJPEAPEAUIEnumSTATDATA@@@Z 0000000180016250 f i SmartCardRW.obj
 0001:000153a0       ?EnumFormatEtc@?$IDataObjectImpl@VCOPOSSmartCardRW@@@ATL@@UEAAJKPEAPEAUIEnumFORMATETC@@@Z 00000001800163a0 f i SmartCardRW.obj
 0001:00015430       ?EnumVerbs@?$IOleObjectImpl@VCOPOSSmartCardRW@@@ATL@@UEAAJPEAPEAUIEnumOLEVERB@@@Z 0000000180016430 f i SmartCardRW.obj
 0001:00015500       ?EscapeSingleQuote@CAtlModule@ATL@@SAXPEA_W_KPEB_W@Z 0000000180016500 f i SmartCardRW.obj
 0001:00015600       ?ExtractCreateWndData@CAtlWinModule@ATL@@QEAAPEAXXZ 0000000180016600 f i SmartCardRW.obj
 0001:00015630       ?FAccessAllowed@?$IObjectSafetyImpl@VCOPOSSmartCardRW@@$02@ATL@@MEAAHXZ 0000000180016630 f i SmartCardRW.obj
 0001:00015640       ?FinalConstruct@?$CComAggObject@VCOPOSSmartCardRW@@@ATL@@QEAAJXZ 0000000180016640 f i SmartCardRW.obj
 0001:00015690       ?FinalConstruct@CComObjectRootBase@ATL@@QEAAJXZ 0000000180016690 f i SmartCardRW.obj
 0001:000156a0       ?FinalConstruct@CRegObject@ATL@@QEAAJXZ 00000001800166a0 f i SmartCardRW.obj
 0001:000156e0       ?FinalRelease@?$CComAggObject@VCOPOSSmartCardRW@@@ATL@@QEAAXXZ 00000001800166e0 f i SmartCardRW.obj
 0001:00015730       ?FinalRelease@CComObjectRootBase@ATL@@QEAAXXZ 0000000180016730 f i SmartCardRW.obj
 0001:00015740       ?FindConnectionPoint@?$IConnectionPointContainerImpl@VCOPOSSmartCardRW@@@ATL@@UEAAJAEBU_GUID@@PEAPEAUIConnectionPoint@@@Z 0000000180016740 f i SmartCardRW.obj
 0001:000158b0       ?FindKey@?$CSimpleMap@PEA_WPEA_WVCExpansionVectorEqualHelper@ATL@@@ATL@@QEBAHAEBQEA_W@Z 00000001800168b0 f i SmartCardRW.obj
 0001:00015930       ?FireTheEvent@?$CProxy_IOPOSEvents@VCOPOSSmartCardRW@@@@IEAAXPEAUIUnknown@@PEAVOposVariant@@IAEAJPEB_WJ@Z 0000000180016930 f i SmartCardRW.obj
 0001:00015b10       ?FireViewChange@CComControlBase@ATL@@QEAAJXZ 0000000180016b10 f i SmartCardRW.obj
 0001:00015bf0       ?Fire_DataEvent@?$CProxy_IOPOSEvents@VCOPOSSmartCardRW@@@@QEAAXJ@Z 0000000180016bf0 f i SmartCardRW.obj
 0001:00015de0       ?Fire_DirectIOEvent@?$CProxy_IOPOSEvents@VCOPOSSmartCardRW@@@@QEAAXJPEAJPEAPEA_W@Z 0000000180016de0 f i SmartCardRW.obj
 0001:00016070       ?Fire_ErrorEvent@?$CProxy_IOPOSEvents@VCOPOSSmartCardRW@@@@QEAAXJJJPEAJ@Z 0000000180017070 f i SmartCardRW.obj
 0001:00016320       ?Fire_OutputCompleteEvent@?$CProxy_IOPOSEvents@VCOPOSSmartCardRW@@@@QEAAXJ@Z 0000000180017320 f i SmartCardRW.obj
 0001:00016510       ?Fire_StatusUpdateEvent@?$CProxy_IOPOSEvents@VCOPOSSmartCardRW@@@@QEAAXJ@Z 0000000180017510 f i SmartCardRW.obj
 0001:00016700       ?FormatWindowClassName@AtlModuleRegisterWndClassInfoParamW@ATL@@SAXPEA_WKPEAX@Z 0000000180017700 f i SmartCardRW.obj
 0001:00016750       ?Free@?$CAutoVectorPtr@_W@ATL@@QEAAXXZ 0000000180017750 f i SmartCardRW.obj
 0001:000167a0       ?FreeHeap@?$CTempBuffer@E$0BAA@VCCRTAllocator@ATL@@@ATL@@AEAAXXZ 00000001800177a0 f i SmartCardRW.obj
 0001:000167e0       ?FreeHeap@?$CTempBuffer@_W$0BAA@VCCRTAllocator@ATL@@@ATL@@AEAAXXZ 00000001800177e0 f i SmartCardRW.obj
 0001:00016820       ?FreeHeap@?$CTempBuffer@_W$0EAA@VCCRTAllocator@ATL@@@ATL@@AEAAXXZ 0000000180017820 f i SmartCardRW.obj
 0001:00016860       ?Freeze@?$IViewObjectExImpl@VCOPOSSmartCardRW@@@ATL@@UEAAJKJPEAXPEAK@Z 0000000180017860 f i SmartCardRW.obj
 0001:000168f0       ?GenerateError@CRegParser@ATL@@IEAAJI@Z 00000001800178f0 f i SmartCardRW.obj
 0001:00016910       ?GetAdvise@?$IViewObjectExImpl@VCOPOSSmartCardRW@@@ATL@@UEAAJPEAK0PEAPEAUIAdviseSink@@@Z 0000000180017910 f i SmartCardRW.obj
 0001:00016a60       ?GetAmbientLocaleID@CComControlBase@ATL@@QEAAJAEAK@Z 0000000180017a60 f i SmartCardRW.obj
 0001:00016b40       ?GetAmbientProperty@CComControlBase@ATL@@QEAAJJAEAUtagVARIANT@@@Z 0000000180017b40 f i SmartCardRW.obj
 0001:00016bb0       ?GetAmbientUserMode@CComControlBase@ATL@@QEAAJAEAH@Z 0000000180017bb0 f i SmartCardRW.obj
 0001:00016cd0       ?GetAppId@?$CAtlModuleT@VCComModule@ATL@@@ATL@@SAPEB_WXZ 0000000180017cd0 f i SmartCardRW.obj
 0001:00016ce0       ?GetAt@CComDynamicUnkArray@ATL@@QEAAPEAUIUnknown@@H@Z 0000000180017ce0 f i SmartCardRW.obj
 0001:00016d90       ?GetCanonicalFormatEtc@?$IDataObjectImpl@VCOPOSSmartCardRW@@@ATL@@UEAAJPEAUtagFORMATETC@@0@Z 0000000180017d90 f i SmartCardRW.obj
 0001:00016e20       ?GetClassID@?$IPersistStorageImpl@VCOPOSSmartCardRW@@@ATL@@UEAAJPEAU_GUID@@@Z 0000000180017e20 f i SmartCardRW.obj
 0001:00016ec0       ?GetClassID@?$IPersistStreamInitImpl@VCOPOSSmartCardRW@@@ATL@@UEAAJPEAU_GUID@@@Z 0000000180017ec0 f i SmartCardRW.obj
 0001:00016f60       ?GetClassInfoExW@AtlModuleRegisterWndClassInfoParamW@ATL@@SAHPEAUHINSTANCE__@@PEB_WPEAUtagWNDCLASSEXW@@@Z 0000000180017f60 f i SmartCardRW.obj
 0001:00016fb0       ?GetClassInfoW@?$IProvideClassInfo2Impl@$1?CLSID_OPOSSmartCardRW@@3U_GUID@@B$1?DIID__IOPOSSmartCardRWEvents@@3U2@B$1?LIBID_OposSmartCardRW_CCO@@3U2@B$00$0A@VCComTypeInfoHolder@ATL@@@ATL@@UEAAJPEAPEAUITypeInfo@@@Z 0000000180017fb0 f i SmartCardRW.obj
 0001:00016ff0       ?GetClassObject@CComModule@ATL@@QEAAJAEBU_GUID@@0PEAPEAX@Z 0000000180017ff0 f i SmartCardRW.obj
 0001:00017260       ?GetClientSite@?$IOleObjectImpl@VCOPOSSmartCardRW@@@ATL@@UEAAJPEAPEAUIOleClientSite@@@Z 0000000180018260 f i SmartCardRW.obj
 0001:00017310       ?GetClipboardData@?$IOleObjectImpl@VCOPOSSmartCardRW@@@ATL@@UEAAJKPEAPEAUIDataObject@@@Z 0000000180018310 f i SmartCardRW.obj
 0001:000173a0       ?GetCodeAddress@CDynamicStdCallThunk2@ATL@@QEAAPEAXXZ 00000001800183a0 f i SmartCardRW.obj
 0001:000173e0       ?GetColorSet@?$IViewObjectExImpl@VCOPOSSmartCardRW@@@ATL@@UEAAJKJPEAXPEAUtagDVTARGETDEVICE@@PEAUHDC__@@PEAPEAUtagLOGPALETTE@@@Z 00000001800183e0 f i SmartCardRW.obj
 0001:00017470       ?GetConnMap@COPOSSmartCardRW@@SAPEBU_ATL_CONNMAP_ENTRY@ATL@@PEAH@Z 0000000180018470 f i SmartCardRW.obj
 0001:000175d0       ?GetConnectionInterface@?$IConnectionPointImpl@VCOPOSSmartCardRW@@$1?DIID__IOPOSSmartCardRWEvents@@3U_GUID@@BVCComDynamicUnkArray@ATL@@@ATL@@UEAAJPEAU_GUID@@@Z 00000001800185d0 f i SmartCardRW.obj
 0001:00017610       ?GetConnectionInterface@?$IConnectionPointImpl@VCOPOSSmartCardRW@@$1?IID_IPropertyNotifySink@@3U_GUID@@BVCComDynamicUnkArray@ATL@@@ATL@@UEAAJPEAU_GUID@@@Z 0000000180018610 f i SmartCardRW.obj
 0001:00017650       ?GetConnectionPointContainer@?$IConnectionPointImpl@VCOPOSSmartCardRW@@$1?DIID__IOPOSSmartCardRWEvents@@3U_GUID@@BVCComDynamicUnkArray@ATL@@@ATL@@UEAAJPEAPEAUIConnectionPointContainer@@@Z 0000000180018650 f i SmartCardRW.obj
 0001:000176d0       ?GetConnectionPointContainer@?$IConnectionPointImpl@VCOPOSSmartCardRW@@$1?IID_IPropertyNotifySink@@3U_GUID@@BVCComDynamicUnkArray@ATL@@@ATL@@UEAAJPEAPEAUIConnectionPointContainer@@@Z 00000001800186d0 f i SmartCardRW.obj
 0001:00017750       ?GetContentExtent@?$IQuickActivateImpl@VCOPOSSmartCardRW@@@ATL@@UEAAJPEAUtagSIZE@@@Z 0000000180018750 f i SmartCardRW.obj
 0001:00017810       ?GetControlInfo@?$IOleControlImpl@VCOPOSSmartCardRW@@@ATL@@UEAAJPEAUtagCONTROLINFO@@@Z 0000000180018810 f i SmartCardRW.obj
 0001:000178a0       ?GetCookie@CComDynamicUnkArray@ATL@@QEAAKPEAPEAUIUnknown@@@Z 00000001800188a0 f i SmartCardRW.obj
 0001:00017990       ?GetData@?$IDataObjectImpl@VCOPOSSmartCardRW@@@ATL@@UEAAJPEAUtagFORMATETC@@PEAUtagSTGMEDIUM@@@Z 0000000180018990 f i SmartCardRW.obj
 0001:00017a50       ?GetData@CAtlSafeAllocBufferNode@?$CAtlSafeAllocBufferManager@VCCRTAllocator@ATL@@@_ATL_SAFE_ALLOCA_IMPL@ATL@@QEAAPEAXXZ 0000000180018a50 f i SmartCardRW.obj
 0001:00017a70       ?GetDataHere@?$IDataObjectImpl@VCOPOSSmartCardRW@@@ATL@@UEAAJPEAUtagFORMATETC@@PEAUtagSTGMEDIUM@@@Z 0000000180018a70 f i SmartCardRW.obj
 0001:00017b00       ?GetDropTarget@?$IOleInPlaceObjectWindowlessImpl@VCOPOSSmartCardRW@@@ATL@@UEAAJPEAPEAUIDropTarget@@@Z 0000000180018b00 f i SmartCardRW.obj
 0001:00017b90       ?GetExtent@?$IOleObjectImpl@VCOPOSSmartCardRW@@@ATL@@UEAAJKPEAUtagSIZE@@@Z 0000000180018b90 f i SmartCardRW.obj
 0001:00017c60       ?GetExtent@?$IViewObjectExImpl@VCOPOSSmartCardRW@@@ATL@@UEAAJKJPEAUtagDVTARGETDEVICE@@PEAUtagSIZE@@@Z 0000000180018c60 f i SmartCardRW.obj
 0001:00017d70       ?GetGITPtr@CAtlModule@ATL@@UEAAJPEAPEAUIGlobalInterfaceTable@@@Z 0000000180018d70 f i SmartCardRW.obj
 0001:00017eb0       ?GetGUID@?$IProvideClassInfo2Impl@$1?CLSID_OPOSSmartCardRW@@3U_GUID@@B$1?DIID__IOPOSSmartCardRWEvents@@3U2@B$1?LIBID_OposSmartCardRW_CCO@@3U2@B$00$0A@VCComTypeInfoHolder@ATL@@@ATL@@UEAAJKPEAU_GUID@@@Z 0000000180018eb0 f i SmartCardRW.obj
 0001:00017f30       ?GetIDsOfNames@?$IDispatchImpl@UIOPOSSmartCardRW@@$1?IID_IOPOSSmartCardRW@@3U_GUID@@B$1?LIBID_OposSmartCardRW_CCO@@3U3@B$00$0A@VCComTypeInfoHolder@ATL@@@ATL@@UEAAJAEBU_GUID@@PEAPEA_WIKPEAJ@Z 0000000180018f30 f i SmartCardRW.obj
 0001:00017f90       ?GetIDsOfNames@CComTypeInfoHolder@ATL@@QEAAJAEBU_GUID@@PEAPEA_WIKPEAJ@Z 0000000180018f90 f i SmartCardRW.obj
 0001:000181b0       ?GetInterfaceSafetyOptions@?$IObjectSafetyImpl@VCOPOSSmartCardRW@@$02@ATL@@UEAAJAEBU_GUID@@PEAK1@Z 00000001800191b0 f i SmartCardRW.obj
 0001:00018350       ?GetKeyAt@?$CSimpleMap@PEA_WPEA_WVCExpansionVectorEqualHelper@ATL@@@ATL@@QEBAAEAPEA_WH@Z 0000000180019350 f i SmartCardRW.obj
 0001:00018400       ?GetLockCount@CAtlModule@ATL@@UEAAJXZ 0000000180019400 f i SmartCardRW.obj
 0001:00018410       ?GetMiscStatus@?$IOleObjectImpl@VCOPOSSmartCardRW@@@ATL@@UEAAJKPEAK@Z 0000000180019410 f i SmartCardRW.obj
 0001:000184a0       ?GetMoniker@?$IOleObjectImpl@VCOPOSSmartCardRW@@@ATL@@UEAAJKKPEAPEAUIMoniker@@@Z 00000001800194a0 f i SmartCardRW.obj
 0001:00018530       ?GetNaturalExtent@?$IViewObjectExImpl@VCOPOSSmartCardRW@@@ATL@@UEAAJKJPEAUtagDVTARGETDEVICE@@PEAUHDC__@@PEAUtagExtentInfo@@PEAUtagSIZE@@@Z 0000000180019530 f i SmartCardRW.obj
 0001:000186c0       ?GetObjectCLSID@?$CComCoClass@VCOPOSSmartCardRW@@$1?CLSID_OPOSSmartCardRW@@3U_GUID@@B@ATL@@SAAEBU_GUID@@XZ 00000001800196c0 f i SmartCardRW.obj
 0001:000186d0       ?GetPages@?$ISpecifyPropertyPagesImpl@VCOPOSSmartCardRW@@@ATL@@UEAAJPEAUtagCAUUID@@@Z 00000001800196d0 f i SmartCardRW.obj
 0001:00018760       ?GetPagesHelper@?$ISpecifyPropertyPagesImpl@VCOPOSSmartCardRW@@@ATL@@IEAAJPEAUtagCAUUID@@PEBUATL_PROPMAP_ENTRY@2@@Z 0000000180019760 f i SmartCardRW.obj
 0001:000189d0       ?GetProperty@?$CComPtr@UIDispatch@@@ATL@@QEAAJJPEAUtagVARIANT@@@Z 00000001800199d0 f i SmartCardRW.obj
 0001:00018a20       ?GetProperty@?$CComPtr@UIDispatch@@@ATL@@SAJPEAUIDispatch@@JPEAUtagVARIANT@@@Z 0000000180019a20 f i SmartCardRW.obj
 0001:00018bf0       ?GetPropertyMap@COPOSSmartCardRW@@SAPEBUATL_PROPMAP_ENTRY@ATL@@XZ 0000000180019bf0 f i SmartCardRW.obj
 0001:00018c00       ?GetRect@?$IViewObjectExImpl@VCOPOSSmartCardRW@@@ATL@@UEAAJKPEAU_RECTL@@@Z 0000000180019c00 f i SmartCardRW.obj
 0001:00018c90       ?GetSize@?$CSimpleMap@PEA_WPEA_WVCExpansionVectorEqualHelper@ATL@@@ATL@@QEBAHXZ 0000000180019c90 f i SmartCardRW.obj
 0001:00018ca0       ?GetSize@CComDynamicUnkArray@ATL@@QEBAHXZ 0000000180019ca0 f i SmartCardRW.obj
 0001:00018cb0       ?GetSizeMax@?$IPersistStreamInitImpl@VCOPOSSmartCardRW@@@ATL@@UEAAJPEAT_ULARGE_INTEGER@@@Z 0000000180019cb0 f i SmartCardRW.obj
 0001:00019440       ?GetSizeMax@CComVariant@ATL@@QEBAJPEAT_ULARGE_INTEGER@@@Z 000000018001a440 f i SmartCardRW.obj
 0001:00019870       ?GetStreamSize@CComBSTR@ATL@@SAKPEA_W@Z 000000018001a870 f i SmartCardRW.obj
 0001:000198d0       ?GetTI@CComTypeInfoHolder@ATL@@QEAAJK@Z 000000018001a8d0 f i SmartCardRW.obj
 0001:0001a1a0       ?GetTI@CComTypeInfoHolder@ATL@@QEAAJKPEAPEAUITypeInfo@@@Z 000000018001b1a0 f i SmartCardRW.obj
 0001:0001a290       ?GetTypeInfo@?$IDispatchImpl@UIOPOSSmartCardRW@@$1?IID_IOPOSSmartCardRW@@3U_GUID@@B$1?LIBID_OposSmartCardRW_CCO@@3U3@B$00$0A@VCComTypeInfoHolder@ATL@@@ATL@@UEAAJIKPEAPEAUITypeInfo@@@Z 000000018001b290 f i SmartCardRW.obj
 0001:0001a2e0       ?GetTypeInfo@CComTypeInfoHolder@ATL@@QEAAJIKPEAPEAUITypeInfo@@@Z 000000018001b2e0 f i SmartCardRW.obj
 0001:0001a340       ?GetTypeInfoCount@?$IDispatchImpl@UIOPOSSmartCardRW@@$1?IID_IOPOSSmartCardRW@@3U_GUID@@B$1?LIBID_OposSmartCardRW_CCO@@3U3@B$00$0A@VCComTypeInfoHolder@ATL@@@ATL@@UEAAJPEAI@Z 000000018001b340 f i SmartCardRW.obj
 0001:0001a370       ?GetUnknown@CComDynamicUnkArray@ATL@@QEAAPEAUIUnknown@@K@Z 000000018001b370 f i SmartCardRW.obj
 0001:0001a420       ?GetUnknown@COPOSSmartCardRW@@QEAAPEAUIUnknown@@XZ 000000018001b420 f i SmartCardRW.obj
 0001:0001a450       ?GetUserClassID@?$IOleObjectImpl@VCOPOSSmartCardRW@@@ATL@@UEAAJPEAU_GUID@@@Z 000000018001b450 f i SmartCardRW.obj
 0001:0001a530       ?GetUserType@?$IOleObjectImpl@VCOPOSSmartCardRW@@@ATL@@UEAAJKPEAPEA_W@Z 000000018001b530 f i SmartCardRW.obj
 0001:0001a5c0       ?GetValueAt@?$CSimpleMap@PEA_WPEA_WVCExpansionVectorEqualHelper@ATL@@@ATL@@QEBAAEAPEA_WH@Z 000000018001b5c0 f i SmartCardRW.obj
 0001:0001a670       ?GetViewStatus@?$IViewObjectExImpl@VCOPOSSmartCardRW@@@ATL@@UEAAJPEAK@Z 000000018001b670 f i SmartCardRW.obj
 0001:0001a770       ?GetWNDPROC@CWndProcThunk@ATL@@QEAAP6A_JPEAUHWND__@@I_K_J@ZXZ 000000018001b770 f i SmartCardRW.obj
 0001:0001a7b0       ?GetWindow@?$IOleInPlaceActiveObjectImpl@VCOPOSSmartCardRW@@@ATL@@UEAAJPEAPEAUHWND__@@@Z 000000018001b7b0 f i SmartCardRW.obj
 0001:0001a8b0       ?GetWindow@?$IOleInPlaceObjectWindowlessImpl@VCOPOSSmartCardRW@@@ATL@@UEAAJPEAPEAUHWND__@@@Z 000000018001b8b0 f i SmartCardRW.obj
 0001:0001a9b0       ?GetWindowProc@?$CWindowImplBaseT@VCWindow@ATL@@V?$CWinTraits@$0FGAAAAAA@$0A@@2@@ATL@@UEAAP6A_JPEAUHWND__@@I_K_J@ZXZ 000000018001b9b0 f i SmartCardRW.obj
 0001:0001a9c0       ?GetWndCaption@?$CWindowImpl@VCOPOSSmartCardRW@@VCWindow@ATL@@V?$CWinTraits@$0FGAAAAAA@$0A@@3@@ATL@@SAPEB_WXZ 000000018001b9c0 f i SmartCardRW.obj
 0001:0001a9d0       ?GetWndClassInfo@?$CWindowImpl@VCOPOSSmartCardRW@@VCWindow@ATL@@V?$CWinTraits@$0FGAAAAAA@$0A@@3@@ATL@@SAAEAU_ATL_WNDCLASSINFOW@2@XZ 000000018001b9d0 f i SmartCardRW.obj
 0001:0001a9e0       ?GetWndClassName@CWindow@ATL@@SAPEB_WXZ 000000018001b9e0 f i SmartCardRW.obj
 0001:0001a9f0       ?GetWndExStyle@?$CWinTraits@$0FGAAAAAA@$0A@@ATL@@SAKK@Z 000000018001b9f0 f i SmartCardRW.obj
 0001:0001aa30       ?GetWndExStyle@?$CWindowImplBaseT@VCWindow@ATL@@V?$CWinTraits@$0FGAAAAAA@$0A@@2@@ATL@@SAKK@Z 000000018001ba30 f i SmartCardRW.obj
 0001:0001aa60       ?GetWndStyle@?$CWinTraits@$0FGAAAAAA@$0A@@ATL@@SAKK@Z 000000018001ba60 f i SmartCardRW.obj
 0001:0001aaa0       ?GetWndStyle@?$CWindowImplBaseT@VCWindow@ATL@@V?$CWinTraits@$0FGAAAAAA@$0A@@2@@ATL@@SAKK@Z 000000018001baa0 f i SmartCardRW.obj
 0001:0001aad0       ?GetZoomInfo@CComControlBase@ATL@@QEAAXAEAUATL_DRAWINFO@@@Z 000000018001bad0 f i SmartCardRW.obj
 0001:0001ac80       ?HKeyFromString@CRegParser@ATL@@KAPEAUHKEY__@@PEA_W@Z 000000018001bc80 f i SmartCardRW.obj
 0001:0001ad10       ?HandsOffStorage@?$IPersistStorageImpl@VCOPOSSmartCardRW@@@ATL@@UEAAJXZ 000000018001bd10 f i SmartCardRW.obj
 0001:0001ad80       ?HasSubKeys@CRegParser@ATL@@IEAAHPEAUHKEY__@@@Z 000000018001bd80 f i SmartCardRW.obj
 0001:0001aef0       ?IDataObject_GetData@CComControlBase@ATL@@QEAAJPEAUtagFORMATETC@@PEAUtagSTGMEDIUM@@@Z 000000018001bef0 f i SmartCardRW.obj
 0001:0001b3a0       ?IOleInPlaceObject_InPlaceDeactivate@CComControlBase@ATL@@QEAAJXZ 000000018001c3a0 f i SmartCardRW.obj
 0001:0001b610       ?IOleInPlaceObject_SetObjectRects@CComControlBase@ATL@@QEAAJPEBUtagRECT@@0@Z 000000018001c610 f i SmartCardRW.obj
 0001:0001b7f0       ?IOleInPlaceObject_UIDeactivate@CComControlBase@ATL@@QEAAJXZ 000000018001c7f0 f i SmartCardRW.obj
 0001:0001ba60       ?IOleObject_Advise@CComControlBase@ATL@@QEAAJPEAUIAdviseSink@@PEAK@Z 000000018001ca60 f i SmartCardRW.obj
 0001:0001bb10       ?IOleObject_Close@CComControlBase@ATL@@QEAAJK@Z 000000018001cb10 f i SmartCardRW.obj
 0001:0001be80       ?IOleObject_GetClientSite@CComControlBase@ATL@@QEAAJPEAPEAUIOleClientSite@@@Z 000000018001ce80 f i SmartCardRW.obj
 0001:0001bf50       ?IOleObject_SetClientSite@CComControlBase@ATL@@QEAAJPEAUIOleClientSite@@@Z 000000018001cf50 f i SmartCardRW.obj
 0001:0001c060       ?IOleObject_SetExtent@CComControlBase@ATL@@QEAAJKPEAUtagSIZE@@@Z 000000018001d060 f i SmartCardRW.obj
 0001:0001c1d0       ?IPSI_GetIPersistStreamInit@?$IPersistStorageImpl@VCOPOSSmartCardRW@@@ATL@@AEAAPEAUIPersistStreamInit@@XZ 000000018001d1d0 f i SmartCardRW.obj
 0001:0001c290       ?IPersistStreamInit_Load@?$IPersistStreamInitImpl@VCOPOSSmartCardRW@@@ATL@@QEAAJPEAUIStream@@PEBUATL_PROPMAP_ENTRY@2@@Z 000000018001d290 f i SmartCardRW.obj
 0001:0001c330       ?IPersistStreamInit_Save@?$IPersistStreamInitImpl@VCOPOSSmartCardRW@@@ATL@@QEAAJPEAUIStream@@HPEBUATL_PROPMAP_ENTRY@2@@Z 000000018001d330 f i SmartCardRW.obj
 0001:0001c3f0       ?IQuickActivate_QuickActivate@CComControlBase@ATL@@QEAAJPEAUtagQACONTAINER@@PEAUtagQACONTROL@@@Z 000000018001d3f0 f i SmartCardRW.obj
 0001:0001cc30       ?IViewObject_Draw@CComControlBase@ATL@@QEAAJKJPEAXPEAUtagDVTARGETDEVICE@@PEAUHDC__@@2PEBU_RECTL@@3@Z 000000018001dc30 f i SmartCardRW.obj
 0001:0001d080       ?InPlaceActivate@CComControlBase@ATL@@QEAAJJPEBUtagRECT@@@Z 000000018001e080 f i SmartCardRW.obj
 0001:0001dc20       ?InPlaceDeactivate@?$IOleInPlaceObjectWindowlessImpl@VCOPOSSmartCardRW@@@ATL@@UEAAJXZ 000000018001ec20 f i SmartCardRW.obj
 0001:0001dcd0       ?Increment@CComMultiThreadModel@ATL@@SAKPEAJ@Z 000000018001ecd0 f i SmartCardRW.obj
 0001:0001dcf0       ?Increment@CComSingleThreadModel@ATL@@SAKPEAJ@Z 000000018001ecf0 f i SmartCardRW.obj
 0001:0001dd10       ?Init@?$CComEnumImpl@UIEnumConnectionPoints@@$1?_GUID_b196b285_bab4_101a_b69c_00aa00341d07@@3U__s_GUID@@BPEAUIConnectionPoint@@V?$_CopyInterface@UIConnectionPoint@@@ATL@@@ATL@@QEAAJPEAPEAUIConnectionPoint@@0PEAUIUnknown@@W4CComEnumFlags@2@@Z 000000018001ed10 f i SmartCardRW.obj
 0001:0001e000       ?Init@?$CComEnumImpl@UIEnumConnections@@$1?_GUID_b196b287_bab4_101a_b69c_00aa00341d07@@3U__s_GUID@@BUtagCONNECTDATA@@V?$_Copy@UtagCONNECTDATA@@@ATL@@@ATL@@QEAAJPEAUtagCONNECTDATA@@0PEAUIUnknown@@W4CComEnumFlags@2@@Z 000000018001f000 f i SmartCardRW.obj
 0001:0001e2f0       ?Init@CComFakeCriticalSection@ATL@@QEAAJXZ 000000018001f2f0 f i SmartCardRW.obj
 0001:0001e300       ?Init@CComModule@ATL@@QEAAJPEAU_ATL_OBJMAP_ENTRY30@2@PEAUHINSTANCE__@@PEBU_GUID@@@Z 000000018001f300 f i SmartCardRW.obj
 0001:0001e3f0       ?Init@CComSafeDeleteCriticalSection@ATL@@QEAAJXZ 000000018001f3f0 f i SmartCardRW.obj
 0001:0001e480       ?Init@CDynamicStdCallThunk2@ATL@@QEAAH_KPEAX@Z 000000018001f480 f i SmartCardRW.obj
 0001:0001e500       ?Init@CWndProcThunk@ATL@@QEAAHP6A_JPEAUHWND__@@I_K_J@ZPEAX@Z 000000018001f500 f i SmartCardRW.obj
 0001:0001e550       ?InitFromData@?$IOleObjectImpl@VCOPOSSmartCardRW@@@ATL@@UEAAJPEAUIDataObject@@HK@Z 000000018001f550 f i SmartCardRW.obj
 0001:0001e5e0       ?InitLibId@?$CAtlModuleT@VCComModule@ATL@@@ATL@@SAXXZ 000000018001f5e0 f i SmartCardRW.obj
 0001:0001e5f0       ?InitNew@?$IPersistStorageImpl@VCOPOSSmartCardRW@@@ATL@@UEAAJPEAUIStorage@@@Z 000000018001f5f0 f i SmartCardRW.obj
 0001:0001e6e0       ?InitNew@?$IPersistStreamInitImpl@VCOPOSSmartCardRW@@@ATL@@UEAAJXZ 000000018001f6e0 f i SmartCardRW.obj
 0001:0001e790       ?InlineIsEqualUnknown@ATL@@YAHAEBU_GUID@@@Z 000000018001f790 f i SmartCardRW.obj
 0001:0001e820       ?InternalAddRef@?$CComObjectRootEx@VCComMultiThreadModel@ATL@@@ATL@@QEAAKXZ 000000018001f820 f i SmartCardRW.obj
 0001:0001e8a0       ?InternalAddRef@?$CComObjectRootEx@VCComSingleThreadModel@ATL@@@ATL@@QEAAKXZ 000000018001f8a0 f i SmartCardRW.obj
 0001:0001e920       ?InternalFinalConstructAddRef@CComObjectRootBase@ATL@@QEAAXXZ 000000018001f920 f i SmartCardRW.obj
 0001:0001e930       ?InternalFinalConstructAddRef@COPOSSmartCardRW@@QEAAXXZ 000000018001f930 f i SmartCardRW.obj
 0001:0001e970       ?InternalFinalConstructRelease@CComObjectRootBase@ATL@@QEAAXXZ 000000018001f970 f i SmartCardRW.obj
 0001:0001e9e0       ?InternalFinalConstructRelease@COPOSSmartCardRW@@QEAAXXZ 000000018001f9e0 f i SmartCardRW.obj
 0001:0001ea20       ?InternalGetSite@CComControlBase@ATL@@QEAAJAEBU_GUID@@PEAPEAX@Z 000000018001fa20 f i SmartCardRW.obj
 0001:0001eb00       ?InternalQueryInterface@CComObjectRootBase@ATL@@SAJPEAXPEBU_ATL_INTMAP_ENTRY@2@AEBU_GUID@@PEAPEAX@Z 000000018001fb00 f i SmartCardRW.obj
 0001:0001ec20       ?InternalRelease@?$CComObjectRootEx@VCComMultiThreadModel@ATL@@@ATL@@QEAAKXZ 000000018001fc20 f i SmartCardRW.obj
 0001:0001eca0       ?InternalRelease@?$CComObjectRootEx@VCComSingleThreadModel@ATL@@@ATL@@QEAAKXZ 000000018001fca0 f i SmartCardRW.obj
 0001:0001ed20       ?InternalSetAtIndex@?$CSimpleArray@GV?$CSimpleArrayEqualHelper@G@ATL@@@ATL@@QEAAXHAEBG@Z 000000018001fd20 f i SmartCardRW.obj
 0001:0001eda0       ?InternalSetAtIndex@?$CSimpleMap@PEA_WPEA_WVCExpansionVectorEqualHelper@ATL@@@ATL@@QEAAXHAEBQEA_W0@Z 000000018001fda0 f i SmartCardRW.obj
 0001:0001ee70       ?Invoke@?$IDispatchImpl@UIOPOSSmartCardRW@@$1?IID_IOPOSSmartCardRW@@3U_GUID@@B$1?LIBID_OposSmartCardRW_CCO@@3U3@B$00$0A@VCComTypeInfoHolder@ATL@@@ATL@@UEAAJJAEBU_GUID@@KGPEAUtagDISPPARAMS@@PEAUtagVARIANT@@PEAUtagEXCEPINFO@@PEAI@Z 000000018001fe70 f i SmartCardRW.obj
 0001:0001ef10       ?Invoke@CComTypeInfoHolder@ATL@@QEAAJPEAUIDispatch@@JAEBU_GUID@@KGPEAUtagDISPPARAMS@@PEAUtagVARIANT@@PEAUtagEXCEPINFO@@PEAI@Z 000000018001ff10 f i SmartCardRW.obj
 0001:0001efd0       ?IsDirty@?$IPersistStorageImpl@VCOPOSSmartCardRW@@@ATL@@UEAAJXZ 000000018001ffd0 f i SmartCardRW.obj
 0001:0001f0c0       ?IsDirty@?$IPersistStreamInitImpl@VCOPOSSmartCardRW@@@ATL@@UEAAJXZ 00000001800200c0 f i SmartCardRW.obj
 0001:0001f180       ?IsEqualKey@CExpansionVectorEqualHelper@ATL@@SA_NQEA_W0@Z 0000000180020180 f i SmartCardRW.obj
 0001:0001f1d0       ?IsEqualObject@?$CComPtrBase@UIOleClientSite@@@ATL@@QEAA_NPEAUIUnknown@@@Z 00000001800201d0 f i SmartCardRW.obj
 0001:0001f320       ?IsEqualObject@?$CComPtrBase@UITypeInfo@@@ATL@@QEAA_NPEAUIUnknown@@@Z 0000000180020320 f i SmartCardRW.obj
 0001:0001f470       ?IsSpace@CRegParser@ATL@@IEAAH_W@Z 0000000180020470 f i SmartCardRW.obj
 0001:0001f4d0       ?IsUpToDate@?$IOleObjectImpl@VCOPOSSmartCardRW@@@ATL@@UEAAJXZ 00000001800204d0 f i SmartCardRW.obj
 0001:0001f540       ?Length@CComBSTR@ATL@@QEBAIXZ 0000000180020540 f i SmartCardRW.obj
 0001:0001f580       ?Load@?$IPersistStorageImpl@VCOPOSSmartCardRW@@@ATL@@UEAAJPEAUIStorage@@@Z 0000000180020580 f i SmartCardRW.obj
 0001:0001f730       ?Load@?$IPersistStreamInitImpl@VCOPOSSmartCardRW@@@ATL@@UEAAJPEAUIStream@@@Z 0000000180020730 f i SmartCardRW.obj
 0001:0001f7f0       ?LoadCursorW@AtlModuleRegisterWndClassInfoParamW@ATL@@SAPEAUHICON__@@PEAUHINSTANCE__@@PEB_W@Z 00000001800207f0 f i SmartCardRW.obj
 0001:0001f830       ?LoadNameCache@CComTypeInfoHolder@ATL@@QEAAJPEAUITypeInfo@@@Z 0000000180020830 f i SmartCardRW.obj
 0001:0001fb70       ?Lock@?$CComCritSecLock@VCComCriticalSection@ATL@@@ATL@@QEAAJXZ 0000000180020b70 f i SmartCardRW.obj
 0001:0001fc60       ?Lock@?$CComObjectRootEx@VCComSingleThreadModel@ATL@@@ATL@@QEAAXXZ 0000000180020c60 f i SmartCardRW.obj
 0001:0001fc70       ?Lock@CAtlModule@ATL@@UEAAJXZ 0000000180020c70 f i SmartCardRW.obj
 0001:0001fcb0       ?Lock@CComCriticalSection@ATL@@QEAAJXZ 0000000180020cb0 f i SmartCardRW.obj
 0001:0001fcf0       ?Lock@CComFakeCriticalSection@ATL@@QEAAJXZ 0000000180020cf0 f i SmartCardRW.obj
 0001:0001fd00       ?LockServer@CComClassFactory@ATL@@UEAAJH@Z 0000000180020d00 f i SmartCardRW.obj
 0001:0001fd60       ?Lookup@?$CSimpleMap@PEA_WPEA_WVCExpansionVectorEqualHelper@ATL@@@ATL@@QEBAPEA_WAEBQEA_W@Z 0000000180020d60 f i SmartCardRW.obj
 0001:0001fdc0       ?Next@?$CComEnumImpl@UIEnumConnectionPoints@@$1?_GUID_b196b285_bab4_101a_b69c_00aa00341d07@@3U__s_GUID@@BPEAUIConnectionPoint@@V?$_CopyInterface@UIConnectionPoint@@@ATL@@@ATL@@UEAAJKPEAPEAUIConnectionPoint@@PEAK@Z 0000000180020dc0 f i SmartCardRW.obj
 0001:0001ff80       ?Next@?$CComEnumImpl@UIEnumConnections@@$1?_GUID_b196b287_bab4_101a_b69c_00aa00341d07@@3U__s_GUID@@BUtagCONNECTDATA@@V?$_Copy@UtagCONNECTDATA@@@ATL@@@ATL@@UEAAJKPEAUtagCONNECTDATA@@PEAK@Z 0000000180020f80 f i SmartCardRW.obj
 0001:00020140       ?NextToken@CRegParser@ATL@@IEAAJPEA_W@Z 0000000180021140 f i SmartCardRW.obj
 0001:000204d0       ?OLE2CT_EX@@YAPEB_WPEB_WI@Z 00000001800214d0 f i SmartCardRW.obj
 0001:000204f0       ?OLE2CT_EX_DEF@@YAPEB_WPEB_W@Z 00000001800214f0 f i SmartCardRW.obj
 0001:00020500       ?OLE2T_EX@@YAPEA_WPEA_WI@Z 0000000180021500 f i SmartCardRW.obj
 0001:00020520       ?OnAmbientPropertyChange@?$IOleControlImpl@VCOPOSSmartCardRW@@@ATL@@UEAAJJ@Z 0000000180021520 f i SmartCardRW.obj
 0001:000205e0       ?OnDocWindowActivate@?$IOleInPlaceActiveObjectImpl@VCOPOSSmartCardRW@@@ATL@@UEAAJH@Z 00000001800215e0 f i SmartCardRW.obj
 0001:000206a0       ?OnDrawAdvanced@CComControlBase@ATL@@UEAAJAEAUATL_DRAWINFO@@@Z 00000001800216a0 f i SmartCardRW.obj
 0001:000208f0       ?OnFinalMessage@?$CWindowImplBaseT@VCWindow@ATL@@V?$CWinTraits@$0FGAAAAAA@$0A@@2@@ATL@@UEAAXPEAUHWND__@@@Z 00000001800218f0 f i SmartCardRW.obj
 0001:00020900       ?OnFrameWindowActivate@?$IOleInPlaceActiveObjectImpl@VCOPOSSmartCardRW@@@ATL@@UEAAJH@Z 0000000180021900 f i SmartCardRW.obj
 0001:00020970       ?OnKillFocus@CComControlBase@ATL@@QEAA_JI_K_JAEAH@Z 0000000180021970 f i SmartCardRW.obj
 0001:00020a60       ?OnMnemonic@?$IOleControlImpl@VCOPOSSmartCardRW@@@ATL@@UEAAJPEAUtagMSG@@@Z 0000000180021a60 f i SmartCardRW.obj
 0001:00020af0       ?OnMouseActivate@CComControlBase@ATL@@QEAA_JI_K_JAEAH@Z 0000000180021af0 f i SmartCardRW.obj
 0001:00020c90       ?OnPaint@CComControlBase@ATL@@QEAA_JI_K_JAEAH@Z 0000000180021c90 f i SmartCardRW.obj
 0001:00020e20       ?OnPostVerbDiscardUndo@?$IOleObjectImpl@VCOPOSSmartCardRW@@@ATL@@QEAAJXZ 0000000180021e20 f i SmartCardRW.obj
 0001:00020e30       ?OnPostVerbHide@?$IOleObjectImpl@VCOPOSSmartCardRW@@@ATL@@QEAAJXZ 0000000180021e30 f i SmartCardRW.obj
 0001:00020e40       ?OnPostVerbInPlaceActivate@?$IOleObjectImpl@VCOPOSSmartCardRW@@@ATL@@QEAAJXZ 0000000180021e40 f i SmartCardRW.obj
 0001:00020e50       ?OnPostVerbOpen@?$IOleObjectImpl@VCOPOSSmartCardRW@@@ATL@@QEAAJXZ 0000000180021e50 f i SmartCardRW.obj
 0001:00020e60       ?OnPostVerbShow@?$IOleObjectImpl@VCOPOSSmartCardRW@@@ATL@@QEAAJXZ 0000000180021e60 f i SmartCardRW.obj
 0001:00020e70       ?OnPostVerbUIActivate@?$IOleObjectImpl@VCOPOSSmartCardRW@@@ATL@@QEAAJXZ 0000000180021e70 f i SmartCardRW.obj
 0001:00020e80       ?OnPreVerbDiscardUndo@?$IOleObjectImpl@VCOPOSSmartCardRW@@@ATL@@QEAAJXZ 0000000180021e80 f i SmartCardRW.obj
 0001:00020e90       ?OnPreVerbHide@?$IOleObjectImpl@VCOPOSSmartCardRW@@@ATL@@QEAAJXZ 0000000180021e90 f i SmartCardRW.obj
 0001:00020ea0       ?OnPreVerbInPlaceActivate@?$IOleObjectImpl@VCOPOSSmartCardRW@@@ATL@@QEAAJXZ 0000000180021ea0 f i SmartCardRW.obj
 0001:00020eb0       ?OnPreVerbOpen@?$IOleObjectImpl@VCOPOSSmartCardRW@@@ATL@@QEAAJXZ 0000000180021eb0 f i SmartCardRW.obj
 0001:00020ec0       ?OnPreVerbShow@?$IOleObjectImpl@VCOPOSSmartCardRW@@@ATL@@QEAAJXZ 0000000180021ec0 f i SmartCardRW.obj
 0001:00020ed0       ?OnPreVerbUIActivate@?$IOleObjectImpl@VCOPOSSmartCardRW@@@ATL@@QEAAJXZ 0000000180021ed0 f i SmartCardRW.obj
 0001:00020ee0       ?OnSetFocus@CComControlBase@ATL@@QEAA_JI_K_JAEAH@Z 0000000180021ee0 f i SmartCardRW.obj
 0001:000210e0       ?OnWindowMessage@?$IOleInPlaceObjectWindowlessImpl@VCOPOSSmartCardRW@@@ATL@@UEAAJI_K_JPEA_J@Z 00000001800220e0 f i SmartCardRW.obj
 0001:00021300       ?Open@CRegKey@ATL@@QEAAJPEAUHKEY__@@PEB_WK@Z 0000000180022300 f i SmartCardRW.obj
 0001:00021480       ?OuterAddRef@CComObjectRootBase@ATL@@QEAAKXZ 0000000180022480 f i SmartCardRW.obj
 0001:000214c0       ?OuterQueryInterface@CComObjectRootBase@ATL@@QEAAJAEBU_GUID@@PEAPEAX@Z 00000001800224c0 f i SmartCardRW.obj
 0001:00021510       ?OuterRelease@CComObjectRootBase@ATL@@QEAAKXZ 0000000180022510 f i SmartCardRW.obj
 0001:00021550       ?PreProcessBuffer@CRegParser@ATL@@QEAAJPEA_WPEAPEA_W@Z 0000000180022550 f i SmartCardRW.obj
 0001:00021c30       ?PreTranslateAccelerator@CComControlBase@ATL@@QEAAHPEAUtagMSG@@AEAJ@Z 0000000180022c30 f i SmartCardRW.obj
 0001:00021c50       ?ProcessWindowMessage@?$CComControl@VCOPOSSmartCardRW@@V?$CWindowImpl@VCOPOSSmartCardRW@@VCWindow@ATL@@V?$CWinTraits@$0FGAAAAAA@$0A@@3@@ATL@@@ATL@@UEAAHPEAUHWND__@@I_K_JAEA_JK@Z 0000000180022c50 f i SmartCardRW.obj
 0001:00021ed0       ?ProcessWindowMessage@COPOSSmartCardRW@@UEAAHPEAUHWND__@@I_K_JAEA_JK@Z 0000000180022ed0 f i SmartCardRW.obj
 0001:00022050       ?PutProperty@?$CComPtr@UIDispatch@@@ATL@@QEAAJJPEAUtagVARIANT@@@Z 0000000180023050 f i SmartCardRW.obj
 0001:000220a0       ?PutProperty@?$CComPtr@UIDispatch@@@ATL@@SAJPEAUIDispatch@@JPEAUtagVARIANT@@@Z 00000001800230a0 f i SmartCardRW.obj
 0001:00022340       ?QueryGetData@?$IDataObjectImpl@VCOPOSSmartCardRW@@@ATL@@UEAAJPEAUtagFORMATETC@@@Z 0000000180023340 f i SmartCardRW.obj
 0001:000223d0       ?QueryHitPoint@?$IViewObjectExImpl@VCOPOSSmartCardRW@@@ATL@@UEAAJKPEBUtagRECT@@UtagPOINT@@JPEAK@Z 00000001800233d0 f i SmartCardRW.obj
 0001:00022540       ?QueryHitRect@?$IViewObjectExImpl@VCOPOSSmartCardRW@@@ATL@@UEAAJKPEBUtagRECT@@0JPEAK@Z 0000000180023540 f i SmartCardRW.obj
 0001:00022710       ?QueryInterface@?$CComAggObject@VCOPOSSmartCardRW@@@ATL@@UEAAJAEBU_GUID@@PEAPEAX@Z 0000000180023710 f i SmartCardRW.obj
 0001:00022800       ?QueryInterface@?$CComContainedObject@VCOPOSSmartCardRW@@@ATL@@UEAAJAEBU_GUID@@PEAPEAX@Z 0000000180023800 f i SmartCardRW.obj
 0001:0002284c       ?QueryInterface@?$CComContainedObject@VCOPOSSmartCardRW@@@ATL@@WBAA@EAAJAEBU_GUID@@PEAPEAX@Z 000000018002384c f i SmartCardRW.obj
 0001:00022858       ?QueryInterface@?$CComContainedObject@VCOPOSSmartCardRW@@@ATL@@WBAI@EAAJAEBU_GUID@@PEAPEAX@Z 0000000180023858 f i SmartCardRW.obj
 0001:00022864       ?QueryInterface@?$CComContainedObject@VCOPOSSmartCardRW@@@ATL@@WBBA@EAAJAEBU_GUID@@PEAPEAX@Z 0000000180023864 f i SmartCardRW.obj
 0001:00022870       ?QueryInterface@?$CComContainedObject@VCOPOSSmartCardRW@@@ATL@@WBBI@EAAJAEBU_GUID@@PEAPEAX@Z 0000000180023870 f i SmartCardRW.obj
 0001:0002287c       ?QueryInterface@?$CComContainedObject@VCOPOSSmartCardRW@@@ATL@@WLI@EAAJAEBU_GUID@@PEAPEAX@Z 000000018002387c f i SmartCardRW.obj
 0001:00022888       ?QueryInterface@?$CComContainedObject@VCOPOSSmartCardRW@@@ATL@@WMA@EAAJAEBU_GUID@@PEAPEAX@Z 0000000180023888 f i SmartCardRW.obj
 0001:00022894       ?QueryInterface@?$CComContainedObject@VCOPOSSmartCardRW@@@ATL@@WMI@EAAJAEBU_GUID@@PEAPEAX@Z 0000000180023894 f i SmartCardRW.obj
 0001:000228a0       ?QueryInterface@?$CComContainedObject@VCOPOSSmartCardRW@@@ATL@@WNA@EAAJAEBU_GUID@@PEAPEAX@Z 00000001800238a0 f i SmartCardRW.obj
 0001:000228ac       ?QueryInterface@?$CComContainedObject@VCOPOSSmartCardRW@@@ATL@@WNI@EAAJAEBU_GUID@@PEAPEAX@Z 00000001800238ac f i SmartCardRW.obj
 0001:000228b8       ?QueryInterface@?$CComContainedObject@VCOPOSSmartCardRW@@@ATL@@WOA@EAAJAEBU_GUID@@PEAPEAX@Z 00000001800238b8 f i SmartCardRW.obj
 0001:000228c4       ?QueryInterface@?$CComContainedObject@VCOPOSSmartCardRW@@@ATL@@WOI@EAAJAEBU_GUID@@PEAPEAX@Z 00000001800238c4 f i SmartCardRW.obj
 0001:000228d0       ?QueryInterface@?$CComContainedObject@VCOPOSSmartCardRW@@@ATL@@WPA@EAAJAEBU_GUID@@PEAPEAX@Z 00000001800238d0 f i SmartCardRW.obj
 0001:000228dc       ?QueryInterface@?$CComContainedObject@VCOPOSSmartCardRW@@@ATL@@WPI@EAAJAEBU_GUID@@PEAPEAX@Z 00000001800238dc f i SmartCardRW.obj
 0001:000228f0       ?QueryInterface@?$CComObject@V?$CComEnum@UIEnumConnectionPoints@@$1?_GUID_b196b285_bab4_101a_b69c_00aa00341d07@@3U__s_GUID@@BPEAUIConnectionPoint@@V?$_CopyInterface@UIConnectionPoint@@@ATL@@VCComSingleThreadModel@6@@ATL@@@ATL@@UEAAJAEBU_GUID@@PEAPEAX@Z 00000001800238f0 f i SmartCardRW.obj
 0001:00022940       ?QueryInterface@?$CComObject@V?$CComEnum@UIEnumConnections@@$1?_GUID_b196b287_bab4_101a_b69c_00aa00341d07@@3U__s_GUID@@BUtagCONNECTDATA@@V?$_Copy@UtagCONNECTDATA@@@ATL@@VCComSingleThreadModel@6@@ATL@@@ATL@@UEAAJAEBU_GUID@@PEAPEAX@Z 0000000180023940 f i SmartCardRW.obj
 0001:00022990       ?QueryInterface@?$CComObject@VCOPOSSmartCardRW@@@ATL@@UEAAJAEBU_GUID@@PEAPEAX@Z 0000000180023990 f i SmartCardRW.obj
 0001:000229d4       ?QueryInterface@?$CComObject@VCOPOSSmartCardRW@@@ATL@@WBAA@EAAJAEBU_GUID@@PEAPEAX@Z 00000001800239d4 f i SmartCardRW.obj
 0001:000229e0       ?QueryInterface@?$CComObject@VCOPOSSmartCardRW@@@ATL@@WBAI@EAAJAEBU_GUID@@PEAPEAX@Z 00000001800239e0 f i SmartCardRW.obj
 0001:000229ec       ?QueryInterface@?$CComObject@VCOPOSSmartCardRW@@@ATL@@WBBA@EAAJAEBU_GUID@@PEAPEAX@Z 00000001800239ec f i SmartCardRW.obj
 0001:000229f8       ?QueryInterface@?$CComObject@VCOPOSSmartCardRW@@@ATL@@WBBI@EAAJAEBU_GUID@@PEAPEAX@Z 00000001800239f8 f i SmartCardRW.obj
 0001:00022a04       ?QueryInterface@?$CComObject@VCOPOSSmartCardRW@@@ATL@@WLI@EAAJAEBU_GUID@@PEAPEAX@Z 0000000180023a04 f i SmartCardRW.obj
 0001:00022a10       ?QueryInterface@?$CComObject@VCOPOSSmartCardRW@@@ATL@@WMA@EAAJAEBU_GUID@@PEAPEAX@Z 0000000180023a10 f i SmartCardRW.obj
 0001:00022a1c       ?QueryInterface@?$CComObject@VCOPOSSmartCardRW@@@ATL@@WMI@EAAJAEBU_GUID@@PEAPEAX@Z 0000000180023a1c f i SmartCardRW.obj
 0001:00022a28       ?QueryInterface@?$CComObject@VCOPOSSmartCardRW@@@ATL@@WNA@EAAJAEBU_GUID@@PEAPEAX@Z 0000000180023a28 f i SmartCardRW.obj
 0001:00022a34       ?QueryInterface@?$CComObject@VCOPOSSmartCardRW@@@ATL@@WNI@EAAJAEBU_GUID@@PEAPEAX@Z 0000000180023a34 f i SmartCardRW.obj
 0001:00022a40       ?QueryInterface@?$CComObject@VCOPOSSmartCardRW@@@ATL@@WOA@EAAJAEBU_GUID@@PEAPEAX@Z 0000000180023a40 f i SmartCardRW.obj
 0001:00022a4c       ?QueryInterface@?$CComObject@VCOPOSSmartCardRW@@@ATL@@WOI@EAAJAEBU_GUID@@PEAPEAX@Z 0000000180023a4c f i SmartCardRW.obj
 0001:00022a58       ?QueryInterface@?$CComObject@VCOPOSSmartCardRW@@@ATL@@WPA@EAAJAEBU_GUID@@PEAPEAX@Z 0000000180023a58 f i SmartCardRW.obj
 0001:00022a64       ?QueryInterface@?$CComObject@VCOPOSSmartCardRW@@@ATL@@WPI@EAAJAEBU_GUID@@PEAPEAX@Z 0000000180023a64 f i SmartCardRW.obj
 0001:00022a70       ?QueryInterface@?$CComObjectCached@VCComClassFactory@ATL@@@ATL@@UEAAJAEBU_GUID@@PEAPEAX@Z 0000000180023a70 f i SmartCardRW.obj
 0001:00022ac0       ?QueryInterface@CRegObject@ATL@@UEAAJAEBU_GUID@@PEAPEAX@Z 0000000180023ac0 f i SmartCardRW.obj
 0001:00022b40       ?QuickActivate@?$IQuickActivateImpl@VCOPOSSmartCardRW@@@ATL@@UEAAJPEAUtagQACONTAINER@@PEAUtagQACONTROL@@@Z 0000000180023b40 f i SmartCardRW.obj
 0001:00022c00       ?ReactivateAndUndo@?$IOleInPlaceObjectWindowlessImpl@VCOPOSSmartCardRW@@@ATL@@UEAAJXZ 0000000180023c00 f i SmartCardRW.obj
 0001:00022c80       ?ReadFromStream@CComBSTR@ATL@@QEAAJPEAUIStream@@@Z 0000000180023c80 f i SmartCardRW.obj
 0001:00023160       ?ReadFromStream@CComVariant@ATL@@QEAAJPEAUIStream@@GTClassesAllowedInStream@2@K@Z 0000000180024160 f i SmartCardRW.obj
 0001:00023590       ?RecurseDeleteKey@CRegKey@ATL@@QEAAJPEB_W@Z 0000000180024590 f i SmartCardRW.obj
 0001:000237b0       ?RegCreateKeyExW@CAtlTransactionManager@ATL@@QEAAJPEAUHKEY__@@PEB_WKPEA_WKKQEAU_SECURITY_ATTRIBUTES@@PEAPEAU3@PEAK@Z 00000001800247b0 f i SmartCardRW.obj
 0001:00023980       ?RegDeleteKeyW@CAtlTransactionManager@ATL@@QEAAJPEAUHKEY__@@PEB_W@Z 0000000180024980 f i SmartCardRW.obj
 0001:00023a90       ?RegOpenKeyExW@CAtlTransactionManager@ATL@@QEAAJPEAUHKEY__@@PEB_WKKPEAPEAU3@@Z 0000000180024a90 f i SmartCardRW.obj
 0001:00023be0       ?Register@_ATL_WNDCLASSINFOW@ATL@@QEAAGPEAP6A_JPEAUHWND__@@I_K_J@Z@Z 0000000180024be0 f i SmartCardRW.obj
 0001:00023c30       ?RegisterBuffer@CRegParser@ATL@@QEAAJPEA_WH@Z 0000000180024c30 f i SmartCardRW.obj
 0001:00024020       ?RegisterClassExW@AtlModuleRegisterWndClassInfoParamW@ATL@@SAGPEAU_ATL_WIN_MODULE70@2@PEBUtagWNDCLASSEXW@@@Z 0000000180025020 f i SmartCardRW.obj
 0001:00024060       ?RegisterFromResource@CRegObject@ATL@@IEAAJPEB_W00H@Z 0000000180025060 f i SmartCardRW.obj
 0001:000244c0       ?RegisterServer@?$CAtlModuleT@VCComModule@ATL@@@ATL@@QEAAJHPEBU_GUID@@@Z 00000001800254c0 f i SmartCardRW.obj
 0001:00024540       ?RegisterServer@CAtlComModule@ATL@@QEAAJHPEBU_GUID@@@Z 0000000180025540 f i SmartCardRW.obj
 0001:00024580       ?RegisterServer@CComModule@ATL@@QEAAJHPEBU_GUID@@@Z 0000000180025580 f i SmartCardRW.obj
 0001:00024680       ?RegisterSubkeys@CRegParser@ATL@@IEAAJPEA_WPEAUHKEY__@@HH@Z 0000000180025680 f i SmartCardRW.obj
 0001:00025460       ?Release@?$CComAggObject@VCOPOSSmartCardRW@@@ATL@@UEAAKXZ 0000000180026460 f i SmartCardRW.obj
 0001:00025510       ?Release@?$CComContainedObject@VCOPOSSmartCardRW@@@ATL@@UEAAKXZ 0000000180026510 f i SmartCardRW.obj
 0001:00025548       ?Release@?$CComContainedObject@VCOPOSSmartCardRW@@@ATL@@WBAA@EAAKXZ 0000000180026548 f i SmartCardRW.obj
 0001:00025554       ?Release@?$CComContainedObject@VCOPOSSmartCardRW@@@ATL@@WBAI@EAAKXZ 0000000180026554 f i SmartCardRW.obj
 0001:00025560       ?Release@?$CComContainedObject@VCOPOSSmartCardRW@@@ATL@@WBBA@EAAKXZ 0000000180026560 f i SmartCardRW.obj
 0001:0002556c       ?Release@?$CComContainedObject@VCOPOSSmartCardRW@@@ATL@@WBBI@EAAKXZ 000000018002656c f i SmartCardRW.obj
 0001:00025578       ?Release@?$CComContainedObject@VCOPOSSmartCardRW@@@ATL@@WBCI@EAAKXZ 0000000180026578 f i SmartCardRW.obj
 0001:00025584       ?Release@?$CComContainedObject@VCOPOSSmartCardRW@@@ATL@@WBEA@EAAKXZ 0000000180026584 f i SmartCardRW.obj
 0001:00025590       ?Release@?$CComContainedObject@VCOPOSSmartCardRW@@@ATL@@WLI@EAAKXZ 0000000180026590 f i SmartCardRW.obj
 0001:0002559c       ?Release@?$CComContainedObject@VCOPOSSmartCardRW@@@ATL@@WMA@EAAKXZ 000000018002659c f i SmartCardRW.obj
 0001:000255a8       ?Release@?$CComContainedObject@VCOPOSSmartCardRW@@@ATL@@WMI@EAAKXZ 00000001800265a8 f i SmartCardRW.obj
 0001:000255b4       ?Release@?$CComContainedObject@VCOPOSSmartCardRW@@@ATL@@WNA@EAAKXZ 00000001800265b4 f i SmartCardRW.obj
 0001:000255c0       ?Release@?$CComContainedObject@VCOPOSSmartCardRW@@@ATL@@WNI@EAAKXZ 00000001800265c0 f i SmartCardRW.obj
 0001:000255cc       ?Release@?$CComContainedObject@VCOPOSSmartCardRW@@@ATL@@WOA@EAAKXZ 00000001800265cc f i SmartCardRW.obj
 0001:000255d8       ?Release@?$CComContainedObject@VCOPOSSmartCardRW@@@ATL@@WOI@EAAKXZ 00000001800265d8 f i SmartCardRW.obj
 0001:000255e4       ?Release@?$CComContainedObject@VCOPOSSmartCardRW@@@ATL@@WPA@EAAKXZ 00000001800265e4 f i SmartCardRW.obj
 0001:000255f0       ?Release@?$CComContainedObject@VCOPOSSmartCardRW@@@ATL@@WPI@EAAKXZ 00000001800265f0 f i SmartCardRW.obj
 0001:00025600       ?Release@?$CComObject@V?$CComEnum@UIEnumConnectionPoints@@$1?_GUID_b196b285_bab4_101a_b69c_00aa00341d07@@3U__s_GUID@@BPEAUIConnectionPoint@@V?$_CopyInterface@UIConnectionPoint@@@ATL@@VCComSingleThreadModel@6@@ATL@@@ATL@@UEAAKXZ 0000000180026600 f i SmartCardRW.obj
 0001:000256b0       ?Release@?$CComObject@V?$CComEnum@UIEnumConnections@@$1?_GUID_b196b287_bab4_101a_b69c_00aa00341d07@@3U__s_GUID@@BUtagCONNECTDATA@@V?$_Copy@UtagCONNECTDATA@@@ATL@@VCComSingleThreadModel@6@@ATL@@@ATL@@UEAAKXZ 00000001800266b0 f i SmartCardRW.obj
 0001:00025760       ?Release@?$CComObject@VCOPOSSmartCardRW@@@ATL@@UEAAKXZ 0000000180026760 f i SmartCardRW.obj
 0001:00025818       ?Release@?$CComObject@VCOPOSSmartCardRW@@@ATL@@WBAA@EAAKXZ 0000000180026818 f i SmartCardRW.obj
 0001:00025824       ?Release@?$CComObject@VCOPOSSmartCardRW@@@ATL@@WBAI@EAAKXZ 0000000180026824 f i SmartCardRW.obj
 0001:00025830       ?Release@?$CComObject@VCOPOSSmartCardRW@@@ATL@@WBBA@EAAKXZ 0000000180026830 f i SmartCardRW.obj
 0001:0002583c       ?Release@?$CComObject@VCOPOSSmartCardRW@@@ATL@@WBBI@EAAKXZ 000000018002683c f i SmartCardRW.obj
 0001:00025848       ?Release@?$CComObject@VCOPOSSmartCardRW@@@ATL@@WBCI@EAAKXZ 0000000180026848 f i SmartCardRW.obj
 0001:00025854       ?Release@?$CComObject@VCOPOSSmartCardRW@@@ATL@@WBEA@EAAKXZ 0000000180026854 f i SmartCardRW.obj
 0001:00025860       ?Release@?$CComObject@VCOPOSSmartCardRW@@@ATL@@WLI@EAAKXZ 0000000180026860 f i SmartCardRW.obj
 0001:0002586c       ?Release@?$CComObject@VCOPOSSmartCardRW@@@ATL@@WMA@EAAKXZ 000000018002686c f i SmartCardRW.obj
 0001:00025878       ?Release@?$CComObject@VCOPOSSmartCardRW@@@ATL@@WMI@EAAKXZ 0000000180026878 f i SmartCardRW.obj
 0001:00025884       ?Release@?$CComObject@VCOPOSSmartCardRW@@@ATL@@WNA@EAAKXZ 0000000180026884 f i SmartCardRW.obj
 0001:00025890       ?Release@?$CComObject@VCOPOSSmartCardRW@@@ATL@@WNI@EAAKXZ 0000000180026890 f i SmartCardRW.obj
 0001:0002589c       ?Release@?$CComObject@VCOPOSSmartCardRW@@@ATL@@WOA@EAAKXZ 000000018002689c f i SmartCardRW.obj
 0001:000258a8       ?Release@?$CComObject@VCOPOSSmartCardRW@@@ATL@@WOI@EAAKXZ 00000001800268a8 f i SmartCardRW.obj
 0001:000258b4       ?Release@?$CComObject@VCOPOSSmartCardRW@@@ATL@@WPA@EAAKXZ 00000001800268b4 f i SmartCardRW.obj
 0001:000258c0       ?Release@?$CComObject@VCOPOSSmartCardRW@@@ATL@@WPI@EAAKXZ 00000001800268c0 f i SmartCardRW.obj
 0001:000258d0       ?Release@?$CComObjectCached@VCComClassFactory@ATL@@@ATL@@UEAAKXZ 00000001800268d0 f i SmartCardRW.obj
 0001:00025970       ?Release@?$CComPtrBase@UIAdviseSink@@@ATL@@QEAAXXZ 0000000180026970 f i SmartCardRW.obj
 0001:000259d0       ?Release@?$CComPtrBase@UIDispatch@@@ATL@@QEAAXXZ 00000001800269d0 f i SmartCardRW.obj
 0001:00025a30       ?Release@?$CComPtrBase@UIOleInPlaceSiteWindowless@@@ATL@@QEAAXXZ 0000000180026a30 f i SmartCardRW.obj
 0001:00025a90       ?Release@CRegObject@ATL@@UEAAKXZ 0000000180026a90 f i SmartCardRW.obj
 0001:00025b00       ?Remove@CComDynamicUnkArray@ATL@@QEAAHK@Z 0000000180026b00 f i SmartCardRW.obj
 0001:00025be0       ?RemoveAll@?$CSimpleMap@PEA_WPEA_WVCExpansionVectorEqualHelper@ATL@@@ATL@@QEAAXXZ 0000000180026be0 f i SmartCardRW.obj
 0001:00025c80       ?Reset@?$CComEnumImpl@UIEnumConnectionPoints@@$1?_GUID_b196b285_bab4_101a_b69c_00aa00341d07@@3U__s_GUID@@BPEAUIConnectionPoint@@V?$_CopyInterface@UIConnectionPoint@@@ATL@@@ATL@@UEAAJXZ 0000000180026c80 f i SmartCardRW.obj
 0001:00025ca0       ?Reset@?$CComEnumImpl@UIEnumConnections@@$1?_GUID_b196b287_bab4_101a_b69c_00aa00341d07@@3U__s_GUID@@BUtagCONNECTDATA@@V?$_Copy@UtagCONNECTDATA@@@ATL@@@ATL@@UEAAJXZ 0000000180026ca0 f i SmartCardRW.obj
 0001:00025cc0       ?ResizeBorder@?$IOleInPlaceActiveObjectImpl@VCOPOSSmartCardRW@@@ATL@@UEAAJPEBUtagRECT@@PEAUIOleInPlaceUIWindow@@H@Z 0000000180026cc0 f i SmartCardRW.obj
 0001:00025d40       ?ResourceRegister@CRegObject@ATL@@QEAAJPEB_WI0@Z 0000000180026d40 f i SmartCardRW.obj
 0001:00025e20       ?ResourceRegisterSz@CRegObject@ATL@@QEAAJPEB_W00@Z 0000000180026e20 f i SmartCardRW.obj
 0001:00025f40       ?ResourceUnregister@CRegObject@ATL@@QEAAJPEB_WI0@Z 0000000180026f40 f i SmartCardRW.obj
 0001:00026020       ?ResourceUnregisterSz@CRegObject@ATL@@QEAAJPEB_W00@Z 0000000180027020 f i SmartCardRW.obj
 0001:00026140       ?SOData@COPOSSmartCardRW@@MEAAJJ@Z 0000000180027140 f i SmartCardRW.obj
 0001:000261e0       ?SODirectIO@COPOSSmartCardRW@@MEAAJJPEAJPEAPEA_W@Z 00000001800271e0 f i SmartCardRW.obj
 0001:00026420       ?SOError@COPOSSmartCardRW@@MEAAJJJJPEAJ@Z 0000000180027420 f i SmartCardRW.obj
 0001:00026530       ?SOOutputComplete@COPOSSmartCardRW@@MEAAJJ@Z 0000000180027530 f i SmartCardRW.obj
 0001:000265d0       ?SOStatusUpdate@COPOSSmartCardRW@@MEAAJJ@Z 00000001800275d0 f i SmartCardRW.obj
 0001:00026670       ?Save@?$IPersistStorageImpl@VCOPOSSmartCardRW@@@ATL@@UEAAJPEAUIStorage@@H@Z 0000000180027670 f i SmartCardRW.obj
 0001:00026830       ?Save@?$IPersistStreamInitImpl@VCOPOSSmartCardRW@@@ATL@@UEAAJPEAUIStream@@H@Z 0000000180027830 f i SmartCardRW.obj
 0001:000268f0       ?SaveCompleted@?$IPersistStorageImpl@VCOPOSSmartCardRW@@@ATL@@UEAAJPEAUIStorage@@@Z 00000001800278f0 f i SmartCardRW.obj
 0001:00026960       ?SendOnDataChange@CComControlBase@ATL@@QEAAJK@Z 0000000180027960 f i SmartCardRW.obj
 0001:00026a50       ?SendOnSave@CComControlBase@ATL@@QEAAJXZ 0000000180027a50 f i SmartCardRW.obj
 0001:00026ac0       ?SendOnViewChange@CComControlBase@ATL@@QEAAJKJ@Z 0000000180027ac0 f i SmartCardRW.obj
 0001:00026b40       ?SetAdvise@?$IViewObjectExImpl@VCOPOSSmartCardRW@@@ATL@@UEAAJKKPEAUIAdviseSink@@@Z 0000000180027b40 f i SmartCardRW.obj
 0001:00026c00       ?SetClientSite@?$IOleObjectImpl@VCOPOSSmartCardRW@@@ATL@@UEAAJPEAUIOleClientSite@@@Z 0000000180027c00 f i SmartCardRW.obj
 0001:00026cb0       ?SetColorScheme@?$IOleObjectImpl@VCOPOSSmartCardRW@@@ATL@@UEAAJPEAUtagLOGPALETTE@@@Z 0000000180027cb0 f i SmartCardRW.obj
 0001:00026d40       ?SetContentExtent@?$IQuickActivateImpl@VCOPOSSmartCardRW@@@ATL@@UEAAJPEAUtagSIZE@@@Z 0000000180027d40 f i SmartCardRW.obj
 0001:00026e00       ?SetControlFocus@CComControlBase@ATL@@QEAAHH@Z 0000000180027e00 f i SmartCardRW.obj
 0001:00026f90       ?SetDWORDValue@CRegKey@ATL@@QEAAJPEB_WK@Z 0000000180027f90 f i SmartCardRW.obj
 0001:00027040       ?SetData@?$IDataObjectImpl@VCOPOSSmartCardRW@@@ATL@@UEAAJPEAUtagFORMATETC@@PEAUtagSTGMEDIUM@@H@Z 0000000180028040 f i SmartCardRW.obj
 0001:000270d0       ?SetExtent@?$IOleObjectImpl@VCOPOSSmartCardRW@@@ATL@@UEAAJKPEAUtagSIZE@@@Z 00000001800280d0 f i SmartCardRW.obj
 0001:00027190       ?SetHostNames@?$IOleObjectImpl@VCOPOSSmartCardRW@@@ATL@@UEAAJPEB_W0@Z 0000000180028190 f i SmartCardRW.obj
 0001:00027210       ?SetInterfaceSafetyOptions@?$IObjectSafetyImpl@VCOPOSSmartCardRW@@$02@ATL@@UEAAJAEBU_GUID@@KK@Z 0000000180028210 f i SmartCardRW.obj
 0001:000273b0       ?SetMoniker@?$IOleObjectImpl@VCOPOSSmartCardRW@@@ATL@@UEAAJKPEAUIMoniker@@@Z 00000001800283b0 f i SmartCardRW.obj
 0001:00027440       ?SetMultiStringValue@CRegKey@ATL@@QEAAJPEB_W0@Z 0000000180028440 f i SmartCardRW.obj
 0001:000275b0       ?SetObjectRects@?$IOleInPlaceObjectWindowlessImpl@VCOPOSSmartCardRW@@@ATL@@UEAAJPEBUtagRECT@@0@Z 00000001800285b0 f i SmartCardRW.obj
 0001:00027670       ?SetStringValue@CRegKey@ATL@@QEAAJPEB_W0K@Z 0000000180028670 f i SmartCardRW.obj
 0001:000277f0       ?SetVoid@CComClassFactory@ATL@@QEAAXPEAX@Z 00000001800287f0 f i SmartCardRW.obj
 0001:00027810       ?SetVoid@CComObjectRootBase@ATL@@QEAAXPEAX@Z 0000000180028810 f i SmartCardRW.obj
 0001:00027820       ?ShowWindow@CWindow@ATL@@QEAAHH@Z 0000000180028820 f i SmartCardRW.obj
 0001:000278b0       ?Skip@?$CComEnumImpl@UIEnumConnectionPoints@@$1?_GUID_b196b285_bab4_101a_b69c_00aa00341d07@@3U__s_GUID@@BPEAUIConnectionPoint@@V?$_CopyInterface@UIConnectionPoint@@@ATL@@@ATL@@UEAAJK@Z 00000001800288b0 f i SmartCardRW.obj
 0001:00027950       ?Skip@?$CComEnumImpl@UIEnumConnections@@$1?_GUID_b196b287_bab4_101a_b69c_00aa00341d07@@3U__s_GUID@@BUtagCONNECTDATA@@V?$_Copy@UtagCONNECTDATA@@@ATL@@@ATL@@UEAAJK@Z 0000000180028950 f i SmartCardRW.obj
 0001:000279f0       ?SkipAssignment@CRegParser@ATL@@IEAAJPEA_W@Z 00000001800289f0 f i SmartCardRW.obj
 0001:00027af0       ?SkipWhiteSpace@CRegParser@ATL@@IEAAXXZ 0000000180028af0 f i SmartCardRW.obj
 0001:00027b50       ?StartWindowProc@?$CWindowImplBaseT@VCWindow@ATL@@V?$CWinTraits@$0FGAAAAAA@$0A@@2@@ATL@@SA_JPEAUHWND__@@I_K_J@Z 0000000180028b50 f i SmartCardRW.obj
 0001:00027cc0       ?StrChrW@CRegParser@ATL@@KAPEA_WPEA_W_W@Z 0000000180028cc0 f i SmartCardRW.obj
 0001:00027d40       ?StrFromMap@CRegObject@ATL@@QEAAPEB_WPEA_W@Z 0000000180028d40 f i SmartCardRW.obj
 0001:00027e00       ?Swap@?$CComPtrBase@UIAdviseSink@@@ATL@@IEAAXAEAV12@@Z 0000000180028e00 f i SmartCardRW.obj
 0001:00027e60       ?Swap@?$CComPtrBase@UIOleClientSite@@@ATL@@IEAAXAEAV12@@Z 0000000180028e60 f i SmartCardRW.obj
 0001:00027ec0       ?Swap@?$CComPtrBase@UIUnknown@@@ATL@@IEAAXAEAV12@@Z 0000000180028ec0 f i SmartCardRW.obj
 0001:00027f20       ?T2COLE_EX@@YAPEB_WPEB_WI@Z 0000000180028f20 f i SmartCardRW.obj
 0001:00027f40       ?T2OLE_EX@@YAPEA_WPEA_WI@Z 0000000180028f40 f i SmartCardRW.obj
 0001:00027f60       ?Term@CAtlModule@ATL@@QEAAXXZ 0000000180028f60 f i SmartCardRW.obj
 0001:00028020       ?Term@CComModule@ATL@@QEAAXXZ 0000000180029020 f i SmartCardRW.obj
 0001:00028110       ?TranslateAcceleratorW@?$IOleInPlaceActiveObjectImpl@VCOPOSSmartCardRW@@@ATL@@UEAAJPEAUtagMSG@@@Z 0000000180029110 f i SmartCardRW.obj
 0001:00028380       ?UIDeactivate@?$IOleInPlaceObjectWindowlessImpl@VCOPOSSmartCardRW@@@ATL@@UEAAJXZ 0000000180029380 f i SmartCardRW.obj
 0001:00028430       ?Unadvise@?$CProxy_IOPOSEvents@VCOPOSSmartCardRW@@@@UEAAJK@Z 0000000180029430 f i SmartCardRW.obj
 0001:00028480       ?Unadvise@?$IConnectionPointImpl@VCOPOSSmartCardRW@@$1?DIID__IOPOSSmartCardRWEvents@@3U_GUID@@BVCComDynamicUnkArray@ATL@@@ATL@@UEAAJK@Z 0000000180029480 f i SmartCardRW.obj
 0001:00028570       ?Unadvise@?$IConnectionPointImpl@VCOPOSSmartCardRW@@$1?IID_IPropertyNotifySink@@3U_GUID@@BVCComDynamicUnkArray@ATL@@@ATL@@UEAAJK@Z 0000000180029570 f i SmartCardRW.obj
 0001:00028660       ?Unadvise@?$IOleObjectImpl@VCOPOSSmartCardRW@@@ATL@@UEAAJK@Z 0000000180029660 f i SmartCardRW.obj
 0001:00028750       ?Unfreeze@?$IViewObjectExImpl@VCOPOSSmartCardRW@@@ATL@@UEAAJK@Z 0000000180029750 f i SmartCardRW.obj
 0001:000287d0       ?Unlock@?$CComCritSecLock@VCComCriticalSection@ATL@@@ATL@@QEAAXXZ 00000001800297d0 f i SmartCardRW.obj
 0001:00028860       ?Unlock@?$CComObjectRootEx@VCComSingleThreadModel@ATL@@@ATL@@QEAAXXZ 0000000180029860 f i SmartCardRW.obj
 0001:00028870       ?Unlock@CAtlModule@ATL@@UEAAJXZ 0000000180029870 f i SmartCardRW.obj
 0001:000288b0       ?Unlock@CComCriticalSection@ATL@@QEAAJXZ 00000001800298b0 f i SmartCardRW.obj
 0001:000288f0       ?Unlock@CComFakeCriticalSection@ATL@@QEAAJXZ 00000001800298f0 f i SmartCardRW.obj
 0001:00028900       ?UnregisterServer@?$CAtlModuleT@VCComModule@ATL@@@ATL@@QEAAJHPEBU_GUID@@@Z 0000000180029900 f i SmartCardRW.obj
 0001:00028970       ?UnregisterServer@CAtlComModule@ATL@@QEAAJHPEBU_GUID@@@Z 0000000180029970 f i SmartCardRW.obj
 0001:000289b0       ?UnregisterServer@CComModule@ATL@@QEAAJHPEBU_GUID@@@Z 00000001800299b0 f i SmartCardRW.obj
 0001:00028aa0       ?Update@?$IOleObjectImpl@VCOPOSSmartCardRW@@@ATL@@UEAAJXZ 0000000180029aa0 f i SmartCardRW.obj
 0001:00028b10       ?UpdateRegistryFromResource@CAtlModule@ATL@@QEAAJIHPEAU_ATL_REGMAP_ENTRY@2@@Z 0000000180029b10 f i SmartCardRW.obj
 0001:00029040       ?UpdateRegistryFromResource@CAtlModule@ATL@@QEAAJPEB_WHPEAU_ATL_REGMAP_ENTRY@2@@Z 000000018002a040 f i SmartCardRW.obj
 0001:00029590       ?UpdateRegistryFromResource@CComModule@ATL@@UEAAJIHPEAU_ATL_REGMAP_ENTRY@2@@Z 000000018002a590 f i SmartCardRW.obj
 0001:000295e0       ?UpdateRegistryFromResource@CComModule@ATL@@UEAAJPEB_WHPEAU_ATL_REGMAP_ENTRY@2@@Z 000000018002a5e0 f i SmartCardRW.obj
 0001:00029630       ?UpdateRegistryFromResourceD@CComModule@ATL@@UEAAJIHPEAU_ATL_REGMAP_ENTRY@2@@Z 000000018002a630 f i SmartCardRW.obj
 0001:00029650       ?UpdateRegistryFromResourceD@CComModule@ATL@@UEAAJPEB_WHPEAU_ATL_REGMAP_ENTRY@2@@Z 000000018002a650 f i SmartCardRW.obj
 0001:00029670       ?VTFromRegType@CRegParser@ATL@@KAHPEB_WAEAG@Z 000000018002a670 f i SmartCardRW.obj
 0001:00029750       ?WindowProc@?$CWindowImplBaseT@VCWindow@ATL@@V?$CWinTraits@$0FGAAAAAA@$0A@@2@@ATL@@SA_JPEAUHWND__@@I_K_J@Z 000000018002a750 f i SmartCardRW.obj
 0001:00029a30       ?WriteToStream@CComBSTR@ATL@@QEAAJPEAUIStream@@@Z 000000018002aa30 f i SmartCardRW.obj
 0001:00029ba0       ?WriteToStream@CComVariant@ATL@@QEAAJPEAUIStream@@@Z 000000018002aba0 f i SmartCardRW.obj
 0001:00029fb0       ?WriteToStream@CComVariant@ATL@@QEAAJPEAUIStream@@G@Z 000000018002afb0 f i SmartCardRW.obj
 0001:0002a090       ?_AtlFinalConstruct@CComObjectRootBase@ATL@@QEAAJXZ 000000018002b090 f i SmartCardRW.obj
 0001:0002a0a0       ?_AtlGetConversionACP@ATL@@YAIXZ 000000018002b0a0 f i SmartCardRW.obj
 0001:0002a0b0       ?_AtlInitialConstruct@?$CComAggObject@VCOPOSSmartCardRW@@@ATL@@QEAAJXZ 000000018002b0b0 f i SmartCardRW.obj
 0001:0002a110       ?_AtlInitialConstruct@?$CComObjectRootEx@VCComMultiThreadModel@ATL@@@ATL@@QEAAJXZ 000000018002b110 f i SmartCardRW.obj
 0001:0002a150       ?_AtlInitialConstruct@?$CComObjectRootEx@VCComSingleThreadModel@ATL@@@ATL@@QEAAJXZ 000000018002b150 f i SmartCardRW.obj
 0001:0002a160       ?_AtlVerifyStackAvailable@_ATL_SAFE_ALLOCA_IMPL@ATL@@YA_N_K@Z 000000018002b160 f i SmartCardRW.obj
 0001:0002a2c0       ?_GetEntries@?$CComEnum@UIEnumConnectionPoints@@$1?_GUID_b196b285_bab4_101a_b69c_00aa00341d07@@3U__s_GUID@@BPEAUIConnectionPoint@@V?$_CopyInterface@UIConnectionPoint@@@ATL@@VCComSingleThreadModel@6@@ATL@@SAPEBU_ATL_INTMAP_ENTRY@2@XZ 000000018002b2c0 f i SmartCardRW.obj
 0001:0002a2e0       ?_GetEntries@?$CComEnum@UIEnumConnections@@$1?_GUID_b196b287_bab4_101a_b69c_00aa00341d07@@3U__s_GUID@@BUtagCONNECTDATA@@V?$_Copy@UtagCONNECTDATA@@@ATL@@VCComSingleThreadModel@6@@ATL@@SAPEBU_ATL_INTMAP_ENTRY@2@XZ 000000018002b2e0 f i SmartCardRW.obj
 0001:0002a300       ?_GetEntries@CComClassFactory@ATL@@SAPEBU_ATL_INTMAP_ENTRY@2@XZ 000000018002b300 f i SmartCardRW.obj
 0001:0002a320       ?_GetEntries@COPOSSmartCardRW@@SAPEBU_ATL_INTMAP_ENTRY@ATL@@XZ 000000018002b320 f i SmartCardRW.obj
 0001:0002a340       ?_GetRawUnknown@COPOSSmartCardRW@@QEAAPEAUIUnknown@@XZ 000000018002b340 f i SmartCardRW.obj
 0001:0002a3d0       ?_GetViewStatus@COPOSSmartCardRW@@QEAAKXZ 000000018002b3d0 f i SmartCardRW.obj
 0001:0002a3e0       ?_InternalQueryInterface@?$CComEnum@UIEnumConnectionPoints@@$1?_GUID_b196b285_bab4_101a_b69c_00aa00341d07@@3U__s_GUID@@BPEAUIConnectionPoint@@V?$_CopyInterface@UIConnectionPoint@@@ATL@@VCComSingleThreadModel@6@@ATL@@QEAAJAEBU_GUID@@PEAPEAX@Z 000000018002b3e0 f i SmartCardRW.obj
 0001:0002a430       ?_InternalQueryInterface@?$CComEnum@UIEnumConnections@@$1?_GUID_b196b287_bab4_101a_b69c_00aa00341d07@@3U__s_GUID@@BUtagCONNECTDATA@@V?$_Copy@UtagCONNECTDATA@@@ATL@@VCComSingleThreadModel@6@@ATL@@QEAAJAEBU_GUID@@PEAPEAX@Z 000000018002b430 f i SmartCardRW.obj
 0001:0002a480       ?_InternalQueryInterface@CComClassFactory@ATL@@QEAAJAEBU_GUID@@PEAPEAX@Z 000000018002b480 f i SmartCardRW.obj
 0001:0002a4d0       ?_InternalQueryInterface@COPOSSmartCardRW@@QEAAJAEBU_GUID@@PEAPEAX@Z 000000018002b4d0 f i SmartCardRW.obj
 0001:0002a520       ?_LocCPQueryInterface@?$IConnectionPointImpl@VCOPOSSmartCardRW@@$1?DIID__IOPOSSmartCardRWEvents@@3U_GUID@@BVCComDynamicUnkArray@ATL@@@ATL@@UEAAJAEBU_GUID@@PEAPEAX@Z 000000018002b520 f i SmartCardRW.obj
 0001:0002a600       ?_LocCPQueryInterface@?$IConnectionPointImpl@VCOPOSSmartCardRW@@$1?IID_IPropertyNotifySink@@3U_GUID@@BVCComDynamicUnkArray@ATL@@@ATL@@UEAAJAEBU_GUID@@PEAPEAX@Z 000000018002b600 f i SmartCardRW.obj
 0001:0002a6e0       ?atlCreate@?$CWindowImpl@VCOPOSSmartCardRW@@VCWindow@ATL@@V?$CWinTraits@$0FGAAAAAA@$0A@@3@@ATL@@QEAAPEAUHWND__@@PEAU3@V_U_RECT@2@PEB_WKKV_U_MENUorID@2@PEAX@Z 000000018002b6e0 f i SmartCardRW.obj
 0001:0002a810       ?atlCreate@?$CWindowImplBaseT@VCWindow@ATL@@V?$CWinTraits@$0FGAAAAAA@$0A@@2@@ATL@@QEAAPEAUHWND__@@PEAU3@V_U_RECT@2@PEB_WKKV_U_MENUorID@2@GPEAX@Z 000000018002b810 f i SmartCardRW.obj
 0001:0002aa70       ?atlCreate@CRegKey@ATL@@QEAAJPEAUHKEY__@@PEB_WPEA_WKKPEAU_SECURITY_ATTRIBUTES@@PEAK@Z 000000018002ba70 f i SmartCardRW.obj
 0001:0002ac60       ?begin@CComDynamicUnkArray@ATL@@QEAAPEAPEAUIUnknown@@XZ 000000018002bc60 f i SmartCardRW.obj
 0001:0002ac70       ?copy@?$_Copy@UtagCONNECTDATA@@@ATL@@SAJPEAUtagCONNECTDATA@@PEBU3@@Z 000000018002bc70 f i SmartCardRW.obj
 0001:0002ad60       ?copy@?$_CopyInterface@UIConnectionPoint@@@ATL@@SAJPEAPEAUIConnectionPoint@@PEBQEAU3@@Z 000000018002bd60 f i SmartCardRW.obj
 0001:0002ae50       ?destroy@?$_Copy@UtagCONNECTDATA@@@ATL@@SAXPEAUtagCONNECTDATA@@@Z 000000018002be50 f i SmartCardRW.obj
 0001:0002aea0       ?destroy@?$_CopyInterface@UIConnectionPoint@@@ATL@@SAXPEAPEAUIConnectionPoint@@@Z 000000018002bea0 f i SmartCardRW.obj
 0001:0002aef0       ?end@CComDynamicUnkArray@ATL@@QEAAPEAPEAUIUnknown@@XZ 000000018002bef0 f i SmartCardRW.obj
 0001:0002af10       ?init@?$_Copy@UtagCONNECTDATA@@@ATL@@SAXPEAUtagCONNECTDATA@@@Z 000000018002bf10 f i SmartCardRW.obj
 0001:0002af20       ?init@?$_CopyInterface@UIConnectionPoint@@@ATL@@SAXPEAPEAUIConnectionPoint@@@Z 000000018002bf20 f i SmartCardRW.obj
 0001:0002af30       ?memcpy_s@Checked@ATL@@YAXPEAX_KPEBX1@Z 000000018002bf30 f i SmartCardRW.obj
 0001:0002af90       ?ocscpy_s@@YA_NPEA_W_KPEB_W@Z 000000018002bf90 f i SmartCardRW.obj
 0001:0002b010       ?ocslen@@YAHPEB_W@Z        000000018002c010 f i SmartCardRW.obj
 0001:0002b050       ?tcsncpy_s@Checked@ATL@@YAHPEA_W_KPEB_W1@Z 000000018002c050 f i SmartCardRW.obj
 0001:0002b0b0       ?wcscat_s@Checked@ATL@@YAXPEA_W_KPEB_W@Z 000000018002c0b0 f i SmartCardRW.obj
 0001:0002b100       ?wcscpy_s@Checked@ATL@@YAXPEA_W_KPEB_W@Z 000000018002c100 f i SmartCardRW.obj
 0001:0002b150       ?wcsncpy_s@Checked@ATL@@YAHPEA_W_KPEB_W1@Z 000000018002c150 f i SmartCardRW.obj
 0001:0002b1b0       ?wcsstr@@YAPEA_WPEA_WPEB_W@Z 000000018002c1b0 f i SmartCardRW.obj
 0001:0002b1f0       InlineIsEqualGUID          000000018002c1f0 f i SmartCardRW.obj
 0001:0002b2c0       IsEqualGUID                000000018002c2c0 f i SmartCardRW.obj
 0001:0002b320       ??0COPOSSmartCardRW@@QEAA@XZ 000000018002c320 f   SmartCardRWImpl.obj
 0001:0002b4a0       ?FinalConstruct@COPOSSmartCardRW@@QEAAJXZ 000000018002c4a0 f   SmartCardRWImpl.obj
 0001:0002b590       ??1COPOSSmartCardRW@@UEAA@XZ 000000018002c590 f   SmartCardRWImpl.obj
 0001:0002b670       ?WriteTrace@COPOSSmartCardRW@@QEAAXPEB_WZZ 000000018002c670 f   SmartCardRWImpl.obj
 0001:0002b730       ?WriteTraceString@COPOSSmartCardRW@@QEAAXPEB_WPEA_W@Z 000000018002c730 f   SmartCardRWImpl.obj
 0001:0002bb70       ?WriteTraceString@COPOSSmartCardRW@@QEAAXPEAXHHHPEB_WZZ 000000018002cb70 f   SmartCardRWImpl.obj
 0001:0002be00       ?WriteTraceError@COPOSSmartCardRW@@QEAAXPEB_WK@Z 000000018002ce00 f   SmartCardRWImpl.obj
 0001:0002bf00       ?WriteTraceMethods@COPOSSmartCardRW@@QEAAXPEAJH@Z 000000018002cf00 f   SmartCardRWImpl.obj
 0001:0002bf90       ?GetOposProp@COPOSSmartCardRW@@IEAAJPEBDJPEAJJ@Z 000000018002cf90 f   SmartCardRWImpl.obj
 0001:0002c2b0       ?SetOposProp@COPOSSmartCardRW@@IEAAJPEBDJJJ@Z 000000018002d2b0 f   SmartCardRWImpl.obj
 0001:0002c610       ?GetOposProp@COPOSSmartCardRW@@IEAAJPEBDJPEAFJ@Z 000000018002d610 f   SmartCardRWImpl.obj
 0001:0002c6b0       ?SetOposProp@COPOSSmartCardRW@@IEAAJPEBDJFJ@Z 000000018002d6b0 f   SmartCardRWImpl.obj
 0001:0002c730       ?GetOposProp@COPOSSmartCardRW@@IEAAJPEBDJPEAPEA_WJ@Z 000000018002d730 f   SmartCardRWImpl.obj
 0001:0002ca50       ?SetOposProp@COPOSSmartCardRW@@IEAAJPEBDJPEA_WJ@Z 000000018002da50 f   SmartCardRWImpl.obj
 0001:0002ce30       ?DoInvoke@COPOSSmartCardRW@@IEAAJPEBDJPEAVOposVariant@@IHPEAJ_N@Z 000000018002de30 f   SmartCardRWImpl.obj
 0001:0002d980       ?SetCOFreezeEvents@COPOSSmartCardRW@@IEAAXF@Z 000000018002e980 f   SmartCardRWImpl.obj
 0001:0002db10       ?FreezeEvents@COPOSSmartCardRW@@MEAAJH@Z 000000018002eb10 f   SmartCardRWImpl.obj
 0001:0002dc40       ?OnDraw@COPOSSmartCardRW@@MEAAJAEAUATL_DRAWINFO@@@Z 000000018002ec40 f   SmartCardRWImpl.obj
 0001:0002de10       ?SOProcessID@COPOSSmartCardRW@@UEAAJPEAJ@Z 000000018002ee10 f   SmartCardRWImpl.obj
 0001:0002de70       ?get_OpenResult@COPOSSmartCardRW@@UEAAJPEAJ@Z 000000018002ee70 f   SmartCardRWImpl.obj
 0001:0002ded0       ?get_BinaryConversion@COPOSSmartCardRW@@UEAAJPEAJ@Z 000000018002eed0 f   SmartCardRWImpl.obj
 0001:0002df30       ?put_BinaryConversion@COPOSSmartCardRW@@UEAAJJ@Z 000000018002ef30 f   SmartCardRWImpl.obj
 0001:0002dfa0       ?get_CapPowerReporting@COPOSSmartCardRW@@UEAAJPEAJ@Z 000000018002efa0 f   SmartCardRWImpl.obj
 0001:0002e000       ?get_CheckHealthText@COPOSSmartCardRW@@UEAAJPEAPEA_W@Z 000000018002f000 f   SmartCardRWImpl.obj
 0001:0002e060       ?get_Claimed@COPOSSmartCardRW@@UEAAJPEAF@Z 000000018002f060 f   SmartCardRWImpl.obj
 0001:0002e0c0       ?get_DataCount@COPOSSmartCardRW@@UEAAJPEAJ@Z 000000018002f0c0 f   SmartCardRWImpl.obj
 0001:0002e120       ?get_DataEventEnabled@COPOSSmartCardRW@@UEAAJPEAF@Z 000000018002f120 f   SmartCardRWImpl.obj
 0001:0002e180       ?put_DataEventEnabled@COPOSSmartCardRW@@UEAAJF@Z 000000018002f180 f   SmartCardRWImpl.obj
 0001:0002e1e0       ?get_DeviceEnabled@COPOSSmartCardRW@@UEAAJPEAF@Z 000000018002f1e0 f   SmartCardRWImpl.obj
 0001:0002e240       ?put_DeviceEnabled@COPOSSmartCardRW@@UEAAJF@Z 000000018002f240 f   SmartCardRWImpl.obj
 0001:0002e2a0       ?get_FreezeEvents@COPOSSmartCardRW@@UEAAJPEAF@Z 000000018002f2a0 f   SmartCardRWImpl.obj
 0001:0002e300       ?put_FreezeEvents@COPOSSmartCardRW@@UEAAJF@Z 000000018002f300 f   SmartCardRWImpl.obj
 0001:0002e3e0       ?get_OutputID@COPOSSmartCardRW@@UEAAJPEAJ@Z 000000018002f3e0 f   SmartCardRWImpl.obj
 0001:0002e440       ?get_PowerNotify@COPOSSmartCardRW@@UEAAJPEAJ@Z 000000018002f440 f   SmartCardRWImpl.obj
 0001:0002e4a0       ?put_PowerNotify@COPOSSmartCardRW@@UEAAJJ@Z 000000018002f4a0 f   SmartCardRWImpl.obj
 0001:0002e500       ?get_PowerState@COPOSSmartCardRW@@UEAAJPEAJ@Z 000000018002f500 f   SmartCardRWImpl.obj
 0001:0002e560       ?get_ResultCode@COPOSSmartCardRW@@UEAAJPEAJ@Z 000000018002f560 f   SmartCardRWImpl.obj
 0001:0002e630       ?get_ResultCodeExtended@COPOSSmartCardRW@@UEAAJPEAJ@Z 000000018002f630 f   SmartCardRWImpl.obj
 0001:0002e690       ?get_State@COPOSSmartCardRW@@UEAAJPEAJ@Z 000000018002f690 f   SmartCardRWImpl.obj
 0001:0002e720       ?get_ControlObjectDescription@COPOSSmartCardRW@@UEAAJPEAPEA_W@Z 000000018002f720 f   SmartCardRWImpl.obj
 0001:0002e7a0       ?get_ControlObjectVersion@COPOSSmartCardRW@@UEAAJPEAJ@Z 000000018002f7a0 f   SmartCardRWImpl.obj
 0001:0002e800       ?get_ServiceObjectDescription@COPOSSmartCardRW@@UEAAJPEAPEA_W@Z 000000018002f800 f   SmartCardRWImpl.obj
 0001:0002e860       ?get_ServiceObjectVersion@COPOSSmartCardRW@@UEAAJPEAJ@Z 000000018002f860 f   SmartCardRWImpl.obj
 0001:0002e8c0       ?get_DeviceDescription@COPOSSmartCardRW@@UEAAJPEAPEA_W@Z 000000018002f8c0 f   SmartCardRWImpl.obj
 0001:0002e920       ?get_DeviceName@COPOSSmartCardRW@@UEAAJPEAPEA_W@Z 000000018002f920 f   SmartCardRWImpl.obj
 0001:0002e980       ?get_CapStatisticsReporting@COPOSSmartCardRW@@UEAAJPEAF@Z 000000018002f980 f   SmartCardRWImpl.obj
 0001:0002e9e0       ?get_CapUpdateStatistics@COPOSSmartCardRW@@UEAAJPEAF@Z 000000018002f9e0 f   SmartCardRWImpl.obj
 0001:0002ea40       ?CheckHealth@COPOSSmartCardRW@@UEAAJJPEAJ@Z 000000018002fa40 f   SmartCardRWImpl.obj
 0001:0002eb00       ?ClaimDevice@COPOSSmartCardRW@@UEAAJJPEAJ@Z 000000018002fb00 f   SmartCardRWImpl.obj
 0001:0002ec20       ?ClearInput@COPOSSmartCardRW@@UEAAJPEAJ@Z 000000018002fc20 f   SmartCardRWImpl.obj
 0001:0002ec90       ?ClearOutput@COPOSSmartCardRW@@UEAAJPEAJ@Z 000000018002fc90 f   SmartCardRWImpl.obj
 0001:0002ed00       ?Close@COPOSSmartCardRW@@UEAAJPEAJ@Z 000000018002fd00 f   SmartCardRWImpl.obj
 0001:0002ee10       ?DirectIO@COPOSSmartCardRW@@UEAAJJPEAJPEAPEA_W0@Z 000000018002fe10 f   SmartCardRWImpl.obj
 0001:0002ef90       ?Open@COPOSSmartCardRW@@UEAAJPEA_WPEAJ@Z 000000018002ff90 f   SmartCardRWImpl.obj
 0001:00030470       ?ReleaseDevice@COPOSSmartCardRW@@UEAAJPEAJ@Z 0000000180031470 f   SmartCardRWImpl.obj
 0001:00030520       ?ResetStatistics@COPOSSmartCardRW@@UEAAJPEA_WPEAJ@Z 0000000180031520 f   SmartCardRWImpl.obj
 0001:00030600       ?RetrieveStatistics@COPOSSmartCardRW@@UEAAJPEAPEA_WPEAJ@Z 0000000180031600 f   SmartCardRWImpl.obj
 0001:000306e0       ?UpdateStatistics@COPOSSmartCardRW@@UEAAJPEA_WPEAJ@Z 00000001800316e0 f   SmartCardRWImpl.obj
 0001:000307c0       ?get_CapCardErrorDetection@COPOSSmartCardRW@@UEAAJPEAF@Z 00000001800317c0 f   SmartCardRWImpl.obj
 0001:00030820       ?get_CapInterfaceMode@COPOSSmartCardRW@@UEAAJPEAJ@Z 0000000180031820 f   SmartCardRWImpl.obj
 0001:00030880       ?get_CapIsoEmvMode@COPOSSmartCardRW@@UEAAJPEAJ@Z 0000000180031880 f   SmartCardRWImpl.obj
 0001:000308e0       ?get_CapSCPresentSensor@COPOSSmartCardRW@@UEAAJPEAJ@Z 00000001800318e0 f   SmartCardRWImpl.obj
 0001:00030940       ?get_CapSCSlots@COPOSSmartCardRW@@UEAAJPEAJ@Z 0000000180031940 f   SmartCardRWImpl.obj
 0001:000309a0       ?get_CapTransmissionProtocol@COPOSSmartCardRW@@UEAAJPEAJ@Z 00000001800319a0 f   SmartCardRWImpl.obj
 0001:00030a00       ?get_InterfaceMode@COPOSSmartCardRW@@UEAAJPEAJ@Z 0000000180031a00 f   SmartCardRWImpl.obj
 0001:00030a60       ?put_InterfaceMode@COPOSSmartCardRW@@UEAAJJ@Z 0000000180031a60 f   SmartCardRWImpl.obj
 0001:00030ac0       ?get_IsoEmvMode@COPOSSmartCardRW@@UEAAJPEAJ@Z 0000000180031ac0 f   SmartCardRWImpl.obj
 0001:00030b20       ?put_IsoEmvMode@COPOSSmartCardRW@@UEAAJJ@Z 0000000180031b20 f   SmartCardRWImpl.obj
 0001:00030b80       ?get_SCPresentSensor@COPOSSmartCardRW@@UEAAJPEAJ@Z 0000000180031b80 f   SmartCardRWImpl.obj
 0001:00030be0       ?get_SCSlot@COPOSSmartCardRW@@UEAAJPEAJ@Z 0000000180031be0 f   SmartCardRWImpl.obj
 0001:00030c40       ?put_SCSlot@COPOSSmartCardRW@@UEAAJJ@Z 0000000180031c40 f   SmartCardRWImpl.obj
 0001:00030ca0       ?get_TransactionInProgress@COPOSSmartCardRW@@UEAAJPEAF@Z 0000000180031ca0 f   SmartCardRWImpl.obj
 0001:00030d00       ?get_TransmissionProtocol@COPOSSmartCardRW@@UEAAJPEAJ@Z 0000000180031d00 f   SmartCardRWImpl.obj
 0001:00030d60       ?BeginInsertion@COPOSSmartCardRW@@UEAAJJPEAJ@Z 0000000180031d60 f   SmartCardRWImpl.obj
 0001:00030e20       ?BeginRemoval@COPOSSmartCardRW@@UEAAJJPEAJ@Z 0000000180031e20 f   SmartCardRWImpl.obj
 0001:00030ee0       ?EndInsertion@COPOSSmartCardRW@@UEAAJPEAJ@Z 0000000180031ee0 f   SmartCardRWImpl.obj
 0001:00030f50       ?EndRemoval@COPOSSmartCardRW@@UEAAJPEAJ@Z 0000000180031f50 f   SmartCardRWImpl.obj
 0001:00030fc0       ?ReadData@COPOSSmartCardRW@@UEAAJJPEAJPEAPEA_W0@Z 0000000180031fc0 f   SmartCardRWImpl.obj
 0001:00031140       ?WriteData@COPOSSmartCardRW@@UEAAJJJPEA_WPEAJ@Z 0000000180032140 f   SmartCardRWImpl.obj
 0001:000312b0       ?get_CapCompareFirmwareVersion@COPOSSmartCardRW@@UEAAJPEAF@Z 00000001800322b0 f   SmartCardRWImpl.obj
 0001:00031310       ?get_CapUpdateFirmware@COPOSSmartCardRW@@UEAAJPEAF@Z 0000000180032310 f   SmartCardRWImpl.obj
 0001:00031370       ?CompareFirmwareVersion@COPOSSmartCardRW@@UEAAJPEA_WPEAJ1@Z 0000000180032370 f   SmartCardRWImpl.obj
 0001:000314b0       ?UpdateFirmware@COPOSSmartCardRW@@UEAAJPEA_WPEAJ@Z 00000001800324b0 f   SmartCardRWImpl.obj
 0001:00031590       ?ClearInputProperties@COPOSSmartCardRW@@UEAAJPEAJ@Z 0000000180032590 f   SmartCardRWImpl.obj
 0001:000315f0       ??0?$CComControl@VCOPOSSmartCardRW@@V?$CWindowImpl@VCOPOSSmartCardRW@@VCWindow@ATL@@V?$CWinTraits@$0FGAAAAAA@$0A@@3@@ATL@@@ATL@@QEAA@XZ 00000001800325f0 f i SmartCardRWImpl.obj
 0001:00031640       ??0?$CComPtr@UIAdviseSink@@@ATL@@QEAA@XZ 0000000180032640 f i SmartCardRWImpl.obj
 0001:00031680       ??0?$CComPtr@UIDataAdviseHolder@@@ATL@@QEAA@XZ 0000000180032680 f i SmartCardRWImpl.obj
 0001:000316c0       ??0?$CComPtr@UIOleAdviseHolder@@@ATL@@QEAA@XZ 00000001800326c0 f i SmartCardRWImpl.obj
 0001:00031700       ??0?$CComPtr@UIOleClientSite@@@ATL@@QEAA@XZ 0000000180032700 f i SmartCardRWImpl.obj
 0001:00031740       ??0?$CComPtr@UIOleInPlaceSiteWindowless@@@ATL@@QEAA@XZ 0000000180032740 f i SmartCardRWImpl.obj
 0001:00031780       ??0?$CComPtrBase@UIAdviseSink@@@ATL@@IEAA@XZ 0000000180032780 f i SmartCardRWImpl.obj
 0001:000317a0       ??0?$CComPtrBase@UIDataAdviseHolder@@@ATL@@IEAA@XZ 00000001800327a0 f i SmartCardRWImpl.obj
 0001:000317c0       ??0?$CComPtrBase@UIOleAdviseHolder@@@ATL@@IEAA@XZ 00000001800327c0 f i SmartCardRWImpl.obj
 0001:000317e0       ??0?$CComPtrBase@UIOleClientSite@@@ATL@@IEAA@XZ 00000001800327e0 f i SmartCardRWImpl.obj
 0001:00031800       ??0?$CComPtrBase@UIOleInPlaceSiteWindowless@@@ATL@@IEAA@XZ 0000000180032800 f i SmartCardRWImpl.obj
 0001:00031820       ??0?$CComQIPtr@UIDispatch@@$1?_GUID_00020400_0000_0000_c000_000000000046@@3U__s_GUID@@B@ATL@@QEAA@XZ 0000000180032820 f i SmartCardRWImpl.obj
 0001:00031860       ??0?$CProxy_IOPOSEvents@VCOPOSSmartCardRW@@@@QEAA@PEAVCOPOSSmartCardRW@@@Z 0000000180032860 f i SmartCardRWImpl.obj
 0001:00031900       ??0?$CWindowImpl@VCOPOSSmartCardRW@@VCWindow@ATL@@V?$CWinTraits@$0FGAAAAAA@$0A@@3@@ATL@@QEAA@XZ 0000000180032900 f i SmartCardRWImpl.obj
 0001:00031940       ??0?$CWindowImplBaseT@VCWindow@ATL@@V?$CWinTraits@$0FGAAAAAA@$0A@@2@@ATL@@QEAA@XZ 0000000180032940 f i SmartCardRWImpl.obj
 0001:00031990       ??0?$CWindowImplRoot@VCWindow@ATL@@@ATL@@QEAA@XZ 0000000180032990 f i SmartCardRWImpl.obj
 0001:00031a00       ??0?$IConnectionPointContainerImpl@VCOPOSSmartCardRW@@@ATL@@QEAA@XZ 0000000180032a00 f i SmartCardRWImpl.obj
 0001:00031a40       ??0?$IConnectionPointImpl@VCOPOSSmartCardRW@@$1?DIID__IOPOSSmartCardRWEvents@@3U_GUID@@BVCComDynamicUnkArray@ATL@@@ATL@@QEAA@XZ 0000000180032a40 f i SmartCardRWImpl.obj
 0001:00031a90       ??0?$IConnectionPointImpl@VCOPOSSmartCardRW@@$1?IID_IPropertyNotifySink@@3U_GUID@@BVCComDynamicUnkArray@ATL@@@ATL@@QEAA@XZ 0000000180032a90 f i SmartCardRWImpl.obj
 0001:00031ae0       ??0?$IDataObjectImpl@VCOPOSSmartCardRW@@@ATL@@QEAA@XZ 0000000180032ae0 f i SmartCardRWImpl.obj
 0001:00031b20       ??0?$IDispatchImpl@UIOPOSSmartCardRW@@$1?IID_IOPOSSmartCardRW@@3U_GUID@@B$1?LIBID_OposSmartCardRW_CCO@@3U3@B$00$0A@VCComTypeInfoHolder@ATL@@@ATL@@QEAA@XZ 0000000180032b20 f i SmartCardRWImpl.obj
 0001:00031b60       ??0?$IObjectSafetyImpl@VCOPOSSmartCardRW@@$02@ATL@@QEAA@XZ 0000000180032b60 f i SmartCardRWImpl.obj
 0001:00031ba0       ??0?$IOleControlImpl@VCOPOSSmartCardRW@@@ATL@@QEAA@XZ 0000000180032ba0 f i SmartCardRWImpl.obj
 0001:00031be0       ??0?$IOleInPlaceActiveObjectImpl@VCOPOSSmartCardRW@@@ATL@@QEAA@XZ 0000000180032be0 f i SmartCardRWImpl.obj
 0001:00031c20       ??0?$IOleInPlaceObjectWindowlessImpl@VCOPOSSmartCardRW@@@ATL@@QEAA@XZ 0000000180032c20 f i SmartCardRWImpl.obj
 0001:00031c60       ??0?$IOleObjectImpl@VCOPOSSmartCardRW@@@ATL@@QEAA@XZ 0000000180032c60 f i SmartCardRWImpl.obj
 0001:00031ca0       ??0?$IPersistStorageImpl@VCOPOSSmartCardRW@@@ATL@@QEAA@XZ 0000000180032ca0 f i SmartCardRWImpl.obj
 0001:00031ce0       ??0?$IPersistStreamInitImpl@VCOPOSSmartCardRW@@@ATL@@QEAA@XZ 0000000180032ce0 f i SmartCardRWImpl.obj
 0001:00031d20       ??0?$IPropertyNotifySinkCP@VCOPOSSmartCardRW@@VCComDynamicUnkArray@ATL@@@ATL@@QEAA@XZ 0000000180032d20 f i SmartCardRWImpl.obj
 0001:00031d60       ??0?$IProvideClassInfo2Impl@$1?CLSID_OPOSSmartCardRW@@3U_GUID@@B$1?DIID__IOPOSSmartCardRWEvents@@3U2@B$1?LIBID_OposSmartCardRW_CCO@@3U2@B$00$0A@VCComTypeInfoHolder@ATL@@@ATL@@QEAA@XZ 0000000180032d60 f i SmartCardRWImpl.obj
 0001:00031da0       ??0?$IQuickActivateImpl@VCOPOSSmartCardRW@@@ATL@@QEAA@XZ 0000000180032da0 f i SmartCardRWImpl.obj
 0001:00031de0       ??0?$ISpecifyPropertyPagesImpl@VCOPOSSmartCardRW@@@ATL@@QEAA@XZ 0000000180032de0 f i SmartCardRWImpl.obj
 0001:00031e20       ??0?$IViewObjectExImpl@VCOPOSSmartCardRW@@@ATL@@QEAA@XZ 0000000180032e20 f i SmartCardRWImpl.obj
 0001:00031e60       ??0?$_ICPLocator@$1?DIID__IOPOSSmartCardRWEvents@@3U_GUID@@B@ATL@@QEAA@XZ 0000000180032e60 f i SmartCardRWImpl.obj
 0001:00031e70       ??0?$_ICPLocator@$1?IID_IPropertyNotifySink@@3U_GUID@@B@ATL@@QEAA@XZ 0000000180032e70 f i SmartCardRWImpl.obj
 0001:00031e80       ??0CComControlBase@ATL@@QEAA@AEAPEAUHWND__@@@Z 0000000180032e80 f i SmartCardRWImpl.obj
 0001:000320a0       ??0CComDynamicUnkArray@ATL@@QEAA@XZ 00000001800330a0 f i SmartCardRWImpl.obj
 0001:000320d0       ??0CDynamicStdCallThunk2@ATL@@QEAA@XZ 00000001800330d0 f i SmartCardRWImpl.obj
 0001:000320f0       ??0CMessageMap@ATL@@QEAA@XZ 00000001800330f0 f i SmartCardRWImpl.obj
 0001:00032100       ??0CWindow@ATL@@QEAA@PEAUHWND__@@@Z 0000000180033100 f i SmartCardRWImpl.obj
 0001:00032120       ??0CWndProcThunk@ATL@@QEAA@XZ 0000000180033120 f i SmartCardRWImpl.obj
 0001:00032160       ??0IConnectionPointContainer@@QEAA@XZ 0000000180033160 f i SmartCardRWImpl.obj
 0001:000321a0       ??0IDataObject@@QEAA@XZ    00000001800331a0 f i SmartCardRWImpl.obj
 0001:000321e0       ??0IDispatch@@QEAA@XZ      00000001800331e0 f i SmartCardRWImpl.obj
 0001:00032220       ??0IOPOSSmartCardRW@@QEAA@XZ 0000000180033220 f i SmartCardRWImpl.obj
 0001:00032260       ??0IOPOSSmartCardRW_1_10@@QEAA@XZ 0000000180033260 f i SmartCardRWImpl.obj
 0001:000322a0       ??0IOPOSSmartCardRW_1_8@@QEAA@XZ 00000001800332a0 f i SmartCardRWImpl.obj
 0001:000322e0       ??0IOPOSSmartCardRW_1_9@@QEAA@XZ 00000001800332e0 f i SmartCardRWImpl.obj
 0001:00032320       ??0IObjectSafety@@QEAA@XZ  0000000180033320 f i SmartCardRWImpl.obj
 0001:00032360       ??0IOleControl@@QEAA@XZ    0000000180033360 f i SmartCardRWImpl.obj
 0001:000323a0       ??0IOleInPlaceActiveObject@@QEAA@XZ 00000001800333a0 f i SmartCardRWImpl.obj
 0001:000323e0       ??0IOleInPlaceObject@@QEAA@XZ 00000001800333e0 f i SmartCardRWImpl.obj
 0001:00032420       ??0IOleInPlaceObjectWindowless@@QEAA@XZ 0000000180033420 f i SmartCardRWImpl.obj
 0001:00032460       ??0IOleObject@@QEAA@XZ     0000000180033460 f i SmartCardRWImpl.obj
 0001:000324a0       ??0IOleWindow@@QEAA@XZ     00000001800334a0 f i SmartCardRWImpl.obj
 0001:000324e0       ??0IPersist@@QEAA@XZ       00000001800334e0 f i SmartCardRWImpl.obj
 0001:00032520       ??0IPersistStorage@@QEAA@XZ 0000000180033520 f i SmartCardRWImpl.obj
 0001:00032560       ??0IPersistStreamInit@@QEAA@XZ 0000000180033560 f i SmartCardRWImpl.obj
 0001:000325a0       ??0IProvideClassInfo2@@QEAA@XZ 00000001800335a0 f i SmartCardRWImpl.obj
 0001:000325e0       ??0IProvideClassInfo@@QEAA@XZ 00000001800335e0 f i SmartCardRWImpl.obj
 0001:00032620       ??0IQuickActivate@@QEAA@XZ 0000000180033620 f i SmartCardRWImpl.obj
 0001:00032660       ??0ISpecifyPropertyPages@@QEAA@XZ 0000000180033660 f i SmartCardRWImpl.obj
 0001:000326a0       ??0IViewObject2@@QEAA@XZ   00000001800336a0 f i SmartCardRWImpl.obj
 0001:000326e0       ??0IViewObject@@QEAA@XZ    00000001800336e0 f i SmartCardRWImpl.obj
 0001:00032720       ??0IViewObjectEx@@QEAA@XZ  0000000180033720 f i SmartCardRWImpl.obj
 0001:00032760       ??0OposVariantResult@@QEAA@XZ 0000000180033760 f i SmartCardRWImpl.obj
 0001:000327a0       ??0_CW@@QEAA@PEBD@Z        00000001800337a0 f i SmartCardRWImpl.obj
 0001:000327f0       ??0_CW@@QEAA@PEB_W@Z       00000001800337f0 f i SmartCardRWImpl.obj
 0001:00032840       ??0_CWNCC@@QEAA@PEBD@Z     0000000180033840 f i SmartCardRWImpl.obj
 0001:00032880       ??1?$CComControl@VCOPOSSmartCardRW@@V?$CWindowImpl@VCOPOSSmartCardRW@@VCWindow@ATL@@V?$CWinTraits@$0FGAAAAAA@$0A@@3@@ATL@@@ATL@@UEAA@XZ 0000000180033880 f i SmartCardRWImpl.obj
 0001:000328c0       ??1?$CComPtr@UIDataAdviseHolder@@@ATL@@QEAA@XZ 00000001800338c0 f i SmartCardRWImpl.obj
 0001:000328f0       ??1?$CComPtr@UIOleAdviseHolder@@@ATL@@QEAA@XZ 00000001800338f0 f i SmartCardRWImpl.obj
 0001:00032920       ??1?$CComPtr@UIOleInPlaceSiteWindowless@@@ATL@@QEAA@XZ 0000000180033920 f i SmartCardRWImpl.obj
 0001:00032950       ??1?$CComPtrBase@UIDataAdviseHolder@@@ATL@@QEAA@XZ 0000000180033950 f i SmartCardRWImpl.obj
 0001:000329a0       ??1?$CComPtrBase@UIOleAdviseHolder@@@ATL@@QEAA@XZ 00000001800339a0 f i SmartCardRWImpl.obj
 0001:000329f0       ??1?$CComPtrBase@UIOleInPlaceSiteWindowless@@@ATL@@QEAA@XZ 00000001800339f0 f i SmartCardRWImpl.obj
 0001:00032a40       ??1?$CComQIPtr@UIDispatch@@$1?_GUID_00020400_0000_0000_c000_000000000046@@3U__s_GUID@@B@ATL@@QEAA@XZ 0000000180033a40 f i SmartCardRWImpl.obj
 0001:00032a70       ??1?$CProxy_IOPOSEvents@VCOPOSSmartCardRW@@@@QEAA@XZ 0000000180033a70 f i SmartCardRWImpl.obj
 0001:00032aa0       ??1?$CWindowImpl@VCOPOSSmartCardRW@@VCWindow@ATL@@V?$CWinTraits@$0FGAAAAAA@$0A@@3@@ATL@@UEAA@XZ 0000000180033aa0 f i SmartCardRWImpl.obj
 0001:00032ad0       ??1?$CWindowImplBaseT@VCWindow@ATL@@V?$CWinTraits@$0FGAAAAAA@$0A@@2@@ATL@@UEAA@XZ 0000000180033ad0 f i SmartCardRWImpl.obj
 0001:00032b00       ??1?$CWindowImplRoot@VCWindow@ATL@@@ATL@@UEAA@XZ 0000000180033b00 f i SmartCardRWImpl.obj
 0001:00032bc0       ??1?$IConnectionPointImpl@VCOPOSSmartCardRW@@$1?DIID__IOPOSSmartCardRWEvents@@3U_GUID@@BVCComDynamicUnkArray@ATL@@@ATL@@QEAA@XZ 0000000180033bc0 f i SmartCardRWImpl.obj
 0001:00032c60       ??1?$IConnectionPointImpl@VCOPOSSmartCardRW@@$1?IID_IPropertyNotifySink@@3U_GUID@@BVCComDynamicUnkArray@ATL@@@ATL@@QEAA@XZ 0000000180033c60 f i SmartCardRWImpl.obj
 0001:00032d00       ??1?$IPropertyNotifySinkCP@VCOPOSSmartCardRW@@VCComDynamicUnkArray@ATL@@@ATL@@QEAA@XZ 0000000180033d00 f i SmartCardRWImpl.obj
 0001:00032d30       ??1CComControlBase@ATL@@UEAA@XZ 0000000180033d30 f i SmartCardRWImpl.obj
 0001:00032e20       ??1CComDynamicUnkArray@ATL@@QEAA@XZ 0000000180033e20 f i SmartCardRWImpl.obj
 0001:00032e60       ??1CDynamicStdCallThunk2@ATL@@QEAA@XZ 0000000180033e60 f i SmartCardRWImpl.obj
 0001:00032ea0       ??1CWndProcThunk@ATL@@QEAA@XZ 0000000180033ea0 f i SmartCardRWImpl.obj
 0001:00032ee0       ??1OposVariantResult@@QEAA@XZ 0000000180033ee0 f i SmartCardRWImpl.obj
 0001:00032f20       ??1_CW@@QEAA@XZ            0000000180033f20 f i SmartCardRWImpl.obj
 0001:00032fa0       ??1_CWNCC@@QEAA@XZ         0000000180033fa0 f i SmartCardRWImpl.obj
 0001:00032fd0       ??B_CW@@QEAAPEB_WXZ        0000000180033fd0 f i SmartCardRWImpl.obj
 0001:00033020       ??B_CWNCC@@QEAAPEA_WXZ     0000000180034020 f i SmartCardRWImpl.obj
 0001:00033050       ??_EOposVariant@@QEAAPEAXI@Z 0000000180034050 f i SmartCardRWImpl.obj
 0001:00033100       ?EventClaim@COPOSSmartCardRW@@IEAAXXZ 0000000180034100 f i SmartCardRWImpl.obj
 0001:00033150       ?EventClose@COPOSSmartCardRW@@IEAAXXZ 0000000180034150 f i SmartCardRWImpl.obj
 0001:000331f0       ?EventInit@COPOSSmartCardRW@@IEAAJXZ 00000001800341f0 f i SmartCardRWImpl.obj
 0001:000334a0       ?EventOpen@COPOSSmartCardRW@@IEAAXXZ 00000001800344a0 f i SmartCardRWImpl.obj
 0001:000334e0       ?EventPreCloseRelease@COPOSSmartCardRW@@IEAAXXZ 00000001800344e0 f i SmartCardRWImpl.obj
 0001:00033560       ?EventUninit@COPOSSmartCardRW@@IEAAXXZ 0000000180034560 f i SmartCardRWImpl.obj
 0001:00033690       ?EventWindowProc@COPOSSmartCardRW@@IEAA_JI_K_J@Z 0000000180034690 f i SmartCardRWImpl.obj
 0001:000338c0       ?FireEventCleanup@COPOSSmartCardRW@@IEAAXXZ 00000001800348c0 f i SmartCardRWImpl.obj
 0001:00033910       ?FireEventSetup@COPOSSmartCardRW@@IEAA_NXZ 0000000180034910 f i SmartCardRWImpl.obj
 0001:00033990       ?GetModuleInstance@CComModule@ATL@@QEAAPEAUHINSTANCE__@@XZ 0000000180034990 f i SmartCardRWImpl.obj
 0001:000339a0       ?SetRC@COPOSSmartCardRW@@IEAAJJ@Z 00000001800349a0 f i SmartCardRWImpl.obj
 0001:000339c0       ?s_EventWindowProc@COPOSSmartCardRW@@KA_JPEAUHWND__@@I_K_J@Z 00000001800349c0 f i SmartCardRWImpl.obj
 0001:00033a70       _snwprintf                 0000000180034a70 f i SmartCardRWImpl.obj
 0001:00033b00       _vfwprintf_l               0000000180034b00 f i SmartCardRWImpl.obj
 0001:00033b60       _vsnwprintf                0000000180034b60 f i SmartCardRWImpl.obj
 0001:00033bc0       _vsnwprintf_l              0000000180034bc0 f i SmartCardRWImpl.obj
 0001:00033c50       vfwprintf                  0000000180034c50 f i SmartCardRWImpl.obj
 0001:00033c95       DebugBreak                 0000000180034c95 f   kernel32:KERNEL32.dll
 0001:00033c9b       Sleep                      0000000180034c9b f   kernel32:KERNEL32.dll
 0001:00033ca1       GetCurrentProcess          0000000180034ca1 f   kernel32:KERNEL32.dll
 0001:00033ca7       TerminateProcess           0000000180034ca7 f   kernel32:KERNEL32.dll
 0001:00033cad       MultiByteToWideChar        0000000180034cad f   kernel32:KERNEL32.dll
 0001:00033cb3       WideCharToMultiByte        0000000180034cb3 f   kernel32:KERNEL32.dll
 0001:00033cb9       DecodePointer              0000000180034cb9 f   kernel32:KERNEL32.dll
 0001:00033cbf       RaiseException             0000000180034cbf f   kernel32:KERNEL32.dll
 0001:00033cc5       GetLastError               0000000180034cc5 f   kernel32:KERNEL32.dll
 0001:00033ccb       SetLastError               0000000180034ccb f   kernel32:KERNEL32.dll
 0001:00033cd1       InitializeCriticalSectionEx 0000000180034cd1 f   kernel32:KERNEL32.dll
 0001:00033cd7       DeleteCriticalSection      0000000180034cd7 f   kernel32:KERNEL32.dll
 0001:00033cdd       EncodePointer              0000000180034cdd f   kernel32:KERNEL32.dll
 0001:00033ce3       EnterCriticalSection       0000000180034ce3 f   kernel32:KERNEL32.dll
 0001:00033ce9       LeaveCriticalSection       0000000180034ce9 f   kernel32:KERNEL32.dll
 0001:00033cef       ResetEvent                 0000000180034cef f   kernel32:KERNEL32.dll
 0001:00033cf5       ReleaseMutex               0000000180034cf5 f   kernel32:KERNEL32.dll
 0001:00033cfb       WaitForSingleObject        0000000180034cfb f   kernel32:KERNEL32.dll
 0001:00033d01       GetCurrentThreadId         0000000180034d01 f   kernel32:KERNEL32.dll
 0001:00033d07       DisableThreadLibraryCalls  0000000180034d07 f   kernel32:KERNEL32.dll
 0001:00033d0d       FreeLibrary                0000000180034d0d f   kernel32:KERNEL32.dll
 0001:00033d13       GetModuleFileNameW         0000000180034d13 f   kernel32:KERNEL32.dll
 0001:00033d19       GetModuleHandleW           0000000180034d19 f   kernel32:KERNEL32.dll
 0001:00033d1f       GetProcAddress             0000000180034d1f f   kernel32:KERNEL32.dll
 0001:00033d25       LoadLibraryExW             0000000180034d25 f   kernel32:KERNEL32.dll
 0001:00033d2b       LoadResource               0000000180034d2b f   kernel32:KERNEL32.dll
 0001:00033d31       SizeofResource             0000000180034d31 f   kernel32:KERNEL32.dll
 0001:00033d37       FindResourceW              0000000180034d37 f   kernel32:KERNEL32.dll
 0001:00033d3d       GlobalAlloc                0000000180034d3d f   kernel32:KERNEL32.dll
 0001:00033d43       GlobalUnlock               0000000180034d43 f   kernel32:KERNEL32.dll
 0001:00033d49       GlobalLock                 0000000180034d49 f   kernel32:KERNEL32.dll
 0001:00033d4f       MulDiv                     0000000180034d4f f   kernel32:KERNEL32.dll
 0001:00033d55       lstrcmpiW                  0000000180034d55 f   kernel32:KERNEL32.dll
 0001:00033d5b       DeleteFileW                0000000180034d5b f   kernel32:KERNEL32.dll
 0001:00033d61       CloseHandle                0000000180034d61 f   kernel32:KERNEL32.dll
 0001:00033d67       SetEvent                   0000000180034d67 f   kernel32:KERNEL32.dll
 0001:00033d6d       CreateMutexW               0000000180034d6d f   kernel32:KERNEL32.dll
 0001:00033d73       CreateEventW               0000000180034d73 f   kernel32:KERNEL32.dll
 0001:00033d79       GetCurrentProcessId        0000000180034d79 f   kernel32:KERNEL32.dll
 0001:00033d7f       LocalFree                  0000000180034d7f f   kernel32:KERNEL32.dll
 0001:00033d85       FormatMessageW             0000000180034d85 f   kernel32:KERNEL32.dll
 0001:00033d8b       GetActiveWindow            0000000180034d8b f   user32:USER32.dll
 0001:00033d91       MessageBoxW                0000000180034d91 f   user32:USER32.dll
 0001:00033d97       UnregisterClassW           0000000180034d97 f   user32:USER32.dll
 0001:00033d9d       PostMessageW               0000000180034d9d f   user32:USER32.dll
 0001:00033da3       DefWindowProcW             0000000180034da3 f   user32:USER32.dll
 0001:00033da9       CallWindowProcW            0000000180034da9 f   user32:USER32.dll
 0001:00033daf       RegisterClassExW           0000000180034daf f   user32:USER32.dll
 0001:00033db5       GetClassInfoExW            0000000180034db5 f   user32:USER32.dll
 0001:00033dbb       CreateWindowExW            0000000180034dbb f   user32:USER32.dll
 0001:00033dc1       IsWindow                   0000000180034dc1 f   user32:USER32.dll
 0001:00033dc7       IsChild                    0000000180034dc7 f   user32:USER32.dll
 0001:00033dcd       DestroyWindow              0000000180034dcd f   user32:USER32.dll
 0001:00033dd3       ShowWindow                 0000000180034dd3 f   user32:USER32.dll
 0001:00033dd9       SetWindowPos               0000000180034dd9 f   user32:USER32.dll
 0001:00033ddf       CharNextW                  0000000180034ddf f   user32:USER32.dll
 0001:00033de5       SetFocus                   0000000180034de5 f   user32:USER32.dll
 0001:00033deb       GetFocus                   0000000180034deb f   user32:USER32.dll
 0001:00033df1       GetKeyState                0000000180034df1 f   user32:USER32.dll
 0001:00033df7       GetDC                      0000000180034df7 f   user32:USER32.dll
 0001:00033dfd       ReleaseDC                  0000000180034dfd f   user32:USER32.dll
 0001:00033e03       BeginPaint                 0000000180034e03 f   user32:USER32.dll
 0001:00033e09       EndPaint                   0000000180034e09 f   user32:USER32.dll
 0001:00033e0f       SetWindowRgn               0000000180034e0f f   user32:USER32.dll
 0001:00033e15       InvalidateRect             0000000180034e15 f   user32:USER32.dll
 0001:00033e1b       GetClientRect              0000000180034e1b f   user32:USER32.dll
 0001:00033e21       IntersectRect              0000000180034e21 f   user32:USER32.dll
 0001:00033e27       UnionRect                  0000000180034e27 f   user32:USER32.dll
 0001:00033e2d       OffsetRect                 0000000180034e2d f   user32:USER32.dll
 0001:00033e33       EqualRect                  0000000180034e33 f   user32:USER32.dll
 0001:00033e39       PtInRect                   0000000180034e39 f   user32:USER32.dll
 0001:00033e3f       GetWindowLongPtrW          0000000180034e3f f   user32:USER32.dll
 0001:00033e45       SetWindowLongPtrW          0000000180034e45 f   user32:USER32.dll
 0001:00033e4b       GetParent                  0000000180034e4b f   user32:USER32.dll
 0001:00033e51       LoadCursorW                0000000180034e51 f   user32:USER32.dll
 0001:00033e57       PeekMessageW               0000000180034e57 f   user32:USER32.dll
 0001:00033e5d       RegisterClassW             0000000180034e5d f   user32:USER32.dll
 0001:00033e63       LoadBitmapW                0000000180034e63 f   user32:USER32.dll
 0001:00033e69       CloseMetaFile              0000000180034e69 f   gdi32:GDI32.dll
 0001:00033e6f       CreateDCW                  0000000180034e6f f   gdi32:GDI32.dll
 0001:00033e75       CreateMetaFileW            0000000180034e75 f   gdi32:GDI32.dll
 0001:00033e7b       CreateRectRgnIndirect      0000000180034e7b f   gdi32:GDI32.dll
 0001:00033e81       DeleteDC                   0000000180034e81 f   gdi32:GDI32.dll
 0001:00033e87       DeleteMetaFile             0000000180034e87 f   gdi32:GDI32.dll
 0001:00033e8d       GetDeviceCaps              0000000180034e8d f   gdi32:GDI32.dll
 0001:00033e93       RestoreDC                  0000000180034e93 f   gdi32:GDI32.dll
 0001:00033e99       SaveDC                     0000000180034e99 f   gdi32:GDI32.dll
 0001:00033e9f       SetMapMode                 0000000180034e9f f   gdi32:GDI32.dll
 0001:00033ea5       LPtoDP                     0000000180034ea5 f   gdi32:GDI32.dll
 0001:00033eab       SetViewportOrgEx           0000000180034eab f   gdi32:GDI32.dll
 0001:00033eb1       SetWindowExtEx             0000000180034eb1 f   gdi32:GDI32.dll
 0001:00033eb7       SetWindowOrgEx             0000000180034eb7 f   gdi32:GDI32.dll
 0001:00033ebd       BitBlt                     0000000180034ebd f   gdi32:GDI32.dll
 0001:00033ec3       CreateCompatibleDC         0000000180034ec3 f   gdi32:GDI32.dll
 0001:00033ec9       DeleteObject               0000000180034ec9 f   gdi32:GDI32.dll
 0001:00033ecf       SelectObject               0000000180034ecf f   gdi32:GDI32.dll
 0001:00033ed5       GetObjectW                 0000000180034ed5 f   gdi32:GDI32.dll
 0001:00033edb       RegCloseKey                0000000180034edb f   advapi32:ADVAPI32.dll
 0001:00033ee1       RegCreateKeyExW            0000000180034ee1 f   advapi32:ADVAPI32.dll
 0001:00033ee7       RegDeleteKeyW              0000000180034ee7 f   advapi32:ADVAPI32.dll
 0001:00033eed       RegDeleteValueW            0000000180034eed f   advapi32:ADVAPI32.dll
 0001:00033ef3       RegEnumKeyExW              0000000180034ef3 f   advapi32:ADVAPI32.dll
 0001:00033ef9       RegOpenKeyExW              0000000180034ef9 f   advapi32:ADVAPI32.dll
 0001:00033eff       RegQueryInfoKeyW           0000000180034eff f   advapi32:ADVAPI32.dll
 0001:00033f05       RegSetValueExW             0000000180034f05 f   advapi32:ADVAPI32.dll
 0001:00033f0b       RegQueryValueExW           0000000180034f0b f   advapi32:ADVAPI32.dll
 0001:00033f11       CoCreateInstance           0000000180034f11 f   ole32:ole32.dll
 0001:00033f17       StringFromGUID2            0000000180034f17 f   ole32:ole32.dll
 0001:00033f1d       CoTaskMemAlloc             0000000180034f1d f   ole32:ole32.dll
 0001:00033f23       CoTaskMemRealloc           0000000180034f23 f   ole32:ole32.dll
 0001:00033f29       CoTaskMemFree              0000000180034f29 f   ole32:ole32.dll
 0001:00033f2f       ReadClassStm               0000000180034f2f f   ole32:ole32.dll
 0001:00033f35       WriteClassStm              0000000180034f35 f   ole32:ole32.dll
 0001:00033f3b       CreateDataAdviseHolder     0000000180034f3b f   ole32:ole32.dll
 0001:00033f41       OleSaveToStream            0000000180034f41 f   ole32:ole32.dll
 0001:00033f47       CreateOleAdviseHolder      0000000180034f47 f   ole32:ole32.dll
 0001:00033f4d       OleRegGetUserType          0000000180034f4d f   ole32:ole32.dll
 0001:00033f53       OleRegGetMiscStatus        0000000180034f53 f   ole32:ole32.dll
 0001:00033f59       OleRegEnumVerbs            0000000180034f59 f   ole32:ole32.dll
 0001:00033f5f       CLSIDFromProgID            0000000180034f5f f   ole32:ole32.dll
 0001:00033f65       SysAllocString             0000000180034f65 f   oleaut32:OLEAUT32.dll
 0001:00033f6b       SysAllocStringLen          0000000180034f6b f   oleaut32:OLEAUT32.dll
 0001:00033f71       SysFreeString              0000000180034f71 f   oleaut32:OLEAUT32.dll
 0001:00033f77       SysStringLen               0000000180034f77 f   oleaut32:OLEAUT32.dll
 0001:00033f7d       VariantClear               0000000180034f7d f   oleaut32:OLEAUT32.dll
 0001:00033f83       VariantCopyInd             0000000180034f83 f   oleaut32:OLEAUT32.dll
 0001:00033f89       VariantChangeType          0000000180034f89 f   oleaut32:OLEAUT32.dll
 0001:00033f8f       SysStringByteLen           0000000180034f8f f   oleaut32:OLEAUT32.dll
 0001:00033f95       SysAllocStringByteLen      0000000180034f95 f   oleaut32:OLEAUT32.dll
 0001:00033f9b       VariantInit                0000000180034f9b f   oleaut32:OLEAUT32.dll
 0001:00033fa1       VarUI4FromStr              0000000180034fa1 f   oleaut32:OLEAUT32.dll
 0001:00033fa7       LoadTypeLib                0000000180034fa7 f   oleaut32:OLEAUT32.dll
 0001:00033fad       LoadRegTypeLib             0000000180034fad f   oleaut32:OLEAUT32.dll
 0001:00033fb3       RegisterTypeLib            0000000180034fb3 f   oleaut32:OLEAUT32.dll
 0001:00033fb9       UnRegisterTypeLib          0000000180034fb9 f   oleaut32:OLEAUT32.dll
 0001:00033fbf       OleCreatePropertyFrame     0000000180034fbf f   oleaut32:OLEAUT32.dll
 0001:00033fd0       _RTC_AllocaHelper          0000000180034fd0 f   LIBCMTD:stack.obj
 0001:00034010       _RTC_CheckStackVars        0000000180035010 f   LIBCMTD:stack.obj
 0001:000340a0       _RTC_CheckStackVars2       00000001800350a0 f   LIBCMTD:stack.obj
 0001:000341b0       _CRT_RTC_INIT              00000001800351b0 f   LIBCMTD:init.obj
 0001:000341c0       _CRT_RTC_INITW             00000001800351c0 f   LIBCMTD:init.obj
 0001:000341d0       _RTC_InitBase              00000001800351d0 f   LIBCMTD:init.obj
 0001:00034210       _RTC_Shutdown              0000000180035210 f   LIBCMTD:init.obj
 0001:00034240       __GSHandlerCheck           0000000180035240 f   LIBCMTD:gshandler.obj
 0001:00034280       __GSHandlerCheckCommon     0000000180035280 f   LIBCMTD:gshandler.obj
 0001:00034390       __security_check_cookie    0000000180035390 f   LIBCMTD:amdsecgs.obj
 0001:000343c0       ??_U@YAPEAX_K@Z            00000001800353c0 f   LIBCMTD:new_array.obj
 0001:000343e0       ??3@YAXPEAX_K@Z            00000001800353e0 f   LIBCMTD:delete_scalar_size.obj
 0001:00034400       ??_V@YAXPEAX@Z             0000000180035400 f   LIBCMTD:delete_array.obj
 0001:00034420       ??_V@YAXPEAX_K@Z           0000000180035420 f   LIBCMTD:delete_array_size.obj
 0001:00034440       ?configure_argv@__scrt_narrow_argv_policy@@SAHXZ 0000000180035440 f i LIBCMTD:utility.obj
 0001:00034530       ?initialize_environment@__scrt_narrow_environment_policy@@SAHXZ 0000000180035530 f i LIBCMTD:utility.obj
 0001:000345d0       NtCurrentTeb               00000001800355d0 f i LIBCMTD:utility.obj
 0001:000345e0       __scrt_acquire_startup_lock 00000001800355e0 f   LIBCMTD:utility.obj
 0001:00034650       __scrt_dllmain_after_initialize_c 0000000180035650 f   LIBCMTD:utility.obj
 0001:00034680       __scrt_dllmain_before_initialize_c 0000000180035680 f   LIBCMTD:utility.obj
 0001:000346a0       __scrt_dllmain_crt_thread_attach 00000001800356a0 f   LIBCMTD:utility.obj
 0001:000346d0       __scrt_dllmain_crt_thread_detach 00000001800356d0 f   LIBCMTD:utility.obj
 0001:000346f0       __scrt_dllmain_exception_filter 00000001800356f0 f   LIBCMTD:utility.obj
 0001:00034760       __scrt_dllmain_uninitialize_c 0000000180035760 f   LIBCMTD:utility.obj
 0001:00034790       __scrt_dllmain_uninitialize_critical 0000000180035790 f   LIBCMTD:utility.obj
 0001:000347b0       __scrt_initialize_crt      00000001800357b0 f   LIBCMTD:utility.obj
 0001:00034800       __scrt_initialize_onexit_tables 0000000180035800 f   LIBCMTD:utility.obj
 0001:00034910       __scrt_is_nonwritable_in_current_image 0000000180035910 f   LIBCMTD:utility.obj
 0001:000349a0       __scrt_release_startup_lock 00000001800359a0 f   LIBCMTD:utility.obj
 0001:000349d0       __scrt_uninitialize_crt    00000001800359d0 f   LIBCMTD:utility.obj
 0001:00034a10       _onexit                    0000000180035a10 f   LIBCMTD:utility.obj
 0001:00034a90       at_quick_exit              0000000180035a90 f   LIBCMTD:utility.obj
 0001:00034ae0       atexit                     0000000180035ae0 f   LIBCMTD:utility.obj
 0001:00034b20       ??3@YAXPEAX@Z              0000000180035b20 f   LIBCMTD:delete_scalar.obj
 0001:00034b40       __raise_securityfailure    0000000180035b40 f   LIBCMTD:gs_report.obj
 0001:00034b80       __report_gsfailure         0000000180035b80 f   LIBCMTD:gs_report.obj
 0001:00034c60       __report_rangecheckfailure 0000000180035c60 f   LIBCMTD:gs_report.obj
 0001:00034c80       __report_securityfailure   0000000180035c80 f   LIBCMTD:gs_report.obj
 0001:00034d20       __report_securityfailureEx 0000000180035d20 f   LIBCMTD:gs_report.obj
 0001:000350e0       _Init_thread_abort         00000001800360e0 f   LIBCMTD:thread_safe_statics.obj
 0001:00035110       _Init_thread_footer        0000000180036110 f   LIBCMTD:thread_safe_statics.obj
 0001:00035170       _Init_thread_header        0000000180036170 f   LIBCMTD:thread_safe_statics.obj
 0001:00035200       _Init_thread_lock          0000000180036200 f   LIBCMTD:thread_safe_statics.obj
 0001:00035220       _Init_thread_notify        0000000180036220 f   LIBCMTD:thread_safe_statics.obj
 0001:00035280       _Init_thread_unlock        0000000180036280 f   LIBCMTD:thread_safe_statics.obj
 0001:000352a0       _Init_thread_wait          00000001800362a0 f   LIBCMTD:thread_safe_statics.obj
 0001:00035350       ??2@YAPEAX_KAEBUnothrow_t@std@@@Z 0000000180036350 f   LIBCMTD:new_scalar_nothrow.obj
 0001:00035390       ??_U@YAPEAX_KAEBUnothrow_t@std@@@Z 0000000180036390 f   LIBCMTD:new_array_nothrow.obj
 0001:000353c0       __GSHandlerCheck_SEH       00000001800363c0 f   LIBCMTD:gshandlerseh.obj
 0001:00035490       _alloca_probe              0000000180036490 f   LIBCMTD:chkstk.obj
 0001:00035490       __chkstk                   0000000180036490 f   LIBCMTD:chkstk.obj
 0001:000358f0       _CRT_INIT                  00000001800368f0 f   LIBCMTD:dll_dllmain.obj
 0001:00035920       _DllMainCRTStartup         0000000180036920 f   LIBCMTD:dll_dllmain.obj
 0001:000359f0       ?_RTC_AllocaFailure@@YAXPEAXPEAU_RTC_ALLOCA_NODE@@H@Z 00000001800369f0 f   LIBCMTD:error.obj
 0001:00035b50       ?_RTC_Failure@@YAXPEAXH@Z  0000000180036b50 f   LIBCMTD:error.obj
 0001:00035ba0       ?_RTC_StackFailure@@YAXPEAXPEBD@Z 0000000180036ba0 f   LIBCMTD:error.obj
 0001:00035fd0       _RTC_UninitUse             0000000180036fd0 f   LIBCMTD:error.obj
 0001:000360a0       _vsprintf_s_l              00000001800370a0 f i LIBCMTD:error.obj
 0001:00036110       sprintf_s                  0000000180037110 f i LIBCMTD:error.obj
 0001:00036140       ?_RTC_GetErrorFunc@@YAP6AHHPEBDH00ZZPEBX@Z 0000000180037140 f   LIBCMTD:userapi.obj
 0001:00036150       ?_RTC_GetErrorFuncW@@YAP6AHHPEB_WH00ZZPEBX@Z 0000000180037150 f   LIBCMTD:userapi.obj
 0001:00036160       _RTC_GetErrDesc            0000000180037160 f   LIBCMTD:userapi.obj
 0001:00036180       _RTC_NumErrors             0000000180037180 f   LIBCMTD:userapi.obj
 0001:00036190       _RTC_SetErrorFunc          0000000180037190 f   LIBCMTD:userapi.obj
 0001:000361b0       _RTC_SetErrorFuncW         00000001800371b0 f   LIBCMTD:userapi.obj
 0001:000361d0       _RTC_SetErrorType          00000001800371d0 f   LIBCMTD:userapi.obj
 0001:000361f0       ??2@YAPEAX_K@Z             00000001800371f0 f   LIBCMTD:new_scalar.obj
 0001:00036240       __isa_available_init       0000000180037240 f   LIBCMTD:cpu_disp.obj
 0001:00036590       _get_startup_argv_mode     0000000180037590 f   LIBCMTD:argv_mode.obj
 0001:000365a0       __scrt_is_ucrt_dll_in_use  00000001800375a0 f   LIBCMTD:ucrt_detection.obj
 0001:000365d0       __crt_debugger_hook        00000001800375d0 f   LIBCMTD:utility_desktop.obj
 0001:000365e0       __scrt_fastfail            00000001800375e0 f   LIBCMTD:utility_desktop.obj
 0001:00036780       __scrt_get_show_window_mode 0000000180037780 f   LIBCMTD:utility_desktop.obj
 0001:000367e0       __scrt_initialize_mta      00000001800377e0 f   LIBCMTD:utility_desktop.obj
 0001:000367f0       __scrt_initialize_winrt    00000001800377f0 f   LIBCMTD:utility_desktop.obj
 0001:00036800       __scrt_is_managed_app      0000000180037800 f   LIBCMTD:utility_desktop.obj
 0001:000368b0       __scrt_set_unhandled_exception_filter 00000001800378b0 f   LIBCMTD:utility_desktop.obj
 0001:000368d0       __scrt_stub_for_initialize_mta 00000001800378d0 f   LIBCMTD:utility_desktop.obj
 0001:000368d0       __scrt_exe_initialize_mta  00000001800378d0 f   LIBCMTD:utility_desktop.obj
 0001:000368e0       __scrt_unhandled_exception_filter 00000001800378e0 f   LIBCMTD:utility_desktop.obj
 0001:00036960       _guard_check_icall_nop     0000000180037960 f i LIBCMTD:guard_support.obj
 0001:00036970       ReadNoFence64              0000000180037970 f i LIBCMTD:guard_support.obj
 0001:00036990       ReadPointerNoFence         0000000180037990 f i LIBCMTD:guard_support.obj
 0001:000369b0       _guard_icall_checks_enforced 00000001800379b0 f i LIBCMTD:guard_support.obj
 0001:000369f0       _guard_rf_checks_enforced  00000001800379f0 f i LIBCMTD:guard_support.obj
 0001:00036ac0       __security_init_cookie     0000000180037ac0 f   LIBCMTD:gs_support.obj
 0001:00036b40       ?__scrt_initialize_type_info@@YAXXZ 0000000180037b40 f   LIBCMTD:tncleanup.obj
 0001:00036b60       ?__scrt_uninitialize_type_info@@YAXXZ 0000000180037b60 f   LIBCMTD:tncleanup.obj
 0001:00036b80       __local_stdio_scanf_options 0000000180037b80 f i LIBCMTD:default_local_stdio_options.obj
 0001:00036b90       __scrt_initialize_default_local_stdio_options 0000000180037b90 f   LIBCMTD:default_local_stdio_options.obj
 0001:00036be0       __scrt_get_dyn_tls_init_callback 0000000180037be0 f   LIBCMTD:dyn_tls_init.obj
 0001:00036bf0       _RTC_Initialize            0000000180037bf0 f   LIBCMTD:initsect.obj
 0001:00036c40       _RTC_Terminate             0000000180037c40 f   LIBCMTD:initsect.obj
 0001:000371a0       ?_RTC_GetSrcLine@@YAHPEAEPEA_WKPEAH1K@Z 00000001800381a0 f   LIBCMTD:pdblkup.obj
 0001:00037570       ??0bad_alloc@std@@AEAA@QEBD@Z 0000000180038570 f i LIBCMTD:throw_bad_alloc.obj
 0001:000375b0       ??0bad_alloc@std@@QEAA@AEBV01@@Z 00000001800385b0 f i LIBCMTD:throw_bad_alloc.obj
 0001:000375f0       ??0bad_alloc@std@@QEAA@XZ  00000001800385f0 f i LIBCMTD:throw_bad_alloc.obj
 0001:00037630       ??0bad_array_new_length@std@@QEAA@AEBV01@@Z 0000000180038630 f i LIBCMTD:throw_bad_alloc.obj
 0001:00037670       ??0bad_array_new_length@std@@QEAA@XZ 0000000180038670 f i LIBCMTD:throw_bad_alloc.obj
 0001:000376b0       ??0exception@std@@QEAA@AEBV01@@Z 00000001800386b0 f i LIBCMTD:throw_bad_alloc.obj
 0001:00037710       ??0exception@std@@QEAA@QEBDH@Z 0000000180038710 f i LIBCMTD:throw_bad_alloc.obj
 0001:00037760       ??1bad_alloc@std@@UEAA@XZ  0000000180038760 f i LIBCMTD:throw_bad_alloc.obj
 0001:00037780       ??1bad_array_new_length@std@@UEAA@XZ 0000000180038780 f i LIBCMTD:throw_bad_alloc.obj
 0001:000377a0       ??1exception@std@@UEAA@XZ  00000001800387a0 f i LIBCMTD:throw_bad_alloc.obj
 0001:000377d0       ??_Ebad_alloc@std@@UEAAPEAXI@Z 00000001800387d0 f i LIBCMTD:throw_bad_alloc.obj
 0001:000377d0       ??_Gbad_alloc@std@@UEAAPEAXI@Z 00000001800387d0 f i LIBCMTD:throw_bad_alloc.obj
 0001:00037810       ??_Gbad_array_new_length@std@@UEAAPEAXI@Z 0000000180038810 f i LIBCMTD:throw_bad_alloc.obj
 0001:00037810       ??_Ebad_array_new_length@std@@UEAAPEAXI@Z 0000000180038810 f i LIBCMTD:throw_bad_alloc.obj
 0001:00037850       ??_Gexception@std@@UEAAPEAXI@Z 0000000180038850 f i LIBCMTD:throw_bad_alloc.obj
 0001:00037850       ??_Eexception@std@@UEAAPEAXI@Z 0000000180038850 f i LIBCMTD:throw_bad_alloc.obj
 0001:00037890       ?__scrt_throw_std_bad_alloc@@YAXXZ 0000000180038890 f   LIBCMTD:throw_bad_alloc.obj
 0001:000378c0       ?__scrt_throw_std_bad_array_new_length@@YAXXZ 00000001800388c0 f   LIBCMTD:throw_bad_alloc.obj
 0001:000378f0       ?what@exception@std@@UEBAPEBDXZ 00000001800388f0 f i LIBCMTD:throw_bad_alloc.obj
 0001:00037930       ??1type_info@@UEAA@XZ      0000000180038930 f   LIBCMTD:std_type_info_static.obj
 0001:00037950       ??_Gtype_info@@UEAAPEAXI@Z 0000000180038950 f i LIBCMTD:std_type_info_static.obj
 0001:00037950       ??_Etype_info@@UEAAPEAXI@Z 0000000180038950 f i LIBCMTD:std_type_info_static.obj
 0001:0003798c       ??$?2PEAUHINSTANCE__@@@Wrapper@?$CSimpleArray@PEAUHINSTANCE__@@V?$CSimpleArrayEqualHelper@PEAUHINSTANCE__@@@ATL@@@ATL@@SAPEAX_KPEAPEAUHINSTANCE__@@@Z 000000018003898c f i atls:atlbase.obj
 0001:00037990       ??0?$CSimpleArray@PEAUHINSTANCE__@@V?$CSimpleArrayEqualHelper@PEAUHINSTANCE__@@@ATL@@@ATL@@QEAA@XZ 0000000180038990 f i atls:atlbase.obj
 0001:000379a0       ??0CAtlBaseModule@ATL@@QEAA@XZ 00000001800389a0 f   atls:atlbase.obj
 0001:00037a48       ??0Wrapper@?$CSimpleArray@PEAUHINSTANCE__@@V?$CSimpleArrayEqualHelper@PEAUHINSTANCE__@@@ATL@@@ATL@@QEAA@AEBQEAUHINSTANCE__@@@Z 0000000180038a48 f i atls:atlbase.obj
 0001:00037a54       ??0_ATL_BASE_MODULE70@ATL@@QEAA@XZ 0000000180038a54 f i atls:atlbase.obj
 0001:00037a80       ??1?$CSimpleArray@PEAUHINSTANCE__@@V?$CSimpleArrayEqualHelper@PEAUHINSTANCE__@@@ATL@@@ATL@@QEAA@XZ 0000000180038a80 f i atls:atlbase.obj
 0001:00037aa8       ??1CAtlBaseModule@ATL@@QEAA@XZ 0000000180038aa8 f   atls:atlbase.obj
 0001:00037adc       ??1_ATL_BASE_MODULE70@ATL@@QEAA@XZ 0000000180038adc f i atls:atlbase.obj
 0001:00037b08       ??A?$CSimpleArray@PEAUHINSTANCE__@@V?$CSimpleArrayEqualHelper@PEAUHINSTANCE__@@@ATL@@@ATL@@QEAAAEAPEAUHINSTANCE__@@H@Z 0000000180038b08 f i atls:atlbase.obj
 0001:00037b34       ?Add@?$CSimpleArray@PEAUHINSTANCE__@@V?$CSimpleArrayEqualHelper@PEAUHINSTANCE__@@@ATL@@@ATL@@QEAAHAEBQEAUHINSTANCE__@@@Z 0000000180038b34 f i atls:atlbase.obj
 0001:00037be8       ?AddResourceInstance@CAtlBaseModule@ATL@@QEAA_NPEAUHINSTANCE__@@@Z 0000000180038be8 f   atls:atlbase.obj
 0001:00037c30       ?GetHInstanceAt@CAtlBaseModule@ATL@@QEAAPEAUHINSTANCE__@@H@Z 0000000180038c30 f   atls:atlbase.obj
 0001:00037ca8       ?GetSize@?$CSimpleArray@PEAUHINSTANCE__@@V?$CSimpleArrayEqualHelper@PEAUHINSTANCE__@@@ATL@@@ATL@@QEBAHXZ 0000000180038ca8 f i atls:atlbase.obj
 0001:00037cac       ?InternalSetAtIndex@?$CSimpleArray@PEAUHINSTANCE__@@V?$CSimpleArrayEqualHelper@PEAUHINSTANCE__@@@ATL@@@ATL@@QEAAXHAEBQEAUHINSTANCE__@@@Z 0000000180038cac f i atls:atlbase.obj
 0001:00037cc4       ?RemoveAll@?$CSimpleArray@PEAUHINSTANCE__@@V?$CSimpleArrayEqualHelper@PEAUHINSTANCE__@@@ATL@@@ATL@@QEAAXXZ 0000000180038cc4 f i atls:atlbase.obj
 0001:00037cec       ?RemoveAt@?$CSimpleArray@PEAUHINSTANCE__@@V?$CSimpleArrayEqualHelper@PEAUHINSTANCE__@@@ATL@@@ATL@@QEAAHH@Z 0000000180038cec f i atls:atlbase.obj
 0001:00037d90       ?RemoveResourceInstance@CAtlBaseModule@ATL@@QEAA_NPEAUHINSTANCE__@@@Z 0000000180038d90 f   atls:atlbase.obj
 0001:00037e10       ?memmove_s@Checked@ATL@@YAXPEAX_KPEBX1@Z 0000000180038e10 f i atls:atlbase.obj
 0001:000382b8       ?GetCodeAddress@_stdcallthunk@ATL@@QEAAPEAXXZ 00000001800392b8 f i atls:atlthunk.obj
 0001:000382e4       ?Init@_stdcallthunk@ATL@@QEAAH_KPEAX@Z 00000001800392e4 f i atls:atlthunk.obj
 0001:00038334       ?__AllocStdCallThunk@@YAPEAXXZ 0000000180039334 f   atls:atlthunk.obj
 0001:0003833c       ?__AllocStdCallThunk@ATL@@YAPEAXXZ 000000018003933c f   atls:atlthunk.obj
 0001:00038344       ?__AllocStdCallThunk_cmn@@YAPEAXXZ 0000000180039344 f   atls:atlthunk.obj
 0001:0003841c       ?__FreeStdCallThunk@@YAXPEAX@Z 000000018003941c f   atls:atlthunk.obj
 0001:0003843c       ?__FreeStdCallThunk@ATL@@YAXPEAX@Z 000000018003943c f   atls:atlthunk.obj
 0001:0003845c       ?__FreeStdCallThunk_cmn@@YAXPEAX@Z 000000018003945c f   atls:atlthunk.obj
 0001:000384fc       AtlThunk_AllocateData      00000001800394fc f   atls:atlthunk.obj
 0001:00038578       AtlThunk_DataToCode        0000000180039578 f   atls:atlthunk.obj
 0001:000385cc       AtlThunk_FreeData          00000001800395cc f   atls:atlthunk.obj
 0001:0003862c       AtlThunk_InitData          000000018003962c f   atls:atlthunk.obj
 0001:000386f0       memset_repmovs             00000001800396f0 f   libvcruntimed:memset.obj
 0001:00038710       memset                     0000000180039710 f   libvcruntimed:memset.obj
 0001:000388a0       ??$__crt_interlocked_exchange_pointer@$$A6AXXZP6AXXZ@@YAP6AXXZPEDS6AXXZQ6AXXZ@Z 00000001800398a0 f i libvcruntimed:purevirt.obj
 0001:000388c0       ??$__crt_interlocked_read_pointer@$$A6AXXZ@@YAP6AXXZPEDS6AXXZ@Z 00000001800398c0 f i libvcruntimed:purevirt.obj
 0001:000388e0       ?__crt_interlocked_read_64@@YA_JPED_J@Z 00000001800398e0 f i libvcruntimed:purevirt.obj
 0001:00038900       _get_purecall_handler      0000000180039900 f   libvcruntimed:purevirt.obj
 0001:00038920       _purecall                  0000000180039920 f   libvcruntimed:purevirt.obj
 0001:00038960       _set_purecall_handler      0000000180039960 f   libvcruntimed:purevirt.obj
 0001:00038990       memcmp                     0000000180039990 f   libvcruntimed:memcmp.obj
 0001:00038a70       memcpy_repmovs             0000000180039a70 f   libvcruntimed:memcpy.obj
 0001:00038a90       memmove                    0000000180039a90 f   libvcruntimed:memcpy.obj
 0001:00038a90       memcpy                     0000000180039a90 f   libvcruntimed:memcpy.obj
 0001:00038e70       wcsstr                     0000000180039e70 f   libvcruntimed:wcsstr.obj
 0001:000394d0       __vcrt_initialize          000000018003a4d0 f   libvcruntimed:initialization.obj
 0001:00039510       __vcrt_thread_attach       000000018003a510 f   libvcruntimed:initialization.obj
 0001:00039530       __vcrt_thread_detach       000000018003a530 f   libvcruntimed:initialization.obj
 0001:00039550       __vcrt_uninitialize        000000018003a550 f   libvcruntimed:initialization.obj
 0001:00039570       __vcrt_uninitialize_critical 000000018003a570 f   libvcruntimed:initialization.obj
 0001:00039590       __C_specific_handler       000000018003a590 f   libvcruntimed:riscchandler.obj
 0001:00039a00       ??$?0AEAViterator@TryBlockMap4@FH4@@AEAV012@$0A@@?$pair@Viterator@TryBlockMap4@FH4@@V123@@std@@QEAA@AEAViterator@TryBlockMap4@FH4@@0@Z 000000018003aa00 f i libvcruntimed:risctrnsctrl.obj
 0001:00039a60       ??$?0AEAViterator@TryBlockMap@__FrameHandler3@@AEAV012@$0A@@?$pair@Viterator@TryBlockMap@__FrameHandler3@@V123@@std@@QEAA@AEAViterator@TryBlockMap@__FrameHandler3@@0@Z 000000018003aa60 f i libvcruntimed:risctrnsctrl.obj
 0001:00039c20       ??$_CallSETranslator@V__FrameHandler3@@@@YAHPEAUEHExceptionRecord@@PEA_KPEAU_CONTEXT@@PEAU_xDISPATCHER_CONTEXT@@PEBU_s_FuncInfo@@K1@Z 000000018003ac20 f i libvcruntimed:risctrnsctrl.obj
 0001:00039cb0       ??$_CallSETranslator@V__FrameHandler4@@@@YAHPEAUEHExceptionRecord@@PEA_KPEAU_CONTEXT@@PEAU_xDISPATCHER_CONTEXT@@PEAUFuncInfo4@FH4@@K1@Z 000000018003acb0 f i libvcruntimed:risctrnsctrl.obj
 0001:00039d40       ??$forward@AEAViterator@TryBlockMap4@FH4@@@std@@YAAEAViterator@TryBlockMap4@FH4@@AEAV123@@Z 000000018003ad40 f i libvcruntimed:risctrnsctrl.obj
 0001:00039d50       ??$forward@AEAViterator@TryBlockMap@__FrameHandler3@@@std@@YAAEAViterator@TryBlockMap@__FrameHandler3@@AEAV123@@Z 000000018003ad50 f i libvcruntimed:risctrnsctrl.obj
 0001:00039d60       ??0FuncInfo4@FH4@@QEAA@XZ  000000018003ad60 f i libvcruntimed:risctrnsctrl.obj
 0001:00039dd0       ??0FuncInfoHeader@FH4@@QEAA@XZ 000000018003add0 f i libvcruntimed:risctrnsctrl.obj
 0001:00039df0       ??0iterator@TryBlockMap4@FH4@@QEAA@AEAV12@I@Z 000000018003adf0 f i libvcruntimed:risctrnsctrl.obj
 0001:00039e20       ??0iterator@TryBlockMap@__FrameHandler3@@QEAA@AEAV12@I@Z 000000018003ae20 f i libvcruntimed:risctrnsctrl.obj
 0001:00039e50       ??4iterator@TryBlockMap4@FH4@@QEAAAEAV012@AEBV012@@Z 000000018003ae50 f i libvcruntimed:risctrnsctrl.obj
 0001:00039e70       ??9iterator@TryBlockMap4@FH4@@QEBA_NAEBV012@@Z 000000018003ae70 f i libvcruntimed:risctrnsctrl.obj
 0001:00039eb0       ??Diterator@TryBlockMap4@FH4@@QEAA?AUTryBlockMapEntry4@2@XZ 000000018003aeb0 f i libvcruntimed:risctrnsctrl.obj
 0001:00039ee0       ??Eiterator@TryBlockMap4@FH4@@QEAAAEAV012@XZ 000000018003aee0 f i libvcruntimed:risctrnsctrl.obj
 0001:00039f20       ?CatchTryBlock@__FrameHandler3@@SAPEBU_s_TryBlockMapEntry@@PEBU_s_FuncInfo@@H@Z 000000018003af20 f   libvcruntimed:risctrnsctrl.obj
 0001:00039fb0       ?DecompFuncInfo@FH4@@YA_JPEAEAEAUFuncInfo4@1@_KH@Z 000000018003afb0 f i libvcruntimed:risctrnsctrl.obj
 0001:00039ff0       ?DecompFuncInfo@FH4@@YA_JPEAEAEAUFuncInfo4@1@_KH_N@Z 000000018003aff0 f i libvcruntimed:risctrnsctrl.obj
 0001:0003a1c0       ?DecompTryBlock@TryBlockMap4@FH4@@AEAAXXZ 000000018003b1c0 f i libvcruntimed:risctrnsctrl.obj
 0001:0003a240       ?ExecutionInCatch@__FrameHandler3@@SA_NPEAU_xDISPATCHER_CONTEXT@@PEBU_s_FuncInfo@@@Z 000000018003b240 f   libvcruntimed:risctrnsctrl.obj
 0001:0003a290       ?ExecutionInCatch@__FrameHandler4@@SA_NPEAU_xDISPATCHER_CONTEXT@@PEAUFuncInfo4@FH4@@@Z 000000018003b290 f   libvcruntimed:risctrnsctrl.obj
 0001:0003a2b0       ?FrameUnwindToEmptyState@__FrameHandler3@@SAXPEA_KPEAU_xDISPATCHER_CONTEXT@@PEBU_s_FuncInfo@@@Z 000000018003b2b0 f   libvcruntimed:risctrnsctrl.obj
 0001:0003a350       ?FrameUnwindToEmptyState@__FrameHandler4@@SAXPEA_KPEAU_xDISPATCHER_CONTEXT@@PEAUFuncInfo4@FH4@@@Z 000000018003b350 f   libvcruntimed:risctrnsctrl.obj
 0001:0003a3a0       ?GetEstablisherFrame@__FrameHandler3@@SAPEA_KPEA_KPEAU_xDISPATCHER_CONTEXT@@PEBU_s_FuncInfo@@0@Z 000000018003b3a0 f   libvcruntimed:risctrnsctrl.obj
 0001:0003a510       ?GetEstablisherFrame@__FrameHandler4@@SAPEA_KPEA_KPEAU_xDISPATCHER_CONTEXT@@PEAUFuncInfo4@FH4@@0@Z 000000018003b510 f   libvcruntimed:risctrnsctrl.obj
 0001:0003a580       ?GetRangeOfTrysToCheck@__FrameHandler3@@SA?AU?$pair@Viterator@TryBlockMap@__FrameHandler3@@V123@@std@@AEAVTryBlockMap@1@HPEAU_xDISPATCHER_CONTEXT@@PEBU_s_FuncInfo@@H@Z 000000018003b580 f   libvcruntimed:risctrnsctrl.obj
 0001:0003a7c0       ?GetRangeOfTrysToCheck@__FrameHandler4@@SA?AU?$pair@Viterator@TryBlockMap4@FH4@@V123@@std@@AEAVTryBlockMap4@FH4@@HPEAU_xDISPATCHER_CONTEXT@@PEAUFuncInfo4@5@H@Z 000000018003b7c0 f   libvcruntimed:risctrnsctrl.obj
 0001:0003a970       ?ReadInt@FH4@@YAHPEAPEAE@Z 000000018003b970 f i libvcruntimed:risctrnsctrl.obj
 0001:0003a9b0       ?ReadUnsigned@FH4@@YAIPEAPEAE@Z 000000018003b9b0 f i libvcruntimed:risctrnsctrl.obj
 0001:0003aa40       ?UnwindNestedFrames@__FrameHandler3@@SAXPEA_KPEAUEHExceptionRecord@@PEAU_CONTEXT@@0PEAXPEBU_s_FuncInfo@@HHPEBU_s_HandlerType@@PEAU_xDISPATCHER_CONTEXT@@E@Z 000000018003ba40 f   libvcruntimed:risctrnsctrl.obj
 0001:0003abb0       ?UnwindNestedFrames@__FrameHandler4@@SAXPEA_KPEAUEHExceptionRecord@@PEAU_CONTEXT@@0PEAXPEAUFuncInfo4@FH4@@HHPEAUHandlerType4@5@PEAU_xDISPATCHER_CONTEXT@@E@Z 000000018003bbb0 f   libvcruntimed:risctrnsctrl.obj
 0001:0003ad80       ?begin@TryBlockMap4@FH4@@QEAA?AViterator@12@XZ 000000018003bd80 f i libvcruntimed:risctrnsctrl.obj
 0001:0003adb0       ?end@TryBlockMap4@FH4@@QEAA?AViterator@12@XZ 000000018003bdb0 f i libvcruntimed:risctrnsctrl.obj
 0001:0003ade0       ?imageRelToByteBuffer@FH4@@YAPEAE_KH@Z 000000018003bde0 f i libvcruntimed:risctrnsctrl.obj
 0001:0003ae00       ?incrementToSentinel@iterator@TryBlockMap4@FH4@@QEAAXXZ 000000018003be00 f i libvcruntimed:risctrnsctrl.obj
 0001:0003ae20       ?setBuffer@TryBlockMap4@FH4@@QEAAXViterator@12@@Z 000000018003be20 f i libvcruntimed:risctrnsctrl.obj
 0001:0003ae90       _CreateFrameInfo           000000018003be90 f   libvcruntimed:risctrnsctrl.obj
 0001:0003af00       _FindAndUnlinkFrame        000000018003bf00 f   libvcruntimed:risctrnsctrl.obj
 0001:0003af90       _GetImageBase              000000018003bf90 f   libvcruntimed:risctrnsctrl.obj
 0001:0003afb0       _GetThrowImageBase         000000018003bfb0 f   libvcruntimed:risctrnsctrl.obj
 0001:0003afd0       _SetImageBase              000000018003bfd0 f   libvcruntimed:risctrnsctrl.obj
 0001:0003aff0       _SetThrowImageBase         000000018003bff0 f   libvcruntimed:risctrnsctrl.obj
 0001:0003b010       __CxxFrameHandler          000000018003c010 f   libvcruntimed:risctrnsctrl.obj
 0001:0003b050       __CxxFrameHandler2         000000018003c050 f   libvcruntimed:risctrnsctrl.obj
 0001:0003b090       __CxxFrameHandler3         000000018003c090 f   libvcruntimed:risctrnsctrl.obj
 0001:0003b170       __CxxFrameHandler4         000000018003c170 f   libvcruntimed:risctrnsctrl.obj
 0001:0003b280       __C_specific_handler_noexcept 000000018003c280 f   libvcruntimed:chandler_noexcept.obj
 0001:0003b2f0       ?<lambda_invoker_cdecl>@_Closure_wrapper_b75ec0ea_1@@CAPEAX_K@Z 000000018003c2f0 f i libvcruntimed:std_type_info.obj
 0001:0003b310       ?<lambda_invoker_cdecl>@_Closure_wrapper_b75ec0ea_2@@CAXQEAX@Z 000000018003c310 f i libvcruntimed:std_type_info.obj
 0001:0003b330       ??$?RD@__crt_internal_free_policy@@QEBAXQEBD@Z 000000018003c330 f i libvcruntimed:std_type_info.obj
 0001:0003b360       ??$?RX@__crt_internal_free_policy@@QEBAXQEBX@Z 000000018003c360 f i libvcruntimed:std_type_info.obj
 0001:0003b390       ??$__crt_interlocked_compare_exchange_pointer@$$CBDPEAD$$T@@YAPEBDPEDSEBDQEAD$$T@Z 000000018003c390 f i libvcruntimed:std_type_info.obj
 0001:0003b3d0       ??$__crt_interlocked_read_pointer@$$CBD@@YAPEBDPEDSEBD@Z 000000018003c3d0 f i libvcruntimed:std_type_info.obj
 0001:0003b3f0       ??0?$__crt_unique_heap_ptr@DU__crt_internal_free_policy@@@@QEAA@QEAD@Z 000000018003c3f0 f i libvcruntimed:std_type_info.obj
 0001:0003b410       ??0?$__crt_unique_heap_ptr@XU__crt_internal_free_policy@@@@QEAA@QEAX@Z 000000018003c410 f i libvcruntimed:std_type_info.obj
 0001:0003b430       ??1?$__crt_unique_heap_ptr@DU__crt_internal_free_policy@@@@QEAA@XZ 000000018003c430 f i libvcruntimed:std_type_info.obj
 0001:0003b450       ??1?$__crt_unique_heap_ptr@XU__crt_internal_free_policy@@@@QEAA@XZ 000000018003c450 f i libvcruntimed:std_type_info.obj
 0001:0003b470       ??B?$__crt_unique_heap_ptr@DU__crt_internal_free_policy@@@@QEBA_NXZ 000000018003c470 f i libvcruntimed:std_type_info.obj
 0001:0003b490       ??B?$__crt_unique_heap_ptr@XU__crt_internal_free_policy@@@@QEBA_NXZ 000000018003c490 f i libvcruntimed:std_type_info.obj
 0001:0003b4b0       ??B_Closure_wrapper_b75ec0ea_1@@QEBAP6APEAX_K@ZXZ 000000018003c4b0 f i libvcruntimed:std_type_info.obj
 0001:0003b4c0       ??B_Closure_wrapper_b75ec0ea_2@@QEBAP6AXQEAX@ZXZ 000000018003c4c0 f i libvcruntimed:std_type_info.obj
 0001:0003b530       ?detach@?$__crt_unique_heap_ptr@XU__crt_internal_free_policy@@@@QEAAPEAXXZ 000000018003c530 f i libvcruntimed:std_type_info.obj
 0001:0003b560       ?get@?$__crt_unique_heap_ptr@DU__crt_internal_free_policy@@@@QEBAPEADXZ 000000018003c560 f i libvcruntimed:std_type_info.obj
 0001:0003b570       ?get@?$__crt_unique_heap_ptr@XU__crt_internal_free_policy@@@@QEBAPEAXXZ 000000018003c570 f i libvcruntimed:std_type_info.obj
 0001:0003b580       ?is_valid@?$__crt_unique_heap_ptr@DU__crt_internal_free_policy@@@@QEBA_NXZ 000000018003c580 f i libvcruntimed:std_type_info.obj
 0001:0003b5b0       ?is_valid@?$__crt_unique_heap_ptr@XU__crt_internal_free_policy@@@@QEBA_NXZ 000000018003c5b0 f i libvcruntimed:std_type_info.obj
 0001:0003b5e0       ?release@?$__crt_unique_heap_ptr@DU__crt_internal_free_policy@@@@QEAAXXZ 000000018003c5e0 f i libvcruntimed:std_type_info.obj
 0001:0003b610       ?release@?$__crt_unique_heap_ptr@XU__crt_internal_free_policy@@@@QEAAXXZ 000000018003c610 f i libvcruntimed:std_type_info.obj
 0001:0003b640       __std_type_info_compare    000000018003c640 f   libvcruntimed:std_type_info.obj
 0001:0003b680       __std_type_info_destroy_list 000000018003c680 f   libvcruntimed:std_type_info.obj
 0001:0003b6e0       __std_type_info_hash       000000018003c6e0 f   libvcruntimed:std_type_info.obj
 0001:0003b790       __std_type_info_name       000000018003c790 f   libvcruntimed:std_type_info.obj
 0001:0003ba40       __vcrt_GetModuleFileNameW  000000018003ca40 f   libvcruntimed:winapi_thunks.obj
 0001:0003ba70       __vcrt_GetModuleHandleW    000000018003ca70 f   libvcruntimed:winapi_thunks.obj
 0001:0003ba90       __vcrt_LoadLibraryExW      000000018003ca90 f   libvcruntimed:winapi_thunks.obj
 0001:0003bac0       ??$?RD@__crt_public_free_policy@@QEBAXQEBD@Z 000000018003cac0 f i libvcruntimed:std_exception.obj
 0001:0003bae0       ??0?$__crt_unique_heap_ptr@DU__crt_public_free_policy@@@@QEAA@QEAD@Z 000000018003cae0 f i libvcruntimed:std_exception.obj
 0001:0003bb00       ??1?$__crt_unique_heap_ptr@DU__crt_public_free_policy@@@@QEAA@XZ 000000018003cb00 f i libvcruntimed:std_exception.obj
 0001:0003bb20       ??B?$__crt_unique_heap_ptr@DU__crt_public_free_policy@@@@QEBA_NXZ 000000018003cb20 f i libvcruntimed:std_exception.obj
 0001:0003bb40       ?detach@?$__crt_unique_heap_ptr@DU__crt_public_free_policy@@@@QEAAPEADXZ 000000018003cb40 f i libvcruntimed:std_exception.obj
 0001:0003bb70       ?get@?$__crt_unique_heap_ptr@DU__crt_public_free_policy@@@@QEBAPEADXZ 000000018003cb70 f i libvcruntimed:std_exception.obj
 0001:0003bb80       ?is_valid@?$__crt_unique_heap_ptr@DU__crt_public_free_policy@@@@QEBA_NXZ 000000018003cb80 f i libvcruntimed:std_exception.obj
 0001:0003bbb0       ?release@?$__crt_unique_heap_ptr@DU__crt_public_free_policy@@@@QEAAXXZ 000000018003cbb0 f i libvcruntimed:std_exception.obj
 0001:0003bbe0       __std_exception_copy       000000018003cbe0 f   libvcruntimed:std_exception.obj
 0001:0003bd20       __std_exception_destroy    000000018003cd20 f   libvcruntimed:std_exception.obj
 0001:0003bd60       _CxxThrowException         000000018003cd60 f   libvcruntimed:throw.obj
 0001:0003beb0       ??$?RU__vcrt_ptd@@@__crt_internal_free_policy@@QEBAXQEBU__vcrt_ptd@@@Z 000000018003ceb0 f i libvcruntimed:per_thread_data.obj
 0001:0003bee0       ??0?$__crt_unique_heap_ptr@U__vcrt_ptd@@U__crt_internal_free_policy@@@@QEAA@QEAU__vcrt_ptd@@@Z 000000018003cee0 f i libvcruntimed:per_thread_data.obj
 0001:0003bf20       ??1?$__crt_unique_heap_ptr@U__vcrt_ptd@@U__crt_internal_free_policy@@@@QEAA@XZ 000000018003cf20 f i libvcruntimed:per_thread_data.obj
 0001:0003bf60       ??B?$__crt_unique_heap_ptr@U__vcrt_ptd@@U__crt_internal_free_policy@@@@QEBA_NXZ 000000018003cf60 f i libvcruntimed:per_thread_data.obj
 0001:0003bf80       ?detach@?$__crt_unique_heap_ptr@U__vcrt_ptd@@U__crt_internal_free_policy@@@@QEAAPEAU__vcrt_ptd@@XZ 000000018003cf80 f i libvcruntimed:per_thread_data.obj
 0001:0003bfb0       ?get@?$__crt_unique_heap_ptr@U__vcrt_ptd@@U__crt_internal_free_policy@@@@QEBAPEAU__vcrt_ptd@@XZ 000000018003cfb0 f i libvcruntimed:per_thread_data.obj
 0001:0003bfc0       ?is_valid@?$__crt_unique_heap_ptr@U__vcrt_ptd@@U__crt_internal_free_policy@@@@QEBA_NXZ 000000018003cfc0 f i libvcruntimed:per_thread_data.obj
 0001:0003bff0       ?release@?$__crt_unique_heap_ptr@U__vcrt_ptd@@U__crt_internal_free_policy@@@@QEAAXXZ 000000018003cff0 f i libvcruntimed:per_thread_data.obj
 0001:0003c060       __vcrt_freefls             000000018003d060 f   libvcruntimed:per_thread_data.obj
 0001:0003c0a0       __vcrt_freeptd             000000018003d0a0 f   libvcruntimed:per_thread_data.obj
 0001:0003c100       __vcrt_getptd              000000018003d100 f   libvcruntimed:per_thread_data.obj
 0001:0003c130       __vcrt_getptd_noexit       000000018003d130 f   libvcruntimed:per_thread_data.obj
 0001:0003c2d0       __vcrt_getptd_noinit       000000018003d2d0 f   libvcruntimed:per_thread_data.obj
 0001:0003c330       __vcrt_initialize_ptd      000000018003d330 f   libvcruntimed:per_thread_data.obj
 0001:0003c380       __vcrt_uninitialize_ptd    000000018003d380 f   libvcruntimed:per_thread_data.obj
 0001:0003c3b0       __vcrt_initialize_locks    000000018003d3b0 f   libvcruntimed:locks.obj
 0001:0003c420       __vcrt_lock                000000018003d420 f   libvcruntimed:locks.obj
 0001:0003c450       __vcrt_uninitialize_locks  000000018003d450 f   libvcruntimed:locks.obj
 0001:0003c4b0       __vcrt_unlock              000000018003d4b0 f   libvcruntimed:locks.obj
 0001:0003c4f0       _NLG_Notify                000000018003d4f0 f   libvcruntimed:notify.obj
 0001:0003c510       __NLG_Dispatch2            000000018003d510 f   libvcruntimed:notify.obj
 0001:0003c520       __NLG_Return2              000000018003d520 f   libvcruntimed:notify.obj
 0001:0003c540       __except_validate_context_record 000000018003d540 f   libvcruntimed:jbcxrval.obj
 0001:0003c5a0       __except_validate_jump_buffer 000000018003d5a0 f   libvcruntimed:jbcxrval.obj
 0001:0003c5c0       __except_validate_jump_buffer_common 000000018003d5c0 f i libvcruntimed:jbcxrval.obj
 0001:0003c640       __DestructExceptionObject  000000018003d640 f   libvcruntimed:ehhelpers.obj
 0001:0003c740       ?_CallMemberFunction0@@YAXQEAX0@Z 000000018003d740 f i libvcruntimed:ehhelpers.obj
 0001:0003c770       ?raw_name@type_info@@QEBAPEBDXZ 000000018003d770 f i libvcruntimed:ehhelpers.obj
 0001:0003c780       _IsExceptionObjectToBeDestroyed 000000018003d780 f   libvcruntimed:ehhelpers.obj
 0001:0003c7d0       _SetWinRTOutOfMemoryExceptionCallback 000000018003d7d0 f   libvcruntimed:ehhelpers.obj
 0001:0003c7f0       __AdjustPointer            000000018003d7f0 f   libvcruntimed:ehhelpers.obj
 0001:0003c870       __FrameUnwindFilter        000000018003d870 f   libvcruntimed:ehhelpers.obj
 0001:0003c900       __GetPlatformExceptionInfo 000000018003d900 f   libvcruntimed:ehhelpers.obj
 0001:0003c9b0       __current_exception        000000018003d9b0 f   libvcruntimed:ehhelpers.obj
 0001:0003c9d0       __current_exception_context 000000018003d9d0 f   libvcruntimed:ehhelpers.obj
 0001:0003c9f0       __processing_throw         000000018003d9f0 f   libvcruntimed:ehhelpers.obj
 0001:0003ca10       __std_terminate            000000018003da10 f   libvcruntimed:ehhelpers.obj
 0001:0003ca20       _is_exception_typeof       000000018003da20 f   libvcruntimed:ehhelpers.obj
 0001:0003cb70       ?GetCurrentState@__FrameHandler3@@SAHPEA_KPEAU_xDISPATCHER_CONTEXT@@PEBU_s_FuncInfo@@@Z 000000018003db70 f   libvcruntimed:ehstate.obj
 0001:0003cbd0       ?GetUnwindTryBlock@__FrameHandler3@@SAHPEA_KPEAU_xDISPATCHER_CONTEXT@@PEBU_s_FuncInfo@@@Z 000000018003dbd0 f   libvcruntimed:ehstate.obj
 0001:0003cc20       ?SetState@__FrameHandler3@@SAXPEA_KPEBU_s_FuncInfo@@H@Z 000000018003dc20 f   libvcruntimed:ehstate.obj
 0001:0003cc50       ?SetUnwindTryBlock@__FrameHandler3@@SAXPEA_KPEAU_xDISPATCHER_CONTEXT@@PEBU_s_FuncInfo@@H@Z 000000018003dc50 f   libvcruntimed:ehstate.obj
 0001:0003ccc0       ?StateFromControlPc@__FrameHandler3@@SAHPEBU_s_FuncInfo@@PEAU_xDISPATCHER_CONTEXT@@@Z 000000018003dcc0 f   libvcruntimed:ehstate.obj
 0001:0003cd00       ?StateFromControlPc@__FrameHandler4@@SAHPEAUFuncInfo4@FH4@@PEAU_xDISPATCHER_CONTEXT@@@Z 000000018003dd00 f   libvcruntimed:ehstate.obj
 0001:0003cd40       ?StateFromIp@__FrameHandler3@@SAHPEBU_s_FuncInfo@@PEAU_xDISPATCHER_CONTEXT@@_K@Z 000000018003dd40 f   libvcruntimed:ehstate.obj
 0001:0003ce30       ?StateFromIp@__FrameHandler4@@SAHPEAUFuncInfo4@FH4@@PEAU_xDISPATCHER_CONTEXT@@_K@Z 000000018003de30 f   libvcruntimed:ehstate.obj
 0001:0003cf20       ?__FuncRelToRealOffset@@YA_KPEAU_xDISPATCHER_CONTEXT@@I@Z 000000018003df20 f i libvcruntimed:ehstate.obj
 0001:0003cf50       ?__RVAtoRealOffset@@YA_KPEAU_xDISPATCHER_CONTEXT@@H@Z 000000018003df50 f i libvcruntimed:ehstate.obj
 0001:0003f2e0       ??$TypeMatchHelper@V__FrameHandler3@@@@YAHPEBU_s_HandlerType@@PEBU_s_CatchableType@@PEBU_s_ThrowInfo@@@Z 00000001800402e0 f i libvcruntimed:frame.obj
 0001:0003f4e0       ??$TypeMatchHelper@V__FrameHandler4@@@@YAHPEAUHandlerType4@FH4@@PEBU_s_CatchableType@@PEBU_s_ThrowInfo@@@Z 00000001800404e0 f i libvcruntimed:frame.obj
 0001:0003f6f0       ??$__InternalCxxFrameHandler@V__FrameHandler3@@@@YA?AW4_EXCEPTION_DISPOSITION@@PEAUEHExceptionRecord@@PEA_KPEAU_CONTEXT@@PEAU_xDISPATCHER_CONTEXT@@PEBU_s_FuncInfo@@H1E@Z 00000001800406f0 f i libvcruntimed:frame.obj
 0001:0003fb90       ??$__InternalCxxFrameHandler@V__FrameHandler4@@@@YA?AW4_EXCEPTION_DISPOSITION@@PEAUEHExceptionRecord@@PEA_KPEAU_CONTEXT@@PEAU_xDISPATCHER_CONTEXT@@PEAUFuncInfo4@FH4@@H1E@Z 0000000180040b90 f i libvcruntimed:frame.obj
 0001:00040050       ??0HandlerMap4@FH4@@QEAA@PEBUTryBlockMapEntry4@1@_KH@Z 0000000180041050 f i libvcruntimed:frame.obj
 0001:00040110       ??0HandlerMap@__FrameHandler3@@QEAA@PEBU_s_TryBlockMapEntry@@_KI@Z 0000000180041110 f i libvcruntimed:frame.obj
 0001:00040160       ??0HandlerType4@FH4@@QEAA@XZ 0000000180041160 f i libvcruntimed:frame.obj
 0001:00040180       ??0TryBlockMap4@FH4@@QEAA@PEBUFuncInfo4@1@_K@Z 0000000180041180 f i libvcruntimed:frame.obj
 0001:00040210       ??0TryBlockMap@__FrameHandler3@@QEAA@PEBU_s_FuncInfo@@_K@Z 0000000180041210 f i libvcruntimed:frame.obj
 0001:00040240       ??0UWMap4@FH4@@QEAA@PEBUFuncInfo4@1@_K@Z 0000000180041240 f i libvcruntimed:frame.obj
 0001:000402b0       ??0bad_exception@std@@QEAA@AEBV01@@Z 00000001800412b0 f i libvcruntimed:frame.obj
 0001:000402f0       ??0bad_exception@std@@QEAA@XZ 00000001800412f0 f i libvcruntimed:frame.obj
 0001:00040330       ??0iterator@HandlerMap4@FH4@@QEAA@AEAV12@I@Z 0000000180041330 f i libvcruntimed:frame.obj
 0001:00040360       ??0iterator@HandlerMap@__FrameHandler3@@QEAA@AEAV12@I@Z 0000000180041360 f i libvcruntimed:frame.obj
 0001:00040390       ??0iterator@UWMap4@FH4@@QEAA@AEAV12@PEAE@Z 0000000180041390 f i libvcruntimed:frame.obj
 0001:000403c0       ??1bad_exception@std@@UEAA@XZ 00000001800413c0 f i libvcruntimed:frame.obj
 0001:000403e0       ??4iterator@UWMap4@FH4@@QEAAAEAV012@AEBV012@@Z 00000001800413e0 f i libvcruntimed:frame.obj
 0001:00040430       ??8iterator@HandlerMap4@FH4@@QEBA_NAEBV012@@Z 0000000180041430 f i libvcruntimed:frame.obj
 0001:00040470       ??8iterator@HandlerMap@__FrameHandler3@@QEBA_NAEBV012@@Z 0000000180041470 f i libvcruntimed:frame.obj
 0001:000404b0       ??8type_info@@QEBA_NAEBV0@@Z 00000001800414b0 f i libvcruntimed:frame.obj
 0001:00040500       ??9iterator@HandlerMap4@FH4@@QEBA_NAEBV012@@Z 0000000180041500 f i libvcruntimed:frame.obj
 0001:00040540       ??9iterator@HandlerMap@__FrameHandler3@@QEBA_NAEBV012@@Z 0000000180041540 f i libvcruntimed:frame.obj
 0001:00040580       ??Diterator@HandlerMap4@FH4@@QEAA?AUHandlerType4@2@XZ 0000000180041580 f i libvcruntimed:frame.obj
 0001:000405b0       ??Diterator@HandlerMap@__FrameHandler3@@QEAA?BU_s_HandlerType@@XZ 00000001800415b0 f i libvcruntimed:frame.obj
 0001:000405f0       ??Diterator@TryBlockMap@__FrameHandler3@@QEAA?BU_s_TryBlockMapEntry@@XZ 00000001800415f0 f i libvcruntimed:frame.obj
 0001:00040640       ??Diterator@UWMap4@FH4@@QEAA?AUUnwindMapEntry4@2@XZ 0000000180041640 f i libvcruntimed:frame.obj
 0001:000406c0       ??Eiterator@HandlerMap4@FH4@@QEAAAEAV012@XZ 00000001800416c0 f i libvcruntimed:frame.obj
 0001:00040700       ??Eiterator@HandlerMap@__FrameHandler3@@QEAAAEAV012@XZ 0000000180041700 f i libvcruntimed:frame.obj
 0001:00040720       ??Eiterator@TryBlockMap@__FrameHandler3@@QEAAAEAV012@XZ 0000000180041720 f i libvcruntimed:frame.obj
 0001:00040740       ??Eiterator@UWMap4@FH4@@QEAAAEAV012@XZ 0000000180041740 f i libvcruntimed:frame.obj
 0001:00040780       ??Giterator@UWMap4@FH4@@QEBA_JAEBV012@@Z 0000000180041780 f i libvcruntimed:frame.obj
 0001:000407a0       ??Miterator@TryBlockMap4@FH4@@QEBA_NAEBV012@@Z 00000001800417a0 f i libvcruntimed:frame.obj
 0001:000407e0       ??Miterator@TryBlockMap@__FrameHandler3@@QEBA_NAEBV012@@Z 00000001800417e0 f i libvcruntimed:frame.obj
 0001:00040820       ??Oiterator@UWMap4@FH4@@QEBA_NAEBV012@@Z 0000000180041820 f i libvcruntimed:frame.obj
 0001:00040860       ??Piterator@UWMap4@FH4@@QEBA_NAEBV012@@Z 0000000180041860 f i libvcruntimed:frame.obj
 0001:000408a0       ??_Gbad_exception@std@@UEAAPEAXI@Z 00000001800418a0 f i libvcruntimed:frame.obj
 0001:000408a0       ??_Ebad_exception@std@@UEAAPEAXI@Z 00000001800418a0 f i libvcruntimed:frame.obj
 0001:000408e0       ?BuildCatchObject@__FrameHandler3@@SAXPEAUEHExceptionRecord@@PEAXPEBU_s_HandlerType@@PEBU_s_CatchableType@@@Z 00000001800418e0 f   libvcruntimed:frame.obj
 0001:00040920       ?BuildCatchObject@__FrameHandler4@@SAXPEAUEHExceptionRecord@@PEAXPEAUHandlerType4@FH4@@PEBU_s_CatchableType@@@Z 0000000180041920 f   libvcruntimed:frame.obj
 0001:00040960       ?BuildCatchObjectHelper@__FrameHandler3@@SAHPEAUEHExceptionRecord@@PEAXPEBU_s_HandlerType@@PEBU_s_CatchableType@@@Z 0000000180041960 f   libvcruntimed:frame.obj
 0001:000409a0       ?BuildCatchObjectHelper@__FrameHandler4@@SAHPEAUEHExceptionRecord@@PEAXPEAUHandlerType4@FH4@@PEBU_s_CatchableType@@@Z 00000001800419a0 f   libvcruntimed:frame.obj
 0001:000409e0       ?CxxCallCatchBlock@__FrameHandler3@@SAPEAXPEAU_EXCEPTION_RECORD@@@Z 00000001800419e0 f   libvcruntimed:frame.obj
 0001:00040c40       ?CxxCallCatchBlock@__FrameHandler4@@SAPEAXPEAU_EXCEPTION_RECORD@@@Z 0000000180041c40 f   libvcruntimed:frame.obj
 0001:00040f70       ?DecompHandler@HandlerMap4@FH4@@AEAAXXZ 0000000180041f70 f i libvcruntimed:frame.obj
 0001:00041340       ?FrameUnwindToState@__FrameHandler3@@SAXPEA_KPEAU_xDISPATCHER_CONTEXT@@PEBU_s_FuncInfo@@H@Z 0000000180042340 f   libvcruntimed:frame.obj
 0001:00041590       ?FrameUnwindToState@__FrameHandler4@@SAXPEA_KPEAU_xDISPATCHER_CONTEXT@@PEAUFuncInfo4@FH4@@H@Z 0000000180042590 f   libvcruntimed:frame.obj
 0001:000418e0       ?GetHandlerSearchState@__FrameHandler3@@SAHPEA_KPEAU_xDISPATCHER_CONTEXT@@PEBU_s_FuncInfo@@@Z 00000001800428e0 f i libvcruntimed:frame.obj
 0001:00041990       ?GetHandlerSearchState@__FrameHandler4@@SAHPEA_KPEAU_xDISPATCHER_CONTEXT@@PEAUFuncInfo4@FH4@@@Z 0000000180042990 f i libvcruntimed:frame.obj
 0001:00041a10       ?GetMaxState@__FrameHandler3@@SAHPEAU_xDISPATCHER_CONTEXT@@PEBU_s_FuncInfo@@@Z 0000000180042a10 f i libvcruntimed:frame.obj
 0001:00041a30       ?GetMaxState@__FrameHandler4@@SAHPEAU_xDISPATCHER_CONTEXT@@PEAUFuncInfo4@FH4@@@Z 0000000180042a30 f i libvcruntimed:frame.obj
 0001:00041c70       ?ReadEntry@UWMap4@FH4@@AEAAXPEAPEAE@Z 0000000180042c70 f i libvcruntimed:frame.obj
 0001:00041d20       ?TypeMatch@__FrameHandler3@@SAHPEBU_s_HandlerType@@PEBU_s_CatchableType@@PEBU_s_ThrowInfo@@@Z 0000000180042d20 f   libvcruntimed:frame.obj
 0001:00041d50       ?TypeMatch@__FrameHandler4@@SAHPEAUHandlerType4@FH4@@PEBU_s_CatchableType@@PEBU_s_ThrowInfo@@@Z 0000000180042d50 f   libvcruntimed:frame.obj
 0001:00041d80       ?WalkBack@UWMap4@FH4@@AEAAXPEAPEAE@Z 0000000180042d80 f i libvcruntimed:frame.obj
 0001:00041dd0       ?WalkBack@iterator@UWMap4@FH4@@QEAAXXZ 0000000180042dd0 f i libvcruntimed:frame.obj
 0001:00041e10       ?WalkForward@UWMap4@FH4@@AEAAXPEAPEAE@Z 0000000180042e10 f i libvcruntimed:frame.obj
 0001:00041e40       ?_CallMemberFunction1@@YAXQEAX00@Z 0000000180042e40 f i libvcruntimed:frame.obj
 0001:00041e80       ?_CallMemberFunction2@@YAXQEAX00H@Z 0000000180042e80 f i libvcruntimed:frame.obj
 0001:00041ed0       ?_ValidateExecute@@YA_NP6A_JXZ@Z 0000000180042ed0 f i libvcruntimed:frame.obj
 0001:00041ef0       ?_ValidateRead@@YA_NPEBXI@Z 0000000180042ef0 f i libvcruntimed:frame.obj
 0001:00041f10       ?_ValidateWrite@@YA_NPEAXI@Z 0000000180042f10 f i libvcruntimed:frame.obj
 0001:00041f70       ?begin@HandlerMap4@FH4@@QEAA?AViterator@12@XZ 0000000180042f70 f i libvcruntimed:frame.obj
 0001:00041fa0       ?begin@HandlerMap@__FrameHandler3@@QEAA?AViterator@12@XZ 0000000180042fa0 f i libvcruntimed:frame.obj
 0001:00041fd0       ?begin@UWMap4@FH4@@QEAA?AViterator@12@XZ 0000000180042fd0 f i libvcruntimed:frame.obj
 0001:00042000       ?end@HandlerMap4@FH4@@QEAA?AViterator@12@XZ 0000000180043000 f i libvcruntimed:frame.obj
 0001:00042030       ?end@HandlerMap@__FrameHandler3@@QEAA?AViterator@12@XZ 0000000180043030 f i libvcruntimed:frame.obj
 0001:00042060       ?getESTypes@__FrameHandler3@@SAPEBU_s_ESTypeList@@PEBU_s_FuncInfo@@@Z 0000000180043060 f i libvcruntimed:frame.obj
 0001:000420a0       ?getESTypes@__FrameHandler4@@SAPEBU_s_ESTypeList@@PEAUFuncInfo4@FH4@@@Z 00000001800430a0 f i libvcruntimed:frame.obj
 0001:000420b0       ?getLastEntry@HandlerMap4@FH4@@QEAAPEAUHandlerType4@2@XZ 00000001800430b0 f i libvcruntimed:frame.obj
 0001:000420f0       ?getLastEntry@HandlerMap@__FrameHandler3@@QEAAPEBU_s_HandlerType@@XZ 00000001800430f0 f i libvcruntimed:frame.obj
 0001:00042110       ?getMagicNum@__FrameHandler3@@SAIPEBU_s_FuncInfo@@@Z 0000000180043110 f i libvcruntimed:frame.obj
 0001:00042130       ?getMagicNum@__FrameHandler4@@SAIPEAUFuncInfo4@FH4@@@Z 0000000180043130 f i libvcruntimed:frame.obj
 0001:00042140       ?getNumTryBlocks@TryBlockMap4@FH4@@QEAAIXZ 0000000180043140 f i libvcruntimed:frame.obj
 0001:00042150       ?getNumTryBlocks@TryBlockMap@__FrameHandler3@@QEAAIXZ 0000000180043150 f i libvcruntimed:frame.obj
 0001:00042170       ?getStartStop@UWMap4@FH4@@QEAAXHHAEAViterator@12@0@Z 0000000180043170 f i libvcruntimed:frame.obj
 0001:00042290       ?getStateFromIterators@UWMap4@FH4@@SAHAEBViterator@12@H0H0@Z 0000000180043290 f i libvcruntimed:frame.obj
 0001:000423d0       ?isEHs@__FrameHandler3@@SA_NPEBU_s_FuncInfo@@@Z 00000001800433d0 f i libvcruntimed:frame.obj
 0001:00042410       ?isEHs@__FrameHandler4@@SA_NPEAUFuncInfo4@FH4@@@Z 0000000180043410 f i libvcruntimed:frame.obj
 0001:00042430       ?isNoExcept@__FrameHandler3@@SA_NPEBU_s_FuncInfo@@@Z 0000000180043430 f i libvcruntimed:frame.obj
 0001:00042470       ?isNoExcept@__FrameHandler4@@SA_NPEAUFuncInfo4@FH4@@@Z 0000000180043470 f i libvcruntimed:frame.obj
 0001:00042490       ?reset@HandlerType4@FH4@@QEAAXXZ 0000000180043490 f i libvcruntimed:frame.obj
 0001:000424f0       ?resetBuffer@HandlerMap4@FH4@@QEAAXXZ 00000001800434f0 f i libvcruntimed:frame.obj
 0001:00042510       ?setBuffer@HandlerMap4@FH4@@QEAAXI@Z 0000000180043510 f i libvcruntimed:frame.obj
 0001:00042570       __BuildCatchObject         0000000180043570 f   libvcruntimed:frame.obj
 0001:000425b0       __BuildCatchObjectHelper   00000001800435b0 f   libvcruntimed:frame.obj
 0001:000425f0       __TypeMatch                00000001800435f0 f   libvcruntimed:frame.obj
 0001:00042620       __vcrt_EncodePointer       0000000180043620 f i libvcruntimed:frame.obj
 0001:00042640       ??0Block@_HeapManager@@QEAA@XZ 0000000180043640 f i libvcruntimed:undname.obj
 0001:00042660       ??0DName@@QEAA@AEAPEBDD@Z  0000000180043660 f   libvcruntimed:undname.obj
 0001:00042910       ??0DName@@QEAA@AEBV0@@Z    0000000180043910 f i libvcruntimed:undname.obj
 0001:00042940       ??0DName@@QEAA@D@Z         0000000180043940 f   libvcruntimed:undname.obj
 0001:00042990       ??0DName@@QEAA@PEAV0@@Z    0000000180043990 f   libvcruntimed:undname.obj
 0001:00042a70       ??0DName@@QEAA@PEBD@Z      0000000180043a70 f   libvcruntimed:undname.obj
 0001:00042ae0       ??0DName@@QEAA@W4DNameStatus@@@Z 0000000180043ae0 f   libvcruntimed:undname.obj
 0001:00042b90       ??0DName@@QEAA@XZ          0000000180043b90 f i libvcruntimed:undname.obj
 0001:00042bc0       ??0DName@@QEAA@_J@Z        0000000180043bc0 f   libvcruntimed:undname.obj
 0001:00042cd0       ??0DName@@QEAA@_K@Z        0000000180043cd0 f   libvcruntimed:undname.obj
 0001:00042da0       ??0DNameNode@@IEAA@XZ      0000000180043da0 f i libvcruntimed:undname.obj
 0001:00042dc0       ??0Replicator@@QEAA@XZ     0000000180043dc0 f i libvcruntimed:undname.obj
 0001:00042e00       ??0UnDecorator@@QEAA@PEBDP6APEADJ@ZK@Z 0000000180043e00 f i libvcruntimed:undname.obj
 0001:00042eb0       ??0charNode@@QEAA@D@Z      0000000180043eb0 f i libvcruntimed:undname.obj
 0001:00042ef0       ??0pDNameNode@@QEAA@PEAVDName@@@Z 0000000180043ef0 f   libvcruntimed:undname.obj
 0001:00042f70       ??0pairNode@@QEAA@PEBVDNameNode@@0@Z 0000000180043f70 f i libvcruntimed:undname.obj
 0001:00042fd0       ??0pcharNode@@QEAA@PEBDH@Z 0000000180043fd0 f   libvcruntimed:undname.obj
 0001:000430c0       ??2@YAPEAX_KAEAV_HeapManager@@H@Z 00000001800440c0 f i libvcruntimed:undname.obj
 0001:000430f0       ??4DName@@QEAAAEAV0@AEBV0@@Z 00000001800440f0 f   libvcruntimed:undname.obj
 0001:00043120       ??4DName@@QEAAAEAV0@D@Z    0000000180044120 f i libvcruntimed:undname.obj
 0001:00043170       ??4DName@@QEAAAEAV0@PEAV0@@Z 0000000180044170 f   libvcruntimed:undname.obj
 0001:00043240       ??4DName@@QEAAAEAV0@PEBD@Z 0000000180044240 f   libvcruntimed:undname.obj
 0001:00043290       ??4DName@@QEAAAEAV0@W4DNameStatus@@@Z 0000000180044290 f   libvcruntimed:undname.obj
 0001:00043320       ??AReplicator@@QEBA?AVDName@@H@Z 0000000180044320 f   libvcruntimed:undname.obj
 0001:000433b0       ??H@YA?AVDName@@DAEBV0@@Z  00000001800443b0 f i libvcruntimed:undname.obj
 0001:00043400       ??H@YA?AVDName@@PEBDAEBV0@@Z 0000000180044400 f i libvcruntimed:undname.obj
 0001:00043450       ??H@YA?AVDName@@W4DNameStatus@@AEBV0@@Z 0000000180044450 f i libvcruntimed:undname.obj
 0001:000434a0       ??HDName@@QEBA?AV0@AEBV0@@Z 00000001800444a0 f   libvcruntimed:undname.obj
 0001:000434f0       ??HDName@@QEBA?AV0@D@Z     00000001800444f0 f   libvcruntimed:undname.obj
 0001:00043540       ??HDName@@QEBA?AV0@PEAV0@@Z 0000000180044540 f   libvcruntimed:undname.obj
 0001:00043590       ??HDName@@QEBA?AV0@PEBD@Z  0000000180044590 f   libvcruntimed:undname.obj
 0001:000435e0       ??HDName@@QEBA?AV0@W4DNameStatus@@@Z 00000001800445e0 f   libvcruntimed:undname.obj
 0001:00043630       ??YDName@@QEAAAEAV0@AEBV0@@Z 0000000180044630 f   libvcruntimed:undname.obj
 0001:000436b0       ??YDName@@QEAAAEAV0@D@Z    00000001800446b0 f   libvcruntimed:undname.obj
 0001:00043750       ??YDName@@QEAAAEAV0@PEAV0@@Z 0000000180044750 f   libvcruntimed:undname.obj
 0001:00043830       ??YDName@@QEAAAEAV0@PEBD@Z 0000000180044830 f   libvcruntimed:undname.obj
 0001:00043900       ??YDName@@QEAAAEAV0@W4DNameStatus@@@Z 0000000180044900 f   libvcruntimed:undname.obj
 0001:00043970       ??YReplicator@@QEAAAEAV0@AEBVDName@@@Z 0000000180044970 f   libvcruntimed:undname.obj
 0001:00043a30       ??_5DName@@QEAAAEAV0@AEBV0@@Z 0000000180044a30 f   libvcruntimed:undname.obj
 0001:00043aa0       ?Constructor@_HeapManager@@QEAAXP6APEAX_K@ZP6AXPEAX@Z@Z 0000000180044aa0 f i libvcruntimed:undname.obj
 0001:00043b00       ?Destructor@_HeapManager@@QEAAXXZ 0000000180044b00 f i libvcruntimed:undname.obj
 0001:00043b80       ?UScore@UnDecorator@@SAPEBDW4Tokens@@@Z 0000000180044b80 f   libvcruntimed:undname.obj
 0001:00043bc0       ?append@DName@@AEAAXPEBVDNameNode@@@Z 0000000180044bc0 f   libvcruntimed:undname.obj
 0001:00043c70       ?composeDeclaration@UnDecorator@@CA?AVDName@@AEBV2@@Z 0000000180044c70 f i libvcruntimed:undname.obj
 0001:00045e40       ?dbGetString@DName@@QEBAPEADXZ 0000000180046e40 f   libvcruntimed:undname.obj
 0001:00045e70       ?doAccessSpecifiers@UnDecorator@@SAHXZ 0000000180046e70 f i libvcruntimed:undname.obj
 0001:00045ea0       ?doAllocationLanguage@UnDecorator@@SAHXZ 0000000180046ea0 f i libvcruntimed:undname.obj
 0001:00045ed0       ?doAllocationModel@UnDecorator@@SAHXZ 0000000180046ed0 f i libvcruntimed:undname.obj
 0001:00045f00       ?doEcsu@UnDecorator@@SAHXZ 0000000180046f00 f i libvcruntimed:undname.obj
 0001:00045f30       ?doEllipsis@UnDecorator@@SAHXZ 0000000180046f30 f i libvcruntimed:undname.obj
 0001:00045f60       ?doFunctionReturns@UnDecorator@@SAHXZ 0000000180046f60 f i libvcruntimed:undname.obj
 0001:00045f90       ?doMSKeywords@UnDecorator@@SAHXZ 0000000180046f90 f i libvcruntimed:undname.obj
 0001:00045fc0       ?doMemberTypes@UnDecorator@@SAHXZ 0000000180046fc0 f i libvcruntimed:undname.obj
 0001:00045ff0       ?doNameOnly@UnDecorator@@SAHXZ 0000000180046ff0 f i libvcruntimed:undname.obj
 0001:00046000       ?doNoIdentCharCheck@UnDecorator@@SAHXZ 0000000180047000 f i libvcruntimed:undname.obj
 0001:00046010       ?doPchar@DName@@AEAAXPEBDH@Z 0000000180047010 f   libvcruntimed:undname.obj
 0001:000461a0       ?doPtr64@UnDecorator@@SAHXZ 00000001800471a0 f i libvcruntimed:undname.obj
 0001:000461d0       ?doRestrictionSpec@UnDecorator@@SAHXZ 00000001800471d0 f i libvcruntimed:undname.obj
 0001:00046200       ?doThisTypes@UnDecorator@@SAHXZ 0000000180047200 f i libvcruntimed:undname.obj
 0001:00046230       ?doThrowTypes@UnDecorator@@SAHXZ 0000000180047230 f i libvcruntimed:undname.obj
 0001:00046260       ?doTypeOnly@UnDecorator@@SAHXZ 0000000180047260 f i libvcruntimed:undname.obj
 0001:00046270       ?doUnderScore@UnDecorator@@SAHXZ 0000000180047270 f i libvcruntimed:undname.obj
 0001:000462a0       ?getArgumentList@UnDecorator@@CA?AVDName@@XZ 00000001800472a0 f   libvcruntimed:undname.obj
 0001:00046440       ?getArgumentTypes@UnDecorator@@CA?AVDName@@XZ 0000000180047440 f   libvcruntimed:undname.obj
 0001:000465f0       ?getArrayType@UnDecorator@@CA?AVDName@@AEBV2@@Z 00000001800475f0 f i libvcruntimed:undname.obj
 0001:00046950       ?getBasedType@UnDecorator@@CA?AVDName@@XZ 0000000180047950 f   libvcruntimed:undname.obj
 0001:00046a40       ?getBasicDataType@UnDecorator@@CA?AVDName@@AEBV2@@Z 0000000180047a40 f   libvcruntimed:undname.obj
 0001:000471b0       ?getCHPEName@UnDecorator@@QEAAPEADPEADH@Z 00000001800481b0 f i libvcruntimed:undname.obj
 0001:00047380       ?getCallIndex@UnDecorator@@CA?AVDName@@XZ 0000000180048380 f i libvcruntimed:undname.obj
 0001:000473a0       ?getCallingConvention@UnDecorator@@CA?AVDName@@XZ 00000001800483a0 f   libvcruntimed:undname.obj
 0001:000475e0       ?getDataIndirectType@UnDecorator@@CA?AVDName@@AEBV2@PEBD0H@Z 00000001800485e0 f   libvcruntimed:undname.obj
 0001:000480b0       ?getDataIndirectType@UnDecorator@@CA?AVDName@@XZ 00000001800490b0 f i libvcruntimed:undname.obj
 0001:00048120       ?getDataType@UnDecorator@@CA?AVDName@@PEAV2@@Z 0000000180049120 f   libvcruntimed:undname.obj
 0001:000482b0       ?getDecoratedName@UnDecorator@@CA?AVDName@@XZ 00000001800492b0 f   libvcruntimed:undname.obj
 0001:00048750       ?getDimension@UnDecorator@@CA?AVDName@@_N@Z 0000000180049750 f   libvcruntimed:undname.obj
 0001:00048ab0       ?getDispatchTarget@UnDecorator@@CA?AVDName@@XZ 0000000180049ab0 f   libvcruntimed:undname.obj
 0001:00048b80       ?getDisplacement@UnDecorator@@CA?AVDName@@XZ 0000000180049b80 f i libvcruntimed:undname.obj
 0001:00048ba0       ?getECSUDataType@UnDecorator@@CA?AVDName@@XZ 0000000180049ba0 f   libvcruntimed:undname.obj
 0001:00048de0       ?getECSUName@UnDecorator@@CA?AVDName@@XZ 0000000180049de0 f i libvcruntimed:undname.obj
 0001:00048e00       ?getEnumType@UnDecorator@@CA?AVDName@@XZ 0000000180049e00 f i libvcruntimed:undname.obj
 0001:00048f80       ?getExtendedDataIndirectType@UnDecorator@@CA?AVDName@@AEAPEBDAEA_NH@Z 0000000180049f80 f   libvcruntimed:undname.obj
 0001:000492a0       ?getExternalDataType@UnDecorator@@CA?AVDName@@AEBV2@@Z 000000018004a2a0 f i libvcruntimed:undname.obj
 0001:00049380       ?getFunctionIndirectType@UnDecorator@@CA?AVDName@@AEBV2@@Z 000000018004a380 f   libvcruntimed:undname.obj
 0001:00049980       ?getGuardNumber@UnDecorator@@CA?AVDName@@XZ 000000018004a980 f i libvcruntimed:undname.obj
 0001:000499a0       ?getLastChar@DName@@QEBADXZ 000000018004a9a0 f i libvcruntimed:undname.obj
 0001:000499f0       ?getLastChar@DNameStatusNode@@UEBADXZ 000000018004a9f0 f i libvcruntimed:undname.obj
 0001:00049a30       ?getLastChar@charNode@@UEBADXZ 000000018004aa30 f i libvcruntimed:undname.obj
 0001:00049a40       ?getLastChar@pDNameNode@@UEBADXZ 000000018004aa40 f i libvcruntimed:undname.obj
 0001:00049a80       ?getLastChar@pairNode@@UEBADXZ 000000018004aa80 f i libvcruntimed:undname.obj
 0001:00049b00       ?getLastChar@pcharNode@@UEBADXZ 000000018004ab00 f i libvcruntimed:undname.obj
 0001:00049b40       ?getLexicalFrame@UnDecorator@@CA?AVDName@@XZ 000000018004ab40 f i libvcruntimed:undname.obj
 0001:00049b90       ?getMemory@_HeapManager@@QEAAPEAX_KH@Z 000000018004ab90 f   libvcruntimed:undname.obj
 0001:00049d10       ?getNoexcept@UnDecorator@@CA?AVDName@@XZ 000000018004ad10 f   libvcruntimed:undname.obj
 0001:00049da0       ?getNumberOfDimensions@UnDecorator@@CAHXZ 000000018004ada0 f   libvcruntimed:undname.obj
 0001:00049ec0       ?getOperatorName@UnDecorator@@CA?AVDName@@_NPEA_N@Z 000000018004aec0 f i libvcruntimed:undname.obj
 0001:0004aca0       ?getPointerType@UnDecorator@@CA?AVDName@@AEBV2@0@Z 000000018004bca0 f i libvcruntimed:undname.obj
 0001:0004acf0       ?getPointerTypeArray@UnDecorator@@CA?AVDName@@AEBV2@0@Z 000000018004bcf0 f i libvcruntimed:undname.obj
 0001:0004ad40       ?getPrimaryDataType@UnDecorator@@CA?AVDName@@AEBV2@@Z 000000018004bd40 f   libvcruntimed:undname.obj
 0001:0004b230       ?getPtrRefDataType@UnDecorator@@CA?AVDName@@AEBV2@H@Z 000000018004c230 f   libvcruntimed:undname.obj
 0001:0004b4c0       ?getPtrRefType@UnDecorator@@CA?AVDName@@AEBV2@0PEBD@Z 000000018004c4c0 f   libvcruntimed:undname.obj
 0001:0004b6d0       ?getReferenceType@UnDecorator@@CA?AVDName@@AEBV2@0PEBD@Z 000000018004c6d0 f i libvcruntimed:undname.obj
 0001:0004b710       ?getRestrictionSpec@UnDecorator@@CA?AVDName@@XZ 000000018004c710 f   libvcruntimed:undname.obj
 0001:0004b8e0       ?getReturnType@UnDecorator@@CA?AVDName@@PEAV2@@Z 000000018004c8e0 f   libvcruntimed:undname.obj
 0001:0004b940       ?getScope@UnDecorator@@CA?AVDName@@XZ 000000018004c940 f   libvcruntimed:undname.obj
 0001:0004bfc0       ?getScopedName@UnDecorator@@CA?AVDName@@XZ 000000018004cfc0 f   libvcruntimed:undname.obj
 0001:0004c150       ?getSignedDimension@UnDecorator@@CA?AVDName@@XZ 000000018004d150 f   libvcruntimed:undname.obj
 0001:0004c1e0       ?getStorageConvention@UnDecorator@@CA?AVDName@@XZ 000000018004d1e0 f i libvcruntimed:undname.obj
 0001:0004c200       ?getString@DName@@QEBAPEADPEAD0@Z 000000018004d200 f i libvcruntimed:undname.obj
 0001:0004c280       ?getString@DName@@QEBAPEADPEADH@Z 000000018004d280 f i libvcruntimed:undname.obj
 0001:0004c340       ?getString@DNameStatusNode@@UEBAPEADPEAD0@Z 000000018004d340 f i libvcruntimed:undname.obj
 0001:0004c390       ?getString@charNode@@UEBAPEADPEAD0@Z 000000018004d390 f i libvcruntimed:undname.obj
 0001:0004c3d0       ?getString@pDNameNode@@UEBAPEADPEAD0@Z 000000018004d3d0 f i libvcruntimed:undname.obj
 0001:0004c430       ?getString@pairNode@@UEBAPEADPEAD0@Z 000000018004d430 f i libvcruntimed:undname.obj
 0001:0004c500       ?getString@pcharNode@@UEBAPEADPEAD0@Z 000000018004d500 f i libvcruntimed:undname.obj
 0001:0004c540       ?getStringEncoding@UnDecorator@@CA?AVDName@@PEBDH@Z 000000018004d540 f   libvcruntimed:undname.obj
 0001:0004c680       ?getStringHelper@@YAPEADPEADPEBD1H@Z 000000018004d680 f i libvcruntimed:undname.obj
 0001:0004c6f0       ?getSymbolName@UnDecorator@@CA?AVDName@@XZ 000000018004d6f0 f i libvcruntimed:undname.obj
 0001:0004c790       ?getTemplateArgumentList@UnDecorator@@CA?AVDName@@XZ 000000018004d790 f   libvcruntimed:undname.obj
 0001:0004ca70       ?getTemplateName@UnDecorator@@CA?AVDName@@_N@Z 000000018004da70 f   libvcruntimed:undname.obj
 0001:0004ccb0       ?getTemplateNonTypeArgument@UnDecorator@@CA?AVDName@@XZ 000000018004dcb0 f   libvcruntimed:undname.obj
 0001:0004d3e0       ?getTemplateTypeArgument@UnDecorator@@CA?AVDName@@XZ 000000018004e3e0 f   libvcruntimed:undname.obj
 0001:0004d5b0       ?getThisType@UnDecorator@@CA?AVDName@@XZ 000000018004e5b0 f i libvcruntimed:undname.obj
 0001:0004d620       ?getThrowTypes@UnDecorator@@CA?AVDName@@XZ 000000018004e620 f   libvcruntimed:undname.obj
 0001:0004d670       ?getTypeEncoding@UnDecorator@@CAHXZ 000000018004e670 f i libvcruntimed:undname.obj
 0001:0004e270       ?getUndecoratedName@UnDecorator@@QEAAPEADPEADH@Z 000000018004f270 f i libvcruntimed:undname.obj
 0001:0004e430       ?getVCallThunkType@UnDecorator@@CA?AVDName@@XZ 000000018004f430 f i libvcruntimed:undname.obj
 0001:0004e4b0       ?getVbTableType@UnDecorator@@CA?AVDName@@AEBV2@@Z 000000018004f4b0 f i libvcruntimed:undname.obj
 0001:0004e4e0       ?getVdispMapType@UnDecorator@@CA?AVDName@@AEBV2@@Z 000000018004f4e0 f i libvcruntimed:undname.obj
 0001:0004e570       ?getVfTableType@UnDecorator@@CA?AVDName@@AEBV2@@Z 000000018004f570 f i libvcruntimed:undname.obj
 0001:0004e7b0       ?getZName@UnDecorator@@CA?AVDName@@_N0@Z 000000018004f7b0 f   libvcruntimed:undname.obj
 0001:0004eb70       ?haveTemplateParameters@UnDecorator@@SAHXZ 000000018004fb70 f i libvcruntimed:undname.obj
 0001:0004eb80       ?isArray@DName@@QEBAHXZ    000000018004fb80 f i libvcruntimed:undname.obj
 0001:0004eba0       ?isComArray@DName@@QEBAHXZ 000000018004fba0 f i libvcruntimed:undname.obj
 0001:0004ebc0       ?isEmpty@DName@@QEBAHXZ    000000018004fbc0 f i libvcruntimed:undname.obj
 0001:0004ebf0       ?isFull@Replicator@@QEBAHXZ 000000018004fbf0 f i libvcruntimed:undname.obj
 0001:0004ec20       ?isNoTE@DName@@QEBAHXZ     000000018004fc20 f i libvcruntimed:undname.obj
 0001:0004ec40       ?isPinPtr@DName@@QEBAHXZ   000000018004fc40 f i libvcruntimed:undname.obj
 0001:0004ec60       ?isPtrRef@DName@@QEBAHXZ   000000018004fc60 f i libvcruntimed:undname.obj
 0001:0004ec80       ?isUDC@DName@@QEBAHXZ      000000018004fc80 f i libvcruntimed:undname.obj
 0001:0004ecd0       ?isUDTThunk@DName@@QEBAHXZ 000000018004fcd0 f i libvcruntimed:undname.obj
 0001:0004ed20       ?isVCallThunk@DName@@QEBAHXZ 000000018004fd20 f i libvcruntimed:undname.obj
 0001:0004ed40       ?isValid@DName@@QEBAHXZ    000000018004fd40 f i libvcruntimed:undname.obj
 0001:0004ed80       ?length@DName@@QEBAHXZ     000000018004fd80 f i libvcruntimed:undname.obj
 0001:0004edd0       ?length@DNameStatusNode@@UEBAHXZ 000000018004fdd0 f i libvcruntimed:undname.obj
 0001:0004ede0       ?length@charNode@@UEBAHXZ  000000018004fde0 f i libvcruntimed:undname.obj
 0001:0004edf0       ?length@pDNameNode@@UEBAHXZ 000000018004fdf0 f i libvcruntimed:undname.obj
 0001:0004ee30       ?length@pairNode@@UEBAHXZ  000000018004fe30 f i libvcruntimed:undname.obj
 0001:0004eec0       ?length@pcharNode@@UEBAHXZ 000000018004fec0 f i libvcruntimed:undname.obj
 0001:0004eed0       ?make@DNameStatusNode@@SAPEBV1@W4DNameStatus@@@Z 000000018004fed0 f i libvcruntimed:undname.obj
 0001:0004ef20       ?parseDecoratedName@UnDecorator@@CA?AVDName@@XZ 000000018004ff20 f   libvcruntimed:undname.obj
 0001:0004f0e0       ?setIsArray@DName@@QEAAXXZ 00000001800500e0 f i libvcruntimed:undname.obj
 0001:0004f100       ?setIsComArray@DName@@QEAAXXZ 0000000180050100 f i libvcruntimed:undname.obj
 0001:0004f120       ?setIsNoTE@DName@@QEAAXXZ  0000000180050120 f i libvcruntimed:undname.obj
 0001:0004f140       ?setIsPinPtr@DName@@QEAAXXZ 0000000180050140 f i libvcruntimed:undname.obj
 0001:0004f160       ?setIsUDC@DName@@QEAAXXZ   0000000180050160 f i libvcruntimed:undname.obj
 0001:0004f190       ?setIsVCallThunk@DName@@QEAAXXZ 0000000180050190 f i libvcruntimed:undname.obj
 0001:0004f1b0       ?setPtrRef@DName@@QEAAAEAV1@XZ 00000001800501b0 f i libvcruntimed:undname.obj
 0001:0004f1d0       ?status@DName@@QEBA?AW4DNameStatus@@XZ 00000001800501d0 f i libvcruntimed:undname.obj
 0001:0004f300       __unDName                  0000000180050300 f   libvcruntimed:undname.obj
 0001:0004f360       __unDNameEx                0000000180050360 f   libvcruntimed:undname.obj
 0001:0004f420       unDNameGenerateCHPE        0000000180050420 f   libvcruntimed:undname.obj
 0001:0004f4d0       ??$__crt_interlocked_exchange_pointer@UHINSTANCE__@@PEAU1@@@YAPEAUHINSTANCE__@@PEDSEAU0@QEAU0@@Z 00000001800504d0 f i libvcruntimed:winapi_downlevel.obj
 0001:0004f4f0       ??$__crt_interlocked_exchange_pointer@UHINSTANCE__@@PEAX@@YAPEAUHINSTANCE__@@PEDSEAU0@QEAX@Z 00000001800504f0 f i libvcruntimed:winapi_downlevel.obj
 0001:0004f510       ??$__crt_interlocked_exchange_pointer@XPEAX@@YAPEAXPEDSEAXQEAX@Z 0000000180050510 f i libvcruntimed:winapi_downlevel.obj
 0001:0004f530       ??$__crt_interlocked_read_pointer@UHINSTANCE__@@@@YAPEAUHINSTANCE__@@PEDSEAU0@@Z 0000000180050530 f i libvcruntimed:winapi_downlevel.obj
 0001:0004f550       ??$__crt_interlocked_read_pointer@X@@YAPEAXPEDSEAX@Z 0000000180050550 f i libvcruntimed:winapi_downlevel.obj
 0001:0004fa60       __vcrt_FlsAlloc            0000000180050a60 f   libvcruntimed:winapi_downlevel.obj
 0001:0004fab0       __vcrt_FlsFree             0000000180050ab0 f   libvcruntimed:winapi_downlevel.obj
 0001:0004fb00       __vcrt_FlsGetValue         0000000180050b00 f   libvcruntimed:winapi_downlevel.obj
 0001:0004fb50       __vcrt_FlsSetValue         0000000180050b50 f   libvcruntimed:winapi_downlevel.obj
 0001:0004fbb0       __vcrt_InitializeCriticalSectionEx 0000000180050bb0 f   libvcruntimed:winapi_downlevel.obj
 0001:0004fc30       _CallSettingFrame          0000000180050c30 f   libvcruntimed:handlers.obj
 0001:0004fc80       _CallSettingFrame_LookupContinuationIndex 0000000180050c80 f   libvcruntimed:handlers.obj
 0001:0004fcb0       _CallSettingFrame_NotifyContinuationAddr 0000000180050cb0 f   libvcruntimed:handlers.obj
 0001:0004fce0       _CallSettingFrameEncoded   0000000180050ce0 f   libvcruntimed:handlers.obj
 0001:0004fd30       ??$?0AEBV?$stream_output_adapter@D@__crt_stdio_output@@AEB_KAEBQEBDAEBQEAU__crt_locale_pointers@@AEBQEAD@?$format_validation_base@DV?$stream_output_adapter@D@__crt_stdio_output@@@__crt_stdio_output@@IEAA@AEBV?$stream_output_adapter@D@1@AEB_KAEBQEBDAEBQEAU__crt_locale_pointers@@AEBQEAD@Z 0000000180050d30 f i libucrtd:output.obj
 0001:0004fd80       ??$?0AEBV?$stream_output_adapter@D@__crt_stdio_output@@AEB_KAEBQEBDAEBQEAU__crt_locale_pointers@@AEBQEAD@?$positional_parameter_base@DV?$stream_output_adapter@D@__crt_stdio_output@@@__crt_stdio_output@@IEAA@AEBV?$stream_output_adapter@D@1@AEB_KAEBQEBDAEBQEAU__crt_locale_pointers@@AEBQEAD@Z 0000000180050d80 f i libucrtd:output.obj
 0001:0004fe20       ??$?0AEBV?$stream_output_adapter@D@__crt_stdio_output@@AEB_KAEBQEBDAEBQEAU__crt_locale_pointers@@AEBQEAD@?$standard_base@DV?$stream_output_adapter@D@__crt_stdio_output@@@__crt_stdio_output@@IEAA@AEBV?$stream_output_adapter@D@1@AEB_KAEBQEBDAEBQEAU__crt_locale_pointers@@AEBQEAD@Z 0000000180050e20 f i libucrtd:output.obj
 0001:0004fe90       ??$?0AEBV?$stream_output_adapter@_W@__crt_stdio_output@@AEB_KAEBQEB_WAEBQEAU__crt_locale_pointers@@AEBQEAD@?$format_validation_base@_WV?$stream_output_adapter@_W@__crt_stdio_output@@@__crt_stdio_output@@IEAA@AEBV?$stream_output_adapter@_W@1@AEB_KAEBQEB_WAEBQEAU__crt_locale_pointers@@AEBQEAD@Z 0000000180050e90 f i libucrtd:output.obj
 0001:0004fee0       ??$?0AEBV?$stream_output_adapter@_W@__crt_stdio_output@@AEB_KAEBQEB_WAEBQEAU__crt_locale_pointers@@AEBQEAD@?$positional_parameter_base@_WV?$stream_output_adapter@_W@__crt_stdio_output@@@__crt_stdio_output@@IEAA@AEBV?$stream_output_adapter@_W@1@AEB_KAEBQEB_WAEBQEAU__crt_locale_pointers@@AEBQEAD@Z 0000000180050ee0 f i libucrtd:output.obj
 0001:0004ff80       ??$?0AEBV?$stream_output_adapter@_W@__crt_stdio_output@@AEB_KAEBQEB_WAEBQEAU__crt_locale_pointers@@AEBQEAD@?$standard_base@_WV?$stream_output_adapter@_W@__crt_stdio_output@@@__crt_stdio_output@@IEAA@AEBV?$stream_output_adapter@_W@1@AEB_KAEBQEB_WAEBQEAU__crt_locale_pointers@@AEBQEAD@Z 0000000180050f80 f i libucrtd:output.obj
 0001:0004fff0       ??$?0AEBV?$string_output_adapter@D@__crt_stdio_output@@AEB_KAEBQEBDAEBQEAU__crt_locale_pointers@@AEBQEAD@?$format_validation_base@DV?$string_output_adapter@D@__crt_stdio_output@@@__crt_stdio_output@@IEAA@AEBV?$string_output_adapter@D@1@AEB_KAEBQEBDAEBQEAU__crt_locale_pointers@@AEBQEAD@Z 0000000180050ff0 f i libucrtd:output.obj
 0001:00050040       ??$?0AEBV?$string_output_adapter@D@__crt_stdio_output@@AEB_KAEBQEBDAEBQEAU__crt_locale_pointers@@AEBQEAD@?$positional_parameter_base@DV?$string_output_adapter@D@__crt_stdio_output@@@__crt_stdio_output@@IEAA@AEBV?$string_output_adapter@D@1@AEB_KAEBQEBDAEBQEAU__crt_locale_pointers@@AEBQEAD@Z 0000000180051040 f i libucrtd:output.obj
 0001:000500e0       ??$?0AEBV?$string_output_adapter@D@__crt_stdio_output@@AEB_KAEBQEBDAEBQEAU__crt_locale_pointers@@AEBQEAD@?$standard_base@DV?$string_output_adapter@D@__crt_stdio_output@@@__crt_stdio_output@@IEAA@AEBV?$string_output_adapter@D@1@AEB_KAEBQEBDAEBQEAU__crt_locale_pointers@@AEBQEAD@Z 00000001800510e0 f i libucrtd:output.obj
 0001:00050150       ??$?0AEBV?$string_output_adapter@_W@__crt_stdio_output@@AEB_KAEBQEB_WAEBQEAU__crt_locale_pointers@@AEBQEAD@?$format_validation_base@_WV?$string_output_adapter@_W@__crt_stdio_output@@@__crt_stdio_output@@IEAA@AEBV?$string_output_adapter@_W@1@AEB_KAEBQEB_WAEBQEAU__crt_locale_pointers@@AEBQEAD@Z 0000000180051150 f i libucrtd:output.obj
 0001:000501a0       ??$?0AEBV?$string_output_adapter@_W@__crt_stdio_output@@AEB_KAEBQEB_WAEBQEAU__crt_locale_pointers@@AEBQEAD@?$positional_parameter_base@_WV?$string_output_adapter@_W@__crt_stdio_output@@@__crt_stdio_output@@IEAA@AEBV?$string_output_adapter@_W@1@AEB_KAEBQEB_WAEBQEAU__crt_locale_pointers@@AEBQEAD@Z 00000001800511a0 f i libucrtd:output.obj
 0001:00050240       ??$?0AEBV?$string_output_adapter@_W@__crt_stdio_output@@AEB_KAEBQEB_WAEBQEAU__crt_locale_pointers@@AEBQEAD@?$standard_base@_WV?$string_output_adapter@_W@__crt_stdio_output@@@__crt_stdio_output@@IEAA@AEBV?$string_output_adapter@_W@1@AEB_KAEBQEB_WAEBQEAU__crt_locale_pointers@@AEBQEAD@Z 0000000180051240 f i libucrtd:output.obj
 0001:00050670       ??$__crt_interlocked_read@J@@YAJPEDJ@Z 0000000180051670 f i libucrtd:output.obj
 0001:00054150       ??$count@D@formatting_buffer@__crt_stdio_output@@QEBA_KXZ 0000000180055150 f i libucrtd:output.obj
 0001:000541a0       ??$count@_W@formatting_buffer@__crt_stdio_output@@QEBA_KXZ 00000001800551a0 f i libucrtd:output.obj
 0001:000541f0       ??$data@D@formatting_buffer@__crt_stdio_output@@QEAAPEADXZ 00000001800551f0 f i libucrtd:output.obj
 0001:00054240       ??$data@_W@formatting_buffer@__crt_stdio_output@@QEAAPEA_WXZ 0000000180055240 f i libucrtd:output.obj
 0001:00054290       ??$ensure_buffer_is_big_enough@D@formatting_buffer@__crt_stdio_output@@QEAA_N_K@Z 0000000180055290 f i libucrtd:output.obj
 0001:000543c0       ??$ensure_buffer_is_big_enough@_W@formatting_buffer@__crt_stdio_output@@QEAA_N_K@Z 00000001800553c0 f i libucrtd:output.obj
 0001:000544f0       ??$extract_argument_from_va_list@C_J@?$positional_parameter_base@DV?$stream_output_adapter@D@__crt_stdio_output@@@__crt_stdio_output@@IEAA_NAEA_J@Z 00000001800554f0 f i libucrtd:output.obj
 0001:00054670       ??$extract_argument_from_va_list@C_J@?$positional_parameter_base@DV?$string_output_adapter@D@__crt_stdio_output@@@__crt_stdio_output@@IEAA_NAEA_J@Z 0000000180055670 f i libucrtd:output.obj
 0001:000547f0       ??$extract_argument_from_va_list@C_J@?$positional_parameter_base@_WV?$stream_output_adapter@_W@__crt_stdio_output@@@__crt_stdio_output@@IEAA_NAEA_J@Z 00000001800557f0 f i libucrtd:output.obj
 0001:00054970       ??$extract_argument_from_va_list@C_J@?$positional_parameter_base@_WV?$string_output_adapter@_W@__crt_stdio_output@@@__crt_stdio_output@@IEAA_NAEA_J@Z 0000000180055970 f i libucrtd:output.obj
 0001:00054af0       ??$extract_argument_from_va_list@C_J@?$standard_base@DV?$stream_output_adapter@D@__crt_stdio_output@@@__crt_stdio_output@@IEAA_NAEA_J@Z 0000000180055af0 f i libucrtd:output.obj
 0001:00054b30       ??$extract_argument_from_va_list@C_J@?$standard_base@DV?$string_output_adapter@D@__crt_stdio_output@@@__crt_stdio_output@@IEAA_NAEA_J@Z 0000000180055b30 f i libucrtd:output.obj
 0001:00054b70       ??$extract_argument_from_va_list@C_J@?$standard_base@_WV?$stream_output_adapter@_W@__crt_stdio_output@@@__crt_stdio_output@@IEAA_NAEA_J@Z 0000000180055b70 f i libucrtd:output.obj
 0001:00054bb0       ??$extract_argument_from_va_list@C_J@?$standard_base@_WV?$string_output_adapter@_W@__crt_stdio_output@@@__crt_stdio_output@@IEAA_NAEA_J@Z 0000000180055bb0 f i libucrtd:output.obj
 0001:00054bf0       ??$extract_argument_from_va_list@E_J@?$positional_parameter_base@DV?$stream_output_adapter@D@__crt_stdio_output@@@__crt_stdio_output@@IEAA_NAEA_J@Z 0000000180055bf0 f i libucrtd:output.obj
 0001:00054d70       ??$extract_argument_from_va_list@E_J@?$positional_parameter_base@DV?$string_output_adapter@D@__crt_stdio_output@@@__crt_stdio_output@@IEAA_NAEA_J@Z 0000000180055d70 f i libucrtd:output.obj
 0001:00054ef0       ??$extract_argument_from_va_list@E_J@?$positional_parameter_base@_WV?$stream_output_adapter@_W@__crt_stdio_output@@@__crt_stdio_output@@IEAA_NAEA_J@Z 0000000180055ef0 f i libucrtd:output.obj
 0001:00055070       ??$extract_argument_from_va_list@E_J@?$positional_parameter_base@_WV?$string_output_adapter@_W@__crt_stdio_output@@@__crt_stdio_output@@IEAA_NAEA_J@Z 0000000180056070 f i libucrtd:output.obj
 0001:000551f0       ??$extract_argument_from_va_list@E_J@?$standard_base@DV?$stream_output_adapter@D@__crt_stdio_output@@@__crt_stdio_output@@IEAA_NAEA_J@Z 00000001800561f0 f i libucrtd:output.obj
 0001:00055230       ??$extract_argument_from_va_list@E_J@?$standard_base@DV?$string_output_adapter@D@__crt_stdio_output@@@__crt_stdio_output@@IEAA_NAEA_J@Z 0000000180056230 f i libucrtd:output.obj
 0001:00055270       ??$extract_argument_from_va_list@E_J@?$standard_base@_WV?$stream_output_adapter@_W@__crt_stdio_output@@@__crt_stdio_output@@IEAA_NAEA_J@Z 0000000180056270 f i libucrtd:output.obj
 0001:000552b0       ??$extract_argument_from_va_list@E_J@?$standard_base@_WV?$string_output_adapter@_W@__crt_stdio_output@@@__crt_stdio_output@@IEAA_NAEA_J@Z 00000001800562b0 f i libucrtd:output.obj
 0001:000552f0       ??$extract_argument_from_va_list@F_J@?$positional_parameter_base@DV?$stream_output_adapter@D@__crt_stdio_output@@@__crt_stdio_output@@IEAA_NAEA_J@Z 00000001800562f0 f i libucrtd:output.obj
 0001:00055470       ??$extract_argument_from_va_list@F_J@?$positional_parameter_base@DV?$string_output_adapter@D@__crt_stdio_output@@@__crt_stdio_output@@IEAA_NAEA_J@Z 0000000180056470 f i libucrtd:output.obj
 0001:000555f0       ??$extract_argument_from_va_list@F_J@?$positional_parameter_base@_WV?$stream_output_adapter@_W@__crt_stdio_output@@@__crt_stdio_output@@IEAA_NAEA_J@Z 00000001800565f0 f i libucrtd:output.obj
 0001:00055770       ??$extract_argument_from_va_list@F_J@?$positional_parameter_base@_WV?$string_output_adapter@_W@__crt_stdio_output@@@__crt_stdio_output@@IEAA_NAEA_J@Z 0000000180056770 f i libucrtd:output.obj
 0001:000558f0       ??$extract_argument_from_va_list@F_J@?$standard_base@DV?$stream_output_adapter@D@__crt_stdio_output@@@__crt_stdio_output@@IEAA_NAEA_J@Z 00000001800568f0 f i libucrtd:output.obj
 0001:00055930       ??$extract_argument_from_va_list@F_J@?$standard_base@DV?$string_output_adapter@D@__crt_stdio_output@@@__crt_stdio_output@@IEAA_NAEA_J@Z 0000000180056930 f i libucrtd:output.obj
 0001:00055970       ??$extract_argument_from_va_list@F_J@?$standard_base@_WV?$stream_output_adapter@_W@__crt_stdio_output@@@__crt_stdio_output@@IEAA_NAEA_J@Z 0000000180056970 f i libucrtd:output.obj
 0001:000559b0       ??$extract_argument_from_va_list@F_J@?$standard_base@_WV?$string_output_adapter@_W@__crt_stdio_output@@@__crt_stdio_output@@IEAA_NAEA_J@Z 00000001800569b0 f i libucrtd:output.obj
 0001:000559f0       ??$extract_argument_from_va_list@GD@?$positional_parameter_base@DV?$stream_output_adapter@D@__crt_stdio_output@@@__crt_stdio_output@@IEAA_NAEAD@Z 00000001800569f0 f i libucrtd:output.obj
 0001:00055b70       ??$extract_argument_from_va_list@GD@?$positional_parameter_base@DV?$string_output_adapter@D@__crt_stdio_output@@@__crt_stdio_output@@IEAA_NAEAD@Z 0000000180056b70 f i libucrtd:output.obj
 0001:00055cf0       ??$extract_argument_from_va_list@GD@?$standard_base@DV?$stream_output_adapter@D@__crt_stdio_output@@@__crt_stdio_output@@IEAA_NAEAD@Z 0000000180056cf0 f i libucrtd:output.obj
 0001:00055d20       ??$extract_argument_from_va_list@GD@?$standard_base@DV?$string_output_adapter@D@__crt_stdio_output@@@__crt_stdio_output@@IEAA_NAEAD@Z 0000000180056d20 f i libucrtd:output.obj
 0001:00055d50       ??$extract_argument_from_va_list@G_J@?$positional_parameter_base@DV?$stream_output_adapter@D@__crt_stdio_output@@@__crt_stdio_output@@IEAA_NAEA_J@Z 0000000180056d50 f i libucrtd:output.obj
 0001:00055ed0       ??$extract_argument_from_va_list@G_J@?$positional_parameter_base@DV?$string_output_adapter@D@__crt_stdio_output@@@__crt_stdio_output@@IEAA_NAEA_J@Z 0000000180056ed0 f i libucrtd:output.obj
 0001:00056050       ??$extract_argument_from_va_list@G_J@?$positional_parameter_base@_WV?$stream_output_adapter@_W@__crt_stdio_output@@@__crt_stdio_output@@IEAA_NAEA_J@Z 0000000180057050 f i libucrtd:output.obj
 0001:000561d0       ??$extract_argument_from_va_list@G_J@?$positional_parameter_base@_WV?$string_output_adapter@_W@__crt_stdio_output@@@__crt_stdio_output@@IEAA_NAEA_J@Z 00000001800571d0 f i libucrtd:output.obj
 0001:00056350       ??$extract_argument_from_va_list@G_J@?$standard_base@DV?$stream_output_adapter@D@__crt_stdio_output@@@__crt_stdio_output@@IEAA_NAEA_J@Z 0000000180057350 f i libucrtd:output.obj
 0001:00056390       ??$extract_argument_from_va_list@G_J@?$standard_base@DV?$string_output_adapter@D@__crt_stdio_output@@@__crt_stdio_output@@IEAA_NAEA_J@Z 0000000180057390 f i libucrtd:output.obj
 0001:000563d0       ??$extract_argument_from_va_list@G_J@?$standard_base@_WV?$stream_output_adapter@_W@__crt_stdio_output@@@__crt_stdio_output@@IEAA_NAEA_J@Z 00000001800573d0 f i libucrtd:output.obj
 0001:00056410       ??$extract_argument_from_va_list@G_J@?$standard_base@_WV?$string_output_adapter@_W@__crt_stdio_output@@@__crt_stdio_output@@IEAA_NAEA_J@Z 0000000180057410 f i libucrtd:output.obj
 0001:00056450       ??$extract_argument_from_va_list@H_J@?$positional_parameter_base@DV?$stream_output_adapter@D@__crt_stdio_output@@@__crt_stdio_output@@IEAA_NAEA_J@Z 0000000180057450 f i libucrtd:output.obj
 0001:000565d0       ??$extract_argument_from_va_list@H_J@?$positional_parameter_base@DV?$string_output_adapter@D@__crt_stdio_output@@@__crt_stdio_output@@IEAA_NAEA_J@Z 00000001800575d0 f i libucrtd:output.obj
 0001:00056750       ??$extract_argument_from_va_list@H_J@?$positional_parameter_base@_WV?$stream_output_adapter@_W@__crt_stdio_output@@@__crt_stdio_output@@IEAA_NAEA_J@Z 0000000180057750 f i libucrtd:output.obj
 0001:000568d0       ??$extract_argument_from_va_list@H_J@?$positional_parameter_base@_WV?$string_output_adapter@_W@__crt_stdio_output@@@__crt_stdio_output@@IEAA_NAEA_J@Z 00000001800578d0 f i libucrtd:output.obj
 0001:00056a50       ??$extract_argument_from_va_list@H_J@?$standard_base@DV?$stream_output_adapter@D@__crt_stdio_output@@@__crt_stdio_output@@IEAA_NAEA_J@Z 0000000180057a50 f i libucrtd:output.obj
 0001:00056a80       ??$extract_argument_from_va_list@H_J@?$standard_base@DV?$string_output_adapter@D@__crt_stdio_output@@@__crt_stdio_output@@IEAA_NAEA_J@Z 0000000180057a80 f i libucrtd:output.obj
 0001:00056ab0       ??$extract_argument_from_va_list@H_J@?$standard_base@_WV?$stream_output_adapter@_W@__crt_stdio_output@@@__crt_stdio_output@@IEAA_NAEA_J@Z 0000000180057ab0 f i libucrtd:output.obj
 0001:00056ae0       ??$extract_argument_from_va_list@H_J@?$standard_base@_WV?$string_output_adapter@_W@__crt_stdio_output@@@__crt_stdio_output@@IEAA_NAEA_J@Z 0000000180057ae0 f i libucrtd:output.obj
 0001:00056b10       ??$extract_argument_from_va_list@I_J@?$positional_parameter_base@DV?$stream_output_adapter@D@__crt_stdio_output@@@__crt_stdio_output@@IEAA_NAEA_J@Z 0000000180057b10 f i libucrtd:output.obj
 0001:00056c90       ??$extract_argument_from_va_list@I_J@?$positional_parameter_base@DV?$string_output_adapter@D@__crt_stdio_output@@@__crt_stdio_output@@IEAA_NAEA_J@Z 0000000180057c90 f i libucrtd:output.obj
 0001:00056e10       ??$extract_argument_from_va_list@I_J@?$positional_parameter_base@_WV?$stream_output_adapter@_W@__crt_stdio_output@@@__crt_stdio_output@@IEAA_NAEA_J@Z 0000000180057e10 f i libucrtd:output.obj
 0001:00056f90       ??$extract_argument_from_va_list@I_J@?$positional_parameter_base@_WV?$string_output_adapter@_W@__crt_stdio_output@@@__crt_stdio_output@@IEAA_NAEA_J@Z 0000000180057f90 f i libucrtd:output.obj
 0001:00057110       ??$extract_argument_from_va_list@I_J@?$standard_base@DV?$stream_output_adapter@D@__crt_stdio_output@@@__crt_stdio_output@@IEAA_NAEA_J@Z 0000000180058110 f i libucrtd:output.obj
 0001:00057140       ??$extract_argument_from_va_list@I_J@?$standard_base@DV?$string_output_adapter@D@__crt_stdio_output@@@__crt_stdio_output@@IEAA_NAEA_J@Z 0000000180058140 f i libucrtd:output.obj
 0001:00057170       ??$extract_argument_from_va_list@I_J@?$standard_base@_WV?$stream_output_adapter@_W@__crt_stdio_output@@@__crt_stdio_output@@IEAA_NAEA_J@Z 0000000180058170 f i libucrtd:output.obj
 0001:000571a0       ??$extract_argument_from_va_list@I_J@?$standard_base@_WV?$string_output_adapter@_W@__crt_stdio_output@@@__crt_stdio_output@@IEAA_NAEA_J@Z 00000001800581a0 f i libucrtd:output.obj
 0001:000571d0       ??$extract_argument_from_va_list@PEADPEAD@?$positional_parameter_base@DV?$stream_output_adapter@D@__crt_stdio_output@@@__crt_stdio_output@@IEAA_NAEAPEAD@Z 00000001800581d0 f i libucrtd:output.obj
 0001:00057350       ??$extract_argument_from_va_list@PEADPEAD@?$positional_parameter_base@DV?$string_output_adapter@D@__crt_stdio_output@@@__crt_stdio_output@@IEAA_NAEAPEAD@Z 0000000180058350 f i libucrtd:output.obj
 0001:000574d0       ??$extract_argument_from_va_list@PEADPEAD@?$positional_parameter_base@_WV?$stream_output_adapter@_W@__crt_stdio_output@@@__crt_stdio_output@@IEAA_NAEAPEAD@Z 00000001800584d0 f i libucrtd:output.obj
 0001:00057650       ??$extract_argument_from_va_list@PEADPEAD@?$positional_parameter_base@_WV?$string_output_adapter@_W@__crt_stdio_output@@@__crt_stdio_output@@IEAA_NAEAPEAD@Z 0000000180058650 f i libucrtd:output.obj
 0001:000577d0       ??$extract_argument_from_va_list@PEADPEAD@?$standard_base@DV?$stream_output_adapter@D@__crt_stdio_output@@@__crt_stdio_output@@IEAA_NAEAPEAD@Z 00000001800587d0 f i libucrtd:output.obj
 0001:00057800       ??$extract_argument_from_va_list@PEADPEAD@?$standard_base@DV?$string_output_adapter@D@__crt_stdio_output@@@__crt_stdio_output@@IEAA_NAEAPEAD@Z 0000000180058800 f i libucrtd:output.obj
 0001:00057830       ??$extract_argument_from_va_list@PEADPEAD@?$standard_base@_WV?$stream_output_adapter@_W@__crt_stdio_output@@@__crt_stdio_output@@IEAA_NAEAPEAD@Z 0000000180058830 f i libucrtd:output.obj
 0001:00057860       ??$extract_argument_from_va_list@PEADPEAD@?$standard_base@_WV?$string_output_adapter@_W@__crt_stdio_output@@@__crt_stdio_output@@IEAA_NAEAPEAD@Z 0000000180058860 f i libucrtd:output.obj
 0001:000580d0       ??$extract_argument_from_va_list@PEAXPEAX@?$positional_parameter_base@DV?$stream_output_adapter@D@__crt_stdio_output@@@__crt_stdio_output@@IEAA_NAEAPEAX@Z 00000001800590d0 f i libucrtd:output.obj
 0001:00058250       ??$extract_argument_from_va_list@PEAXPEAX@?$positional_parameter_base@DV?$string_output_adapter@D@__crt_stdio_output@@@__crt_stdio_output@@IEAA_NAEAPEAX@Z 0000000180059250 f i libucrtd:output.obj
 0001:000583d0       ??$extract_argument_from_va_list@PEAXPEAX@?$positional_parameter_base@_WV?$stream_output_adapter@_W@__crt_stdio_output@@@__crt_stdio_output@@IEAA_NAEAPEAX@Z 00000001800593d0 f i libucrtd:output.obj
 0001:00058550       ??$extract_argument_from_va_list@PEAXPEAX@?$positional_parameter_base@_WV?$string_output_adapter@_W@__crt_stdio_output@@@__crt_stdio_output@@IEAA_NAEAPEAX@Z 0000000180059550 f i libucrtd:output.obj
 0001:000586d0       ??$extract_argument_from_va_list@PEAXPEAX@?$standard_base@DV?$stream_output_adapter@D@__crt_stdio_output@@@__crt_stdio_output@@IEAA_NAEAPEAX@Z 00000001800596d0 f i libucrtd:output.obj
 0001:00058700       ??$extract_argument_from_va_list@PEAXPEAX@?$standard_base@DV?$string_output_adapter@D@__crt_stdio_output@@@__crt_stdio_output@@IEAA_NAEAPEAX@Z 0000000180059700 f i libucrtd:output.obj
 0001:00058730       ??$extract_argument_from_va_list@PEAXPEAX@?$standard_base@_WV?$stream_output_adapter@_W@__crt_stdio_output@@@__crt_stdio_output@@IEAA_NAEAPEAX@Z 0000000180059730 f i libucrtd:output.obj
 0001:00058760       ??$extract_argument_from_va_list@PEAXPEAX@?$standard_base@_WV?$string_output_adapter@_W@__crt_stdio_output@@@__crt_stdio_output@@IEAA_NAEAPEAX@Z 0000000180059760 f i libucrtd:output.obj
 0001:00058790       ??$extract_argument_from_va_list@U_CRT_DOUBLE@@U1@@?$positional_parameter_base@DV?$stream_output_adapter@D@__crt_stdio_output@@@__crt_stdio_output@@IEAA_NAEAU_CRT_DOUBLE@@@Z 0000000180059790 f i libucrtd:output.obj
 0001:00058930       ??$extract_argument_from_va_list@U_CRT_DOUBLE@@U1@@?$positional_parameter_base@DV?$string_output_adapter@D@__crt_stdio_output@@@__crt_stdio_output@@IEAA_NAEAU_CRT_DOUBLE@@@Z 0000000180059930 f i libucrtd:output.obj
 0001:00058ad0       ??$extract_argument_from_va_list@U_CRT_DOUBLE@@U1@@?$positional_parameter_base@_WV?$stream_output_adapter@_W@__crt_stdio_output@@@__crt_stdio_output@@IEAA_NAEAU_CRT_DOUBLE@@@Z 0000000180059ad0 f i libucrtd:output.obj
 0001:00058c70       ??$extract_argument_from_va_list@U_CRT_DOUBLE@@U1@@?$positional_parameter_base@_WV?$string_output_adapter@_W@__crt_stdio_output@@@__crt_stdio_output@@IEAA_NAEAU_CRT_DOUBLE@@@Z 0000000180059c70 f i libucrtd:output.obj
 0001:00058e10       ??$extract_argument_from_va_list@U_CRT_DOUBLE@@U1@@?$standard_base@DV?$stream_output_adapter@D@__crt_stdio_output@@@__crt_stdio_output@@IEAA_NAEAU_CRT_DOUBLE@@@Z 0000000180059e10 f i libucrtd:output.obj
 0001:00058e60       ??$extract_argument_from_va_list@U_CRT_DOUBLE@@U1@@?$standard_base@DV?$string_output_adapter@D@__crt_stdio_output@@@__crt_stdio_output@@IEAA_NAEAU_CRT_DOUBLE@@@Z 0000000180059e60 f i libucrtd:output.obj
 0001:00058eb0       ??$extract_argument_from_va_list@U_CRT_DOUBLE@@U1@@?$standard_base@_WV?$stream_output_adapter@_W@__crt_stdio_output@@@__crt_stdio_output@@IEAA_NAEAU_CRT_DOUBLE@@@Z 0000000180059eb0 f i libucrtd:output.obj
 0001:00058f00       ??$extract_argument_from_va_list@U_CRT_DOUBLE@@U1@@?$standard_base@_WV?$string_output_adapter@_W@__crt_stdio_output@@@__crt_stdio_output@@IEAA_NAEAU_CRT_DOUBLE@@@Z 0000000180059f00 f i libucrtd:output.obj
 0001:00058f50       ??$extract_argument_from_va_list@_J_J@?$positional_parameter_base@DV?$stream_output_adapter@D@__crt_stdio_output@@@__crt_stdio_output@@IEAA_NAEA_J@Z 0000000180059f50 f i libucrtd:output.obj
 0001:000590d0       ??$extract_argument_from_va_list@_J_J@?$positional_parameter_base@DV?$string_output_adapter@D@__crt_stdio_output@@@__crt_stdio_output@@IEAA_NAEA_J@Z 000000018005a0d0 f i libucrtd:output.obj
 0001:00059250       ??$extract_argument_from_va_list@_J_J@?$positional_parameter_base@_WV?$stream_output_adapter@_W@__crt_stdio_output@@@__crt_stdio_output@@IEAA_NAEA_J@Z 000000018005a250 f i libucrtd:output.obj
 0001:000593d0       ??$extract_argument_from_va_list@_J_J@?$positional_parameter_base@_WV?$string_output_adapter@_W@__crt_stdio_output@@@__crt_stdio_output@@IEAA_NAEA_J@Z 000000018005a3d0 f i libucrtd:output.obj
 0001:00059550       ??$extract_argument_from_va_list@_J_J@?$standard_base@DV?$stream_output_adapter@D@__crt_stdio_output@@@__crt_stdio_output@@IEAA_NAEA_J@Z 000000018005a550 f i libucrtd:output.obj
 0001:00059580       ??$extract_argument_from_va_list@_J_J@?$standard_base@DV?$string_output_adapter@D@__crt_stdio_output@@@__crt_stdio_output@@IEAA_NAEA_J@Z 000000018005a580 f i libucrtd:output.obj
 0001:000595b0       ??$extract_argument_from_va_list@_J_J@?$standard_base@_WV?$stream_output_adapter@_W@__crt_stdio_output@@@__crt_stdio_output@@IEAA_NAEA_J@Z 000000018005a5b0 f i libucrtd:output.obj
 0001:000595e0       ??$extract_argument_from_va_list@_J_J@?$standard_base@_WV?$string_output_adapter@_W@__crt_stdio_output@@@__crt_stdio_output@@IEAA_NAEA_J@Z 000000018005a5e0 f i libucrtd:output.obj
 0001:00059610       ??$extract_argument_from_va_list@_K_J@?$positional_parameter_base@DV?$stream_output_adapter@D@__crt_stdio_output@@@__crt_stdio_output@@IEAA_NAEA_J@Z 000000018005a610 f i libucrtd:output.obj
 0001:00059790       ??$extract_argument_from_va_list@_K_J@?$positional_parameter_base@DV?$string_output_adapter@D@__crt_stdio_output@@@__crt_stdio_output@@IEAA_NAEA_J@Z 000000018005a790 f i libucrtd:output.obj
 0001:00059910       ??$extract_argument_from_va_list@_K_J@?$positional_parameter_base@_WV?$stream_output_adapter@_W@__crt_stdio_output@@@__crt_stdio_output@@IEAA_NAEA_J@Z 000000018005a910 f i libucrtd:output.obj
 0001:00059a90       ??$extract_argument_from_va_list@_K_J@?$positional_parameter_base@_WV?$string_output_adapter@_W@__crt_stdio_output@@@__crt_stdio_output@@IEAA_NAEA_J@Z 000000018005aa90 f i libucrtd:output.obj
 0001:00059c10       ??$extract_argument_from_va_list@_K_J@?$standard_base@DV?$stream_output_adapter@D@__crt_stdio_output@@@__crt_stdio_output@@IEAA_NAEA_J@Z 000000018005ac10 f i libucrtd:output.obj
 0001:00059c40       ??$extract_argument_from_va_list@_K_J@?$standard_base@DV?$string_output_adapter@D@__crt_stdio_output@@@__crt_stdio_output@@IEAA_NAEA_J@Z 000000018005ac40 f i libucrtd:output.obj
 0001:00059c70       ??$extract_argument_from_va_list@_K_J@?$standard_base@_WV?$stream_output_adapter@_W@__crt_stdio_output@@@__crt_stdio_output@@IEAA_NAEA_J@Z 000000018005ac70 f i libucrtd:output.obj
 0001:00059ca0       ??$extract_argument_from_va_list@_K_J@?$standard_base@_WV?$string_output_adapter@_W@__crt_stdio_output@@@__crt_stdio_output@@IEAA_NAEA_J@Z 000000018005aca0 f i libucrtd:output.obj
 0001:00059cd0       ??$extract_argument_from_va_list@_W_W@?$positional_parameter_base@DV?$stream_output_adapter@D@__crt_stdio_output@@@__crt_stdio_output@@IEAA_NAEA_W@Z 000000018005acd0 f i libucrtd:output.obj
 0001:00059e50       ??$extract_argument_from_va_list@_W_W@?$positional_parameter_base@DV?$string_output_adapter@D@__crt_stdio_output@@@__crt_stdio_output@@IEAA_NAEA_W@Z 000000018005ae50 f i libucrtd:output.obj
 0001:00059fd0       ??$extract_argument_from_va_list@_W_W@?$positional_parameter_base@_WV?$stream_output_adapter@_W@__crt_stdio_output@@@__crt_stdio_output@@IEAA_NAEA_W@Z 000000018005afd0 f i libucrtd:output.obj
 0001:0005a150       ??$extract_argument_from_va_list@_W_W@?$positional_parameter_base@_WV?$string_output_adapter@_W@__crt_stdio_output@@@__crt_stdio_output@@IEAA_NAEA_W@Z 000000018005b150 f i libucrtd:output.obj
 0001:0005a2d0       ??$extract_argument_from_va_list@_W_W@?$standard_base@DV?$stream_output_adapter@D@__crt_stdio_output@@@__crt_stdio_output@@IEAA_NAEA_W@Z 000000018005b2d0 f i libucrtd:output.obj
 0001:0005a300       ??$extract_argument_from_va_list@_W_W@?$standard_base@DV?$string_output_adapter@D@__crt_stdio_output@@@__crt_stdio_output@@IEAA_NAEA_W@Z 000000018005b300 f i libucrtd:output.obj
 0001:0005a330       ??$extract_argument_from_va_list@_W_W@?$standard_base@_WV?$stream_output_adapter@_W@__crt_stdio_output@@@__crt_stdio_output@@IEAA_NAEA_W@Z 000000018005b330 f i libucrtd:output.obj
 0001:0005a360       ??$extract_argument_from_va_list@_W_W@?$standard_base@_WV?$string_output_adapter@_W@__crt_stdio_output@@@__crt_stdio_output@@IEAA_NAEA_W@Z 000000018005b360 f i libucrtd:output.obj
 0001:0005a390       ??$get_parameter_type@D@?$positional_parameter_base@DV?$stream_output_adapter@D@__crt_stdio_output@@@__crt_stdio_output@@CA?AW4parameter_type@01@PEAD@Z 000000018005b390 f i libucrtd:output.obj
 0001:0005a3a0       ??$get_parameter_type@D@?$positional_parameter_base@DV?$string_output_adapter@D@__crt_stdio_output@@@__crt_stdio_output@@CA?AW4parameter_type@01@PEAD@Z 000000018005b3a0 f i libucrtd:output.obj
 0001:0005a3b0       ??$get_parameter_type@D@?$positional_parameter_base@_WV?$stream_output_adapter@_W@__crt_stdio_output@@@__crt_stdio_output@@CA?AW4parameter_type@01@PEAD@Z 000000018005b3b0 f i libucrtd:output.obj
 0001:0005a3c0       ??$get_parameter_type@D@?$positional_parameter_base@_WV?$string_output_adapter@_W@__crt_stdio_output@@@__crt_stdio_output@@CA?AW4parameter_type@01@PEAD@Z 000000018005b3c0 f i libucrtd:output.obj
 0001:0005a410       ??$get_parameter_type@X@?$positional_parameter_base@DV?$stream_output_adapter@D@__crt_stdio_output@@@__crt_stdio_output@@CA?AW4parameter_type@01@PEAX@Z 000000018005b410 f i libucrtd:output.obj
 0001:0005a420       ??$get_parameter_type@X@?$positional_parameter_base@DV?$string_output_adapter@D@__crt_stdio_output@@@__crt_stdio_output@@CA?AW4parameter_type@01@PEAX@Z 000000018005b420 f i libucrtd:output.obj
 0001:0005a430       ??$get_parameter_type@X@?$positional_parameter_base@_WV?$stream_output_adapter@_W@__crt_stdio_output@@@__crt_stdio_output@@CA?AW4parameter_type@01@PEAX@Z 000000018005b430 f i libucrtd:output.obj
 0001:0005a440       ??$get_parameter_type@X@?$positional_parameter_base@_WV?$string_output_adapter@_W@__crt_stdio_output@@@__crt_stdio_output@@CA?AW4parameter_type@01@PEAX@Z 000000018005b440 f i libucrtd:output.obj
 0001:0005a450       ??$is_character_specifier@D@?$positional_parameter_base@DV?$stream_output_adapter@D@__crt_stdio_output@@@__crt_stdio_output@@CA_ND@Z 000000018005b450 f i libucrtd:output.obj
 0001:0005a490       ??$is_character_specifier@D@?$positional_parameter_base@DV?$string_output_adapter@D@__crt_stdio_output@@@__crt_stdio_output@@CA_ND@Z 000000018005b490 f i libucrtd:output.obj
 0001:0005a4d0       ??$is_character_specifier@_W@?$positional_parameter_base@_WV?$stream_output_adapter@_W@__crt_stdio_output@@@__crt_stdio_output@@CA_N_W@Z 000000018005b4d0 f i libucrtd:output.obj
 0001:0005a510       ??$is_character_specifier@_W@?$positional_parameter_base@_WV?$string_output_adapter@_W@__crt_stdio_output@@@__crt_stdio_output@@CA_N_W@Z 000000018005b510 f i libucrtd:output.obj
 0001:0005a550       ??$is_integral_specifier@D@?$positional_parameter_base@DV?$stream_output_adapter@D@__crt_stdio_output@@@__crt_stdio_output@@CA_ND@Z 000000018005b550 f i libucrtd:output.obj
 0001:0005a5c0       ??$is_integral_specifier@D@?$positional_parameter_base@DV?$string_output_adapter@D@__crt_stdio_output@@@__crt_stdio_output@@CA_ND@Z 000000018005b5c0 f i libucrtd:output.obj
 0001:0005a630       ??$is_integral_specifier@_W@?$positional_parameter_base@_WV?$stream_output_adapter@_W@__crt_stdio_output@@@__crt_stdio_output@@CA_N_W@Z 000000018005b630 f i libucrtd:output.obj
 0001:0005a6a0       ??$is_integral_specifier@_W@?$positional_parameter_base@_WV?$string_output_adapter@_W@__crt_stdio_output@@@__crt_stdio_output@@CA_N_W@Z 000000018005b6a0 f i libucrtd:output.obj
 0001:0005a710       ??$is_pointer_specifier@D@?$positional_parameter_base@DV?$stream_output_adapter@D@__crt_stdio_output@@@__crt_stdio_output@@CA_ND@Z 000000018005b710 f i libucrtd:output.obj
 0001:0005a740       ??$is_pointer_specifier@D@?$positional_parameter_base@DV?$string_output_adapter@D@__crt_stdio_output@@@__crt_stdio_output@@CA_ND@Z 000000018005b740 f i libucrtd:output.obj
 0001:0005a770       ??$is_pointer_specifier@_W@?$positional_parameter_base@_WV?$stream_output_adapter@_W@__crt_stdio_output@@@__crt_stdio_output@@CA_N_W@Z 000000018005b770 f i libucrtd:output.obj
 0001:0005a7a0       ??$is_pointer_specifier@_W@?$positional_parameter_base@_WV?$string_output_adapter@_W@__crt_stdio_output@@@__crt_stdio_output@@CA_N_W@Z 000000018005b7a0 f i libucrtd:output.obj
 0001:0005a7d0       ??$is_string_specifier@D@?$positional_parameter_base@DV?$stream_output_adapter@D@__crt_stdio_output@@@__crt_stdio_output@@CA_ND@Z 000000018005b7d0 f i libucrtd:output.obj
 0001:0005a810       ??$is_string_specifier@D@?$positional_parameter_base@DV?$string_output_adapter@D@__crt_stdio_output@@@__crt_stdio_output@@CA_ND@Z 000000018005b810 f i libucrtd:output.obj
 0001:0005a850       ??$is_string_specifier@_W@?$positional_parameter_base@_WV?$stream_output_adapter@_W@__crt_stdio_output@@@__crt_stdio_output@@CA_N_W@Z 000000018005b850 f i libucrtd:output.obj
 0001:0005a890       ??$is_string_specifier@_W@?$positional_parameter_base@_WV?$string_output_adapter@_W@__crt_stdio_output@@@__crt_stdio_output@@CA_N_W@Z 000000018005b890 f i libucrtd:output.obj
 0001:0005a8d0       ??$is_wide_character_specifier@D@__crt_stdio_output@@YA_N_KDW4length_modifier@0@@Z 000000018005b8d0 f i libucrtd:output.obj
 0001:0005a970       ??$is_wide_character_specifier@_W@__crt_stdio_output@@YA_N_K_WW4length_modifier@0@@Z 000000018005b970 f i libucrtd:output.obj
 0001:0005aa40       ??$peek_va_arg@C@__crt_stdio_output@@YACPEAD@Z 000000018005ba40 f i libucrtd:output.obj
 0001:0005aaa0       ??$peek_va_arg@E@__crt_stdio_output@@YAEPEAD@Z 000000018005baa0 f i libucrtd:output.obj
 0001:0005ab00       ??$peek_va_arg@F@__crt_stdio_output@@YAFPEAD@Z 000000018005bb00 f i libucrtd:output.obj
 0001:0005ab60       ??$peek_va_arg@G@__crt_stdio_output@@YAGPEAD@Z 000000018005bb60 f i libucrtd:output.obj
 0001:0005abc0       ??$peek_va_arg@H@__crt_stdio_output@@YAHPEAD@Z 000000018005bbc0 f i libucrtd:output.obj
 0001:0005ac10       ??$peek_va_arg@I@__crt_stdio_output@@YAIPEAD@Z 000000018005bc10 f i libucrtd:output.obj
 0001:0005ac60       ??$peek_va_arg@PEAD@__crt_stdio_output@@YAPEADPEAD@Z 000000018005bc60 f i libucrtd:output.obj
 0001:0005ae40       ??$peek_va_arg@PEAX@__crt_stdio_output@@YAPEAXPEAD@Z 000000018005be40 f i libucrtd:output.obj
 0001:0005aea0       ??$peek_va_arg@U_CRT_DOUBLE@@@__crt_stdio_output@@YA?AU_CRT_DOUBLE@@PEAD@Z 000000018005bea0 f i libucrtd:output.obj
 0001:0005af00       ??$peek_va_arg@_J@__crt_stdio_output@@YA_JPEAD@Z 000000018005bf00 f i libucrtd:output.obj
 0001:0005af60       ??$peek_va_arg@_K@__crt_stdio_output@@YA_KPEAD@Z 000000018005bf60 f i libucrtd:output.obj
 0001:0005afc0       ??$peek_va_arg@_W@__crt_stdio_output@@YA_WPEAD@Z 000000018005bfc0 f i libucrtd:output.obj
 0001:0005b020       ??$puttc_nolock@AEBDPEAU_iobuf@@@?$__crt_char_traits@D@@SAHAEBD$$QEAPEAU_iobuf@@@Z 000000018005c020 f i libucrtd:output.obj
 0001:0005b050       ??$puttc_nolock@AEB_WPEAU_iobuf@@@?$__crt_char_traits@_W@@SAGAEB_W$$QEAPEAU_iobuf@@@Z 000000018005c050 f i libucrtd:output.obj
 0001:0005b080       ??$read_va_arg@C@__crt_stdio_output@@YACAEAPEAD@Z 000000018005c080 f i libucrtd:output.obj
 0001:0005b0f0       ??$read_va_arg@E@__crt_stdio_output@@YAEAEAPEAD@Z 000000018005c0f0 f i libucrtd:output.obj
 0001:0005b160       ??$read_va_arg@F@__crt_stdio_output@@YAFAEAPEAD@Z 000000018005c160 f i libucrtd:output.obj
 0001:0005b1d0       ??$read_va_arg@G@__crt_stdio_output@@YAGAEAPEAD@Z 000000018005c1d0 f i libucrtd:output.obj
 0001:0005b240       ??$read_va_arg@H@__crt_stdio_output@@YAHAEAPEAD@Z 000000018005c240 f i libucrtd:output.obj
 0001:0005b2a0       ??$read_va_arg@I@__crt_stdio_output@@YAIAEAPEAD@Z 000000018005c2a0 f i libucrtd:output.obj
 0001:0005b300       ??$read_va_arg@PEAD@__crt_stdio_output@@YAPEADAEAPEAD@Z 000000018005c300 f i libucrtd:output.obj
 0001:0005b8b0       ??$read_va_arg@PEAX@__crt_stdio_output@@YAPEAXAEAPEAD@Z 000000018005c8b0 f i libucrtd:output.obj
 0001:0005b920       ??$read_va_arg@U_CRT_DOUBLE@@@__crt_stdio_output@@YA?AU_CRT_DOUBLE@@AEAPEAD@Z 000000018005c920 f i libucrtd:output.obj
 0001:0005b990       ??$read_va_arg@_J@__crt_stdio_output@@YA_JAEAPEAD@Z 000000018005c990 f i libucrtd:output.obj
 0001:0005ba00       ??$read_va_arg@_K@__crt_stdio_output@@YA_KAEAPEAD@Z 000000018005ca00 f i libucrtd:output.obj
 0001:0005ba70       ??$read_va_arg@_W@__crt_stdio_output@@YA_WAEAPEAD@Z 000000018005ca70 f i libucrtd:output.obj
 0001:0005bae0       ??$scratch_count@D@formatting_buffer@__crt_stdio_output@@QEBA_KXZ 000000018005cae0 f i libucrtd:output.obj
 0001:0005bb00       ??$scratch_data@D@formatting_buffer@__crt_stdio_output@@QEAAPEADXZ 000000018005cb00 f i libucrtd:output.obj
 0001:0005bb70       ??$tcstol@AEAPEBDPEAPEADH@?$__crt_char_traits@D@@SAJAEAPEBD$$QEAPEAPEAD$$QEAH@Z 000000018005cb70 f i libucrtd:output.obj
 0001:0005bbb0       ??$tcstol@AEAPEB_WPEAPEA_WH@?$__crt_char_traits@_W@@SAJAEAPEB_W$$QEAPEAPEA_W$$QEAH@Z 000000018005cbb0 f i libucrtd:output.obj
 0001:0005bbf0       ??$tcstol@PEBDPEAPEADH@?$__crt_char_traits@D@@SAJ$$QEAPEBD$$QEAPEAPEAD$$QEAH@Z 000000018005cbf0 f i libucrtd:output.obj
 0001:0005bc30       ??$tcstol@PEB_WPEAPEA_WH@?$__crt_char_traits@_W@@SAJ$$QEAPEB_W$$QEAPEAPEA_W$$QEAH@Z 000000018005cc30 f i libucrtd:output.obj
 0001:0005bc70       ??$type_case_integer_parse_into_buffer@I@?$output_processor@DV?$stream_output_adapter@D@__crt_stdio_output@@V?$format_validation_base@DV?$stream_output_adapter@D@__crt_stdio_output@@@2@@__crt_stdio_output@@AEAAXII_N@Z 000000018005cc70 f i libucrtd:output.obj
 0001:0005bda0       ??$type_case_integer_parse_into_buffer@I@?$output_processor@DV?$stream_output_adapter@D@__crt_stdio_output@@V?$positional_parameter_base@DV?$stream_output_adapter@D@__crt_stdio_output@@@2@@__crt_stdio_output@@AEAAXII_N@Z 000000018005cda0 f i libucrtd:output.obj
 0001:0005bed0       ??$type_case_integer_parse_into_buffer@I@?$output_processor@DV?$stream_output_adapter@D@__crt_stdio_output@@V?$standard_base@DV?$stream_output_adapter@D@__crt_stdio_output@@@2@@__crt_stdio_output@@AEAAXII_N@Z 000000018005ced0 f i libucrtd:output.obj
 0001:0005c000       ??$type_case_integer_parse_into_buffer@I@?$output_processor@DV?$string_output_adapter@D@__crt_stdio_output@@V?$format_validation_base@DV?$string_output_adapter@D@__crt_stdio_output@@@2@@__crt_stdio_output@@AEAAXII_N@Z 000000018005d000 f i libucrtd:output.obj
 0001:0005c130       ??$type_case_integer_parse_into_buffer@I@?$output_processor@DV?$string_output_adapter@D@__crt_stdio_output@@V?$positional_parameter_base@DV?$string_output_adapter@D@__crt_stdio_output@@@2@@__crt_stdio_output@@AEAAXII_N@Z 000000018005d130 f i libucrtd:output.obj
 0001:0005c260       ??$type_case_integer_parse_into_buffer@I@?$output_processor@DV?$string_output_adapter@D@__crt_stdio_output@@V?$standard_base@DV?$string_output_adapter@D@__crt_stdio_output@@@2@@__crt_stdio_output@@AEAAXII_N@Z 000000018005d260 f i libucrtd:output.obj
 0001:0005c390       ??$type_case_integer_parse_into_buffer@I@?$output_processor@_WV?$stream_output_adapter@_W@__crt_stdio_output@@V?$format_validation_base@_WV?$stream_output_adapter@_W@__crt_stdio_output@@@2@@__crt_stdio_output@@AEAAXII_N@Z 000000018005d390 f i libucrtd:output.obj
 0001:0005c4d0       ??$type_case_integer_parse_into_buffer@I@?$output_processor@_WV?$stream_output_adapter@_W@__crt_stdio_output@@V?$positional_parameter_base@_WV?$stream_output_adapter@_W@__crt_stdio_output@@@2@@__crt_stdio_output@@AEAAXII_N@Z 000000018005d4d0 f i libucrtd:output.obj
 0001:0005c610       ??$type_case_integer_parse_into_buffer@I@?$output_processor@_WV?$stream_output_adapter@_W@__crt_stdio_output@@V?$standard_base@_WV?$stream_output_adapter@_W@__crt_stdio_output@@@2@@__crt_stdio_output@@AEAAXII_N@Z 000000018005d610 f i libucrtd:output.obj
 0001:0005c750       ??$type_case_integer_parse_into_buffer@I@?$output_processor@_WV?$string_output_adapter@_W@__crt_stdio_output@@V?$format_validation_base@_WV?$string_output_adapter@_W@__crt_stdio_output@@@2@@__crt_stdio_output@@AEAAXII_N@Z 000000018005d750 f i libucrtd:output.obj
 0001:0005c890       ??$type_case_integer_parse_into_buffer@I@?$output_processor@_WV?$string_output_adapter@_W@__crt_stdio_output@@V?$positional_parameter_base@_WV?$string_output_adapter@_W@__crt_stdio_output@@@2@@__crt_stdio_output@@AEAAXII_N@Z 000000018005d890 f i libucrtd:output.obj
 0001:0005c9d0       ??$type_case_integer_parse_into_buffer@I@?$output_processor@_WV?$string_output_adapter@_W@__crt_stdio_output@@V?$standard_base@_WV?$string_output_adapter@_W@__crt_stdio_output@@@2@@__crt_stdio_output@@AEAAXII_N@Z 000000018005d9d0 f i libucrtd:output.obj
 0001:0005cb10       ??$type_case_integer_parse_into_buffer@_K@?$output_processor@DV?$stream_output_adapter@D@__crt_stdio_output@@V?$format_validation_base@DV?$stream_output_adapter@D@__crt_stdio_output@@@2@@__crt_stdio_output@@AEAAX_KI_N@Z 000000018005db10 f i libucrtd:output.obj
 0001:0005cc60       ??$type_case_integer_parse_into_buffer@_K@?$output_processor@DV?$stream_output_adapter@D@__crt_stdio_output@@V?$positional_parameter_base@DV?$stream_output_adapter@D@__crt_stdio_output@@@2@@__crt_stdio_output@@AEAAX_KI_N@Z 000000018005dc60 f i libucrtd:output.obj
 0001:0005cdb0       ??$type_case_integer_parse_into_buffer@_K@?$output_processor@DV?$stream_output_adapter@D@__crt_stdio_output@@V?$standard_base@DV?$stream_output_adapter@D@__crt_stdio_output@@@2@@__crt_stdio_output@@AEAAX_KI_N@Z 000000018005ddb0 f i libucrtd:output.obj
 0001:0005cf00       ??$type_case_integer_parse_into_buffer@_K@?$output_processor@DV?$string_output_adapter@D@__crt_stdio_output@@V?$format_validation_base@DV?$string_output_adapter@D@__crt_stdio_output@@@2@@__crt_stdio_output@@AEAAX_KI_N@Z 000000018005df00 f i libucrtd:output.obj
 0001:0005d050       ??$type_case_integer_parse_into_buffer@_K@?$output_processor@DV?$string_output_adapter@D@__crt_stdio_output@@V?$positional_parameter_base@DV?$string_output_adapter@D@__crt_stdio_output@@@2@@__crt_stdio_output@@AEAAX_KI_N@Z 000000018005e050 f i libucrtd:output.obj
 0001:0005d1a0       ??$type_case_integer_parse_into_buffer@_K@?$output_processor@DV?$string_output_adapter@D@__crt_stdio_output@@V?$standard_base@DV?$string_output_adapter@D@__crt_stdio_output@@@2@@__crt_stdio_output@@AEAAX_KI_N@Z 000000018005e1a0 f i libucrtd:output.obj
 0001:0005d2f0       ??$type_case_integer_parse_into_buffer@_K@?$output_processor@_WV?$stream_output_adapter@_W@__crt_stdio_output@@V?$format_validation_base@_WV?$stream_output_adapter@_W@__crt_stdio_output@@@2@@__crt_stdio_output@@AEAAX_KI_N@Z 000000018005e2f0 f i libucrtd:output.obj
 0001:0005d450       ??$type_case_integer_parse_into_buffer@_K@?$output_processor@_WV?$stream_output_adapter@_W@__crt_stdio_output@@V?$positional_parameter_base@_WV?$stream_output_adapter@_W@__crt_stdio_output@@@2@@__crt_stdio_output@@AEAAX_KI_N@Z 000000018005e450 f i libucrtd:output.obj
 0001:0005d5b0       ??$type_case_integer_parse_into_buffer@_K@?$output_processor@_WV?$stream_output_adapter@_W@__crt_stdio_output@@V?$standard_base@_WV?$stream_output_adapter@_W@__crt_stdio_output@@@2@@__crt_stdio_output@@AEAAX_KI_N@Z 000000018005e5b0 f i libucrtd:output.obj
 0001:0005d710       ??$type_case_integer_parse_into_buffer@_K@?$output_processor@_WV?$string_output_adapter@_W@__crt_stdio_output@@V?$format_validation_base@_WV?$string_output_adapter@_W@__crt_stdio_output@@@2@@__crt_stdio_output@@AEAAX_KI_N@Z 000000018005e710 f i libucrtd:output.obj
 0001:0005d870       ??$type_case_integer_parse_into_buffer@_K@?$output_processor@_WV?$string_output_adapter@_W@__crt_stdio_output@@V?$positional_parameter_base@_WV?$string_output_adapter@_W@__crt_stdio_output@@@2@@__crt_stdio_output@@AEAAX_KI_N@Z 000000018005e870 f i libucrtd:output.obj
 0001:0005d9d0       ??$type_case_integer_parse_into_buffer@_K@?$output_processor@_WV?$string_output_adapter@_W@__crt_stdio_output@@V?$standard_base@_WV?$string_output_adapter@_W@__crt_stdio_output@@@2@@__crt_stdio_output@@AEAAX_KI_N@Z 000000018005e9d0 f i libucrtd:output.obj
 0001:0005db30       ??$write_multiple_characters@V?$stream_output_adapter@D@__crt_stdio_output@@D@__crt_stdio_output@@YAXAEBV?$stream_output_adapter@D@0@DHQEAH@Z 000000018005eb30 f i libucrtd:output.obj
 0001:0005db90       ??$write_multiple_characters@V?$stream_output_adapter@_W@__crt_stdio_output@@D@__crt_stdio_output@@YAXAEBV?$stream_output_adapter@_W@0@DHQEAH@Z 000000018005eb90 f i libucrtd:output.obj
 0001:0005dbf0       ??$write_multiple_characters@V?$string_output_adapter@D@__crt_stdio_output@@D@__crt_stdio_output@@YAXAEBV?$string_output_adapter@D@0@DHQEAH@Z 000000018005ebf0 f i libucrtd:output.obj
 0001:0005dc50       ??$write_multiple_characters@V?$string_output_adapter@_W@__crt_stdio_output@@D@__crt_stdio_output@@YAXAEBV?$string_output_adapter@_W@0@DHQEAH@Z 000000018005ec50 f i libucrtd:output.obj
 0001:0005e070       ??0?$common_data@D@__crt_stdio_output@@IEAA@XZ 000000018005f070 f i libucrtd:output.obj
 0001:0005e140       ??0?$common_data@_W@__crt_stdio_output@@IEAA@XZ 000000018005f140 f i libucrtd:output.obj
 0001:0005e210       ??0?$output_adapter_data@DV?$stream_output_adapter@D@__crt_stdio_output@@@__crt_stdio_output@@IEAA@AEBV?$stream_output_adapter@D@1@_KQEBDQEAU__crt_locale_pointers@@QEAD@Z 000000018005f210 f i libucrtd:output.obj
 0001:0005e290       ??0?$output_adapter_data@DV?$string_output_adapter@D@__crt_stdio_output@@@__crt_stdio_output@@IEAA@AEBV?$string_output_adapter@D@1@_KQEBDQEAU__crt_locale_pointers@@QEAD@Z 000000018005f290 f i libucrtd:output.obj
 0001:0005e310       ??0?$output_adapter_data@_WV?$stream_output_adapter@_W@__crt_stdio_output@@@__crt_stdio_output@@IEAA@AEBV?$stream_output_adapter@_W@1@_KQEB_WQEAU__crt_locale_pointers@@QEAD@Z 000000018005f310 f i libucrtd:output.obj
 0001:0005e390       ??0?$output_adapter_data@_WV?$string_output_adapter@_W@__crt_stdio_output@@@__crt_stdio_output@@IEAA@AEBV?$string_output_adapter@_W@1@_KQEB_WQEAU__crt_locale_pointers@@QEAD@Z 000000018005f390 f i libucrtd:output.obj
 0001:0005e410       ??0?$output_processor@DV?$stream_output_adapter@D@__crt_stdio_output@@V?$format_validation_base@DV?$stream_output_adapter@D@__crt_stdio_output@@@2@@__crt_stdio_output@@QEAA@AEBV?$stream_output_adapter@D@1@_KQEBDQEAU__crt_locale_pointers@@QEAD@Z 000000018005f410 f i libucrtd:output.obj
 0001:0005e460       ??0?$output_processor@DV?$stream_output_adapter@D@__crt_stdio_output@@V?$positional_parameter_base@DV?$stream_output_adapter@D@__crt_stdio_output@@@2@@__crt_stdio_output@@QEAA@AEBV?$stream_output_adapter@D@1@_KQEBDQEAU__crt_locale_pointers@@QEAD@Z 000000018005f460 f i libucrtd:output.obj
 0001:0005e4b0       ??0?$output_processor@DV?$stream_output_adapter@D@__crt_stdio_output@@V?$standard_base@DV?$stream_output_adapter@D@__crt_stdio_output@@@2@@__crt_stdio_output@@QEAA@AEBV?$stream_output_adapter@D@1@_KQEBDQEAU__crt_locale_pointers@@QEAD@Z 000000018005f4b0 f i libucrtd:output.obj
 0001:0005e500       ??0?$output_processor@DV?$string_output_adapter@D@__crt_stdio_output@@V?$format_validation_base@DV?$string_output_adapter@D@__crt_stdio_output@@@2@@__crt_stdio_output@@QEAA@AEBV?$string_output_adapter@D@1@_KQEBDQEAU__crt_locale_pointers@@QEAD@Z 000000018005f500 f i libucrtd:output.obj
 0001:0005e550       ??0?$output_processor@DV?$string_output_adapter@D@__crt_stdio_output@@V?$positional_parameter_base@DV?$string_output_adapter@D@__crt_stdio_output@@@2@@__crt_stdio_output@@QEAA@AEBV?$string_output_adapter@D@1@_KQEBDQEAU__crt_locale_pointers@@QEAD@Z 000000018005f550 f i libucrtd:output.obj
 0001:0005e5a0       ??0?$output_processor@DV?$string_output_adapter@D@__crt_stdio_output@@V?$standard_base@DV?$string_output_adapter@D@__crt_stdio_output@@@2@@__crt_stdio_output@@QEAA@AEBV?$string_output_adapter@D@1@_KQEBDQEAU__crt_locale_pointers@@QEAD@Z 000000018005f5a0 f i libucrtd:output.obj
 0001:0005e5f0       ??0?$output_processor@_WV?$stream_output_adapter@_W@__crt_stdio_output@@V?$format_validation_base@_WV?$stream_output_adapter@_W@__crt_stdio_output@@@2@@__crt_stdio_output@@QEAA@AEBV?$stream_output_adapter@_W@1@_KQEB_WQEAU__crt_locale_pointers@@QEAD@Z 000000018005f5f0 f i libucrtd:output.obj
 0001:0005e640       ??0?$output_processor@_WV?$stream_output_adapter@_W@__crt_stdio_output@@V?$positional_parameter_base@_WV?$stream_output_adapter@_W@__crt_stdio_output@@@2@@__crt_stdio_output@@QEAA@AEBV?$stream_output_adapter@_W@1@_KQEB_WQEAU__crt_locale_pointers@@QEAD@Z 000000018005f640 f i libucrtd:output.obj
 0001:0005e690       ??0?$output_processor@_WV?$stream_output_adapter@_W@__crt_stdio_output@@V?$standard_base@_WV?$stream_output_adapter@_W@__crt_stdio_output@@@2@@__crt_stdio_output@@QEAA@AEBV?$stream_output_adapter@_W@1@_KQEB_WQEAU__crt_locale_pointers@@QEAD@Z 000000018005f690 f i libucrtd:output.obj
 0001:0005e6e0       ??0?$output_processor@_WV?$string_output_adapter@_W@__crt_stdio_output@@V?$format_validation_base@_WV?$string_output_adapter@_W@__crt_stdio_output@@@2@@__crt_stdio_output@@QEAA@AEBV?$string_output_adapter@_W@1@_KQEB_WQEAU__crt_locale_pointers@@QEAD@Z 000000018005f6e0 f i libucrtd:output.obj
 0001:0005e730       ??0?$output_processor@_WV?$string_output_adapter@_W@__crt_stdio_output@@V?$positional_parameter_base@_WV?$string_output_adapter@_W@__crt_stdio_output@@@2@@__crt_stdio_output@@QEAA@AEBV?$string_output_adapter@_W@1@_KQEB_WQEAU__crt_locale_pointers@@QEAD@Z 000000018005f730 f i libucrtd:output.obj
 0001:0005e780       ??0?$output_processor@_WV?$string_output_adapter@_W@__crt_stdio_output@@V?$standard_base@_WV?$string_output_adapter@_W@__crt_stdio_output@@@2@@__crt_stdio_output@@QEAA@AEBV?$string_output_adapter@_W@1@_KQEB_WQEAU__crt_locale_pointers@@QEAD@Z 000000018005f780 f i libucrtd:output.obj
 0001:0005e7d0       ??0?$stream_output_adapter@D@__crt_stdio_output@@QEAA@QEAU_iobuf@@@Z 000000018005f7d0 f i libucrtd:output.obj
 0001:0005e800       ??0?$stream_output_adapter@_W@__crt_stdio_output@@QEAA@QEAU_iobuf@@@Z 000000018005f800 f i libucrtd:output.obj
 0001:0005e830       ??0?$string_output_adapter@D@__crt_stdio_output@@QEAA@QEAU?$string_output_adapter_context@D@1@@Z 000000018005f830 f i libucrtd:output.obj
 0001:0005e850       ??0?$string_output_adapter@_W@__crt_stdio_output@@QEAA@QEAU?$string_output_adapter_context@_W@1@@Z 000000018005f850 f i libucrtd:output.obj
 0001:0005e870       ??0_LocaleUpdate@@QEAA@QEAU__crt_locale_pointers@@@Z 000000018005f870 f i libucrtd:output.obj
 0001:0005e990       ??0__acrt_stdio_temporary_buffering_guard@@QEAA@QEAU_iobuf@@@Z 000000018005f990 f i libucrtd:output.obj
 0001:0005e9d0       ??0__crt_deferred_errno_cache@@QEAA@XZ 000000018005f9d0 f i libucrtd:output.obj
 0001:0005e9f0       ??0__crt_errno_guard@@QEAA@QEAH@Z 000000018005f9f0 f i libucrtd:output.obj
 0001:0005ea30       ??0__crt_stdio_stream@@QEAA@QEAU_iobuf@@@Z 000000018005fa30 f i libucrtd:output.obj
 0001:0005ea50       ??0formatting_buffer@__crt_stdio_output@@QEAA@XZ 000000018005fa50 f i libucrtd:output.obj
 0001:0005ea90       ??1?$common_data@D@__crt_stdio_output@@QEAA@XZ 000000018005fa90 f i libucrtd:output.obj
 0001:0005eab0       ??1?$common_data@_W@__crt_stdio_output@@QEAA@XZ 000000018005fab0 f i libucrtd:output.obj
 0001:0005ead0       ??1?$format_validation_base@DV?$stream_output_adapter@D@__crt_stdio_output@@@__crt_stdio_output@@QEAA@XZ 000000018005fad0 f i libucrtd:output.obj
 0001:0005eaf0       ??1?$format_validation_base@DV?$string_output_adapter@D@__crt_stdio_output@@@__crt_stdio_output@@QEAA@XZ 000000018005faf0 f i libucrtd:output.obj
 0001:0005eb10       ??1?$format_validation_base@_WV?$stream_output_adapter@_W@__crt_stdio_output@@@__crt_stdio_output@@QEAA@XZ 000000018005fb10 f i libucrtd:output.obj
 0001:0005eb30       ??1?$format_validation_base@_WV?$string_output_adapter@_W@__crt_stdio_output@@@__crt_stdio_output@@QEAA@XZ 000000018005fb30 f i libucrtd:output.obj
 0001:0005eb50       ??1?$output_adapter_data@DV?$stream_output_adapter@D@__crt_stdio_output@@@__crt_stdio_output@@QEAA@XZ 000000018005fb50 f i libucrtd:output.obj
 0001:0005eb70       ??1?$output_adapter_data@DV?$string_output_adapter@D@__crt_stdio_output@@@__crt_stdio_output@@QEAA@XZ 000000018005fb70 f i libucrtd:output.obj
 0001:0005eb90       ??1?$output_adapter_data@_WV?$stream_output_adapter@_W@__crt_stdio_output@@@__crt_stdio_output@@QEAA@XZ 000000018005fb90 f i libucrtd:output.obj
 0001:0005ebb0       ??1?$output_adapter_data@_WV?$string_output_adapter@_W@__crt_stdio_output@@@__crt_stdio_output@@QEAA@XZ 000000018005fbb0 f i libucrtd:output.obj
 0001:0005ebd0       ??1?$output_processor@DV?$stream_output_adapter@D@__crt_stdio_output@@V?$format_validation_base@DV?$stream_output_adapter@D@__crt_stdio_output@@@2@@__crt_stdio_output@@QEAA@XZ 000000018005fbd0 f i libucrtd:output.obj
 0001:0005ebf0       ??1?$output_processor@DV?$stream_output_adapter@D@__crt_stdio_output@@V?$positional_parameter_base@DV?$stream_output_adapter@D@__crt_stdio_output@@@2@@__crt_stdio_output@@QEAA@XZ 000000018005fbf0 f i libucrtd:output.obj
 0001:0005ec10       ??1?$output_processor@DV?$stream_output_adapter@D@__crt_stdio_output@@V?$standard_base@DV?$stream_output_adapter@D@__crt_stdio_output@@@2@@__crt_stdio_output@@QEAA@XZ 000000018005fc10 f i libucrtd:output.obj
 0001:0005ec30       ??1?$output_processor@DV?$string_output_adapter@D@__crt_stdio_output@@V?$format_validation_base@DV?$string_output_adapter@D@__crt_stdio_output@@@2@@__crt_stdio_output@@QEAA@XZ 000000018005fc30 f i libucrtd:output.obj
 0001:0005ec50       ??1?$output_processor@DV?$string_output_adapter@D@__crt_stdio_output@@V?$positional_parameter_base@DV?$string_output_adapter@D@__crt_stdio_output@@@2@@__crt_stdio_output@@QEAA@XZ 000000018005fc50 f i libucrtd:output.obj
 0001:0005ec70       ??1?$output_processor@DV?$string_output_adapter@D@__crt_stdio_output@@V?$standard_base@DV?$string_output_adapter@D@__crt_stdio_output@@@2@@__crt_stdio_output@@QEAA@XZ 000000018005fc70 f i libucrtd:output.obj
 0001:0005ec90       ??1?$output_processor@_WV?$stream_output_adapter@_W@__crt_stdio_output@@V?$format_validation_base@_WV?$stream_output_adapter@_W@__crt_stdio_output@@@2@@__crt_stdio_output@@QEAA@XZ 000000018005fc90 f i libucrtd:output.obj
 0001:0005ecb0       ??1?$output_processor@_WV?$stream_output_adapter@_W@__crt_stdio_output@@V?$positional_parameter_base@_WV?$stream_output_adapter@_W@__crt_stdio_output@@@2@@__crt_stdio_output@@QEAA@XZ 000000018005fcb0 f i libucrtd:output.obj
 0001:0005ecd0       ??1?$output_processor@_WV?$stream_output_adapter@_W@__crt_stdio_output@@V?$standard_base@_WV?$stream_output_adapter@_W@__crt_stdio_output@@@2@@__crt_stdio_output@@QEAA@XZ 000000018005fcd0 f i libucrtd:output.obj
 0001:0005ecf0       ??1?$output_processor@_WV?$string_output_adapter@_W@__crt_stdio_output@@V?$format_validation_base@_WV?$string_output_adapter@_W@__crt_stdio_output@@@2@@__crt_stdio_output@@QEAA@XZ 000000018005fcf0 f i libucrtd:output.obj
 0001:0005ed10       ??1?$output_processor@_WV?$string_output_adapter@_W@__crt_stdio_output@@V?$positional_parameter_base@_WV?$string_output_adapter@_W@__crt_stdio_output@@@2@@__crt_stdio_output@@QEAA@XZ 000000018005fd10 f i libucrtd:output.obj
 0001:0005ed30       ??1?$output_processor@_WV?$string_output_adapter@_W@__crt_stdio_output@@V?$standard_base@_WV?$string_output_adapter@_W@__crt_stdio_output@@@2@@__crt_stdio_output@@QEAA@XZ 000000018005fd30 f i libucrtd:output.obj
 0001:0005ed50       ??1?$positional_parameter_base@DV?$stream_output_adapter@D@__crt_stdio_output@@@__crt_stdio_output@@QEAA@XZ 000000018005fd50 f i libucrtd:output.obj
 0001:0005ed70       ??1?$positional_parameter_base@DV?$string_output_adapter@D@__crt_stdio_output@@@__crt_stdio_output@@QEAA@XZ 000000018005fd70 f i libucrtd:output.obj
 0001:0005ed90       ??1?$positional_parameter_base@_WV?$stream_output_adapter@_W@__crt_stdio_output@@@__crt_stdio_output@@QEAA@XZ 000000018005fd90 f i libucrtd:output.obj
 0001:0005edb0       ??1?$positional_parameter_base@_WV?$string_output_adapter@_W@__crt_stdio_output@@@__crt_stdio_output@@QEAA@XZ 000000018005fdb0 f i libucrtd:output.obj
 0001:0005edd0       ??1?$standard_base@DV?$stream_output_adapter@D@__crt_stdio_output@@@__crt_stdio_output@@QEAA@XZ 000000018005fdd0 f i libucrtd:output.obj
 0001:0005edf0       ??1?$standard_base@DV?$string_output_adapter@D@__crt_stdio_output@@@__crt_stdio_output@@QEAA@XZ 000000018005fdf0 f i libucrtd:output.obj
 0001:0005ee10       ??1?$standard_base@_WV?$stream_output_adapter@_W@__crt_stdio_output@@@__crt_stdio_output@@QEAA@XZ 000000018005fe10 f i libucrtd:output.obj
 0001:0005ee30       ??1?$standard_base@_WV?$string_output_adapter@_W@__crt_stdio_output@@@__crt_stdio_output@@QEAA@XZ 000000018005fe30 f i libucrtd:output.obj
 0001:0005ee50       ??1_LocaleUpdate@@QEAA@XZ  000000018005fe50 f i libucrtd:output.obj
 0001:0005ee90       ??1__acrt_stdio_temporary_buffering_guard@@QEAA@XZ 000000018005fe90 f i libucrtd:output.obj
 0001:0005eec0       ??1__crt_errno_guard@@QEAA@XZ 000000018005fec0 f i libucrtd:output.obj
 0001:0005eef0       ??1formatting_buffer@__crt_stdio_output@@QEAA@XZ 000000018005fef0 f i libucrtd:output.obj
 0001:0005ef20       ??4?$__crt_unique_heap_ptr@DU__crt_internal_free_policy@@@@QEAAAEAV0@$$QEAV0@@Z 000000018005ff20 f i libucrtd:output.obj
 0001:0005ef60       ??C__crt_stdio_stream@@QEBAPEAU__crt_stdio_stream_data@@XZ 000000018005ff60 f i libucrtd:output.obj
 0001:0005f810       ?GetLocaleT@_LocaleUpdate@@QEAAPEAU__crt_locale_pointers@@XZ 0000000180060810 f i libucrtd:output.obj
 0001:0005f820       ?__crt_interlocked_read_32@@YAHPEDH@Z 0000000180060820 f i libucrtd:output.obj
 0001:0005f840       ?adjust_hexit@?$output_processor@DV?$stream_output_adapter@D@__crt_stdio_output@@V?$format_validation_base@DV?$stream_output_adapter@D@__crt_stdio_output@@@2@@__crt_stdio_output@@CADH_N@Z 0000000180060840 f i libucrtd:output.obj
 0001:0005f890       ?adjust_hexit@?$output_processor@DV?$stream_output_adapter@D@__crt_stdio_output@@V?$positional_parameter_base@DV?$stream_output_adapter@D@__crt_stdio_output@@@2@@__crt_stdio_output@@CADH_N@Z 0000000180060890 f i libucrtd:output.obj
 0001:0005f8e0       ?adjust_hexit@?$output_processor@DV?$stream_output_adapter@D@__crt_stdio_output@@V?$standard_base@DV?$stream_output_adapter@D@__crt_stdio_output@@@2@@__crt_stdio_output@@CADH_N@Z 00000001800608e0 f i libucrtd:output.obj
 0001:0005f930       ?adjust_hexit@?$output_processor@DV?$string_output_adapter@D@__crt_stdio_output@@V?$format_validation_base@DV?$string_output_adapter@D@__crt_stdio_output@@@2@@__crt_stdio_output@@CADH_N@Z 0000000180060930 f i libucrtd:output.obj
 0001:0005f980       ?adjust_hexit@?$output_processor@DV?$string_output_adapter@D@__crt_stdio_output@@V?$positional_parameter_base@DV?$string_output_adapter@D@__crt_stdio_output@@@2@@__crt_stdio_output@@CADH_N@Z 0000000180060980 f i libucrtd:output.obj
 0001:0005f9d0       ?adjust_hexit@?$output_processor@DV?$string_output_adapter@D@__crt_stdio_output@@V?$standard_base@DV?$string_output_adapter@D@__crt_stdio_output@@@2@@__crt_stdio_output@@CADH_N@Z 00000001800609d0 f i libucrtd:output.obj
 0001:0005fa20       ?adjust_hexit@?$output_processor@_WV?$stream_output_adapter@_W@__crt_stdio_output@@V?$format_validation_base@_WV?$stream_output_adapter@_W@__crt_stdio_output@@@2@@__crt_stdio_output@@CADH_N@Z 0000000180060a20 f i libucrtd:output.obj
 0001:0005fa70       ?adjust_hexit@?$output_processor@_WV?$stream_output_adapter@_W@__crt_stdio_output@@V?$positional_parameter_base@_WV?$stream_output_adapter@_W@__crt_stdio_output@@@2@@__crt_stdio_output@@CADH_N@Z 0000000180060a70 f i libucrtd:output.obj
 0001:0005fac0       ?adjust_hexit@?$output_processor@_WV?$stream_output_adapter@_W@__crt_stdio_output@@V?$standard_base@_WV?$stream_output_adapter@_W@__crt_stdio_output@@@2@@__crt_stdio_output@@CADH_N@Z 0000000180060ac0 f i libucrtd:output.obj
 0001:0005fb10       ?adjust_hexit@?$output_processor@_WV?$string_output_adapter@_W@__crt_stdio_output@@V?$format_validation_base@_WV?$string_output_adapter@_W@__crt_stdio_output@@@2@@__crt_stdio_output@@CADH_N@Z 0000000180060b10 f i libucrtd:output.obj
 0001:0005fb60       ?adjust_hexit@?$output_processor@_WV?$string_output_adapter@_W@__crt_stdio_output@@V?$positional_parameter_base@_WV?$string_output_adapter@_W@__crt_stdio_output@@@2@@__crt_stdio_output@@CADH_N@Z 0000000180060b60 f i libucrtd:output.obj
 0001:0005fbb0       ?adjust_hexit@?$output_processor@_WV?$string_output_adapter@_W@__crt_stdio_output@@V?$standard_base@_WV?$string_output_adapter@_W@__crt_stdio_output@@@2@@__crt_stdio_output@@CADH_N@Z 0000000180060bb0 f i libucrtd:output.obj
 0001:0005fc00       ?advance_to_next_pass@?$positional_parameter_base@DV?$stream_output_adapter@D@__crt_stdio_output@@@__crt_stdio_output@@IEAA_NXZ 0000000180060c00 f i libucrtd:output.obj
 0001:0005fcb0       ?advance_to_next_pass@?$positional_parameter_base@DV?$string_output_adapter@D@__crt_stdio_output@@@__crt_stdio_output@@IEAA_NXZ 0000000180060cb0 f i libucrtd:output.obj
 0001:0005fd60       ?advance_to_next_pass@?$positional_parameter_base@_WV?$stream_output_adapter@_W@__crt_stdio_output@@@__crt_stdio_output@@IEAA_NXZ 0000000180060d60 f i libucrtd:output.obj
 0001:0005fe10       ?advance_to_next_pass@?$positional_parameter_base@_WV?$string_output_adapter@_W@__crt_stdio_output@@@__crt_stdio_output@@IEAA_NXZ 0000000180060e10 f i libucrtd:output.obj
 0001:0005fec0       ?advance_to_next_pass@?$standard_base@DV?$stream_output_adapter@D@__crt_stdio_output@@@__crt_stdio_output@@IEAA_NXZ 0000000180060ec0 f i libucrtd:output.obj
 0001:0005ff10       ?advance_to_next_pass@?$standard_base@DV?$string_output_adapter@D@__crt_stdio_output@@@__crt_stdio_output@@IEAA_NXZ 0000000180060f10 f i libucrtd:output.obj
 0001:0005ff60       ?advance_to_next_pass@?$standard_base@_WV?$stream_output_adapter@_W@__crt_stdio_output@@@__crt_stdio_output@@IEAA_NXZ 0000000180060f60 f i libucrtd:output.obj
 0001:0005ffb0       ?advance_to_next_pass@?$standard_base@_WV?$string_output_adapter@_W@__crt_stdio_output@@@__crt_stdio_output@@IEAA_NXZ 0000000180060fb0 f i libucrtd:output.obj
 0001:00060000       ?crop_zeroes@__crt_stdio_output@@YAXPEADQEAU__crt_locale_pointers@@@Z 0000000180061000 f i libucrtd:output.obj
 0001:00060140       ?find_next_state@?$output_processor@DV?$stream_output_adapter@D@__crt_stdio_output@@V?$format_validation_base@DV?$stream_output_adapter@D@__crt_stdio_output@@@2@@__crt_stdio_output@@AEBA?AW4state@2@DW432@@Z 0000000180061140 f i libucrtd:output.obj
 0001:000601e0       ?find_next_state@?$output_processor@DV?$stream_output_adapter@D@__crt_stdio_output@@V?$positional_parameter_base@DV?$stream_output_adapter@D@__crt_stdio_output@@@2@@__crt_stdio_output@@AEBA?AW4state@2@DW432@@Z 00000001800611e0 f i libucrtd:output.obj
 0001:00060280       ?find_next_state@?$output_processor@DV?$stream_output_adapter@D@__crt_stdio_output@@V?$standard_base@DV?$stream_output_adapter@D@__crt_stdio_output@@@2@@__crt_stdio_output@@AEBA?AW4state@2@DW432@@Z 0000000180061280 f i libucrtd:output.obj
 0001:00060320       ?find_next_state@?$output_processor@DV?$string_output_adapter@D@__crt_stdio_output@@V?$format_validation_base@DV?$string_output_adapter@D@__crt_stdio_output@@@2@@__crt_stdio_output@@AEBA?AW4state@2@DW432@@Z 0000000180061320 f i libucrtd:output.obj
 0001:000603c0       ?find_next_state@?$output_processor@DV?$string_output_adapter@D@__crt_stdio_output@@V?$positional_parameter_base@DV?$string_output_adapter@D@__crt_stdio_output@@@2@@__crt_stdio_output@@AEBA?AW4state@2@DW432@@Z 00000001800613c0 f i libucrtd:output.obj
 0001:00060460       ?find_next_state@?$output_processor@DV?$string_output_adapter@D@__crt_stdio_output@@V?$standard_base@DV?$string_output_adapter@D@__crt_stdio_output@@@2@@__crt_stdio_output@@AEBA?AW4state@2@DW432@@Z 0000000180061460 f i libucrtd:output.obj
 0001:00060500       ?find_next_state@?$output_processor@_WV?$stream_output_adapter@_W@__crt_stdio_output@@V?$format_validation_base@_WV?$stream_output_adapter@_W@__crt_stdio_output@@@2@@__crt_stdio_output@@AEBA?AW4state@2@_WW432@@Z 0000000180061500 f i libucrtd:output.obj
 0001:000605a0       ?find_next_state@?$output_processor@_WV?$stream_output_adapter@_W@__crt_stdio_output@@V?$positional_parameter_base@_WV?$stream_output_adapter@_W@__crt_stdio_output@@@2@@__crt_stdio_output@@AEBA?AW4state@2@_WW432@@Z 00000001800615a0 f i libucrtd:output.obj
 0001:00060640       ?find_next_state@?$output_processor@_WV?$stream_output_adapter@_W@__crt_stdio_output@@V?$standard_base@_WV?$stream_output_adapter@_W@__crt_stdio_output@@@2@@__crt_stdio_output@@AEBA?AW4state@2@_WW432@@Z 0000000180061640 f i libucrtd:output.obj
 0001:000606e0       ?find_next_state@?$output_processor@_WV?$string_output_adapter@_W@__crt_stdio_output@@V?$format_validation_base@_WV?$string_output_adapter@_W@__crt_stdio_output@@@2@@__crt_stdio_output@@AEBA?AW4state@2@_WW432@@Z 00000001800616e0 f i libucrtd:output.obj
 0001:00060780       ?find_next_state@?$output_processor@_WV?$string_output_adapter@_W@__crt_stdio_output@@V?$positional_parameter_base@_WV?$string_output_adapter@_W@__crt_stdio_output@@@2@@__crt_stdio_output@@AEBA?AW4state@2@_WW432@@Z 0000000180061780 f i libucrtd:output.obj
 0001:00060820       ?find_next_state@?$output_processor@_WV?$string_output_adapter@_W@__crt_stdio_output@@V?$standard_base@_WV?$string_output_adapter@_W@__crt_stdio_output@@@2@@__crt_stdio_output@@AEBA?AW4state@2@_WW432@@Z 0000000180061820 f i libucrtd:output.obj
 0001:000608c0       ?force_decimal_point@__crt_stdio_output@@YAXPEADQEAU__crt_locale_pointers@@@Z 00000001800618c0 f i libucrtd:output.obj
 0001:000609c0       ?get@__crt_deferred_errno_cache@@QEAAAEAHXZ 00000001800619c0 f i libucrtd:output.obj
 0001:000609f0       ?get_flags@__crt_stdio_stream@@QEBAJXZ 00000001800619f0 f i libucrtd:output.obj
 0001:00060a20       ?get_parameter_type@?$positional_parameter_base@DV?$stream_output_adapter@D@__crt_stdio_output@@@__crt_stdio_output@@CA?AW4parameter_type@12@F@Z 0000000180061a20 f i libucrtd:output.obj
 0001:00060a30       ?get_parameter_type@?$positional_parameter_base@DV?$stream_output_adapter@D@__crt_stdio_output@@@__crt_stdio_output@@CA?AW4parameter_type@12@G@Z 0000000180061a30 f i libucrtd:output.obj
 0001:00060a40       ?get_parameter_type@?$positional_parameter_base@DV?$stream_output_adapter@D@__crt_stdio_output@@@__crt_stdio_output@@CA?AW4parameter_type@12@H@Z 0000000180061a40 f i libucrtd:output.obj
 0001:00060a50       ?get_parameter_type@?$positional_parameter_base@DV?$stream_output_adapter@D@__crt_stdio_output@@@__crt_stdio_output@@CA?AW4parameter_type@12@I@Z 0000000180061a50 f i libucrtd:output.obj
 0001:00060a60       ?get_parameter_type@?$positional_parameter_base@DV?$stream_output_adapter@D@__crt_stdio_output@@@__crt_stdio_output@@CA?AW4parameter_type@12@U_CRT_DOUBLE@@@Z 0000000180061a60 f i libucrtd:output.obj
 0001:00060a70       ?get_parameter_type@?$positional_parameter_base@DV?$stream_output_adapter@D@__crt_stdio_output@@@__crt_stdio_output@@CA?AW4parameter_type@12@_J@Z 0000000180061a70 f i libucrtd:output.obj
 0001:00060a80       ?get_parameter_type@?$positional_parameter_base@DV?$stream_output_adapter@D@__crt_stdio_output@@@__crt_stdio_output@@CA?AW4parameter_type@12@_K@Z 0000000180061a80 f i libucrtd:output.obj
 0001:00060a90       ?get_parameter_type@?$positional_parameter_base@DV?$stream_output_adapter@D@__crt_stdio_output@@@__crt_stdio_output@@CA?AW4parameter_type@12@_W@Z 0000000180061a90 f i libucrtd:output.obj
 0001:00060aa0       ?get_parameter_type@?$positional_parameter_base@DV?$string_output_adapter@D@__crt_stdio_output@@@__crt_stdio_output@@CA?AW4parameter_type@12@F@Z 0000000180061aa0 f i libucrtd:output.obj
 0001:00060ab0       ?get_parameter_type@?$positional_parameter_base@DV?$string_output_adapter@D@__crt_stdio_output@@@__crt_stdio_output@@CA?AW4parameter_type@12@G@Z 0000000180061ab0 f i libucrtd:output.obj
 0001:00060ac0       ?get_parameter_type@?$positional_parameter_base@DV?$string_output_adapter@D@__crt_stdio_output@@@__crt_stdio_output@@CA?AW4parameter_type@12@H@Z 0000000180061ac0 f i libucrtd:output.obj
 0001:00060ad0       ?get_parameter_type@?$positional_parameter_base@DV?$string_output_adapter@D@__crt_stdio_output@@@__crt_stdio_output@@CA?AW4parameter_type@12@I@Z 0000000180061ad0 f i libucrtd:output.obj
 0001:00060ae0       ?get_parameter_type@?$positional_parameter_base@DV?$string_output_adapter@D@__crt_stdio_output@@@__crt_stdio_output@@CA?AW4parameter_type@12@U_CRT_DOUBLE@@@Z 0000000180061ae0 f i libucrtd:output.obj
 0001:00060af0       ?get_parameter_type@?$positional_parameter_base@DV?$string_output_adapter@D@__crt_stdio_output@@@__crt_stdio_output@@CA?AW4parameter_type@12@_J@Z 0000000180061af0 f i libucrtd:output.obj
 0001:00060b00       ?get_parameter_type@?$positional_parameter_base@DV?$string_output_adapter@D@__crt_stdio_output@@@__crt_stdio_output@@CA?AW4parameter_type@12@_K@Z 0000000180061b00 f i libucrtd:output.obj
 0001:00060b10       ?get_parameter_type@?$positional_parameter_base@DV?$string_output_adapter@D@__crt_stdio_output@@@__crt_stdio_output@@CA?AW4parameter_type@12@_W@Z 0000000180061b10 f i libucrtd:output.obj
 0001:00060b20       ?get_parameter_type@?$positional_parameter_base@_WV?$stream_output_adapter@_W@__crt_stdio_output@@@__crt_stdio_output@@CA?AW4parameter_type@12@F@Z 0000000180061b20 f i libucrtd:output.obj
 0001:00060b30       ?get_parameter_type@?$positional_parameter_base@_WV?$stream_output_adapter@_W@__crt_stdio_output@@@__crt_stdio_output@@CA?AW4parameter_type@12@G@Z 0000000180061b30 f i libucrtd:output.obj
 0001:00060b40       ?get_parameter_type@?$positional_parameter_base@_WV?$stream_output_adapter@_W@__crt_stdio_output@@@__crt_stdio_output@@CA?AW4parameter_type@12@H@Z 0000000180061b40 f i libucrtd:output.obj
 0001:00060b50       ?get_parameter_type@?$positional_parameter_base@_WV?$stream_output_adapter@_W@__crt_stdio_output@@@__crt_stdio_output@@CA?AW4parameter_type@12@I@Z 0000000180061b50 f i libucrtd:output.obj
 0001:00060b60       ?get_parameter_type@?$positional_parameter_base@_WV?$stream_output_adapter@_W@__crt_stdio_output@@@__crt_stdio_output@@CA?AW4parameter_type@12@U_CRT_DOUBLE@@@Z 0000000180061b60 f i libucrtd:output.obj
 0001:00060b70       ?get_parameter_type@?$positional_parameter_base@_WV?$stream_output_adapter@_W@__crt_stdio_output@@@__crt_stdio_output@@CA?AW4parameter_type@12@_J@Z 0000000180061b70 f i libucrtd:output.obj
 0001:00060b80       ?get_parameter_type@?$positional_parameter_base@_WV?$stream_output_adapter@_W@__crt_stdio_output@@@__crt_stdio_output@@CA?AW4parameter_type@12@_K@Z 0000000180061b80 f i libucrtd:output.obj
 0001:00060b90       ?get_parameter_type@?$positional_parameter_base@_WV?$stream_output_adapter@_W@__crt_stdio_output@@@__crt_stdio_output@@CA?AW4parameter_type@12@_W@Z 0000000180061b90 f i libucrtd:output.obj
 0001:00060ba0       ?get_parameter_type@?$positional_parameter_base@_WV?$string_output_adapter@_W@__crt_stdio_output@@@__crt_stdio_output@@CA?AW4parameter_type@12@F@Z 0000000180061ba0 f i libucrtd:output.obj
 0001:00060bb0       ?get_parameter_type@?$positional_parameter_base@_WV?$string_output_adapter@_W@__crt_stdio_output@@@__crt_stdio_output@@CA?AW4parameter_type@12@G@Z 0000000180061bb0 f i libucrtd:output.obj
 0001:00060bc0       ?get_parameter_type@?$positional_parameter_base@_WV?$string_output_adapter@_W@__crt_stdio_output@@@__crt_stdio_output@@CA?AW4parameter_type@12@H@Z 0000000180061bc0 f i libucrtd:output.obj
 0001:00060bd0       ?get_parameter_type@?$positional_parameter_base@_WV?$string_output_adapter@_W@__crt_stdio_output@@@__crt_stdio_output@@CA?AW4parameter_type@12@I@Z 0000000180061bd0 f i libucrtd:output.obj
 0001:00060be0       ?get_parameter_type@?$positional_parameter_base@_WV?$string_output_adapter@_W@__crt_stdio_output@@@__crt_stdio_output@@CA?AW4parameter_type@12@U_CRT_DOUBLE@@@Z 0000000180061be0 f i libucrtd:output.obj
 0001:00060bf0       ?get_parameter_type@?$positional_parameter_base@_WV?$string_output_adapter@_W@__crt_stdio_output@@@__crt_stdio_output@@CA?AW4parameter_type@12@_J@Z 0000000180061bf0 f i libucrtd:output.obj
 0001:00060c00       ?get_parameter_type@?$positional_parameter_base@_WV?$string_output_adapter@_W@__crt_stdio_output@@@__crt_stdio_output@@CA?AW4parameter_type@12@_K@Z 0000000180061c00 f i libucrtd:output.obj
 0001:00060c10       ?get_parameter_type@?$positional_parameter_base@_WV?$string_output_adapter@_W@__crt_stdio_output@@@__crt_stdio_output@@CA?AW4parameter_type@12@_W@Z 0000000180061c10 f i libucrtd:output.obj
 0001:00060c20       ?has_flag@?$output_processor@DV?$stream_output_adapter@D@__crt_stdio_output@@V?$format_validation_base@DV?$stream_output_adapter@D@__crt_stdio_output@@@2@@__crt_stdio_output@@AEBA_NI@Z 0000000180061c20 f i libucrtd:output.obj
 0001:00060c60       ?has_flag@?$output_processor@DV?$stream_output_adapter@D@__crt_stdio_output@@V?$positional_parameter_base@DV?$stream_output_adapter@D@__crt_stdio_output@@@2@@__crt_stdio_output@@AEBA_NI@Z 0000000180061c60 f i libucrtd:output.obj
 0001:00060ca0       ?has_flag@?$output_processor@DV?$stream_output_adapter@D@__crt_stdio_output@@V?$standard_base@DV?$stream_output_adapter@D@__crt_stdio_output@@@2@@__crt_stdio_output@@AEBA_NI@Z 0000000180061ca0 f i libucrtd:output.obj
 0001:00060ce0       ?has_flag@?$output_processor@DV?$string_output_adapter@D@__crt_stdio_output@@V?$format_validation_base@DV?$string_output_adapter@D@__crt_stdio_output@@@2@@__crt_stdio_output@@AEBA_NI@Z 0000000180061ce0 f i libucrtd:output.obj
 0001:00060d20       ?has_flag@?$output_processor@DV?$string_output_adapter@D@__crt_stdio_output@@V?$positional_parameter_base@DV?$string_output_adapter@D@__crt_stdio_output@@@2@@__crt_stdio_output@@AEBA_NI@Z 0000000180061d20 f i libucrtd:output.obj
 0001:00060d60       ?has_flag@?$output_processor@DV?$string_output_adapter@D@__crt_stdio_output@@V?$standard_base@DV?$string_output_adapter@D@__crt_stdio_output@@@2@@__crt_stdio_output@@AEBA_NI@Z 0000000180061d60 f i libucrtd:output.obj
 0001:00060da0       ?has_flag@?$output_processor@_WV?$stream_output_adapter@_W@__crt_stdio_output@@V?$format_validation_base@_WV?$stream_output_adapter@_W@__crt_stdio_output@@@2@@__crt_stdio_output@@AEBA_NI@Z 0000000180061da0 f i libucrtd:output.obj
 0001:00060de0       ?has_flag@?$output_processor@_WV?$stream_output_adapter@_W@__crt_stdio_output@@V?$positional_parameter_base@_WV?$stream_output_adapter@_W@__crt_stdio_output@@@2@@__crt_stdio_output@@AEBA_NI@Z 0000000180061de0 f i libucrtd:output.obj
 0001:00060e20       ?has_flag@?$output_processor@_WV?$stream_output_adapter@_W@__crt_stdio_output@@V?$standard_base@_WV?$stream_output_adapter@_W@__crt_stdio_output@@@2@@__crt_stdio_output@@AEBA_NI@Z 0000000180061e20 f i libucrtd:output.obj
 0001:00060e60       ?has_flag@?$output_processor@_WV?$string_output_adapter@_W@__crt_stdio_output@@V?$format_validation_base@_WV?$string_output_adapter@_W@__crt_stdio_output@@@2@@__crt_stdio_output@@AEBA_NI@Z 0000000180061e60 f i libucrtd:output.obj
 0001:00060ea0       ?has_flag@?$output_processor@_WV?$string_output_adapter@_W@__crt_stdio_output@@V?$positional_parameter_base@_WV?$string_output_adapter@_W@__crt_stdio_output@@@2@@__crt_stdio_output@@AEBA_NI@Z 0000000180061ea0 f i libucrtd:output.obj
 0001:00060ee0       ?has_flag@?$output_processor@_WV?$string_output_adapter@_W@__crt_stdio_output@@V?$standard_base@_WV?$string_output_adapter@_W@__crt_stdio_output@@@2@@__crt_stdio_output@@AEBA_NI@Z 0000000180061ee0 f i libucrtd:output.obj
 0001:00060f20       ?is_positional_parameter_reappearance_consistent@?$positional_parameter_base@DV?$stream_output_adapter@D@__crt_stdio_output@@@__crt_stdio_output@@AEAA_NAEBUparameter_data@12@W4parameter_type@12@DW4length_modifier@2@@Z 0000000180061f20 f i libucrtd:output.obj
 0001:00061180       ?is_positional_parameter_reappearance_consistent@?$positional_parameter_base@DV?$string_output_adapter@D@__crt_stdio_output@@@__crt_stdio_output@@AEAA_NAEBUparameter_data@12@W4parameter_type@12@DW4length_modifier@2@@Z 0000000180062180 f i libucrtd:output.obj
 0001:000613e0       ?is_positional_parameter_reappearance_consistent@?$positional_parameter_base@_WV?$stream_output_adapter@_W@__crt_stdio_output@@@__crt_stdio_output@@AEAA_NAEBUparameter_data@12@W4parameter_type@12@_WW4length_modifier@2@@Z 00000001800623e0 f i libucrtd:output.obj
 0001:00061640       ?is_positional_parameter_reappearance_consistent@?$positional_parameter_base@_WV?$string_output_adapter@_W@__crt_stdio_output@@@__crt_stdio_output@@AEAA_NAEBUparameter_data@12@W4parameter_type@12@_WW4length_modifier@2@@Z 0000000180062640 f i libucrtd:output.obj
 0001:000618a0       ?is_string_backed@__crt_stdio_stream@@QEBA_NXZ 00000001800628a0 f i libucrtd:output.obj
 0001:000618e0       ?narrow_null_string@?$output_processor@DV?$stream_output_adapter@D@__crt_stdio_output@@V?$format_validation_base@DV?$stream_output_adapter@D@__crt_stdio_output@@@2@@__crt_stdio_output@@CAPEADXZ 00000001800628e0 f i libucrtd:output.obj
 0001:000618f0       ?narrow_null_string@?$output_processor@DV?$stream_output_adapter@D@__crt_stdio_output@@V?$positional_parameter_base@DV?$stream_output_adapter@D@__crt_stdio_output@@@2@@__crt_stdio_output@@CAPEADXZ 00000001800628f0 f i libucrtd:output.obj
 0001:00061900       ?narrow_null_string@?$output_processor@DV?$stream_output_adapter@D@__crt_stdio_output@@V?$standard_base@DV?$stream_output_adapter@D@__crt_stdio_output@@@2@@__crt_stdio_output@@CAPEADXZ 0000000180062900 f i libucrtd:output.obj
 0001:00061910       ?narrow_null_string@?$output_processor@DV?$string_output_adapter@D@__crt_stdio_output@@V?$format_validation_base@DV?$string_output_adapter@D@__crt_stdio_output@@@2@@__crt_stdio_output@@CAPEADXZ 0000000180062910 f i libucrtd:output.obj
 0001:00061920       ?narrow_null_string@?$output_processor@DV?$string_output_adapter@D@__crt_stdio_output@@V?$positional_parameter_base@DV?$string_output_adapter@D@__crt_stdio_output@@@2@@__crt_stdio_output@@CAPEADXZ 0000000180062920 f i libucrtd:output.obj
 0001:00061930       ?narrow_null_string@?$output_processor@DV?$string_output_adapter@D@__crt_stdio_output@@V?$standard_base@DV?$string_output_adapter@D@__crt_stdio_output@@@2@@__crt_stdio_output@@CAPEADXZ 0000000180062930 f i libucrtd:output.obj
 0001:00061940       ?narrow_null_string@?$output_processor@_WV?$stream_output_adapter@_W@__crt_stdio_output@@V?$format_validation_base@_WV?$stream_output_adapter@_W@__crt_stdio_output@@@2@@__crt_stdio_output@@CAPEADXZ 0000000180062940 f i libucrtd:output.obj
 0001:00061950       ?narrow_null_string@?$output_processor@_WV?$stream_output_adapter@_W@__crt_stdio_output@@V?$positional_parameter_base@_WV?$stream_output_adapter@_W@__crt_stdio_output@@@2@@__crt_stdio_output@@CAPEADXZ 0000000180062950 f i libucrtd:output.obj
 0001:00061960       ?narrow_null_string@?$output_processor@_WV?$stream_output_adapter@_W@__crt_stdio_output@@V?$standard_base@_WV?$stream_output_adapter@_W@__crt_stdio_output@@@2@@__crt_stdio_output@@CAPEADXZ 0000000180062960 f i libucrtd:output.obj
 0001:00061970       ?narrow_null_string@?$output_processor@_WV?$string_output_adapter@_W@__crt_stdio_output@@V?$format_validation_base@_WV?$string_output_adapter@_W@__crt_stdio_output@@@2@@__crt_stdio_output@@CAPEADXZ 0000000180062970 f i libucrtd:output.obj
 0001:00061980       ?narrow_null_string@?$output_processor@_WV?$string_output_adapter@_W@__crt_stdio_output@@V?$positional_parameter_base@_WV?$string_output_adapter@_W@__crt_stdio_output@@@2@@__crt_stdio_output@@CAPEADXZ 0000000180062980 f i libucrtd:output.obj
 0001:00061990       ?narrow_null_string@?$output_processor@_WV?$string_output_adapter@_W@__crt_stdio_output@@V?$standard_base@_WV?$string_output_adapter@_W@__crt_stdio_output@@@2@@__crt_stdio_output@@CAPEADXZ 0000000180062990 f i libucrtd:output.obj
 0001:000619a0       ?parse_int_from_format_string@?$output_processor@DV?$stream_output_adapter@D@__crt_stdio_output@@V?$format_validation_base@DV?$stream_output_adapter@D@__crt_stdio_output@@@2@@__crt_stdio_output@@AEAA_NQEAH@Z 00000001800629a0 f i libucrtd:output.obj
 0001:00061a90       ?parse_int_from_format_string@?$output_processor@DV?$stream_output_adapter@D@__crt_stdio_output@@V?$positional_parameter_base@DV?$stream_output_adapter@D@__crt_stdio_output@@@2@@__crt_stdio_output@@AEAA_NQEAH@Z 0000000180062a90 f i libucrtd:output.obj
 0001:00061b80       ?parse_int_from_format_string@?$output_processor@DV?$stream_output_adapter@D@__crt_stdio_output@@V?$standard_base@DV?$stream_output_adapter@D@__crt_stdio_output@@@2@@__crt_stdio_output@@AEAA_NQEAH@Z 0000000180062b80 f i libucrtd:output.obj
 0001:00061c70       ?parse_int_from_format_string@?$output_processor@DV?$string_output_adapter@D@__crt_stdio_output@@V?$format_validation_base@DV?$string_output_adapter@D@__crt_stdio_output@@@2@@__crt_stdio_output@@AEAA_NQEAH@Z 0000000180062c70 f i libucrtd:output.obj
 0001:00061d60       ?parse_int_from_format_string@?$output_processor@DV?$string_output_adapter@D@__crt_stdio_output@@V?$positional_parameter_base@DV?$string_output_adapter@D@__crt_stdio_output@@@2@@__crt_stdio_output@@AEAA_NQEAH@Z 0000000180062d60 f i libucrtd:output.obj
 0001:00061e50       ?parse_int_from_format_string@?$output_processor@DV?$string_output_adapter@D@__crt_stdio_output@@V?$standard_base@DV?$string_output_adapter@D@__crt_stdio_output@@@2@@__crt_stdio_output@@AEAA_NQEAH@Z 0000000180062e50 f i libucrtd:output.obj
 0001:00061f40       ?parse_int_from_format_string@?$output_processor@_WV?$stream_output_adapter@_W@__crt_stdio_output@@V?$format_validation_base@_WV?$stream_output_adapter@_W@__crt_stdio_output@@@2@@__crt_stdio_output@@AEAA_NQEAH@Z 0000000180062f40 f i libucrtd:output.obj
 0001:00062030       ?parse_int_from_format_string@?$output_processor@_WV?$stream_output_adapter@_W@__crt_stdio_output@@V?$positional_parameter_base@_WV?$stream_output_adapter@_W@__crt_stdio_output@@@2@@__crt_stdio_output@@AEAA_NQEAH@Z 0000000180063030 f i libucrtd:output.obj
 0001:00062120       ?parse_int_from_format_string@?$output_processor@_WV?$stream_output_adapter@_W@__crt_stdio_output@@V?$standard_base@_WV?$stream_output_adapter@_W@__crt_stdio_output@@@2@@__crt_stdio_output@@AEAA_NQEAH@Z 0000000180063120 f i libucrtd:output.obj
 0001:00062210       ?parse_int_from_format_string@?$output_processor@_WV?$string_output_adapter@_W@__crt_stdio_output@@V?$format_validation_base@_WV?$string_output_adapter@_W@__crt_stdio_output@@@2@@__crt_stdio_output@@AEAA_NQEAH@Z 0000000180063210 f i libucrtd:output.obj
 0001:00062300       ?parse_int_from_format_string@?$output_processor@_WV?$string_output_adapter@_W@__crt_stdio_output@@V?$positional_parameter_base@_WV?$string_output_adapter@_W@__crt_stdio_output@@@2@@__crt_stdio_output@@AEAA_NQEAH@Z 0000000180063300 f i libucrtd:output.obj
 0001:000623f0       ?parse_int_from_format_string@?$output_processor@_WV?$string_output_adapter@_W@__crt_stdio_output@@V?$standard_base@_WV?$string_output_adapter@_W@__crt_stdio_output@@@2@@__crt_stdio_output@@AEAA_NQEAH@Z 00000001800633f0 f i libucrtd:output.obj
 0001:000624e0       ?process@?$output_processor@DV?$stream_output_adapter@D@__crt_stdio_output@@V?$format_validation_base@DV?$stream_output_adapter@D@__crt_stdio_output@@@2@@__crt_stdio_output@@QEAAHXZ 00000001800634e0 f i libucrtd:output.obj
 0001:00062840       ?process@?$output_processor@DV?$stream_output_adapter@D@__crt_stdio_output@@V?$positional_parameter_base@DV?$stream_output_adapter@D@__crt_stdio_output@@@2@@__crt_stdio_output@@QEAAHXZ 0000000180063840 f i libucrtd:output.obj
 0001:00062ba0       ?process@?$output_processor@DV?$stream_output_adapter@D@__crt_stdio_output@@V?$standard_base@DV?$stream_output_adapter@D@__crt_stdio_output@@@2@@__crt_stdio_output@@QEAAHXZ 0000000180063ba0 f i libucrtd:output.obj
 0001:00062f00       ?process@?$output_processor@DV?$string_output_adapter@D@__crt_stdio_output@@V?$format_validation_base@DV?$string_output_adapter@D@__crt_stdio_output@@@2@@__crt_stdio_output@@QEAAHXZ 0000000180063f00 f i libucrtd:output.obj
 0001:00063260       ?process@?$output_processor@DV?$string_output_adapter@D@__crt_stdio_output@@V?$positional_parameter_base@DV?$string_output_adapter@D@__crt_stdio_output@@@2@@__crt_stdio_output@@QEAAHXZ 0000000180064260 f i libucrtd:output.obj
 0001:000635c0       ?process@?$output_processor@DV?$string_output_adapter@D@__crt_stdio_output@@V?$standard_base@DV?$string_output_adapter@D@__crt_stdio_output@@@2@@__crt_stdio_output@@QEAAHXZ 00000001800645c0 f i libucrtd:output.obj
 0001:00063920       ?process@?$output_processor@_WV?$stream_output_adapter@_W@__crt_stdio_output@@V?$format_validation_base@_WV?$stream_output_adapter@_W@__crt_stdio_output@@@2@@__crt_stdio_output@@QEAAHXZ 0000000180064920 f i libucrtd:output.obj
 0001:00063c80       ?process@?$output_processor@_WV?$stream_output_adapter@_W@__crt_stdio_output@@V?$positional_parameter_base@_WV?$stream_output_adapter@_W@__crt_stdio_output@@@2@@__crt_stdio_output@@QEAAHXZ 0000000180064c80 f i libucrtd:output.obj
 0001:00063fe0       ?process@?$output_processor@_WV?$stream_output_adapter@_W@__crt_stdio_output@@V?$standard_base@_WV?$stream_output_adapter@_W@__crt_stdio_output@@@2@@__crt_stdio_output@@QEAAHXZ 0000000180064fe0 f i libucrtd:output.obj
 0001:00064340       ?process@?$output_processor@_WV?$string_output_adapter@_W@__crt_stdio_output@@V?$format_validation_base@_WV?$string_output_adapter@_W@__crt_stdio_output@@@2@@__crt_stdio_output@@QEAAHXZ 0000000180065340 f i libucrtd:output.obj
 0001:000646a0       ?process@?$output_processor@_WV?$string_output_adapter@_W@__crt_stdio_output@@V?$positional_parameter_base@_WV?$string_output_adapter@_W@__crt_stdio_output@@@2@@__crt_stdio_output@@QEAAHXZ 00000001800656a0 f i libucrtd:output.obj
 0001:00064a00       ?process@?$output_processor@_WV?$string_output_adapter@_W@__crt_stdio_output@@V?$standard_base@_WV?$string_output_adapter@_W@__crt_stdio_output@@@2@@__crt_stdio_output@@QEAAHXZ 0000000180065a00 f i libucrtd:output.obj
 0001:00064d60       ?public_stream@__crt_stdio_stream@@QEBAPEAU_iobuf@@XZ 0000000180065d60 f i libucrtd:output.obj
 0001:00064d70       ?set_flag@?$output_processor@DV?$stream_output_adapter@D@__crt_stdio_output@@V?$format_validation_base@DV?$stream_output_adapter@D@__crt_stdio_output@@@2@@__crt_stdio_output@@AEAAXI@Z 0000000180065d70 f i libucrtd:output.obj
 0001:00064d90       ?set_flag@?$output_processor@DV?$stream_output_adapter@D@__crt_stdio_output@@V?$positional_parameter_base@DV?$stream_output_adapter@D@__crt_stdio_output@@@2@@__crt_stdio_output@@AEAAXI@Z 0000000180065d90 f i libucrtd:output.obj
 0001:00064db0       ?set_flag@?$output_processor@DV?$stream_output_adapter@D@__crt_stdio_output@@V?$standard_base@DV?$stream_output_adapter@D@__crt_stdio_output@@@2@@__crt_stdio_output@@AEAAXI@Z 0000000180065db0 f i libucrtd:output.obj
 0001:00064dd0       ?set_flag@?$output_processor@DV?$string_output_adapter@D@__crt_stdio_output@@V?$format_validation_base@DV?$string_output_adapter@D@__crt_stdio_output@@@2@@__crt_stdio_output@@AEAAXI@Z 0000000180065dd0 f i libucrtd:output.obj
 0001:00064df0       ?set_flag@?$output_processor@DV?$string_output_adapter@D@__crt_stdio_output@@V?$positional_parameter_base@DV?$string_output_adapter@D@__crt_stdio_output@@@2@@__crt_stdio_output@@AEAAXI@Z 0000000180065df0 f i libucrtd:output.obj
 0001:00064e10       ?set_flag@?$output_processor@DV?$string_output_adapter@D@__crt_stdio_output@@V?$standard_base@DV?$string_output_adapter@D@__crt_stdio_output@@@2@@__crt_stdio_output@@AEAAXI@Z 0000000180065e10 f i libucrtd:output.obj
 0001:00064e30       ?set_flag@?$output_processor@_WV?$stream_output_adapter@_W@__crt_stdio_output@@V?$format_validation_base@_WV?$stream_output_adapter@_W@__crt_stdio_output@@@2@@__crt_stdio_output@@AEAAXI@Z 0000000180065e30 f i libucrtd:output.obj
 0001:00064e50       ?set_flag@?$output_processor@_WV?$stream_output_adapter@_W@__crt_stdio_output@@V?$positional_parameter_base@_WV?$stream_output_adapter@_W@__crt_stdio_output@@@2@@__crt_stdio_output@@AEAAXI@Z 0000000180065e50 f i libucrtd:output.obj
 0001:00064e70       ?set_flag@?$output_processor@_WV?$stream_output_adapter@_W@__crt_stdio_output@@V?$standard_base@_WV?$stream_output_adapter@_W@__crt_stdio_output@@@2@@__crt_stdio_output@@AEAAXI@Z 0000000180065e70 f i libucrtd:output.obj
 0001:00064e90       ?set_flag@?$output_processor@_WV?$string_output_adapter@_W@__crt_stdio_output@@V?$format_validation_base@_WV?$string_output_adapter@_W@__crt_stdio_output@@@2@@__crt_stdio_output@@AEAAXI@Z 0000000180065e90 f i libucrtd:output.obj
 0001:00064eb0       ?set_flag@?$output_processor@_WV?$string_output_adapter@_W@__crt_stdio_output@@V?$positional_parameter_base@_WV?$string_output_adapter@_W@__crt_stdio_output@@@2@@__crt_stdio_output@@AEAAXI@Z 0000000180065eb0 f i libucrtd:output.obj
 0001:00064ed0       ?set_flag@?$output_processor@_WV?$string_output_adapter@_W@__crt_stdio_output@@V?$standard_base@_WV?$string_output_adapter@_W@__crt_stdio_output@@@2@@__crt_stdio_output@@AEAAXI@Z 0000000180065ed0 f i libucrtd:output.obj
 0001:00064ef0       ?should_format@?$positional_parameter_base@DV?$stream_output_adapter@D@__crt_stdio_output@@@__crt_stdio_output@@IEAA_NXZ 0000000180065ef0 f i libucrtd:output.obj
 0001:00064f30       ?should_format@?$positional_parameter_base@DV?$string_output_adapter@D@__crt_stdio_output@@@__crt_stdio_output@@IEAA_NXZ 0000000180065f30 f i libucrtd:output.obj
 0001:00064f70       ?should_format@?$positional_parameter_base@_WV?$stream_output_adapter@_W@__crt_stdio_output@@@__crt_stdio_output@@IEAA_NXZ 0000000180065f70 f i libucrtd:output.obj
 0001:00064fb0       ?should_format@?$positional_parameter_base@_WV?$string_output_adapter@_W@__crt_stdio_output@@@__crt_stdio_output@@IEAA_NXZ 0000000180065fb0 f i libucrtd:output.obj
 0001:00064ff0       ?should_format@?$standard_base@DV?$stream_output_adapter@D@__crt_stdio_output@@@__crt_stdio_output@@IEAA_NXZ 0000000180065ff0 f i libucrtd:output.obj
 0001:00065000       ?should_format@?$standard_base@DV?$string_output_adapter@D@__crt_stdio_output@@@__crt_stdio_output@@IEAA_NXZ 0000000180066000 f i libucrtd:output.obj
 0001:00065010       ?should_format@?$standard_base@_WV?$stream_output_adapter@_W@__crt_stdio_output@@@__crt_stdio_output@@IEAA_NXZ 0000000180066010 f i libucrtd:output.obj
 0001:00065020       ?should_format@?$standard_base@_WV?$string_output_adapter@_W@__crt_stdio_output@@@__crt_stdio_output@@IEAA_NXZ 0000000180066020 f i libucrtd:output.obj
 0001:00065030       ?should_skip_normal_state_processing@?$positional_parameter_base@DV?$stream_output_adapter@D@__crt_stdio_output@@@__crt_stdio_output@@IEAA_NXZ 0000000180066030 f i libucrtd:output.obj
 0001:00065080       ?should_skip_normal_state_processing@?$positional_parameter_base@DV?$string_output_adapter@D@__crt_stdio_output@@@__crt_stdio_output@@IEAA_NXZ 0000000180066080 f i libucrtd:output.obj
 0001:000650d0       ?should_skip_normal_state_processing@?$positional_parameter_base@_WV?$stream_output_adapter@_W@__crt_stdio_output@@@__crt_stdio_output@@IEAA_NXZ 00000001800660d0 f i libucrtd:output.obj
 0001:00065120       ?should_skip_normal_state_processing@?$positional_parameter_base@_WV?$string_output_adapter@_W@__crt_stdio_output@@@__crt_stdio_output@@IEAA_NXZ 0000000180066120 f i libucrtd:output.obj
 0001:00065170       ?should_skip_normal_state_processing@?$standard_base@DV?$stream_output_adapter@D@__crt_stdio_output@@@__crt_stdio_output@@IEAA_NXZ 0000000180066170 f i libucrtd:output.obj
 0001:00065180       ?should_skip_normal_state_processing@?$standard_base@DV?$string_output_adapter@D@__crt_stdio_output@@@__crt_stdio_output@@IEAA_NXZ 0000000180066180 f i libucrtd:output.obj
 0001:00065190       ?should_skip_normal_state_processing@?$standard_base@_WV?$stream_output_adapter@_W@__crt_stdio_output@@@__crt_stdio_output@@IEAA_NXZ 0000000180066190 f i libucrtd:output.obj
 0001:000651a0       ?should_skip_normal_state_processing@?$standard_base@_WV?$string_output_adapter@_W@__crt_stdio_output@@@__crt_stdio_output@@IEAA_NXZ 00000001800661a0 f i libucrtd:output.obj
 0001:000651b0       ?should_skip_type_state_output@?$positional_parameter_base@DV?$stream_output_adapter@D@__crt_stdio_output@@@__crt_stdio_output@@IEBA_NXZ 00000001800661b0 f i libucrtd:output.obj
 0001:000651f0       ?should_skip_type_state_output@?$positional_parameter_base@DV?$string_output_adapter@D@__crt_stdio_output@@@__crt_stdio_output@@IEBA_NXZ 00000001800661f0 f i libucrtd:output.obj
 0001:00065230       ?should_skip_type_state_output@?$positional_parameter_base@_WV?$stream_output_adapter@_W@__crt_stdio_output@@@__crt_stdio_output@@IEBA_NXZ 0000000180066230 f i libucrtd:output.obj
 0001:00065270       ?should_skip_type_state_output@?$positional_parameter_base@_WV?$string_output_adapter@_W@__crt_stdio_output@@@__crt_stdio_output@@IEBA_NXZ 0000000180066270 f i libucrtd:output.obj
 0001:000652b0       ?should_skip_type_state_output@?$standard_base@DV?$stream_output_adapter@D@__crt_stdio_output@@@__crt_stdio_output@@IEBA_NXZ 00000001800662b0 f i libucrtd:output.obj
 0001:000652c0       ?should_skip_type_state_output@?$standard_base@DV?$string_output_adapter@D@__crt_stdio_output@@@__crt_stdio_output@@IEBA_NXZ 00000001800662c0 f i libucrtd:output.obj
 0001:000652d0       ?should_skip_type_state_output@?$standard_base@_WV?$stream_output_adapter@_W@__crt_stdio_output@@@__crt_stdio_output@@IEBA_NXZ 00000001800662d0 f i libucrtd:output.obj
 0001:000652e0       ?should_skip_type_state_output@?$standard_base@_WV?$string_output_adapter@_W@__crt_stdio_output@@@__crt_stdio_output@@IEBA_NXZ 00000001800662e0 f i libucrtd:output.obj
 0001:000652f0       ?state_case_dot@?$output_processor@DV?$stream_output_adapter@D@__crt_stdio_output@@V?$format_validation_base@DV?$stream_output_adapter@D@__crt_stdio_output@@@2@@__crt_stdio_output@@AEAA_NXZ 00000001800662f0 f i libucrtd:output.obj
 0001:00065310       ?state_case_dot@?$output_processor@DV?$stream_output_adapter@D@__crt_stdio_output@@V?$positional_parameter_base@DV?$stream_output_adapter@D@__crt_stdio_output@@@2@@__crt_stdio_output@@AEAA_NXZ 0000000180066310 f i libucrtd:output.obj
 0001:00065330       ?state_case_dot@?$output_processor@DV?$stream_output_adapter@D@__crt_stdio_output@@V?$standard_base@DV?$stream_output_adapter@D@__crt_stdio_output@@@2@@__crt_stdio_output@@AEAA_NXZ 0000000180066330 f i libucrtd:output.obj
 0001:00065350       ?state_case_dot@?$output_processor@DV?$string_output_adapter@D@__crt_stdio_output@@V?$format_validation_base@DV?$string_output_adapter@D@__crt_stdio_output@@@2@@__crt_stdio_output@@AEAA_NXZ 0000000180066350 f i libucrtd:output.obj
 0001:00065370       ?state_case_dot@?$output_processor@DV?$string_output_adapter@D@__crt_stdio_output@@V?$positional_parameter_base@DV?$string_output_adapter@D@__crt_stdio_output@@@2@@__crt_stdio_output@@AEAA_NXZ 0000000180066370 f i libucrtd:output.obj
 0001:00065390       ?state_case_dot@?$output_processor@DV?$string_output_adapter@D@__crt_stdio_output@@V?$standard_base@DV?$string_output_adapter@D@__crt_stdio_output@@@2@@__crt_stdio_output@@AEAA_NXZ 0000000180066390 f i libucrtd:output.obj
 0001:000653b0       ?state_case_dot@?$output_processor@_WV?$stream_output_adapter@_W@__crt_stdio_output@@V?$format_validation_base@_WV?$stream_output_adapter@_W@__crt_stdio_output@@@2@@__crt_stdio_output@@AEAA_NXZ 00000001800663b0 f i libucrtd:output.obj
 0001:000653d0       ?state_case_dot@?$output_processor@_WV?$stream_output_adapter@_W@__crt_stdio_output@@V?$positional_parameter_base@_WV?$stream_output_adapter@_W@__crt_stdio_output@@@2@@__crt_stdio_output@@AEAA_NXZ 00000001800663d0 f i libucrtd:output.obj
 0001:000653f0       ?state_case_dot@?$output_processor@_WV?$stream_output_adapter@_W@__crt_stdio_output@@V?$standard_base@_WV?$stream_output_adapter@_W@__crt_stdio_output@@@2@@__crt_stdio_output@@AEAA_NXZ 00000001800663f0 f i libucrtd:output.obj
 0001:00065410       ?state_case_dot@?$output_processor@_WV?$string_output_adapter@_W@__crt_stdio_output@@V?$format_validation_base@_WV?$string_output_adapter@_W@__crt_stdio_output@@@2@@__crt_stdio_output@@AEAA_NXZ 0000000180066410 f i libucrtd:output.obj
 0001:00065430       ?state_case_dot@?$output_processor@_WV?$string_output_adapter@_W@__crt_stdio_output@@V?$positional_parameter_base@_WV?$string_output_adapter@_W@__crt_stdio_output@@@2@@__crt_stdio_output@@AEAA_NXZ 0000000180066430 f i libucrtd:output.obj
 0001:00065450       ?state_case_dot@?$output_processor@_WV?$string_output_adapter@_W@__crt_stdio_output@@V?$standard_base@_WV?$string_output_adapter@_W@__crt_stdio_output@@@2@@__crt_stdio_output@@AEAA_NXZ 0000000180066450 f i libucrtd:output.obj
 0001:00065470       ?state_case_flag@?$output_processor@DV?$stream_output_adapter@D@__crt_stdio_output@@V?$format_validation_base@DV?$stream_output_adapter@D@__crt_stdio_output@@@2@@__crt_stdio_output@@AEAA_NXZ 0000000180066470 f i libucrtd:output.obj
 0001:00065510       ?state_case_flag@?$output_processor@DV?$stream_output_adapter@D@__crt_stdio_output@@V?$positional_parameter_base@DV?$stream_output_adapter@D@__crt_stdio_output@@@2@@__crt_stdio_output@@AEAA_NXZ 0000000180066510 f i libucrtd:output.obj
 0001:000655b0       ?state_case_flag@?$output_processor@DV?$stream_output_adapter@D@__crt_stdio_output@@V?$standard_base@DV?$stream_output_adapter@D@__crt_stdio_output@@@2@@__crt_stdio_output@@AEAA_NXZ 00000001800665b0 f i libucrtd:output.obj
 0001:00065650       ?state_case_flag@?$output_processor@DV?$string_output_adapter@D@__crt_stdio_output@@V?$format_validation_base@DV?$string_output_adapter@D@__crt_stdio_output@@@2@@__crt_stdio_output@@AEAA_NXZ 0000000180066650 f i libucrtd:output.obj
 0001:000656f0       ?state_case_flag@?$output_processor@DV?$string_output_adapter@D@__crt_stdio_output@@V?$positional_parameter_base@DV?$string_output_adapter@D@__crt_stdio_output@@@2@@__crt_stdio_output@@AEAA_NXZ 00000001800666f0 f i libucrtd:output.obj
 0001:00065790       ?state_case_flag@?$output_processor@DV?$string_output_adapter@D@__crt_stdio_output@@V?$standard_base@DV?$string_output_adapter@D@__crt_stdio_output@@@2@@__crt_stdio_output@@AEAA_NXZ 0000000180066790 f i libucrtd:output.obj
 0001:00065830       ?state_case_flag@?$output_processor@_WV?$stream_output_adapter@_W@__crt_stdio_output@@V?$format_validation_base@_WV?$stream_output_adapter@_W@__crt_stdio_output@@@2@@__crt_stdio_output@@AEAA_NXZ 0000000180066830 f i libucrtd:output.obj
 0001:000658d0       ?state_case_flag@?$output_processor@_WV?$stream_output_adapter@_W@__crt_stdio_output@@V?$positional_parameter_base@_WV?$stream_output_adapter@_W@__crt_stdio_output@@@2@@__crt_stdio_output@@AEAA_NXZ 00000001800668d0 f i libucrtd:output.obj
 0001:00065970       ?state_case_flag@?$output_processor@_WV?$stream_output_adapter@_W@__crt_stdio_output@@V?$standard_base@_WV?$stream_output_adapter@_W@__crt_stdio_output@@@2@@__crt_stdio_output@@AEAA_NXZ 0000000180066970 f i libucrtd:output.obj
 0001:00065a10       ?state_case_flag@?$output_processor@_WV?$string_output_adapter@_W@__crt_stdio_output@@V?$format_validation_base@_WV?$string_output_adapter@_W@__crt_stdio_output@@@2@@__crt_stdio_output@@AEAA_NXZ 0000000180066a10 f i libucrtd:output.obj
 0001:00065ab0       ?state_case_flag@?$output_processor@_WV?$string_output_adapter@_W@__crt_stdio_output@@V?$positional_parameter_base@_WV?$string_output_adapter@_W@__crt_stdio_output@@@2@@__crt_stdio_output@@AEAA_NXZ 0000000180066ab0 f i libucrtd:output.obj
 0001:00065b50       ?state_case_flag@?$output_processor@_WV?$string_output_adapter@_W@__crt_stdio_output@@V?$standard_base@_WV?$string_output_adapter@_W@__crt_stdio_output@@@2@@__crt_stdio_output@@AEAA_NXZ 0000000180066b50 f i libucrtd:output.obj
 0001:00065bf0       ?state_case_normal@?$output_processor@DV?$stream_output_adapter@D@__crt_stdio_output@@V?$format_validation_base@DV?$stream_output_adapter@D@__crt_stdio_output@@@2@@__crt_stdio_output@@AEAA_NXZ 0000000180066bf0 f i libucrtd:output.obj
 0001:00065cd0       ?state_case_normal@?$output_processor@DV?$stream_output_adapter@D@__crt_stdio_output@@V?$positional_parameter_base@DV?$stream_output_adapter@D@__crt_stdio_output@@@2@@__crt_stdio_output@@AEAA_NXZ 0000000180066cd0 f i libucrtd:output.obj
 0001:00065db0       ?state_case_normal@?$output_processor@DV?$stream_output_adapter@D@__crt_stdio_output@@V?$standard_base@DV?$stream_output_adapter@D@__crt_stdio_output@@@2@@__crt_stdio_output@@AEAA_NXZ 0000000180066db0 f i libucrtd:output.obj
 0001:00065e90       ?state_case_normal@?$output_processor@DV?$string_output_adapter@D@__crt_stdio_output@@V?$format_validation_base@DV?$string_output_adapter@D@__crt_stdio_output@@@2@@__crt_stdio_output@@AEAA_NXZ 0000000180066e90 f i libucrtd:output.obj
 0001:00065f70       ?state_case_normal@?$output_processor@DV?$string_output_adapter@D@__crt_stdio_output@@V?$positional_parameter_base@DV?$string_output_adapter@D@__crt_stdio_output@@@2@@__crt_stdio_output@@AEAA_NXZ 0000000180066f70 f i libucrtd:output.obj
 0001:00066050       ?state_case_normal@?$output_processor@DV?$string_output_adapter@D@__crt_stdio_output@@V?$standard_base@DV?$string_output_adapter@D@__crt_stdio_output@@@2@@__crt_stdio_output@@AEAA_NXZ 0000000180067050 f i libucrtd:output.obj
 0001:00066130       ?state_case_normal@?$output_processor@_WV?$stream_output_adapter@_W@__crt_stdio_output@@V?$format_validation_base@_WV?$stream_output_adapter@_W@__crt_stdio_output@@@2@@__crt_stdio_output@@AEAA_NXZ 0000000180067130 f i libucrtd:output.obj
 0001:00066210       ?state_case_normal@?$output_processor@_WV?$stream_output_adapter@_W@__crt_stdio_output@@V?$positional_parameter_base@_WV?$stream_output_adapter@_W@__crt_stdio_output@@@2@@__crt_stdio_output@@AEAA_NXZ 0000000180067210 f i libucrtd:output.obj
 0001:000662f0       ?state_case_normal@?$output_processor@_WV?$stream_output_adapter@_W@__crt_stdio_output@@V?$standard_base@_WV?$stream_output_adapter@_W@__crt_stdio_output@@@2@@__crt_stdio_output@@AEAA_NXZ 00000001800672f0 f i libucrtd:output.obj
 0001:000663d0       ?state_case_normal@?$output_processor@_WV?$string_output_adapter@_W@__crt_stdio_output@@V?$format_validation_base@_WV?$string_output_adapter@_W@__crt_stdio_output@@@2@@__crt_stdio_output@@AEAA_NXZ 00000001800673d0 f i libucrtd:output.obj
 0001:000664b0       ?state_case_normal@?$output_processor@_WV?$string_output_adapter@_W@__crt_stdio_output@@V?$positional_parameter_base@_WV?$string_output_adapter@_W@__crt_stdio_output@@@2@@__crt_stdio_output@@AEAA_NXZ 00000001800674b0 f i libucrtd:output.obj
 0001:00066590       ?state_case_normal@?$output_processor@_WV?$string_output_adapter@_W@__crt_stdio_output@@V?$standard_base@_WV?$string_output_adapter@_W@__crt_stdio_output@@@2@@__crt_stdio_output@@AEAA_NXZ 0000000180067590 f i libucrtd:output.obj
 0001:00066670       ?state_case_normal_common@?$output_processor@DV?$stream_output_adapter@D@__crt_stdio_output@@V?$format_validation_base@DV?$stream_output_adapter@D@__crt_stdio_output@@@2@@__crt_stdio_output@@AEAA_NXZ 0000000180067670 f i libucrtd:output.obj
 0001:000666c0       ?state_case_normal_common@?$output_processor@DV?$stream_output_adapter@D@__crt_stdio_output@@V?$positional_parameter_base@DV?$stream_output_adapter@D@__crt_stdio_output@@@2@@__crt_stdio_output@@AEAA_NXZ 00000001800676c0 f i libucrtd:output.obj
 0001:00066710       ?state_case_normal_common@?$output_processor@DV?$stream_output_adapter@D@__crt_stdio_output@@V?$standard_base@DV?$stream_output_adapter@D@__crt_stdio_output@@@2@@__crt_stdio_output@@AEAA_NXZ 0000000180067710 f i libucrtd:output.obj
 0001:00066760       ?state_case_normal_common@?$output_processor@DV?$string_output_adapter@D@__crt_stdio_output@@V?$format_validation_base@DV?$string_output_adapter@D@__crt_stdio_output@@@2@@__crt_stdio_output@@AEAA_NXZ 0000000180067760 f i libucrtd:output.obj
 0001:000667b0       ?state_case_normal_common@?$output_processor@DV?$string_output_adapter@D@__crt_stdio_output@@V?$positional_parameter_base@DV?$string_output_adapter@D@__crt_stdio_output@@@2@@__crt_stdio_output@@AEAA_NXZ 00000001800677b0 f i libucrtd:output.obj
 0001:00066800       ?state_case_normal_common@?$output_processor@DV?$string_output_adapter@D@__crt_stdio_output@@V?$standard_base@DV?$string_output_adapter@D@__crt_stdio_output@@@2@@__crt_stdio_output@@AEAA_NXZ 0000000180067800 f i libucrtd:output.obj
 0001:00066850       ?state_case_normal_common@?$output_processor@_WV?$stream_output_adapter@_W@__crt_stdio_output@@V?$format_validation_base@_WV?$stream_output_adapter@_W@__crt_stdio_output@@@2@@__crt_stdio_output@@AEAA_NXZ 0000000180067850 f i libucrtd:output.obj
 0001:000668a0       ?state_case_normal_common@?$output_processor@_WV?$stream_output_adapter@_W@__crt_stdio_output@@V?$positional_parameter_base@_WV?$stream_output_adapter@_W@__crt_stdio_output@@@2@@__crt_stdio_output@@AEAA_NXZ 00000001800678a0 f i libucrtd:output.obj
 0001:000668f0       ?state_case_normal_common@?$output_processor@_WV?$stream_output_adapter@_W@__crt_stdio_output@@V?$standard_base@_WV?$stream_output_adapter@_W@__crt_stdio_output@@@2@@__crt_stdio_output@@AEAA_NXZ 00000001800678f0 f i libucrtd:output.obj
 0001:00066940       ?state_case_normal_common@?$output_processor@_WV?$string_output_adapter@_W@__crt_stdio_output@@V?$format_validation_base@_WV?$string_output_adapter@_W@__crt_stdio_output@@@2@@__crt_stdio_output@@AEAA_NXZ 0000000180067940 f i libucrtd:output.obj
 0001:00066990       ?state_case_normal_common@?$output_processor@_WV?$string_output_adapter@_W@__crt_stdio_output@@V?$positional_parameter_base@_WV?$string_output_adapter@_W@__crt_stdio_output@@@2@@__crt_stdio_output@@AEAA_NXZ 0000000180067990 f i libucrtd:output.obj
 0001:000669e0       ?state_case_normal_common@?$output_processor@_WV?$string_output_adapter@_W@__crt_stdio_output@@V?$standard_base@_WV?$string_output_adapter@_W@__crt_stdio_output@@@2@@__crt_stdio_output@@AEAA_NXZ 00000001800679e0 f i libucrtd:output.obj
 0001:00066a30       ?state_case_normal_tchar@?$output_processor@DV?$stream_output_adapter@D@__crt_stdio_output@@V?$format_validation_base@DV?$stream_output_adapter@D@__crt_stdio_output@@@2@@__crt_stdio_output@@AEAA_ND@Z 0000000180067a30 f i libucrtd:output.obj
 0001:00066b70       ?state_case_normal_tchar@?$output_processor@DV?$stream_output_adapter@D@__crt_stdio_output@@V?$positional_parameter_base@DV?$stream_output_adapter@D@__crt_stdio_output@@@2@@__crt_stdio_output@@AEAA_ND@Z 0000000180067b70 f i libucrtd:output.obj
 0001:00066cb0       ?state_case_normal_tchar@?$output_processor@DV?$stream_output_adapter@D@__crt_stdio_output@@V?$standard_base@DV?$stream_output_adapter@D@__crt_stdio_output@@@2@@__crt_stdio_output@@AEAA_ND@Z 0000000180067cb0 f i libucrtd:output.obj
 0001:00066df0       ?state_case_normal_tchar@?$output_processor@DV?$string_output_adapter@D@__crt_stdio_output@@V?$format_validation_base@DV?$string_output_adapter@D@__crt_stdio_output@@@2@@__crt_stdio_output@@AEAA_ND@Z 0000000180067df0 f i libucrtd:output.obj
 0001:00066f30       ?state_case_normal_tchar@?$output_processor@DV?$string_output_adapter@D@__crt_stdio_output@@V?$positional_parameter_base@DV?$string_output_adapter@D@__crt_stdio_output@@@2@@__crt_stdio_output@@AEAA_ND@Z 0000000180067f30 f i libucrtd:output.obj
 0001:00067070       ?state_case_normal_tchar@?$output_processor@DV?$string_output_adapter@D@__crt_stdio_output@@V?$standard_base@DV?$string_output_adapter@D@__crt_stdio_output@@@2@@__crt_stdio_output@@AEAA_ND@Z 0000000180068070 f i libucrtd:output.obj
 0001:000671b0       ?state_case_normal_tchar@?$output_processor@_WV?$stream_output_adapter@_W@__crt_stdio_output@@V?$format_validation_base@_WV?$stream_output_adapter@_W@__crt_stdio_output@@@2@@__crt_stdio_output@@AEAA_N_W@Z 00000001800681b0 f i libucrtd:output.obj
 0001:000671d0       ?state_case_normal_tchar@?$output_processor@_WV?$stream_output_adapter@_W@__crt_stdio_output@@V?$positional_parameter_base@_WV?$stream_output_adapter@_W@__crt_stdio_output@@@2@@__crt_stdio_output@@AEAA_N_W@Z 00000001800681d0 f i libucrtd:output.obj
 0001:000671f0       ?state_case_normal_tchar@?$output_processor@_WV?$stream_output_adapter@_W@__crt_stdio_output@@V?$standard_base@_WV?$stream_output_adapter@_W@__crt_stdio_output@@@2@@__crt_stdio_output@@AEAA_N_W@Z 00000001800681f0 f i libucrtd:output.obj
 0001:00067210       ?state_case_normal_tchar@?$output_processor@_WV?$string_output_adapter@_W@__crt_stdio_output@@V?$format_validation_base@_WV?$string_output_adapter@_W@__crt_stdio_output@@@2@@__crt_stdio_output@@AEAA_N_W@Z 0000000180068210 f i libucrtd:output.obj
 0001:00067230       ?state_case_normal_tchar@?$output_processor@_WV?$string_output_adapter@_W@__crt_stdio_output@@V?$positional_parameter_base@_WV?$string_output_adapter@_W@__crt_stdio_output@@@2@@__crt_stdio_output@@AEAA_N_W@Z 0000000180068230 f i libucrtd:output.obj
 0001:00067250       ?state_case_normal_tchar@?$output_processor@_WV?$string_output_adapter@_W@__crt_stdio_output@@V?$standard_base@_WV?$string_output_adapter@_W@__crt_stdio_output@@@2@@__crt_stdio_output@@AEAA_N_W@Z 0000000180068250 f i libucrtd:output.obj
 0001:00067270       ?state_case_percent@?$output_processor@DV?$stream_output_adapter@D@__crt_stdio_output@@V?$format_validation_base@DV?$stream_output_adapter@D@__crt_stdio_output@@@2@@__crt_stdio_output@@AEAA_NXZ 0000000180068270 f i libucrtd:output.obj
 0001:000672c0       ?state_case_percent@?$output_processor@DV?$stream_output_adapter@D@__crt_stdio_output@@V?$positional_parameter_base@DV?$stream_output_adapter@D@__crt_stdio_output@@@2@@__crt_stdio_output@@AEAA_NXZ 00000001800682c0 f i libucrtd:output.obj
 0001:00067310       ?state_case_percent@?$output_processor@DV?$stream_output_adapter@D@__crt_stdio_output@@V?$standard_base@DV?$stream_output_adapter@D@__crt_stdio_output@@@2@@__crt_stdio_output@@AEAA_NXZ 0000000180068310 f i libucrtd:output.obj
 0001:00067360       ?state_case_percent@?$output_processor@DV?$string_output_adapter@D@__crt_stdio_output@@V?$format_validation_base@DV?$string_output_adapter@D@__crt_stdio_output@@@2@@__crt_stdio_output@@AEAA_NXZ 0000000180068360 f i libucrtd:output.obj
 0001:000673b0       ?state_case_percent@?$output_processor@DV?$string_output_adapter@D@__crt_stdio_output@@V?$positional_parameter_base@DV?$string_output_adapter@D@__crt_stdio_output@@@2@@__crt_stdio_output@@AEAA_NXZ 00000001800683b0 f i libucrtd:output.obj
 0001:00067400       ?state_case_percent@?$output_processor@DV?$string_output_adapter@D@__crt_stdio_output@@V?$standard_base@DV?$string_output_adapter@D@__crt_stdio_output@@@2@@__crt_stdio_output@@AEAA_NXZ 0000000180068400 f i libucrtd:output.obj
 0001:00067450       ?state_case_percent@?$output_processor@_WV?$stream_output_adapter@_W@__crt_stdio_output@@V?$format_validation_base@_WV?$stream_output_adapter@_W@__crt_stdio_output@@@2@@__crt_stdio_output@@AEAA_NXZ 0000000180068450 f i libucrtd:output.obj
 0001:000674a0       ?state_case_percent@?$output_processor@_WV?$stream_output_adapter@_W@__crt_stdio_output@@V?$positional_parameter_base@_WV?$stream_output_adapter@_W@__crt_stdio_output@@@2@@__crt_stdio_output@@AEAA_NXZ 00000001800684a0 f i libucrtd:output.obj
 0001:000674f0       ?state_case_percent@?$output_processor@_WV?$stream_output_adapter@_W@__crt_stdio_output@@V?$standard_base@_WV?$stream_output_adapter@_W@__crt_stdio_output@@@2@@__crt_stdio_output@@AEAA_NXZ 00000001800684f0 f i libucrtd:output.obj
 0001:00067540       ?state_case_percent@?$output_processor@_WV?$string_output_adapter@_W@__crt_stdio_output@@V?$format_validation_base@_WV?$string_output_adapter@_W@__crt_stdio_output@@@2@@__crt_stdio_output@@AEAA_NXZ 0000000180068540 f i libucrtd:output.obj
 0001:00067590       ?state_case_percent@?$output_processor@_WV?$string_output_adapter@_W@__crt_stdio_output@@V?$positional_parameter_base@_WV?$string_output_adapter@_W@__crt_stdio_output@@@2@@__crt_stdio_output@@AEAA_NXZ 0000000180068590 f i libucrtd:output.obj
 0001:000675e0       ?state_case_percent@?$output_processor@_WV?$string_output_adapter@_W@__crt_stdio_output@@V?$standard_base@_WV?$string_output_adapter@_W@__crt_stdio_output@@@2@@__crt_stdio_output@@AEAA_NXZ 00000001800685e0 f i libucrtd:output.obj
 0001:00067630       ?state_case_precision@?$output_processor@DV?$stream_output_adapter@D@__crt_stdio_output@@V?$format_validation_base@DV?$stream_output_adapter@D@__crt_stdio_output@@@2@@__crt_stdio_output@@AEAA_NXZ 0000000180068630 f i libucrtd:output.obj
 0001:000676b0       ?state_case_precision@?$output_processor@DV?$stream_output_adapter@D@__crt_stdio_output@@V?$positional_parameter_base@DV?$stream_output_adapter@D@__crt_stdio_output@@@2@@__crt_stdio_output@@AEAA_NXZ 00000001800686b0 f i libucrtd:output.obj
 0001:00067730       ?state_case_precision@?$output_processor@DV?$stream_output_adapter@D@__crt_stdio_output@@V?$standard_base@DV?$stream_output_adapter@D@__crt_stdio_output@@@2@@__crt_stdio_output@@AEAA_NXZ 0000000180068730 f i libucrtd:output.obj
 0001:000677b0       ?state_case_precision@?$output_processor@DV?$string_output_adapter@D@__crt_stdio_output@@V?$format_validation_base@DV?$string_output_adapter@D@__crt_stdio_output@@@2@@__crt_stdio_output@@AEAA_NXZ 00000001800687b0 f i libucrtd:output.obj
 0001:00067830       ?state_case_precision@?$output_processor@DV?$string_output_adapter@D@__crt_stdio_output@@V?$positional_parameter_base@DV?$string_output_adapter@D@__crt_stdio_output@@@2@@__crt_stdio_output@@AEAA_NXZ 0000000180068830 f i libucrtd:output.obj
 0001:000678b0       ?state_case_precision@?$output_processor@DV?$string_output_adapter@D@__crt_stdio_output@@V?$standard_base@DV?$string_output_adapter@D@__crt_stdio_output@@@2@@__crt_stdio_output@@AEAA_NXZ 00000001800688b0 f i libucrtd:output.obj
 0001:00067930       ?state_case_precision@?$output_processor@_WV?$stream_output_adapter@_W@__crt_stdio_output@@V?$format_validation_base@_WV?$stream_output_adapter@_W@__crt_stdio_output@@@2@@__crt_stdio_output@@AEAA_NXZ 0000000180068930 f i libucrtd:output.obj
 0001:000679b0       ?state_case_precision@?$output_processor@_WV?$stream_output_adapter@_W@__crt_stdio_output@@V?$positional_parameter_base@_WV?$stream_output_adapter@_W@__crt_stdio_output@@@2@@__crt_stdio_output@@AEAA_NXZ 00000001800689b0 f i libucrtd:output.obj
 0001:00067a30       ?state_case_precision@?$output_processor@_WV?$stream_output_adapter@_W@__crt_stdio_output@@V?$standard_base@_WV?$stream_output_adapter@_W@__crt_stdio_output@@@2@@__crt_stdio_output@@AEAA_NXZ 0000000180068a30 f i libucrtd:output.obj
 0001:00067ab0       ?state_case_precision@?$output_processor@_WV?$string_output_adapter@_W@__crt_stdio_output@@V?$format_validation_base@_WV?$string_output_adapter@_W@__crt_stdio_output@@@2@@__crt_stdio_output@@AEAA_NXZ 0000000180068ab0 f i libucrtd:output.obj
 0001:00067b30       ?state_case_precision@?$output_processor@_WV?$string_output_adapter@_W@__crt_stdio_output@@V?$positional_parameter_base@_WV?$string_output_adapter@_W@__crt_stdio_output@@@2@@__crt_stdio_output@@AEAA_NXZ 0000000180068b30 f i libucrtd:output.obj
 0001:00067bb0       ?state_case_precision@?$output_processor@_WV?$string_output_adapter@_W@__crt_stdio_output@@V?$standard_base@_WV?$string_output_adapter@_W@__crt_stdio_output@@@2@@__crt_stdio_output@@AEAA_NXZ 0000000180068bb0 f i libucrtd:output.obj
 0001:00067c30       ?state_case_size@?$output_processor@DV?$stream_output_adapter@D@__crt_stdio_output@@V?$format_validation_base@DV?$stream_output_adapter@D@__crt_stdio_output@@@2@@__crt_stdio_output@@AEAA_NXZ 0000000180068c30 f i libucrtd:output.obj
 0001:000680b0       ?state_case_size@?$output_processor@DV?$stream_output_adapter@D@__crt_stdio_output@@V?$positional_parameter_base@DV?$stream_output_adapter@D@__crt_stdio_output@@@2@@__crt_stdio_output@@AEAA_NXZ 00000001800690b0 f i libucrtd:output.obj
 0001:00068530       ?state_case_size@?$output_processor@DV?$stream_output_adapter@D@__crt_stdio_output@@V?$standard_base@DV?$stream_output_adapter@D@__crt_stdio_output@@@2@@__crt_stdio_output@@AEAA_NXZ 0000000180069530 f i libucrtd:output.obj
 0001:000689b0       ?state_case_size@?$output_processor@DV?$string_output_adapter@D@__crt_stdio_output@@V?$format_validation_base@DV?$string_output_adapter@D@__crt_stdio_output@@@2@@__crt_stdio_output@@AEAA_NXZ 00000001800699b0 f i libucrtd:output.obj
 0001:00068e30       ?state_case_size@?$output_processor@DV?$string_output_adapter@D@__crt_stdio_output@@V?$positional_parameter_base@DV?$string_output_adapter@D@__crt_stdio_output@@@2@@__crt_stdio_output@@AEAA_NXZ 0000000180069e30 f i libucrtd:output.obj
 0001:000692b0       ?state_case_size@?$output_processor@DV?$string_output_adapter@D@__crt_stdio_output@@V?$standard_base@DV?$string_output_adapter@D@__crt_stdio_output@@@2@@__crt_stdio_output@@AEAA_NXZ 000000018006a2b0 f i libucrtd:output.obj
 0001:00069730       ?state_case_size@?$output_processor@_WV?$stream_output_adapter@_W@__crt_stdio_output@@V?$format_validation_base@_WV?$stream_output_adapter@_W@__crt_stdio_output@@@2@@__crt_stdio_output@@AEAA_NXZ 000000018006a730 f i libucrtd:output.obj
 0001:00069bb0       ?state_case_size@?$output_processor@_WV?$stream_output_adapter@_W@__crt_stdio_output@@V?$positional_parameter_base@_WV?$stream_output_adapter@_W@__crt_stdio_output@@@2@@__crt_stdio_output@@AEAA_NXZ 000000018006abb0 f i libucrtd:output.obj
 0001:0006a030       ?state_case_size@?$output_processor@_WV?$stream_output_adapter@_W@__crt_stdio_output@@V?$standard_base@_WV?$stream_output_adapter@_W@__crt_stdio_output@@@2@@__crt_stdio_output@@AEAA_NXZ 000000018006b030 f i libucrtd:output.obj
 0001:0006a4b0       ?state_case_size@?$output_processor@_WV?$string_output_adapter@_W@__crt_stdio_output@@V?$format_validation_base@_WV?$string_output_adapter@_W@__crt_stdio_output@@@2@@__crt_stdio_output@@AEAA_NXZ 000000018006b4b0 f i libucrtd:output.obj
 0001:0006a930       ?state_case_size@?$output_processor@_WV?$string_output_adapter@_W@__crt_stdio_output@@V?$positional_parameter_base@_WV?$string_output_adapter@_W@__crt_stdio_output@@@2@@__crt_stdio_output@@AEAA_NXZ 000000018006b930 f i libucrtd:output.obj
 0001:0006adb0       ?state_case_size@?$output_processor@_WV?$string_output_adapter@_W@__crt_stdio_output@@V?$standard_base@_WV?$string_output_adapter@_W@__crt_stdio_output@@@2@@__crt_stdio_output@@AEAA_NXZ 000000018006bdb0 f i libucrtd:output.obj
 0001:0006b230       ?state_case_type@?$output_processor@DV?$stream_output_adapter@D@__crt_stdio_output@@V?$format_validation_base@DV?$stream_output_adapter@D@__crt_stdio_output@@@2@@__crt_stdio_output@@AEAA_NXZ 000000018006c230 f i libucrtd:output.obj
 0001:0006b6d0       ?state_case_type@?$output_processor@DV?$stream_output_adapter@D@__crt_stdio_output@@V?$positional_parameter_base@DV?$stream_output_adapter@D@__crt_stdio_output@@@2@@__crt_stdio_output@@AEAA_NXZ 000000018006c6d0 f i libucrtd:output.obj
 0001:0006bb70       ?state_case_type@?$output_processor@DV?$stream_output_adapter@D@__crt_stdio_output@@V?$standard_base@DV?$stream_output_adapter@D@__crt_stdio_output@@@2@@__crt_stdio_output@@AEAA_NXZ 000000018006cb70 f i libucrtd:output.obj
 0001:0006c010       ?state_case_type@?$output_processor@DV?$string_output_adapter@D@__crt_stdio_output@@V?$format_validation_base@DV?$string_output_adapter@D@__crt_stdio_output@@@2@@__crt_stdio_output@@AEAA_NXZ 000000018006d010 f i libucrtd:output.obj
 0001:0006c4b0       ?state_case_type@?$output_processor@DV?$string_output_adapter@D@__crt_stdio_output@@V?$positional_parameter_base@DV?$string_output_adapter@D@__crt_stdio_output@@@2@@__crt_stdio_output@@AEAA_NXZ 000000018006d4b0 f i libucrtd:output.obj
 0001:0006c950       ?state_case_type@?$output_processor@DV?$string_output_adapter@D@__crt_stdio_output@@V?$standard_base@DV?$string_output_adapter@D@__crt_stdio_output@@@2@@__crt_stdio_output@@AEAA_NXZ 000000018006d950 f i libucrtd:output.obj
 0001:0006cdf0       ?state_case_type@?$output_processor@_WV?$stream_output_adapter@_W@__crt_stdio_output@@V?$format_validation_base@_WV?$stream_output_adapter@_W@__crt_stdio_output@@@2@@__crt_stdio_output@@AEAA_NXZ 000000018006ddf0 f i libucrtd:output.obj
 0001:0006d350       ?state_case_type@?$output_processor@_WV?$stream_output_adapter@_W@__crt_stdio_output@@V?$positional_parameter_base@_WV?$stream_output_adapter@_W@__crt_stdio_output@@@2@@__crt_stdio_output@@AEAA_NXZ 000000018006e350 f i libucrtd:output.obj
 0001:0006d8b0       ?state_case_type@?$output_processor@_WV?$stream_output_adapter@_W@__crt_stdio_output@@V?$standard_base@_WV?$stream_output_adapter@_W@__crt_stdio_output@@@2@@__crt_stdio_output@@AEAA_NXZ 000000018006e8b0 f i libucrtd:output.obj
 0001:0006de10       ?state_case_type@?$output_processor@_WV?$string_output_adapter@_W@__crt_stdio_output@@V?$format_validation_base@_WV?$string_output_adapter@_W@__crt_stdio_output@@@2@@__crt_stdio_output@@AEAA_NXZ 000000018006ee10 f i libucrtd:output.obj
 0001:0006e370       ?state_case_type@?$output_processor@_WV?$string_output_adapter@_W@__crt_stdio_output@@V?$positional_parameter_base@_WV?$string_output_adapter@_W@__crt_stdio_output@@@2@@__crt_stdio_output@@AEAA_NXZ 000000018006f370 f i libucrtd:output.obj
 0001:0006e8d0       ?state_case_type@?$output_processor@_WV?$string_output_adapter@_W@__crt_stdio_output@@V?$standard_base@_WV?$string_output_adapter@_W@__crt_stdio_output@@@2@@__crt_stdio_output@@AEAA_NXZ 000000018006f8d0 f i libucrtd:output.obj
 0001:0006ee30       ?state_case_width@?$output_processor@DV?$stream_output_adapter@D@__crt_stdio_output@@V?$format_validation_base@DV?$stream_output_adapter@D@__crt_stdio_output@@@2@@__crt_stdio_output@@AEAA_NXZ 000000018006fe30 f i libucrtd:output.obj
 0001:0006eec0       ?state_case_width@?$output_processor@DV?$stream_output_adapter@D@__crt_stdio_output@@V?$positional_parameter_base@DV?$stream_output_adapter@D@__crt_stdio_output@@@2@@__crt_stdio_output@@AEAA_NXZ 000000018006fec0 f i libucrtd:output.obj
 0001:0006ef50       ?state_case_width@?$output_processor@DV?$stream_output_adapter@D@__crt_stdio_output@@V?$standard_base@DV?$stream_output_adapter@D@__crt_stdio_output@@@2@@__crt_stdio_output@@AEAA_NXZ 000000018006ff50 f i libucrtd:output.obj
 0001:0006efe0       ?state_case_width@?$output_processor@DV?$string_output_adapter@D@__crt_stdio_output@@V?$format_validation_base@DV?$string_output_adapter@D@__crt_stdio_output@@@2@@__crt_stdio_output@@AEAA_NXZ 000000018006ffe0 f i libucrtd:output.obj
 0001:0006f070       ?state_case_width@?$output_processor@DV?$string_output_adapter@D@__crt_stdio_output@@V?$positional_parameter_base@DV?$string_output_adapter@D@__crt_stdio_output@@@2@@__crt_stdio_output@@AEAA_NXZ 0000000180070070 f i libucrtd:output.obj
 0001:0006f100       ?state_case_width@?$output_processor@DV?$string_output_adapter@D@__crt_stdio_output@@V?$standard_base@DV?$string_output_adapter@D@__crt_stdio_output@@@2@@__crt_stdio_output@@AEAA_NXZ 0000000180070100 f i libucrtd:output.obj
 0001:0006f190       ?state_case_width@?$output_processor@_WV?$stream_output_adapter@_W@__crt_stdio_output@@V?$format_validation_base@_WV?$stream_output_adapter@_W@__crt_stdio_output@@@2@@__crt_stdio_output@@AEAA_NXZ 0000000180070190 f i libucrtd:output.obj
 0001:0006f220       ?state_case_width@?$output_processor@_WV?$stream_output_adapter@_W@__crt_stdio_output@@V?$positional_parameter_base@_WV?$stream_output_adapter@_W@__crt_stdio_output@@@2@@__crt_stdio_output@@AEAA_NXZ 0000000180070220 f i libucrtd:output.obj
 0001:0006f2b0       ?state_case_width@?$output_processor@_WV?$stream_output_adapter@_W@__crt_stdio_output@@V?$standard_base@_WV?$stream_output_adapter@_W@__crt_stdio_output@@@2@@__crt_stdio_output@@AEAA_NXZ 00000001800702b0 f i libucrtd:output.obj
 0001:0006f340       ?state_case_width@?$output_processor@_WV?$string_output_adapter@_W@__crt_stdio_output@@V?$format_validation_base@_WV?$string_output_adapter@_W@__crt_stdio_output@@@2@@__crt_stdio_output@@AEAA_NXZ 0000000180070340 f i libucrtd:output.obj
 0001:0006f3d0       ?state_case_width@?$output_processor@_WV?$string_output_adapter@_W@__crt_stdio_output@@V?$positional_parameter_base@_WV?$string_output_adapter@_W@__crt_stdio_output@@@2@@__crt_stdio_output@@AEAA_NXZ 00000001800703d0 f i libucrtd:output.obj
 0001:0006f460       ?state_case_width@?$output_processor@_WV?$string_output_adapter@_W@__crt_stdio_output@@V?$standard_base@_WV?$string_output_adapter@_W@__crt_stdio_output@@@2@@__crt_stdio_output@@AEAA_NXZ 0000000180070460 f i libucrtd:output.obj
 0001:0006f4f0       ?state_count@?$format_validation_base@DV?$stream_output_adapter@D@__crt_stdio_output@@@__crt_stdio_output@@KAIXZ 00000001800704f0 f i libucrtd:output.obj
 0001:0006f500       ?state_count@?$format_validation_base@DV?$string_output_adapter@D@__crt_stdio_output@@@__crt_stdio_output@@KAIXZ 0000000180070500 f i libucrtd:output.obj
 0001:0006f510       ?state_count@?$format_validation_base@_WV?$stream_output_adapter@_W@__crt_stdio_output@@@__crt_stdio_output@@KAIXZ 0000000180070510 f i libucrtd:output.obj
 0001:0006f520       ?state_count@?$format_validation_base@_WV?$string_output_adapter@_W@__crt_stdio_output@@@__crt_stdio_output@@KAIXZ 0000000180070520 f i libucrtd:output.obj
 0001:0006f530       ?state_count@?$standard_base@DV?$stream_output_adapter@D@__crt_stdio_output@@@__crt_stdio_output@@KAIXZ 0000000180070530 f i libucrtd:output.obj
 0001:0006f540       ?state_count@?$standard_base@DV?$string_output_adapter@D@__crt_stdio_output@@@__crt_stdio_output@@KAIXZ 0000000180070540 f i libucrtd:output.obj
 0001:0006f550       ?state_count@?$standard_base@_WV?$stream_output_adapter@_W@__crt_stdio_output@@@__crt_stdio_output@@KAIXZ 0000000180070550 f i libucrtd:output.obj
 0001:0006f560       ?state_count@?$standard_base@_WV?$string_output_adapter@_W@__crt_stdio_output@@@__crt_stdio_output@@KAIXZ 0000000180070560 f i libucrtd:output.obj
 0001:0006f570       ?state_transition_table@?$format_validation_base@DV?$stream_output_adapter@D@__crt_stdio_output@@@__crt_stdio_output@@KAPEBEXZ 0000000180070570 f i libucrtd:output.obj
 0001:0006f580       ?state_transition_table@?$format_validation_base@DV?$string_output_adapter@D@__crt_stdio_output@@@__crt_stdio_output@@KAPEBEXZ 0000000180070580 f i libucrtd:output.obj
 0001:0006f590       ?state_transition_table@?$format_validation_base@_WV?$stream_output_adapter@_W@__crt_stdio_output@@@__crt_stdio_output@@KAPEBEXZ 0000000180070590 f i libucrtd:output.obj
 0001:0006f5a0       ?state_transition_table@?$format_validation_base@_WV?$string_output_adapter@_W@__crt_stdio_output@@@__crt_stdio_output@@KAPEBEXZ 00000001800705a0 f i libucrtd:output.obj
 0001:0006f5b0       ?state_transition_table@?$standard_base@DV?$stream_output_adapter@D@__crt_stdio_output@@@__crt_stdio_output@@KAPEBEXZ 00000001800705b0 f i libucrtd:output.obj
 0001:0006f5c0       ?state_transition_table@?$standard_base@DV?$string_output_adapter@D@__crt_stdio_output@@@__crt_stdio_output@@KAPEBEXZ 00000001800705c0 f i libucrtd:output.obj
 0001:0006f5d0       ?state_transition_table@?$standard_base@_WV?$stream_output_adapter@_W@__crt_stdio_output@@@__crt_stdio_output@@KAPEBEXZ 00000001800705d0 f i libucrtd:output.obj
 0001:0006f5e0       ?state_transition_table@?$standard_base@_WV?$string_output_adapter@_W@__crt_stdio_output@@@__crt_stdio_output@@KAPEBEXZ 00000001800705e0 f i libucrtd:output.obj
 0001:0006f5f0       ?tchar_string@?$common_data@D@__crt_stdio_output@@IEAAAEAPEADD@Z 00000001800705f0 f i libucrtd:output.obj
 0001:0006f610       ?tchar_string@?$common_data@D@__crt_stdio_output@@IEAAAEAPEADXZ 0000000180070610 f i libucrtd:output.obj
 0001:0006f630       ?tchar_string@?$common_data@_W@__crt_stdio_output@@IEAAAEAPEA_WXZ 0000000180070630 f i libucrtd:output.obj
 0001:0006f650       ?tchar_string@?$common_data@_W@__crt_stdio_output@@IEAAAEAPEA_W_W@Z 0000000180070650 f i libucrtd:output.obj
 0001:0006f670       ?to_integer_size@__crt_stdio_output@@YA_KW4length_modifier@1@@Z 0000000180070670 f i libucrtd:output.obj
 0001:0006f720       ?type_case_X@?$output_processor@DV?$stream_output_adapter@D@__crt_stdio_output@@V?$format_validation_base@DV?$stream_output_adapter@D@__crt_stdio_output@@@2@@__crt_stdio_output@@AEAA_NXZ 0000000180070720 f i libucrtd:output.obj
 0001:0006f740       ?type_case_X@?$output_processor@DV?$stream_output_adapter@D@__crt_stdio_output@@V?$positional_parameter_base@DV?$stream_output_adapter@D@__crt_stdio_output@@@2@@__crt_stdio_output@@AEAA_NXZ 0000000180070740 f i libucrtd:output.obj
 0001:0006f760       ?type_case_X@?$output_processor@DV?$stream_output_adapter@D@__crt_stdio_output@@V?$standard_base@DV?$stream_output_adapter@D@__crt_stdio_output@@@2@@__crt_stdio_output@@AEAA_NXZ 0000000180070760 f i libucrtd:output.obj
 0001:0006f780       ?type_case_X@?$output_processor@DV?$string_output_adapter@D@__crt_stdio_output@@V?$format_validation_base@DV?$string_output_adapter@D@__crt_stdio_output@@@2@@__crt_stdio_output@@AEAA_NXZ 0000000180070780 f i libucrtd:output.obj
 0001:0006f7a0       ?type_case_X@?$output_processor@DV?$string_output_adapter@D@__crt_stdio_output@@V?$positional_parameter_base@DV?$string_output_adapter@D@__crt_stdio_output@@@2@@__crt_stdio_output@@AEAA_NXZ 00000001800707a0 f i libucrtd:output.obj
 0001:0006f7c0       ?type_case_X@?$output_processor@DV?$string_output_adapter@D@__crt_stdio_output@@V?$standard_base@DV?$string_output_adapter@D@__crt_stdio_output@@@2@@__crt_stdio_output@@AEAA_NXZ 00000001800707c0 f i libucrtd:output.obj
 0001:0006f7e0       ?type_case_X@?$output_processor@_WV?$stream_output_adapter@_W@__crt_stdio_output@@V?$format_validation_base@_WV?$stream_output_adapter@_W@__crt_stdio_output@@@2@@__crt_stdio_output@@AEAA_NXZ 00000001800707e0 f i libucrtd:output.obj
 0001:0006f800       ?type_case_X@?$output_processor@_WV?$stream_output_adapter@_W@__crt_stdio_output@@V?$positional_parameter_base@_WV?$stream_output_adapter@_W@__crt_stdio_output@@@2@@__crt_stdio_output@@AEAA_NXZ 0000000180070800 f i libucrtd:output.obj
 0001:0006f820       ?type_case_X@?$output_processor@_WV?$stream_output_adapter@_W@__crt_stdio_output@@V?$standard_base@_WV?$stream_output_adapter@_W@__crt_stdio_output@@@2@@__crt_stdio_output@@AEAA_NXZ 0000000180070820 f i libucrtd:output.obj
 0001:0006f840       ?type_case_X@?$output_processor@_WV?$string_output_adapter@_W@__crt_stdio_output@@V?$format_validation_base@_WV?$string_output_adapter@_W@__crt_stdio_output@@@2@@__crt_stdio_output@@AEAA_NXZ 0000000180070840 f i libucrtd:output.obj
 0001:0006f860       ?type_case_X@?$output_processor@_WV?$string_output_adapter@_W@__crt_stdio_output@@V?$positional_parameter_base@_WV?$string_output_adapter@_W@__crt_stdio_output@@@2@@__crt_stdio_output@@AEAA_NXZ 0000000180070860 f i libucrtd:output.obj
 0001:0006f880       ?type_case_X@?$output_processor@_WV?$string_output_adapter@_W@__crt_stdio_output@@V?$standard_base@_WV?$string_output_adapter@_W@__crt_stdio_output@@@2@@__crt_stdio_output@@AEAA_NXZ 0000000180070880 f i libucrtd:output.obj
 0001:0006f8a0       ?type_case_Z@?$output_processor@DV?$stream_output_adapter@D@__crt_stdio_output@@V?$format_validation_base@DV?$stream_output_adapter@D@__crt_stdio_output@@@2@@__crt_stdio_output@@AEAA_NXZ 00000001800708a0 f i libucrtd:output.obj
 0001:0006f9c0       ?type_case_Z@?$output_processor@DV?$stream_output_adapter@D@__crt_stdio_output@@V?$positional_parameter_base@DV?$stream_output_adapter@D@__crt_stdio_output@@@2@@__crt_stdio_output@@AEAA_NXZ 00000001800709c0 f i libucrtd:output.obj
 0001:0006fae0       ?type_case_Z@?$output_processor@DV?$stream_output_adapter@D@__crt_stdio_output@@V?$standard_base@DV?$stream_output_adapter@D@__crt_stdio_output@@@2@@__crt_stdio_output@@AEAA_NXZ 0000000180070ae0 f i libucrtd:output.obj
 0001:0006fc00       ?type_case_Z@?$output_processor@DV?$string_output_adapter@D@__crt_stdio_output@@V?$format_validation_base@DV?$string_output_adapter@D@__crt_stdio_output@@@2@@__crt_stdio_output@@AEAA_NXZ 0000000180070c00 f i libucrtd:output.obj
 0001:0006fd20       ?type_case_Z@?$output_processor@DV?$string_output_adapter@D@__crt_stdio_output@@V?$positional_parameter_base@DV?$string_output_adapter@D@__crt_stdio_output@@@2@@__crt_stdio_output@@AEAA_NXZ 0000000180070d20 f i libucrtd:output.obj
 0001:0006fe40       ?type_case_Z@?$output_processor@DV?$string_output_adapter@D@__crt_stdio_output@@V?$standard_base@DV?$string_output_adapter@D@__crt_stdio_output@@@2@@__crt_stdio_output@@AEAA_NXZ 0000000180070e40 f i libucrtd:output.obj
 0001:0006ff60       ?type_case_Z@?$output_processor@_WV?$stream_output_adapter@_W@__crt_stdio_output@@V?$format_validation_base@_WV?$stream_output_adapter@_W@__crt_stdio_output@@@2@@__crt_stdio_output@@AEAA_NXZ 0000000180070f60 f i libucrtd:output.obj
 0001:00070080       ?type_case_Z@?$output_processor@_WV?$stream_output_adapter@_W@__crt_stdio_output@@V?$positional_parameter_base@_WV?$stream_output_adapter@_W@__crt_stdio_output@@@2@@__crt_stdio_output@@AEAA_NXZ 0000000180071080 f i libucrtd:output.obj
 0001:000701a0       ?type_case_Z@?$output_processor@_WV?$stream_output_adapter@_W@__crt_stdio_output@@V?$standard_base@_WV?$stream_output_adapter@_W@__crt_stdio_output@@@2@@__crt_stdio_output@@AEAA_NXZ 00000001800711a0 f i libucrtd:output.obj
 0001:000702c0       ?type_case_Z@?$output_processor@_WV?$string_output_adapter@_W@__crt_stdio_output@@V?$format_validation_base@_WV?$string_output_adapter@_W@__crt_stdio_output@@@2@@__crt_stdio_output@@AEAA_NXZ 00000001800712c0 f i libucrtd:output.obj
 0001:000703e0       ?type_case_Z@?$output_processor@_WV?$string_output_adapter@_W@__crt_stdio_output@@V?$positional_parameter_base@_WV?$string_output_adapter@_W@__crt_stdio_output@@@2@@__crt_stdio_output@@AEAA_NXZ 00000001800713e0 f i libucrtd:output.obj
 0001:00070500       ?type_case_Z@?$output_processor@_WV?$string_output_adapter@_W@__crt_stdio_output@@V?$standard_base@_WV?$string_output_adapter@_W@__crt_stdio_output@@@2@@__crt_stdio_output@@AEAA_NXZ 0000000180071500 f i libucrtd:output.obj
 0001:00070620       ?type_case_a@?$output_processor@DV?$stream_output_adapter@D@__crt_stdio_output@@V?$format_validation_base@DV?$stream_output_adapter@D@__crt_stdio_output@@@2@@__crt_stdio_output@@AEAA_NXZ 0000000180071620 f i libucrtd:output.obj
 0001:000709e0       ?type_case_a@?$output_processor@DV?$stream_output_adapter@D@__crt_stdio_output@@V?$positional_parameter_base@DV?$stream_output_adapter@D@__crt_stdio_output@@@2@@__crt_stdio_output@@AEAA_NXZ 00000001800719e0 f i libucrtd:output.obj
 0001:00070da0       ?type_case_a@?$output_processor@DV?$stream_output_adapter@D@__crt_stdio_output@@V?$standard_base@DV?$stream_output_adapter@D@__crt_stdio_output@@@2@@__crt_stdio_output@@AEAA_NXZ 0000000180071da0 f i libucrtd:output.obj
 0001:00071160       ?type_case_a@?$output_processor@DV?$string_output_adapter@D@__crt_stdio_output@@V?$format_validation_base@DV?$string_output_adapter@D@__crt_stdio_output@@@2@@__crt_stdio_output@@AEAA_NXZ 0000000180072160 f i libucrtd:output.obj
 0001:00071520       ?type_case_a@?$output_processor@DV?$string_output_adapter@D@__crt_stdio_output@@V?$positional_parameter_base@DV?$string_output_adapter@D@__crt_stdio_output@@@2@@__crt_stdio_output@@AEAA_NXZ 0000000180072520 f i libucrtd:output.obj
 0001:000718e0       ?type_case_a@?$output_processor@DV?$string_output_adapter@D@__crt_stdio_output@@V?$standard_base@DV?$string_output_adapter@D@__crt_stdio_output@@@2@@__crt_stdio_output@@AEAA_NXZ 00000001800728e0 f i libucrtd:output.obj
 0001:00071ca0       ?type_case_a@?$output_processor@_WV?$stream_output_adapter@_W@__crt_stdio_output@@V?$format_validation_base@_WV?$stream_output_adapter@_W@__crt_stdio_output@@@2@@__crt_stdio_output@@AEAA_NXZ 0000000180072ca0 f i libucrtd:output.obj
 0001:00072070       ?type_case_a@?$output_processor@_WV?$stream_output_adapter@_W@__crt_stdio_output@@V?$positional_parameter_base@_WV?$stream_output_adapter@_W@__crt_stdio_output@@@2@@__crt_stdio_output@@AEAA_NXZ 0000000180073070 f i libucrtd:output.obj
 0001:00072440       ?type_case_a@?$output_processor@_WV?$stream_output_adapter@_W@__crt_stdio_output@@V?$standard_base@_WV?$stream_output_adapter@_W@__crt_stdio_output@@@2@@__crt_stdio_output@@AEAA_NXZ 0000000180073440 f i libucrtd:output.obj
 0001:00072810       ?type_case_a@?$output_processor@_WV?$string_output_adapter@_W@__crt_stdio_output@@V?$format_validation_base@_WV?$string_output_adapter@_W@__crt_stdio_output@@@2@@__crt_stdio_output@@AEAA_NXZ 0000000180073810 f i libucrtd:output.obj
 0001:00072be0       ?type_case_a@?$output_processor@_WV?$string_output_adapter@_W@__crt_stdio_output@@V?$positional_parameter_base@_WV?$string_output_adapter@_W@__crt_stdio_output@@@2@@__crt_stdio_output@@AEAA_NXZ 0000000180073be0 f i libucrtd:output.obj
 0001:00072fb0       ?type_case_a@?$output_processor@_WV?$string_output_adapter@_W@__crt_stdio_output@@V?$standard_base@_WV?$string_output_adapter@_W@__crt_stdio_output@@@2@@__crt_stdio_output@@AEAA_NXZ 0000000180073fb0 f i libucrtd:output.obj
 0001:00073380       ?type_case_c@?$output_processor@DV?$stream_output_adapter@D@__crt_stdio_output@@V?$format_validation_base@DV?$stream_output_adapter@D@__crt_stdio_output@@@2@@__crt_stdio_output@@AEAA_NXZ 0000000180074380 f i libucrtd:output.obj
 0001:000733a0       ?type_case_c@?$output_processor@DV?$stream_output_adapter@D@__crt_stdio_output@@V?$positional_parameter_base@DV?$stream_output_adapter@D@__crt_stdio_output@@@2@@__crt_stdio_output@@AEAA_NXZ 00000001800743a0 f i libucrtd:output.obj
 0001:000733c0       ?type_case_c@?$output_processor@DV?$stream_output_adapter@D@__crt_stdio_output@@V?$standard_base@DV?$stream_output_adapter@D@__crt_stdio_output@@@2@@__crt_stdio_output@@AEAA_NXZ 00000001800743c0 f i libucrtd:output.obj
 0001:000733e0       ?type_case_c@?$output_processor@DV?$string_output_adapter@D@__crt_stdio_output@@V?$format_validation_base@DV?$string_output_adapter@D@__crt_stdio_output@@@2@@__crt_stdio_output@@AEAA_NXZ 00000001800743e0 f i libucrtd:output.obj
 0001:00073400       ?type_case_c@?$output_processor@DV?$string_output_adapter@D@__crt_stdio_output@@V?$positional_parameter_base@DV?$string_output_adapter@D@__crt_stdio_output@@@2@@__crt_stdio_output@@AEAA_NXZ 0000000180074400 f i libucrtd:output.obj
 0001:00073420       ?type_case_c@?$output_processor@DV?$string_output_adapter@D@__crt_stdio_output@@V?$standard_base@DV?$string_output_adapter@D@__crt_stdio_output@@@2@@__crt_stdio_output@@AEAA_NXZ 0000000180074420 f i libucrtd:output.obj
 0001:00073440       ?type_case_c@?$output_processor@_WV?$stream_output_adapter@_W@__crt_stdio_output@@V?$format_validation_base@_WV?$stream_output_adapter@_W@__crt_stdio_output@@@2@@__crt_stdio_output@@AEAA_NXZ 0000000180074440 f i libucrtd:output.obj
 0001:00073460       ?type_case_c@?$output_processor@_WV?$stream_output_adapter@_W@__crt_stdio_output@@V?$positional_parameter_base@_WV?$stream_output_adapter@_W@__crt_stdio_output@@@2@@__crt_stdio_output@@AEAA_NXZ 0000000180074460 f i libucrtd:output.obj
 0001:00073480       ?type_case_c@?$output_processor@_WV?$stream_output_adapter@_W@__crt_stdio_output@@V?$standard_base@_WV?$stream_output_adapter@_W@__crt_stdio_output@@@2@@__crt_stdio_output@@AEAA_NXZ 0000000180074480 f i libucrtd:output.obj
 0001:000734a0       ?type_case_c@?$output_processor@_WV?$string_output_adapter@_W@__crt_stdio_output@@V?$format_validation_base@_WV?$string_output_adapter@_W@__crt_stdio_output@@@2@@__crt_stdio_output@@AEAA_NXZ 00000001800744a0 f i libucrtd:output.obj
 0001:000734c0       ?type_case_c@?$output_processor@_WV?$string_output_adapter@_W@__crt_stdio_output@@V?$positional_parameter_base@_WV?$string_output_adapter@_W@__crt_stdio_output@@@2@@__crt_stdio_output@@AEAA_NXZ 00000001800744c0 f i libucrtd:output.obj
 0001:000734e0       ?type_case_c@?$output_processor@_WV?$string_output_adapter@_W@__crt_stdio_output@@V?$standard_base@_WV?$string_output_adapter@_W@__crt_stdio_output@@@2@@__crt_stdio_output@@AEAA_NXZ 00000001800744e0 f i libucrtd:output.obj
 0001:00073500       ?type_case_c_tchar@?$output_processor@DV?$stream_output_adapter@D@__crt_stdio_output@@V?$format_validation_base@DV?$stream_output_adapter@D@__crt_stdio_output@@@2@@__crt_stdio_output@@AEAA_ND@Z 0000000180074500 f i libucrtd:output.obj
 0001:00073650       ?type_case_c_tchar@?$output_processor@DV?$stream_output_adapter@D@__crt_stdio_output@@V?$positional_parameter_base@DV?$stream_output_adapter@D@__crt_stdio_output@@@2@@__crt_stdio_output@@AEAA_ND@Z 0000000180074650 f i libucrtd:output.obj
 0001:000737a0       ?type_case_c_tchar@?$output_processor@DV?$stream_output_adapter@D@__crt_stdio_output@@V?$standard_base@DV?$stream_output_adapter@D@__crt_stdio_output@@@2@@__crt_stdio_output@@AEAA_ND@Z 00000001800747a0 f i libucrtd:output.obj
 0001:000738f0       ?type_case_c_tchar@?$output_processor@DV?$string_output_adapter@D@__crt_stdio_output@@V?$format_validation_base@DV?$string_output_adapter@D@__crt_stdio_output@@@2@@__crt_stdio_output@@AEAA_ND@Z 00000001800748f0 f i libucrtd:output.obj
 0001:00073a40       ?type_case_c_tchar@?$output_processor@DV?$string_output_adapter@D@__crt_stdio_output@@V?$positional_parameter_base@DV?$string_output_adapter@D@__crt_stdio_output@@@2@@__crt_stdio_output@@AEAA_ND@Z 0000000180074a40 f i libucrtd:output.obj
 0001:00073b90       ?type_case_c_tchar@?$output_processor@DV?$string_output_adapter@D@__crt_stdio_output@@V?$standard_base@DV?$string_output_adapter@D@__crt_stdio_output@@@2@@__crt_stdio_output@@AEAA_ND@Z 0000000180074b90 f i libucrtd:output.obj
 0001:00073ce0       ?type_case_c_tchar@?$output_processor@_WV?$stream_output_adapter@_W@__crt_stdio_output@@V?$format_validation_base@_WV?$stream_output_adapter@_W@__crt_stdio_output@@@2@@__crt_stdio_output@@AEAA_N_W@Z 0000000180074ce0 f i libucrtd:output.obj
 0001:00073e10       ?type_case_c_tchar@?$output_processor@_WV?$stream_output_adapter@_W@__crt_stdio_output@@V?$positional_parameter_base@_WV?$stream_output_adapter@_W@__crt_stdio_output@@@2@@__crt_stdio_output@@AEAA_N_W@Z 0000000180074e10 f i libucrtd:output.obj
 0001:00073f40       ?type_case_c_tchar@?$output_processor@_WV?$stream_output_adapter@_W@__crt_stdio_output@@V?$standard_base@_WV?$stream_output_adapter@_W@__crt_stdio_output@@@2@@__crt_stdio_output@@AEAA_N_W@Z 0000000180074f40 f i libucrtd:output.obj
 0001:00074070       ?type_case_c_tchar@?$output_processor@_WV?$string_output_adapter@_W@__crt_stdio_output@@V?$format_validation_base@_WV?$string_output_adapter@_W@__crt_stdio_output@@@2@@__crt_stdio_output@@AEAA_N_W@Z 0000000180075070 f i libucrtd:output.obj
 0001:000741a0       ?type_case_c_tchar@?$output_processor@_WV?$string_output_adapter@_W@__crt_stdio_output@@V?$positional_parameter_base@_WV?$string_output_adapter@_W@__crt_stdio_output@@@2@@__crt_stdio_output@@AEAA_N_W@Z 00000001800751a0 f i libucrtd:output.obj
 0001:000742d0       ?type_case_c_tchar@?$output_processor@_WV?$string_output_adapter@_W@__crt_stdio_output@@V?$standard_base@_WV?$string_output_adapter@_W@__crt_stdio_output@@@2@@__crt_stdio_output@@AEAA_N_W@Z 00000001800752d0 f i libucrtd:output.obj
 0001:00074400       ?type_case_d@?$output_processor@DV?$stream_output_adapter@D@__crt_stdio_output@@V?$format_validation_base@DV?$stream_output_adapter@D@__crt_stdio_output@@@2@@__crt_stdio_output@@AEAA_NXZ 0000000180075400 f i libucrtd:output.obj
 0001:00074430       ?type_case_d@?$output_processor@DV?$stream_output_adapter@D@__crt_stdio_output@@V?$positional_parameter_base@DV?$stream_output_adapter@D@__crt_stdio_output@@@2@@__crt_stdio_output@@AEAA_NXZ 0000000180075430 f i libucrtd:output.obj
 0001:00074460       ?type_case_d@?$output_processor@DV?$stream_output_adapter@D@__crt_stdio_output@@V?$standard_base@DV?$stream_output_adapter@D@__crt_stdio_output@@@2@@__crt_stdio_output@@AEAA_NXZ 0000000180075460 f i libucrtd:output.obj
 0001:00074490       ?type_case_d@?$output_processor@DV?$string_output_adapter@D@__crt_stdio_output@@V?$format_validation_base@DV?$string_output_adapter@D@__crt_stdio_output@@@2@@__crt_stdio_output@@AEAA_NXZ 0000000180075490 f i libucrtd:output.obj
 0001:000744c0       ?type_case_d@?$output_processor@DV?$string_output_adapter@D@__crt_stdio_output@@V?$positional_parameter_base@DV?$string_output_adapter@D@__crt_stdio_output@@@2@@__crt_stdio_output@@AEAA_NXZ 00000001800754c0 f i libucrtd:output.obj
 0001:000744f0       ?type_case_d@?$output_processor@DV?$string_output_adapter@D@__crt_stdio_output@@V?$standard_base@DV?$string_output_adapter@D@__crt_stdio_output@@@2@@__crt_stdio_output@@AEAA_NXZ 00000001800754f0 f i libucrtd:output.obj
 0001:00074520       ?type_case_d@?$output_processor@_WV?$stream_output_adapter@_W@__crt_stdio_output@@V?$format_validation_base@_WV?$stream_output_adapter@_W@__crt_stdio_output@@@2@@__crt_stdio_output@@AEAA_NXZ 0000000180075520 f i libucrtd:output.obj
 0001:00074550       ?type_case_d@?$output_processor@_WV?$stream_output_adapter@_W@__crt_stdio_output@@V?$positional_parameter_base@_WV?$stream_output_adapter@_W@__crt_stdio_output@@@2@@__crt_stdio_output@@AEAA_NXZ 0000000180075550 f i libucrtd:output.obj
 0001:00074580       ?type_case_d@?$output_processor@_WV?$stream_output_adapter@_W@__crt_stdio_output@@V?$standard_base@_WV?$stream_output_adapter@_W@__crt_stdio_output@@@2@@__crt_stdio_output@@AEAA_NXZ 0000000180075580 f i libucrtd:output.obj
 0001:000745b0       ?type_case_d@?$output_processor@_WV?$string_output_adapter@_W@__crt_stdio_output@@V?$format_validation_base@_WV?$string_output_adapter@_W@__crt_stdio_output@@@2@@__crt_stdio_output@@AEAA_NXZ 00000001800755b0 f i libucrtd:output.obj
 0001:000745e0       ?type_case_d@?$output_processor@_WV?$string_output_adapter@_W@__crt_stdio_output@@V?$positional_parameter_base@_WV?$string_output_adapter@_W@__crt_stdio_output@@@2@@__crt_stdio_output@@AEAA_NXZ 00000001800755e0 f i libucrtd:output.obj
 0001:00074610       ?type_case_d@?$output_processor@_WV?$string_output_adapter@_W@__crt_stdio_output@@V?$standard_base@_WV?$string_output_adapter@_W@__crt_stdio_output@@@2@@__crt_stdio_output@@AEAA_NXZ 0000000180075610 f i libucrtd:output.obj
 0001:00074640       ?type_case_integer@?$output_processor@DV?$stream_output_adapter@D@__crt_stdio_output@@V?$format_validation_base@DV?$stream_output_adapter@D@__crt_stdio_output@@@2@@__crt_stdio_output@@AEAA_NI_N@Z 0000000180075640 f i libucrtd:output.obj
 0001:00074a90       ?type_case_integer@?$output_processor@DV?$stream_output_adapter@D@__crt_stdio_output@@V?$positional_parameter_base@DV?$stream_output_adapter@D@__crt_stdio_output@@@2@@__crt_stdio_output@@AEAA_NI_N@Z 0000000180075a90 f i libucrtd:output.obj
 0001:00074ee0       ?type_case_integer@?$output_processor@DV?$stream_output_adapter@D@__crt_stdio_output@@V?$standard_base@DV?$stream_output_adapter@D@__crt_stdio_output@@@2@@__crt_stdio_output@@AEAA_NI_N@Z 0000000180075ee0 f i libucrtd:output.obj
 0001:00075330       ?type_case_integer@?$output_processor@DV?$string_output_adapter@D@__crt_stdio_output@@V?$format_validation_base@DV?$string_output_adapter@D@__crt_stdio_output@@@2@@__crt_stdio_output@@AEAA_NI_N@Z 0000000180076330 f i libucrtd:output.obj
 0001:00075780       ?type_case_integer@?$output_processor@DV?$string_output_adapter@D@__crt_stdio_output@@V?$positional_parameter_base@DV?$string_output_adapter@D@__crt_stdio_output@@@2@@__crt_stdio_output@@AEAA_NI_N@Z 0000000180076780 f i libucrtd:output.obj
 0001:00075bd0       ?type_case_integer@?$output_processor@DV?$string_output_adapter@D@__crt_stdio_output@@V?$standard_base@DV?$string_output_adapter@D@__crt_stdio_output@@@2@@__crt_stdio_output@@AEAA_NI_N@Z 0000000180076bd0 f i libucrtd:output.obj
 0001:00076020       ?type_case_integer@?$output_processor@_WV?$stream_output_adapter@_W@__crt_stdio_output@@V?$format_validation_base@_WV?$stream_output_adapter@_W@__crt_stdio_output@@@2@@__crt_stdio_output@@AEAA_NI_N@Z 0000000180077020 f i libucrtd:output.obj
 0001:00076470       ?type_case_integer@?$output_processor@_WV?$stream_output_adapter@_W@__crt_stdio_output@@V?$positional_parameter_base@_WV?$stream_output_adapter@_W@__crt_stdio_output@@@2@@__crt_stdio_output@@AEAA_NI_N@Z 0000000180077470 f i libucrtd:output.obj
 0001:000768c0       ?type_case_integer@?$output_processor@_WV?$stream_output_adapter@_W@__crt_stdio_output@@V?$standard_base@_WV?$stream_output_adapter@_W@__crt_stdio_output@@@2@@__crt_stdio_output@@AEAA_NI_N@Z 00000001800778c0 f i libucrtd:output.obj
 0001:00076d10       ?type_case_integer@?$output_processor@_WV?$string_output_adapter@_W@__crt_stdio_output@@V?$format_validation_base@_WV?$string_output_adapter@_W@__crt_stdio_output@@@2@@__crt_stdio_output@@AEAA_NI_N@Z 0000000180077d10 f i libucrtd:output.obj
 0001:00077160       ?type_case_integer@?$output_processor@_WV?$string_output_adapter@_W@__crt_stdio_output@@V?$positional_parameter_base@_WV?$string_output_adapter@_W@__crt_stdio_output@@@2@@__crt_stdio_output@@AEAA_NI_N@Z 0000000180078160 f i libucrtd:output.obj
 0001:000775b0       ?type_case_integer@?$output_processor@_WV?$string_output_adapter@_W@__crt_stdio_output@@V?$standard_base@_WV?$string_output_adapter@_W@__crt_stdio_output@@@2@@__crt_stdio_output@@AEAA_NI_N@Z 00000001800785b0 f i libucrtd:output.obj
 0001:00077a00       ?type_case_n@?$output_processor@DV?$stream_output_adapter@D@__crt_stdio_output@@V?$format_validation_base@DV?$stream_output_adapter@D@__crt_stdio_output@@@2@@__crt_stdio_output@@AEAA_NXZ 0000000180078a00 f i libucrtd:output.obj
 0001:00077c40       ?type_case_n@?$output_processor@DV?$stream_output_adapter@D@__crt_stdio_output@@V?$positional_parameter_base@DV?$stream_output_adapter@D@__crt_stdio_output@@@2@@__crt_stdio_output@@AEAA_NXZ 0000000180078c40 f i libucrtd:output.obj
 0001:00077e80       ?type_case_n@?$output_processor@DV?$stream_output_adapter@D@__crt_stdio_output@@V?$standard_base@DV?$stream_output_adapter@D@__crt_stdio_output@@@2@@__crt_stdio_output@@AEAA_NXZ 0000000180078e80 f i libucrtd:output.obj
 0001:000780c0       ?type_case_n@?$output_processor@DV?$string_output_adapter@D@__crt_stdio_output@@V?$format_validation_base@DV?$string_output_adapter@D@__crt_stdio_output@@@2@@__crt_stdio_output@@AEAA_NXZ 00000001800790c0 f i libucrtd:output.obj
 0001:00078300       ?type_case_n@?$output_processor@DV?$string_output_adapter@D@__crt_stdio_output@@V?$positional_parameter_base@DV?$string_output_adapter@D@__crt_stdio_output@@@2@@__crt_stdio_output@@AEAA_NXZ 0000000180079300 f i libucrtd:output.obj
 0001:00078540       ?type_case_n@?$output_processor@DV?$string_output_adapter@D@__crt_stdio_output@@V?$standard_base@DV?$string_output_adapter@D@__crt_stdio_output@@@2@@__crt_stdio_output@@AEAA_NXZ 0000000180079540 f i libucrtd:output.obj
 0001:00078780       ?type_case_n@?$output_processor@_WV?$stream_output_adapter@_W@__crt_stdio_output@@V?$format_validation_base@_WV?$stream_output_adapter@_W@__crt_stdio_output@@@2@@__crt_stdio_output@@AEAA_NXZ 0000000180079780 f i libucrtd:output.obj
 0001:000789c0       ?type_case_n@?$output_processor@_WV?$stream_output_adapter@_W@__crt_stdio_output@@V?$positional_parameter_base@_WV?$stream_output_adapter@_W@__crt_stdio_output@@@2@@__crt_stdio_output@@AEAA_NXZ 00000001800799c0 f i libucrtd:output.obj
 0001:00078c00       ?type_case_n@?$output_processor@_WV?$stream_output_adapter@_W@__crt_stdio_output@@V?$standard_base@_WV?$stream_output_adapter@_W@__crt_stdio_output@@@2@@__crt_stdio_output@@AEAA_NXZ 0000000180079c00 f i libucrtd:output.obj
 0001:00078e40       ?type_case_n@?$output_processor@_WV?$string_output_adapter@_W@__crt_stdio_output@@V?$format_validation_base@_WV?$string_output_adapter@_W@__crt_stdio_output@@@2@@__crt_stdio_output@@AEAA_NXZ 0000000180079e40 f i libucrtd:output.obj
 0001:00079080       ?type_case_n@?$output_processor@_WV?$string_output_adapter@_W@__crt_stdio_output@@V?$positional_parameter_base@_WV?$string_output_adapter@_W@__crt_stdio_output@@@2@@__crt_stdio_output@@AEAA_NXZ 000000018007a080 f i libucrtd:output.obj
 0001:000792c0       ?type_case_n@?$output_processor@_WV?$string_output_adapter@_W@__crt_stdio_output@@V?$standard_base@_WV?$string_output_adapter@_W@__crt_stdio_output@@@2@@__crt_stdio_output@@AEAA_NXZ 000000018007a2c0 f i libucrtd:output.obj
 0001:00079500       ?type_case_o@?$output_processor@DV?$stream_output_adapter@D@__crt_stdio_output@@V?$format_validation_base@DV?$stream_output_adapter@D@__crt_stdio_output@@@2@@__crt_stdio_output@@AEAA_NXZ 000000018007a500 f i libucrtd:output.obj
 0001:00079550       ?type_case_o@?$output_processor@DV?$stream_output_adapter@D@__crt_stdio_output@@V?$positional_parameter_base@DV?$stream_output_adapter@D@__crt_stdio_output@@@2@@__crt_stdio_output@@AEAA_NXZ 000000018007a550 f i libucrtd:output.obj
 0001:000795a0       ?type_case_o@?$output_processor@DV?$stream_output_adapter@D@__crt_stdio_output@@V?$standard_base@DV?$stream_output_adapter@D@__crt_stdio_output@@@2@@__crt_stdio_output@@AEAA_NXZ 000000018007a5a0 f i libucrtd:output.obj
 0001:000795f0       ?type_case_o@?$output_processor@DV?$string_output_adapter@D@__crt_stdio_output@@V?$format_validation_base@DV?$string_output_adapter@D@__crt_stdio_output@@@2@@__crt_stdio_output@@AEAA_NXZ 000000018007a5f0 f i libucrtd:output.obj
 0001:00079640       ?type_case_o@?$output_processor@DV?$string_output_adapter@D@__crt_stdio_output@@V?$positional_parameter_base@DV?$string_output_adapter@D@__crt_stdio_output@@@2@@__crt_stdio_output@@AEAA_NXZ 000000018007a640 f i libucrtd:output.obj
 0001:00079690       ?type_case_o@?$output_processor@DV?$string_output_adapter@D@__crt_stdio_output@@V?$standard_base@DV?$string_output_adapter@D@__crt_stdio_output@@@2@@__crt_stdio_output@@AEAA_NXZ 000000018007a690 f i libucrtd:output.obj
 0001:000796e0       ?type_case_o@?$output_processor@_WV?$stream_output_adapter@_W@__crt_stdio_output@@V?$format_validation_base@_WV?$stream_output_adapter@_W@__crt_stdio_output@@@2@@__crt_stdio_output@@AEAA_NXZ 000000018007a6e0 f i libucrtd:output.obj
 0001:00079730       ?type_case_o@?$output_processor@_WV?$stream_output_adapter@_W@__crt_stdio_output@@V?$positional_parameter_base@_WV?$stream_output_adapter@_W@__crt_stdio_output@@@2@@__crt_stdio_output@@AEAA_NXZ 000000018007a730 f i libucrtd:output.obj
 0001:00079780       ?type_case_o@?$output_processor@_WV?$stream_output_adapter@_W@__crt_stdio_output@@V?$standard_base@_WV?$stream_output_adapter@_W@__crt_stdio_output@@@2@@__crt_stdio_output@@AEAA_NXZ 000000018007a780 f i libucrtd:output.obj
 0001:000797d0       ?type_case_o@?$output_processor@_WV?$string_output_adapter@_W@__crt_stdio_output@@V?$format_validation_base@_WV?$string_output_adapter@_W@__crt_stdio_output@@@2@@__crt_stdio_output@@AEAA_NXZ 000000018007a7d0 f i libucrtd:output.obj
 0001:00079820       ?type_case_o@?$output_processor@_WV?$string_output_adapter@_W@__crt_stdio_output@@V?$positional_parameter_base@_WV?$string_output_adapter@_W@__crt_stdio_output@@@2@@__crt_stdio_output@@AEAA_NXZ 000000018007a820 f i libucrtd:output.obj
 0001:00079870       ?type_case_o@?$output_processor@_WV?$string_output_adapter@_W@__crt_stdio_output@@V?$standard_base@_WV?$string_output_adapter@_W@__crt_stdio_output@@@2@@__crt_stdio_output@@AEAA_NXZ 000000018007a870 f i libucrtd:output.obj
 0001:000798c0       ?type_case_p@?$output_processor@DV?$stream_output_adapter@D@__crt_stdio_output@@V?$format_validation_base@DV?$stream_output_adapter@D@__crt_stdio_output@@@2@@__crt_stdio_output@@AEAA_NXZ 000000018007a8c0 f i libucrtd:output.obj
 0001:00079900       ?type_case_p@?$output_processor@DV?$stream_output_adapter@D@__crt_stdio_output@@V?$positional_parameter_base@DV?$stream_output_adapter@D@__crt_stdio_output@@@2@@__crt_stdio_output@@AEAA_NXZ 000000018007a900 f i libucrtd:output.obj
 0001:00079940       ?type_case_p@?$output_processor@DV?$stream_output_adapter@D@__crt_stdio_output@@V?$standard_base@DV?$stream_output_adapter@D@__crt_stdio_output@@@2@@__crt_stdio_output@@AEAA_NXZ 000000018007a940 f i libucrtd:output.obj
 0001:00079980       ?type_case_p@?$output_processor@DV?$string_output_adapter@D@__crt_stdio_output@@V?$format_validation_base@DV?$string_output_adapter@D@__crt_stdio_output@@@2@@__crt_stdio_output@@AEAA_NXZ 000000018007a980 f i libucrtd:output.obj
 0001:000799c0       ?type_case_p@?$output_processor@DV?$string_output_adapter@D@__crt_stdio_output@@V?$positional_parameter_base@DV?$string_output_adapter@D@__crt_stdio_output@@@2@@__crt_stdio_output@@AEAA_NXZ 000000018007a9c0 f i libucrtd:output.obj
 0001:00079a00       ?type_case_p@?$output_processor@DV?$string_output_adapter@D@__crt_stdio_output@@V?$standard_base@DV?$string_output_adapter@D@__crt_stdio_output@@@2@@__crt_stdio_output@@AEAA_NXZ 000000018007aa00 f i libucrtd:output.obj
 0001:00079a40       ?type_case_p@?$output_processor@_WV?$stream_output_adapter@_W@__crt_stdio_output@@V?$format_validation_base@_WV?$stream_output_adapter@_W@__crt_stdio_output@@@2@@__crt_stdio_output@@AEAA_NXZ 000000018007aa40 f i libucrtd:output.obj
 0001:00079a80       ?type_case_p@?$output_processor@_WV?$stream_output_adapter@_W@__crt_stdio_output@@V?$positional_parameter_base@_WV?$stream_output_adapter@_W@__crt_stdio_output@@@2@@__crt_stdio_output@@AEAA_NXZ 000000018007aa80 f i libucrtd:output.obj
 0001:00079ac0       ?type_case_p@?$output_processor@_WV?$stream_output_adapter@_W@__crt_stdio_output@@V?$standard_base@_WV?$stream_output_adapter@_W@__crt_stdio_output@@@2@@__crt_stdio_output@@AEAA_NXZ 000000018007aac0 f i libucrtd:output.obj
 0001:00079b00       ?type_case_p@?$output_processor@_WV?$string_output_adapter@_W@__crt_stdio_output@@V?$format_validation_base@_WV?$string_output_adapter@_W@__crt_stdio_output@@@2@@__crt_stdio_output@@AEAA_NXZ 000000018007ab00 f i libucrtd:output.obj
 0001:00079b40       ?type_case_p@?$output_processor@_WV?$string_output_adapter@_W@__crt_stdio_output@@V?$positional_parameter_base@_WV?$string_output_adapter@_W@__crt_stdio_output@@@2@@__crt_stdio_output@@AEAA_NXZ 000000018007ab40 f i libucrtd:output.obj
 0001:00079b80       ?type_case_p@?$output_processor@_WV?$string_output_adapter@_W@__crt_stdio_output@@V?$standard_base@_WV?$string_output_adapter@_W@__crt_stdio_output@@@2@@__crt_stdio_output@@AEAA_NXZ 000000018007ab80 f i libucrtd:output.obj
 0001:00079bc0       ?type_case_s@?$output_processor@DV?$stream_output_adapter@D@__crt_stdio_output@@V?$format_validation_base@DV?$stream_output_adapter@D@__crt_stdio_output@@@2@@__crt_stdio_output@@AEAA_NXZ 000000018007abc0 f i libucrtd:output.obj
 0001:00079ce0       ?type_case_s@?$output_processor@DV?$stream_output_adapter@D@__crt_stdio_output@@V?$positional_parameter_base@DV?$stream_output_adapter@D@__crt_stdio_output@@@2@@__crt_stdio_output@@AEAA_NXZ 000000018007ace0 f i libucrtd:output.obj
 0001:00079e00       ?type_case_s@?$output_processor@DV?$stream_output_adapter@D@__crt_stdio_output@@V?$standard_base@DV?$stream_output_adapter@D@__crt_stdio_output@@@2@@__crt_stdio_output@@AEAA_NXZ 000000018007ae00 f i libucrtd:output.obj
 0001:00079f20       ?type_case_s@?$output_processor@DV?$string_output_adapter@D@__crt_stdio_output@@V?$format_validation_base@DV?$string_output_adapter@D@__crt_stdio_output@@@2@@__crt_stdio_output@@AEAA_NXZ 000000018007af20 f i libucrtd:output.obj
 0001:0007a040       ?type_case_s@?$output_processor@DV?$string_output_adapter@D@__crt_stdio_output@@V?$positional_parameter_base@DV?$string_output_adapter@D@__crt_stdio_output@@@2@@__crt_stdio_output@@AEAA_NXZ 000000018007b040 f i libucrtd:output.obj
 0001:0007a160       ?type_case_s@?$output_processor@DV?$string_output_adapter@D@__crt_stdio_output@@V?$standard_base@DV?$string_output_adapter@D@__crt_stdio_output@@@2@@__crt_stdio_output@@AEAA_NXZ 000000018007b160 f i libucrtd:output.obj
 0001:0007a280       ?type_case_s@?$output_processor@_WV?$stream_output_adapter@_W@__crt_stdio_output@@V?$format_validation_base@_WV?$stream_output_adapter@_W@__crt_stdio_output@@@2@@__crt_stdio_output@@AEAA_NXZ 000000018007b280 f i libucrtd:output.obj
 0001:0007a3a0       ?type_case_s@?$output_processor@_WV?$stream_output_adapter@_W@__crt_stdio_output@@V?$positional_parameter_base@_WV?$stream_output_adapter@_W@__crt_stdio_output@@@2@@__crt_stdio_output@@AEAA_NXZ 000000018007b3a0 f i libucrtd:output.obj
 0001:0007a4c0       ?type_case_s@?$output_processor@_WV?$stream_output_adapter@_W@__crt_stdio_output@@V?$standard_base@_WV?$stream_output_adapter@_W@__crt_stdio_output@@@2@@__crt_stdio_output@@AEAA_NXZ 000000018007b4c0 f i libucrtd:output.obj
 0001:0007a5e0       ?type_case_s@?$output_processor@_WV?$string_output_adapter@_W@__crt_stdio_output@@V?$format_validation_base@_WV?$string_output_adapter@_W@__crt_stdio_output@@@2@@__crt_stdio_output@@AEAA_NXZ 000000018007b5e0 f i libucrtd:output.obj
 0001:0007a700       ?type_case_s@?$output_processor@_WV?$string_output_adapter@_W@__crt_stdio_output@@V?$positional_parameter_base@_WV?$string_output_adapter@_W@__crt_stdio_output@@@2@@__crt_stdio_output@@AEAA_NXZ 000000018007b700 f i libucrtd:output.obj
 0001:0007a820       ?type_case_s@?$output_processor@_WV?$string_output_adapter@_W@__crt_stdio_output@@V?$standard_base@_WV?$string_output_adapter@_W@__crt_stdio_output@@@2@@__crt_stdio_output@@AEAA_NXZ 000000018007b820 f i libucrtd:output.obj
 0001:0007a940       ?type_case_s_compute_narrow_string_length@?$output_processor@DV?$stream_output_adapter@D@__crt_stdio_output@@V?$format_validation_base@DV?$stream_output_adapter@D@__crt_stdio_output@@@2@@__crt_stdio_output@@AEBAHHD@Z 000000018007b940 f i libucrtd:output.obj
 0001:0007a970       ?type_case_s_compute_narrow_string_length@?$output_processor@DV?$stream_output_adapter@D@__crt_stdio_output@@V?$positional_parameter_base@DV?$stream_output_adapter@D@__crt_stdio_output@@@2@@__crt_stdio_output@@AEBAHHD@Z 000000018007b970 f i libucrtd:output.obj
 0001:0007a9a0       ?type_case_s_compute_narrow_string_length@?$output_processor@DV?$stream_output_adapter@D@__crt_stdio_output@@V?$standard_base@DV?$stream_output_adapter@D@__crt_stdio_output@@@2@@__crt_stdio_output@@AEBAHHD@Z 000000018007b9a0 f i libucrtd:output.obj
 0001:0007a9d0       ?type_case_s_compute_narrow_string_length@?$output_processor@DV?$string_output_adapter@D@__crt_stdio_output@@V?$format_validation_base@DV?$string_output_adapter@D@__crt_stdio_output@@@2@@__crt_stdio_output@@AEBAHHD@Z 000000018007b9d0 f i libucrtd:output.obj
 0001:0007aa00       ?type_case_s_compute_narrow_string_length@?$output_processor@DV?$string_output_adapter@D@__crt_stdio_output@@V?$positional_parameter_base@DV?$string_output_adapter@D@__crt_stdio_output@@@2@@__crt_stdio_output@@AEBAHHD@Z 000000018007ba00 f i libucrtd:output.obj
 0001:0007aa30       ?type_case_s_compute_narrow_string_length@?$output_processor@DV?$string_output_adapter@D@__crt_stdio_output@@V?$standard_base@DV?$string_output_adapter@D@__crt_stdio_output@@@2@@__crt_stdio_output@@AEBAHHD@Z 000000018007ba30 f i libucrtd:output.obj
 0001:0007aa60       ?type_case_s_compute_narrow_string_length@?$output_processor@_WV?$stream_output_adapter@_W@__crt_stdio_output@@V?$format_validation_base@_WV?$stream_output_adapter@_W@__crt_stdio_output@@@2@@__crt_stdio_output@@AEBAHH_W@Z 000000018007ba60 f i libucrtd:output.obj
 0001:0007aaf0       ?type_case_s_compute_narrow_string_length@?$output_processor@_WV?$stream_output_adapter@_W@__crt_stdio_output@@V?$positional_parameter_base@_WV?$stream_output_adapter@_W@__crt_stdio_output@@@2@@__crt_stdio_output@@AEBAHH_W@Z 000000018007baf0 f i libucrtd:output.obj
 0001:0007ab80       ?type_case_s_compute_narrow_string_length@?$output_processor@_WV?$stream_output_adapter@_W@__crt_stdio_output@@V?$standard_base@_WV?$stream_output_adapter@_W@__crt_stdio_output@@@2@@__crt_stdio_output@@AEBAHH_W@Z 000000018007bb80 f i libucrtd:output.obj
 0001:0007ac10       ?type_case_s_compute_narrow_string_length@?$output_processor@_WV?$string_output_adapter@_W@__crt_stdio_output@@V?$format_validation_base@_WV?$string_output_adapter@_W@__crt_stdio_output@@@2@@__crt_stdio_output@@AEBAHH_W@Z 000000018007bc10 f i libucrtd:output.obj
 0001:0007aca0       ?type_case_s_compute_narrow_string_length@?$output_processor@_WV?$string_output_adapter@_W@__crt_stdio_output@@V?$positional_parameter_base@_WV?$string_output_adapter@_W@__crt_stdio_output@@@2@@__crt_stdio_output@@AEBAHH_W@Z 000000018007bca0 f i libucrtd:output.obj
 0001:0007ad30       ?type_case_s_compute_narrow_string_length@?$output_processor@_WV?$string_output_adapter@_W@__crt_stdio_output@@V?$standard_base@_WV?$string_output_adapter@_W@__crt_stdio_output@@@2@@__crt_stdio_output@@AEBAHH_W@Z 000000018007bd30 f i libucrtd:output.obj
 0001:0007adc0       ?type_case_u@?$output_processor@DV?$stream_output_adapter@D@__crt_stdio_output@@V?$format_validation_base@DV?$stream_output_adapter@D@__crt_stdio_output@@@2@@__crt_stdio_output@@AEAA_NXZ 000000018007bdc0 f i libucrtd:output.obj
 0001:0007ade0       ?type_case_u@?$output_processor@DV?$stream_output_adapter@D@__crt_stdio_output@@V?$positional_parameter_base@DV?$stream_output_adapter@D@__crt_stdio_output@@@2@@__crt_stdio_output@@AEAA_NXZ 000000018007bde0 f i libucrtd:output.obj
 0001:0007ae00       ?type_case_u@?$output_processor@DV?$stream_output_adapter@D@__crt_stdio_output@@V?$standard_base@DV?$stream_output_adapter@D@__crt_stdio_output@@@2@@__crt_stdio_output@@AEAA_NXZ 000000018007be00 f i libucrtd:output.obj
 0001:0007ae20       ?type_case_u@?$output_processor@DV?$string_output_adapter@D@__crt_stdio_output@@V?$format_validation_base@DV?$string_output_adapter@D@__crt_stdio_output@@@2@@__crt_stdio_output@@AEAA_NXZ 000000018007be20 f i libucrtd:output.obj
 0001:0007ae40       ?type_case_u@?$output_processor@DV?$string_output_adapter@D@__crt_stdio_output@@V?$positional_parameter_base@DV?$string_output_adapter@D@__crt_stdio_output@@@2@@__crt_stdio_output@@AEAA_NXZ 000000018007be40 f i libucrtd:output.obj
 0001:0007ae60       ?type_case_u@?$output_processor@DV?$string_output_adapter@D@__crt_stdio_output@@V?$standard_base@DV?$string_output_adapter@D@__crt_stdio_output@@@2@@__crt_stdio_output@@AEAA_NXZ 000000018007be60 f i libucrtd:output.obj
 0001:0007ae80       ?type_case_u@?$output_processor@_WV?$stream_output_adapter@_W@__crt_stdio_output@@V?$format_validation_base@_WV?$stream_output_adapter@_W@__crt_stdio_output@@@2@@__crt_stdio_output@@AEAA_NXZ 000000018007be80 f i libucrtd:output.obj
 0001:0007aea0       ?type_case_u@?$output_processor@_WV?$stream_output_adapter@_W@__crt_stdio_output@@V?$positional_parameter_base@_WV?$stream_output_adapter@_W@__crt_stdio_output@@@2@@__crt_stdio_output@@AEAA_NXZ 000000018007bea0 f i libucrtd:output.obj
 0001:0007aec0       ?type_case_u@?$output_processor@_WV?$stream_output_adapter@_W@__crt_stdio_output@@V?$standard_base@_WV?$stream_output_adapter@_W@__crt_stdio_output@@@2@@__crt_stdio_output@@AEAA_NXZ 000000018007bec0 f i libucrtd:output.obj
 0001:0007aee0       ?type_case_u@?$output_processor@_WV?$string_output_adapter@_W@__crt_stdio_output@@V?$format_validation_base@_WV?$string_output_adapter@_W@__crt_stdio_output@@@2@@__crt_stdio_output@@AEAA_NXZ 000000018007bee0 f i libucrtd:output.obj
 0001:0007af00       ?type_case_u@?$output_processor@_WV?$string_output_adapter@_W@__crt_stdio_output@@V?$positional_parameter_base@_WV?$string_output_adapter@_W@__crt_stdio_output@@@2@@__crt_stdio_output@@AEAA_NXZ 000000018007bf00 f i libucrtd:output.obj
 0001:0007af20       ?type_case_u@?$output_processor@_WV?$string_output_adapter@_W@__crt_stdio_output@@V?$standard_base@_WV?$string_output_adapter@_W@__crt_stdio_output@@@2@@__crt_stdio_output@@AEAA_NXZ 000000018007bf20 f i libucrtd:output.obj
 0001:0007af40       ?type_case_x@?$output_processor@DV?$stream_output_adapter@D@__crt_stdio_output@@V?$format_validation_base@DV?$stream_output_adapter@D@__crt_stdio_output@@@2@@__crt_stdio_output@@AEAA_NXZ 000000018007bf40 f i libucrtd:output.obj
 0001:0007af60       ?type_case_x@?$output_processor@DV?$stream_output_adapter@D@__crt_stdio_output@@V?$positional_parameter_base@DV?$stream_output_adapter@D@__crt_stdio_output@@@2@@__crt_stdio_output@@AEAA_NXZ 000000018007bf60 f i libucrtd:output.obj
 0001:0007af80       ?type_case_x@?$output_processor@DV?$stream_output_adapter@D@__crt_stdio_output@@V?$standard_base@DV?$stream_output_adapter@D@__crt_stdio_output@@@2@@__crt_stdio_output@@AEAA_NXZ 000000018007bf80 f i libucrtd:output.obj
 0001:0007afa0       ?type_case_x@?$output_processor@DV?$string_output_adapter@D@__crt_stdio_output@@V?$format_validation_base@DV?$string_output_adapter@D@__crt_stdio_output@@@2@@__crt_stdio_output@@AEAA_NXZ 000000018007bfa0 f i libucrtd:output.obj
 0001:0007afc0       ?type_case_x@?$output_processor@DV?$string_output_adapter@D@__crt_stdio_output@@V?$positional_parameter_base@DV?$string_output_adapter@D@__crt_stdio_output@@@2@@__crt_stdio_output@@AEAA_NXZ 000000018007bfc0 f i libucrtd:output.obj
 0001:0007afe0       ?type_case_x@?$output_processor@DV?$string_output_adapter@D@__crt_stdio_output@@V?$standard_base@DV?$string_output_adapter@D@__crt_stdio_output@@@2@@__crt_stdio_output@@AEAA_NXZ 000000018007bfe0 f i libucrtd:output.obj
 0001:0007b000       ?type_case_x@?$output_processor@_WV?$stream_output_adapter@_W@__crt_stdio_output@@V?$format_validation_base@_WV?$stream_output_adapter@_W@__crt_stdio_output@@@2@@__crt_stdio_output@@AEAA_NXZ 000000018007c000 f i libucrtd:output.obj
 0001:0007b020       ?type_case_x@?$output_processor@_WV?$stream_output_adapter@_W@__crt_stdio_output@@V?$positional_parameter_base@_WV?$stream_output_adapter@_W@__crt_stdio_output@@@2@@__crt_stdio_output@@AEAA_NXZ 000000018007c020 f i libucrtd:output.obj
 0001:0007b040       ?type_case_x@?$output_processor@_WV?$stream_output_adapter@_W@__crt_stdio_output@@V?$standard_base@_WV?$stream_output_adapter@_W@__crt_stdio_output@@@2@@__crt_stdio_output@@AEAA_NXZ 000000018007c040 f i libucrtd:output.obj
 0001:0007b060       ?type_case_x@?$output_processor@_WV?$string_output_adapter@_W@__crt_stdio_output@@V?$format_validation_base@_WV?$string_output_adapter@_W@__crt_stdio_output@@@2@@__crt_stdio_output@@AEAA_NXZ 000000018007c060 f i libucrtd:output.obj
 0001:0007b080       ?type_case_x@?$output_processor@_WV?$string_output_adapter@_W@__crt_stdio_output@@V?$positional_parameter_base@_WV?$string_output_adapter@_W@__crt_stdio_output@@@2@@__crt_stdio_output@@AEAA_NXZ 000000018007c080 f i libucrtd:output.obj
 0001:0007b0a0       ?type_case_x@?$output_processor@_WV?$string_output_adapter@_W@__crt_stdio_output@@V?$standard_base@_WV?$string_output_adapter@_W@__crt_stdio_output@@@2@@__crt_stdio_output@@AEAA_NXZ 000000018007c0a0 f i libucrtd:output.obj
 0001:0007b0c0       ?unset_flag@?$output_processor@DV?$stream_output_adapter@D@__crt_stdio_output@@V?$format_validation_base@DV?$stream_output_adapter@D@__crt_stdio_output@@@2@@__crt_stdio_output@@AEAAXI@Z 000000018007c0c0 f i libucrtd:output.obj
 0001:0007b0f0       ?unset_flag@?$output_processor@DV?$stream_output_adapter@D@__crt_stdio_output@@V?$positional_parameter_base@DV?$stream_output_adapter@D@__crt_stdio_output@@@2@@__crt_stdio_output@@AEAAXI@Z 000000018007c0f0 f i libucrtd:output.obj
 0001:0007b120       ?unset_flag@?$output_processor@DV?$stream_output_adapter@D@__crt_stdio_output@@V?$standard_base@DV?$stream_output_adapter@D@__crt_stdio_output@@@2@@__crt_stdio_output@@AEAAXI@Z 000000018007c120 f i libucrtd:output.obj
 0001:0007b150       ?unset_flag@?$output_processor@DV?$string_output_adapter@D@__crt_stdio_output@@V?$format_validation_base@DV?$string_output_adapter@D@__crt_stdio_output@@@2@@__crt_stdio_output@@AEAAXI@Z 000000018007c150 f i libucrtd:output.obj
 0001:0007b180       ?unset_flag@?$output_processor@DV?$string_output_adapter@D@__crt_stdio_output@@V?$positional_parameter_base@DV?$string_output_adapter@D@__crt_stdio_output@@@2@@__crt_stdio_output@@AEAAXI@Z 000000018007c180 f i libucrtd:output.obj
 0001:0007b1b0       ?unset_flag@?$output_processor@DV?$string_output_adapter@D@__crt_stdio_output@@V?$standard_base@DV?$string_output_adapter@D@__crt_stdio_output@@@2@@__crt_stdio_output@@AEAAXI@Z 000000018007c1b0 f i libucrtd:output.obj
 0001:0007b1e0       ?unset_flag@?$output_processor@_WV?$stream_output_adapter@_W@__crt_stdio_output@@V?$format_validation_base@_WV?$stream_output_adapter@_W@__crt_stdio_output@@@2@@__crt_stdio_output@@AEAAXI@Z 000000018007c1e0 f i libucrtd:output.obj
 0001:0007b210       ?unset_flag@?$output_processor@_WV?$stream_output_adapter@_W@__crt_stdio_output@@V?$positional_parameter_base@_WV?$stream_output_adapter@_W@__crt_stdio_output@@@2@@__crt_stdio_output@@AEAAXI@Z 000000018007c210 f i libucrtd:output.obj
 0001:0007b240       ?unset_flag@?$output_processor@_WV?$stream_output_adapter@_W@__crt_stdio_output@@V?$standard_base@_WV?$stream_output_adapter@_W@__crt_stdio_output@@@2@@__crt_stdio_output@@AEAAXI@Z 000000018007c240 f i libucrtd:output.obj
 0001:0007b270       ?unset_flag@?$output_processor@_WV?$string_output_adapter@_W@__crt_stdio_output@@V?$format_validation_base@_WV?$string_output_adapter@_W@__crt_stdio_output@@@2@@__crt_stdio_output@@AEAAXI@Z 000000018007c270 f i libucrtd:output.obj
 0001:0007b2a0       ?unset_flag@?$output_processor@_WV?$string_output_adapter@_W@__crt_stdio_output@@V?$positional_parameter_base@_WV?$string_output_adapter@_W@__crt_stdio_output@@@2@@__crt_stdio_output@@AEAAXI@Z 000000018007c2a0 f i libucrtd:output.obj
 0001:0007b2d0       ?unset_flag@?$output_processor@_WV?$string_output_adapter@_W@__crt_stdio_output@@V?$standard_base@_WV?$string_output_adapter@_W@__crt_stdio_output@@@2@@__crt_stdio_output@@AEAAXI@Z 000000018007c2d0 f i libucrtd:output.obj
 0001:0007b300       ?update_field_width@?$positional_parameter_base@DV?$stream_output_adapter@D@__crt_stdio_output@@@__crt_stdio_output@@IEAA_NXZ 000000018007c300 f i libucrtd:output.obj
 0001:0007b4f0       ?update_field_width@?$positional_parameter_base@DV?$string_output_adapter@D@__crt_stdio_output@@@__crt_stdio_output@@IEAA_NXZ 000000018007c4f0 f i libucrtd:output.obj
 0001:0007b6e0       ?update_field_width@?$positional_parameter_base@_WV?$stream_output_adapter@_W@__crt_stdio_output@@@__crt_stdio_output@@IEAA_NXZ 000000018007c6e0 f i libucrtd:output.obj
 0001:0007b8d0       ?update_field_width@?$positional_parameter_base@_WV?$string_output_adapter@_W@__crt_stdio_output@@@__crt_stdio_output@@IEAA_NXZ 000000018007c8d0 f i libucrtd:output.obj
 0001:0007bac0       ?update_field_width@?$standard_base@DV?$stream_output_adapter@D@__crt_stdio_output@@@__crt_stdio_output@@IEAA_NXZ 000000018007cac0 f i libucrtd:output.obj
 0001:0007baf0       ?update_field_width@?$standard_base@DV?$string_output_adapter@D@__crt_stdio_output@@@__crt_stdio_output@@IEAA_NXZ 000000018007caf0 f i libucrtd:output.obj
 0001:0007bb20       ?update_field_width@?$standard_base@_WV?$stream_output_adapter@_W@__crt_stdio_output@@@__crt_stdio_output@@IEAA_NXZ 000000018007cb20 f i libucrtd:output.obj
 0001:0007bb50       ?update_field_width@?$standard_base@_WV?$string_output_adapter@_W@__crt_stdio_output@@@__crt_stdio_output@@IEAA_NXZ 000000018007cb50 f i libucrtd:output.obj
 0001:0007bb80       ?update_precision@?$positional_parameter_base@DV?$stream_output_adapter@D@__crt_stdio_output@@@__crt_stdio_output@@IEAA_NXZ 000000018007cb80 f i libucrtd:output.obj
 0001:0007bd70       ?update_precision@?$positional_parameter_base@DV?$string_output_adapter@D@__crt_stdio_output@@@__crt_stdio_output@@IEAA_NXZ 000000018007cd70 f i libucrtd:output.obj
 0001:0007bf60       ?update_precision@?$positional_parameter_base@_WV?$stream_output_adapter@_W@__crt_stdio_output@@@__crt_stdio_output@@IEAA_NXZ 000000018007cf60 f i libucrtd:output.obj
 0001:0007c150       ?update_precision@?$positional_parameter_base@_WV?$string_output_adapter@_W@__crt_stdio_output@@@__crt_stdio_output@@IEAA_NXZ 000000018007d150 f i libucrtd:output.obj
 0001:0007c340       ?update_precision@?$standard_base@DV?$stream_output_adapter@D@__crt_stdio_output@@@__crt_stdio_output@@IEAA_NXZ 000000018007d340 f i libucrtd:output.obj
 0001:0007c370       ?update_precision@?$standard_base@DV?$string_output_adapter@D@__crt_stdio_output@@@__crt_stdio_output@@IEAA_NXZ 000000018007d370 f i libucrtd:output.obj
 0001:0007c3a0       ?update_precision@?$standard_base@_WV?$stream_output_adapter@_W@__crt_stdio_output@@@__crt_stdio_output@@IEAA_NXZ 000000018007d3a0 f i libucrtd:output.obj
 0001:0007c3d0       ?update_precision@?$standard_base@_WV?$string_output_adapter@_W@__crt_stdio_output@@@__crt_stdio_output@@IEAA_NXZ 000000018007d3d0 f i libucrtd:output.obj
 0001:0007c400       ?valid@__crt_stdio_stream@@QEBA_NXZ 000000018007d400 f i libucrtd:output.obj
 0001:0007c430       ?validate@?$stream_output_adapter@D@__crt_stdio_output@@QEBA_NXZ 000000018007d430 f i libucrtd:output.obj
 0001:0007c510       ?validate@?$stream_output_adapter@_W@__crt_stdio_output@@QEBA_NXZ 000000018007d510 f i libucrtd:output.obj
 0001:0007c5f0       ?validate@?$string_output_adapter@D@__crt_stdio_output@@QEBA_NXZ 000000018007d5f0 f i libucrtd:output.obj
 0001:0007c6b0       ?validate@?$string_output_adapter@_W@__crt_stdio_output@@QEBA_NXZ 000000018007d6b0 f i libucrtd:output.obj
 0001:0007c770       ?validate_and_store_parameter_data@?$positional_parameter_base@DV?$stream_output_adapter@D@__crt_stdio_output@@@__crt_stdio_output@@AEAA_NAEAUparameter_data@12@W4parameter_type@12@DW4length_modifier@2@@Z 000000018007d770 f i libucrtd:output.obj
 0001:0007c890       ?validate_and_store_parameter_data@?$positional_parameter_base@DV?$string_output_adapter@D@__crt_stdio_output@@@__crt_stdio_output@@AEAA_NAEAUparameter_data@12@W4parameter_type@12@DW4length_modifier@2@@Z 000000018007d890 f i libucrtd:output.obj
 0001:0007c9b0       ?validate_and_store_parameter_data@?$positional_parameter_base@_WV?$stream_output_adapter@_W@__crt_stdio_output@@@__crt_stdio_output@@AEAA_NAEAUparameter_data@12@W4parameter_type@12@_WW4length_modifier@2@@Z 000000018007d9b0 f i libucrtd:output.obj
 0001:0007cad0       ?validate_and_store_parameter_data@?$positional_parameter_base@_WV?$string_output_adapter@_W@__crt_stdio_output@@@__crt_stdio_output@@AEAA_NAEAUparameter_data@12@W4parameter_type@12@_WW4length_modifier@2@@Z 000000018007dad0 f i libucrtd:output.obj
 0001:0007cbf0       ?validate_and_update_state_at_beginning_of_format_character@?$positional_parameter_base@DV?$stream_output_adapter@D@__crt_stdio_output@@@__crt_stdio_output@@IEAA_NXZ 000000018007dbf0 f i libucrtd:output.obj
 0001:0007ced0       ?validate_and_update_state_at_beginning_of_format_character@?$positional_parameter_base@DV?$string_output_adapter@D@__crt_stdio_output@@@__crt_stdio_output@@IEAA_NXZ 000000018007ded0 f i libucrtd:output.obj
 0001:0007d1b0       ?validate_and_update_state_at_beginning_of_format_character@?$positional_parameter_base@_WV?$stream_output_adapter@_W@__crt_stdio_output@@@__crt_stdio_output@@IEAA_NXZ 000000018007e1b0 f i libucrtd:output.obj
 0001:0007d490       ?validate_and_update_state_at_beginning_of_format_character@?$positional_parameter_base@_WV?$string_output_adapter@_W@__crt_stdio_output@@@__crt_stdio_output@@IEAA_NXZ 000000018007e490 f i libucrtd:output.obj
 0001:0007d770       ?validate_and_update_state_at_beginning_of_format_character@?$standard_base@DV?$stream_output_adapter@D@__crt_stdio_output@@@__crt_stdio_output@@IEAA_NXZ 000000018007e770 f i libucrtd:output.obj
 0001:0007d780       ?validate_and_update_state_at_beginning_of_format_character@?$standard_base@DV?$string_output_adapter@D@__crt_stdio_output@@@__crt_stdio_output@@IEAA_NXZ 000000018007e780 f i libucrtd:output.obj
 0001:0007d790       ?validate_and_update_state_at_beginning_of_format_character@?$standard_base@_WV?$stream_output_adapter@_W@__crt_stdio_output@@@__crt_stdio_output@@IEAA_NXZ 000000018007e790 f i libucrtd:output.obj
 0001:0007d7a0       ?validate_and_update_state_at_beginning_of_format_character@?$standard_base@_WV?$string_output_adapter@_W@__crt_stdio_output@@@__crt_stdio_output@@IEAA_NXZ 000000018007e7a0 f i libucrtd:output.obj
 0001:0007d7b0       ?validate_and_update_state_at_end_of_format_string@?$format_validation_base@DV?$stream_output_adapter@D@__crt_stdio_output@@@__crt_stdio_output@@IEBA_NXZ 000000018007e7b0 f i libucrtd:output.obj
 0001:0007d870       ?validate_and_update_state_at_end_of_format_string@?$format_validation_base@DV?$string_output_adapter@D@__crt_stdio_output@@@__crt_stdio_output@@IEBA_NXZ 000000018007e870 f i libucrtd:output.obj
 0001:0007d930       ?validate_and_update_state_at_end_of_format_string@?$format_validation_base@_WV?$stream_output_adapter@_W@__crt_stdio_output@@@__crt_stdio_output@@IEBA_NXZ 000000018007e930 f i libucrtd:output.obj
 0001:0007d9f0       ?validate_and_update_state_at_end_of_format_string@?$format_validation_base@_WV?$string_output_adapter@_W@__crt_stdio_output@@@__crt_stdio_output@@IEBA_NXZ 000000018007e9f0 f i libucrtd:output.obj
 0001:0007dab0       ?validate_and_update_state_at_end_of_format_string@?$positional_parameter_base@DV?$stream_output_adapter@D@__crt_stdio_output@@@__crt_stdio_output@@IEAA_NXZ 000000018007eab0 f i libucrtd:output.obj
 0001:0007dca0       ?validate_and_update_state_at_end_of_format_string@?$positional_parameter_base@DV?$string_output_adapter@D@__crt_stdio_output@@@__crt_stdio_output@@IEAA_NXZ 000000018007eca0 f i libucrtd:output.obj
 0001:0007de90       ?validate_and_update_state_at_end_of_format_string@?$positional_parameter_base@_WV?$stream_output_adapter@_W@__crt_stdio_output@@@__crt_stdio_output@@IEAA_NXZ 000000018007ee90 f i libucrtd:output.obj
 0001:0007e080       ?validate_and_update_state_at_end_of_format_string@?$positional_parameter_base@_WV?$string_output_adapter@_W@__crt_stdio_output@@@__crt_stdio_output@@IEAA_NXZ 000000018007f080 f i libucrtd:output.obj
 0001:0007e270       ?validate_and_update_state_at_end_of_format_string@?$standard_base@DV?$stream_output_adapter@D@__crt_stdio_output@@@__crt_stdio_output@@IEBA_NXZ 000000018007f270 f i libucrtd:output.obj
 0001:0007e280       ?validate_and_update_state_at_end_of_format_string@?$standard_base@DV?$string_output_adapter@D@__crt_stdio_output@@@__crt_stdio_output@@IEBA_NXZ 000000018007f280 f i libucrtd:output.obj
 0001:0007e290       ?validate_and_update_state_at_end_of_format_string@?$standard_base@_WV?$stream_output_adapter@_W@__crt_stdio_output@@@__crt_stdio_output@@IEBA_NXZ 000000018007f290 f i libucrtd:output.obj
 0001:0007e2a0       ?validate_and_update_state_at_end_of_format_string@?$standard_base@_WV?$string_output_adapter@_W@__crt_stdio_output@@@__crt_stdio_output@@IEBA_NXZ 000000018007f2a0 f i libucrtd:output.obj
 0001:0007e2b0       ?validate_state_for_type_case_a@?$positional_parameter_base@DV?$stream_output_adapter@D@__crt_stdio_output@@@__crt_stdio_output@@IEAA_NXZ 000000018007f2b0 f i libucrtd:output.obj
 0001:0007e3f0       ?validate_state_for_type_case_a@?$positional_parameter_base@DV?$string_output_adapter@D@__crt_stdio_output@@@__crt_stdio_output@@IEAA_NXZ 000000018007f3f0 f i libucrtd:output.obj
 0001:0007e530       ?validate_state_for_type_case_a@?$positional_parameter_base@_WV?$stream_output_adapter@_W@__crt_stdio_output@@@__crt_stdio_output@@IEAA_NXZ 000000018007f530 f i libucrtd:output.obj
 0001:0007e670       ?validate_state_for_type_case_a@?$positional_parameter_base@_WV?$string_output_adapter@_W@__crt_stdio_output@@@__crt_stdio_output@@IEAA_NXZ 000000018007f670 f i libucrtd:output.obj
 0001:0007e7b0       ?validate_state_for_type_case_a@?$standard_base@DV?$stream_output_adapter@D@__crt_stdio_output@@@__crt_stdio_output@@IEBA_NXZ 000000018007f7b0 f i libucrtd:output.obj
 0001:0007e7c0       ?validate_state_for_type_case_a@?$standard_base@DV?$string_output_adapter@D@__crt_stdio_output@@@__crt_stdio_output@@IEBA_NXZ 000000018007f7c0 f i libucrtd:output.obj
 0001:0007e7d0       ?validate_state_for_type_case_a@?$standard_base@_WV?$stream_output_adapter@_W@__crt_stdio_output@@@__crt_stdio_output@@IEBA_NXZ 000000018007f7d0 f i libucrtd:output.obj
 0001:0007e7e0       ?validate_state_for_type_case_a@?$standard_base@_WV?$string_output_adapter@_W@__crt_stdio_output@@@__crt_stdio_output@@IEBA_NXZ 000000018007f7e0 f i libucrtd:output.obj
 0001:0007e7f0       ?validate_stream_is_ansi_if_required@?$__acrt_stdio_char_traits@D@@SA_NQEAU_iobuf@@@Z 000000018007f7f0 f i libucrtd:output.obj
 0001:0007e980       ?validate_stream_is_ansi_if_required@?$__acrt_stdio_char_traits@_W@@SA_NQEAU_iobuf@@@Z 000000018007f980 f i libucrtd:output.obj
 0001:0007e990       ?wide_null_string@?$output_processor@DV?$stream_output_adapter@D@__crt_stdio_output@@V?$format_validation_base@DV?$stream_output_adapter@D@__crt_stdio_output@@@2@@__crt_stdio_output@@CAPEA_WXZ 000000018007f990 f i libucrtd:output.obj
 0001:0007e9a0       ?wide_null_string@?$output_processor@DV?$stream_output_adapter@D@__crt_stdio_output@@V?$positional_parameter_base@DV?$stream_output_adapter@D@__crt_stdio_output@@@2@@__crt_stdio_output@@CAPEA_WXZ 000000018007f9a0 f i libucrtd:output.obj
 0001:0007e9b0       ?wide_null_string@?$output_processor@DV?$stream_output_adapter@D@__crt_stdio_output@@V?$standard_base@DV?$stream_output_adapter@D@__crt_stdio_output@@@2@@__crt_stdio_output@@CAPEA_WXZ 000000018007f9b0 f i libucrtd:output.obj
 0001:0007e9c0       ?wide_null_string@?$output_processor@DV?$string_output_adapter@D@__crt_stdio_output@@V?$format_validation_base@DV?$string_output_adapter@D@__crt_stdio_output@@@2@@__crt_stdio_output@@CAPEA_WXZ 000000018007f9c0 f i libucrtd:output.obj
 0001:0007e9d0       ?wide_null_string@?$output_processor@DV?$string_output_adapter@D@__crt_stdio_output@@V?$positional_parameter_base@DV?$string_output_adapter@D@__crt_stdio_output@@@2@@__crt_stdio_output@@CAPEA_WXZ 000000018007f9d0 f i libucrtd:output.obj
 0001:0007e9e0       ?wide_null_string@?$output_processor@DV?$string_output_adapter@D@__crt_stdio_output@@V?$standard_base@DV?$string_output_adapter@D@__crt_stdio_output@@@2@@__crt_stdio_output@@CAPEA_WXZ 000000018007f9e0 f i libucrtd:output.obj
 0001:0007e9f0       ?wide_null_string@?$output_processor@_WV?$stream_output_adapter@_W@__crt_stdio_output@@V?$format_validation_base@_WV?$stream_output_adapter@_W@__crt_stdio_output@@@2@@__crt_stdio_output@@CAPEA_WXZ 000000018007f9f0 f i libucrtd:output.obj
 0001:0007ea00       ?wide_null_string@?$output_processor@_WV?$stream_output_adapter@_W@__crt_stdio_output@@V?$positional_parameter_base@_WV?$stream_output_adapter@_W@__crt_stdio_output@@@2@@__crt_stdio_output@@CAPEA_WXZ 000000018007fa00 f i libucrtd:output.obj
 0001:0007ea10       ?wide_null_string@?$output_processor@_WV?$stream_output_adapter@_W@__crt_stdio_output@@V?$standard_base@_WV?$stream_output_adapter@_W@__crt_stdio_output@@@2@@__crt_stdio_output@@CAPEA_WXZ 000000018007fa10 f i libucrtd:output.obj
 0001:0007ea20       ?wide_null_string@?$output_processor@_WV?$string_output_adapter@_W@__crt_stdio_output@@V?$format_validation_base@_WV?$string_output_adapter@_W@__crt_stdio_output@@@2@@__crt_stdio_output@@CAPEA_WXZ 000000018007fa20 f i libucrtd:output.obj
 0001:0007ea30       ?wide_null_string@?$output_processor@_WV?$string_output_adapter@_W@__crt_stdio_output@@V?$positional_parameter_base@_WV?$string_output_adapter@_W@__crt_stdio_output@@@2@@__crt_stdio_output@@CAPEA_WXZ 000000018007fa30 f i libucrtd:output.obj
 0001:0007ea40       ?wide_null_string@?$output_processor@_WV?$string_output_adapter@_W@__crt_stdio_output@@V?$standard_base@_WV?$string_output_adapter@_W@__crt_stdio_output@@@2@@__crt_stdio_output@@CAPEA_WXZ 000000018007fa40 f i libucrtd:output.obj
 0001:0007ea50       ?write_character@?$output_adapter_common@DV?$stream_output_adapter@D@__crt_stdio_output@@@__crt_stdio_output@@QEBAXDQEAH@Z 000000018007fa50 f i libucrtd:output.obj
 0001:0007eaa0       ?write_character@?$output_adapter_common@_WV?$stream_output_adapter@_W@__crt_stdio_output@@@__crt_stdio_output@@QEBAX_WQEAH@Z 000000018007faa0 f i libucrtd:output.obj
 0001:0007eaf0       ?write_character@?$string_output_adapter@D@__crt_stdio_output@@QEBA_NDQEAH@Z 000000018007faf0 f i libucrtd:output.obj
 0001:0007ebb0       ?write_character@?$string_output_adapter@_W@__crt_stdio_output@@QEBA_N_WQEAH@Z 000000018007fbb0 f i libucrtd:output.obj
 0001:0007ec70       ?write_character_without_count_update@?$stream_output_adapter@D@__crt_stdio_output@@QEBA_ND@Z 000000018007fc70 f i libucrtd:output.obj
 0001:0007ecf0       ?write_character_without_count_update@?$stream_output_adapter@_W@__crt_stdio_output@@QEBA_N_W@Z 000000018007fcf0 f i libucrtd:output.obj
 0001:0007ed80       ?write_stored_string_tchar@?$output_processor@DV?$stream_output_adapter@D@__crt_stdio_output@@V?$format_validation_base@DV?$stream_output_adapter@D@__crt_stdio_output@@@2@@__crt_stdio_output@@AEAA_ND@Z 000000018007fd80 f i libucrtd:output.obj
 0001:0007ef30       ?write_stored_string_tchar@?$output_processor@DV?$stream_output_adapter@D@__crt_stdio_output@@V?$positional_parameter_base@DV?$stream_output_adapter@D@__crt_stdio_output@@@2@@__crt_stdio_output@@AEAA_ND@Z 000000018007ff30 f i libucrtd:output.obj
 0001:0007f0e0       ?write_stored_string_tchar@?$output_processor@DV?$stream_output_adapter@D@__crt_stdio_output@@V?$standard_base@DV?$stream_output_adapter@D@__crt_stdio_output@@@2@@__crt_stdio_output@@AEAA_ND@Z 00000001800800e0 f i libucrtd:output.obj
 0001:0007f290       ?write_stored_string_tchar@?$output_processor@DV?$string_output_adapter@D@__crt_stdio_output@@V?$format_validation_base@DV?$string_output_adapter@D@__crt_stdio_output@@@2@@__crt_stdio_output@@AEAA_ND@Z 0000000180080290 f i libucrtd:output.obj
 0001:0007f440       ?write_stored_string_tchar@?$output_processor@DV?$string_output_adapter@D@__crt_stdio_output@@V?$positional_parameter_base@DV?$string_output_adapter@D@__crt_stdio_output@@@2@@__crt_stdio_output@@AEAA_ND@Z 0000000180080440 f i libucrtd:output.obj
 0001:0007f5f0       ?write_stored_string_tchar@?$output_processor@DV?$string_output_adapter@D@__crt_stdio_output@@V?$standard_base@DV?$string_output_adapter@D@__crt_stdio_output@@@2@@__crt_stdio_output@@AEAA_ND@Z 00000001800805f0 f i libucrtd:output.obj
 0001:0007f7a0       ?write_stored_string_tchar@?$output_processor@_WV?$stream_output_adapter@_W@__crt_stdio_output@@V?$format_validation_base@_WV?$stream_output_adapter@_W@__crt_stdio_output@@@2@@__crt_stdio_output@@AEAA_N_W@Z 00000001800807a0 f i libucrtd:output.obj
 0001:0007f8f0       ?write_stored_string_tchar@?$output_processor@_WV?$stream_output_adapter@_W@__crt_stdio_output@@V?$positional_parameter_base@_WV?$stream_output_adapter@_W@__crt_stdio_output@@@2@@__crt_stdio_output@@AEAA_N_W@Z 00000001800808f0 f i libucrtd:output.obj
 0001:0007fa40       ?write_stored_string_tchar@?$output_processor@_WV?$stream_output_adapter@_W@__crt_stdio_output@@V?$standard_base@_WV?$stream_output_adapter@_W@__crt_stdio_output@@@2@@__crt_stdio_output@@AEAA_N_W@Z 0000000180080a40 f i libucrtd:output.obj
 0001:0007fb90       ?write_stored_string_tchar@?$output_processor@_WV?$string_output_adapter@_W@__crt_stdio_output@@V?$format_validation_base@_WV?$string_output_adapter@_W@__crt_stdio_output@@@2@@__crt_stdio_output@@AEAA_N_W@Z 0000000180080b90 f i libucrtd:output.obj
 0001:0007fce0       ?write_stored_string_tchar@?$output_processor@_WV?$string_output_adapter@_W@__crt_stdio_output@@V?$positional_parameter_base@_WV?$string_output_adapter@_W@__crt_stdio_output@@@2@@__crt_stdio_output@@AEAA_N_W@Z 0000000180080ce0 f i libucrtd:output.obj
 0001:0007fe30       ?write_stored_string_tchar@?$output_processor@_WV?$string_output_adapter@_W@__crt_stdio_output@@V?$standard_base@_WV?$string_output_adapter@_W@__crt_stdio_output@@@2@@__crt_stdio_output@@AEAA_N_W@Z 0000000180080e30 f i libucrtd:output.obj
 0001:0007ff80       ?write_string@?$stream_output_adapter@D@__crt_stdio_output@@QEBAXQEBDHQEAHAEAV__crt_deferred_errno_cache@@@Z 0000000180080f80 f i libucrtd:output.obj
 0001:00080000       ?write_string@?$stream_output_adapter@_W@__crt_stdio_output@@QEBAXQEB_WHQEAHAEAV__crt_deferred_errno_cache@@@Z 0000000180081000 f i libucrtd:output.obj
 0001:00080080       ?write_string@?$string_output_adapter@D@__crt_stdio_output@@QEBAXQEBDHQEAHAEAV__crt_deferred_errno_cache@@@Z 0000000180081080 f i libucrtd:output.obj
 0001:000801f0       ?write_string@?$string_output_adapter@_W@__crt_stdio_output@@QEBAXQEB_WHQEAHAEAV__crt_deferred_errno_cache@@@Z 00000001800811f0 f i libucrtd:output.obj
 0001:00080360       ?write_string_impl@?$output_adapter_common@DV?$stream_output_adapter@D@__crt_stdio_output@@@__crt_stdio_output@@IEBAXQEBDHQEAHAEAV__crt_deferred_errno_cache@@@Z 0000000180081360 f i libucrtd:output.obj
 0001:00080440       ?write_string_impl@?$output_adapter_common@_WV?$stream_output_adapter@_W@__crt_stdio_output@@@__crt_stdio_output@@IEBAXQEB_WHQEAHAEAV__crt_deferred_errno_cache@@@Z 0000000180081440 f i libucrtd:output.obj
 0001:00080520       __acrt_isleadbyte_l_noupdate 0000000180081520 f i libucrtd:output.obj
 0001:00080550       __acrt_locale_changed      0000000180081550 f i libucrtd:output.obj
 0001:00080580       __acrt_locale_get_ctype_array_value 0000000180081580 f i libucrtd:output.obj
 0001:000805c0       __stdio_common_vfprintf    00000001800815c0 f   libucrtd:output.obj
 0001:00080600       __stdio_common_vfprintf_p  0000000180081600 f   libucrtd:output.obj
 0001:00080640       __stdio_common_vfprintf_s  0000000180081640 f   libucrtd:output.obj
 0001:00080680       __stdio_common_vfwprintf   0000000180081680 f   libucrtd:output.obj
 0001:000806c0       __stdio_common_vfwprintf_p 00000001800816c0 f   libucrtd:output.obj
 0001:00080700       __stdio_common_vfwprintf_s 0000000180081700 f   libucrtd:output.obj
 0001:00080740       __stdio_common_vsnprintf_s 0000000180081740 f   libucrtd:output.obj
 0001:000807a0       __stdio_common_vsnwprintf_s 00000001800817a0 f   libucrtd:output.obj
 0001:00080800       __stdio_common_vsprintf    0000000180081800 f   libucrtd:output.obj
 0001:00080850       __stdio_common_vsprintf_p  0000000180081850 f   libucrtd:output.obj
 0001:000808a0       __stdio_common_vsprintf_s  00000001800818a0 f   libucrtd:output.obj
 0001:000808f0       __stdio_common_vswprintf   00000001800818f0 f   libucrtd:output.obj
 0001:00080940       __stdio_common_vswprintf_p 0000000180081940 f   libucrtd:output.obj
 0001:00080990       __stdio_common_vswprintf_s 0000000180081990 f   libucrtd:output.obj
 0001:000809e0       _ctype_fast_check_internal 00000001800819e0 f i libucrtd:output.obj
 0001:00080a10       _isdigit_fast_internal     0000000180081a10 f i libucrtd:output.obj
 0001:00080a40       _tolower_fast_internal     0000000180081a40 f i libucrtd:output.obj
 0001:00080a70       free                       0000000180081a70 f   libucrtd:free.obj
 0001:00080aa0       malloc                     0000000180081aa0 f   libucrtd:malloc.obj
 0001:00080ad0       ??$?RU?$__crt_report_hook_node@D@@@__crt_internal_free_policy@@QEBAXQEBU?$__crt_report_hook_node@D@@@Z 0000000180081ad0 f i libucrtd:dbgrpt.obj
 0001:00080b00       ??$?RU?$__crt_report_hook_node@_W@@@__crt_internal_free_policy@@QEBAXQEBU?$__crt_report_hook_node@_W@@@Z 0000000180081b00 f i libucrtd:dbgrpt.obj
 0001:00081d40       ??$get_module_file_name@AEAPEAUHINSTANCE__@@AEAY0BAF@DK@?$__crt_char_traits@D@@SAKAEAPEAUHINSTANCE__@@AEAY0BAF@D$$QEAK@Z 0000000180082d40 f i libucrtd:dbgrpt.obj
 0001:00081d80       ??$get_module_file_name@AEAPEAUHINSTANCE__@@AEAY0BAF@_WK@?$__crt_char_traits@_W@@SAKAEAPEAUHINSTANCE__@@AEAY0BAF@_W$$QEAK@Z 0000000180082d80 f i libucrtd:dbgrpt.obj
 0001:00081dc0       ??$tcscpy_s@AEAY0BAF@D_KPEBD@?$__crt_char_traits@D@@SAHAEAY0BAF@D$$QEA_K$$QEAPEBD@Z 0000000180082dc0 f i libucrtd:dbgrpt.obj
 0001:00081e00       ??$tcscpy_s@AEAY0BAF@_W_KPEB_W@?$__crt_char_traits@_W@@SAHAEAY0BAF@_W$$QEA_K$$QEAPEB_W@Z 0000000180082e00 f i libucrtd:dbgrpt.obj
 0001:00081e40       ??$tcslen@AEAY0BAF@D@?$__crt_char_traits@D@@SA_KAEAY0BAF@D@Z 0000000180082e40 f i libucrtd:dbgrpt.obj
 0001:00081e60       ??$tcslen@AEAY0BAF@_W@?$__crt_char_traits@_W@@SA_KAEAY0BAF@_W@Z 0000000180082e60 f i libucrtd:dbgrpt.obj
 0001:00081e80       ??$tcslen@AEBQEBD@?$__crt_char_traits@D@@SA_KAEBQEBD@Z 0000000180082e80 f i libucrtd:dbgrpt.obj
 0001:00081ea0       ??$tcslen@AEBQEB_W@?$__crt_char_traits@_W@@SA_KAEBQEB_W@Z 0000000180082ea0 f i libucrtd:dbgrpt.obj
 0001:00081fa0       ??0?$__crt_unique_heap_ptr@U?$__crt_report_hook_node@D@@U__crt_internal_free_policy@@@@QEAA@QEAU?$__crt_report_hook_node@D@@@Z 0000000180082fa0 f i libucrtd:dbgrpt.obj
 0001:00081fc0       ??0?$__crt_unique_heap_ptr@U?$__crt_report_hook_node@_W@@U__crt_internal_free_policy@@@@QEAA@QEAU?$__crt_report_hook_node@_W@@@Z 0000000180082fc0 f i libucrtd:dbgrpt.obj
 0001:00081fe0       ??1?$__crt_unique_heap_ptr@U?$__crt_report_hook_node@D@@U__crt_internal_free_policy@@@@QEAA@XZ 0000000180082fe0 f i libucrtd:dbgrpt.obj
 0001:00082000       ??1?$__crt_unique_heap_ptr@U?$__crt_report_hook_node@_W@@U__crt_internal_free_policy@@@@QEAA@XZ 0000000180083000 f i libucrtd:dbgrpt.obj
 0001:00082020       ??B?$__crt_unique_heap_ptr@U?$__crt_report_hook_node@D@@U__crt_internal_free_policy@@@@QEBA_NXZ 0000000180083020 f i libucrtd:dbgrpt.obj
 0001:00082040       ??B?$__crt_unique_heap_ptr@U?$__crt_report_hook_node@_W@@U__crt_internal_free_policy@@@@QEBA_NXZ 0000000180083040 f i libucrtd:dbgrpt.obj
 0001:00082720       ?detach@?$__crt_unique_heap_ptr@U?$__crt_report_hook_node@D@@U__crt_internal_free_policy@@@@QEAAPEAU?$__crt_report_hook_node@D@@XZ 0000000180083720 f i libucrtd:dbgrpt.obj
 0001:00082750       ?detach@?$__crt_unique_heap_ptr@U?$__crt_report_hook_node@_W@@U__crt_internal_free_policy@@@@QEAAPEAU?$__crt_report_hook_node@_W@@XZ 0000000180083750 f i libucrtd:dbgrpt.obj
 0001:00082780       ?get@?$__crt_unique_heap_ptr@U?$__crt_report_hook_node@D@@U__crt_internal_free_policy@@@@QEBAPEAU?$__crt_report_hook_node@D@@XZ 0000000180083780 f i libucrtd:dbgrpt.obj
 0001:00082790       ?get@?$__crt_unique_heap_ptr@U?$__crt_report_hook_node@_W@@U__crt_internal_free_policy@@@@QEBAPEAU?$__crt_report_hook_node@_W@@XZ 0000000180083790 f i libucrtd:dbgrpt.obj
 0001:00082800       ?is_valid@?$__crt_unique_heap_ptr@U?$__crt_report_hook_node@D@@U__crt_internal_free_policy@@@@QEBA_NXZ 0000000180083800 f i libucrtd:dbgrpt.obj
 0001:00082830       ?is_valid@?$__crt_unique_heap_ptr@U?$__crt_report_hook_node@_W@@U__crt_internal_free_policy@@@@QEBA_NXZ 0000000180083830 f i libucrtd:dbgrpt.obj
 0001:00082860       ?release@?$__crt_unique_heap_ptr@U?$__crt_report_hook_node@D@@U__crt_internal_free_policy@@@@QEAAXXZ 0000000180083860 f i libucrtd:dbgrpt.obj
 0001:00082890       ?release@?$__crt_unique_heap_ptr@U?$__crt_report_hook_node@_W@@U__crt_internal_free_policy@@@@QEAAXXZ 0000000180083890 f i libucrtd:dbgrpt.obj
 0001:000828c0       _CrtDbgReport              00000001800838c0 f   libucrtd:dbgrpt.obj
 0001:00082940       _CrtDbgReportW             0000000180083940 f   libucrtd:dbgrpt.obj
 0001:000829c0       _CrtSetReportHook2         00000001800839c0 f   libucrtd:dbgrpt.obj
 0001:000829e0       _CrtSetReportHookW2        00000001800839e0 f   libucrtd:dbgrpt.obj
 0001:00082a00       __acrt_MessageWindowA      0000000180083a00 f   libucrtd:dbgrpt.obj
 0001:00082a50       __acrt_MessageWindowW      0000000180083a50 f   libucrtd:dbgrpt.obj
 0001:00082aa0       _invoke_watson_if_error    0000000180083aa0 f i libucrtd:dbgrpt.obj
 0001:00082af0       _invoke_watson_if_oneof    0000000180083af0 f i libucrtd:dbgrpt.obj
 0001:00082b50       _snwprintf_s               0000000180083b50 f i libucrtd:dbgrpt.obj
 0001:00082bc0       _vsnwprintf_s_l            0000000180083bc0 f i libucrtd:dbgrpt.obj
 0001:00083120       wcscpy_s                   0000000180084120 f   libucrtd:wcscpy_s.obj
 0001:000844b0       ??1?$__crt_simd_cleanup_guard@$00@@QEAA@XZ 00000001800854b0 f i libucrtd:strnlen.obj
 0001:000844c0       ??1?$__crt_simd_cleanup_guard@$0A@@@QEAA@XZ 00000001800854c0 f i libucrtd:strnlen.obj
 0001:000844d0       ?compare_equals@?$__crt_simd_traits@$00E@@SA?AT__m256i@@T2@0@Z 00000001800854d0 f i libucrtd:strnlen.obj
 0001:00084510       ?compare_equals@?$__crt_simd_traits@$00G@@SA?AT__m256i@@T2@0@Z 0000000180085510 f i libucrtd:strnlen.obj
 0001:00084550       ?compare_equals@?$__crt_simd_traits@$0A@E@@SA?AT__m128i@@T2@0@Z 0000000180085550 f i libucrtd:strnlen.obj
 0001:00084580       ?compare_equals@?$__crt_simd_traits@$0A@G@@SA?AT__m128i@@T2@0@Z 0000000180085580 f i libucrtd:strnlen.obj
 0001:000845b0       ?compute_byte_mask@?$__crt_simd_pack_traits@$00@@SAHT__m256i@@@Z 00000001800855b0 f i libucrtd:strnlen.obj
 0001:000845d0       ?compute_byte_mask@?$__crt_simd_pack_traits@$0A@@@SAHT__m128i@@@Z 00000001800855d0 f i libucrtd:strnlen.obj
 0001:000845f0       ?get_zero_pack@?$__crt_simd_pack_traits@$00@@SA?AT__m256i@@XZ 00000001800855f0 f i libucrtd:strnlen.obj
 0001:00084620       ?get_zero_pack@?$__crt_simd_pack_traits@$0A@@@SA?AT__m128i@@XZ 0000000180085620 f i libucrtd:strnlen.obj
 0001:00084640       strnlen                    0000000180085640 f   libucrtd:strnlen.obj
 0001:00084670       wcslen                     0000000180085670 f   libucrtd:strnlen.obj
 0001:00084690       wcsnlen                    0000000180085690 f   libucrtd:strnlen.obj
 0001:000846c0       ??$__crt_fast_decode_pointer@P6AXPEB_W00I_K@Z@@YAP6AXPEB_W00I_K@ZQ6AX000I1@Z@Z 00000001800856c0 f i libucrtd:invalid_parameter.obj
 0001:00084700       ??$__crt_fast_encode_pointer@P6AXPEB_W00I_K@Z@@YAP6AXPEB_W00I_K@ZQ6AX000I1@Z@Z 0000000180085700 f i libucrtd:invalid_parameter.obj
 0001:00084740       ??$initialize_from_array@$$BY00Q6AXPEB_W00I_K@Z@?$dual_state_global@P6AXPEB_W00I_K@Z@__crt_state_management@@QEAAXAEAY00Q6AXPEB_W00I_K@Z@Z 0000000180085740 f i libucrtd:invalid_parameter.obj
 0001:000847a0       ?__crt_rotate_pointer_value@@YA_K_KH@Z 00000001800857a0 f i libucrtd:invalid_parameter.obj
 0001:00084860       ?dangerous_get_state_array@?$dual_state_global@P6AXPEB_W00I_K@Z@__crt_state_management@@QEAAPEAP6AXPEB_W00I_K@ZXZ 0000000180085860 f i libucrtd:invalid_parameter.obj
 0001:00084870       ?get_current_state_index@__crt_state_management@@YA_KXZ 0000000180085870 f i libucrtd:invalid_parameter.obj
 0001:00084880       ?value@?$dual_state_global@P6AXPEB_W00I_K@Z@__crt_state_management@@QEAAAEAP6AXPEB_W00I_K@ZXZ 0000000180085880 f i libucrtd:invalid_parameter.obj
 0001:000848a0       __acrt_call_reportfault    00000001800858a0 f   libucrtd:invalid_parameter.obj
 0001:000849d0       __acrt_initialize_invalid_parameter_handler 00000001800859d0 f   libucrtd:invalid_parameter.obj
 0001:00084a00       _get_invalid_parameter_handler 0000000180085a00 f   libucrtd:invalid_parameter.obj
 0001:00084a20       _get_thread_local_invalid_parameter_handler 0000000180085a20 f   libucrtd:invalid_parameter.obj
 0001:00084a50       _invalid_parameter         0000000180085a50 f   libucrtd:invalid_parameter.obj
 0001:00084b50       _invalid_parameter_noinfo  0000000180085b50 f   libucrtd:invalid_parameter.obj
 0001:00084b80       _invalid_parameter_noinfo_noreturn 0000000180085b80 f   libucrtd:invalid_parameter.obj
 0001:00084bc0       _invoke_watson             0000000180085bc0 f   libucrtd:invalid_parameter.obj
 0001:00084c20       _set_invalid_parameter_handler 0000000180085c20 f   libucrtd:invalid_parameter.obj
 0001:00084c70       _set_thread_local_invalid_parameter_handler 0000000180085c70 f   libucrtd:invalid_parameter.obj
 0001:00084cb0       __acrt_errno_from_os_error 0000000180085cb0 f   libucrtd:errno.obj
 0001:00084d40       __acrt_errno_map_os_error  0000000180085d40 f   libucrtd:errno.obj
 0001:00084d70       __doserrno                 0000000180085d70 f   libucrtd:errno.obj
 0001:00084da0       _errno                     0000000180085da0 f   libucrtd:errno.obj
 0001:00084dd0       _get_doserrno              0000000180085dd0 f   libucrtd:errno.obj
 0001:00084e90       _get_errno                 0000000180085e90 f   libucrtd:errno.obj
 0001:00084f50       _set_doserrno              0000000180085f50 f   libucrtd:errno.obj
 0001:00084f90       _set_errno                 0000000180085f90 f   libucrtd:errno.obj
 0001:00084fd0       calloc                     0000000180085fd0 f   libucrtd:calloc.obj
 0001:00085010       _recalloc                  0000000180086010 f   libucrtd:recalloc.obj
 0001:00085060       _recalloc_base             0000000180086060 f   libucrtd:recalloc.obj
 0001:0008513c       _resetstkoflw              000000018008613c f   libucrtd:resetstk.obj
 0001:000858f0       wcscat_s                   00000001800868f0 f   libucrtd:wcscat_s.obj
 0001:00085fc0       wcsncpy_s                  0000000180086fc0 f   libucrtd:wcsncpy_s.obj
 0001:00086020       __acrt_get_locale_data_prefix 0000000180087020 f i libucrtd:_ctype.obj
 0001:00086040       __isascii                  0000000180087040 f i libucrtd:_ctype.obj
 0001:00086070       __iscsym                   0000000180087070 f i libucrtd:_ctype.obj
 0001:000860b0       __iscsymf                  00000001800870b0 f i libucrtd:_ctype.obj
 0001:000860f0       __toascii                  00000001800870f0 f i libucrtd:_ctype.obj
 0001:00086100       _chvalidchk_l              0000000180087100 f i libucrtd:_ctype.obj
 0001:00086130       _isalnum_l                 0000000180087130 f i libucrtd:_ctype.obj
 0001:00086180       _isalpha_l                 0000000180087180 f i libucrtd:_ctype.obj
 0001:000861d0       _isblank_l                 00000001800871d0 f i libucrtd:_ctype.obj
 0001:00086240       _ischartype_l              0000000180087240 f i libucrtd:_ctype.obj
 0001:000862d0       _iscntrl_l                 00000001800872d0 f i libucrtd:_ctype.obj
 0001:00086320       _iscsym_l                  0000000180087320 f i libucrtd:_ctype.obj
 0001:00086370       _iscsymf_l                 0000000180087370 f i libucrtd:_ctype.obj
 0001:000863c0       _isdigit_l                 00000001800873c0 f i libucrtd:_ctype.obj
 0001:00086410       _isgraph_l                 0000000180087410 f i libucrtd:_ctype.obj
 0001:00086460       _islower_l                 0000000180087460 f i libucrtd:_ctype.obj
 0001:000864b0       _isprint_l                 00000001800874b0 f i libucrtd:_ctype.obj
 0001:00086500       _ispunct_l                 0000000180087500 f i libucrtd:_ctype.obj
 0001:00086550       _isspace_l                 0000000180087550 f i libucrtd:_ctype.obj
 0001:000865a0       _isupper_l                 00000001800875a0 f i libucrtd:_ctype.obj
 0001:000865f0       _isxdigit_l                00000001800875f0 f i libucrtd:_ctype.obj
 0001:00086640       isalnum                    0000000180087640 f i libucrtd:_ctype.obj
 0001:00086680       isalpha                    0000000180087680 f i libucrtd:_ctype.obj
 0001:000866c0       isblank                    00000001800876c0 f i libucrtd:_ctype.obj
 0001:00086720       iscntrl                    0000000180087720 f i libucrtd:_ctype.obj
 0001:00086760       isdigit                    0000000180087760 f i libucrtd:_ctype.obj
 0001:000867a0       isgraph                    00000001800877a0 f i libucrtd:_ctype.obj
 0001:000867e0       islower                    00000001800877e0 f i libucrtd:_ctype.obj
 0001:00086820       isprint                    0000000180087820 f i libucrtd:_ctype.obj
 0001:00086860       ispunct                    0000000180087860 f i libucrtd:_ctype.obj
 0001:000868a0       isspace                    00000001800878a0 f i libucrtd:_ctype.obj
 0001:000868e0       isupper                    00000001800878e0 f i libucrtd:_ctype.obj
 0001:00086920       isxdigit                   0000000180087920 f i libucrtd:_ctype.obj
 0001:00086960       wcscat                     0000000180087960 f   libucrtd:wcscat.obj
 0001:000869e0       wcscpy                     00000001800879e0 f   libucrtd:wcscpy.obj
 0001:00087190       ??$open_file@AEBQEBDAEBQEBDAEBHPEAU_iobuf@@@?$__crt_char_traits@D@@SAPEAU_iobuf@@AEBQEBD0AEBH$$QEAPEAU1@@Z 0000000180088190 f i libucrtd:fopen.obj
 0001:000871e0       ??$open_file@AEBQEB_WAEBQEB_WAEBHPEAU_iobuf@@@?$__crt_char_traits@_W@@SAPEAU_iobuf@@AEBQEB_W0AEBH$$QEAPEAU1@@Z 00000001800881e0 f i libucrtd:fopen.obj
 0001:00087230       ?unlock@__crt_stdio_stream@@QEBAXXZ 0000000180088230 f i libucrtd:fopen.obj
 0001:00087250       _fsopen                    0000000180088250 f   libucrtd:fopen.obj
 0001:00087280       _wfopen                    0000000180088280 f   libucrtd:fopen.obj
 0001:000872b0       _wfopen_s                  00000001800882b0 f   libucrtd:fopen.obj
 0001:000872e0       _wfsopen                   00000001800882e0 f   libucrtd:fopen.obj
 0001:00087310       fopen                      0000000180088310 f   libucrtd:fopen.obj
 0001:00087340       fopen_s                    0000000180088340 f   libucrtd:fopen.obj
 0001:00087370       ?is_in_use@__crt_stdio_stream@@QEBA_NXZ 0000000180088370 f i libucrtd:fclose.obj
 0001:000873b0       _fclose_nolock             00000001800883b0 f   libucrtd:fclose.obj
 0001:00087540       fclose                     0000000180088540 f   libucrtd:fclose.obj
 0001:00087680       _fputc_nolock              0000000180088680 f   libucrtd:fputc.obj
 0001:00087730       _fputchar                  0000000180088730 f   libucrtd:fputc.obj
 0001:00087760       _putc_nolock               0000000180088760 f   libucrtd:fputc.obj
 0001:00087780       fputc                      0000000180088780 f   libucrtd:fputc.obj
 0001:00087a20       putc                       0000000180088a20 f   libucrtd:fputc.obj
 0001:00087a40       putchar                    0000000180088a40 f   libucrtd:fputc.obj
 0001:00087ad0       _seh_filter_dll            0000000180088ad0 f   libucrtd:exception_filter.obj
 0001:00087b00       _seh_filter_exe            0000000180088b00 f   libucrtd:exception_filter.obj
 0001:00087da0       ??$?B$$A6AXPEAXK0@Z@__crt_fast_encoded_nullptr_t@@QEBAP6AXPEAXK0@ZXZ 0000000180088da0 f i libucrtd:exit.obj
 0001:00087e50       ??$__crt_fast_decode_pointer@P6AXPEAXK0@Z@@YAP6AXPEAXK0@ZQ6AX0K0@Z@Z 0000000180088e50 f i libucrtd:exit.obj
 0001:00087e90       ??$__crt_fast_encode_pointer@P6AXPEAXK0@Z@@YAP6AXPEAXK0@ZQ6AX0K0@Z@Z 0000000180088e90 f i libucrtd:exit.obj
 0001:00087ed0       ??$__crt_get_proc_address@P6AXI@Z@@YAP6AXI@ZQEAUHINSTANCE__@@QEBD@Z 0000000180088ed0 f i libucrtd:exit.obj
 0001:00087f90       ??0?$__crt_unique_handle_t@U__crt_hmodule_traits@@@@QEAA@QEAUHINSTANCE__@@@Z 0000000180088f90 f i libucrtd:exit.obj
 0001:00087fb0       ??1?$__crt_unique_handle_t@U__crt_hmodule_traits@@@@QEAA@XZ 0000000180088fb0 f i libucrtd:exit.obj
 0001:00088110       ?__acrt_select_exit_lock@@YA?AW4__acrt_lock_id@@XZ 0000000180089110 f i libucrtd:exit.obj
 0001:00088120       ?__crt_fast_encode_pointer@@YA?AU__crt_fast_encoded_nullptr_t@@$$T@Z 0000000180089120 f i libucrtd:exit.obj
 0001:00088160       ?close@?$__crt_unique_handle_t@U__crt_hmodule_traits@@@@QEAAXXZ 0000000180089160 f i libucrtd:exit.obj
 0001:000881a0       ?close@__crt_hmodule_traits@@SA_NPEAUHINSTANCE__@@@Z 00000001800891a0 f i libucrtd:exit.obj
 0001:000882b0       ?get@?$__crt_unique_handle_t@U__crt_hmodule_traits@@@@QEBAPEAUHINSTANCE__@@XZ 00000001800892b0 f i libucrtd:exit.obj
 0001:000882c0       ?get_address_of@?$__crt_unique_handle_t@U__crt_hmodule_traits@@@@QEAAPEAPEAUHINSTANCE__@@XZ 00000001800892c0 f i libucrtd:exit.obj
 0001:000882d0       ?get_invalid_value@__crt_hmodule_traits@@SAPEAUHINSTANCE__@@XZ 00000001800892d0 f i libucrtd:exit.obj
 0001:00088490       _Exit                      0000000180089490 f   libucrtd:exit.obj
 0001:000884b0       __acrt_initialize_thread_local_exit_callback 00000001800894b0 f   libucrtd:exit.obj
 0001:000884d0       _c_exit                    00000001800894d0 f   libucrtd:exit.obj
 0001:000884f0       _cexit                     00000001800894f0 f   libucrtd:exit.obj
 0001:00088510       _exit                      0000000180089510 f   libucrtd:exit.obj
 0001:00088530       _is_c_termination_complete 0000000180089530 f   libucrtd:exit.obj
 0001:00088550       _register_thread_local_exe_atexit_callback 0000000180089550 f   libucrtd:exit.obj
 0001:000885a0       exit                       00000001800895a0 f   libucrtd:exit.obj
 0001:000885c0       quick_exit                 00000001800895c0 f   libucrtd:exit.obj
 0001:000885e0       ??$?RE@__crt_internal_free_policy@@QEBAXQEBE@Z 00000001800895e0 f i libucrtd:argv_parsing.obj
 0001:00088610       ??$?RPEAD@__crt_internal_free_policy@@QEBAXQEBQEAD@Z 0000000180089610 f i libucrtd:argv_parsing.obj
 0001:00088640       ??$?RPEA_W@__crt_internal_free_policy@@QEBAXQEBQEA_W@Z 0000000180089640 f i libucrtd:argv_parsing.obj
 0001:00088d90       ??$get_module_file_name@$$TAEAY0BAF@DH@?$__crt_char_traits@D@@SAK$$QEA$$TAEAY0BAF@D$$QEAH@Z 0000000180089d90 f i libucrtd:argv_parsing.obj
 0001:00088dd0       ??$get_module_file_name@$$TAEAY0BAF@_WH@?$__crt_char_traits@_W@@SAK$$QEA$$TAEAY0BAF@_W$$QEAH@Z 0000000180089dd0 f i libucrtd:argv_parsing.obj
 0001:00089780       ??$set_program_name@PEAD@?$__crt_char_traits@D@@SAX$$QEAPEAD@Z 000000018008a780 f i libucrtd:argv_parsing.obj
 0001:000897a0       ??$set_program_name@PEA_W@?$__crt_char_traits@_W@@SAX$$QEAPEA_W@Z 000000018008a7a0 f i libucrtd:argv_parsing.obj
 0001:00089800       ??0?$__crt_unique_heap_ptr@EU__crt_internal_free_policy@@@@QEAA@QEAE@Z 000000018008a800 f i libucrtd:argv_parsing.obj
 0001:00089820       ??0?$__crt_unique_heap_ptr@PEADU__crt_internal_free_policy@@@@QEAA@QEAPEAD@Z 000000018008a820 f i libucrtd:argv_parsing.obj
 0001:00089840       ??0?$__crt_unique_heap_ptr@PEA_WU__crt_internal_free_policy@@@@QEAA@QEAPEA_W@Z 000000018008a840 f i libucrtd:argv_parsing.obj
 0001:00089860       ??1?$__crt_unique_heap_ptr@EU__crt_internal_free_policy@@@@QEAA@XZ 000000018008a860 f i libucrtd:argv_parsing.obj
 0001:00089880       ??1?$__crt_unique_heap_ptr@PEADU__crt_internal_free_policy@@@@QEAA@XZ 000000018008a880 f i libucrtd:argv_parsing.obj
 0001:000898a0       ??1?$__crt_unique_heap_ptr@PEA_WU__crt_internal_free_policy@@@@QEAA@XZ 000000018008a8a0 f i libucrtd:argv_parsing.obj
 0001:000898c0       ??B?$__crt_unique_heap_ptr@EU__crt_internal_free_policy@@@@QEBA_NXZ 000000018008a8c0 f i libucrtd:argv_parsing.obj
 0001:000899a0       ?detach@?$__crt_unique_heap_ptr@EU__crt_internal_free_policy@@@@QEAAPEAEXZ 000000018008a9a0 f i libucrtd:argv_parsing.obj
 0001:000899d0       ?detach@?$__crt_unique_heap_ptr@PEADU__crt_internal_free_policy@@@@QEAAPEAPEADXZ 000000018008a9d0 f i libucrtd:argv_parsing.obj
 0001:00089a00       ?detach@?$__crt_unique_heap_ptr@PEA_WU__crt_internal_free_policy@@@@QEAAPEAPEA_WXZ 000000018008aa00 f i libucrtd:argv_parsing.obj
 0001:00089ac0       ?get@?$__crt_unique_heap_ptr@EU__crt_internal_free_policy@@@@QEBAPEAEXZ 000000018008aac0 f i libucrtd:argv_parsing.obj
 0001:00089ad0       ?get@?$__crt_unique_heap_ptr@PEADU__crt_internal_free_policy@@@@QEBAPEAPEADXZ 000000018008aad0 f i libucrtd:argv_parsing.obj
 0001:00089ae0       ?get@?$__crt_unique_heap_ptr@PEA_WU__crt_internal_free_policy@@@@QEBAPEAPEA_WXZ 000000018008aae0 f i libucrtd:argv_parsing.obj
 0001:00089af0       ?get_address_of@?$__crt_unique_heap_ptr@PEADU__crt_internal_free_policy@@@@QEAAPEAPEAPEADXZ 000000018008aaf0 f i libucrtd:argv_parsing.obj
 0001:00089b00       ?get_address_of@?$__crt_unique_heap_ptr@PEA_WU__crt_internal_free_policy@@@@QEAAPEAPEAPEA_WXZ 000000018008ab00 f i libucrtd:argv_parsing.obj
 0001:00089b50       ?is_valid@?$__crt_unique_heap_ptr@EU__crt_internal_free_policy@@@@QEBA_NXZ 000000018008ab50 f i libucrtd:argv_parsing.obj
 0001:00089b80       ?release@?$__crt_unique_heap_ptr@EU__crt_internal_free_policy@@@@QEAAXXZ 000000018008ab80 f i libucrtd:argv_parsing.obj
 0001:00089bb0       ?release@?$__crt_unique_heap_ptr@PEADU__crt_internal_free_policy@@@@QEAAXXZ 000000018008abb0 f i libucrtd:argv_parsing.obj
 0001:00089be0       ?release@?$__crt_unique_heap_ptr@PEA_WU__crt_internal_free_policy@@@@QEAAXXZ 000000018008abe0 f i libucrtd:argv_parsing.obj
 0001:00089c60       __acrt_allocate_buffer_for_argv 000000018008ac60 f   libucrtd:argv_parsing.obj
 0001:00089d80       _configure_narrow_argv     000000018008ad80 f   libucrtd:argv_parsing.obj
 0001:00089da0       _configure_wide_argv       000000018008ada0 f   libucrtd:argv_parsing.obj
 0001:00089dc0       _set_pgmptr                000000018008adc0 f i libucrtd:argv_parsing.obj
 0001:00089de0       _set_wpgmptr               000000018008ade0 f i libucrtd:argv_parsing.obj
 0001:00089df4       ??$?R_W@__crt_internal_free_policy@@QEBAXQEB_W@Z 000000018008adf4 f i libucrtd:environment_initialization.obj
 0001:0008a3cc       ??$get_environment_from_os@$$V@?$__crt_char_traits@D@@SAPEADXZ 000000018008b3cc f i libucrtd:environment_initialization.obj
 0001:0008a3d4       ??$get_environment_from_os@$$V@?$__crt_char_traits@_W@@SAPEA_WXZ 000000018008b3d4 f i libucrtd:environment_initialization.obj
 0001:0008a5a4       ??$set_variable_in_environment_nolock@PEADH@?$__crt_char_traits@D@@SAH$$QEAPEAD$$QEAH@Z 000000018008b5a4 f i libucrtd:environment_initialization.obj
 0001:0008a5b0       ??$set_variable_in_environment_nolock@PEA_WH@?$__crt_char_traits@_W@@SAH$$QEAPEA_W$$QEAH@Z 000000018008b5b0 f i libucrtd:environment_initialization.obj
 0001:0008a5bc       ??$tcscpy_s@PEADAEB_KAEAPEAD@?$__crt_char_traits@D@@SAH$$QEAPEADAEB_KAEAPEAD@Z 000000018008b5bc f i libucrtd:environment_initialization.obj
 0001:0008a5cc       ??$tcscpy_s@PEA_WAEB_KAEAPEA_W@?$__crt_char_traits@_W@@SAH$$QEAPEA_WAEB_KAEAPEA_W@Z 000000018008b5cc f i libucrtd:environment_initialization.obj
 0001:0008a5dc       ??$tcslen@AEAPEAD@?$__crt_char_traits@D@@SA_KAEAPEAD@Z 000000018008b5dc f i libucrtd:environment_initialization.obj
 0001:0008a5f0       ??$tcslen@AEAPEA_W@?$__crt_char_traits@_W@@SA_KAEAPEA_W@Z 000000018008b5f0 f i libucrtd:environment_initialization.obj
 0001:0008a604       ??$uninitialize@A6AXAEAPEAPEAD@Z@?$dual_state_global@PEAPEAD@__crt_state_management@@QEAAXA6AXAEAPEAPEAD@Z@Z 000000018008b604 f i libucrtd:environment_initialization.obj
 0001:0008a648       ??$uninitialize@A6AXAEAPEAPEA_W@Z@?$dual_state_global@PEAPEA_W@__crt_state_management@@QEAAXA6AXAEAPEAPEA_W@Z@Z 000000018008b648 f i libucrtd:environment_initialization.obj
 0001:0008a6c4       ??0?$__crt_unique_heap_ptr@_WU__crt_internal_free_policy@@@@QEAA@QEA_W@Z 000000018008b6c4 f i libucrtd:environment_initialization.obj
 0001:0008a6cc       ??1?$__crt_unique_heap_ptr@_WU__crt_internal_free_policy@@@@QEAA@XZ 000000018008b6cc f i libucrtd:environment_initialization.obj
 0001:0008a6ec       ??B?$__crt_unique_heap_ptr@PEADU__crt_internal_free_policy@@@@QEBA_NXZ 000000018008b6ec f i libucrtd:environment_initialization.obj
 0001:0008a6f4       ??B?$__crt_unique_heap_ptr@PEA_WU__crt_internal_free_policy@@@@QEBA_NXZ 000000018008b6f4 f i libucrtd:environment_initialization.obj
 0001:0008a6fc       ??B?$__crt_unique_heap_ptr@_WU__crt_internal_free_policy@@@@QEBA_NXZ 000000018008b6fc f i libucrtd:environment_initialization.obj
 0001:0008a704       ?__crt_compute_required_transform_buffer_count@@YA_KIQEBD@Z 000000018008b704 f i libucrtd:environment_initialization.obj
 0001:0008a728       ?__crt_compute_required_transform_buffer_count@@YA_KIQEB_W@Z 000000018008b728 f i libucrtd:environment_initialization.obj
 0001:0008a758       ?__crt_transform_string@@YA_KIQEBDQEA_W_K@Z 000000018008b758 f i libucrtd:environment_initialization.obj
 0001:0008a77c       ?__crt_transform_string@@YA_KIQEB_WQEAD_K@Z 000000018008b77c f i libucrtd:environment_initialization.obj
 0001:0008a7ac       ?detach@?$__crt_unique_heap_ptr@DU__crt_internal_free_policy@@@@QEAAPEADXZ 000000018008b7ac f i libucrtd:environment_initialization.obj
 0001:0008a7b4       ?detach@?$__crt_unique_heap_ptr@_WU__crt_internal_free_policy@@@@QEAAPEA_WXZ 000000018008b7b4 f i libucrtd:environment_initialization.obj
 0001:0008a7bc       ?get@?$__crt_unique_heap_ptr@_WU__crt_internal_free_policy@@@@QEBAPEA_WXZ 000000018008b7bc f i libucrtd:environment_initialization.obj
 0001:0008a7f0       ?initialize@?$dual_state_global@PEAPEAD@__crt_state_management@@QEAAXQEAPEAD@Z 000000018008b7f0 f i libucrtd:environment_initialization.obj
 0001:0008a818       ?initialize@?$dual_state_global@PEAPEA_W@__crt_state_management@@QEAAXQEAPEA_W@Z 000000018008b818 f i libucrtd:environment_initialization.obj
 0001:0008a840       ?is_valid@?$__crt_unique_heap_ptr@PEADU__crt_internal_free_policy@@@@QEBA_NXZ 000000018008b840 f i libucrtd:environment_initialization.obj
 0001:0008a848       ?is_valid@?$__crt_unique_heap_ptr@PEA_WU__crt_internal_free_policy@@@@QEBA_NXZ 000000018008b848 f i libucrtd:environment_initialization.obj
 0001:0008a850       ?is_valid@?$__crt_unique_heap_ptr@_WU__crt_internal_free_policy@@@@QEBA_NXZ 000000018008b850 f i libucrtd:environment_initialization.obj
 0001:0008a864       ?release@?$__crt_unique_heap_ptr@_WU__crt_internal_free_policy@@@@QEAAXXZ 000000018008b864 f i libucrtd:environment_initialization.obj
 0001:0008a884       ?value@?$dual_state_global@PEAPEAD@__crt_state_management@@QEAAAEAPEAPEADXZ 000000018008b884 f i libucrtd:environment_initialization.obj
 0001:0008a888       ?value@?$dual_state_global@PEAPEA_W@__crt_state_management@@QEAAAEAPEAPEA_WXZ 000000018008b888 f i libucrtd:environment_initialization.obj
 0001:0008a88c       __dcrt_get_or_create_narrow_environment_nolock 000000018008b88c f   libucrtd:environment_initialization.obj
 0001:0008a8c8       __dcrt_get_or_create_wide_environment_nolock 000000018008b8c8 f   libucrtd:environment_initialization.obj
 0001:0008a904       __dcrt_uninitialize_environments_nolock 000000018008b904 f   libucrtd:environment_initialization.obj
 0001:0008a93c       __p__environ               000000018008b93c f   libucrtd:environment_initialization.obj
 0001:0008a944       __p__wenviron              000000018008b944 f   libucrtd:environment_initialization.obj
 0001:0008a94c       _get_initial_narrow_environment 000000018008b94c f   libucrtd:environment_initialization.obj
 0001:0008a99c       _get_initial_wide_environment 000000018008b99c f   libucrtd:environment_initialization.obj
 0001:0008a9ec       _initialize_narrow_environment 000000018008b9ec f   libucrtd:environment_initialization.obj
 0001:0008a9f4       _initialize_wide_environment 000000018008b9f4 f   libucrtd:environment_initialization.obj
 0001:0008aa00       ??$?B$$A6AXXZ@__crt_fast_encoded_nullptr_t@@QEBAP6AXXZXZ 000000018008ba00 f i libucrtd:onexit.obj
 0001:0008aa20       ??$?BP6AXXZ@__crt_fast_encoded_nullptr_t@@QEBAPEAP6AXXZXZ 000000018008ba20 f i libucrtd:onexit.obj
 0001:0008aa40       ??$?RP6AXXZ@__crt_internal_free_policy@@QEBAXQEBQ6AXXZ@Z 000000018008ba40 f i libucrtd:onexit.obj
 0001:0008abb0       ??$__crt_fast_decode_pointer@P6AXXZ@@YAP6AXXZQ6AXXZ@Z 000000018008bbb0 f i libucrtd:onexit.obj
 0001:0008abf0       ??$__crt_fast_decode_pointer@PEAP6AXXZ@@YAPEAP6AXXZQEAP6AXXZ@Z 000000018008bbf0 f i libucrtd:onexit.obj
 0001:0008ac30       ??$__crt_fast_encode_pointer@P6AHXZ@@YAP6AHXZQ6AHXZ@Z 000000018008bc30 f i libucrtd:onexit.obj
 0001:0008ac70       ??$__crt_fast_encode_pointer@P6AXXZ@@YAP6AXXZQ6AXXZ@Z 000000018008bc70 f i libucrtd:onexit.obj
 0001:0008acb0       ??$__crt_fast_encode_pointer@PEAP6AXXZ@@YAPEAP6AXXZQEAP6AXXZ@Z 000000018008bcb0 f i libucrtd:onexit.obj
 0001:0008adc0       ??0?$__crt_unique_heap_ptr@P6AXXZU__crt_internal_free_policy@@@@QEAA@QEAP6AXXZ@Z 000000018008bdc0 f i libucrtd:onexit.obj
 0001:0008ade0       ??1?$__crt_unique_heap_ptr@P6AXXZU__crt_internal_free_policy@@@@QEAA@XZ 000000018008bde0 f i libucrtd:onexit.obj
 0001:0008ae00       ??1scoped_global_state_reset@__crt_state_management@@QEAA@XZ 000000018008be00 f i libucrtd:onexit.obj
 0001:0008b3d0       ?detach@?$__crt_unique_heap_ptr@P6AXXZU__crt_internal_free_policy@@@@QEAAPEAP6AXXZXZ 000000018008c3d0 f i libucrtd:onexit.obj
 0001:0008b400       ?release@?$__crt_unique_heap_ptr@P6AXXZU__crt_internal_free_policy@@@@QEAAXXZ 000000018008c400 f i libucrtd:onexit.obj
 0001:0008b430       _crt_at_quick_exit         000000018008c430 f   libucrtd:onexit.obj
 0001:0008b450       _crt_atexit                000000018008c450 f   libucrtd:onexit.obj
 0001:0008b470       _execute_onexit_table      000000018008c470 f   libucrtd:onexit.obj
 0001:0008b4b0       _initialize_onexit_table   000000018008c4b0 f   libucrtd:onexit.obj
 0001:0008b530       _register_onexit_function  000000018008c530 f   libucrtd:onexit.obj
 0001:0008b7a0       ??$?BX@__crt_fast_encoded_nullptr_t@@QEBAPEAXXZ 000000018008c7a0 f i libucrtd:initialization.obj
 0001:0008b7c0       ??$__crt_fast_encode_pointer@PEAX@@YAPEAXQEAX@Z 000000018008c7c0 f i libucrtd:initialization.obj
 0001:0008b8b0       ?initialize@?$dual_state_global@PEAU__crt_locale_data@@@__crt_state_management@@QEAAXQEAU__crt_locale_data@@@Z 000000018008c8b0 f i libucrtd:initialization.obj
 0001:0008b900       __acrt_initialize          000000018008c900 f   libucrtd:initialization.obj
 0001:0008b930       __acrt_thread_attach       000000018008c930 f   libucrtd:initialization.obj
 0001:0008b950       __acrt_thread_detach       000000018008c950 f   libucrtd:initialization.obj
 0001:0008b960       __acrt_uninitialize        000000018008c960 f   libucrtd:initialization.obj
 0001:0008b990       __acrt_uninitialize_critical 000000018008c990 f   libucrtd:initialization.obj
 0001:0008d980       _CrtCheckMemory            000000018008e980 f   libucrtd:debug_heap.obj
 0001:0008db10       _CrtDoForAllClientObjects  000000018008eb10 f   libucrtd:debug_heap.obj
 0001:0008dc40       _CrtDumpMemoryLeaks        000000018008ec40 f   libucrtd:debug_heap.obj
 0001:0008dd00       _CrtGetAllocHook           000000018008ed00 f   libucrtd:debug_heap.obj
 0001:0008dd10       _CrtGetDumpClient          000000018008ed10 f   libucrtd:debug_heap.obj
 0001:0008dd20       _CrtIsMemoryBlock          000000018008ed20 f   libucrtd:debug_heap.obj
 0001:0008de60       _CrtIsValidHeapPointer     000000018008ee60 f   libucrtd:debug_heap.obj
 0001:0008dea0       _CrtIsValidPointer         000000018008eea0 f   libucrtd:debug_heap.obj
 0001:0008dee0       _CrtMemCheckpoint          000000018008eee0 f   libucrtd:debug_heap.obj
 0001:0008e160       _CrtMemDifference          000000018008f160 f   libucrtd:debug_heap.obj
 0001:0008e4c0       _CrtMemDumpAllObjectsSince 000000018008f4c0 f   libucrtd:debug_heap.obj
 0001:0008e520       _CrtMemDumpStatistics      000000018008f520 f   libucrtd:debug_heap.obj
 0001:0008e6c0       _CrtReportBlockType        000000018008f6c0 f   libucrtd:debug_heap.obj
 0001:0008e6f0       _CrtSetAllocHook           000000018008f6f0 f   libucrtd:debug_heap.obj
 0001:0008e720       _CrtSetBreakAlloc          000000018008f720 f   libucrtd:debug_heap.obj
 0001:0008e750       _CrtSetDbgBlockType        000000018008f750 f   libucrtd:debug_heap.obj
 0001:0008e7f0       _CrtSetDbgFlag             000000018008f7f0 f   libucrtd:debug_heap.obj
 0001:0008e950       _CrtSetDumpClient          000000018008f950 f   libucrtd:debug_heap.obj
 0001:0008e980       __p__crtBreakAlloc         000000018008f980 f   libucrtd:debug_heap.obj
 0001:0008e990       __p__crtDbgFlag            000000018008f990 f   libucrtd:debug_heap.obj
 0001:0008e9a0       _aligned_free_dbg          000000018008f9a0 f   libucrtd:debug_heap.obj
 0001:0008ea90       _aligned_malloc_dbg        000000018008fa90 f   libucrtd:debug_heap.obj
 0001:0008ead0       _aligned_msize_dbg         000000018008fad0 f   libucrtd:debug_heap.obj
 0001:0008eca0       _aligned_offset_malloc_dbg 000000018008fca0 f   libucrtd:debug_heap.obj
 0001:0008ef90       _aligned_offset_realloc_dbg 000000018008ff90 f   libucrtd:debug_heap.obj
 0001:0008f440       _aligned_offset_recalloc_dbg 0000000180090440 f   libucrtd:debug_heap.obj
 0001:0008f560       _aligned_realloc_dbg       0000000180090560 f   libucrtd:debug_heap.obj
 0001:0008f5b0       _aligned_recalloc_dbg      00000001800905b0 f   libucrtd:debug_heap.obj
 0001:0008f610       _calloc_dbg                0000000180090610 f   libucrtd:debug_heap.obj
 0001:0008f6b0       _expand_dbg                00000001800906b0 f   libucrtd:debug_heap.obj
 0001:0008f7e0       _free_dbg                  00000001800907e0 f   libucrtd:debug_heap.obj
 0001:0008f850       _malloc_dbg                0000000180090850 f   libucrtd:debug_heap.obj
 0001:0008f890       _msize_dbg                 0000000180090890 f   libucrtd:debug_heap.obj
 0001:0008fa30       _realloc_dbg               0000000180090a30 f   libucrtd:debug_heap.obj
 0001:0008faa0       _recalloc_dbg              0000000180090aa0 f   libucrtd:debug_heap.obj
 0001:0008fba0       _initterm                  0000000180090ba0 f   libucrtd:initterm.obj
 0001:0008fc00       _initterm_e                0000000180090c00 f   libucrtd:initterm.obj
 0001:00090150       strcpy_s                   0000000180091150 f   libucrtd:strcpy_s.obj
 0001:000907f0       strcat_s                   00000001800917f0 f   libucrtd:strcat_s.obj
 0001:00090820       ??$?B$$A6AH_K@Z@__crt_fast_encoded_nullptr_t@@QEBAP6AH_K@ZXZ 0000000180091820 f i libucrtd:new_handler.obj
 0001:00090840       ??$__crt_fast_decode_pointer@P6AH_K@Z@@YAP6AH_K@ZQ6AH0@Z@Z 0000000180091840 f i libucrtd:new_handler.obj
 0001:00090880       ??$__crt_fast_encode_pointer@P6AH_K@Z@@YAP6AH_K@ZQ6AH0@Z@Z 0000000180091880 f i libucrtd:new_handler.obj
 0001:000908c0       ?_set_new_handler@@YAP6AH_K@ZH@Z 00000001800918c0 f   libucrtd:new_handler.obj
 0001:00090930       ?initialize@?$dual_state_global@P6AH_K@Z@__crt_state_management@@QEAAXQ6AH_K@Z@Z 0000000180091930 f i libucrtd:new_handler.obj
 0001:00090980       ?value@?$dual_state_global@P6AH_K@Z@__crt_state_management@@QEAAAEAP6AH_K@ZXZ 0000000180091980 f i libucrtd:new_handler.obj
 0001:000909a0       __acrt_initialize_new_handler 00000001800919a0 f   libucrtd:new_handler.obj
 0001:000909c0       _callnewh                  00000001800919c0 f   libucrtd:new_handler.obj
 0001:00090a10       _query_new_handler         0000000180091a10 f   libucrtd:new_handler.obj
 0001:00090a50       _set_new_handler           0000000180091a50 f   libucrtd:new_handler.obj
 0001:00090b00       _get_terminate             0000000180091b00 f   libucrtd:terminate.obj
 0001:00090b20       set_terminate              0000000180091b20 f   libucrtd:terminate.obj
 0001:00090b60       terminate                  0000000180091b60 f   libucrtd:terminate.obj
 0001:00091960       _makepath                  0000000180092960 f   libucrtd:makepath.obj
 0001:000919b0       _makepath_s                00000001800929b0 f   libucrtd:makepath.obj
 0001:00091a00       _wmakepath                 0000000180092a00 f   libucrtd:makepath.obj
 0001:00091a50       _wmakepath_s               0000000180092a50 f   libucrtd:makepath.obj
 0001:00094080       ??$tcsncpy_s@AEAPEAD_KAEAPEBDAEB_K@?$__crt_char_traits@D@@SAHAEAPEAD$$QEA_KAEAPEBDAEB_K@Z 0000000180095080 f i libucrtd:splitpath.obj
 0001:000940d0       ??$tcsncpy_s@AEAPEAD_KAEAPEBDH@?$__crt_char_traits@D@@SAHAEAPEAD$$QEA_KAEAPEBD$$QEAH@Z 00000001800950d0 f i libucrtd:splitpath.obj
 0001:00094120       ??$tcsncpy_s@AEAPEA_W_KAEAPEB_WAEB_K@?$__crt_char_traits@_W@@SAHAEAPEA_W$$QEA_KAEAPEB_WAEB_K@Z 0000000180095120 f i libucrtd:splitpath.obj
 0001:00094170       ??$tcsncpy_s@AEAPEA_W_KAEAPEB_WH@?$__crt_char_traits@_W@@SAHAEAPEA_W$$QEA_KAEAPEB_W$$QEAH@Z 0000000180095170 f i libucrtd:splitpath.obj
 0001:00094420       _splitpath                 0000000180095420 f   libucrtd:splitpath.obj
 0001:00094460       _splitpath_s               0000000180095460 f   libucrtd:splitpath.obj
 0001:00094500       _wsplitpath                0000000180095500 f   libucrtd:splitpath.obj
 0001:00094540       _wsplitpath_s              0000000180095540 f   libucrtd:splitpath.obj
 0001:000945e0       _set_abort_behavior        00000001800955e0 f   libucrtd:abort.obj
 0001:00094620       abort                      0000000180095620 f   libucrtd:abort.obj
 0001:000946b0       strcmp                     00000001800956b0 f   libucrtd:strcmp.obj
 0001:00094730       strlen                     0000000180095730 f   libucrtd:strlen.obj
 0001:000947e0       ??$is_overflow_condition@K@__crt_strtox@@YA_NIK@Z 00000001800957e0 f i libucrtd:atox.obj
 0001:00094850       ??$is_overflow_condition@_K@__crt_strtox@@YA_NI_K@Z 0000000180095850 f i libucrtd:atox.obj
 0001:000948c0       ??$make_c_string_character_source@D$$T@__crt_strtox@@YA?AV?$c_string_character_source@D@0@QEBD$$T@Z 00000001800958c0 f i libucrtd:atox.obj
 0001:00094900       ??$make_c_string_character_source@_W$$T@__crt_strtox@@YA?AV?$c_string_character_source@_W@0@QEB_W$$T@Z 0000000180095900 f i libucrtd:atox.obj
 0001:00094940       ??$parse_integer@KV?$c_string_character_source@D@__crt_strtox@@@__crt_strtox@@YAKQEAU__crt_locale_pointers@@V?$c_string_character_source@D@0@H_N@Z 0000000180095940 f i libucrtd:atox.obj
 0001:00094dd0       ??$parse_integer@KV?$c_string_character_source@_W@__crt_strtox@@@__crt_strtox@@YAKQEAU__crt_locale_pointers@@V?$c_string_character_source@_W@0@H_N@Z 0000000180095dd0 f i libucrtd:atox.obj
 0001:00095280       ??$parse_integer@_KV?$c_string_character_source@D@__crt_strtox@@@__crt_strtox@@YA_KQEAU__crt_locale_pointers@@V?$c_string_character_source@D@0@H_N@Z 0000000180096280 f i libucrtd:atox.obj
 0001:000957a0       ??$parse_integer@_KV?$c_string_character_source@_W@__crt_strtox@@@__crt_strtox@@YA_KQEAU__crt_locale_pointers@@V?$c_string_character_source@_W@0@H_N@Z 00000001800967a0 f i libucrtd:atox.obj
 0001:00095cc0       ??$parse_integer_from_string@JD$$T@__crt_strtox@@YAJQEBD$$THQEAU__crt_locale_pointers@@@Z 0000000180096cc0 f i libucrtd:atox.obj
 0001:00095d10       ??$parse_integer_from_string@J_W$$T@__crt_strtox@@YAJQEB_W$$THQEAU__crt_locale_pointers@@@Z 0000000180096d10 f i libucrtd:atox.obj
 0001:00095d60       ??$parse_integer_from_string@_JD$$T@__crt_strtox@@YA_JQEBD$$THQEAU__crt_locale_pointers@@@Z 0000000180096d60 f i libucrtd:atox.obj
 0001:00095db0       ??$parse_integer_from_string@_J_W$$T@__crt_strtox@@YA_JQEB_W$$THQEAU__crt_locale_pointers@@@Z 0000000180096db0 f i libucrtd:atox.obj
 0001:00095e00       ??0?$c_string_character_source@D@__crt_strtox@@QEAA@QEBDQEAPEBD@Z 0000000180096e00 f i libucrtd:atox.obj
 0001:00095e50       ??0?$c_string_character_source@_W@__crt_strtox@@QEAA@QEB_WQEAPEB_W@Z 0000000180096e50 f i libucrtd:atox.obj
 0001:00095ea0       ??1?$c_string_character_source@D@__crt_strtox@@QEAA@XZ 0000000180096ea0 f i libucrtd:atox.obj
 0001:00095ed0       ??1?$c_string_character_source@_W@__crt_strtox@@QEAA@XZ 0000000180096ed0 f i libucrtd:atox.obj
 0001:00095f00       ?get@?$c_string_character_source@D@__crt_strtox@@QEAADXZ 0000000180096f00 f i libucrtd:atox.obj
 0001:00095f40       ?get@?$c_string_character_source@_W@__crt_strtox@@QEAA_WXZ 0000000180096f40 f i libucrtd:atox.obj
 0001:00095f80       ?is_space@__crt_strtox@@YA_NDQEAU__crt_locale_pointers@@@Z 0000000180096f80 f i libucrtd:atox.obj
 0001:00095fd0       ?is_space@__crt_strtox@@YA_N_WPEAU__crt_locale_pointers@@@Z 0000000180096fd0 f i libucrtd:atox.obj
 0001:00096010       ?maximum_signed_value@__crt_strtox@@YAJK@Z 0000000180097010 f i libucrtd:atox.obj
 0001:00096020       ?maximum_signed_value@__crt_strtox@@YA_J_K@Z 0000000180097020 f i libucrtd:atox.obj
 0001:00096030       ?minimum_signed_value@__crt_strtox@@YAJK@Z 0000000180097030 f i libucrtd:atox.obj
 0001:00096040       ?minimum_signed_value@__crt_strtox@@YA_J_K@Z 0000000180097040 f i libucrtd:atox.obj
 0001:00096050       ?parse_digit@__crt_strtox@@YAID@Z 0000000180097050 f i libucrtd:atox.obj
 0001:000960c0       ?parse_digit@__crt_strtox@@YAI_W@Z 00000001800970c0 f i libucrtd:atox.obj
 0001:00096110       ?restore_state@?$c_string_character_source@D@__crt_strtox@@QEAA_NQEBD@Z 0000000180097110 f i libucrtd:atox.obj
 0001:00096130       ?restore_state@?$c_string_character_source@_W@__crt_strtox@@QEAA_NQEB_W@Z 0000000180097130 f i libucrtd:atox.obj
 0001:00096150       ?save_state@?$c_string_character_source@D@__crt_strtox@@QEBAPEBDXZ 0000000180097150 f i libucrtd:atox.obj
 0001:00096160       ?save_state@?$c_string_character_source@_W@__crt_strtox@@QEBAPEB_WXZ 0000000180097160 f i libucrtd:atox.obj
 0001:00096170       ?unget@?$c_string_character_source@D@__crt_strtox@@QEAAXD@Z 0000000180097170 f i libucrtd:atox.obj
 0001:00096250       ?unget@?$c_string_character_source@_W@__crt_strtox@@QEAAX_W@Z 0000000180097250 f i libucrtd:atox.obj
 0001:00096330       ?validate@?$c_string_character_source@D@__crt_strtox@@QEBA_NXZ 0000000180097330 f i libucrtd:atox.obj
 0001:000963f0       ?validate@?$c_string_character_source@_W@__crt_strtox@@QEBA_NXZ 00000001800973f0 f i libucrtd:atox.obj
 0001:000964b0       ?wide_character_to_digit@__crt_strtox@@YAH_W@Z 00000001800974b0 f i libucrtd:atox.obj
 0001:00096820       __ascii_iswalpha           0000000180097820 f i libucrtd:atox.obj
 0001:00096860       __ascii_toupper            0000000180097860 f i libucrtd:atox.obj
 0001:00096880       __ascii_towupper           0000000180097880 f i libucrtd:atox.obj
 0001:000968a0       _atoi64                    00000001800978a0 f   libucrtd:atox.obj
 0001:000968d0       _atoi64_l                  00000001800978d0 f   libucrtd:atox.obj
 0001:00096900       _atoi_l                    0000000180097900 f   libucrtd:atox.obj
 0001:00096930       _atol_l                    0000000180097930 f   libucrtd:atox.obj
 0001:00096960       _atoll_l                   0000000180097960 f   libucrtd:atox.obj
 0001:00096990       _wtoi                      0000000180097990 f   libucrtd:atox.obj
 0001:000969c0       _wtoi64                    00000001800979c0 f   libucrtd:atox.obj
 0001:000969f0       _wtoi64_l                  00000001800979f0 f   libucrtd:atox.obj
 0001:00096a20       _wtoi_l                    0000000180097a20 f   libucrtd:atox.obj
 0001:00096a50       _wtol                      0000000180097a50 f   libucrtd:atox.obj
 0001:00096a80       _wtol_l                    0000000180097a80 f   libucrtd:atox.obj
 0001:00096ab0       _wtoll                     0000000180097ab0 f   libucrtd:atox.obj
 0001:00096ae0       _wtoll_l                   0000000180097ae0 f   libucrtd:atox.obj
 0001:00096b10       atoi                       0000000180097b10 f   libucrtd:atox.obj
 0001:00096b40       atol                       0000000180097b40 f   libucrtd:atox.obj
 0001:00096b70       atoll                      0000000180097b70 f   libucrtd:atox.obj
 0001:00096bb0       strncmp                    0000000180097bb0 f   libucrtd:strncmp.obj
 0001:00096c30       wcsncmp                    0000000180097c30 f   libucrtd:wcsncmp.obj
 0001:00096cc0       _CrtGetDebugFillThreshold  0000000180097cc0 f   libucrtd:debug_fill_threshold.obj
 0001:00096cd0       _CrtSetDebugFillThreshold  0000000180097cd0 f   libucrtd:debug_fill_threshold.obj
 0001:00096d00       ??$make_c_string_character_source@DPEAPEAD@__crt_strtox@@YA?AV?$c_string_character_source@D@0@QEBDQEAPEAD@Z 0000000180097d00 f i libucrtd:strtox.obj
 0001:00096d40       ??$make_c_string_character_source@_WPEAPEA_W@__crt_strtox@@YA?AV?$c_string_character_source@_W@0@QEB_WQEAPEA_W@Z 0000000180097d40 f i libucrtd:strtox.obj
 0001:00096d80       ??$parse_integer_from_string@JDPEAPEAD@__crt_strtox@@YAJQEBDQEAPEADHQEAU__crt_locale_pointers@@@Z 0000000180097d80 f i libucrtd:strtox.obj
 0001:00096dd0       ??$parse_integer_from_string@J_WPEAPEA_W@__crt_strtox@@YAJQEB_WQEAPEA_WHQEAU__crt_locale_pointers@@@Z 0000000180097dd0 f i libucrtd:strtox.obj
 0001:00096e20       ??$parse_integer_from_string@KDPEAPEAD@__crt_strtox@@YAKQEBDQEAPEADHQEAU__crt_locale_pointers@@@Z 0000000180097e20 f i libucrtd:strtox.obj
 0001:00096e70       ??$parse_integer_from_string@K_WPEAPEA_W@__crt_strtox@@YAKQEB_WQEAPEA_WHQEAU__crt_locale_pointers@@@Z 0000000180097e70 f i libucrtd:strtox.obj
 0001:00096ec0       ??$parse_integer_from_string@_JDPEAPEAD@__crt_strtox@@YA_JQEBDQEAPEADHQEAU__crt_locale_pointers@@@Z 0000000180097ec0 f i libucrtd:strtox.obj
 0001:00096f10       ??$parse_integer_from_string@_J_WPEAPEA_W@__crt_strtox@@YA_JQEB_WQEAPEA_WHQEAU__crt_locale_pointers@@@Z 0000000180097f10 f i libucrtd:strtox.obj
 0001:00096f60       ??$parse_integer_from_string@_KDPEAPEAD@__crt_strtox@@YA_KQEBDQEAPEADHQEAU__crt_locale_pointers@@@Z 0000000180097f60 f i libucrtd:strtox.obj
 0001:00096fb0       ??$parse_integer_from_string@_K_WPEAPEA_W@__crt_strtox@@YA_KQEB_WQEAPEA_WHQEAU__crt_locale_pointers@@@Z 0000000180097fb0 f i libucrtd:strtox.obj
 0001:00097000       _strtoi64                  0000000180098000 f   libucrtd:strtox.obj
 0001:00097030       _strtoi64_l                0000000180098030 f   libucrtd:strtox.obj
 0001:00097070       _strtoimax_l               0000000180098070 f   libucrtd:strtox.obj
 0001:000970b0       _strtol_l                  00000001800980b0 f   libucrtd:strtox.obj
 0001:000970f0       _strtoll_l                 00000001800980f0 f   libucrtd:strtox.obj
 0001:00097130       _strtoui64                 0000000180098130 f   libucrtd:strtox.obj
 0001:00097160       _strtoui64_l               0000000180098160 f   libucrtd:strtox.obj
 0001:000971a0       _strtoul_l                 00000001800981a0 f   libucrtd:strtox.obj
 0001:000971e0       _strtoull_l                00000001800981e0 f   libucrtd:strtox.obj
 0001:00097220       _strtoumax_l               0000000180098220 f   libucrtd:strtox.obj
 0001:00097260       _wcstoi64                  0000000180098260 f   libucrtd:strtox.obj
 0001:00097290       _wcstoi64_l                0000000180098290 f   libucrtd:strtox.obj
 0001:000972d0       _wcstoimax_l               00000001800982d0 f   libucrtd:strtox.obj
 0001:00097310       _wcstol_l                  0000000180098310 f   libucrtd:strtox.obj
 0001:00097350       _wcstoll_l                 0000000180098350 f   libucrtd:strtox.obj
 0001:00097390       _wcstoui64                 0000000180098390 f   libucrtd:strtox.obj
 0001:000973c0       _wcstoui64_l               00000001800983c0 f   libucrtd:strtox.obj
 0001:00097400       _wcstoul_l                 0000000180098400 f   libucrtd:strtox.obj
 0001:00097440       _wcstoull_l                0000000180098440 f   libucrtd:strtox.obj
 0001:00097480       _wcstoumax_l               0000000180098480 f   libucrtd:strtox.obj
 0001:000974c0       strtoimax                  00000001800984c0 f   libucrtd:strtox.obj
 0001:000974f0       strtol                     00000001800984f0 f   libucrtd:strtox.obj
 0001:00097520       strtoll                    0000000180098520 f   libucrtd:strtox.obj
 0001:00097550       strtoul                    0000000180098550 f   libucrtd:strtox.obj
 0001:00097580       strtoull                   0000000180098580 f   libucrtd:strtox.obj
 0001:000975b0       strtoumax                  00000001800985b0 f   libucrtd:strtox.obj
 0001:000975e0       wcstoimax                  00000001800985e0 f   libucrtd:strtox.obj
 0001:00097610       wcstol                     0000000180098610 f   libucrtd:strtox.obj
 0001:00097640       wcstoll                    0000000180098640 f   libucrtd:strtox.obj
 0001:00097670       wcstoul                    0000000180098670 f   libucrtd:strtox.obj
 0001:000976a0       wcstoull                   00000001800986a0 f   libucrtd:strtox.obj
 0001:000976d0       wcstoumax                  00000001800986d0 f   libucrtd:strtox.obj
 0001:00097700       _mbtowc_l                  0000000180098700 f   libucrtd:mbtowc.obj
 0001:00097b60       mbtowc                     0000000180098b60 f   libucrtd:mbtowc.obj
 0001:00097b90       _wctomb_l                  0000000180098b90 f   libucrtd:wctomb.obj
 0001:00097c50       _wctomb_s_l                0000000180098c50 f   libucrtd:wctomb.obj
 0001:000981d0       wctomb                     00000001800991d0 f   libucrtd:wctomb.obj
 0001:00098230       wctomb_s                   0000000180099230 f   libucrtd:wctomb.obj
 0001:00098280       ??$?RU__acrt_ptd@@@__crt_internal_free_policy@@QEBAXQEBU__acrt_ptd@@@Z 0000000180099280 f i libucrtd:per_thread_data.obj
 0001:00098680       ??0?$__crt_unique_heap_ptr@U__acrt_ptd@@U__crt_internal_free_policy@@@@QEAA@QEAU__acrt_ptd@@@Z 0000000180099680 f i libucrtd:per_thread_data.obj
 0001:000986a0       ??0__crt_scoped_get_last_error_reset@@QEAA@XZ 00000001800996a0 f i libucrtd:per_thread_data.obj
 0001:000986c0       ??1?$__crt_unique_heap_ptr@U__acrt_ptd@@U__crt_internal_free_policy@@@@QEAA@XZ 00000001800996c0 f i libucrtd:per_thread_data.obj
 0001:000986e0       ??1__crt_scoped_get_last_error_reset@@QEAA@XZ 00000001800996e0 f i libucrtd:per_thread_data.obj
 0001:00098700       ??B?$__crt_unique_heap_ptr@U__acrt_ptd@@U__crt_internal_free_policy@@@@QEBA_NXZ 0000000180099700 f i libucrtd:per_thread_data.obj
 0001:00098a50       ?dangerous_get_state_array@?$dual_state_global@PEAU__crt_locale_data@@@__crt_state_management@@QEAAPEAPEAU__crt_locale_data@@XZ 0000000180099a50 f i libucrtd:per_thread_data.obj
 0001:00098c10       ?detach@?$__crt_unique_heap_ptr@U__acrt_ptd@@U__crt_internal_free_policy@@@@QEAAPEAU__acrt_ptd@@XZ 0000000180099c10 f i libucrtd:per_thread_data.obj
 0001:00098c40       ?get@?$__crt_unique_heap_ptr@U__acrt_ptd@@U__crt_internal_free_policy@@@@QEBAPEAU__acrt_ptd@@XZ 0000000180099c40 f i libucrtd:per_thread_data.obj
 0001:00098c50       ?get_current_state_index@__crt_state_management@@YA_KAEBV__crt_scoped_get_last_error_reset@@@Z 0000000180099c50 f i libucrtd:per_thread_data.obj
 0001:00098e00       ?is_valid@?$__crt_unique_heap_ptr@U__acrt_ptd@@U__crt_internal_free_policy@@@@QEBA_NXZ 0000000180099e00 f i libucrtd:per_thread_data.obj
 0001:00098e30       ?release@?$__crt_unique_heap_ptr@U__acrt_ptd@@U__crt_internal_free_policy@@@@QEAAXXZ 0000000180099e30 f i libucrtd:per_thread_data.obj
 0001:00098f60       ?value@?$dual_state_global@PEAU__crt_locale_data@@@__crt_state_management@@QEAAAEAPEAU__crt_locale_data@@XZ 0000000180099f60 f i libucrtd:per_thread_data.obj
 0001:00098f80       __acrt_freeptd             0000000180099f80 f   libucrtd:per_thread_data.obj
 0001:00098fc0       __acrt_getptd              0000000180099fc0 f   libucrtd:per_thread_data.obj
 0001:00098ff0       __acrt_getptd_head         0000000180099ff0 f   libucrtd:per_thread_data.obj
 0001:00099020       __acrt_getptd_noexit       000000018009a020 f   libucrtd:per_thread_data.obj
 0001:00099030       __acrt_initialize_ptd      000000018009a030 f   libucrtd:per_thread_data.obj
 0001:00099070       __acrt_uninitialize_ptd    000000018009a070 f   libucrtd:per_thread_data.obj
 0001:000990a0       __threadhandle             000000018009a0a0 f   libucrtd:per_thread_data.obj
 0001:000990b0       __threadid                 000000018009a0b0 f   libucrtd:per_thread_data.obj
 0001:000990c0       ?value@?$dual_state_global@PEAU__crt_multibyte_data@@@__crt_state_management@@QEAAAEAPEAU__crt_multibyte_data@@XZ 000000018009a0c0 f i libucrtd:locale_update.obj
 0001:000990e0       __acrt_update_locale_info  000000018009a0e0 f   libucrtd:locale_update.obj
 0001:00099130       __acrt_update_multibyte_info 000000018009a130 f   libucrtd:locale_update.obj
 0001:00099180       ?__acrt_fp_classify@@YA?AW4__acrt_fp_class@@AEBN@Z 000000018009a180 f i libucrtd:cvt.obj
 0001:00099280       ?__acrt_fp_is_negative@@YA_NAEBN@Z 000000018009a280 f i libucrtd:cvt.obj
 0001:0009a930       ?strrchr@@YAPEADQEADH@Z    000000018009b930 f i libucrtd:cvt.obj
 0001:0009a950       __acrt_fp_format           000000018009b950 f   libucrtd:cvt.obj
 0001:0009afc0       _fputwc_nolock             000000018009bfc0 f   libucrtd:fputwc.obj
 0001:0009b230       _fputwchar                 000000018009c230 f   libucrtd:fputwc.obj
 0001:0009b260       _putwc_nolock              000000018009c260 f   libucrtd:fputwc.obj
 0001:0009b290       fputwc                     000000018009c290 f   libucrtd:fputwc.obj
 0001:0009b380       putwc                      000000018009c380 f   libucrtd:fputwc.obj
 0001:0009b3b0       putwchar                   000000018009c3b0 f   libucrtd:fputwc.obj
 0001:0009b3d0       ?lowio_handle@__crt_stdio_stream@@QEBAHXZ 000000018009c3d0 f i libucrtd:fileno.obj
 0001:0009b400       _fileno                    000000018009c400 f   libucrtd:fileno.obj
 0001:0009b4e0       ??$?RPEAU__crt_stdio_stream_data@@@__crt_internal_free_policy@@QEBAXQEBQEAU__crt_stdio_stream_data@@@Z 000000018009c4e0 f i libucrtd:_file.obj
 0001:0009b510       ??0?$__crt_unique_heap_ptr@PEAU__crt_stdio_stream_data@@U__crt_internal_free_policy@@@@QEAA@QEAPEAU__crt_stdio_stream_data@@@Z 000000018009c510 f i libucrtd:_file.obj
 0001:0009b530       ??1?$__crt_unique_heap_ptr@PEAU__crt_stdio_stream_data@@U__crt_internal_free_policy@@@@QEAA@XZ 000000018009c530 f i libucrtd:_file.obj
 0001:0009b550       ?detach@?$__crt_unique_heap_ptr@PEAU__crt_stdio_stream_data@@U__crt_internal_free_policy@@@@QEAAPEAPEAU__crt_stdio_stream_data@@XZ 000000018009c550 f i libucrtd:_file.obj
 0001:0009b580       ?release@?$__crt_unique_heap_ptr@PEAU__crt_stdio_stream_data@@U__crt_internal_free_policy@@@@QEAAXXZ 000000018009c580 f i libucrtd:_file.obj
 0001:0009b5b0       __acrt_initialize_stdio    000000018009c5b0 f   libucrtd:_file.obj
 0001:0009b7a0       __acrt_iob_func            000000018009c7a0 f   libucrtd:_file.obj
 0001:0009b7c0       __acrt_uninitialize_stdio  000000018009c7c0 f   libucrtd:_file.obj
 0001:0009b850       _get_stream_buffer_pointers 000000018009c850 f   libucrtd:_file.obj
 0001:0009b980       _lock_file                 000000018009c980 f   libucrtd:_file.obj
 0001:0009b9c0       _unlock_file               000000018009c9c0 f   libucrtd:_file.obj
 0001:0009ba00       _get_printf_count_output   000000018009ca00 f   libucrtd:printf_count_output.obj
 0001:0009ba30       _set_printf_count_output   000000018009ca30 f   libucrtd:printf_count_output.obj
 0001:0009baa0       ?has_any_buffer@__crt_stdio_stream@@QEBA_NXZ 000000018009caa0 f i libucrtd:_sftbuf.obj
 0001:0009bac0       ?has_any_of@__crt_stdio_stream@@QEBA_NJ@Z 000000018009cac0 f i libucrtd:_sftbuf.obj
 0001:0009bb00       ?has_temporary_buffer@__crt_stdio_stream@@QEBA_NXZ 000000018009cb00 f i libucrtd:_sftbuf.obj
 0001:0009bb20       ?set_flags@__crt_stdio_stream@@QEBA_NJ@Z 000000018009cb20 f i libucrtd:_sftbuf.obj
 0001:0009bb90       ?unset_flags@__crt_stdio_stream@@QEBA_NJ@Z 000000018009cb90 f i libucrtd:_sftbuf.obj
 0001:0009bbf0       __acrt_stdio_begin_temporary_buffering_nolock 000000018009cbf0 f   libucrtd:_sftbuf.obj
 0001:0009be30       __acrt_stdio_end_temporary_buffering_nolock 000000018009ce30 f   libucrtd:_sftbuf.obj
 0001:0009bee0       ??$?RU__crt_locale_data@@@__crt_internal_free_policy@@QEBAXQEBU__crt_locale_data@@@Z 000000018009cee0 f i libucrtd:wsetlocale.obj
 0001:0009bf10       ??$?RU__crt_locale_pointers@@@__crt_internal_free_policy@@QEBAXQEBU__crt_locale_pointers@@@Z 000000018009cf10 f i libucrtd:wsetlocale.obj
 0001:0009bf40       ??$?RU__crt_multibyte_data@@@__crt_internal_free_policy@@QEBAXQEBU__crt_multibyte_data@@@Z 000000018009cf40 f i libucrtd:wsetlocale.obj
 0001:0009c4a0       ??0?$__crt_unique_heap_ptr@U__crt_locale_data@@U__crt_internal_free_policy@@@@QEAA@QEAU__crt_locale_data@@@Z 000000018009d4a0 f i libucrtd:wsetlocale.obj
 0001:0009c4c0       ??0?$__crt_unique_heap_ptr@U__crt_locale_pointers@@U__crt_internal_free_policy@@@@QEAA@QEAU__crt_locale_pointers@@@Z 000000018009d4c0 f i libucrtd:wsetlocale.obj
 0001:0009c4e0       ??0?$__crt_unique_heap_ptr@U__crt_multibyte_data@@U__crt_internal_free_policy@@@@QEAA@QEAU__crt_multibyte_data@@@Z 000000018009d4e0 f i libucrtd:wsetlocale.obj
 0001:0009c500       ??0_expandlocale_locale_name_cache@@QEAA@QEA_W_KQEAU__crt_qualified_locale_data@@@Z 000000018009d500 f i libucrtd:wsetlocale.obj
 0001:0009c5b0       ??1?$__crt_unique_heap_ptr@U__crt_locale_data@@U__crt_internal_free_policy@@@@QEAA@XZ 000000018009d5b0 f i libucrtd:wsetlocale.obj
 0001:0009c5d0       ??1?$__crt_unique_heap_ptr@U__crt_locale_pointers@@U__crt_internal_free_policy@@@@QEAA@XZ 000000018009d5d0 f i libucrtd:wsetlocale.obj
 0001:0009c5f0       ??1?$__crt_unique_heap_ptr@U__crt_multibyte_data@@U__crt_internal_free_policy@@@@QEAA@XZ 000000018009d5f0 f i libucrtd:wsetlocale.obj
 0001:0009c610       ??1_expandlocale_locale_name_cache@@QEAA@XZ 000000018009d610 f i libucrtd:wsetlocale.obj
 0001:0009c690       ??B?$__crt_unique_heap_ptr@U__crt_locale_data@@U__crt_internal_free_policy@@@@QEBA_NXZ 000000018009d690 f i libucrtd:wsetlocale.obj
 0001:0009c6b0       ??B?$__crt_unique_heap_ptr@U__crt_locale_pointers@@U__crt_internal_free_policy@@@@QEBA_NXZ 000000018009d6b0 f i libucrtd:wsetlocale.obj
 0001:0009c6d0       ??B?$__crt_unique_heap_ptr@U__crt_multibyte_data@@U__crt_internal_free_policy@@@@QEBA_NXZ 000000018009d6d0 f i libucrtd:wsetlocale.obj
 0001:0009cb80       ?commit_locale_name@_expandlocale_locale_name_cache@@QEAAXQEB_W_K@Z 000000018009db80 f i libucrtd:wsetlocale.obj
 0001:0009cc00       ?commit_locale_name_cache_already_updated@_expandlocale_locale_name_cache@@QEAAXQEB_W_K@Z 000000018009dc00 f i libucrtd:wsetlocale.obj
 0001:0009cc70       ?detach@?$__crt_unique_heap_ptr@U__crt_locale_data@@U__crt_internal_free_policy@@@@QEAAPEAU__crt_locale_data@@XZ 000000018009dc70 f i libucrtd:wsetlocale.obj
 0001:0009cca0       ?detach@?$__crt_unique_heap_ptr@U__crt_locale_pointers@@U__crt_internal_free_policy@@@@QEAAPEAU__crt_locale_pointers@@XZ 000000018009dca0 f i libucrtd:wsetlocale.obj
 0001:0009ccd0       ?detach@?$__crt_unique_heap_ptr@U__crt_multibyte_data@@U__crt_internal_free_policy@@@@QEAAPEAU__crt_multibyte_data@@XZ 000000018009dcd0 f i libucrtd:wsetlocale.obj
 0001:0009cd00       ?get@?$__crt_unique_heap_ptr@U__crt_locale_data@@U__crt_internal_free_policy@@@@QEBAPEAU__crt_locale_data@@XZ 000000018009dd00 f i libucrtd:wsetlocale.obj
 0001:0009cd10       ?get@?$__crt_unique_heap_ptr@U__crt_locale_pointers@@U__crt_internal_free_policy@@@@QEBAPEAU__crt_locale_pointers@@XZ 000000018009dd10 f i libucrtd:wsetlocale.obj
 0001:0009cd20       ?get@?$__crt_unique_heap_ptr@U__crt_multibyte_data@@U__crt_internal_free_policy@@@@QEBAPEAU__crt_multibyte_data@@XZ 000000018009dd20 f i libucrtd:wsetlocale.obj
 0001:0009cd30       ?is_valid@?$__crt_unique_heap_ptr@U__crt_locale_data@@U__crt_internal_free_policy@@@@QEBA_NXZ 000000018009dd30 f i libucrtd:wsetlocale.obj
 0001:0009cd60       ?is_valid@?$__crt_unique_heap_ptr@U__crt_locale_pointers@@U__crt_internal_free_policy@@@@QEBA_NXZ 000000018009dd60 f i libucrtd:wsetlocale.obj
 0001:0009cd90       ?is_valid@?$__crt_unique_heap_ptr@U__crt_multibyte_data@@U__crt_internal_free_policy@@@@QEBA_NXZ 000000018009dd90 f i libucrtd:wsetlocale.obj
 0001:0009cdc0       ?release@?$__crt_unique_heap_ptr@U__crt_locale_data@@U__crt_internal_free_policy@@@@QEAAXXZ 000000018009ddc0 f i libucrtd:wsetlocale.obj
 0001:0009cdf0       ?release@?$__crt_unique_heap_ptr@U__crt_locale_pointers@@U__crt_internal_free_policy@@@@QEAAXXZ 000000018009ddf0 f i libucrtd:wsetlocale.obj
 0001:0009ce20       ?release@?$__crt_unique_heap_ptr@U__crt_multibyte_data@@U__crt_internal_free_policy@@@@QEAAXXZ 000000018009de20 f i libucrtd:wsetlocale.obj
 0001:0009ce50       __acrt_copy_locale_name    000000018009de50 f   libucrtd:wsetlocale.obj
 0001:0009cf20       __acrt_set_locale_changed  000000018009df20 f   libucrtd:wsetlocale.obj
 0001:0009cf30       __acrt_uninitialize_locale 000000018009df30 f   libucrtd:wsetlocale.obj
 0001:0009cf60       __ascii_tolower            000000018009df60 f i libucrtd:wsetlocale.obj
 0001:0009cf80       __ascii_towlower           000000018009df80 f i libucrtd:wsetlocale.obj
 0001:0009cfa0       __lc_lctowcs               000000018009dfa0 f   libucrtd:wsetlocale.obj
 0001:0009d090       __lc_wcstolc               000000018009e090 f   libucrtd:wsetlocale.obj
 0001:0009d350       _configthreadlocale        000000018009e350 f   libucrtd:wsetlocale.obj
 0001:0009d510       _create_locale             000000018009e510 f   libucrtd:wsetlocale.obj
 0001:0009dc10       _free_locale               000000018009ec10 f   libucrtd:wsetlocale.obj
 0001:0009dd00       _get_current_locale        000000018009ed00 f   libucrtd:wsetlocale.obj
 0001:0009de10       _wcreate_locale            000000018009ee10 f   libucrtd:wsetlocale.obj
 0001:0009e100       _wcscats                   000000018009f100 f   libucrtd:wsetlocale.obj
 0001:0009e1e0       _wsetlocale                000000018009f1e0 f   libucrtd:wsetlocale.obj
 0001:0009fe00       __p___mb_cur_max           00000001800a0e00 f   libucrtd:nlsdata.obj
 0001:000a01e0       __acrt_initialize_lowio    00000001800a11e0 f   libucrtd:ioinit.obj
 0001:000a0230       __acrt_uninitialize_lowio  00000001800a1230 f   libucrtd:ioinit.obj
 0001:000a02b0       _CrtGetReportHook          00000001800a12b0 f   libucrtd:dbgrptt.obj
 0001:000a02c0       _CrtSetReportFile          00000001800a12c0 f   libucrtd:dbgrptt.obj
 0001:000a0420       _CrtSetReportHook          00000001800a1420 f   libucrtd:dbgrptt.obj
 0001:000a0450       _CrtSetReportMode          00000001800a1450 f   libucrtd:dbgrptt.obj
 0001:000a0600       _VCrtDbgReportA            00000001800a1600 f   libucrtd:dbgrptt.obj
 0001:000a0fe0       _VCrtDbgReportW            00000001800a1fe0 f   libucrtd:dbgrptt.obj
 0001:000a1b60       _snprintf_s                00000001800a2b60 f i libucrtd:dbgrptt.obj
 0001:000a1bd0       _vsnprintf_s               00000001800a2bd0 f i libucrtd:dbgrptt.obj
 0001:000a1c20       _vsnprintf_s_l             00000001800a2c20 f i libucrtd:dbgrptt.obj
 0001:000a1e40       ??$__acrt_wcs_to_mbs_cp@U__crt_win32_buffer_no_resizing@@@@YAHQEB_WAEAV?$__crt_win32_buffer@DU__crt_win32_buffer_no_resizing@@@@I@Z 00000001800a2e40 f i libucrtd:getmodulefilenamea.obj
 0001:000a1e90       ??0?$__crt_win32_buffer@DU__crt_win32_buffer_no_resizing@@@@QEAA@QEAD_K@Z 00000001800a2e90 f i libucrtd:getmodulefilenamea.obj
 0001:000a1f00       ??1?$__crt_win32_buffer@DU__crt_win32_buffer_no_resizing@@@@QEAA@XZ 00000001800a2f00 f i libucrtd:getmodulefilenamea.obj
 0001:000a1f90       ?__acrt_get_utf8_acp_compatibility_codepage@@YAIXZ 00000001800a2f90 f i libucrtd:getmodulefilenamea.obj
 0001:000a2030       ?_deallocate@?$__crt_win32_buffer@DU__crt_win32_buffer_no_resizing@@@@AEAAXXZ 00000001800a3030 f i libucrtd:getmodulefilenamea.obj
 0001:000a2070       ?allocate@?$__crt_win32_buffer@DU__crt_win32_buffer_no_resizing@@@@QEAAH_K@Z 00000001800a3070 f i libucrtd:getmodulefilenamea.obj
 0001:000a20f0       ?allocate@__crt_win32_buffer_no_resizing@@SAHQEAPEAX_KAEBV__crt_win32_buffer_empty_debug_info@@@Z 00000001800a30f0 f i libucrtd:getmodulefilenamea.obj
 0001:000a2120       ?capacity@?$__crt_win32_buffer@DU__crt_win32_buffer_no_resizing@@@@QEBA_KXZ 00000001800a3120 f i libucrtd:getmodulefilenamea.obj
 0001:000a2130       ?data@?$__crt_win32_buffer@DU__crt_win32_buffer_no_resizing@@@@QEAAPEADXZ 00000001800a3130 f i libucrtd:getmodulefilenamea.obj
 0001:000a2140       ?deallocate@__crt_win32_buffer_no_resizing@@SAXQEAXAEBV__crt_win32_buffer_empty_debug_info@@@Z 00000001800a3140 f i libucrtd:getmodulefilenamea.obj
 0001:000a2150       ?debug_info@?$__crt_win32_buffer@DU__crt_win32_buffer_no_resizing@@@@QEBAAEBV__crt_win32_buffer_empty_debug_info@@XZ 00000001800a3150 f i libucrtd:getmodulefilenamea.obj
 0001:000a2160       ?set_to_nullptr@?$__crt_win32_buffer@DU__crt_win32_buffer_no_resizing@@@@QEAAXXZ 00000001800a3160 f i libucrtd:getmodulefilenamea.obj
 0001:000a21a0       ?size@?$__crt_win32_buffer@DU__crt_win32_buffer_no_resizing@@@@QEAAX_K@Z 00000001800a31a0 f i libucrtd:getmodulefilenamea.obj
 0001:000a21c0       ?size@?$__crt_win32_buffer@DU__crt_win32_buffer_no_resizing@@@@QEBA_KXZ 00000001800a31c0 f i libucrtd:getmodulefilenamea.obj
 0001:000a21d0       __acrt_GetModuleFileNameA  00000001800a31d0 f   libucrtd:getmodulefilenamea.obj
 0001:000a2530       ??$message_box@$$TAEBQEBDAEBQEBDK@?$__crt_char_traits@D@@SAH$$QEA$$TAEBQEBD1$$QEAK@Z 00000001800a3530 f i libucrtd:crtmbox.obj
 0001:000a2580       ??$message_box@$$TAEBQEB_WAEBQEB_WK@?$__crt_char_traits@_W@@SAH$$QEA$$TAEBQEB_W1$$QEAK@Z 00000001800a3580 f i libucrtd:crtmbox.obj
 0001:000a25d0       ??$message_box@PEAUHWND__@@AEBQEBDAEBQEBDAEBI@?$__crt_char_traits@D@@SAH$$QEAPEAUHWND__@@AEBQEBD1AEBI@Z 00000001800a35d0 f i libucrtd:crtmbox.obj
 0001:000a2620       ??$message_box@PEAUHWND__@@AEBQEB_WAEBQEB_WAEBI@?$__crt_char_traits@_W@@SAH$$QEAPEAUHWND__@@AEBQEB_W1AEBI@Z 00000001800a3620 f i libucrtd:crtmbox.obj
 0001:000a2670       ??$output_debug_string@AEBQEBD@?$__crt_char_traits@D@@SAXAEBQEBD@Z 00000001800a3670 f i libucrtd:crtmbox.obj
 0001:000a2690       ??$output_debug_string@AEBQEB_W@?$__crt_char_traits@_W@@SAXAEBQEB_W@Z 00000001800a3690 f i libucrtd:crtmbox.obj
 0001:000a26b0       __acrt_show_narrow_message_box 00000001800a36b0 f   libucrtd:crtmbox.obj
 0001:000a26e0       __acrt_show_wide_message_box 00000001800a36e0 f   libucrtd:crtmbox.obj
 0001:000a2710       __acrt_initialize_locks    00000001800a3710 f   libucrtd:locks.obj
 0001:000a2780       __acrt_lock                00000001800a3780 f   libucrtd:locks.obj
 0001:000a27b0       __acrt_uninitialize_locks  00000001800a37b0 f   libucrtd:locks.obj
 0001:000a2810       __acrt_unlock              00000001800a3810 f   libucrtd:locks.obj
 0001:000a2840       _lock_locales              00000001800a3840 f   libucrtd:locks.obj
 0001:000a2860       _unlock_locales            00000001800a3860 f   libucrtd:locks.obj
 0001:000a2880       ??$?B$$A6AXH@Z@__crt_fast_encoded_nullptr_t@@QEBAP6AXH@ZXZ 00000001800a3880 f i libucrtd:signal.obj
 0001:000a2940       ??$__crt_fast_decode_pointer@P6AXH@Z@@YAP6AXH@ZQ6AXH@Z@Z 00000001800a3940 f i libucrtd:signal.obj
 0001:000a2980       ??$__crt_fast_encode_pointer@P6AXH@Z@@YAP6AXH@ZQ6AXH@Z@Z 00000001800a3980 f i libucrtd:signal.obj
 0001:000a2c00       ?initialize@?$dual_state_global@P6AXH@Z@__crt_state_management@@QEAAXQ6AXH@Z@Z 00000001800a3c00 f i libucrtd:signal.obj
 0001:000a2d80       ?value@?$dual_state_global@P6AXH@Z@__crt_state_management@@QEAAAEAP6AXH@ZXZ 00000001800a3d80 f i libucrtd:signal.obj
 0001:000a2da0       __acrt_get_sigabrt_handler 00000001800a3da0 f   libucrtd:signal.obj
 0001:000a2dd0       __acrt_initialize_signal_handlers 00000001800a3dd0 f   libucrtd:signal.obj
 0001:000a2e30       __fpecode                  00000001800a3e30 f   libucrtd:signal.obj
 0001:000a2e50       __pxcptinfoptrs            00000001800a3e50 f   libucrtd:signal.obj
 0001:000a2e70       raise                      00000001800a3e70 f   libucrtd:signal.obj
 0001:000a3330       signal                     00000001800a4330 f   libucrtd:signal.obj
 0001:000a3600       _msize                     00000001800a4600 f   libucrtd:msize.obj
 0001:000a3620       _msize_base                00000001800a4620 f   libucrtd:msize.obj
 0001:000a36f0       _realloc_base              00000001800a46f0 f   libucrtd:realloc_base.obj
 0001:000a37c0       ??$?B$$A6AHPEA_WK_J@Z@__crt_fast_encoded_nullptr_t@@QEBAP6AHPEA_WK_J@ZXZ 00000001800a47c0 f i libucrtd:winapi_thunks.obj
 0001:000a3880       ??$__crt_fast_decode_pointer@P6AHPEA_WK_J@Z@@YAP6AHPEA_WK_J@ZQ6AH0K1@Z@Z 00000001800a4880 f i libucrtd:winapi_thunks.obj
 0001:000a38c0       ??$__crt_fast_decode_pointer@PEAX@@YAPEAXQEAX@Z 00000001800a48c0 f i libucrtd:winapi_thunks.obj
 0001:000a3900       ??$__crt_fast_encode_pointer@P6AHPEA_WK_J@Z@@YAP6AHPEA_WK_J@ZQ6AH0K1@Z@Z 00000001800a4900 f i libucrtd:winapi_thunks.obj
 0001:000a4570       GetCurrentThreadEffectiveToken 00000001800a5570 f i libucrtd:winapi_thunks.obj
 0001:000a4580       __acrt_AppPolicyGetProcessTerminationMethodInternal 00000001800a5580 f   libucrtd:winapi_thunks.obj
 0001:000a45d0       __acrt_AppPolicyGetShowDeveloperDiagnosticInternal 00000001800a55d0 f   libucrtd:winapi_thunks.obj
 0001:000a4620       __acrt_AppPolicyGetThreadInitializationTypeInternal 00000001800a5620 f   libucrtd:winapi_thunks.obj
 0001:000a4670       __acrt_AppPolicyGetWindowingModelInternal 00000001800a5670 f   libucrtd:winapi_thunks.obj
 0001:000a46c0       __acrt_AreFileApisANSI     00000001800a56c0 f   libucrtd:winapi_thunks.obj
 0001:000a4700       __acrt_CompareStringEx     00000001800a5700 f   libucrtd:winapi_thunks.obj
 0001:000a47e0       __acrt_EnumSystemLocalesEx 00000001800a57e0 f   libucrtd:winapi_thunks.obj
 0001:000a4860       __acrt_FlsAlloc            00000001800a5860 f   libucrtd:winapi_thunks.obj
 0001:000a48b0       __acrt_FlsFree             00000001800a58b0 f   libucrtd:winapi_thunks.obj
 0001:000a4900       __acrt_FlsGetValue         00000001800a5900 f   libucrtd:winapi_thunks.obj
 0001:000a4950       __acrt_FlsSetValue         00000001800a5950 f   libucrtd:winapi_thunks.obj
 0001:000a49b0       __acrt_GetDateFormatEx     00000001800a59b0 f   libucrtd:winapi_thunks.obj
 0001:000a4a70       __acrt_GetEnabledXStateFeatures 00000001800a5a70 f   libucrtd:winapi_thunks.obj
 0001:000a4ab0       __acrt_GetLocaleInfoEx     00000001800a5ab0 f   libucrtd:winapi_thunks.obj
 0001:000a4b30       __acrt_GetSystemTimePreciseAsFileTime 00000001800a5b30 f   libucrtd:winapi_thunks.obj
 0001:000a4b80       __acrt_GetTimeFormatEx     00000001800a5b80 f   libucrtd:winapi_thunks.obj
 0001:000a4c30       __acrt_GetUserDefaultLocaleName 00000001800a5c30 f   libucrtd:winapi_thunks.obj
 0001:000a4c90       __acrt_GetXStateFeaturesMask 00000001800a5c90 f   libucrtd:winapi_thunks.obj
 0001:000a4ce0       __acrt_InitializeCriticalSectionEx 00000001800a5ce0 f   libucrtd:winapi_thunks.obj
 0001:000a4d40       __acrt_IsValidLocaleName   00000001800a5d40 f   libucrtd:winapi_thunks.obj
 0001:000a4da0       __acrt_LCIDToLocaleName    00000001800a5da0 f   libucrtd:winapi_thunks.obj
 0001:000a4e10       __acrt_LCMapStringEx       00000001800a5e10 f   libucrtd:winapi_thunks.obj
 0001:000a4ef0       __acrt_LocaleNameToLCID    00000001800a5ef0 f   libucrtd:winapi_thunks.obj
 0001:000a4f40       __acrt_LocateXStateFeature 00000001800a5f40 f   libucrtd:winapi_thunks.obj
 0001:000a4fa0       __acrt_MessageBoxA         00000001800a5fa0 f   libucrtd:winapi_thunks.obj
 0001:000a5000       __acrt_MessageBoxW         00000001800a6000 f   libucrtd:winapi_thunks.obj
 0001:000a5060       __acrt_RoInitialize        00000001800a6060 f   libucrtd:winapi_thunks.obj
 0001:000a50a0       __acrt_RoUninitialize      00000001800a60a0 f   libucrtd:winapi_thunks.obj
 0001:000a50d0       __acrt_RtlGenRandom        00000001800a60d0 f   libucrtd:winapi_thunks.obj
 0001:000a5120       __acrt_SetThreadStackGuarantee 00000001800a6120 f   libucrtd:winapi_thunks.obj
 0001:000a5160       __acrt_can_show_message_box 00000001800a6160 f   libucrtd:winapi_thunks.obj
 0001:000a51a0       __acrt_can_use_vista_locale_apis 00000001800a61a0 f   libucrtd:winapi_thunks.obj
 0001:000a51d0       __acrt_can_use_xstate_apis 00000001800a61d0 f   libucrtd:winapi_thunks.obj
 0001:000a5200       __acrt_eagerly_load_locale_apis 00000001800a6200 f   libucrtd:winapi_thunks.obj
 0001:000a5240       __acrt_get_parent_window   00000001800a6240 f   libucrtd:winapi_thunks.obj
 0001:000a52c0       __acrt_initialize_winapi_thunks 00000001800a62c0 f   libucrtd:winapi_thunks.obj
 0001:000a5340       __acrt_is_interactive      00000001800a6340 f   libucrtd:winapi_thunks.obj
 0001:000a5420       __acrt_uninitialize_winapi_thunks 00000001800a6420 f   libucrtd:winapi_thunks.obj
 0001:000a54c0       _chvalidator               00000001800a64c0 f   libucrtd:isctype.obj
 0001:000a5530       _chvalidator_l             00000001800a6530 f   libucrtd:isctype.obj
 0001:000a55e0       _isctype                   00000001800a65e0 f   libucrtd:isctype.obj
 0001:000a5630       _isctype_l                 00000001800a6630 f   libucrtd:isctype.obj
 0001:000a5860       _isleadbyte_fast_internal  00000001800a6860 f i libucrtd:isctype.obj
 0001:000a5890       ??$?RU__crt_stdio_stream_data@@@__crt_internal_free_policy@@QEBAXQEBU__crt_stdio_stream_data@@@Z 00000001800a6890 f i libucrtd:stream.obj
 0001:000a58c0       ??0?$__crt_unique_heap_ptr@U__crt_stdio_stream_data@@U__crt_internal_free_policy@@@@QEAA@QEAU__crt_stdio_stream_data@@@Z 00000001800a68c0 f i libucrtd:stream.obj
 0001:000a58e0       ??0__crt_stdio_stream@@QEAA@QEAU__crt_stdio_stream_data@@@Z 00000001800a68e0 f i libucrtd:stream.obj
 0001:000a5900       ??0__crt_stdio_stream@@QEAA@XZ 00000001800a6900 f i libucrtd:stream.obj
 0001:000a5920       ??1?$__crt_unique_heap_ptr@U__crt_stdio_stream_data@@U__crt_internal_free_policy@@@@QEAA@XZ 00000001800a6920 f i libucrtd:stream.obj
 0001:000a5940       ?__acrt_stdio_allocate_stream@@YA?AV__crt_stdio_stream@@XZ 00000001800a6940 f   libucrtd:stream.obj
 0001:000a5a00       ?__acrt_stdio_free_stream@@YAXV__crt_stdio_stream@@@Z 00000001800a6a00 f   libucrtd:stream.obj
 0001:000a5aa0       ?deallocate@__crt_stdio_stream@@QEAAXXZ 00000001800a6aa0 f i libucrtd:stream.obj
 0001:000a5ac0       ?detach@?$__crt_unique_heap_ptr@U__crt_stdio_stream_data@@U__crt_internal_free_policy@@@@QEAAPEAU__crt_stdio_stream_data@@XZ 00000001800a6ac0 f i libucrtd:stream.obj
 0001:000a5ca0       ?lock@__crt_stdio_stream@@QEBAXXZ 00000001800a6ca0 f i libucrtd:stream.obj
