 OPOSElectronicValueRW

 Timestamp is 5defa91e (Tue Dec 10 23:18:06 2019)

 Preferred load address is 0000000180000000

 Start         Length     Name                   Class
 0001:00000000 00001400H .text$di                CODE
 0001:00001400 000da180H .text$mn                CODE
 0001:000db580 00000020H .text$mn$00             CODE
 0001:000db5a0 00001370H .text$x                 CODE
 0001:000dc910 000001b4H .text$yd                CODE
 0002:00000000 000006d8H .idata$5                DATA
 0002:000006d8 00000010H .00cfg                  DATA
 0002:000006e8 00000008H .CRT$XCA                DATA
 0002:000006f0 00000008H .CRT$XCL                DATA
 0002:000006f8 000000d8H .CRT$XCU                DATA
 0002:000007d0 00000008H .CRT$XCZ                DATA
 0002:000007d8 00000008H .CRT$XIA                DATA
 0002:000007e0 00000020H .CRT$XIC                DATA
 0002:00000800 00000008H .CRT$XIZ                DATA
 0002:00000808 00000008H .CRT$XLA                DATA
 0002:00000810 00000008H .CRT$XLZ                DATA
 0002:00000818 00000008H .CRT$XPA                DATA
 0002:00000820 00000010H .CRT$XPX                DATA
 0002:00000830 00000008H .CRT$XPXA               DATA
 0002:00000838 00000008H .CRT$XPZ                DATA
 0002:00000840 00000008H .CRT$XTA                DATA
 0002:00000848 00000008H .CRT$XTZ                DATA
 0002:00000850 00000000H .gfids$y                DATA
 0002:00000850 0003e778H .rdata                  DATA
 0002:0003efc8 00000028H .rdata$T                DATA
 0002:0003eff0 0000056cH .rdata$r                DATA
 0002:0003f55c 00000434H .rdata$zzzdbg           DATA
 0002:0003f990 00000008H .rtc$IAA                DATA
 0002:0003f998 00000030H .rtc$IMZ                DATA
 0002:0003f9c8 00000008H .rtc$IZZ                DATA
 0002:0003f9d0 00000008H .rtc$TAA                DATA
 0002:0003f9d8 00000030H .rtc$TMZ                DATA
 0002:0003fa08 00000008H .rtc$TZZ                DATA
 0002:0003fa10 00000004H .tls                    DATA
 0002:0003fa14 00000004H .tls$                   DATA
 0002:0003fa18 00000008H .tls$ZZZ                DATA
 0002:0003fa20 00009c98H .xdata                  DATA
 0002:000496b8 00000150H .xdata$x                DATA
 0002:00049808 00000008H ATL$__a                 DATA
 0002:00049810 00000010H ATL$__z                 DATA
 0002:00049820 000000b4H .edata                  DATA
 0002:000498d4 00000078H .idata$2                DATA
 0002:0004994c 00000014H .idata$3                DATA
 0002:00049960 000006d8H .idata$4                DATA
 0002:0004a038 00000db8H .idata$6                DATA
 0003:00000000 00001058H .data                   DATA
 0003:00001058 00000198H .data$r                 DATA
 0003:000011f0 00003eccH .bss                    DATA
 0004:00000000 0000c5d0H .pdata                  DATA
 0005:00000000 00000094H _RDATA                  DATA
 0006:00000000 00000220H .rsrc$01                DATA
 0006:00000220 00007f08H .rsrc$02                DATA

  Address         Publics by Value              Rva+Base               Lib:Object

 0000:00000000       __AbsoluteZero             0000000000000000     <absolute>
 0000:00000000       __guard_longjmp_count      0000000000000000     <absolute>
 0000:00000000       __hybrid_auxiliary_iat     0000000000000000     <absolute>
 0000:00000000       __volatile_metadata        0000000000000000     <absolute>
 0000:00000000       __hybrid_code_map_count    0000000000000000     <absolute>
 0000:00000000       __guard_iat_count          0000000000000000     <absolute>
 0000:00000000       __hybrid_code_map          0000000000000000     <absolute>
 0000:00000000       __enclave_config           0000000000000000     <absolute>
 0000:00000000       __guard_iat_table          0000000000000000     <absolute>
 0000:00000000       __guard_fids_table         0000000000000000     <absolute>
 0000:00000000       __guard_fids_count         0000000000000000     <absolute>
 0000:00000000       __dynamic_value_reloc_table 0000000000000000     <absolute>
 0000:00000000       __guard_longjmp_table      0000000000000000     <absolute>
 0000:00000000       ___safe_se_handler_table   0000000000000000     <absolute>
 0000:00000000       ___safe_se_handler_count   0000000000000000     <absolute>
 0000:00000100       __guard_flags              0000000000000100     <absolute>
 0000:00000000       __ImageBase                0000000180000000     <linker-defined>
 0001:00001400       ?_assert@@YAXPEB_W0I@Z     0000000180002400 f   Assert.obj
 0001:00001500       __local_stdio_printf_options 0000000180002500 f i Assert.obj
 0001:00001510       __vswprintf_l              0000000180002510 f i Assert.obj
 0001:00001570       _swprintf                  0000000180002570 f i Assert.obj
 0001:000015f0       _vswprintf_c_l             00000001800025f0 f i Assert.obj
 0001:00001680       _vswprintf_l               0000000180002680 f i Assert.obj
 0001:000016e0       ?cw_memcpy@@YAHPEADPEB_WH@Z 00000001800026e0 f   CWString.obj
 0001:00001770       ?cw_memcpy@@YAHPEA_WPEBDH@Z 0000000180002770 f   CWString.obj
 0001:000017f0       ?cw_memcpy@@YAHPEADPEBDH@Z 00000001800027f0 f   CWString.obj
 0001:00001890       ?cw_memcpy@@YAHPEA_WPEB_WH@Z 0000000180002890 f   CWString.obj
 0001:00001900       ?cw_memset@@YAXPEADDH@Z    0000000180002900 f   CWString.obj
 0001:00001970       ?cw_memset@@YAXPEA_W_WH@Z  0000000180002970 f   CWString.obj
 0001:00001a10       ?cw_strlen@@YAHPEBD@Z      0000000180002a10 f   CWString.obj
 0001:00001a80       ?cw_strlen@@YAHPEB_W@Z     0000000180002a80 f   CWString.obj
 0001:00001af0       ?cw_strcpy@@YAHPEADPEB_W@Z 0000000180002af0 f   CWString.obj
 0001:00001b40       ?cw_strcpy@@YAHPEA_WPEBD@Z 0000000180002b40 f   CWString.obj
 0001:00001b90       ?cw_strcpy@@YAHPEADPEBD@Z  0000000180002b90 f   CWString.obj
 0001:00001be0       ?cw_strcpy@@YAHPEA_WPEB_W@Z 0000000180002be0 f   CWString.obj
 0001:00001c30       ?cw_strcat@@YAHPEADPEB_W@Z 0000000180002c30 f   CWString.obj
 0001:00001c90       ?cw_strcat@@YAHPEA_WPEBD@Z 0000000180002c90 f   CWString.obj
 0001:00001cf0       ?cw_strcat@@YAHPEADPEBD@Z  0000000180002cf0 f   CWString.obj
 0001:00001d50       ?cw_strcat@@YAHPEA_WPEB_W@Z 0000000180002d50 f   CWString.obj
 0001:00001db0       ?cw_dup@@YAXPEBDAEAHAEAPEA_W1@Z 0000000180002db0 f   CWString.obj
 0001:00001ec0       ?cw_dup@@YAXPEB_WAEAHAEAPEAD1@Z 0000000180002ec0 f   CWString.obj
 0001:00001fb0       ?DupChar@_CW@@AEAAXXZ      0000000180002fb0 f   CWString.obj
 0001:00002010       ?DupWide@_CW@@AEAAXXZ      0000000180003010 f   CWString.obj
 0001:00002080       ?GetCharsMbcs@_CW@@QEAAHXZ 0000000180003080 f   CWString.obj
 0001:000020f0       ?GetCharsWide@_CW@@QEAAHXZ 00000001800030f0 f   CWString.obj
 0001:00002160       ?SetVARIANT_BOOL@OposVariant@@QEAAXF@Z 0000000180003160 f   OposVariant.obj
 0001:000021d0       ?SetVARIANT_BOOL_Ptr@OposVariant@@QEAAXPEAFAEAJ@Z 00000001800031d0 f   OposVariant.obj
 0001:00002240       ?GetLONG@OposVariant@@QEAAJXZ 0000000180003240 f   OposVariant.obj
 0001:000022a0       ?ChangeLONG@OposVariant@@QEAAXPEAJAEAJ@Z 00000001800032a0 f   OposVariant.obj
 0001:00002350       ?SetLONG@OposVariant@@QEAAXJ@Z 0000000180003350 f   OposVariant.obj
 0001:000023b0       ?SetLONG_Ptr@OposVariant@@QEAAXPEAJAEAJ@Z 00000001800033b0 f   OposVariant.obj
 0001:00002420       ?ChangeCURRENCY@OposVariant@@QEAAXPEATtagCY@@AEAJ@Z 0000000180003420 f   OposVariant.obj
 0001:000024d0       ?SetCURRENCY@OposVariant@@QEAAXTtagCY@@@Z 00000001800034d0 f   OposVariant.obj
 0001:00002530       ?SetCURRENCY_Ptr@OposVariant@@QEAAXPEATtagCY@@AEAJ@Z 0000000180003530 f   OposVariant.obj
 0001:000025a0       ?ChangeBSTR@OposVariant@@QEAAXPEAPEA_WAEAJ@Z 00000001800035a0 f   OposVariant.obj
 0001:00002650       ?SetBSTR@OposVariant@@QEAAXPEA_WAEAJ@Z 0000000180003650 f   OposVariant.obj
 0001:000026d0       ?SetBSTR_Copy@OposVariant@@QEAAXPEA_WAEAJ@Z 00000001800036d0 f   OposVariant.obj
 0001:00002780       ?SetBSTR_OutPtr@OposVariant@@QEAA_NPEAPEA_WAEAJ@Z 0000000180003780 f   OposVariant.obj
 0001:000027f0       ?SetBSTR_InOutPtr@OposVariant@@QEAA_NPEAPEA_WAEAJ@Z 00000001800037f0 f   OposVariant.obj
 0001:00002870       ?SetVARIANT@OposVariant@@QEAAXAEAUtagVARIANT@@GAEAJ@Z 0000000180003870 f   OposVariant.obj
 0001:00002910       ?SetVARIANT_Ptr@OposVariant@@QEAAXAEAPEAUtagVARIANT@@GAEAJ@Z 0000000180003910 f   OposVariant.obj
 0001:000029c0       ?SetString@OposVariant@@QEAAXPEB_WAEAJ@Z 00000001800039c0 f   OposVariant.obj
 0001:00002a70       ?SetDispatch_Ptr@OposVariant@@QEAAXPEAUIDispatch@@AEAJ@Z 0000000180003a70 f   OposVariant.obj
 0001:00002b00       ??0OposDispParms@@QEAA@PEAVOposVariant@@H@Z 0000000180003b00 f   OposVariant.obj
 0001:00002c10       ??1OposDispParms@@QEAA@XZ  0000000180003c10 f   OposVariant.obj
 0001:00002c60       ??$AtlMultiply@_K@ATL@@YAJPEA_K_K1@Z 0000000180003c60 f i OposVariant.obj
 0001:00002ce0       ??0?$CHeapPtr@_WVCCRTAllocator@ATL@@@ATL@@QEAA@XZ 0000000180003ce0 f i OposVariant.obj
 0001:00002d20       ??0?$CHeapPtrBase@_WVCCRTAllocator@ATL@@@ATL@@IEAA@XZ 0000000180003d20 f i OposVariant.obj
 0001:00002d40       ??0?$CSimpleArray@GV?$CSimpleArrayEqualHelper@G@ATL@@@ATL@@QEAA@XZ 0000000180003d40 f i OposVariant.obj
 0001:00002d80       ??0?$CTraceCategoryEx@$00$0A@@ATL@@QEAA@PEB_W@Z 0000000180003d80 f i OposVariant.obj
 0001:00002dc0       ??0?$CTraceCategoryEx@$01$0A@@ATL@@QEAA@PEB_W@Z 0000000180003dc0 f i OposVariant.obj
 0001:00002e00       ??0?$CTraceCategoryEx@$03$0A@@ATL@@QEAA@PEB_W@Z 0000000180003e00 f i OposVariant.obj
 0001:00002e40       ??0?$CTraceCategoryEx@$07$0A@@ATL@@QEAA@PEB_W@Z 0000000180003e40 f i OposVariant.obj
 0001:00002e80       ??0?$CTraceCategoryEx@$0BA@$0A@@ATL@@QEAA@PEB_W@Z 0000000180003e80 f i OposVariant.obj
 0001:00002ec0       ??0?$CTraceCategoryEx@$0BAA@$0A@@ATL@@QEAA@PEB_W@Z 0000000180003ec0 f i OposVariant.obj
 0001:00002f00       ??0?$CTraceCategoryEx@$0BAAA@$0A@@ATL@@QEAA@PEB_W@Z 0000000180003f00 f i OposVariant.obj
 0001:00002f40       ??0?$CTraceCategoryEx@$0BAAAA@$0A@@ATL@@QEAA@PEB_W@Z 0000000180003f40 f i OposVariant.obj
 0001:00002f80       ??0?$CTraceCategoryEx@$0BAAAAA@$0A@@ATL@@QEAA@PEB_W@Z 0000000180003f80 f i OposVariant.obj
 0001:00002fc0       ??0?$CTraceCategoryEx@$0CA@$0A@@ATL@@QEAA@PEB_W@Z 0000000180003fc0 f i OposVariant.obj
 0001:00003000       ??0?$CTraceCategoryEx@$0CAA@$0A@@ATL@@QEAA@PEB_W@Z 0000000180004000 f i OposVariant.obj
 0001:00003040       ??0?$CTraceCategoryEx@$0CAAA@$0A@@ATL@@QEAA@PEB_W@Z 0000000180004040 f i OposVariant.obj
 0001:00003080       ??0?$CTraceCategoryEx@$0CAAAA@$0A@@ATL@@QEAA@PEB_W@Z 0000000180004080 f i OposVariant.obj
 0001:000030c0       ??0?$CTraceCategoryEx@$0CAAAAA@$0A@@ATL@@QEAA@PEB_W@Z 00000001800040c0 f i OposVariant.obj
 0001:00003100       ??0?$CTraceCategoryEx@$0EA@$0A@@ATL@@QEAA@PEB_W@Z 0000000180004100 f i OposVariant.obj
 0001:00003140       ??0?$CTraceCategoryEx@$0EAA@$0A@@ATL@@QEAA@PEB_W@Z 0000000180004140 f i OposVariant.obj
 0001:00003180       ??0?$CTraceCategoryEx@$0EAAA@$0A@@ATL@@QEAA@PEB_W@Z 0000000180004180 f i OposVariant.obj
 0001:000031c0       ??0?$CTraceCategoryEx@$0EAAAA@$0A@@ATL@@QEAA@PEB_W@Z 00000001800041c0 f i OposVariant.obj
 0001:00003200       ??0?$CTraceCategoryEx@$0EAAAAA@$0A@@ATL@@QEAA@PEB_W@Z 0000000180004200 f i OposVariant.obj
 0001:00003240       ??0?$CTraceCategoryEx@$0IA@$0A@@ATL@@QEAA@PEB_W@Z 0000000180004240 f i OposVariant.obj
 0001:00003280       ??0?$CTraceCategoryEx@$0IAA@$0A@@ATL@@QEAA@PEB_W@Z 0000000180004280 f i OposVariant.obj
 0001:000032c0       ??0?$CTraceCategoryEx@$0IAAA@$0A@@ATL@@QEAA@PEB_W@Z 00000001800042c0 f i OposVariant.obj
 0001:00003300       ??0?$CTraceCategoryEx@$0IAAAA@$0A@@ATL@@QEAA@PEB_W@Z 0000000180004300 f i OposVariant.obj
 0001:00003340       ??0CAtlComModule@ATL@@QEAA@XZ 0000000180004340 f i OposVariant.obj
 0001:00003460       ??0CAtlWinModule@ATL@@QEAA@XZ 0000000180004460 f i OposVariant.obj
 0001:00003510       ??0CComCriticalSection@ATL@@QEAA@XZ 0000000180004510 f i OposVariant.obj
 0001:00003550       ??0CPreserveLastError@ATL@@QEAA@XZ 0000000180004550 f i OposVariant.obj
 0001:00003590       ??0CTraceFileAndLineInfo@ATL@@QEAA@PEBDH@Z 0000000180004590 f i OposVariant.obj
 0001:000035c0       ??0_ATL_COM_MODULE70@ATL@@QEAA@XZ 00000001800045c0 f i OposVariant.obj
 0001:00003600       ??0_ATL_WIN_MODULE70@ATL@@QEAA@XZ 0000000180004600 f i OposVariant.obj
 0001:00003650       ??1?$CHeapPtr@_WVCCRTAllocator@ATL@@@ATL@@QEAA@XZ 0000000180004650 f i OposVariant.obj
 0001:00003680       ??1?$CHeapPtrBase@_WVCCRTAllocator@ATL@@@ATL@@QEAA@XZ 0000000180004680 f i OposVariant.obj
 0001:000036b0       ??1?$CSimpleArray@GV?$CSimpleArrayEqualHelper@G@ATL@@@ATL@@QEAA@XZ 00000001800046b0 f i OposVariant.obj
 0001:000036e0       ??1CAtlComModule@ATL@@QEAA@XZ 00000001800046e0 f i OposVariant.obj
 0001:00003720       ??1CAtlWinModule@ATL@@QEAA@XZ 0000000180004720 f i OposVariant.obj
 0001:00003760       ??1CComBSTR@ATL@@QEAA@XZ   0000000180004760 f i OposVariant.obj
 0001:000037a0       ??1CComCriticalSection@ATL@@QEAA@XZ 00000001800047a0 f i OposVariant.obj
 0001:000037b0       ??1CPreserveLastError@ATL@@QEAA@XZ 00000001800047b0 f i OposVariant.obj
 0001:000037f0       ??1_ATL_COM_MODULE70@ATL@@QEAA@XZ 00000001800047f0 f i OposVariant.obj
 0001:00003830       ??1_ATL_WIN_MODULE70@ATL@@QEAA@XZ 0000000180004830 f i OposVariant.obj
 0001:00003880       ??1stringdispid@CComTypeInfoHolder@ATL@@QEAA@XZ 0000000180004880 f i OposVariant.obj
 0001:000038c0       ??A?$CSimpleArray@GV?$CSimpleArrayEqualHelper@G@ATL@@@ATL@@QEAAAEAGH@Z 00000001800048c0 f i OposVariant.obj
 0001:00003970       ??B?$CHeapPtrBase@_WVCCRTAllocator@ATL@@@ATL@@QEBAPEA_WXZ 0000000180004970 f i OposVariant.obj
 0001:00003980       ??B?$CTraceCategoryEx@$01$0A@@ATL@@QEAAIXZ 0000000180004980 f i OposVariant.obj
 0001:00003990       ??B?$CTraceCategoryEx@$0CA@$0A@@ATL@@QEAAIXZ 0000000180004990 f i OposVariant.obj
 0001:000039a0       ??RCTraceFileAndLineInfo@ATL@@QEBAXHIPEB_WZZ 00000001800049a0 f i OposVariant.obj
 0001:00003a50       ??_Estringdispid@CComTypeInfoHolder@ATL@@QEAAPEAXI@Z 0000000180004a50 f i OposVariant.obj
 0001:00003b00       ??_H@YAXPEAX_K1P6APEAX0@Z@Z 0000000180004b00 f i OposVariant.obj
 0001:00003b90       ??_I@YAXPEAX_K1P6AX0@Z@Z   0000000180004b90 f i OposVariant.obj
 0001:00003c40       ?Allocate@?$CHeapPtr@_WVCCRTAllocator@ATL@@@ATL@@QEAA_N_K@Z 0000000180004c40 f i OposVariant.obj
 0001:00003cc0       ?Allocate@CCRTAllocator@ATL@@SAPEAX_K@Z 0000000180004cc0 f i OposVariant.obj
 0001:00003cf0       ?AllocateBytes@?$CHeapPtrBase@_WVCCRTAllocator@ATL@@@ATL@@QEAA_N_K@Z 0000000180004cf0 f i OposVariant.obj
 0001:00003d90       ?AtlWinModuleInit@ATL@@YAJPEAU_ATL_WIN_MODULE70@1@@Z 0000000180004d90 f i OposVariant.obj
 0001:00003e90       ?AtlWinModuleTerm@ATL@@YAJPEAU_ATL_WIN_MODULE70@1@PEAUHINSTANCE__@@@Z 0000000180004e90 f i OposVariant.obj
 0001:00003f80       ?Clear@OposVariant@@QEAAJXZ 0000000180004f80 f i OposVariant.obj
 0001:00003fc0       ?Free@?$CHeapPtrBase@_WVCCRTAllocator@ATL@@@ATL@@QEAAXXZ 0000000180004fc0 f i OposVariant.obj
 0001:00004000       ?Free@CCRTAllocator@ATL@@SAXPEAX@Z 0000000180005000 f i OposVariant.obj
 0001:00004030       ?GetCategoryName@CTrace@ATL@@CAPEA_WI@Z 0000000180005030 f i OposVariant.obj
 0001:000040b0       ?GetModuleInstance@CAtlBaseModule@ATL@@QEAAPEAUHINSTANCE__@@XZ 00000001800050b0 f i OposVariant.obj
 0001:000040d0       ?GetSize@?$CSimpleArray@GV?$CSimpleArrayEqualHelper@G@ATL@@@ATL@@QEBAHXZ 00000001800050d0 f i OposVariant.obj
 0001:000040e0       ?Init@CComCriticalSection@ATL@@QEAAJXZ 00000001800050e0 f i OposVariant.obj
 0001:00004140       ?RegisterCategory@CTrace@ATL@@SAXPEB_WI@Z 0000000180005140 f i OposVariant.obj
 0001:00004220       ?RemoveAll@?$CSimpleArray@GV?$CSimpleArrayEqualHelper@G@ATL@@@ATL@@QEAAXXZ 0000000180005220 f i OposVariant.obj
 0001:000042b0       ?Term@CAtlComModule@ATL@@QEAAXXZ 00000001800052b0 f i OposVariant.obj
 0001:00004390       ?Term@CAtlWinModule@ATL@@QEAAXXZ 0000000180005390 f i OposVariant.obj
 0001:000043d0       ?Term@CComCriticalSection@ATL@@QEAAJXZ 00000001800053d0 f i OposVariant.obj
 0001:00004410       ?TraceV@CTrace@ATL@@CAXPEBDHIIPEB_W@Z 0000000180005410 f i OposVariant.obj
 0001:000046c0       ?TraceV@CTrace@ATL@@SAXPEBDHIIPEB_WPEAD@Z 00000001800056c0 f i OposVariant.obj
 0001:00004870       ?_AtlInitializeCriticalSectionEx@ATL@@YAHPEAU_RTL_CRITICAL_SECTION@@KK@Z 0000000180005870 f i OposVariant.obj
 0001:000048c0       ?_AtlRaiseException@ATL@@YAXKK@Z 00000001800058c0 f i OposVariant.obj
 0001:00004900       HRESULT_FROM_WIN32         0000000180005900 f i OposVariant.obj
 0001:00004950       _vswprintf_s_l             0000000180005950 f i OposVariant.obj
 0001:000049e0       swprintf_s                 00000001800059e0 f i OposVariant.obj
 0001:00004a70       ?ObjectMain@CComObjectRootBase@ATL@@SAX_N@Z 0000000180005a70 f i ElectronicValueRW.obj
 0001:00004a80       ?GetCategoryMap@CComObjectRootBase@ATL@@SAPEBU_ATL_CATMAP_ENTRY@2@XZ 0000000180005a80 f i ElectronicValueRW.obj
 0001:00004a90       ?GetObjectDescription@?$CComCoClass@VCOPOSElectronicValueRW@@$1?CLSID_OPOSElectronicValueRW@@3U_GUID@@B@ATL@@SAPEB_WXZ 0000000180005a90 f i ElectronicValueRW.obj
 0001:00004aa0       ?UpdateRegistry@COPOSElectronicValueRW@@SAJH@Z 0000000180005aa0 f i ElectronicValueRW.obj
 0001:00004ae0       ?CreateInstance@?$CComCreator@V?$CComObjectCached@VCComClassFactory@ATL@@@ATL@@@ATL@@SAJPEAXAEBU_GUID@@PEAPEAX@Z 0000000180005ae0 f i ElectronicValueRW.obj
 0001:00004cd0       ?CreateInstance@?$CComCreator2@V?$CComCreator@V?$CComObject@VCOPOSElectronicValueRW@@@ATL@@@ATL@@V?$CComCreator@V?$CComAggObject@VCOPOSElectronicValueRW@@@ATL@@@2@@ATL@@SAJPEAXAEBU_GUID@@PEAPEAX@Z 0000000180005cd0 f i ElectronicValueRW.obj
 0001:00004ee0       DllGetClassObject          0000000180005ee0 f   ElectronicValueRW.obj
 0001:00004f30       DllCanUnloadNow            0000000180005f30 f   ElectronicValueRW.obj
 0001:00004f80       DllRegisterServer          0000000180005f80 f   ElectronicValueRW.obj
 0001:00004fc0       DllUnregisterServer        0000000180005fc0 f   ElectronicValueRW.obj
 0001:000051c0       DllMain                    00000001800061c0 f   ElectronicValueRW.obj
 0001:00005240       ??$?2G@Wrapper@?$CSimpleArray@GV?$CSimpleArrayEqualHelper@G@ATL@@@ATL@@SAPEAX_KPEAG@Z 0000000180006240 f i ElectronicValueRW.obj
 0001:00005260       ??$?2PEA_W@?$Wrapper@PEA_W@?$CSimpleMap@PEA_WPEA_WVCExpansionVectorEqualHelper@ATL@@@ATL@@SAPEAX_KPEAPEA_W@Z 0000000180006260 f i ElectronicValueRW.obj
 0001:00005280       ??$?4UITypeInfo2@@@?$CComPtr@UITypeInfo@@@ATL@@QEAAPEAUITypeInfo@@AEBV?$CComPtr@UITypeInfo2@@@1@@Z 0000000180006280 f i ElectronicValueRW.obj
 0001:000052f0       ??$AtlAdd@_K@ATL@@YAJPEA_K_K1@Z 00000001800062f0 f i ElectronicValueRW.obj
 0001:00005360       ??$AtlAddThrow@_K@ATL@@YA_K_K0@Z 0000000180006360 f i ElectronicValueRW.obj
 0001:000053d0       ??$AtlModuleRegisterWndClassInfoT@VAtlModuleRegisterWndClassInfoParamW@ATL@@@ATL@@YAGPEAU_ATL_BASE_MODULE70@0@PEAU_ATL_WIN_MODULE70@0@PEAU_ATL_WNDCLASSINFOW@0@PEAP6A_JPEAUHWND__@@I_K_J@ZVAtlModuleRegisterWndClassInfoParamW@0@@Z 00000001800063d0 f i ElectronicValueRW.obj
 0001:000059a0       ??$AtlMultiply@H@ATL@@YAJPEAHHH@Z 00000001800069a0 f i ElectronicValueRW.obj
 0001:00005a10       ??$AtlMultiply@K@ATL@@YAJPEAKKK@Z 0000000180006a10 f i ElectronicValueRW.obj
 0001:00005a80       ??$AtlMultiplyThrow@_K@ATL@@YA_K_K0@Z 0000000180006a80 f i ElectronicValueRW.obj
 0001:00005af0       ??$QueryInterface@UIPersistStream@@@IUnknown@@QEAAJPEAPEAUIPersistStream@@@Z 0000000180006af0 f i ElectronicValueRW.obj
 0001:00005b40       ??$QueryInterface@UITypeInfo2@@@IUnknown@@QEAAJPEAPEAUITypeInfo2@@@Z 0000000180006b40 f i ElectronicValueRW.obj
 0001:00005b90       ??0?$CAtlModuleT@VCComModule@ATL@@@ATL@@QEAA@XZ 0000000180006b90 f i ElectronicValueRW.obj
 0001:00005bd0       ??0?$CAtlSafeAllocBufferManager@VCCRTAllocator@ATL@@@_ATL_SAFE_ALLOCA_IMPL@ATL@@QEAA@XZ 0000000180006bd0 f i ElectronicValueRW.obj
 0001:00005bf0       ??0?$CAutoVectorPtr@_W@ATL@@QEAA@XZ 0000000180006bf0 f i ElectronicValueRW.obj
 0001:00005c10       ??0?$CComAggObject@VCOPOSElectronicValueRW@@@ATL@@QEAA@PEAX@Z 0000000180006c10 f i ElectronicValueRW.obj
 0001:00005ca0       ??0?$CComContainedObject@VCOPOSElectronicValueRW@@@ATL@@QEAA@PEAX@Z 0000000180006ca0 f i ElectronicValueRW.obj
 0001:00005e40       ??0?$CComCritSecLock@VCComCriticalSection@ATL@@@ATL@@QEAA@AEAVCComCriticalSection@1@_N@Z 0000000180006e40 f i ElectronicValueRW.obj
 0001:00005eb0       ??0?$CComEnum@UIEnumConnectionPoints@@$1?_GUID_b196b285_bab4_101a_b69c_00aa00341d07@@3U__s_GUID@@BPEAUIConnectionPoint@@V?$_CopyInterface@UIConnectionPoint@@@ATL@@VCComSingleThreadModel@6@@ATL@@QEAA@XZ 0000000180006eb0 f i ElectronicValueRW.obj
 0001:00005f00       ??0?$CComEnum@UIEnumConnections@@$1?_GUID_b196b287_bab4_101a_b69c_00aa00341d07@@3U__s_GUID@@BUtagCONNECTDATA@@V?$_Copy@UtagCONNECTDATA@@@ATL@@VCComSingleThreadModel@6@@ATL@@QEAA@XZ 0000000180006f00 f i ElectronicValueRW.obj
 0001:00005f50       ??0?$CComEnumImpl@UIEnumConnectionPoints@@$1?_GUID_b196b285_bab4_101a_b69c_00aa00341d07@@3U__s_GUID@@BPEAUIConnectionPoint@@V?$_CopyInterface@UIConnectionPoint@@@ATL@@@ATL@@QEAA@XZ 0000000180006f50 f i ElectronicValueRW.obj
 0001:00005fd0       ??0?$CComEnumImpl@UIEnumConnections@@$1?_GUID_b196b287_bab4_101a_b69c_00aa00341d07@@3U__s_GUID@@BUtagCONNECTDATA@@V?$_Copy@UtagCONNECTDATA@@@ATL@@@ATL@@QEAA@XZ 0000000180006fd0 f i ElectronicValueRW.obj
 0001:00006050       ??0?$CComObject@V?$CComEnum@UIEnumConnectionPoints@@$1?_GUID_b196b285_bab4_101a_b69c_00aa00341d07@@3U__s_GUID@@BPEAUIConnectionPoint@@V?$_CopyInterface@UIConnectionPoint@@@ATL@@VCComSingleThreadModel@6@@ATL@@@ATL@@QEAA@PEAX@Z 0000000180007050 f i ElectronicValueRW.obj
 0001:000060b0       ??0?$CComObject@V?$CComEnum@UIEnumConnections@@$1?_GUID_b196b287_bab4_101a_b69c_00aa00341d07@@3U__s_GUID@@BUtagCONNECTDATA@@V?$_Copy@UtagCONNECTDATA@@@ATL@@VCComSingleThreadModel@6@@ATL@@@ATL@@QEAA@PEAX@Z 00000001800070b0 f i ElectronicValueRW.obj
 0001:00006110       ??0?$CComObject@VCOPOSElectronicValueRW@@@ATL@@QEAA@PEAX@Z 0000000180007110 f i ElectronicValueRW.obj
 0001:000062b0       ??0?$CComObjectCached@VCComClassFactory@ATL@@@ATL@@QEAA@PEAX@Z 00000001800072b0 f i ElectronicValueRW.obj
 0001:00006300       ??0?$CComObjectRootEx@VCComMultiThreadModel@ATL@@@ATL@@QEAA@XZ 0000000180007300 f i ElectronicValueRW.obj
 0001:00006350       ??0?$CComObjectRootEx@VCComSingleThreadModel@ATL@@@ATL@@QEAA@XZ 0000000180007350 f i ElectronicValueRW.obj
 0001:00006390       ??0?$CComPtr@UIAdviseSink@@@ATL@@QEAA@PEAUIAdviseSink@@@Z 0000000180007390 f i ElectronicValueRW.obj
 0001:000063d0       ??0?$CComPtr@UICatRegister@@@ATL@@QEAA@XZ 00000001800073d0 f i ElectronicValueRW.obj
 0001:00006410       ??0?$CComPtr@UIConnectionPoint@@@ATL@@QEAA@XZ 0000000180007410 f i ElectronicValueRW.obj
 0001:00006450       ??0?$CComPtr@UIConnectionPointContainer@@@ATL@@QEAA@XZ 0000000180007450 f i ElectronicValueRW.obj
 0001:00006490       ??0?$CComPtr@UIDataObject@@@ATL@@QEAA@XZ 0000000180007490 f i ElectronicValueRW.obj
 0001:000064d0       ??0?$CComPtr@UIDispatch@@@ATL@@QEAA@XZ 00000001800074d0 f i ElectronicValueRW.obj
 0001:00006510       ??0?$CComPtr@UIOleClientSite@@@ATL@@QEAA@PEAUIOleClientSite@@@Z 0000000180007510 f i ElectronicValueRW.obj
 0001:00006550       ??0?$CComPtr@UIOleControlSite@@@ATL@@QEAA@XZ 0000000180007550 f i ElectronicValueRW.obj
 0001:00006590       ??0?$CComPtr@UIOleInPlaceActiveObject@@@ATL@@QEAA@XZ 0000000180007590 f i ElectronicValueRW.obj
 0001:000065d0       ??0?$CComPtr@UIOleInPlaceFrame@@@ATL@@QEAA@XZ 00000001800075d0 f i ElectronicValueRW.obj
 0001:00006610       ??0?$CComPtr@UIOleInPlaceObject@@@ATL@@QEAA@XZ 0000000180007610 f i ElectronicValueRW.obj
 0001:00006650       ??0?$CComPtr@UIOleInPlaceUIWindow@@@ATL@@QEAA@XZ 0000000180007650 f i ElectronicValueRW.obj
 0001:00006690       ??0?$CComPtr@UIOleObject@@@ATL@@QEAA@XZ 0000000180007690 f i ElectronicValueRW.obj
 0001:000066d0       ??0?$CComPtr@UIPersistStream@@@ATL@@QEAA@XZ 00000001800076d0 f i ElectronicValueRW.obj
 0001:00006710       ??0?$CComPtr@UIPersistStreamInit@@@ATL@@QEAA@XZ 0000000180007710 f i ElectronicValueRW.obj
 0001:00006750       ??0?$CComPtr@UIPointerInactive@@@ATL@@QEAA@XZ 0000000180007750 f i ElectronicValueRW.obj
 0001:00006790       ??0?$CComPtr@UIProvideClassInfo2@@@ATL@@QEAA@XZ 0000000180007790 f i ElectronicValueRW.obj
 0001:000067d0       ??0?$CComPtr@UISpecifyPropertyPages@@@ATL@@QEAA@XZ 00000001800077d0 f i ElectronicValueRW.obj
 0001:00006810       ??0?$CComPtr@UIStream@@@ATL@@QEAA@XZ 0000000180007810 f i ElectronicValueRW.obj
 0001:00006850       ??0?$CComPtr@UITypeInfo2@@@ATL@@QEAA@XZ 0000000180007850 f i ElectronicValueRW.obj
 0001:00006890       ??0?$CComPtr@UITypeInfo@@@ATL@@QEAA@AEBV01@@Z 0000000180007890 f i ElectronicValueRW.obj
 0001:000068d0       ??0?$CComPtr@UITypeInfo@@@ATL@@QEAA@XZ 00000001800078d0 f i ElectronicValueRW.obj
 0001:00006910       ??0?$CComPtr@UITypeLib@@@ATL@@QEAA@XZ 0000000180007910 f i ElectronicValueRW.obj
 0001:00006950       ??0?$CComPtr@UIUnknown@@@ATL@@QEAA@AEBV01@@Z 0000000180007950 f i ElectronicValueRW.obj
 0001:00006990       ??0?$CComPtr@UIUnknown@@@ATL@@QEAA@PEAUIUnknown@@@Z 0000000180007990 f i ElectronicValueRW.obj
 0001:000069d0       ??0?$CComPtr@UIUnknown@@@ATL@@QEAA@XZ 00000001800079d0 f i ElectronicValueRW.obj
 0001:00006a10       ??0?$CComPtr@UIViewObjectEx@@@ATL@@QEAA@XZ 0000000180007a10 f i ElectronicValueRW.obj
 0001:00006a50       ??0?$CComPtrBase@UIAdviseSink@@@ATL@@IEAA@PEAUIAdviseSink@@@Z 0000000180007a50 f i ElectronicValueRW.obj
 0001:00006ab0       ??0?$CComPtrBase@UICatRegister@@@ATL@@IEAA@XZ 0000000180007ab0 f i ElectronicValueRW.obj
 0001:00006ad0       ??0?$CComPtrBase@UIConnectionPoint@@@ATL@@IEAA@XZ 0000000180007ad0 f i ElectronicValueRW.obj
 0001:00006af0       ??0?$CComPtrBase@UIConnectionPointContainer@@@ATL@@IEAA@XZ 0000000180007af0 f i ElectronicValueRW.obj
 0001:00006b10       ??0?$CComPtrBase@UIDataObject@@@ATL@@IEAA@XZ 0000000180007b10 f i ElectronicValueRW.obj
 0001:00006b30       ??0?$CComPtrBase@UIDispatch@@@ATL@@IEAA@XZ 0000000180007b30 f i ElectronicValueRW.obj
 0001:00006b50       ??0?$CComPtrBase@UIOleClientSite@@@ATL@@IEAA@PEAUIOleClientSite@@@Z 0000000180007b50 f i ElectronicValueRW.obj
 0001:00006bb0       ??0?$CComPtrBase@UIOleControlSite@@@ATL@@IEAA@XZ 0000000180007bb0 f i ElectronicValueRW.obj
 0001:00006bd0       ??0?$CComPtrBase@UIOleInPlaceActiveObject@@@ATL@@IEAA@XZ 0000000180007bd0 f i ElectronicValueRW.obj
 0001:00006bf0       ??0?$CComPtrBase@UIOleInPlaceFrame@@@ATL@@IEAA@XZ 0000000180007bf0 f i ElectronicValueRW.obj
 0001:00006c10       ??0?$CComPtrBase@UIOleInPlaceObject@@@ATL@@IEAA@XZ 0000000180007c10 f i ElectronicValueRW.obj
 0001:00006c30       ??0?$CComPtrBase@UIOleInPlaceUIWindow@@@ATL@@IEAA@XZ 0000000180007c30 f i ElectronicValueRW.obj
 0001:00006c50       ??0?$CComPtrBase@UIOleObject@@@ATL@@IEAA@XZ 0000000180007c50 f i ElectronicValueRW.obj
 0001:00006c70       ??0?$CComPtrBase@UIPersistStream@@@ATL@@IEAA@XZ 0000000180007c70 f i ElectronicValueRW.obj
 0001:00006c90       ??0?$CComPtrBase@UIPersistStreamInit@@@ATL@@IEAA@XZ 0000000180007c90 f i ElectronicValueRW.obj
 0001:00006cb0       ??0?$CComPtrBase@UIPointerInactive@@@ATL@@IEAA@XZ 0000000180007cb0 f i ElectronicValueRW.obj
 0001:00006cd0       ??0?$CComPtrBase@UIProvideClassInfo2@@@ATL@@IEAA@XZ 0000000180007cd0 f i ElectronicValueRW.obj
 0001:00006cf0       ??0?$CComPtrBase@UISpecifyPropertyPages@@@ATL@@IEAA@XZ 0000000180007cf0 f i ElectronicValueRW.obj
 0001:00006d10       ??0?$CComPtrBase@UIStream@@@ATL@@IEAA@XZ 0000000180007d10 f i ElectronicValueRW.obj
 0001:00006d30       ??0?$CComPtrBase@UITypeInfo2@@@ATL@@IEAA@XZ 0000000180007d30 f i ElectronicValueRW.obj
 0001:00006d50       ??0?$CComPtrBase@UITypeInfo@@@ATL@@IEAA@PEAUITypeInfo@@@Z 0000000180007d50 f i ElectronicValueRW.obj
 0001:00006db0       ??0?$CComPtrBase@UITypeInfo@@@ATL@@IEAA@XZ 0000000180007db0 f i ElectronicValueRW.obj
 0001:00006dd0       ??0?$CComPtrBase@UITypeLib@@@ATL@@IEAA@XZ 0000000180007dd0 f i ElectronicValueRW.obj
 0001:00006df0       ??0?$CComPtrBase@UIUnknown@@@ATL@@IEAA@PEAUIUnknown@@@Z 0000000180007df0 f i ElectronicValueRW.obj
 0001:00006e50       ??0?$CComPtrBase@UIUnknown@@@ATL@@IEAA@XZ 0000000180007e50 f i ElectronicValueRW.obj
 0001:00006e70       ??0?$CComPtrBase@UIViewObjectEx@@@ATL@@IEAA@XZ 0000000180007e70 f i ElectronicValueRW.obj
 0001:00006e90       ??0?$CComQIPtr@UIOleControlSite@@$1?_GUID_b196b289_bab4_101a_b69c_00aa00341d07@@3U__s_GUID@@B@ATL@@QEAA@PEAUIUnknown@@@Z 0000000180007e90 f i ElectronicValueRW.obj
 0001:00006f00       ??0?$CComQIPtr@UIOleObject@@$1?_GUID_00000112_0000_0000_c000_000000000046@@3U__s_GUID@@B@ATL@@QEAA@XZ 0000000180007f00 f i ElectronicValueRW.obj
 0001:00006f40       ??0?$CComQIPtr@UISpecifyPropertyPages@@$1?_GUID_b196b28b_bab4_101a_b69c_00aa00341d07@@3U__s_GUID@@B@ATL@@QEAA@XZ 0000000180007f40 f i ElectronicValueRW.obj
 0001:00006f80       ??0?$CSimpleMap@PEA_WPEA_WVCExpansionVectorEqualHelper@ATL@@@ATL@@QEAA@XZ 0000000180007f80 f i ElectronicValueRW.obj
 0001:00006fc0       ??0?$CTempBuffer@E$0BAA@VCCRTAllocator@ATL@@@ATL@@QEAA@XZ 0000000180007fc0 f i ElectronicValueRW.obj
 0001:00006fe0       ??0?$CTempBuffer@_W$0BAA@VCCRTAllocator@ATL@@@ATL@@QEAA@XZ 0000000180007fe0 f i ElectronicValueRW.obj
 0001:00007000       ??0?$CTempBuffer@_W$0EAA@VCCRTAllocator@ATL@@@ATL@@QEAA@XZ 0000000180008000 f i ElectronicValueRW.obj
 0001:00007020       ??0?$Wrapper@PEA_W@?$CSimpleMap@PEA_WPEA_WVCExpansionVectorEqualHelper@ATL@@@ATL@@QEAA@AEBQEA_W@Z 0000000180008020 f i ElectronicValueRW.obj
 0001:00007050       ??0CAtlModule@ATL@@QEAA@XZ 0000000180008050 f i ElectronicValueRW.obj
 0001:000071c0       ??0CComAutoDeleteCriticalSection@ATL@@QEAA@XZ 00000001800081c0 f i ElectronicValueRW.obj
 0001:00007200       ??0CComBSTR@ATL@@QEAA@XZ   0000000180008200 f i ElectronicValueRW.obj
 0001:00007220       ??0CComClassFactory@ATL@@QEAA@XZ 0000000180008220 f i ElectronicValueRW.obj
 0001:00007280       ??0CComModule@ATL@@QEAA@XZ 0000000180008280 f i ElectronicValueRW.obj
 0001:00007320       ??0CComObjectRootBase@ATL@@QEAA@XZ 0000000180008320 f i ElectronicValueRW.obj
 0001:00007340       ??0CComSafeDeleteCriticalSection@ATL@@QEAA@XZ 0000000180008340 f i ElectronicValueRW.obj
 0001:00007380       ??0CComVariant@ATL@@QEAA@XZ 0000000180008380 f i ElectronicValueRW.obj
 0001:000073d0       ??0CExpansionVector@ATL@@QEAA@XZ 00000001800083d0 f i ElectronicValueRW.obj
 0001:00007410       ??0CParseBuffer@CRegParser@ATL@@QEAA@H@Z 0000000180008410 f i ElectronicValueRW.obj
 0001:000074a0       ??0CRegKey@ATL@@QEAA@PEAUHKEY__@@@Z 00000001800084a0 f i ElectronicValueRW.obj
 0001:000074e0       ??0CRegKey@ATL@@QEAA@PEAVCAtlTransactionManager@1@@Z 00000001800084e0 f i ElectronicValueRW.obj
 0001:00007520       ??0CRegObject@ATL@@QEAA@XZ 0000000180008520 f i ElectronicValueRW.obj
 0001:00007580       ??0CRegParser@ATL@@QEAA@PEAVCRegObject@1@@Z 0000000180008580 f i ElectronicValueRW.obj
 0001:000075b0       ??0IClassFactory@@QEAA@XZ  00000001800085b0 f i ElectronicValueRW.obj
 0001:000075f0       ??0IEnumConnectionPoints@@QEAA@XZ 00000001800085f0 f i ElectronicValueRW.obj
 0001:00007630       ??0IEnumConnections@@QEAA@XZ 0000000180008630 f i ElectronicValueRW.obj
 0001:00007670       ??0IRegistrarBase@@QEAA@XZ 0000000180008670 f i ElectronicValueRW.obj
 0001:000076b0       ??0IUnknown@@QEAA@XZ       00000001800086b0 f i ElectronicValueRW.obj
 0001:000076c0       ??0ModuleLockHelper@ATL@@QEAA@XZ 00000001800086c0 f i ElectronicValueRW.obj
 0001:00007700       ??0OposVariant@@QEAA@XZ    0000000180008700 f i ElectronicValueRW.obj
 0001:00007720       ??0Wrapper@?$CSimpleArray@GV?$CSimpleArrayEqualHelper@G@ATL@@@ATL@@QEAA@AEBG@Z 0000000180008720 f i ElectronicValueRW.obj
 0001:00007750       ??0_ATL_MODULE70@ATL@@QEAA@XZ 0000000180008750 f i ElectronicValueRW.obj
 0001:00007790       ??0_ATL_MSG@ATL@@QEAA@PEAUHWND__@@I_K_JH@Z 0000000180008790 f i ElectronicValueRW.obj
 0001:00007820       ??0_U_MENUorID@ATL@@QEAA@I@Z 0000000180008820 f i ElectronicValueRW.obj
 0001:00007840       ??0_U_RECT@ATL@@QEAA@AEAUtagRECT@@@Z 0000000180008840 f i ElectronicValueRW.obj
 0001:00007860       ??0stringdispid@CComTypeInfoHolder@ATL@@QEAA@XZ 0000000180008860 f i ElectronicValueRW.obj
 0001:000078b0       ??1?$CAtlModuleT@VCComModule@ATL@@@ATL@@UEAA@XZ 00000001800088b0 f i ElectronicValueRW.obj
 0001:000078e0       ??1?$CAtlSafeAllocBufferManager@VCCRTAllocator@ATL@@@_ATL_SAFE_ALLOCA_IMPL@ATL@@QEAA@XZ 00000001800088e0 f i ElectronicValueRW.obj
 0001:00007940       ??1?$CAutoVectorPtr@_W@ATL@@QEAA@XZ 0000000180008940 f i ElectronicValueRW.obj
 0001:00007970       ??1?$CComAggObject@VCOPOSElectronicValueRW@@@ATL@@UEAA@XZ 0000000180008970 f i ElectronicValueRW.obj
 0001:000079f0       ??1?$CComContainedObject@VCOPOSElectronicValueRW@@@ATL@@UEAA@XZ 00000001800089f0 f i ElectronicValueRW.obj
 0001:00007a20       ??1?$CComCritSecLock@VCComCriticalSection@ATL@@@ATL@@QEAA@XZ 0000000180008a20 f i ElectronicValueRW.obj
 0001:00007a60       ??1?$CComEnum@UIEnumConnectionPoints@@$1?_GUID_b196b285_bab4_101a_b69c_00aa00341d07@@3U__s_GUID@@BPEAUIConnectionPoint@@V?$_CopyInterface@UIConnectionPoint@@@ATL@@VCComSingleThreadModel@6@@ATL@@UEAA@XZ 0000000180008a60 f i ElectronicValueRW.obj
 0001:00007aa0       ??1?$CComEnum@UIEnumConnections@@$1?_GUID_b196b287_bab4_101a_b69c_00aa00341d07@@3U__s_GUID@@BUtagCONNECTDATA@@V?$_Copy@UtagCONNECTDATA@@@ATL@@VCComSingleThreadModel@6@@ATL@@UEAA@XZ 0000000180008aa0 f i ElectronicValueRW.obj
 0001:00007ae0       ??1?$CComEnumImpl@UIEnumConnectionPoints@@$1?_GUID_b196b285_bab4_101a_b69c_00aa00341d07@@3U__s_GUID@@BPEAUIConnectionPoint@@V?$_CopyInterface@UIConnectionPoint@@@ATL@@@ATL@@UEAA@XZ 0000000180008ae0 f i ElectronicValueRW.obj
 0001:00007b80       ??1?$CComEnumImpl@UIEnumConnections@@$1?_GUID_b196b287_bab4_101a_b69c_00aa00341d07@@3U__s_GUID@@BUtagCONNECTDATA@@V?$_Copy@UtagCONNECTDATA@@@ATL@@@ATL@@UEAA@XZ 0000000180008b80 f i ElectronicValueRW.obj
 0001:00007c20       ??1?$CComObject@V?$CComEnum@UIEnumConnectionPoints@@$1?_GUID_b196b285_bab4_101a_b69c_00aa00341d07@@3U__s_GUID@@BPEAUIConnectionPoint@@V?$_CopyInterface@UIConnectionPoint@@@ATL@@VCComSingleThreadModel@6@@ATL@@@ATL@@UEAA@XZ 0000000180008c20 f i ElectronicValueRW.obj
 0001:00007c90       ??1?$CComObject@V?$CComEnum@UIEnumConnections@@$1?_GUID_b196b287_bab4_101a_b69c_00aa00341d07@@3U__s_GUID@@BUtagCONNECTDATA@@V?$_Copy@UtagCONNECTDATA@@@ATL@@VCComSingleThreadModel@6@@ATL@@@ATL@@UEAA@XZ 0000000180008c90 f i ElectronicValueRW.obj
 0001:00007d00       ??1?$CComObject@VCOPOSElectronicValueRW@@@ATL@@UEAA@XZ 0000000180008d00 f i ElectronicValueRW.obj
 0001:00007eb0       ??1?$CComObjectCached@VCComClassFactory@ATL@@@ATL@@UEAA@XZ 0000000180008eb0 f i ElectronicValueRW.obj
 0001:00007f10       ??1?$CComObjectRootEx@VCComMultiThreadModel@ATL@@@ATL@@QEAA@XZ 0000000180008f10 f i ElectronicValueRW.obj
 0001:00007f50       ??1?$CComObjectRootEx@VCComSingleThreadModel@ATL@@@ATL@@QEAA@XZ 0000000180008f50 f i ElectronicValueRW.obj
 0001:00007f80       ??1?$CComPtr@UIAdviseSink@@@ATL@@QEAA@XZ 0000000180008f80 f i ElectronicValueRW.obj
 0001:00007fb0       ??1?$CComPtr@UICatRegister@@@ATL@@QEAA@XZ 0000000180008fb0 f i ElectronicValueRW.obj
 0001:00007fe0       ??1?$CComPtr@UIConnectionPoint@@@ATL@@QEAA@XZ 0000000180008fe0 f i ElectronicValueRW.obj
 0001:00008010       ??1?$CComPtr@UIConnectionPointContainer@@@ATL@@QEAA@XZ 0000000180009010 f i ElectronicValueRW.obj
 0001:00008040       ??1?$CComPtr@UIDataObject@@@ATL@@QEAA@XZ 0000000180009040 f i ElectronicValueRW.obj
 0001:00008070       ??1?$CComPtr@UIDispatch@@@ATL@@QEAA@XZ 0000000180009070 f i ElectronicValueRW.obj
 0001:000080a0       ??1?$CComPtr@UIOleClientSite@@@ATL@@QEAA@XZ 00000001800090a0 f i ElectronicValueRW.obj
 0001:000080d0       ??1?$CComPtr@UIOleControlSite@@@ATL@@QEAA@XZ 00000001800090d0 f i ElectronicValueRW.obj
 0001:00008100       ??1?$CComPtr@UIOleInPlaceActiveObject@@@ATL@@QEAA@XZ 0000000180009100 f i ElectronicValueRW.obj
 0001:00008130       ??1?$CComPtr@UIOleInPlaceFrame@@@ATL@@QEAA@XZ 0000000180009130 f i ElectronicValueRW.obj
 0001:00008160       ??1?$CComPtr@UIOleInPlaceObject@@@ATL@@QEAA@XZ 0000000180009160 f i ElectronicValueRW.obj
 0001:00008190       ??1?$CComPtr@UIOleInPlaceUIWindow@@@ATL@@QEAA@XZ 0000000180009190 f i ElectronicValueRW.obj
 0001:000081c0       ??1?$CComPtr@UIOleObject@@@ATL@@QEAA@XZ 00000001800091c0 f i ElectronicValueRW.obj
 0001:000081f0       ??1?$CComPtr@UIPersistStream@@@ATL@@QEAA@XZ 00000001800091f0 f i ElectronicValueRW.obj
 0001:00008220       ??1?$CComPtr@UIPersistStreamInit@@@ATL@@QEAA@XZ 0000000180009220 f i ElectronicValueRW.obj
 0001:00008250       ??1?$CComPtr@UIPointerInactive@@@ATL@@QEAA@XZ 0000000180009250 f i ElectronicValueRW.obj
 0001:00008280       ??1?$CComPtr@UIProvideClassInfo2@@@ATL@@QEAA@XZ 0000000180009280 f i ElectronicValueRW.obj
 0001:000082b0       ??1?$CComPtr@UISpecifyPropertyPages@@@ATL@@QEAA@XZ 00000001800092b0 f i ElectronicValueRW.obj
 0001:000082e0       ??1?$CComPtr@UIStream@@@ATL@@QEAA@XZ 00000001800092e0 f i ElectronicValueRW.obj
 0001:00008310       ??1?$CComPtr@UITypeInfo2@@@ATL@@QEAA@XZ 0000000180009310 f i ElectronicValueRW.obj
 0001:00008340       ??1?$CComPtr@UITypeInfo@@@ATL@@QEAA@XZ 0000000180009340 f i ElectronicValueRW.obj
 0001:00008370       ??1?$CComPtr@UITypeLib@@@ATL@@QEAA@XZ 0000000180009370 f i ElectronicValueRW.obj
 0001:000083a0       ??1?$CComPtr@UIUnknown@@@ATL@@QEAA@XZ 00000001800093a0 f i ElectronicValueRW.obj
 0001:000083d0       ??1?$CComPtr@UIViewObjectEx@@@ATL@@QEAA@XZ 00000001800093d0 f i ElectronicValueRW.obj
 0001:00008400       ??1?$CComPtrBase@UIAdviseSink@@@ATL@@QEAA@XZ 0000000180009400 f i ElectronicValueRW.obj
 0001:00008450       ??1?$CComPtrBase@UICatRegister@@@ATL@@QEAA@XZ 0000000180009450 f i ElectronicValueRW.obj
 0001:000084a0       ??1?$CComPtrBase@UIConnectionPoint@@@ATL@@QEAA@XZ 00000001800094a0 f i ElectronicValueRW.obj
 0001:000084f0       ??1?$CComPtrBase@UIConnectionPointContainer@@@ATL@@QEAA@XZ 00000001800094f0 f i ElectronicValueRW.obj
 0001:00008540       ??1?$CComPtrBase@UIDataObject@@@ATL@@QEAA@XZ 0000000180009540 f i ElectronicValueRW.obj
 0001:00008590       ??1?$CComPtrBase@UIDispatch@@@ATL@@QEAA@XZ 0000000180009590 f i ElectronicValueRW.obj
 0001:000085e0       ??1?$CComPtrBase@UIOleClientSite@@@ATL@@QEAA@XZ 00000001800095e0 f i ElectronicValueRW.obj
 0001:00008630       ??1?$CComPtrBase@UIOleControlSite@@@ATL@@QEAA@XZ 0000000180009630 f i ElectronicValueRW.obj
 0001:00008680       ??1?$CComPtrBase@UIOleInPlaceActiveObject@@@ATL@@QEAA@XZ 0000000180009680 f i ElectronicValueRW.obj
 0001:000086d0       ??1?$CComPtrBase@UIOleInPlaceFrame@@@ATL@@QEAA@XZ 00000001800096d0 f i ElectronicValueRW.obj
 0001:00008720       ??1?$CComPtrBase@UIOleInPlaceObject@@@ATL@@QEAA@XZ 0000000180009720 f i ElectronicValueRW.obj
 0001:00008770       ??1?$CComPtrBase@UIOleInPlaceUIWindow@@@ATL@@QEAA@XZ 0000000180009770 f i ElectronicValueRW.obj
 0001:000087c0       ??1?$CComPtrBase@UIOleObject@@@ATL@@QEAA@XZ 00000001800097c0 f i ElectronicValueRW.obj
 0001:00008810       ??1?$CComPtrBase@UIPersistStream@@@ATL@@QEAA@XZ 0000000180009810 f i ElectronicValueRW.obj
 0001:00008860       ??1?$CComPtrBase@UIPersistStreamInit@@@ATL@@QEAA@XZ 0000000180009860 f i ElectronicValueRW.obj
 0001:000088b0       ??1?$CComPtrBase@UIPointerInactive@@@ATL@@QEAA@XZ 00000001800098b0 f i ElectronicValueRW.obj
 0001:00008900       ??1?$CComPtrBase@UIProvideClassInfo2@@@ATL@@QEAA@XZ 0000000180009900 f i ElectronicValueRW.obj
 0001:00008950       ??1?$CComPtrBase@UISpecifyPropertyPages@@@ATL@@QEAA@XZ 0000000180009950 f i ElectronicValueRW.obj
 0001:000089a0       ??1?$CComPtrBase@UIStream@@@ATL@@QEAA@XZ 00000001800099a0 f i ElectronicValueRW.obj
 0001:000089f0       ??1?$CComPtrBase@UITypeInfo2@@@ATL@@QEAA@XZ 00000001800099f0 f i ElectronicValueRW.obj
 0001:00008a40       ??1?$CComPtrBase@UITypeInfo@@@ATL@@QEAA@XZ 0000000180009a40 f i ElectronicValueRW.obj
 0001:00008a90       ??1?$CComPtrBase@UITypeLib@@@ATL@@QEAA@XZ 0000000180009a90 f i ElectronicValueRW.obj
 0001:00008ae0       ??1?$CComPtrBase@UIUnknown@@@ATL@@QEAA@XZ 0000000180009ae0 f i ElectronicValueRW.obj
 0001:00008b30       ??1?$CComPtrBase@UIViewObjectEx@@@ATL@@QEAA@XZ 0000000180009b30 f i ElectronicValueRW.obj
 0001:00008b80       ??1?$CComQIPtr@UIOleControlSite@@$1?_GUID_b196b289_bab4_101a_b69c_00aa00341d07@@3U__s_GUID@@B@ATL@@QEAA@XZ 0000000180009b80 f i ElectronicValueRW.obj
 0001:00008bb0       ??1?$CComQIPtr@UIOleObject@@$1?_GUID_00000112_0000_0000_c000_000000000046@@3U__s_GUID@@B@ATL@@QEAA@XZ 0000000180009bb0 f i ElectronicValueRW.obj
 0001:00008be0       ??1?$CComQIPtr@UISpecifyPropertyPages@@$1?_GUID_b196b28b_bab4_101a_b69c_00aa00341d07@@3U__s_GUID@@B@ATL@@QEAA@XZ 0000000180009be0 f i ElectronicValueRW.obj
 0001:00008c10       ??1?$CSimpleMap@PEA_WPEA_WVCExpansionVectorEqualHelper@ATL@@@ATL@@QEAA@XZ 0000000180009c10 f i ElectronicValueRW.obj
 0001:00008c40       ??1?$CTempBuffer@E$0BAA@VCCRTAllocator@ATL@@@ATL@@QEAA@XZ 0000000180009c40 f i ElectronicValueRW.obj
 0001:00008c90       ??1?$CTempBuffer@_W$0BAA@VCCRTAllocator@ATL@@@ATL@@QEAA@XZ 0000000180009c90 f i ElectronicValueRW.obj
 0001:00008ce0       ??1?$CTempBuffer@_W$0EAA@VCCRTAllocator@ATL@@@ATL@@QEAA@XZ 0000000180009ce0 f i ElectronicValueRW.obj
 0001:00008d30       ??1CAtlModule@ATL@@UEAA@XZ 0000000180009d30 f i ElectronicValueRW.obj
 0001:00008d70       ??1CComAutoDeleteCriticalSection@ATL@@QEAA@XZ 0000000180009d70 f i ElectronicValueRW.obj
 0001:00008da0       ??1CComClassFactory@ATL@@UEAA@XZ 0000000180009da0 f i ElectronicValueRW.obj
 0001:00008df0       ??1CComModule@ATL@@UEAA@XZ 0000000180009df0 f i ElectronicValueRW.obj
 0001:00008e30       ??1CComObjectRootBase@ATL@@QEAA@XZ 0000000180009e30 f i ElectronicValueRW.obj
 0001:00008e40       ??1CComSafeDeleteCriticalSection@ATL@@QEAA@XZ 0000000180009e40 f i ElectronicValueRW.obj
 0001:00008e90       ??1CComVariant@ATL@@QEAA@XZ 0000000180009e90 f i ElectronicValueRW.obj
 0001:00008f10       ??1CExpansionVector@ATL@@QEAA@XZ 0000000180009f10 f i ElectronicValueRW.obj
 0001:00008f50       ??1CParseBuffer@CRegParser@ATL@@QEAA@XZ 0000000180009f50 f i ElectronicValueRW.obj
 0001:00008f90       ??1CRegKey@ATL@@QEAA@XZ    0000000180009f90 f i ElectronicValueRW.obj
 0001:00008fc0       ??1CRegObject@ATL@@UEAA@XZ 0000000180009fc0 f i ElectronicValueRW.obj
 0001:00009010       ??1ModuleLockHelper@ATL@@QEAA@XZ 000000018000a010 f i ElectronicValueRW.obj
 0001:00009050       ??1OposVariant@@QEAA@XZ    000000018000a050 f i ElectronicValueRW.obj
 0001:00009090       ??1_ATL_MODULE70@ATL@@QEAA@XZ 000000018000a090 f i ElectronicValueRW.obj
 0001:000090d0       ??4?$CComPtr@UIAdviseSink@@@ATL@@QEAAPEAUIAdviseSink@@PEAU2@@Z 000000018000a0d0 f i ElectronicValueRW.obj
 0001:00009140       ??4?$CComPtr@UIOleClientSite@@@ATL@@QEAAPEAUIOleClientSite@@PEAU2@@Z 000000018000a140 f i ElectronicValueRW.obj
 0001:000091b0       ??4?$CComPtr@UIUnknown@@@ATL@@QEAAPEAUIUnknown@@PEAU2@@Z 000000018000a1b0 f i ElectronicValueRW.obj
 0001:00009220       ??4?$CComQIPtr@UIOleObject@@$1?_GUID_00000112_0000_0000_c000_000000000046@@3U__s_GUID@@B@ATL@@QEAAPEAUIOleObject@@PEAUIUnknown@@@Z 000000018000a220 f i ElectronicValueRW.obj
 0001:00009280       ??4?$CComQIPtr@UISpecifyPropertyPages@@$1?_GUID_b196b28b_bab4_101a_b69c_00aa00341d07@@3U__s_GUID@@B@ATL@@QEAAPEAUISpecifyPropertyPages@@PEAUIUnknown@@@Z 000000018000a280 f i ElectronicValueRW.obj
 0001:000092e0       ??7?$CComPtrBase@UIOleClientSite@@@ATL@@QEBA_NXZ 000000018000a2e0 f i ElectronicValueRW.obj
 0001:00009330       ??7?$CComPtrBase@UIOleInPlaceSiteWindowless@@@ATL@@QEBA_NXZ 000000018000a330 f i ElectronicValueRW.obj
 0001:00009380       ??7CComBSTR@ATL@@QEBA_NXZ  000000018000a380 f i ElectronicValueRW.obj
 0001:000093d0       ??8?$CComPtrBase@UIAdviseSink@@@ATL@@QEBA_NPEAUIAdviseSink@@@Z 000000018000a3d0 f i ElectronicValueRW.obj
 0001:00009420       ??8?$CComPtrBase@UIConnectionPointContainer@@@ATL@@QEBA_NPEAUIConnectionPointContainer@@@Z 000000018000a420 f i ElectronicValueRW.obj
 0001:00009470       ??8?$CComPtrBase@UIDataAdviseHolder@@@ATL@@QEBA_NPEAUIDataAdviseHolder@@@Z 000000018000a470 f i ElectronicValueRW.obj
 0001:000094c0       ??8?$CComPtrBase@UIOleAdviseHolder@@@ATL@@QEBA_NPEAUIOleAdviseHolder@@@Z 000000018000a4c0 f i ElectronicValueRW.obj
 0001:00009510       ??8?$CComPtrBase@UIOleClientSite@@@ATL@@QEBA_NPEAUIOleClientSite@@@Z 000000018000a510 f i ElectronicValueRW.obj
 0001:00009560       ??8?$CComPtrBase@UIOleControlSite@@@ATL@@QEBA_NPEAUIOleControlSite@@@Z 000000018000a560 f i ElectronicValueRW.obj
 0001:000095b0       ??8?$CComPtrBase@UIOleInPlaceObject@@@ATL@@QEBA_NPEAUIOleInPlaceObject@@@Z 000000018000a5b0 f i ElectronicValueRW.obj
 0001:00009600       ??8?$CComPtrBase@UIOleInPlaceSiteWindowless@@@ATL@@QEBA_NPEAUIOleInPlaceSiteWindowless@@@Z 000000018000a600 f i ElectronicValueRW.obj
 0001:00009650       ??8?$CComPtrBase@UIOleObject@@@ATL@@QEBA_NPEAUIOleObject@@@Z 000000018000a650 f i ElectronicValueRW.obj
 0001:000096a0       ??8?$CComPtrBase@UIPersistStream@@@ATL@@QEBA_NPEAUIPersistStream@@@Z 000000018000a6a0 f i ElectronicValueRW.obj
 0001:000096f0       ??8?$CComPtrBase@UIPersistStreamInit@@@ATL@@QEBA_NPEAUIPersistStreamInit@@@Z 000000018000a6f0 f i ElectronicValueRW.obj
 0001:00009740       ??8?$CComPtrBase@UIPointerInactive@@@ATL@@QEBA_NPEAUIPointerInactive@@@Z 000000018000a740 f i ElectronicValueRW.obj
 0001:00009790       ??8?$CComPtrBase@UIUnknown@@@ATL@@QEBA_NPEAUIUnknown@@@Z 000000018000a790 f i ElectronicValueRW.obj
 0001:000097e0       ??8?$CComPtrBase@UIViewObjectEx@@@ATL@@QEBA_NPEAUIViewObjectEx@@@Z 000000018000a7e0 f i ElectronicValueRW.obj
 0001:00009830       ??8CComBSTR@ATL@@QEBA_NH@Z 000000018000a830 f i ElectronicValueRW.obj
 0001:000098b0       ??9?$CComPtrBase@UIAdviseSink@@@ATL@@QEBA_NPEAUIAdviseSink@@@Z 000000018000a8b0 f i ElectronicValueRW.obj
 0001:00009910       ??9?$CComPtrBase@UIConnectionPointContainer@@@ATL@@QEBA_NPEAUIConnectionPointContainer@@@Z 000000018000a910 f i ElectronicValueRW.obj
 0001:00009970       ??9?$CComPtrBase@UIDataAdviseHolder@@@ATL@@QEBA_NPEAUIDataAdviseHolder@@@Z 000000018000a970 f i ElectronicValueRW.obj
 0001:000099d0       ??9?$CComPtrBase@UIOleAdviseHolder@@@ATL@@QEBA_NPEAUIOleAdviseHolder@@@Z 000000018000a9d0 f i ElectronicValueRW.obj
 0001:00009a30       ??9?$CComPtrBase@UIOleClientSite@@@ATL@@QEBA_NPEAUIOleClientSite@@@Z 000000018000aa30 f i ElectronicValueRW.obj
 0001:00009a90       ??9?$CComPtrBase@UIOleControlSite@@@ATL@@QEBA_NPEAUIOleControlSite@@@Z 000000018000aa90 f i ElectronicValueRW.obj
 0001:00009af0       ??9?$CComPtrBase@UIOleInPlaceObject@@@ATL@@QEBA_NPEAUIOleInPlaceObject@@@Z 000000018000aaf0 f i ElectronicValueRW.obj
 0001:00009b50       ??9?$CComPtrBase@UIOleInPlaceSiteWindowless@@@ATL@@QEBA_NPEAUIOleInPlaceSiteWindowless@@@Z 000000018000ab50 f i ElectronicValueRW.obj
 0001:00009bb0       ??9?$CComPtrBase@UIOleObject@@@ATL@@QEBA_NPEAUIOleObject@@@Z 000000018000abb0 f i ElectronicValueRW.obj
 0001:00009c10       ??9?$CComPtrBase@UIPersistStream@@@ATL@@QEBA_NPEAUIPersistStream@@@Z 000000018000ac10 f i ElectronicValueRW.obj
 0001:00009c70       ??9?$CComPtrBase@UIPersistStreamInit@@@ATL@@QEBA_NPEAUIPersistStreamInit@@@Z 000000018000ac70 f i ElectronicValueRW.obj
 0001:00009cd0       ??9?$CComPtrBase@UIPointerInactive@@@ATL@@QEBA_NPEAUIPointerInactive@@@Z 000000018000acd0 f i ElectronicValueRW.obj
 0001:00009d30       ??9?$CComPtrBase@UIUnknown@@@ATL@@QEBA_NPEAUIUnknown@@@Z 000000018000ad30 f i ElectronicValueRW.obj
 0001:00009d90       ??9?$CComPtrBase@UIViewObjectEx@@@ATL@@QEBA_NPEAUIViewObjectEx@@@Z 000000018000ad90 f i ElectronicValueRW.obj
 0001:00009df0       ??9CComBSTR@ATL@@QEBA_NH@Z 000000018000adf0 f i ElectronicValueRW.obj
 0001:00009e50       ??B?$CComPtrBase@UIAdviseSink@@@ATL@@QEBAPEAUIAdviseSink@@XZ 000000018000ae50 f i ElectronicValueRW.obj
 0001:00009e60       ??B?$CComPtrBase@UIDataAdviseHolder@@@ATL@@QEBAPEAUIDataAdviseHolder@@XZ 000000018000ae60 f i ElectronicValueRW.obj
 0001:00009e70       ??B?$CComPtrBase@UIDataObject@@@ATL@@QEBAPEAUIDataObject@@XZ 000000018000ae70 f i ElectronicValueRW.obj
 0001:00009e80       ??B?$CComPtrBase@UIOleAdviseHolder@@@ATL@@QEBAPEAUIOleAdviseHolder@@XZ 000000018000ae80 f i ElectronicValueRW.obj
 0001:00009e90       ??B?$CComPtrBase@UIOleClientSite@@@ATL@@QEBAPEAUIOleClientSite@@XZ 000000018000ae90 f i ElectronicValueRW.obj
 0001:00009ea0       ??B?$CComPtrBase@UIOleControlSite@@@ATL@@QEBAPEAUIOleControlSite@@XZ 000000018000aea0 f i ElectronicValueRW.obj
 0001:00009eb0       ??B?$CComPtrBase@UIOleInPlaceActiveObject@@@ATL@@QEBAPEAUIOleInPlaceActiveObject@@XZ 000000018000aeb0 f i ElectronicValueRW.obj
 0001:00009ec0       ??B?$CComPtrBase@UIOleInPlaceFrame@@@ATL@@QEBAPEAUIOleInPlaceFrame@@XZ 000000018000aec0 f i ElectronicValueRW.obj
 0001:00009ed0       ??B?$CComPtrBase@UIOleInPlaceSiteWindowless@@@ATL@@QEBAPEAUIOleInPlaceSiteWindowless@@XZ 000000018000aed0 f i ElectronicValueRW.obj
 0001:00009ee0       ??B?$CComPtrBase@UIOleInPlaceUIWindow@@@ATL@@QEBAPEAUIOleInPlaceUIWindow@@XZ 000000018000aee0 f i ElectronicValueRW.obj
 0001:00009ef0       ??B?$CComPtrBase@UIOleObject@@@ATL@@QEBAPEAUIOleObject@@XZ 000000018000aef0 f i ElectronicValueRW.obj
 0001:00009f00       ??B?$CComPtrBase@UIPersistStream@@@ATL@@QEBAPEAUIPersistStream@@XZ 000000018000af00 f i ElectronicValueRW.obj
 0001:00009f10       ??B?$CComPtrBase@UIProvideClassInfo2@@@ATL@@QEBAPEAUIProvideClassInfo2@@XZ 000000018000af10 f i ElectronicValueRW.obj
 0001:00009f20       ??B?$CComPtrBase@UISpecifyPropertyPages@@@ATL@@QEBAPEAUISpecifyPropertyPages@@XZ 000000018000af20 f i ElectronicValueRW.obj
 0001:00009f30       ??B?$CComPtrBase@UIStream@@@ATL@@QEBAPEAUIStream@@XZ 000000018000af30 f i ElectronicValueRW.obj
 0001:00009f40       ??B?$CComPtrBase@UITypeInfo2@@@ATL@@QEBAPEAUITypeInfo2@@XZ 000000018000af40 f i ElectronicValueRW.obj
 0001:00009f50       ??B?$CComPtrBase@UITypeInfo@@@ATL@@QEBAPEAUITypeInfo@@XZ 000000018000af50 f i ElectronicValueRW.obj
 0001:00009f60       ??B?$CComPtrBase@UITypeLib@@@ATL@@QEBAPEAUITypeLib@@XZ 000000018000af60 f i ElectronicValueRW.obj
 0001:00009f70       ??B?$CComPtrBase@UIUnknown@@@ATL@@QEBAPEAUIUnknown@@XZ 000000018000af70 f i ElectronicValueRW.obj
 0001:00009f80       ??B?$CTempBuffer@E$0BAA@VCCRTAllocator@ATL@@@ATL@@QEBAPEAEXZ 000000018000af80 f i ElectronicValueRW.obj
 0001:00009f90       ??B?$CTempBuffer@_W$0BAA@VCCRTAllocator@ATL@@@ATL@@QEBAPEA_WXZ 000000018000af90 f i ElectronicValueRW.obj
 0001:00009fa0       ??B?$CTempBuffer@_W$0EAA@VCCRTAllocator@ATL@@@ATL@@QEBAPEA_WXZ 000000018000afa0 f i ElectronicValueRW.obj
 0001:00009fb0       ??B?$CTraceCategoryEx@$00$0A@@ATL@@QEAAIXZ 000000018000afb0 f i ElectronicValueRW.obj
 0001:00009fc0       ??B?$CTraceCategoryEx@$07$0A@@ATL@@QEAAIXZ 000000018000afc0 f i ElectronicValueRW.obj
 0001:00009fd0       ??B?$CTraceCategoryEx@$0CAAA@$0A@@ATL@@QEAAIXZ 000000018000afd0 f i ElectronicValueRW.obj
 0001:00009fe0       ??B?$CTraceCategoryEx@$0EA@$0A@@ATL@@QEAAIXZ 000000018000afe0 f i ElectronicValueRW.obj
 0001:00009ff0       ??B?$CTraceCategoryEx@$0IAA@$0A@@ATL@@QEAAIXZ 000000018000aff0 f i ElectronicValueRW.obj
 0001:0000a000       ??BCComBSTR@ATL@@QEBAPEA_WXZ 000000018000b000 f i ElectronicValueRW.obj
 0001:0000a010       ??BCRegKey@ATL@@QEBAPEAUHKEY__@@XZ 000000018000b010 f i ElectronicValueRW.obj
 0001:0000a020       ??C?$CComPtrBase@UIAdviseSink@@@ATL@@QEBAPEAV?$_NoAddRefReleaseOnCComPtr@UIAdviseSink@@@1@XZ 000000018000b020 f i ElectronicValueRW.obj
 0001:0000a0a0       ??C?$CComPtrBase@UICatRegister@@@ATL@@QEBAPEAV?$_NoAddRefReleaseOnCComPtr@UICatRegister@@@1@XZ 000000018000b0a0 f i ElectronicValueRW.obj
 0001:0000a120       ??C?$CComPtrBase@UIConnectionPoint@@@ATL@@QEBAPEAV?$_NoAddRefReleaseOnCComPtr@UIConnectionPoint@@@1@XZ 000000018000b120 f i ElectronicValueRW.obj
 0001:0000a1a0       ??C?$CComPtrBase@UIConnectionPointContainer@@@ATL@@QEBAPEAV?$_NoAddRefReleaseOnCComPtr@UIConnectionPointContainer@@@1@XZ 000000018000b1a0 f i ElectronicValueRW.obj
 0001:0000a220       ??C?$CComPtrBase@UIDataAdviseHolder@@@ATL@@QEBAPEAV?$_NoAddRefReleaseOnCComPtr@UIDataAdviseHolder@@@1@XZ 000000018000b220 f i ElectronicValueRW.obj
 0001:0000a2a0       ??C?$CComPtrBase@UIOleAdviseHolder@@@ATL@@QEBAPEAV?$_NoAddRefReleaseOnCComPtr@UIOleAdviseHolder@@@1@XZ 000000018000b2a0 f i ElectronicValueRW.obj
 0001:0000a320       ??C?$CComPtrBase@UIOleClientSite@@@ATL@@QEBAPEAV?$_NoAddRefReleaseOnCComPtr@UIOleClientSite@@@1@XZ 000000018000b320 f i ElectronicValueRW.obj
 0001:0000a3a0       ??C?$CComPtrBase@UIOleControlSite@@@ATL@@QEBAPEAV?$_NoAddRefReleaseOnCComPtr@UIOleControlSite@@@1@XZ 000000018000b3a0 f i ElectronicValueRW.obj
 0001:0000a420       ??C?$CComPtrBase@UIOleInPlaceFrame@@@ATL@@QEBAPEAV?$_NoAddRefReleaseOnCComPtr@UIOleInPlaceFrame@@@1@XZ 000000018000b420 f i ElectronicValueRW.obj
 0001:0000a4a0       ??C?$CComPtrBase@UIOleInPlaceObject@@@ATL@@QEBAPEAV?$_NoAddRefReleaseOnCComPtr@UIOleInPlaceObject@@@1@XZ 000000018000b4a0 f i ElectronicValueRW.obj
 0001:0000a520       ??C?$CComPtrBase@UIOleInPlaceSiteWindowless@@@ATL@@QEBAPEAV?$_NoAddRefReleaseOnCComPtr@UIOleInPlaceSiteWindowless@@@1@XZ 000000018000b520 f i ElectronicValueRW.obj
 0001:0000a5a0       ??C?$CComPtrBase@UIOleInPlaceUIWindow@@@ATL@@QEBAPEAV?$_NoAddRefReleaseOnCComPtr@UIOleInPlaceUIWindow@@@1@XZ 000000018000b5a0 f i ElectronicValueRW.obj
 0001:0000a620       ??C?$CComPtrBase@UIOleObject@@@ATL@@QEBAPEAV?$_NoAddRefReleaseOnCComPtr@UIOleObject@@@1@XZ 000000018000b620 f i ElectronicValueRW.obj
 0001:0000a6a0       ??C?$CComPtrBase@UIPersistStream@@@ATL@@QEBAPEAV?$_NoAddRefReleaseOnCComPtr@UIPersistStream@@@1@XZ 000000018000b6a0 f i ElectronicValueRW.obj
 0001:0000a720       ??C?$CComPtrBase@UIPersistStreamInit@@@ATL@@QEBAPEAV?$_NoAddRefReleaseOnCComPtr@UIPersistStreamInit@@@1@XZ 000000018000b720 f i ElectronicValueRW.obj
 0001:0000a7a0       ??C?$CComPtrBase@UIPointerInactive@@@ATL@@QEBAPEAV?$_NoAddRefReleaseOnCComPtr@UIPointerInactive@@@1@XZ 000000018000b7a0 f i ElectronicValueRW.obj
 0001:0000a820       ??C?$CComPtrBase@UIProvideClassInfo2@@@ATL@@QEBAPEAV?$_NoAddRefReleaseOnCComPtr@UIProvideClassInfo2@@@1@XZ 000000018000b820 f i ElectronicValueRW.obj
 0001:0000a8a0       ??C?$CComPtrBase@UISpecifyPropertyPages@@@ATL@@QEBAPEAV?$_NoAddRefReleaseOnCComPtr@UISpecifyPropertyPages@@@1@XZ 000000018000b8a0 f i ElectronicValueRW.obj
 0001:0000a920       ??C?$CComPtrBase@UITypeInfo@@@ATL@@QEBAPEAV?$_NoAddRefReleaseOnCComPtr@UITypeInfo@@@1@XZ 000000018000b920 f i ElectronicValueRW.obj
 0001:0000a9a0       ??C?$CComPtrBase@UITypeLib@@@ATL@@QEBAPEAV?$_NoAddRefReleaseOnCComPtr@UITypeLib@@@1@XZ 000000018000b9a0 f i ElectronicValueRW.obj
 0001:0000aa20       ??C?$CComPtrBase@UIUnknown@@@ATL@@QEBAPEAV?$_NoAddRefReleaseOnCComPtr@UIUnknown@@@1@XZ 000000018000ba20 f i ElectronicValueRW.obj
 0001:0000aaa0       ??C?$CComPtrBase@UIViewObjectEx@@@ATL@@QEBAPEAV?$_NoAddRefReleaseOnCComPtr@UIViewObjectEx@@@1@XZ 000000018000baa0 f i ElectronicValueRW.obj
 0001:0000ab20       ??I?$CComPtrBase@UICatRegister@@@ATL@@QEAAPEAPEAUICatRegister@@XZ 000000018000bb20 f i ElectronicValueRW.obj
 0001:0000ab90       ??I?$CComPtrBase@UIConnectionPoint@@@ATL@@QEAAPEAPEAUIConnectionPoint@@XZ 000000018000bb90 f i ElectronicValueRW.obj
 0001:0000ac00       ??I?$CComPtrBase@UIConnectionPointContainer@@@ATL@@QEAAPEAPEAUIConnectionPointContainer@@XZ 000000018000bc00 f i ElectronicValueRW.obj
 0001:0000ac70       ??I?$CComPtrBase@UIDataAdviseHolder@@@ATL@@QEAAPEAPEAUIDataAdviseHolder@@XZ 000000018000bc70 f i ElectronicValueRW.obj
 0001:0000ace0       ??I?$CComPtrBase@UIDataObject@@@ATL@@QEAAPEAPEAUIDataObject@@XZ 000000018000bce0 f i ElectronicValueRW.obj
 0001:0000ad50       ??I?$CComPtrBase@UIDispatch@@@ATL@@QEAAPEAPEAUIDispatch@@XZ 000000018000bd50 f i ElectronicValueRW.obj
 0001:0000adc0       ??I?$CComPtrBase@UIOleAdviseHolder@@@ATL@@QEAAPEAPEAUIOleAdviseHolder@@XZ 000000018000bdc0 f i ElectronicValueRW.obj
 0001:0000ae30       ??I?$CComPtrBase@UIOleControlSite@@@ATL@@QEAAPEAPEAUIOleControlSite@@XZ 000000018000be30 f i ElectronicValueRW.obj
 0001:0000aea0       ??I?$CComPtrBase@UIOleInPlaceActiveObject@@@ATL@@QEAAPEAPEAUIOleInPlaceActiveObject@@XZ 000000018000bea0 f i ElectronicValueRW.obj
 0001:0000af10       ??I?$CComPtrBase@UIOleInPlaceFrame@@@ATL@@QEAAPEAPEAUIOleInPlaceFrame@@XZ 000000018000bf10 f i ElectronicValueRW.obj
 0001:0000af80       ??I?$CComPtrBase@UIOleInPlaceObject@@@ATL@@QEAAPEAPEAUIOleInPlaceObject@@XZ 000000018000bf80 f i ElectronicValueRW.obj
 0001:0000aff0       ??I?$CComPtrBase@UIOleInPlaceSiteWindowless@@@ATL@@QEAAPEAPEAUIOleInPlaceSiteWindowless@@XZ 000000018000bff0 f i ElectronicValueRW.obj
 0001:0000b060       ??I?$CComPtrBase@UIOleInPlaceUIWindow@@@ATL@@QEAAPEAPEAUIOleInPlaceUIWindow@@XZ 000000018000c060 f i ElectronicValueRW.obj
 0001:0000b0d0       ??I?$CComPtrBase@UIOleObject@@@ATL@@QEAAPEAPEAUIOleObject@@XZ 000000018000c0d0 f i ElectronicValueRW.obj
 0001:0000b140       ??I?$CComPtrBase@UIPersistStream@@@ATL@@QEAAPEAPEAUIPersistStream@@XZ 000000018000c140 f i ElectronicValueRW.obj
 0001:0000b1b0       ??I?$CComPtrBase@UIPointerInactive@@@ATL@@QEAAPEAPEAUIPointerInactive@@XZ 000000018000c1b0 f i ElectronicValueRW.obj
 0001:0000b220       ??I?$CComPtrBase@UIProvideClassInfo2@@@ATL@@QEAAPEAPEAUIProvideClassInfo2@@XZ 000000018000c220 f i ElectronicValueRW.obj
 0001:0000b290       ??I?$CComPtrBase@UIStream@@@ATL@@QEAAPEAPEAUIStream@@XZ 000000018000c290 f i ElectronicValueRW.obj
 0001:0000b300       ??I?$CComPtrBase@UITypeInfo2@@@ATL@@QEAAPEAPEAUITypeInfo2@@XZ 000000018000c300 f i ElectronicValueRW.obj
 0001:0000b370       ??I?$CComPtrBase@UITypeInfo@@@ATL@@QEAAPEAPEAUITypeInfo@@XZ 000000018000c370 f i ElectronicValueRW.obj
 0001:0000b3e0       ??I?$CComPtrBase@UITypeLib@@@ATL@@QEAAPEAPEAUITypeLib@@XZ 000000018000c3e0 f i ElectronicValueRW.obj
 0001:0000b450       ??I?$CComPtrBase@UIUnknown@@@ATL@@QEAAPEAPEAUIUnknown@@XZ 000000018000c450 f i ElectronicValueRW.obj
 0001:0000b4c0       ??I?$CComPtrBase@UIViewObjectEx@@@ATL@@QEAAPEAPEAUIViewObjectEx@@XZ 000000018000c4c0 f i ElectronicValueRW.obj
 0001:0000b530       ??ICComBSTR@ATL@@QEAAPEAPEA_WXZ 000000018000c530 f i ElectronicValueRW.obj
 0001:0000b540       ??_E?$CComContainedObject@VCOPOSElectronicValueRW@@@ATL@@W7EAAPEAXI@Z 000000018000c540 f i ElectronicValueRW.obj
 0001:0000b54c       ??_E?$CComContainedObject@VCOPOSElectronicValueRW@@@ATL@@WHA@EAAPEAXI@Z 000000018000c54c f i ElectronicValueRW.obj
 0001:0000b558       ??_E?$CComObject@VCOPOSElectronicValueRW@@@ATL@@W7EAAPEAXI@Z 000000018000c558 f i ElectronicValueRW.obj
 0001:0000b564       ??_E?$CComObject@VCOPOSElectronicValueRW@@@ATL@@WHA@EAAPEAXI@Z 000000018000c564 f i ElectronicValueRW.obj
 0001:0000b570       ??_E?$CComAggObject@VCOPOSElectronicValueRW@@@ATL@@UEAAPEAXI@Z 000000018000c570 f i ElectronicValueRW.obj
 0001:0000b570       ??_G?$CComAggObject@VCOPOSElectronicValueRW@@@ATL@@UEAAPEAXI@Z 000000018000c570 f i ElectronicValueRW.obj
 0001:0000b5d0       ??_E?$CComContainedObject@VCOPOSElectronicValueRW@@@ATL@@UEAAPEAXI@Z 000000018000c5d0 f i ElectronicValueRW.obj
 0001:0000b5d0       ??_G?$CComContainedObject@VCOPOSElectronicValueRW@@@ATL@@UEAAPEAXI@Z 000000018000c5d0 f i ElectronicValueRW.obj
 0001:0000b630       ??_E?$CComObject@V?$CComEnum@UIEnumConnectionPoints@@$1?_GUID_b196b285_bab4_101a_b69c_00aa00341d07@@3U__s_GUID@@BPEAUIConnectionPoint@@V?$_CopyInterface@UIConnectionPoint@@@ATL@@VCComSingleThreadModel@6@@ATL@@@ATL@@UEAAPEAXI@Z 000000018000c630 f i ElectronicValueRW.obj
 0001:0000b630       ??_G?$CComObject@V?$CComEnum@UIEnumConnectionPoints@@$1?_GUID_b196b285_bab4_101a_b69c_00aa00341d07@@3U__s_GUID@@BPEAUIConnectionPoint@@V?$_CopyInterface@UIConnectionPoint@@@ATL@@VCComSingleThreadModel@6@@ATL@@@ATL@@UEAAPEAXI@Z 000000018000c630 f i ElectronicValueRW.obj
 0001:0000b690       ??_G?$CComObject@V?$CComEnum@UIEnumConnections@@$1?_GUID_b196b287_bab4_101a_b69c_00aa00341d07@@3U__s_GUID@@BUtagCONNECTDATA@@V?$_Copy@UtagCONNECTDATA@@@ATL@@VCComSingleThreadModel@6@@ATL@@@ATL@@UEAAPEAXI@Z 000000018000c690 f i ElectronicValueRW.obj
 0001:0000b690       ??_E?$CComObject@V?$CComEnum@UIEnumConnections@@$1?_GUID_b196b287_bab4_101a_b69c_00aa00341d07@@3U__s_GUID@@BUtagCONNECTDATA@@V?$_Copy@UtagCONNECTDATA@@@ATL@@VCComSingleThreadModel@6@@ATL@@@ATL@@UEAAPEAXI@Z 000000018000c690 f i ElectronicValueRW.obj
 0001:0000b6f0       ??_G?$CComObject@VCOPOSElectronicValueRW@@@ATL@@UEAAPEAXI@Z 000000018000c6f0 f i ElectronicValueRW.obj
 0001:0000b6f0       ??_E?$CComObject@VCOPOSElectronicValueRW@@@ATL@@UEAAPEAXI@Z 000000018000c6f0 f i ElectronicValueRW.obj
 0001:0000b750       ??_E?$CComObjectCached@VCComClassFactory@ATL@@@ATL@@UEAAPEAXI@Z 000000018000c750 f i ElectronicValueRW.obj
 0001:0000b750       ??_G?$CComObjectCached@VCComClassFactory@ATL@@@ATL@@UEAAPEAXI@Z 000000018000c750 f i ElectronicValueRW.obj
 0001:0000b7b0       ??_ECComClassFactory@ATL@@UEAAPEAXI@Z 000000018000c7b0 f i ElectronicValueRW.obj
 0001:0000b7b0       ??_GCComClassFactory@ATL@@UEAAPEAXI@Z 000000018000c7b0 f i ElectronicValueRW.obj
 0001:0000b810       ??_ECComModule@ATL@@UEAAPEAXI@Z 000000018000c810 f i ElectronicValueRW.obj
 0001:0000b810       ??_GCComModule@ATL@@UEAAPEAXI@Z 000000018000c810 f i ElectronicValueRW.obj
 0001:0000b870       ??_ECRegObject@ATL@@UEAAPEAXI@Z 000000018000c870 f i ElectronicValueRW.obj
 0001:0000b870       ??_GCRegObject@ATL@@UEAAPEAXI@Z 000000018000c870 f i ElectronicValueRW.obj
 0001:0000b8d0       ?Add@?$CSimpleArray@GV?$CSimpleArrayEqualHelper@G@ATL@@@ATL@@QEAAHAEBG@Z 000000018000c8d0 f i ElectronicValueRW.obj
 0001:0000ba70       ?Add@?$CSimpleMap@PEA_WPEA_WVCExpansionVectorEqualHelper@ATL@@@ATL@@QEAAHAEBQEA_W0@Z 000000018000ca70 f i ElectronicValueRW.obj
 0001:0000bb60       ?Add@CComDynamicUnkArray@ATL@@QEAAKPEAUIUnknown@@@Z 000000018000cb60 f i ElectronicValueRW.obj
 0001:0000bd40       ?Add@CExpansionVector@ATL@@QEAAHPEB_W0@Z 000000018000cd40 f i ElectronicValueRW.obj
 0001:0000c070       ?AddChar@CParseBuffer@CRegParser@ATL@@QEAAHPEB_W@Z 000000018000d070 f i ElectronicValueRW.obj
 0001:0000c0c0       ?AddCommonRGSReplacements@?$CAtlModuleT@VCComModule@ATL@@@ATL@@UEAAJPEAUIRegistrarBase@@@Z 000000018000d0c0 f i ElectronicValueRW.obj
 0001:0000c120       ?AddCreateWndData@CAtlWinModule@ATL@@QEAAXPEAU_AtlCreateWndData@2@PEAX@Z 000000018000d120 f i ElectronicValueRW.obj
 0001:0000c170       ?AddRef@?$CComAggObject@VCOPOSElectronicValueRW@@@ATL@@UEAAKXZ 000000018000d170 f i ElectronicValueRW.obj
 0001:0000c1b0       ?AddRef@?$CComContainedObject@VCOPOSElectronicValueRW@@@ATL@@UEAAKXZ 000000018000d1b0 f i ElectronicValueRW.obj
 0001:0000c1e8       ?AddRef@?$CComContainedObject@VCOPOSElectronicValueRW@@@ATL@@WBAA@EAAKXZ 000000018000d1e8 f i ElectronicValueRW.obj
 0001:0000c1f4       ?AddRef@?$CComContainedObject@VCOPOSElectronicValueRW@@@ATL@@WBAI@EAAKXZ 000000018000d1f4 f i ElectronicValueRW.obj
 0001:0000c200       ?AddRef@?$CComContainedObject@VCOPOSElectronicValueRW@@@ATL@@WBBA@EAAKXZ 000000018000d200 f i ElectronicValueRW.obj
 0001:0000c20c       ?AddRef@?$CComContainedObject@VCOPOSElectronicValueRW@@@ATL@@WBBI@EAAKXZ 000000018000d20c f i ElectronicValueRW.obj
 0001:0000c218       ?AddRef@?$CComContainedObject@VCOPOSElectronicValueRW@@@ATL@@WBCI@EAAKXZ 000000018000d218 f i ElectronicValueRW.obj
 0001:0000c224       ?AddRef@?$CComContainedObject@VCOPOSElectronicValueRW@@@ATL@@WBEA@EAAKXZ 000000018000d224 f i ElectronicValueRW.obj
 0001:0000c230       ?AddRef@?$CComContainedObject@VCOPOSElectronicValueRW@@@ATL@@WLI@EAAKXZ 000000018000d230 f i ElectronicValueRW.obj
 0001:0000c23c       ?AddRef@?$CComContainedObject@VCOPOSElectronicValueRW@@@ATL@@WMA@EAAKXZ 000000018000d23c f i ElectronicValueRW.obj
 0001:0000c248       ?AddRef@?$CComContainedObject@VCOPOSElectronicValueRW@@@ATL@@WMI@EAAKXZ 000000018000d248 f i ElectronicValueRW.obj
 0001:0000c254       ?AddRef@?$CComContainedObject@VCOPOSElectronicValueRW@@@ATL@@WNA@EAAKXZ 000000018000d254 f i ElectronicValueRW.obj
 0001:0000c260       ?AddRef@?$CComContainedObject@VCOPOSElectronicValueRW@@@ATL@@WNI@EAAKXZ 000000018000d260 f i ElectronicValueRW.obj
 0001:0000c26c       ?AddRef@?$CComContainedObject@VCOPOSElectronicValueRW@@@ATL@@WOA@EAAKXZ 000000018000d26c f i ElectronicValueRW.obj
 0001:0000c278       ?AddRef@?$CComContainedObject@VCOPOSElectronicValueRW@@@ATL@@WOI@EAAKXZ 000000018000d278 f i ElectronicValueRW.obj
 0001:0000c284       ?AddRef@?$CComContainedObject@VCOPOSElectronicValueRW@@@ATL@@WPA@EAAKXZ 000000018000d284 f i ElectronicValueRW.obj
 0001:0000c290       ?AddRef@?$CComContainedObject@VCOPOSElectronicValueRW@@@ATL@@WPI@EAAKXZ 000000018000d290 f i ElectronicValueRW.obj
 0001:0000c2a0       ?AddRef@?$CComObject@V?$CComEnum@UIEnumConnectionPoints@@$1?_GUID_b196b285_bab4_101a_b69c_00aa00341d07@@3U__s_GUID@@BPEAUIConnectionPoint@@V?$_CopyInterface@UIConnectionPoint@@@ATL@@VCComSingleThreadModel@6@@ATL@@@ATL@@UEAAKXZ 000000018000d2a0 f i ElectronicValueRW.obj
 0001:0000c2e0       ?AddRef@?$CComObject@V?$CComEnum@UIEnumConnections@@$1?_GUID_b196b287_bab4_101a_b69c_00aa00341d07@@3U__s_GUID@@BUtagCONNECTDATA@@V?$_Copy@UtagCONNECTDATA@@@ATL@@VCComSingleThreadModel@6@@ATL@@@ATL@@UEAAKXZ 000000018000d2e0 f i ElectronicValueRW.obj
 0001:0000c320       ?AddRef@?$CComObject@VCOPOSElectronicValueRW@@@ATL@@UEAAKXZ 000000018000d320 f i ElectronicValueRW.obj
 0001:0000c358       ?AddRef@?$CComObject@VCOPOSElectronicValueRW@@@ATL@@WBAA@EAAKXZ 000000018000d358 f i ElectronicValueRW.obj
 0001:0000c364       ?AddRef@?$CComObject@VCOPOSElectronicValueRW@@@ATL@@WBAI@EAAKXZ 000000018000d364 f i ElectronicValueRW.obj
 0001:0000c370       ?AddRef@?$CComObject@VCOPOSElectronicValueRW@@@ATL@@WBBA@EAAKXZ 000000018000d370 f i ElectronicValueRW.obj
 0001:0000c37c       ?AddRef@?$CComObject@VCOPOSElectronicValueRW@@@ATL@@WBBI@EAAKXZ 000000018000d37c f i ElectronicValueRW.obj
 0001:0000c388       ?AddRef@?$CComObject@VCOPOSElectronicValueRW@@@ATL@@WBCI@EAAKXZ 000000018000d388 f i ElectronicValueRW.obj
 0001:0000c394       ?AddRef@?$CComObject@VCOPOSElectronicValueRW@@@ATL@@WBEA@EAAKXZ 000000018000d394 f i ElectronicValueRW.obj
 0001:0000c3a0       ?AddRef@?$CComObject@VCOPOSElectronicValueRW@@@ATL@@WLI@EAAKXZ 000000018000d3a0 f i ElectronicValueRW.obj
 0001:0000c3ac       ?AddRef@?$CComObject@VCOPOSElectronicValueRW@@@ATL@@WMA@EAAKXZ 000000018000d3ac f i ElectronicValueRW.obj
 0001:0000c3b8       ?AddRef@?$CComObject@VCOPOSElectronicValueRW@@@ATL@@WMI@EAAKXZ 000000018000d3b8 f i ElectronicValueRW.obj
 0001:0000c3c4       ?AddRef@?$CComObject@VCOPOSElectronicValueRW@@@ATL@@WNA@EAAKXZ 000000018000d3c4 f i ElectronicValueRW.obj
 0001:0000c3d0       ?AddRef@?$CComObject@VCOPOSElectronicValueRW@@@ATL@@WNI@EAAKXZ 000000018000d3d0 f i ElectronicValueRW.obj
 0001:0000c3dc       ?AddRef@?$CComObject@VCOPOSElectronicValueRW@@@ATL@@WOA@EAAKXZ 000000018000d3dc f i ElectronicValueRW.obj
 0001:0000c3e8       ?AddRef@?$CComObject@VCOPOSElectronicValueRW@@@ATL@@WOI@EAAKXZ 000000018000d3e8 f i ElectronicValueRW.obj
 0001:0000c3f4       ?AddRef@?$CComObject@VCOPOSElectronicValueRW@@@ATL@@WPA@EAAKXZ 000000018000d3f4 f i ElectronicValueRW.obj
 0001:0000c400       ?AddRef@?$CComObject@VCOPOSElectronicValueRW@@@ATL@@WPI@EAAKXZ 000000018000d400 f i ElectronicValueRW.obj
 0001:0000c410       ?AddRef@?$CComObjectCached@VCComClassFactory@ATL@@@ATL@@UEAAKXZ 000000018000d410 f i ElectronicValueRW.obj
 0001:0000c470       ?AddRef@CRegObject@ATL@@UEAAKXZ 000000018000d470 f i ElectronicValueRW.obj
 0001:0000c4e0       ?AddReplacement@CRegObject@ATL@@UEAAJPEB_W0@Z 000000018000d4e0 f i ElectronicValueRW.obj
 0001:0000c610       ?AddString@CParseBuffer@CRegParser@ATL@@QEAAHPEB_W@Z 000000018000d610 f i ElectronicValueRW.obj
 0001:0000c700       ?AddTermFunc@CAtlModule@ATL@@QEAAJP6AX_K@Z0@Z 000000018000d700 f i ElectronicValueRW.obj
 0001:0000c770       ?AddValue@CRegParser@ATL@@IEAAJAEAVCRegKey@2@PEB_WPEA_W@Z 000000018000d770 f i ElectronicValueRW.obj
 0001:0000d040       ?Advise@?$CProxy_IOPOSEvents@VCOPOSElectronicValueRW@@@@UEAAJPEAUIUnknown@@PEAK@Z 000000018000e040 f i ElectronicValueRW.obj
 0001:0000d0b0       ?Advise@?$IConnectionPointImpl@VCOPOSElectronicValueRW@@$1?DIID__IOPOSElectronicValueRWEvents@@3U_GUID@@BVCComDynamicUnkArray@ATL@@@ATL@@UEAAJPEAUIUnknown@@PEAK@Z 000000018000e0b0 f i ElectronicValueRW.obj
 0001:0000d2b0       ?Advise@?$IConnectionPointImpl@VCOPOSElectronicValueRW@@$1?IID_IPropertyNotifySink@@3U_GUID@@BVCComDynamicUnkArray@ATL@@@ATL@@UEAAJPEAUIUnknown@@PEAK@Z 000000018000e2b0 f i ElectronicValueRW.obj
 0001:0000d4b0       ?Advise@?$IOleObjectImpl@VCOPOSElectronicValueRW@@@ATL@@UEAAJPEAUIAdviseSink@@PEAK@Z 000000018000e4b0 f i ElectronicValueRW.obj
 0001:0000d570       ?Allocate@?$CAtlSafeAllocBufferManager@VCCRTAllocator@ATL@@@_ATL_SAFE_ALLOCA_IMPL@ATL@@QEAAPEAX_K@Z 000000018000e570 f i ElectronicValueRW.obj
 0001:0000d5f0       ?Allocate@?$CTempBuffer@E$0BAA@VCCRTAllocator@ATL@@@ATL@@QEAAPEAE_K@Z 000000018000e5f0 f i ElectronicValueRW.obj
 0001:0000d640       ?Allocate@?$CTempBuffer@_W$0BAA@VCCRTAllocator@ATL@@@ATL@@QEAAPEA_W_K@Z 000000018000e640 f i ElectronicValueRW.obj
 0001:0000d690       ?Allocate@?$CTempBuffer@_W$0EAA@VCCRTAllocator@ATL@@@ATL@@QEAAPEA_W_K@Z 000000018000e690 f i ElectronicValueRW.obj
 0001:0000d6e0       ?AllocateBytes@?$CTempBuffer@E$0BAA@VCCRTAllocator@ATL@@@ATL@@QEAAPEAE_K@Z 000000018000e6e0 f i ElectronicValueRW.obj
 0001:0000d790       ?AllocateBytes@?$CTempBuffer@_W$0BAA@VCCRTAllocator@ATL@@@ATL@@QEAAPEA_W_K@Z 000000018000e790 f i ElectronicValueRW.obj
 0001:0000d840       ?AllocateBytes@?$CTempBuffer@_W$0EAA@VCCRTAllocator@ATL@@@ATL@@QEAAPEA_W_K@Z 000000018000e840 f i ElectronicValueRW.obj
 0001:0000d8f0       ?AllocateHeap@?$CTempBuffer@E$0BAA@VCCRTAllocator@ATL@@@ATL@@AEAAX_K@Z 000000018000e8f0 f i ElectronicValueRW.obj
 0001:0000d950       ?AllocateHeap@?$CTempBuffer@_W$0BAA@VCCRTAllocator@ATL@@@ATL@@AEAAX_K@Z 000000018000e950 f i ElectronicValueRW.obj
 0001:0000d9b0       ?AllocateHeap@?$CTempBuffer@_W$0EAA@VCCRTAllocator@ATL@@@ATL@@AEAAX_K@Z 000000018000e9b0 f i ElectronicValueRW.obj
 0001:0000da10       ?Append@CParseBuffer@CRegParser@ATL@@QEAAHPEB_WH@Z 000000018000ea10 f i ElectronicValueRW.obj
 0001:0000dc40       ?AtlCallTermFunc@ATL@@YAXPEAU_ATL_MODULE70@1@@Z 000000018000ec40 f i ElectronicValueRW.obj
 0001:0000dcf0       ?AtlCoTaskMemCAlloc@ATL@@YAPEAXKK@Z 000000018000ecf0 f i ElectronicValueRW.obj
 0001:0000dd70       ?AtlCoTaskMemRecalloc@ATL@@YAPEAXPEAXKK@Z 000000018000ed70 f i ElectronicValueRW.obj
 0001:0000ddf0       ?AtlComModuleGetClassObject@ATL@@YAJPEAU_ATL_COM_MODULE70@1@AEBU_GUID@@1PEAPEAX@Z 000000018000edf0 f i ElectronicValueRW.obj
 0001:0000e120       ?AtlComModuleRegisterServer@ATL@@YAJPEAU_ATL_COM_MODULE70@1@HPEBU_GUID@@@Z 000000018000f120 f i ElectronicValueRW.obj
 0001:0000e320       ?AtlComModuleUnregisterServer@ATL@@YAJPEAU_ATL_COM_MODULE70@1@HPEBU_GUID@@@Z 000000018000f320 f i ElectronicValueRW.obj
 0001:0000e480       ?AtlComQIPtrAssign2@ATL@@YAXPEAPEAUIUnknown@@PEAU2@AEBU_GUID@@@Z 000000018000f480 f i ElectronicValueRW.obj
 0001:0000e510       ?AtlCreateTargetDC@ATL@@YAPEAUHDC__@@PEAU2@PEAUtagDVTARGETDEVICE@@@Z 000000018000f510 f i ElectronicValueRW.obj
 0001:0000e740       ?AtlCrtErrorCheck@ATL@@YAHH@Z 000000018000f740 f i ElectronicValueRW.obj
 0001:0000e7c0       ?AtlGetPerUserRegistration@ATL@@YAJPEA_N@Z 000000018000f7c0 f i ElectronicValueRW.obj
 0001:0000e7f0       ?AtlHiMetricToPixel@ATL@@YAXPEBUtagSIZE@@PEAU2@@Z 000000018000f7f0 f i ElectronicValueRW.obj
 0001:0000e9f0       ?AtlHresultFromLastError@ATL@@YAJXZ 000000018000f9f0 f i ElectronicValueRW.obj
 0001:0000ea20       ?AtlHresultFromWin32@ATL@@YAJK@Z 000000018000fa20 f i ElectronicValueRW.obj
 0001:0000ea50       ?AtlIPersistStreamInit_Load@ATL@@YAJPEAUIStream@@PEBUATL_PROPMAP_ENTRY@1@PEAXPEAUIUnknown@@@Z 000000018000fa50 f i ElectronicValueRW.obj
 0001:0000f0c0       ?AtlIPersistStreamInit_Save@ATL@@YAJPEAUIStream@@HPEBUATL_PROPMAP_ENTRY@1@PEAXPEAUIUnknown@@@Z 00000001800100c0 f i ElectronicValueRW.obj
 0001:0000f650       ?AtlInternalOleLoadFromStream@ATL@@YAJPEAUIStream@@AEBU_GUID@@PEAPEAXTClassesAllowedInStream@1@K@Z 0000000180010650 f i ElectronicValueRW.obj
 0001:0000f990       ?AtlInternalQueryInterface@ATL@@YAJPEAXPEBU_ATL_INTMAP_ENTRY@1@AEBU_GUID@@PEAPEAX@Z 0000000180010990 f i ElectronicValueRW.obj
 0001:0000fc50       ?AtlLoadTypeLib@ATL@@YAJPEAUHINSTANCE__@@PEB_WPEAPEA_WPEAPEAUITypeLib@@@Z 0000000180010c50 f i ElectronicValueRW.obj
 0001:00010120       ?AtlModuleAddTermFunc@ATL@@YAJPEAU_ATL_MODULE70@1@P6AX_K@Z1@Z 0000000180011120 f i ElectronicValueRW.obj
 0001:000102f0       ?AtlRegisterClassCategoriesHelper@ATL@@YAJAEBU_GUID@@PEBU_ATL_CATMAP_ENTRY@1@H@Z 00000001800112f0 f i ElectronicValueRW.obj
 0001:00010ac0       ?AtlRegisterTypeLib@ATL@@YAJPEAUHINSTANCE__@@PEB_W@Z 0000000180011ac0 f i ElectronicValueRW.obj
 0001:00010e20       ?AtlThrowImpl@ATL@@YAXJ@Z  0000000180011e20 f i ElectronicValueRW.obj
 0001:00010f00       ?AtlUnRegisterTypeLib@ATL@@YAJPEAUHINSTANCE__@@PEB_W@Z 0000000180011f00 f i ElectronicValueRW.obj
 0001:00011130       ?AtlWinModuleAddCreateWndData@ATL@@YAXPEAU_ATL_WIN_MODULE70@1@PEAU_AtlCreateWndData@1@PEAX@Z 0000000180012130 f i ElectronicValueRW.obj
 0001:00011320       ?AtlWinModuleExtractCreateWndData@ATL@@YAPEAXPEAU_ATL_WIN_MODULE70@1@@Z 0000000180012320 f i ElectronicValueRW.obj
 0001:00011520       ?AtlWinModuleRegisterClassExW@ATL@@YAGPEAU_ATL_WIN_MODULE70@1@PEBUtagWNDCLASSEXW@@@Z 0000000180012520 f i ElectronicValueRW.obj
 0001:000115f0       ?AtlWinModuleRegisterWndClassInfoW@ATL@@YAGPEAU_ATL_WIN_MODULE70@1@PEAU_ATL_BASE_MODULE70@1@PEAU_ATL_WNDCLASSINFOW@1@PEAP6A_JPEAUHWND__@@I_K_J@Z@Z 00000001800125f0 f i ElectronicValueRW.obj
 0001:00011660       ?Attach@?$CAutoVectorPtr@_W@ATL@@QEAAXPEA_W@Z 0000000180012660 f i ElectronicValueRW.obj
 0001:000116f0       ?Attach@CComBSTR@ATL@@QEAAXPEA_W@Z 00000001800126f0 f i ElectronicValueRW.obj
 0001:00011750       ?Attach@CRegKey@ATL@@QEAAXPEAUHKEY__@@@Z 0000000180012750 f i ElectronicValueRW.obj
 0001:000117f0       ?CanForceRemoveKey@CRegParser@ATL@@IEAAHPEB_W@Z 00000001800127f0 f i ElectronicValueRW.obj
 0001:00011860       ?ChToByte@CRegParser@ATL@@KAE_W@Z 0000000180012860 f i ElectronicValueRW.obj
 0001:000119c0       ?ChangeType@CComVariant@ATL@@QEAAJGPEBUtagVARIANT@@@Z 00000001800129c0 f i ElectronicValueRW.obj
 0001:00011a30       ?Cleanup@CComTypeInfoHolder@ATL@@SAX_K@Z 0000000180012a30 f i ElectronicValueRW.obj
 0001:00011b20       ?Clear@CComVariant@ATL@@QEAAJXZ 0000000180012b20 f i ElectronicValueRW.obj
 0001:00011b50       ?ClearReplacements@CExpansionVector@ATL@@QEAAJXZ 0000000180012b50 f i ElectronicValueRW.obj
 0001:00011bf0       ?ClearReplacements@CRegObject@ATL@@UEAAJXZ 0000000180012bf0 f i ElectronicValueRW.obj
 0001:00011c50       ?Clone@?$CComEnumImpl@UIEnumConnectionPoints@@$1?_GUID_b196b285_bab4_101a_b69c_00aa00341d07@@3U__s_GUID@@BPEAUIConnectionPoint@@V?$_CopyInterface@UIConnectionPoint@@@ATL@@@ATL@@UEAAJPEAPEAUIEnumConnectionPoints@@@Z 0000000180012c50 f i ElectronicValueRW.obj
 0001:00011e40       ?Clone@?$CComEnumImpl@UIEnumConnections@@$1?_GUID_b196b287_bab4_101a_b69c_00aa00341d07@@3U__s_GUID@@BUtagCONNECTDATA@@V?$_Copy@UtagCONNECTDATA@@@ATL@@@ATL@@UEAAJPEAPEAUIEnumConnections@@@Z 0000000180012e40 f i ElectronicValueRW.obj
 0001:00012030       ?Close@?$IOleObjectImpl@VCOPOSElectronicValueRW@@@ATL@@UEAAJK@Z 0000000180013030 f i ElectronicValueRW.obj
 0001:000120e0       ?Close@CRegKey@ATL@@QEAAJXZ 00000001800130e0 f i ElectronicValueRW.obj
 0001:00012150       ?ContextSensitiveHelp@?$IOleInPlaceActiveObjectImpl@VCOPOSElectronicValueRW@@@ATL@@UEAAJH@Z 0000000180013150 f i ElectronicValueRW.obj
 0001:000121d0       ?ContextSensitiveHelp@?$IOleInPlaceObjectWindowlessImpl@VCOPOSElectronicValueRW@@@ATL@@UEAAJH@Z 00000001800131d0 f i ElectronicValueRW.obj
 0001:00012250       ?ControlQueryInterface@?$CComControl@VCOPOSElectronicValueRW@@V?$CWindowImpl@VCOPOSElectronicValueRW@@VCWindow@ATL@@V?$CWinTraits@$0FGAAAAAA@$0A@@3@@ATL@@@ATL@@UEAAJAEBU_GUID@@PEAPEAX@Z 0000000180013250 f i ElectronicValueRW.obj
 0001:000122e0       ?CreateControlWindow@?$CComControl@VCOPOSElectronicValueRW@@V?$CWindowImpl@VCOPOSElectronicValueRW@@VCWindow@ATL@@V?$CWinTraits@$0FGAAAAAA@$0A@@3@@ATL@@@ATL@@UEAAPEAUHWND__@@PEAU3@AEAUtagRECT@@@Z 00000001800132e0 f i ElectronicValueRW.obj
 0001:000123d0       ?CreateInstance@?$CComCreator@V?$CComAggObject@VCOPOSElectronicValueRW@@@ATL@@@ATL@@SAJPEAXAEBU_GUID@@PEAPEAX@Z 00000001800133d0 f i ElectronicValueRW.obj
 0001:000125b0       ?CreateInstance@?$CComCreator@V?$CComObject@VCOPOSElectronicValueRW@@@ATL@@@ATL@@SAJPEAXAEBU_GUID@@PEAPEAX@Z 00000001800135b0 f i ElectronicValueRW.obj
 0001:000127b0       ?CreateInstance@?$CComObject@V?$CComEnum@UIEnumConnectionPoints@@$1?_GUID_b196b285_bab4_101a_b69c_00aa00341d07@@3U__s_GUID@@BPEAUIConnectionPoint@@V?$_CopyInterface@UIConnectionPoint@@@ATL@@VCComSingleThreadModel@6@@ATL@@@ATL@@SAJPEAPEAV12@@Z 00000001800137b0 f i ElectronicValueRW.obj
 0001:00012970       ?CreateInstance@?$CComObject@V?$CComEnum@UIEnumConnections@@$1?_GUID_b196b287_bab4_101a_b69c_00aa00341d07@@3U__s_GUID@@BUtagCONNECTDATA@@V?$_Copy@UtagCONNECTDATA@@@ATL@@VCComSingleThreadModel@6@@ATL@@@ATL@@SAJPEAPEAV12@@Z 0000000180013970 f i ElectronicValueRW.obj
 0001:00012b30       ?CreateInstance@CComClassFactory@ATL@@UEAAJPEAUIUnknown@@AEBU_GUID@@PEAPEAX@Z 0000000180013b30 f i ElectronicValueRW.obj
 0001:00012c50       ?DAdvise@?$IDataObjectImpl@VCOPOSElectronicValueRW@@@ATL@@UEAAJPEAUtagFORMATETC@@KPEAUIAdviseSink@@PEAK@Z 0000000180013c50 f i ElectronicValueRW.obj
 0001:00012db0       ?DEVMODEOLE2T_EX@@YAPEAU_devicemodeW@@PEAU1@@Z 0000000180013db0 f i ElectronicValueRW.obj
 0001:00012dc0       ?DUnadvise@?$IDataObjectImpl@VCOPOSElectronicValueRW@@@ATL@@UEAAJK@Z 0000000180013dc0 f i ElectronicValueRW.obj
 0001:00012ec0       ?Decrement@CComMultiThreadModel@ATL@@SAKPEAJ@Z 0000000180013ec0 f i ElectronicValueRW.obj
 0001:00012ee0       ?Decrement@CComSingleThreadModel@ATL@@SAKPEAJ@Z 0000000180013ee0 f i ElectronicValueRW.obj
 0001:00012f00       ?DefWindowProcW@?$CWindowImplBaseT@VCWindow@ATL@@V?$CWinTraits@$0FGAAAAAA@$0A@@2@@ATL@@QEAA_JI_K_J@Z 0000000180013f00 f i ElectronicValueRW.obj
 0001:00012f60       ?DefaultReflectionHandler@?$CWindowImplRoot@VCWindow@ATL@@@ATL@@SAHPEAUHWND__@@I_K_JAEA_J@Z 0000000180013f60 f i ElectronicValueRW.obj
 0001:00013050       ?DeleteSubKey@CRegKey@ATL@@QEAAJPEB_W@Z 0000000180014050 f i ElectronicValueRW.obj
 0001:00013180       ?DeleteValue@CRegKey@ATL@@QEAAJPEB_W@Z 0000000180014180 f i ElectronicValueRW.obj
 0001:00013210       ?Detach@?$CAutoVectorPtr@_W@ATL@@QEAAPEA_WXZ 0000000180014210 f i ElectronicValueRW.obj
 0001:00013250       ?Detach@?$CComPtrBase@UIPersistStream@@@ATL@@QEAAPEAUIPersistStream@@XZ 0000000180014250 f i ElectronicValueRW.obj
 0001:00013290       ?Detach@?$CComPtrBase@UITypeInfo@@@ATL@@QEAAPEAUITypeInfo@@XZ 0000000180014290 f i ElectronicValueRW.obj
 0001:000132d0       ?Detach@?$CComPtrBase@UIUnknown@@@ATL@@QEAAPEAUIUnknown@@XZ 00000001800142d0 f i ElectronicValueRW.obj
 0001:00013310       ?Detach@CComBSTR@ATL@@QEAAPEA_WXZ 0000000180014310 f i ElectronicValueRW.obj
 0001:00013350       ?Detach@CParseBuffer@CRegParser@ATL@@QEAAPEA_WXZ 0000000180014350 f i ElectronicValueRW.obj
 0001:000133b0       ?Detach@CRegKey@ATL@@QEAAPEAUHKEY__@@XZ 00000001800143b0 f i ElectronicValueRW.obj
 0001:00013410       ?DoEvent@COPOSElectronicValueRW@@IEAAXI_K_J@Z 0000000180014410 f i ElectronicValueRW.obj
 0001:00013550       ?DoVerb@?$IOleObjectImpl@VCOPOSElectronicValueRW@@@ATL@@UEAAJJPEAUtagMSG@@PEAUIOleClientSite@@JPEAUHWND__@@PEBUtagRECT@@@Z 0000000180014550 f i ElectronicValueRW.obj
 0001:00013860       ?DoVerbDiscardUndo@?$IOleObjectImpl@VCOPOSElectronicValueRW@@@ATL@@QEAAJPEBUtagRECT@@PEAUHWND__@@@Z 0000000180014860 f i ElectronicValueRW.obj
 0001:00013900       ?DoVerbHide@?$IOleObjectImpl@VCOPOSElectronicValueRW@@@ATL@@QEAAJPEBUtagRECT@@PEAUHWND__@@@Z 0000000180014900 f i ElectronicValueRW.obj
 0001:000139e0       ?DoVerbInPlaceActivate@?$IOleObjectImpl@VCOPOSElectronicValueRW@@@ATL@@QEAAJPEBUtagRECT@@PEAUHWND__@@@Z 00000001800149e0 f i ElectronicValueRW.obj
 0001:00013ac0       ?DoVerbOpen@?$IOleObjectImpl@VCOPOSElectronicValueRW@@@ATL@@QEAAJPEBUtagRECT@@PEAUHWND__@@@Z 0000000180014ac0 f i ElectronicValueRW.obj
 0001:00013b60       ?DoVerbPrimary@?$IOleObjectImpl@VCOPOSElectronicValueRW@@@ATL@@QEAAJPEBUtagRECT@@PEAUHWND__@@@Z 0000000180014b60 f i ElectronicValueRW.obj
 0001:00013ca0       ?DoVerbProperties@CComControlBase@ATL@@QEAAJPEBUtagRECT@@PEAUHWND__@@@Z 0000000180014ca0 f i ElectronicValueRW.obj
 0001:00014050       ?DoVerbShow@?$IOleObjectImpl@VCOPOSElectronicValueRW@@@ATL@@QEAAJPEBUtagRECT@@PEAUHWND__@@@Z 0000000180015050 f i ElectronicValueRW.obj
 0001:00014110       ?DoVerbUIActivate@?$IOleObjectImpl@VCOPOSElectronicValueRW@@@ATL@@QEAAJPEBUtagRECT@@PEAUHWND__@@@Z 0000000180015110 f i ElectronicValueRW.obj
 0001:000141f0       ?DoesVerbActivate@CComControlBase@ATL@@QEAAHJ@Z 00000001800151f0 f i ElectronicValueRW.obj
 0001:00014250       ?DoesVerbUIActivate@CComControlBase@ATL@@QEAAHJ@Z 0000000180015250 f i ElectronicValueRW.obj
 0001:000142d0       ?Draw@?$IViewObjectExImpl@VCOPOSElectronicValueRW@@@ATL@@UEAAJKJPEAXPEAUtagDVTARGETDEVICE@@PEAUHDC__@@2PEBU_RECTL@@3P6AH_K@Z4@Z 00000001800152d0 f i ElectronicValueRW.obj
 0001:000143f0       ?Empty@CComBSTR@ATL@@QEAAXXZ 00000001800153f0 f i ElectronicValueRW.obj
 0001:00014430       ?EnableModeless@?$IOleInPlaceActiveObjectImpl@VCOPOSElectronicValueRW@@@ATL@@UEAAJH@Z 0000000180015430 f i ElectronicValueRW.obj
 0001:000144a0       ?EndOfVar@CRegParser@ATL@@IEAAHXZ 00000001800154a0 f i ElectronicValueRW.obj
 0001:00014500       ?EnsureTI@CComTypeInfoHolder@ATL@@QEAAJK@Z 0000000180015500 f i ElectronicValueRW.obj
 0001:00014560       ?EnumAdvise@?$IOleObjectImpl@VCOPOSElectronicValueRW@@@ATL@@UEAAJPEAPEAUIEnumSTATDATA@@@Z 0000000180015560 f i ElectronicValueRW.obj
 0001:000146c0       ?EnumConnectionPoints@?$IConnectionPointContainerImpl@VCOPOSElectronicValueRW@@@ATL@@UEAAJPEAPEAUIEnumConnectionPoints@@@Z 00000001800156c0 f i ElectronicValueRW.obj
 0001:00014bb0       ?EnumConnections@?$IConnectionPointImpl@VCOPOSElectronicValueRW@@$1?DIID__IOPOSElectronicValueRWEvents@@3U_GUID@@BVCComDynamicUnkArray@ATL@@@ATL@@UEAAJPEAPEAUIEnumConnections@@@Z 0000000180015bb0 f i ElectronicValueRW.obj
 0001:00014f00       ?EnumConnections@?$IConnectionPointImpl@VCOPOSElectronicValueRW@@$1?IID_IPropertyNotifySink@@3U_GUID@@BVCComDynamicUnkArray@ATL@@@ATL@@UEAAJPEAPEAUIEnumConnections@@@Z 0000000180015f00 f i ElectronicValueRW.obj
 0001:00015250       ?EnumDAdvise@?$IDataObjectImpl@VCOPOSElectronicValueRW@@@ATL@@UEAAJPEAPEAUIEnumSTATDATA@@@Z 0000000180016250 f i ElectronicValueRW.obj
 0001:000153a0       ?EnumFormatEtc@?$IDataObjectImpl@VCOPOSElectronicValueRW@@@ATL@@UEAAJKPEAPEAUIEnumFORMATETC@@@Z 00000001800163a0 f i ElectronicValueRW.obj
 0001:00015430       ?EnumVerbs@?$IOleObjectImpl@VCOPOSElectronicValueRW@@@ATL@@UEAAJPEAPEAUIEnumOLEVERB@@@Z 0000000180016430 f i ElectronicValueRW.obj
 0001:00015500       ?EscapeSingleQuote@CAtlModule@ATL@@SAXPEA_W_KPEB_W@Z 0000000180016500 f i ElectronicValueRW.obj
 0001:00015600       ?ExtractCreateWndData@CAtlWinModule@ATL@@QEAAPEAXXZ 0000000180016600 f i ElectronicValueRW.obj
 0001:00015630       ?FAccessAllowed@?$IObjectSafetyImpl@VCOPOSElectronicValueRW@@$02@ATL@@MEAAHXZ 0000000180016630 f i ElectronicValueRW.obj
 0001:00015640       ?FinalConstruct@?$CComAggObject@VCOPOSElectronicValueRW@@@ATL@@QEAAJXZ 0000000180016640 f i ElectronicValueRW.obj
 0001:00015690       ?FinalConstruct@CComObjectRootBase@ATL@@QEAAJXZ 0000000180016690 f i ElectronicValueRW.obj
 0001:000156a0       ?FinalConstruct@CRegObject@ATL@@QEAAJXZ 00000001800166a0 f i ElectronicValueRW.obj
 0001:000156e0       ?FinalRelease@?$CComAggObject@VCOPOSElectronicValueRW@@@ATL@@QEAAXXZ 00000001800166e0 f i ElectronicValueRW.obj
 0001:00015730       ?FinalRelease@CComObjectRootBase@ATL@@QEAAXXZ 0000000180016730 f i ElectronicValueRW.obj
 0001:00015740       ?FindConnectionPoint@?$IConnectionPointContainerImpl@VCOPOSElectronicValueRW@@@ATL@@UEAAJAEBU_GUID@@PEAPEAUIConnectionPoint@@@Z 0000000180016740 f i ElectronicValueRW.obj
 0001:000158b0       ?FindKey@?$CSimpleMap@PEA_WPEA_WVCExpansionVectorEqualHelper@ATL@@@ATL@@QEBAHAEBQEA_W@Z 00000001800168b0 f i ElectronicValueRW.obj
 0001:00015930       ?FireTheEvent@?$CProxy_IOPOSEvents@VCOPOSElectronicValueRW@@@@IEAAXPEAUIUnknown@@PEAVOposVariant@@IAEAJPEB_WJ@Z 0000000180016930 f i ElectronicValueRW.obj
 0001:00015b10       ?FireViewChange@CComControlBase@ATL@@QEAAJXZ 0000000180016b10 f i ElectronicValueRW.obj
 0001:00015bf0       ?Fire_DataEvent@?$CProxy_IOPOSEvents@VCOPOSElectronicValueRW@@@@QEAAXJ@Z 0000000180016bf0 f i ElectronicValueRW.obj
 0001:00015de0       ?Fire_DirectIOEvent@?$CProxy_IOPOSEvents@VCOPOSElectronicValueRW@@@@QEAAXJPEAJPEAPEA_W@Z 0000000180016de0 f i ElectronicValueRW.obj
 0001:00016070       ?Fire_ErrorEvent@?$CProxy_IOPOSEvents@VCOPOSElectronicValueRW@@@@QEAAXJJJPEAJ@Z 0000000180017070 f i ElectronicValueRW.obj
 0001:00016320       ?Fire_OutputCompleteEvent@?$CProxy_IOPOSEvents@VCOPOSElectronicValueRW@@@@QEAAXJ@Z 0000000180017320 f i ElectronicValueRW.obj
 0001:00016510       ?Fire_StatusUpdateEvent@?$CProxy_IOPOSEvents@VCOPOSElectronicValueRW@@@@QEAAXJ@Z 0000000180017510 f i ElectronicValueRW.obj
 0001:00016700       ?Fire_TransitionEvent@?$CProxy_IOPOSEvents@VCOPOSElectronicValueRW@@@@QEAAXJPEAJPEAPEA_W@Z 0000000180017700 f i ElectronicValueRW.obj
 0001:00016990       ?FormatWindowClassName@AtlModuleRegisterWndClassInfoParamW@ATL@@SAXPEA_WKPEAX@Z 0000000180017990 f i ElectronicValueRW.obj
 0001:000169e0       ?Free@?$CAutoVectorPtr@_W@ATL@@QEAAXXZ 00000001800179e0 f i ElectronicValueRW.obj
 0001:00016a30       ?FreeHeap@?$CTempBuffer@E$0BAA@VCCRTAllocator@ATL@@@ATL@@AEAAXXZ 0000000180017a30 f i ElectronicValueRW.obj
 0001:00016a70       ?FreeHeap@?$CTempBuffer@_W$0BAA@VCCRTAllocator@ATL@@@ATL@@AEAAXXZ 0000000180017a70 f i ElectronicValueRW.obj
 0001:00016ab0       ?FreeHeap@?$CTempBuffer@_W$0EAA@VCCRTAllocator@ATL@@@ATL@@AEAAXXZ 0000000180017ab0 f i ElectronicValueRW.obj
 0001:00016af0       ?Freeze@?$IViewObjectExImpl@VCOPOSElectronicValueRW@@@ATL@@UEAAJKJPEAXPEAK@Z 0000000180017af0 f i ElectronicValueRW.obj
 0001:00016b80       ?GenerateError@CRegParser@ATL@@IEAAJI@Z 0000000180017b80 f i ElectronicValueRW.obj
 0001:00016ba0       ?GetAdvise@?$IViewObjectExImpl@VCOPOSElectronicValueRW@@@ATL@@UEAAJPEAK0PEAPEAUIAdviseSink@@@Z 0000000180017ba0 f i ElectronicValueRW.obj
 0001:00016cf0       ?GetAmbientLocaleID@CComControlBase@ATL@@QEAAJAEAK@Z 0000000180017cf0 f i ElectronicValueRW.obj
 0001:00016dd0       ?GetAmbientProperty@CComControlBase@ATL@@QEAAJJAEAUtagVARIANT@@@Z 0000000180017dd0 f i ElectronicValueRW.obj
 0001:00016e40       ?GetAmbientUserMode@CComControlBase@ATL@@QEAAJAEAH@Z 0000000180017e40 f i ElectronicValueRW.obj
 0001:00016f60       ?GetAppId@?$CAtlModuleT@VCComModule@ATL@@@ATL@@SAPEB_WXZ 0000000180017f60 f i ElectronicValueRW.obj
 0001:00016f70       ?GetAt@CComDynamicUnkArray@ATL@@QEAAPEAUIUnknown@@H@Z 0000000180017f70 f i ElectronicValueRW.obj
 0001:00017020       ?GetCanonicalFormatEtc@?$IDataObjectImpl@VCOPOSElectronicValueRW@@@ATL@@UEAAJPEAUtagFORMATETC@@0@Z 0000000180018020 f i ElectronicValueRW.obj
 0001:000170b0       ?GetClassID@?$IPersistStorageImpl@VCOPOSElectronicValueRW@@@ATL@@UEAAJPEAU_GUID@@@Z 00000001800180b0 f i ElectronicValueRW.obj
 0001:00017150       ?GetClassID@?$IPersistStreamInitImpl@VCOPOSElectronicValueRW@@@ATL@@UEAAJPEAU_GUID@@@Z 0000000180018150 f i ElectronicValueRW.obj
 0001:000171f0       ?GetClassInfoExW@AtlModuleRegisterWndClassInfoParamW@ATL@@SAHPEAUHINSTANCE__@@PEB_WPEAUtagWNDCLASSEXW@@@Z 00000001800181f0 f i ElectronicValueRW.obj
 0001:00017240       ?GetClassInfoW@?$IProvideClassInfo2Impl@$1?CLSID_OPOSElectronicValueRW@@3U_GUID@@B$1?DIID__IOPOSElectronicValueRWEvents@@3U2@B$1?LIBID_OposElectronicValueRW_CCO@@3U2@B$00$0A@VCComTypeInfoHolder@ATL@@@ATL@@UEAAJPEAPEAUITypeInfo@@@Z 0000000180018240 f i ElectronicValueRW.obj
 0001:00017280       ?GetClassObject@CComModule@ATL@@QEAAJAEBU_GUID@@0PEAPEAX@Z 0000000180018280 f i ElectronicValueRW.obj
 0001:000174f0       ?GetClientSite@?$IOleObjectImpl@VCOPOSElectronicValueRW@@@ATL@@UEAAJPEAPEAUIOleClientSite@@@Z 00000001800184f0 f i ElectronicValueRW.obj
 0001:000175a0       ?GetClipboardData@?$IOleObjectImpl@VCOPOSElectronicValueRW@@@ATL@@UEAAJKPEAPEAUIDataObject@@@Z 00000001800185a0 f i ElectronicValueRW.obj
 0001:00017630       ?GetCodeAddress@CDynamicStdCallThunk2@ATL@@QEAAPEAXXZ 0000000180018630 f i ElectronicValueRW.obj
 0001:00017670       ?GetColorSet@?$IViewObjectExImpl@VCOPOSElectronicValueRW@@@ATL@@UEAAJKJPEAXPEAUtagDVTARGETDEVICE@@PEAUHDC__@@PEAPEAUtagLOGPALETTE@@@Z 0000000180018670 f i ElectronicValueRW.obj
 0001:00017700       ?GetConnMap@COPOSElectronicValueRW@@SAPEBU_ATL_CONNMAP_ENTRY@ATL@@PEAH@Z 0000000180018700 f i ElectronicValueRW.obj
 0001:00017860       ?GetConnectionInterface@?$IConnectionPointImpl@VCOPOSElectronicValueRW@@$1?DIID__IOPOSElectronicValueRWEvents@@3U_GUID@@BVCComDynamicUnkArray@ATL@@@ATL@@UEAAJPEAU_GUID@@@Z 0000000180018860 f i ElectronicValueRW.obj
 0001:000178a0       ?GetConnectionInterface@?$IConnectionPointImpl@VCOPOSElectronicValueRW@@$1?IID_IPropertyNotifySink@@3U_GUID@@BVCComDynamicUnkArray@ATL@@@ATL@@UEAAJPEAU_GUID@@@Z 00000001800188a0 f i ElectronicValueRW.obj
 0001:000178e0       ?GetConnectionPointContainer@?$IConnectionPointImpl@VCOPOSElectronicValueRW@@$1?DIID__IOPOSElectronicValueRWEvents@@3U_GUID@@BVCComDynamicUnkArray@ATL@@@ATL@@UEAAJPEAPEAUIConnectionPointContainer@@@Z 00000001800188e0 f i ElectronicValueRW.obj
 0001:00017960       ?GetConnectionPointContainer@?$IConnectionPointImpl@VCOPOSElectronicValueRW@@$1?IID_IPropertyNotifySink@@3U_GUID@@BVCComDynamicUnkArray@ATL@@@ATL@@UEAAJPEAPEAUIConnectionPointContainer@@@Z 0000000180018960 f i ElectronicValueRW.obj
 0001:000179e0       ?GetContentExtent@?$IQuickActivateImpl@VCOPOSElectronicValueRW@@@ATL@@UEAAJPEAUtagSIZE@@@Z 00000001800189e0 f i ElectronicValueRW.obj
 0001:00017aa0       ?GetControlInfo@?$IOleControlImpl@VCOPOSElectronicValueRW@@@ATL@@UEAAJPEAUtagCONTROLINFO@@@Z 0000000180018aa0 f i ElectronicValueRW.obj
 0001:00017b30       ?GetCookie@CComDynamicUnkArray@ATL@@QEAAKPEAPEAUIUnknown@@@Z 0000000180018b30 f i ElectronicValueRW.obj
 0001:00017c20       ?GetData@?$IDataObjectImpl@VCOPOSElectronicValueRW@@@ATL@@UEAAJPEAUtagFORMATETC@@PEAUtagSTGMEDIUM@@@Z 0000000180018c20 f i ElectronicValueRW.obj
 0001:00017ce0       ?GetData@CAtlSafeAllocBufferNode@?$CAtlSafeAllocBufferManager@VCCRTAllocator@ATL@@@_ATL_SAFE_ALLOCA_IMPL@ATL@@QEAAPEAXXZ 0000000180018ce0 f i ElectronicValueRW.obj
 0001:00017d00       ?GetDataHere@?$IDataObjectImpl@VCOPOSElectronicValueRW@@@ATL@@UEAAJPEAUtagFORMATETC@@PEAUtagSTGMEDIUM@@@Z 0000000180018d00 f i ElectronicValueRW.obj
 0001:00017d90       ?GetDropTarget@?$IOleInPlaceObjectWindowlessImpl@VCOPOSElectronicValueRW@@@ATL@@UEAAJPEAPEAUIDropTarget@@@Z 0000000180018d90 f i ElectronicValueRW.obj
 0001:00017e20       ?GetExtent@?$IOleObjectImpl@VCOPOSElectronicValueRW@@@ATL@@UEAAJKPEAUtagSIZE@@@Z 0000000180018e20 f i ElectronicValueRW.obj
 0001:00017ef0       ?GetExtent@?$IViewObjectExImpl@VCOPOSElectronicValueRW@@@ATL@@UEAAJKJPEAUtagDVTARGETDEVICE@@PEAUtagSIZE@@@Z 0000000180018ef0 f i ElectronicValueRW.obj
 0001:00018000       ?GetGITPtr@CAtlModule@ATL@@UEAAJPEAPEAUIGlobalInterfaceTable@@@Z 0000000180019000 f i ElectronicValueRW.obj
 0001:00018140       ?GetGUID@?$IProvideClassInfo2Impl@$1?CLSID_OPOSElectronicValueRW@@3U_GUID@@B$1?DIID__IOPOSElectronicValueRWEvents@@3U2@B$1?LIBID_OposElectronicValueRW_CCO@@3U2@B$00$0A@VCComTypeInfoHolder@ATL@@@ATL@@UEAAJKPEAU_GUID@@@Z 0000000180019140 f i ElectronicValueRW.obj
 0001:000181c0       ?GetIDsOfNames@?$IDispatchImpl@UIOPOSElectronicValueRW@@$1?IID_IOPOSElectronicValueRW@@3U_GUID@@B$1?LIBID_OposElectronicValueRW_CCO@@3U3@B$00$0A@VCComTypeInfoHolder@ATL@@@ATL@@UEAAJAEBU_GUID@@PEAPEA_WIKPEAJ@Z 00000001800191c0 f i ElectronicValueRW.obj
 0001:00018220       ?GetIDsOfNames@CComTypeInfoHolder@ATL@@QEAAJAEBU_GUID@@PEAPEA_WIKPEAJ@Z 0000000180019220 f i ElectronicValueRW.obj
 0001:00018440       ?GetInterfaceSafetyOptions@?$IObjectSafetyImpl@VCOPOSElectronicValueRW@@$02@ATL@@UEAAJAEBU_GUID@@PEAK1@Z 0000000180019440 f i ElectronicValueRW.obj
 0001:000185e0       ?GetKeyAt@?$CSimpleMap@PEA_WPEA_WVCExpansionVectorEqualHelper@ATL@@@ATL@@QEBAAEAPEA_WH@Z 00000001800195e0 f i ElectronicValueRW.obj
 0001:00018690       ?GetLockCount@CAtlModule@ATL@@UEAAJXZ 0000000180019690 f i ElectronicValueRW.obj
 0001:000186a0       ?GetMiscStatus@?$IOleObjectImpl@VCOPOSElectronicValueRW@@@ATL@@UEAAJKPEAK@Z 00000001800196a0 f i ElectronicValueRW.obj
 0001:00018730       ?GetMoniker@?$IOleObjectImpl@VCOPOSElectronicValueRW@@@ATL@@UEAAJKKPEAPEAUIMoniker@@@Z 0000000180019730 f i ElectronicValueRW.obj
 0001:000187c0       ?GetNaturalExtent@?$IViewObjectExImpl@VCOPOSElectronicValueRW@@@ATL@@UEAAJKJPEAUtagDVTARGETDEVICE@@PEAUHDC__@@PEAUtagExtentInfo@@PEAUtagSIZE@@@Z 00000001800197c0 f i ElectronicValueRW.obj
 0001:00018950       ?GetObjectCLSID@?$CComCoClass@VCOPOSElectronicValueRW@@$1?CLSID_OPOSElectronicValueRW@@3U_GUID@@B@ATL@@SAAEBU_GUID@@XZ 0000000180019950 f i ElectronicValueRW.obj
 0001:00018960       ?GetPages@?$ISpecifyPropertyPagesImpl@VCOPOSElectronicValueRW@@@ATL@@UEAAJPEAUtagCAUUID@@@Z 0000000180019960 f i ElectronicValueRW.obj
 0001:000189f0       ?GetPagesHelper@?$ISpecifyPropertyPagesImpl@VCOPOSElectronicValueRW@@@ATL@@IEAAJPEAUtagCAUUID@@PEBUATL_PROPMAP_ENTRY@2@@Z 00000001800199f0 f i ElectronicValueRW.obj
 0001:00018c60       ?GetProperty@?$CComPtr@UIDispatch@@@ATL@@QEAAJJPEAUtagVARIANT@@@Z 0000000180019c60 f i ElectronicValueRW.obj
 0001:00018cb0       ?GetProperty@?$CComPtr@UIDispatch@@@ATL@@SAJPEAUIDispatch@@JPEAUtagVARIANT@@@Z 0000000180019cb0 f i ElectronicValueRW.obj
 0001:00018e80       ?GetPropertyMap@COPOSElectronicValueRW@@SAPEBUATL_PROPMAP_ENTRY@ATL@@XZ 0000000180019e80 f i ElectronicValueRW.obj
 0001:00018e90       ?GetRect@?$IViewObjectExImpl@VCOPOSElectronicValueRW@@@ATL@@UEAAJKPEAU_RECTL@@@Z 0000000180019e90 f i ElectronicValueRW.obj
 0001:00018f20       ?GetSize@?$CSimpleMap@PEA_WPEA_WVCExpansionVectorEqualHelper@ATL@@@ATL@@QEBAHXZ 0000000180019f20 f i ElectronicValueRW.obj
 0001:00018f30       ?GetSize@CComDynamicUnkArray@ATL@@QEBAHXZ 0000000180019f30 f i ElectronicValueRW.obj
 0001:00018f40       ?GetSizeMax@?$IPersistStreamInitImpl@VCOPOSElectronicValueRW@@@ATL@@UEAAJPEAT_ULARGE_INTEGER@@@Z 0000000180019f40 f i ElectronicValueRW.obj
 0001:000196d0       ?GetSizeMax@CComVariant@ATL@@QEBAJPEAT_ULARGE_INTEGER@@@Z 000000018001a6d0 f i ElectronicValueRW.obj
 0001:00019b00       ?GetStreamSize@CComBSTR@ATL@@SAKPEA_W@Z 000000018001ab00 f i ElectronicValueRW.obj
 0001:00019b60       ?GetTI@CComTypeInfoHolder@ATL@@QEAAJK@Z 000000018001ab60 f i ElectronicValueRW.obj
 0001:0001a430       ?GetTI@CComTypeInfoHolder@ATL@@QEAAJKPEAPEAUITypeInfo@@@Z 000000018001b430 f i ElectronicValueRW.obj
 0001:0001a520       ?GetTypeInfo@?$IDispatchImpl@UIOPOSElectronicValueRW@@$1?IID_IOPOSElectronicValueRW@@3U_GUID@@B$1?LIBID_OposElectronicValueRW_CCO@@3U3@B$00$0A@VCComTypeInfoHolder@ATL@@@ATL@@UEAAJIKPEAPEAUITypeInfo@@@Z 000000018001b520 f i ElectronicValueRW.obj
 0001:0001a570       ?GetTypeInfo@CComTypeInfoHolder@ATL@@QEAAJIKPEAPEAUITypeInfo@@@Z 000000018001b570 f i ElectronicValueRW.obj
 0001:0001a5d0       ?GetTypeInfoCount@?$IDispatchImpl@UIOPOSElectronicValueRW@@$1?IID_IOPOSElectronicValueRW@@3U_GUID@@B$1?LIBID_OposElectronicValueRW_CCO@@3U3@B$00$0A@VCComTypeInfoHolder@ATL@@@ATL@@UEAAJPEAI@Z 000000018001b5d0 f i ElectronicValueRW.obj
 0001:0001a600       ?GetUnknown@CComDynamicUnkArray@ATL@@QEAAPEAUIUnknown@@K@Z 000000018001b600 f i ElectronicValueRW.obj
 0001:0001a6b0       ?GetUnknown@COPOSElectronicValueRW@@QEAAPEAUIUnknown@@XZ 000000018001b6b0 f i ElectronicValueRW.obj
 0001:0001a6e0       ?GetUserClassID@?$IOleObjectImpl@VCOPOSElectronicValueRW@@@ATL@@UEAAJPEAU_GUID@@@Z 000000018001b6e0 f i ElectronicValueRW.obj
 0001:0001a7c0       ?GetUserType@?$IOleObjectImpl@VCOPOSElectronicValueRW@@@ATL@@UEAAJKPEAPEA_W@Z 000000018001b7c0 f i ElectronicValueRW.obj
 0001:0001a850       ?GetValueAt@?$CSimpleMap@PEA_WPEA_WVCExpansionVectorEqualHelper@ATL@@@ATL@@QEBAAEAPEA_WH@Z 000000018001b850 f i ElectronicValueRW.obj
 0001:0001a900       ?GetViewStatus@?$IViewObjectExImpl@VCOPOSElectronicValueRW@@@ATL@@UEAAJPEAK@Z 000000018001b900 f i ElectronicValueRW.obj
 0001:0001aa00       ?GetWNDPROC@CWndProcThunk@ATL@@QEAAP6A_JPEAUHWND__@@I_K_J@ZXZ 000000018001ba00 f i ElectronicValueRW.obj
 0001:0001aa40       ?GetWindow@?$IOleInPlaceActiveObjectImpl@VCOPOSElectronicValueRW@@@ATL@@UEAAJPEAPEAUHWND__@@@Z 000000018001ba40 f i ElectronicValueRW.obj
 0001:0001ab40       ?GetWindow@?$IOleInPlaceObjectWindowlessImpl@VCOPOSElectronicValueRW@@@ATL@@UEAAJPEAPEAUHWND__@@@Z 000000018001bb40 f i ElectronicValueRW.obj
 0001:0001ac40       ?GetWindowProc@?$CWindowImplBaseT@VCWindow@ATL@@V?$CWinTraits@$0FGAAAAAA@$0A@@2@@ATL@@UEAAP6A_JPEAUHWND__@@I_K_J@ZXZ 000000018001bc40 f i ElectronicValueRW.obj
 0001:0001ac50       ?GetWndCaption@?$CWindowImpl@VCOPOSElectronicValueRW@@VCWindow@ATL@@V?$CWinTraits@$0FGAAAAAA@$0A@@3@@ATL@@SAPEB_WXZ 000000018001bc50 f i ElectronicValueRW.obj
 0001:0001ac60       ?GetWndClassInfo@?$CWindowImpl@VCOPOSElectronicValueRW@@VCWindow@ATL@@V?$CWinTraits@$0FGAAAAAA@$0A@@3@@ATL@@SAAEAU_ATL_WNDCLASSINFOW@2@XZ 000000018001bc60 f i ElectronicValueRW.obj
 0001:0001ac70       ?GetWndClassName@CWindow@ATL@@SAPEB_WXZ 000000018001bc70 f i ElectronicValueRW.obj
 0001:0001ac80       ?GetWndExStyle@?$CWinTraits@$0FGAAAAAA@$0A@@ATL@@SAKK@Z 000000018001bc80 f i ElectronicValueRW.obj
 0001:0001acc0       ?GetWndExStyle@?$CWindowImplBaseT@VCWindow@ATL@@V?$CWinTraits@$0FGAAAAAA@$0A@@2@@ATL@@SAKK@Z 000000018001bcc0 f i ElectronicValueRW.obj
 0001:0001acf0       ?GetWndStyle@?$CWinTraits@$0FGAAAAAA@$0A@@ATL@@SAKK@Z 000000018001bcf0 f i ElectronicValueRW.obj
 0001:0001ad30       ?GetWndStyle@?$CWindowImplBaseT@VCWindow@ATL@@V?$CWinTraits@$0FGAAAAAA@$0A@@2@@ATL@@SAKK@Z 000000018001bd30 f i ElectronicValueRW.obj
 0001:0001ad60       ?GetZoomInfo@CComControlBase@ATL@@QEAAXAEAUATL_DRAWINFO@@@Z 000000018001bd60 f i ElectronicValueRW.obj
 0001:0001af10       ?HKeyFromString@CRegParser@ATL@@KAPEAUHKEY__@@PEA_W@Z 000000018001bf10 f i ElectronicValueRW.obj
 0001:0001afa0       ?HandsOffStorage@?$IPersistStorageImpl@VCOPOSElectronicValueRW@@@ATL@@UEAAJXZ 000000018001bfa0 f i ElectronicValueRW.obj
 0001:0001b010       ?HasSubKeys@CRegParser@ATL@@IEAAHPEAUHKEY__@@@Z 000000018001c010 f i ElectronicValueRW.obj
 0001:0001b180       ?IDataObject_GetData@CComControlBase@ATL@@QEAAJPEAUtagFORMATETC@@PEAUtagSTGMEDIUM@@@Z 000000018001c180 f i ElectronicValueRW.obj
 0001:0001b630       ?IOleInPlaceObject_InPlaceDeactivate@CComControlBase@ATL@@QEAAJXZ 000000018001c630 f i ElectronicValueRW.obj
 0001:0001b8a0       ?IOleInPlaceObject_SetObjectRects@CComControlBase@ATL@@QEAAJPEBUtagRECT@@0@Z 000000018001c8a0 f i ElectronicValueRW.obj
 0001:0001ba80       ?IOleInPlaceObject_UIDeactivate@CComControlBase@ATL@@QEAAJXZ 000000018001ca80 f i ElectronicValueRW.obj
 0001:0001bcf0       ?IOleObject_Advise@CComControlBase@ATL@@QEAAJPEAUIAdviseSink@@PEAK@Z 000000018001ccf0 f i ElectronicValueRW.obj
 0001:0001bda0       ?IOleObject_Close@CComControlBase@ATL@@QEAAJK@Z 000000018001cda0 f i ElectronicValueRW.obj
 0001:0001c110       ?IOleObject_GetClientSite@CComControlBase@ATL@@QEAAJPEAPEAUIOleClientSite@@@Z 000000018001d110 f i ElectronicValueRW.obj
 0001:0001c1e0       ?IOleObject_SetClientSite@CComControlBase@ATL@@QEAAJPEAUIOleClientSite@@@Z 000000018001d1e0 f i ElectronicValueRW.obj
 0001:0001c2f0       ?IOleObject_SetExtent@CComControlBase@ATL@@QEAAJKPEAUtagSIZE@@@Z 000000018001d2f0 f i ElectronicValueRW.obj
 0001:0001c460       ?IPSI_GetIPersistStreamInit@?$IPersistStorageImpl@VCOPOSElectronicValueRW@@@ATL@@AEAAPEAUIPersistStreamInit@@XZ 000000018001d460 f i ElectronicValueRW.obj
 0001:0001c520       ?IPersistStreamInit_Load@?$IPersistStreamInitImpl@VCOPOSElectronicValueRW@@@ATL@@QEAAJPEAUIStream@@PEBUATL_PROPMAP_ENTRY@2@@Z 000000018001d520 f i ElectronicValueRW.obj
 0001:0001c5c0       ?IPersistStreamInit_Save@?$IPersistStreamInitImpl@VCOPOSElectronicValueRW@@@ATL@@QEAAJPEAUIStream@@HPEBUATL_PROPMAP_ENTRY@2@@Z 000000018001d5c0 f i ElectronicValueRW.obj
 0001:0001c680       ?IQuickActivate_QuickActivate@CComControlBase@ATL@@QEAAJPEAUtagQACONTAINER@@PEAUtagQACONTROL@@@Z 000000018001d680 f i ElectronicValueRW.obj
 0001:0001cec0       ?IViewObject_Draw@CComControlBase@ATL@@QEAAJKJPEAXPEAUtagDVTARGETDEVICE@@PEAUHDC__@@2PEBU_RECTL@@3@Z 000000018001dec0 f i ElectronicValueRW.obj
 0001:0001d310       ?InPlaceActivate@CComControlBase@ATL@@QEAAJJPEBUtagRECT@@@Z 000000018001e310 f i ElectronicValueRW.obj
 0001:0001deb0       ?InPlaceDeactivate@?$IOleInPlaceObjectWindowlessImpl@VCOPOSElectronicValueRW@@@ATL@@UEAAJXZ 000000018001eeb0 f i ElectronicValueRW.obj
 0001:0001df60       ?Increment@CComMultiThreadModel@ATL@@SAKPEAJ@Z 000000018001ef60 f i ElectronicValueRW.obj
 0001:0001df80       ?Increment@CComSingleThreadModel@ATL@@SAKPEAJ@Z 000000018001ef80 f i ElectronicValueRW.obj
 0001:0001dfa0       ?Init@?$CComEnumImpl@UIEnumConnectionPoints@@$1?_GUID_b196b285_bab4_101a_b69c_00aa00341d07@@3U__s_GUID@@BPEAUIConnectionPoint@@V?$_CopyInterface@UIConnectionPoint@@@ATL@@@ATL@@QEAAJPEAPEAUIConnectionPoint@@0PEAUIUnknown@@W4CComEnumFlags@2@@Z 000000018001efa0 f i ElectronicValueRW.obj
 0001:0001e290       ?Init@?$CComEnumImpl@UIEnumConnections@@$1?_GUID_b196b287_bab4_101a_b69c_00aa00341d07@@3U__s_GUID@@BUtagCONNECTDATA@@V?$_Copy@UtagCONNECTDATA@@@ATL@@@ATL@@QEAAJPEAUtagCONNECTDATA@@0PEAUIUnknown@@W4CComEnumFlags@2@@Z 000000018001f290 f i ElectronicValueRW.obj
 0001:0001e580       ?Init@CComFakeCriticalSection@ATL@@QEAAJXZ 000000018001f580 f i ElectronicValueRW.obj
 0001:0001e590       ?Init@CComModule@ATL@@QEAAJPEAU_ATL_OBJMAP_ENTRY30@2@PEAUHINSTANCE__@@PEBU_GUID@@@Z 000000018001f590 f i ElectronicValueRW.obj
 0001:0001e680       ?Init@CComSafeDeleteCriticalSection@ATL@@QEAAJXZ 000000018001f680 f i ElectronicValueRW.obj
 0001:0001e710       ?Init@CDynamicStdCallThunk2@ATL@@QEAAH_KPEAX@Z 000000018001f710 f i ElectronicValueRW.obj
 0001:0001e790       ?Init@CWndProcThunk@ATL@@QEAAHP6A_JPEAUHWND__@@I_K_J@ZPEAX@Z 000000018001f790 f i ElectronicValueRW.obj
 0001:0001e7e0       ?InitFromData@?$IOleObjectImpl@VCOPOSElectronicValueRW@@@ATL@@UEAAJPEAUIDataObject@@HK@Z 000000018001f7e0 f i ElectronicValueRW.obj
 0001:0001e870       ?InitLibId@?$CAtlModuleT@VCComModule@ATL@@@ATL@@SAXXZ 000000018001f870 f i ElectronicValueRW.obj
 0001:0001e880       ?InitNew@?$IPersistStorageImpl@VCOPOSElectronicValueRW@@@ATL@@UEAAJPEAUIStorage@@@Z 000000018001f880 f i ElectronicValueRW.obj
 0001:0001e970       ?InitNew@?$IPersistStreamInitImpl@VCOPOSElectronicValueRW@@@ATL@@UEAAJXZ 000000018001f970 f i ElectronicValueRW.obj
 0001:0001ea20       ?InlineIsEqualUnknown@ATL@@YAHAEBU_GUID@@@Z 000000018001fa20 f i ElectronicValueRW.obj
 0001:0001eab0       ?InternalAddRef@?$CComObjectRootEx@VCComMultiThreadModel@ATL@@@ATL@@QEAAKXZ 000000018001fab0 f i ElectronicValueRW.obj
 0001:0001eb30       ?InternalAddRef@?$CComObjectRootEx@VCComSingleThreadModel@ATL@@@ATL@@QEAAKXZ 000000018001fb30 f i ElectronicValueRW.obj
 0001:0001ebb0       ?InternalFinalConstructAddRef@CComObjectRootBase@ATL@@QEAAXXZ 000000018001fbb0 f i ElectronicValueRW.obj
 0001:0001ebc0       ?InternalFinalConstructAddRef@COPOSElectronicValueRW@@QEAAXXZ 000000018001fbc0 f i ElectronicValueRW.obj
 0001:0001ec00       ?InternalFinalConstructRelease@CComObjectRootBase@ATL@@QEAAXXZ 000000018001fc00 f i ElectronicValueRW.obj
 0001:0001ec70       ?InternalFinalConstructRelease@COPOSElectronicValueRW@@QEAAXXZ 000000018001fc70 f i ElectronicValueRW.obj
 0001:0001ecb0       ?InternalGetSite@CComControlBase@ATL@@QEAAJAEBU_GUID@@PEAPEAX@Z 000000018001fcb0 f i ElectronicValueRW.obj
 0001:0001ed90       ?InternalQueryInterface@CComObjectRootBase@ATL@@SAJPEAXPEBU_ATL_INTMAP_ENTRY@2@AEBU_GUID@@PEAPEAX@Z 000000018001fd90 f i ElectronicValueRW.obj
 0001:0001eeb0       ?InternalRelease@?$CComObjectRootEx@VCComMultiThreadModel@ATL@@@ATL@@QEAAKXZ 000000018001feb0 f i ElectronicValueRW.obj
 0001:0001ef30       ?InternalRelease@?$CComObjectRootEx@VCComSingleThreadModel@ATL@@@ATL@@QEAAKXZ 000000018001ff30 f i ElectronicValueRW.obj
 0001:0001efb0       ?InternalSetAtIndex@?$CSimpleArray@GV?$CSimpleArrayEqualHelper@G@ATL@@@ATL@@QEAAXHAEBG@Z 000000018001ffb0 f i ElectronicValueRW.obj
 0001:0001f030       ?InternalSetAtIndex@?$CSimpleMap@PEA_WPEA_WVCExpansionVectorEqualHelper@ATL@@@ATL@@QEAAXHAEBQEA_W0@Z 0000000180020030 f i ElectronicValueRW.obj
 0001:0001f100       ?Invoke@?$IDispatchImpl@UIOPOSElectronicValueRW@@$1?IID_IOPOSElectronicValueRW@@3U_GUID@@B$1?LIBID_OposElectronicValueRW_CCO@@3U3@B$00$0A@VCComTypeInfoHolder@ATL@@@ATL@@UEAAJJAEBU_GUID@@KGPEAUtagDISPPARAMS@@PEAUtagVARIANT@@PEAUtagEXCEPINFO@@PEAI@Z 0000000180020100 f i ElectronicValueRW.obj
 0001:0001f1a0       ?Invoke@CComTypeInfoHolder@ATL@@QEAAJPEAUIDispatch@@JAEBU_GUID@@KGPEAUtagDISPPARAMS@@PEAUtagVARIANT@@PEAUtagEXCEPINFO@@PEAI@Z 00000001800201a0 f i ElectronicValueRW.obj
 0001:0001f260       ?IsDirty@?$IPersistStorageImpl@VCOPOSElectronicValueRW@@@ATL@@UEAAJXZ 0000000180020260 f i ElectronicValueRW.obj
 0001:0001f350       ?IsDirty@?$IPersistStreamInitImpl@VCOPOSElectronicValueRW@@@ATL@@UEAAJXZ 0000000180020350 f i ElectronicValueRW.obj
 0001:0001f410       ?IsEqualKey@CExpansionVectorEqualHelper@ATL@@SA_NQEA_W0@Z 0000000180020410 f i ElectronicValueRW.obj
 0001:0001f460       ?IsEqualObject@?$CComPtrBase@UIOleClientSite@@@ATL@@QEAA_NPEAUIUnknown@@@Z 0000000180020460 f i ElectronicValueRW.obj
 0001:0001f5b0       ?IsEqualObject@?$CComPtrBase@UITypeInfo@@@ATL@@QEAA_NPEAUIUnknown@@@Z 00000001800205b0 f i ElectronicValueRW.obj
 0001:0001f700       ?IsSpace@CRegParser@ATL@@IEAAH_W@Z 0000000180020700 f i ElectronicValueRW.obj
 0001:0001f760       ?IsUpToDate@?$IOleObjectImpl@VCOPOSElectronicValueRW@@@ATL@@UEAAJXZ 0000000180020760 f i ElectronicValueRW.obj
 0001:0001f7d0       ?Length@CComBSTR@ATL@@QEBAIXZ 00000001800207d0 f i ElectronicValueRW.obj
 0001:0001f810       ?Load@?$IPersistStorageImpl@VCOPOSElectronicValueRW@@@ATL@@UEAAJPEAUIStorage@@@Z 0000000180020810 f i ElectronicValueRW.obj
 0001:0001f9c0       ?Load@?$IPersistStreamInitImpl@VCOPOSElectronicValueRW@@@ATL@@UEAAJPEAUIStream@@@Z 00000001800209c0 f i ElectronicValueRW.obj
 0001:0001fa80       ?LoadCursorW@AtlModuleRegisterWndClassInfoParamW@ATL@@SAPEAUHICON__@@PEAUHINSTANCE__@@PEB_W@Z 0000000180020a80 f i ElectronicValueRW.obj
 0001:0001fac0       ?LoadNameCache@CComTypeInfoHolder@ATL@@QEAAJPEAUITypeInfo@@@Z 0000000180020ac0 f i ElectronicValueRW.obj
 0001:0001fe00       ?Lock@?$CComCritSecLock@VCComCriticalSection@ATL@@@ATL@@QEAAJXZ 0000000180020e00 f i ElectronicValueRW.obj
 0001:0001fef0       ?Lock@?$CComObjectRootEx@VCComSingleThreadModel@ATL@@@ATL@@QEAAXXZ 0000000180020ef0 f i ElectronicValueRW.obj
 0001:0001ff00       ?Lock@CAtlModule@ATL@@UEAAJXZ 0000000180020f00 f i ElectronicValueRW.obj
 0001:0001ff40       ?Lock@CComCriticalSection@ATL@@QEAAJXZ 0000000180020f40 f i ElectronicValueRW.obj
 0001:0001ff80       ?Lock@CComFakeCriticalSection@ATL@@QEAAJXZ 0000000180020f80 f i ElectronicValueRW.obj
 0001:0001ff90       ?LockServer@CComClassFactory@ATL@@UEAAJH@Z 0000000180020f90 f i ElectronicValueRW.obj
 0001:0001fff0       ?Lookup@?$CSimpleMap@PEA_WPEA_WVCExpansionVectorEqualHelper@ATL@@@ATL@@QEBAPEA_WAEBQEA_W@Z 0000000180020ff0 f i ElectronicValueRW.obj
 0001:00020050       ?Next@?$CComEnumImpl@UIEnumConnectionPoints@@$1?_GUID_b196b285_bab4_101a_b69c_00aa00341d07@@3U__s_GUID@@BPEAUIConnectionPoint@@V?$_CopyInterface@UIConnectionPoint@@@ATL@@@ATL@@UEAAJKPEAPEAUIConnectionPoint@@PEAK@Z 0000000180021050 f i ElectronicValueRW.obj
 0001:00020210       ?Next@?$CComEnumImpl@UIEnumConnections@@$1?_GUID_b196b287_bab4_101a_b69c_00aa00341d07@@3U__s_GUID@@BUtagCONNECTDATA@@V?$_Copy@UtagCONNECTDATA@@@ATL@@@ATL@@UEAAJKPEAUtagCONNECTDATA@@PEAK@Z 0000000180021210 f i ElectronicValueRW.obj
 0001:000203d0       ?NextToken@CRegParser@ATL@@IEAAJPEA_W@Z 00000001800213d0 f i ElectronicValueRW.obj
 0001:00020760       ?OLE2CT_EX@@YAPEB_WPEB_WI@Z 0000000180021760 f i ElectronicValueRW.obj
 0001:00020780       ?OLE2CT_EX_DEF@@YAPEB_WPEB_W@Z 0000000180021780 f i ElectronicValueRW.obj
 0001:00020790       ?OLE2T_EX@@YAPEA_WPEA_WI@Z 0000000180021790 f i ElectronicValueRW.obj
 0001:000207b0       ?OnAmbientPropertyChange@?$IOleControlImpl@VCOPOSElectronicValueRW@@@ATL@@UEAAJJ@Z 00000001800217b0 f i ElectronicValueRW.obj
 0001:00020870       ?OnDocWindowActivate@?$IOleInPlaceActiveObjectImpl@VCOPOSElectronicValueRW@@@ATL@@UEAAJH@Z 0000000180021870 f i ElectronicValueRW.obj
 0001:00020930       ?OnDrawAdvanced@CComControlBase@ATL@@UEAAJAEAUATL_DRAWINFO@@@Z 0000000180021930 f i ElectronicValueRW.obj
 0001:00020b80       ?OnFinalMessage@?$CWindowImplBaseT@VCWindow@ATL@@V?$CWinTraits@$0FGAAAAAA@$0A@@2@@ATL@@UEAAXPEAUHWND__@@@Z 0000000180021b80 f i ElectronicValueRW.obj
 0001:00020b90       ?OnFrameWindowActivate@?$IOleInPlaceActiveObjectImpl@VCOPOSElectronicValueRW@@@ATL@@UEAAJH@Z 0000000180021b90 f i ElectronicValueRW.obj
 0001:00020c00       ?OnKillFocus@CComControlBase@ATL@@QEAA_JI_K_JAEAH@Z 0000000180021c00 f i ElectronicValueRW.obj
 0001:00020cf0       ?OnMnemonic@?$IOleControlImpl@VCOPOSElectronicValueRW@@@ATL@@UEAAJPEAUtagMSG@@@Z 0000000180021cf0 f i ElectronicValueRW.obj
 0001:00020d80       ?OnMouseActivate@CComControlBase@ATL@@QEAA_JI_K_JAEAH@Z 0000000180021d80 f i ElectronicValueRW.obj
 0001:00020f20       ?OnPaint@CComControlBase@ATL@@QEAA_JI_K_JAEAH@Z 0000000180021f20 f i ElectronicValueRW.obj
 0001:000210b0       ?OnPostVerbDiscardUndo@?$IOleObjectImpl@VCOPOSElectronicValueRW@@@ATL@@QEAAJXZ 00000001800220b0 f i ElectronicValueRW.obj
 0001:000210c0       ?OnPostVerbHide@?$IOleObjectImpl@VCOPOSElectronicValueRW@@@ATL@@QEAAJXZ 00000001800220c0 f i ElectronicValueRW.obj
 0001:000210d0       ?OnPostVerbInPlaceActivate@?$IOleObjectImpl@VCOPOSElectronicValueRW@@@ATL@@QEAAJXZ 00000001800220d0 f i ElectronicValueRW.obj
 0001:000210e0       ?OnPostVerbOpen@?$IOleObjectImpl@VCOPOSElectronicValueRW@@@ATL@@QEAAJXZ 00000001800220e0 f i ElectronicValueRW.obj
 0001:000210f0       ?OnPostVerbShow@?$IOleObjectImpl@VCOPOSElectronicValueRW@@@ATL@@QEAAJXZ 00000001800220f0 f i ElectronicValueRW.obj
 0001:00021100       ?OnPostVerbUIActivate@?$IOleObjectImpl@VCOPOSElectronicValueRW@@@ATL@@QEAAJXZ 0000000180022100 f i ElectronicValueRW.obj
 0001:00021110       ?OnPreVerbDiscardUndo@?$IOleObjectImpl@VCOPOSElectronicValueRW@@@ATL@@QEAAJXZ 0000000180022110 f i ElectronicValueRW.obj
 0001:00021120       ?OnPreVerbHide@?$IOleObjectImpl@VCOPOSElectronicValueRW@@@ATL@@QEAAJXZ 0000000180022120 f i ElectronicValueRW.obj
 0001:00021130       ?OnPreVerbInPlaceActivate@?$IOleObjectImpl@VCOPOSElectronicValueRW@@@ATL@@QEAAJXZ 0000000180022130 f i ElectronicValueRW.obj
 0001:00021140       ?OnPreVerbOpen@?$IOleObjectImpl@VCOPOSElectronicValueRW@@@ATL@@QEAAJXZ 0000000180022140 f i ElectronicValueRW.obj
 0001:00021150       ?OnPreVerbShow@?$IOleObjectImpl@VCOPOSElectronicValueRW@@@ATL@@QEAAJXZ 0000000180022150 f i ElectronicValueRW.obj
 0001:00021160       ?OnPreVerbUIActivate@?$IOleObjectImpl@VCOPOSElectronicValueRW@@@ATL@@QEAAJXZ 0000000180022160 f i ElectronicValueRW.obj
 0001:00021170       ?OnSetFocus@CComControlBase@ATL@@QEAA_JI_K_JAEAH@Z 0000000180022170 f i ElectronicValueRW.obj
 0001:00021370       ?OnWindowMessage@?$IOleInPlaceObjectWindowlessImpl@VCOPOSElectronicValueRW@@@ATL@@UEAAJI_K_JPEA_J@Z 0000000180022370 f i ElectronicValueRW.obj
 0001:00021590       ?Open@CRegKey@ATL@@QEAAJPEAUHKEY__@@PEB_WK@Z 0000000180022590 f i ElectronicValueRW.obj
 0001:00021710       ?OuterAddRef@CComObjectRootBase@ATL@@QEAAKXZ 0000000180022710 f i ElectronicValueRW.obj
 0001:00021750       ?OuterQueryInterface@CComObjectRootBase@ATL@@QEAAJAEBU_GUID@@PEAPEAX@Z 0000000180022750 f i ElectronicValueRW.obj
 0001:000217a0       ?OuterRelease@CComObjectRootBase@ATL@@QEAAKXZ 00000001800227a0 f i ElectronicValueRW.obj
 0001:000217e0       ?PreProcessBuffer@CRegParser@ATL@@QEAAJPEA_WPEAPEA_W@Z 00000001800227e0 f i ElectronicValueRW.obj
 0001:00021ec0       ?PreTranslateAccelerator@CComControlBase@ATL@@QEAAHPEAUtagMSG@@AEAJ@Z 0000000180022ec0 f i ElectronicValueRW.obj
 0001:00021ee0       ?ProcessWindowMessage@?$CComControl@VCOPOSElectronicValueRW@@V?$CWindowImpl@VCOPOSElectronicValueRW@@VCWindow@ATL@@V?$CWinTraits@$0FGAAAAAA@$0A@@3@@ATL@@@ATL@@UEAAHPEAUHWND__@@I_K_JAEA_JK@Z 0000000180022ee0 f i ElectronicValueRW.obj
 0001:00022160       ?ProcessWindowMessage@COPOSElectronicValueRW@@UEAAHPEAUHWND__@@I_K_JAEA_JK@Z 0000000180023160 f i ElectronicValueRW.obj
 0001:000222e0       ?PutProperty@?$CComPtr@UIDispatch@@@ATL@@QEAAJJPEAUtagVARIANT@@@Z 00000001800232e0 f i ElectronicValueRW.obj
 0001:00022330       ?PutProperty@?$CComPtr@UIDispatch@@@ATL@@SAJPEAUIDispatch@@JPEAUtagVARIANT@@@Z 0000000180023330 f i ElectronicValueRW.obj
 0001:000225d0       ?QueryGetData@?$IDataObjectImpl@VCOPOSElectronicValueRW@@@ATL@@UEAAJPEAUtagFORMATETC@@@Z 00000001800235d0 f i ElectronicValueRW.obj
 0001:00022660       ?QueryHitPoint@?$IViewObjectExImpl@VCOPOSElectronicValueRW@@@ATL@@UEAAJKPEBUtagRECT@@UtagPOINT@@JPEAK@Z 0000000180023660 f i ElectronicValueRW.obj
 0001:000227d0       ?QueryHitRect@?$IViewObjectExImpl@VCOPOSElectronicValueRW@@@ATL@@UEAAJKPEBUtagRECT@@0JPEAK@Z 00000001800237d0 f i ElectronicValueRW.obj
 0001:000229a0       ?QueryInterface@?$CComAggObject@VCOPOSElectronicValueRW@@@ATL@@UEAAJAEBU_GUID@@PEAPEAX@Z 00000001800239a0 f i ElectronicValueRW.obj
 0001:00022a90       ?QueryInterface@?$CComContainedObject@VCOPOSElectronicValueRW@@@ATL@@UEAAJAEBU_GUID@@PEAPEAX@Z 0000000180023a90 f i ElectronicValueRW.obj
 0001:00022adc       ?QueryInterface@?$CComContainedObject@VCOPOSElectronicValueRW@@@ATL@@WBAA@EAAJAEBU_GUID@@PEAPEAX@Z 0000000180023adc f i ElectronicValueRW.obj
 0001:00022ae8       ?QueryInterface@?$CComContainedObject@VCOPOSElectronicValueRW@@@ATL@@WBAI@EAAJAEBU_GUID@@PEAPEAX@Z 0000000180023ae8 f i ElectronicValueRW.obj
 0001:00022af4       ?QueryInterface@?$CComContainedObject@VCOPOSElectronicValueRW@@@ATL@@WBBA@EAAJAEBU_GUID@@PEAPEAX@Z 0000000180023af4 f i ElectronicValueRW.obj
 0001:00022b00       ?QueryInterface@?$CComContainedObject@VCOPOSElectronicValueRW@@@ATL@@WBBI@EAAJAEBU_GUID@@PEAPEAX@Z 0000000180023b00 f i ElectronicValueRW.obj
 0001:00022b0c       ?QueryInterface@?$CComContainedObject@VCOPOSElectronicValueRW@@@ATL@@WLI@EAAJAEBU_GUID@@PEAPEAX@Z 0000000180023b0c f i ElectronicValueRW.obj
 0001:00022b18       ?QueryInterface@?$CComContainedObject@VCOPOSElectronicValueRW@@@ATL@@WMA@EAAJAEBU_GUID@@PEAPEAX@Z 0000000180023b18 f i ElectronicValueRW.obj
 0001:00022b24       ?QueryInterface@?$CComContainedObject@VCOPOSElectronicValueRW@@@ATL@@WMI@EAAJAEBU_GUID@@PEAPEAX@Z 0000000180023b24 f i ElectronicValueRW.obj
 0001:00022b30       ?QueryInterface@?$CComContainedObject@VCOPOSElectronicValueRW@@@ATL@@WNA@EAAJAEBU_GUID@@PEAPEAX@Z 0000000180023b30 f i ElectronicValueRW.obj
 0001:00022b3c       ?QueryInterface@?$CComContainedObject@VCOPOSElectronicValueRW@@@ATL@@WNI@EAAJAEBU_GUID@@PEAPEAX@Z 0000000180023b3c f i ElectronicValueRW.obj
 0001:00022b48       ?QueryInterface@?$CComContainedObject@VCOPOSElectronicValueRW@@@ATL@@WOA@EAAJAEBU_GUID@@PEAPEAX@Z 0000000180023b48 f i ElectronicValueRW.obj
 0001:00022b54       ?QueryInterface@?$CComContainedObject@VCOPOSElectronicValueRW@@@ATL@@WOI@EAAJAEBU_GUID@@PEAPEAX@Z 0000000180023b54 f i ElectronicValueRW.obj
 0001:00022b60       ?QueryInterface@?$CComContainedObject@VCOPOSElectronicValueRW@@@ATL@@WPA@EAAJAEBU_GUID@@PEAPEAX@Z 0000000180023b60 f i ElectronicValueRW.obj
 0001:00022b6c       ?QueryInterface@?$CComContainedObject@VCOPOSElectronicValueRW@@@ATL@@WPI@EAAJAEBU_GUID@@PEAPEAX@Z 0000000180023b6c f i ElectronicValueRW.obj
 0001:00022b80       ?QueryInterface@?$CComObject@V?$CComEnum@UIEnumConnectionPoints@@$1?_GUID_b196b285_bab4_101a_b69c_00aa00341d07@@3U__s_GUID@@BPEAUIConnectionPoint@@V?$_CopyInterface@UIConnectionPoint@@@ATL@@VCComSingleThreadModel@6@@ATL@@@ATL@@UEAAJAEBU_GUID@@PEAPEAX@Z 0000000180023b80 f i ElectronicValueRW.obj
 0001:00022bd0       ?QueryInterface@?$CComObject@V?$CComEnum@UIEnumConnections@@$1?_GUID_b196b287_bab4_101a_b69c_00aa00341d07@@3U__s_GUID@@BUtagCONNECTDATA@@V?$_Copy@UtagCONNECTDATA@@@ATL@@VCComSingleThreadModel@6@@ATL@@@ATL@@UEAAJAEBU_GUID@@PEAPEAX@Z 0000000180023bd0 f i ElectronicValueRW.obj
 0001:00022c20       ?QueryInterface@?$CComObject@VCOPOSElectronicValueRW@@@ATL@@UEAAJAEBU_GUID@@PEAPEAX@Z 0000000180023c20 f i ElectronicValueRW.obj
 0001:00022c64       ?QueryInterface@?$CComObject@VCOPOSElectronicValueRW@@@ATL@@WBAA@EAAJAEBU_GUID@@PEAPEAX@Z 0000000180023c64 f i ElectronicValueRW.obj
 0001:00022c70       ?QueryInterface@?$CComObject@VCOPOSElectronicValueRW@@@ATL@@WBAI@EAAJAEBU_GUID@@PEAPEAX@Z 0000000180023c70 f i ElectronicValueRW.obj
 0001:00022c7c       ?QueryInterface@?$CComObject@VCOPOSElectronicValueRW@@@ATL@@WBBA@EAAJAEBU_GUID@@PEAPEAX@Z 0000000180023c7c f i ElectronicValueRW.obj
 0001:00022c88       ?QueryInterface@?$CComObject@VCOPOSElectronicValueRW@@@ATL@@WBBI@EAAJAEBU_GUID@@PEAPEAX@Z 0000000180023c88 f i ElectronicValueRW.obj
 0001:00022c94       ?QueryInterface@?$CComObject@VCOPOSElectronicValueRW@@@ATL@@WLI@EAAJAEBU_GUID@@PEAPEAX@Z 0000000180023c94 f i ElectronicValueRW.obj
 0001:00022ca0       ?QueryInterface@?$CComObject@VCOPOSElectronicValueRW@@@ATL@@WMA@EAAJAEBU_GUID@@PEAPEAX@Z 0000000180023ca0 f i ElectronicValueRW.obj
 0001:00022cac       ?QueryInterface@?$CComObject@VCOPOSElectronicValueRW@@@ATL@@WMI@EAAJAEBU_GUID@@PEAPEAX@Z 0000000180023cac f i ElectronicValueRW.obj
 0001:00022cb8       ?QueryInterface@?$CComObject@VCOPOSElectronicValueRW@@@ATL@@WNA@EAAJAEBU_GUID@@PEAPEAX@Z 0000000180023cb8 f i ElectronicValueRW.obj
 0001:00022cc4       ?QueryInterface@?$CComObject@VCOPOSElectronicValueRW@@@ATL@@WNI@EAAJAEBU_GUID@@PEAPEAX@Z 0000000180023cc4 f i ElectronicValueRW.obj
 0001:00022cd0       ?QueryInterface@?$CComObject@VCOPOSElectronicValueRW@@@ATL@@WOA@EAAJAEBU_GUID@@PEAPEAX@Z 0000000180023cd0 f i ElectronicValueRW.obj
 0001:00022cdc       ?QueryInterface@?$CComObject@VCOPOSElectronicValueRW@@@ATL@@WOI@EAAJAEBU_GUID@@PEAPEAX@Z 0000000180023cdc f i ElectronicValueRW.obj
 0001:00022ce8       ?QueryInterface@?$CComObject@VCOPOSElectronicValueRW@@@ATL@@WPA@EAAJAEBU_GUID@@PEAPEAX@Z 0000000180023ce8 f i ElectronicValueRW.obj
 0001:00022cf4       ?QueryInterface@?$CComObject@VCOPOSElectronicValueRW@@@ATL@@WPI@EAAJAEBU_GUID@@PEAPEAX@Z 0000000180023cf4 f i ElectronicValueRW.obj
 0001:00022d00       ?QueryInterface@?$CComObjectCached@VCComClassFactory@ATL@@@ATL@@UEAAJAEBU_GUID@@PEAPEAX@Z 0000000180023d00 f i ElectronicValueRW.obj
 0001:00022d50       ?QueryInterface@CRegObject@ATL@@UEAAJAEBU_GUID@@PEAPEAX@Z 0000000180023d50 f i ElectronicValueRW.obj
 0001:00022dd0       ?QuickActivate@?$IQuickActivateImpl@VCOPOSElectronicValueRW@@@ATL@@UEAAJPEAUtagQACONTAINER@@PEAUtagQACONTROL@@@Z 0000000180023dd0 f i ElectronicValueRW.obj
 0001:00022e90       ?ReactivateAndUndo@?$IOleInPlaceObjectWindowlessImpl@VCOPOSElectronicValueRW@@@ATL@@UEAAJXZ 0000000180023e90 f i ElectronicValueRW.obj
 0001:00022f10       ?ReadFromStream@CComBSTR@ATL@@QEAAJPEAUIStream@@@Z 0000000180023f10 f i ElectronicValueRW.obj
 0001:000233f0       ?ReadFromStream@CComVariant@ATL@@QEAAJPEAUIStream@@GTClassesAllowedInStream@2@K@Z 00000001800243f0 f i ElectronicValueRW.obj
 0001:00023820       ?RecurseDeleteKey@CRegKey@ATL@@QEAAJPEB_W@Z 0000000180024820 f i ElectronicValueRW.obj
 0001:00023a40       ?RegCreateKeyExW@CAtlTransactionManager@ATL@@QEAAJPEAUHKEY__@@PEB_WKPEA_WKKQEAU_SECURITY_ATTRIBUTES@@PEAPEAU3@PEAK@Z 0000000180024a40 f i ElectronicValueRW.obj
 0001:00023c10       ?RegDeleteKeyW@CAtlTransactionManager@ATL@@QEAAJPEAUHKEY__@@PEB_W@Z 0000000180024c10 f i ElectronicValueRW.obj
 0001:00023d20       ?RegOpenKeyExW@CAtlTransactionManager@ATL@@QEAAJPEAUHKEY__@@PEB_WKKPEAPEAU3@@Z 0000000180024d20 f i ElectronicValueRW.obj
 0001:00023e70       ?Register@_ATL_WNDCLASSINFOW@ATL@@QEAAGPEAP6A_JPEAUHWND__@@I_K_J@Z@Z 0000000180024e70 f i ElectronicValueRW.obj
 0001:00023ec0       ?RegisterBuffer@CRegParser@ATL@@QEAAJPEA_WH@Z 0000000180024ec0 f i ElectronicValueRW.obj
 0001:000242b0       ?RegisterClassExW@AtlModuleRegisterWndClassInfoParamW@ATL@@SAGPEAU_ATL_WIN_MODULE70@2@PEBUtagWNDCLASSEXW@@@Z 00000001800252b0 f i ElectronicValueRW.obj
 0001:000242f0       ?RegisterFromResource@CRegObject@ATL@@IEAAJPEB_W00H@Z 00000001800252f0 f i ElectronicValueRW.obj
 0001:00024750       ?RegisterServer@?$CAtlModuleT@VCComModule@ATL@@@ATL@@QEAAJHPEBU_GUID@@@Z 0000000180025750 f i ElectronicValueRW.obj
 0001:000247d0       ?RegisterServer@CAtlComModule@ATL@@QEAAJHPEBU_GUID@@@Z 00000001800257d0 f i ElectronicValueRW.obj
 0001:00024810       ?RegisterServer@CComModule@ATL@@QEAAJHPEBU_GUID@@@Z 0000000180025810 f i ElectronicValueRW.obj
 0001:00024910       ?RegisterSubkeys@CRegParser@ATL@@IEAAJPEA_WPEAUHKEY__@@HH@Z 0000000180025910 f i ElectronicValueRW.obj
 0001:000256f0       ?Release@?$CComAggObject@VCOPOSElectronicValueRW@@@ATL@@UEAAKXZ 00000001800266f0 f i ElectronicValueRW.obj
 0001:000257a0       ?Release@?$CComContainedObject@VCOPOSElectronicValueRW@@@ATL@@UEAAKXZ 00000001800267a0 f i ElectronicValueRW.obj
 0001:000257d8       ?Release@?$CComContainedObject@VCOPOSElectronicValueRW@@@ATL@@WBAA@EAAKXZ 00000001800267d8 f i ElectronicValueRW.obj
 0001:000257e4       ?Release@?$CComContainedObject@VCOPOSElectronicValueRW@@@ATL@@WBAI@EAAKXZ 00000001800267e4 f i ElectronicValueRW.obj
 0001:000257f0       ?Release@?$CComContainedObject@VCOPOSElectronicValueRW@@@ATL@@WBBA@EAAKXZ 00000001800267f0 f i ElectronicValueRW.obj
 0001:000257fc       ?Release@?$CComContainedObject@VCOPOSElectronicValueRW@@@ATL@@WBBI@EAAKXZ 00000001800267fc f i ElectronicValueRW.obj
 0001:00025808       ?Release@?$CComContainedObject@VCOPOSElectronicValueRW@@@ATL@@WBCI@EAAKXZ 0000000180026808 f i ElectronicValueRW.obj
 0001:00025814       ?Release@?$CComContainedObject@VCOPOSElectronicValueRW@@@ATL@@WBEA@EAAKXZ 0000000180026814 f i ElectronicValueRW.obj
 0001:00025820       ?Release@?$CComContainedObject@VCOPOSElectronicValueRW@@@ATL@@WLI@EAAKXZ 0000000180026820 f i ElectronicValueRW.obj
 0001:0002582c       ?Release@?$CComContainedObject@VCOPOSElectronicValueRW@@@ATL@@WMA@EAAKXZ 000000018002682c f i ElectronicValueRW.obj
 0001:00025838       ?Release@?$CComContainedObject@VCOPOSElectronicValueRW@@@ATL@@WMI@EAAKXZ 0000000180026838 f i ElectronicValueRW.obj
 0001:00025844       ?Release@?$CComContainedObject@VCOPOSElectronicValueRW@@@ATL@@WNA@EAAKXZ 0000000180026844 f i ElectronicValueRW.obj
 0001:00025850       ?Release@?$CComContainedObject@VCOPOSElectronicValueRW@@@ATL@@WNI@EAAKXZ 0000000180026850 f i ElectronicValueRW.obj
 0001:0002585c       ?Release@?$CComContainedObject@VCOPOSElectronicValueRW@@@ATL@@WOA@EAAKXZ 000000018002685c f i ElectronicValueRW.obj
 0001:00025868       ?Release@?$CComContainedObject@VCOPOSElectronicValueRW@@@ATL@@WOI@EAAKXZ 0000000180026868 f i ElectronicValueRW.obj
 0001:00025874       ?Release@?$CComContainedObject@VCOPOSElectronicValueRW@@@ATL@@WPA@EAAKXZ 0000000180026874 f i ElectronicValueRW.obj
 0001:00025880       ?Release@?$CComContainedObject@VCOPOSElectronicValueRW@@@ATL@@WPI@EAAKXZ 0000000180026880 f i ElectronicValueRW.obj
 0001:00025890       ?Release@?$CComObject@V?$CComEnum@UIEnumConnectionPoints@@$1?_GUID_b196b285_bab4_101a_b69c_00aa00341d07@@3U__s_GUID@@BPEAUIConnectionPoint@@V?$_CopyInterface@UIConnectionPoint@@@ATL@@VCComSingleThreadModel@6@@ATL@@@ATL@@UEAAKXZ 0000000180026890 f i ElectronicValueRW.obj
 0001:00025940       ?Release@?$CComObject@V?$CComEnum@UIEnumConnections@@$1?_GUID_b196b287_bab4_101a_b69c_00aa00341d07@@3U__s_GUID@@BUtagCONNECTDATA@@V?$_Copy@UtagCONNECTDATA@@@ATL@@VCComSingleThreadModel@6@@ATL@@@ATL@@UEAAKXZ 0000000180026940 f i ElectronicValueRW.obj
 0001:000259f0       ?Release@?$CComObject@VCOPOSElectronicValueRW@@@ATL@@UEAAKXZ 00000001800269f0 f i ElectronicValueRW.obj
 0001:00025aa8       ?Release@?$CComObject@VCOPOSElectronicValueRW@@@ATL@@WBAA@EAAKXZ 0000000180026aa8 f i ElectronicValueRW.obj
 0001:00025ab4       ?Release@?$CComObject@VCOPOSElectronicValueRW@@@ATL@@WBAI@EAAKXZ 0000000180026ab4 f i ElectronicValueRW.obj
 0001:00025ac0       ?Release@?$CComObject@VCOPOSElectronicValueRW@@@ATL@@WBBA@EAAKXZ 0000000180026ac0 f i ElectronicValueRW.obj
 0001:00025acc       ?Release@?$CComObject@VCOPOSElectronicValueRW@@@ATL@@WBBI@EAAKXZ 0000000180026acc f i ElectronicValueRW.obj
 0001:00025ad8       ?Release@?$CComObject@VCOPOSElectronicValueRW@@@ATL@@WBCI@EAAKXZ 0000000180026ad8 f i ElectronicValueRW.obj
 0001:00025ae4       ?Release@?$CComObject@VCOPOSElectronicValueRW@@@ATL@@WBEA@EAAKXZ 0000000180026ae4 f i ElectronicValueRW.obj
 0001:00025af0       ?Release@?$CComObject@VCOPOSElectronicValueRW@@@ATL@@WLI@EAAKXZ 0000000180026af0 f i ElectronicValueRW.obj
 0001:00025afc       ?Release@?$CComObject@VCOPOSElectronicValueRW@@@ATL@@WMA@EAAKXZ 0000000180026afc f i ElectronicValueRW.obj
 0001:00025b08       ?Release@?$CComObject@VCOPOSElectronicValueRW@@@ATL@@WMI@EAAKXZ 0000000180026b08 f i ElectronicValueRW.obj
 0001:00025b14       ?Release@?$CComObject@VCOPOSElectronicValueRW@@@ATL@@WNA@EAAKXZ 0000000180026b14 f i ElectronicValueRW.obj
 0001:00025b20       ?Release@?$CComObject@VCOPOSElectronicValueRW@@@ATL@@WNI@EAAKXZ 0000000180026b20 f i ElectronicValueRW.obj
 0001:00025b2c       ?Release@?$CComObject@VCOPOSElectronicValueRW@@@ATL@@WOA@EAAKXZ 0000000180026b2c f i ElectronicValueRW.obj
 0001:00025b38       ?Release@?$CComObject@VCOPOSElectronicValueRW@@@ATL@@WOI@EAAKXZ 0000000180026b38 f i ElectronicValueRW.obj
 0001:00025b44       ?Release@?$CComObject@VCOPOSElectronicValueRW@@@ATL@@WPA@EAAKXZ 0000000180026b44 f i ElectronicValueRW.obj
 0001:00025b50       ?Release@?$CComObject@VCOPOSElectronicValueRW@@@ATL@@WPI@EAAKXZ 0000000180026b50 f i ElectronicValueRW.obj
 0001:00025b60       ?Release@?$CComObjectCached@VCComClassFactory@ATL@@@ATL@@UEAAKXZ 0000000180026b60 f i ElectronicValueRW.obj
 0001:00025c00       ?Release@?$CComPtrBase@UIAdviseSink@@@ATL@@QEAAXXZ 0000000180026c00 f i ElectronicValueRW.obj
 0001:00025c60       ?Release@?$CComPtrBase@UIDispatch@@@ATL@@QEAAXXZ 0000000180026c60 f i ElectronicValueRW.obj
 0001:00025cc0       ?Release@?$CComPtrBase@UIOleInPlaceSiteWindowless@@@ATL@@QEAAXXZ 0000000180026cc0 f i ElectronicValueRW.obj
 0001:00025d20       ?Release@CRegObject@ATL@@UEAAKXZ 0000000180026d20 f i ElectronicValueRW.obj
 0001:00025d90       ?Remove@CComDynamicUnkArray@ATL@@QEAAHK@Z 0000000180026d90 f i ElectronicValueRW.obj
 0001:00025e70       ?RemoveAll@?$CSimpleMap@PEA_WPEA_WVCExpansionVectorEqualHelper@ATL@@@ATL@@QEAAXXZ 0000000180026e70 f i ElectronicValueRW.obj
 0001:00025f10       ?Reset@?$CComEnumImpl@UIEnumConnectionPoints@@$1?_GUID_b196b285_bab4_101a_b69c_00aa00341d07@@3U__s_GUID@@BPEAUIConnectionPoint@@V?$_CopyInterface@UIConnectionPoint@@@ATL@@@ATL@@UEAAJXZ 0000000180026f10 f i ElectronicValueRW.obj
 0001:00025f30       ?Reset@?$CComEnumImpl@UIEnumConnections@@$1?_GUID_b196b287_bab4_101a_b69c_00aa00341d07@@3U__s_GUID@@BUtagCONNECTDATA@@V?$_Copy@UtagCONNECTDATA@@@ATL@@@ATL@@UEAAJXZ 0000000180026f30 f i ElectronicValueRW.obj
 0001:00025f50       ?ResizeBorder@?$IOleInPlaceActiveObjectImpl@VCOPOSElectronicValueRW@@@ATL@@UEAAJPEBUtagRECT@@PEAUIOleInPlaceUIWindow@@H@Z 0000000180026f50 f i ElectronicValueRW.obj
 0001:00025fd0       ?ResourceRegister@CRegObject@ATL@@QEAAJPEB_WI0@Z 0000000180026fd0 f i ElectronicValueRW.obj
 0001:000260b0       ?ResourceRegisterSz@CRegObject@ATL@@QEAAJPEB_W00@Z 00000001800270b0 f i ElectronicValueRW.obj
 0001:000261d0       ?ResourceUnregister@CRegObject@ATL@@QEAAJPEB_WI0@Z 00000001800271d0 f i ElectronicValueRW.obj
 0001:000262b0       ?ResourceUnregisterSz@CRegObject@ATL@@QEAAJPEB_W00@Z 00000001800272b0 f i ElectronicValueRW.obj
 0001:000263d0       ?SOData@COPOSElectronicValueRW@@MEAAJJ@Z 00000001800273d0 f i ElectronicValueRW.obj
 0001:00026470       ?SODirectIO@COPOSElectronicValueRW@@MEAAJJPEAJPEAPEA_W@Z 0000000180027470 f i ElectronicValueRW.obj
 0001:000266b0       ?SOError@COPOSElectronicValueRW@@MEAAJJJJPEAJ@Z 00000001800276b0 f i ElectronicValueRW.obj
 0001:000267c0       ?SOOutputComplete@COPOSElectronicValueRW@@MEAAJJ@Z 00000001800277c0 f i ElectronicValueRW.obj
 0001:00026860       ?SOStatusUpdate@COPOSElectronicValueRW@@MEAAJJ@Z 0000000180027860 f i ElectronicValueRW.obj
 0001:00026900       ?SOTransition@COPOSElectronicValueRW@@MEAAJJPEAJPEAPEA_W@Z 0000000180027900 f i ElectronicValueRW.obj
 0001:00026b40       ?Save@?$IPersistStorageImpl@VCOPOSElectronicValueRW@@@ATL@@UEAAJPEAUIStorage@@H@Z 0000000180027b40 f i ElectronicValueRW.obj
 0001:00026d00       ?Save@?$IPersistStreamInitImpl@VCOPOSElectronicValueRW@@@ATL@@UEAAJPEAUIStream@@H@Z 0000000180027d00 f i ElectronicValueRW.obj
 0001:00026dc0       ?SaveCompleted@?$IPersistStorageImpl@VCOPOSElectronicValueRW@@@ATL@@UEAAJPEAUIStorage@@@Z 0000000180027dc0 f i ElectronicValueRW.obj
 0001:00026e30       ?SendOnDataChange@CComControlBase@ATL@@QEAAJK@Z 0000000180027e30 f i ElectronicValueRW.obj
 0001:00026f20       ?SendOnSave@CComControlBase@ATL@@QEAAJXZ 0000000180027f20 f i ElectronicValueRW.obj
 0001:00026f90       ?SendOnViewChange@CComControlBase@ATL@@QEAAJKJ@Z 0000000180027f90 f i ElectronicValueRW.obj
 0001:00027010       ?SetAdvise@?$IViewObjectExImpl@VCOPOSElectronicValueRW@@@ATL@@UEAAJKKPEAUIAdviseSink@@@Z 0000000180028010 f i ElectronicValueRW.obj
 0001:000270d0       ?SetClientSite@?$IOleObjectImpl@VCOPOSElectronicValueRW@@@ATL@@UEAAJPEAUIOleClientSite@@@Z 00000001800280d0 f i ElectronicValueRW.obj
 0001:00027180       ?SetColorScheme@?$IOleObjectImpl@VCOPOSElectronicValueRW@@@ATL@@UEAAJPEAUtagLOGPALETTE@@@Z 0000000180028180 f i ElectronicValueRW.obj
 0001:00027210       ?SetContentExtent@?$IQuickActivateImpl@VCOPOSElectronicValueRW@@@ATL@@UEAAJPEAUtagSIZE@@@Z 0000000180028210 f i ElectronicValueRW.obj
 0001:000272d0       ?SetControlFocus@CComControlBase@ATL@@QEAAHH@Z 00000001800282d0 f i ElectronicValueRW.obj
 0001:00027460       ?SetDWORDValue@CRegKey@ATL@@QEAAJPEB_WK@Z 0000000180028460 f i ElectronicValueRW.obj
 0001:00027510       ?SetData@?$IDataObjectImpl@VCOPOSElectronicValueRW@@@ATL@@UEAAJPEAUtagFORMATETC@@PEAUtagSTGMEDIUM@@H@Z 0000000180028510 f i ElectronicValueRW.obj
 0001:000275a0       ?SetExtent@?$IOleObjectImpl@VCOPOSElectronicValueRW@@@ATL@@UEAAJKPEAUtagSIZE@@@Z 00000001800285a0 f i ElectronicValueRW.obj
 0001:00027660       ?SetHostNames@?$IOleObjectImpl@VCOPOSElectronicValueRW@@@ATL@@UEAAJPEB_W0@Z 0000000180028660 f i ElectronicValueRW.obj
 0001:000276e0       ?SetInterfaceSafetyOptions@?$IObjectSafetyImpl@VCOPOSElectronicValueRW@@$02@ATL@@UEAAJAEBU_GUID@@KK@Z 00000001800286e0 f i ElectronicValueRW.obj
 0001:00027880       ?SetMoniker@?$IOleObjectImpl@VCOPOSElectronicValueRW@@@ATL@@UEAAJKPEAUIMoniker@@@Z 0000000180028880 f i ElectronicValueRW.obj
 0001:00027910       ?SetMultiStringValue@CRegKey@ATL@@QEAAJPEB_W0@Z 0000000180028910 f i ElectronicValueRW.obj
 0001:00027a80       ?SetObjectRects@?$IOleInPlaceObjectWindowlessImpl@VCOPOSElectronicValueRW@@@ATL@@UEAAJPEBUtagRECT@@0@Z 0000000180028a80 f i ElectronicValueRW.obj
 0001:00027b40       ?SetStringValue@CRegKey@ATL@@QEAAJPEB_W0K@Z 0000000180028b40 f i ElectronicValueRW.obj
 0001:00027cc0       ?SetVoid@CComClassFactory@ATL@@QEAAXPEAX@Z 0000000180028cc0 f i ElectronicValueRW.obj
 0001:00027ce0       ?SetVoid@CComObjectRootBase@ATL@@QEAAXPEAX@Z 0000000180028ce0 f i ElectronicValueRW.obj
 0001:00027cf0       ?ShowWindow@CWindow@ATL@@QEAAHH@Z 0000000180028cf0 f i ElectronicValueRW.obj
 0001:00027d80       ?Skip@?$CComEnumImpl@UIEnumConnectionPoints@@$1?_GUID_b196b285_bab4_101a_b69c_00aa00341d07@@3U__s_GUID@@BPEAUIConnectionPoint@@V?$_CopyInterface@UIConnectionPoint@@@ATL@@@ATL@@UEAAJK@Z 0000000180028d80 f i ElectronicValueRW.obj
 0001:00027e20       ?Skip@?$CComEnumImpl@UIEnumConnections@@$1?_GUID_b196b287_bab4_101a_b69c_00aa00341d07@@3U__s_GUID@@BUtagCONNECTDATA@@V?$_Copy@UtagCONNECTDATA@@@ATL@@@ATL@@UEAAJK@Z 0000000180028e20 f i ElectronicValueRW.obj
 0001:00027ec0       ?SkipAssignment@CRegParser@ATL@@IEAAJPEA_W@Z 0000000180028ec0 f i ElectronicValueRW.obj
 0001:00027fc0       ?SkipWhiteSpace@CRegParser@ATL@@IEAAXXZ 0000000180028fc0 f i ElectronicValueRW.obj
 0001:00028020       ?StartWindowProc@?$CWindowImplBaseT@VCWindow@ATL@@V?$CWinTraits@$0FGAAAAAA@$0A@@2@@ATL@@SA_JPEAUHWND__@@I_K_J@Z 0000000180029020 f i ElectronicValueRW.obj
 0001:00028190       ?StrChrW@CRegParser@ATL@@KAPEA_WPEA_W_W@Z 0000000180029190 f i ElectronicValueRW.obj
 0001:00028210       ?StrFromMap@CRegObject@ATL@@QEAAPEB_WPEA_W@Z 0000000180029210 f i ElectronicValueRW.obj
 0001:000282d0       ?Swap@?$CComPtrBase@UIAdviseSink@@@ATL@@IEAAXAEAV12@@Z 00000001800292d0 f i ElectronicValueRW.obj
 0001:00028330       ?Swap@?$CComPtrBase@UIOleClientSite@@@ATL@@IEAAXAEAV12@@Z 0000000180029330 f i ElectronicValueRW.obj
 0001:00028390       ?Swap@?$CComPtrBase@UIUnknown@@@ATL@@IEAAXAEAV12@@Z 0000000180029390 f i ElectronicValueRW.obj
 0001:000283f0       ?T2COLE_EX@@YAPEB_WPEB_WI@Z 00000001800293f0 f i ElectronicValueRW.obj
 0001:00028410       ?T2OLE_EX@@YAPEA_WPEA_WI@Z 0000000180029410 f i ElectronicValueRW.obj
 0001:00028430       ?Term@CAtlModule@ATL@@QEAAXXZ 0000000180029430 f i ElectronicValueRW.obj
 0001:000284f0       ?Term@CComModule@ATL@@QEAAXXZ 00000001800294f0 f i ElectronicValueRW.obj
 0001:000285e0       ?TranslateAcceleratorW@?$IOleInPlaceActiveObjectImpl@VCOPOSElectronicValueRW@@@ATL@@UEAAJPEAUtagMSG@@@Z 00000001800295e0 f i ElectronicValueRW.obj
 0001:00028850       ?UIDeactivate@?$IOleInPlaceObjectWindowlessImpl@VCOPOSElectronicValueRW@@@ATL@@UEAAJXZ 0000000180029850 f i ElectronicValueRW.obj
 0001:00028900       ?Unadvise@?$CProxy_IOPOSEvents@VCOPOSElectronicValueRW@@@@UEAAJK@Z 0000000180029900 f i ElectronicValueRW.obj
 0001:00028950       ?Unadvise@?$IConnectionPointImpl@VCOPOSElectronicValueRW@@$1?DIID__IOPOSElectronicValueRWEvents@@3U_GUID@@BVCComDynamicUnkArray@ATL@@@ATL@@UEAAJK@Z 0000000180029950 f i ElectronicValueRW.obj
 0001:00028a40       ?Unadvise@?$IConnectionPointImpl@VCOPOSElectronicValueRW@@$1?IID_IPropertyNotifySink@@3U_GUID@@BVCComDynamicUnkArray@ATL@@@ATL@@UEAAJK@Z 0000000180029a40 f i ElectronicValueRW.obj
 0001:00028b30       ?Unadvise@?$IOleObjectImpl@VCOPOSElectronicValueRW@@@ATL@@UEAAJK@Z 0000000180029b30 f i ElectronicValueRW.obj
 0001:00028c20       ?Unfreeze@?$IViewObjectExImpl@VCOPOSElectronicValueRW@@@ATL@@UEAAJK@Z 0000000180029c20 f i ElectronicValueRW.obj
 0001:00028ca0       ?Unlock@?$CComCritSecLock@VCComCriticalSection@ATL@@@ATL@@QEAAXXZ 0000000180029ca0 f i ElectronicValueRW.obj
 0001:00028d30       ?Unlock@?$CComObjectRootEx@VCComSingleThreadModel@ATL@@@ATL@@QEAAXXZ 0000000180029d30 f i ElectronicValueRW.obj
 0001:00028d40       ?Unlock@CAtlModule@ATL@@UEAAJXZ 0000000180029d40 f i ElectronicValueRW.obj
 0001:00028d80       ?Unlock@CComCriticalSection@ATL@@QEAAJXZ 0000000180029d80 f i ElectronicValueRW.obj
 0001:00028dc0       ?Unlock@CComFakeCriticalSection@ATL@@QEAAJXZ 0000000180029dc0 f i ElectronicValueRW.obj
 0001:00028dd0       ?UnregisterServer@?$CAtlModuleT@VCComModule@ATL@@@ATL@@QEAAJHPEBU_GUID@@@Z 0000000180029dd0 f i ElectronicValueRW.obj
 0001:00028e40       ?UnregisterServer@CAtlComModule@ATL@@QEAAJHPEBU_GUID@@@Z 0000000180029e40 f i ElectronicValueRW.obj
 0001:00028e80       ?UnregisterServer@CComModule@ATL@@QEAAJHPEBU_GUID@@@Z 0000000180029e80 f i ElectronicValueRW.obj
 0001:00028f70       ?Update@?$IOleObjectImpl@VCOPOSElectronicValueRW@@@ATL@@UEAAJXZ 0000000180029f70 f i ElectronicValueRW.obj
 0001:00028fe0       ?UpdateRegistryFromResource@CAtlModule@ATL@@QEAAJIHPEAU_ATL_REGMAP_ENTRY@2@@Z 0000000180029fe0 f i ElectronicValueRW.obj
 0001:00029510       ?UpdateRegistryFromResource@CAtlModule@ATL@@QEAAJPEB_WHPEAU_ATL_REGMAP_ENTRY@2@@Z 000000018002a510 f i ElectronicValueRW.obj
 0001:00029a60       ?UpdateRegistryFromResource@CComModule@ATL@@UEAAJIHPEAU_ATL_REGMAP_ENTRY@2@@Z 000000018002aa60 f i ElectronicValueRW.obj
 0001:00029ab0       ?UpdateRegistryFromResource@CComModule@ATL@@UEAAJPEB_WHPEAU_ATL_REGMAP_ENTRY@2@@Z 000000018002aab0 f i ElectronicValueRW.obj
 0001:00029b00       ?UpdateRegistryFromResourceD@CComModule@ATL@@UEAAJIHPEAU_ATL_REGMAP_ENTRY@2@@Z 000000018002ab00 f i ElectronicValueRW.obj
 0001:00029b20       ?UpdateRegistryFromResourceD@CComModule@ATL@@UEAAJPEB_WHPEAU_ATL_REGMAP_ENTRY@2@@Z 000000018002ab20 f i ElectronicValueRW.obj
 0001:00029b40       ?VTFromRegType@CRegParser@ATL@@KAHPEB_WAEAG@Z 000000018002ab40 f i ElectronicValueRW.obj
 0001:00029c20       ?WindowProc@?$CWindowImplBaseT@VCWindow@ATL@@V?$CWinTraits@$0FGAAAAAA@$0A@@2@@ATL@@SA_JPEAUHWND__@@I_K_J@Z 000000018002ac20 f i ElectronicValueRW.obj
 0001:00029f00       ?WriteToStream@CComBSTR@ATL@@QEAAJPEAUIStream@@@Z 000000018002af00 f i ElectronicValueRW.obj
 0001:0002a070       ?WriteToStream@CComVariant@ATL@@QEAAJPEAUIStream@@@Z 000000018002b070 f i ElectronicValueRW.obj
 0001:0002a480       ?WriteToStream@CComVariant@ATL@@QEAAJPEAUIStream@@G@Z 000000018002b480 f i ElectronicValueRW.obj
 0001:0002a560       ?_AtlFinalConstruct@CComObjectRootBase@ATL@@QEAAJXZ 000000018002b560 f i ElectronicValueRW.obj
 0001:0002a570       ?_AtlGetConversionACP@ATL@@YAIXZ 000000018002b570 f i ElectronicValueRW.obj
 0001:0002a580       ?_AtlInitialConstruct@?$CComAggObject@VCOPOSElectronicValueRW@@@ATL@@QEAAJXZ 000000018002b580 f i ElectronicValueRW.obj
 0001:0002a5e0       ?_AtlInitialConstruct@?$CComObjectRootEx@VCComMultiThreadModel@ATL@@@ATL@@QEAAJXZ 000000018002b5e0 f i ElectronicValueRW.obj
 0001:0002a620       ?_AtlInitialConstruct@?$CComObjectRootEx@VCComSingleThreadModel@ATL@@@ATL@@QEAAJXZ 000000018002b620 f i ElectronicValueRW.obj
 0001:0002a630       ?_AtlVerifyStackAvailable@_ATL_SAFE_ALLOCA_IMPL@ATL@@YA_N_K@Z 000000018002b630 f i ElectronicValueRW.obj
 0001:0002a790       ?_GetEntries@?$CComEnum@UIEnumConnectionPoints@@$1?_GUID_b196b285_bab4_101a_b69c_00aa00341d07@@3U__s_GUID@@BPEAUIConnectionPoint@@V?$_CopyInterface@UIConnectionPoint@@@ATL@@VCComSingleThreadModel@6@@ATL@@SAPEBU_ATL_INTMAP_ENTRY@2@XZ 000000018002b790 f i ElectronicValueRW.obj
 0001:0002a7b0       ?_GetEntries@?$CComEnum@UIEnumConnections@@$1?_GUID_b196b287_bab4_101a_b69c_00aa00341d07@@3U__s_GUID@@BUtagCONNECTDATA@@V?$_Copy@UtagCONNECTDATA@@@ATL@@VCComSingleThreadModel@6@@ATL@@SAPEBU_ATL_INTMAP_ENTRY@2@XZ 000000018002b7b0 f i ElectronicValueRW.obj
 0001:0002a7d0       ?_GetEntries@CComClassFactory@ATL@@SAPEBU_ATL_INTMAP_ENTRY@2@XZ 000000018002b7d0 f i ElectronicValueRW.obj
 0001:0002a7f0       ?_GetEntries@COPOSElectronicValueRW@@SAPEBU_ATL_INTMAP_ENTRY@ATL@@XZ 000000018002b7f0 f i ElectronicValueRW.obj
 0001:0002a810       ?_GetRawUnknown@COPOSElectronicValueRW@@QEAAPEAUIUnknown@@XZ 000000018002b810 f i ElectronicValueRW.obj
 0001:0002a8a0       ?_GetViewStatus@COPOSElectronicValueRW@@QEAAKXZ 000000018002b8a0 f i ElectronicValueRW.obj
 0001:0002a8b0       ?_InternalQueryInterface@?$CComEnum@UIEnumConnectionPoints@@$1?_GUID_b196b285_bab4_101a_b69c_00aa00341d07@@3U__s_GUID@@BPEAUIConnectionPoint@@V?$_CopyInterface@UIConnectionPoint@@@ATL@@VCComSingleThreadModel@6@@ATL@@QEAAJAEBU_GUID@@PEAPEAX@Z 000000018002b8b0 f i ElectronicValueRW.obj
 0001:0002a900       ?_InternalQueryInterface@?$CComEnum@UIEnumConnections@@$1?_GUID_b196b287_bab4_101a_b69c_00aa00341d07@@3U__s_GUID@@BUtagCONNECTDATA@@V?$_Copy@UtagCONNECTDATA@@@ATL@@VCComSingleThreadModel@6@@ATL@@QEAAJAEBU_GUID@@PEAPEAX@Z 000000018002b900 f i ElectronicValueRW.obj
 0001:0002a950       ?_InternalQueryInterface@CComClassFactory@ATL@@QEAAJAEBU_GUID@@PEAPEAX@Z 000000018002b950 f i ElectronicValueRW.obj
 0001:0002a9a0       ?_InternalQueryInterface@COPOSElectronicValueRW@@QEAAJAEBU_GUID@@PEAPEAX@Z 000000018002b9a0 f i ElectronicValueRW.obj
 0001:0002a9f0       ?_LocCPQueryInterface@?$IConnectionPointImpl@VCOPOSElectronicValueRW@@$1?DIID__IOPOSElectronicValueRWEvents@@3U_GUID@@BVCComDynamicUnkArray@ATL@@@ATL@@UEAAJAEBU_GUID@@PEAPEAX@Z 000000018002b9f0 f i ElectronicValueRW.obj
 0001:0002aad0       ?_LocCPQueryInterface@?$IConnectionPointImpl@VCOPOSElectronicValueRW@@$1?IID_IPropertyNotifySink@@3U_GUID@@BVCComDynamicUnkArray@ATL@@@ATL@@UEAAJAEBU_GUID@@PEAPEAX@Z 000000018002bad0 f i ElectronicValueRW.obj
 0001:0002abb0       ?atlCreate@?$CWindowImpl@VCOPOSElectronicValueRW@@VCWindow@ATL@@V?$CWinTraits@$0FGAAAAAA@$0A@@3@@ATL@@QEAAPEAUHWND__@@PEAU3@V_U_RECT@2@PEB_WKKV_U_MENUorID@2@PEAX@Z 000000018002bbb0 f i ElectronicValueRW.obj
 0001:0002ace0       ?atlCreate@?$CWindowImplBaseT@VCWindow@ATL@@V?$CWinTraits@$0FGAAAAAA@$0A@@2@@ATL@@QEAAPEAUHWND__@@PEAU3@V_U_RECT@2@PEB_WKKV_U_MENUorID@2@GPEAX@Z 000000018002bce0 f i ElectronicValueRW.obj
 0001:0002af40       ?atlCreate@CRegKey@ATL@@QEAAJPEAUHKEY__@@PEB_WPEA_WKKPEAU_SECURITY_ATTRIBUTES@@PEAK@Z 000000018002bf40 f i ElectronicValueRW.obj
 0001:0002b130       ?begin@CComDynamicUnkArray@ATL@@QEAAPEAPEAUIUnknown@@XZ 000000018002c130 f i ElectronicValueRW.obj
 0001:0002b140       ?copy@?$_Copy@UtagCONNECTDATA@@@ATL@@SAJPEAUtagCONNECTDATA@@PEBU3@@Z 000000018002c140 f i ElectronicValueRW.obj
 0001:0002b230       ?copy@?$_CopyInterface@UIConnectionPoint@@@ATL@@SAJPEAPEAUIConnectionPoint@@PEBQEAU3@@Z 000000018002c230 f i ElectronicValueRW.obj
 0001:0002b320       ?destroy@?$_Copy@UtagCONNECTDATA@@@ATL@@SAXPEAUtagCONNECTDATA@@@Z 000000018002c320 f i ElectronicValueRW.obj
 0001:0002b370       ?destroy@?$_CopyInterface@UIConnectionPoint@@@ATL@@SAXPEAPEAUIConnectionPoint@@@Z 000000018002c370 f i ElectronicValueRW.obj
 0001:0002b3c0       ?end@CComDynamicUnkArray@ATL@@QEAAPEAPEAUIUnknown@@XZ 000000018002c3c0 f i ElectronicValueRW.obj
 0001:0002b3e0       ?init@?$_Copy@UtagCONNECTDATA@@@ATL@@SAXPEAUtagCONNECTDATA@@@Z 000000018002c3e0 f i ElectronicValueRW.obj
 0001:0002b3f0       ?init@?$_CopyInterface@UIConnectionPoint@@@ATL@@SAXPEAPEAUIConnectionPoint@@@Z 000000018002c3f0 f i ElectronicValueRW.obj
 0001:0002b400       ?memcpy_s@Checked@ATL@@YAXPEAX_KPEBX1@Z 000000018002c400 f i ElectronicValueRW.obj
 0001:0002b460       ?ocscpy_s@@YA_NPEA_W_KPEB_W@Z 000000018002c460 f i ElectronicValueRW.obj
 0001:0002b4e0       ?ocslen@@YAHPEB_W@Z        000000018002c4e0 f i ElectronicValueRW.obj
 0001:0002b520       ?tcsncpy_s@Checked@ATL@@YAHPEA_W_KPEB_W1@Z 000000018002c520 f i ElectronicValueRW.obj
 0001:0002b580       ?wcscat_s@Checked@ATL@@YAXPEA_W_KPEB_W@Z 000000018002c580 f i ElectronicValueRW.obj
 0001:0002b5d0       ?wcscpy_s@Checked@ATL@@YAXPEA_W_KPEB_W@Z 000000018002c5d0 f i ElectronicValueRW.obj
 0001:0002b620       ?wcsncpy_s@Checked@ATL@@YAHPEA_W_KPEB_W1@Z 000000018002c620 f i ElectronicValueRW.obj
 0001:0002b680       ?wcsstr@@YAPEA_WPEA_WPEB_W@Z 000000018002c680 f i ElectronicValueRW.obj
 0001:0002b6c0       InlineIsEqualGUID          000000018002c6c0 f i ElectronicValueRW.obj
 0001:0002b790       IsEqualGUID                000000018002c790 f i ElectronicValueRW.obj
 0001:0002b7f0       ??0COPOSElectronicValueRW@@QEAA@XZ 000000018002c7f0 f   ElectronicValueRWImpl.obj
 0001:0002b970       ?FinalConstruct@COPOSElectronicValueRW@@QEAAJXZ 000000018002c970 f   ElectronicValueRWImpl.obj
 0001:0002ba60       ??1COPOSElectronicValueRW@@UEAA@XZ 000000018002ca60 f   ElectronicValueRWImpl.obj
 0001:0002bb40       ?WriteTrace@COPOSElectronicValueRW@@QEAAXPEB_WZZ 000000018002cb40 f   ElectronicValueRWImpl.obj
 0001:0002bc00       ?WriteTraceString@COPOSElectronicValueRW@@QEAAXPEB_WPEA_W@Z 000000018002cc00 f   ElectronicValueRWImpl.obj
 0001:0002c040       ?WriteTraceString@COPOSElectronicValueRW@@QEAAXPEAXHHHPEB_WZZ 000000018002d040 f   ElectronicValueRWImpl.obj
 0001:0002c2d0       ?WriteTraceError@COPOSElectronicValueRW@@QEAAXPEB_WK@Z 000000018002d2d0 f   ElectronicValueRWImpl.obj
 0001:0002c3d0       ?WriteTraceMethods@COPOSElectronicValueRW@@QEAAXPEAJH@Z 000000018002d3d0 f   ElectronicValueRWImpl.obj
 0001:0002c460       ?FormatCurrency@COPOSElectronicValueRW@@QEAAPEB_WTtagCY@@@Z 000000018002d460 f   ElectronicValueRWImpl.obj
 0001:0002c580       ?GetOposProp@COPOSElectronicValueRW@@IEAAJPEBDJPEAJJ@Z 000000018002d580 f   ElectronicValueRWImpl.obj
 0001:0002c8a0       ?SetOposProp@COPOSElectronicValueRW@@IEAAJPEBDJJJ@Z 000000018002d8a0 f   ElectronicValueRWImpl.obj
 0001:0002cc00       ?GetOposProp@COPOSElectronicValueRW@@IEAAJPEBDJPEAFJ@Z 000000018002dc00 f   ElectronicValueRWImpl.obj
 0001:0002cca0       ?SetOposProp@COPOSElectronicValueRW@@IEAAJPEBDJFJ@Z 000000018002dca0 f   ElectronicValueRWImpl.obj
 0001:0002cd20       ?GetOposProp@COPOSElectronicValueRW@@IEAAJPEBDJPEAPEA_WJ@Z 000000018002dd20 f   ElectronicValueRWImpl.obj
 0001:0002d040       ?SetOposProp@COPOSElectronicValueRW@@IEAAJPEBDJPEA_WJ@Z 000000018002e040 f   ElectronicValueRWImpl.obj
 0001:0002d420       ?DoInvoke@COPOSElectronicValueRW@@IEAAJPEBDJPEAVOposVariant@@IHPEAJ_N@Z 000000018002e420 f   ElectronicValueRWImpl.obj
 0001:0002e060       ?SetCOFreezeEvents@COPOSElectronicValueRW@@IEAAXF@Z 000000018002f060 f   ElectronicValueRWImpl.obj
 0001:0002e1f0       ?FreezeEvents@COPOSElectronicValueRW@@MEAAJH@Z 000000018002f1f0 f   ElectronicValueRWImpl.obj
 0001:0002e320       ?OnDraw@COPOSElectronicValueRW@@MEAAJAEAUATL_DRAWINFO@@@Z 000000018002f320 f   ElectronicValueRWImpl.obj
 0001:0002e4f0       ?SOProcessID@COPOSElectronicValueRW@@UEAAJPEAJ@Z 000000018002f4f0 f   ElectronicValueRWImpl.obj
 0001:0002e550       ?get_OpenResult@COPOSElectronicValueRW@@UEAAJPEAJ@Z 000000018002f550 f   ElectronicValueRWImpl.obj
 0001:0002e5b0       ?get_AutoDisable@COPOSElectronicValueRW@@UEAAJPEAF@Z 000000018002f5b0 f   ElectronicValueRWImpl.obj
 0001:0002e610       ?put_AutoDisable@COPOSElectronicValueRW@@UEAAJF@Z 000000018002f610 f   ElectronicValueRWImpl.obj
 0001:0002e670       ?get_BinaryConversion@COPOSElectronicValueRW@@UEAAJPEAJ@Z 000000018002f670 f   ElectronicValueRWImpl.obj
 0001:0002e6d0       ?put_BinaryConversion@COPOSElectronicValueRW@@UEAAJJ@Z 000000018002f6d0 f   ElectronicValueRWImpl.obj
 0001:0002e740       ?get_CapPowerReporting@COPOSElectronicValueRW@@UEAAJPEAJ@Z 000000018002f740 f   ElectronicValueRWImpl.obj
 0001:0002e7a0       ?get_CheckHealthText@COPOSElectronicValueRW@@UEAAJPEAPEA_W@Z 000000018002f7a0 f   ElectronicValueRWImpl.obj
 0001:0002e800       ?get_Claimed@COPOSElectronicValueRW@@UEAAJPEAF@Z 000000018002f800 f   ElectronicValueRWImpl.obj
 0001:0002e860       ?get_DataCount@COPOSElectronicValueRW@@UEAAJPEAJ@Z 000000018002f860 f   ElectronicValueRWImpl.obj
 0001:0002e8c0       ?get_DataEventEnabled@COPOSElectronicValueRW@@UEAAJPEAF@Z 000000018002f8c0 f   ElectronicValueRWImpl.obj
 0001:0002e920       ?put_DataEventEnabled@COPOSElectronicValueRW@@UEAAJF@Z 000000018002f920 f   ElectronicValueRWImpl.obj
 0001:0002e980       ?get_DeviceEnabled@COPOSElectronicValueRW@@UEAAJPEAF@Z 000000018002f980 f   ElectronicValueRWImpl.obj
 0001:0002e9e0       ?put_DeviceEnabled@COPOSElectronicValueRW@@UEAAJF@Z 000000018002f9e0 f   ElectronicValueRWImpl.obj
 0001:0002ea40       ?get_FreezeEvents@COPOSElectronicValueRW@@UEAAJPEAF@Z 000000018002fa40 f   ElectronicValueRWImpl.obj
 0001:0002eaa0       ?put_FreezeEvents@COPOSElectronicValueRW@@UEAAJF@Z 000000018002faa0 f   ElectronicValueRWImpl.obj
 0001:0002eb80       ?get_OutputID@COPOSElectronicValueRW@@UEAAJPEAJ@Z 000000018002fb80 f   ElectronicValueRWImpl.obj
 0001:0002ebe0       ?get_PowerNotify@COPOSElectronicValueRW@@UEAAJPEAJ@Z 000000018002fbe0 f   ElectronicValueRWImpl.obj
 0001:0002ec40       ?put_PowerNotify@COPOSElectronicValueRW@@UEAAJJ@Z 000000018002fc40 f   ElectronicValueRWImpl.obj
 0001:0002eca0       ?get_PowerState@COPOSElectronicValueRW@@UEAAJPEAJ@Z 000000018002fca0 f   ElectronicValueRWImpl.obj
 0001:0002ed00       ?get_ResultCode@COPOSElectronicValueRW@@UEAAJPEAJ@Z 000000018002fd00 f   ElectronicValueRWImpl.obj
 0001:0002edd0       ?get_ResultCodeExtended@COPOSElectronicValueRW@@UEAAJPEAJ@Z 000000018002fdd0 f   ElectronicValueRWImpl.obj
 0001:0002ee30       ?get_State@COPOSElectronicValueRW@@UEAAJPEAJ@Z 000000018002fe30 f   ElectronicValueRWImpl.obj
 0001:0002eec0       ?get_ControlObjectDescription@COPOSElectronicValueRW@@UEAAJPEAPEA_W@Z 000000018002fec0 f   ElectronicValueRWImpl.obj
 0001:0002ef40       ?get_ControlObjectVersion@COPOSElectronicValueRW@@UEAAJPEAJ@Z 000000018002ff40 f   ElectronicValueRWImpl.obj
 0001:0002efa0       ?get_ServiceObjectDescription@COPOSElectronicValueRW@@UEAAJPEAPEA_W@Z 000000018002ffa0 f   ElectronicValueRWImpl.obj
 0001:0002f000       ?get_ServiceObjectVersion@COPOSElectronicValueRW@@UEAAJPEAJ@Z 0000000180030000 f   ElectronicValueRWImpl.obj
 0001:0002f060       ?get_DeviceDescription@COPOSElectronicValueRW@@UEAAJPEAPEA_W@Z 0000000180030060 f   ElectronicValueRWImpl.obj
 0001:0002f0c0       ?get_DeviceName@COPOSElectronicValueRW@@UEAAJPEAPEA_W@Z 00000001800300c0 f   ElectronicValueRWImpl.obj
 0001:0002f120       ?get_CapStatisticsReporting@COPOSElectronicValueRW@@UEAAJPEAF@Z 0000000180030120 f   ElectronicValueRWImpl.obj
 0001:0002f180       ?get_CapUpdateStatistics@COPOSElectronicValueRW@@UEAAJPEAF@Z 0000000180030180 f   ElectronicValueRWImpl.obj
 0001:0002f1e0       ?get_CapCompareFirmwareVersion@COPOSElectronicValueRW@@UEAAJPEAF@Z 00000001800301e0 f   ElectronicValueRWImpl.obj
 0001:0002f240       ?get_CapUpdateFirmware@COPOSElectronicValueRW@@UEAAJPEAF@Z 0000000180030240 f   ElectronicValueRWImpl.obj
 0001:0002f2a0       ?CheckHealth@COPOSElectronicValueRW@@UEAAJJPEAJ@Z 00000001800302a0 f   ElectronicValueRWImpl.obj
 0001:0002f360       ?ClaimDevice@COPOSElectronicValueRW@@UEAAJJPEAJ@Z 0000000180030360 f   ElectronicValueRWImpl.obj
 0001:0002f480       ?ClearInput@COPOSElectronicValueRW@@UEAAJPEAJ@Z 0000000180030480 f   ElectronicValueRWImpl.obj
 0001:0002f4f0       ?ClearOutput@COPOSElectronicValueRW@@UEAAJPEAJ@Z 00000001800304f0 f   ElectronicValueRWImpl.obj
 0001:0002f560       ?Close@COPOSElectronicValueRW@@UEAAJPEAJ@Z 0000000180030560 f   ElectronicValueRWImpl.obj
 0001:0002f670       ?DirectIO@COPOSElectronicValueRW@@UEAAJJPEAJPEAPEA_W0@Z 0000000180030670 f   ElectronicValueRWImpl.obj
 0001:0002f7f0       ?Open@COPOSElectronicValueRW@@UEAAJPEA_WPEAJ@Z 00000001800307f0 f   ElectronicValueRWImpl.obj
 0001:00030cf0       ?ReleaseDevice@COPOSElectronicValueRW@@UEAAJPEAJ@Z 0000000180031cf0 f   ElectronicValueRWImpl.obj
 0001:00030da0       ?ResetStatistics@COPOSElectronicValueRW@@UEAAJPEA_WPEAJ@Z 0000000180031da0 f   ElectronicValueRWImpl.obj
 0001:00030e80       ?RetrieveStatistics@COPOSElectronicValueRW@@UEAAJPEAPEA_WPEAJ@Z 0000000180031e80 f   ElectronicValueRWImpl.obj
 0001:00030f60       ?UpdateStatistics@COPOSElectronicValueRW@@UEAAJPEA_WPEAJ@Z 0000000180031f60 f   ElectronicValueRWImpl.obj
 0001:00031040       ?CompareFirmwareVersion@COPOSElectronicValueRW@@UEAAJPEA_WPEAJ1@Z 0000000180032040 f   ElectronicValueRWImpl.obj
 0001:00031180       ?UpdateFirmware@COPOSElectronicValueRW@@UEAAJPEA_WPEAJ@Z 0000000180032180 f   ElectronicValueRWImpl.obj
 0001:00031260       ?ClearInputProperties@COPOSElectronicValueRW@@UEAAJPEAJ@Z 0000000180032260 f   ElectronicValueRWImpl.obj
 0001:000312d0       ?get_AccountNumber@COPOSElectronicValueRW@@UEAAJPEAPEA_W@Z 00000001800322d0 f   ElectronicValueRWImpl.obj
 0001:00031330       ?get_AdditionalSecurityInformation@COPOSElectronicValueRW@@UEAAJPEAPEA_W@Z 0000000180032330 f   ElectronicValueRWImpl.obj
 0001:00031390       ?put_AdditionalSecurityInformation@COPOSElectronicValueRW@@UEAAJPEA_W@Z 0000000180032390 f   ElectronicValueRWImpl.obj
 0001:000313f0       ?get_Amount@COPOSElectronicValueRW@@UEAAJPEATtagCY@@@Z 00000001800323f0 f   ElectronicValueRWImpl.obj
 0001:00031640       ?put_Amount@COPOSElectronicValueRW@@UEAAJTtagCY@@@Z 0000000180032640 f   ElectronicValueRWImpl.obj
 0001:000318b0       ?get_ApprovalCode@COPOSElectronicValueRW@@UEAAJPEAPEA_W@Z 00000001800328b0 f   ElectronicValueRWImpl.obj
 0001:00031910       ?put_ApprovalCode@COPOSElectronicValueRW@@UEAAJPEA_W@Z 0000000180032910 f   ElectronicValueRWImpl.obj
 0001:00031970       ?get_AsyncMode@COPOSElectronicValueRW@@UEAAJPEAF@Z 0000000180032970 f   ElectronicValueRWImpl.obj
 0001:000319d0       ?put_AsyncMode@COPOSElectronicValueRW@@UEAAJF@Z 00000001800329d0 f   ElectronicValueRWImpl.obj
 0001:00031a30       ?get_Balance@COPOSElectronicValueRW@@UEAAJPEATtagCY@@@Z 0000000180032a30 f   ElectronicValueRWImpl.obj
 0001:00031c80       ?get_BalanceOfPoint@COPOSElectronicValueRW@@UEAAJPEATtagCY@@@Z 0000000180032c80 f   ElectronicValueRWImpl.obj
 0001:00031ed0       ?get_CapActivateService@COPOSElectronicValueRW@@UEAAJPEAF@Z 0000000180032ed0 f   ElectronicValueRWImpl.obj
 0001:00031f30       ?get_CapAddValue@COPOSElectronicValueRW@@UEAAJPEAF@Z 0000000180032f30 f   ElectronicValueRWImpl.obj
 0001:00031f90       ?get_CapCancelValue@COPOSElectronicValueRW@@UEAAJPEAF@Z 0000000180032f90 f   ElectronicValueRWImpl.obj
 0001:00031ff0       ?get_CapCardSensor@COPOSElectronicValueRW@@UEAAJPEAJ@Z 0000000180032ff0 f   ElectronicValueRWImpl.obj
 0001:00032050       ?get_CapDetectionControl@COPOSElectronicValueRW@@UEAAJPEAJ@Z 0000000180033050 f   ElectronicValueRWImpl.obj
 0001:000320b0       ?get_CapElectronicMoney@COPOSElectronicValueRW@@UEAAJPEAF@Z 00000001800330b0 f   ElectronicValueRWImpl.obj
 0001:00032110       ?get_CapEnumerateCardServices@COPOSElectronicValueRW@@UEAAJPEAF@Z 0000000180033110 f   ElectronicValueRWImpl.obj
 0001:00032170       ?get_CapIndirectTransactionLog@COPOSElectronicValueRW@@UEAAJPEAF@Z 0000000180033170 f   ElectronicValueRWImpl.obj
 0001:000321d0       ?get_CapLockTerminal@COPOSElectronicValueRW@@UEAAJPEAF@Z 00000001800331d0 f   ElectronicValueRWImpl.obj
 0001:00032230       ?get_CapLogStatus@COPOSElectronicValueRW@@UEAAJPEAF@Z 0000000180033230 f   ElectronicValueRWImpl.obj
 0001:00032290       ?get_CapMediumID@COPOSElectronicValueRW@@UEAAJPEAF@Z 0000000180033290 f   ElectronicValueRWImpl.obj
 0001:000322f0       ?get_CapPoint@COPOSElectronicValueRW@@UEAAJPEAF@Z 00000001800332f0 f   ElectronicValueRWImpl.obj
 0001:00032350       ?get_CapSubtractValue@COPOSElectronicValueRW@@UEAAJPEAF@Z 0000000180033350 f   ElectronicValueRWImpl.obj
 0001:000323b0       ?get_CapTransaction@COPOSElectronicValueRW@@UEAAJPEAF@Z 00000001800333b0 f   ElectronicValueRWImpl.obj
 0001:00032410       ?get_CapTransactionLog@COPOSElectronicValueRW@@UEAAJPEAF@Z 0000000180033410 f   ElectronicValueRWImpl.obj
 0001:00032470       ?get_CapUnlockTerminal@COPOSElectronicValueRW@@UEAAJPEAF@Z 0000000180033470 f   ElectronicValueRWImpl.obj
 0001:000324d0       ?get_CapUpdateKey@COPOSElectronicValueRW@@UEAAJPEAF@Z 00000001800334d0 f   ElectronicValueRWImpl.obj
 0001:00032530       ?get_CapVoucher@COPOSElectronicValueRW@@UEAAJPEAF@Z 0000000180033530 f   ElectronicValueRWImpl.obj
 0001:00032590       ?get_CapWriteValue@COPOSElectronicValueRW@@UEAAJPEAF@Z 0000000180033590 f   ElectronicValueRWImpl.obj
 0001:000325f0       ?get_CardServiceList@COPOSElectronicValueRW@@UEAAJPEAPEA_W@Z 00000001800335f0 f   ElectronicValueRWImpl.obj
 0001:00032650       ?get_CurrentService@COPOSElectronicValueRW@@UEAAJPEAPEA_W@Z 0000000180033650 f   ElectronicValueRWImpl.obj
 0001:000326b0       ?put_CurrentService@COPOSElectronicValueRW@@UEAAJPEA_W@Z 00000001800336b0 f   ElectronicValueRWImpl.obj
 0001:00032710       ?get_DetectionControl@COPOSElectronicValueRW@@UEAAJPEAF@Z 0000000180033710 f   ElectronicValueRWImpl.obj
 0001:00032770       ?put_DetectionControl@COPOSElectronicValueRW@@UEAAJF@Z 0000000180033770 f   ElectronicValueRWImpl.obj
 0001:000327d0       ?get_DetectionStatus@COPOSElectronicValueRW@@UEAAJPEAJ@Z 00000001800337d0 f   ElectronicValueRWImpl.obj
 0001:00032830       ?get_ExpirationDate@COPOSElectronicValueRW@@UEAAJPEAPEA_W@Z 0000000180033830 f   ElectronicValueRWImpl.obj
 0001:00032890       ?get_LastUsedDate@COPOSElectronicValueRW@@UEAAJPEAPEA_W@Z 0000000180033890 f   ElectronicValueRWImpl.obj
 0001:000328f0       ?get_LogStatus@COPOSElectronicValueRW@@UEAAJPEAJ@Z 00000001800338f0 f   ElectronicValueRWImpl.obj
 0001:00032950       ?get_MediumID@COPOSElectronicValueRW@@UEAAJPEAPEA_W@Z 0000000180033950 f   ElectronicValueRWImpl.obj
 0001:000329b0       ?put_MediumID@COPOSElectronicValueRW@@UEAAJPEA_W@Z 00000001800339b0 f   ElectronicValueRWImpl.obj
 0001:00032a10       ?get_Point@COPOSElectronicValueRW@@UEAAJPEATtagCY@@@Z 0000000180033a10 f   ElectronicValueRWImpl.obj
 0001:00032c60       ?put_Point@COPOSElectronicValueRW@@UEAAJTtagCY@@@Z 0000000180033c60 f   ElectronicValueRWImpl.obj
 0001:00032ed0       ?get_ReaderWriterServiceList@COPOSElectronicValueRW@@UEAAJPEAPEA_W@Z 0000000180033ed0 f   ElectronicValueRWImpl.obj
 0001:00032f30       ?get_SequenceNumber@COPOSElectronicValueRW@@UEAAJPEAJ@Z 0000000180033f30 f   ElectronicValueRWImpl.obj
 0001:00032f90       ?get_SettledAmount@COPOSElectronicValueRW@@UEAAJPEATtagCY@@@Z 0000000180033f90 f   ElectronicValueRWImpl.obj
 0001:000331e0       ?get_SettledPoint@COPOSElectronicValueRW@@UEAAJPEATtagCY@@@Z 00000001800341e0 f   ElectronicValueRWImpl.obj
 0001:00033430       ?get_TransactionLog@COPOSElectronicValueRW@@UEAAJPEAPEA_W@Z 0000000180034430 f   ElectronicValueRWImpl.obj
 0001:00033490       ?get_VoucherID@COPOSElectronicValueRW@@UEAAJPEAPEA_W@Z 0000000180034490 f   ElectronicValueRWImpl.obj
 0001:000334f0       ?put_VoucherID@COPOSElectronicValueRW@@UEAAJPEA_W@Z 00000001800344f0 f   ElectronicValueRWImpl.obj
 0001:00033550       ?get_VoucherIDList@COPOSElectronicValueRW@@UEAAJPEAPEA_W@Z 0000000180034550 f   ElectronicValueRWImpl.obj
 0001:000335b0       ?put_VoucherIDList@COPOSElectronicValueRW@@UEAAJPEA_W@Z 00000001800345b0 f   ElectronicValueRWImpl.obj
 0001:00033610       ?AccessLog@COPOSElectronicValueRW@@UEAAJJJJPEAJ@Z 0000000180034610 f   ElectronicValueRWImpl.obj
 0001:00033770       ?ActivateService@COPOSElectronicValueRW@@UEAAJPEAJPEAPEA_W0@Z 0000000180034770 f   ElectronicValueRWImpl.obj
 0001:000338b0       ?AddValue@COPOSElectronicValueRW@@UEAAJJJPEAJ@Z 00000001800348b0 f   ElectronicValueRWImpl.obj
 0001:000339d0       ?BeginDetection@COPOSElectronicValueRW@@UEAAJJJPEAJ@Z 00000001800349d0 f   ElectronicValueRWImpl.obj
 0001:00033af0       ?BeginRemoval@COPOSElectronicValueRW@@UEAAJJPEAJ@Z 0000000180034af0 f   ElectronicValueRWImpl.obj
 0001:00033bb0       ?CancelValue@COPOSElectronicValueRW@@UEAAJJJPEAJ@Z 0000000180034bb0 f   ElectronicValueRWImpl.obj
 0001:00033cd0       ?CaptureCard@COPOSElectronicValueRW@@UEAAJPEAJ@Z 0000000180034cd0 f   ElectronicValueRWImpl.obj
 0001:00033d40       ?EndDetection@COPOSElectronicValueRW@@UEAAJPEAJ@Z 0000000180034d40 f   ElectronicValueRWImpl.obj
 0001:00033db0       ?EndRemoval@COPOSElectronicValueRW@@UEAAJPEAJ@Z 0000000180034db0 f   ElectronicValueRWImpl.obj
 0001:00033e20       ?EnumerateCardServices@COPOSElectronicValueRW@@UEAAJPEAJ@Z 0000000180034e20 f   ElectronicValueRWImpl.obj
 0001:00033e90       ?LockTerminal@COPOSElectronicValueRW@@UEAAJPEAJ@Z 0000000180034e90 f   ElectronicValueRWImpl.obj
 0001:00033f00       ?ReadValue@COPOSElectronicValueRW@@UEAAJJJPEAJ@Z 0000000180034f00 f   ElectronicValueRWImpl.obj
 0001:00034020       ?SubtractValue@COPOSElectronicValueRW@@UEAAJJJPEAJ@Z 0000000180035020 f   ElectronicValueRWImpl.obj
 0001:00034140       ?TransactionAccess@COPOSElectronicValueRW@@UEAAJJPEAJ@Z 0000000180035140 f   ElectronicValueRWImpl.obj
 0001:00034200       ?UnlockTerminal@COPOSElectronicValueRW@@UEAAJPEAJ@Z 0000000180035200 f   ElectronicValueRWImpl.obj
 0001:00034270       ?UpdateKey@COPOSElectronicValueRW@@UEAAJPEAJPEAPEA_W0@Z 0000000180035270 f   ElectronicValueRWImpl.obj
 0001:000343b0       ?WriteValue@COPOSElectronicValueRW@@UEAAJJJPEAJ@Z 00000001800353b0 f   ElectronicValueRWImpl.obj
 0001:000344d0       ?get_CapPINDevice@COPOSElectronicValueRW@@UEAAJPEAF@Z 00000001800354d0 f   ElectronicValueRWImpl.obj
 0001:00034530       ?get_CapTrainingMode@COPOSElectronicValueRW@@UEAAJPEAF@Z 0000000180035530 f   ElectronicValueRWImpl.obj
 0001:00034590       ?get_PINEntry@COPOSElectronicValueRW@@UEAAJPEAJ@Z 0000000180035590 f   ElectronicValueRWImpl.obj
 0001:000345f0       ?put_PINEntry@COPOSElectronicValueRW@@UEAAJJ@Z 00000001800355f0 f   ElectronicValueRWImpl.obj
 0001:00034650       ?get_TrainingModeState@COPOSElectronicValueRW@@UEAAJPEAJ@Z 0000000180035650 f   ElectronicValueRWImpl.obj
 0001:000346b0       ?put_TrainingModeState@COPOSElectronicValueRW@@UEAAJJ@Z 00000001800356b0 f   ElectronicValueRWImpl.obj
 0001:00034710       ?ClearParameterInformation@COPOSElectronicValueRW@@UEAAJPEAJ@Z 0000000180035710 f   ElectronicValueRWImpl.obj
 0001:00034780       ?QueryLastSuccessfulTransactionResult@COPOSElectronicValueRW@@UEAAJPEAJ@Z 0000000180035780 f   ElectronicValueRWImpl.obj
 0001:000347f0       ?RetrieveResultInformation@COPOSElectronicValueRW@@UEAAJPEA_WPEAPEA_WPEAJ@Z 00000001800357f0 f   ElectronicValueRWImpl.obj
 0001:00034930       ?SetParameterInformation@COPOSElectronicValueRW@@UEAAJPEA_W0PEAJ@Z 0000000180035930 f   ElectronicValueRWImpl.obj
 0001:00034a70       ?get_CapMembershipCertificate@COPOSElectronicValueRW@@UEAAJPEAF@Z 0000000180035a70 f   ElectronicValueRWImpl.obj
 0001:00034ad0       ?get_ServiceType@COPOSElectronicValueRW@@UEAAJPEAJ@Z 0000000180035ad0 f   ElectronicValueRWImpl.obj
 0001:00034b30       ?AccessData@COPOSElectronicValueRW@@UEAAJJPEAJPEAPEA_W0@Z 0000000180035b30 f   ElectronicValueRWImpl.obj
 0001:00034cb0       ?ActivateEVService@COPOSElectronicValueRW@@UEAAJPEAJPEAPEA_W0@Z 0000000180035cb0 f   ElectronicValueRWImpl.obj
 0001:00034df0       ?CheckServiceRegistrationToMedium@COPOSElectronicValueRW@@UEAAJJJPEAJ@Z 0000000180035df0 f   ElectronicValueRWImpl.obj
 0001:00034f10       ?CloseDailyEVService@COPOSElectronicValueRW@@UEAAJPEAJPEAPEA_W0@Z 0000000180035f10 f   ElectronicValueRWImpl.obj
 0001:00035050       ?DeactivateEVService@COPOSElectronicValueRW@@UEAAJPEAJPEAPEA_W0@Z 0000000180036050 f   ElectronicValueRWImpl.obj
 0001:00035190       ?OpenDailyEVService@COPOSElectronicValueRW@@UEAAJPEAJPEAPEA_W0@Z 0000000180036190 f   ElectronicValueRWImpl.obj
 0001:000352d0       ?RegisterServiceToMedium@COPOSElectronicValueRW@@UEAAJJJPEAJ@Z 00000001800362d0 f   ElectronicValueRWImpl.obj
 0001:000353f0       ?UnregisterServiceToMedium@COPOSElectronicValueRW@@UEAAJJJPEAJ@Z 00000001800363f0 f   ElectronicValueRWImpl.obj
 0001:00035510       ?UpdateData@COPOSElectronicValueRW@@UEAAJJPEAJPEAPEA_W0@Z 0000000180036510 f   ElectronicValueRWImpl.obj
 0001:00035690       ?get_CapAdditionalSecurityInformation@COPOSElectronicValueRW@@UEAAJPEAF@Z 0000000180036690 f   ElectronicValueRWImpl.obj
 0001:000356f0       ?get_CapAuthorizeCompletion@COPOSElectronicValueRW@@UEAAJPEAF@Z 00000001800366f0 f   ElectronicValueRWImpl.obj
 0001:00035750       ?get_CapAuthorizePreSales@COPOSElectronicValueRW@@UEAAJPEAF@Z 0000000180036750 f   ElectronicValueRWImpl.obj
 0001:000357b0       ?get_CapAuthorizeRefund@COPOSElectronicValueRW@@UEAAJPEAF@Z 00000001800367b0 f   ElectronicValueRWImpl.obj
 0001:00035810       ?get_CapAuthorizeVoid@COPOSElectronicValueRW@@UEAAJPEAF@Z 0000000180036810 f   ElectronicValueRWImpl.obj
 0001:00035870       ?get_CapAuthorizeVoidPreSales@COPOSElectronicValueRW@@UEAAJPEAF@Z 0000000180036870 f   ElectronicValueRWImpl.obj
 0001:000358d0       ?get_CapCashDeposit@COPOSElectronicValueRW@@UEAAJPEAF@Z 00000001800368d0 f   ElectronicValueRWImpl.obj
 0001:00035930       ?get_CapCenterResultCode@COPOSElectronicValueRW@@UEAAJPEAF@Z 0000000180036930 f   ElectronicValueRWImpl.obj
 0001:00035990       ?get_CapCheckCard@COPOSElectronicValueRW@@UEAAJPEAF@Z 0000000180036990 f   ElectronicValueRWImpl.obj
 0001:000359f0       ?get_CapDailyLog@COPOSElectronicValueRW@@UEAAJPEAJ@Z 00000001800369f0 f   ElectronicValueRWImpl.obj
 0001:00035a50       ?get_CapInstallments@COPOSElectronicValueRW@@UEAAJPEAF@Z 0000000180036a50 f   ElectronicValueRWImpl.obj
 0001:00035ab0       ?get_CapPaymentDetail@COPOSElectronicValueRW@@UEAAJPEAF@Z 0000000180036ab0 f   ElectronicValueRWImpl.obj
 0001:00035b10       ?get_CapTaxOthers@COPOSElectronicValueRW@@UEAAJPEAF@Z 0000000180036b10 f   ElectronicValueRWImpl.obj
 0001:00035b70       ?get_CapTransactionNumber@COPOSElectronicValueRW@@UEAAJPEAF@Z 0000000180036b70 f   ElectronicValueRWImpl.obj
 0001:00035bd0       ?get_CardCompanyID@COPOSElectronicValueRW@@UEAAJPEAPEA_W@Z 0000000180036bd0 f   ElectronicValueRWImpl.obj
 0001:00035c30       ?get_CenterResultCode@COPOSElectronicValueRW@@UEAAJPEAPEA_W@Z 0000000180036c30 f   ElectronicValueRWImpl.obj
 0001:00035c90       ?get_DailyLog@COPOSElectronicValueRW@@UEAAJPEAPEA_W@Z 0000000180036c90 f   ElectronicValueRWImpl.obj
 0001:00035cf0       ?get_PaymentCondition@COPOSElectronicValueRW@@UEAAJPEAJ@Z 0000000180036cf0 f   ElectronicValueRWImpl.obj
 0001:00035d50       ?get_PaymentDetail@COPOSElectronicValueRW@@UEAAJPEAPEA_W@Z 0000000180036d50 f   ElectronicValueRWImpl.obj
 0001:00035db0       ?get_SlipNumber@COPOSElectronicValueRW@@UEAAJPEAPEA_W@Z 0000000180036db0 f   ElectronicValueRWImpl.obj
 0001:00035e10       ?get_PaymentMedia@COPOSElectronicValueRW@@UEAAJPEAJ@Z 0000000180036e10 f   ElectronicValueRWImpl.obj
 0001:00035e70       ?put_PaymentMedia@COPOSElectronicValueRW@@UEAAJJ@Z 0000000180036e70 f   ElectronicValueRWImpl.obj
 0001:00035ed0       ?get_TransactionNumber@COPOSElectronicValueRW@@UEAAJPEAPEA_W@Z 0000000180036ed0 f   ElectronicValueRWImpl.obj
 0001:00035f30       ?get_TransactionType@COPOSElectronicValueRW@@UEAAJPEAJ@Z 0000000180036f30 f   ElectronicValueRWImpl.obj
 0001:00035f90       ?AccessDailyLog@COPOSElectronicValueRW@@UEAAJJJJPEAJ@Z 0000000180036f90 f   ElectronicValueRWImpl.obj
 0001:000360f0       ?AuthorizeCompletion@COPOSElectronicValueRW@@UEAAJJTtagCY@@0JPEAJ@Z 00000001800370f0 f   ElectronicValueRWImpl.obj
 0001:00036260       ?AuthorizePreSales@COPOSElectronicValueRW@@UEAAJJTtagCY@@0JPEAJ@Z 0000000180037260 f   ElectronicValueRWImpl.obj
 0001:000363d0       ?AuthorizeRefund@COPOSElectronicValueRW@@UEAAJJTtagCY@@0JPEAJ@Z 00000001800373d0 f   ElectronicValueRWImpl.obj
 0001:00036540       ?AuthorizeSales@COPOSElectronicValueRW@@UEAAJJTtagCY@@0JPEAJ@Z 0000000180037540 f   ElectronicValueRWImpl.obj
 0001:000366b0       ?AuthorizeVoid@COPOSElectronicValueRW@@UEAAJJTtagCY@@0JPEAJ@Z 00000001800376b0 f   ElectronicValueRWImpl.obj
 0001:00036820       ?AuthorizeVoidPreSales@COPOSElectronicValueRW@@UEAAJJTtagCY@@0JPEAJ@Z 0000000180037820 f   ElectronicValueRWImpl.obj
 0001:00036990       ?CashDeposit@COPOSElectronicValueRW@@UEAAJJTtagCY@@JPEAJ@Z 0000000180037990 f   ElectronicValueRWImpl.obj
 0001:00036af0       ?CheckCard@COPOSElectronicValueRW@@UEAAJJJPEAJ@Z 0000000180037af0 f   ElectronicValueRWImpl.obj
 0001:00036c00       ??0?$CComControl@VCOPOSElectronicValueRW@@V?$CWindowImpl@VCOPOSElectronicValueRW@@VCWindow@ATL@@V?$CWinTraits@$0FGAAAAAA@$0A@@3@@ATL@@@ATL@@QEAA@XZ 0000000180037c00 f i ElectronicValueRWImpl.obj
 0001:00036c50       ??0?$CComPtr@UIAdviseSink@@@ATL@@QEAA@XZ 0000000180037c50 f i ElectronicValueRWImpl.obj
 0001:00036c90       ??0?$CComPtr@UIDataAdviseHolder@@@ATL@@QEAA@XZ 0000000180037c90 f i ElectronicValueRWImpl.obj
 0001:00036cd0       ??0?$CComPtr@UIOleAdviseHolder@@@ATL@@QEAA@XZ 0000000180037cd0 f i ElectronicValueRWImpl.obj
 0001:00036d10       ??0?$CComPtr@UIOleClientSite@@@ATL@@QEAA@XZ 0000000180037d10 f i ElectronicValueRWImpl.obj
 0001:00036d50       ??0?$CComPtr@UIOleInPlaceSiteWindowless@@@ATL@@QEAA@XZ 0000000180037d50 f i ElectronicValueRWImpl.obj
 0001:00036d90       ??0?$CComPtrBase@UIAdviseSink@@@ATL@@IEAA@XZ 0000000180037d90 f i ElectronicValueRWImpl.obj
 0001:00036db0       ??0?$CComPtrBase@UIDataAdviseHolder@@@ATL@@IEAA@XZ 0000000180037db0 f i ElectronicValueRWImpl.obj
 0001:00036dd0       ??0?$CComPtrBase@UIOleAdviseHolder@@@ATL@@IEAA@XZ 0000000180037dd0 f i ElectronicValueRWImpl.obj
 0001:00036df0       ??0?$CComPtrBase@UIOleClientSite@@@ATL@@IEAA@XZ 0000000180037df0 f i ElectronicValueRWImpl.obj
 0001:00036e10       ??0?$CComPtrBase@UIOleInPlaceSiteWindowless@@@ATL@@IEAA@XZ 0000000180037e10 f i ElectronicValueRWImpl.obj
 0001:00036e30       ??0?$CComQIPtr@UIDispatch@@$1?_GUID_00020400_0000_0000_c000_000000000046@@3U__s_GUID@@B@ATL@@QEAA@XZ 0000000180037e30 f i ElectronicValueRWImpl.obj
 0001:00036e70       ??0?$CProxy_IOPOSEvents@VCOPOSElectronicValueRW@@@@QEAA@PEAVCOPOSElectronicValueRW@@@Z 0000000180037e70 f i ElectronicValueRWImpl.obj
 0001:00036f10       ??0?$CWindowImpl@VCOPOSElectronicValueRW@@VCWindow@ATL@@V?$CWinTraits@$0FGAAAAAA@$0A@@3@@ATL@@QEAA@XZ 0000000180037f10 f i ElectronicValueRWImpl.obj
 0001:00036f50       ??0?$CWindowImplBaseT@VCWindow@ATL@@V?$CWinTraits@$0FGAAAAAA@$0A@@2@@ATL@@QEAA@XZ 0000000180037f50 f i ElectronicValueRWImpl.obj
 0001:00036fa0       ??0?$CWindowImplRoot@VCWindow@ATL@@@ATL@@QEAA@XZ 0000000180037fa0 f i ElectronicValueRWImpl.obj
 0001:00037010       ??0?$IConnectionPointContainerImpl@VCOPOSElectronicValueRW@@@ATL@@QEAA@XZ 0000000180038010 f i ElectronicValueRWImpl.obj
 0001:00037050       ??0?$IConnectionPointImpl@VCOPOSElectronicValueRW@@$1?DIID__IOPOSElectronicValueRWEvents@@3U_GUID@@BVCComDynamicUnkArray@ATL@@@ATL@@QEAA@XZ 0000000180038050 f i ElectronicValueRWImpl.obj
 0001:000370a0       ??0?$IConnectionPointImpl@VCOPOSElectronicValueRW@@$1?IID_IPropertyNotifySink@@3U_GUID@@BVCComDynamicUnkArray@ATL@@@ATL@@QEAA@XZ 00000001800380a0 f i ElectronicValueRWImpl.obj
 0001:000370f0       ??0?$IDataObjectImpl@VCOPOSElectronicValueRW@@@ATL@@QEAA@XZ 00000001800380f0 f i ElectronicValueRWImpl.obj
 0001:00037130       ??0?$IDispatchImpl@UIOPOSElectronicValueRW@@$1?IID_IOPOSElectronicValueRW@@3U_GUID@@B$1?LIBID_OposElectronicValueRW_CCO@@3U3@B$00$0A@VCComTypeInfoHolder@ATL@@@ATL@@QEAA@XZ 0000000180038130 f i ElectronicValueRWImpl.obj
 0001:00037170       ??0?$IObjectSafetyImpl@VCOPOSElectronicValueRW@@$02@ATL@@QEAA@XZ 0000000180038170 f i ElectronicValueRWImpl.obj
 0001:000371b0       ??0?$IOleControlImpl@VCOPOSElectronicValueRW@@@ATL@@QEAA@XZ 00000001800381b0 f i ElectronicValueRWImpl.obj
 0001:000371f0       ??0?$IOleInPlaceActiveObjectImpl@VCOPOSElectronicValueRW@@@ATL@@QEAA@XZ 00000001800381f0 f i ElectronicValueRWImpl.obj
 0001:00037230       ??0?$IOleInPlaceObjectWindowlessImpl@VCOPOSElectronicValueRW@@@ATL@@QEAA@XZ 0000000180038230 f i ElectronicValueRWImpl.obj
 0001:00037270       ??0?$IOleObjectImpl@VCOPOSElectronicValueRW@@@ATL@@QEAA@XZ 0000000180038270 f i ElectronicValueRWImpl.obj
 0001:000372b0       ??0?$IPersistStorageImpl@VCOPOSElectronicValueRW@@@ATL@@QEAA@XZ 00000001800382b0 f i ElectronicValueRWImpl.obj
 0001:000372f0       ??0?$IPersistStreamInitImpl@VCOPOSElectronicValueRW@@@ATL@@QEAA@XZ 00000001800382f0 f i ElectronicValueRWImpl.obj
 0001:00037330       ??0?$IPropertyNotifySinkCP@VCOPOSElectronicValueRW@@VCComDynamicUnkArray@ATL@@@ATL@@QEAA@XZ 0000000180038330 f i ElectronicValueRWImpl.obj
 0001:00037370       ??0?$IProvideClassInfo2Impl@$1?CLSID_OPOSElectronicValueRW@@3U_GUID@@B$1?DIID__IOPOSElectronicValueRWEvents@@3U2@B$1?LIBID_OposElectronicValueRW_CCO@@3U2@B$00$0A@VCComTypeInfoHolder@ATL@@@ATL@@QEAA@XZ 0000000180038370 f i ElectronicValueRWImpl.obj
 0001:000373b0       ??0?$IQuickActivateImpl@VCOPOSElectronicValueRW@@@ATL@@QEAA@XZ 00000001800383b0 f i ElectronicValueRWImpl.obj
 0001:000373f0       ??0?$ISpecifyPropertyPagesImpl@VCOPOSElectronicValueRW@@@ATL@@QEAA@XZ 00000001800383f0 f i ElectronicValueRWImpl.obj
 0001:00037430       ??0?$IViewObjectExImpl@VCOPOSElectronicValueRW@@@ATL@@QEAA@XZ 0000000180038430 f i ElectronicValueRWImpl.obj
 0001:00037470       ??0?$_ICPLocator@$1?DIID__IOPOSElectronicValueRWEvents@@3U_GUID@@B@ATL@@QEAA@XZ 0000000180038470 f i ElectronicValueRWImpl.obj
 0001:00037480       ??0?$_ICPLocator@$1?IID_IPropertyNotifySink@@3U_GUID@@B@ATL@@QEAA@XZ 0000000180038480 f i ElectronicValueRWImpl.obj
 0001:00037490       ??0CComControlBase@ATL@@QEAA@AEAPEAUHWND__@@@Z 0000000180038490 f i ElectronicValueRWImpl.obj
 0001:000376b0       ??0CComDynamicUnkArray@ATL@@QEAA@XZ 00000001800386b0 f i ElectronicValueRWImpl.obj
 0001:000376e0       ??0CDynamicStdCallThunk2@ATL@@QEAA@XZ 00000001800386e0 f i ElectronicValueRWImpl.obj
 0001:00037700       ??0CMessageMap@ATL@@QEAA@XZ 0000000180038700 f i ElectronicValueRWImpl.obj
 0001:00037710       ??0CWindow@ATL@@QEAA@PEAUHWND__@@@Z 0000000180038710 f i ElectronicValueRWImpl.obj
 0001:00037730       ??0CWndProcThunk@ATL@@QEAA@XZ 0000000180038730 f i ElectronicValueRWImpl.obj
 0001:00037770       ??0IConnectionPointContainer@@QEAA@XZ 0000000180038770 f i ElectronicValueRWImpl.obj
 0001:000377b0       ??0IDataObject@@QEAA@XZ    00000001800387b0 f i ElectronicValueRWImpl.obj
 0001:000377f0       ??0IDispatch@@QEAA@XZ      00000001800387f0 f i ElectronicValueRWImpl.obj
 0001:00037830       ??0IOPOSElectronicValueRW@@QEAA@XZ 0000000180038830 f i ElectronicValueRWImpl.obj
 0001:00037870       ??0IOPOSElectronicValueRW_1_12@@QEAA@XZ 0000000180038870 f i ElectronicValueRWImpl.obj
 0001:000378b0       ??0IOPOSElectronicValueRW_1_14@@QEAA@XZ 00000001800388b0 f i ElectronicValueRWImpl.obj
 0001:000378f0       ??0IOPOSElectronicValueRW_1_14_100@@QEAA@XZ 00000001800388f0 f i ElectronicValueRWImpl.obj
 0001:00037930       ??0IOPOSElectronicValueRW_1_15@@QEAA@XZ 0000000180038930 f i ElectronicValueRWImpl.obj
 0001:00037970       ??0IObjectSafety@@QEAA@XZ  0000000180038970 f i ElectronicValueRWImpl.obj
 0001:000379b0       ??0IOleControl@@QEAA@XZ    00000001800389b0 f i ElectronicValueRWImpl.obj
 0001:000379f0       ??0IOleInPlaceActiveObject@@QEAA@XZ 00000001800389f0 f i ElectronicValueRWImpl.obj
 0001:00037a30       ??0IOleInPlaceObject@@QEAA@XZ 0000000180038a30 f i ElectronicValueRWImpl.obj
 0001:00037a70       ??0IOleInPlaceObjectWindowless@@QEAA@XZ 0000000180038a70 f i ElectronicValueRWImpl.obj
 0001:00037ab0       ??0IOleObject@@QEAA@XZ     0000000180038ab0 f i ElectronicValueRWImpl.obj
 0001:00037af0       ??0IOleWindow@@QEAA@XZ     0000000180038af0 f i ElectronicValueRWImpl.obj
 0001:00037b30       ??0IPersist@@QEAA@XZ       0000000180038b30 f i ElectronicValueRWImpl.obj
 0001:00037b70       ??0IPersistStorage@@QEAA@XZ 0000000180038b70 f i ElectronicValueRWImpl.obj
 0001:00037bb0       ??0IPersistStreamInit@@QEAA@XZ 0000000180038bb0 f i ElectronicValueRWImpl.obj
 0001:00037bf0       ??0IProvideClassInfo2@@QEAA@XZ 0000000180038bf0 f i ElectronicValueRWImpl.obj
 0001:00037c30       ??0IProvideClassInfo@@QEAA@XZ 0000000180038c30 f i ElectronicValueRWImpl.obj
 0001:00037c70       ??0IQuickActivate@@QEAA@XZ 0000000180038c70 f i ElectronicValueRWImpl.obj
 0001:00037cb0       ??0ISpecifyPropertyPages@@QEAA@XZ 0000000180038cb0 f i ElectronicValueRWImpl.obj
 0001:00037cf0       ??0IViewObject2@@QEAA@XZ   0000000180038cf0 f i ElectronicValueRWImpl.obj
 0001:00037d30       ??0IViewObject@@QEAA@XZ    0000000180038d30 f i ElectronicValueRWImpl.obj
 0001:00037d70       ??0IViewObjectEx@@QEAA@XZ  0000000180038d70 f i ElectronicValueRWImpl.obj
 0001:00037db0       ??0OposVariantResult@@QEAA@XZ 0000000180038db0 f i ElectronicValueRWImpl.obj
 0001:00037df0       ??0_CW@@QEAA@PEBD@Z        0000000180038df0 f i ElectronicValueRWImpl.obj
 0001:00037e40       ??0_CW@@QEAA@PEB_W@Z       0000000180038e40 f i ElectronicValueRWImpl.obj
 0001:00037e90       ??0_CWNCC@@QEAA@PEBD@Z     0000000180038e90 f i ElectronicValueRWImpl.obj
 0001:00037ed0       ??1?$CComControl@VCOPOSElectronicValueRW@@V?$CWindowImpl@VCOPOSElectronicValueRW@@VCWindow@ATL@@V?$CWinTraits@$0FGAAAAAA@$0A@@3@@ATL@@@ATL@@UEAA@XZ 0000000180038ed0 f i ElectronicValueRWImpl.obj
 0001:00037f10       ??1?$CComPtr@UIDataAdviseHolder@@@ATL@@QEAA@XZ 0000000180038f10 f i ElectronicValueRWImpl.obj
 0001:00037f40       ??1?$CComPtr@UIOleAdviseHolder@@@ATL@@QEAA@XZ 0000000180038f40 f i ElectronicValueRWImpl.obj
 0001:00037f70       ??1?$CComPtr@UIOleInPlaceSiteWindowless@@@ATL@@QEAA@XZ 0000000180038f70 f i ElectronicValueRWImpl.obj
 0001:00037fa0       ??1?$CComPtrBase@UIDataAdviseHolder@@@ATL@@QEAA@XZ 0000000180038fa0 f i ElectronicValueRWImpl.obj
 0001:00037ff0       ??1?$CComPtrBase@UIOleAdviseHolder@@@ATL@@QEAA@XZ 0000000180038ff0 f i ElectronicValueRWImpl.obj
 0001:00038040       ??1?$CComPtrBase@UIOleInPlaceSiteWindowless@@@ATL@@QEAA@XZ 0000000180039040 f i ElectronicValueRWImpl.obj
 0001:00038090       ??1?$CComQIPtr@UIDispatch@@$1?_GUID_00020400_0000_0000_c000_000000000046@@3U__s_GUID@@B@ATL@@QEAA@XZ 0000000180039090 f i ElectronicValueRWImpl.obj
 0001:000380c0       ??1?$CProxy_IOPOSEvents@VCOPOSElectronicValueRW@@@@QEAA@XZ 00000001800390c0 f i ElectronicValueRWImpl.obj
 0001:000380f0       ??1?$CWindowImpl@VCOPOSElectronicValueRW@@VCWindow@ATL@@V?$CWinTraits@$0FGAAAAAA@$0A@@3@@ATL@@UEAA@XZ 00000001800390f0 f i ElectronicValueRWImpl.obj
 0001:00038120       ??1?$CWindowImplBaseT@VCWindow@ATL@@V?$CWinTraits@$0FGAAAAAA@$0A@@2@@ATL@@UEAA@XZ 0000000180039120 f i ElectronicValueRWImpl.obj
 0001:00038150       ??1?$CWindowImplRoot@VCWindow@ATL@@@ATL@@UEAA@XZ 0000000180039150 f i ElectronicValueRWImpl.obj
 0001:00038210       ??1?$IConnectionPointImpl@VCOPOSElectronicValueRW@@$1?DIID__IOPOSElectronicValueRWEvents@@3U_GUID@@BVCComDynamicUnkArray@ATL@@@ATL@@QEAA@XZ 0000000180039210 f i ElectronicValueRWImpl.obj
 0001:000382b0       ??1?$IConnectionPointImpl@VCOPOSElectronicValueRW@@$1?IID_IPropertyNotifySink@@3U_GUID@@BVCComDynamicUnkArray@ATL@@@ATL@@QEAA@XZ 00000001800392b0 f i ElectronicValueRWImpl.obj
 0001:00038350       ??1?$IPropertyNotifySinkCP@VCOPOSElectronicValueRW@@VCComDynamicUnkArray@ATL@@@ATL@@QEAA@XZ 0000000180039350 f i ElectronicValueRWImpl.obj
 0001:00038380       ??1CComControlBase@ATL@@UEAA@XZ 0000000180039380 f i ElectronicValueRWImpl.obj
 0001:00038470       ??1CComDynamicUnkArray@ATL@@QEAA@XZ 0000000180039470 f i ElectronicValueRWImpl.obj
 0001:000384b0       ??1CDynamicStdCallThunk2@ATL@@QEAA@XZ 00000001800394b0 f i ElectronicValueRWImpl.obj
 0001:000384f0       ??1CWndProcThunk@ATL@@QEAA@XZ 00000001800394f0 f i ElectronicValueRWImpl.obj
 0001:00038530       ??1OposVariantResult@@QEAA@XZ 0000000180039530 f i ElectronicValueRWImpl.obj
 0001:00038570       ??1_CW@@QEAA@XZ            0000000180039570 f i ElectronicValueRWImpl.obj
 0001:000385f0       ??1_CWNCC@@QEAA@XZ         00000001800395f0 f i ElectronicValueRWImpl.obj
 0001:00038620       ??B_CW@@QEAAPEB_WXZ        0000000180039620 f i ElectronicValueRWImpl.obj
 0001:00038670       ??B_CWNCC@@QEAAPEA_WXZ     0000000180039670 f i ElectronicValueRWImpl.obj
 0001:000386a0       ??_EOposVariant@@QEAAPEAXI@Z 00000001800396a0 f i ElectronicValueRWImpl.obj
 0001:00038750       ?EventClaim@COPOSElectronicValueRW@@IEAAXXZ 0000000180039750 f i ElectronicValueRWImpl.obj
 0001:000387a0       ?EventClose@COPOSElectronicValueRW@@IEAAXXZ 00000001800397a0 f i ElectronicValueRWImpl.obj
 0001:00038840       ?EventInit@COPOSElectronicValueRW@@IEAAJXZ 0000000180039840 f i ElectronicValueRWImpl.obj
 0001:00038af0       ?EventOpen@COPOSElectronicValueRW@@IEAAXXZ 0000000180039af0 f i ElectronicValueRWImpl.obj
 0001:00038b30       ?EventPreCloseRelease@COPOSElectronicValueRW@@IEAAXXZ 0000000180039b30 f i ElectronicValueRWImpl.obj
 0001:00038bb0       ?EventUninit@COPOSElectronicValueRW@@IEAAXXZ 0000000180039bb0 f i ElectronicValueRWImpl.obj
 0001:00038ce0       ?EventWindowProc@COPOSElectronicValueRW@@IEAA_JI_K_J@Z 0000000180039ce0 f i ElectronicValueRWImpl.obj
 0001:00038f60       ?FireEventCleanup@COPOSElectronicValueRW@@IEAAXXZ 0000000180039f60 f i ElectronicValueRWImpl.obj
 0001:00038fb0       ?FireEventSetup@COPOSElectronicValueRW@@IEAA_NXZ 0000000180039fb0 f i ElectronicValueRWImpl.obj
 0001:00039030       ?GetModuleInstance@CComModule@ATL@@QEAAPEAUHINSTANCE__@@XZ 000000018003a030 f i ElectronicValueRWImpl.obj
 0001:00039040       ?SetRC@COPOSElectronicValueRW@@IEAAJJ@Z 000000018003a040 f i ElectronicValueRWImpl.obj
 0001:00039060       ?s_EventWindowProc@COPOSElectronicValueRW@@KA_JPEAUHWND__@@I_K_J@Z 000000018003a060 f i ElectronicValueRWImpl.obj
 0001:00039110       _snwprintf                 000000018003a110 f i ElectronicValueRWImpl.obj
 0001:000391a0       _vfwprintf_l               000000018003a1a0 f i ElectronicValueRWImpl.obj
 0001:00039200       _vsnwprintf                000000018003a200 f i ElectronicValueRWImpl.obj
 0001:00039260       _vsnwprintf_l              000000018003a260 f i ElectronicValueRWImpl.obj
 0001:000392f0       vfwprintf                  000000018003a2f0 f i ElectronicValueRWImpl.obj
 0001:00039335       DebugBreak                 000000018003a335 f   kernel32:KERNEL32.dll
 0001:0003933b       Sleep                      000000018003a33b f   kernel32:KERNEL32.dll
 0001:00039341       GetCurrentProcess          000000018003a341 f   kernel32:KERNEL32.dll
 0001:00039347       TerminateProcess           000000018003a347 f   kernel32:KERNEL32.dll
 0001:0003934d       MultiByteToWideChar        000000018003a34d f   kernel32:KERNEL32.dll
 0001:00039353       WideCharToMultiByte        000000018003a353 f   kernel32:KERNEL32.dll
 0001:00039359       DecodePointer              000000018003a359 f   kernel32:KERNEL32.dll
 0001:0003935f       RaiseException             000000018003a35f f   kernel32:KERNEL32.dll
 0001:00039365       GetLastError               000000018003a365 f   kernel32:KERNEL32.dll
 0001:0003936b       SetLastError               000000018003a36b f   kernel32:KERNEL32.dll
 0001:00039371       InitializeCriticalSectionEx 000000018003a371 f   kernel32:KERNEL32.dll
 0001:00039377       DeleteCriticalSection      000000018003a377 f   kernel32:KERNEL32.dll
 0001:0003937d       EncodePointer              000000018003a37d f   kernel32:KERNEL32.dll
 0001:00039383       EnterCriticalSection       000000018003a383 f   kernel32:KERNEL32.dll
 0001:00039389       LeaveCriticalSection       000000018003a389 f   kernel32:KERNEL32.dll
 0001:0003938f       ResetEvent                 000000018003a38f f   kernel32:KERNEL32.dll
 0001:00039395       ReleaseMutex               000000018003a395 f   kernel32:KERNEL32.dll
 0001:0003939b       WaitForSingleObject        000000018003a39b f   kernel32:KERNEL32.dll
 0001:000393a1       GetCurrentThreadId         000000018003a3a1 f   kernel32:KERNEL32.dll
 0001:000393a7       DisableThreadLibraryCalls  000000018003a3a7 f   kernel32:KERNEL32.dll
 0001:000393ad       FreeLibrary                000000018003a3ad f   kernel32:KERNEL32.dll
 0001:000393b3       GetModuleFileNameW         000000018003a3b3 f   kernel32:KERNEL32.dll
 0001:000393b9       GetModuleHandleW           000000018003a3b9 f   kernel32:KERNEL32.dll
 0001:000393bf       GetProcAddress             000000018003a3bf f   kernel32:KERNEL32.dll
 0001:000393c5       LoadLibraryExW             000000018003a3c5 f   kernel32:KERNEL32.dll
 0001:000393cb       LoadResource               000000018003a3cb f   kernel32:KERNEL32.dll
 0001:000393d1       SizeofResource             000000018003a3d1 f   kernel32:KERNEL32.dll
 0001:000393d7       FindResourceW              000000018003a3d7 f   kernel32:KERNEL32.dll
 0001:000393dd       GlobalAlloc                000000018003a3dd f   kernel32:KERNEL32.dll
 0001:000393e3       GlobalUnlock               000000018003a3e3 f   kernel32:KERNEL32.dll
 0001:000393e9       GlobalLock                 000000018003a3e9 f   kernel32:KERNEL32.dll
 0001:000393ef       MulDiv                     000000018003a3ef f   kernel32:KERNEL32.dll
 0001:000393f5       lstrcmpiW                  000000018003a3f5 f   kernel32:KERNEL32.dll
 0001:000393fb       DeleteFileW                000000018003a3fb f   kernel32:KERNEL32.dll
 0001:00039401       CloseHandle                000000018003a401 f   kernel32:KERNEL32.dll
 0001:00039407       SetEvent                   000000018003a407 f   kernel32:KERNEL32.dll
 0001:0003940d       CreateMutexW               000000018003a40d f   kernel32:KERNEL32.dll
 0001:00039413       CreateEventW               000000018003a413 f   kernel32:KERNEL32.dll
 0001:00039419       GetCurrentProcessId        000000018003a419 f   kernel32:KERNEL32.dll
 0001:0003941f       LocalFree                  000000018003a41f f   kernel32:KERNEL32.dll
 0001:00039425       FormatMessageW             000000018003a425 f   kernel32:KERNEL32.dll
 0001:0003942b       GetActiveWindow            000000018003a42b f   user32:USER32.dll
 0001:00039431       MessageBoxW                000000018003a431 f   user32:USER32.dll
 0001:00039437       UnregisterClassW           000000018003a437 f   user32:USER32.dll
 0001:0003943d       PostMessageW               000000018003a43d f   user32:USER32.dll
 0001:00039443       DefWindowProcW             000000018003a443 f   user32:USER32.dll
 0001:00039449       CallWindowProcW            000000018003a449 f   user32:USER32.dll
 0001:0003944f       RegisterClassExW           000000018003a44f f   user32:USER32.dll
 0001:00039455       GetClassInfoExW            000000018003a455 f   user32:USER32.dll
 0001:0003945b       CreateWindowExW            000000018003a45b f   user32:USER32.dll
 0001:00039461       IsWindow                   000000018003a461 f   user32:USER32.dll
 0001:00039467       IsChild                    000000018003a467 f   user32:USER32.dll
 0001:0003946d       DestroyWindow              000000018003a46d f   user32:USER32.dll
 0001:00039473       ShowWindow                 000000018003a473 f   user32:USER32.dll
 0001:00039479       SetWindowPos               000000018003a479 f   user32:USER32.dll
 0001:0003947f       CharNextW                  000000018003a47f f   user32:USER32.dll
 0001:00039485       SetFocus                   000000018003a485 f   user32:USER32.dll
 0001:0003948b       GetFocus                   000000018003a48b f   user32:USER32.dll
 0001:00039491       GetKeyState                000000018003a491 f   user32:USER32.dll
 0001:00039497       GetDC                      000000018003a497 f   user32:USER32.dll
 0001:0003949d       ReleaseDC                  000000018003a49d f   user32:USER32.dll
 0001:000394a3       BeginPaint                 000000018003a4a3 f   user32:USER32.dll
 0001:000394a9       EndPaint                   000000018003a4a9 f   user32:USER32.dll
 0001:000394af       SetWindowRgn               000000018003a4af f   user32:USER32.dll
 0001:000394b5       InvalidateRect             000000018003a4b5 f   user32:USER32.dll
 0001:000394bb       GetClientRect              000000018003a4bb f   user32:USER32.dll
 0001:000394c1       IntersectRect              000000018003a4c1 f   user32:USER32.dll
 0001:000394c7       UnionRect                  000000018003a4c7 f   user32:USER32.dll
 0001:000394cd       OffsetRect                 000000018003a4cd f   user32:USER32.dll
 0001:000394d3       EqualRect                  000000018003a4d3 f   user32:USER32.dll
 0001:000394d9       PtInRect                   000000018003a4d9 f   user32:USER32.dll
 0001:000394df       GetWindowLongPtrW          000000018003a4df f   user32:USER32.dll
 0001:000394e5       SetWindowLongPtrW          000000018003a4e5 f   user32:USER32.dll
 0001:000394eb       GetParent                  000000018003a4eb f   user32:USER32.dll
 0001:000394f1       LoadCursorW                000000018003a4f1 f   user32:USER32.dll
 0001:000394f7       PeekMessageW               000000018003a4f7 f   user32:USER32.dll
 0001:000394fd       RegisterClassW             000000018003a4fd f   user32:USER32.dll
 0001:00039503       LoadBitmapW                000000018003a503 f   user32:USER32.dll
 0001:00039509       CloseMetaFile              000000018003a509 f   gdi32:GDI32.dll
 0001:0003950f       CreateDCW                  000000018003a50f f   gdi32:GDI32.dll
 0001:00039515       CreateMetaFileW            000000018003a515 f   gdi32:GDI32.dll
 0001:0003951b       CreateRectRgnIndirect      000000018003a51b f   gdi32:GDI32.dll
 0001:00039521       DeleteDC                   000000018003a521 f   gdi32:GDI32.dll
 0001:00039527       DeleteMetaFile             000000018003a527 f   gdi32:GDI32.dll
 0001:0003952d       GetDeviceCaps              000000018003a52d f   gdi32:GDI32.dll
 0001:00039533       RestoreDC                  000000018003a533 f   gdi32:GDI32.dll
 0001:00039539       SaveDC                     000000018003a539 f   gdi32:GDI32.dll
 0001:0003953f       SetMapMode                 000000018003a53f f   gdi32:GDI32.dll
 0001:00039545       LPtoDP                     000000018003a545 f   gdi32:GDI32.dll
 0001:0003954b       SetViewportOrgEx           000000018003a54b f   gdi32:GDI32.dll
 0001:00039551       SetWindowExtEx             000000018003a551 f   gdi32:GDI32.dll
 0001:00039557       SetWindowOrgEx             000000018003a557 f   gdi32:GDI32.dll
 0001:0003955d       BitBlt                     000000018003a55d f   gdi32:GDI32.dll
 0001:00039563       CreateCompatibleDC         000000018003a563 f   gdi32:GDI32.dll
 0001:00039569       DeleteObject               000000018003a569 f   gdi32:GDI32.dll
 0001:0003956f       SelectObject               000000018003a56f f   gdi32:GDI32.dll
 0001:00039575       GetObjectW                 000000018003a575 f   gdi32:GDI32.dll
 0001:0003957b       RegCloseKey                000000018003a57b f   advapi32:ADVAPI32.dll
 0001:00039581       RegCreateKeyExW            000000018003a581 f   advapi32:ADVAPI32.dll
 0001:00039587       RegDeleteKeyW              000000018003a587 f   advapi32:ADVAPI32.dll
 0001:0003958d       RegDeleteValueW            000000018003a58d f   advapi32:ADVAPI32.dll
 0001:00039593       RegEnumKeyExW              000000018003a593 f   advapi32:ADVAPI32.dll
 0001:00039599       RegOpenKeyExW              000000018003a599 f   advapi32:ADVAPI32.dll
 0001:0003959f       RegQueryInfoKeyW           000000018003a59f f   advapi32:ADVAPI32.dll
 0001:000395a5       RegSetValueExW             000000018003a5a5 f   advapi32:ADVAPI32.dll
 0001:000395ab       RegQueryValueExW           000000018003a5ab f   advapi32:ADVAPI32.dll
 0001:000395b1       CoCreateInstance           000000018003a5b1 f   ole32:ole32.dll
 0001:000395b7       StringFromGUID2            000000018003a5b7 f   ole32:ole32.dll
 0001:000395bd       CoTaskMemAlloc             000000018003a5bd f   ole32:ole32.dll
 0001:000395c3       CoTaskMemRealloc           000000018003a5c3 f   ole32:ole32.dll
 0001:000395c9       CoTaskMemFree              000000018003a5c9 f   ole32:ole32.dll
 0001:000395cf       ReadClassStm               000000018003a5cf f   ole32:ole32.dll
 0001:000395d5       WriteClassStm              000000018003a5d5 f   ole32:ole32.dll
 0001:000395db       CreateDataAdviseHolder     000000018003a5db f   ole32:ole32.dll
 0001:000395e1       OleSaveToStream            000000018003a5e1 f   ole32:ole32.dll
 0001:000395e7       CreateOleAdviseHolder      000000018003a5e7 f   ole32:ole32.dll
 0001:000395ed       OleRegGetUserType          000000018003a5ed f   ole32:ole32.dll
 0001:000395f3       OleRegGetMiscStatus        000000018003a5f3 f   ole32:ole32.dll
 0001:000395f9       OleRegEnumVerbs            000000018003a5f9 f   ole32:ole32.dll
 0001:000395ff       CLSIDFromProgID            000000018003a5ff f   ole32:ole32.dll
 0001:00039605       SysAllocString             000000018003a605 f   oleaut32:OLEAUT32.dll
 0001:0003960b       SysAllocStringLen          000000018003a60b f   oleaut32:OLEAUT32.dll
 0001:00039611       SysFreeString              000000018003a611 f   oleaut32:OLEAUT32.dll
 0001:00039617       SysStringLen               000000018003a617 f   oleaut32:OLEAUT32.dll
 0001:0003961d       VariantClear               000000018003a61d f   oleaut32:OLEAUT32.dll
 0001:00039623       VariantCopyInd             000000018003a623 f   oleaut32:OLEAUT32.dll
 0001:00039629       VariantChangeType          000000018003a629 f   oleaut32:OLEAUT32.dll
 0001:0003962f       SysStringByteLen           000000018003a62f f   oleaut32:OLEAUT32.dll
 0001:00039635       SysAllocStringByteLen      000000018003a635 f   oleaut32:OLEAUT32.dll
 0001:0003963b       VariantInit                000000018003a63b f   oleaut32:OLEAUT32.dll
 0001:00039641       VarUI4FromStr              000000018003a641 f   oleaut32:OLEAUT32.dll
 0001:00039647       LoadTypeLib                000000018003a647 f   oleaut32:OLEAUT32.dll
 0001:0003964d       LoadRegTypeLib             000000018003a64d f   oleaut32:OLEAUT32.dll
 0001:00039653       RegisterTypeLib            000000018003a653 f   oleaut32:OLEAUT32.dll
 0001:00039659       UnRegisterTypeLib          000000018003a659 f   oleaut32:OLEAUT32.dll
 0001:0003965f       OleCreatePropertyFrame     000000018003a65f f   oleaut32:OLEAUT32.dll
 0001:00039670       _RTC_AllocaHelper          000000018003a670 f   LIBCMTD:stack.obj
 0001:000396b0       _RTC_CheckStackVars        000000018003a6b0 f   LIBCMTD:stack.obj
 0001:00039740       _RTC_CheckStackVars2       000000018003a740 f   LIBCMTD:stack.obj
 0001:00039850       _CRT_RTC_INIT              000000018003a850 f   LIBCMTD:init.obj
 0001:00039860       _CRT_RTC_INITW             000000018003a860 f   LIBCMTD:init.obj
 0001:00039870       _RTC_InitBase              000000018003a870 f   LIBCMTD:init.obj
 0001:000398b0       _RTC_Shutdown              000000018003a8b0 f   LIBCMTD:init.obj
 0001:000398e0       __GSHandlerCheck           000000018003a8e0 f   LIBCMTD:gshandler.obj
 0001:00039920       __GSHandlerCheckCommon     000000018003a920 f   LIBCMTD:gshandler.obj
 0001:00039a30       __security_check_cookie    000000018003aa30 f   LIBCMTD:amdsecgs.obj
 0001:00039a60       ??_U@YAPEAX_K@Z            000000018003aa60 f   LIBCMTD:new_array.obj
 0001:00039a80       ??3@YAXPEAX_K@Z            000000018003aa80 f   LIBCMTD:delete_scalar_size.obj
 0001:00039aa0       ??_V@YAXPEAX@Z             000000018003aaa0 f   LIBCMTD:delete_array.obj
 0001:00039ac0       ??_V@YAXPEAX_K@Z           000000018003aac0 f   LIBCMTD:delete_array_size.obj
 0001:00039ae0       ?configure_argv@__scrt_narrow_argv_policy@@SAHXZ 000000018003aae0 f i LIBCMTD:utility.obj
 0001:00039bd0       ?initialize_environment@__scrt_narrow_environment_policy@@SAHXZ 000000018003abd0 f i LIBCMTD:utility.obj
 0001:00039c70       NtCurrentTeb               000000018003ac70 f i LIBCMTD:utility.obj
 0001:00039c80       __scrt_acquire_startup_lock 000000018003ac80 f   LIBCMTD:utility.obj
 0001:00039cf0       __scrt_dllmain_after_initialize_c 000000018003acf0 f   LIBCMTD:utility.obj
 0001:00039d20       __scrt_dllmain_before_initialize_c 000000018003ad20 f   LIBCMTD:utility.obj
 0001:00039d40       __scrt_dllmain_crt_thread_attach 000000018003ad40 f   LIBCMTD:utility.obj
 0001:00039d70       __scrt_dllmain_crt_thread_detach 000000018003ad70 f   LIBCMTD:utility.obj
 0001:00039d90       __scrt_dllmain_exception_filter 000000018003ad90 f   LIBCMTD:utility.obj
 0001:00039e00       __scrt_dllmain_uninitialize_c 000000018003ae00 f   LIBCMTD:utility.obj
 0001:00039e30       __scrt_dllmain_uninitialize_critical 000000018003ae30 f   LIBCMTD:utility.obj
 0001:00039e50       __scrt_initialize_crt      000000018003ae50 f   LIBCMTD:utility.obj
 0001:00039ea0       __scrt_initialize_onexit_tables 000000018003aea0 f   LIBCMTD:utility.obj
 0001:00039fb0       __scrt_is_nonwritable_in_current_image 000000018003afb0 f   LIBCMTD:utility.obj
 0001:0003a040       __scrt_release_startup_lock 000000018003b040 f   LIBCMTD:utility.obj
 0001:0003a070       __scrt_uninitialize_crt    000000018003b070 f   LIBCMTD:utility.obj
 0001:0003a0b0       _onexit                    000000018003b0b0 f   LIBCMTD:utility.obj
 0001:0003a130       at_quick_exit              000000018003b130 f   LIBCMTD:utility.obj
 0001:0003a180       atexit                     000000018003b180 f   LIBCMTD:utility.obj
 0001:0003a1c0       ??3@YAXPEAX@Z              000000018003b1c0 f   LIBCMTD:delete_scalar.obj
 0001:0003a1e0       __raise_securityfailure    000000018003b1e0 f   LIBCMTD:gs_report.obj
 0001:0003a220       __report_gsfailure         000000018003b220 f   LIBCMTD:gs_report.obj
 0001:0003a300       __report_rangecheckfailure 000000018003b300 f   LIBCMTD:gs_report.obj
 0001:0003a320       __report_securityfailure   000000018003b320 f   LIBCMTD:gs_report.obj
 0001:0003a3c0       __report_securityfailureEx 000000018003b3c0 f   LIBCMTD:gs_report.obj
 0001:0003a780       _Init_thread_abort         000000018003b780 f   LIBCMTD:thread_safe_statics.obj
 0001:0003a7b0       _Init_thread_footer        000000018003b7b0 f   LIBCMTD:thread_safe_statics.obj
 0001:0003a810       _Init_thread_header        000000018003b810 f   LIBCMTD:thread_safe_statics.obj
 0001:0003a8a0       _Init_thread_lock          000000018003b8a0 f   LIBCMTD:thread_safe_statics.obj
 0001:0003a8c0       _Init_thread_notify        000000018003b8c0 f   LIBCMTD:thread_safe_statics.obj
 0001:0003a920       _Init_thread_unlock        000000018003b920 f   LIBCMTD:thread_safe_statics.obj
 0001:0003a940       _Init_thread_wait          000000018003b940 f   LIBCMTD:thread_safe_statics.obj
 0001:0003a9f0       ??2@YAPEAX_KAEBUnothrow_t@std@@@Z 000000018003b9f0 f   LIBCMTD:new_scalar_nothrow.obj
 0001:0003aa30       ??_U@YAPEAX_KAEBUnothrow_t@std@@@Z 000000018003ba30 f   LIBCMTD:new_array_nothrow.obj
 0001:0003aa60       __GSHandlerCheck_SEH       000000018003ba60 f   LIBCMTD:gshandlerseh.obj
 0001:0003ab30       _alloca_probe              000000018003bb30 f   LIBCMTD:chkstk.obj
 0001:0003ab30       __chkstk                   000000018003bb30 f   LIBCMTD:chkstk.obj
 0001:0003afa0       _CRT_INIT                  000000018003bfa0 f   LIBCMTD:dll_dllmain.obj
 0001:0003afd0       _DllMainCRTStartup         000000018003bfd0 f   LIBCMTD:dll_dllmain.obj
 0001:0003b0a0       ?_RTC_AllocaFailure@@YAXPEAXPEAU_RTC_ALLOCA_NODE@@H@Z 000000018003c0a0 f   LIBCMTD:error.obj
 0001:0003b200       ?_RTC_Failure@@YAXPEAXH@Z  000000018003c200 f   LIBCMTD:error.obj
 0001:0003b250       ?_RTC_StackFailure@@YAXPEAXPEBD@Z 000000018003c250 f   LIBCMTD:error.obj
 0001:0003b680       _RTC_UninitUse             000000018003c680 f   LIBCMTD:error.obj
 0001:0003b750       _vsprintf_s_l              000000018003c750 f i LIBCMTD:error.obj
 0001:0003b7c0       sprintf_s                  000000018003c7c0 f i LIBCMTD:error.obj
 0001:0003b7f0       ?_RTC_GetErrorFunc@@YAP6AHHPEBDH00ZZPEBX@Z 000000018003c7f0 f   LIBCMTD:userapi.obj
 0001:0003b800       ?_RTC_GetErrorFuncW@@YAP6AHHPEB_WH00ZZPEBX@Z 000000018003c800 f   LIBCMTD:userapi.obj
 0001:0003b810       _RTC_GetErrDesc            000000018003c810 f   LIBCMTD:userapi.obj
 0001:0003b830       _RTC_NumErrors             000000018003c830 f   LIBCMTD:userapi.obj
 0001:0003b840       _RTC_SetErrorFunc          000000018003c840 f   LIBCMTD:userapi.obj
 0001:0003b860       _RTC_SetErrorFuncW         000000018003c860 f   LIBCMTD:userapi.obj
 0001:0003b880       _RTC_SetErrorType          000000018003c880 f   LIBCMTD:userapi.obj
 0001:0003b8a0       ??2@YAPEAX_K@Z             000000018003c8a0 f   LIBCMTD:new_scalar.obj
 0001:0003b8f0       __isa_available_init       000000018003c8f0 f   LIBCMTD:cpu_disp.obj
 0001:0003bc90       _get_startup_argv_mode     000000018003cc90 f   LIBCMTD:argv_mode.obj
 0001:0003bca0       __scrt_is_ucrt_dll_in_use  000000018003cca0 f   LIBCMTD:ucrt_detection.obj
 0001:0003bcd0       __crt_debugger_hook        000000018003ccd0 f   LIBCMTD:utility_desktop.obj
 0001:0003bce0       __scrt_fastfail            000000018003cce0 f   LIBCMTD:utility_desktop.obj
 0001:0003be80       __scrt_get_show_window_mode 000000018003ce80 f   LIBCMTD:utility_desktop.obj
 0001:0003bee0       __scrt_initialize_mta      000000018003cee0 f   LIBCMTD:utility_desktop.obj
 0001:0003bef0       __scrt_initialize_winrt    000000018003cef0 f   LIBCMTD:utility_desktop.obj
 0001:0003bf00       __scrt_is_managed_app      000000018003cf00 f   LIBCMTD:utility_desktop.obj
 0001:0003bfb0       __scrt_set_unhandled_exception_filter 000000018003cfb0 f   LIBCMTD:utility_desktop.obj
 0001:0003bfd0       __scrt_stub_for_initialize_mta 000000018003cfd0 f   LIBCMTD:utility_desktop.obj
 0001:0003bfd0       __scrt_exe_initialize_mta  000000018003cfd0 f   LIBCMTD:utility_desktop.obj
 0001:0003bfe0       __scrt_unhandled_exception_filter 000000018003cfe0 f   LIBCMTD:utility_desktop.obj
 0001:0003c080       _guard_check_icall_nop     000000018003d080 f i LIBCMTD:guard_support.obj
 0001:0003c090       ReadNoFence64              000000018003d090 f i LIBCMTD:guard_support.obj
 0001:0003c0b0       ReadPointerNoFence         000000018003d0b0 f i LIBCMTD:guard_support.obj
 0001:0003c0d0       _guard_icall_checks_enforced 000000018003d0d0 f i LIBCMTD:guard_support.obj
 0001:0003c110       _guard_rf_checks_enforced  000000018003d110 f i LIBCMTD:guard_support.obj
 0001:0003c1e0       __security_init_cookie     000000018003d1e0 f   LIBCMTD:gs_support.obj
 0001:0003c260       ?__scrt_initialize_type_info@@YAXXZ 000000018003d260 f   LIBCMTD:tncleanup.obj
 0001:0003c280       ?__scrt_uninitialize_type_info@@YAXXZ 000000018003d280 f   LIBCMTD:tncleanup.obj
 0001:0003c2a0       __local_stdio_scanf_options 000000018003d2a0 f i LIBCMTD:default_local_stdio_options.obj
 0001:0003c2b0       __scrt_initialize_default_local_stdio_options 000000018003d2b0 f   LIBCMTD:default_local_stdio_options.obj
 0001:0003c300       __scrt_get_dyn_tls_init_callback 000000018003d300 f   LIBCMTD:dyn_tls_init.obj
 0001:0003c310       _RTC_Initialize            000000018003d310 f   LIBCMTD:initsect.obj
 0001:0003c360       _RTC_Terminate             000000018003d360 f   LIBCMTD:initsect.obj
 0001:0003c8c0       ?_RTC_GetSrcLine@@YAHPEAEPEA_WKPEAH1K@Z 000000018003d8c0 f   LIBCMTD:pdblkup.obj
 0001:0003cc90       ??0bad_alloc@std@@AEAA@QEBD@Z 000000018003dc90 f i LIBCMTD:throw_bad_alloc.obj
 0001:0003ccd0       ??0bad_alloc@std@@QEAA@AEBV01@@Z 000000018003dcd0 f i LIBCMTD:throw_bad_alloc.obj
 0001:0003cd10       ??0bad_alloc@std@@QEAA@XZ  000000018003dd10 f i LIBCMTD:throw_bad_alloc.obj
 0001:0003cd50       ??0bad_array_new_length@std@@QEAA@AEBV01@@Z 000000018003dd50 f i LIBCMTD:throw_bad_alloc.obj
 0001:0003cd90       ??0bad_array_new_length@std@@QEAA@XZ 000000018003dd90 f i LIBCMTD:throw_bad_alloc.obj
 0001:0003cdd0       ??0exception@std@@QEAA@AEBV01@@Z 000000018003ddd0 f i LIBCMTD:throw_bad_alloc.obj
 0001:0003ce30       ??0exception@std@@QEAA@QEBDH@Z 000000018003de30 f i LIBCMTD:throw_bad_alloc.obj
 0001:0003ce80       ??1bad_alloc@std@@UEAA@XZ  000000018003de80 f i LIBCMTD:throw_bad_alloc.obj
 0001:0003cea0       ??1bad_array_new_length@std@@UEAA@XZ 000000018003dea0 f i LIBCMTD:throw_bad_alloc.obj
 0001:0003cec0       ??1exception@std@@UEAA@XZ  000000018003dec0 f i LIBCMTD:throw_bad_alloc.obj
 0001:0003cef0       ??_Ebad_alloc@std@@UEAAPEAXI@Z 000000018003def0 f i LIBCMTD:throw_bad_alloc.obj
 0001:0003cef0       ??_Gbad_alloc@std@@UEAAPEAXI@Z 000000018003def0 f i LIBCMTD:throw_bad_alloc.obj
 0001:0003cf30       ??_Gbad_array_new_length@std@@UEAAPEAXI@Z 000000018003df30 f i LIBCMTD:throw_bad_alloc.obj
 0001:0003cf30       ??_Ebad_array_new_length@std@@UEAAPEAXI@Z 000000018003df30 f i LIBCMTD:throw_bad_alloc.obj
 0001:0003cf70       ??_Eexception@std@@UEAAPEAXI@Z 000000018003df70 f i LIBCMTD:throw_bad_alloc.obj
 0001:0003cf70       ??_Gexception@std@@UEAAPEAXI@Z 000000018003df70 f i LIBCMTD:throw_bad_alloc.obj
 0001:0003cfb0       ?__scrt_throw_std_bad_alloc@@YAXXZ 000000018003dfb0 f   LIBCMTD:throw_bad_alloc.obj
 0001:0003cfe0       ?__scrt_throw_std_bad_array_new_length@@YAXXZ 000000018003dfe0 f   LIBCMTD:throw_bad_alloc.obj
 0001:0003d010       ?what@exception@std@@UEBAPEBDXZ 000000018003e010 f i LIBCMTD:throw_bad_alloc.obj
 0001:0003d050       ??1type_info@@UEAA@XZ      000000018003e050 f   LIBCMTD:std_type_info_static.obj
 0001:0003d070       ??_Gtype_info@@UEAAPEAXI@Z 000000018003e070 f i LIBCMTD:std_type_info_static.obj
 0001:0003d070       ??_Etype_info@@UEAAPEAXI@Z 000000018003e070 f i LIBCMTD:std_type_info_static.obj
 0001:0003d0ac       ??$?2PEAUHINSTANCE__@@@Wrapper@?$CSimpleArray@PEAUHINSTANCE__@@V?$CSimpleArrayEqualHelper@PEAUHINSTANCE__@@@ATL@@@ATL@@SAPEAX_KPEAPEAUHINSTANCE__@@@Z 000000018003e0ac f i atls:atlbase.obj
 0001:0003d0b0       ??0?$CSimpleArray@PEAUHINSTANCE__@@V?$CSimpleArrayEqualHelper@PEAUHINSTANCE__@@@ATL@@@ATL@@QEAA@XZ 000000018003e0b0 f i atls:atlbase.obj
 0001:0003d0c0       ??0CAtlBaseModule@ATL@@QEAA@XZ 000000018003e0c0 f   atls:atlbase.obj
 0001:0003d168       ??0Wrapper@?$CSimpleArray@PEAUHINSTANCE__@@V?$CSimpleArrayEqualHelper@PEAUHINSTANCE__@@@ATL@@@ATL@@QEAA@AEBQEAUHINSTANCE__@@@Z 000000018003e168 f i atls:atlbase.obj
 0001:0003d174       ??0_ATL_BASE_MODULE70@ATL@@QEAA@XZ 000000018003e174 f i atls:atlbase.obj
 0001:0003d1a0       ??1?$CSimpleArray@PEAUHINSTANCE__@@V?$CSimpleArrayEqualHelper@PEAUHINSTANCE__@@@ATL@@@ATL@@QEAA@XZ 000000018003e1a0 f i atls:atlbase.obj
 0001:0003d1c8       ??1CAtlBaseModule@ATL@@QEAA@XZ 000000018003e1c8 f   atls:atlbase.obj
 0001:0003d1fc       ??1_ATL_BASE_MODULE70@ATL@@QEAA@XZ 000000018003e1fc f i atls:atlbase.obj
 0001:0003d228       ??A?$CSimpleArray@PEAUHINSTANCE__@@V?$CSimpleArrayEqualHelper@PEAUHINSTANCE__@@@ATL@@@ATL@@QEAAAEAPEAUHINSTANCE__@@H@Z 000000018003e228 f i atls:atlbase.obj
 0001:0003d254       ?Add@?$CSimpleArray@PEAUHINSTANCE__@@V?$CSimpleArrayEqualHelper@PEAUHINSTANCE__@@@ATL@@@ATL@@QEAAHAEBQEAUHINSTANCE__@@@Z 000000018003e254 f i atls:atlbase.obj
 0001:0003d308       ?AddResourceInstance@CAtlBaseModule@ATL@@QEAA_NPEAUHINSTANCE__@@@Z 000000018003e308 f   atls:atlbase.obj
 0001:0003d350       ?GetHInstanceAt@CAtlBaseModule@ATL@@QEAAPEAUHINSTANCE__@@H@Z 000000018003e350 f   atls:atlbase.obj
 0001:0003d3c8       ?GetSize@?$CSimpleArray@PEAUHINSTANCE__@@V?$CSimpleArrayEqualHelper@PEAUHINSTANCE__@@@ATL@@@ATL@@QEBAHXZ 000000018003e3c8 f i atls:atlbase.obj
 0001:0003d3cc       ?InternalSetAtIndex@?$CSimpleArray@PEAUHINSTANCE__@@V?$CSimpleArrayEqualHelper@PEAUHINSTANCE__@@@ATL@@@ATL@@QEAAXHAEBQEAUHINSTANCE__@@@Z 000000018003e3cc f i atls:atlbase.obj
 0001:0003d3e4       ?RemoveAll@?$CSimpleArray@PEAUHINSTANCE__@@V?$CSimpleArrayEqualHelper@PEAUHINSTANCE__@@@ATL@@@ATL@@QEAAXXZ 000000018003e3e4 f i atls:atlbase.obj
 0001:0003d40c       ?RemoveAt@?$CSimpleArray@PEAUHINSTANCE__@@V?$CSimpleArrayEqualHelper@PEAUHINSTANCE__@@@ATL@@@ATL@@QEAAHH@Z 000000018003e40c f i atls:atlbase.obj
 0001:0003d4b0       ?RemoveResourceInstance@CAtlBaseModule@ATL@@QEAA_NPEAUHINSTANCE__@@@Z 000000018003e4b0 f   atls:atlbase.obj
 0001:0003d530       ?memmove_s@Checked@ATL@@YAXPEAX_KPEBX1@Z 000000018003e530 f i atls:atlbase.obj
 0001:0003d9d8       ?GetCodeAddress@_stdcallthunk@ATL@@QEAAPEAXXZ 000000018003e9d8 f i atls:atlthunk.obj
 0001:0003da04       ?Init@_stdcallthunk@ATL@@QEAAH_KPEAX@Z 000000018003ea04 f i atls:atlthunk.obj
 0001:0003da54       ?__AllocStdCallThunk@@YAPEAXXZ 000000018003ea54 f   atls:atlthunk.obj
 0001:0003da5c       ?__AllocStdCallThunk@ATL@@YAPEAXXZ 000000018003ea5c f   atls:atlthunk.obj
 0001:0003da64       ?__AllocStdCallThunk_cmn@@YAPEAXXZ 000000018003ea64 f   atls:atlthunk.obj
 0001:0003db3c       ?__FreeStdCallThunk@@YAXPEAX@Z 000000018003eb3c f   atls:atlthunk.obj
 0001:0003db5c       ?__FreeStdCallThunk@ATL@@YAXPEAX@Z 000000018003eb5c f   atls:atlthunk.obj
 0001:0003db7c       ?__FreeStdCallThunk_cmn@@YAXPEAX@Z 000000018003eb7c f   atls:atlthunk.obj
 0001:0003dc1c       AtlThunk_AllocateData      000000018003ec1c f   atls:atlthunk.obj
 0001:0003dc98       AtlThunk_DataToCode        000000018003ec98 f   atls:atlthunk.obj
 0001:0003dcec       AtlThunk_FreeData          000000018003ecec f   atls:atlthunk.obj
 0001:0003dd4c       AtlThunk_InitData          000000018003ed4c f   atls:atlthunk.obj
 0001:0003de10       memset_repmovs             000000018003ee10 f   libvcruntimed:memset.obj
 0001:0003de30       memset                     000000018003ee30 f   libvcruntimed:memset.obj
 0001:0003dfc0       ??$__crt_interlocked_exchange_pointer@$$A6AXXZP6AXXZ@@YAP6AXXZPEDS6AXXZQ6AXXZ@Z 000000018003efc0 f i libvcruntimed:purevirt.obj
 0001:0003dfe0       ??$__crt_interlocked_read_pointer@$$A6AXXZ@@YAP6AXXZPEDS6AXXZ@Z 000000018003efe0 f i libvcruntimed:purevirt.obj
 0001:0003e000       ?__crt_interlocked_read_64@@YA_JPED_J@Z 000000018003f000 f i libvcruntimed:purevirt.obj
 0001:0003e020       _get_purecall_handler      000000018003f020 f   libvcruntimed:purevirt.obj
 0001:0003e040       _purecall                  000000018003f040 f   libvcruntimed:purevirt.obj
 0001:0003e080       _set_purecall_handler      000000018003f080 f   libvcruntimed:purevirt.obj
 0001:0003e0b0       memcmp                     000000018003f0b0 f   libvcruntimed:memcmp.obj
 0001:0003e190       memcpy_repmovs             000000018003f190 f   libvcruntimed:memcpy.obj
 0001:0003e1b0       memcpy                     000000018003f1b0 f   libvcruntimed:memcpy.obj
 0001:0003e1b0       memmove                    000000018003f1b0 f   libvcruntimed:memcpy.obj
 0001:0003e590       wcsstr                     000000018003f590 f   libvcruntimed:wcsstr.obj
 0001:0003ebf0       __vcrt_initialize          000000018003fbf0 f   libvcruntimed:initialization.obj
 0001:0003ec30       __vcrt_thread_attach       000000018003fc30 f   libvcruntimed:initialization.obj
 0001:0003ec50       __vcrt_thread_detach       000000018003fc50 f   libvcruntimed:initialization.obj
 0001:0003ec70       __vcrt_uninitialize        000000018003fc70 f   libvcruntimed:initialization.obj
 0001:0003ec90       __vcrt_uninitialize_critical 000000018003fc90 f   libvcruntimed:initialization.obj
 0001:0003ecb0       __C_specific_handler       000000018003fcb0 f   libvcruntimed:riscchandler.obj
 0001:0003f120       ??$?0AEAViterator@TryBlockMap4@FH4@@AEAV012@$0A@@?$pair@Viterator@TryBlockMap4@FH4@@V123@@std@@QEAA@AEAViterator@TryBlockMap4@FH4@@0@Z 0000000180040120 f i libvcruntimed:risctrnsctrl.obj
 0001:0003f180       ??$?0AEAViterator@TryBlockMap@__FrameHandler3@@AEAV012@$0A@@?$pair@Viterator@TryBlockMap@__FrameHandler3@@V123@@std@@QEAA@AEAViterator@TryBlockMap@__FrameHandler3@@0@Z 0000000180040180 f i libvcruntimed:risctrnsctrl.obj
 0001:0003f340       ??$_CallSETranslator@V__FrameHandler3@@@@YAHPEAUEHExceptionRecord@@PEA_KPEAU_CONTEXT@@PEAU_xDISPATCHER_CONTEXT@@PEBU_s_FuncInfo@@K1@Z 0000000180040340 f i libvcruntimed:risctrnsctrl.obj
 0001:0003f3d0       ??$_CallSETranslator@V__FrameHandler4@@@@YAHPEAUEHExceptionRecord@@PEA_KPEAU_CONTEXT@@PEAU_xDISPATCHER_CONTEXT@@PEAUFuncInfo4@FH4@@K1@Z 00000001800403d0 f i libvcruntimed:risctrnsctrl.obj
 0001:0003f460       ??$forward@AEAViterator@TryBlockMap4@FH4@@@std@@YAAEAViterator@TryBlockMap4@FH4@@AEAV123@@Z 0000000180040460 f i libvcruntimed:risctrnsctrl.obj
 0001:0003f470       ??$forward@AEAViterator@TryBlockMap@__FrameHandler3@@@std@@YAAEAViterator@TryBlockMap@__FrameHandler3@@AEAV123@@Z 0000000180040470 f i libvcruntimed:risctrnsctrl.obj
 0001:0003f480       ??0FuncInfo4@FH4@@QEAA@XZ  0000000180040480 f i libvcruntimed:risctrnsctrl.obj
 0001:0003f4f0       ??0FuncInfoHeader@FH4@@QEAA@XZ 00000001800404f0 f i libvcruntimed:risctrnsctrl.obj
 0001:0003f510       ??0iterator@TryBlockMap4@FH4@@QEAA@AEAV12@I@Z 0000000180040510 f i libvcruntimed:risctrnsctrl.obj
 0001:0003f540       ??0iterator@TryBlockMap@__FrameHandler3@@QEAA@AEAV12@I@Z 0000000180040540 f i libvcruntimed:risctrnsctrl.obj
 0001:0003f570       ??4iterator@TryBlockMap4@FH4@@QEAAAEAV012@AEBV012@@Z 0000000180040570 f i libvcruntimed:risctrnsctrl.obj
 0001:0003f590       ??9iterator@TryBlockMap4@FH4@@QEBA_NAEBV012@@Z 0000000180040590 f i libvcruntimed:risctrnsctrl.obj
 0001:0003f5d0       ??Diterator@TryBlockMap4@FH4@@QEAA?AUTryBlockMapEntry4@2@XZ 00000001800405d0 f i libvcruntimed:risctrnsctrl.obj
 0001:0003f600       ??Eiterator@TryBlockMap4@FH4@@QEAAAEAV012@XZ 0000000180040600 f i libvcruntimed:risctrnsctrl.obj
 0001:0003f640       ?CatchTryBlock@__FrameHandler3@@SAPEBU_s_TryBlockMapEntry@@PEBU_s_FuncInfo@@H@Z 0000000180040640 f   libvcruntimed:risctrnsctrl.obj
 0001:0003f6d0       ?DecompFuncInfo@FH4@@YA_JPEAEAEAUFuncInfo4@1@_KH@Z 00000001800406d0 f i libvcruntimed:risctrnsctrl.obj
 0001:0003f710       ?DecompFuncInfo@FH4@@YA_JPEAEAEAUFuncInfo4@1@_KH_N@Z 0000000180040710 f i libvcruntimed:risctrnsctrl.obj
 0001:0003f8e0       ?DecompTryBlock@TryBlockMap4@FH4@@AEAAXXZ 00000001800408e0 f i libvcruntimed:risctrnsctrl.obj
 0001:0003f960       ?ExecutionInCatch@__FrameHandler3@@SA_NPEAU_xDISPATCHER_CONTEXT@@PEBU_s_FuncInfo@@@Z 0000000180040960 f   libvcruntimed:risctrnsctrl.obj
 0001:0003f9b0       ?ExecutionInCatch@__FrameHandler4@@SA_NPEAU_xDISPATCHER_CONTEXT@@PEAUFuncInfo4@FH4@@@Z 00000001800409b0 f   libvcruntimed:risctrnsctrl.obj
 0001:0003f9d0       ?FrameUnwindToEmptyState@__FrameHandler3@@SAXPEA_KPEAU_xDISPATCHER_CONTEXT@@PEBU_s_FuncInfo@@@Z 00000001800409d0 f   libvcruntimed:risctrnsctrl.obj
 0001:0003fa70       ?FrameUnwindToEmptyState@__FrameHandler4@@SAXPEA_KPEAU_xDISPATCHER_CONTEXT@@PEAUFuncInfo4@FH4@@@Z 0000000180040a70 f   libvcruntimed:risctrnsctrl.obj
 0001:0003fac0       ?GetEstablisherFrame@__FrameHandler3@@SAPEA_KPEA_KPEAU_xDISPATCHER_CONTEXT@@PEBU_s_FuncInfo@@0@Z 0000000180040ac0 f   libvcruntimed:risctrnsctrl.obj
 0001:0003fc30       ?GetEstablisherFrame@__FrameHandler4@@SAPEA_KPEA_KPEAU_xDISPATCHER_CONTEXT@@PEAUFuncInfo4@FH4@@0@Z 0000000180040c30 f   libvcruntimed:risctrnsctrl.obj
 0001:0003fca0       ?GetRangeOfTrysToCheck@__FrameHandler3@@SA?AU?$pair@Viterator@TryBlockMap@__FrameHandler3@@V123@@std@@AEAVTryBlockMap@1@HPEAU_xDISPATCHER_CONTEXT@@PEBU_s_FuncInfo@@H@Z 0000000180040ca0 f   libvcruntimed:risctrnsctrl.obj
 0001:0003fee0       ?GetRangeOfTrysToCheck@__FrameHandler4@@SA?AU?$pair@Viterator@TryBlockMap4@FH4@@V123@@std@@AEAVTryBlockMap4@FH4@@HPEAU_xDISPATCHER_CONTEXT@@PEAUFuncInfo4@5@H@Z 0000000180040ee0 f   libvcruntimed:risctrnsctrl.obj
 0001:00040090       ?ReadInt@FH4@@YAHPEAPEAE@Z 0000000180041090 f i libvcruntimed:risctrnsctrl.obj
 0001:000400d0       ?ReadUnsigned@FH4@@YAIPEAPEAE@Z 00000001800410d0 f i libvcruntimed:risctrnsctrl.obj
 0001:00040160       ?UnwindNestedFrames@__FrameHandler3@@SAXPEA_KPEAUEHExceptionRecord@@PEAU_CONTEXT@@0PEAXPEBU_s_FuncInfo@@HHPEBU_s_HandlerType@@PEAU_xDISPATCHER_CONTEXT@@E@Z 0000000180041160 f   libvcruntimed:risctrnsctrl.obj
 0001:000402d0       ?UnwindNestedFrames@__FrameHandler4@@SAXPEA_KPEAUEHExceptionRecord@@PEAU_CONTEXT@@0PEAXPEAUFuncInfo4@FH4@@HHPEAUHandlerType4@5@PEAU_xDISPATCHER_CONTEXT@@E@Z 00000001800412d0 f   libvcruntimed:risctrnsctrl.obj
 0001:000404a0       ?begin@TryBlockMap4@FH4@@QEAA?AViterator@12@XZ 00000001800414a0 f i libvcruntimed:risctrnsctrl.obj
 0001:000404d0       ?end@TryBlockMap4@FH4@@QEAA?AViterator@12@XZ 00000001800414d0 f i libvcruntimed:risctrnsctrl.obj
 0001:00040500       ?imageRelToByteBuffer@FH4@@YAPEAE_KH@Z 0000000180041500 f i libvcruntimed:risctrnsctrl.obj
 0001:00040520       ?incrementToSentinel@iterator@TryBlockMap4@FH4@@QEAAXXZ 0000000180041520 f i libvcruntimed:risctrnsctrl.obj
 0001:00040540       ?setBuffer@TryBlockMap4@FH4@@QEAAXViterator@12@@Z 0000000180041540 f i libvcruntimed:risctrnsctrl.obj
 0001:000405b0       _CreateFrameInfo           00000001800415b0 f   libvcruntimed:risctrnsctrl.obj
 0001:00040620       _FindAndUnlinkFrame        0000000180041620 f   libvcruntimed:risctrnsctrl.obj
 0001:000406a0       _GetImageBase              00000001800416a0 f   libvcruntimed:risctrnsctrl.obj
 0001:000406c0       _GetThrowImageBase         00000001800416c0 f   libvcruntimed:risctrnsctrl.obj
 0001:000406e0       _SetImageBase              00000001800416e0 f   libvcruntimed:risctrnsctrl.obj
 0001:00040700       _SetThrowImageBase         0000000180041700 f   libvcruntimed:risctrnsctrl.obj
 0001:00040720       __CxxFrameHandler          0000000180041720 f   libvcruntimed:risctrnsctrl.obj
 0001:00040760       __CxxFrameHandler2         0000000180041760 f   libvcruntimed:risctrnsctrl.obj
 0001:000407a0       __CxxFrameHandler3         00000001800417a0 f   libvcruntimed:risctrnsctrl.obj
 0001:00040880       __CxxFrameHandler4         0000000180041880 f   libvcruntimed:risctrnsctrl.obj
 0001:00040990       __C_specific_handler_noexcept 0000000180041990 f   libvcruntimed:chandler_noexcept.obj
 0001:00040a20       __DestructExceptionObject  0000000180041a20 f   libvcruntimed:ehhelpers.obj
 0001:00040b20       ?_CallMemberFunction0@@YAXQEAX0@Z 0000000180041b20 f i libvcruntimed:ehhelpers.obj
 0001:00040bf0       ?raw_name@type_info@@QEBAPEBDXZ 0000000180041bf0 f i libvcruntimed:ehhelpers.obj
 0001:00040c00       _IsExceptionObjectToBeDestroyed 0000000180041c00 f   libvcruntimed:ehhelpers.obj
 0001:00040c50       _SetWinRTOutOfMemoryExceptionCallback 0000000180041c50 f   libvcruntimed:ehhelpers.obj
 0001:00040c70       __AdjustPointer            0000000180041c70 f   libvcruntimed:ehhelpers.obj
 0001:00040cf0       __FrameUnwindFilter        0000000180041cf0 f   libvcruntimed:ehhelpers.obj
 0001:00040da0       __GetPlatformExceptionInfo 0000000180041da0 f   libvcruntimed:ehhelpers.obj
 0001:00040e50       __current_exception        0000000180041e50 f   libvcruntimed:ehhelpers.obj
 0001:00040e70       __current_exception_context 0000000180041e70 f   libvcruntimed:ehhelpers.obj
 0001:00040e90       __processing_throw         0000000180041e90 f   libvcruntimed:ehhelpers.obj
 0001:00040eb0       __std_terminate            0000000180041eb0 f   libvcruntimed:ehhelpers.obj
 0001:00040ec0       _is_exception_typeof       0000000180041ec0 f   libvcruntimed:ehhelpers.obj
 0001:00041050       ??$?RD@__crt_internal_free_policy@@QEBAXQEBD@Z 0000000180042050 f i libvcruntimed:std_type_info.obj
 0001:00041080       ??$?RX@__crt_internal_free_policy@@QEBAXQEBX@Z 0000000180042080 f i libvcruntimed:std_type_info.obj
 0001:000410b0       ??$__crt_interlocked_compare_exchange_pointer@$$CBDPEAD$$T@@YAPEBDPEDSEBDQEAD$$T@Z 00000001800420b0 f i libvcruntimed:std_type_info.obj
 0001:000410f0       ??$__crt_interlocked_read_pointer@$$CBD@@YAPEBDPEDSEBD@Z 00000001800420f0 f i libvcruntimed:std_type_info.obj
 0001:00041110       ??0?$__crt_unique_heap_ptr@DU__crt_internal_free_policy@@@@QEAA@QEAD@Z 0000000180042110 f i libvcruntimed:std_type_info.obj
 0001:00041130       ??0?$__crt_unique_heap_ptr@XU__crt_internal_free_policy@@@@QEAA@QEAX@Z 0000000180042130 f i libvcruntimed:std_type_info.obj
 0001:00041150       ??1?$__crt_unique_heap_ptr@DU__crt_internal_free_policy@@@@QEAA@XZ 0000000180042150 f i libvcruntimed:std_type_info.obj
 0001:00041170       ??1?$__crt_unique_heap_ptr@XU__crt_internal_free_policy@@@@QEAA@XZ 0000000180042170 f i libvcruntimed:std_type_info.obj
 0001:00041190       ??B?$__crt_unique_heap_ptr@DU__crt_internal_free_policy@@@@QEBA_NXZ 0000000180042190 f i libvcruntimed:std_type_info.obj
 0001:000411b0       ??B?$__crt_unique_heap_ptr@XU__crt_internal_free_policy@@@@QEBA_NXZ 00000001800421b0 f i libvcruntimed:std_type_info.obj
 0001:00041250       ?detach@?$__crt_unique_heap_ptr@XU__crt_internal_free_policy@@@@QEAAPEAXXZ 0000000180042250 f i libvcruntimed:std_type_info.obj
 0001:00041280       ?get@?$__crt_unique_heap_ptr@DU__crt_internal_free_policy@@@@QEBAPEADXZ 0000000180042280 f i libvcruntimed:std_type_info.obj
 0001:00041290       ?get@?$__crt_unique_heap_ptr@XU__crt_internal_free_policy@@@@QEBAPEAXXZ 0000000180042290 f i libvcruntimed:std_type_info.obj
 0001:000412a0       ?is_valid@?$__crt_unique_heap_ptr@DU__crt_internal_free_policy@@@@QEBA_NXZ 00000001800422a0 f i libvcruntimed:std_type_info.obj
 0001:000412d0       ?is_valid@?$__crt_unique_heap_ptr@XU__crt_internal_free_policy@@@@QEBA_NXZ 00000001800422d0 f i libvcruntimed:std_type_info.obj
 0001:00041300       ?release@?$__crt_unique_heap_ptr@DU__crt_internal_free_policy@@@@QEAAXXZ 0000000180042300 f i libvcruntimed:std_type_info.obj
 0001:00041330       ?release@?$__crt_unique_heap_ptr@XU__crt_internal_free_policy@@@@QEAAXXZ 0000000180042330 f i libvcruntimed:std_type_info.obj
 0001:00041360       __std_type_info_compare    0000000180042360 f   libvcruntimed:std_type_info.obj
 0001:000413a0       __std_type_info_destroy_list 00000001800423a0 f   libvcruntimed:std_type_info.obj
 0001:00041400       __std_type_info_hash       0000000180042400 f   libvcruntimed:std_type_info.obj
 0001:000414b0       __std_type_info_name       00000001800424b0 f   libvcruntimed:std_type_info.obj
 0001:00041760       __vcrt_GetModuleFileNameW  0000000180042760 f   libvcruntimed:winapi_thunks.obj
 0001:00041790       __vcrt_GetModuleHandleW    0000000180042790 f   libvcruntimed:winapi_thunks.obj
 0001:000417b0       __vcrt_LoadLibraryExW      00000001800427b0 f   libvcruntimed:winapi_thunks.obj
 0001:000417e0       ??$?RD@__crt_public_free_policy@@QEBAXQEBD@Z 00000001800427e0 f i libvcruntimed:std_exception.obj
 0001:00041800       ??0?$__crt_unique_heap_ptr@DU__crt_public_free_policy@@@@QEAA@QEAD@Z 0000000180042800 f i libvcruntimed:std_exception.obj
 0001:00041820       ??1?$__crt_unique_heap_ptr@DU__crt_public_free_policy@@@@QEAA@XZ 0000000180042820 f i libvcruntimed:std_exception.obj
 0001:00041840       ??B?$__crt_unique_heap_ptr@DU__crt_public_free_policy@@@@QEBA_NXZ 0000000180042840 f i libvcruntimed:std_exception.obj
 0001:00041860       ?detach@?$__crt_unique_heap_ptr@DU__crt_public_free_policy@@@@QEAAPEADXZ 0000000180042860 f i libvcruntimed:std_exception.obj
 0001:00041890       ?get@?$__crt_unique_heap_ptr@DU__crt_public_free_policy@@@@QEBAPEADXZ 0000000180042890 f i libvcruntimed:std_exception.obj
 0001:000418a0       ?is_valid@?$__crt_unique_heap_ptr@DU__crt_public_free_policy@@@@QEBA_NXZ 00000001800428a0 f i libvcruntimed:std_exception.obj
 0001:000418d0       ?release@?$__crt_unique_heap_ptr@DU__crt_public_free_policy@@@@QEAAXXZ 00000001800428d0 f i libvcruntimed:std_exception.obj
 0001:00041900       __std_exception_copy       0000000180042900 f   libvcruntimed:std_exception.obj
 0001:00041a40       __std_exception_destroy    0000000180042a40 f   libvcruntimed:std_exception.obj
 0001:00041a80       _CxxThrowException         0000000180042a80 f   libvcruntimed:throw.obj
 0001:00041bb0       ??$?RU__vcrt_ptd@@@__crt_internal_free_policy@@QEBAXQEBU__vcrt_ptd@@@Z 0000000180042bb0 f i libvcruntimed:per_thread_data.obj
 0001:00041be0       ??0?$__crt_unique_heap_ptr@U__vcrt_ptd@@U__crt_internal_free_policy@@@@QEAA@QEAU__vcrt_ptd@@@Z 0000000180042be0 f i libvcruntimed:per_thread_data.obj
 0001:00041c20       ??1?$__crt_unique_heap_ptr@U__vcrt_ptd@@U__crt_internal_free_policy@@@@QEAA@XZ 0000000180042c20 f i libvcruntimed:per_thread_data.obj
 0001:00041c60       ??B?$__crt_unique_heap_ptr@U__vcrt_ptd@@U__crt_internal_free_policy@@@@QEBA_NXZ 0000000180042c60 f i libvcruntimed:per_thread_data.obj
 0001:00041c80       ?detach@?$__crt_unique_heap_ptr@U__vcrt_ptd@@U__crt_internal_free_policy@@@@QEAAPEAU__vcrt_ptd@@XZ 0000000180042c80 f i libvcruntimed:per_thread_data.obj
 0001:00041cb0       ?get@?$__crt_unique_heap_ptr@U__vcrt_ptd@@U__crt_internal_free_policy@@@@QEBAPEAU__vcrt_ptd@@XZ 0000000180042cb0 f i libvcruntimed:per_thread_data.obj
 0001:00041cc0       ?is_valid@?$__crt_unique_heap_ptr@U__vcrt_ptd@@U__crt_internal_free_policy@@@@QEBA_NXZ 0000000180042cc0 f i libvcruntimed:per_thread_data.obj
 0001:00041cf0       ?release@?$__crt_unique_heap_ptr@U__vcrt_ptd@@U__crt_internal_free_policy@@@@QEAAXXZ 0000000180042cf0 f i libvcruntimed:per_thread_data.obj
 0001:00041d60       __vcrt_freefls             0000000180042d60 f   libvcruntimed:per_thread_data.obj
 0001:00041da0       __vcrt_freeptd             0000000180042da0 f   libvcruntimed:per_thread_data.obj
 0001:00041e00       __vcrt_getptd              0000000180042e00 f   libvcruntimed:per_thread_data.obj
 0001:00041e30       __vcrt_getptd_noexit       0000000180042e30 f   libvcruntimed:per_thread_data.obj
 0001:00041fd0       __vcrt_getptd_noinit       0000000180042fd0 f   libvcruntimed:per_thread_data.obj
 0001:00042030       __vcrt_initialize_ptd      0000000180043030 f   libvcruntimed:per_thread_data.obj
 0001:00042080       __vcrt_uninitialize_ptd    0000000180043080 f   libvcruntimed:per_thread_data.obj
 0001:000420b0       __vcrt_initialize_locks    00000001800430b0 f   libvcruntimed:locks.obj
 0001:00042120       __vcrt_lock                0000000180043120 f   libvcruntimed:locks.obj
 0001:00042150       __vcrt_uninitialize_locks  0000000180043150 f   libvcruntimed:locks.obj
 0001:000421b0       __vcrt_unlock              00000001800431b0 f   libvcruntimed:locks.obj
 0001:000421f0       _NLG_Notify                00000001800431f0 f   libvcruntimed:notify.obj
 0001:00042210       __NLG_Dispatch2            0000000180043210 f   libvcruntimed:notify.obj
 0001:00042220       __NLG_Return2              0000000180043220 f   libvcruntimed:notify.obj
 0001:00042240       __except_validate_context_record 0000000180043240 f   libvcruntimed:jbcxrval.obj
 0001:000422a0       __except_validate_jump_buffer 00000001800432a0 f   libvcruntimed:jbcxrval.obj
 0001:000422c0       __except_validate_jump_buffer_common 00000001800432c0 f i libvcruntimed:jbcxrval.obj
 0001:00042340       ?GetCurrentState@__FrameHandler3@@SAHPEA_KPEAU_xDISPATCHER_CONTEXT@@PEBU_s_FuncInfo@@@Z 0000000180043340 f   libvcruntimed:ehstate.obj
 0001:000423a0       ?GetUnwindTryBlock@__FrameHandler3@@SAHPEA_KPEAU_xDISPATCHER_CONTEXT@@PEBU_s_FuncInfo@@@Z 00000001800433a0 f   libvcruntimed:ehstate.obj
 0001:000423f0       ?SetState@__FrameHandler3@@SAXPEA_KPEBU_s_FuncInfo@@H@Z 00000001800433f0 f   libvcruntimed:ehstate.obj
 0001:00042420       ?SetUnwindTryBlock@__FrameHandler3@@SAXPEA_KPEAU_xDISPATCHER_CONTEXT@@PEBU_s_FuncInfo@@H@Z 0000000180043420 f   libvcruntimed:ehstate.obj
 0001:00042490       ?StateFromControlPc@__FrameHandler3@@SAHPEBU_s_FuncInfo@@PEAU_xDISPATCHER_CONTEXT@@@Z 0000000180043490 f   libvcruntimed:ehstate.obj
 0001:000424d0       ?StateFromControlPc@__FrameHandler4@@SAHPEAUFuncInfo4@FH4@@PEAU_xDISPATCHER_CONTEXT@@@Z 00000001800434d0 f   libvcruntimed:ehstate.obj
 0001:00042510       ?StateFromIp@__FrameHandler3@@SAHPEBU_s_FuncInfo@@PEAU_xDISPATCHER_CONTEXT@@_K@Z 0000000180043510 f   libvcruntimed:ehstate.obj
 0001:00042600       ?StateFromIp@__FrameHandler4@@SAHPEAUFuncInfo4@FH4@@PEAU_xDISPATCHER_CONTEXT@@_K@Z 0000000180043600 f   libvcruntimed:ehstate.obj
 0001:000426f0       ?__FuncRelToRealOffset@@YA_KPEAU_xDISPATCHER_CONTEXT@@I@Z 00000001800436f0 f i libvcruntimed:ehstate.obj
 0001:00042720       ?__RVAtoRealOffset@@YA_KPEAU_xDISPATCHER_CONTEXT@@H@Z 0000000180043720 f i libvcruntimed:ehstate.obj
 0001:00044990       ??$TypeMatchHelper@V__FrameHandler3@@@@YAHPEBU_s_HandlerType@@PEBU_s_CatchableType@@PEBU_s_ThrowInfo@@@Z 0000000180045990 f i libvcruntimed:frame.obj
 0001:00044b90       ??$TypeMatchHelper@V__FrameHandler4@@@@YAHPEAUHandlerType4@FH4@@PEBU_s_CatchableType@@PEBU_s_ThrowInfo@@@Z 0000000180045b90 f i libvcruntimed:frame.obj
 0001:00044da0       ??$__InternalCxxFrameHandler@V__FrameHandler3@@@@YA?AW4_EXCEPTION_DISPOSITION@@PEAUEHExceptionRecord@@PEA_KPEAU_CONTEXT@@PEAU_xDISPATCHER_CONTEXT@@PEBU_s_FuncInfo@@H1E@Z 0000000180045da0 f i libvcruntimed:frame.obj
 0001:00045210       ??$__InternalCxxFrameHandler@V__FrameHandler4@@@@YA?AW4_EXCEPTION_DISPOSITION@@PEAUEHExceptionRecord@@PEA_KPEAU_CONTEXT@@PEAU_xDISPATCHER_CONTEXT@@PEAUFuncInfo4@FH4@@H1E@Z 0000000180046210 f i libvcruntimed:frame.obj
 0001:000456a0       ??0HandlerMap4@FH4@@QEAA@PEBUTryBlockMapEntry4@1@_KH@Z 00000001800466a0 f i libvcruntimed:frame.obj
 0001:00045760       ??0HandlerMap@__FrameHandler3@@QEAA@PEBU_s_TryBlockMapEntry@@_KI@Z 0000000180046760 f i libvcruntimed:frame.obj
 0001:000457b0       ??0HandlerType4@FH4@@QEAA@XZ 00000001800467b0 f i libvcruntimed:frame.obj
 0001:000457d0       ??0TryBlockMap4@FH4@@QEAA@PEBUFuncInfo4@1@_K@Z 00000001800467d0 f i libvcruntimed:frame.obj
 0001:00045860       ??0TryBlockMap@__FrameHandler3@@QEAA@PEBU_s_FuncInfo@@_K@Z 0000000180046860 f i libvcruntimed:frame.obj
 0001:00045890       ??0UWMap4@FH4@@QEAA@PEBUFuncInfo4@1@_K@Z 0000000180046890 f i libvcruntimed:frame.obj
 0001:00045900       ??0bad_exception@std@@QEAA@AEBV01@@Z 0000000180046900 f i libvcruntimed:frame.obj
 0001:00045940       ??0bad_exception@std@@QEAA@XZ 0000000180046940 f i libvcruntimed:frame.obj
 0001:00045980       ??0iterator@HandlerMap4@FH4@@QEAA@AEAV12@I@Z 0000000180046980 f i libvcruntimed:frame.obj
 0001:000459b0       ??0iterator@HandlerMap@__FrameHandler3@@QEAA@AEAV12@I@Z 00000001800469b0 f i libvcruntimed:frame.obj
 0001:000459e0       ??0iterator@UWMap4@FH4@@QEAA@AEAV12@PEAE@Z 00000001800469e0 f i libvcruntimed:frame.obj
 0001:00045a10       ??1bad_exception@std@@UEAA@XZ 0000000180046a10 f i libvcruntimed:frame.obj
 0001:00045a30       ??4iterator@UWMap4@FH4@@QEAAAEAV012@AEBV012@@Z 0000000180046a30 f i libvcruntimed:frame.obj
 0001:00045a80       ??8iterator@HandlerMap4@FH4@@QEBA_NAEBV012@@Z 0000000180046a80 f i libvcruntimed:frame.obj
 0001:00045ac0       ??8iterator@HandlerMap@__FrameHandler3@@QEBA_NAEBV012@@Z 0000000180046ac0 f i libvcruntimed:frame.obj
 0001:00045b00       ??8type_info@@QEBA_NAEBV0@@Z 0000000180046b00 f i libvcruntimed:frame.obj
 0001:00045b50       ??9iterator@HandlerMap4@FH4@@QEBA_NAEBV012@@Z 0000000180046b50 f i libvcruntimed:frame.obj
 0001:00045b90       ??9iterator@HandlerMap@__FrameHandler3@@QEBA_NAEBV012@@Z 0000000180046b90 f i libvcruntimed:frame.obj
 0001:00045bd0       ??Diterator@HandlerMap4@FH4@@QEAA?AUHandlerType4@2@XZ 0000000180046bd0 f i libvcruntimed:frame.obj
 0001:00045c00       ??Diterator@HandlerMap@__FrameHandler3@@QEAA?BU_s_HandlerType@@XZ 0000000180046c00 f i libvcruntimed:frame.obj
 0001:00045c40       ??Diterator@TryBlockMap@__FrameHandler3@@QEAA?BU_s_TryBlockMapEntry@@XZ 0000000180046c40 f i libvcruntimed:frame.obj
 0001:00045c90       ??Diterator@UWMap4@FH4@@QEAA?AUUnwindMapEntry4@2@XZ 0000000180046c90 f i libvcruntimed:frame.obj
 0001:00045d10       ??Eiterator@HandlerMap4@FH4@@QEAAAEAV012@XZ 0000000180046d10 f i libvcruntimed:frame.obj
 0001:00045d50       ??Eiterator@HandlerMap@__FrameHandler3@@QEAAAEAV012@XZ 0000000180046d50 f i libvcruntimed:frame.obj
 0001:00045d70       ??Eiterator@TryBlockMap@__FrameHandler3@@QEAAAEAV012@XZ 0000000180046d70 f i libvcruntimed:frame.obj
 0001:00045d90       ??Eiterator@UWMap4@FH4@@QEAAAEAV012@XZ 0000000180046d90 f i libvcruntimed:frame.obj
 0001:00045dd0       ??Giterator@UWMap4@FH4@@QEBA_JAEBV012@@Z 0000000180046dd0 f i libvcruntimed:frame.obj
 0001:00045df0       ??Miterator@TryBlockMap4@FH4@@QEBA_NAEBV012@@Z 0000000180046df0 f i libvcruntimed:frame.obj
 0001:00045e30       ??Miterator@TryBlockMap@__FrameHandler3@@QEBA_NAEBV012@@Z 0000000180046e30 f i libvcruntimed:frame.obj
 0001:00045e70       ??Oiterator@UWMap4@FH4@@QEBA_NAEBV012@@Z 0000000180046e70 f i libvcruntimed:frame.obj
 0001:00045eb0       ??Piterator@UWMap4@FH4@@QEBA_NAEBV012@@Z 0000000180046eb0 f i libvcruntimed:frame.obj
 0001:00045ef0       ??_Gbad_exception@std@@UEAAPEAXI@Z 0000000180046ef0 f i libvcruntimed:frame.obj
 0001:00045ef0       ??_Ebad_exception@std@@UEAAPEAXI@Z 0000000180046ef0 f i libvcruntimed:frame.obj
 0001:00045f30       ?BuildCatchObject@__FrameHandler3@@SAXPEAUEHExceptionRecord@@PEAXPEBU_s_HandlerType@@PEBU_s_CatchableType@@@Z 0000000180046f30 f   libvcruntimed:frame.obj
 0001:00045f70       ?BuildCatchObject@__FrameHandler4@@SAXPEAUEHExceptionRecord@@PEAXPEAUHandlerType4@FH4@@PEBU_s_CatchableType@@@Z 0000000180046f70 f   libvcruntimed:frame.obj
 0001:00045fb0       ?BuildCatchObjectHelper@__FrameHandler3@@SAHPEAUEHExceptionRecord@@PEAXPEBU_s_HandlerType@@PEBU_s_CatchableType@@@Z 0000000180046fb0 f   libvcruntimed:frame.obj
 0001:00045ff0       ?BuildCatchObjectHelper@__FrameHandler4@@SAHPEAUEHExceptionRecord@@PEAXPEAUHandlerType4@FH4@@PEBU_s_CatchableType@@@Z 0000000180046ff0 f   libvcruntimed:frame.obj
 0001:00046030       ?CxxCallCatchBlock@__FrameHandler3@@SAPEAXPEAU_EXCEPTION_RECORD@@@Z 0000000180047030 f   libvcruntimed:frame.obj
 0001:00046290       ?CxxCallCatchBlock@__FrameHandler4@@SAPEAXPEAU_EXCEPTION_RECORD@@@Z 0000000180047290 f   libvcruntimed:frame.obj
 0001:000465c0       ?DecompHandler@HandlerMap4@FH4@@AEAAXXZ 00000001800475c0 f i libvcruntimed:frame.obj
 0001:00046990       ?FrameUnwindToState@__FrameHandler3@@SAXPEA_KPEAU_xDISPATCHER_CONTEXT@@PEBU_s_FuncInfo@@H@Z 0000000180047990 f   libvcruntimed:frame.obj
 0001:00046be0       ?FrameUnwindToState@__FrameHandler4@@SAXPEA_KPEAU_xDISPATCHER_CONTEXT@@PEAUFuncInfo4@FH4@@H@Z 0000000180047be0 f   libvcruntimed:frame.obj
 0001:00046f30       ?GetHandlerSearchState@__FrameHandler3@@SAHPEA_KPEAU_xDISPATCHER_CONTEXT@@PEBU_s_FuncInfo@@@Z 0000000180047f30 f i libvcruntimed:frame.obj
 0001:00046fe0       ?GetHandlerSearchState@__FrameHandler4@@SAHPEA_KPEAU_xDISPATCHER_CONTEXT@@PEAUFuncInfo4@FH4@@@Z 0000000180047fe0 f i libvcruntimed:frame.obj
 0001:00047060       ?GetMaxState@__FrameHandler3@@SAHPEAU_xDISPATCHER_CONTEXT@@PEBU_s_FuncInfo@@@Z 0000000180048060 f i libvcruntimed:frame.obj
 0001:00047080       ?GetMaxState@__FrameHandler4@@SAHPEAU_xDISPATCHER_CONTEXT@@PEAUFuncInfo4@FH4@@@Z 0000000180048080 f i libvcruntimed:frame.obj
 0001:000472b0       ?ReadEntry@UWMap4@FH4@@AEAAXPEAPEAE@Z 00000001800482b0 f i libvcruntimed:frame.obj
 0001:00047360       ?TypeMatch@__FrameHandler3@@SAHPEBU_s_HandlerType@@PEBU_s_CatchableType@@PEBU_s_ThrowInfo@@@Z 0000000180048360 f   libvcruntimed:frame.obj
 0001:00047390       ?TypeMatch@__FrameHandler4@@SAHPEAUHandlerType4@FH4@@PEBU_s_CatchableType@@PEBU_s_ThrowInfo@@@Z 0000000180048390 f   libvcruntimed:frame.obj
 0001:000473c0       ?WalkBack@UWMap4@FH4@@AEAAXPEAPEAE@Z 00000001800483c0 f i libvcruntimed:frame.obj
 0001:00047410       ?WalkBack@iterator@UWMap4@FH4@@QEAAXXZ 0000000180048410 f i libvcruntimed:frame.obj
 0001:00047450       ?WalkForward@UWMap4@FH4@@AEAAXPEAPEAE@Z 0000000180048450 f i libvcruntimed:frame.obj
 0001:00047480       ?_CallMemberFunction1@@YAXQEAX00@Z 0000000180048480 f i libvcruntimed:frame.obj
 0001:000474c0       ?_CallMemberFunction2@@YAXQEAX00H@Z 00000001800484c0 f i libvcruntimed:frame.obj
 0001:00047550       ?begin@HandlerMap4@FH4@@QEAA?AViterator@12@XZ 0000000180048550 f i libvcruntimed:frame.obj
 0001:00047580       ?begin@HandlerMap@__FrameHandler3@@QEAA?AViterator@12@XZ 0000000180048580 f i libvcruntimed:frame.obj
 0001:000475b0       ?begin@UWMap4@FH4@@QEAA?AViterator@12@XZ 00000001800485b0 f i libvcruntimed:frame.obj
 0001:000475e0       ?end@HandlerMap4@FH4@@QEAA?AViterator@12@XZ 00000001800485e0 f i libvcruntimed:frame.obj
 0001:00047610       ?end@HandlerMap@__FrameHandler3@@QEAA?AViterator@12@XZ 0000000180048610 f i libvcruntimed:frame.obj
 0001:00047640       ?getESTypes@__FrameHandler3@@SAPEBU_s_ESTypeList@@PEBU_s_FuncInfo@@@Z 0000000180048640 f i libvcruntimed:frame.obj
 0001:00047680       ?getESTypes@__FrameHandler4@@SAPEBU_s_ESTypeList@@PEAUFuncInfo4@FH4@@@Z 0000000180048680 f i libvcruntimed:frame.obj
 0001:00047690       ?getLastEntry@HandlerMap4@FH4@@QEAAPEAUHandlerType4@2@XZ 0000000180048690 f i libvcruntimed:frame.obj
 0001:000476d0       ?getLastEntry@HandlerMap@__FrameHandler3@@QEAAPEBU_s_HandlerType@@XZ 00000001800486d0 f i libvcruntimed:frame.obj
 0001:000476f0       ?getMagicNum@__FrameHandler3@@SAIPEBU_s_FuncInfo@@@Z 00000001800486f0 f i libvcruntimed:frame.obj
 0001:00047710       ?getMagicNum@__FrameHandler4@@SAIPEAUFuncInfo4@FH4@@@Z 0000000180048710 f i libvcruntimed:frame.obj
 0001:00047720       ?getNumTryBlocks@TryBlockMap4@FH4@@QEAAIXZ 0000000180048720 f i libvcruntimed:frame.obj
 0001:00047730       ?getNumTryBlocks@TryBlockMap@__FrameHandler3@@QEAAIXZ 0000000180048730 f i libvcruntimed:frame.obj
 0001:00047750       ?getStartStop@UWMap4@FH4@@QEAAXHHAEAViterator@12@0@Z 0000000180048750 f i libvcruntimed:frame.obj
 0001:00047870       ?getStateFromIterators@UWMap4@FH4@@SAHAEBViterator@12@H0H0@Z 0000000180048870 f i libvcruntimed:frame.obj
 0001:000479b0       ?isEHs@__FrameHandler3@@SA_NPEBU_s_FuncInfo@@@Z 00000001800489b0 f i libvcruntimed:frame.obj
 0001:000479f0       ?isEHs@__FrameHandler4@@SA_NPEAUFuncInfo4@FH4@@@Z 00000001800489f0 f i libvcruntimed:frame.obj
 0001:00047a10       ?isNoExcept@__FrameHandler3@@SA_NPEBU_s_FuncInfo@@@Z 0000000180048a10 f i libvcruntimed:frame.obj
 0001:00047a50       ?isNoExcept@__FrameHandler4@@SA_NPEAUFuncInfo4@FH4@@@Z 0000000180048a50 f i libvcruntimed:frame.obj
 0001:00047a70       ?reset@HandlerType4@FH4@@QEAAXXZ 0000000180048a70 f i libvcruntimed:frame.obj
 0001:00047ad0       ?resetBuffer@HandlerMap4@FH4@@QEAAXXZ 0000000180048ad0 f i libvcruntimed:frame.obj
 0001:00047af0       ?setBuffer@HandlerMap4@FH4@@QEAAXI@Z 0000000180048af0 f i libvcruntimed:frame.obj
 0001:00047b50       __BuildCatchObject         0000000180048b50 f   libvcruntimed:frame.obj
 0001:00047b90       __BuildCatchObjectHelper   0000000180048b90 f   libvcruntimed:frame.obj
 0001:00047bd0       __TypeMatch                0000000180048bd0 f   libvcruntimed:frame.obj
 0001:00047c00       __vcrt_EncodePointer       0000000180048c00 f i libvcruntimed:frame.obj
 0001:00047c20       ??$?0$00@DName@@QEAA@PEBDU?$StringLifeSelector@$00@@@Z 0000000180048c20 f i libvcruntimed:undname.obj
 0001:00047c90       ??$?0$00@pcharNode@@QEAA@PEBDHU?$StringLifeSelector@$00@@@Z 0000000180048c90 f i libvcruntimed:undname.obj
 0001:00047cf0       ??$?0$01@DName@@QEAA@PEBDU?$StringLifeSelector@$01@@@Z 0000000180048cf0 f i libvcruntimed:undname.obj
 0001:00047d60       ??$?0$01@pcharNode@@QEAA@PEBDHU?$StringLifeSelector@$01@@@Z 0000000180048d60 f i libvcruntimed:undname.obj
 0001:00047e10       ??$?0$0A@@DName@@QEAA@PEBDU?$StringLifeSelector@$0A@@@@Z 0000000180048e10 f i libvcruntimed:undname.obj
 0001:00047e80       ??$?0$0A@@pcharNode@@QEAA@PEBDHU?$StringLifeSelector@$0A@@@@Z 0000000180048e80 f i libvcruntimed:undname.obj
 0001:00047f30       ??$append@VDNameNode@@@DName@@AEAAXPEBVDNameNode@@@Z 0000000180048f30 f i libvcruntimed:undname.obj
 0001:00047fe0       ??$append@VDNameStatusNode@@@DName@@AEAAXPEBVDNameStatusNode@@@Z 0000000180048fe0 f i libvcruntimed:undname.obj
 0001:00048090       ??$append@VcharNode@@@DName@@AEAAXPEBVcharNode@@@Z 0000000180049090 f i libvcruntimed:undname.obj
 0001:00048140       ??$append@VpDNameNode@@@DName@@AEAAXPEBVpDNameNode@@@Z 0000000180049140 f i libvcruntimed:undname.obj
 0001:000481f0       ??$append@VpcharNode@@@DName@@AEAAXPEBVpcharNode@@@Z 00000001800491f0 f i libvcruntimed:undname.obj
 0001:000482a0       ??$doPchar@$00@DName@@AEAAXPEBDH@Z 00000001800492a0 f i libvcruntimed:undname.obj
 0001:00048400       ??$doPchar@$01@DName@@AEAAXPEBDH@Z 0000000180049400 f i libvcruntimed:undname.obj
 0001:00048560       ??$doPchar@$0A@@DName@@AEAAXPEBDH@Z 0000000180049560 f i libvcruntimed:undname.obj
 0001:000486c0       ??0Block@_HeapManager@@QEAA@XZ 00000001800496c0 f i libvcruntimed:undname.obj
 0001:000486e0       ??0DName@@QEAA@AEAPEBDD@Z  00000001800496e0 f   libvcruntimed:undname.obj
 0001:000488b0       ??0DName@@QEAA@AEBUStringLiteral@@@Z 00000001800498b0 f   libvcruntimed:undname.obj
 0001:00048910       ??0DName@@QEAA@AEBV0@@Z    0000000180049910 f i libvcruntimed:undname.obj
 0001:00048940       ??0DName@@QEAA@D@Z         0000000180049940 f   libvcruntimed:undname.obj
 0001:00048980       ??0DName@@QEAA@PEAV0@@Z    0000000180049980 f   libvcruntimed:undname.obj
 0001:00048a60       ??0DName@@QEAA@W4DNameStatus@@@Z 0000000180049a60 f   libvcruntimed:undname.obj
 0001:00048b10       ??0DName@@QEAA@XZ          0000000180049b10 f i libvcruntimed:undname.obj
 0001:00048b40       ??0DName@@QEAA@_J@Z        0000000180049b40 f   libvcruntimed:undname.obj
 0001:00048c50       ??0DName@@QEAA@_K@Z        0000000180049c50 f   libvcruntimed:undname.obj
 0001:00048d20       ??0DNameNode@@IEAA@XZ      0000000180049d20 f i libvcruntimed:undname.obj
 0001:00048d40       ??0Replicator@@QEAA@XZ     0000000180049d40 f i libvcruntimed:undname.obj
 0001:00048d80       ??0UnDecorator@@QEAA@PEBDP6APEADJ@ZK@Z 0000000180049d80 f i libvcruntimed:undname.obj
 0001:00048e30       ??0charNode@@QEAA@D@Z      0000000180049e30 f i libvcruntimed:undname.obj
 0001:00048e70       ??0pDNameNode@@QEAA@PEAVDName@@@Z 0000000180049e70 f   libvcruntimed:undname.obj
 0001:00048ef0       ??0pairNode@@QEAA@PEBVDNameNode@@0@Z 0000000180049ef0 f i libvcruntimed:undname.obj
 0001:00048f70       ??2@YAPEAX_KAEAV_HeapManager@@H@Z 0000000180049f70 f   libvcruntimed:undname.obj
 0001:00048fd0       ??4DName@@QEAAAEAV0@AEBUStringLiteral@@@Z 0000000180049fd0 f   libvcruntimed:undname.obj
 0001:00049020       ??4DName@@QEAAAEAV0@AEBV0@@Z 000000018004a020 f   libvcruntimed:undname.obj
 0001:00049050       ??4DName@@QEAAAEAV0@D@Z    000000018004a050 f i libvcruntimed:undname.obj
 0001:00049090       ??4DName@@QEAAAEAV0@PEAV0@@Z 000000018004a090 f   libvcruntimed:undname.obj
 0001:00049160       ??4DName@@QEAAAEAV0@W4DNameStatus@@@Z 000000018004a160 f   libvcruntimed:undname.obj
 0001:000491f0       ??AReplicator@@QEBA?AVDName@@H@Z 000000018004a1f0 f   libvcruntimed:undname.obj
 0001:00049280       ??H@YA?AVDName@@AEBUStringLiteral@@AEBV0@@Z 000000018004a280 f i libvcruntimed:undname.obj
 0001:000492d0       ??H@YA?AVDName@@DAEBV0@@Z  000000018004a2d0 f i libvcruntimed:undname.obj
 0001:00049320       ??H@YA?AVDName@@W4DNameStatus@@AEBV0@@Z 000000018004a320 f i libvcruntimed:undname.obj
 0001:00049370       ??HDName@@QEBA?AV0@AEBUStringLiteral@@@Z 000000018004a370 f   libvcruntimed:undname.obj
 0001:000493c0       ??HDName@@QEBA?AV0@AEBV0@@Z 000000018004a3c0 f   libvcruntimed:undname.obj
 0001:00049410       ??HDName@@QEBA?AV0@D@Z     000000018004a410 f   libvcruntimed:undname.obj
 0001:00049460       ??HDName@@QEBA?AV0@PEAV0@@Z 000000018004a460 f   libvcruntimed:undname.obj
 0001:000494b0       ??HDName@@QEBA?AV0@W4DNameStatus@@@Z 000000018004a4b0 f   libvcruntimed:undname.obj
 0001:00049500       ??HStringLiteral@@QEBA?AU0@H@Z 000000018004a500 f i libvcruntimed:undname.obj
 0001:00049540       ??YDName@@QEAAAEAV0@AEBUStringLiteral@@@Z 000000018004a540 f   libvcruntimed:undname.obj
 0001:00049610       ??YDName@@QEAAAEAV0@AEBV0@@Z 000000018004a610 f   libvcruntimed:undname.obj
 0001:000496d0       ??YDName@@QEAAAEAV0@D@Z    000000018004a6d0 f   libvcruntimed:undname.obj
 0001:00049770       ??YDName@@QEAAAEAV0@PEAV0@@Z 000000018004a770 f   libvcruntimed:undname.obj
 0001:00049850       ??YDName@@QEAAAEAV0@W4DNameStatus@@@Z 000000018004a850 f   libvcruntimed:undname.obj
 0001:000498c0       ??YReplicator@@QEAAAEAV0@AEBVDName@@@Z 000000018004a8c0 f   libvcruntimed:undname.obj
 0001:00049980       ??_5DName@@QEAAAEAV0@AEBV0@@Z 000000018004a980 f   libvcruntimed:undname.obj
 0001:000499f0       ??__K_l@@YA?AUStringLiteral@@PEBD_K@Z 000000018004a9f0 f i libvcruntimed:undname.obj
 0001:00049a40       ?Constructor@_HeapManager@@QEAAXP6APEAX_K@ZP6AXPEAX@Z@Z 000000018004aa40 f i libvcruntimed:undname.obj
 0001:00049aa0       ?Destructor@_HeapManager@@QEAAXXZ 000000018004aaa0 f i libvcruntimed:undname.obj
 0001:00049b40       ?UScore@UnDecorator@@SA?AUStringLiteral@@W4Tokens@@@Z 000000018004ab40 f   libvcruntimed:undname.obj
 0001:00049bd0       ?composeDeclaration@UnDecorator@@CA?AVDName@@AEBV2@@Z 000000018004abd0 f i libvcruntimed:undname.obj
 0001:0004c0d0       ?dbGetString@DName@@QEBAPEADXZ 000000018004d0d0 f   libvcruntimed:undname.obj
 0001:0004c100       ?doAccessSpecifiers@UnDecorator@@SAHXZ 000000018004d100 f i libvcruntimed:undname.obj
 0001:0004c130       ?doAllocationLanguage@UnDecorator@@SAHXZ 000000018004d130 f i libvcruntimed:undname.obj
 0001:0004c160       ?doAllocationModel@UnDecorator@@SAHXZ 000000018004d160 f i libvcruntimed:undname.obj
 0001:0004c190       ?doEcsu@UnDecorator@@SAHXZ 000000018004d190 f i libvcruntimed:undname.obj
 0001:0004c1c0       ?doEllipsis@UnDecorator@@SAHXZ 000000018004d1c0 f i libvcruntimed:undname.obj
 0001:0004c1f0       ?doFunctionReturns@UnDecorator@@SAHXZ 000000018004d1f0 f i libvcruntimed:undname.obj
 0001:0004c220       ?doMSKeywords@UnDecorator@@SAHXZ 000000018004d220 f i libvcruntimed:undname.obj
 0001:0004c250       ?doMemberTypes@UnDecorator@@SAHXZ 000000018004d250 f i libvcruntimed:undname.obj
 0001:0004c280       ?doNameOnly@UnDecorator@@SAHXZ 000000018004d280 f i libvcruntimed:undname.obj
 0001:0004c290       ?doNoIdentCharCheck@UnDecorator@@SAHXZ 000000018004d290 f i libvcruntimed:undname.obj
 0001:0004c2a0       ?doPchar@DName@@AEAAXD@Z   000000018004d2a0 f   libvcruntimed:undname.obj
 0001:0004c330       ?doPtr64@UnDecorator@@SAHXZ 000000018004d330 f i libvcruntimed:undname.obj
 0001:0004c360       ?doRestrictionSpec@UnDecorator@@SAHXZ 000000018004d360 f i libvcruntimed:undname.obj
 0001:0004c390       ?doThisTypes@UnDecorator@@SAHXZ 000000018004d390 f i libvcruntimed:undname.obj
 0001:0004c3c0       ?doThrowTypes@UnDecorator@@SAHXZ 000000018004d3c0 f i libvcruntimed:undname.obj
 0001:0004c3f0       ?doTypeOnly@UnDecorator@@SAHXZ 000000018004d3f0 f i libvcruntimed:undname.obj
 0001:0004c400       ?doUnderScore@UnDecorator@@SAHXZ 000000018004d400 f i libvcruntimed:undname.obj
 0001:0004c430       ?getArgumentList@UnDecorator@@CA?AVDName@@XZ 000000018004d430 f   libvcruntimed:undname.obj
 0001:0004c5d0       ?getArgumentTypes@UnDecorator@@CA?AVDName@@XZ 000000018004d5d0 f   libvcruntimed:undname.obj
 0001:0004c930       ?getArrayType@UnDecorator@@CA?AVDName@@AEBV2@@Z 000000018004d930 f i libvcruntimed:undname.obj
 0001:0004ccf0       ?getBasedType@UnDecorator@@CA?AVDName@@XZ 000000018004dcf0 f   libvcruntimed:undname.obj
 0001:0004ce60       ?getBasicDataType@UnDecorator@@CA?AVDName@@AEBV2@@Z 000000018004de60 f   libvcruntimed:undname.obj
 0001:0004db30       ?getCHPEName@UnDecorator@@QEAAPEADPEADH@Z 000000018004eb30 f i libvcruntimed:undname.obj
 0001:0004dd00       ?getCallIndex@UnDecorator@@CA?AVDName@@XZ 000000018004ed00 f i libvcruntimed:undname.obj
 0001:0004dd20       ?getCallingConvention@UnDecorator@@CA?AVDName@@XZ 000000018004ed20 f   libvcruntimed:undname.obj
 0001:0004e0c0       ?getDataIndirectType@UnDecorator@@CA?AVDName@@AEBV2@W4IndirectionKind@@0H@Z 000000018004f0c0 f   libvcruntimed:undname.obj
 0001:0004ed60       ?getDataIndirectType@UnDecorator@@CA?AVDName@@XZ 000000018004fd60 f i libvcruntimed:undname.obj
 0001:0004edb0       ?getDataType@UnDecorator@@CA?AVDName@@PEAV2@@Z 000000018004fdb0 f   libvcruntimed:undname.obj
 0001:0004ef90       ?getDecoratedName@UnDecorator@@CA?AVDName@@XZ 000000018004ff90 f   libvcruntimed:undname.obj
 0001:0004f490       ?getDimension@UnDecorator@@CA?AVDName@@_N@Z 0000000180050490 f   libvcruntimed:undname.obj
 0001:0004f840       ?getDispatchTarget@UnDecorator@@CA?AVDName@@XZ 0000000180050840 f   libvcruntimed:undname.obj
 0001:0004f910       ?getDisplacement@UnDecorator@@CA?AVDName@@XZ 0000000180050910 f i libvcruntimed:undname.obj
 0001:0004f930       ?getECSUDataType@UnDecorator@@CA?AVDName@@XZ 0000000180050930 f   libvcruntimed:undname.obj
 0001:0004fca0       ?getECSUName@UnDecorator@@CA?AVDName@@XZ 0000000180050ca0 f i libvcruntimed:undname.obj
 0001:0004fcc0       ?getEnumType@UnDecorator@@CA?AVDName@@XZ 0000000180050cc0 f i libvcruntimed:undname.obj
 0001:0004ff50       ?getExtendedDataIndirectType@UnDecorator@@CA?AVDName@@AEAW4IndirectionKind@@AEA_NH@Z 0000000180050f50 f   libvcruntimed:undname.obj
 0001:00050270       ?getExternalDataType@UnDecorator@@CA?AVDName@@AEBV2@@Z 0000000180051270 f i libvcruntimed:undname.obj
 0001:00050350       ?getFunctionIndirectType@UnDecorator@@CA?AVDName@@AEBV2@@Z 0000000180051350 f   libvcruntimed:undname.obj
 0001:00050980       ?getGuardNumber@UnDecorator@@CA?AVDName@@XZ 0000000180051980 f i libvcruntimed:undname.obj
 0001:000509a0       ?getLastChar@DName@@QEBADXZ 00000001800519a0 f i libvcruntimed:undname.obj
 0001:000509f0       ?getLastChar@DNameStatusNode@@UEBADXZ 00000001800519f0 f i libvcruntimed:undname.obj
 0001:00050a30       ?getLastChar@charNode@@UEBADXZ 0000000180051a30 f i libvcruntimed:undname.obj
 0001:00050a40       ?getLastChar@pDNameNode@@UEBADXZ 0000000180051a40 f i libvcruntimed:undname.obj
 0001:00050a80       ?getLastChar@pairNode@@UEBADXZ 0000000180051a80 f i libvcruntimed:undname.obj
 0001:00050b00       ?getLastChar@pcharNode@@UEBADXZ 0000000180051b00 f i libvcruntimed:undname.obj
 0001:00050b40       ?getLexicalFrame@UnDecorator@@CA?AVDName@@XZ 0000000180051b40 f i libvcruntimed:undname.obj
 0001:00050b90       ?getMemoryWithBuffer@_HeapManager@@QEAAPEAX_K@Z 0000000180051b90 f   libvcruntimed:undname.obj
 0001:00050ce0       ?getMemoryWithoutBuffer@_HeapManager@@QEAAPEAX_K@Z 0000000180051ce0 f   libvcruntimed:undname.obj
 0001:00050d30       ?getNoexcept@UnDecorator@@CA?AVDName@@XZ 0000000180051d30 f   libvcruntimed:undname.obj
 0001:00050de0       ?getNumberOfDimensions@UnDecorator@@CAHXZ 0000000180051de0 f   libvcruntimed:undname.obj
 0001:00050f00       ?getOperatorName@UnDecorator@@CA?AVDName@@_NPEA_N@Z 0000000180051f00 f i libvcruntimed:undname.obj
 0001:00051db0       ?getPointerType@UnDecorator@@CA?AVDName@@AEBV2@0@Z 0000000180052db0 f i libvcruntimed:undname.obj
 0001:00051df0       ?getPointerTypeArray@UnDecorator@@CA?AVDName@@AEBV2@0@Z 0000000180052df0 f i libvcruntimed:undname.obj
 0001:00051e30       ?getPrimaryDataType@UnDecorator@@CA?AVDName@@AEBV2@@Z 0000000180052e30 f   libvcruntimed:undname.obj
 0001:00052420       ?getPtrRefDataType@UnDecorator@@CA?AVDName@@AEBV2@H@Z 0000000180053420 f   libvcruntimed:undname.obj
 0001:00052810       ?getPtrRefType@UnDecorator@@CA?AVDName@@AEBV2@0W4IndirectionKind@@@Z 0000000180053810 f   libvcruntimed:undname.obj
 0001:00052a50       ?getReferenceType@UnDecorator@@CA?AVDName@@AEBV2@0W4IndirectionKind@@@Z 0000000180053a50 f i libvcruntimed:undname.obj
 0001:00052a90       ?getRestrictionSpec@UnDecorator@@CA?AVDName@@XZ 0000000180053a90 f   libvcruntimed:undname.obj
 0001:00052d20       ?getReturnType@UnDecorator@@CA?AVDName@@PEAV2@@Z 0000000180053d20 f   libvcruntimed:undname.obj
 0001:00052d80       ?getScope@UnDecorator@@CA?AVDName@@XZ 0000000180053d80 f   libvcruntimed:undname.obj
 0001:000534d0       ?getScopedName@UnDecorator@@CA?AVDName@@XZ 00000001800544d0 f   libvcruntimed:undname.obj
 0001:000536d0       ?getSignedDimension@UnDecorator@@CA?AVDName@@XZ 00000001800546d0 f   libvcruntimed:undname.obj
 0001:00053760       ?getStorageConvention@UnDecorator@@CA?AVDName@@XZ 0000000180054760 f i libvcruntimed:undname.obj
 0001:00053780       ?getString@DName@@QEBAPEADPEAD0@Z 0000000180054780 f i libvcruntimed:undname.obj
 0001:00053800       ?getString@DName@@QEBAPEADPEADH@Z 0000000180054800 f i libvcruntimed:undname.obj
 0001:000538c0       ?getString@DNameStatusNode@@UEBAPEADPEAD0@Z 00000001800548c0 f i libvcruntimed:undname.obj
 0001:00053910       ?getString@charNode@@UEBAPEADPEAD0@Z 0000000180054910 f i libvcruntimed:undname.obj
 0001:00053950       ?getString@pDNameNode@@UEBAPEADPEAD0@Z 0000000180054950 f i libvcruntimed:undname.obj
 0001:000539b0       ?getString@pairNode@@UEBAPEADPEAD0@Z 00000001800549b0 f i libvcruntimed:undname.obj
 0001:00053a80       ?getString@pcharNode@@UEBAPEADPEAD0@Z 0000000180054a80 f i libvcruntimed:undname.obj
 0001:00053ac0       ?getStringEncoding@UnDecorator@@CA?AVDName@@W4PrefixKind@@H@Z 0000000180054ac0 f   libvcruntimed:undname.obj
 0001:00053c20       ?getStringHelper@@YAPEADPEADPEBD1H@Z 0000000180054c20 f i libvcruntimed:undname.obj
 0001:00053c90       ?getSymbolName@UnDecorator@@CA?AVDName@@XZ 0000000180054c90 f i libvcruntimed:undname.obj
 0001:00053d30       ?getTemplateArgumentList@UnDecorator@@CA?AVDName@@XZ 0000000180054d30 f   libvcruntimed:undname.obj
 0001:00054040       ?getTemplateName@UnDecorator@@CA?AVDName@@_N@Z 0000000180055040 f   libvcruntimed:undname.obj
 0001:00054280       ?getTemplateNonTypeArgument@UnDecorator@@CA?AVDName@@XZ 0000000180055280 f   libvcruntimed:undname.obj
 0001:00054ac0       ?getTemplateTypeArgument@UnDecorator@@CA?AVDName@@XZ 0000000180055ac0 f   libvcruntimed:undname.obj
 0001:00054d30       ?getThisType@UnDecorator@@CA?AVDName@@XZ 0000000180055d30 f i libvcruntimed:undname.obj
 0001:00054d80       ?getThrowTypes@UnDecorator@@CA?AVDName@@XZ 0000000180055d80 f   libvcruntimed:undname.obj
 0001:00054dd0       ?getTypeEncoding@UnDecorator@@CAHXZ 0000000180055dd0 f i libvcruntimed:undname.obj
 0001:00055a00       ?getUndecoratedName@UnDecorator@@QEAAPEADPEADH@Z 0000000180056a00 f i libvcruntimed:undname.obj
 0001:00055bf0       ?getVCallThunkType@UnDecorator@@CA?AVDName@@XZ 0000000180056bf0 f i libvcruntimed:undname.obj
 0001:00055ca0       ?getVbTableType@UnDecorator@@CA?AVDName@@AEBV2@@Z 0000000180056ca0 f i libvcruntimed:undname.obj
 0001:00055cd0       ?getVdispMapType@UnDecorator@@CA?AVDName@@AEBV2@@Z 0000000180056cd0 f i libvcruntimed:undname.obj
 0001:00055d90       ?getVfTableType@UnDecorator@@CA?AVDName@@AEBV2@@Z 0000000180056d90 f i libvcruntimed:undname.obj
 0001:00056030       ?getZName@UnDecorator@@CA?AVDName@@_N0@Z 0000000180057030 f   libvcruntimed:undname.obj
 0001:000564c0       ?haveTemplateParameters@UnDecorator@@SAHXZ 00000001800574c0 f i libvcruntimed:undname.obj
 0001:000564d0       ?isArray@DName@@QEBAHXZ    00000001800574d0 f i libvcruntimed:undname.obj
 0001:000564f0       ?isComArray@DName@@QEBAHXZ 00000001800574f0 f i libvcruntimed:undname.obj
 0001:00056510       ?isEmpty@DName@@QEBAHXZ    0000000180057510 f i libvcruntimed:undname.obj
 0001:00056540       ?isFull@Replicator@@QEBAHXZ 0000000180057540 f i libvcruntimed:undname.obj
 0001:00056570       ?isNoTE@DName@@QEBAHXZ     0000000180057570 f i libvcruntimed:undname.obj
 0001:00056590       ?isPinPtr@DName@@QEBAHXZ   0000000180057590 f i libvcruntimed:undname.obj
 0001:000565b0       ?isPtrRef@DName@@QEBAHXZ   00000001800575b0 f i libvcruntimed:undname.obj
 0001:000565d0       ?isUDC@DName@@QEBAHXZ      00000001800575d0 f i libvcruntimed:undname.obj
 0001:00056620       ?isUDTThunk@DName@@QEBAHXZ 0000000180057620 f i libvcruntimed:undname.obj
 0001:00056670       ?isVCallThunk@DName@@QEBAHXZ 0000000180057670 f i libvcruntimed:undname.obj
 0001:00056690       ?isValid@DName@@QEBAHXZ    0000000180057690 f i libvcruntimed:undname.obj
 0001:000566d0       ?length@DName@@QEBAHXZ     00000001800576d0 f i libvcruntimed:undname.obj
 0001:00056720       ?length@DNameStatusNode@@UEBAHXZ 0000000180057720 f i libvcruntimed:undname.obj
 0001:00056730       ?length@charNode@@UEBAHXZ  0000000180057730 f i libvcruntimed:undname.obj
 0001:00056740       ?length@pDNameNode@@UEBAHXZ 0000000180057740 f i libvcruntimed:undname.obj
 0001:00056780       ?length@pairNode@@UEBAHXZ  0000000180057780 f i libvcruntimed:undname.obj
 0001:00056810       ?length@pcharNode@@UEBAHXZ 0000000180057810 f i libvcruntimed:undname.obj
 0001:00056820       ?make@DNameStatusNode@@SAPEBV1@W4DNameStatus@@@Z 0000000180057820 f i libvcruntimed:undname.obj
 0001:00056870       ?parseDecoratedName@UnDecorator@@CA?AVDName@@XZ 0000000180057870 f   libvcruntimed:undname.obj
 0001:00056a60       ?raw_length@DNameStatusNode@@UEBAHXZ 0000000180057a60 f i libvcruntimed:undname.obj
 0001:00056a80       ?raw_length@charNode@@UEBAHXZ 0000000180057a80 f i libvcruntimed:undname.obj
 0001:00056aa0       ?raw_length@pDNameNode@@UEBAHXZ 0000000180057aa0 f i libvcruntimed:undname.obj
 0001:00056ab0       ?raw_length@pairNode@@UEBAHXZ 0000000180057ab0 f i libvcruntimed:undname.obj
 0001:00056ac0       ?raw_length@pcharNode@@UEBAHXZ 0000000180057ac0 f i libvcruntimed:undname.obj
 0001:00056ae0       ?setIsArray@DName@@QEAAXXZ 0000000180057ae0 f i libvcruntimed:undname.obj
 0001:00056b00       ?setIsComArray@DName@@QEAAXXZ 0000000180057b00 f i libvcruntimed:undname.obj
 0001:00056b20       ?setIsNoTE@DName@@QEAAXXZ  0000000180057b20 f i libvcruntimed:undname.obj
 0001:00056b40       ?setIsPinPtr@DName@@QEAAXXZ 0000000180057b40 f i libvcruntimed:undname.obj
 0001:00056b60       ?setIsUDC@DName@@QEAAXXZ   0000000180057b60 f i libvcruntimed:undname.obj
 0001:00056b90       ?setIsVCallThunk@DName@@QEAAXXZ 0000000180057b90 f i libvcruntimed:undname.obj
 0001:00056bb0       ?setPtrRef@DName@@QEAAAEAV1@XZ 0000000180057bb0 f i libvcruntimed:undname.obj
 0001:00056bd0       ?status@DName@@QEBA?AW4DNameStatus@@XZ 0000000180057bd0 f i libvcruntimed:undname.obj
 0001:00056d00       __unDName                  0000000180057d00 f   libvcruntimed:undname.obj
 0001:00056d60       __unDNameEx                0000000180057d60 f   libvcruntimed:undname.obj
 0001:00056e20       unDNameGenerateCHPE        0000000180057e20 f   libvcruntimed:undname.obj
 0001:00056ed0       ??$__crt_interlocked_exchange_pointer@UHINSTANCE__@@PEAU1@@@YAPEAUHINSTANCE__@@PEDSEAU0@QEAU0@@Z 0000000180057ed0 f i libvcruntimed:winapi_downlevel.obj
 0001:00056ef0       ??$__crt_interlocked_exchange_pointer@UHINSTANCE__@@PEAX@@YAPEAUHINSTANCE__@@PEDSEAU0@QEAX@Z 0000000180057ef0 f i libvcruntimed:winapi_downlevel.obj
 0001:00056f10       ??$__crt_interlocked_exchange_pointer@XPEAX@@YAPEAXPEDSEAXQEAX@Z 0000000180057f10 f i libvcruntimed:winapi_downlevel.obj
 0001:00056f30       ??$__crt_interlocked_read_pointer@UHINSTANCE__@@@@YAPEAUHINSTANCE__@@PEDSEAU0@@Z 0000000180057f30 f i libvcruntimed:winapi_downlevel.obj
 0001:00056f50       ??$__crt_interlocked_read_pointer@X@@YAPEAXPEDSEAX@Z 0000000180057f50 f i libvcruntimed:winapi_downlevel.obj
 0001:00057460       __vcrt_FlsAlloc            0000000180058460 f   libvcruntimed:winapi_downlevel.obj
 0001:000574b0       __vcrt_FlsFree             00000001800584b0 f   libvcruntimed:winapi_downlevel.obj
 0001:00057500       __vcrt_FlsGetValue         0000000180058500 f   libvcruntimed:winapi_downlevel.obj
 0001:00057550       __vcrt_FlsSetValue         0000000180058550 f   libvcruntimed:winapi_downlevel.obj
 0001:000575b0       __vcrt_InitializeCriticalSectionEx 00000001800585b0 f   libvcruntimed:winapi_downlevel.obj
 0001:00057630       _CallSettingFrame          0000000180058630 f   libvcruntimed:handlers.obj
 0001:00057680       _CallSettingFrame_LookupContinuationIndex 0000000180058680 f   libvcruntimed:handlers.obj
 0001:000576b0       _CallSettingFrame_NotifyContinuationAddr 00000001800586b0 f   libvcruntimed:handlers.obj
 0001:000576e0       _CallSettingFrameEncoded   00000001800586e0 f   libvcruntimed:handlers.obj
 0001:00057730       ??$?0AEBV?$stream_output_adapter@D@__crt_stdio_output@@AEB_KAEBQEBDAEBQEAU__crt_locale_pointers@@AEBQEAD@?$format_validation_base@DV?$stream_output_adapter@D@__crt_stdio_output@@@__crt_stdio_output@@IEAA@AEBV?$stream_output_adapter@D@1@AEB_KAEBQEBDAEBQEAU__crt_locale_pointers@@AEBQEAD@Z 0000000180058730 f i libucrtd:output.obj
 0001:00057780       ??$?0AEBV?$stream_output_adapter@D@__crt_stdio_output@@AEB_KAEBQEBDAEBQEAU__crt_locale_pointers@@AEBQEAD@?$positional_parameter_base@DV?$stream_output_adapter@D@__crt_stdio_output@@@__crt_stdio_output@@IEAA@AEBV?$stream_output_adapter@D@1@AEB_KAEBQEBDAEBQEAU__crt_locale_pointers@@AEBQEAD@Z 0000000180058780 f i libucrtd:output.obj
 0001:00057820       ??$?0AEBV?$stream_output_adapter@D@__crt_stdio_output@@AEB_KAEBQEBDAEBQEAU__crt_locale_pointers@@AEBQEAD@?$standard_base@DV?$stream_output_adapter@D@__crt_stdio_output@@@__crt_stdio_output@@IEAA@AEBV?$stream_output_adapter@D@1@AEB_KAEBQEBDAEBQEAU__crt_locale_pointers@@AEBQEAD@Z 0000000180058820 f i libucrtd:output.obj
 0001:00057890       ??$?0AEBV?$stream_output_adapter@_W@__crt_stdio_output@@AEB_KAEBQEB_WAEBQEAU__crt_locale_pointers@@AEBQEAD@?$format_validation_base@_WV?$stream_output_adapter@_W@__crt_stdio_output@@@__crt_stdio_output@@IEAA@AEBV?$stream_output_adapter@_W@1@AEB_KAEBQEB_WAEBQEAU__crt_locale_pointers@@AEBQEAD@Z 0000000180058890 f i libucrtd:output.obj
 0001:000578e0       ??$?0AEBV?$stream_output_adapter@_W@__crt_stdio_output@@AEB_KAEBQEB_WAEBQEAU__crt_locale_pointers@@AEBQEAD@?$positional_parameter_base@_WV?$stream_output_adapter@_W@__crt_stdio_output@@@__crt_stdio_output@@IEAA@AEBV?$stream_output_adapter@_W@1@AEB_KAEBQEB_WAEBQEAU__crt_locale_pointers@@AEBQEAD@Z 00000001800588e0 f i libucrtd:output.obj
 0001:00057980       ??$?0AEBV?$stream_output_adapter@_W@__crt_stdio_output@@AEB_KAEBQEB_WAEBQEAU__crt_locale_pointers@@AEBQEAD@?$standard_base@_WV?$stream_output_adapter@_W@__crt_stdio_output@@@__crt_stdio_output@@IEAA@AEBV?$stream_output_adapter@_W@1@AEB_KAEBQEB_WAEBQEAU__crt_locale_pointers@@AEBQEAD@Z 0000000180058980 f i libucrtd:output.obj
 0001:000579f0       ??$?0AEBV?$string_output_adapter@D@__crt_stdio_output@@AEB_KAEBQEBDAEBQEAU__crt_locale_pointers@@AEBQEAD@?$format_validation_base@DV?$string_output_adapter@D@__crt_stdio_output@@@__crt_stdio_output@@IEAA@AEBV?$string_output_adapter@D@1@AEB_KAEBQEBDAEBQEAU__crt_locale_pointers@@AEBQEAD@Z 00000001800589f0 f i libucrtd:output.obj
 0001:00057a40       ??$?0AEBV?$string_output_adapter@D@__crt_stdio_output@@AEB_KAEBQEBDAEBQEAU__crt_locale_pointers@@AEBQEAD@?$positional_parameter_base@DV?$string_output_adapter@D@__crt_stdio_output@@@__crt_stdio_output@@IEAA@AEBV?$string_output_adapter@D@1@AEB_KAEBQEBDAEBQEAU__crt_locale_pointers@@AEBQEAD@Z 0000000180058a40 f i libucrtd:output.obj
 0001:00057ae0       ??$?0AEBV?$string_output_adapter@D@__crt_stdio_output@@AEB_KAEBQEBDAEBQEAU__crt_locale_pointers@@AEBQEAD@?$standard_base@DV?$string_output_adapter@D@__crt_stdio_output@@@__crt_stdio_output@@IEAA@AEBV?$string_output_adapter@D@1@AEB_KAEBQEBDAEBQEAU__crt_locale_pointers@@AEBQEAD@Z 0000000180058ae0 f i libucrtd:output.obj
 0001:00057b50       ??$?0AEBV?$string_output_adapter@_W@__crt_stdio_output@@AEB_KAEBQEB_WAEBQEAU__crt_locale_pointers@@AEBQEAD@?$format_validation_base@_WV?$string_output_adapter@_W@__crt_stdio_output@@@__crt_stdio_output@@IEAA@AEBV?$string_output_adapter@_W@1@AEB_KAEBQEB_WAEBQEAU__crt_locale_pointers@@AEBQEAD@Z 0000000180058b50 f i libucrtd:output.obj
 0001:00057ba0       ??$?0AEBV?$string_output_adapter@_W@__crt_stdio_output@@AEB_KAEBQEB_WAEBQEAU__crt_locale_pointers@@AEBQEAD@?$positional_parameter_base@_WV?$string_output_adapter@_W@__crt_stdio_output@@@__crt_stdio_output@@IEAA@AEBV?$string_output_adapter@_W@1@AEB_KAEBQEB_WAEBQEAU__crt_locale_pointers@@AEBQEAD@Z 0000000180058ba0 f i libucrtd:output.obj
 0001:00057c40       ??$?0AEBV?$string_output_adapter@_W@__crt_stdio_output@@AEB_KAEBQEB_WAEBQEAU__crt_locale_pointers@@AEBQEAD@?$standard_base@_WV?$string_output_adapter@_W@__crt_stdio_output@@@__crt_stdio_output@@IEAA@AEBV?$string_output_adapter@_W@1@AEB_KAEBQEB_WAEBQEAU__crt_locale_pointers@@AEBQEAD@Z 0000000180058c40 f i libucrtd:output.obj
 0001:00058070       ??$__crt_interlocked_read@J@@YAJPEDJ@Z 0000000180059070 f i libucrtd:output.obj
 0001:0005bb50       ??$count@D@formatting_buffer@__crt_stdio_output@@QEBA_KXZ 000000018005cb50 f i libucrtd:output.obj
 0001:0005bba0       ??$count@_W@formatting_buffer@__crt_stdio_output@@QEBA_KXZ 000000018005cba0 f i libucrtd:output.obj
 0001:0005bbf0       ??$data@D@formatting_buffer@__crt_stdio_output@@QEAAPEADXZ 000000018005cbf0 f i libucrtd:output.obj
 0001:0005bc40       ??$data@_W@formatting_buffer@__crt_stdio_output@@QEAAPEA_WXZ 000000018005cc40 f i libucrtd:output.obj
 0001:0005bc90       ??$ensure_buffer_is_big_enough@D@formatting_buffer@__crt_stdio_output@@QEAA_N_K@Z 000000018005cc90 f i libucrtd:output.obj
 0001:0005bdc0       ??$ensure_buffer_is_big_enough@_W@formatting_buffer@__crt_stdio_output@@QEAA_N_K@Z 000000018005cdc0 f i libucrtd:output.obj
 0001:0005bef0       ??$extract_argument_from_va_list@C_J@?$positional_parameter_base@DV?$stream_output_adapter@D@__crt_stdio_output@@@__crt_stdio_output@@IEAA_NAEA_J@Z 000000018005cef0 f i libucrtd:output.obj
 0001:0005c070       ??$extract_argument_from_va_list@C_J@?$positional_parameter_base@DV?$string_output_adapter@D@__crt_stdio_output@@@__crt_stdio_output@@IEAA_NAEA_J@Z 000000018005d070 f i libucrtd:output.obj
 0001:0005c1f0       ??$extract_argument_from_va_list@C_J@?$positional_parameter_base@_WV?$stream_output_adapter@_W@__crt_stdio_output@@@__crt_stdio_output@@IEAA_NAEA_J@Z 000000018005d1f0 f i libucrtd:output.obj
 0001:0005c370       ??$extract_argument_from_va_list@C_J@?$positional_parameter_base@_WV?$string_output_adapter@_W@__crt_stdio_output@@@__crt_stdio_output@@IEAA_NAEA_J@Z 000000018005d370 f i libucrtd:output.obj
 0001:0005c4f0       ??$extract_argument_from_va_list@C_J@?$standard_base@DV?$stream_output_adapter@D@__crt_stdio_output@@@__crt_stdio_output@@IEAA_NAEA_J@Z 000000018005d4f0 f i libucrtd:output.obj
 0001:0005c530       ??$extract_argument_from_va_list@C_J@?$standard_base@DV?$string_output_adapter@D@__crt_stdio_output@@@__crt_stdio_output@@IEAA_NAEA_J@Z 000000018005d530 f i libucrtd:output.obj
 0001:0005c570       ??$extract_argument_from_va_list@C_J@?$standard_base@_WV?$stream_output_adapter@_W@__crt_stdio_output@@@__crt_stdio_output@@IEAA_NAEA_J@Z 000000018005d570 f i libucrtd:output.obj
 0001:0005c5b0       ??$extract_argument_from_va_list@C_J@?$standard_base@_WV?$string_output_adapter@_W@__crt_stdio_output@@@__crt_stdio_output@@IEAA_NAEA_J@Z 000000018005d5b0 f i libucrtd:output.obj
 0001:0005c5f0       ??$extract_argument_from_va_list@E_J@?$positional_parameter_base@DV?$stream_output_adapter@D@__crt_stdio_output@@@__crt_stdio_output@@IEAA_NAEA_J@Z 000000018005d5f0 f i libucrtd:output.obj
 0001:0005c770       ??$extract_argument_from_va_list@E_J@?$positional_parameter_base@DV?$string_output_adapter@D@__crt_stdio_output@@@__crt_stdio_output@@IEAA_NAEA_J@Z 000000018005d770 f i libucrtd:output.obj
 0001:0005c8f0       ??$extract_argument_from_va_list@E_J@?$positional_parameter_base@_WV?$stream_output_adapter@_W@__crt_stdio_output@@@__crt_stdio_output@@IEAA_NAEA_J@Z 000000018005d8f0 f i libucrtd:output.obj
 0001:0005ca70       ??$extract_argument_from_va_list@E_J@?$positional_parameter_base@_WV?$string_output_adapter@_W@__crt_stdio_output@@@__crt_stdio_output@@IEAA_NAEA_J@Z 000000018005da70 f i libucrtd:output.obj
 0001:0005cbf0       ??$extract_argument_from_va_list@E_J@?$standard_base@DV?$stream_output_adapter@D@__crt_stdio_output@@@__crt_stdio_output@@IEAA_NAEA_J@Z 000000018005dbf0 f i libucrtd:output.obj
 0001:0005cc30       ??$extract_argument_from_va_list@E_J@?$standard_base@DV?$string_output_adapter@D@__crt_stdio_output@@@__crt_stdio_output@@IEAA_NAEA_J@Z 000000018005dc30 f i libucrtd:output.obj
 0001:0005cc70       ??$extract_argument_from_va_list@E_J@?$standard_base@_WV?$stream_output_adapter@_W@__crt_stdio_output@@@__crt_stdio_output@@IEAA_NAEA_J@Z 000000018005dc70 f i libucrtd:output.obj
 0001:0005ccb0       ??$extract_argument_from_va_list@E_J@?$standard_base@_WV?$string_output_adapter@_W@__crt_stdio_output@@@__crt_stdio_output@@IEAA_NAEA_J@Z 000000018005dcb0 f i libucrtd:output.obj
 0001:0005ccf0       ??$extract_argument_from_va_list@F_J@?$positional_parameter_base@DV?$stream_output_adapter@D@__crt_stdio_output@@@__crt_stdio_output@@IEAA_NAEA_J@Z 000000018005dcf0 f i libucrtd:output.obj
 0001:0005ce70       ??$extract_argument_from_va_list@F_J@?$positional_parameter_base@DV?$string_output_adapter@D@__crt_stdio_output@@@__crt_stdio_output@@IEAA_NAEA_J@Z 000000018005de70 f i libucrtd:output.obj
 0001:0005cff0       ??$extract_argument_from_va_list@F_J@?$positional_parameter_base@_WV?$stream_output_adapter@_W@__crt_stdio_output@@@__crt_stdio_output@@IEAA_NAEA_J@Z 000000018005dff0 f i libucrtd:output.obj
 0001:0005d170       ??$extract_argument_from_va_list@F_J@?$positional_parameter_base@_WV?$string_output_adapter@_W@__crt_stdio_output@@@__crt_stdio_output@@IEAA_NAEA_J@Z 000000018005e170 f i libucrtd:output.obj
 0001:0005d2f0       ??$extract_argument_from_va_list@F_J@?$standard_base@DV?$stream_output_adapter@D@__crt_stdio_output@@@__crt_stdio_output@@IEAA_NAEA_J@Z 000000018005e2f0 f i libucrtd:output.obj
 0001:0005d330       ??$extract_argument_from_va_list@F_J@?$standard_base@DV?$string_output_adapter@D@__crt_stdio_output@@@__crt_stdio_output@@IEAA_NAEA_J@Z 000000018005e330 f i libucrtd:output.obj
 0001:0005d370       ??$extract_argument_from_va_list@F_J@?$standard_base@_WV?$stream_output_adapter@_W@__crt_stdio_output@@@__crt_stdio_output@@IEAA_NAEA_J@Z 000000018005e370 f i libucrtd:output.obj
 0001:0005d3b0       ??$extract_argument_from_va_list@F_J@?$standard_base@_WV?$string_output_adapter@_W@__crt_stdio_output@@@__crt_stdio_output@@IEAA_NAEA_J@Z 000000018005e3b0 f i libucrtd:output.obj
 0001:0005d3f0       ??$extract_argument_from_va_list@GD@?$positional_parameter_base@DV?$stream_output_adapter@D@__crt_stdio_output@@@__crt_stdio_output@@IEAA_NAEAD@Z 000000018005e3f0 f i libucrtd:output.obj
 0001:0005d570       ??$extract_argument_from_va_list@GD@?$positional_parameter_base@DV?$string_output_adapter@D@__crt_stdio_output@@@__crt_stdio_output@@IEAA_NAEAD@Z 000000018005e570 f i libucrtd:output.obj
 0001:0005d6f0       ??$extract_argument_from_va_list@GD@?$standard_base@DV?$stream_output_adapter@D@__crt_stdio_output@@@__crt_stdio_output@@IEAA_NAEAD@Z 000000018005e6f0 f i libucrtd:output.obj
 0001:0005d720       ??$extract_argument_from_va_list@GD@?$standard_base@DV?$string_output_adapter@D@__crt_stdio_output@@@__crt_stdio_output@@IEAA_NAEAD@Z 000000018005e720 f i libucrtd:output.obj
 0001:0005d750       ??$extract_argument_from_va_list@G_J@?$positional_parameter_base@DV?$stream_output_adapter@D@__crt_stdio_output@@@__crt_stdio_output@@IEAA_NAEA_J@Z 000000018005e750 f i libucrtd:output.obj
 0001:0005d8d0       ??$extract_argument_from_va_list@G_J@?$positional_parameter_base@DV?$string_output_adapter@D@__crt_stdio_output@@@__crt_stdio_output@@IEAA_NAEA_J@Z 000000018005e8d0 f i libucrtd:output.obj
 0001:0005da50       ??$extract_argument_from_va_list@G_J@?$positional_parameter_base@_WV?$stream_output_adapter@_W@__crt_stdio_output@@@__crt_stdio_output@@IEAA_NAEA_J@Z 000000018005ea50 f i libucrtd:output.obj
 0001:0005dbd0       ??$extract_argument_from_va_list@G_J@?$positional_parameter_base@_WV?$string_output_adapter@_W@__crt_stdio_output@@@__crt_stdio_output@@IEAA_NAEA_J@Z 000000018005ebd0 f i libucrtd:output.obj
 0001:0005dd50       ??$extract_argument_from_va_list@G_J@?$standard_base@DV?$stream_output_adapter@D@__crt_stdio_output@@@__crt_stdio_output@@IEAA_NAEA_J@Z 000000018005ed50 f i libucrtd:output.obj
 0001:0005dd90       ??$extract_argument_from_va_list@G_J@?$standard_base@DV?$string_output_adapter@D@__crt_stdio_output@@@__crt_stdio_output@@IEAA_NAEA_J@Z 000000018005ed90 f i libucrtd:output.obj
 0001:0005ddd0       ??$extract_argument_from_va_list@G_J@?$standard_base@_WV?$stream_output_adapter@_W@__crt_stdio_output@@@__crt_stdio_output@@IEAA_NAEA_J@Z 000000018005edd0 f i libucrtd:output.obj
 0001:0005de10       ??$extract_argument_from_va_list@G_J@?$standard_base@_WV?$string_output_adapter@_W@__crt_stdio_output@@@__crt_stdio_output@@IEAA_NAEA_J@Z 000000018005ee10 f i libucrtd:output.obj
 0001:0005de50       ??$extract_argument_from_va_list@H_J@?$positional_parameter_base@DV?$stream_output_adapter@D@__crt_stdio_output@@@__crt_stdio_output@@IEAA_NAEA_J@Z 000000018005ee50 f i libucrtd:output.obj
 0001:0005dfd0       ??$extract_argument_from_va_list@H_J@?$positional_parameter_base@DV?$string_output_adapter@D@__crt_stdio_output@@@__crt_stdio_output@@IEAA_NAEA_J@Z 000000018005efd0 f i libucrtd:output.obj
 0001:0005e150       ??$extract_argument_from_va_list@H_J@?$positional_parameter_base@_WV?$stream_output_adapter@_W@__crt_stdio_output@@@__crt_stdio_output@@IEAA_NAEA_J@Z 000000018005f150 f i libucrtd:output.obj
 0001:0005e2d0       ??$extract_argument_from_va_list@H_J@?$positional_parameter_base@_WV?$string_output_adapter@_W@__crt_stdio_output@@@__crt_stdio_output@@IEAA_NAEA_J@Z 000000018005f2d0 f i libucrtd:output.obj
 0001:0005e450       ??$extract_argument_from_va_list@H_J@?$standard_base@DV?$stream_output_adapter@D@__crt_stdio_output@@@__crt_stdio_output@@IEAA_NAEA_J@Z 000000018005f450 f i libucrtd:output.obj
 0001:0005e480       ??$extract_argument_from_va_list@H_J@?$standard_base@DV?$string_output_adapter@D@__crt_stdio_output@@@__crt_stdio_output@@IEAA_NAEA_J@Z 000000018005f480 f i libucrtd:output.obj
 0001:0005e4b0       ??$extract_argument_from_va_list@H_J@?$standard_base@_WV?$stream_output_adapter@_W@__crt_stdio_output@@@__crt_stdio_output@@IEAA_NAEA_J@Z 000000018005f4b0 f i libucrtd:output.obj
 0001:0005e4e0       ??$extract_argument_from_va_list@H_J@?$standard_base@_WV?$string_output_adapter@_W@__crt_stdio_output@@@__crt_stdio_output@@IEAA_NAEA_J@Z 000000018005f4e0 f i libucrtd:output.obj
 0001:0005e510       ??$extract_argument_from_va_list@I_J@?$positional_parameter_base@DV?$stream_output_adapter@D@__crt_stdio_output@@@__crt_stdio_output@@IEAA_NAEA_J@Z 000000018005f510 f i libucrtd:output.obj
 0001:0005e690       ??$extract_argument_from_va_list@I_J@?$positional_parameter_base@DV?$string_output_adapter@D@__crt_stdio_output@@@__crt_stdio_output@@IEAA_NAEA_J@Z 000000018005f690 f i libucrtd:output.obj
 0001:0005e810       ??$extract_argument_from_va_list@I_J@?$positional_parameter_base@_WV?$stream_output_adapter@_W@__crt_stdio_output@@@__crt_stdio_output@@IEAA_NAEA_J@Z 000000018005f810 f i libucrtd:output.obj
 0001:0005e990       ??$extract_argument_from_va_list@I_J@?$positional_parameter_base@_WV?$string_output_adapter@_W@__crt_stdio_output@@@__crt_stdio_output@@IEAA_NAEA_J@Z 000000018005f990 f i libucrtd:output.obj
 0001:0005eb10       ??$extract_argument_from_va_list@I_J@?$standard_base@DV?$stream_output_adapter@D@__crt_stdio_output@@@__crt_stdio_output@@IEAA_NAEA_J@Z 000000018005fb10 f i libucrtd:output.obj
 0001:0005eb40       ??$extract_argument_from_va_list@I_J@?$standard_base@DV?$string_output_adapter@D@__crt_stdio_output@@@__crt_stdio_output@@IEAA_NAEA_J@Z 000000018005fb40 f i libucrtd:output.obj
 0001:0005eb70       ??$extract_argument_from_va_list@I_J@?$standard_base@_WV?$stream_output_adapter@_W@__crt_stdio_output@@@__crt_stdio_output@@IEAA_NAEA_J@Z 000000018005fb70 f i libucrtd:output.obj
 0001:0005eba0       ??$extract_argument_from_va_list@I_J@?$standard_base@_WV?$string_output_adapter@_W@__crt_stdio_output@@@__crt_stdio_output@@IEAA_NAEA_J@Z 000000018005fba0 f i libucrtd:output.obj
 0001:0005ebd0       ??$extract_argument_from_va_list@PEADPEAD@?$positional_parameter_base@DV?$stream_output_adapter@D@__crt_stdio_output@@@__crt_stdio_output@@IEAA_NAEAPEAD@Z 000000018005fbd0 f i libucrtd:output.obj
 0001:0005ed50       ??$extract_argument_from_va_list@PEADPEAD@?$positional_parameter_base@DV?$string_output_adapter@D@__crt_stdio_output@@@__crt_stdio_output@@IEAA_NAEAPEAD@Z 000000018005fd50 f i libucrtd:output.obj
 0001:0005eed0       ??$extract_argument_from_va_list@PEADPEAD@?$positional_parameter_base@_WV?$stream_output_adapter@_W@__crt_stdio_output@@@__crt_stdio_output@@IEAA_NAEAPEAD@Z 000000018005fed0 f i libucrtd:output.obj
 0001:0005f050       ??$extract_argument_from_va_list@PEADPEAD@?$positional_parameter_base@_WV?$string_output_adapter@_W@__crt_stdio_output@@@__crt_stdio_output@@IEAA_NAEAPEAD@Z 0000000180060050 f i libucrtd:output.obj
 0001:0005f1d0       ??$extract_argument_from_va_list@PEADPEAD@?$standard_base@DV?$stream_output_adapter@D@__crt_stdio_output@@@__crt_stdio_output@@IEAA_NAEAPEAD@Z 00000001800601d0 f i libucrtd:output.obj
 0001:0005f200       ??$extract_argument_from_va_list@PEADPEAD@?$standard_base@DV?$string_output_adapter@D@__crt_stdio_output@@@__crt_stdio_output@@IEAA_NAEAPEAD@Z 0000000180060200 f i libucrtd:output.obj
 0001:0005f230       ??$extract_argument_from_va_list@PEADPEAD@?$standard_base@_WV?$stream_output_adapter@_W@__crt_stdio_output@@@__crt_stdio_output@@IEAA_NAEAPEAD@Z 0000000180060230 f i libucrtd:output.obj
 0001:0005f260       ??$extract_argument_from_va_list@PEADPEAD@?$standard_base@_WV?$string_output_adapter@_W@__crt_stdio_output@@@__crt_stdio_output@@IEAA_NAEAPEAD@Z 0000000180060260 f i libucrtd:output.obj
 0001:0005fad0       ??$extract_argument_from_va_list@PEAXPEAX@?$positional_parameter_base@DV?$stream_output_adapter@D@__crt_stdio_output@@@__crt_stdio_output@@IEAA_NAEAPEAX@Z 0000000180060ad0 f i libucrtd:output.obj
 0001:0005fc50       ??$extract_argument_from_va_list@PEAXPEAX@?$positional_parameter_base@DV?$string_output_adapter@D@__crt_stdio_output@@@__crt_stdio_output@@IEAA_NAEAPEAX@Z 0000000180060c50 f i libucrtd:output.obj
 0001:0005fdd0       ??$extract_argument_from_va_list@PEAXPEAX@?$positional_parameter_base@_WV?$stream_output_adapter@_W@__crt_stdio_output@@@__crt_stdio_output@@IEAA_NAEAPEAX@Z 0000000180060dd0 f i libucrtd:output.obj
 0001:0005ff50       ??$extract_argument_from_va_list@PEAXPEAX@?$positional_parameter_base@_WV?$string_output_adapter@_W@__crt_stdio_output@@@__crt_stdio_output@@IEAA_NAEAPEAX@Z 0000000180060f50 f i libucrtd:output.obj
 0001:000600d0       ??$extract_argument_from_va_list@PEAXPEAX@?$standard_base@DV?$stream_output_adapter@D@__crt_stdio_output@@@__crt_stdio_output@@IEAA_NAEAPEAX@Z 00000001800610d0 f i libucrtd:output.obj
 0001:00060100       ??$extract_argument_from_va_list@PEAXPEAX@?$standard_base@DV?$string_output_adapter@D@__crt_stdio_output@@@__crt_stdio_output@@IEAA_NAEAPEAX@Z 0000000180061100 f i libucrtd:output.obj
 0001:00060130       ??$extract_argument_from_va_list@PEAXPEAX@?$standard_base@_WV?$stream_output_adapter@_W@__crt_stdio_output@@@__crt_stdio_output@@IEAA_NAEAPEAX@Z 0000000180061130 f i libucrtd:output.obj
 0001:00060160       ??$extract_argument_from_va_list@PEAXPEAX@?$standard_base@_WV?$string_output_adapter@_W@__crt_stdio_output@@@__crt_stdio_output@@IEAA_NAEAPEAX@Z 0000000180061160 f i libucrtd:output.obj
 0001:00060190       ??$extract_argument_from_va_list@U_CRT_DOUBLE@@U1@@?$positional_parameter_base@DV?$stream_output_adapter@D@__crt_stdio_output@@@__crt_stdio_output@@IEAA_NAEAU_CRT_DOUBLE@@@Z 0000000180061190 f i libucrtd:output.obj
 0001:00060330       ??$extract_argument_from_va_list@U_CRT_DOUBLE@@U1@@?$positional_parameter_base@DV?$string_output_adapter@D@__crt_stdio_output@@@__crt_stdio_output@@IEAA_NAEAU_CRT_DOUBLE@@@Z 0000000180061330 f i libucrtd:output.obj
 0001:000604d0       ??$extract_argument_from_va_list@U_CRT_DOUBLE@@U1@@?$positional_parameter_base@_WV?$stream_output_adapter@_W@__crt_stdio_output@@@__crt_stdio_output@@IEAA_NAEAU_CRT_DOUBLE@@@Z 00000001800614d0 f i libucrtd:output.obj
 0001:00060670       ??$extract_argument_from_va_list@U_CRT_DOUBLE@@U1@@?$positional_parameter_base@_WV?$string_output_adapter@_W@__crt_stdio_output@@@__crt_stdio_output@@IEAA_NAEAU_CRT_DOUBLE@@@Z 0000000180061670 f i libucrtd:output.obj
 0001:00060810       ??$extract_argument_from_va_list@U_CRT_DOUBLE@@U1@@?$standard_base@DV?$stream_output_adapter@D@__crt_stdio_output@@@__crt_stdio_output@@IEAA_NAEAU_CRT_DOUBLE@@@Z 0000000180061810 f i libucrtd:output.obj
 0001:00060860       ??$extract_argument_from_va_list@U_CRT_DOUBLE@@U1@@?$standard_base@DV?$string_output_adapter@D@__crt_stdio_output@@@__crt_stdio_output@@IEAA_NAEAU_CRT_DOUBLE@@@Z 0000000180061860 f i libucrtd:output.obj
 0001:000608b0       ??$extract_argument_from_va_list@U_CRT_DOUBLE@@U1@@?$standard_base@_WV?$stream_output_adapter@_W@__crt_stdio_output@@@__crt_stdio_output@@IEAA_NAEAU_CRT_DOUBLE@@@Z 00000001800618b0 f i libucrtd:output.obj
 0001:00060900       ??$extract_argument_from_va_list@U_CRT_DOUBLE@@U1@@?$standard_base@_WV?$string_output_adapter@_W@__crt_stdio_output@@@__crt_stdio_output@@IEAA_NAEAU_CRT_DOUBLE@@@Z 0000000180061900 f i libucrtd:output.obj
 0001:00060950       ??$extract_argument_from_va_list@_J_J@?$positional_parameter_base@DV?$stream_output_adapter@D@__crt_stdio_output@@@__crt_stdio_output@@IEAA_NAEA_J@Z 0000000180061950 f i libucrtd:output.obj
 0001:00060ad0       ??$extract_argument_from_va_list@_J_J@?$positional_parameter_base@DV?$string_output_adapter@D@__crt_stdio_output@@@__crt_stdio_output@@IEAA_NAEA_J@Z 0000000180061ad0 f i libucrtd:output.obj
 0001:00060c50       ??$extract_argument_from_va_list@_J_J@?$positional_parameter_base@_WV?$stream_output_adapter@_W@__crt_stdio_output@@@__crt_stdio_output@@IEAA_NAEA_J@Z 0000000180061c50 f i libucrtd:output.obj
 0001:00060dd0       ??$extract_argument_from_va_list@_J_J@?$positional_parameter_base@_WV?$string_output_adapter@_W@__crt_stdio_output@@@__crt_stdio_output@@IEAA_NAEA_J@Z 0000000180061dd0 f i libucrtd:output.obj
 0001:00060f50       ??$extract_argument_from_va_list@_J_J@?$standard_base@DV?$stream_output_adapter@D@__crt_stdio_output@@@__crt_stdio_output@@IEAA_NAEA_J@Z 0000000180061f50 f i libucrtd:output.obj
 0001:00060f80       ??$extract_argument_from_va_list@_J_J@?$standard_base@DV?$string_output_adapter@D@__crt_stdio_output@@@__crt_stdio_output@@IEAA_NAEA_J@Z 0000000180061f80 f i libucrtd:output.obj
 0001:00060fb0       ??$extract_argument_from_va_list@_J_J@?$standard_base@_WV?$stream_output_adapter@_W@__crt_stdio_output@@@__crt_stdio_output@@IEAA_NAEA_J@Z 0000000180061fb0 f i libucrtd:output.obj
 0001:00060fe0       ??$extract_argument_from_va_list@_J_J@?$standard_base@_WV?$string_output_adapter@_W@__crt_stdio_output@@@__crt_stdio_output@@IEAA_NAEA_J@Z 0000000180061fe0 f i libucrtd:output.obj
 0001:00061010       ??$extract_argument_from_va_list@_K_J@?$positional_parameter_base@DV?$stream_output_adapter@D@__crt_stdio_output@@@__crt_stdio_output@@IEAA_NAEA_J@Z 0000000180062010 f i libucrtd:output.obj
 0001:00061190       ??$extract_argument_from_va_list@_K_J@?$positional_parameter_base@DV?$string_output_adapter@D@__crt_stdio_output@@@__crt_stdio_output@@IEAA_NAEA_J@Z 0000000180062190 f i libucrtd:output.obj
 0001:00061310       ??$extract_argument_from_va_list@_K_J@?$positional_parameter_base@_WV?$stream_output_adapter@_W@__crt_stdio_output@@@__crt_stdio_output@@IEAA_NAEA_J@Z 0000000180062310 f i libucrtd:output.obj
 0001:00061490       ??$extract_argument_from_va_list@_K_J@?$positional_parameter_base@_WV?$string_output_adapter@_W@__crt_stdio_output@@@__crt_stdio_output@@IEAA_NAEA_J@Z 0000000180062490 f i libucrtd:output.obj
 0001:00061610       ??$extract_argument_from_va_list@_K_J@?$standard_base@DV?$stream_output_adapter@D@__crt_stdio_output@@@__crt_stdio_output@@IEAA_NAEA_J@Z 0000000180062610 f i libucrtd:output.obj
 0001:00061640       ??$extract_argument_from_va_list@_K_J@?$standard_base@DV?$string_output_adapter@D@__crt_stdio_output@@@__crt_stdio_output@@IEAA_NAEA_J@Z 0000000180062640 f i libucrtd:output.obj
 0001:00061670       ??$extract_argument_from_va_list@_K_J@?$standard_base@_WV?$stream_output_adapter@_W@__crt_stdio_output@@@__crt_stdio_output@@IEAA_NAEA_J@Z 0000000180062670 f i libucrtd:output.obj
 0001:000616a0       ??$extract_argument_from_va_list@_K_J@?$standard_base@_WV?$string_output_adapter@_W@__crt_stdio_output@@@__crt_stdio_output@@IEAA_NAEA_J@Z 00000001800626a0 f i libucrtd:output.obj
 0001:000616d0       ??$extract_argument_from_va_list@_W_W@?$positional_parameter_base@DV?$stream_output_adapter@D@__crt_stdio_output@@@__crt_stdio_output@@IEAA_NAEA_W@Z 00000001800626d0 f i libucrtd:output.obj
 0001:00061850       ??$extract_argument_from_va_list@_W_W@?$positional_parameter_base@DV?$string_output_adapter@D@__crt_stdio_output@@@__crt_stdio_output@@IEAA_NAEA_W@Z 0000000180062850 f i libucrtd:output.obj
 0001:000619d0       ??$extract_argument_from_va_list@_W_W@?$positional_parameter_base@_WV?$stream_output_adapter@_W@__crt_stdio_output@@@__crt_stdio_output@@IEAA_NAEA_W@Z 00000001800629d0 f i libucrtd:output.obj
 0001:00061b50       ??$extract_argument_from_va_list@_W_W@?$positional_parameter_base@_WV?$string_output_adapter@_W@__crt_stdio_output@@@__crt_stdio_output@@IEAA_NAEA_W@Z 0000000180062b50 f i libucrtd:output.obj
 0001:00061cd0       ??$extract_argument_from_va_list@_W_W@?$standard_base@DV?$stream_output_adapter@D@__crt_stdio_output@@@__crt_stdio_output@@IEAA_NAEA_W@Z 0000000180062cd0 f i libucrtd:output.obj
 0001:00061d00       ??$extract_argument_from_va_list@_W_W@?$standard_base@DV?$string_output_adapter@D@__crt_stdio_output@@@__crt_stdio_output@@IEAA_NAEA_W@Z 0000000180062d00 f i libucrtd:output.obj
 0001:00061d30       ??$extract_argument_from_va_list@_W_W@?$standard_base@_WV?$stream_output_adapter@_W@__crt_stdio_output@@@__crt_stdio_output@@IEAA_NAEA_W@Z 0000000180062d30 f i libucrtd:output.obj
 0001:00061d60       ??$extract_argument_from_va_list@_W_W@?$standard_base@_WV?$string_output_adapter@_W@__crt_stdio_output@@@__crt_stdio_output@@IEAA_NAEA_W@Z 0000000180062d60 f i libucrtd:output.obj
 0001:00061d90       ??$get_parameter_type@D@?$positional_parameter_base@DV?$stream_output_adapter@D@__crt_stdio_output@@@__crt_stdio_output@@CA?AW4parameter_type@01@PEAD@Z 0000000180062d90 f i libucrtd:output.obj
 0001:00061da0       ??$get_parameter_type@D@?$positional_parameter_base@DV?$string_output_adapter@D@__crt_stdio_output@@@__crt_stdio_output@@CA?AW4parameter_type@01@PEAD@Z 0000000180062da0 f i libucrtd:output.obj
 0001:00061db0       ??$get_parameter_type@D@?$positional_parameter_base@_WV?$stream_output_adapter@_W@__crt_stdio_output@@@__crt_stdio_output@@CA?AW4parameter_type@01@PEAD@Z 0000000180062db0 f i libucrtd:output.obj
 0001:00061dc0       ??$get_parameter_type@D@?$positional_parameter_base@_WV?$string_output_adapter@_W@__crt_stdio_output@@@__crt_stdio_output@@CA?AW4parameter_type@01@PEAD@Z 0000000180062dc0 f i libucrtd:output.obj
 0001:00061e10       ??$get_parameter_type@X@?$positional_parameter_base@DV?$stream_output_adapter@D@__crt_stdio_output@@@__crt_stdio_output@@CA?AW4parameter_type@01@PEAX@Z 0000000180062e10 f i libucrtd:output.obj
 0001:00061e20       ??$get_parameter_type@X@?$positional_parameter_base@DV?$string_output_adapter@D@__crt_stdio_output@@@__crt_stdio_output@@CA?AW4parameter_type@01@PEAX@Z 0000000180062e20 f i libucrtd:output.obj
 0001:00061e30       ??$get_parameter_type@X@?$positional_parameter_base@_WV?$stream_output_adapter@_W@__crt_stdio_output@@@__crt_stdio_output@@CA?AW4parameter_type@01@PEAX@Z 0000000180062e30 f i libucrtd:output.obj
 0001:00061e40       ??$get_parameter_type@X@?$positional_parameter_base@_WV?$string_output_adapter@_W@__crt_stdio_output@@@__crt_stdio_output@@CA?AW4parameter_type@01@PEAX@Z 0000000180062e40 f i libucrtd:output.obj
 0001:00061e50       ??$is_character_specifier@D@?$positional_parameter_base@DV?$stream_output_adapter@D@__crt_stdio_output@@@__crt_stdio_output@@CA_ND@Z 0000000180062e50 f i libucrtd:output.obj
 0001:00061e90       ??$is_character_specifier@D@?$positional_parameter_base@DV?$string_output_adapter@D@__crt_stdio_output@@@__crt_stdio_output@@CA_ND@Z 0000000180062e90 f i libucrtd:output.obj
 0001:00061ed0       ??$is_character_specifier@_W@?$positional_parameter_base@_WV?$stream_output_adapter@_W@__crt_stdio_output@@@__crt_stdio_output@@CA_N_W@Z 0000000180062ed0 f i libucrtd:output.obj
 0001:00061f10       ??$is_character_specifier@_W@?$positional_parameter_base@_WV?$string_output_adapter@_W@__crt_stdio_output@@@__crt_stdio_output@@CA_N_W@Z 0000000180062f10 f i libucrtd:output.obj
 0001:00061f50       ??$is_integral_specifier@D@?$positional_parameter_base@DV?$stream_output_adapter@D@__crt_stdio_output@@@__crt_stdio_output@@CA_ND@Z 0000000180062f50 f i libucrtd:output.obj
 0001:00061fc0       ??$is_integral_specifier@D@?$positional_parameter_base@DV?$string_output_adapter@D@__crt_stdio_output@@@__crt_stdio_output@@CA_ND@Z 0000000180062fc0 f i libucrtd:output.obj
 0001:00062030       ??$is_integral_specifier@_W@?$positional_parameter_base@_WV?$stream_output_adapter@_W@__crt_stdio_output@@@__crt_stdio_output@@CA_N_W@Z 0000000180063030 f i libucrtd:output.obj
 0001:000620a0       ??$is_integral_specifier@_W@?$positional_parameter_base@_WV?$string_output_adapter@_W@__crt_stdio_output@@@__crt_stdio_output@@CA_N_W@Z 00000001800630a0 f i libucrtd:output.obj
 0001:00062110       ??$is_pointer_specifier@D@?$positional_parameter_base@DV?$stream_output_adapter@D@__crt_stdio_output@@@__crt_stdio_output@@CA_ND@Z 0000000180063110 f i libucrtd:output.obj
 0001:00062140       ??$is_pointer_specifier@D@?$positional_parameter_base@DV?$string_output_adapter@D@__crt_stdio_output@@@__crt_stdio_output@@CA_ND@Z 0000000180063140 f i libucrtd:output.obj
 0001:00062170       ??$is_pointer_specifier@_W@?$positional_parameter_base@_WV?$stream_output_adapter@_W@__crt_stdio_output@@@__crt_stdio_output@@CA_N_W@Z 0000000180063170 f i libucrtd:output.obj
 0001:000621a0       ??$is_pointer_specifier@_W@?$positional_parameter_base@_WV?$string_output_adapter@_W@__crt_stdio_output@@@__crt_stdio_output@@CA_N_W@Z 00000001800631a0 f i libucrtd:output.obj
 0001:000621d0       ??$is_string_specifier@D@?$positional_parameter_base@DV?$stream_output_adapter@D@__crt_stdio_output@@@__crt_stdio_output@@CA_ND@Z 00000001800631d0 f i libucrtd:output.obj
 0001:00062210       ??$is_string_specifier@D@?$positional_parameter_base@DV?$string_output_adapter@D@__crt_stdio_output@@@__crt_stdio_output@@CA_ND@Z 0000000180063210 f i libucrtd:output.obj
 0001:00062250       ??$is_string_specifier@_W@?$positional_parameter_base@_WV?$stream_output_adapter@_W@__crt_stdio_output@@@__crt_stdio_output@@CA_N_W@Z 0000000180063250 f i libucrtd:output.obj
 0001:00062290       ??$is_string_specifier@_W@?$positional_parameter_base@_WV?$string_output_adapter@_W@__crt_stdio_output@@@__crt_stdio_output@@CA_N_W@Z 0000000180063290 f i libucrtd:output.obj
 0001:000622d0       ??$is_wide_character_specifier@D@__crt_stdio_output@@YA_N_KDW4length_modifier@0@@Z 00000001800632d0 f i libucrtd:output.obj
 0001:00062370       ??$is_wide_character_specifier@_W@__crt_stdio_output@@YA_N_K_WW4length_modifier@0@@Z 0000000180063370 f i libucrtd:output.obj
 0001:00062440       ??$peek_va_arg@C@__crt_stdio_output@@YACPEAD@Z 0000000180063440 f i libucrtd:output.obj
 0001:000624a0       ??$peek_va_arg@E@__crt_stdio_output@@YAEPEAD@Z 00000001800634a0 f i libucrtd:output.obj
 0001:00062500       ??$peek_va_arg@F@__crt_stdio_output@@YAFPEAD@Z 0000000180063500 f i libucrtd:output.obj
 0001:00062560       ??$peek_va_arg@G@__crt_stdio_output@@YAGPEAD@Z 0000000180063560 f i libucrtd:output.obj
 0001:000625c0       ??$peek_va_arg@H@__crt_stdio_output@@YAHPEAD@Z 00000001800635c0 f i libucrtd:output.obj
 0001:00062610       ??$peek_va_arg@I@__crt_stdio_output@@YAIPEAD@Z 0000000180063610 f i libucrtd:output.obj
 0001:00062660       ??$peek_va_arg@PEAD@__crt_stdio_output@@YAPEADPEAD@Z 0000000180063660 f i libucrtd:output.obj
 0001:00062840       ??$peek_va_arg@PEAX@__crt_stdio_output@@YAPEAXPEAD@Z 0000000180063840 f i libucrtd:output.obj
 0001:000628a0       ??$peek_va_arg@U_CRT_DOUBLE@@@__crt_stdio_output@@YA?AU_CRT_DOUBLE@@PEAD@Z 00000001800638a0 f i libucrtd:output.obj
 0001:00062900       ??$peek_va_arg@_J@__crt_stdio_output@@YA_JPEAD@Z 0000000180063900 f i libucrtd:output.obj
 0001:00062960       ??$peek_va_arg@_K@__crt_stdio_output@@YA_KPEAD@Z 0000000180063960 f i libucrtd:output.obj
 0001:000629c0       ??$peek_va_arg@_W@__crt_stdio_output@@YA_WPEAD@Z 00000001800639c0 f i libucrtd:output.obj
 0001:00062a20       ??$puttc_nolock@AEBDPEAU_iobuf@@@?$__crt_char_traits@D@@SAHAEBD$$QEAPEAU_iobuf@@@Z 0000000180063a20 f i libucrtd:output.obj
 0001:00062a50       ??$puttc_nolock@AEB_WPEAU_iobuf@@@?$__crt_char_traits@_W@@SAGAEB_W$$QEAPEAU_iobuf@@@Z 0000000180063a50 f i libucrtd:output.obj
 0001:00062a80       ??$read_va_arg@C@__crt_stdio_output@@YACAEAPEAD@Z 0000000180063a80 f i libucrtd:output.obj
 0001:00062af0       ??$read_va_arg@E@__crt_stdio_output@@YAEAEAPEAD@Z 0000000180063af0 f i libucrtd:output.obj
 0001:00062b60       ??$read_va_arg@F@__crt_stdio_output@@YAFAEAPEAD@Z 0000000180063b60 f i libucrtd:output.obj
 0001:00062bd0       ??$read_va_arg@G@__crt_stdio_output@@YAGAEAPEAD@Z 0000000180063bd0 f i libucrtd:output.obj
 0001:00062c40       ??$read_va_arg@H@__crt_stdio_output@@YAHAEAPEAD@Z 0000000180063c40 f i libucrtd:output.obj
 0001:00062ca0       ??$read_va_arg@I@__crt_stdio_output@@YAIAEAPEAD@Z 0000000180063ca0 f i libucrtd:output.obj
 0001:00062d00       ??$read_va_arg@PEAD@__crt_stdio_output@@YAPEADAEAPEAD@Z 0000000180063d00 f i libucrtd:output.obj
 0001:000632b0       ??$read_va_arg@PEAX@__crt_stdio_output@@YAPEAXAEAPEAD@Z 00000001800642b0 f i libucrtd:output.obj
 0001:00063320       ??$read_va_arg@U_CRT_DOUBLE@@@__crt_stdio_output@@YA?AU_CRT_DOUBLE@@AEAPEAD@Z 0000000180064320 f i libucrtd:output.obj
 0001:00063390       ??$read_va_arg@_J@__crt_stdio_output@@YA_JAEAPEAD@Z 0000000180064390 f i libucrtd:output.obj
 0001:00063400       ??$read_va_arg@_K@__crt_stdio_output@@YA_KAEAPEAD@Z 0000000180064400 f i libucrtd:output.obj
 0001:00063470       ??$read_va_arg@_W@__crt_stdio_output@@YA_WAEAPEAD@Z 0000000180064470 f i libucrtd:output.obj
 0001:000634e0       ??$scratch_count@D@formatting_buffer@__crt_stdio_output@@QEBA_KXZ 00000001800644e0 f i libucrtd:output.obj
 0001:00063500       ??$scratch_data@D@formatting_buffer@__crt_stdio_output@@QEAAPEADXZ 0000000180064500 f i libucrtd:output.obj
 0001:00063570       ??$tcstol@AEAPEBDPEAPEADH@?$__crt_char_traits@D@@SAJAEAPEBD$$QEAPEAPEAD$$QEAH@Z 0000000180064570 f i libucrtd:output.obj
 0001:000635b0       ??$tcstol@AEAPEB_WPEAPEA_WH@?$__crt_char_traits@_W@@SAJAEAPEB_W$$QEAPEAPEA_W$$QEAH@Z 00000001800645b0 f i libucrtd:output.obj
 0001:000635f0       ??$tcstol@PEBDPEAPEADH@?$__crt_char_traits@D@@SAJ$$QEAPEBD$$QEAPEAPEAD$$QEAH@Z 00000001800645f0 f i libucrtd:output.obj
 0001:00063630       ??$tcstol@PEB_WPEAPEA_WH@?$__crt_char_traits@_W@@SAJ$$QEAPEB_W$$QEAPEAPEA_W$$QEAH@Z 0000000180064630 f i libucrtd:output.obj
 0001:00063670       ??$type_case_integer_parse_into_buffer@I@?$output_processor@DV?$stream_output_adapter@D@__crt_stdio_output@@V?$format_validation_base@DV?$stream_output_adapter@D@__crt_stdio_output@@@2@@__crt_stdio_output@@AEAAXII_N@Z 0000000180064670 f i libucrtd:output.obj
 0001:000637a0       ??$type_case_integer_parse_into_buffer@I@?$output_processor@DV?$stream_output_adapter@D@__crt_stdio_output@@V?$positional_parameter_base@DV?$stream_output_adapter@D@__crt_stdio_output@@@2@@__crt_stdio_output@@AEAAXII_N@Z 00000001800647a0 f i libucrtd:output.obj
 0001:000638d0       ??$type_case_integer_parse_into_buffer@I@?$output_processor@DV?$stream_output_adapter@D@__crt_stdio_output@@V?$standard_base@DV?$stream_output_adapter@D@__crt_stdio_output@@@2@@__crt_stdio_output@@AEAAXII_N@Z 00000001800648d0 f i libucrtd:output.obj
 0001:00063a00       ??$type_case_integer_parse_into_buffer@I@?$output_processor@DV?$string_output_adapter@D@__crt_stdio_output@@V?$format_validation_base@DV?$string_output_adapter@D@__crt_stdio_output@@@2@@__crt_stdio_output@@AEAAXII_N@Z 0000000180064a00 f i libucrtd:output.obj
 0001:00063b30       ??$type_case_integer_parse_into_buffer@I@?$output_processor@DV?$string_output_adapter@D@__crt_stdio_output@@V?$positional_parameter_base@DV?$string_output_adapter@D@__crt_stdio_output@@@2@@__crt_stdio_output@@AEAAXII_N@Z 0000000180064b30 f i libucrtd:output.obj
 0001:00063c60       ??$type_case_integer_parse_into_buffer@I@?$output_processor@DV?$string_output_adapter@D@__crt_stdio_output@@V?$standard_base@DV?$string_output_adapter@D@__crt_stdio_output@@@2@@__crt_stdio_output@@AEAAXII_N@Z 0000000180064c60 f i libucrtd:output.obj
 0001:00063d90       ??$type_case_integer_parse_into_buffer@I@?$output_processor@_WV?$stream_output_adapter@_W@__crt_stdio_output@@V?$format_validation_base@_WV?$stream_output_adapter@_W@__crt_stdio_output@@@2@@__crt_stdio_output@@AEAAXII_N@Z 0000000180064d90 f i libucrtd:output.obj
 0001:00063ed0       ??$type_case_integer_parse_into_buffer@I@?$output_processor@_WV?$stream_output_adapter@_W@__crt_stdio_output@@V?$positional_parameter_base@_WV?$stream_output_adapter@_W@__crt_stdio_output@@@2@@__crt_stdio_output@@AEAAXII_N@Z 0000000180064ed0 f i libucrtd:output.obj
 0001:00064010       ??$type_case_integer_parse_into_buffer@I@?$output_processor@_WV?$stream_output_adapter@_W@__crt_stdio_output@@V?$standard_base@_WV?$stream_output_adapter@_W@__crt_stdio_output@@@2@@__crt_stdio_output@@AEAAXII_N@Z 0000000180065010 f i libucrtd:output.obj
 0001:00064150       ??$type_case_integer_parse_into_buffer@I@?$output_processor@_WV?$string_output_adapter@_W@__crt_stdio_output@@V?$format_validation_base@_WV?$string_output_adapter@_W@__crt_stdio_output@@@2@@__crt_stdio_output@@AEAAXII_N@Z 0000000180065150 f i libucrtd:output.obj
 0001:00064290       ??$type_case_integer_parse_into_buffer@I@?$output_processor@_WV?$string_output_adapter@_W@__crt_stdio_output@@V?$positional_parameter_base@_WV?$string_output_adapter@_W@__crt_stdio_output@@@2@@__crt_stdio_output@@AEAAXII_N@Z 0000000180065290 f i libucrtd:output.obj
 0001:000643d0       ??$type_case_integer_parse_into_buffer@I@?$output_processor@_WV?$string_output_adapter@_W@__crt_stdio_output@@V?$standard_base@_WV?$string_output_adapter@_W@__crt_stdio_output@@@2@@__crt_stdio_output@@AEAAXII_N@Z 00000001800653d0 f i libucrtd:output.obj
 0001:00064510       ??$type_case_integer_parse_into_buffer@_K@?$output_processor@DV?$stream_output_adapter@D@__crt_stdio_output@@V?$format_validation_base@DV?$stream_output_adapter@D@__crt_stdio_output@@@2@@__crt_stdio_output@@AEAAX_KI_N@Z 0000000180065510 f i libucrtd:output.obj
 0001:00064660       ??$type_case_integer_parse_into_buffer@_K@?$output_processor@DV?$stream_output_adapter@D@__crt_stdio_output@@V?$positional_parameter_base@DV?$stream_output_adapter@D@__crt_stdio_output@@@2@@__crt_stdio_output@@AEAAX_KI_N@Z 0000000180065660 f i libucrtd:output.obj
 0001:000647b0       ??$type_case_integer_parse_into_buffer@_K@?$output_processor@DV?$stream_output_adapter@D@__crt_stdio_output@@V?$standard_base@DV?$stream_output_adapter@D@__crt_stdio_output@@@2@@__crt_stdio_output@@AEAAX_KI_N@Z 00000001800657b0 f i libucrtd:output.obj
 0001:00064900       ??$type_case_integer_parse_into_buffer@_K@?$output_processor@DV?$string_output_adapter@D@__crt_stdio_output@@V?$format_validation_base@DV?$string_output_adapter@D@__crt_stdio_output@@@2@@__crt_stdio_output@@AEAAX_KI_N@Z 0000000180065900 f i libucrtd:output.obj
 0001:00064a50       ??$type_case_integer_parse_into_buffer@_K@?$output_processor@DV?$string_output_adapter@D@__crt_stdio_output@@V?$positional_parameter_base@DV?$string_output_adapter@D@__crt_stdio_output@@@2@@__crt_stdio_output@@AEAAX_KI_N@Z 0000000180065a50 f i libucrtd:output.obj
 0001:00064ba0       ??$type_case_integer_parse_into_buffer@_K@?$output_processor@DV?$string_output_adapter@D@__crt_stdio_output@@V?$standard_base@DV?$string_output_adapter@D@__crt_stdio_output@@@2@@__crt_stdio_output@@AEAAX_KI_N@Z 0000000180065ba0 f i libucrtd:output.obj
 0001:00064cf0       ??$type_case_integer_parse_into_buffer@_K@?$output_processor@_WV?$stream_output_adapter@_W@__crt_stdio_output@@V?$format_validation_base@_WV?$stream_output_adapter@_W@__crt_stdio_output@@@2@@__crt_stdio_output@@AEAAX_KI_N@Z 0000000180065cf0 f i libucrtd:output.obj
 0001:00064e50       ??$type_case_integer_parse_into_buffer@_K@?$output_processor@_WV?$stream_output_adapter@_W@__crt_stdio_output@@V?$positional_parameter_base@_WV?$stream_output_adapter@_W@__crt_stdio_output@@@2@@__crt_stdio_output@@AEAAX_KI_N@Z 0000000180065e50 f i libucrtd:output.obj
 0001:00064fb0       ??$type_case_integer_parse_into_buffer@_K@?$output_processor@_WV?$stream_output_adapter@_W@__crt_stdio_output@@V?$standard_base@_WV?$stream_output_adapter@_W@__crt_stdio_output@@@2@@__crt_stdio_output@@AEAAX_KI_N@Z 0000000180065fb0 f i libucrtd:output.obj
 0001:00065110       ??$type_case_integer_parse_into_buffer@_K@?$output_processor@_WV?$string_output_adapter@_W@__crt_stdio_output@@V?$format_validation_base@_WV?$string_output_adapter@_W@__crt_stdio_output@@@2@@__crt_stdio_output@@AEAAX_KI_N@Z 0000000180066110 f i libucrtd:output.obj
 0001:00065270       ??$type_case_integer_parse_into_buffer@_K@?$output_processor@_WV?$string_output_adapter@_W@__crt_stdio_output@@V?$positional_parameter_base@_WV?$string_output_adapter@_W@__crt_stdio_output@@@2@@__crt_stdio_output@@AEAAX_KI_N@Z 0000000180066270 f i libucrtd:output.obj
 0001:000653d0       ??$type_case_integer_parse_into_buffer@_K@?$output_processor@_WV?$string_output_adapter@_W@__crt_stdio_output@@V?$standard_base@_WV?$string_output_adapter@_W@__crt_stdio_output@@@2@@__crt_stdio_output@@AEAAX_KI_N@Z 00000001800663d0 f i libucrtd:output.obj
 0001:00065530       ??$write_multiple_characters@V?$stream_output_adapter@D@__crt_stdio_output@@D@__crt_stdio_output@@YAXAEBV?$stream_output_adapter@D@0@DHQEAH@Z 0000000180066530 f i libucrtd:output.obj
 0001:00065590       ??$write_multiple_characters@V?$stream_output_adapter@_W@__crt_stdio_output@@D@__crt_stdio_output@@YAXAEBV?$stream_output_adapter@_W@0@DHQEAH@Z 0000000180066590 f i libucrtd:output.obj
 0001:000655f0       ??$write_multiple_characters@V?$string_output_adapter@D@__crt_stdio_output@@D@__crt_stdio_output@@YAXAEBV?$string_output_adapter@D@0@DHQEAH@Z 00000001800665f0 f i libucrtd:output.obj
 0001:00065650       ??$write_multiple_characters@V?$string_output_adapter@_W@__crt_stdio_output@@D@__crt_stdio_output@@YAXAEBV?$string_output_adapter@_W@0@DHQEAH@Z 0000000180066650 f i libucrtd:output.obj
 0001:00065a70       ??0?$common_data@D@__crt_stdio_output@@IEAA@XZ 0000000180066a70 f i libucrtd:output.obj
 0001:00065b40       ??0?$common_data@_W@__crt_stdio_output@@IEAA@XZ 0000000180066b40 f i libucrtd:output.obj
 0001:00065c10       ??0?$output_adapter_data@DV?$stream_output_adapter@D@__crt_stdio_output@@@__crt_stdio_output@@IEAA@AEBV?$stream_output_adapter@D@1@_KQEBDQEAU__crt_locale_pointers@@QEAD@Z 0000000180066c10 f i libucrtd:output.obj
 0001:00065c90       ??0?$output_adapter_data@DV?$string_output_adapter@D@__crt_stdio_output@@@__crt_stdio_output@@IEAA@AEBV?$string_output_adapter@D@1@_KQEBDQEAU__crt_locale_pointers@@QEAD@Z 0000000180066c90 f i libucrtd:output.obj
 0001:00065d10       ??0?$output_adapter_data@_WV?$stream_output_adapter@_W@__crt_stdio_output@@@__crt_stdio_output@@IEAA@AEBV?$stream_output_adapter@_W@1@_KQEB_WQEAU__crt_locale_pointers@@QEAD@Z 0000000180066d10 f i libucrtd:output.obj
 0001:00065d90       ??0?$output_adapter_data@_WV?$string_output_adapter@_W@__crt_stdio_output@@@__crt_stdio_output@@IEAA@AEBV?$string_output_adapter@_W@1@_KQEB_WQEAU__crt_locale_pointers@@QEAD@Z 0000000180066d90 f i libucrtd:output.obj
 0001:00065e10       ??0?$output_processor@DV?$stream_output_adapter@D@__crt_stdio_output@@V?$format_validation_base@DV?$stream_output_adapter@D@__crt_stdio_output@@@2@@__crt_stdio_output@@QEAA@AEBV?$stream_output_adapter@D@1@_KQEBDQEAU__crt_locale_pointers@@QEAD@Z 0000000180066e10 f i libucrtd:output.obj
 0001:00065e60       ??0?$output_processor@DV?$stream_output_adapter@D@__crt_stdio_output@@V?$positional_parameter_base@DV?$stream_output_adapter@D@__crt_stdio_output@@@2@@__crt_stdio_output@@QEAA@AEBV?$stream_output_adapter@D@1@_KQEBDQEAU__crt_locale_pointers@@QEAD@Z 0000000180066e60 f i libucrtd:output.obj
 0001:00065eb0       ??0?$output_processor@DV?$stream_output_adapter@D@__crt_stdio_output@@V?$standard_base@DV?$stream_output_adapter@D@__crt_stdio_output@@@2@@__crt_stdio_output@@QEAA@AEBV?$stream_output_adapter@D@1@_KQEBDQEAU__crt_locale_pointers@@QEAD@Z 0000000180066eb0 f i libucrtd:output.obj
 0001:00065f00       ??0?$output_processor@DV?$string_output_adapter@D@__crt_stdio_output@@V?$format_validation_base@DV?$string_output_adapter@D@__crt_stdio_output@@@2@@__crt_stdio_output@@QEAA@AEBV?$string_output_adapter@D@1@_KQEBDQEAU__crt_locale_pointers@@QEAD@Z 0000000180066f00 f i libucrtd:output.obj
 0001:00065f50       ??0?$output_processor@DV?$string_output_adapter@D@__crt_stdio_output@@V?$positional_parameter_base@DV?$string_output_adapter@D@__crt_stdio_output@@@2@@__crt_stdio_output@@QEAA@AEBV?$string_output_adapter@D@1@_KQEBDQEAU__crt_locale_pointers@@QEAD@Z 0000000180066f50 f i libucrtd:output.obj
 0001:00065fa0       ??0?$output_processor@DV?$string_output_adapter@D@__crt_stdio_output@@V?$standard_base@DV?$string_output_adapter@D@__crt_stdio_output@@@2@@__crt_stdio_output@@QEAA@AEBV?$string_output_adapter@D@1@_KQEBDQEAU__crt_locale_pointers@@QEAD@Z 0000000180066fa0 f i libucrtd:output.obj
 0001:00065ff0       ??0?$output_processor@_WV?$stream_output_adapter@_W@__crt_stdio_output@@V?$format_validation_base@_WV?$stream_output_adapter@_W@__crt_stdio_output@@@2@@__crt_stdio_output@@QEAA@AEBV?$stream_output_adapter@_W@1@_KQEB_WQEAU__crt_locale_pointers@@QEAD@Z 0000000180066ff0 f i libucrtd:output.obj
 0001:00066040       ??0?$output_processor@_WV?$stream_output_adapter@_W@__crt_stdio_output@@V?$positional_parameter_base@_WV?$stream_output_adapter@_W@__crt_stdio_output@@@2@@__crt_stdio_output@@QEAA@AEBV?$stream_output_adapter@_W@1@_KQEB_WQEAU__crt_locale_pointers@@QEAD@Z 0000000180067040 f i libucrtd:output.obj
 0001:00066090       ??0?$output_processor@_WV?$stream_output_adapter@_W@__crt_stdio_output@@V?$standard_base@_WV?$stream_output_adapter@_W@__crt_stdio_output@@@2@@__crt_stdio_output@@QEAA@AEBV?$stream_output_adapter@_W@1@_KQEB_WQEAU__crt_locale_pointers@@QEAD@Z 0000000180067090 f i libucrtd:output.obj
 0001:000660e0       ??0?$output_processor@_WV?$string_output_adapter@_W@__crt_stdio_output@@V?$format_validation_base@_WV?$string_output_adapter@_W@__crt_stdio_output@@@2@@__crt_stdio_output@@QEAA@AEBV?$string_output_adapter@_W@1@_KQEB_WQEAU__crt_locale_pointers@@QEAD@Z 00000001800670e0 f i libucrtd:output.obj
 0001:00066130       ??0?$output_processor@_WV?$string_output_adapter@_W@__crt_stdio_output@@V?$positional_parameter_base@_WV?$string_output_adapter@_W@__crt_stdio_output@@@2@@__crt_stdio_output@@QEAA@AEBV?$string_output_adapter@_W@1@_KQEB_WQEAU__crt_locale_pointers@@QEAD@Z 0000000180067130 f i libucrtd:output.obj
 0001:00066180       ??0?$output_processor@_WV?$string_output_adapter@_W@__crt_stdio_output@@V?$standard_base@_WV?$string_output_adapter@_W@__crt_stdio_output@@@2@@__crt_stdio_output@@QEAA@AEBV?$string_output_adapter@_W@1@_KQEB_WQEAU__crt_locale_pointers@@QEAD@Z 0000000180067180 f i libucrtd:output.obj
 0001:000661d0       ??0?$stream_output_adapter@D@__crt_stdio_output@@QEAA@QEAU_iobuf@@@Z 00000001800671d0 f i libucrtd:output.obj
 0001:00066200       ??0?$stream_output_adapter@_W@__crt_stdio_output@@QEAA@QEAU_iobuf@@@Z 0000000180067200 f i libucrtd:output.obj
 0001:00066230       ??0?$string_output_adapter@D@__crt_stdio_output@@QEAA@QEAU?$string_output_adapter_context@D@1@@Z 0000000180067230 f i libucrtd:output.obj
 0001:00066250       ??0?$string_output_adapter@_W@__crt_stdio_output@@QEAA@QEAU?$string_output_adapter_context@_W@1@@Z 0000000180067250 f i libucrtd:output.obj
 0001:00066270       ??0_LocaleUpdate@@QEAA@QEAU__crt_locale_pointers@@@Z 0000000180067270 f i libucrtd:output.obj
 0001:00066390       ??0__acrt_stdio_temporary_buffering_guard@@QEAA@QEAU_iobuf@@@Z 0000000180067390 f i libucrtd:output.obj
 0001:000663d0       ??0__crt_deferred_errno_cache@@QEAA@XZ 00000001800673d0 f i libucrtd:output.obj
 0001:000663f0       ??0__crt_errno_guard@@QEAA@QEAH@Z 00000001800673f0 f i libucrtd:output.obj
 0001:00066430       ??0__crt_stdio_stream@@QEAA@QEAU_iobuf@@@Z 0000000180067430 f i libucrtd:output.obj
 0001:00066450       ??0formatting_buffer@__crt_stdio_output@@QEAA@XZ 0000000180067450 f i libucrtd:output.obj
 0001:00066490       ??1?$common_data@D@__crt_stdio_output@@QEAA@XZ 0000000180067490 f i libucrtd:output.obj
 0001:000664b0       ??1?$common_data@_W@__crt_stdio_output@@QEAA@XZ 00000001800674b0 f i libucrtd:output.obj
 0001:000664d0       ??1?$format_validation_base@DV?$stream_output_adapter@D@__crt_stdio_output@@@__crt_stdio_output@@QEAA@XZ 00000001800674d0 f i libucrtd:output.obj
 0001:000664f0       ??1?$format_validation_base@DV?$string_output_adapter@D@__crt_stdio_output@@@__crt_stdio_output@@QEAA@XZ 00000001800674f0 f i libucrtd:output.obj
 0001:00066510       ??1?$format_validation_base@_WV?$stream_output_adapter@_W@__crt_stdio_output@@@__crt_stdio_output@@QEAA@XZ 0000000180067510 f i libucrtd:output.obj
 0001:00066530       ??1?$format_validation_base@_WV?$string_output_adapter@_W@__crt_stdio_output@@@__crt_stdio_output@@QEAA@XZ 0000000180067530 f i libucrtd:output.obj
 0001:00066550       ??1?$output_adapter_data@DV?$stream_output_adapter@D@__crt_stdio_output@@@__crt_stdio_output@@QEAA@XZ 0000000180067550 f i libucrtd:output.obj
 0001:00066570       ??1?$output_adapter_data@DV?$string_output_adapter@D@__crt_stdio_output@@@__crt_stdio_output@@QEAA@XZ 0000000180067570 f i libucrtd:output.obj
 0001:00066590       ??1?$output_adapter_data@_WV?$stream_output_adapter@_W@__crt_stdio_output@@@__crt_stdio_output@@QEAA@XZ 0000000180067590 f i libucrtd:output.obj
 0001:000665b0       ??1?$output_adapter_data@_WV?$string_output_adapter@_W@__crt_stdio_output@@@__crt_stdio_output@@QEAA@XZ 00000001800675b0 f i libucrtd:output.obj
 0001:000665d0       ??1?$output_processor@DV?$stream_output_adapter@D@__crt_stdio_output@@V?$format_validation_base@DV?$stream_output_adapter@D@__crt_stdio_output@@@2@@__crt_stdio_output@@QEAA@XZ 00000001800675d0 f i libucrtd:output.obj
 0001:000665f0       ??1?$output_processor@DV?$stream_output_adapter@D@__crt_stdio_output@@V?$positional_parameter_base@DV?$stream_output_adapter@D@__crt_stdio_output@@@2@@__crt_stdio_output@@QEAA@XZ 00000001800675f0 f i libucrtd:output.obj
 0001:00066610       ??1?$output_processor@DV?$stream_output_adapter@D@__crt_stdio_output@@V?$standard_base@DV?$stream_output_adapter@D@__crt_stdio_output@@@2@@__crt_stdio_output@@QEAA@XZ 0000000180067610 f i libucrtd:output.obj
 0001:00066630       ??1?$output_processor@DV?$string_output_adapter@D@__crt_stdio_output@@V?$format_validation_base@DV?$string_output_adapter@D@__crt_stdio_output@@@2@@__crt_stdio_output@@QEAA@XZ 0000000180067630 f i libucrtd:output.obj
 0001:00066650       ??1?$output_processor@DV?$string_output_adapter@D@__crt_stdio_output@@V?$positional_parameter_base@DV?$string_output_adapter@D@__crt_stdio_output@@@2@@__crt_stdio_output@@QEAA@XZ 0000000180067650 f i libucrtd:output.obj
 0001:00066670       ??1?$output_processor@DV?$string_output_adapter@D@__crt_stdio_output@@V?$standard_base@DV?$string_output_adapter@D@__crt_stdio_output@@@2@@__crt_stdio_output@@QEAA@XZ 0000000180067670 f i libucrtd:output.obj
 0001:00066690       ??1?$output_processor@_WV?$stream_output_adapter@_W@__crt_stdio_output@@V?$format_validation_base@_WV?$stream_output_adapter@_W@__crt_stdio_output@@@2@@__crt_stdio_output@@QEAA@XZ 0000000180067690 f i libucrtd:output.obj
 0001:000666b0       ??1?$output_processor@_WV?$stream_output_adapter@_W@__crt_stdio_output@@V?$positional_parameter_base@_WV?$stream_output_adapter@_W@__crt_stdio_output@@@2@@__crt_stdio_output@@QEAA@XZ 00000001800676b0 f i libucrtd:output.obj
 0001:000666d0       ??1?$output_processor@_WV?$stream_output_adapter@_W@__crt_stdio_output@@V?$standard_base@_WV?$stream_output_adapter@_W@__crt_stdio_output@@@2@@__crt_stdio_output@@QEAA@XZ 00000001800676d0 f i libucrtd:output.obj
 0001:000666f0       ??1?$output_processor@_WV?$string_output_adapter@_W@__crt_stdio_output@@V?$format_validation_base@_WV?$string_output_adapter@_W@__crt_stdio_output@@@2@@__crt_stdio_output@@QEAA@XZ 00000001800676f0 f i libucrtd:output.obj
 0001:00066710       ??1?$output_processor@_WV?$string_output_adapter@_W@__crt_stdio_output@@V?$positional_parameter_base@_WV?$string_output_adapter@_W@__crt_stdio_output@@@2@@__crt_stdio_output@@QEAA@XZ 0000000180067710 f i libucrtd:output.obj
 0001:00066730       ??1?$output_processor@_WV?$string_output_adapter@_W@__crt_stdio_output@@V?$standard_base@_WV?$string_output_adapter@_W@__crt_stdio_output@@@2@@__crt_stdio_output@@QEAA@XZ 0000000180067730 f i libucrtd:output.obj
 0001:00066750       ??1?$positional_parameter_base@DV?$stream_output_adapter@D@__crt_stdio_output@@@__crt_stdio_output@@QEAA@XZ 0000000180067750 f i libucrtd:output.obj
 0001:00066770       ??1?$positional_parameter_base@DV?$string_output_adapter@D@__crt_stdio_output@@@__crt_stdio_output@@QEAA@XZ 0000000180067770 f i libucrtd:output.obj
 0001:00066790       ??1?$positional_parameter_base@_WV?$stream_output_adapter@_W@__crt_stdio_output@@@__crt_stdio_output@@QEAA@XZ 0000000180067790 f i libucrtd:output.obj
 0001:000667b0       ??1?$positional_parameter_base@_WV?$string_output_adapter@_W@__crt_stdio_output@@@__crt_stdio_output@@QEAA@XZ 00000001800677b0 f i libucrtd:output.obj
 0001:000667d0       ??1?$standard_base@DV?$stream_output_adapter@D@__crt_stdio_output@@@__crt_stdio_output@@QEAA@XZ 00000001800677d0 f i libucrtd:output.obj
 0001:000667f0       ??1?$standard_base@DV?$string_output_adapter@D@__crt_stdio_output@@@__crt_stdio_output@@QEAA@XZ 00000001800677f0 f i libucrtd:output.obj
 0001:00066810       ??1?$standard_base@_WV?$stream_output_adapter@_W@__crt_stdio_output@@@__crt_stdio_output@@QEAA@XZ 0000000180067810 f i libucrtd:output.obj
 0001:00066830       ??1?$standard_base@_WV?$string_output_adapter@_W@__crt_stdio_output@@@__crt_stdio_output@@QEAA@XZ 0000000180067830 f i libucrtd:output.obj
 0001:00066850       ??1_LocaleUpdate@@QEAA@XZ  0000000180067850 f i libucrtd:output.obj
 0001:00066890       ??1__acrt_stdio_temporary_buffering_guard@@QEAA@XZ 0000000180067890 f i libucrtd:output.obj
 0001:000668c0       ??1__crt_errno_guard@@QEAA@XZ 00000001800678c0 f i libucrtd:output.obj
 0001:000668f0       ??1formatting_buffer@__crt_stdio_output@@QEAA@XZ 00000001800678f0 f i libucrtd:output.obj
 0001:00066920       ??4?$__crt_unique_heap_ptr@DU__crt_internal_free_policy@@@@QEAAAEAV0@$$QEAV0@@Z 0000000180067920 f i libucrtd:output.obj
 0001:00066960       ??C__crt_stdio_stream@@QEBAPEAU__crt_stdio_stream_data@@XZ 0000000180067960 f i libucrtd:output.obj
 0001:00067210       ?GetLocaleT@_LocaleUpdate@@QEAAPEAU__crt_locale_pointers@@XZ 0000000180068210 f i libucrtd:output.obj
 0001:00067220       ?__crt_interlocked_read_32@@YAHPEDH@Z 0000000180068220 f i libucrtd:output.obj
 0001:00067240       ?adjust_hexit@?$output_processor@DV?$stream_output_adapter@D@__crt_stdio_output@@V?$format_validation_base@DV?$stream_output_adapter@D@__crt_stdio_output@@@2@@__crt_stdio_output@@CADH_N@Z 0000000180068240 f i libucrtd:output.obj
 0001:00067290       ?adjust_hexit@?$output_processor@DV?$stream_output_adapter@D@__crt_stdio_output@@V?$positional_parameter_base@DV?$stream_output_adapter@D@__crt_stdio_output@@@2@@__crt_stdio_output@@CADH_N@Z 0000000180068290 f i libucrtd:output.obj
 0001:000672e0       ?adjust_hexit@?$output_processor@DV?$stream_output_adapter@D@__crt_stdio_output@@V?$standard_base@DV?$stream_output_adapter@D@__crt_stdio_output@@@2@@__crt_stdio_output@@CADH_N@Z 00000001800682e0 f i libucrtd:output.obj
 0001:00067330       ?adjust_hexit@?$output_processor@DV?$string_output_adapter@D@__crt_stdio_output@@V?$format_validation_base@DV?$string_output_adapter@D@__crt_stdio_output@@@2@@__crt_stdio_output@@CADH_N@Z 0000000180068330 f i libucrtd:output.obj
 0001:00067380       ?adjust_hexit@?$output_processor@DV?$string_output_adapter@D@__crt_stdio_output@@V?$positional_parameter_base@DV?$string_output_adapter@D@__crt_stdio_output@@@2@@__crt_stdio_output@@CADH_N@Z 0000000180068380 f i libucrtd:output.obj
 0001:000673d0       ?adjust_hexit@?$output_processor@DV?$string_output_adapter@D@__crt_stdio_output@@V?$standard_base@DV?$string_output_adapter@D@__crt_stdio_output@@@2@@__crt_stdio_output@@CADH_N@Z 00000001800683d0 f i libucrtd:output.obj
 0001:00067420       ?adjust_hexit@?$output_processor@_WV?$stream_output_adapter@_W@__crt_stdio_output@@V?$format_validation_base@_WV?$stream_output_adapter@_W@__crt_stdio_output@@@2@@__crt_stdio_output@@CADH_N@Z 0000000180068420 f i libucrtd:output.obj
 0001:00067470       ?adjust_hexit@?$output_processor@_WV?$stream_output_adapter@_W@__crt_stdio_output@@V?$positional_parameter_base@_WV?$stream_output_adapter@_W@__crt_stdio_output@@@2@@__crt_stdio_output@@CADH_N@Z 0000000180068470 f i libucrtd:output.obj
 0001:000674c0       ?adjust_hexit@?$output_processor@_WV?$stream_output_adapter@_W@__crt_stdio_output@@V?$standard_base@_WV?$stream_output_adapter@_W@__crt_stdio_output@@@2@@__crt_stdio_output@@CADH_N@Z 00000001800684c0 f i libucrtd:output.obj
 0001:00067510       ?adjust_hexit@?$output_processor@_WV?$string_output_adapter@_W@__crt_stdio_output@@V?$format_validation_base@_WV?$string_output_adapter@_W@__crt_stdio_output@@@2@@__crt_stdio_output@@CADH_N@Z 0000000180068510 f i libucrtd:output.obj
 0001:00067560       ?adjust_hexit@?$output_processor@_WV?$string_output_adapter@_W@__crt_stdio_output@@V?$positional_parameter_base@_WV?$string_output_adapter@_W@__crt_stdio_output@@@2@@__crt_stdio_output@@CADH_N@Z 0000000180068560 f i libucrtd:output.obj
 0001:000675b0       ?adjust_hexit@?$output_processor@_WV?$string_output_adapter@_W@__crt_stdio_output@@V?$standard_base@_WV?$string_output_adapter@_W@__crt_stdio_output@@@2@@__crt_stdio_output@@CADH_N@Z 00000001800685b0 f i libucrtd:output.obj
 0001:00067600       ?advance_to_next_pass@?$positional_parameter_base@DV?$stream_output_adapter@D@__crt_stdio_output@@@__crt_stdio_output@@IEAA_NXZ 0000000180068600 f i libucrtd:output.obj
 0001:000676b0       ?advance_to_next_pass@?$positional_parameter_base@DV?$string_output_adapter@D@__crt_stdio_output@@@__crt_stdio_output@@IEAA_NXZ 00000001800686b0 f i libucrtd:output.obj
 0001:00067760       ?advance_to_next_pass@?$positional_parameter_base@_WV?$stream_output_adapter@_W@__crt_stdio_output@@@__crt_stdio_output@@IEAA_NXZ 0000000180068760 f i libucrtd:output.obj
 0001:00067810       ?advance_to_next_pass@?$positional_parameter_base@_WV?$string_output_adapter@_W@__crt_stdio_output@@@__crt_stdio_output@@IEAA_NXZ 0000000180068810 f i libucrtd:output.obj
 0001:000678c0       ?advance_to_next_pass@?$standard_base@DV?$stream_output_adapter@D@__crt_stdio_output@@@__crt_stdio_output@@IEAA_NXZ 00000001800688c0 f i libucrtd:output.obj
 0001:00067910       ?advance_to_next_pass@?$standard_base@DV?$string_output_adapter@D@__crt_stdio_output@@@__crt_stdio_output@@IEAA_NXZ 0000000180068910 f i libucrtd:output.obj
 0001:00067960       ?advance_to_next_pass@?$standard_base@_WV?$stream_output_adapter@_W@__crt_stdio_output@@@__crt_stdio_output@@IEAA_NXZ 0000000180068960 f i libucrtd:output.obj
 0001:000679b0       ?advance_to_next_pass@?$standard_base@_WV?$string_output_adapter@_W@__crt_stdio_output@@@__crt_stdio_output@@IEAA_NXZ 00000001800689b0 f i libucrtd:output.obj
 0001:00067a00       ?crop_zeroes@__crt_stdio_output@@YAXPEADQEAU__crt_locale_pointers@@@Z 0000000180068a00 f i libucrtd:output.obj
 0001:00067b40       ?find_next_state@?$output_processor@DV?$stream_output_adapter@D@__crt_stdio_output@@V?$format_validation_base@DV?$stream_output_adapter@D@__crt_stdio_output@@@2@@__crt_stdio_output@@AEBA?AW4state@2@DW432@@Z 0000000180068b40 f i libucrtd:output.obj
 0001:00067be0       ?find_next_state@?$output_processor@DV?$stream_output_adapter@D@__crt_stdio_output@@V?$positional_parameter_base@DV?$stream_output_adapter@D@__crt_stdio_output@@@2@@__crt_stdio_output@@AEBA?AW4state@2@DW432@@Z 0000000180068be0 f i libucrtd:output.obj
 0001:00067c80       ?find_next_state@?$output_processor@DV?$stream_output_adapter@D@__crt_stdio_output@@V?$standard_base@DV?$stream_output_adapter@D@__crt_stdio_output@@@2@@__crt_stdio_output@@AEBA?AW4state@2@DW432@@Z 0000000180068c80 f i libucrtd:output.obj
 0001:00067d20       ?find_next_state@?$output_processor@DV?$string_output_adapter@D@__crt_stdio_output@@V?$format_validation_base@DV?$string_output_adapter@D@__crt_stdio_output@@@2@@__crt_stdio_output@@AEBA?AW4state@2@DW432@@Z 0000000180068d20 f i libucrtd:output.obj
 0001:00067dc0       ?find_next_state@?$output_processor@DV?$string_output_adapter@D@__crt_stdio_output@@V?$positional_parameter_base@DV?$string_output_adapter@D@__crt_stdio_output@@@2@@__crt_stdio_output@@AEBA?AW4state@2@DW432@@Z 0000000180068dc0 f i libucrtd:output.obj
 0001:00067e60       ?find_next_state@?$output_processor@DV?$string_output_adapter@D@__crt_stdio_output@@V?$standard_base@DV?$string_output_adapter@D@__crt_stdio_output@@@2@@__crt_stdio_output@@AEBA?AW4state@2@DW432@@Z 0000000180068e60 f i libucrtd:output.obj
 0001:00067f00       ?find_next_state@?$output_processor@_WV?$stream_output_adapter@_W@__crt_stdio_output@@V?$format_validation_base@_WV?$stream_output_adapter@_W@__crt_stdio_output@@@2@@__crt_stdio_output@@AEBA?AW4state@2@_WW432@@Z 0000000180068f00 f i libucrtd:output.obj
 0001:00067fa0       ?find_next_state@?$output_processor@_WV?$stream_output_adapter@_W@__crt_stdio_output@@V?$positional_parameter_base@_WV?$stream_output_adapter@_W@__crt_stdio_output@@@2@@__crt_stdio_output@@AEBA?AW4state@2@_WW432@@Z 0000000180068fa0 f i libucrtd:output.obj
 0001:00068040       ?find_next_state@?$output_processor@_WV?$stream_output_adapter@_W@__crt_stdio_output@@V?$standard_base@_WV?$stream_output_adapter@_W@__crt_stdio_output@@@2@@__crt_stdio_output@@AEBA?AW4state@2@_WW432@@Z 0000000180069040 f i libucrtd:output.obj
 0001:000680e0       ?find_next_state@?$output_processor@_WV?$string_output_adapter@_W@__crt_stdio_output@@V?$format_validation_base@_WV?$string_output_adapter@_W@__crt_stdio_output@@@2@@__crt_stdio_output@@AEBA?AW4state@2@_WW432@@Z 00000001800690e0 f i libucrtd:output.obj
 0001:00068180       ?find_next_state@?$output_processor@_WV?$string_output_adapter@_W@__crt_stdio_output@@V?$positional_parameter_base@_WV?$string_output_adapter@_W@__crt_stdio_output@@@2@@__crt_stdio_output@@AEBA?AW4state@2@_WW432@@Z 0000000180069180 f i libucrtd:output.obj
 0001:00068220       ?find_next_state@?$output_processor@_WV?$string_output_adapter@_W@__crt_stdio_output@@V?$standard_base@_WV?$string_output_adapter@_W@__crt_stdio_output@@@2@@__crt_stdio_output@@AEBA?AW4state@2@_WW432@@Z 0000000180069220 f i libucrtd:output.obj
 0001:000682c0       ?force_decimal_point@__crt_stdio_output@@YAXPEADQEAU__crt_locale_pointers@@@Z 00000001800692c0 f i libucrtd:output.obj
 0001:000683c0       ?get@__crt_deferred_errno_cache@@QEAAAEAHXZ 00000001800693c0 f i libucrtd:output.obj
 0001:000683f0       ?get_flags@__crt_stdio_stream@@QEBAJXZ 00000001800693f0 f i libucrtd:output.obj
 0001:00068420       ?get_parameter_type@?$positional_parameter_base@DV?$stream_output_adapter@D@__crt_stdio_output@@@__crt_stdio_output@@CA?AW4parameter_type@12@F@Z 0000000180069420 f i libucrtd:output.obj
 0001:00068430       ?get_parameter_type@?$positional_parameter_base@DV?$stream_output_adapter@D@__crt_stdio_output@@@__crt_stdio_output@@CA?AW4parameter_type@12@G@Z 0000000180069430 f i libucrtd:output.obj
 0001:00068440       ?get_parameter_type@?$positional_parameter_base@DV?$stream_output_adapter@D@__crt_stdio_output@@@__crt_stdio_output@@CA?AW4parameter_type@12@H@Z 0000000180069440 f i libucrtd:output.obj
 0001:00068450       ?get_parameter_type@?$positional_parameter_base@DV?$stream_output_adapter@D@__crt_stdio_output@@@__crt_stdio_output@@CA?AW4parameter_type@12@I@Z 0000000180069450 f i libucrtd:output.obj
 0001:00068460       ?get_parameter_type@?$positional_parameter_base@DV?$stream_output_adapter@D@__crt_stdio_output@@@__crt_stdio_output@@CA?AW4parameter_type@12@U_CRT_DOUBLE@@@Z 0000000180069460 f i libucrtd:output.obj
 0001:00068470       ?get_parameter_type@?$positional_parameter_base@DV?$stream_output_adapter@D@__crt_stdio_output@@@__crt_stdio_output@@CA?AW4parameter_type@12@_J@Z 0000000180069470 f i libucrtd:output.obj
 0001:00068480       ?get_parameter_type@?$positional_parameter_base@DV?$stream_output_adapter@D@__crt_stdio_output@@@__crt_stdio_output@@CA?AW4parameter_type@12@_K@Z 0000000180069480 f i libucrtd:output.obj
 0001:00068490       ?get_parameter_type@?$positional_parameter_base@DV?$stream_output_adapter@D@__crt_stdio_output@@@__crt_stdio_output@@CA?AW4parameter_type@12@_W@Z 0000000180069490 f i libucrtd:output.obj
 0001:000684a0       ?get_parameter_type@?$positional_parameter_base@DV?$string_output_adapter@D@__crt_stdio_output@@@__crt_stdio_output@@CA?AW4parameter_type@12@F@Z 00000001800694a0 f i libucrtd:output.obj
 0001:000684b0       ?get_parameter_type@?$positional_parameter_base@DV?$string_output_adapter@D@__crt_stdio_output@@@__crt_stdio_output@@CA?AW4parameter_type@12@G@Z 00000001800694b0 f i libucrtd:output.obj
 0001:000684c0       ?get_parameter_type@?$positional_parameter_base@DV?$string_output_adapter@D@__crt_stdio_output@@@__crt_stdio_output@@CA?AW4parameter_type@12@H@Z 00000001800694c0 f i libucrtd:output.obj
 0001:000684d0       ?get_parameter_type@?$positional_parameter_base@DV?$string_output_adapter@D@__crt_stdio_output@@@__crt_stdio_output@@CA?AW4parameter_type@12@I@Z 00000001800694d0 f i libucrtd:output.obj
 0001:000684e0       ?get_parameter_type@?$positional_parameter_base@DV?$string_output_adapter@D@__crt_stdio_output@@@__crt_stdio_output@@CA?AW4parameter_type@12@U_CRT_DOUBLE@@@Z 00000001800694e0 f i libucrtd:output.obj
 0001:000684f0       ?get_parameter_type@?$positional_parameter_base@DV?$string_output_adapter@D@__crt_stdio_output@@@__crt_stdio_output@@CA?AW4parameter_type@12@_J@Z 00000001800694f0 f i libucrtd:output.obj
 0001:00068500       ?get_parameter_type@?$positional_parameter_base@DV?$string_output_adapter@D@__crt_stdio_output@@@__crt_stdio_output@@CA?AW4parameter_type@12@_K@Z 0000000180069500 f i libucrtd:output.obj
 0001:00068510       ?get_parameter_type@?$positional_parameter_base@DV?$string_output_adapter@D@__crt_stdio_output@@@__crt_stdio_output@@CA?AW4parameter_type@12@_W@Z 0000000180069510 f i libucrtd:output.obj
 0001:00068520       ?get_parameter_type@?$positional_parameter_base@_WV?$stream_output_adapter@_W@__crt_stdio_output@@@__crt_stdio_output@@CA?AW4parameter_type@12@F@Z 0000000180069520 f i libucrtd:output.obj
 0001:00068530       ?get_parameter_type@?$positional_parameter_base@_WV?$stream_output_adapter@_W@__crt_stdio_output@@@__crt_stdio_output@@CA?AW4parameter_type@12@G@Z 0000000180069530 f i libucrtd:output.obj
 0001:00068540       ?get_parameter_type@?$positional_parameter_base@_WV?$stream_output_adapter@_W@__crt_stdio_output@@@__crt_stdio_output@@CA?AW4parameter_type@12@H@Z 0000000180069540 f i libucrtd:output.obj
 0001:00068550       ?get_parameter_type@?$positional_parameter_base@_WV?$stream_output_adapter@_W@__crt_stdio_output@@@__crt_stdio_output@@CA?AW4parameter_type@12@I@Z 0000000180069550 f i libucrtd:output.obj
 0001:00068560       ?get_parameter_type@?$positional_parameter_base@_WV?$stream_output_adapter@_W@__crt_stdio_output@@@__crt_stdio_output@@CA?AW4parameter_type@12@U_CRT_DOUBLE@@@Z 0000000180069560 f i libucrtd:output.obj
 0001:00068570       ?get_parameter_type@?$positional_parameter_base@_WV?$stream_output_adapter@_W@__crt_stdio_output@@@__crt_stdio_output@@CA?AW4parameter_type@12@_J@Z 0000000180069570 f i libucrtd:output.obj
 0001:00068580       ?get_parameter_type@?$positional_parameter_base@_WV?$stream_output_adapter@_W@__crt_stdio_output@@@__crt_stdio_output@@CA?AW4parameter_type@12@_K@Z 0000000180069580 f i libucrtd:output.obj
 0001:00068590       ?get_parameter_type@?$positional_parameter_base@_WV?$stream_output_adapter@_W@__crt_stdio_output@@@__crt_stdio_output@@CA?AW4parameter_type@12@_W@Z 0000000180069590 f i libucrtd:output.obj
 0001:000685a0       ?get_parameter_type@?$positional_parameter_base@_WV?$string_output_adapter@_W@__crt_stdio_output@@@__crt_stdio_output@@CA?AW4parameter_type@12@F@Z 00000001800695a0 f i libucrtd:output.obj
 0001:000685b0       ?get_parameter_type@?$positional_parameter_base@_WV?$string_output_adapter@_W@__crt_stdio_output@@@__crt_stdio_output@@CA?AW4parameter_type@12@G@Z 00000001800695b0 f i libucrtd:output.obj
 0001:000685c0       ?get_parameter_type@?$positional_parameter_base@_WV?$string_output_adapter@_W@__crt_stdio_output@@@__crt_stdio_output@@CA?AW4parameter_type@12@H@Z 00000001800695c0 f i libucrtd:output.obj
 0001:000685d0       ?get_parameter_type@?$positional_parameter_base@_WV?$string_output_adapter@_W@__crt_stdio_output@@@__crt_stdio_output@@CA?AW4parameter_type@12@I@Z 00000001800695d0 f i libucrtd:output.obj
 0001:000685e0       ?get_parameter_type@?$positional_parameter_base@_WV?$string_output_adapter@_W@__crt_stdio_output@@@__crt_stdio_output@@CA?AW4parameter_type@12@U_CRT_DOUBLE@@@Z 00000001800695e0 f i libucrtd:output.obj
 0001:000685f0       ?get_parameter_type@?$positional_parameter_base@_WV?$string_output_adapter@_W@__crt_stdio_output@@@__crt_stdio_output@@CA?AW4parameter_type@12@_J@Z 00000001800695f0 f i libucrtd:output.obj
 0001:00068600       ?get_parameter_type@?$positional_parameter_base@_WV?$string_output_adapter@_W@__crt_stdio_output@@@__crt_stdio_output@@CA?AW4parameter_type@12@_K@Z 0000000180069600 f i libucrtd:output.obj
 0001:00068610       ?get_parameter_type@?$positional_parameter_base@_WV?$string_output_adapter@_W@__crt_stdio_output@@@__crt_stdio_output@@CA?AW4parameter_type@12@_W@Z 0000000180069610 f i libucrtd:output.obj
 0001:00068620       ?has_flag@?$output_processor@DV?$stream_output_adapter@D@__crt_stdio_output@@V?$format_validation_base@DV?$stream_output_adapter@D@__crt_stdio_output@@@2@@__crt_stdio_output@@AEBA_NI@Z 0000000180069620 f i libucrtd:output.obj
 0001:00068660       ?has_flag@?$output_processor@DV?$stream_output_adapter@D@__crt_stdio_output@@V?$positional_parameter_base@DV?$stream_output_adapter@D@__crt_stdio_output@@@2@@__crt_stdio_output@@AEBA_NI@Z 0000000180069660 f i libucrtd:output.obj
 0001:000686a0       ?has_flag@?$output_processor@DV?$stream_output_adapter@D@__crt_stdio_output@@V?$standard_base@DV?$stream_output_adapter@D@__crt_stdio_output@@@2@@__crt_stdio_output@@AEBA_NI@Z 00000001800696a0 f i libucrtd:output.obj
 0001:000686e0       ?has_flag@?$output_processor@DV?$string_output_adapter@D@__crt_stdio_output@@V?$format_validation_base@DV?$string_output_adapter@D@__crt_stdio_output@@@2@@__crt_stdio_output@@AEBA_NI@Z 00000001800696e0 f i libucrtd:output.obj
 0001:00068720       ?has_flag@?$output_processor@DV?$string_output_adapter@D@__crt_stdio_output@@V?$positional_parameter_base@DV?$string_output_adapter@D@__crt_stdio_output@@@2@@__crt_stdio_output@@AEBA_NI@Z 0000000180069720 f i libucrtd:output.obj
 0001:00068760       ?has_flag@?$output_processor@DV?$string_output_adapter@D@__crt_stdio_output@@V?$standard_base@DV?$string_output_adapter@D@__crt_stdio_output@@@2@@__crt_stdio_output@@AEBA_NI@Z 0000000180069760 f i libucrtd:output.obj
 0001:000687a0       ?has_flag@?$output_processor@_WV?$stream_output_adapter@_W@__crt_stdio_output@@V?$format_validation_base@_WV?$stream_output_adapter@_W@__crt_stdio_output@@@2@@__crt_stdio_output@@AEBA_NI@Z 00000001800697a0 f i libucrtd:output.obj
 0001:000687e0       ?has_flag@?$output_processor@_WV?$stream_output_adapter@_W@__crt_stdio_output@@V?$positional_parameter_base@_WV?$stream_output_adapter@_W@__crt_stdio_output@@@2@@__crt_stdio_output@@AEBA_NI@Z 00000001800697e0 f i libucrtd:output.obj
 0001:00068820       ?has_flag@?$output_processor@_WV?$stream_output_adapter@_W@__crt_stdio_output@@V?$standard_base@_WV?$stream_output_adapter@_W@__crt_stdio_output@@@2@@__crt_stdio_output@@AEBA_NI@Z 0000000180069820 f i libucrtd:output.obj
 0001:00068860       ?has_flag@?$output_processor@_WV?$string_output_adapter@_W@__crt_stdio_output@@V?$format_validation_base@_WV?$string_output_adapter@_W@__crt_stdio_output@@@2@@__crt_stdio_output@@AEBA_NI@Z 0000000180069860 f i libucrtd:output.obj
 0001:000688a0       ?has_flag@?$output_processor@_WV?$string_output_adapter@_W@__crt_stdio_output@@V?$positional_parameter_base@_WV?$string_output_adapter@_W@__crt_stdio_output@@@2@@__crt_stdio_output@@AEBA_NI@Z 00000001800698a0 f i libucrtd:output.obj
 0001:000688e0       ?has_flag@?$output_processor@_WV?$string_output_adapter@_W@__crt_stdio_output@@V?$standard_base@_WV?$string_output_adapter@_W@__crt_stdio_output@@@2@@__crt_stdio_output@@AEBA_NI@Z 00000001800698e0 f i libucrtd:output.obj
 0001:00068920       ?is_positional_parameter_reappearance_consistent@?$positional_parameter_base@DV?$stream_output_adapter@D@__crt_stdio_output@@@__crt_stdio_output@@AEAA_NAEBUparameter_data@12@W4parameter_type@12@DW4length_modifier@2@@Z 0000000180069920 f i libucrtd:output.obj
 0001:00068b80       ?is_positional_parameter_reappearance_consistent@?$positional_parameter_base@DV?$string_output_adapter@D@__crt_stdio_output@@@__crt_stdio_output@@AEAA_NAEBUparameter_data@12@W4parameter_type@12@DW4length_modifier@2@@Z 0000000180069b80 f i libucrtd:output.obj
 0001:00068de0       ?is_positional_parameter_reappearance_consistent@?$positional_parameter_base@_WV?$stream_output_adapter@_W@__crt_stdio_output@@@__crt_stdio_output@@AEAA_NAEBUparameter_data@12@W4parameter_type@12@_WW4length_modifier@2@@Z 0000000180069de0 f i libucrtd:output.obj
 0001:00069040       ?is_positional_parameter_reappearance_consistent@?$positional_parameter_base@_WV?$string_output_adapter@_W@__crt_stdio_output@@@__crt_stdio_output@@AEAA_NAEBUparameter_data@12@W4parameter_type@12@_WW4length_modifier@2@@Z 000000018006a040 f i libucrtd:output.obj
 0001:000692a0       ?is_string_backed@__crt_stdio_stream@@QEBA_NXZ 000000018006a2a0 f i libucrtd:output.obj
 0001:000692e0       ?narrow_null_string@?$output_processor@DV?$stream_output_adapter@D@__crt_stdio_output@@V?$format_validation_base@DV?$stream_output_adapter@D@__crt_stdio_output@@@2@@__crt_stdio_output@@CAPEADXZ 000000018006a2e0 f i libucrtd:output.obj
 0001:000692f0       ?narrow_null_string@?$output_processor@DV?$stream_output_adapter@D@__crt_stdio_output@@V?$positional_parameter_base@DV?$stream_output_adapter@D@__crt_stdio_output@@@2@@__crt_stdio_output@@CAPEADXZ 000000018006a2f0 f i libucrtd:output.obj
 0001:00069300       ?narrow_null_string@?$output_processor@DV?$stream_output_adapter@D@__crt_stdio_output@@V?$standard_base@DV?$stream_output_adapter@D@__crt_stdio_output@@@2@@__crt_stdio_output@@CAPEADXZ 000000018006a300 f i libucrtd:output.obj
 0001:00069310       ?narrow_null_string@?$output_processor@DV?$string_output_adapter@D@__crt_stdio_output@@V?$format_validation_base@DV?$string_output_adapter@D@__crt_stdio_output@@@2@@__crt_stdio_output@@CAPEADXZ 000000018006a310 f i libucrtd:output.obj
 0001:00069320       ?narrow_null_string@?$output_processor@DV?$string_output_adapter@D@__crt_stdio_output@@V?$positional_parameter_base@DV?$string_output_adapter@D@__crt_stdio_output@@@2@@__crt_stdio_output@@CAPEADXZ 000000018006a320 f i libucrtd:output.obj
 0001:00069330       ?narrow_null_string@?$output_processor@DV?$string_output_adapter@D@__crt_stdio_output@@V?$standard_base@DV?$string_output_adapter@D@__crt_stdio_output@@@2@@__crt_stdio_output@@CAPEADXZ 000000018006a330 f i libucrtd:output.obj
 0001:00069340       ?narrow_null_string@?$output_processor@_WV?$stream_output_adapter@_W@__crt_stdio_output@@V?$format_validation_base@_WV?$stream_output_adapter@_W@__crt_stdio_output@@@2@@__crt_stdio_output@@CAPEADXZ 000000018006a340 f i libucrtd:output.obj
 0001:00069350       ?narrow_null_string@?$output_processor@_WV?$stream_output_adapter@_W@__crt_stdio_output@@V?$positional_parameter_base@_WV?$stream_output_adapter@_W@__crt_stdio_output@@@2@@__crt_stdio_output@@CAPEADXZ 000000018006a350 f i libucrtd:output.obj
 0001:00069360       ?narrow_null_string@?$output_processor@_WV?$stream_output_adapter@_W@__crt_stdio_output@@V?$standard_base@_WV?$stream_output_adapter@_W@__crt_stdio_output@@@2@@__crt_stdio_output@@CAPEADXZ 000000018006a360 f i libucrtd:output.obj
 0001:00069370       ?narrow_null_string@?$output_processor@_WV?$string_output_adapter@_W@__crt_stdio_output@@V?$format_validation_base@_WV?$string_output_adapter@_W@__crt_stdio_output@@@2@@__crt_stdio_output@@CAPEADXZ 000000018006a370 f i libucrtd:output.obj
 0001:00069380       ?narrow_null_string@?$output_processor@_WV?$string_output_adapter@_W@__crt_stdio_output@@V?$positional_parameter_base@_WV?$string_output_adapter@_W@__crt_stdio_output@@@2@@__crt_stdio_output@@CAPEADXZ 000000018006a380 f i libucrtd:output.obj
 0001:00069390       ?narrow_null_string@?$output_processor@_WV?$string_output_adapter@_W@__crt_stdio_output@@V?$standard_base@_WV?$string_output_adapter@_W@__crt_stdio_output@@@2@@__crt_stdio_output@@CAPEADXZ 000000018006a390 f i libucrtd:output.obj
 0001:000693a0       ?parse_int_from_format_string@?$output_processor@DV?$stream_output_adapter@D@__crt_stdio_output@@V?$format_validation_base@DV?$stream_output_adapter@D@__crt_stdio_output@@@2@@__crt_stdio_output@@AEAA_NQEAH@Z 000000018006a3a0 f i libucrtd:output.obj
 0001:00069490       ?parse_int_from_format_string@?$output_processor@DV?$stream_output_adapter@D@__crt_stdio_output@@V?$positional_parameter_base@DV?$stream_output_adapter@D@__crt_stdio_output@@@2@@__crt_stdio_output@@AEAA_NQEAH@Z 000000018006a490 f i libucrtd:output.obj
 0001:00069580       ?parse_int_from_format_string@?$output_processor@DV?$stream_output_adapter@D@__crt_stdio_output@@V?$standard_base@DV?$stream_output_adapter@D@__crt_stdio_output@@@2@@__crt_stdio_output@@AEAA_NQEAH@Z 000000018006a580 f i libucrtd:output.obj
 0001:00069670       ?parse_int_from_format_string@?$output_processor@DV?$string_output_adapter@D@__crt_stdio_output@@V?$format_validation_base@DV?$string_output_adapter@D@__crt_stdio_output@@@2@@__crt_stdio_output@@AEAA_NQEAH@Z 000000018006a670 f i libucrtd:output.obj
 0001:00069760       ?parse_int_from_format_string@?$output_processor@DV?$string_output_adapter@D@__crt_stdio_output@@V?$positional_parameter_base@DV?$string_output_adapter@D@__crt_stdio_output@@@2@@__crt_stdio_output@@AEAA_NQEAH@Z 000000018006a760 f i libucrtd:output.obj
 0001:00069850       ?parse_int_from_format_string@?$output_processor@DV?$string_output_adapter@D@__crt_stdio_output@@V?$standard_base@DV?$string_output_adapter@D@__crt_stdio_output@@@2@@__crt_stdio_output@@AEAA_NQEAH@Z 000000018006a850 f i libucrtd:output.obj
 0001:00069940       ?parse_int_from_format_string@?$output_processor@_WV?$stream_output_adapter@_W@__crt_stdio_output@@V?$format_validation_base@_WV?$stream_output_adapter@_W@__crt_stdio_output@@@2@@__crt_stdio_output@@AEAA_NQEAH@Z 000000018006a940 f i libucrtd:output.obj
 0001:00069a30       ?parse_int_from_format_string@?$output_processor@_WV?$stream_output_adapter@_W@__crt_stdio_output@@V?$positional_parameter_base@_WV?$stream_output_adapter@_W@__crt_stdio_output@@@2@@__crt_stdio_output@@AEAA_NQEAH@Z 000000018006aa30 f i libucrtd:output.obj
 0001:00069b20       ?parse_int_from_format_string@?$output_processor@_WV?$stream_output_adapter@_W@__crt_stdio_output@@V?$standard_base@_WV?$stream_output_adapter@_W@__crt_stdio_output@@@2@@__crt_stdio_output@@AEAA_NQEAH@Z 000000018006ab20 f i libucrtd:output.obj
 0001:00069c10       ?parse_int_from_format_string@?$output_processor@_WV?$string_output_adapter@_W@__crt_stdio_output@@V?$format_validation_base@_WV?$string_output_adapter@_W@__crt_stdio_output@@@2@@__crt_stdio_output@@AEAA_NQEAH@Z 000000018006ac10 f i libucrtd:output.obj
 0001:00069d00       ?parse_int_from_format_string@?$output_processor@_WV?$string_output_adapter@_W@__crt_stdio_output@@V?$positional_parameter_base@_WV?$string_output_adapter@_W@__crt_stdio_output@@@2@@__crt_stdio_output@@AEAA_NQEAH@Z 000000018006ad00 f i libucrtd:output.obj
 0001:00069df0       ?parse_int_from_format_string@?$output_processor@_WV?$string_output_adapter@_W@__crt_stdio_output@@V?$standard_base@_WV?$string_output_adapter@_W@__crt_stdio_output@@@2@@__crt_stdio_output@@AEAA_NQEAH@Z 000000018006adf0 f i libucrtd:output.obj
 0001:00069ee0       ?process@?$output_processor@DV?$stream_output_adapter@D@__crt_stdio_output@@V?$format_validation_base@DV?$stream_output_adapter@D@__crt_stdio_output@@@2@@__crt_stdio_output@@QEAAHXZ 000000018006aee0 f i libucrtd:output.obj
 0001:0006a240       ?process@?$output_processor@DV?$stream_output_adapter@D@__crt_stdio_output@@V?$positional_parameter_base@DV?$stream_output_adapter@D@__crt_stdio_output@@@2@@__crt_stdio_output@@QEAAHXZ 000000018006b240 f i libucrtd:output.obj
 0001:0006a5a0       ?process@?$output_processor@DV?$stream_output_adapter@D@__crt_stdio_output@@V?$standard_base@DV?$stream_output_adapter@D@__crt_stdio_output@@@2@@__crt_stdio_output@@QEAAHXZ 000000018006b5a0 f i libucrtd:output.obj
 0001:0006a900       ?process@?$output_processor@DV?$string_output_adapter@D@__crt_stdio_output@@V?$format_validation_base@DV?$string_output_adapter@D@__crt_stdio_output@@@2@@__crt_stdio_output@@QEAAHXZ 000000018006b900 f i libucrtd:output.obj
 0001:0006ac60       ?process@?$output_processor@DV?$string_output_adapter@D@__crt_stdio_output@@V?$positional_parameter_base@DV?$string_output_adapter@D@__crt_stdio_output@@@2@@__crt_stdio_output@@QEAAHXZ 000000018006bc60 f i libucrtd:output.obj
 0001:0006afc0       ?process@?$output_processor@DV?$string_output_adapter@D@__crt_stdio_output@@V?$standard_base@DV?$string_output_adapter@D@__crt_stdio_output@@@2@@__crt_stdio_output@@QEAAHXZ 000000018006bfc0 f i libucrtd:output.obj
 0001:0006b320       ?process@?$output_processor@_WV?$stream_output_adapter@_W@__crt_stdio_output@@V?$format_validation_base@_WV?$stream_output_adapter@_W@__crt_stdio_output@@@2@@__crt_stdio_output@@QEAAHXZ 000000018006c320 f i libucrtd:output.obj
 0001:0006b680       ?process@?$output_processor@_WV?$stream_output_adapter@_W@__crt_stdio_output@@V?$positional_parameter_base@_WV?$stream_output_adapter@_W@__crt_stdio_output@@@2@@__crt_stdio_output@@QEAAHXZ 000000018006c680 f i libucrtd:output.obj
 0001:0006b9e0       ?process@?$output_processor@_WV?$stream_output_adapter@_W@__crt_stdio_output@@V?$standard_base@_WV?$stream_output_adapter@_W@__crt_stdio_output@@@2@@__crt_stdio_output@@QEAAHXZ 000000018006c9e0 f i libucrtd:output.obj
 0001:0006bd40       ?process@?$output_processor@_WV?$string_output_adapter@_W@__crt_stdio_output@@V?$format_validation_base@_WV?$string_output_adapter@_W@__crt_stdio_output@@@2@@__crt_stdio_output@@QEAAHXZ 000000018006cd40 f i libucrtd:output.obj
 0001:0006c0a0       ?process@?$output_processor@_WV?$string_output_adapter@_W@__crt_stdio_output@@V?$positional_parameter_base@_WV?$string_output_adapter@_W@__crt_stdio_output@@@2@@__crt_stdio_output@@QEAAHXZ 000000018006d0a0 f i libucrtd:output.obj
 0001:0006c400       ?process@?$output_processor@_WV?$string_output_adapter@_W@__crt_stdio_output@@V?$standard_base@_WV?$string_output_adapter@_W@__crt_stdio_output@@@2@@__crt_stdio_output@@QEAAHXZ 000000018006d400 f i libucrtd:output.obj
 0001:0006c760       ?public_stream@__crt_stdio_stream@@QEBAPEAU_iobuf@@XZ 000000018006d760 f i libucrtd:output.obj
 0001:0006c770       ?set_flag@?$output_processor@DV?$stream_output_adapter@D@__crt_stdio_output@@V?$format_validation_base@DV?$stream_output_adapter@D@__crt_stdio_output@@@2@@__crt_stdio_output@@AEAAXI@Z 000000018006d770 f i libucrtd:output.obj
 0001:0006c790       ?set_flag@?$output_processor@DV?$stream_output_adapter@D@__crt_stdio_output@@V?$positional_parameter_base@DV?$stream_output_adapter@D@__crt_stdio_output@@@2@@__crt_stdio_output@@AEAAXI@Z 000000018006d790 f i libucrtd:output.obj
 0001:0006c7b0       ?set_flag@?$output_processor@DV?$stream_output_adapter@D@__crt_stdio_output@@V?$standard_base@DV?$stream_output_adapter@D@__crt_stdio_output@@@2@@__crt_stdio_output@@AEAAXI@Z 000000018006d7b0 f i libucrtd:output.obj
 0001:0006c7d0       ?set_flag@?$output_processor@DV?$string_output_adapter@D@__crt_stdio_output@@V?$format_validation_base@DV?$string_output_adapter@D@__crt_stdio_output@@@2@@__crt_stdio_output@@AEAAXI@Z 000000018006d7d0 f i libucrtd:output.obj
 0001:0006c7f0       ?set_flag@?$output_processor@DV?$string_output_adapter@D@__crt_stdio_output@@V?$positional_parameter_base@DV?$string_output_adapter@D@__crt_stdio_output@@@2@@__crt_stdio_output@@AEAAXI@Z 000000018006d7f0 f i libucrtd:output.obj
 0001:0006c810       ?set_flag@?$output_processor@DV?$string_output_adapter@D@__crt_stdio_output@@V?$standard_base@DV?$string_output_adapter@D@__crt_stdio_output@@@2@@__crt_stdio_output@@AEAAXI@Z 000000018006d810 f i libucrtd:output.obj
 0001:0006c830       ?set_flag@?$output_processor@_WV?$stream_output_adapter@_W@__crt_stdio_output@@V?$format_validation_base@_WV?$stream_output_adapter@_W@__crt_stdio_output@@@2@@__crt_stdio_output@@AEAAXI@Z 000000018006d830 f i libucrtd:output.obj
 0001:0006c850       ?set_flag@?$output_processor@_WV?$stream_output_adapter@_W@__crt_stdio_output@@V?$positional_parameter_base@_WV?$stream_output_adapter@_W@__crt_stdio_output@@@2@@__crt_stdio_output@@AEAAXI@Z 000000018006d850 f i libucrtd:output.obj
 0001:0006c870       ?set_flag@?$output_processor@_WV?$stream_output_adapter@_W@__crt_stdio_output@@V?$standard_base@_WV?$stream_output_adapter@_W@__crt_stdio_output@@@2@@__crt_stdio_output@@AEAAXI@Z 000000018006d870 f i libucrtd:output.obj
 0001:0006c890       ?set_flag@?$output_processor@_WV?$string_output_adapter@_W@__crt_stdio_output@@V?$format_validation_base@_WV?$string_output_adapter@_W@__crt_stdio_output@@@2@@__crt_stdio_output@@AEAAXI@Z 000000018006d890 f i libucrtd:output.obj
 0001:0006c8b0       ?set_flag@?$output_processor@_WV?$string_output_adapter@_W@__crt_stdio_output@@V?$positional_parameter_base@_WV?$string_output_adapter@_W@__crt_stdio_output@@@2@@__crt_stdio_output@@AEAAXI@Z 000000018006d8b0 f i libucrtd:output.obj
 0001:0006c8d0       ?set_flag@?$output_processor@_WV?$string_output_adapter@_W@__crt_stdio_output@@V?$standard_base@_WV?$string_output_adapter@_W@__crt_stdio_output@@@2@@__crt_stdio_output@@AEAAXI@Z 000000018006d8d0 f i libucrtd:output.obj
 0001:0006c8f0       ?should_format@?$positional_parameter_base@DV?$stream_output_adapter@D@__crt_stdio_output@@@__crt_stdio_output@@IEAA_NXZ 000000018006d8f0 f i libucrtd:output.obj
 0001:0006c930       ?should_format@?$positional_parameter_base@DV?$string_output_adapter@D@__crt_stdio_output@@@__crt_stdio_output@@IEAA_NXZ 000000018006d930 f i libucrtd:output.obj
 0001:0006c970       ?should_format@?$positional_parameter_base@_WV?$stream_output_adapter@_W@__crt_stdio_output@@@__crt_stdio_output@@IEAA_NXZ 000000018006d970 f i libucrtd:output.obj
 0001:0006c9b0       ?should_format@?$positional_parameter_base@_WV?$string_output_adapter@_W@__crt_stdio_output@@@__crt_stdio_output@@IEAA_NXZ 000000018006d9b0 f i libucrtd:output.obj
 0001:0006c9f0       ?should_format@?$standard_base@DV?$stream_output_adapter@D@__crt_stdio_output@@@__crt_stdio_output@@IEAA_NXZ 000000018006d9f0 f i libucrtd:output.obj
 0001:0006ca00       ?should_format@?$standard_base@DV?$string_output_adapter@D@__crt_stdio_output@@@__crt_stdio_output@@IEAA_NXZ 000000018006da00 f i libucrtd:output.obj
 0001:0006ca10       ?should_format@?$standard_base@_WV?$stream_output_adapter@_W@__crt_stdio_output@@@__crt_stdio_output@@IEAA_NXZ 000000018006da10 f i libucrtd:output.obj
 0001:0006ca20       ?should_format@?$standard_base@_WV?$string_output_adapter@_W@__crt_stdio_output@@@__crt_stdio_output@@IEAA_NXZ 000000018006da20 f i libucrtd:output.obj
 0001:0006ca30       ?should_skip_normal_state_processing@?$positional_parameter_base@DV?$stream_output_adapter@D@__crt_stdio_output@@@__crt_stdio_output@@IEAA_NXZ 000000018006da30 f i libucrtd:output.obj
 0001:0006ca80       ?should_skip_normal_state_processing@?$positional_parameter_base@DV?$string_output_adapter@D@__crt_stdio_output@@@__crt_stdio_output@@IEAA_NXZ 000000018006da80 f i libucrtd:output.obj
 0001:0006cad0       ?should_skip_normal_state_processing@?$positional_parameter_base@_WV?$stream_output_adapter@_W@__crt_stdio_output@@@__crt_stdio_output@@IEAA_NXZ 000000018006dad0 f i libucrtd:output.obj
 0001:0006cb20       ?should_skip_normal_state_processing@?$positional_parameter_base@_WV?$string_output_adapter@_W@__crt_stdio_output@@@__crt_stdio_output@@IEAA_NXZ 000000018006db20 f i libucrtd:output.obj
 0001:0006cb70       ?should_skip_normal_state_processing@?$standard_base@DV?$stream_output_adapter@D@__crt_stdio_output@@@__crt_stdio_output@@IEAA_NXZ 000000018006db70 f i libucrtd:output.obj
 0001:0006cb80       ?should_skip_normal_state_processing@?$standard_base@DV?$string_output_adapter@D@__crt_stdio_output@@@__crt_stdio_output@@IEAA_NXZ 000000018006db80 f i libucrtd:output.obj
 0001:0006cb90       ?should_skip_normal_state_processing@?$standard_base@_WV?$stream_output_adapter@_W@__crt_stdio_output@@@__crt_stdio_output@@IEAA_NXZ 000000018006db90 f i libucrtd:output.obj
 0001:0006cba0       ?should_skip_normal_state_processing@?$standard_base@_WV?$string_output_adapter@_W@__crt_stdio_output@@@__crt_stdio_output@@IEAA_NXZ 000000018006dba0 f i libucrtd:output.obj
 0001:0006cbb0       ?should_skip_type_state_output@?$positional_parameter_base@DV?$stream_output_adapter@D@__crt_stdio_output@@@__crt_stdio_output@@IEBA_NXZ 000000018006dbb0 f i libucrtd:output.obj
 0001:0006cbf0       ?should_skip_type_state_output@?$positional_parameter_base@DV?$string_output_adapter@D@__crt_stdio_output@@@__crt_stdio_output@@IEBA_NXZ 000000018006dbf0 f i libucrtd:output.obj
 0001:0006cc30       ?should_skip_type_state_output@?$positional_parameter_base@_WV?$stream_output_adapter@_W@__crt_stdio_output@@@__crt_stdio_output@@IEBA_NXZ 000000018006dc30 f i libucrtd:output.obj
 0001:0006cc70       ?should_skip_type_state_output@?$positional_parameter_base@_WV?$string_output_adapter@_W@__crt_stdio_output@@@__crt_stdio_output@@IEBA_NXZ 000000018006dc70 f i libucrtd:output.obj
 0001:0006ccb0       ?should_skip_type_state_output@?$standard_base@DV?$stream_output_adapter@D@__crt_stdio_output@@@__crt_stdio_output@@IEBA_NXZ 000000018006dcb0 f i libucrtd:output.obj
 0001:0006ccc0       ?should_skip_type_state_output@?$standard_base@DV?$string_output_adapter@D@__crt_stdio_output@@@__crt_stdio_output@@IEBA_NXZ 000000018006dcc0 f i libucrtd:output.obj
 0001:0006ccd0       ?should_skip_type_state_output@?$standard_base@_WV?$stream_output_adapter@_W@__crt_stdio_output@@@__crt_stdio_output@@IEBA_NXZ 000000018006dcd0 f i libucrtd:output.obj
 0001:0006cce0       ?should_skip_type_state_output@?$standard_base@_WV?$string_output_adapter@_W@__crt_stdio_output@@@__crt_stdio_output@@IEBA_NXZ 000000018006dce0 f i libucrtd:output.obj
 0001:0006ccf0       ?state_case_dot@?$output_processor@DV?$stream_output_adapter@D@__crt_stdio_output@@V?$format_validation_base@DV?$stream_output_adapter@D@__crt_stdio_output@@@2@@__crt_stdio_output@@AEAA_NXZ 000000018006dcf0 f i libucrtd:output.obj
 0001:0006cd10       ?state_case_dot@?$output_processor@DV?$stream_output_adapter@D@__crt_stdio_output@@V?$positional_parameter_base@DV?$stream_output_adapter@D@__crt_stdio_output@@@2@@__crt_stdio_output@@AEAA_NXZ 000000018006dd10 f i libucrtd:output.obj
 0001:0006cd30       ?state_case_dot@?$output_processor@DV?$stream_output_adapter@D@__crt_stdio_output@@V?$standard_base@DV?$stream_output_adapter@D@__crt_stdio_output@@@2@@__crt_stdio_output@@AEAA_NXZ 000000018006dd30 f i libucrtd:output.obj
 0001:0006cd50       ?state_case_dot@?$output_processor@DV?$string_output_adapter@D@__crt_stdio_output@@V?$format_validation_base@DV?$string_output_adapter@D@__crt_stdio_output@@@2@@__crt_stdio_output@@AEAA_NXZ 000000018006dd50 f i libucrtd:output.obj
 0001:0006cd70       ?state_case_dot@?$output_processor@DV?$string_output_adapter@D@__crt_stdio_output@@V?$positional_parameter_base@DV?$string_output_adapter@D@__crt_stdio_output@@@2@@__crt_stdio_output@@AEAA_NXZ 000000018006dd70 f i libucrtd:output.obj
 0001:0006cd90       ?state_case_dot@?$output_processor@DV?$string_output_adapter@D@__crt_stdio_output@@V?$standard_base@DV?$string_output_adapter@D@__crt_stdio_output@@@2@@__crt_stdio_output@@AEAA_NXZ 000000018006dd90 f i libucrtd:output.obj
 0001:0006cdb0       ?state_case_dot@?$output_processor@_WV?$stream_output_adapter@_W@__crt_stdio_output@@V?$format_validation_base@_WV?$stream_output_adapter@_W@__crt_stdio_output@@@2@@__crt_stdio_output@@AEAA_NXZ 000000018006ddb0 f i libucrtd:output.obj
 0001:0006cdd0       ?state_case_dot@?$output_processor@_WV?$stream_output_adapter@_W@__crt_stdio_output@@V?$positional_parameter_base@_WV?$stream_output_adapter@_W@__crt_stdio_output@@@2@@__crt_stdio_output@@AEAA_NXZ 000000018006ddd0 f i libucrtd:output.obj
 0001:0006cdf0       ?state_case_dot@?$output_processor@_WV?$stream_output_adapter@_W@__crt_stdio_output@@V?$standard_base@_WV?$stream_output_adapter@_W@__crt_stdio_output@@@2@@__crt_stdio_output@@AEAA_NXZ 000000018006ddf0 f i libucrtd:output.obj
 0001:0006ce10       ?state_case_dot@?$output_processor@_WV?$string_output_adapter@_W@__crt_stdio_output@@V?$format_validation_base@_WV?$string_output_adapter@_W@__crt_stdio_output@@@2@@__crt_stdio_output@@AEAA_NXZ 000000018006de10 f i libucrtd:output.obj
 0001:0006ce30       ?state_case_dot@?$output_processor@_WV?$string_output_adapter@_W@__crt_stdio_output@@V?$positional_parameter_base@_WV?$string_output_adapter@_W@__crt_stdio_output@@@2@@__crt_stdio_output@@AEAA_NXZ 000000018006de30 f i libucrtd:output.obj
 0001:0006ce50       ?state_case_dot@?$output_processor@_WV?$string_output_adapter@_W@__crt_stdio_output@@V?$standard_base@_WV?$string_output_adapter@_W@__crt_stdio_output@@@2@@__crt_stdio_output@@AEAA_NXZ 000000018006de50 f i libucrtd:output.obj
 0001:0006ce70       ?state_case_flag@?$output_processor@DV?$stream_output_adapter@D@__crt_stdio_output@@V?$format_validation_base@DV?$stream_output_adapter@D@__crt_stdio_output@@@2@@__crt_stdio_output@@AEAA_NXZ 000000018006de70 f i libucrtd:output.obj
 0001:0006cf10       ?state_case_flag@?$output_processor@DV?$stream_output_adapter@D@__crt_stdio_output@@V?$positional_parameter_base@DV?$stream_output_adapter@D@__crt_stdio_output@@@2@@__crt_stdio_output@@AEAA_NXZ 000000018006df10 f i libucrtd:output.obj
 0001:0006cfb0       ?state_case_flag@?$output_processor@DV?$stream_output_adapter@D@__crt_stdio_output@@V?$standard_base@DV?$stream_output_adapter@D@__crt_stdio_output@@@2@@__crt_stdio_output@@AEAA_NXZ 000000018006dfb0 f i libucrtd:output.obj
 0001:0006d050       ?state_case_flag@?$output_processor@DV?$string_output_adapter@D@__crt_stdio_output@@V?$format_validation_base@DV?$string_output_adapter@D@__crt_stdio_output@@@2@@__crt_stdio_output@@AEAA_NXZ 000000018006e050 f i libucrtd:output.obj
 0001:0006d0f0       ?state_case_flag@?$output_processor@DV?$string_output_adapter@D@__crt_stdio_output@@V?$positional_parameter_base@DV?$string_output_adapter@D@__crt_stdio_output@@@2@@__crt_stdio_output@@AEAA_NXZ 000000018006e0f0 f i libucrtd:output.obj
 0001:0006d190       ?state_case_flag@?$output_processor@DV?$string_output_adapter@D@__crt_stdio_output@@V?$standard_base@DV?$string_output_adapter@D@__crt_stdio_output@@@2@@__crt_stdio_output@@AEAA_NXZ 000000018006e190 f i libucrtd:output.obj
 0001:0006d230       ?state_case_flag@?$output_processor@_WV?$stream_output_adapter@_W@__crt_stdio_output@@V?$format_validation_base@_WV?$stream_output_adapter@_W@__crt_stdio_output@@@2@@__crt_stdio_output@@AEAA_NXZ 000000018006e230 f i libucrtd:output.obj
 0001:0006d2d0       ?state_case_flag@?$output_processor@_WV?$stream_output_adapter@_W@__crt_stdio_output@@V?$positional_parameter_base@_WV?$stream_output_adapter@_W@__crt_stdio_output@@@2@@__crt_stdio_output@@AEAA_NXZ 000000018006e2d0 f i libucrtd:output.obj
 0001:0006d370       ?state_case_flag@?$output_processor@_WV?$stream_output_adapter@_W@__crt_stdio_output@@V?$standard_base@_WV?$stream_output_adapter@_W@__crt_stdio_output@@@2@@__crt_stdio_output@@AEAA_NXZ 000000018006e370 f i libucrtd:output.obj
 0001:0006d410       ?state_case_flag@?$output_processor@_WV?$string_output_adapter@_W@__crt_stdio_output@@V?$format_validation_base@_WV?$string_output_adapter@_W@__crt_stdio_output@@@2@@__crt_stdio_output@@AEAA_NXZ 000000018006e410 f i libucrtd:output.obj
 0001:0006d4b0       ?state_case_flag@?$output_processor@_WV?$string_output_adapter@_W@__crt_stdio_output@@V?$positional_parameter_base@_WV?$string_output_adapter@_W@__crt_stdio_output@@@2@@__crt_stdio_output@@AEAA_NXZ 000000018006e4b0 f i libucrtd:output.obj
 0001:0006d550       ?state_case_flag@?$output_processor@_WV?$string_output_adapter@_W@__crt_stdio_output@@V?$standard_base@_WV?$string_output_adapter@_W@__crt_stdio_output@@@2@@__crt_stdio_output@@AEAA_NXZ 000000018006e550 f i libucrtd:output.obj
 0001:0006d5f0       ?state_case_normal@?$output_processor@DV?$stream_output_adapter@D@__crt_stdio_output@@V?$format_validation_base@DV?$stream_output_adapter@D@__crt_stdio_output@@@2@@__crt_stdio_output@@AEAA_NXZ 000000018006e5f0 f i libucrtd:output.obj
 0001:0006d6d0       ?state_case_normal@?$output_processor@DV?$stream_output_adapter@D@__crt_stdio_output@@V?$positional_parameter_base@DV?$stream_output_adapter@D@__crt_stdio_output@@@2@@__crt_stdio_output@@AEAA_NXZ 000000018006e6d0 f i libucrtd:output.obj
 0001:0006d7b0       ?state_case_normal@?$output_processor@DV?$stream_output_adapter@D@__crt_stdio_output@@V?$standard_base@DV?$stream_output_adapter@D@__crt_stdio_output@@@2@@__crt_stdio_output@@AEAA_NXZ 000000018006e7b0 f i libucrtd:output.obj
 0001:0006d890       ?state_case_normal@?$output_processor@DV?$string_output_adapter@D@__crt_stdio_output@@V?$format_validation_base@DV?$string_output_adapter@D@__crt_stdio_output@@@2@@__crt_stdio_output@@AEAA_NXZ 000000018006e890 f i libucrtd:output.obj
 0001:0006d970       ?state_case_normal@?$output_processor@DV?$string_output_adapter@D@__crt_stdio_output@@V?$positional_parameter_base@DV?$string_output_adapter@D@__crt_stdio_output@@@2@@__crt_stdio_output@@AEAA_NXZ 000000018006e970 f i libucrtd:output.obj
 0001:0006da50       ?state_case_normal@?$output_processor@DV?$string_output_adapter@D@__crt_stdio_output@@V?$standard_base@DV?$string_output_adapter@D@__crt_stdio_output@@@2@@__crt_stdio_output@@AEAA_NXZ 000000018006ea50 f i libucrtd:output.obj
 0001:0006db30       ?state_case_normal@?$output_processor@_WV?$stream_output_adapter@_W@__crt_stdio_output@@V?$format_validation_base@_WV?$stream_output_adapter@_W@__crt_stdio_output@@@2@@__crt_stdio_output@@AEAA_NXZ 000000018006eb30 f i libucrtd:output.obj
 0001:0006dc10       ?state_case_normal@?$output_processor@_WV?$stream_output_adapter@_W@__crt_stdio_output@@V?$positional_parameter_base@_WV?$stream_output_adapter@_W@__crt_stdio_output@@@2@@__crt_stdio_output@@AEAA_NXZ 000000018006ec10 f i libucrtd:output.obj
 0001:0006dcf0       ?state_case_normal@?$output_processor@_WV?$stream_output_adapter@_W@__crt_stdio_output@@V?$standard_base@_WV?$stream_output_adapter@_W@__crt_stdio_output@@@2@@__crt_stdio_output@@AEAA_NXZ 000000018006ecf0 f i libucrtd:output.obj
 0001:0006ddd0       ?state_case_normal@?$output_processor@_WV?$string_output_adapter@_W@__crt_stdio_output@@V?$format_validation_base@_WV?$string_output_adapter@_W@__crt_stdio_output@@@2@@__crt_stdio_output@@AEAA_NXZ 000000018006edd0 f i libucrtd:output.obj
 0001:0006deb0       ?state_case_normal@?$output_processor@_WV?$string_output_adapter@_W@__crt_stdio_output@@V?$positional_parameter_base@_WV?$string_output_adapter@_W@__crt_stdio_output@@@2@@__crt_stdio_output@@AEAA_NXZ 000000018006eeb0 f i libucrtd:output.obj
 0001:0006df90       ?state_case_normal@?$output_processor@_WV?$string_output_adapter@_W@__crt_stdio_output@@V?$standard_base@_WV?$string_output_adapter@_W@__crt_stdio_output@@@2@@__crt_stdio_output@@AEAA_NXZ 000000018006ef90 f i libucrtd:output.obj
 0001:0006e070       ?state_case_normal_common@?$output_processor@DV?$stream_output_adapter@D@__crt_stdio_output@@V?$format_validation_base@DV?$stream_output_adapter@D@__crt_stdio_output@@@2@@__crt_stdio_output@@AEAA_NXZ 000000018006f070 f i libucrtd:output.obj
 0001:0006e0c0       ?state_case_normal_common@?$output_processor@DV?$stream_output_adapter@D@__crt_stdio_output@@V?$positional_parameter_base@DV?$stream_output_adapter@D@__crt_stdio_output@@@2@@__crt_stdio_output@@AEAA_NXZ 000000018006f0c0 f i libucrtd:output.obj
 0001:0006e110       ?state_case_normal_common@?$output_processor@DV?$stream_output_adapter@D@__crt_stdio_output@@V?$standard_base@DV?$stream_output_adapter@D@__crt_stdio_output@@@2@@__crt_stdio_output@@AEAA_NXZ 000000018006f110 f i libucrtd:output.obj
 0001:0006e160       ?state_case_normal_common@?$output_processor@DV?$string_output_adapter@D@__crt_stdio_output@@V?$format_validation_base@DV?$string_output_adapter@D@__crt_stdio_output@@@2@@__crt_stdio_output@@AEAA_NXZ 000000018006f160 f i libucrtd:output.obj
 0001:0006e1b0       ?state_case_normal_common@?$output_processor@DV?$string_output_adapter@D@__crt_stdio_output@@V?$positional_parameter_base@DV?$string_output_adapter@D@__crt_stdio_output@@@2@@__crt_stdio_output@@AEAA_NXZ 000000018006f1b0 f i libucrtd:output.obj
 0001:0006e200       ?state_case_normal_common@?$output_processor@DV?$string_output_adapter@D@__crt_stdio_output@@V?$standard_base@DV?$string_output_adapter@D@__crt_stdio_output@@@2@@__crt_stdio_output@@AEAA_NXZ 000000018006f200 f i libucrtd:output.obj
 0001:0006e250       ?state_case_normal_common@?$output_processor@_WV?$stream_output_adapter@_W@__crt_stdio_output@@V?$format_validation_base@_WV?$stream_output_adapter@_W@__crt_stdio_output@@@2@@__crt_stdio_output@@AEAA_NXZ 000000018006f250 f i libucrtd:output.obj
 0001:0006e2a0       ?state_case_normal_common@?$output_processor@_WV?$stream_output_adapter@_W@__crt_stdio_output@@V?$positional_parameter_base@_WV?$stream_output_adapter@_W@__crt_stdio_output@@@2@@__crt_stdio_output@@AEAA_NXZ 000000018006f2a0 f i libucrtd:output.obj
 0001:0006e2f0       ?state_case_normal_common@?$output_processor@_WV?$stream_output_adapter@_W@__crt_stdio_output@@V?$standard_base@_WV?$stream_output_adapter@_W@__crt_stdio_output@@@2@@__crt_stdio_output@@AEAA_NXZ 000000018006f2f0 f i libucrtd:output.obj
 0001:0006e340       ?state_case_normal_common@?$output_processor@_WV?$string_output_adapter@_W@__crt_stdio_output@@V?$format_validation_base@_WV?$string_output_adapter@_W@__crt_stdio_output@@@2@@__crt_stdio_output@@AEAA_NXZ 000000018006f340 f i libucrtd:output.obj
 0001:0006e390       ?state_case_normal_common@?$output_processor@_WV?$string_output_adapter@_W@__crt_stdio_output@@V?$positional_parameter_base@_WV?$string_output_adapter@_W@__crt_stdio_output@@@2@@__crt_stdio_output@@AEAA_NXZ 000000018006f390 f i libucrtd:output.obj
 0001:0006e3e0       ?state_case_normal_common@?$output_processor@_WV?$string_output_adapter@_W@__crt_stdio_output@@V?$standard_base@_WV?$string_output_adapter@_W@__crt_stdio_output@@@2@@__crt_stdio_output@@AEAA_NXZ 000000018006f3e0 f i libucrtd:output.obj
 0001:0006e430       ?state_case_normal_tchar@?$output_processor@DV?$stream_output_adapter@D@__crt_stdio_output@@V?$format_validation_base@DV?$stream_output_adapter@D@__crt_stdio_output@@@2@@__crt_stdio_output@@AEAA_ND@Z 000000018006f430 f i libucrtd:output.obj
 0001:0006e570       ?state_case_normal_tchar@?$output_processor@DV?$stream_output_adapter@D@__crt_stdio_output@@V?$positional_parameter_base@DV?$stream_output_adapter@D@__crt_stdio_output@@@2@@__crt_stdio_output@@AEAA_ND@Z 000000018006f570 f i libucrtd:output.obj
 0001:0006e6b0       ?state_case_normal_tchar@?$output_processor@DV?$stream_output_adapter@D@__crt_stdio_output@@V?$standard_base@DV?$stream_output_adapter@D@__crt_stdio_output@@@2@@__crt_stdio_output@@AEAA_ND@Z 000000018006f6b0 f i libucrtd:output.obj
 0001:0006e7f0       ?state_case_normal_tchar@?$output_processor@DV?$string_output_adapter@D@__crt_stdio_output@@V?$format_validation_base@DV?$string_output_adapter@D@__crt_stdio_output@@@2@@__crt_stdio_output@@AEAA_ND@Z 000000018006f7f0 f i libucrtd:output.obj
 0001:0006e930       ?state_case_normal_tchar@?$output_processor@DV?$string_output_adapter@D@__crt_stdio_output@@V?$positional_parameter_base@DV?$string_output_adapter@D@__crt_stdio_output@@@2@@__crt_stdio_output@@AEAA_ND@Z 000000018006f930 f i libucrtd:output.obj
 0001:0006ea70       ?state_case_normal_tchar@?$output_processor@DV?$string_output_adapter@D@__crt_stdio_output@@V?$standard_base@DV?$string_output_adapter@D@__crt_stdio_output@@@2@@__crt_stdio_output@@AEAA_ND@Z 000000018006fa70 f i libucrtd:output.obj
 0001:0006ebb0       ?state_case_normal_tchar@?$output_processor@_WV?$stream_output_adapter@_W@__crt_stdio_output@@V?$format_validation_base@_WV?$stream_output_adapter@_W@__crt_stdio_output@@@2@@__crt_stdio_output@@AEAA_N_W@Z 000000018006fbb0 f i libucrtd:output.obj
 0001:0006ebd0       ?state_case_normal_tchar@?$output_processor@_WV?$stream_output_adapter@_W@__crt_stdio_output@@V?$positional_parameter_base@_WV?$stream_output_adapter@_W@__crt_stdio_output@@@2@@__crt_stdio_output@@AEAA_N_W@Z 000000018006fbd0 f i libucrtd:output.obj
 0001:0006ebf0       ?state_case_normal_tchar@?$output_processor@_WV?$stream_output_adapter@_W@__crt_stdio_output@@V?$standard_base@_WV?$stream_output_adapter@_W@__crt_stdio_output@@@2@@__crt_stdio_output@@AEAA_N_W@Z 000000018006fbf0 f i libucrtd:output.obj
 0001:0006ec10       ?state_case_normal_tchar@?$output_processor@_WV?$string_output_adapter@_W@__crt_stdio_output@@V?$format_validation_base@_WV?$string_output_adapter@_W@__crt_stdio_output@@@2@@__crt_stdio_output@@AEAA_N_W@Z 000000018006fc10 f i libucrtd:output.obj
 0001:0006ec30       ?state_case_normal_tchar@?$output_processor@_WV?$string_output_adapter@_W@__crt_stdio_output@@V?$positional_parameter_base@_WV?$string_output_adapter@_W@__crt_stdio_output@@@2@@__crt_stdio_output@@AEAA_N_W@Z 000000018006fc30 f i libucrtd:output.obj
 0001:0006ec50       ?state_case_normal_tchar@?$output_processor@_WV?$string_output_adapter@_W@__crt_stdio_output@@V?$standard_base@_WV?$string_output_adapter@_W@__crt_stdio_output@@@2@@__crt_stdio_output@@AEAA_N_W@Z 000000018006fc50 f i libucrtd:output.obj
 0001:0006ec70       ?state_case_percent@?$output_processor@DV?$stream_output_adapter@D@__crt_stdio_output@@V?$format_validation_base@DV?$stream_output_adapter@D@__crt_stdio_output@@@2@@__crt_stdio_output@@AEAA_NXZ 000000018006fc70 f i libucrtd:output.obj
 0001:0006ecc0       ?state_case_percent@?$output_processor@DV?$stream_output_adapter@D@__crt_stdio_output@@V?$positional_parameter_base@DV?$stream_output_adapter@D@__crt_stdio_output@@@2@@__crt_stdio_output@@AEAA_NXZ 000000018006fcc0 f i libucrtd:output.obj
 0001:0006ed10       ?state_case_percent@?$output_processor@DV?$stream_output_adapter@D@__crt_stdio_output@@V?$standard_base@DV?$stream_output_adapter@D@__crt_stdio_output@@@2@@__crt_stdio_output@@AEAA_NXZ 000000018006fd10 f i libucrtd:output.obj
 0001:0006ed60       ?state_case_percent@?$output_processor@DV?$string_output_adapter@D@__crt_stdio_output@@V?$format_validation_base@DV?$string_output_adapter@D@__crt_stdio_output@@@2@@__crt_stdio_output@@AEAA_NXZ 000000018006fd60 f i libucrtd:output.obj
 0001:0006edb0       ?state_case_percent@?$output_processor@DV?$string_output_adapter@D@__crt_stdio_output@@V?$positional_parameter_base@DV?$string_output_adapter@D@__crt_stdio_output@@@2@@__crt_stdio_output@@AEAA_NXZ 000000018006fdb0 f i libucrtd:output.obj
 0001:0006ee00       ?state_case_percent@?$output_processor@DV?$string_output_adapter@D@__crt_stdio_output@@V?$standard_base@DV?$string_output_adapter@D@__crt_stdio_output@@@2@@__crt_stdio_output@@AEAA_NXZ 000000018006fe00 f i libucrtd:output.obj
 0001:0006ee50       ?state_case_percent@?$output_processor@_WV?$stream_output_adapter@_W@__crt_stdio_output@@V?$format_validation_base@_WV?$stream_output_adapter@_W@__crt_stdio_output@@@2@@__crt_stdio_output@@AEAA_NXZ 000000018006fe50 f i libucrtd:output.obj
 0001:0006eea0       ?state_case_percent@?$output_processor@_WV?$stream_output_adapter@_W@__crt_stdio_output@@V?$positional_parameter_base@_WV?$stream_output_adapter@_W@__crt_stdio_output@@@2@@__crt_stdio_output@@AEAA_NXZ 000000018006fea0 f i libucrtd:output.obj
 0001:0006eef0       ?state_case_percent@?$output_processor@_WV?$stream_output_adapter@_W@__crt_stdio_output@@V?$standard_base@_WV?$stream_output_adapter@_W@__crt_stdio_output@@@2@@__crt_stdio_output@@AEAA_NXZ 000000018006fef0 f i libucrtd:output.obj
 0001:0006ef40       ?state_case_percent@?$output_processor@_WV?$string_output_adapter@_W@__crt_stdio_output@@V?$format_validation_base@_WV?$string_output_adapter@_W@__crt_stdio_output@@@2@@__crt_stdio_output@@AEAA_NXZ 000000018006ff40 f i libucrtd:output.obj
 0001:0006ef90       ?state_case_percent@?$output_processor@_WV?$string_output_adapter@_W@__crt_stdio_output@@V?$positional_parameter_base@_WV?$string_output_adapter@_W@__crt_stdio_output@@@2@@__crt_stdio_output@@AEAA_NXZ 000000018006ff90 f i libucrtd:output.obj
 0001:0006efe0       ?state_case_percent@?$output_processor@_WV?$string_output_adapter@_W@__crt_stdio_output@@V?$standard_base@_WV?$string_output_adapter@_W@__crt_stdio_output@@@2@@__crt_stdio_output@@AEAA_NXZ 000000018006ffe0 f i libucrtd:output.obj
 0001:0006f030       ?state_case_precision@?$output_processor@DV?$stream_output_adapter@D@__crt_stdio_output@@V?$format_validation_base@DV?$stream_output_adapter@D@__crt_stdio_output@@@2@@__crt_stdio_output@@AEAA_NXZ 0000000180070030 f i libucrtd:output.obj
 0001:0006f0b0       ?state_case_precision@?$output_processor@DV?$stream_output_adapter@D@__crt_stdio_output@@V?$positional_parameter_base@DV?$stream_output_adapter@D@__crt_stdio_output@@@2@@__crt_stdio_output@@AEAA_NXZ 00000001800700b0 f i libucrtd:output.obj
 0001:0006f130       ?state_case_precision@?$output_processor@DV?$stream_output_adapter@D@__crt_stdio_output@@V?$standard_base@DV?$stream_output_adapter@D@__crt_stdio_output@@@2@@__crt_stdio_output@@AEAA_NXZ 0000000180070130 f i libucrtd:output.obj
 0001:0006f1b0       ?state_case_precision@?$output_processor@DV?$string_output_adapter@D@__crt_stdio_output@@V?$format_validation_base@DV?$string_output_adapter@D@__crt_stdio_output@@@2@@__crt_stdio_output@@AEAA_NXZ 00000001800701b0 f i libucrtd:output.obj
 0001:0006f230       ?state_case_precision@?$output_processor@DV?$string_output_adapter@D@__crt_stdio_output@@V?$positional_parameter_base@DV?$string_output_adapter@D@__crt_stdio_output@@@2@@__crt_stdio_output@@AEAA_NXZ 0000000180070230 f i libucrtd:output.obj
 0001:0006f2b0       ?state_case_precision@?$output_processor@DV?$string_output_adapter@D@__crt_stdio_output@@V?$standard_base@DV?$string_output_adapter@D@__crt_stdio_output@@@2@@__crt_stdio_output@@AEAA_NXZ 00000001800702b0 f i libucrtd:output.obj
 0001:0006f330       ?state_case_precision@?$output_processor@_WV?$stream_output_adapter@_W@__crt_stdio_output@@V?$format_validation_base@_WV?$stream_output_adapter@_W@__crt_stdio_output@@@2@@__crt_stdio_output@@AEAA_NXZ 0000000180070330 f i libucrtd:output.obj
 0001:0006f3b0       ?state_case_precision@?$output_processor@_WV?$stream_output_adapter@_W@__crt_stdio_output@@V?$positional_parameter_base@_WV?$stream_output_adapter@_W@__crt_stdio_output@@@2@@__crt_stdio_output@@AEAA_NXZ 00000001800703b0 f i libucrtd:output.obj
 0001:0006f430       ?state_case_precision@?$output_processor@_WV?$stream_output_adapter@_W@__crt_stdio_output@@V?$standard_base@_WV?$stream_output_adapter@_W@__crt_stdio_output@@@2@@__crt_stdio_output@@AEAA_NXZ 0000000180070430 f i libucrtd:output.obj
 0001:0006f4b0       ?state_case_precision@?$output_processor@_WV?$string_output_adapter@_W@__crt_stdio_output@@V?$format_validation_base@_WV?$string_output_adapter@_W@__crt_stdio_output@@@2@@__crt_stdio_output@@AEAA_NXZ 00000001800704b0 f i libucrtd:output.obj
 0001:0006f530       ?state_case_precision@?$output_processor@_WV?$string_output_adapter@_W@__crt_stdio_output@@V?$positional_parameter_base@_WV?$string_output_adapter@_W@__crt_stdio_output@@@2@@__crt_stdio_output@@AEAA_NXZ 0000000180070530 f i libucrtd:output.obj
 0001:0006f5b0       ?state_case_precision@?$output_processor@_WV?$string_output_adapter@_W@__crt_stdio_output@@V?$standard_base@_WV?$string_output_adapter@_W@__crt_stdio_output@@@2@@__crt_stdio_output@@AEAA_NXZ 00000001800705b0 f i libucrtd:output.obj
 0001:0006f630       ?state_case_size@?$output_processor@DV?$stream_output_adapter@D@__crt_stdio_output@@V?$format_validation_base@DV?$stream_output_adapter@D@__crt_stdio_output@@@2@@__crt_stdio_output@@AEAA_NXZ 0000000180070630 f i libucrtd:output.obj
 0001:0006fab0       ?state_case_size@?$output_processor@DV?$stream_output_adapter@D@__crt_stdio_output@@V?$positional_parameter_base@DV?$stream_output_adapter@D@__crt_stdio_output@@@2@@__crt_stdio_output@@AEAA_NXZ 0000000180070ab0 f i libucrtd:output.obj
 0001:0006ff30       ?state_case_size@?$output_processor@DV?$stream_output_adapter@D@__crt_stdio_output@@V?$standard_base@DV?$stream_output_adapter@D@__crt_stdio_output@@@2@@__crt_stdio_output@@AEAA_NXZ 0000000180070f30 f i libucrtd:output.obj
 0001:000703b0       ?state_case_size@?$output_processor@DV?$string_output_adapter@D@__crt_stdio_output@@V?$format_validation_base@DV?$string_output_adapter@D@__crt_stdio_output@@@2@@__crt_stdio_output@@AEAA_NXZ 00000001800713b0 f i libucrtd:output.obj
 0001:00070830       ?state_case_size@?$output_processor@DV?$string_output_adapter@D@__crt_stdio_output@@V?$positional_parameter_base@DV?$string_output_adapter@D@__crt_stdio_output@@@2@@__crt_stdio_output@@AEAA_NXZ 0000000180071830 f i libucrtd:output.obj
 0001:00070cb0       ?state_case_size@?$output_processor@DV?$string_output_adapter@D@__crt_stdio_output@@V?$standard_base@DV?$string_output_adapter@D@__crt_stdio_output@@@2@@__crt_stdio_output@@AEAA_NXZ 0000000180071cb0 f i libucrtd:output.obj
 0001:00071130       ?state_case_size@?$output_processor@_WV?$stream_output_adapter@_W@__crt_stdio_output@@V?$format_validation_base@_WV?$stream_output_adapter@_W@__crt_stdio_output@@@2@@__crt_stdio_output@@AEAA_NXZ 0000000180072130 f i libucrtd:output.obj
 0001:000715b0       ?state_case_size@?$output_processor@_WV?$stream_output_adapter@_W@__crt_stdio_output@@V?$positional_parameter_base@_WV?$stream_output_adapter@_W@__crt_stdio_output@@@2@@__crt_stdio_output@@AEAA_NXZ 00000001800725b0 f i libucrtd:output.obj
 0001:00071a30       ?state_case_size@?$output_processor@_WV?$stream_output_adapter@_W@__crt_stdio_output@@V?$standard_base@_WV?$stream_output_adapter@_W@__crt_stdio_output@@@2@@__crt_stdio_output@@AEAA_NXZ 0000000180072a30 f i libucrtd:output.obj
 0001:00071eb0       ?state_case_size@?$output_processor@_WV?$string_output_adapter@_W@__crt_stdio_output@@V?$format_validation_base@_WV?$string_output_adapter@_W@__crt_stdio_output@@@2@@__crt_stdio_output@@AEAA_NXZ 0000000180072eb0 f i libucrtd:output.obj
 0001:00072330       ?state_case_size@?$output_processor@_WV?$string_output_adapter@_W@__crt_stdio_output@@V?$positional_parameter_base@_WV?$string_output_adapter@_W@__crt_stdio_output@@@2@@__crt_stdio_output@@AEAA_NXZ 0000000180073330 f i libucrtd:output.obj
 0001:000727b0       ?state_case_size@?$output_processor@_WV?$string_output_adapter@_W@__crt_stdio_output@@V?$standard_base@_WV?$string_output_adapter@_W@__crt_stdio_output@@@2@@__crt_stdio_output@@AEAA_NXZ 00000001800737b0 f i libucrtd:output.obj
 0001:00072c30       ?state_case_type@?$output_processor@DV?$stream_output_adapter@D@__crt_stdio_output@@V?$format_validation_base@DV?$stream_output_adapter@D@__crt_stdio_output@@@2@@__crt_stdio_output@@AEAA_NXZ 0000000180073c30 f i libucrtd:output.obj
 0001:000730d0       ?state_case_type@?$output_processor@DV?$stream_output_adapter@D@__crt_stdio_output@@V?$positional_parameter_base@DV?$stream_output_adapter@D@__crt_stdio_output@@@2@@__crt_stdio_output@@AEAA_NXZ 00000001800740d0 f i libucrtd:output.obj
 0001:00073570       ?state_case_type@?$output_processor@DV?$stream_output_adapter@D@__crt_stdio_output@@V?$standard_base@DV?$stream_output_adapter@D@__crt_stdio_output@@@2@@__crt_stdio_output@@AEAA_NXZ 0000000180074570 f i libucrtd:output.obj
 0001:00073a10       ?state_case_type@?$output_processor@DV?$string_output_adapter@D@__crt_stdio_output@@V?$format_validation_base@DV?$string_output_adapter@D@__crt_stdio_output@@@2@@__crt_stdio_output@@AEAA_NXZ 0000000180074a10 f i libucrtd:output.obj
 0001:00073eb0       ?state_case_type@?$output_processor@DV?$string_output_adapter@D@__crt_stdio_output@@V?$positional_parameter_base@DV?$string_output_adapter@D@__crt_stdio_output@@@2@@__crt_stdio_output@@AEAA_NXZ 0000000180074eb0 f i libucrtd:output.obj
 0001:00074350       ?state_case_type@?$output_processor@DV?$string_output_adapter@D@__crt_stdio_output@@V?$standard_base@DV?$string_output_adapter@D@__crt_stdio_output@@@2@@__crt_stdio_output@@AEAA_NXZ 0000000180075350 f i libucrtd:output.obj
 0001:000747f0       ?state_case_type@?$output_processor@_WV?$stream_output_adapter@_W@__crt_stdio_output@@V?$format_validation_base@_WV?$stream_output_adapter@_W@__crt_stdio_output@@@2@@__crt_stdio_output@@AEAA_NXZ 00000001800757f0 f i libucrtd:output.obj
 0001:00074d50       ?state_case_type@?$output_processor@_WV?$stream_output_adapter@_W@__crt_stdio_output@@V?$positional_parameter_base@_WV?$stream_output_adapter@_W@__crt_stdio_output@@@2@@__crt_stdio_output@@AEAA_NXZ 0000000180075d50 f i libucrtd:output.obj
 0001:000752b0       ?state_case_type@?$output_processor@_WV?$stream_output_adapter@_W@__crt_stdio_output@@V?$standard_base@_WV?$stream_output_adapter@_W@__crt_stdio_output@@@2@@__crt_stdio_output@@AEAA_NXZ 00000001800762b0 f i libucrtd:output.obj
 0001:00075810       ?state_case_type@?$output_processor@_WV?$string_output_adapter@_W@__crt_stdio_output@@V?$format_validation_base@_WV?$string_output_adapter@_W@__crt_stdio_output@@@2@@__crt_stdio_output@@AEAA_NXZ 0000000180076810 f i libucrtd:output.obj
 0001:00075d70       ?state_case_type@?$output_processor@_WV?$string_output_adapter@_W@__crt_stdio_output@@V?$positional_parameter_base@_WV?$string_output_adapter@_W@__crt_stdio_output@@@2@@__crt_stdio_output@@AEAA_NXZ 0000000180076d70 f i libucrtd:output.obj
 0001:000762d0       ?state_case_type@?$output_processor@_WV?$string_output_adapter@_W@__crt_stdio_output@@V?$standard_base@_WV?$string_output_adapter@_W@__crt_stdio_output@@@2@@__crt_stdio_output@@AEAA_NXZ 00000001800772d0 f i libucrtd:output.obj
 0001:00076830       ?state_case_width@?$output_processor@DV?$stream_output_adapter@D@__crt_stdio_output@@V?$format_validation_base@DV?$stream_output_adapter@D@__crt_stdio_output@@@2@@__crt_stdio_output@@AEAA_NXZ 0000000180077830 f i libucrtd:output.obj
 0001:000768c0       ?state_case_width@?$output_processor@DV?$stream_output_adapter@D@__crt_stdio_output@@V?$positional_parameter_base@DV?$stream_output_adapter@D@__crt_stdio_output@@@2@@__crt_stdio_output@@AEAA_NXZ 00000001800778c0 f i libucrtd:output.obj
 0001:00076950       ?state_case_width@?$output_processor@DV?$stream_output_adapter@D@__crt_stdio_output@@V?$standard_base@DV?$stream_output_adapter@D@__crt_stdio_output@@@2@@__crt_stdio_output@@AEAA_NXZ 0000000180077950 f i libucrtd:output.obj
 0001:000769e0       ?state_case_width@?$output_processor@DV?$string_output_adapter@D@__crt_stdio_output@@V?$format_validation_base@DV?$string_output_adapter@D@__crt_stdio_output@@@2@@__crt_stdio_output@@AEAA_NXZ 00000001800779e0 f i libucrtd:output.obj
 0001:00076a70       ?state_case_width@?$output_processor@DV?$string_output_adapter@D@__crt_stdio_output@@V?$positional_parameter_base@DV?$string_output_adapter@D@__crt_stdio_output@@@2@@__crt_stdio_output@@AEAA_NXZ 0000000180077a70 f i libucrtd:output.obj
 0001:00076b00       ?state_case_width@?$output_processor@DV?$string_output_adapter@D@__crt_stdio_output@@V?$standard_base@DV?$string_output_adapter@D@__crt_stdio_output@@@2@@__crt_stdio_output@@AEAA_NXZ 0000000180077b00 f i libucrtd:output.obj
 0001:00076b90       ?state_case_width@?$output_processor@_WV?$stream_output_adapter@_W@__crt_stdio_output@@V?$format_validation_base@_WV?$stream_output_adapter@_W@__crt_stdio_output@@@2@@__crt_stdio_output@@AEAA_NXZ 0000000180077b90 f i libucrtd:output.obj
 0001:00076c20       ?state_case_width@?$output_processor@_WV?$stream_output_adapter@_W@__crt_stdio_output@@V?$positional_parameter_base@_WV?$stream_output_adapter@_W@__crt_stdio_output@@@2@@__crt_stdio_output@@AEAA_NXZ 0000000180077c20 f i libucrtd:output.obj
 0001:00076cb0       ?state_case_width@?$output_processor@_WV?$stream_output_adapter@_W@__crt_stdio_output@@V?$standard_base@_WV?$stream_output_adapter@_W@__crt_stdio_output@@@2@@__crt_stdio_output@@AEAA_NXZ 0000000180077cb0 f i libucrtd:output.obj
 0001:00076d40       ?state_case_width@?$output_processor@_WV?$string_output_adapter@_W@__crt_stdio_output@@V?$format_validation_base@_WV?$string_output_adapter@_W@__crt_stdio_output@@@2@@__crt_stdio_output@@AEAA_NXZ 0000000180077d40 f i libucrtd:output.obj
 0001:00076dd0       ?state_case_width@?$output_processor@_WV?$string_output_adapter@_W@__crt_stdio_output@@V?$positional_parameter_base@_WV?$string_output_adapter@_W@__crt_stdio_output@@@2@@__crt_stdio_output@@AEAA_NXZ 0000000180077dd0 f i libucrtd:output.obj
 0001:00076e60       ?state_case_width@?$output_processor@_WV?$string_output_adapter@_W@__crt_stdio_output@@V?$standard_base@_WV?$string_output_adapter@_W@__crt_stdio_output@@@2@@__crt_stdio_output@@AEAA_NXZ 0000000180077e60 f i libucrtd:output.obj
 0001:00076ef0       ?state_count@?$format_validation_base@DV?$stream_output_adapter@D@__crt_stdio_output@@@__crt_stdio_output@@KAIXZ 0000000180077ef0 f i libucrtd:output.obj
 0001:00076f00       ?state_count@?$format_validation_base@DV?$string_output_adapter@D@__crt_stdio_output@@@__crt_stdio_output@@KAIXZ 0000000180077f00 f i libucrtd:output.obj
 0001:00076f10       ?state_count@?$format_validation_base@_WV?$stream_output_adapter@_W@__crt_stdio_output@@@__crt_stdio_output@@KAIXZ 0000000180077f10 f i libucrtd:output.obj
 0001:00076f20       ?state_count@?$format_validation_base@_WV?$string_output_adapter@_W@__crt_stdio_output@@@__crt_stdio_output@@KAIXZ 0000000180077f20 f i libucrtd:output.obj
 0001:00076f30       ?state_count@?$standard_base@DV?$stream_output_adapter@D@__crt_stdio_output@@@__crt_stdio_output@@KAIXZ 0000000180077f30 f i libucrtd:output.obj
 0001:00076f40       ?state_count@?$standard_base@DV?$string_output_adapter@D@__crt_stdio_output@@@__crt_stdio_output@@KAIXZ 0000000180077f40 f i libucrtd:output.obj
 0001:00076f50       ?state_count@?$standard_base@_WV?$stream_output_adapter@_W@__crt_stdio_output@@@__crt_stdio_output@@KAIXZ 0000000180077f50 f i libucrtd:output.obj
 0001:00076f60       ?state_count@?$standard_base@_WV?$string_output_adapter@_W@__crt_stdio_output@@@__crt_stdio_output@@KAIXZ 0000000180077f60 f i libucrtd:output.obj
 0001:00076f70       ?state_transition_table@?$format_validation_base@DV?$stream_output_adapter@D@__crt_stdio_output@@@__crt_stdio_output@@KAPEBEXZ 0000000180077f70 f i libucrtd:output.obj
 0001:00076f80       ?state_transition_table@?$format_validation_base@DV?$string_output_adapter@D@__crt_stdio_output@@@__crt_stdio_output@@KAPEBEXZ 0000000180077f80 f i libucrtd:output.obj
 0001:00076f90       ?state_transition_table@?$format_validation_base@_WV?$stream_output_adapter@_W@__crt_stdio_output@@@__crt_stdio_output@@KAPEBEXZ 0000000180077f90 f i libucrtd:output.obj
 0001:00076fa0       ?state_transition_table@?$format_validation_base@_WV?$string_output_adapter@_W@__crt_stdio_output@@@__crt_stdio_output@@KAPEBEXZ 0000000180077fa0 f i libucrtd:output.obj
 0001:00076fb0       ?state_transition_table@?$standard_base@DV?$stream_output_adapter@D@__crt_stdio_output@@@__crt_stdio_output@@KAPEBEXZ 0000000180077fb0 f i libucrtd:output.obj
 0001:00076fc0       ?state_transition_table@?$standard_base@DV?$string_output_adapter@D@__crt_stdio_output@@@__crt_stdio_output@@KAPEBEXZ 0000000180077fc0 f i libucrtd:output.obj
 0001:00076fd0       ?state_transition_table@?$standard_base@_WV?$stream_output_adapter@_W@__crt_stdio_output@@@__crt_stdio_output@@KAPEBEXZ 0000000180077fd0 f i libucrtd:output.obj
 0001:00076fe0       ?state_transition_table@?$standard_base@_WV?$string_output_adapter@_W@__crt_stdio_output@@@__crt_stdio_output@@KAPEBEXZ 0000000180077fe0 f i libucrtd:output.obj
 0001:00076ff0       ?tchar_string@?$common_data@D@__crt_stdio_output@@IEAAAEAPEADD@Z 0000000180077ff0 f i libucrtd:output.obj
 0001:00077010       ?tchar_string@?$common_data@D@__crt_stdio_output@@IEAAAEAPEADXZ 0000000180078010 f i libucrtd:output.obj
 0001:00077030       ?tchar_string@?$common_data@_W@__crt_stdio_output@@IEAAAEAPEA_WXZ 0000000180078030 f i libucrtd:output.obj
 0001:00077050       ?tchar_string@?$common_data@_W@__crt_stdio_output@@IEAAAEAPEA_W_W@Z 0000000180078050 f i libucrtd:output.obj
 0001:00077070       ?to_integer_size@__crt_stdio_output@@YA_KW4length_modifier@1@@Z 0000000180078070 f i libucrtd:output.obj
 0001:00077120       ?type_case_X@?$output_processor@DV?$stream_output_adapter@D@__crt_stdio_output@@V?$format_validation_base@DV?$stream_output_adapter@D@__crt_stdio_output@@@2@@__crt_stdio_output@@AEAA_NXZ 0000000180078120 f i libucrtd:output.obj
 0001:00077140       ?type_case_X@?$output_processor@DV?$stream_output_adapter@D@__crt_stdio_output@@V?$positional_parameter_base@DV?$stream_output_adapter@D@__crt_stdio_output@@@2@@__crt_stdio_output@@AEAA_NXZ 0000000180078140 f i libucrtd:output.obj
 0001:00077160       ?type_case_X@?$output_processor@DV?$stream_output_adapter@D@__crt_stdio_output@@V?$standard_base@DV?$stream_output_adapter@D@__crt_stdio_output@@@2@@__crt_stdio_output@@AEAA_NXZ 0000000180078160 f i libucrtd:output.obj
 0001:00077180       ?type_case_X@?$output_processor@DV?$string_output_adapter@D@__crt_stdio_output@@V?$format_validation_base@DV?$string_output_adapter@D@__crt_stdio_output@@@2@@__crt_stdio_output@@AEAA_NXZ 0000000180078180 f i libucrtd:output.obj
 0001:000771a0       ?type_case_X@?$output_processor@DV?$string_output_adapter@D@__crt_stdio_output@@V?$positional_parameter_base@DV?$string_output_adapter@D@__crt_stdio_output@@@2@@__crt_stdio_output@@AEAA_NXZ 00000001800781a0 f i libucrtd:output.obj
 0001:000771c0       ?type_case_X@?$output_processor@DV?$string_output_adapter@D@__crt_stdio_output@@V?$standard_base@DV?$string_output_adapter@D@__crt_stdio_output@@@2@@__crt_stdio_output@@AEAA_NXZ 00000001800781c0 f i libucrtd:output.obj
 0001:000771e0       ?type_case_X@?$output_processor@_WV?$stream_output_adapter@_W@__crt_stdio_output@@V?$format_validation_base@_WV?$stream_output_adapter@_W@__crt_stdio_output@@@2@@__crt_stdio_output@@AEAA_NXZ 00000001800781e0 f i libucrtd:output.obj
 0001:00077200       ?type_case_X@?$output_processor@_WV?$stream_output_adapter@_W@__crt_stdio_output@@V?$positional_parameter_base@_WV?$stream_output_adapter@_W@__crt_stdio_output@@@2@@__crt_stdio_output@@AEAA_NXZ 0000000180078200 f i libucrtd:output.obj
 0001:00077220       ?type_case_X@?$output_processor@_WV?$stream_output_adapter@_W@__crt_stdio_output@@V?$standard_base@_WV?$stream_output_adapter@_W@__crt_stdio_output@@@2@@__crt_stdio_output@@AEAA_NXZ 0000000180078220 f i libucrtd:output.obj
 0001:00077240       ?type_case_X@?$output_processor@_WV?$string_output_adapter@_W@__crt_stdio_output@@V?$format_validation_base@_WV?$string_output_adapter@_W@__crt_stdio_output@@@2@@__crt_stdio_output@@AEAA_NXZ 0000000180078240 f i libucrtd:output.obj
 0001:00077260       ?type_case_X@?$output_processor@_WV?$string_output_adapter@_W@__crt_stdio_output@@V?$positional_parameter_base@_WV?$string_output_adapter@_W@__crt_stdio_output@@@2@@__crt_stdio_output@@AEAA_NXZ 0000000180078260 f i libucrtd:output.obj
 0001:00077280       ?type_case_X@?$output_processor@_WV?$string_output_adapter@_W@__crt_stdio_output@@V?$standard_base@_WV?$string_output_adapter@_W@__crt_stdio_output@@@2@@__crt_stdio_output@@AEAA_NXZ 0000000180078280 f i libucrtd:output.obj
 0001:000772a0       ?type_case_Z@?$output_processor@DV?$stream_output_adapter@D@__crt_stdio_output@@V?$format_validation_base@DV?$stream_output_adapter@D@__crt_stdio_output@@@2@@__crt_stdio_output@@AEAA_NXZ 00000001800782a0 f i libucrtd:output.obj
 0001:000773c0       ?type_case_Z@?$output_processor@DV?$stream_output_adapter@D@__crt_stdio_output@@V?$positional_parameter_base@DV?$stream_output_adapter@D@__crt_stdio_output@@@2@@__crt_stdio_output@@AEAA_NXZ 00000001800783c0 f i libucrtd:output.obj
 0001:000774e0       ?type_case_Z@?$output_processor@DV?$stream_output_adapter@D@__crt_stdio_output@@V?$standard_base@DV?$stream_output_adapter@D@__crt_stdio_output@@@2@@__crt_stdio_output@@AEAA_NXZ 00000001800784e0 f i libucrtd:output.obj
 0001:00077600       ?type_case_Z@?$output_processor@DV?$string_output_adapter@D@__crt_stdio_output@@V?$format_validation_base@DV?$string_output_adapter@D@__crt_stdio_output@@@2@@__crt_stdio_output@@AEAA_NXZ 0000000180078600 f i libucrtd:output.obj
 0001:00077720       ?type_case_Z@?$output_processor@DV?$string_output_adapter@D@__crt_stdio_output@@V?$positional_parameter_base@DV?$string_output_adapter@D@__crt_stdio_output@@@2@@__crt_stdio_output@@AEAA_NXZ 0000000180078720 f i libucrtd:output.obj
 0001:00077840       ?type_case_Z@?$output_processor@DV?$string_output_adapter@D@__crt_stdio_output@@V?$standard_base@DV?$string_output_adapter@D@__crt_stdio_output@@@2@@__crt_stdio_output@@AEAA_NXZ 0000000180078840 f i libucrtd:output.obj
 0001:00077960       ?type_case_Z@?$output_processor@_WV?$stream_output_adapter@_W@__crt_stdio_output@@V?$format_validation_base@_WV?$stream_output_adapter@_W@__crt_stdio_output@@@2@@__crt_stdio_output@@AEAA_NXZ 0000000180078960 f i libucrtd:output.obj
 0001:00077a80       ?type_case_Z@?$output_processor@_WV?$stream_output_adapter@_W@__crt_stdio_output@@V?$positional_parameter_base@_WV?$stream_output_adapter@_W@__crt_stdio_output@@@2@@__crt_stdio_output@@AEAA_NXZ 0000000180078a80 f i libucrtd:output.obj
 0001:00077ba0       ?type_case_Z@?$output_processor@_WV?$stream_output_adapter@_W@__crt_stdio_output@@V?$standard_base@_WV?$stream_output_adapter@_W@__crt_stdio_output@@@2@@__crt_stdio_output@@AEAA_NXZ 0000000180078ba0 f i libucrtd:output.obj
 0001:00077cc0       ?type_case_Z@?$output_processor@_WV?$string_output_adapter@_W@__crt_stdio_output@@V?$format_validation_base@_WV?$string_output_adapter@_W@__crt_stdio_output@@@2@@__crt_stdio_output@@AEAA_NXZ 0000000180078cc0 f i libucrtd:output.obj
 0001:00077de0       ?type_case_Z@?$output_processor@_WV?$string_output_adapter@_W@__crt_stdio_output@@V?$positional_parameter_base@_WV?$string_output_adapter@_W@__crt_stdio_output@@@2@@__crt_stdio_output@@AEAA_NXZ 0000000180078de0 f i libucrtd:output.obj
 0001:00077f00       ?type_case_Z@?$output_processor@_WV?$string_output_adapter@_W@__crt_stdio_output@@V?$standard_base@_WV?$string_output_adapter@_W@__crt_stdio_output@@@2@@__crt_stdio_output@@AEAA_NXZ 0000000180078f00 f i libucrtd:output.obj
 0001:00078020       ?type_case_a@?$output_processor@DV?$stream_output_adapter@D@__crt_stdio_output@@V?$format_validation_base@DV?$stream_output_adapter@D@__crt_stdio_output@@@2@@__crt_stdio_output@@AEAA_NXZ 0000000180079020 f i libucrtd:output.obj
 0001:000783e0       ?type_case_a@?$output_processor@DV?$stream_output_adapter@D@__crt_stdio_output@@V?$positional_parameter_base@DV?$stream_output_adapter@D@__crt_stdio_output@@@2@@__crt_stdio_output@@AEAA_NXZ 00000001800793e0 f i libucrtd:output.obj
 0001:000787a0       ?type_case_a@?$output_processor@DV?$stream_output_adapter@D@__crt_stdio_output@@V?$standard_base@DV?$stream_output_adapter@D@__crt_stdio_output@@@2@@__crt_stdio_output@@AEAA_NXZ 00000001800797a0 f i libucrtd:output.obj
 0001:00078b60       ?type_case_a@?$output_processor@DV?$string_output_adapter@D@__crt_stdio_output@@V?$format_validation_base@DV?$string_output_adapter@D@__crt_stdio_output@@@2@@__crt_stdio_output@@AEAA_NXZ 0000000180079b60 f i libucrtd:output.obj
 0001:00078f20       ?type_case_a@?$output_processor@DV?$string_output_adapter@D@__crt_stdio_output@@V?$positional_parameter_base@DV?$string_output_adapter@D@__crt_stdio_output@@@2@@__crt_stdio_output@@AEAA_NXZ 0000000180079f20 f i libucrtd:output.obj
 0001:000792e0       ?type_case_a@?$output_processor@DV?$string_output_adapter@D@__crt_stdio_output@@V?$standard_base@DV?$string_output_adapter@D@__crt_stdio_output@@@2@@__crt_stdio_output@@AEAA_NXZ 000000018007a2e0 f i libucrtd:output.obj
 0001:000796a0       ?type_case_a@?$output_processor@_WV?$stream_output_adapter@_W@__crt_stdio_output@@V?$format_validation_base@_WV?$stream_output_adapter@_W@__crt_stdio_output@@@2@@__crt_stdio_output@@AEAA_NXZ 000000018007a6a0 f i libucrtd:output.obj
 0001:00079a70       ?type_case_a@?$output_processor@_WV?$stream_output_adapter@_W@__crt_stdio_output@@V?$positional_parameter_base@_WV?$stream_output_adapter@_W@__crt_stdio_output@@@2@@__crt_stdio_output@@AEAA_NXZ 000000018007aa70 f i libucrtd:output.obj
 0001:00079e40       ?type_case_a@?$output_processor@_WV?$stream_output_adapter@_W@__crt_stdio_output@@V?$standard_base@_WV?$stream_output_adapter@_W@__crt_stdio_output@@@2@@__crt_stdio_output@@AEAA_NXZ 000000018007ae40 f i libucrtd:output.obj
 0001:0007a210       ?type_case_a@?$output_processor@_WV?$string_output_adapter@_W@__crt_stdio_output@@V?$format_validation_base@_WV?$string_output_adapter@_W@__crt_stdio_output@@@2@@__crt_stdio_output@@AEAA_NXZ 000000018007b210 f i libucrtd:output.obj
 0001:0007a5e0       ?type_case_a@?$output_processor@_WV?$string_output_adapter@_W@__crt_stdio_output@@V?$positional_parameter_base@_WV?$string_output_adapter@_W@__crt_stdio_output@@@2@@__crt_stdio_output@@AEAA_NXZ 000000018007b5e0 f i libucrtd:output.obj
 0001:0007a9b0       ?type_case_a@?$output_processor@_WV?$string_output_adapter@_W@__crt_stdio_output@@V?$standard_base@_WV?$string_output_adapter@_W@__crt_stdio_output@@@2@@__crt_stdio_output@@AEAA_NXZ 000000018007b9b0 f i libucrtd:output.obj
 0001:0007ad80       ?type_case_c@?$output_processor@DV?$stream_output_adapter@D@__crt_stdio_output@@V?$format_validation_base@DV?$stream_output_adapter@D@__crt_stdio_output@@@2@@__crt_stdio_output@@AEAA_NXZ 000000018007bd80 f i libucrtd:output.obj
 0001:0007ada0       ?type_case_c@?$output_processor@DV?$stream_output_adapter@D@__crt_stdio_output@@V?$positional_parameter_base@DV?$stream_output_adapter@D@__crt_stdio_output@@@2@@__crt_stdio_output@@AEAA_NXZ 000000018007bda0 f i libucrtd:output.obj
 0001:0007adc0       ?type_case_c@?$output_processor@DV?$stream_output_adapter@D@__crt_stdio_output@@V?$standard_base@DV?$stream_output_adapter@D@__crt_stdio_output@@@2@@__crt_stdio_output@@AEAA_NXZ 000000018007bdc0 f i libucrtd:output.obj
 0001:0007ade0       ?type_case_c@?$output_processor@DV?$string_output_adapter@D@__crt_stdio_output@@V?$format_validation_base@DV?$string_output_adapter@D@__crt_stdio_output@@@2@@__crt_stdio_output@@AEAA_NXZ 000000018007bde0 f i libucrtd:output.obj
 0001:0007ae00       ?type_case_c@?$output_processor@DV?$string_output_adapter@D@__crt_stdio_output@@V?$positional_parameter_base@DV?$string_output_adapter@D@__crt_stdio_output@@@2@@__crt_stdio_output@@AEAA_NXZ 000000018007be00 f i libucrtd:output.obj
 0001:0007ae20       ?type_case_c@?$output_processor@DV?$string_output_adapter@D@__crt_stdio_output@@V?$standard_base@DV?$string_output_adapter@D@__crt_stdio_output@@@2@@__crt_stdio_output@@AEAA_NXZ 000000018007be20 f i libucrtd:output.obj
 0001:0007ae40       ?type_case_c@?$output_processor@_WV?$stream_output_adapter@_W@__crt_stdio_output@@V?$format_validation_base@_WV?$stream_output_adapter@_W@__crt_stdio_output@@@2@@__crt_stdio_output@@AEAA_NXZ 000000018007be40 f i libucrtd:output.obj
 0001:0007ae60       ?type_case_c@?$output_processor@_WV?$stream_output_adapter@_W@__crt_stdio_output@@V?$positional_parameter_base@_WV?$stream_output_adapter@_W@__crt_stdio_output@@@2@@__crt_stdio_output@@AEAA_NXZ 000000018007be60 f i libucrtd:output.obj
 0001:0007ae80       ?type_case_c@?$output_processor@_WV?$stream_output_adapter@_W@__crt_stdio_output@@V?$standard_base@_WV?$stream_output_adapter@_W@__crt_stdio_output@@@2@@__crt_stdio_output@@AEAA_NXZ 000000018007be80 f i libucrtd:output.obj
 0001:0007aea0       ?type_case_c@?$output_processor@_WV?$string_output_adapter@_W@__crt_stdio_output@@V?$format_validation_base@_WV?$string_output_adapter@_W@__crt_stdio_output@@@2@@__crt_stdio_output@@AEAA_NXZ 000000018007bea0 f i libucrtd:output.obj
 0001:0007aec0       ?type_case_c@?$output_processor@_WV?$string_output_adapter@_W@__crt_stdio_output@@V?$positional_parameter_base@_WV?$string_output_adapter@_W@__crt_stdio_output@@@2@@__crt_stdio_output@@AEAA_NXZ 000000018007bec0 f i libucrtd:output.obj
 0001:0007aee0       ?type_case_c@?$output_processor@_WV?$string_output_adapter@_W@__crt_stdio_output@@V?$standard_base@_WV?$string_output_adapter@_W@__crt_stdio_output@@@2@@__crt_stdio_output@@AEAA_NXZ 000000018007bee0 f i libucrtd:output.obj
 0001:0007af00       ?type_case_c_tchar@?$output_processor@DV?$stream_output_adapter@D@__crt_stdio_output@@V?$format_validation_base@DV?$stream_output_adapter@D@__crt_stdio_output@@@2@@__crt_stdio_output@@AEAA_ND@Z 000000018007bf00 f i libucrtd:output.obj
 0001:0007b050       ?type_case_c_tchar@?$output_processor@DV?$stream_output_adapter@D@__crt_stdio_output@@V?$positional_parameter_base@DV?$stream_output_adapter@D@__crt_stdio_output@@@2@@__crt_stdio_output@@AEAA_ND@Z 000000018007c050 f i libucrtd:output.obj
 0001:0007b1a0       ?type_case_c_tchar@?$output_processor@DV?$stream_output_adapter@D@__crt_stdio_output@@V?$standard_base@DV?$stream_output_adapter@D@__crt_stdio_output@@@2@@__crt_stdio_output@@AEAA_ND@Z 000000018007c1a0 f i libucrtd:output.obj
 0001:0007b2f0       ?type_case_c_tchar@?$output_processor@DV?$string_output_adapter@D@__crt_stdio_output@@V?$format_validation_base@DV?$string_output_adapter@D@__crt_stdio_output@@@2@@__crt_stdio_output@@AEAA_ND@Z 000000018007c2f0 f i libucrtd:output.obj
 0001:0007b440       ?type_case_c_tchar@?$output_processor@DV?$string_output_adapter@D@__crt_stdio_output@@V?$positional_parameter_base@DV?$string_output_adapter@D@__crt_stdio_output@@@2@@__crt_stdio_output@@AEAA_ND@Z 000000018007c440 f i libucrtd:output.obj
 0001:0007b590       ?type_case_c_tchar@?$output_processor@DV?$string_output_adapter@D@__crt_stdio_output@@V?$standard_base@DV?$string_output_adapter@D@__crt_stdio_output@@@2@@__crt_stdio_output@@AEAA_ND@Z 000000018007c590 f i libucrtd:output.obj
 0001:0007b6e0       ?type_case_c_tchar@?$output_processor@_WV?$stream_output_adapter@_W@__crt_stdio_output@@V?$format_validation_base@_WV?$stream_output_adapter@_W@__crt_stdio_output@@@2@@__crt_stdio_output@@AEAA_N_W@Z 000000018007c6e0 f i libucrtd:output.obj
 0001:0007b810       ?type_case_c_tchar@?$output_processor@_WV?$stream_output_adapter@_W@__crt_stdio_output@@V?$positional_parameter_base@_WV?$stream_output_adapter@_W@__crt_stdio_output@@@2@@__crt_stdio_output@@AEAA_N_W@Z 000000018007c810 f i libucrtd:output.obj
 0001:0007b940       ?type_case_c_tchar@?$output_processor@_WV?$stream_output_adapter@_W@__crt_stdio_output@@V?$standard_base@_WV?$stream_output_adapter@_W@__crt_stdio_output@@@2@@__crt_stdio_output@@AEAA_N_W@Z 000000018007c940 f i libucrtd:output.obj
 0001:0007ba70       ?type_case_c_tchar@?$output_processor@_WV?$string_output_adapter@_W@__crt_stdio_output@@V?$format_validation_base@_WV?$string_output_adapter@_W@__crt_stdio_output@@@2@@__crt_stdio_output@@AEAA_N_W@Z 000000018007ca70 f i libucrtd:output.obj
 0001:0007bba0       ?type_case_c_tchar@?$output_processor@_WV?$string_output_adapter@_W@__crt_stdio_output@@V?$positional_parameter_base@_WV?$string_output_adapter@_W@__crt_stdio_output@@@2@@__crt_stdio_output@@AEAA_N_W@Z 000000018007cba0 f i libucrtd:output.obj
 0001:0007bcd0       ?type_case_c_tchar@?$output_processor@_WV?$string_output_adapter@_W@__crt_stdio_output@@V?$standard_base@_WV?$string_output_adapter@_W@__crt_stdio_output@@@2@@__crt_stdio_output@@AEAA_N_W@Z 000000018007ccd0 f i libucrtd:output.obj
 0001:0007be00       ?type_case_d@?$output_processor@DV?$stream_output_adapter@D@__crt_stdio_output@@V?$format_validation_base@DV?$stream_output_adapter@D@__crt_stdio_output@@@2@@__crt_stdio_output@@AEAA_NXZ 000000018007ce00 f i libucrtd:output.obj
 0001:0007be30       ?type_case_d@?$output_processor@DV?$stream_output_adapter@D@__crt_stdio_output@@V?$positional_parameter_base@DV?$stream_output_adapter@D@__crt_stdio_output@@@2@@__crt_stdio_output@@AEAA_NXZ 000000018007ce30 f i libucrtd:output.obj
 0001:0007be60       ?type_case_d@?$output_processor@DV?$stream_output_adapter@D@__crt_stdio_output@@V?$standard_base@DV?$stream_output_adapter@D@__crt_stdio_output@@@2@@__crt_stdio_output@@AEAA_NXZ 000000018007ce60 f i libucrtd:output.obj
 0001:0007be90       ?type_case_d@?$output_processor@DV?$string_output_adapter@D@__crt_stdio_output@@V?$format_validation_base@DV?$string_output_adapter@D@__crt_stdio_output@@@2@@__crt_stdio_output@@AEAA_NXZ 000000018007ce90 f i libucrtd:output.obj
 0001:0007bec0       ?type_case_d@?$output_processor@DV?$string_output_adapter@D@__crt_stdio_output@@V?$positional_parameter_base@DV?$string_output_adapter@D@__crt_stdio_output@@@2@@__crt_stdio_output@@AEAA_NXZ 000000018007cec0 f i libucrtd:output.obj
 0001:0007bef0       ?type_case_d@?$output_processor@DV?$string_output_adapter@D@__crt_stdio_output@@V?$standard_base@DV?$string_output_adapter@D@__crt_stdio_output@@@2@@__crt_stdio_output@@AEAA_NXZ 000000018007cef0 f i libucrtd:output.obj
 0001:0007bf20       ?type_case_d@?$output_processor@_WV?$stream_output_adapter@_W@__crt_stdio_output@@V?$format_validation_base@_WV?$stream_output_adapter@_W@__crt_stdio_output@@@2@@__crt_stdio_output@@AEAA_NXZ 000000018007cf20 f i libucrtd:output.obj
 0001:0007bf50       ?type_case_d@?$output_processor@_WV?$stream_output_adapter@_W@__crt_stdio_output@@V?$positional_parameter_base@_WV?$stream_output_adapter@_W@__crt_stdio_output@@@2@@__crt_stdio_output@@AEAA_NXZ 000000018007cf50 f i libucrtd:output.obj
 0001:0007bf80       ?type_case_d@?$output_processor@_WV?$stream_output_adapter@_W@__crt_stdio_output@@V?$standard_base@_WV?$stream_output_adapter@_W@__crt_stdio_output@@@2@@__crt_stdio_output@@AEAA_NXZ 000000018007cf80 f i libucrtd:output.obj
 0001:0007bfb0       ?type_case_d@?$output_processor@_WV?$string_output_adapter@_W@__crt_stdio_output@@V?$format_validation_base@_WV?$string_output_adapter@_W@__crt_stdio_output@@@2@@__crt_stdio_output@@AEAA_NXZ 000000018007cfb0 f i libucrtd:output.obj
 0001:0007bfe0       ?type_case_d@?$output_processor@_WV?$string_output_adapter@_W@__crt_stdio_output@@V?$positional_parameter_base@_WV?$string_output_adapter@_W@__crt_stdio_output@@@2@@__crt_stdio_output@@AEAA_NXZ 000000018007cfe0 f i libucrtd:output.obj
 0001:0007c010       ?type_case_d@?$output_processor@_WV?$string_output_adapter@_W@__crt_stdio_output@@V?$standard_base@_WV?$string_output_adapter@_W@__crt_stdio_output@@@2@@__crt_stdio_output@@AEAA_NXZ 000000018007d010 f i libucrtd:output.obj
 0001:0007c040       ?type_case_integer@?$output_processor@DV?$stream_output_adapter@D@__crt_stdio_output@@V?$format_validation_base@DV?$stream_output_adapter@D@__crt_stdio_output@@@2@@__crt_stdio_output@@AEAA_NI_N@Z 000000018007d040 f i libucrtd:output.obj
 0001:0007c490       ?type_case_integer@?$output_processor@DV?$stream_output_adapter@D@__crt_stdio_output@@V?$positional_parameter_base@DV?$stream_output_adapter@D@__crt_stdio_output@@@2@@__crt_stdio_output@@AEAA_NI_N@Z 000000018007d490 f i libucrtd:output.obj
 0001:0007c8e0       ?type_case_integer@?$output_processor@DV?$stream_output_adapter@D@__crt_stdio_output@@V?$standard_base@DV?$stream_output_adapter@D@__crt_stdio_output@@@2@@__crt_stdio_output@@AEAA_NI_N@Z 000000018007d8e0 f i libucrtd:output.obj
 0001:0007cd30       ?type_case_integer@?$output_processor@DV?$string_output_adapter@D@__crt_stdio_output@@V?$format_validation_base@DV?$string_output_adapter@D@__crt_stdio_output@@@2@@__crt_stdio_output@@AEAA_NI_N@Z 000000018007dd30 f i libucrtd:output.obj
 0001:0007d180       ?type_case_integer@?$output_processor@DV?$string_output_adapter@D@__crt_stdio_output@@V?$positional_parameter_base@DV?$string_output_adapter@D@__crt_stdio_output@@@2@@__crt_stdio_output@@AEAA_NI_N@Z 000000018007e180 f i libucrtd:output.obj
 0001:0007d5d0       ?type_case_integer@?$output_processor@DV?$string_output_adapter@D@__crt_stdio_output@@V?$standard_base@DV?$string_output_adapter@D@__crt_stdio_output@@@2@@__crt_stdio_output@@AEAA_NI_N@Z 000000018007e5d0 f i libucrtd:output.obj
 0001:0007da20       ?type_case_integer@?$output_processor@_WV?$stream_output_adapter@_W@__crt_stdio_output@@V?$format_validation_base@_WV?$stream_output_adapter@_W@__crt_stdio_output@@@2@@__crt_stdio_output@@AEAA_NI_N@Z 000000018007ea20 f i libucrtd:output.obj
 0001:0007de70       ?type_case_integer@?$output_processor@_WV?$stream_output_adapter@_W@__crt_stdio_output@@V?$positional_parameter_base@_WV?$stream_output_adapter@_W@__crt_stdio_output@@@2@@__crt_stdio_output@@AEAA_NI_N@Z 000000018007ee70 f i libucrtd:output.obj
 0001:0007e2c0       ?type_case_integer@?$output_processor@_WV?$stream_output_adapter@_W@__crt_stdio_output@@V?$standard_base@_WV?$stream_output_adapter@_W@__crt_stdio_output@@@2@@__crt_stdio_output@@AEAA_NI_N@Z 000000018007f2c0 f i libucrtd:output.obj
 0001:0007e710       ?type_case_integer@?$output_processor@_WV?$string_output_adapter@_W@__crt_stdio_output@@V?$format_validation_base@_WV?$string_output_adapter@_W@__crt_stdio_output@@@2@@__crt_stdio_output@@AEAA_NI_N@Z 000000018007f710 f i libucrtd:output.obj
 0001:0007eb60       ?type_case_integer@?$output_processor@_WV?$string_output_adapter@_W@__crt_stdio_output@@V?$positional_parameter_base@_WV?$string_output_adapter@_W@__crt_stdio_output@@@2@@__crt_stdio_output@@AEAA_NI_N@Z 000000018007fb60 f i libucrtd:output.obj
 0001:0007efb0       ?type_case_integer@?$output_processor@_WV?$string_output_adapter@_W@__crt_stdio_output@@V?$standard_base@_WV?$string_output_adapter@_W@__crt_stdio_output@@@2@@__crt_stdio_output@@AEAA_NI_N@Z 000000018007ffb0 f i libucrtd:output.obj
 0001:0007f400       ?type_case_n@?$output_processor@DV?$stream_output_adapter@D@__crt_stdio_output@@V?$format_validation_base@DV?$stream_output_adapter@D@__crt_stdio_output@@@2@@__crt_stdio_output@@AEAA_NXZ 0000000180080400 f i libucrtd:output.obj
 0001:0007f640       ?type_case_n@?$output_processor@DV?$stream_output_adapter@D@__crt_stdio_output@@V?$positional_parameter_base@DV?$stream_output_adapter@D@__crt_stdio_output@@@2@@__crt_stdio_output@@AEAA_NXZ 0000000180080640 f i libucrtd:output.obj
 0001:0007f880       ?type_case_n@?$output_processor@DV?$stream_output_adapter@D@__crt_stdio_output@@V?$standard_base@DV?$stream_output_adapter@D@__crt_stdio_output@@@2@@__crt_stdio_output@@AEAA_NXZ 0000000180080880 f i libucrtd:output.obj
 0001:0007fac0       ?type_case_n@?$output_processor@DV?$string_output_adapter@D@__crt_stdio_output@@V?$format_validation_base@DV?$string_output_adapter@D@__crt_stdio_output@@@2@@__crt_stdio_output@@AEAA_NXZ 0000000180080ac0 f i libucrtd:output.obj
 0001:0007fd00       ?type_case_n@?$output_processor@DV?$string_output_adapter@D@__crt_stdio_output@@V?$positional_parameter_base@DV?$string_output_adapter@D@__crt_stdio_output@@@2@@__crt_stdio_output@@AEAA_NXZ 0000000180080d00 f i libucrtd:output.obj
 0001:0007ff40       ?type_case_n@?$output_processor@DV?$string_output_adapter@D@__crt_stdio_output@@V?$standard_base@DV?$string_output_adapter@D@__crt_stdio_output@@@2@@__crt_stdio_output@@AEAA_NXZ 0000000180080f40 f i libucrtd:output.obj
 0001:00080180       ?type_case_n@?$output_processor@_WV?$stream_output_adapter@_W@__crt_stdio_output@@V?$format_validation_base@_WV?$stream_output_adapter@_W@__crt_stdio_output@@@2@@__crt_stdio_output@@AEAA_NXZ 0000000180081180 f i libucrtd:output.obj
 0001:000803c0       ?type_case_n@?$output_processor@_WV?$stream_output_adapter@_W@__crt_stdio_output@@V?$positional_parameter_base@_WV?$stream_output_adapter@_W@__crt_stdio_output@@@2@@__crt_stdio_output@@AEAA_NXZ 00000001800813c0 f i libucrtd:output.obj
 0001:00080600       ?type_case_n@?$output_processor@_WV?$stream_output_adapter@_W@__crt_stdio_output@@V?$standard_base@_WV?$stream_output_adapter@_W@__crt_stdio_output@@@2@@__crt_stdio_output@@AEAA_NXZ 0000000180081600 f i libucrtd:output.obj
 0001:00080840       ?type_case_n@?$output_processor@_WV?$string_output_adapter@_W@__crt_stdio_output@@V?$format_validation_base@_WV?$string_output_adapter@_W@__crt_stdio_output@@@2@@__crt_stdio_output@@AEAA_NXZ 0000000180081840 f i libucrtd:output.obj
 0001:00080a80       ?type_case_n@?$output_processor@_WV?$string_output_adapter@_W@__crt_stdio_output@@V?$positional_parameter_base@_WV?$string_output_adapter@_W@__crt_stdio_output@@@2@@__crt_stdio_output@@AEAA_NXZ 0000000180081a80 f i libucrtd:output.obj
 0001:00080cc0       ?type_case_n@?$output_processor@_WV?$string_output_adapter@_W@__crt_stdio_output@@V?$standard_base@_WV?$string_output_adapter@_W@__crt_stdio_output@@@2@@__crt_stdio_output@@AEAA_NXZ 0000000180081cc0 f i libucrtd:output.obj
 0001:00080f00       ?type_case_o@?$output_processor@DV?$stream_output_adapter@D@__crt_stdio_output@@V?$format_validation_base@DV?$stream_output_adapter@D@__crt_stdio_output@@@2@@__crt_stdio_output@@AEAA_NXZ 0000000180081f00 f i libucrtd:output.obj
 0001:00080f50       ?type_case_o@?$output_processor@DV?$stream_output_adapter@D@__crt_stdio_output@@V?$positional_parameter_base@DV?$stream_output_adapter@D@__crt_stdio_output@@@2@@__crt_stdio_output@@AEAA_NXZ 0000000180081f50 f i libucrtd:output.obj
 0001:00080fa0       ?type_case_o@?$output_processor@DV?$stream_output_adapter@D@__crt_stdio_output@@V?$standard_base@DV?$stream_output_adapter@D@__crt_stdio_output@@@2@@__crt_stdio_output@@AEAA_NXZ 0000000180081fa0 f i libucrtd:output.obj
 0001:00080ff0       ?type_case_o@?$output_processor@DV?$string_output_adapter@D@__crt_stdio_output@@V?$format_validation_base@DV?$string_output_adapter@D@__crt_stdio_output@@@2@@__crt_stdio_output@@AEAA_NXZ 0000000180081ff0 f i libucrtd:output.obj
 0001:00081040       ?type_case_o@?$output_processor@DV?$string_output_adapter@D@__crt_stdio_output@@V?$positional_parameter_base@DV?$string_output_adapter@D@__crt_stdio_output@@@2@@__crt_stdio_output@@AEAA_NXZ 0000000180082040 f i libucrtd:output.obj
 0001:00081090       ?type_case_o@?$output_processor@DV?$string_output_adapter@D@__crt_stdio_output@@V?$standard_base@DV?$string_output_adapter@D@__crt_stdio_output@@@2@@__crt_stdio_output@@AEAA_NXZ 0000000180082090 f i libucrtd:output.obj
 0001:000810e0       ?type_case_o@?$output_processor@_WV?$stream_output_adapter@_W@__crt_stdio_output@@V?$format_validation_base@_WV?$stream_output_adapter@_W@__crt_stdio_output@@@2@@__crt_stdio_output@@AEAA_NXZ 00000001800820e0 f i libucrtd:output.obj
 0001:00081130       ?type_case_o@?$output_processor@_WV?$stream_output_adapter@_W@__crt_stdio_output@@V?$positional_parameter_base@_WV?$stream_output_adapter@_W@__crt_stdio_output@@@2@@__crt_stdio_output@@AEAA_NXZ 0000000180082130 f i libucrtd:output.obj
 0001:00081180       ?type_case_o@?$output_processor@_WV?$stream_output_adapter@_W@__crt_stdio_output@@V?$standard_base@_WV?$stream_output_adapter@_W@__crt_stdio_output@@@2@@__crt_stdio_output@@AEAA_NXZ 0000000180082180 f i libucrtd:output.obj
 0001:000811d0       ?type_case_o@?$output_processor@_WV?$string_output_adapter@_W@__crt_stdio_output@@V?$format_validation_base@_WV?$string_output_adapter@_W@__crt_stdio_output@@@2@@__crt_stdio_output@@AEAA_NXZ 00000001800821d0 f i libucrtd:output.obj
 0001:00081220       ?type_case_o@?$output_processor@_WV?$string_output_adapter@_W@__crt_stdio_output@@V?$positional_parameter_base@_WV?$string_output_adapter@_W@__crt_stdio_output@@@2@@__crt_stdio_output@@AEAA_NXZ 0000000180082220 f i libucrtd:output.obj
 0001:00081270       ?type_case_o@?$output_processor@_WV?$string_output_adapter@_W@__crt_stdio_output@@V?$standard_base@_WV?$string_output_adapter@_W@__crt_stdio_output@@@2@@__crt_stdio_output@@AEAA_NXZ 0000000180082270 f i libucrtd:output.obj
 0001:000812c0       ?type_case_p@?$output_processor@DV?$stream_output_adapter@D@__crt_stdio_output@@V?$format_validation_base@DV?$stream_output_adapter@D@__crt_stdio_output@@@2@@__crt_stdio_output@@AEAA_NXZ 00000001800822c0 f i libucrtd:output.obj
 0001:00081300       ?type_case_p@?$output_processor@DV?$stream_output_adapter@D@__crt_stdio_output@@V?$positional_parameter_base@DV?$stream_output_adapter@D@__crt_stdio_output@@@2@@__crt_stdio_output@@AEAA_NXZ 0000000180082300 f i libucrtd:output.obj
 0001:00081340       ?type_case_p@?$output_processor@DV?$stream_output_adapter@D@__crt_stdio_output@@V?$standard_base@DV?$stream_output_adapter@D@__crt_stdio_output@@@2@@__crt_stdio_output@@AEAA_NXZ 0000000180082340 f i libucrtd:output.obj
 0001:00081380       ?type_case_p@?$output_processor@DV?$string_output_adapter@D@__crt_stdio_output@@V?$format_validation_base@DV?$string_output_adapter@D@__crt_stdio_output@@@2@@__crt_stdio_output@@AEAA_NXZ 0000000180082380 f i libucrtd:output.obj
 0001:000813c0       ?type_case_p@?$output_processor@DV?$string_output_adapter@D@__crt_stdio_output@@V?$positional_parameter_base@DV?$string_output_adapter@D@__crt_stdio_output@@@2@@__crt_stdio_output@@AEAA_NXZ 00000001800823c0 f i libucrtd:output.obj
 0001:00081400       ?type_case_p@?$output_processor@DV?$string_output_adapter@D@__crt_stdio_output@@V?$standard_base@DV?$string_output_adapter@D@__crt_stdio_output@@@2@@__crt_stdio_output@@AEAA_NXZ 0000000180082400 f i libucrtd:output.obj
 0001:00081440       ?type_case_p@?$output_processor@_WV?$stream_output_adapter@_W@__crt_stdio_output@@V?$format_validation_base@_WV?$stream_output_adapter@_W@__crt_stdio_output@@@2@@__crt_stdio_output@@AEAA_NXZ 0000000180082440 f i libucrtd:output.obj
 0001:00081480       ?type_case_p@?$output_processor@_WV?$stream_output_adapter@_W@__crt_stdio_output@@V?$positional_parameter_base@_WV?$stream_output_adapter@_W@__crt_stdio_output@@@2@@__crt_stdio_output@@AEAA_NXZ 0000000180082480 f i libucrtd:output.obj
 0001:000814c0       ?type_case_p@?$output_processor@_WV?$stream_output_adapter@_W@__crt_stdio_output@@V?$standard_base@_WV?$stream_output_adapter@_W@__crt_stdio_output@@@2@@__crt_stdio_output@@AEAA_NXZ 00000001800824c0 f i libucrtd:output.obj
 0001:00081500       ?type_case_p@?$output_processor@_WV?$string_output_adapter@_W@__crt_stdio_output@@V?$format_validation_base@_WV?$string_output_adapter@_W@__crt_stdio_output@@@2@@__crt_stdio_output@@AEAA_NXZ 0000000180082500 f i libucrtd:output.obj
 0001:00081540       ?type_case_p@?$output_processor@_WV?$string_output_adapter@_W@__crt_stdio_output@@V?$positional_parameter_base@_WV?$string_output_adapter@_W@__crt_stdio_output@@@2@@__crt_stdio_output@@AEAA_NXZ 0000000180082540 f i libucrtd:output.obj
 0001:00081580       ?type_case_p@?$output_processor@_WV?$string_output_adapter@_W@__crt_stdio_output@@V?$standard_base@_WV?$string_output_adapter@_W@__crt_stdio_output@@@2@@__crt_stdio_output@@AEAA_NXZ 0000000180082580 f i libucrtd:output.obj
 0001:000815c0       ?type_case_s@?$output_processor@DV?$stream_output_adapter@D@__crt_stdio_output@@V?$format_validation_base@DV?$stream_output_adapter@D@__crt_stdio_output@@@2@@__crt_stdio_output@@AEAA_NXZ 00000001800825c0 f i libucrtd:output.obj
 0001:000816e0       ?type_case_s@?$output_processor@DV?$stream_output_adapter@D@__crt_stdio_output@@V?$positional_parameter_base@DV?$stream_output_adapter@D@__crt_stdio_output@@@2@@__crt_stdio_output@@AEAA_NXZ 00000001800826e0 f i libucrtd:output.obj
 0001:00081800       ?type_case_s@?$output_processor@DV?$stream_output_adapter@D@__crt_stdio_output@@V?$standard_base@DV?$stream_output_adapter@D@__crt_stdio_output@@@2@@__crt_stdio_output@@AEAA_NXZ 0000000180082800 f i libucrtd:output.obj
 0001:00081920       ?type_case_s@?$output_processor@DV?$string_output_adapter@D@__crt_stdio_output@@V?$format_validation_base@DV?$string_output_adapter@D@__crt_stdio_output@@@2@@__crt_stdio_output@@AEAA_NXZ 0000000180082920 f i libucrtd:output.obj
 0001:00081a40       ?type_case_s@?$output_processor@DV?$string_output_adapter@D@__crt_stdio_output@@V?$positional_parameter_base@DV?$string_output_adapter@D@__crt_stdio_output@@@2@@__crt_stdio_output@@AEAA_NXZ 0000000180082a40 f i libucrtd:output.obj
 0001:00081b60       ?type_case_s@?$output_processor@DV?$string_output_adapter@D@__crt_stdio_output@@V?$standard_base@DV?$string_output_adapter@D@__crt_stdio_output@@@2@@__crt_stdio_output@@AEAA_NXZ 0000000180082b60 f i libucrtd:output.obj
 0001:00081c80       ?type_case_s@?$output_processor@_WV?$stream_output_adapter@_W@__crt_stdio_output@@V?$format_validation_base@_WV?$stream_output_adapter@_W@__crt_stdio_output@@@2@@__crt_stdio_output@@AEAA_NXZ 0000000180082c80 f i libucrtd:output.obj
 0001:00081da0       ?type_case_s@?$output_processor@_WV?$stream_output_adapter@_W@__crt_stdio_output@@V?$positional_parameter_base@_WV?$stream_output_adapter@_W@__crt_stdio_output@@@2@@__crt_stdio_output@@AEAA_NXZ 0000000180082da0 f i libucrtd:output.obj
 0001:00081ec0       ?type_case_s@?$output_processor@_WV?$stream_output_adapter@_W@__crt_stdio_output@@V?$standard_base@_WV?$stream_output_adapter@_W@__crt_stdio_output@@@2@@__crt_stdio_output@@AEAA_NXZ 0000000180082ec0 f i libucrtd:output.obj
 0001:00081fe0       ?type_case_s@?$output_processor@_WV?$string_output_adapter@_W@__crt_stdio_output@@V?$format_validation_base@_WV?$string_output_adapter@_W@__crt_stdio_output@@@2@@__crt_stdio_output@@AEAA_NXZ 0000000180082fe0 f i libucrtd:output.obj
 0001:00082100       ?type_case_s@?$output_processor@_WV?$string_output_adapter@_W@__crt_stdio_output@@V?$positional_parameter_base@_WV?$string_output_adapter@_W@__crt_stdio_output@@@2@@__crt_stdio_output@@AEAA_NXZ 0000000180083100 f i libucrtd:output.obj
 0001:00082220       ?type_case_s@?$output_processor@_WV?$string_output_adapter@_W@__crt_stdio_output@@V?$standard_base@_WV?$string_output_adapter@_W@__crt_stdio_output@@@2@@__crt_stdio_output@@AEAA_NXZ 0000000180083220 f i libucrtd:output.obj
 0001:00082340       ?type_case_s_compute_narrow_string_length@?$output_processor@DV?$stream_output_adapter@D@__crt_stdio_output@@V?$format_validation_base@DV?$stream_output_adapter@D@__crt_stdio_output@@@2@@__crt_stdio_output@@AEBAHHD@Z 0000000180083340 f i libucrtd:output.obj
 0001:00082370       ?type_case_s_compute_narrow_string_length@?$output_processor@DV?$stream_output_adapter@D@__crt_stdio_output@@V?$positional_parameter_base@DV?$stream_output_adapter@D@__crt_stdio_output@@@2@@__crt_stdio_output@@AEBAHHD@Z 0000000180083370 f i libucrtd:output.obj
 0001:000823a0       ?type_case_s_compute_narrow_string_length@?$output_processor@DV?$stream_output_adapter@D@__crt_stdio_output@@V?$standard_base@DV?$stream_output_adapter@D@__crt_stdio_output@@@2@@__crt_stdio_output@@AEBAHHD@Z 00000001800833a0 f i libucrtd:output.obj
 0001:000823d0       ?type_case_s_compute_narrow_string_length@?$output_processor@DV?$string_output_adapter@D@__crt_stdio_output@@V?$format_validation_base@DV?$string_output_adapter@D@__crt_stdio_output@@@2@@__crt_stdio_output@@AEBAHHD@Z 00000001800833d0 f i libucrtd:output.obj
 0001:00082400       ?type_case_s_compute_narrow_string_length@?$output_processor@DV?$string_output_adapter@D@__crt_stdio_output@@V?$positional_parameter_base@DV?$string_output_adapter@D@__crt_stdio_output@@@2@@__crt_stdio_output@@AEBAHHD@Z 0000000180083400 f i libucrtd:output.obj
 0001:00082430       ?type_case_s_compute_narrow_string_length@?$output_processor@DV?$string_output_adapter@D@__crt_stdio_output@@V?$standard_base@DV?$string_output_adapter@D@__crt_stdio_output@@@2@@__crt_stdio_output@@AEBAHHD@Z 0000000180083430 f i libucrtd:output.obj
 0001:00082460       ?type_case_s_compute_narrow_string_length@?$output_processor@_WV?$stream_output_adapter@_W@__crt_stdio_output@@V?$format_validation_base@_WV?$stream_output_adapter@_W@__crt_stdio_output@@@2@@__crt_stdio_output@@AEBAHH_W@Z 0000000180083460 f i libucrtd:output.obj
 0001:000824f0       ?type_case_s_compute_narrow_string_length@?$output_processor@_WV?$stream_output_adapter@_W@__crt_stdio_output@@V?$positional_parameter_base@_WV?$stream_output_adapter@_W@__crt_stdio_output@@@2@@__crt_stdio_output@@AEBAHH_W@Z 00000001800834f0 f i libucrtd:output.obj
 0001:00082580       ?type_case_s_compute_narrow_string_length@?$output_processor@_WV?$stream_output_adapter@_W@__crt_stdio_output@@V?$standard_base@_WV?$stream_output_adapter@_W@__crt_stdio_output@@@2@@__crt_stdio_output@@AEBAHH_W@Z 0000000180083580 f i libucrtd:output.obj
 0001:00082610       ?type_case_s_compute_narrow_string_length@?$output_processor@_WV?$string_output_adapter@_W@__crt_stdio_output@@V?$format_validation_base@_WV?$string_output_adapter@_W@__crt_stdio_output@@@2@@__crt_stdio_output@@AEBAHH_W@Z 0000000180083610 f i libucrtd:output.obj
 0001:000826a0       ?type_case_s_compute_narrow_string_length@?$output_processor@_WV?$string_output_adapter@_W@__crt_stdio_output@@V?$positional_parameter_base@_WV?$string_output_adapter@_W@__crt_stdio_output@@@2@@__crt_stdio_output@@AEBAHH_W@Z 00000001800836a0 f i libucrtd:output.obj
 0001:00082730       ?type_case_s_compute_narrow_string_length@?$output_processor@_WV?$string_output_adapter@_W@__crt_stdio_output@@V?$standard_base@_WV?$string_output_adapter@_W@__crt_stdio_output@@@2@@__crt_stdio_output@@AEBAHH_W@Z 0000000180083730 f i libucrtd:output.obj
 0001:000827c0       ?type_case_u@?$output_processor@DV?$stream_output_adapter@D@__crt_stdio_output@@V?$format_validation_base@DV?$stream_output_adapter@D@__crt_stdio_output@@@2@@__crt_stdio_output@@AEAA_NXZ 00000001800837c0 f i libucrtd:output.obj
 0001:000827e0       ?type_case_u@?$output_processor@DV?$stream_output_adapter@D@__crt_stdio_output@@V?$positional_parameter_base@DV?$stream_output_adapter@D@__crt_stdio_output@@@2@@__crt_stdio_output@@AEAA_NXZ 00000001800837e0 f i libucrtd:output.obj
 0001:00082800       ?type_case_u@?$output_processor@DV?$stream_output_adapter@D@__crt_stdio_output@@V?$standard_base@DV?$stream_output_adapter@D@__crt_stdio_output@@@2@@__crt_stdio_output@@AEAA_NXZ 0000000180083800 f i libucrtd:output.obj
 0001:00082820       ?type_case_u@?$output_processor@DV?$string_output_adapter@D@__crt_stdio_output@@V?$format_validation_base@DV?$string_output_adapter@D@__crt_stdio_output@@@2@@__crt_stdio_output@@AEAA_NXZ 0000000180083820 f i libucrtd:output.obj
 0001:00082840       ?type_case_u@?$output_processor@DV?$string_output_adapter@D@__crt_stdio_output@@V?$positional_parameter_base@DV?$string_output_adapter@D@__crt_stdio_output@@@2@@__crt_stdio_output@@AEAA_NXZ 0000000180083840 f i libucrtd:output.obj
 0001:00082860       ?type_case_u@?$output_processor@DV?$string_output_adapter@D@__crt_stdio_output@@V?$standard_base@DV?$string_output_adapter@D@__crt_stdio_output@@@2@@__crt_stdio_output@@AEAA_NXZ 0000000180083860 f i libucrtd:output.obj
 0001:00082880       ?type_case_u@?$output_processor@_WV?$stream_output_adapter@_W@__crt_stdio_output@@V?$format_validation_base@_WV?$stream_output_adapter@_W@__crt_stdio_output@@@2@@__crt_stdio_output@@AEAA_NXZ 0000000180083880 f i libucrtd:output.obj
 0001:000828a0       ?type_case_u@?$output_processor@_WV?$stream_output_adapter@_W@__crt_stdio_output@@V?$positional_parameter_base@_WV?$stream_output_adapter@_W@__crt_stdio_output@@@2@@__crt_stdio_output@@AEAA_NXZ 00000001800838a0 f i libucrtd:output.obj
 0001:000828c0       ?type_case_u@?$output_processor@_WV?$stream_output_adapter@_W@__crt_stdio_output@@V?$standard_base@_WV?$stream_output_adapter@_W@__crt_stdio_output@@@2@@__crt_stdio_output@@AEAA_NXZ 00000001800838c0 f i libucrtd:output.obj
 0001:000828e0       ?type_case_u@?$output_processor@_WV?$string_output_adapter@_W@__crt_stdio_output@@V?$format_validation_base@_WV?$string_output_adapter@_W@__crt_stdio_output@@@2@@__crt_stdio_output@@AEAA_NXZ 00000001800838e0 f i libucrtd:output.obj
 0001:00082900       ?type_case_u@?$output_processor@_WV?$string_output_adapter@_W@__crt_stdio_output@@V?$positional_parameter_base@_WV?$string_output_adapter@_W@__crt_stdio_output@@@2@@__crt_stdio_output@@AEAA_NXZ 0000000180083900 f i libucrtd:output.obj
 0001:00082920       ?type_case_u@?$output_processor@_WV?$string_output_adapter@_W@__crt_stdio_output@@V?$standard_base@_WV?$string_output_adapter@_W@__crt_stdio_output@@@2@@__crt_stdio_output@@AEAA_NXZ 0000000180083920 f i libucrtd:output.obj
 0001:00082940       ?type_case_x@?$output_processor@DV?$stream_output_adapter@D@__crt_stdio_output@@V?$format_validation_base@DV?$stream_output_adapter@D@__crt_stdio_output@@@2@@__crt_stdio_output@@AEAA_NXZ 0000000180083940 f i libucrtd:output.obj
 0001:00082960       ?type_case_x@?$output_processor@DV?$stream_output_adapter@D@__crt_stdio_output@@V?$positional_parameter_base@DV?$stream_output_adapter@D@__crt_stdio_output@@@2@@__crt_stdio_output@@AEAA_NXZ 0000000180083960 f i libucrtd:output.obj
 0001:00082980       ?type_case_x@?$output_processor@DV?$stream_output_adapter@D@__crt_stdio_output@@V?$standard_base@DV?$stream_output_adapter@D@__crt_stdio_output@@@2@@__crt_stdio_output@@AEAA_NXZ 0000000180083980 f i libucrtd:output.obj
 0001:000829a0       ?type_case_x@?$output_processor@DV?$string_output_adapter@D@__crt_stdio_output@@V?$format_validation_base@DV?$string_output_adapter@D@__crt_stdio_output@@@2@@__crt_stdio_output@@AEAA_NXZ 00000001800839a0 f i libucrtd:output.obj
 0001:000829c0       ?type_case_x@?$output_processor@DV?$string_output_adapter@D@__crt_stdio_output@@V?$positional_parameter_base@DV?$string_output_adapter@D@__crt_stdio_output@@@2@@__crt_stdio_output@@AEAA_NXZ 00000001800839c0 f i libucrtd:output.obj
 0001:000829e0       ?type_case_x@?$output_processor@DV?$string_output_adapter@D@__crt_stdio_output@@V?$standard_base@DV?$string_output_adapter@D@__crt_stdio_output@@@2@@__crt_stdio_output@@AEAA_NXZ 00000001800839e0 f i libucrtd:output.obj
 0001:00082a00       ?type_case_x@?$output_processor@_WV?$stream_output_adapter@_W@__crt_stdio_output@@V?$format_validation_base@_WV?$stream_output_adapter@_W@__crt_stdio_output@@@2@@__crt_stdio_output@@AEAA_NXZ 0000000180083a00 f i libucrtd:output.obj
 0001:00082a20       ?type_case_x@?$output_processor@_WV?$stream_output_adapter@_W@__crt_stdio_output@@V?$positional_parameter_base@_WV?$stream_output_adapter@_W@__crt_stdio_output@@@2@@__crt_stdio_output@@AEAA_NXZ 0000000180083a20 f i libucrtd:output.obj
 0001:00082a40       ?type_case_x@?$output_processor@_WV?$stream_output_adapter@_W@__crt_stdio_output@@V?$standard_base@_WV?$stream_output_adapter@_W@__crt_stdio_output@@@2@@__crt_stdio_output@@AEAA_NXZ 0000000180083a40 f i libucrtd:output.obj
 0001:00082a60       ?type_case_x@?$output_processor@_WV?$string_output_adapter@_W@__crt_stdio_output@@V?$format_validation_base@_WV?$string_output_adapter@_W@__crt_stdio_output@@@2@@__crt_stdio_output@@AEAA_NXZ 0000000180083a60 f i libucrtd:output.obj
 0001:00082a80       ?type_case_x@?$output_processor@_WV?$string_output_adapter@_W@__crt_stdio_output@@V?$positional_parameter_base@_WV?$string_output_adapter@_W@__crt_stdio_output@@@2@@__crt_stdio_output@@AEAA_NXZ 0000000180083a80 f i libucrtd:output.obj
 0001:00082aa0       ?type_case_x@?$output_processor@_WV?$string_output_adapter@_W@__crt_stdio_output@@V?$standard_base@_WV?$string_output_adapter@_W@__crt_stdio_output@@@2@@__crt_stdio_output@@AEAA_NXZ 0000000180083aa0 f i libucrtd:output.obj
 0001:00082ac0       ?unset_flag@?$output_processor@DV?$stream_output_adapter@D@__crt_stdio_output@@V?$format_validation_base@DV?$stream_output_adapter@D@__crt_stdio_output@@@2@@__crt_stdio_output@@AEAAXI@Z 0000000180083ac0 f i libucrtd:output.obj
 0001:00082af0       ?unset_flag@?$output_processor@DV?$stream_output_adapter@D@__crt_stdio_output@@V?$positional_parameter_base@DV?$stream_output_adapter@D@__crt_stdio_output@@@2@@__crt_stdio_output@@AEAAXI@Z 0000000180083af0 f i libucrtd:output.obj
 0001:00082b20       ?unset_flag@?$output_processor@DV?$stream_output_adapter@D@__crt_stdio_output@@V?$standard_base@DV?$stream_output_adapter@D@__crt_stdio_output@@@2@@__crt_stdio_output@@AEAAXI@Z 0000000180083b20 f i libucrtd:output.obj
 0001:00082b50       ?unset_flag@?$output_processor@DV?$string_output_adapter@D@__crt_stdio_output@@V?$format_validation_base@DV?$string_output_adapter@D@__crt_stdio_output@@@2@@__crt_stdio_output@@AEAAXI@Z 0000000180083b50 f i libucrtd:output.obj
 0001:00082b80       ?unset_flag@?$output_processor@DV?$string_output_adapter@D@__crt_stdio_output@@V?$positional_parameter_base@DV?$string_output_adapter@D@__crt_stdio_output@@@2@@__crt_stdio_output@@AEAAXI@Z 0000000180083b80 f i libucrtd:output.obj
 0001:00082bb0       ?unset_flag@?$output_processor@DV?$string_output_adapter@D@__crt_stdio_output@@V?$standard_base@DV?$string_output_adapter@D@__crt_stdio_output@@@2@@__crt_stdio_output@@AEAAXI@Z 0000000180083bb0 f i libucrtd:output.obj
 0001:00082be0       ?unset_flag@?$output_processor@_WV?$stream_output_adapter@_W@__crt_stdio_output@@V?$format_validation_base@_WV?$stream_output_adapter@_W@__crt_stdio_output@@@2@@__crt_stdio_output@@AEAAXI@Z 0000000180083be0 f i libucrtd:output.obj
 0001:00082c10       ?unset_flag@?$output_processor@_WV?$stream_output_adapter@_W@__crt_stdio_output@@V?$positional_parameter_base@_WV?$stream_output_adapter@_W@__crt_stdio_output@@@2@@__crt_stdio_output@@AEAAXI@Z 0000000180083c10 f i libucrtd:output.obj
 0001:00082c40       ?unset_flag@?$output_processor@_WV?$stream_output_adapter@_W@__crt_stdio_output@@V?$standard_base@_WV?$stream_output_adapter@_W@__crt_stdio_output@@@2@@__crt_stdio_output@@AEAAXI@Z 0000000180083c40 f i libucrtd:output.obj
 0001:00082c70       ?unset_flag@?$output_processor@_WV?$string_output_adapter@_W@__crt_stdio_output@@V?$format_validation_base@_WV?$string_output_adapter@_W@__crt_stdio_output@@@2@@__crt_stdio_output@@AEAAXI@Z 0000000180083c70 f i libucrtd:output.obj
 0001:00082ca0       ?unset_flag@?$output_processor@_WV?$string_output_adapter@_W@__crt_stdio_output@@V?$positional_parameter_base@_WV?$string_output_adapter@_W@__crt_stdio_output@@@2@@__crt_stdio_output@@AEAAXI@Z 0000000180083ca0 f i libucrtd:output.obj
 0001:00082cd0       ?unset_flag@?$output_processor@_WV?$string_output_adapter@_W@__crt_stdio_output@@V?$standard_base@_WV?$string_output_adapter@_W@__crt_stdio_output@@@2@@__crt_stdio_output@@AEAAXI@Z 0000000180083cd0 f i libucrtd:output.obj
 0001:00082d00       ?update_field_width@?$positional_parameter_base@DV?$stream_output_adapter@D@__crt_stdio_output@@@__crt_stdio_output@@IEAA_NXZ 0000000180083d00 f i libucrtd:output.obj
 0001:00082ef0       ?update_field_width@?$positional_parameter_base@DV?$string_output_adapter@D@__crt_stdio_output@@@__crt_stdio_output@@IEAA_NXZ 0000000180083ef0 f i libucrtd:output.obj
 0001:000830e0       ?update_field_width@?$positional_parameter_base@_WV?$stream_output_adapter@_W@__crt_stdio_output@@@__crt_stdio_output@@IEAA_NXZ 00000001800840e0 f i libucrtd:output.obj
 0001:000832d0       ?update_field_width@?$positional_parameter_base@_WV?$string_output_adapter@_W@__crt_stdio_output@@@__crt_stdio_output@@IEAA_NXZ 00000001800842d0 f i libucrtd:output.obj
 0001:000834c0       ?update_field_width@?$standard_base@DV?$stream_output_adapter@D@__crt_stdio_output@@@__crt_stdio_output@@IEAA_NXZ 00000001800844c0 f i libucrtd:output.obj
 0001:000834f0       ?update_field_width@?$standard_base@DV?$string_output_adapter@D@__crt_stdio_output@@@__crt_stdio_output@@IEAA_NXZ 00000001800844f0 f i libucrtd:output.obj
 0001:00083520       ?update_field_width@?$standard_base@_WV?$stream_output_adapter@_W@__crt_stdio_output@@@__crt_stdio_output@@IEAA_NXZ 0000000180084520 f i libucrtd:output.obj
 0001:00083550       ?update_field_width@?$standard_base@_WV?$string_output_adapter@_W@__crt_stdio_output@@@__crt_stdio_output@@IEAA_NXZ 0000000180084550 f i libucrtd:output.obj
 0001:00083580       ?update_precision@?$positional_parameter_base@DV?$stream_output_adapter@D@__crt_stdio_output@@@__crt_stdio_output@@IEAA_NXZ 0000000180084580 f i libucrtd:output.obj
 0001:00083770       ?update_precision@?$positional_parameter_base@DV?$string_output_adapter@D@__crt_stdio_output@@@__crt_stdio_output@@IEAA_NXZ 0000000180084770 f i libucrtd:output.obj
 0001:00083960       ?update_precision@?$positional_parameter_base@_WV?$stream_output_adapter@_W@__crt_stdio_output@@@__crt_stdio_output@@IEAA_NXZ 0000000180084960 f i libucrtd:output.obj
 0001:00083b50       ?update_precision@?$positional_parameter_base@_WV?$string_output_adapter@_W@__crt_stdio_output@@@__crt_stdio_output@@IEAA_NXZ 0000000180084b50 f i libucrtd:output.obj
 0001:00083d40       ?update_precision@?$standard_base@DV?$stream_output_adapter@D@__crt_stdio_output@@@__crt_stdio_output@@IEAA_NXZ 0000000180084d40 f i libucrtd:output.obj
 0001:00083d70       ?update_precision@?$standard_base@DV?$string_output_adapter@D@__crt_stdio_output@@@__crt_stdio_output@@IEAA_NXZ 0000000180084d70 f i libucrtd:output.obj
 0001:00083da0       ?update_precision@?$standard_base@_WV?$stream_output_adapter@_W@__crt_stdio_output@@@__crt_stdio_output@@IEAA_NXZ 0000000180084da0 f i libucrtd:output.obj
 0001:00083dd0       ?update_precision@?$standard_base@_WV?$string_output_adapter@_W@__crt_stdio_output@@@__crt_stdio_output@@IEAA_NXZ 0000000180084dd0 f i libucrtd:output.obj
 0001:00083e00       ?valid@__crt_stdio_stream@@QEBA_NXZ 0000000180084e00 f i libucrtd:output.obj
 0001:00083e30       ?validate@?$stream_output_adapter@D@__crt_stdio_output@@QEBA_NXZ 0000000180084e30 f i libucrtd:output.obj
 0001:00083f10       ?validate@?$stream_output_adapter@_W@__crt_stdio_output@@QEBA_NXZ 0000000180084f10 f i libucrtd:output.obj
 0001:00083ff0       ?validate@?$string_output_adapter@D@__crt_stdio_output@@QEBA_NXZ 0000000180084ff0 f i libucrtd:output.obj
 0001:000840b0       ?validate@?$string_output_adapter@_W@__crt_stdio_output@@QEBA_NXZ 00000001800850b0 f i libucrtd:output.obj
 0001:00084170       ?validate_and_store_parameter_data@?$positional_parameter_base@DV?$stream_output_adapter@D@__crt_stdio_output@@@__crt_stdio_output@@AEAA_NAEAUparameter_data@12@W4parameter_type@12@DW4length_modifier@2@@Z 0000000180085170 f i libucrtd:output.obj
 0001:00084290       ?validate_and_store_parameter_data@?$positional_parameter_base@DV?$string_output_adapter@D@__crt_stdio_output@@@__crt_stdio_output@@AEAA_NAEAUparameter_data@12@W4parameter_type@12@DW4length_modifier@2@@Z 0000000180085290 f i libucrtd:output.obj
 0001:000843b0       ?validate_and_store_parameter_data@?$positional_parameter_base@_WV?$stream_output_adapter@_W@__crt_stdio_output@@@__crt_stdio_output@@AEAA_NAEAUparameter_data@12@W4parameter_type@12@_WW4length_modifier@2@@Z 00000001800853b0 f i libucrtd:output.obj
 0001:000844d0       ?validate_and_store_parameter_data@?$positional_parameter_base@_WV?$string_output_adapter@_W@__crt_stdio_output@@@__crt_stdio_output@@AEAA_NAEAUparameter_data@12@W4parameter_type@12@_WW4length_modifier@2@@Z 00000001800854d0 f i libucrtd:output.obj
 0001:000845f0       ?validate_and_update_state_at_beginning_of_format_character@?$positional_parameter_base@DV?$stream_output_adapter@D@__crt_stdio_output@@@__crt_stdio_output@@IEAA_NXZ 00000001800855f0 f i libucrtd:output.obj
 0001:000848d0       ?validate_and_update_state_at_beginning_of_format_character@?$positional_parameter_base@DV?$string_output_adapter@D@__crt_stdio_output@@@__crt_stdio_output@@IEAA_NXZ 00000001800858d0 f i libucrtd:output.obj
 0001:00084bb0       ?validate_and_update_state_at_beginning_of_format_character@?$positional_parameter_base@_WV?$stream_output_adapter@_W@__crt_stdio_output@@@__crt_stdio_output@@IEAA_NXZ 0000000180085bb0 f i libucrtd:output.obj
 0001:00084e90       ?validate_and_update_state_at_beginning_of_format_character@?$positional_parameter_base@_WV?$string_output_adapter@_W@__crt_stdio_output@@@__crt_stdio_output@@IEAA_NXZ 0000000180085e90 f i libucrtd:output.obj
 0001:00085170       ?validate_and_update_state_at_beginning_of_format_character@?$standard_base@DV?$stream_output_adapter@D@__crt_stdio_output@@@__crt_stdio_output@@IEAA_NXZ 0000000180086170 f i libucrtd:output.obj
 0001:00085180       ?validate_and_update_state_at_beginning_of_format_character@?$standard_base@DV?$string_output_adapter@D@__crt_stdio_output@@@__crt_stdio_output@@IEAA_NXZ 0000000180086180 f i libucrtd:output.obj
 0001:00085190       ?validate_and_update_state_at_beginning_of_format_character@?$standard_base@_WV?$stream_output_adapter@_W@__crt_stdio_output@@@__crt_stdio_output@@IEAA_NXZ 0000000180086190 f i libucrtd:output.obj
 0001:000851a0       ?validate_and_update_state_at_beginning_of_format_character@?$standard_base@_WV?$string_output_adapter@_W@__crt_stdio_output@@@__crt_stdio_output@@IEAA_NXZ 00000001800861a0 f i libucrtd:output.obj
 0001:000851b0       ?validate_and_update_state_at_end_of_format_string@?$format_validation_base@DV?$stream_output_adapter@D@__crt_stdio_output@@@__crt_stdio_output@@IEBA_NXZ 00000001800861b0 f i libucrtd:output.obj
 0001:00085270       ?validate_and_update_state_at_end_of_format_string@?$format_validation_base@DV?$string_output_adapter@D@__crt_stdio_output@@@__crt_stdio_output@@IEBA_NXZ 0000000180086270 f i libucrtd:output.obj
 0001:00085330       ?validate_and_update_state_at_end_of_format_string@?$format_validation_base@_WV?$stream_output_adapter@_W@__crt_stdio_output@@@__crt_stdio_output@@IEBA_NXZ 0000000180086330 f i libucrtd:output.obj
 0001:000853f0       ?validate_and_update_state_at_end_of_format_string@?$format_validation_base@_WV?$string_output_adapter@_W@__crt_stdio_output@@@__crt_stdio_output@@IEBA_NXZ 00000001800863f0 f i libucrtd:output.obj
 0001:000854b0       ?validate_and_update_state_at_end_of_format_string@?$positional_parameter_base@DV?$stream_output_adapter@D@__crt_stdio_output@@@__crt_stdio_output@@IEAA_NXZ 00000001800864b0 f i libucrtd:output.obj
 0001:000856a0       ?validate_and_update_state_at_end_of_format_string@?$positional_parameter_base@DV?$string_output_adapter@D@__crt_stdio_output@@@__crt_stdio_output@@IEAA_NXZ 00000001800866a0 f i libucrtd:output.obj
 0001:00085890       ?validate_and_update_state_at_end_of_format_string@?$positional_parameter_base@_WV?$stream_output_adapter@_W@__crt_stdio_output@@@__crt_stdio_output@@IEAA_NXZ 0000000180086890 f i libucrtd:output.obj
 0001:00085a80       ?validate_and_update_state_at_end_of_format_string@?$positional_parameter_base@_WV?$string_output_adapter@_W@__crt_stdio_output@@@__crt_stdio_output@@IEAA_NXZ 0000000180086a80 f i libucrtd:output.obj
 0001:00085c70       ?validate_and_update_state_at_end_of_format_string@?$standard_base@DV?$stream_output_adapter@D@__crt_stdio_output@@@__crt_stdio_output@@IEBA_NXZ 0000000180086c70 f i libucrtd:output.obj
 0001:00085c80       ?validate_and_update_state_at_end_of_format_string@?$standard_base@DV?$string_output_adapter@D@__crt_stdio_output@@@__crt_stdio_output@@IEBA_NXZ 0000000180086c80 f i libucrtd:output.obj
 0001:00085c90       ?validate_and_update_state_at_end_of_format_string@?$standard_base@_WV?$stream_output_adapter@_W@__crt_stdio_output@@@__crt_stdio_output@@IEBA_NXZ 0000000180086c90 f i libucrtd:output.obj
 0001:00085ca0       ?validate_and_update_state_at_end_of_format_string@?$standard_base@_WV?$string_output_adapter@_W@__crt_stdio_output@@@__crt_stdio_output@@IEBA_NXZ 0000000180086ca0 f i libucrtd:output.obj
 0001:00085cb0       ?validate_state_for_type_case_a@?$positional_parameter_base@DV?$stream_output_adapter@D@__crt_stdio_output@@@__crt_stdio_output@@IEAA_NXZ 0000000180086cb0 f i libucrtd:output.obj
 0001:00085df0       ?validate_state_for_type_case_a@?$positional_parameter_base@DV?$string_output_adapter@D@__crt_stdio_output@@@__crt_stdio_output@@IEAA_NXZ 0000000180086df0 f i libucrtd:output.obj
 0001:00085f30       ?validate_state_for_type_case_a@?$positional_parameter_base@_WV?$stream_output_adapter@_W@__crt_stdio_output@@@__crt_stdio_output@@IEAA_NXZ 0000000180086f30 f i libucrtd:output.obj
 0001:00086070       ?validate_state_for_type_case_a@?$positional_parameter_base@_WV?$string_output_adapter@_W@__crt_stdio_output@@@__crt_stdio_output@@IEAA_NXZ 0000000180087070 f i libucrtd:output.obj
 0001:000861b0       ?validate_state_for_type_case_a@?$standard_base@DV?$stream_output_adapter@D@__crt_stdio_output@@@__crt_stdio_output@@IEBA_NXZ 00000001800871b0 f i libucrtd:output.obj
 0001:000861c0       ?validate_state_for_type_case_a@?$standard_base@DV?$string_output_adapter@D@__crt_stdio_output@@@__crt_stdio_output@@IEBA_NXZ 00000001800871c0 f i libucrtd:output.obj
 0001:000861d0       ?validate_state_for_type_case_a@?$standard_base@_WV?$stream_output_adapter@_W@__crt_stdio_output@@@__crt_stdio_output@@IEBA_NXZ 00000001800871d0 f i libucrtd:output.obj
 0001:000861e0       ?validate_state_for_type_case_a@?$standard_base@_WV?$string_output_adapter@_W@__crt_stdio_output@@@__crt_stdio_output@@IEBA_NXZ 00000001800871e0 f i libucrtd:output.obj
 0001:000861f0       ?validate_stream_is_ansi_if_required@?$__acrt_stdio_char_traits@D@@SA_NQEAU_iobuf@@@Z 00000001800871f0 f i libucrtd:output.obj
 0001:00086380       ?validate_stream_is_ansi_if_required@?$__acrt_stdio_char_traits@_W@@SA_NQEAU_iobuf@@@Z 0000000180087380 f i libucrtd:output.obj
 0001:00086390       ?wide_null_string@?$output_processor@DV?$stream_output_adapter@D@__crt_stdio_output@@V?$format_validation_base@DV?$stream_output_adapter@D@__crt_stdio_output@@@2@@__crt_stdio_output@@CAPEA_WXZ 0000000180087390 f i libucrtd:output.obj
 0001:000863a0       ?wide_null_string@?$output_processor@DV?$stream_output_adapter@D@__crt_stdio_output@@V?$positional_parameter_base@DV?$stream_output_adapter@D@__crt_stdio_output@@@2@@__crt_stdio_output@@CAPEA_WXZ 00000001800873a0 f i libucrtd:output.obj
 0001:000863b0       ?wide_null_string@?$output_processor@DV?$stream_output_adapter@D@__crt_stdio_output@@V?$standard_base@DV?$stream_output_adapter@D@__crt_stdio_output@@@2@@__crt_stdio_output@@CAPEA_WXZ 00000001800873b0 f i libucrtd:output.obj
 0001:000863c0       ?wide_null_string@?$output_processor@DV?$string_output_adapter@D@__crt_stdio_output@@V?$format_validation_base@DV?$string_output_adapter@D@__crt_stdio_output@@@2@@__crt_stdio_output@@CAPEA_WXZ 00000001800873c0 f i libucrtd:output.obj
 0001:000863d0       ?wide_null_string@?$output_processor@DV?$string_output_adapter@D@__crt_stdio_output@@V?$positional_parameter_base@DV?$string_output_adapter@D@__crt_stdio_output@@@2@@__crt_stdio_output@@CAPEA_WXZ 00000001800873d0 f i libucrtd:output.obj
 0001:000863e0       ?wide_null_string@?$output_processor@DV?$string_output_adapter@D@__crt_stdio_output@@V?$standard_base@DV?$string_output_adapter@D@__crt_stdio_output@@@2@@__crt_stdio_output@@CAPEA_WXZ 00000001800873e0 f i libucrtd:output.obj
 0001:000863f0       ?wide_null_string@?$output_processor@_WV?$stream_output_adapter@_W@__crt_stdio_output@@V?$format_validation_base@_WV?$stream_output_adapter@_W@__crt_stdio_output@@@2@@__crt_stdio_output@@CAPEA_WXZ 00000001800873f0 f i libucrtd:output.obj
 0001:00086400       ?wide_null_string@?$output_processor@_WV?$stream_output_adapter@_W@__crt_stdio_output@@V?$positional_parameter_base@_WV?$stream_output_adapter@_W@__crt_stdio_output@@@2@@__crt_stdio_output@@CAPEA_WXZ 0000000180087400 f i libucrtd:output.obj
 0001:00086410       ?wide_null_string@?$output_processor@_WV?$stream_output_adapter@_W@__crt_stdio_output@@V?$standard_base@_WV?$stream_output_adapter@_W@__crt_stdio_output@@@2@@__crt_stdio_output@@CAPEA_WXZ 0000000180087410 f i libucrtd:output.obj
 0001:00086420       ?wide_null_string@?$output_processor@_WV?$string_output_adapter@_W@__crt_stdio_output@@V?$format_validation_base@_WV?$string_output_adapter@_W@__crt_stdio_output@@@2@@__crt_stdio_output@@CAPEA_WXZ 0000000180087420 f i libucrtd:output.obj
 0001:00086430       ?wide_null_string@?$output_processor@_WV?$string_output_adapter@_W@__crt_stdio_output@@V?$positional_parameter_base@_WV?$string_output_adapter@_W@__crt_stdio_output@@@2@@__crt_stdio_output@@CAPEA_WXZ 0000000180087430 f i libucrtd:output.obj
 0001:00086440       ?wide_null_string@?$output_processor@_WV?$string_output_adapter@_W@__crt_stdio_output@@V?$standard_base@_WV?$string_output_adapter@_W@__crt_stdio_output@@@2@@__crt_stdio_output@@CAPEA_WXZ 0000000180087440 f i libucrtd:output.obj
 0001:00086450       ?write_character@?$output_adapter_common@DV?$stream_output_adapter@D@__crt_stdio_output@@@__crt_stdio_output@@QEBAXDQEAH@Z 0000000180087450 f i libucrtd:output.obj
 0001:000864a0       ?write_character@?$output_adapter_common@_WV?$stream_output_adapter@_W@__crt_stdio_output@@@__crt_stdio_output@@QEBAX_WQEAH@Z 00000001800874a0 f i libucrtd:output.obj
 0001:000864f0       ?write_character@?$string_output_adapter@D@__crt_stdio_output@@QEBA_NDQEAH@Z 00000001800874f0 f i libucrtd:output.obj
 0001:000865b0       ?write_character@?$string_output_adapter@_W@__crt_stdio_output@@QEBA_N_WQEAH@Z 00000001800875b0 f i libucrtd:output.obj
 0001:00086670       ?write_character_without_count_update@?$stream_output_adapter@D@__crt_stdio_output@@QEBA_ND@Z 0000000180087670 f i libucrtd:output.obj
 0001:000866f0       ?write_character_without_count_update@?$stream_output_adapter@_W@__crt_stdio_output@@QEBA_N_W@Z 00000001800876f0 f i libucrtd:output.obj
 0001:00086780       ?write_stored_string_tchar@?$output_processor@DV?$stream_output_adapter@D@__crt_stdio_output@@V?$format_validation_base@DV?$stream_output_adapter@D@__crt_stdio_output@@@2@@__crt_stdio_output@@AEAA_ND@Z 0000000180087780 f i libucrtd:output.obj
 0001:00086930       ?write_stored_string_tchar@?$output_processor@DV?$stream_output_adapter@D@__crt_stdio_output@@V?$positional_parameter_base@DV?$stream_output_adapter@D@__crt_stdio_output@@@2@@__crt_stdio_output@@AEAA_ND@Z 0000000180087930 f i libucrtd:output.obj
 0001:00086ae0       ?write_stored_string_tchar@?$output_processor@DV?$stream_output_adapter@D@__crt_stdio_output@@V?$standard_base@DV?$stream_output_adapter@D@__crt_stdio_output@@@2@@__crt_stdio_output@@AEAA_ND@Z 0000000180087ae0 f i libucrtd:output.obj
 0001:00086c90       ?write_stored_string_tchar@?$output_processor@DV?$string_output_adapter@D@__crt_stdio_output@@V?$format_validation_base@DV?$string_output_adapter@D@__crt_stdio_output@@@2@@__crt_stdio_output@@AEAA_ND@Z 0000000180087c90 f i libucrtd:output.obj
 0001:00086e40       ?write_stored_string_tchar@?$output_processor@DV?$string_output_adapter@D@__crt_stdio_output@@V?$positional_parameter_base@DV?$string_output_adapter@D@__crt_stdio_output@@@2@@__crt_stdio_output@@AEAA_ND@Z 0000000180087e40 f i libucrtd:output.obj
 0001:00086ff0       ?write_stored_string_tchar@?$output_processor@DV?$string_output_adapter@D@__crt_stdio_output@@V?$standard_base@DV?$string_output_adapter@D@__crt_stdio_output@@@2@@__crt_stdio_output@@AEAA_ND@Z 0000000180087ff0 f i libucrtd:output.obj
 0001:000871a0       ?write_stored_string_tchar@?$output_processor@_WV?$stream_output_adapter@_W@__crt_stdio_output@@V?$format_validation_base@_WV?$stream_output_adapter@_W@__crt_stdio_output@@@2@@__crt_stdio_output@@AEAA_N_W@Z 00000001800881a0 f i libucrtd:output.obj
 0001:000872f0       ?write_stored_string_tchar@?$output_processor@_WV?$stream_output_adapter@_W@__crt_stdio_output@@V?$positional_parameter_base@_WV?$stream_output_adapter@_W@__crt_stdio_output@@@2@@__crt_stdio_output@@AEAA_N_W@Z 00000001800882f0 f i libucrtd:output.obj
 0001:00087440       ?write_stored_string_tchar@?$output_processor@_WV?$stream_output_adapter@_W@__crt_stdio_output@@V?$standard_base@_WV?$stream_output_adapter@_W@__crt_stdio_output@@@2@@__crt_stdio_output@@AEAA_N_W@Z 0000000180088440 f i libucrtd:output.obj
 0001:00087590       ?write_stored_string_tchar@?$output_processor@_WV?$string_output_adapter@_W@__crt_stdio_output@@V?$format_validation_base@_WV?$string_output_adapter@_W@__crt_stdio_output@@@2@@__crt_stdio_output@@AEAA_N_W@Z 0000000180088590 f i libucrtd:output.obj
 0001:000876e0       ?write_stored_string_tchar@?$output_processor@_WV?$string_output_adapter@_W@__crt_stdio_output@@V?$positional_parameter_base@_WV?$string_output_adapter@_W@__crt_stdio_output@@@2@@__crt_stdio_output@@AEAA_N_W@Z 00000001800886e0 f i libucrtd:output.obj
 0001:00087830       ?write_stored_string_tchar@?$output_processor@_WV?$string_output_adapter@_W@__crt_stdio_output@@V?$standard_base@_WV?$string_output_adapter@_W@__crt_stdio_output@@@2@@__crt_stdio_output@@AEAA_N_W@Z 0000000180088830 f i libucrtd:output.obj
 0001:00087980       ?write_string@?$stream_output_adapter@D@__crt_stdio_output@@QEBAXQEBDHQEAHAEAV__crt_deferred_errno_cache@@@Z 0000000180088980 f i libucrtd:output.obj
 0001:00087a00       ?write_string@?$stream_output_adapter@_W@__crt_stdio_output@@QEBAXQEB_WHQEAHAEAV__crt_deferred_errno_cache@@@Z 0000000180088a00 f i libucrtd:output.obj
 0001:00087a80       ?write_string@?$string_output_adapter@D@__crt_stdio_output@@QEBAXQEBDHQEAHAEAV__crt_deferred_errno_cache@@@Z 0000000180088a80 f i libucrtd:output.obj
 0001:00087bf0       ?write_string@?$string_output_adapter@_W@__crt_stdio_output@@QEBAXQEB_WHQEAHAEAV__crt_deferred_errno_cache@@@Z 0000000180088bf0 f i libucrtd:output.obj
 0001:00087d60       ?write_string_impl@?$output_adapter_common@DV?$stream_output_adapter@D@__crt_stdio_output@@@__crt_stdio_output@@IEBAXQEBDHQEAHAEAV__crt_deferred_errno_cache@@@Z 0000000180088d60 f i libucrtd:output.obj
 0001:00087e40       ?write_string_impl@?$output_adapter_common@_WV?$stream_output_adapter@_W@__crt_stdio_output@@@__crt_stdio_output@@IEBAXQEB_WHQEAHAEAV__crt_deferred_errno_cache@@@Z 0000000180088e40 f i libucrtd:output.obj
 0001:00087f20       __acrt_isleadbyte_l_noupdate 0000000180088f20 f i libucrtd:output.obj
 0001:00087f50       __acrt_locale_changed      0000000180088f50 f i libucrtd:output.obj
 0001:00087f80       __acrt_locale_get_ctype_array_value 0000000180088f80 f i libucrtd:output.obj
 0001:00087fc0       __stdio_common_vfprintf    0000000180088fc0 f   libucrtd:output.obj
 0001:00088000       __stdio_common_vfprintf_p  0000000180089000 f   libucrtd:output.obj
 0001:00088040       __stdio_common_vfprintf_s  0000000180089040 f   libucrtd:output.obj
 0001:00088080       __stdio_common_vfwprintf   0000000180089080 f   libucrtd:output.obj
 0001:000880c0       __stdio_common_vfwprintf_p 00000001800890c0 f   libucrtd:output.obj
 0001:00088100       __stdio_common_vfwprintf_s 0000000180089100 f   libucrtd:output.obj
 0001:00088140       __stdio_common_vsnprintf_s 0000000180089140 f   libucrtd:output.obj
 0001:000881a0       __stdio_common_vsnwprintf_s 00000001800891a0 f   libucrtd:output.obj
 0001:00088200       __stdio_common_vsprintf    0000000180089200 f   libucrtd:output.obj
 0001:00088250       __stdio_common_vsprintf_p  0000000180089250 f   libucrtd:output.obj
 0001:000882a0       __stdio_common_vsprintf_s  00000001800892a0 f   libucrtd:output.obj
 0001:000882f0       __stdio_common_vswprintf   00000001800892f0 f   libucrtd:output.obj
 0001:00088340       __stdio_common_vswprintf_p 0000000180089340 f   libucrtd:output.obj
 0001:00088390       __stdio_common_vswprintf_s 0000000180089390 f   libucrtd:output.obj
 0001:000883e0       _ctype_fast_check_internal 00000001800893e0 f i libucrtd:output.obj
 0001:00088410       _isdigit_fast_internal     0000000180089410 f i libucrtd:output.obj
 0001:00088440       _tolower_fast_internal     0000000180089440 f i libucrtd:output.obj
 0001:00088470       free                       0000000180089470 f   libucrtd:free.obj
 0001:000884a0       malloc                     00000001800894a0 f   libucrtd:malloc.obj
 0001:000884d0       ??$?RU?$__crt_report_hook_node@D@@@__crt_internal_free_policy@@QEBAXQEBU?$__crt_report_hook_node@D@@@Z 00000001800894d0 f i libucrtd:dbgrpt.obj
 0001:00088500       ??$?RU?$__crt_report_hook_node@_W@@@__crt_internal_free_policy@@QEBAXQEBU?$__crt_report_hook_node@_W@@@Z 0000000180089500 f i libucrtd:dbgrpt.obj
 0001:00089740       ??$get_module_file_name@AEAPEAUHINSTANCE__@@AEAY0BAF@DK@?$__crt_char_traits@D@@SAKAEAPEAUHINSTANCE__@@AEAY0BAF@D$$QEAK@Z 000000018008a740 f i libucrtd:dbgrpt.obj
 0001:00089780       ??$get_module_file_name@AEAPEAUHINSTANCE__@@AEAY0BAF@_WK@?$__crt_char_traits@_W@@SAKAEAPEAUHINSTANCE__@@AEAY0BAF@_W$$QEAK@Z 000000018008a780 f i libucrtd:dbgrpt.obj
 0001:000897c0       ??$tcscpy_s@AEAY0BAF@D_KPEBD@?$__crt_char_traits@D@@SAHAEAY0BAF@D$$QEA_K$$QEAPEBD@Z 000000018008a7c0 f i libucrtd:dbgrpt.obj
 0001:00089800       ??$tcscpy_s@AEAY0BAF@_W_KPEB_W@?$__crt_char_traits@_W@@SAHAEAY0BAF@_W$$QEA_K$$QEAPEB_W@Z 000000018008a800 f i libucrtd:dbgrpt.obj
 0001:00089840       ??$tcslen@AEAY0BAF@D@?$__crt_char_traits@D@@SA_KAEAY0BAF@D@Z 000000018008a840 f i libucrtd:dbgrpt.obj
 0001:00089860       ??$tcslen@AEAY0BAF@_W@?$__crt_char_traits@_W@@SA_KAEAY0BAF@_W@Z 000000018008a860 f i libucrtd:dbgrpt.obj
 0001:00089880       ??$tcslen@AEBQEBD@?$__crt_char_traits@D@@SA_KAEBQEBD@Z 000000018008a880 f i libucrtd:dbgrpt.obj
 0001:000898a0       ??$tcslen@AEBQEB_W@?$__crt_char_traits@_W@@SA_KAEBQEB_W@Z 000000018008a8a0 f i libucrtd:dbgrpt.obj
 0001:000899a0       ??0?$__crt_unique_heap_ptr@U?$__crt_report_hook_node@D@@U__crt_internal_free_policy@@@@QEAA@QEAU?$__crt_report_hook_node@D@@@Z 000000018008a9a0 f i libucrtd:dbgrpt.obj
 0001:000899c0       ??0?$__crt_unique_heap_ptr@U?$__crt_report_hook_node@_W@@U__crt_internal_free_policy@@@@QEAA@QEAU?$__crt_report_hook_node@_W@@@Z 000000018008a9c0 f i libucrtd:dbgrpt.obj
 0001:000899e0       ??1?$__crt_unique_heap_ptr@U?$__crt_report_hook_node@D@@U__crt_internal_free_policy@@@@QEAA@XZ 000000018008a9e0 f i libucrtd:dbgrpt.obj
 0001:00089a00       ??1?$__crt_unique_heap_ptr@U?$__crt_report_hook_node@_W@@U__crt_internal_free_policy@@@@QEAA@XZ 000000018008aa00 f i libucrtd:dbgrpt.obj
 0001:00089a20       ??B?$__crt_unique_heap_ptr@U?$__crt_report_hook_node@D@@U__crt_internal_free_policy@@@@QEBA_NXZ 000000018008aa20 f i libucrtd:dbgrpt.obj
 0001:00089a40       ??B?$__crt_unique_heap_ptr@U?$__crt_report_hook_node@_W@@U__crt_internal_free_policy@@@@QEBA_NXZ 000000018008aa40 f i libucrtd:dbgrpt.obj
 0001:0008a120       ?detach@?$__crt_unique_heap_ptr@U?$__crt_report_hook_node@D@@U__crt_internal_free_policy@@@@QEAAPEAU?$__crt_report_hook_node@D@@XZ 000000018008b120 f i libucrtd:dbgrpt.obj
 0001:0008a150       ?detach@?$__crt_unique_heap_ptr@U?$__crt_report_hook_node@_W@@U__crt_internal_free_policy@@@@QEAAPEAU?$__crt_report_hook_node@_W@@XZ 000000018008b150 f i libucrtd:dbgrpt.obj
 0001:0008a180       ?get@?$__crt_unique_heap_ptr@U?$__crt_report_hook_node@D@@U__crt_internal_free_policy@@@@QEBAPEAU?$__crt_report_hook_node@D@@XZ 000000018008b180 f i libucrtd:dbgrpt.obj
 0001:0008a190       ?get@?$__crt_unique_heap_ptr@U?$__crt_report_hook_node@_W@@U__crt_internal_free_policy@@@@QEBAPEAU?$__crt_report_hook_node@_W@@XZ 000000018008b190 f i libucrtd:dbgrpt.obj
 0001:0008a200       ?is_valid@?$__crt_unique_heap_ptr@U?$__crt_report_hook_node@D@@U__crt_internal_free_policy@@@@QEBA_NXZ 000000018008b200 f i libucrtd:dbgrpt.obj
 0001:0008a230       ?is_valid@?$__crt_unique_heap_ptr@U?$__crt_report_hook_node@_W@@U__crt_internal_free_policy@@@@QEBA_NXZ 000000018008b230 f i libucrtd:dbgrpt.obj
 0001:0008a260       ?release@?$__crt_unique_heap_ptr@U?$__crt_report_hook_node@D@@U__crt_internal_free_policy@@@@QEAAXXZ 000000018008b260 f i libucrtd:dbgrpt.obj
 0001:0008a290       ?release@?$__crt_unique_heap_ptr@U?$__crt_report_hook_node@_W@@U__crt_internal_free_policy@@@@QEAAXXZ 000000018008b290 f i libucrtd:dbgrpt.obj
 0001:0008a2c0       _CrtDbgReport              000000018008b2c0 f   libucrtd:dbgrpt.obj
 0001:0008a340       _CrtDbgReportW             000000018008b340 f   libucrtd:dbgrpt.obj
 0001:0008a3c0       _CrtSetReportHook2         000000018008b3c0 f   libucrtd:dbgrpt.obj
 0001:0008a3e0       _CrtSetReportHookW2        000000018008b3e0 f   libucrtd:dbgrpt.obj
 0001:0008a400       __acrt_MessageWindowA      000000018008b400 f   libucrtd:dbgrpt.obj
 0001:0008a450       __acrt_MessageWindowW      000000018008b450 f   libucrtd:dbgrpt.obj
 0001:0008a4a0       _invoke_watson_if_error    000000018008b4a0 f i libucrtd:dbgrpt.obj
 0001:0008a4f0       _invoke_watson_if_oneof    000000018008b4f0 f i libucrtd:dbgrpt.obj
 0001:0008a550       _snwprintf_s               000000018008b550 f i libucrtd:dbgrpt.obj
 0001:0008a5c0       _vsnwprintf_s_l            000000018008b5c0 f i libucrtd:dbgrpt.obj
 0001:0008ab20       wcscpy_s                   000000018008bb20 f   libucrtd:wcscpy_s.obj
 0001:0008beb0       ??1?$__crt_simd_cleanup_guard@$00@@QEAA@XZ 000000018008ceb0 f i libucrtd:strnlen.obj
 0001:0008bec0       ??1?$__crt_simd_cleanup_guard@$0A@@@QEAA@XZ 000000018008cec0 f i libucrtd:strnlen.obj
 0001:0008bed0       ?compare_equals@?$__crt_simd_traits@$00E@@SA?AT__m256i@@T2@0@Z 000000018008ced0 f i libucrtd:strnlen.obj
 0001:0008bf10       ?compare_equals@?$__crt_simd_traits@$00G@@SA?AT__m256i@@T2@0@Z 000000018008cf10 f i libucrtd:strnlen.obj
 0001:0008bf50       ?compare_equals@?$__crt_simd_traits@$0A@E@@SA?AT__m128i@@T2@0@Z 000000018008cf50 f i libucrtd:strnlen.obj
 0001:0008bf80       ?compare_equals@?$__crt_simd_traits@$0A@G@@SA?AT__m128i@@T2@0@Z 000000018008cf80 f i libucrtd:strnlen.obj
 0001:0008bfb0       ?compute_byte_mask@?$__crt_simd_pack_traits@$00@@SAHT__m256i@@@Z 000000018008cfb0 f i libucrtd:strnlen.obj
 0001:0008bfd0       ?compute_byte_mask@?$__crt_simd_pack_traits@$0A@@@SAHT__m128i@@@Z 000000018008cfd0 f i libucrtd:strnlen.obj
 0001:0008bff0       ?get_zero_pack@?$__crt_simd_pack_traits@$00@@SA?AT__m256i@@XZ 000000018008cff0 f i libucrtd:strnlen.obj
 0001:0008c020       ?get_zero_pack@?$__crt_simd_pack_traits@$0A@@@SA?AT__m128i@@XZ 000000018008d020 f i libucrtd:strnlen.obj
 0001:0008c040       strnlen                    000000018008d040 f   libucrtd:strnlen.obj
 0001:0008c070       wcslen                     000000018008d070 f   libucrtd:strnlen.obj
 0001:0008c090       wcsnlen                    000000018008d090 f   libucrtd:strnlen.obj
 0001:0008c0c0       ??$__crt_fast_decode_pointer@P6AXPEB_W00I_K@Z@@YAP6AXPEB_W00I_K@ZQ6AX000I1@Z@Z 000000018008d0c0 f i libucrtd:invalid_parameter.obj
 0001:0008c100       ??$__crt_fast_encode_pointer@P6AXPEB_W00I_K@Z@@YAP6AXPEB_W00I_K@ZQ6AX000I1@Z@Z 000000018008d100 f i libucrtd:invalid_parameter.obj
 0001:0008c140       ??$initialize_from_array@$$BY00Q6AXPEB_W00I_K@Z@?$dual_state_global@P6AXPEB_W00I_K@Z@__crt_state_management@@QEAAXAEAY00Q6AXPEB_W00I_K@Z@Z 000000018008d140 f i libucrtd:invalid_parameter.obj
 0001:0008c1a0       ?__crt_rotate_pointer_value@@YA_K_KH@Z 000000018008d1a0 f i libucrtd:invalid_parameter.obj
 0001:0008c260       ?dangerous_get_state_array@?$dual_state_global@P6AXPEB_W00I_K@Z@__crt_state_management@@QEAAPEAP6AXPEB_W00I_K@ZXZ 000000018008d260 f i libucrtd:invalid_parameter.obj
 0001:0008c270       ?get_current_state_index@__crt_state_management@@YA_KXZ 000000018008d270 f i libucrtd:invalid_parameter.obj
 0001:0008c280       ?value@?$dual_state_global@P6AXPEB_W00I_K@Z@__crt_state_management@@QEAAAEAP6AXPEB_W00I_K@ZXZ 000000018008d280 f i libucrtd:invalid_parameter.obj
 0001:0008c2a0       __acrt_call_reportfault    000000018008d2a0 f   libucrtd:invalid_parameter.obj
 0001:0008c3d0       __acrt_initialize_invalid_parameter_handler 000000018008d3d0 f   libucrtd:invalid_parameter.obj
 0001:0008c400       _get_invalid_parameter_handler 000000018008d400 f   libucrtd:invalid_parameter.obj
 0001:0008c420       _get_thread_local_invalid_parameter_handler 000000018008d420 f   libucrtd:invalid_parameter.obj
 0001:0008c450       _invalid_parameter         000000018008d450 f   libucrtd:invalid_parameter.obj
 0001:0008c550       _invalid_parameter_noinfo  000000018008d550 f   libucrtd:invalid_parameter.obj
 0001:0008c580       _invalid_parameter_noinfo_noreturn 000000018008d580 f   libucrtd:invalid_parameter.obj
 0001:0008c5c0       _invoke_watson             000000018008d5c0 f   libucrtd:invalid_parameter.obj
 0001:0008c620       _set_invalid_parameter_handler 000000018008d620 f   libucrtd:invalid_parameter.obj
 0001:0008c670       _set_thread_local_invalid_parameter_handler 000000018008d670 f   libucrtd:invalid_parameter.obj
 0001:0008c6b0       __acrt_errno_from_os_error 000000018008d6b0 f   libucrtd:errno.obj
 0001:0008c740       __acrt_errno_map_os_error  000000018008d740 f   libucrtd:errno.obj
 0001:0008c770       __doserrno                 000000018008d770 f   libucrtd:errno.obj
 0001:0008c7a0       _errno                     000000018008d7a0 f   libucrtd:errno.obj
 0001:0008c7d0       _get_doserrno              000000018008d7d0 f   libucrtd:errno.obj
 0001:0008c890       _get_errno                 000000018008d890 f   libucrtd:errno.obj
 0001:0008c950       _set_doserrno              000000018008d950 f   libucrtd:errno.obj
 0001:0008c990       _set_errno                 000000018008d990 f   libucrtd:errno.obj
 0001:0008c9d0       calloc                     000000018008d9d0 f   libucrtd:calloc.obj
 0001:0008ca10       _recalloc                  000000018008da10 f   libucrtd:recalloc.obj
 0001:0008ca60       _recalloc_base             000000018008da60 f   libucrtd:recalloc.obj
 0001:0008cb3c       _resetstkoflw              000000018008db3c f   libucrtd:resetstk.obj
 0001:0008d2f0       wcscat_s                   000000018008e2f0 f   libucrtd:wcscat_s.obj
 0001:0008d9c0       wcsncpy_s                  000000018008e9c0 f   libucrtd:wcsncpy_s.obj
 0001:0008da20       __acrt_get_locale_data_prefix 000000018008ea20 f i libucrtd:_ctype.obj
 0001:0008da40       __isascii                  000000018008ea40 f i libucrtd:_ctype.obj
 0001:0008da70       __iscsym                   000000018008ea70 f i libucrtd:_ctype.obj
 0001:0008dab0       __iscsymf                  000000018008eab0 f i libucrtd:_ctype.obj
 0001:0008daf0       __toascii                  000000018008eaf0 f i libucrtd:_ctype.obj
 0001:0008db00       _chvalidchk_l              000000018008eb00 f i libucrtd:_ctype.obj
 0001:0008db30       _isalnum_l                 000000018008eb30 f i libucrtd:_ctype.obj
 0001:0008db80       _isalpha_l                 000000018008eb80 f i libucrtd:_ctype.obj
 0001:0008dbd0       _isblank_l                 000000018008ebd0 f i libucrtd:_ctype.obj
 0001:0008dc40       _ischartype_l              000000018008ec40 f i libucrtd:_ctype.obj
 0001:0008dcd0       _iscntrl_l                 000000018008ecd0 f i libucrtd:_ctype.obj
 0001:0008dd20       _iscsym_l                  000000018008ed20 f i libucrtd:_ctype.obj
 0001:0008dd70       _iscsymf_l                 000000018008ed70 f i libucrtd:_ctype.obj
 0001:0008ddc0       _isdigit_l                 000000018008edc0 f i libucrtd:_ctype.obj
 0001:0008de10       _isgraph_l                 000000018008ee10 f i libucrtd:_ctype.obj
 0001:0008de60       _islower_l                 000000018008ee60 f i libucrtd:_ctype.obj
 0001:0008deb0       _isprint_l                 000000018008eeb0 f i libucrtd:_ctype.obj
 0001:0008df00       _ispunct_l                 000000018008ef00 f i libucrtd:_ctype.obj
 0001:0008df50       _isspace_l                 000000018008ef50 f i libucrtd:_ctype.obj
 0001:0008dfa0       _isupper_l                 000000018008efa0 f i libucrtd:_ctype.obj
 0001:0008dff0       _isxdigit_l                000000018008eff0 f i libucrtd:_ctype.obj
 0001:0008e040       isalnum                    000000018008f040 f i libucrtd:_ctype.obj
 0001:0008e080       isalpha                    000000018008f080 f i libucrtd:_ctype.obj
 0001:0008e0c0       isblank                    000000018008f0c0 f i libucrtd:_ctype.obj
 0001:0008e120       iscntrl                    000000018008f120 f i libucrtd:_ctype.obj
 0001:0008e160       isdigit                    000000018008f160 f i libucrtd:_ctype.obj
 0001:0008e1a0       isgraph                    000000018008f1a0 f i libucrtd:_ctype.obj
 0001:0008e1e0       islower                    000000018008f1e0 f i libucrtd:_ctype.obj
 0001:0008e220       isprint                    000000018008f220 f i libucrtd:_ctype.obj
 0001:0008e260       ispunct                    000000018008f260 f i libucrtd:_ctype.obj
 0001:0008e2a0       isspace                    000000018008f2a0 f i libucrtd:_ctype.obj
 0001:0008e2e0       isupper                    000000018008f2e0 f i libucrtd:_ctype.obj
 0001:0008e320       isxdigit                   000000018008f320 f i libucrtd:_ctype.obj
 0001:0008e360       wcscat                     000000018008f360 f   libucrtd:wcscat.obj
 0001:0008e3e0       wcscpy                     000000018008f3e0 f   libucrtd:wcscpy.obj
 0001:0008eb90       ??$open_file@AEBQEBDAEBQEBDAEBHPEAU_iobuf@@@?$__crt_char_traits@D@@SAPEAU_iobuf@@AEBQEBD0AEBH$$QEAPEAU1@@Z 000000018008fb90 f i libucrtd:fopen.obj
 0001:0008ebe0       ??$open_file@AEBQEB_WAEBQEB_WAEBHPEAU_iobuf@@@?$__crt_char_traits@_W@@SAPEAU_iobuf@@AEBQEB_W0AEBH$$QEAPEAU1@@Z 000000018008fbe0 f i libucrtd:fopen.obj
 0001:0008ec30       ?unlock@__crt_stdio_stream@@QEBAXXZ 000000018008fc30 f i libucrtd:fopen.obj
 0001:0008ec50       _fsopen                    000000018008fc50 f   libucrtd:fopen.obj
 0001:0008ec80       _wfopen                    000000018008fc80 f   libucrtd:fopen.obj
 0001:0008ecb0       _wfopen_s                  000000018008fcb0 f   libucrtd:fopen.obj
 0001:0008ece0       _wfsopen                   000000018008fce0 f   libucrtd:fopen.obj
 0001:0008ed10       fopen                      000000018008fd10 f   libucrtd:fopen.obj
 0001:0008ed40       fopen_s                    000000018008fd40 f   libucrtd:fopen.obj
 0001:0008ed70       ?is_in_use@__crt_stdio_stream@@QEBA_NXZ 000000018008fd70 f i libucrtd:fclose.obj
 0001:0008edb0       _fclose_nolock             000000018008fdb0 f   libucrtd:fclose.obj
 0001:0008ef40       fclose                     000000018008ff40 f   libucrtd:fclose.obj
 0001:0008f080       _fputc_nolock              0000000180090080 f   libucrtd:fputc.obj
 0001:0008f130       _fputchar                  0000000180090130 f   libucrtd:fputc.obj
 0001:0008f160       _putc_nolock               0000000180090160 f   libucrtd:fputc.obj
 0001:0008f180       fputc                      0000000180090180 f   libucrtd:fputc.obj
 0001:0008f420       putc                       0000000180090420 f   libucrtd:fputc.obj
 0001:0008f440       putchar                    0000000180090440 f   libucrtd:fputc.obj
 0001:0008f4d0       _seh_filter_dll            00000001800904d0 f   libucrtd:exception_filter.obj
 0001:0008f500       _seh_filter_exe            0000000180090500 f   libucrtd:exception_filter.obj
 0001:0008f7a0       ??$?B$$A6AXPEAXK0@Z@__crt_fast_encoded_nullptr_t@@QEBAP6AXPEAXK0@ZXZ 00000001800907a0 f i libucrtd:exit.obj
 0001:0008f850       ??$__crt_fast_decode_pointer@P6AXPEAXK0@Z@@YAP6AXPEAXK0@ZQ6AX0K0@Z@Z 0000000180090850 f i libucrtd:exit.obj
 0001:0008f890       ??$__crt_fast_encode_pointer@P6AXPEAXK0@Z@@YAP6AXPEAXK0@ZQ6AX0K0@Z@Z 0000000180090890 f i libucrtd:exit.obj
 0001:0008f8d0       ??$__crt_get_proc_address@P6AXI@Z@@YAP6AXI@ZQEAUHINSTANCE__@@QEBD@Z 00000001800908d0 f i libucrtd:exit.obj
 0001:0008f990       ??0?$__crt_unique_handle_t@U__crt_hmodule_traits@@@@QEAA@QEAUHINSTANCE__@@@Z 0000000180090990 f i libucrtd:exit.obj
 0001:0008f9b0       ??1?$__crt_unique_handle_t@U__crt_hmodule_traits@@@@QEAA@XZ 00000001800909b0 f i libucrtd:exit.obj
 0001:0008fb10       ?__acrt_select_exit_lock@@YA?AW4__acrt_lock_id@@XZ 0000000180090b10 f i libucrtd:exit.obj
 0001:0008fb20       ?__crt_fast_encode_pointer@@YA?AU__crt_fast_encoded_nullptr_t@@$$T@Z 0000000180090b20 f i libucrtd:exit.obj
 0001:0008fb60       ?close@?$__crt_unique_handle_t@U__crt_hmodule_traits@@@@QEAAXXZ 0000000180090b60 f i libucrtd:exit.obj
 0001:0008fba0       ?close@__crt_hmodule_traits@@SA_NPEAUHINSTANCE__@@@Z 0000000180090ba0 f i libucrtd:exit.obj
 0001:0008fcb0       ?get@?$__crt_unique_handle_t@U__crt_hmodule_traits@@@@QEBAPEAUHINSTANCE__@@XZ 0000000180090cb0 f i libucrtd:exit.obj
 0001:0008fcc0       ?get_address_of@?$__crt_unique_handle_t@U__crt_hmodule_traits@@@@QEAAPEAPEAUHINSTANCE__@@XZ 0000000180090cc0 f i libucrtd:exit.obj
 0001:0008fcd0       ?get_invalid_value@__crt_hmodule_traits@@SAPEAUHINSTANCE__@@XZ 0000000180090cd0 f i libucrtd:exit.obj
 0001:0008fe90       _Exit                      0000000180090e90 f   libucrtd:exit.obj
 0001:0008feb0       __acrt_initialize_thread_local_exit_callback 0000000180090eb0 f   libucrtd:exit.obj
 0001:0008fed0       _c_exit                    0000000180090ed0 f   libucrtd:exit.obj
 0001:0008fef0       _cexit                     0000000180090ef0 f   libucrtd:exit.obj
 0001:0008ff10       _exit                      0000000180090f10 f   libucrtd:exit.obj
 0001:0008ff30       _is_c_termination_complete 0000000180090f30 f   libucrtd:exit.obj
 0001:0008ff50       _register_thread_local_exe_atexit_callback 0000000180090f50 f   libucrtd:exit.obj
 0001:0008ffa0       exit                       0000000180090fa0 f   libucrtd:exit.obj
 0001:0008ffc0       quick_exit                 0000000180090fc0 f   libucrtd:exit.obj
 0001:0008ffe0       ??$?RE@__crt_internal_free_policy@@QEBAXQEBE@Z 0000000180090fe0 f i libucrtd:argv_parsing.obj
 0001:00090010       ??$?RPEAD@__crt_internal_free_policy@@QEBAXQEBQEAD@Z 0000000180091010 f i libucrtd:argv_parsing.obj
 0001:00090040       ??$?RPEA_W@__crt_internal_free_policy@@QEBAXQEBQEA_W@Z 0000000180091040 f i libucrtd:argv_parsing.obj
 0001:00090790       ??$get_module_file_name@$$TAEAY0BAF@DH@?$__crt_char_traits@D@@SAK$$QEA$$TAEAY0BAF@D$$QEAH@Z 0000000180091790 f i libucrtd:argv_parsing.obj
 0001:000907d0       ??$get_module_file_name@$$TAEAY0BAF@_WH@?$__crt_char_traits@_W@@SAK$$QEA$$TAEAY0BAF@_W$$QEAH@Z 00000001800917d0 f i libucrtd:argv_parsing.obj
 0001:00091180       ??$set_program_name@PEAD@?$__crt_char_traits@D@@SAX$$QEAPEAD@Z 0000000180092180 f i libucrtd:argv_parsing.obj
 0001:000911a0       ??$set_program_name@PEA_W@?$__crt_char_traits@_W@@SAX$$QEAPEA_W@Z 00000001800921a0 f i libucrtd:argv_parsing.obj
 0001:00091200       ??0?$__crt_unique_heap_ptr@EU__crt_internal_free_policy@@@@QEAA@QEAE@Z 0000000180092200 f i libucrtd:argv_parsing.obj
 0001:00091220       ??0?$__crt_unique_heap_ptr@PEADU__crt_internal_free_policy@@@@QEAA@QEAPEAD@Z 0000000180092220 f i libucrtd:argv_parsing.obj
 0001:00091240       ??0?$__crt_unique_heap_ptr@PEA_WU__crt_internal_free_policy@@@@QEAA@QEAPEA_W@Z 0000000180092240 f i libucrtd:argv_parsing.obj
 0001:00091260       ??1?$__crt_unique_heap_ptr@EU__crt_internal_free_policy@@@@QEAA@XZ 0000000180092260 f i libucrtd:argv_parsing.obj
 0001:00091280       ??1?$__crt_unique_heap_ptr@PEADU__crt_internal_free_policy@@@@QEAA@XZ 0000000180092280 f i libucrtd:argv_parsing.obj
 0001:000912a0       ??1?$__crt_unique_heap_ptr@PEA_WU__crt_internal_free_policy@@@@QEAA@XZ 00000001800922a0 f i libucrtd:argv_parsing.obj
 0001:000912c0       ??B?$__crt_unique_heap_ptr@EU__crt_internal_free_policy@@@@QEBA_NXZ 00000001800922c0 f i libucrtd:argv_parsing.obj
 0001:000913a0       ?detach@?$__crt_unique_heap_ptr@EU__crt_internal_free_policy@@@@QEAAPEAEXZ 00000001800923a0 f i libucrtd:argv_parsing.obj
 0001:000913d0       ?detach@?$__crt_unique_heap_ptr@PEADU__crt_internal_free_policy@@@@QEAAPEAPEADXZ 00000001800923d0 f i libucrtd:argv_parsing.obj
 0001:00091400       ?detach@?$__crt_unique_heap_ptr@PEA_WU__crt_internal_free_policy@@@@QEAAPEAPEA_WXZ 0000000180092400 f i libucrtd:argv_parsing.obj
 0001:000914c0       ?get@?$__crt_unique_heap_ptr@EU__crt_internal_free_policy@@@@QEBAPEAEXZ 00000001800924c0 f i libucrtd:argv_parsing.obj
 0001:000914d0       ?get@?$__crt_unique_heap_ptr@PEADU__crt_internal_free_policy@@@@QEBAPEAPEADXZ 00000001800924d0 f i libucrtd:argv_parsing.obj
 0001:000914e0       ?get@?$__crt_unique_heap_ptr@PEA_WU__crt_internal_free_policy@@@@QEBAPEAPEA_WXZ 00000001800924e0 f i libucrtd:argv_parsing.obj
 0001:000914f0       ?get_address_of@?$__crt_unique_heap_ptr@PEADU__crt_internal_free_policy@@@@QEAAPEAPEAPEADXZ 00000001800924f0 f i libucrtd:argv_parsing.obj
 0001:00091500       ?get_address_of@?$__crt_unique_heap_ptr@PEA_WU__crt_internal_free_policy@@@@QEAAPEAPEAPEA_WXZ 0000000180092500 f i libucrtd:argv_parsing.obj
 0001:00091550       ?is_valid@?$__crt_unique_heap_ptr@EU__crt_internal_free_policy@@@@QEBA_NXZ 0000000180092550 f i libucrtd:argv_parsing.obj
 0001:00091580       ?release@?$__crt_unique_heap_ptr@EU__crt_internal_free_policy@@@@QEAAXXZ 0000000180092580 f i libucrtd:argv_parsing.obj
 0001:000915b0       ?release@?$__crt_unique_heap_ptr@PEADU__crt_internal_free_policy@@@@QEAAXXZ 00000001800925b0 f i libucrtd:argv_parsing.obj
 0001:000915e0       ?release@?$__crt_unique_heap_ptr@PEA_WU__crt_internal_free_policy@@@@QEAAXXZ 00000001800925e0 f i libucrtd:argv_parsing.obj
 0001:00091660       __acrt_allocate_buffer_for_argv 0000000180092660 f   libucrtd:argv_parsing.obj
 0001:00091780       _configure_narrow_argv     0000000180092780 f   libucrtd:argv_parsing.obj
 0001:000917a0       _configure_wide_argv       00000001800927a0 f   libucrtd:argv_parsing.obj
 0001:000917c0       _set_pgmptr                00000001800927c0 f i libucrtd:argv_parsing.obj
 0001:000917e0       _set_wpgmptr               00000001800927e0 f i libucrtd:argv_parsing.obj
 0001:000917f4       ??$?R_W@__crt_internal_free_policy@@QEBAXQEB_W@Z 00000001800927f4 f i libucrtd:environment_initialization.obj
 0001:00091dcc       ??$get_environment_from_os@$$V@?$__crt_char_traits@D@@SAPEADXZ 0000000180092dcc f i libucrtd:environment_initialization.obj
 0001:00091dd4       ??$get_environment_from_os@$$V@?$__crt_char_traits@_W@@SAPEA_WXZ 0000000180092dd4 f i libucrtd:environment_initialization.obj
 0001:00091fa4       ??$set_variable_in_environment_nolock@PEADH@?$__crt_char_traits@D@@SAH$$QEAPEAD$$QEAH@Z 0000000180092fa4 f i libucrtd:environment_initialization.obj
 0001:00091fb0       ??$set_variable_in_environment_nolock@PEA_WH@?$__crt_char_traits@_W@@SAH$$QEAPEA_W$$QEAH@Z 0000000180092fb0 f i libucrtd:environment_initialization.obj
 0001:00091fbc       ??$tcscpy_s@PEADAEB_KAEAPEAD@?$__crt_char_traits@D@@SAH$$QEAPEADAEB_KAEAPEAD@Z 0000000180092fbc f i libucrtd:environment_initialization.obj
 0001:00091fcc       ??$tcscpy_s@PEA_WAEB_KAEAPEA_W@?$__crt_char_traits@_W@@SAH$$QEAPEA_WAEB_KAEAPEA_W@Z 0000000180092fcc f i libucrtd:environment_initialization.obj
 0001:00091fdc       ??$tcslen@AEAPEAD@?$__crt_char_traits@D@@SA_KAEAPEAD@Z 0000000180092fdc f i libucrtd:environment_initialization.obj
 0001:00091ff0       ??$tcslen@AEAPEA_W@?$__crt_char_traits@_W@@SA_KAEAPEA_W@Z 0000000180092ff0 f i libucrtd:environment_initialization.obj
 0001:00092004       ??$uninitialize@A6AXAEAPEAPEAD@Z@?$dual_state_global@PEAPEAD@__crt_state_management@@QEAAXA6AXAEAPEAPEAD@Z@Z 0000000180093004 f i libucrtd:environment_initialization.obj
 0001:00092048       ??$uninitialize@A6AXAEAPEAPEA_W@Z@?$dual_state_global@PEAPEA_W@__crt_state_management@@QEAAXA6AXAEAPEAPEA_W@Z@Z 0000000180093048 f i libucrtd:environment_initialization.obj
 0001:000920c4       ??0?$__crt_unique_heap_ptr@_WU__crt_internal_free_policy@@@@QEAA@QEA_W@Z 00000001800930c4 f i libucrtd:environment_initialization.obj
 0001:000920cc       ??1?$__crt_unique_heap_ptr@_WU__crt_internal_free_policy@@@@QEAA@XZ 00000001800930cc f i libucrtd:environment_initialization.obj
 0001:000920ec       ??B?$__crt_unique_heap_ptr@PEADU__crt_internal_free_policy@@@@QEBA_NXZ 00000001800930ec f i libucrtd:environment_initialization.obj
 0001:000920f4       ??B?$__crt_unique_heap_ptr@PEA_WU__crt_internal_free_policy@@@@QEBA_NXZ 00000001800930f4 f i libucrtd:environment_initialization.obj
 0001:000920fc       ??B?$__crt_unique_heap_ptr@_WU__crt_internal_free_policy@@@@QEBA_NXZ 00000001800930fc f i libucrtd:environment_initialization.obj
 0001:00092104       ?__crt_compute_required_transform_buffer_count@@YA_KIQEBD@Z 0000000180093104 f i libucrtd:environment_initialization.obj
 0001:00092128       ?__crt_compute_required_transform_buffer_count@@YA_KIQEB_W@Z 0000000180093128 f i libucrtd:environment_initialization.obj
 0001:00092158       ?__crt_transform_string@@YA_KIQEBDQEA_W_K@Z 0000000180093158 f i libucrtd:environment_initialization.obj
 0001:0009217c       ?__crt_transform_string@@YA_KIQEB_WQEAD_K@Z 000000018009317c f i libucrtd:environment_initialization.obj
 0001:000921ac       ?detach@?$__crt_unique_heap_ptr@DU__crt_internal_free_policy@@@@QEAAPEADXZ 00000001800931ac f i libucrtd:environment_initialization.obj
 0001:000921b4       ?detach@?$__crt_unique_heap_ptr@_WU__crt_internal_free_policy@@@@QEAAPEA_WXZ 00000001800931b4 f i libucrtd:environment_initialization.obj
 0001:000921bc       ?get@?$__crt_unique_heap_ptr@_WU__crt_internal_free_policy@@@@QEBAPEA_WXZ 00000001800931bc f i libucrtd:environment_initialization.obj
 0001:000921f0       ?initialize@?$dual_state_global@PEAPEAD@__crt_state_management@@QEAAXQEAPEAD@Z 00000001800931f0 f i libucrtd:environment_initialization.obj
 0001:00092218       ?initialize@?$dual_state_global@PEAPEA_W@__crt_state_management@@QEAAXQEAPEA_W@Z 0000000180093218 f i libucrtd:environment_initialization.obj
 0001:00092240       ?is_valid@?$__crt_unique_heap_ptr@PEADU__crt_internal_free_policy@@@@QEBA_NXZ 0000000180093240 f i libucrtd:environment_initialization.obj
 0001:00092248       ?is_valid@?$__crt_unique_heap_ptr@PEA_WU__crt_internal_free_policy@@@@QEBA_NXZ 0000000180093248 f i libucrtd:environment_initialization.obj
 0001:00092250       ?is_valid@?$__crt_unique_heap_ptr@_WU__crt_internal_free_policy@@@@QEBA_NXZ 0000000180093250 f i libucrtd:environment_initialization.obj
 0001:00092264       ?release@?$__crt_unique_heap_ptr@_WU__crt_internal_free_policy@@@@QEAAXXZ 0000000180093264 f i libucrtd:environment_initialization.obj
 0001:00092284       ?value@?$dual_state_global@PEAPEAD@__crt_state_management@@QEAAAEAPEAPEADXZ 0000000180093284 f i libucrtd:environment_initialization.obj
 0001:00092288       ?value@?$dual_state_global@PEAPEA_W@__crt_state_management@@QEAAAEAPEAPEA_WXZ 0000000180093288 f i libucrtd:environment_initialization.obj
 0001:0009228c       __dcrt_get_or_create_narrow_environment_nolock 000000018009328c f   libucrtd:environment_initialization.obj
 0001:000922c8       __dcrt_get_or_create_wide_environment_nolock 00000001800932c8 f   libucrtd:environment_initialization.obj
 0001:00092304       __dcrt_uninitialize_environments_nolock 0000000180093304 f   libucrtd:environment_initialization.obj
 0001:0009233c       __p__environ               000000018009333c f   libucrtd:environment_initialization.obj
 0001:00092344       __p__wenviron              0000000180093344 f   libucrtd:environment_initialization.obj
 0001:0009234c       _get_initial_narrow_environment 000000018009334c f   libucrtd:environment_initialization.obj
 0001:0009239c       _get_initial_wide_environment 000000018009339c f   libucrtd:environment_initialization.obj
 0001:000923ec       _initialize_narrow_environment 00000001800933ec f   libucrtd:environment_initialization.obj
 0001:000923f4       _initialize_wide_environment 00000001800933f4 f   libucrtd:environment_initialization.obj
 0001:00092400       ??$?B$$A6AXXZ@__crt_fast_encoded_nullptr_t@@QEBAP6AXXZXZ 0000000180093400 f i libucrtd:onexit.obj
 0001:00092420       ??$?BP6AXXZ@__crt_fast_encoded_nullptr_t@@QEBAPEAP6AXXZXZ 0000000180093420 f i libucrtd:onexit.obj
 0001:00092440       ??$?RP6AXXZ@__crt_internal_free_policy@@QEBAXQEBQ6AXXZ@Z 0000000180093440 f i libucrtd:onexit.obj
 0001:000925b0       ??$__crt_fast_decode_pointer@P6AXXZ@@YAP6AXXZQ6AXXZ@Z 00000001800935b0 f i libucrtd:onexit.obj
 0001:000925f0       ??$__crt_fast_decode_pointer@PEAP6AXXZ@@YAPEAP6AXXZQEAP6AXXZ@Z 00000001800935f0 f i libucrtd:onexit.obj
 0001:00092630       ??$__crt_fast_encode_pointer@P6AHXZ@@YAP6AHXZQ6AHXZ@Z 0000000180093630 f i libucrtd:onexit.obj
 0001:00092670       ??$__crt_fast_encode_pointer@P6AXXZ@@YAP6AXXZQ6AXXZ@Z 0000000180093670 f i libucrtd:onexit.obj
 0001:000926b0       ??$__crt_fast_encode_pointer@PEAP6AXXZ@@YAPEAP6AXXZQEAP6AXXZ@Z 00000001800936b0 f i libucrtd:onexit.obj
 0001:000927c0       ??0?$__crt_unique_heap_ptr@P6AXXZU__crt_internal_free_policy@@@@QEAA@QEAP6AXXZ@Z 00000001800937c0 f i libucrtd:onexit.obj
 0001:000927e0       ??1?$__crt_unique_heap_ptr@P6AXXZU__crt_internal_free_policy@@@@QEAA@XZ 00000001800937e0 f i libucrtd:onexit.obj
 0001:00092800       ??1scoped_global_state_reset@__crt_state_management@@QEAA@XZ 0000000180093800 f i libucrtd:onexit.obj
 0001:00092dd0       ?detach@?$__crt_unique_heap_ptr@P6AXXZU__crt_internal_free_policy@@@@QEAAPEAP6AXXZXZ 0000000180093dd0 f i libucrtd:onexit.obj
 0001:00092e00       ?release@?$__crt_unique_heap_ptr@P6AXXZU__crt_internal_free_policy@@@@QEAAXXZ 0000000180093e00 f i libucrtd:onexit.obj
 0001:00092e30       _crt_at_quick_exit         0000000180093e30 f   libucrtd:onexit.obj
 0001:00092e50       _crt_atexit                0000000180093e50 f   libucrtd:onexit.obj
 0001:00092e70       _execute_onexit_table      0000000180093e70 f   libucrtd:onexit.obj
 0001:00092eb0       _initialize_onexit_table   0000000180093eb0 f   libucrtd:onexit.obj
 0001:00092f30       _register_onexit_function  0000000180093f30 f   libucrtd:onexit.obj
 0001:000931a0       ??$?BX@__crt_fast_encoded_nullptr_t@@QEBAPEAXXZ 00000001800941a0 f i libucrtd:initialization.obj
 0001:000931c0       ??$__crt_fast_encode_pointer@PEAX@@YAPEAXQEAX@Z 00000001800941c0 f i libucrtd:initialization.obj
 0001:000932b0       ?initialize@?$dual_state_global@PEAU__crt_locale_data@@@__crt_state_management@@QEAAXQEAU__crt_locale_data@@@Z 00000001800942b0 f i libucrtd:initialization.obj
 0001:00093300       __acrt_initialize          0000000180094300 f   libucrtd:initialization.obj
 0001:00093330       __acrt_thread_attach       0000000180094330 f   libucrtd:initialization.obj
 0001:00093350       __acrt_thread_detach       0000000180094350 f   libucrtd:initialization.obj
 0001:00093360       __acrt_uninitialize        0000000180094360 f   libucrtd:initialization.obj
 0001:00093390       __acrt_uninitialize_critical 0000000180094390 f   libucrtd:initialization.obj
 0001:00095380       _CrtCheckMemory            0000000180096380 f   libucrtd:debug_heap.obj
 0001:00095510       _CrtDoForAllClientObjects  0000000180096510 f   libucrtd:debug_heap.obj
 0001:00095640       _CrtDumpMemoryLeaks        0000000180096640 f   libucrtd:debug_heap.obj
 0001:00095700       _CrtGetAllocHook           0000000180096700 f   libucrtd:debug_heap.obj
 0001:00095710       _CrtGetDumpClient          0000000180096710 f   libucrtd:debug_heap.obj
 0001:00095720       _CrtIsMemoryBlock          0000000180096720 f   libucrtd:debug_heap.obj
 0001:00095860       _CrtIsValidHeapPointer     0000000180096860 f   libucrtd:debug_heap.obj
 0001:000958a0       _CrtIsValidPointer         00000001800968a0 f   libucrtd:debug_heap.obj
 0001:000958e0       _CrtMemCheckpoint          00000001800968e0 f   libucrtd:debug_heap.obj
 0001:00095b60       _CrtMemDifference          0000000180096b60 f   libucrtd:debug_heap.obj
 0001:00095ec0       _CrtMemDumpAllObjectsSince 0000000180096ec0 f   libucrtd:debug_heap.obj
 0001:00095f20       _CrtMemDumpStatistics      0000000180096f20 f   libucrtd:debug_heap.obj
 0001:000960c0       _CrtReportBlockType        00000001800970c0 f   libucrtd:debug_heap.obj
 0001:000960f0       _CrtSetAllocHook           00000001800970f0 f   libucrtd:debug_heap.obj
 0001:00096120       _CrtSetBreakAlloc          0000000180097120 f   libucrtd:debug_heap.obj
 0001:00096150       _CrtSetDbgBlockType        0000000180097150 f   libucrtd:debug_heap.obj
 0001:000961f0       _CrtSetDbgFlag             00000001800971f0 f   libucrtd:debug_heap.obj
 0001:00096350       _CrtSetDumpClient          0000000180097350 f   libucrtd:debug_heap.obj
 0001:00096380       __p__crtBreakAlloc         0000000180097380 f   libucrtd:debug_heap.obj
 0001:00096390       __p__crtDbgFlag            0000000180097390 f   libucrtd:debug_heap.obj
 0001:000963a0       _aligned_free_dbg          00000001800973a0 f   libucrtd:debug_heap.obj
 0001:00096490       _aligned_malloc_dbg        0000000180097490 f   libucrtd:debug_heap.obj
 0001:000964d0       _aligned_msize_dbg         00000001800974d0 f   libucrtd:debug_heap.obj
 0001:000966a0       _aligned_offset_malloc_dbg 00000001800976a0 f   libucrtd:debug_heap.obj
 0001:00096990       _aligned_offset_realloc_dbg 0000000180097990 f   libucrtd:debug_heap.obj
 0001:00096e40       _aligned_offset_recalloc_dbg 0000000180097e40 f   libucrtd:debug_heap.obj
 0001:00096f60       _aligned_realloc_dbg       0000000180097f60 f   libucrtd:debug_heap.obj
 0001:00096fb0       _aligned_recalloc_dbg      0000000180097fb0 f   libucrtd:debug_heap.obj
 0001:00097010       _calloc_dbg                0000000180098010 f   libucrtd:debug_heap.obj
 0001:000970b0       _expand_dbg                00000001800980b0 f   libucrtd:debug_heap.obj
 0001:000971e0       _free_dbg                  00000001800981e0 f   libucrtd:debug_heap.obj
 0001:00097250       _malloc_dbg                0000000180098250 f   libucrtd:debug_heap.obj
 0001:00097290       _msize_dbg                 0000000180098290 f   libucrtd:debug_heap.obj
 0001:00097430       _realloc_dbg               0000000180098430 f   libucrtd:debug_heap.obj
 0001:000974a0       _recalloc_dbg              00000001800984a0 f   libucrtd:debug_heap.obj
 0001:000975a0       _initterm                  00000001800985a0 f   libucrtd:initterm.obj
 0001:00097600       _initterm_e                0000000180098600 f   libucrtd:initterm.obj
 0001:00097b50       strcpy_s                   0000000180098b50 f   libucrtd:strcpy_s.obj
 0001:000981f0       strcat_s                   00000001800991f0 f   libucrtd:strcat_s.obj
 0001:00098220       ??$?B$$A6AH_K@Z@__crt_fast_encoded_nullptr_t@@QEBAP6AH_K@ZXZ 0000000180099220 f i libucrtd:new_handler.obj
 0001:00098240       ??$__crt_fast_decode_pointer@P6AH_K@Z@@YAP6AH_K@ZQ6AH0@Z@Z 0000000180099240 f i libucrtd:new_handler.obj
 0001:00098280       ??$__crt_fast_encode_pointer@P6AH_K@Z@@YAP6AH_K@ZQ6AH0@Z@Z 0000000180099280 f i libucrtd:new_handler.obj
 0001:000982c0       ?_set_new_handler@@YAP6AH_K@ZH@Z 00000001800992c0 f   libucrtd:new_handler.obj
 0001:00098330       ?initialize@?$dual_state_global@P6AH_K@Z@__crt_state_management@@QEAAXQ6AH_K@Z@Z 0000000180099330 f i libucrtd:new_handler.obj
 0001:00098380       ?value@?$dual_state_global@P6AH_K@Z@__crt_state_management@@QEAAAEAP6AH_K@ZXZ 0000000180099380 f i libucrtd:new_handler.obj
 0001:000983a0       __acrt_initialize_new_handler 00000001800993a0 f   libucrtd:new_handler.obj
 0001:000983c0       _callnewh                  00000001800993c0 f   libucrtd:new_handler.obj
 0001:00098410       _query_new_handler         0000000180099410 f   libucrtd:new_handler.obj
 0001:00098450       _set_new_handler           0000000180099450 f   libucrtd:new_handler.obj
 0001:00098500       _get_terminate             0000000180099500 f   libucrtd:terminate.obj
 0001:00098520       set_terminate              0000000180099520 f   libucrtd:terminate.obj
 0001:00098560       terminate                  0000000180099560 f   libucrtd:terminate.obj
 0001:00099360       _makepath                  000000018009a360 f   libucrtd:makepath.obj
 0001:000993b0       _makepath_s                000000018009a3b0 f   libucrtd:makepath.obj
 0001:00099400       _wmakepath                 000000018009a400 f   libucrtd:makepath.obj
 0001:00099450       _wmakepath_s               000000018009a450 f   libucrtd:makepath.obj
 0001:0009ba80       ??$tcsncpy_s@AEAPEAD_KAEAPEBDAEB_K@?$__crt_char_traits@D@@SAHAEAPEAD$$QEA_KAEAPEBDAEB_K@Z 000000018009ca80 f i libucrtd:splitpath.obj
 0001:0009bad0       ??$tcsncpy_s@AEAPEAD_KAEAPEBDH@?$__crt_char_traits@D@@SAHAEAPEAD$$QEA_KAEAPEBD$$QEAH@Z 000000018009cad0 f i libucrtd:splitpath.obj
 0001:0009bb20       ??$tcsncpy_s@AEAPEA_W_KAEAPEB_WAEB_K@?$__crt_char_traits@_W@@SAHAEAPEA_W$$QEA_KAEAPEB_WAEB_K@Z 000000018009cb20 f i libucrtd:splitpath.obj
 0001:0009bb70       ??$tcsncpy_s@AEAPEA_W_KAEAPEB_WH@?$__crt_char_traits@_W@@SAHAEAPEA_W$$QEA_KAEAPEB_W$$QEAH@Z 000000018009cb70 f i libucrtd:splitpath.obj
 0001:0009be20       _splitpath                 000000018009ce20 f   libucrtd:splitpath.obj
 0001:0009be60       _splitpath_s               000000018009ce60 f   libucrtd:splitpath.obj
 0001:0009bf00       _wsplitpath                000000018009cf00 f   libucrtd:splitpath.obj
 0001:0009bf40       _wsplitpath_s              000000018009cf40 f   libucrtd:splitpath.obj
 0001:0009bfe0       _set_abort_behavior        000000018009cfe0 f   libucrtd:abort.obj
 0001:0009c020       abort                      000000018009d020 f   libucrtd:abort.obj
 0001:0009c0b0       strcmp                     000000018009d0b0 f   libucrtd:strcmp.obj
 0001:0009c130       strlen                     000000018009d130 f   libucrtd:strlen.obj
 0001:0009c1e0       ??$is_overflow_condition@K@__crt_strtox@@YA_NIK@Z 000000018009d1e0 f i libucrtd:atox.obj
 0001:0009c250       ??$is_overflow_condition@_K@__crt_strtox@@YA_NI_K@Z 000000018009d250 f i libucrtd:atox.obj
 0001:0009c2c0       ??$make_c_string_character_source@D$$T@__crt_strtox@@YA?AV?$c_string_character_source@D@0@QEBD$$T@Z 000000018009d2c0 f i libucrtd:atox.obj
 0001:0009c300       ??$make_c_string_character_source@_W$$T@__crt_strtox@@YA?AV?$c_string_character_source@_W@0@QEB_W$$T@Z 000000018009d300 f i libucrtd:atox.obj
 0001:0009c340       ??$parse_integer@KV?$c_string_character_source@D@__crt_strtox@@@__crt_strtox@@YAKQEAU__crt_locale_pointers@@V?$c_string_character_source@D@0@H_N@Z 000000018009d340 f i libucrtd:atox.obj
 0001:0009c7d0       ??$parse_integer@KV?$c_string_character_source@_W@__crt_strtox@@@__crt_strtox@@YAKQEAU__crt_locale_pointers@@V?$c_string_character_source@_W@0@H_N@Z 000000018009d7d0 f i libucrtd:atox.obj
 0001:0009cc80       ??$parse_integer@_KV?$c_string_character_source@D@__crt_strtox@@@__crt_strtox@@YA_KQEAU__crt_locale_pointers@@V?$c_string_character_source@D@0@H_N@Z 000000018009dc80 f i libucrtd:atox.obj
 0001:0009d1a0       ??$parse_integer@_KV?$c_string_character_source@_W@__crt_strtox@@@__crt_strtox@@YA_KQEAU__crt_locale_pointers@@V?$c_string_character_source@_W@0@H_N@Z 000000018009e1a0 f i libucrtd:atox.obj
 0001:0009d6c0       ??$parse_integer_from_string@JD$$T@__crt_strtox@@YAJQEBD$$THQEAU__crt_locale_pointers@@@Z 000000018009e6c0 f i libucrtd:atox.obj
 0001:0009d710       ??$parse_integer_from_string@J_W$$T@__crt_strtox@@YAJQEB_W$$THQEAU__crt_locale_pointers@@@Z 000000018009e710 f i libucrtd:atox.obj
 0001:0009d760       ??$parse_integer_from_string@_JD$$T@__crt_strtox@@YA_JQEBD$$THQEAU__crt_locale_pointers@@@Z 000000018009e760 f i libucrtd:atox.obj
 0001:0009d7b0       ??$parse_integer_from_string@_J_W$$T@__crt_strtox@@YA_JQEB_W$$THQEAU__crt_locale_pointers@@@Z 000000018009e7b0 f i libucrtd:atox.obj
 0001:0009d800       ??0?$c_string_character_source@D@__crt_strtox@@QEAA@QEBDQEAPEBD@Z 000000018009e800 f i libucrtd:atox.obj
 0001:0009d850       ??0?$c_string_character_source@_W@__crt_strtox@@QEAA@QEB_WQEAPEB_W@Z 000000018009e850 f i libucrtd:atox.obj
 0001:0009d8a0       ??1?$c_string_character_source@D@__crt_strtox@@QEAA@XZ 000000018009e8a0 f i libucrtd:atox.obj
 0001:0009d8d0       ??1?$c_string_character_source@_W@__crt_strtox@@QEAA@XZ 000000018009e8d0 f i libucrtd:atox.obj
 0001:0009d900       ?get@?$c_string_character_source@D@__crt_strtox@@QEAADXZ 000000018009e900 f i libucrtd:atox.obj
 0001:0009d940       ?get@?$c_string_character_source@_W@__crt_strtox@@QEAA_WXZ 000000018009e940 f i libucrtd:atox.obj
 0001:0009d980       ?is_space@__crt_strtox@@YA_NDQEAU__crt_locale_pointers@@@Z 000000018009e980 f i libucrtd:atox.obj
 0001:0009d9d0       ?is_space@__crt_strtox@@YA_N_WPEAU__crt_locale_pointers@@@Z 000000018009e9d0 f i libucrtd:atox.obj
 0001:0009da10       ?maximum_signed_value@__crt_strtox@@YAJK@Z 000000018009ea10 f i libucrtd:atox.obj
 0001:0009da20       ?maximum_signed_value@__crt_strtox@@YA_J_K@Z 000000018009ea20 f i libucrtd:atox.obj
 0001:0009da30       ?minimum_signed_value@__crt_strtox@@YAJK@Z 000000018009ea30 f i libucrtd:atox.obj
 0001:0009da40       ?minimum_signed_value@__crt_strtox@@YA_J_K@Z 000000018009ea40 f i libucrtd:atox.obj
 0001:0009da50       ?parse_digit@__crt_strtox@@YAID@Z 000000018009ea50 f i libucrtd:atox.obj
 0001:0009dac0       ?parse_digit@__crt_strtox@@YAI_W@Z 000000018009eac0 f i libucrtd:atox.obj
 0001:0009db10       ?restore_state@?$c_string_character_source@D@__crt_strtox@@QEAA_NQEBD@Z 000000018009eb10 f i libucrtd:atox.obj
 0001:0009db30       ?restore_state@?$c_string_character_source@_W@__crt_strtox@@QEAA_NQEB_W@Z 000000018009eb30 f i libucrtd:atox.obj
 0001:0009db50       ?save_state@?$c_string_character_source@D@__crt_strtox@@QEBAPEBDXZ 000000018009eb50 f i libucrtd:atox.obj
 0001:0009db60       ?save_state@?$c_string_character_source@_W@__crt_strtox@@QEBAPEB_WXZ 000000018009eb60 f i libucrtd:atox.obj
 0001:0009db70       ?unget@?$c_string_character_source@D@__crt_strtox@@QEAAXD@Z 000000018009eb70 f i libucrtd:atox.obj
 0001:0009dc50       ?unget@?$c_string_character_source@_W@__crt_strtox@@QEAAX_W@Z 000000018009ec50 f i libucrtd:atox.obj
 0001:0009dd30       ?validate@?$c_string_character_source@D@__crt_strtox@@QEBA_NXZ 000000018009ed30 f i libucrtd:atox.obj
 0001:0009ddf0       ?validate@?$c_string_character_source@_W@__crt_strtox@@QEBA_NXZ 000000018009edf0 f i libucrtd:atox.obj
 0001:0009deb0       ?wide_character_to_digit@__crt_strtox@@YAH_W@Z 000000018009eeb0 f i libucrtd:atox.obj
 0001:0009e220       __ascii_iswalpha           000000018009f220 f i libucrtd:atox.obj
 0001:0009e260       __ascii_toupper            000000018009f260 f i libucrtd:atox.obj
 0001:0009e280       __ascii_towupper           000000018009f280 f i libucrtd:atox.obj
 0001:0009e2a0       _atoi64                    000000018009f2a0 f   libucrtd:atox.obj
 0001:0009e2d0       _atoi64_l                  000000018009f2d0 f   libucrtd:atox.obj
 0001:0009e300       _atoi_l                    000000018009f300 f   libucrtd:atox.obj
 0001:0009e330       _atol_l                    000000018009f330 f   libucrtd:atox.obj
 0001:0009e360       _atoll_l                   000000018009f360 f   libucrtd:atox.obj
 0001:0009e390       _wtoi                      000000018009f390 f   libucrtd:atox.obj
 0001:0009e3c0       _wtoi64                    000000018009f3c0 f   libucrtd:atox.obj
 0001:0009e3f0       _wtoi64_l                  000000018009f3f0 f   libucrtd:atox.obj
 0001:0009e420       _wtoi_l                    000000018009f420 f   libucrtd:atox.obj
 0001:0009e450       _wtol                      000000018009f450 f   libucrtd:atox.obj
 0001:0009e480       _wtol_l                    000000018009f480 f   libucrtd:atox.obj
 0001:0009e4b0       _wtoll                     000000018009f4b0 f   libucrtd:atox.obj
 0001:0009e4e0       _wtoll_l                   000000018009f4e0 f   libucrtd:atox.obj
 0001:0009e510       atoi                       000000018009f510 f   libucrtd:atox.obj
 0001:0009e540       atol                       000000018009f540 f   libucrtd:atox.obj
 0001:0009e570       atoll                      000000018009f570 f   libucrtd:atox.obj
 0001:0009e5b0       strncmp                    000000018009f5b0 f   libucrtd:strncmp.obj
 0001:0009e630       wcsncmp                    000000018009f630 f   libucrtd:wcsncmp.obj
 0001:0009e6c0       _CrtGetDebugFillThreshold  000000018009f6c0 f   libucrtd:debug_fill_threshold.obj
 0001:0009e6d0       _CrtSetDebugFillThreshold  000000018009f6d0 f   libucrtd:debug_fill_threshold.obj
 0001:0009e700       ??$make_c_string_character_source@DPEAPEAD@__crt_strtox@@YA?AV?$c_string_character_source@D@0@QEBDQEAPEAD@Z 000000018009f700 f i libucrtd:strtox.obj
 0001:0009e740       ??$make_c_string_character_source@_WPEAPEA_W@__crt_strtox@@YA?AV?$c_string_character_source@_W@0@QEB_WQEAPEA_W@Z 000000018009f740 f i libucrtd:strtox.obj
 0001:0009e780       ??$parse_integer_from_string@JDPEAPEAD@__crt_strtox@@YAJQEBDQEAPEADHQEAU__crt_locale_pointers@@@Z 000000018009f780 f i libucrtd:strtox.obj
 0001:0009e7d0       ??$parse_integer_from_string@J_WPEAPEA_W@__crt_strtox@@YAJQEB_WQEAPEA_WHQEAU__crt_locale_pointers@@@Z 000000018009f7d0 f i libucrtd:strtox.obj
 0001:0009e820       ??$parse_integer_from_string@KDPEAPEAD@__crt_strtox@@YAKQEBDQEAPEADHQEAU__crt_locale_pointers@@@Z 000000018009f820 f i libucrtd:strtox.obj
 0001:0009e870       ??$parse_integer_from_string@K_WPEAPEA_W@__crt_strtox@@YAKQEB_WQEAPEA_WHQEAU__crt_locale_pointers@@@Z 000000018009f870 f i libucrtd:strtox.obj
 0001:0009e8c0       ??$parse_integer_from_string@_JDPEAPEAD@__crt_strtox@@YA_JQEBDQEAPEADHQEAU__crt_locale_pointers@@@Z 000000018009f8c0 f i libucrtd:strtox.obj
 0001:0009e910       ??$parse_integer_from_string@_J_WPEAPEA_W@__crt_strtox@@YA_JQEB_WQEAPEA_WHQEAU__crt_locale_pointers@@@Z 000000018009f910 f i libucrtd:strtox.obj
 0001:0009e960       ??$parse_integer_from_string@_KDPEAPEAD@__crt_strtox@@YA_KQEBDQEAPEADHQEAU__crt_locale_pointers@@@Z 000000018009f960 f i libucrtd:strtox.obj
 0001:0009e9b0       ??$parse_integer_from_string@_K_WPEAPEA_W@__crt_strtox@@YA_KQEB_WQEAPEA_WHQEAU__crt_locale_pointers@@@Z 000000018009f9b0 f i libucrtd:strtox.obj
 0001:0009ea00       _strtoi64                  000000018009fa00 f   libucrtd:strtox.obj
 0001:0009ea30       _strtoi64_l                000000018009fa30 f   libucrtd:strtox.obj
 0001:0009ea70       _strtoimax_l               000000018009fa70 f   libucrtd:strtox.obj
 0001:0009eab0       _strtol_l                  000000018009fab0 f   libucrtd:strtox.obj
 0001:0009eaf0       _strtoll_l                 000000018009faf0 f   libucrtd:strtox.obj
 0001:0009eb30       _strtoui64                 000000018009fb30 f   libucrtd:strtox.obj
 0001:0009eb60       _strtoui64_l               000000018009fb60 f   libucrtd:strtox.obj
 0001:0009eba0       _strtoul_l                 000000018009fba0 f   libucrtd:strtox.obj
 0001:0009ebe0       _strtoull_l                000000018009fbe0 f   libucrtd:strtox.obj
 0001:0009ec20       _strtoumax_l               000000018009fc20 f   libucrtd:strtox.obj
 0001:0009ec60       _wcstoi64                  000000018009fc60 f   libucrtd:strtox.obj
 0001:0009ec90       _wcstoi64_l                000000018009fc90 f   libucrtd:strtox.obj
 0001:0009ecd0       _wcstoimax_l               000000018009fcd0 f   libucrtd:strtox.obj
 0001:0009ed10       _wcstol_l                  000000018009fd10 f   libucrtd:strtox.obj
 0001:0009ed50       _wcstoll_l                 000000018009fd50 f   libucrtd:strtox.obj
 0001:0009ed90       _wcstoui64                 000000018009fd90 f   libucrtd:strtox.obj
 0001:0009edc0       _wcstoui64_l               000000018009fdc0 f   libucrtd:strtox.obj
 0001:0009ee00       _wcstoul_l                 000000018009fe00 f   libucrtd:strtox.obj
 0001:0009ee40       _wcstoull_l                000000018009fe40 f   libucrtd:strtox.obj
 0001:0009ee80       _wcstoumax_l               000000018009fe80 f   libucrtd:strtox.obj
 0001:0009eec0       strtoimax                  000000018009fec0 f   libucrtd:strtox.obj
 0001:0009eef0       strtol                     000000018009fef0 f   libucrtd:strtox.obj
 0001:0009ef20       strtoll                    000000018009ff20 f   libucrtd:strtox.obj
 0001:0009ef50       strtoul                    000000018009ff50 f   libucrtd:strtox.obj
 0001:0009ef80       strtoull                   000000018009ff80 f   libucrtd:strtox.obj
 0001:0009efb0       strtoumax                  000000018009ffb0 f   libucrtd:strtox.obj
 0001:0009efe0       wcstoimax                  000000018009ffe0 f   libucrtd:strtox.obj
 0001:0009f010       wcstol                     00000001800a0010 f   libucrtd:strtox.obj
 0001:0009f040       wcstoll                    00000001800a0040 f   libucrtd:strtox.obj
 0001:0009f070       wcstoul                    00000001800a0070 f   libucrtd:strtox.obj
 0001:0009f0a0       wcstoull                   00000001800a00a0 f   libucrtd:strtox.obj
 0001:0009f0d0       wcstoumax                  00000001800a00d0 f   libucrtd:strtox.obj
 0001:0009f100       _mbtowc_l                  00000001800a0100 f   libucrtd:mbtowc.obj
 0001:0009f560       mbtowc                     00000001800a0560 f   libucrtd:mbtowc.obj
 0001:0009f590       _wctomb_l                  00000001800a0590 f   libucrtd:wctomb.obj
 0001:0009f650       _wctomb_s_l                00000001800a0650 f   libucrtd:wctomb.obj
 0001:0009fbd0       wctomb                     00000001800a0bd0 f   libucrtd:wctomb.obj
 0001:0009fc30       wctomb_s                   00000001800a0c30 f   libucrtd:wctomb.obj
 0001:0009fc80       ??$?RU__acrt_ptd@@@__crt_internal_free_policy@@QEBAXQEBU__acrt_ptd@@@Z 00000001800a0c80 f i libucrtd:per_thread_data.obj
 0001:000a0080       ??0?$__crt_unique_heap_ptr@U__acrt_ptd@@U__crt_internal_free_policy@@@@QEAA@QEAU__acrt_ptd@@@Z 00000001800a1080 f i libucrtd:per_thread_data.obj
 0001:000a00a0       ??0__crt_scoped_get_last_error_reset@@QEAA@XZ 00000001800a10a0 f i libucrtd:per_thread_data.obj
 0001:000a00c0       ??1?$__crt_unique_heap_ptr@U__acrt_ptd@@U__crt_internal_free_policy@@@@QEAA@XZ 00000001800a10c0 f i libucrtd:per_thread_data.obj
 0001:000a00e0       ??1__crt_scoped_get_last_error_reset@@QEAA@XZ 00000001800a10e0 f i libucrtd:per_thread_data.obj
