 OPOSMSR

 Timestamp is 61a75999 (Wed Dec  1 20:16:41 2021)

 Preferred load address is 0000000180000000

 Start         Length     Name                   Class
 0001:00000000 00000d90H .text$di                CODE
 0001:00000d90 000e53f0H .text$mn                CODE
 0001:000e6180 00000040H .text$mn$00             CODE
 0001:000e61c0 00001330H .text$x                 CODE
 0001:000e74f0 00000124H .text$yd                CODE
 0002:00000000 00000710H .idata$5                DATA
 0002:00000710 00000030H .00cfg                  DATA
 0002:00000740 00000008H .CRT$XCA                DATA
 0002:00000748 00000008H .CRT$XCL                DATA
 0002:00000750 000000d8H .CRT$XCU                DATA
 0002:00000828 00000008H .CRT$XCZ                DATA
 0002:00000830 00000008H .CRT$XIA                DATA
 0002:00000838 00000028H .CRT$XIC                DATA
 0002:00000860 00000008H .CRT$XIZ                DATA
 0002:00000868 00000008H .CRT$XLA                DATA
 0002:00000870 00000008H .CRT$XLZ                DATA
 0002:00000878 00000008H .CRT$XPA                DATA
 0002:00000880 00000010H .CRT$XPX                DATA
 0002:00000890 00000008H .CRT$XPXA               DATA
 0002:00000898 00000008H .CRT$XPZ                DATA
 0002:000008a0 00000008H .CRT$XTA                DATA
 0002:000008a8 00000008H .CRT$XTZ                DATA
 0002:000008b0 00000000H .gehcont$y              DATA
 0002:000008b0 00000000H .gfids$y                DATA
 0002:000008b0 0003ccd0H .rdata                  DATA
 0002:0003d580 00000080H .rdata$CastGuardVftablesA DATA
 0002:0003d600 00000080H .rdata$CastGuardVftablesC DATA
 0002:0003d680 00000028H .rdata$T                DATA
 0002:0003d6a8 0000056cH .rdata$r                DATA
 0002:0003dc14 00000180H .rdata$voltmd           DATA
 0002:0003dd94 0000049cH .rdata$zzzdbg           DATA
 0002:0003e230 00000008H .rtc$IAA                DATA
 0002:0003e238 00000030H .rtc$IMZ                DATA
 0002:0003e268 00000008H .rtc$IZZ                DATA
 0002:0003e270 00000008H .rtc$TAA                DATA
 0002:0003e278 00000030H .rtc$TMZ                DATA
 0002:0003e2a8 00000008H .rtc$TZZ                DATA
 0002:0003e2b0 00000004H .tls                    DATA
 0002:0003e2b4 00000004H .tls$                   DATA
 0002:0003e2b8 00000008H .tls$ZZZ                DATA
 0002:0003e2c0 0000a0c8H .xdata                  DATA
 0002:00048388 00000150H .xdata$x                DATA
 0002:000484d8 00000008H ATL$__a                 DATA
 0002:000484e0 00000010H ATL$__z                 DATA
 0002:000484f0 000000a4H .edata                  DATA
 0002:00048594 00000078H .idata$2                DATA
 0002:0004860c 00000014H .idata$3                DATA
 0002:00048620 00000710H .idata$4                DATA
 0002:00048d30 00000df0H .idata$6                DATA
 0003:00000000 00000ef8H .data                   DATA
 0003:00000ef8 000000a8H .data$r                 DATA
 0003:00000fa0 000000f0H .data$rs                DATA
 0003:00001090 00003e7cH .bss                    DATA
 0004:00000000 0000ca2cH .pdata                  DATA
 0005:00000000 000000fcH _RDATA                  DATA
 0006:00000000 00000220H .rsrc$01                DATA
 0006:00000220 00005b98H .rsrc$02                DATA

  Address         Publics by Value              Rva+Base               Lib:Object

 0000:00000000       __arm64x_redirection_metadata 0000000000000000     <absolute>
 0000:00000000       __guard_iat_table          0000000000000000     <absolute>
 0000:00000000       __guard_check_icall_a64n_fptr 0000000000000000     <absolute>
 0000:00000000       ___safe_se_handler_table   0000000000000000     <absolute>
 0000:00000000       __x64_code_ranges_to_entry_points_count 0000000000000000     <absolute>
 0000:00000000       __arm64x_native_entrypoint 0000000000000000     <absolute>
 0000:00000000       __dynamic_value_reloc_table 0000000000000000     <absolute>
 0000:00000000       __hybrid_code_map_count    0000000000000000     <absolute>
 0000:00000000       __guard_longjmp_table      0000000000000000     <absolute>
 0000:00000000       __hybrid_auxiliary_iat     0000000000000000     <absolute>
 0000:00000000       __guard_eh_cont_count      0000000000000000     <absolute>
 0000:00000000       __guard_eh_cont_table      0000000000000000     <absolute>
 0000:00000000       __hybrid_auxiliary_iat_copy 0000000000000000     <absolute>
 0000:00000000       __guard_longjmp_count      0000000000000000     <absolute>
 0000:00000000       ___safe_se_handler_count   0000000000000000     <absolute>
 0000:00000000       __arm64x_extra_rfe_table_size 0000000000000000     <absolute>
 0000:00000000       __guard_fids_table         0000000000000000     <absolute>
 0000:00000000       __hybrid_code_map          0000000000000000     <absolute>
 0000:00000000       __guard_iat_count          0000000000000000     <absolute>
 0000:00000000       __enclave_config           0000000000000000     <absolute>
 0000:00000000       __guard_fids_count         0000000000000000     <absolute>
 0000:00000000       __arm64x_redirection_metadata_count 0000000000000000     <absolute>
 0000:00000000       __AbsoluteZero             0000000000000000     <absolute>
 0000:00000000       __arm64x_extra_rfe_table   0000000000000000     <absolute>
 0000:00000000       __x64_code_ranges_to_entry_points 0000000000000000     <absolute>
 0000:00000100       __guard_flags              0000000000000100     <absolute>
 0000:00000000       __ImageBase                0000000180000000     <linker-defined>
 0001:00000d90       ?_assert@@YAXPEB_W0I@Z     0000000180001d90 f   Assert.obj
 0001:00000e90       __local_stdio_printf_options 0000000180001e90 f i Assert.obj
 0001:00000ea0       __vswprintf_l              0000000180001ea0 f i Assert.obj
 0001:00000ef0       _swprintf                  0000000180001ef0 f i Assert.obj
 0001:00000f70       _vswprintf_c_l             0000000180001f70 f i Assert.obj
 0001:00000fe0       _vswprintf_l               0000000180001fe0 f i Assert.obj
 0001:00001030       ?cw_memcpy@@YAHPEADPEB_WH@Z 0000000180002030 f   CWString.obj
 0001:000010b0       ?cw_memcpy@@YAHPEA_WPEBDH@Z 00000001800020b0 f   CWString.obj
 0001:00001120       ?cw_memcpy@@YAHPEADPEBDH@Z 0000000180002120 f   CWString.obj
 0001:000011b0       ?cw_memcpy@@YAHPEA_WPEB_WH@Z 00000001800021b0 f   CWString.obj
 0001:00001210       ?cw_memset@@YAXPEADDH@Z    0000000180002210 f   CWString.obj
 0001:00001270       ?cw_memset@@YAXPEA_W_WH@Z  0000000180002270 f   CWString.obj
 0001:00001300       ?cw_strlen@@YAHPEBD@Z      0000000180002300 f   CWString.obj
 0001:00001360       ?cw_strlen@@YAHPEB_W@Z     0000000180002360 f   CWString.obj
 0001:000013c0       ?cw_strcpy@@YAHPEADPEB_W@Z 00000001800023c0 f   CWString.obj
 0001:00001400       ?cw_strcpy@@YAHPEA_WPEBD@Z 0000000180002400 f   CWString.obj
 0001:00001440       ?cw_strcpy@@YAHPEADPEBD@Z  0000000180002440 f   CWString.obj
 0001:00001480       ?cw_strcpy@@YAHPEA_WPEB_W@Z 0000000180002480 f   CWString.obj
 0001:000014c0       ?cw_strcat@@YAHPEADPEB_W@Z 00000001800024c0 f   CWString.obj
 0001:00001510       ?cw_strcat@@YAHPEA_WPEBD@Z 0000000180002510 f   CWString.obj
 0001:00001560       ?cw_strcat@@YAHPEADPEBD@Z  0000000180002560 f   CWString.obj
 0001:000015b0       ?cw_strcat@@YAHPEA_WPEB_W@Z 00000001800025b0 f   CWString.obj
 0001:00001600       ?cw_dup@@YAXPEBDAEAHAEAPEA_W1@Z 0000000180002600 f   CWString.obj
 0001:00001700       ?cw_dup@@YAXPEB_WAEAHAEAPEAD1@Z 0000000180002700 f   CWString.obj
 0001:000017e0       ?DupChar@_CW@@AEAAXXZ      00000001800027e0 f   CWString.obj
 0001:00001830       ?DupWide@_CW@@AEAAXXZ      0000000180002830 f   CWString.obj
 0001:00001880       ?GetCharsMbcs@_CW@@QEAAHXZ 0000000180002880 f   CWString.obj
 0001:000018e0       ?GetCharsWide@_CW@@QEAAHXZ 00000001800028e0 f   CWString.obj
 0001:00001940       ?SetVARIANT_BOOL@OposVariant@@QEAAXF@Z 0000000180002940 f   OposVariant.obj
 0001:000019a0       ?SetVARIANT_BOOL_Ptr@OposVariant@@QEAAXPEAFAEAJ@Z 00000001800029a0 f   OposVariant.obj
 0001:00001a00       ?GetLONG@OposVariant@@QEAAJXZ 0000000180002a00 f   OposVariant.obj
 0001:00001a60       ?ChangeLONG@OposVariant@@QEAAXPEAJAEAJ@Z 0000000180002a60 f   OposVariant.obj
 0001:00001b10       ?SetLONG@OposVariant@@QEAAXJ@Z 0000000180002b10 f   OposVariant.obj
 0001:00001b50       ?SetLONG_Ptr@OposVariant@@QEAAXPEAJAEAJ@Z 0000000180002b50 f   OposVariant.obj
 0001:00001bb0       ?ChangeCURRENCY@OposVariant@@QEAAXPEATtagCY@@AEAJ@Z 0000000180002bb0 f   OposVariant.obj
 0001:00001c60       ?SetCURRENCY@OposVariant@@QEAAXTtagCY@@@Z 0000000180002c60 f   OposVariant.obj
 0001:00001ca0       ?SetCURRENCY_Ptr@OposVariant@@QEAAXPEATtagCY@@AEAJ@Z 0000000180002ca0 f   OposVariant.obj
 0001:00001d00       ?ChangeBSTR@OposVariant@@QEAAXPEAPEA_WAEAJ@Z 0000000180002d00 f   OposVariant.obj
 0001:00001db0       ?SetBSTR@OposVariant@@QEAAXPEA_WAEAJ@Z 0000000180002db0 f   OposVariant.obj
 0001:00001e10       ?SetBSTR_Copy@OposVariant@@QEAAXPEA_WAEAJ@Z 0000000180002e10 f   OposVariant.obj
 0001:00001eb0       ?SetBSTR_OutPtr@OposVariant@@QEAA_NPEAPEA_WAEAJ@Z 0000000180002eb0 f   OposVariant.obj
 0001:00001f10       ?SetBSTR_InOutPtr@OposVariant@@QEAA_NPEAPEA_WAEAJ@Z 0000000180002f10 f   OposVariant.obj
 0001:00001f70       ?SetVARIANT@OposVariant@@QEAAXAEAUtagVARIANT@@GAEAJ@Z 0000000180002f70 f   OposVariant.obj
 0001:00002000       ?SetVARIANT_Ptr@OposVariant@@QEAAXAEAPEAUtagVARIANT@@GAEAJ@Z 0000000180003000 f   OposVariant.obj
 0001:000020a0       ?SetString@OposVariant@@QEAAXPEB_WAEAJ@Z 00000001800030a0 f   OposVariant.obj
 0001:00002130       ?SetDispatch_Ptr@OposVariant@@QEAAXPEAUIDispatch@@AEAJ@Z 0000000180003130 f   OposVariant.obj
 0001:000021b0       ??0OposDispParms@@QEAA@PEAVOposVariant@@H@Z 00000001800031b0 f   OposVariant.obj
 0001:000022b0       ??1OposDispParms@@QEAA@XZ  00000001800032b0 f   OposVariant.obj
 0001:000022f0       ??$AtlMultiply@_K@ATL@@YAJPEA_K_K1@Z 00000001800032f0 f i OposVariant.obj
 0001:00002360       ??0?$CHeapPtr@_WVCCRTAllocator@ATL@@@ATL@@QEAA@XZ 0000000180003360 f i OposVariant.obj
 0001:00002380       ??0?$CHeapPtrBase@_WVCCRTAllocator@ATL@@@ATL@@IEAA@XZ 0000000180003380 f i OposVariant.obj
 0001:000023a0       ??0?$CSimpleArray@GV?$CSimpleArrayEqualHelper@G@ATL@@@ATL@@QEAA@XZ 00000001800033a0 f i OposVariant.obj
 0001:000023e0       ??0?$CTraceCategoryEx@$00$0A@@ATL@@QEAA@PEB_W@Z 00000001800033e0 f i OposVariant.obj
 0001:00002410       ??0?$CTraceCategoryEx@$01$0A@@ATL@@QEAA@PEB_W@Z 0000000180003410 f i OposVariant.obj
 0001:00002440       ??0?$CTraceCategoryEx@$03$0A@@ATL@@QEAA@PEB_W@Z 0000000180003440 f i OposVariant.obj
 0001:00002470       ??0?$CTraceCategoryEx@$07$0A@@ATL@@QEAA@PEB_W@Z 0000000180003470 f i OposVariant.obj
 0001:000024a0       ??0?$CTraceCategoryEx@$0BA@$0A@@ATL@@QEAA@PEB_W@Z 00000001800034a0 f i OposVariant.obj
 0001:000024d0       ??0?$CTraceCategoryEx@$0BAA@$0A@@ATL@@QEAA@PEB_W@Z 00000001800034d0 f i OposVariant.obj
 0001:00002500       ??0?$CTraceCategoryEx@$0BAAA@$0A@@ATL@@QEAA@PEB_W@Z 0000000180003500 f i OposVariant.obj
 0001:00002530       ??0?$CTraceCategoryEx@$0BAAAA@$0A@@ATL@@QEAA@PEB_W@Z 0000000180003530 f i OposVariant.obj
 0001:00002560       ??0?$CTraceCategoryEx@$0BAAAAA@$0A@@ATL@@QEAA@PEB_W@Z 0000000180003560 f i OposVariant.obj
 0001:00002590       ??0?$CTraceCategoryEx@$0CA@$0A@@ATL@@QEAA@PEB_W@Z 0000000180003590 f i OposVariant.obj
 0001:000025c0       ??0?$CTraceCategoryEx@$0CAA@$0A@@ATL@@QEAA@PEB_W@Z 00000001800035c0 f i OposVariant.obj
 0001:000025f0       ??0?$CTraceCategoryEx@$0CAAA@$0A@@ATL@@QEAA@PEB_W@Z 00000001800035f0 f i OposVariant.obj
 0001:00002620       ??0?$CTraceCategoryEx@$0CAAAA@$0A@@ATL@@QEAA@PEB_W@Z 0000000180003620 f i OposVariant.obj
 0001:00002650       ??0?$CTraceCategoryEx@$0CAAAAA@$0A@@ATL@@QEAA@PEB_W@Z 0000000180003650 f i OposVariant.obj
 0001:00002680       ??0?$CTraceCategoryEx@$0EA@$0A@@ATL@@QEAA@PEB_W@Z 0000000180003680 f i OposVariant.obj
 0001:000026b0       ??0?$CTraceCategoryEx@$0EAA@$0A@@ATL@@QEAA@PEB_W@Z 00000001800036b0 f i OposVariant.obj
 0001:000026e0       ??0?$CTraceCategoryEx@$0EAAA@$0A@@ATL@@QEAA@PEB_W@Z 00000001800036e0 f i OposVariant.obj
 0001:00002710       ??0?$CTraceCategoryEx@$0EAAAA@$0A@@ATL@@QEAA@PEB_W@Z 0000000180003710 f i OposVariant.obj
 0001:00002740       ??0?$CTraceCategoryEx@$0EAAAAA@$0A@@ATL@@QEAA@PEB_W@Z 0000000180003740 f i OposVariant.obj
 0001:00002770       ??0?$CTraceCategoryEx@$0IA@$0A@@ATL@@QEAA@PEB_W@Z 0000000180003770 f i OposVariant.obj
 0001:000027a0       ??0?$CTraceCategoryEx@$0IAA@$0A@@ATL@@QEAA@PEB_W@Z 00000001800037a0 f i OposVariant.obj
 0001:000027d0       ??0?$CTraceCategoryEx@$0IAAA@$0A@@ATL@@QEAA@PEB_W@Z 00000001800037d0 f i OposVariant.obj
 0001:00002800       ??0?$CTraceCategoryEx@$0IAAAA@$0A@@ATL@@QEAA@PEB_W@Z 0000000180003800 f i OposVariant.obj
 0001:00002830       ??0CAtlComModule@ATL@@QEAA@XZ 0000000180003830 f i OposVariant.obj
 0001:00002940       ??0CAtlWinModule@ATL@@QEAA@XZ 0000000180003940 f i OposVariant.obj
 0001:000029e0       ??0CComCriticalSection@ATL@@QEAA@XZ 00000001800039e0 f i OposVariant.obj
 0001:00002a10       ??0CPreserveLastError@ATL@@QEAA@XZ 0000000180003a10 f i OposVariant.obj
 0001:00002a40       ??0CTraceFileAndLineInfo@ATL@@QEAA@PEBDH@Z 0000000180003a40 f i OposVariant.obj
 0001:00002a70       ??0_ATL_COM_MODULE70@ATL@@QEAA@XZ 0000000180003a70 f i OposVariant.obj
 0001:00002aa0       ??0_ATL_WIN_MODULE70@ATL@@QEAA@XZ 0000000180003aa0 f i OposVariant.obj
 0001:00002ae0       ??1?$CHeapPtr@_WVCCRTAllocator@ATL@@@ATL@@QEAA@XZ 0000000180003ae0 f i OposVariant.obj
 0001:00002b00       ??1?$CHeapPtrBase@_WVCCRTAllocator@ATL@@@ATL@@QEAA@XZ 0000000180003b00 f i OposVariant.obj
 0001:00002b20       ??1?$CSimpleArray@GV?$CSimpleArrayEqualHelper@G@ATL@@@ATL@@QEAA@XZ 0000000180003b20 f i OposVariant.obj
 0001:00002b40       ??1CAtlComModule@ATL@@QEAA@XZ 0000000180003b40 f i OposVariant.obj
 0001:00002b70       ??1CAtlWinModule@ATL@@QEAA@XZ 0000000180003b70 f i OposVariant.obj
 0001:00002ba0       ??1CComBSTR@ATL@@QEAA@XZ   0000000180003ba0 f i OposVariant.obj
 0001:00002bc0       ??1CComCriticalSection@ATL@@QEAA@XZ 0000000180003bc0 f i OposVariant.obj
 0001:00002bd0       ??1CPreserveLastError@ATL@@QEAA@XZ 0000000180003bd0 f i OposVariant.obj
 0001:00002bf0       ??1_ATL_COM_MODULE70@ATL@@QEAA@XZ 0000000180003bf0 f i OposVariant.obj
 0001:00002c20       ??1_ATL_WIN_MODULE70@ATL@@QEAA@XZ 0000000180003c20 f i OposVariant.obj
 0001:00002c60       ??1stringdispid@CComTypeInfoHolder@ATL@@QEAA@XZ 0000000180003c60 f i OposVariant.obj
 0001:00002c80       ??A?$CSimpleArray@GV?$CSimpleArrayEqualHelper@G@ATL@@@ATL@@QEAAAEAGH@Z 0000000180003c80 f i OposVariant.obj
 0001:00002d20       ??B?$CHeapPtrBase@_WVCCRTAllocator@ATL@@@ATL@@QEBAPEA_WXZ 0000000180003d20 f i OposVariant.obj
 0001:00002d30       ??B?$CTraceCategoryEx@$01$0A@@ATL@@QEAAIXZ 0000000180003d30 f i OposVariant.obj
 0001:00002d40       ??B?$CTraceCategoryEx@$0CA@$0A@@ATL@@QEAAIXZ 0000000180003d40 f i OposVariant.obj
 0001:00002d50       ??RCTraceFileAndLineInfo@ATL@@QEBAXHIPEB_WZZ 0000000180003d50 f i OposVariant.obj
 0001:00002e10       ??_Estringdispid@CComTypeInfoHolder@ATL@@QEAAPEAXI@Z 0000000180003e10 f i OposVariant.obj
 0001:00002eb0       ??_H@YAXPEAX_K1P6APEAX0@Z@Z 0000000180003eb0 f i OposVariant.obj
 0001:00002f30       ??_I@YAXPEAX_K1P6AX0@Z@Z   0000000180003f30 f i OposVariant.obj
 0001:00002fd0       ?Allocate@?$CHeapPtr@_WVCCRTAllocator@ATL@@@ATL@@QEAA_N_K@Z 0000000180003fd0 f i OposVariant.obj
 0001:00003050       ?Allocate@CCRTAllocator@ATL@@SAPEAX_K@Z 0000000180004050 f i OposVariant.obj
 0001:00003070       ?AllocateBytes@?$CHeapPtrBase@_WVCCRTAllocator@ATL@@@ATL@@QEAA_N_K@Z 0000000180004070 f i OposVariant.obj
 0001:000030f0       ?AtlWinModuleInit@ATL@@YAJPEAU_ATL_WIN_MODULE70@1@@Z 00000001800040f0 f i OposVariant.obj
 0001:000031e0       ?AtlWinModuleTerm@ATL@@YAJPEAU_ATL_WIN_MODULE70@1@PEAUHINSTANCE__@@@Z 00000001800041e0 f i OposVariant.obj
 0001:000032b0       ?Clear@OposVariant@@QEAAJXZ 00000001800042b0 f i OposVariant.obj
 0001:000032e0       ?Free@?$CHeapPtrBase@_WVCCRTAllocator@ATL@@@ATL@@QEAAXXZ 00000001800042e0 f i OposVariant.obj
 0001:00003310       ?Free@CCRTAllocator@ATL@@SAXPEAX@Z 0000000180004310 f i OposVariant.obj
 0001:00003330       ?GetCategoryName@CTrace@ATL@@CAPEA_WI@Z 0000000180004330 f i OposVariant.obj
 0001:000033a0       ?GetModuleInstance@CAtlBaseModule@ATL@@QEAAPEAUHINSTANCE__@@XZ 00000001800043a0 f i OposVariant.obj
 0001:000033c0       ?GetSize@?$CSimpleArray@GV?$CSimpleArrayEqualHelper@G@ATL@@@ATL@@QEBAHXZ 00000001800043c0 f i OposVariant.obj
 0001:000033d0       ?Init@CComCriticalSection@ATL@@QEAAJXZ 00000001800043d0 f i OposVariant.obj
 0001:00003420       ?RegisterCategory@CTrace@ATL@@SAXPEB_WI@Z 0000000180004420 f i OposVariant.obj
 0001:000034e0       ?RemoveAll@?$CSimpleArray@GV?$CSimpleArrayEqualHelper@G@ATL@@@ATL@@QEAAXXZ 00000001800044e0 f i OposVariant.obj
 0001:00003550       ?Term@CAtlComModule@ATL@@QEAAXXZ 0000000180004550 f i OposVariant.obj
 0001:00003620       ?Term@CAtlWinModule@ATL@@QEAAXXZ 0000000180004620 f i OposVariant.obj
 0001:00003650       ?Term@CComCriticalSection@ATL@@QEAAJXZ 0000000180004650 f i OposVariant.obj
 0001:00003670       ?TraceV@CTrace@ATL@@CAXPEBDHIIPEB_W@Z 0000000180004670 f i OposVariant.obj
 0001:00003920       ?TraceV@CTrace@ATL@@SAXPEBDHIIPEB_WPEAD@Z 0000000180004920 f i OposVariant.obj
 0001:00003ad0       ?_AtlInitializeCriticalSectionEx@ATL@@YAHPEAU_RTL_CRITICAL_SECTION@@KK@Z 0000000180004ad0 f i OposVariant.obj
 0001:00003b00       ?_AtlRaiseException@ATL@@YAXKK@Z 0000000180004b00 f i OposVariant.obj
 0001:00003b30       HRESULT_FROM_WIN32         0000000180004b30 f i OposVariant.obj
 0001:00003b70       _vswprintf_s_l             0000000180004b70 f i OposVariant.obj
 0001:00003be0       swprintf_s                 0000000180004be0 f i OposVariant.obj
 0001:00003c70       ?ObjectMain@CComObjectRootBase@ATL@@SAX_N@Z 0000000180004c70 f i MSR.obj
 0001:00003c80       ?GetCategoryMap@CComObjectRootBase@ATL@@SAPEBU_ATL_CATMAP_ENTRY@2@XZ 0000000180004c80 f i MSR.obj
 0001:00003c90       ?GetObjectDescription@?$CComCoClass@VCOPOSMSR@@$1?CLSID_OPOSMSR@@3U_GUID@@B@ATL@@SAPEB_WXZ 0000000180004c90 f i MSR.obj
 0001:00003ca0       ?UpdateRegistry@COPOSMSR@@SAJH@Z 0000000180004ca0 f i MSR.obj
 0001:00003cd0       ?CreateInstance@?$CComCreator@V?$CComObjectCached@VCComClassFactory@ATL@@@ATL@@@ATL@@SAJPEAXAEBU_GUID@@PEAPEAX@Z 0000000180004cd0 f i MSR.obj
 0001:00003ea0       ?CreateInstance@?$CComCreator2@V?$CComCreator@V?$CComObject@VCOPOSMSR@@@ATL@@@ATL@@V?$CComCreator@V?$CComAggObject@VCOPOSMSR@@@ATL@@@2@@ATL@@SAJPEAXAEBU_GUID@@PEAPEAX@Z 0000000180004ea0 f i MSR.obj
 0001:00004090       DllGetClassObject          0000000180005090 f   MSR.obj
 0001:000040d0       DllCanUnloadNow            00000001800050d0 f   MSR.obj
 0001:00004110       DllRegisterServer          0000000180005110 f   MSR.obj
 0001:00004140       DllUnregisterServer        0000000180005140 f   MSR.obj
 0001:00004300       DllMain                    0000000180005300 f   MSR.obj
 0001:00004370       ??$?2G@Wrapper@?$CSimpleArray@GV?$CSimpleArrayEqualHelper@G@ATL@@@ATL@@SAPEAX_KPEAG@Z 0000000180005370 f i MSR.obj
 0001:00004390       ??$?2PEA_W@?$Wrapper@PEA_W@?$CSimpleMap@PEA_WPEA_WVCExpansionVectorEqualHelper@ATL@@@ATL@@SAPEAX_KPEAPEA_W@Z 0000000180005390 f i MSR.obj
 0001:000043b0       ??$?4UITypeInfo2@@@?$CComPtr@UITypeInfo@@@ATL@@QEAAPEAUITypeInfo@@AEBV?$CComPtr@UITypeInfo2@@@1@@Z 00000001800053b0 f i MSR.obj
 0001:00004410       ??$AtlAdd@_K@ATL@@YAJPEA_K_K1@Z 0000000180005410 f i MSR.obj
 0001:00004470       ??$AtlAddThrow@_K@ATL@@YA_K_K0@Z 0000000180005470 f i MSR.obj
 0001:000044e0       ??$AtlModuleRegisterWndClassInfoT@VAtlModuleRegisterWndClassInfoParamW@ATL@@@ATL@@YAGPEAU_ATL_BASE_MODULE70@0@PEAU_ATL_WIN_MODULE70@0@PEAU_ATL_WNDCLASSINFOW@0@PEAP6A_JPEAUHWND__@@I_K_J@ZVAtlModuleRegisterWndClassInfoParamW@0@@Z 00000001800054e0 f i MSR.obj
 0001:00004ab0       ??$AtlMultiply@H@ATL@@YAJPEAHHH@Z 0000000180005ab0 f i MSR.obj
 0001:00004b10       ??$AtlMultiply@K@ATL@@YAJPEAKKK@Z 0000000180005b10 f i MSR.obj
 0001:00004b60       ??$AtlMultiplyThrow@_K@ATL@@YA_K_K0@Z 0000000180005b60 f i MSR.obj
 0001:00004bd0       ??$QueryInterface@UIPersistStream@@@IUnknown@@QEAAJPEAPEAUIPersistStream@@@Z 0000000180005bd0 f i MSR.obj
 0001:00004c00       ??$QueryInterface@UITypeInfo2@@@IUnknown@@QEAAJPEAPEAUITypeInfo2@@@Z 0000000180005c00 f i MSR.obj
 0001:00004c30       ??0?$CAtlModuleT@VCComModule@ATL@@@ATL@@QEAA@XZ 0000000180005c30 f i MSR.obj
 0001:00004c60       ??0?$CAtlSafeAllocBufferManager@VCCRTAllocator@ATL@@@_ATL_SAFE_ALLOCA_IMPL@ATL@@QEAA@XZ 0000000180005c60 f i MSR.obj
 0001:00004c80       ??0?$CAutoVectorPtr@_W@ATL@@QEAA@XZ 0000000180005c80 f i MSR.obj
 0001:00004ca0       ??0?$CComAggObject@VCOPOSMSR@@@ATL@@QEAA@PEAX@Z 0000000180005ca0 f i MSR.obj
 0001:00004d10       ??0?$CComContainedObject@VCOPOSMSR@@@ATL@@QEAA@PEAX@Z 0000000180005d10 f i MSR.obj
 0001:00004ea0       ??0?$CComCritSecLock@VCComCriticalSection@ATL@@@ATL@@QEAA@AEAVCComCriticalSection@1@_N@Z 0000000180005ea0 f i MSR.obj
 0001:00004f00       ??0?$CComEnum@UIEnumConnectionPoints@@$1?_GUID_b196b285_bab4_101a_b69c_00aa00341d07@@3U__s_GUID@@BPEAUIConnectionPoint@@V?$_CopyInterface@UIConnectionPoint@@@ATL@@VCComSingleThreadModel@6@@ATL@@QEAA@XZ 0000000180005f00 f i MSR.obj
 0001:00004f30       ??0?$CComEnum@UIEnumConnections@@$1?_GUID_b196b287_bab4_101a_b69c_00aa00341d07@@3U__s_GUID@@BUtagCONNECTDATA@@V?$_Copy@UtagCONNECTDATA@@@ATL@@VCComSingleThreadModel@6@@ATL@@QEAA@XZ 0000000180005f30 f i MSR.obj
 0001:00004f60       ??0?$CComEnumImpl@UIEnumConnectionPoints@@$1?_GUID_b196b285_bab4_101a_b69c_00aa00341d07@@3U__s_GUID@@BPEAUIConnectionPoint@@V?$_CopyInterface@UIConnectionPoint@@@ATL@@@ATL@@QEAA@XZ 0000000180005f60 f i MSR.obj
 0001:00004fd0       ??0?$CComEnumImpl@UIEnumConnections@@$1?_GUID_b196b287_bab4_101a_b69c_00aa00341d07@@3U__s_GUID@@BUtagCONNECTDATA@@V?$_Copy@UtagCONNECTDATA@@@ATL@@@ATL@@QEAA@XZ 0000000180005fd0 f i MSR.obj
 0001:00005040       ??0?$CComObject@V?$CComEnum@UIEnumConnectionPoints@@$1?_GUID_b196b285_bab4_101a_b69c_00aa00341d07@@3U__s_GUID@@BPEAUIConnectionPoint@@V?$_CopyInterface@UIConnectionPoint@@@ATL@@VCComSingleThreadModel@6@@ATL@@@ATL@@QEAA@PEAX@Z 0000000180006040 f i MSR.obj
 0001:00005090       ??0?$CComObject@V?$CComEnum@UIEnumConnections@@$1?_GUID_b196b287_bab4_101a_b69c_00aa00341d07@@3U__s_GUID@@BUtagCONNECTDATA@@V?$_Copy@UtagCONNECTDATA@@@ATL@@VCComSingleThreadModel@6@@ATL@@@ATL@@QEAA@PEAX@Z 0000000180006090 f i MSR.obj
 0001:000050e0       ??0?$CComObject@VCOPOSMSR@@@ATL@@QEAA@PEAX@Z 00000001800060e0 f i MSR.obj
 0001:00005270       ??0?$CComObjectCached@VCComClassFactory@ATL@@@ATL@@QEAA@PEAX@Z 0000000180006270 f i MSR.obj
 0001:000052b0       ??0?$CComObjectRootEx@VCComMultiThreadModel@ATL@@@ATL@@QEAA@XZ 00000001800062b0 f i MSR.obj
 0001:000052e0       ??0?$CComObjectRootEx@VCComSingleThreadModel@ATL@@@ATL@@QEAA@XZ 00000001800062e0 f i MSR.obj
 0001:00005300       ??0?$CComPtr@UIAdviseSink@@@ATL@@QEAA@PEAUIAdviseSink@@@Z 0000000180006300 f i MSR.obj
 0001:00005330       ??0?$CComPtr@UICatRegister@@@ATL@@QEAA@XZ 0000000180006330 f i MSR.obj
 0001:00005350       ??0?$CComPtr@UIConnectionPoint@@@ATL@@QEAA@XZ 0000000180006350 f i MSR.obj
 0001:00005370       ??0?$CComPtr@UIConnectionPointContainer@@@ATL@@QEAA@XZ 0000000180006370 f i MSR.obj
 0001:00005390       ??0?$CComPtr@UIDataObject@@@ATL@@QEAA@XZ 0000000180006390 f i MSR.obj
 0001:000053b0       ??0?$CComPtr@UIDispatch@@@ATL@@QEAA@XZ 00000001800063b0 f i MSR.obj
 0001:000053d0       ??0?$CComPtr@UIOleClientSite@@@ATL@@QEAA@PEAUIOleClientSite@@@Z 00000001800063d0 f i MSR.obj
 0001:00005400       ??0?$CComPtr@UIOleControlSite@@@ATL@@QEAA@XZ 0000000180006400 f i MSR.obj
 0001:00005420       ??0?$CComPtr@UIOleInPlaceActiveObject@@@ATL@@QEAA@XZ 0000000180006420 f i MSR.obj
 0001:00005440       ??0?$CComPtr@UIOleInPlaceFrame@@@ATL@@QEAA@XZ 0000000180006440 f i MSR.obj
 0001:00005460       ??0?$CComPtr@UIOleInPlaceObject@@@ATL@@QEAA@XZ 0000000180006460 f i MSR.obj
 0001:00005480       ??0?$CComPtr@UIOleInPlaceUIWindow@@@ATL@@QEAA@XZ 0000000180006480 f i MSR.obj
 0001:000054a0       ??0?$CComPtr@UIOleObject@@@ATL@@QEAA@XZ 00000001800064a0 f i MSR.obj
 0001:000054c0       ??0?$CComPtr@UIPersistStream@@@ATL@@QEAA@XZ 00000001800064c0 f i MSR.obj
 0001:000054e0       ??0?$CComPtr@UIPersistStreamInit@@@ATL@@QEAA@XZ 00000001800064e0 f i MSR.obj
 0001:00005500       ??0?$CComPtr@UIPointerInactive@@@ATL@@QEAA@XZ 0000000180006500 f i MSR.obj
 0001:00005520       ??0?$CComPtr@UIProvideClassInfo2@@@ATL@@QEAA@XZ 0000000180006520 f i MSR.obj
 0001:00005540       ??0?$CComPtr@UISpecifyPropertyPages@@@ATL@@QEAA@XZ 0000000180006540 f i MSR.obj
 0001:00005560       ??0?$CComPtr@UIStream@@@ATL@@QEAA@XZ 0000000180006560 f i MSR.obj
 0001:00005580       ??0?$CComPtr@UITypeInfo2@@@ATL@@QEAA@XZ 0000000180006580 f i MSR.obj
 0001:000055a0       ??0?$CComPtr@UITypeInfo@@@ATL@@QEAA@AEBV01@@Z 00000001800065a0 f i MSR.obj
 0001:000055d0       ??0?$CComPtr@UITypeInfo@@@ATL@@QEAA@XZ 00000001800065d0 f i MSR.obj
 0001:000055f0       ??0?$CComPtr@UITypeLib@@@ATL@@QEAA@XZ 00000001800065f0 f i MSR.obj
 0001:00005610       ??0?$CComPtr@UIUnknown@@@ATL@@QEAA@AEBV01@@Z 0000000180006610 f i MSR.obj
 0001:00005640       ??0?$CComPtr@UIUnknown@@@ATL@@QEAA@PEAUIUnknown@@@Z 0000000180006640 f i MSR.obj
 0001:00005670       ??0?$CComPtr@UIUnknown@@@ATL@@QEAA@XZ 0000000180006670 f i MSR.obj
 0001:00005690       ??0?$CComPtr@UIViewObjectEx@@@ATL@@QEAA@XZ 0000000180006690 f i MSR.obj
 0001:000056b0       ??0?$CComPtrBase@UIAdviseSink@@@ATL@@IEAA@PEAUIAdviseSink@@@Z 00000001800066b0 f i MSR.obj
 0001:00005700       ??0?$CComPtrBase@UICatRegister@@@ATL@@IEAA@XZ 0000000180006700 f i MSR.obj
 0001:00005720       ??0?$CComPtrBase@UIConnectionPoint@@@ATL@@IEAA@XZ 0000000180006720 f i MSR.obj
 0001:00005740       ??0?$CComPtrBase@UIConnectionPointContainer@@@ATL@@IEAA@XZ 0000000180006740 f i MSR.obj
 0001:00005760       ??0?$CComPtrBase@UIDataObject@@@ATL@@IEAA@XZ 0000000180006760 f i MSR.obj
 0001:00005780       ??0?$CComPtrBase@UIDispatch@@@ATL@@IEAA@XZ 0000000180006780 f i MSR.obj
 0001:000057a0       ??0?$CComPtrBase@UIOleClientSite@@@ATL@@IEAA@PEAUIOleClientSite@@@Z 00000001800067a0 f i MSR.obj
 0001:000057f0       ??0?$CComPtrBase@UIOleControlSite@@@ATL@@IEAA@XZ 00000001800067f0 f i MSR.obj
 0001:00005810       ??0?$CComPtrBase@UIOleInPlaceActiveObject@@@ATL@@IEAA@XZ 0000000180006810 f i MSR.obj
 0001:00005830       ??0?$CComPtrBase@UIOleInPlaceFrame@@@ATL@@IEAA@XZ 0000000180006830 f i MSR.obj
 0001:00005850       ??0?$CComPtrBase@UIOleInPlaceObject@@@ATL@@IEAA@XZ 0000000180006850 f i MSR.obj
 0001:00005870       ??0?$CComPtrBase@UIOleInPlaceUIWindow@@@ATL@@IEAA@XZ 0000000180006870 f i MSR.obj
 0001:00005890       ??0?$CComPtrBase@UIOleObject@@@ATL@@IEAA@XZ 0000000180006890 f i MSR.obj
 0001:000058b0       ??0?$CComPtrBase@UIPersistStream@@@ATL@@IEAA@XZ 00000001800068b0 f i MSR.obj
 0001:000058d0       ??0?$CComPtrBase@UIPersistStreamInit@@@ATL@@IEAA@XZ 00000001800068d0 f i MSR.obj
 0001:000058f0       ??0?$CComPtrBase@UIPointerInactive@@@ATL@@IEAA@XZ 00000001800068f0 f i MSR.obj
 0001:00005910       ??0?$CComPtrBase@UIProvideClassInfo2@@@ATL@@IEAA@XZ 0000000180006910 f i MSR.obj
 0001:00005930       ??0?$CComPtrBase@UISpecifyPropertyPages@@@ATL@@IEAA@XZ 0000000180006930 f i MSR.obj
 0001:00005950       ??0?$CComPtrBase@UIStream@@@ATL@@IEAA@XZ 0000000180006950 f i MSR.obj
 0001:00005970       ??0?$CComPtrBase@UITypeInfo2@@@ATL@@IEAA@XZ 0000000180006970 f i MSR.obj
 0001:00005990       ??0?$CComPtrBase@UITypeInfo@@@ATL@@IEAA@PEAUITypeInfo@@@Z 0000000180006990 f i MSR.obj
 0001:000059e0       ??0?$CComPtrBase@UITypeInfo@@@ATL@@IEAA@XZ 00000001800069e0 f i MSR.obj
 0001:00005a00       ??0?$CComPtrBase@UITypeLib@@@ATL@@IEAA@XZ 0000000180006a00 f i MSR.obj
 0001:00005a20       ??0?$CComPtrBase@UIUnknown@@@ATL@@IEAA@PEAUIUnknown@@@Z 0000000180006a20 f i MSR.obj
 0001:00005a70       ??0?$CComPtrBase@UIUnknown@@@ATL@@IEAA@XZ 0000000180006a70 f i MSR.obj
 0001:00005a90       ??0?$CComPtrBase@UIViewObjectEx@@@ATL@@IEAA@XZ 0000000180006a90 f i MSR.obj
 0001:00005ab0       ??0?$CComQIPtr@UIOleControlSite@@$1?_GUID_b196b289_bab4_101a_b69c_00aa00341d07@@3U__s_GUID@@B@ATL@@QEAA@PEAUIUnknown@@@Z 0000000180006ab0 f i MSR.obj
 0001:00005b10       ??0?$CComQIPtr@UIOleObject@@$1?_GUID_00000112_0000_0000_c000_000000000046@@3U__s_GUID@@B@ATL@@QEAA@XZ 0000000180006b10 f i MSR.obj
 0001:00005b30       ??0?$CComQIPtr@UISpecifyPropertyPages@@$1?_GUID_b196b28b_bab4_101a_b69c_00aa00341d07@@3U__s_GUID@@B@ATL@@QEAA@XZ 0000000180006b30 f i MSR.obj
 0001:00005b50       ??0?$CSimpleMap@PEA_WPEA_WVCExpansionVectorEqualHelper@ATL@@@ATL@@QEAA@XZ 0000000180006b50 f i MSR.obj
 0001:00005b90       ??0?$CTempBuffer@E$0BAA@VCCRTAllocator@ATL@@@ATL@@QEAA@XZ 0000000180006b90 f i MSR.obj
 0001:00005bb0       ??0?$CTempBuffer@_W$0BAA@VCCRTAllocator@ATL@@@ATL@@QEAA@XZ 0000000180006bb0 f i MSR.obj
 0001:00005bd0       ??0?$CTempBuffer@_W$0EAA@VCCRTAllocator@ATL@@@ATL@@QEAA@XZ 0000000180006bd0 f i MSR.obj
 0001:00005bf0       ??0?$Wrapper@PEA_W@?$CSimpleMap@PEA_WPEA_WVCExpansionVectorEqualHelper@ATL@@@ATL@@QEAA@AEBQEA_W@Z 0000000180006bf0 f i MSR.obj
 0001:00005c20       ??0CAtlModule@ATL@@QEAA@XZ 0000000180006c20 f i MSR.obj
 0001:00005d80       ??0CComAutoDeleteCriticalSection@ATL@@QEAA@XZ 0000000180006d80 f i MSR.obj
 0001:00005da0       ??0CComBSTR@ATL@@QEAA@XZ   0000000180006da0 f i MSR.obj
 0001:00005dc0       ??0CComClassFactory@ATL@@QEAA@XZ 0000000180006dc0 f i MSR.obj
 0001:00005e00       ??0CComModule@ATL@@QEAA@XZ 0000000180006e00 f i MSR.obj
 0001:00005e80       ??0CComObjectRootBase@ATL@@QEAA@XZ 0000000180006e80 f i MSR.obj
 0001:00005ea0       ??0CComSafeDeleteCriticalSection@ATL@@QEAA@XZ 0000000180006ea0 f i MSR.obj
 0001:00005ed0       ??0CComVariant@ATL@@QEAA@XZ 0000000180006ed0 f i MSR.obj
 0001:00005f10       ??0CExpansionVector@ATL@@QEAA@XZ 0000000180006f10 f i MSR.obj
 0001:00005f30       ??0CParseBuffer@CRegParser@ATL@@QEAA@H@Z 0000000180006f30 f i MSR.obj
 0001:00005fb0       ??0CRegKey@ATL@@QEAA@PEAUHKEY__@@@Z 0000000180006fb0 f i MSR.obj
 0001:00005ff0       ??0CRegKey@ATL@@QEAA@PEAVCAtlTransactionManager@1@@Z 0000000180006ff0 f i MSR.obj
 0001:00006030       ??0CRegObject@ATL@@QEAA@XZ 0000000180007030 f i MSR.obj
 0001:00006070       ??0CRegParser@ATL@@QEAA@PEAVCRegObject@1@@Z 0000000180007070 f i MSR.obj
 0001:000060a0       ??0IClassFactory@@QEAA@XZ  00000001800070a0 f i MSR.obj
 0001:000060c0       ??0IEnumConnectionPoints@@QEAA@XZ 00000001800070c0 f i MSR.obj
 0001:000060e0       ??0IEnumConnections@@QEAA@XZ 00000001800070e0 f i MSR.obj
 0001:00006100       ??0IRegistrarBase@@QEAA@XZ 0000000180007100 f i MSR.obj
 0001:00006120       ??0IUnknown@@QEAA@XZ       0000000180007120 f i MSR.obj
 0001:00006130       ??0ModuleLockHelper@ATL@@QEAA@XZ 0000000180007130 f i MSR.obj
 0001:00006160       ??0OposVariant@@QEAA@XZ    0000000180007160 f i MSR.obj
 0001:00006180       ??0Wrapper@?$CSimpleArray@GV?$CSimpleArrayEqualHelper@G@ATL@@@ATL@@QEAA@AEBG@Z 0000000180007180 f i MSR.obj
 0001:000061b0       ??0_ATL_MODULE70@ATL@@QEAA@XZ 00000001800071b0 f i MSR.obj
 0001:000061e0       ??0_ATL_MSG@ATL@@QEAA@PEAUHWND__@@I_K_JH@Z 00000001800071e0 f i MSR.obj
 0001:00006270       ??0_U_MENUorID@ATL@@QEAA@I@Z 0000000180007270 f i MSR.obj
 0001:00006290       ??0_U_RECT@ATL@@QEAA@AEAUtagRECT@@@Z 0000000180007290 f i MSR.obj
 0001:000062b0       ??0stringdispid@CComTypeInfoHolder@ATL@@QEAA@XZ 00000001800072b0 f i MSR.obj
 0001:000062f0       ??1?$CAtlModuleT@VCComModule@ATL@@@ATL@@UEAA@XZ 00000001800072f0 f i MSR.obj
 0001:00006310       ??1?$CAtlSafeAllocBufferManager@VCCRTAllocator@ATL@@@_ATL_SAFE_ALLOCA_IMPL@ATL@@QEAA@XZ 0000000180007310 f i MSR.obj
 0001:00006360       ??1?$CAutoVectorPtr@_W@ATL@@QEAA@XZ 0000000180007360 f i MSR.obj
 0001:00006380       ??1?$CComAggObject@VCOPOSMSR@@@ATL@@UEAA@XZ 0000000180007380 f i MSR.obj
 0001:000063f0       ??1?$CComContainedObject@VCOPOSMSR@@@ATL@@UEAA@XZ 00000001800073f0 f i MSR.obj
 0001:00006410       ??1?$CComCritSecLock@VCComCriticalSection@ATL@@@ATL@@QEAA@XZ 0000000180007410 f i MSR.obj
 0001:00006440       ??1?$CComEnum@UIEnumConnectionPoints@@$1?_GUID_b196b285_bab4_101a_b69c_00aa00341d07@@3U__s_GUID@@BPEAUIConnectionPoint@@V?$_CopyInterface@UIConnectionPoint@@@ATL@@VCComSingleThreadModel@6@@ATL@@UEAA@XZ 0000000180007440 f i MSR.obj
 0001:00006470       ??1?$CComEnum@UIEnumConnections@@$1?_GUID_b196b287_bab4_101a_b69c_00aa00341d07@@3U__s_GUID@@BUtagCONNECTDATA@@V?$_Copy@UtagCONNECTDATA@@@ATL@@VCComSingleThreadModel@6@@ATL@@UEAA@XZ 0000000180007470 f i MSR.obj
 0001:000064a0       ??1?$CComEnumImpl@UIEnumConnectionPoints@@$1?_GUID_b196b285_bab4_101a_b69c_00aa00341d07@@3U__s_GUID@@BPEAUIConnectionPoint@@V?$_CopyInterface@UIConnectionPoint@@@ATL@@@ATL@@UEAA@XZ 00000001800074a0 f i MSR.obj
 0001:00006530       ??1?$CComEnumImpl@UIEnumConnections@@$1?_GUID_b196b287_bab4_101a_b69c_00aa00341d07@@3U__s_GUID@@BUtagCONNECTDATA@@V?$_Copy@UtagCONNECTDATA@@@ATL@@@ATL@@UEAA@XZ 0000000180007530 f i MSR.obj
 0001:000065c0       ??1?$CComObject@V?$CComEnum@UIEnumConnectionPoints@@$1?_GUID_b196b285_bab4_101a_b69c_00aa00341d07@@3U__s_GUID@@BPEAUIConnectionPoint@@V?$_CopyInterface@UIConnectionPoint@@@ATL@@VCComSingleThreadModel@6@@ATL@@@ATL@@UEAA@XZ 00000001800075c0 f i MSR.obj
 0001:00006620       ??1?$CComObject@V?$CComEnum@UIEnumConnections@@$1?_GUID_b196b287_bab4_101a_b69c_00aa00341d07@@3U__s_GUID@@BUtagCONNECTDATA@@V?$_Copy@UtagCONNECTDATA@@@ATL@@VCComSingleThreadModel@6@@ATL@@@ATL@@UEAA@XZ 0000000180007620 f i MSR.obj
 0001:00006680       ??1?$CComObject@VCOPOSMSR@@@ATL@@UEAA@XZ 0000000180007680 f i MSR.obj
 0001:00006820       ??1?$CComObjectCached@VCComClassFactory@ATL@@@ATL@@UEAA@XZ 0000000180007820 f i MSR.obj
 0001:00006870       ??1?$CComObjectRootEx@VCComMultiThreadModel@ATL@@@ATL@@QEAA@XZ 0000000180007870 f i MSR.obj
 0001:000068a0       ??1?$CComObjectRootEx@VCComSingleThreadModel@ATL@@@ATL@@QEAA@XZ 00000001800078a0 f i MSR.obj
 0001:000068c0       ??1?$CComPtr@UIAdviseSink@@@ATL@@QEAA@XZ 00000001800078c0 f i MSR.obj
 0001:000068e0       ??1?$CComPtr@UICatRegister@@@ATL@@QEAA@XZ 00000001800078e0 f i MSR.obj
 0001:00006900       ??1?$CComPtr@UIConnectionPoint@@@ATL@@QEAA@XZ 0000000180007900 f i MSR.obj
 0001:00006920       ??1?$CComPtr@UIConnectionPointContainer@@@ATL@@QEAA@XZ 0000000180007920 f i MSR.obj
 0001:00006940       ??1?$CComPtr@UIDataObject@@@ATL@@QEAA@XZ 0000000180007940 f i MSR.obj
 0001:00006960       ??1?$CComPtr@UIDispatch@@@ATL@@QEAA@XZ 0000000180007960 f i MSR.obj
 0001:00006980       ??1?$CComPtr@UIOleClientSite@@@ATL@@QEAA@XZ 0000000180007980 f i MSR.obj
 0001:000069a0       ??1?$CComPtr@UIOleControlSite@@@ATL@@QEAA@XZ 00000001800079a0 f i MSR.obj
 0001:000069c0       ??1?$CComPtr@UIOleInPlaceActiveObject@@@ATL@@QEAA@XZ 00000001800079c0 f i MSR.obj
 0001:000069e0       ??1?$CComPtr@UIOleInPlaceFrame@@@ATL@@QEAA@XZ 00000001800079e0 f i MSR.obj
 0001:00006a00       ??1?$CComPtr@UIOleInPlaceObject@@@ATL@@QEAA@XZ 0000000180007a00 f i MSR.obj
 0001:00006a20       ??1?$CComPtr@UIOleInPlaceUIWindow@@@ATL@@QEAA@XZ 0000000180007a20 f i MSR.obj
 0001:00006a40       ??1?$CComPtr@UIOleObject@@@ATL@@QEAA@XZ 0000000180007a40 f i MSR.obj
 0001:00006a60       ??1?$CComPtr@UIPersistStream@@@ATL@@QEAA@XZ 0000000180007a60 f i MSR.obj
 0001:00006a80       ??1?$CComPtr@UIPersistStreamInit@@@ATL@@QEAA@XZ 0000000180007a80 f i MSR.obj
 0001:00006aa0       ??1?$CComPtr@UIPointerInactive@@@ATL@@QEAA@XZ 0000000180007aa0 f i MSR.obj
 0001:00006ac0       ??1?$CComPtr@UIProvideClassInfo2@@@ATL@@QEAA@XZ 0000000180007ac0 f i MSR.obj
 0001:00006ae0       ??1?$CComPtr@UISpecifyPropertyPages@@@ATL@@QEAA@XZ 0000000180007ae0 f i MSR.obj
 0001:00006b00       ??1?$CComPtr@UIStream@@@ATL@@QEAA@XZ 0000000180007b00 f i MSR.obj
 0001:00006b20       ??1?$CComPtr@UITypeInfo2@@@ATL@@QEAA@XZ 0000000180007b20 f i MSR.obj
 0001:00006b40       ??1?$CComPtr@UITypeInfo@@@ATL@@QEAA@XZ 0000000180007b40 f i MSR.obj
 0001:00006b60       ??1?$CComPtr@UITypeLib@@@ATL@@QEAA@XZ 0000000180007b60 f i MSR.obj
 0001:00006b80       ??1?$CComPtr@UIUnknown@@@ATL@@QEAA@XZ 0000000180007b80 f i MSR.obj
 0001:00006ba0       ??1?$CComPtr@UIViewObjectEx@@@ATL@@QEAA@XZ 0000000180007ba0 f i MSR.obj
 0001:00006bc0       ??1?$CComPtrBase@UIAdviseSink@@@ATL@@QEAA@XZ 0000000180007bc0 f i MSR.obj
 0001:00006c00       ??1?$CComPtrBase@UICatRegister@@@ATL@@QEAA@XZ 0000000180007c00 f i MSR.obj
 0001:00006c40       ??1?$CComPtrBase@UIConnectionPoint@@@ATL@@QEAA@XZ 0000000180007c40 f i MSR.obj
 0001:00006c80       ??1?$CComPtrBase@UIConnectionPointContainer@@@ATL@@QEAA@XZ 0000000180007c80 f i MSR.obj
 0001:00006cc0       ??1?$CComPtrBase@UIDataObject@@@ATL@@QEAA@XZ 0000000180007cc0 f i MSR.obj
 0001:00006d00       ??1?$CComPtrBase@UIDispatch@@@ATL@@QEAA@XZ 0000000180007d00 f i MSR.obj
 0001:00006d40       ??1?$CComPtrBase@UIOleClientSite@@@ATL@@QEAA@XZ 0000000180007d40 f i MSR.obj
 0001:00006d80       ??1?$CComPtrBase@UIOleControlSite@@@ATL@@QEAA@XZ 0000000180007d80 f i MSR.obj
 0001:00006dc0       ??1?$CComPtrBase@UIOleInPlaceActiveObject@@@ATL@@QEAA@XZ 0000000180007dc0 f i MSR.obj
 0001:00006e00       ??1?$CComPtrBase@UIOleInPlaceFrame@@@ATL@@QEAA@XZ 0000000180007e00 f i MSR.obj
 0001:00006e40       ??1?$CComPtrBase@UIOleInPlaceObject@@@ATL@@QEAA@XZ 0000000180007e40 f i MSR.obj
 0001:00006e80       ??1?$CComPtrBase@UIOleInPlaceUIWindow@@@ATL@@QEAA@XZ 0000000180007e80 f i MSR.obj
 0001:00006ec0       ??1?$CComPtrBase@UIOleObject@@@ATL@@QEAA@XZ 0000000180007ec0 f i MSR.obj
 0001:00006f00       ??1?$CComPtrBase@UIPersistStream@@@ATL@@QEAA@XZ 0000000180007f00 f i MSR.obj
 0001:00006f40       ??1?$CComPtrBase@UIPersistStreamInit@@@ATL@@QEAA@XZ 0000000180007f40 f i MSR.obj
 0001:00006f80       ??1?$CComPtrBase@UIPointerInactive@@@ATL@@QEAA@XZ 0000000180007f80 f i MSR.obj
 0001:00006fc0       ??1?$CComPtrBase@UIProvideClassInfo2@@@ATL@@QEAA@XZ 0000000180007fc0 f i MSR.obj
 0001:00007000       ??1?$CComPtrBase@UISpecifyPropertyPages@@@ATL@@QEAA@XZ 0000000180008000 f i MSR.obj
 0001:00007040       ??1?$CComPtrBase@UIStream@@@ATL@@QEAA@XZ 0000000180008040 f i MSR.obj
 0001:00007080       ??1?$CComPtrBase@UITypeInfo2@@@ATL@@QEAA@XZ 0000000180008080 f i MSR.obj
 0001:000070c0       ??1?$CComPtrBase@UITypeInfo@@@ATL@@QEAA@XZ 00000001800080c0 f i MSR.obj
 0001:00007100       ??1?$CComPtrBase@UITypeLib@@@ATL@@QEAA@XZ 0000000180008100 f i MSR.obj
 0001:00007140       ??1?$CComPtrBase@UIUnknown@@@ATL@@QEAA@XZ 0000000180008140 f i MSR.obj
 0001:00007180       ??1?$CComPtrBase@UIViewObjectEx@@@ATL@@QEAA@XZ 0000000180008180 f i MSR.obj
 0001:000071c0       ??1?$CComQIPtr@UIOleControlSite@@$1?_GUID_b196b289_bab4_101a_b69c_00aa00341d07@@3U__s_GUID@@B@ATL@@QEAA@XZ 00000001800081c0 f i MSR.obj
 0001:000071e0       ??1?$CComQIPtr@UIOleObject@@$1?_GUID_00000112_0000_0000_c000_000000000046@@3U__s_GUID@@B@ATL@@QEAA@XZ 00000001800081e0 f i MSR.obj
 0001:00007200       ??1?$CComQIPtr@UISpecifyPropertyPages@@$1?_GUID_b196b28b_bab4_101a_b69c_00aa00341d07@@3U__s_GUID@@B@ATL@@QEAA@XZ 0000000180008200 f i MSR.obj
 0001:00007220       ??1?$CSimpleMap@PEA_WPEA_WVCExpansionVectorEqualHelper@ATL@@@ATL@@QEAA@XZ 0000000180008220 f i MSR.obj
 0001:00007240       ??1?$CTempBuffer@E$0BAA@VCCRTAllocator@ATL@@@ATL@@QEAA@XZ 0000000180008240 f i MSR.obj
 0001:00007270       ??1?$CTempBuffer@_W$0BAA@VCCRTAllocator@ATL@@@ATL@@QEAA@XZ 0000000180008270 f i MSR.obj
 0001:000072a0       ??1?$CTempBuffer@_W$0EAA@VCCRTAllocator@ATL@@@ATL@@QEAA@XZ 00000001800082a0 f i MSR.obj
 0001:000072d0       ??1CAtlModule@ATL@@UEAA@XZ 00000001800082d0 f i MSR.obj
 0001:00007300       ??1CComAutoDeleteCriticalSection@ATL@@QEAA@XZ 0000000180008300 f i MSR.obj
 0001:00007320       ??1CComClassFactory@ATL@@UEAA@XZ 0000000180008320 f i MSR.obj
 0001:00007350       ??1CComModule@ATL@@UEAA@XZ 0000000180008350 f i MSR.obj
 0001:00007380       ??1CComObjectRootBase@ATL@@QEAA@XZ 0000000180008380 f i MSR.obj
 0001:00007390       ??1CComSafeDeleteCriticalSection@ATL@@QEAA@XZ 0000000180008390 f i MSR.obj
 0001:000073d0       ??1CComVariant@ATL@@QEAA@XZ 00000001800083d0 f i MSR.obj
 0001:00007430       ??1CExpansionVector@ATL@@QEAA@XZ 0000000180008430 f i MSR.obj
 0001:00007460       ??1CParseBuffer@CRegParser@ATL@@QEAA@XZ 0000000180008460 f i MSR.obj
 0001:00007480       ??1CRegKey@ATL@@QEAA@XZ    0000000180008480 f i MSR.obj
 0001:000074a0       ??1CRegObject@ATL@@UEAA@XZ 00000001800084a0 f i MSR.obj
 0001:000074e0       ??1ModuleLockHelper@ATL@@QEAA@XZ 00000001800084e0 f i MSR.obj
 0001:00007510       ??1OposVariant@@QEAA@XZ    0000000180008510 f i MSR.obj
 0001:00007540       ??1_ATL_MODULE70@ATL@@QEAA@XZ 0000000180008540 f i MSR.obj
 0001:00007570       ??4?$CComPtr@UIAdviseSink@@@ATL@@QEAAPEAUIAdviseSink@@PEAU2@@Z 0000000180008570 f i MSR.obj
 0001:000075d0       ??4?$CComPtr@UIOleClientSite@@@ATL@@QEAAPEAUIOleClientSite@@PEAU2@@Z 00000001800085d0 f i MSR.obj
 0001:00007630       ??4?$CComPtr@UIUnknown@@@ATL@@QEAAPEAUIUnknown@@PEAU2@@Z 0000000180008630 f i MSR.obj
 0001:00007690       ??4?$CComQIPtr@UIOleObject@@$1?_GUID_00000112_0000_0000_c000_000000000046@@3U__s_GUID@@B@ATL@@QEAAPEAUIOleObject@@PEAUIUnknown@@@Z 0000000180008690 f i MSR.obj
 0001:000076e0       ??4?$CComQIPtr@UISpecifyPropertyPages@@$1?_GUID_b196b28b_bab4_101a_b69c_00aa00341d07@@3U__s_GUID@@B@ATL@@QEAAPEAUISpecifyPropertyPages@@PEAUIUnknown@@@Z 00000001800086e0 f i MSR.obj
 0001:00007730       ??7?$CComPtrBase@UIOleClientSite@@@ATL@@QEBA_NXZ 0000000180008730 f i MSR.obj
 0001:00007760       ??7?$CComPtrBase@UIOleInPlaceSiteWindowless@@@ATL@@QEBA_NXZ 0000000180008760 f i MSR.obj
 0001:00007790       ??7CComBSTR@ATL@@QEBA_NXZ  0000000180008790 f i MSR.obj
 0001:000077c0       ??8?$CComPtrBase@UIConnectionPointContainer@@@ATL@@QEBA_NPEAUIConnectionPointContainer@@@Z 00000001800087c0 f i MSR.obj
 0001:00007800       ??8?$CComPtrBase@UIDataAdviseHolder@@@ATL@@QEBA_NPEAUIDataAdviseHolder@@@Z 0000000180008800 f i MSR.obj
 0001:00007840       ??8?$CComPtrBase@UIOleAdviseHolder@@@ATL@@QEBA_NPEAUIOleAdviseHolder@@@Z 0000000180008840 f i MSR.obj
 0001:00007880       ??8?$CComPtrBase@UIOleClientSite@@@ATL@@QEBA_NPEAUIOleClientSite@@@Z 0000000180008880 f i MSR.obj
 0001:000078c0       ??8?$CComPtrBase@UIOleControlSite@@@ATL@@QEBA_NPEAUIOleControlSite@@@Z 00000001800088c0 f i MSR.obj
 0001:00007900       ??8?$CComPtrBase@UIOleInPlaceObject@@@ATL@@QEBA_NPEAUIOleInPlaceObject@@@Z 0000000180008900 f i MSR.obj
 0001:00007940       ??8?$CComPtrBase@UIOleInPlaceSiteWindowless@@@ATL@@QEBA_NPEAUIOleInPlaceSiteWindowless@@@Z 0000000180008940 f i MSR.obj
 0001:00007980       ??8?$CComPtrBase@UIOleObject@@@ATL@@QEBA_NPEAUIOleObject@@@Z 0000000180008980 f i MSR.obj
 0001:000079c0       ??8?$CComPtrBase@UIPersistStream@@@ATL@@QEBA_NPEAUIPersistStream@@@Z 00000001800089c0 f i MSR.obj
 0001:00007a00       ??8?$CComPtrBase@UIPersistStreamInit@@@ATL@@QEBA_NPEAUIPersistStreamInit@@@Z 0000000180008a00 f i MSR.obj
 0001:00007a40       ??8?$CComPtrBase@UIPointerInactive@@@ATL@@QEBA_NPEAUIPointerInactive@@@Z 0000000180008a40 f i MSR.obj
 0001:00007a80       ??8?$CComPtrBase@UIUnknown@@@ATL@@QEBA_NPEAUIUnknown@@@Z 0000000180008a80 f i MSR.obj
 0001:00007ac0       ??8?$CComPtrBase@UIViewObjectEx@@@ATL@@QEBA_NPEAUIViewObjectEx@@@Z 0000000180008ac0 f i MSR.obj
 0001:00007b00       ??8CComBSTR@ATL@@QEBA_NH@Z 0000000180008b00 f i MSR.obj
 0001:00007b60       ??9?$CComPtrBase@UIConnectionPointContainer@@@ATL@@QEBA_NPEAUIConnectionPointContainer@@@Z 0000000180008b60 f i MSR.obj
 0001:00007bb0       ??9?$CComPtrBase@UIDataAdviseHolder@@@ATL@@QEBA_NPEAUIDataAdviseHolder@@@Z 0000000180008bb0 f i MSR.obj
 0001:00007c00       ??9?$CComPtrBase@UIOleAdviseHolder@@@ATL@@QEBA_NPEAUIOleAdviseHolder@@@Z 0000000180008c00 f i MSR.obj
 0001:00007c50       ??9?$CComPtrBase@UIOleClientSite@@@ATL@@QEBA_NPEAUIOleClientSite@@@Z 0000000180008c50 f i MSR.obj
 0001:00007ca0       ??9?$CComPtrBase@UIOleControlSite@@@ATL@@QEBA_NPEAUIOleControlSite@@@Z 0000000180008ca0 f i MSR.obj
 0001:00007cf0       ??9?$CComPtrBase@UIOleInPlaceObject@@@ATL@@QEBA_NPEAUIOleInPlaceObject@@@Z 0000000180008cf0 f i MSR.obj
 0001:00007d40       ??9?$CComPtrBase@UIOleInPlaceSiteWindowless@@@ATL@@QEBA_NPEAUIOleInPlaceSiteWindowless@@@Z 0000000180008d40 f i MSR.obj
 0001:00007d90       ??9?$CComPtrBase@UIOleObject@@@ATL@@QEBA_NPEAUIOleObject@@@Z 0000000180008d90 f i MSR.obj
 0001:00007de0       ??9?$CComPtrBase@UIPersistStream@@@ATL@@QEBA_NPEAUIPersistStream@@@Z 0000000180008de0 f i MSR.obj
 0001:00007e30       ??9?$CComPtrBase@UIPersistStreamInit@@@ATL@@QEBA_NPEAUIPersistStreamInit@@@Z 0000000180008e30 f i MSR.obj
 0001:00007e80       ??9?$CComPtrBase@UIPointerInactive@@@ATL@@QEBA_NPEAUIPointerInactive@@@Z 0000000180008e80 f i MSR.obj
 0001:00007ed0       ??9?$CComPtrBase@UIUnknown@@@ATL@@QEBA_NPEAUIUnknown@@@Z 0000000180008ed0 f i MSR.obj
 0001:00007f20       ??9?$CComPtrBase@UIViewObjectEx@@@ATL@@QEBA_NPEAUIViewObjectEx@@@Z 0000000180008f20 f i MSR.obj
 0001:00007f70       ??9CComBSTR@ATL@@QEBA_NH@Z 0000000180008f70 f i MSR.obj
 0001:00007fb0       ??B?$CComPtrBase@UIAdviseSink@@@ATL@@QEBAPEAUIAdviseSink@@XZ 0000000180008fb0 f i MSR.obj
 0001:00007fc0       ??B?$CComPtrBase@UIDataAdviseHolder@@@ATL@@QEBAPEAUIDataAdviseHolder@@XZ 0000000180008fc0 f i MSR.obj
 0001:00007fd0       ??B?$CComPtrBase@UIDataObject@@@ATL@@QEBAPEAUIDataObject@@XZ 0000000180008fd0 f i MSR.obj
 0001:00007fe0       ??B?$CComPtrBase@UIOleAdviseHolder@@@ATL@@QEBAPEAUIOleAdviseHolder@@XZ 0000000180008fe0 f i MSR.obj
 0001:00007ff0       ??B?$CComPtrBase@UIOleClientSite@@@ATL@@QEBAPEAUIOleClientSite@@XZ 0000000180008ff0 f i MSR.obj
 0001:00008000       ??B?$CComPtrBase@UIOleControlSite@@@ATL@@QEBAPEAUIOleControlSite@@XZ 0000000180009000 f i MSR.obj
 0001:00008010       ??B?$CComPtrBase@UIOleInPlaceActiveObject@@@ATL@@QEBAPEAUIOleInPlaceActiveObject@@XZ 0000000180009010 f i MSR.obj
 0001:00008020       ??B?$CComPtrBase@UIOleInPlaceFrame@@@ATL@@QEBAPEAUIOleInPlaceFrame@@XZ 0000000180009020 f i MSR.obj
 0001:00008030       ??B?$CComPtrBase@UIOleInPlaceSiteWindowless@@@ATL@@QEBAPEAUIOleInPlaceSiteWindowless@@XZ 0000000180009030 f i MSR.obj
 0001:00008040       ??B?$CComPtrBase@UIOleInPlaceUIWindow@@@ATL@@QEBAPEAUIOleInPlaceUIWindow@@XZ 0000000180009040 f i MSR.obj
 0001:00008050       ??B?$CComPtrBase@UIOleObject@@@ATL@@QEBAPEAUIOleObject@@XZ 0000000180009050 f i MSR.obj
 0001:00008060       ??B?$CComPtrBase@UIPersistStream@@@ATL@@QEBAPEAUIPersistStream@@XZ 0000000180009060 f i MSR.obj
 0001:00008070       ??B?$CComPtrBase@UIProvideClassInfo2@@@ATL@@QEBAPEAUIProvideClassInfo2@@XZ 0000000180009070 f i MSR.obj
 0001:00008080       ??B?$CComPtrBase@UISpecifyPropertyPages@@@ATL@@QEBAPEAUISpecifyPropertyPages@@XZ 0000000180009080 f i MSR.obj
 0001:00008090       ??B?$CComPtrBase@UIStream@@@ATL@@QEBAPEAUIStream@@XZ 0000000180009090 f i MSR.obj
 0001:000080a0       ??B?$CComPtrBase@UITypeInfo2@@@ATL@@QEBAPEAUITypeInfo2@@XZ 00000001800090a0 f i MSR.obj
 0001:000080b0       ??B?$CComPtrBase@UITypeInfo@@@ATL@@QEBAPEAUITypeInfo@@XZ 00000001800090b0 f i MSR.obj
 0001:000080c0       ??B?$CComPtrBase@UITypeLib@@@ATL@@QEBAPEAUITypeLib@@XZ 00000001800090c0 f i MSR.obj
 0001:000080d0       ??B?$CComPtrBase@UIUnknown@@@ATL@@QEBAPEAUIUnknown@@XZ 00000001800090d0 f i MSR.obj
 0001:000080e0       ??B?$CTempBuffer@E$0BAA@VCCRTAllocator@ATL@@@ATL@@QEBAPEAEXZ 00000001800090e0 f i MSR.obj
 0001:000080f0       ??B?$CTempBuffer@_W$0BAA@VCCRTAllocator@ATL@@@ATL@@QEBAPEA_WXZ 00000001800090f0 f i MSR.obj
 0001:00008100       ??B?$CTempBuffer@_W$0EAA@VCCRTAllocator@ATL@@@ATL@@QEBAPEA_WXZ 0000000180009100 f i MSR.obj
 0001:00008110       ??B?$CTraceCategoryEx@$00$0A@@ATL@@QEAAIXZ 0000000180009110 f i MSR.obj
 0001:00008120       ??B?$CTraceCategoryEx@$07$0A@@ATL@@QEAAIXZ 0000000180009120 f i MSR.obj
 0001:00008130       ??B?$CTraceCategoryEx@$0CAAA@$0A@@ATL@@QEAAIXZ 0000000180009130 f i MSR.obj
 0001:00008140       ??B?$CTraceCategoryEx@$0EA@$0A@@ATL@@QEAAIXZ 0000000180009140 f i MSR.obj
 0001:00008150       ??B?$CTraceCategoryEx@$0IAA@$0A@@ATL@@QEAAIXZ 0000000180009150 f i MSR.obj
 0001:00008160       ??BCComBSTR@ATL@@QEBAPEA_WXZ 0000000180009160 f i MSR.obj
 0001:00008170       ??BCRegKey@ATL@@QEBAPEAUHKEY__@@XZ 0000000180009170 f i MSR.obj
 0001:00008180       ??C?$CComPtrBase@UIAdviseSink@@@ATL@@QEBAPEAV?$_NoAddRefReleaseOnCComPtr@UIAdviseSink@@@1@XZ 0000000180009180 f i MSR.obj
 0001:000081e0       ??C?$CComPtrBase@UICatRegister@@@ATL@@QEBAPEAV?$_NoAddRefReleaseOnCComPtr@UICatRegister@@@1@XZ 00000001800091e0 f i MSR.obj
 0001:00008240       ??C?$CComPtrBase@UIConnectionPoint@@@ATL@@QEBAPEAV?$_NoAddRefReleaseOnCComPtr@UIConnectionPoint@@@1@XZ 0000000180009240 f i MSR.obj
 0001:000082a0       ??C?$CComPtrBase@UIConnectionPointContainer@@@ATL@@QEBAPEAV?$_NoAddRefReleaseOnCComPtr@UIConnectionPointContainer@@@1@XZ 00000001800092a0 f i MSR.obj
 0001:00008300       ??C?$CComPtrBase@UIDataAdviseHolder@@@ATL@@QEBAPEAV?$_NoAddRefReleaseOnCComPtr@UIDataAdviseHolder@@@1@XZ 0000000180009300 f i MSR.obj
 0001:00008360       ??C?$CComPtrBase@UIOleAdviseHolder@@@ATL@@QEBAPEAV?$_NoAddRefReleaseOnCComPtr@UIOleAdviseHolder@@@1@XZ 0000000180009360 f i MSR.obj
 0001:000083c0       ??C?$CComPtrBase@UIOleClientSite@@@ATL@@QEBAPEAV?$_NoAddRefReleaseOnCComPtr@UIOleClientSite@@@1@XZ 00000001800093c0 f i MSR.obj
 0001:00008420       ??C?$CComPtrBase@UIOleControlSite@@@ATL@@QEBAPEAV?$_NoAddRefReleaseOnCComPtr@UIOleControlSite@@@1@XZ 0000000180009420 f i MSR.obj
 0001:00008480       ??C?$CComPtrBase@UIOleInPlaceFrame@@@ATL@@QEBAPEAV?$_NoAddRefReleaseOnCComPtr@UIOleInPlaceFrame@@@1@XZ 0000000180009480 f i MSR.obj
 0001:000084e0       ??C?$CComPtrBase@UIOleInPlaceObject@@@ATL@@QEBAPEAV?$_NoAddRefReleaseOnCComPtr@UIOleInPlaceObject@@@1@XZ 00000001800094e0 f i MSR.obj
 0001:00008540       ??C?$CComPtrBase@UIOleInPlaceSiteWindowless@@@ATL@@QEBAPEAV?$_NoAddRefReleaseOnCComPtr@UIOleInPlaceSiteWindowless@@@1@XZ 0000000180009540 f i MSR.obj
 0001:000085a0       ??C?$CComPtrBase@UIOleInPlaceUIWindow@@@ATL@@QEBAPEAV?$_NoAddRefReleaseOnCComPtr@UIOleInPlaceUIWindow@@@1@XZ 00000001800095a0 f i MSR.obj
 0001:00008600       ??C?$CComPtrBase@UIOleObject@@@ATL@@QEBAPEAV?$_NoAddRefReleaseOnCComPtr@UIOleObject@@@1@XZ 0000000180009600 f i MSR.obj
 0001:00008660       ??C?$CComPtrBase@UIPersistStream@@@ATL@@QEBAPEAV?$_NoAddRefReleaseOnCComPtr@UIPersistStream@@@1@XZ 0000000180009660 f i MSR.obj
 0001:000086c0       ??C?$CComPtrBase@UIPersistStreamInit@@@ATL@@QEBAPEAV?$_NoAddRefReleaseOnCComPtr@UIPersistStreamInit@@@1@XZ 00000001800096c0 f i MSR.obj
 0001:00008720       ??C?$CComPtrBase@UIPointerInactive@@@ATL@@QEBAPEAV?$_NoAddRefReleaseOnCComPtr@UIPointerInactive@@@1@XZ 0000000180009720 f i MSR.obj
 0001:00008780       ??C?$CComPtrBase@UIProvideClassInfo2@@@ATL@@QEBAPEAV?$_NoAddRefReleaseOnCComPtr@UIProvideClassInfo2@@@1@XZ 0000000180009780 f i MSR.obj
 0001:000087e0       ??C?$CComPtrBase@UISpecifyPropertyPages@@@ATL@@QEBAPEAV?$_NoAddRefReleaseOnCComPtr@UISpecifyPropertyPages@@@1@XZ 00000001800097e0 f i MSR.obj
 0001:00008840       ??C?$CComPtrBase@UITypeInfo@@@ATL@@QEBAPEAV?$_NoAddRefReleaseOnCComPtr@UITypeInfo@@@1@XZ 0000000180009840 f i MSR.obj
 0001:000088a0       ??C?$CComPtrBase@UITypeLib@@@ATL@@QEBAPEAV?$_NoAddRefReleaseOnCComPtr@UITypeLib@@@1@XZ 00000001800098a0 f i MSR.obj
 0001:00008900       ??C?$CComPtrBase@UIUnknown@@@ATL@@QEBAPEAV?$_NoAddRefReleaseOnCComPtr@UIUnknown@@@1@XZ 0000000180009900 f i MSR.obj
 0001:00008960       ??C?$CComPtrBase@UIViewObjectEx@@@ATL@@QEBAPEAV?$_NoAddRefReleaseOnCComPtr@UIViewObjectEx@@@1@XZ 0000000180009960 f i MSR.obj
 0001:000089c0       ??I?$CComPtrBase@UICatRegister@@@ATL@@QEAAPEAPEAUICatRegister@@XZ 00000001800099c0 f i MSR.obj
 0001:00008a20       ??I?$CComPtrBase@UIConnectionPoint@@@ATL@@QEAAPEAPEAUIConnectionPoint@@XZ 0000000180009a20 f i MSR.obj
 0001:00008a80       ??I?$CComPtrBase@UIConnectionPointContainer@@@ATL@@QEAAPEAPEAUIConnectionPointContainer@@XZ 0000000180009a80 f i MSR.obj
 0001:00008ae0       ??I?$CComPtrBase@UIDataAdviseHolder@@@ATL@@QEAAPEAPEAUIDataAdviseHolder@@XZ 0000000180009ae0 f i MSR.obj
 0001:00008b40       ??I?$CComPtrBase@UIDataObject@@@ATL@@QEAAPEAPEAUIDataObject@@XZ 0000000180009b40 f i MSR.obj
 0001:00008ba0       ??I?$CComPtrBase@UIDispatch@@@ATL@@QEAAPEAPEAUIDispatch@@XZ 0000000180009ba0 f i MSR.obj
 0001:00008c00       ??I?$CComPtrBase@UIOleAdviseHolder@@@ATL@@QEAAPEAPEAUIOleAdviseHolder@@XZ 0000000180009c00 f i MSR.obj
 0001:00008c60       ??I?$CComPtrBase@UIOleControlSite@@@ATL@@QEAAPEAPEAUIOleControlSite@@XZ 0000000180009c60 f i MSR.obj
 0001:00008cc0       ??I?$CComPtrBase@UIOleInPlaceActiveObject@@@ATL@@QEAAPEAPEAUIOleInPlaceActiveObject@@XZ 0000000180009cc0 f i MSR.obj
 0001:00008d20       ??I?$CComPtrBase@UIOleInPlaceFrame@@@ATL@@QEAAPEAPEAUIOleInPlaceFrame@@XZ 0000000180009d20 f i MSR.obj
 0001:00008d80       ??I?$CComPtrBase@UIOleInPlaceObject@@@ATL@@QEAAPEAPEAUIOleInPlaceObject@@XZ 0000000180009d80 f i MSR.obj
 0001:00008de0       ??I?$CComPtrBase@UIOleInPlaceSiteWindowless@@@ATL@@QEAAPEAPEAUIOleInPlaceSiteWindowless@@XZ 0000000180009de0 f i MSR.obj
 0001:00008e40       ??I?$CComPtrBase@UIOleInPlaceUIWindow@@@ATL@@QEAAPEAPEAUIOleInPlaceUIWindow@@XZ 0000000180009e40 f i MSR.obj
 0001:00008ea0       ??I?$CComPtrBase@UIOleObject@@@ATL@@QEAAPEAPEAUIOleObject@@XZ 0000000180009ea0 f i MSR.obj
 0001:00008f00       ??I?$CComPtrBase@UIPersistStream@@@ATL@@QEAAPEAPEAUIPersistStream@@XZ 0000000180009f00 f i MSR.obj
 0001:00008f60       ??I?$CComPtrBase@UIPointerInactive@@@ATL@@QEAAPEAPEAUIPointerInactive@@XZ 0000000180009f60 f i MSR.obj
 0001:00008fc0       ??I?$CComPtrBase@UIProvideClassInfo2@@@ATL@@QEAAPEAPEAUIProvideClassInfo2@@XZ 0000000180009fc0 f i MSR.obj
 0001:00009020       ??I?$CComPtrBase@UIStream@@@ATL@@QEAAPEAPEAUIStream@@XZ 000000018000a020 f i MSR.obj
 0001:00009080       ??I?$CComPtrBase@UITypeInfo2@@@ATL@@QEAAPEAPEAUITypeInfo2@@XZ 000000018000a080 f i MSR.obj
 0001:000090e0       ??I?$CComPtrBase@UITypeInfo@@@ATL@@QEAAPEAPEAUITypeInfo@@XZ 000000018000a0e0 f i MSR.obj
 0001:00009140       ??I?$CComPtrBase@UITypeLib@@@ATL@@QEAAPEAPEAUITypeLib@@XZ 000000018000a140 f i MSR.obj
 0001:000091a0       ??I?$CComPtrBase@UIUnknown@@@ATL@@QEAAPEAPEAUIUnknown@@XZ 000000018000a1a0 f i MSR.obj
 0001:00009200       ??I?$CComPtrBase@UIViewObjectEx@@@ATL@@QEAAPEAPEAUIViewObjectEx@@XZ 000000018000a200 f i MSR.obj
 0001:00009260       ??ICComBSTR@ATL@@QEAAPEAPEA_WXZ 000000018000a260 f i MSR.obj
 0001:00009270       ??_E?$CComContainedObject@VCOPOSMSR@@@ATL@@W7EAAPEAXI@Z 000000018000a270 f i MSR.obj
 0001:0000927c       ??_E?$CComContainedObject@VCOPOSMSR@@@ATL@@WHA@EAAPEAXI@Z 000000018000a27c f i MSR.obj
 0001:00009288       ??_E?$CComObject@VCOPOSMSR@@@ATL@@W7EAAPEAXI@Z 000000018000a288 f i MSR.obj
 0001:00009294       ??_E?$CComObject@VCOPOSMSR@@@ATL@@WHA@EAAPEAXI@Z 000000018000a294 f i MSR.obj
 0001:000092a0       ??_G?$CComAggObject@VCOPOSMSR@@@ATL@@UEAAPEAXI@Z 000000018000a2a0 f i MSR.obj
 0001:000092a0       ??_E?$CComAggObject@VCOPOSMSR@@@ATL@@UEAAPEAXI@Z 000000018000a2a0 f i MSR.obj
 0001:000092e0       ??_G?$CComContainedObject@VCOPOSMSR@@@ATL@@UEAAPEAXI@Z 000000018000a2e0 f i MSR.obj
 0001:000092e0       ??_E?$CComContainedObject@VCOPOSMSR@@@ATL@@UEAAPEAXI@Z 000000018000a2e0 f i MSR.obj
 0001:00009320       ??_G?$CComObject@V?$CComEnum@UIEnumConnectionPoints@@$1?_GUID_b196b285_bab4_101a_b69c_00aa00341d07@@3U__s_GUID@@BPEAUIConnectionPoint@@V?$_CopyInterface@UIConnectionPoint@@@ATL@@VCComSingleThreadModel@6@@ATL@@@ATL@@UEAAPEAXI@Z 000000018000a320 f i MSR.obj
 0001:00009320       ??_E?$CComObject@V?$CComEnum@UIEnumConnectionPoints@@$1?_GUID_b196b285_bab4_101a_b69c_00aa00341d07@@3U__s_GUID@@BPEAUIConnectionPoint@@V?$_CopyInterface@UIConnectionPoint@@@ATL@@VCComSingleThreadModel@6@@ATL@@@ATL@@UEAAPEAXI@Z 000000018000a320 f i MSR.obj
 0001:00009360       ??_E?$CComObject@V?$CComEnum@UIEnumConnections@@$1?_GUID_b196b287_bab4_101a_b69c_00aa00341d07@@3U__s_GUID@@BUtagCONNECTDATA@@V?$_Copy@UtagCONNECTDATA@@@ATL@@VCComSingleThreadModel@6@@ATL@@@ATL@@UEAAPEAXI@Z 000000018000a360 f i MSR.obj
 0001:00009360       ??_G?$CComObject@V?$CComEnum@UIEnumConnections@@$1?_GUID_b196b287_bab4_101a_b69c_00aa00341d07@@3U__s_GUID@@BUtagCONNECTDATA@@V?$_Copy@UtagCONNECTDATA@@@ATL@@VCComSingleThreadModel@6@@ATL@@@ATL@@UEAAPEAXI@Z 000000018000a360 f i MSR.obj
 0001:000093a0       ??_E?$CComObject@VCOPOSMSR@@@ATL@@UEAAPEAXI@Z 000000018000a3a0 f i MSR.obj
 0001:000093a0       ??_G?$CComObject@VCOPOSMSR@@@ATL@@UEAAPEAXI@Z 000000018000a3a0 f i MSR.obj
 0001:000093e0       ??_G?$CComObjectCached@VCComClassFactory@ATL@@@ATL@@UEAAPEAXI@Z 000000018000a3e0 f i MSR.obj
 0001:000093e0       ??_E?$CComObjectCached@VCComClassFactory@ATL@@@ATL@@UEAAPEAXI@Z 000000018000a3e0 f i MSR.obj
 0001:00009420       ??_ECComClassFactory@ATL@@UEAAPEAXI@Z 000000018000a420 f i MSR.obj
 0001:00009420       ??_GCComClassFactory@ATL@@UEAAPEAXI@Z 000000018000a420 f i MSR.obj
 0001:00009460       ??_GCComModule@ATL@@UEAAPEAXI@Z 000000018000a460 f i MSR.obj
 0001:00009460       ??_ECComModule@ATL@@UEAAPEAXI@Z 000000018000a460 f i MSR.obj
 0001:000094a0       ??_GCRegObject@ATL@@UEAAPEAXI@Z 000000018000a4a0 f i MSR.obj
 0001:000094a0       ??_ECRegObject@ATL@@UEAAPEAXI@Z 000000018000a4a0 f i MSR.obj
 0001:000094e0       ?Add@?$CSimpleArray@GV?$CSimpleArrayEqualHelper@G@ATL@@@ATL@@QEAAHAEBG@Z 000000018000a4e0 f i MSR.obj
 0001:00009670       ?Add@?$CSimpleMap@PEA_WPEA_WVCExpansionVectorEqualHelper@ATL@@@ATL@@QEAAHAEBQEA_W0@Z 000000018000a670 f i MSR.obj
 0001:00009750       ?Add@CComDynamicUnkArray@ATL@@QEAAKPEAUIUnknown@@@Z 000000018000a750 f i MSR.obj
 0001:00009930       ?Add@CExpansionVector@ATL@@QEAAHPEB_W0@Z 000000018000a930 f i MSR.obj
 0001:00009c70       ?AddChar@CParseBuffer@CRegParser@ATL@@QEAAHPEB_W@Z 000000018000ac70 f i MSR.obj
 0001:00009cb0       ?AddCommonRGSReplacements@?$CAtlModuleT@VCComModule@ATL@@@ATL@@UEAAJPEAUIRegistrarBase@@@Z 000000018000acb0 f i MSR.obj
 0001:00009cf0       ?AddCreateWndData@CAtlWinModule@ATL@@QEAAXPEAU_AtlCreateWndData@2@PEAX@Z 000000018000acf0 f i MSR.obj
 0001:00009d20       ?AddRef@?$CComAggObject@VCOPOSMSR@@@ATL@@UEAAKXZ 000000018000ad20 f i MSR.obj
 0001:00009d50       ?AddRef@?$CComContainedObject@VCOPOSMSR@@@ATL@@UEAAKXZ 000000018000ad50 f i MSR.obj
 0001:00009d74       ?AddRef@?$CComContainedObject@VCOPOSMSR@@@ATL@@WBAA@EAAKXZ 000000018000ad74 f i MSR.obj
 0001:00009d80       ?AddRef@?$CComContainedObject@VCOPOSMSR@@@ATL@@WBAI@EAAKXZ 000000018000ad80 f i MSR.obj
 0001:00009d8c       ?AddRef@?$CComContainedObject@VCOPOSMSR@@@ATL@@WBBA@EAAKXZ 000000018000ad8c f i MSR.obj
 0001:00009d98       ?AddRef@?$CComContainedObject@VCOPOSMSR@@@ATL@@WBBI@EAAKXZ 000000018000ad98 f i MSR.obj
 0001:00009da4       ?AddRef@?$CComContainedObject@VCOPOSMSR@@@ATL@@WBCI@EAAKXZ 000000018000ada4 f i MSR.obj
 0001:00009db0       ?AddRef@?$CComContainedObject@VCOPOSMSR@@@ATL@@WBEA@EAAKXZ 000000018000adb0 f i MSR.obj
 0001:00009dbc       ?AddRef@?$CComContainedObject@VCOPOSMSR@@@ATL@@WLI@EAAKXZ 000000018000adbc f i MSR.obj
 0001:00009dc8       ?AddRef@?$CComContainedObject@VCOPOSMSR@@@ATL@@WMA@EAAKXZ 000000018000adc8 f i MSR.obj
 0001:00009dd4       ?AddRef@?$CComContainedObject@VCOPOSMSR@@@ATL@@WMI@EAAKXZ 000000018000add4 f i MSR.obj
 0001:00009de0       ?AddRef@?$CComContainedObject@VCOPOSMSR@@@ATL@@WNA@EAAKXZ 000000018000ade0 f i MSR.obj
 0001:00009dec       ?AddRef@?$CComContainedObject@VCOPOSMSR@@@ATL@@WNI@EAAKXZ 000000018000adec f i MSR.obj
 0001:00009df8       ?AddRef@?$CComContainedObject@VCOPOSMSR@@@ATL@@WOA@EAAKXZ 000000018000adf8 f i MSR.obj
 0001:00009e04       ?AddRef@?$CComContainedObject@VCOPOSMSR@@@ATL@@WOI@EAAKXZ 000000018000ae04 f i MSR.obj
 0001:00009e10       ?AddRef@?$CComContainedObject@VCOPOSMSR@@@ATL@@WPA@EAAKXZ 000000018000ae10 f i MSR.obj
 0001:00009e1c       ?AddRef@?$CComContainedObject@VCOPOSMSR@@@ATL@@WPI@EAAKXZ 000000018000ae1c f i MSR.obj
 0001:00009e30       ?AddRef@?$CComObject@V?$CComEnum@UIEnumConnectionPoints@@$1?_GUID_b196b285_bab4_101a_b69c_00aa00341d07@@3U__s_GUID@@BPEAUIConnectionPoint@@V?$_CopyInterface@UIConnectionPoint@@@ATL@@VCComSingleThreadModel@6@@ATL@@@ATL@@UEAAKXZ 000000018000ae30 f i MSR.obj
 0001:00009e60       ?AddRef@?$CComObject@V?$CComEnum@UIEnumConnections@@$1?_GUID_b196b287_bab4_101a_b69c_00aa00341d07@@3U__s_GUID@@BUtagCONNECTDATA@@V?$_Copy@UtagCONNECTDATA@@@ATL@@VCComSingleThreadModel@6@@ATL@@@ATL@@UEAAKXZ 000000018000ae60 f i MSR.obj
 0001:00009e90       ?AddRef@?$CComObject@VCOPOSMSR@@@ATL@@UEAAKXZ 000000018000ae90 f i MSR.obj
 0001:00009eb4       ?AddRef@?$CComObject@VCOPOSMSR@@@ATL@@WBAA@EAAKXZ 000000018000aeb4 f i MSR.obj
 0001:00009ec0       ?AddRef@?$CComObject@VCOPOSMSR@@@ATL@@WBAI@EAAKXZ 000000018000aec0 f i MSR.obj
 0001:00009ecc       ?AddRef@?$CComObject@VCOPOSMSR@@@ATL@@WBBA@EAAKXZ 000000018000aecc f i MSR.obj
 0001:00009ed8       ?AddRef@?$CComObject@VCOPOSMSR@@@ATL@@WBBI@EAAKXZ 000000018000aed8 f i MSR.obj
 0001:00009ee4       ?AddRef@?$CComObject@VCOPOSMSR@@@ATL@@WBCI@EAAKXZ 000000018000aee4 f i MSR.obj
 0001:00009ef0       ?AddRef@?$CComObject@VCOPOSMSR@@@ATL@@WBEA@EAAKXZ 000000018000aef0 f i MSR.obj
 0001:00009efc       ?AddRef@?$CComObject@VCOPOSMSR@@@ATL@@WLI@EAAKXZ 000000018000aefc f i MSR.obj
 0001:00009f08       ?AddRef@?$CComObject@VCOPOSMSR@@@ATL@@WMA@EAAKXZ 000000018000af08 f i MSR.obj
 0001:00009f14       ?AddRef@?$CComObject@VCOPOSMSR@@@ATL@@WMI@EAAKXZ 000000018000af14 f i MSR.obj
 0001:00009f20       ?AddRef@?$CComObject@VCOPOSMSR@@@ATL@@WNA@EAAKXZ 000000018000af20 f i MSR.obj
 0001:00009f2c       ?AddRef@?$CComObject@VCOPOSMSR@@@ATL@@WNI@EAAKXZ 000000018000af2c f i MSR.obj
 0001:00009f38       ?AddRef@?$CComObject@VCOPOSMSR@@@ATL@@WOA@EAAKXZ 000000018000af38 f i MSR.obj
 0001:00009f44       ?AddRef@?$CComObject@VCOPOSMSR@@@ATL@@WOI@EAAKXZ 000000018000af44 f i MSR.obj
 0001:00009f50       ?AddRef@?$CComObject@VCOPOSMSR@@@ATL@@WPA@EAAKXZ 000000018000af50 f i MSR.obj
 0001:00009f5c       ?AddRef@?$CComObject@VCOPOSMSR@@@ATL@@WPI@EAAKXZ 000000018000af5c f i MSR.obj
 0001:00009f70       ?AddRef@?$CComObjectCached@VCComClassFactory@ATL@@@ATL@@UEAAKXZ 000000018000af70 f i MSR.obj
 0001:00009fc0       ?AddRef@CRegObject@ATL@@UEAAKXZ 000000018000afc0 f i MSR.obj
 0001:0000a020       ?AddReplacement@CRegObject@ATL@@UEAAJPEB_W0@Z 000000018000b020 f i MSR.obj
 0001:0000a150       ?AddString@CParseBuffer@CRegParser@ATL@@QEAAHPEB_W@Z 000000018000b150 f i MSR.obj
 0001:0000a240       ?AddTermFunc@CAtlModule@ATL@@QEAAJP6AX_K@Z0@Z 000000018000b240 f i MSR.obj
 0001:0000a290       ?AddValue@CRegParser@ATL@@IEAAJAEAVCRegKey@2@PEB_WPEA_W@Z 000000018000b290 f i MSR.obj
 0001:0000ab60       ?Advise@?$CProxy_IOPOSEvents@VCOPOSMSR@@@@UEAAJPEAUIUnknown@@PEAK@Z 000000018000bb60 f i MSR.obj
 0001:0000abc0       ?Advise@?$IConnectionPointImpl@VCOPOSMSR@@$1?DIID__IOPOSMSREvents@@3U_GUID@@BVCComDynamicUnkArray@ATL@@@ATL@@UEAAJPEAUIUnknown@@PEAK@Z 000000018000bbc0 f i MSR.obj
 0001:0000adc0       ?Advise@?$IConnectionPointImpl@VCOPOSMSR@@$1?IID_IPropertyNotifySink@@3U_GUID@@BVCComDynamicUnkArray@ATL@@@ATL@@UEAAJPEAUIUnknown@@PEAK@Z 000000018000bdc0 f i MSR.obj
 0001:0000afc0       ?Advise@?$IOleObjectImpl@VCOPOSMSR@@@ATL@@UEAAJPEAUIAdviseSink@@PEAK@Z 000000018000bfc0 f i MSR.obj
 0001:0000b070       ?Allocate@?$CAtlSafeAllocBufferManager@VCCRTAllocator@ATL@@@_ATL_SAFE_ALLOCA_IMPL@ATL@@QEAAPEAX_K@Z 000000018000c070 f i MSR.obj
 0001:0000b0e0       ?Allocate@?$CTempBuffer@E$0BAA@VCCRTAllocator@ATL@@@ATL@@QEAAPEAE_K@Z 000000018000c0e0 f i MSR.obj
 0001:0000b120       ?Allocate@?$CTempBuffer@_W$0BAA@VCCRTAllocator@ATL@@@ATL@@QEAAPEA_W_K@Z 000000018000c120 f i MSR.obj
 0001:0000b160       ?Allocate@?$CTempBuffer@_W$0EAA@VCCRTAllocator@ATL@@@ATL@@QEAAPEA_W_K@Z 000000018000c160 f i MSR.obj
 0001:0000b1a0       ?AllocateBytes@?$CTempBuffer@E$0BAA@VCCRTAllocator@ATL@@@ATL@@QEAAPEAE_K@Z 000000018000c1a0 f i MSR.obj
 0001:0000b230       ?AllocateBytes@?$CTempBuffer@_W$0BAA@VCCRTAllocator@ATL@@@ATL@@QEAAPEA_W_K@Z 000000018000c230 f i MSR.obj
 0001:0000b2c0       ?AllocateBytes@?$CTempBuffer@_W$0EAA@VCCRTAllocator@ATL@@@ATL@@QEAAPEA_W_K@Z 000000018000c2c0 f i MSR.obj
 0001:0000b350       ?AllocateHeap@?$CTempBuffer@E$0BAA@VCCRTAllocator@ATL@@@ATL@@AEAAX_K@Z 000000018000c350 f i MSR.obj
 0001:0000b3a0       ?AllocateHeap@?$CTempBuffer@_W$0BAA@VCCRTAllocator@ATL@@@ATL@@AEAAX_K@Z 000000018000c3a0 f i MSR.obj
 0001:0000b3f0       ?AllocateHeap@?$CTempBuffer@_W$0EAA@VCCRTAllocator@ATL@@@ATL@@AEAAX_K@Z 000000018000c3f0 f i MSR.obj
 0001:0000b440       ?Append@CParseBuffer@CRegParser@ATL@@QEAAHPEB_WH@Z 000000018000c440 f i MSR.obj
 0001:0000b660       ?AtlCallTermFunc@ATL@@YAXPEAU_ATL_MODULE70@1@@Z 000000018000c660 f i MSR.obj
 0001:0000b700       ?AtlCoTaskMemCAlloc@ATL@@YAPEAXKK@Z 000000018000c700 f i MSR.obj
 0001:0000b780       ?AtlCoTaskMemRecalloc@ATL@@YAPEAXPEAXKK@Z 000000018000c780 f i MSR.obj
 0001:0000b800       ?AtlComModuleGetClassObject@ATL@@YAJPEAU_ATL_COM_MODULE70@1@AEBU_GUID@@1PEAPEAX@Z 000000018000c800 f i MSR.obj
 0001:0000bb30       ?AtlComModuleRegisterServer@ATL@@YAJPEAU_ATL_COM_MODULE70@1@HPEBU_GUID@@@Z 000000018000cb30 f i MSR.obj
 0001:0000bd20       ?AtlComModuleUnregisterServer@ATL@@YAJPEAU_ATL_COM_MODULE70@1@HPEBU_GUID@@@Z 000000018000cd20 f i MSR.obj
 0001:0000be70       ?AtlComQIPtrAssign2@ATL@@YAXPEAPEAUIUnknown@@PEAU2@AEBU_GUID@@@Z 000000018000ce70 f i MSR.obj
 0001:0000bee0       ?AtlCreateTargetDC@ATL@@YAPEAUHDC__@@PEAU2@PEAUtagDVTARGETDEVICE@@@Z 000000018000cee0 f i MSR.obj
 0001:0000c110       ?AtlCrtErrorCheck@ATL@@YAHH@Z 000000018000d110 f i MSR.obj
 0001:0000c180       ?AtlGetPerUserRegistration@ATL@@YAJPEA_N@Z 000000018000d180 f i MSR.obj
 0001:0000c1b0       ?AtlHiMetricToPixel@ATL@@YAXPEBUtagSIZE@@PEAU2@@Z 000000018000d1b0 f i MSR.obj
 0001:0000c390       ?AtlHresultFromLastError@ATL@@YAJXZ 000000018000d390 f i MSR.obj
 0001:0000c3b0       ?AtlHresultFromWin32@ATL@@YAJK@Z 000000018000d3b0 f i MSR.obj
 0001:0000c3d0       ?AtlIPersistStreamInit_Load@ATL@@YAJPEAUIStream@@PEBUATL_PROPMAP_ENTRY@1@PEAXPEAUIUnknown@@@Z 000000018000d3d0 f i MSR.obj
 0001:0000ca50       ?AtlIPersistStreamInit_Save@ATL@@YAJPEAUIStream@@HPEBUATL_PROPMAP_ENTRY@1@PEAXPEAUIUnknown@@@Z 000000018000da50 f i MSR.obj
 0001:0000cfe0       ?AtlInternalOleLoadFromStream@ATL@@YAJPEAUIStream@@AEBU_GUID@@PEAPEAXTClassesAllowedInStream@1@K@Z 000000018000dfe0 f i MSR.obj
 0001:0000d320       ?AtlInternalQueryInterface@ATL@@YAJPEAXPEBU_ATL_INTMAP_ENTRY@1@AEBU_GUID@@PEAPEAX@Z 000000018000e320 f i MSR.obj
 0001:0000d5d0       ?AtlLoadTypeLib@ATL@@YAJPEAUHINSTANCE__@@PEB_WPEAPEA_WPEAPEAUITypeLib@@@Z 000000018000e5d0 f i MSR.obj
 0001:0000daa0       ?AtlModuleAddTermFunc@ATL@@YAJPEAU_ATL_MODULE70@1@P6AX_K@Z1@Z 000000018000eaa0 f i MSR.obj
 0001:0000dc70       ?AtlRegisterClassCategoriesHelper@ATL@@YAJAEBU_GUID@@PEBU_ATL_CATMAP_ENTRY@1@H@Z 000000018000ec70 f i MSR.obj
 0001:0000e440       ?AtlRegisterTypeLib@ATL@@YAJPEAUHINSTANCE__@@PEB_W@Z 000000018000f440 f i MSR.obj
 0001:0000e7a0       ?AtlThrowImpl@ATL@@YAXJ@Z  000000018000f7a0 f i MSR.obj
 0001:0000e870       ?AtlUnRegisterTypeLib@ATL@@YAJPEAUHINSTANCE__@@PEB_W@Z 000000018000f870 f i MSR.obj
 0001:0000eaa0       ?AtlWinModuleAddCreateWndData@ATL@@YAXPEAU_ATL_WIN_MODULE70@1@PEAU_AtlCreateWndData@1@PEAX@Z 000000018000faa0 f i MSR.obj
 0001:0000ec90       ?AtlWinModuleExtractCreateWndData@ATL@@YAPEAXPEAU_ATL_WIN_MODULE70@1@@Z 000000018000fc90 f i MSR.obj
 0001:0000ee90       ?AtlWinModuleRegisterClassExW@ATL@@YAGPEAU_ATL_WIN_MODULE70@1@PEBUtagWNDCLASSEXW@@@Z 000000018000fe90 f i MSR.obj
 0001:0000ef60       ?AtlWinModuleRegisterWndClassInfoW@ATL@@YAGPEAU_ATL_WIN_MODULE70@1@PEAU_ATL_BASE_MODULE70@1@PEAU_ATL_WNDCLASSINFOW@1@PEAP6A_JPEAUHWND__@@I_K_J@Z@Z 000000018000ff60 f i MSR.obj
 0001:0000efd0       ?Attach@?$CAutoVectorPtr@_W@ATL@@QEAAXPEA_W@Z 000000018000ffd0 f i MSR.obj
 0001:0000f040       ?Attach@CComBSTR@ATL@@QEAAXPEA_W@Z 0000000180010040 f i MSR.obj
 0001:0000f080       ?Attach@CRegKey@ATL@@QEAAXPEAUHKEY__@@@Z 0000000180010080 f i MSR.obj
 0001:0000f110       ?CanForceRemoveKey@CRegParser@ATL@@IEAAHPEB_W@Z 0000000180010110 f i MSR.obj
 0001:0000f170       ?ChToByte@CRegParser@ATL@@KAE_W@Z 0000000180010170 f i MSR.obj
 0001:0000f310       ?ChangeType@CComVariant@ATL@@QEAAJGPEBUtagVARIANT@@@Z 0000000180010310 f i MSR.obj
 0001:0000f360       ?Cleanup@CComTypeInfoHolder@ATL@@SAX_K@Z 0000000180010360 f i MSR.obj
 0001:0000f440       ?Clear@CComVariant@ATL@@QEAAJXZ 0000000180010440 f i MSR.obj
 0001:0000f460       ?ClearReplacements@CExpansionVector@ATL@@QEAAJXZ 0000000180010460 f i MSR.obj
 0001:0000f4f0       ?ClearReplacements@CRegObject@ATL@@UEAAJXZ 00000001800104f0 f i MSR.obj
 0001:0000f540       ?Clone@?$CComEnumImpl@UIEnumConnectionPoints@@$1?_GUID_b196b285_bab4_101a_b69c_00aa00341d07@@3U__s_GUID@@BPEAUIConnectionPoint@@V?$_CopyInterface@UIConnectionPoint@@@ATL@@@ATL@@UEAAJPEAPEAUIEnumConnectionPoints@@@Z 0000000180010540 f i MSR.obj
 0001:0000f730       ?Clone@?$CComEnumImpl@UIEnumConnections@@$1?_GUID_b196b287_bab4_101a_b69c_00aa00341d07@@3U__s_GUID@@BUtagCONNECTDATA@@V?$_Copy@UtagCONNECTDATA@@@ATL@@@ATL@@UEAAJPEAPEAUIEnumConnections@@@Z 0000000180010730 f i MSR.obj
 0001:0000f920       ?Close@?$IOleObjectImpl@VCOPOSMSR@@@ATL@@UEAAJK@Z 0000000180010920 f i MSR.obj
 0001:0000f9c0       ?Close@CRegKey@ATL@@QEAAJXZ 00000001800109c0 f i MSR.obj
 0001:0000fa20       ?ContextSensitiveHelp@?$IOleInPlaceActiveObjectImpl@VCOPOSMSR@@@ATL@@UEAAJH@Z 0000000180010a20 f i MSR.obj
 0001:0000fa90       ?ContextSensitiveHelp@?$IOleInPlaceObjectWindowlessImpl@VCOPOSMSR@@@ATL@@UEAAJH@Z 0000000180010a90 f i MSR.obj
 0001:0000fb00       ?ControlQueryInterface@?$CComControl@VCOPOSMSR@@V?$CWindowImpl@VCOPOSMSR@@VCWindow@ATL@@V?$CWinTraits@$0FGAAAAAA@$0A@@3@@ATL@@@ATL@@UEAAJAEBU_GUID@@PEAPEAX@Z 0000000180010b00 f i MSR.obj
 0001:0000fb70       ?CreateControlWindow@?$CComControl@VCOPOSMSR@@V?$CWindowImpl@VCOPOSMSR@@VCWindow@ATL@@V?$CWinTraits@$0FGAAAAAA@$0A@@3@@ATL@@@ATL@@UEAAPEAUHWND__@@PEAU3@AEAUtagRECT@@@Z 0000000180010b70 f i MSR.obj
 0001:0000fc40       ?CreateInstance@?$CComCreator@V?$CComAggObject@VCOPOSMSR@@@ATL@@@ATL@@SAJPEAXAEBU_GUID@@PEAPEAX@Z 0000000180010c40 f i MSR.obj
 0001:0000fe10       ?CreateInstance@?$CComCreator@V?$CComObject@VCOPOSMSR@@@ATL@@@ATL@@SAJPEAXAEBU_GUID@@PEAPEAX@Z 0000000180010e10 f i MSR.obj
 0001:0000fff0       ?CreateInstance@?$CComObject@V?$CComEnum@UIEnumConnectionPoints@@$1?_GUID_b196b285_bab4_101a_b69c_00aa00341d07@@3U__s_GUID@@BPEAUIConnectionPoint@@V?$_CopyInterface@UIConnectionPoint@@@ATL@@VCComSingleThreadModel@6@@ATL@@@ATL@@SAJPEAPEAV12@@Z 0000000180010ff0 f i MSR.obj
 0001:000101a0       ?CreateInstance@?$CComObject@V?$CComEnum@UIEnumConnections@@$1?_GUID_b196b287_bab4_101a_b69c_00aa00341d07@@3U__s_GUID@@BUtagCONNECTDATA@@V?$_Copy@UtagCONNECTDATA@@@ATL@@VCComSingleThreadModel@6@@ATL@@@ATL@@SAJPEAPEAV12@@Z 00000001800111a0 f i MSR.obj
 0001:00010350       ?CreateInstance@CComClassFactory@ATL@@UEAAJPEAUIUnknown@@AEBU_GUID@@PEAPEAX@Z 0000000180011350 f i MSR.obj
 0001:00010460       ?DAdvise@?$IDataObjectImpl@VCOPOSMSR@@@ATL@@UEAAJPEAUtagFORMATETC@@KPEAUIAdviseSink@@PEAK@Z 0000000180011460 f i MSR.obj
 0001:000105a0       ?DEVMODEOLE2T_EX@@YAPEAU_devicemodeW@@PEAU1@@Z 00000001800115a0 f i MSR.obj
 0001:000105b0       ?DUnadvise@?$IDataObjectImpl@VCOPOSMSR@@@ATL@@UEAAJK@Z 00000001800115b0 f i MSR.obj
 0001:000106a0       ?Decrement@CComMultiThreadModel@ATL@@SAKPEAJ@Z 00000001800116a0 f i MSR.obj
 0001:000106c0       ?Decrement@CComSingleThreadModel@ATL@@SAKPEAJ@Z 00000001800116c0 f i MSR.obj
 0001:000106e0       ?DefWindowProcW@?$CWindowImplBaseT@VCWindow@ATL@@V?$CWinTraits@$0FGAAAAAA@$0A@@2@@ATL@@QEAA_JI_K_J@Z 00000001800116e0 f i MSR.obj
 0001:00010730       ?DefaultReflectionHandler@?$CWindowImplRoot@VCWindow@ATL@@@ATL@@SAHPEAUHWND__@@I_K_JAEA_J@Z 0000000180011730 f i MSR.obj
 0001:00010a30       ?DeleteSubKey@CRegKey@ATL@@QEAAJPEB_W@Z 0000000180011a30 f i MSR.obj
 0001:00010b40       ?DeleteValue@CRegKey@ATL@@QEAAJPEB_W@Z 0000000180011b40 f i MSR.obj
 0001:00010bc0       ?Detach@?$CAutoVectorPtr@_W@ATL@@QEAAPEA_WXZ 0000000180011bc0 f i MSR.obj
 0001:00010bf0       ?Detach@?$CComPtrBase@UIPersistStream@@@ATL@@QEAAPEAUIPersistStream@@XZ 0000000180011bf0 f i MSR.obj
 0001:00010c20       ?Detach@?$CComPtrBase@UITypeInfo@@@ATL@@QEAAPEAUITypeInfo@@XZ 0000000180011c20 f i MSR.obj
 0001:00010c50       ?Detach@?$CComPtrBase@UIUnknown@@@ATL@@QEAAPEAUIUnknown@@XZ 0000000180011c50 f i MSR.obj
 0001:00010c80       ?Detach@CComBSTR@ATL@@QEAAPEA_WXZ 0000000180011c80 f i MSR.obj
 0001:00010cb0       ?Detach@CParseBuffer@CRegParser@ATL@@QEAAPEA_WXZ 0000000180011cb0 f i MSR.obj
 0001:00010d00       ?Detach@CRegKey@ATL@@QEAAPEAUHKEY__@@XZ 0000000180011d00 f i MSR.obj
 0001:00010d50       ?DoEvent@COPOSMSR@@IEAAXI_K_J@Z 0000000180011d50 f i MSR.obj
 0001:00010e70       ?DoVerb@?$IOleObjectImpl@VCOPOSMSR@@@ATL@@UEAAJJPEAUtagMSG@@PEAUIOleClientSite@@JPEAUHWND__@@PEBUtagRECT@@@Z 0000000180011e70 f i MSR.obj
 0001:00011170       ?DoVerbDiscardUndo@?$IOleObjectImpl@VCOPOSMSR@@@ATL@@QEAAJPEBUtagRECT@@PEAUHWND__@@@Z 0000000180012170 f i MSR.obj
 0001:000111f0       ?DoVerbHide@?$IOleObjectImpl@VCOPOSMSR@@@ATL@@QEAAJPEBUtagRECT@@PEAUHWND__@@@Z 00000001800121f0 f i MSR.obj
 0001:000112c0       ?DoVerbInPlaceActivate@?$IOleObjectImpl@VCOPOSMSR@@@ATL@@QEAAJPEBUtagRECT@@PEAUHWND__@@@Z 00000001800122c0 f i MSR.obj
 0001:00011380       ?DoVerbOpen@?$IOleObjectImpl@VCOPOSMSR@@@ATL@@QEAAJPEBUtagRECT@@PEAUHWND__@@@Z 0000000180012380 f i MSR.obj
 0001:00011400       ?DoVerbPrimary@?$IOleObjectImpl@VCOPOSMSR@@@ATL@@QEAAJPEBUtagRECT@@PEAUHWND__@@@Z 0000000180012400 f i MSR.obj
 0001:00011540       ?DoVerbProperties@CComControlBase@ATL@@QEAAJPEBUtagRECT@@PEAUHWND__@@@Z 0000000180012540 f i MSR.obj
 0001:000118f0       ?DoVerbShow@?$IOleObjectImpl@VCOPOSMSR@@@ATL@@QEAAJPEBUtagRECT@@PEAUHWND__@@@Z 00000001800128f0 f i MSR.obj
 0001:000119a0       ?DoVerbUIActivate@?$IOleObjectImpl@VCOPOSMSR@@@ATL@@QEAAJPEBUtagRECT@@PEAUHWND__@@@Z 00000001800129a0 f i MSR.obj
 0001:00011a60       ?DoesVerbActivate@CComControlBase@ATL@@QEAAHJ@Z 0000000180012a60 f i MSR.obj
 0001:00011ab0       ?DoesVerbUIActivate@CComControlBase@ATL@@QEAAHJ@Z 0000000180012ab0 f i MSR.obj
 0001:00011b20       ?Draw@?$IViewObjectExImpl@VCOPOSMSR@@@ATL@@UEAAJKJPEAXPEAUtagDVTARGETDEVICE@@PEAUHDC__@@2PEBU_RECTL@@3P6AH_K@Z4@Z 0000000180012b20 f i MSR.obj
 0001:00011c30       ?Empty@CComBSTR@ATL@@QEAAXXZ 0000000180012c30 f i MSR.obj
 0001:00011c60       ?EnableModeless@?$IOleInPlaceActiveObjectImpl@VCOPOSMSR@@@ATL@@UEAAJH@Z 0000000180012c60 f i MSR.obj
 0001:00011cc0       ?EndOfVar@CRegParser@ATL@@IEAAHXZ 0000000180012cc0 f i MSR.obj
 0001:00011d10       ?EnsureTI@CComTypeInfoHolder@ATL@@QEAAJK@Z 0000000180012d10 f i MSR.obj
 0001:00011d60       ?EnumAdvise@?$IOleObjectImpl@VCOPOSMSR@@@ATL@@UEAAJPEAPEAUIEnumSTATDATA@@@Z 0000000180012d60 f i MSR.obj
 0001:00011eb0       ?EnumConnectionPoints@?$IConnectionPointContainerImpl@VCOPOSMSR@@@ATL@@UEAAJPEAPEAUIEnumConnectionPoints@@@Z 0000000180012eb0 f i MSR.obj
 0001:000123a0       ?EnumConnections@?$IConnectionPointImpl@VCOPOSMSR@@$1?DIID__IOPOSMSREvents@@3U_GUID@@BVCComDynamicUnkArray@ATL@@@ATL@@UEAAJPEAPEAUIEnumConnections@@@Z 00000001800133a0 f i MSR.obj
 0001:000126d0       ?EnumConnections@?$IConnectionPointImpl@VCOPOSMSR@@$1?IID_IPropertyNotifySink@@3U_GUID@@BVCComDynamicUnkArray@ATL@@@ATL@@UEAAJPEAPEAUIEnumConnections@@@Z 00000001800136d0 f i MSR.obj
 0001:00012a00       ?EnumDAdvise@?$IDataObjectImpl@VCOPOSMSR@@@ATL@@UEAAJPEAPEAUIEnumSTATDATA@@@Z 0000000180013a00 f i MSR.obj
 0001:00012b30       ?EnumFormatEtc@?$IDataObjectImpl@VCOPOSMSR@@@ATL@@UEAAJKPEAPEAUIEnumFORMATETC@@@Z 0000000180013b30 f i MSR.obj
 0001:00012bb0       ?EnumVerbs@?$IOleObjectImpl@VCOPOSMSR@@@ATL@@UEAAJPEAPEAUIEnumOLEVERB@@@Z 0000000180013bb0 f i MSR.obj
 0001:00012c70       ?EscapeSingleQuote@CAtlModule@ATL@@SAXPEA_W_KPEB_W@Z 0000000180013c70 f i MSR.obj
 0001:00012d50       ?ExtractCreateWndData@CAtlWinModule@ATL@@QEAAPEAXXZ 0000000180013d50 f i MSR.obj
 0001:00012d70       ?FAccessAllowed@?$IObjectSafetyImpl@VCOPOSMSR@@$02@ATL@@MEAAHXZ 0000000180013d70 f i MSR.obj
 0001:00012d80       ?FinalConstruct@?$CComAggObject@VCOPOSMSR@@@ATL@@QEAAJXZ 0000000180013d80 f i MSR.obj
 0001:00012dc0       ?FinalConstruct@CComObjectRootBase@ATL@@QEAAJXZ 0000000180013dc0 f i MSR.obj
 0001:00012dd0       ?FinalConstruct@CRegObject@ATL@@QEAAJXZ 0000000180013dd0 f i MSR.obj
 0001:00012e00       ?FinalRelease@?$CComAggObject@VCOPOSMSR@@@ATL@@QEAAXXZ 0000000180013e00 f i MSR.obj
 0001:00012e40       ?FinalRelease@CComObjectRootBase@ATL@@QEAAXXZ 0000000180013e40 f i MSR.obj
 0001:00012e50       ?FindConnectionPoint@?$IConnectionPointContainerImpl@VCOPOSMSR@@@ATL@@UEAAJAEBU_GUID@@PEAPEAUIConnectionPoint@@@Z 0000000180013e50 f i MSR.obj
 0001:00012fc0       ?FindKey@?$CSimpleMap@PEA_WPEA_WVCExpansionVectorEqualHelper@ATL@@@ATL@@QEBAHAEBQEA_W@Z 0000000180013fc0 f i MSR.obj
 0001:00013030       ?FireTheEvent@?$CProxy_IOPOSEvents@VCOPOSMSR@@@@IEAAXPEAUIUnknown@@PEAVOposVariant@@IAEAJPEB_WJ@Z 0000000180014030 f i MSR.obj
 0001:00013210       ?FireViewChange@CComControlBase@ATL@@QEAAJXZ 0000000180014210 f i MSR.obj
 0001:000132e0       ?Fire_DataEvent@?$CProxy_IOPOSEvents@VCOPOSMSR@@@@QEAAXJ@Z 00000001800142e0 f i MSR.obj
 0001:000134d0       ?Fire_DirectIOEvent@?$CProxy_IOPOSEvents@VCOPOSMSR@@@@QEAAXJPEAJPEAPEA_W@Z 00000001800144d0 f i MSR.obj
 0001:00013770       ?Fire_ErrorEvent@?$CProxy_IOPOSEvents@VCOPOSMSR@@@@QEAAXJJJPEAJ@Z 0000000180014770 f i MSR.obj
 0001:00013a20       ?Fire_StatusUpdateEvent@?$CProxy_IOPOSEvents@VCOPOSMSR@@@@QEAAXJ@Z 0000000180014a20 f i MSR.obj
 0001:00013c10       ?FormatWindowClassName@AtlModuleRegisterWndClassInfoParamW@ATL@@SAXPEA_WKPEAX@Z 0000000180014c10 f i MSR.obj
 0001:00013c50       ?Free@?$CAutoVectorPtr@_W@ATL@@QEAAXXZ 0000000180014c50 f i MSR.obj
 0001:00013c90       ?FreeHeap@?$CTempBuffer@E$0BAA@VCCRTAllocator@ATL@@@ATL@@AEAAXXZ 0000000180014c90 f i MSR.obj
 0001:00013cb0       ?FreeHeap@?$CTempBuffer@_W$0BAA@VCCRTAllocator@ATL@@@ATL@@AEAAXXZ 0000000180014cb0 f i MSR.obj
 0001:00013cd0       ?FreeHeap@?$CTempBuffer@_W$0EAA@VCCRTAllocator@ATL@@@ATL@@AEAAXXZ 0000000180014cd0 f i MSR.obj
 0001:00013cf0       ?Freeze@?$IViewObjectExImpl@VCOPOSMSR@@@ATL@@UEAAJKJPEAXPEAK@Z 0000000180014cf0 f i MSR.obj
 0001:00013d70       ?GenerateError@CRegParser@ATL@@IEAAJI@Z 0000000180014d70 f i MSR.obj
 0001:00013d90       ?GetAdvise@?$IViewObjectExImpl@VCOPOSMSR@@@ATL@@UEAAJPEAK0PEAPEAUIAdviseSink@@@Z 0000000180014d90 f i MSR.obj
 0001:00013ed0       ?GetAmbientLocaleID@CComControlBase@ATL@@QEAAJAEAK@Z 0000000180014ed0 f i MSR.obj
 0001:00013fb0       ?GetAmbientProperty@CComControlBase@ATL@@QEAAJJAEAUtagVARIANT@@@Z 0000000180014fb0 f i MSR.obj
 0001:00014000       ?GetAmbientUserMode@CComControlBase@ATL@@QEAAJAEAH@Z 0000000180015000 f i MSR.obj
 0001:00014120       ?GetAppId@?$CAtlModuleT@VCComModule@ATL@@@ATL@@SAPEB_WXZ 0000000180015120 f i MSR.obj
 0001:00014130       ?GetAt@CComDynamicUnkArray@ATL@@QEAAPEAUIUnknown@@H@Z 0000000180015130 f i MSR.obj
 0001:000141c0       ?GetCanonicalFormatEtc@?$IDataObjectImpl@VCOPOSMSR@@@ATL@@UEAAJPEAUtagFORMATETC@@0@Z 00000001800151c0 f i MSR.obj
 0001:00014240       ?GetClassID@?$IPersistStorageImpl@VCOPOSMSR@@@ATL@@UEAAJPEAU_GUID@@@Z 0000000180015240 f i MSR.obj
 0001:000142c0       ?GetClassID@?$IPersistStreamInitImpl@VCOPOSMSR@@@ATL@@UEAAJPEAU_GUID@@@Z 00000001800152c0 f i MSR.obj
 0001:00014340       ?GetClassInfoExW@AtlModuleRegisterWndClassInfoParamW@ATL@@SAHPEAUHINSTANCE__@@PEB_WPEAUtagWNDCLASSEXW@@@Z 0000000180015340 f i MSR.obj
 0001:00014370       ?GetClassInfoW@?$IProvideClassInfo2Impl@$1?CLSID_OPOSMSR@@3U_GUID@@B$1?DIID__IOPOSMSREvents@@3U2@B$1?LIBID_OposMSR_CCO@@3U2@B$00$0A@VCComTypeInfoHolder@ATL@@@ATL@@UEAAJPEAPEAUITypeInfo@@@Z 0000000180015370 f i MSR.obj
 0001:000143a0       ?GetClassObject@CComModule@ATL@@QEAAJAEBU_GUID@@0PEAPEAX@Z 00000001800153a0 f i MSR.obj
 0001:00014610       ?GetClientSite@?$IOleObjectImpl@VCOPOSMSR@@@ATL@@UEAAJPEAPEAUIOleClientSite@@@Z 0000000180015610 f i MSR.obj
 0001:000146b0       ?GetClipboardData@?$IOleObjectImpl@VCOPOSMSR@@@ATL@@UEAAJKPEAPEAUIDataObject@@@Z 00000001800156b0 f i MSR.obj
 0001:00014730       ?GetCodeAddress@CDynamicStdCallThunk2@ATL@@QEAAPEAXXZ 0000000180015730 f i MSR.obj
 0001:00014750       ?GetColorSet@?$IViewObjectExImpl@VCOPOSMSR@@@ATL@@UEAAJKJPEAXPEAUtagDVTARGETDEVICE@@PEAUHDC__@@PEAPEAUtagLOGPALETTE@@@Z 0000000180015750 f i MSR.obj
 0001:000147d0       ?GetConnMap@COPOSMSR@@SAPEBU_ATL_CONNMAP_ENTRY@ATL@@PEAH@Z 00000001800157d0 f i MSR.obj
 0001:00014920       ?GetConnectionInterface@?$IConnectionPointImpl@VCOPOSMSR@@$1?DIID__IOPOSMSREvents@@3U_GUID@@BVCComDynamicUnkArray@ATL@@@ATL@@UEAAJPEAU_GUID@@@Z 0000000180015920 f i MSR.obj
 0001:00014960       ?GetConnectionInterface@?$IConnectionPointImpl@VCOPOSMSR@@$1?IID_IPropertyNotifySink@@3U_GUID@@BVCComDynamicUnkArray@ATL@@@ATL@@UEAAJPEAU_GUID@@@Z 0000000180015960 f i MSR.obj
 0001:000149a0       ?GetConnectionPointContainer@?$IConnectionPointImpl@VCOPOSMSR@@$1?DIID__IOPOSMSREvents@@3U_GUID@@BVCComDynamicUnkArray@ATL@@@ATL@@UEAAJPEAPEAUIConnectionPointContainer@@@Z 00000001800159a0 f i MSR.obj
 0001:00014a00       ?GetConnectionPointContainer@?$IConnectionPointImpl@VCOPOSMSR@@$1?IID_IPropertyNotifySink@@3U_GUID@@BVCComDynamicUnkArray@ATL@@@ATL@@UEAAJPEAPEAUIConnectionPointContainer@@@Z 0000000180015a00 f i MSR.obj
 0001:00014a60       ?GetContentExtent@?$IQuickActivateImpl@VCOPOSMSR@@@ATL@@UEAAJPEAUtagSIZE@@@Z 0000000180015a60 f i MSR.obj
 0001:00014b10       ?GetControlInfo@?$IOleControlImpl@VCOPOSMSR@@@ATL@@UEAAJPEAUtagCONTROLINFO@@@Z 0000000180015b10 f i MSR.obj
 0001:00014b80       ?GetCookie@CComDynamicUnkArray@ATL@@QEAAKPEAPEAUIUnknown@@@Z 0000000180015b80 f i MSR.obj
 0001:00014c60       ?GetData@?$IDataObjectImpl@VCOPOSMSR@@@ATL@@UEAAJPEAUtagFORMATETC@@PEAUtagSTGMEDIUM@@@Z 0000000180015c60 f i MSR.obj
 0001:00014d10       ?GetData@CAtlSafeAllocBufferNode@?$CAtlSafeAllocBufferManager@VCCRTAllocator@ATL@@@_ATL_SAFE_ALLOCA_IMPL@ATL@@QEAAPEAXXZ 0000000180015d10 f i MSR.obj
 0001:00014d30       ?GetDataHere@?$IDataObjectImpl@VCOPOSMSR@@@ATL@@UEAAJPEAUtagFORMATETC@@PEAUtagSTGMEDIUM@@@Z 0000000180015d30 f i MSR.obj
 0001:00014db0       ?GetDropTarget@?$IOleInPlaceObjectWindowlessImpl@VCOPOSMSR@@@ATL@@UEAAJPEAPEAUIDropTarget@@@Z 0000000180015db0 f i MSR.obj
 0001:00014e20       ?GetExtent@?$IOleObjectImpl@VCOPOSMSR@@@ATL@@UEAAJKPEAUtagSIZE@@@Z 0000000180015e20 f i MSR.obj
 0001:00014ee0       ?GetExtent@?$IViewObjectExImpl@VCOPOSMSR@@@ATL@@UEAAJKJPEAUtagDVTARGETDEVICE@@PEAUtagSIZE@@@Z 0000000180015ee0 f i MSR.obj
 0001:00014fe0       ?GetGITPtr@CAtlModule@ATL@@UEAAJPEAPEAUIGlobalInterfaceTable@@@Z 0000000180015fe0 f i MSR.obj
 0001:00015110       ?GetGUID@?$IProvideClassInfo2Impl@$1?CLSID_OPOSMSR@@3U_GUID@@B$1?DIID__IOPOSMSREvents@@3U2@B$1?LIBID_OposMSR_CCO@@3U2@B$00$0A@VCComTypeInfoHolder@ATL@@@ATL@@UEAAJKPEAU_GUID@@@Z 0000000180016110 f i MSR.obj
 0001:00015190       ?GetIDsOfNames@?$IDispatchImpl@UIOPOSMSR@@$1?IID_IOPOSMSR@@3U_GUID@@B$1?LIBID_OposMSR_CCO@@3U3@B$00$0A@VCComTypeInfoHolder@ATL@@@ATL@@UEAAJAEBU_GUID@@PEAPEA_WIKPEAJ@Z 0000000180016190 f i MSR.obj
 0001:000151e0       ?GetIDsOfNames@CComTypeInfoHolder@ATL@@QEAAJAEBU_GUID@@PEAPEA_WIKPEAJ@Z 00000001800161e0 f i MSR.obj
 0001:000153f0       ?GetInterfaceSafetyOptions@?$IObjectSafetyImpl@VCOPOSMSR@@$02@ATL@@UEAAJAEBU_GUID@@PEAK1@Z 00000001800163f0 f i MSR.obj
 0001:00015590       ?GetKeyAt@?$CSimpleMap@PEA_WPEA_WVCExpansionVectorEqualHelper@ATL@@@ATL@@QEBAAEAPEA_WH@Z 0000000180016590 f i MSR.obj
 0001:00015630       ?GetLockCount@CAtlModule@ATL@@UEAAJXZ 0000000180016630 f i MSR.obj
 0001:00015640       ?GetMiscStatus@?$IOleObjectImpl@VCOPOSMSR@@@ATL@@UEAAJKPEAK@Z 0000000180016640 f i MSR.obj
 0001:000156c0       ?GetMoniker@?$IOleObjectImpl@VCOPOSMSR@@@ATL@@UEAAJKKPEAPEAUIMoniker@@@Z 00000001800166c0 f i MSR.obj
 0001:00015740       ?GetNaturalExtent@?$IViewObjectExImpl@VCOPOSMSR@@@ATL@@UEAAJKJPEAUtagDVTARGETDEVICE@@PEAUHDC__@@PEAUtagExtentInfo@@PEAUtagSIZE@@@Z 0000000180016740 f i MSR.obj
 0001:000158c0       ?GetObjectCLSID@?$CComCoClass@VCOPOSMSR@@$1?CLSID_OPOSMSR@@3U_GUID@@B@ATL@@SAAEBU_GUID@@XZ 00000001800168c0 f i MSR.obj
 0001:000158d0       ?GetPages@?$ISpecifyPropertyPagesImpl@VCOPOSMSR@@@ATL@@UEAAJPEAUtagCAUUID@@@Z 00000001800168d0 f i MSR.obj
 0001:00015950       ?GetPagesHelper@?$ISpecifyPropertyPagesImpl@VCOPOSMSR@@@ATL@@IEAAJPEAUtagCAUUID@@PEBUATL_PROPMAP_ENTRY@2@@Z 0000000180016950 f i MSR.obj
 0001:00015bb0       ?GetProperty@?$CComPtr@UIDispatch@@@ATL@@QEAAJJPEAUtagVARIANT@@@Z 0000000180016bb0 f i MSR.obj
 0001:00015be0       ?GetProperty@?$CComPtr@UIDispatch@@@ATL@@SAJPEAUIDispatch@@JPEAUtagVARIANT@@@Z 0000000180016be0 f i MSR.obj
 0001:00015db0       ?GetPropertyMap@COPOSMSR@@SAPEBUATL_PROPMAP_ENTRY@ATL@@XZ 0000000180016db0 f i MSR.obj
 0001:00015dc0       ?GetRect@?$IViewObjectExImpl@VCOPOSMSR@@@ATL@@UEAAJKPEAU_RECTL@@@Z 0000000180016dc0 f i MSR.obj
 0001:00015e40       ?GetSize@?$CSimpleMap@PEA_WPEA_WVCExpansionVectorEqualHelper@ATL@@@ATL@@QEBAHXZ 0000000180016e40 f i MSR.obj
 0001:00015e50       ?GetSize@CComDynamicUnkArray@ATL@@QEBAHXZ 0000000180016e50 f i MSR.obj
 0001:00015e60       ?GetSizeMax@?$IPersistStreamInitImpl@VCOPOSMSR@@@ATL@@UEAAJPEAT_ULARGE_INTEGER@@@Z 0000000180016e60 f i MSR.obj
 0001:00016600       ?GetSizeMax@CComVariant@ATL@@QEBAJPEAT_ULARGE_INTEGER@@@Z 0000000180017600 f i MSR.obj
 0001:00016a50       ?GetStreamSize@CComBSTR@ATL@@SAKPEA_W@Z 0000000180017a50 f i MSR.obj
 0001:00016a90       ?GetTI@CComTypeInfoHolder@ATL@@QEAAJK@Z 0000000180017a90 f i MSR.obj
 0001:00017360       ?GetTI@CComTypeInfoHolder@ATL@@QEAAJKPEAPEAUITypeInfo@@@Z 0000000180018360 f i MSR.obj
 0001:00017440       ?GetTypeInfo@?$IDispatchImpl@UIOPOSMSR@@$1?IID_IOPOSMSR@@3U_GUID@@B$1?LIBID_OposMSR_CCO@@3U3@B$00$0A@VCComTypeInfoHolder@ATL@@@ATL@@UEAAJIKPEAPEAUITypeInfo@@@Z 0000000180018440 f i MSR.obj
 0001:00017480       ?GetTypeInfo@CComTypeInfoHolder@ATL@@QEAAJIKPEAPEAUITypeInfo@@@Z 0000000180018480 f i MSR.obj
 0001:000174c0       ?GetTypeInfoCount@?$IDispatchImpl@UIOPOSMSR@@$1?IID_IOPOSMSR@@3U_GUID@@B$1?LIBID_OposMSR_CCO@@3U3@B$00$0A@VCComTypeInfoHolder@ATL@@@ATL@@UEAAJPEAI@Z 00000001800184c0 f i MSR.obj
 0001:000174f0       ?GetUnknown@CComDynamicUnkArray@ATL@@QEAAPEAUIUnknown@@K@Z 00000001800184f0 f i MSR.obj
 0001:00017580       ?GetUnknown@COPOSMSR@@QEAAPEAUIUnknown@@XZ 0000000180018580 f i MSR.obj
 0001:000175a0       ?GetUserClassID@?$IOleObjectImpl@VCOPOSMSR@@@ATL@@UEAAJPEAU_GUID@@@Z 00000001800185a0 f i MSR.obj
 0001:00017660       ?GetUserType@?$IOleObjectImpl@VCOPOSMSR@@@ATL@@UEAAJKPEAPEA_W@Z 0000000180018660 f i MSR.obj
 0001:000176e0       ?GetValueAt@?$CSimpleMap@PEA_WPEA_WVCExpansionVectorEqualHelper@ATL@@@ATL@@QEBAAEAPEA_WH@Z 00000001800186e0 f i MSR.obj
 0001:00017780       ?GetViewStatus@?$IViewObjectExImpl@VCOPOSMSR@@@ATL@@UEAAJPEAK@Z 0000000180018780 f i MSR.obj
 0001:00017870       ?GetWNDPROC@CWndProcThunk@ATL@@QEAAP6A_JPEAUHWND__@@I_K_J@ZXZ 0000000180018870 f i MSR.obj
 0001:000178a0       ?GetWindow@?$IOleInPlaceActiveObjectImpl@VCOPOSMSR@@@ATL@@UEAAJPEAPEAUHWND__@@@Z 00000001800188a0 f i MSR.obj
 0001:00017990       ?GetWindow@?$IOleInPlaceObjectWindowlessImpl@VCOPOSMSR@@@ATL@@UEAAJPEAPEAUHWND__@@@Z 0000000180018990 f i MSR.obj
 0001:00017a80       ?GetWindowProc@?$CWindowImplBaseT@VCWindow@ATL@@V?$CWinTraits@$0FGAAAAAA@$0A@@2@@ATL@@UEAAP6A_JPEAUHWND__@@I_K_J@ZXZ 0000000180018a80 f i MSR.obj
 0001:00017a90       ?GetWndCaption@?$CWindowImpl@VCOPOSMSR@@VCWindow@ATL@@V?$CWinTraits@$0FGAAAAAA@$0A@@3@@ATL@@SAPEB_WXZ 0000000180018a90 f i MSR.obj
 0001:00017aa0       ?GetWndClassInfo@?$CWindowImpl@VCOPOSMSR@@VCWindow@ATL@@V?$CWinTraits@$0FGAAAAAA@$0A@@3@@ATL@@SAAEAU_ATL_WNDCLASSINFOW@2@XZ 0000000180018aa0 f i MSR.obj
 0001:00017ab0       ?GetWndClassName@CWindow@ATL@@SAPEB_WXZ 0000000180018ab0 f i MSR.obj
 0001:00017ac0       ?GetWndExStyle@?$CWinTraits@$0FGAAAAAA@$0A@@ATL@@SAKK@Z 0000000180018ac0 f i MSR.obj
 0001:00017af0       ?GetWndExStyle@?$CWindowImplBaseT@VCWindow@ATL@@V?$CWinTraits@$0FGAAAAAA@$0A@@2@@ATL@@SAKK@Z 0000000180018af0 f i MSR.obj
 0001:00017b10       ?GetWndStyle@?$CWinTraits@$0FGAAAAAA@$0A@@ATL@@SAKK@Z 0000000180018b10 f i MSR.obj
 0001:00017b40       ?GetWndStyle@?$CWindowImplBaseT@VCWindow@ATL@@V?$CWinTraits@$0FGAAAAAA@$0A@@2@@ATL@@SAKK@Z 0000000180018b40 f i MSR.obj
 0001:00017b60       ?GetZoomInfo@CComControlBase@ATL@@QEAAXAEAUATL_DRAWINFO@@@Z 0000000180018b60 f i MSR.obj
 0001:00017d10       ?HKeyFromString@CRegParser@ATL@@KAPEAUHKEY__@@PEA_W@Z 0000000180018d10 f i MSR.obj
 0001:00017d80       ?HandsOffStorage@?$IPersistStorageImpl@VCOPOSMSR@@@ATL@@UEAAJXZ 0000000180018d80 f i MSR.obj
 0001:00017de0       ?HasSubKeys@CRegParser@ATL@@IEAAHPEAUHKEY__@@@Z 0000000180018de0 f i MSR.obj
 0001:00017f50       ?IDataObject_GetData@CComControlBase@ATL@@QEAAJPEAUtagFORMATETC@@PEAUtagSTGMEDIUM@@@Z 0000000180018f50 f i MSR.obj
 0001:00018400       ?IOleInPlaceObject_InPlaceDeactivate@CComControlBase@ATL@@QEAAJXZ 0000000180019400 f i MSR.obj
 0001:00018670       ?IOleInPlaceObject_SetObjectRects@CComControlBase@ATL@@QEAAJPEBUtagRECT@@0@Z 0000000180019670 f i MSR.obj
 0001:00018860       ?IOleInPlaceObject_UIDeactivate@CComControlBase@ATL@@QEAAJXZ 0000000180019860 f i MSR.obj
 0001:00018ad0       ?IOleObject_Advise@CComControlBase@ATL@@QEAAJPEAUIAdviseSink@@PEAK@Z 0000000180019ad0 f i MSR.obj
 0001:00018b70       ?IOleObject_Close@CComControlBase@ATL@@QEAAJK@Z 0000000180019b70 f i MSR.obj
 0001:00018ee0       ?IOleObject_GetClientSite@CComControlBase@ATL@@QEAAJPEAPEAUIOleClientSite@@@Z 0000000180019ee0 f i MSR.obj
 0001:00018fa0       ?IOleObject_SetClientSite@CComControlBase@ATL@@QEAAJPEAUIOleClientSite@@@Z 0000000180019fa0 f i MSR.obj
 0001:000190a0       ?IOleObject_SetExtent@CComControlBase@ATL@@QEAAJKPEAUtagSIZE@@@Z 000000018001a0a0 f i MSR.obj
 0001:000191f0       ?IPSI_GetIPersistStreamInit@?$IPersistStorageImpl@VCOPOSMSR@@@ATL@@AEAAPEAUIPersistStreamInit@@XZ 000000018001a1f0 f i MSR.obj
 0001:000192b0       ?IPersistStreamInit_Load@?$IPersistStreamInitImpl@VCOPOSMSR@@@ATL@@QEAAJPEAUIStream@@PEBUATL_PROPMAP_ENTRY@2@@Z 000000018001a2b0 f i MSR.obj
 0001:00019340       ?IPersistStreamInit_Save@?$IPersistStreamInitImpl@VCOPOSMSR@@@ATL@@QEAAJPEAUIStream@@HPEBUATL_PROPMAP_ENTRY@2@@Z 000000018001a340 f i MSR.obj
 0001:000193e0       ?IQuickActivate_QuickActivate@CComControlBase@ATL@@QEAAJPEAUtagQACONTAINER@@PEAUtagQACONTROL@@@Z 000000018001a3e0 f i MSR.obj
 0001:00019c20       ?IViewObject_Draw@CComControlBase@ATL@@QEAAJKJPEAXPEAUtagDVTARGETDEVICE@@PEAUHDC__@@2PEBU_RECTL@@3@Z 000000018001ac20 f i MSR.obj
 0001:0001a070       ?InPlaceActivate@CComControlBase@ATL@@QEAAJJPEBUtagRECT@@@Z 000000018001b070 f i MSR.obj
 0001:0001ac10       ?InPlaceDeactivate@?$IOleInPlaceObjectWindowlessImpl@VCOPOSMSR@@@ATL@@UEAAJXZ 000000018001bc10 f i MSR.obj
 0001:0001aca0       ?Increment@CComMultiThreadModel@ATL@@SAKPEAJ@Z 000000018001bca0 f i MSR.obj
 0001:0001acc0       ?Increment@CComSingleThreadModel@ATL@@SAKPEAJ@Z 000000018001bcc0 f i MSR.obj
 0001:0001ace0       ?Init@?$CComEnumImpl@UIEnumConnectionPoints@@$1?_GUID_b196b285_bab4_101a_b69c_00aa00341d07@@3U__s_GUID@@BPEAUIConnectionPoint@@V?$_CopyInterface@UIConnectionPoint@@@ATL@@@ATL@@QEAAJPEAPEAUIConnectionPoint@@0PEAUIUnknown@@W4CComEnumFlags@2@@Z 000000018001bce0 f i MSR.obj
 0001:0001afc0       ?Init@?$CComEnumImpl@UIEnumConnections@@$1?_GUID_b196b287_bab4_101a_b69c_00aa00341d07@@3U__s_GUID@@BUtagCONNECTDATA@@V?$_Copy@UtagCONNECTDATA@@@ATL@@@ATL@@QEAAJPEAUtagCONNECTDATA@@0PEAUIUnknown@@W4CComEnumFlags@2@@Z 000000018001bfc0 f i MSR.obj
 0001:0001b2a0       ?Init@CComFakeCriticalSection@ATL@@QEAAJXZ 000000018001c2a0 f i MSR.obj
 0001:0001b2b0       ?Init@CComModule@ATL@@QEAAJPEAU_ATL_OBJMAP_ENTRY30@2@PEAUHINSTANCE__@@PEBU_GUID@@@Z 000000018001c2b0 f i MSR.obj
 0001:0001b390       ?Init@CComSafeDeleteCriticalSection@ATL@@QEAAJXZ 000000018001c390 f i MSR.obj
 0001:0001b410       ?Init@CDynamicStdCallThunk2@ATL@@QEAAH_KPEAX@Z 000000018001c410 f i MSR.obj
 0001:0001b470       ?Init@CWndProcThunk@ATL@@QEAAHP6A_JPEAUHWND__@@I_K_J@ZPEAX@Z 000000018001c470 f i MSR.obj
 0001:0001b4b0       ?InitFromData@?$IOleObjectImpl@VCOPOSMSR@@@ATL@@UEAAJPEAUIDataObject@@HK@Z 000000018001c4b0 f i MSR.obj
 0001:0001b530       ?InitLibId@?$CAtlModuleT@VCComModule@ATL@@@ATL@@SAXXZ 000000018001c530 f i MSR.obj
 0001:0001b540       ?InitNew@?$IPersistStorageImpl@VCOPOSMSR@@@ATL@@UEAAJPEAUIStorage@@@Z 000000018001c540 f i MSR.obj
 0001:0001b630       ?InitNew@?$IPersistStreamInitImpl@VCOPOSMSR@@@ATL@@UEAAJXZ 000000018001c630 f i MSR.obj
 0001:0001b6d0       ?InlineIsEqualUnknown@ATL@@YAHAEBU_GUID@@@Z 000000018001c6d0 f i MSR.obj
 0001:0001b750       ?InternalAddRef@?$CComObjectRootEx@VCComMultiThreadModel@ATL@@@ATL@@QEAAKXZ 000000018001c750 f i MSR.obj
 0001:0001b7c0       ?InternalAddRef@?$CComObjectRootEx@VCComSingleThreadModel@ATL@@@ATL@@QEAAKXZ 000000018001c7c0 f i MSR.obj
 0001:0001b830       ?InternalFinalConstructAddRef@CComObjectRootBase@ATL@@QEAAXXZ 000000018001c830 f i MSR.obj
 0001:0001b840       ?InternalFinalConstructAddRef@COPOSMSR@@QEAAXXZ 000000018001c840 f i MSR.obj
 0001:0001b870       ?InternalFinalConstructRelease@CComObjectRootBase@ATL@@QEAAXXZ 000000018001c870 f i MSR.obj
 0001:0001b8d0       ?InternalFinalConstructRelease@COPOSMSR@@QEAAXXZ 000000018001c8d0 f i MSR.obj
 0001:0001b900       ?InternalGetSite@CComControlBase@ATL@@QEAAJAEBU_GUID@@PEAPEAX@Z 000000018001c900 f i MSR.obj
 0001:0001b9d0       ?InternalQueryInterface@CComObjectRootBase@ATL@@SAJPEAXPEBU_ATL_INTMAP_ENTRY@2@AEBU_GUID@@PEAPEAX@Z 000000018001c9d0 f i MSR.obj
 0001:0001bae0       ?InternalRelease@?$CComObjectRootEx@VCComMultiThreadModel@ATL@@@ATL@@QEAAKXZ 000000018001cae0 f i MSR.obj
 0001:0001bb50       ?InternalRelease@?$CComObjectRootEx@VCComSingleThreadModel@ATL@@@ATL@@QEAAKXZ 000000018001cb50 f i MSR.obj
 0001:0001bbc0       ?InternalSetAtIndex@?$CSimpleArray@GV?$CSimpleArrayEqualHelper@G@ATL@@@ATL@@QEAAXHAEBG@Z 000000018001cbc0 f i MSR.obj
 0001:0001bc30       ?InternalSetAtIndex@?$CSimpleMap@PEA_WPEA_WVCExpansionVectorEqualHelper@ATL@@@ATL@@QEAAXHAEBQEA_W0@Z 000000018001cc30 f i MSR.obj
 0001:0001bcf0       ?Invoke@?$IDispatchImpl@UIOPOSMSR@@$1?IID_IOPOSMSR@@3U_GUID@@B$1?LIBID_OposMSR_CCO@@3U3@B$00$0A@VCComTypeInfoHolder@ATL@@@ATL@@UEAAJJAEBU_GUID@@KGPEAUtagDISPPARAMS@@PEAUtagVARIANT@@PEAUtagEXCEPINFO@@PEAI@Z 000000018001ccf0 f i MSR.obj
 0001:0001bd80       ?Invoke@CComTypeInfoHolder@ATL@@QEAAJPEAUIDispatch@@JAEBU_GUID@@KGPEAUtagDISPPARAMS@@PEAUtagVARIANT@@PEAUtagEXCEPINFO@@PEAI@Z 000000018001cd80 f i MSR.obj
 0001:0001be30       ?IsDirty@?$IPersistStorageImpl@VCOPOSMSR@@@ATL@@UEAAJXZ 000000018001ce30 f i MSR.obj
 0001:0001bf20       ?IsDirty@?$IPersistStreamInitImpl@VCOPOSMSR@@@ATL@@UEAAJXZ 000000018001cf20 f i MSR.obj
 0001:0001bfd0       ?IsEqualKey@CExpansionVectorEqualHelper@ATL@@SA_NQEA_W0@Z 000000018001cfd0 f i MSR.obj
 0001:0001c000       ?IsEqualObject@?$CComPtrBase@UIOleClientSite@@@ATL@@QEAA_NPEAUIUnknown@@@Z 000000018001d000 f i MSR.obj
 0001:0001c150       ?IsEqualObject@?$CComPtrBase@UITypeInfo@@@ATL@@QEAA_NPEAUIUnknown@@@Z 000000018001d150 f i MSR.obj
 0001:0001c2a0       ?IsSpace@CRegParser@ATL@@IEAAH_W@Z 000000018001d2a0 f i MSR.obj
 0001:0001c2e0       ?IsUpToDate@?$IOleObjectImpl@VCOPOSMSR@@@ATL@@UEAAJXZ 000000018001d2e0 f i MSR.obj
 0001:0001c340       ?Length@CComBSTR@ATL@@QEBAIXZ 000000018001d340 f i MSR.obj
 0001:0001c360       ?Load@?$IPersistStorageImpl@VCOPOSMSR@@@ATL@@UEAAJPEAUIStorage@@@Z 000000018001d360 f i MSR.obj
 0001:0001c510       ?Load@?$IPersistStreamInitImpl@VCOPOSMSR@@@ATL@@UEAAJPEAUIStream@@@Z 000000018001d510 f i MSR.obj
 0001:0001c5c0       ?LoadCursorW@AtlModuleRegisterWndClassInfoParamW@ATL@@SAPEAUHICON__@@PEAUHINSTANCE__@@PEB_W@Z 000000018001d5c0 f i MSR.obj
 0001:0001c5f0       ?LoadNameCache@CComTypeInfoHolder@ATL@@QEAAJPEAUITypeInfo@@@Z 000000018001d5f0 f i MSR.obj
 0001:0001c930       ?Lock@?$CComCritSecLock@VCComCriticalSection@ATL@@@ATL@@QEAAJXZ 000000018001d930 f i MSR.obj
 0001:0001ca00       ?Lock@?$CComObjectRootEx@VCComSingleThreadModel@ATL@@@ATL@@QEAAXXZ 000000018001da00 f i MSR.obj
 0001:0001ca10       ?Lock@CAtlModule@ATL@@UEAAJXZ 000000018001da10 f i MSR.obj
 0001:0001ca40       ?Lock@CComCriticalSection@ATL@@QEAAJXZ 000000018001da40 f i MSR.obj
 0001:0001ca60       ?Lock@CComFakeCriticalSection@ATL@@QEAAJXZ 000000018001da60 f i MSR.obj
 0001:0001ca70       ?LockServer@CComClassFactory@ATL@@UEAAJH@Z 000000018001da70 f i MSR.obj
 0001:0001cac0       ?Lookup@?$CSimpleMap@PEA_WPEA_WVCExpansionVectorEqualHelper@ATL@@@ATL@@QEBAPEA_WAEBQEA_W@Z 000000018001dac0 f i MSR.obj
 0001:0001cb10       ?Next@?$CComEnumImpl@UIEnumConnectionPoints@@$1?_GUID_b196b285_bab4_101a_b69c_00aa00341d07@@3U__s_GUID@@BPEAUIConnectionPoint@@V?$_CopyInterface@UIConnectionPoint@@@ATL@@@ATL@@UEAAJKPEAPEAUIConnectionPoint@@PEAK@Z 000000018001db10 f i MSR.obj
 0001:0001ccc0       ?Next@?$CComEnumImpl@UIEnumConnections@@$1?_GUID_b196b287_bab4_101a_b69c_00aa00341d07@@3U__s_GUID@@BUtagCONNECTDATA@@V?$_Copy@UtagCONNECTDATA@@@ATL@@@ATL@@UEAAJKPEAUtagCONNECTDATA@@PEAK@Z 000000018001dcc0 f i MSR.obj
 0001:0001ce70       ?NextToken@CRegParser@ATL@@IEAAJPEA_W@Z 000000018001de70 f i MSR.obj
 0001:0001d1f0       ?OLE2CT_EX@@YAPEB_WPEB_WI@Z 000000018001e1f0 f i MSR.obj
 0001:0001d210       ?OLE2CT_EX_DEF@@YAPEB_WPEB_W@Z 000000018001e210 f i MSR.obj
 0001:0001d220       ?OLE2T_EX@@YAPEA_WPEA_WI@Z 000000018001e220 f i MSR.obj
 0001:0001d240       ?OnAmbientPropertyChange@?$IOleControlImpl@VCOPOSMSR@@@ATL@@UEAAJJ@Z 000000018001e240 f i MSR.obj
 0001:0001d2f0       ?OnDocWindowActivate@?$IOleInPlaceActiveObjectImpl@VCOPOSMSR@@@ATL@@UEAAJH@Z 000000018001e2f0 f i MSR.obj
 0001:0001d390       ?OnDrawAdvanced@CComControlBase@ATL@@UEAAJAEAUATL_DRAWINFO@@@Z 000000018001e390 f i MSR.obj
 0001:0001d5e0       ?OnFinalMessage@?$CWindowImplBaseT@VCWindow@ATL@@V?$CWinTraits@$0FGAAAAAA@$0A@@2@@ATL@@UEAAXPEAUHWND__@@@Z 000000018001e5e0 f i MSR.obj
 0001:0001d5f0       ?OnFrameWindowActivate@?$IOleInPlaceActiveObjectImpl@VCOPOSMSR@@@ATL@@UEAAJH@Z 000000018001e5f0 f i MSR.obj
 0001:0001d650       ?OnKillFocus@CComControlBase@ATL@@QEAA_JI_K_JAEAH@Z 000000018001e650 f i MSR.obj
 0001:0001d750       ?OnMnemonic@?$IOleControlImpl@VCOPOSMSR@@@ATL@@UEAAJPEAUtagMSG@@@Z 000000018001e750 f i MSR.obj
 0001:0001d7c0       ?OnMouseActivate@CComControlBase@ATL@@QEAA_JI_K_JAEAH@Z 000000018001e7c0 f i MSR.obj
 0001:0001d960       ?OnPaint@CComControlBase@ATL@@QEAA_JI_K_JAEAH@Z 000000018001e960 f i MSR.obj
 0001:0001daf0       ?OnPostVerbDiscardUndo@?$IOleObjectImpl@VCOPOSMSR@@@ATL@@QEAAJXZ 000000018001eaf0 f i MSR.obj
 0001:0001db00       ?OnPostVerbHide@?$IOleObjectImpl@VCOPOSMSR@@@ATL@@QEAAJXZ 000000018001eb00 f i MSR.obj
 0001:0001db10       ?OnPostVerbInPlaceActivate@?$IOleObjectImpl@VCOPOSMSR@@@ATL@@QEAAJXZ 000000018001eb10 f i MSR.obj
 0001:0001db20       ?OnPostVerbOpen@?$IOleObjectImpl@VCOPOSMSR@@@ATL@@QEAAJXZ 000000018001eb20 f i MSR.obj
 0001:0001db30       ?OnPostVerbShow@?$IOleObjectImpl@VCOPOSMSR@@@ATL@@QEAAJXZ 000000018001eb30 f i MSR.obj
 0001:0001db40       ?OnPostVerbUIActivate@?$IOleObjectImpl@VCOPOSMSR@@@ATL@@QEAAJXZ 000000018001eb40 f i MSR.obj
 0001:0001db50       ?OnPreVerbDiscardUndo@?$IOleObjectImpl@VCOPOSMSR@@@ATL@@QEAAJXZ 000000018001eb50 f i MSR.obj
 0001:0001db60       ?OnPreVerbHide@?$IOleObjectImpl@VCOPOSMSR@@@ATL@@QEAAJXZ 000000018001eb60 f i MSR.obj
 0001:0001db70       ?OnPreVerbInPlaceActivate@?$IOleObjectImpl@VCOPOSMSR@@@ATL@@QEAAJXZ 000000018001eb70 f i MSR.obj
 0001:0001db80       ?OnPreVerbOpen@?$IOleObjectImpl@VCOPOSMSR@@@ATL@@QEAAJXZ 000000018001eb80 f i MSR.obj
 0001:0001db90       ?OnPreVerbShow@?$IOleObjectImpl@VCOPOSMSR@@@ATL@@QEAAJXZ 000000018001eb90 f i MSR.obj
 0001:0001dba0       ?OnPreVerbUIActivate@?$IOleObjectImpl@VCOPOSMSR@@@ATL@@QEAAJXZ 000000018001eba0 f i MSR.obj
 0001:0001dbb0       ?OnSetFocus@CComControlBase@ATL@@QEAA_JI_K_JAEAH@Z 000000018001ebb0 f i MSR.obj
 0001:0001ddb0       ?OnWindowMessage@?$IOleInPlaceObjectWindowlessImpl@VCOPOSMSR@@@ATL@@UEAAJI_K_JPEA_J@Z 000000018001edb0 f i MSR.obj
 0001:0001dfd0       ?Open@CRegKey@ATL@@QEAAJPEAUHKEY__@@PEB_WK@Z 000000018001efd0 f i MSR.obj
 0001:0001e150       ?OuterAddRef@CComObjectRootBase@ATL@@QEAAKXZ 000000018001f150 f i MSR.obj
 0001:0001e180       ?OuterQueryInterface@CComObjectRootBase@ATL@@QEAAJAEBU_GUID@@PEAPEAX@Z 000000018001f180 f i MSR.obj
 0001:0001e1c0       ?OuterRelease@CComObjectRootBase@ATL@@QEAAKXZ 000000018001f1c0 f i MSR.obj
 0001:0001e1f0       ?PreProcessBuffer@CRegParser@ATL@@QEAAJPEA_WPEAPEA_W@Z 000000018001f1f0 f i MSR.obj
 0001:0001e8d0       ?PreTranslateAccelerator@CComControlBase@ATL@@QEAAHPEAUtagMSG@@AEAJ@Z 000000018001f8d0 f i MSR.obj
 0001:0001e8f0       ?ProcessWindowMessage@?$CComControl@VCOPOSMSR@@V?$CWindowImpl@VCOPOSMSR@@VCWindow@ATL@@V?$CWinTraits@$0FGAAAAAA@$0A@@3@@ATL@@@ATL@@UEAAHPEAUHWND__@@I_K_JAEA_JK@Z 000000018001f8f0 f i MSR.obj
 0001:0001eb70       ?ProcessWindowMessage@COPOSMSR@@UEAAHPEAUHWND__@@I_K_JAEA_JK@Z 000000018001fb70 f i MSR.obj
 0001:0001ecd0       ?PutProperty@?$CComPtr@UIDispatch@@@ATL@@QEAAJJPEAUtagVARIANT@@@Z 000000018001fcd0 f i MSR.obj
 0001:0001ed00       ?PutProperty@?$CComPtr@UIDispatch@@@ATL@@SAJPEAUIDispatch@@JPEAUtagVARIANT@@@Z 000000018001fd00 f i MSR.obj
 0001:0001efb0       ?QueryGetData@?$IDataObjectImpl@VCOPOSMSR@@@ATL@@UEAAJPEAUtagFORMATETC@@@Z 000000018001ffb0 f i MSR.obj
 0001:0001f020       ?QueryHitPoint@?$IViewObjectExImpl@VCOPOSMSR@@@ATL@@UEAAJKPEBUtagRECT@@UtagPOINT@@JPEAK@Z 0000000180020020 f i MSR.obj
 0001:0001f180       ?QueryHitRect@?$IViewObjectExImpl@VCOPOSMSR@@@ATL@@UEAAJKPEBUtagRECT@@0JPEAK@Z 0000000180020180 f i MSR.obj
 0001:0001f350       ?QueryInterface@?$CComAggObject@VCOPOSMSR@@@ATL@@UEAAJAEBU_GUID@@PEAPEAX@Z 0000000180020350 f i MSR.obj
 0001:0001f420       ?QueryInterface@?$CComContainedObject@VCOPOSMSR@@@ATL@@UEAAJAEBU_GUID@@PEAPEAX@Z 0000000180020420 f i MSR.obj
 0001:0001f458       ?QueryInterface@?$CComContainedObject@VCOPOSMSR@@@ATL@@WBAA@EAAJAEBU_GUID@@PEAPEAX@Z 0000000180020458 f i MSR.obj
 0001:0001f464       ?QueryInterface@?$CComContainedObject@VCOPOSMSR@@@ATL@@WBAI@EAAJAEBU_GUID@@PEAPEAX@Z 0000000180020464 f i MSR.obj
 0001:0001f470       ?QueryInterface@?$CComContainedObject@VCOPOSMSR@@@ATL@@WBBA@EAAJAEBU_GUID@@PEAPEAX@Z 0000000180020470 f i MSR.obj
 0001:0001f47c       ?QueryInterface@?$CComContainedObject@VCOPOSMSR@@@ATL@@WBBI@EAAJAEBU_GUID@@PEAPEAX@Z 000000018002047c f i MSR.obj
 0001:0001f488       ?QueryInterface@?$CComContainedObject@VCOPOSMSR@@@ATL@@WLI@EAAJAEBU_GUID@@PEAPEAX@Z 0000000180020488 f i MSR.obj
 0001:0001f494       ?QueryInterface@?$CComContainedObject@VCOPOSMSR@@@ATL@@WMA@EAAJAEBU_GUID@@PEAPEAX@Z 0000000180020494 f i MSR.obj
 0001:0001f4a0       ?QueryInterface@?$CComContainedObject@VCOPOSMSR@@@ATL@@WMI@EAAJAEBU_GUID@@PEAPEAX@Z 00000001800204a0 f i MSR.obj
 0001:0001f4ac       ?QueryInterface@?$CComContainedObject@VCOPOSMSR@@@ATL@@WNA@EAAJAEBU_GUID@@PEAPEAX@Z 00000001800204ac f i MSR.obj
 0001:0001f4b8       ?QueryInterface@?$CComContainedObject@VCOPOSMSR@@@ATL@@WNI@EAAJAEBU_GUID@@PEAPEAX@Z 00000001800204b8 f i MSR.obj
 0001:0001f4c4       ?QueryInterface@?$CComContainedObject@VCOPOSMSR@@@ATL@@WOA@EAAJAEBU_GUID@@PEAPEAX@Z 00000001800204c4 f i MSR.obj
 0001:0001f4d0       ?QueryInterface@?$CComContainedObject@VCOPOSMSR@@@ATL@@WOI@EAAJAEBU_GUID@@PEAPEAX@Z 00000001800204d0 f i MSR.obj
 0001:0001f4dc       ?QueryInterface@?$CComContainedObject@VCOPOSMSR@@@ATL@@WPA@EAAJAEBU_GUID@@PEAPEAX@Z 00000001800204dc f i MSR.obj
 0001:0001f4e8       ?QueryInterface@?$CComContainedObject@VCOPOSMSR@@@ATL@@WPI@EAAJAEBU_GUID@@PEAPEAX@Z 00000001800204e8 f i MSR.obj
 0001:0001f500       ?QueryInterface@?$CComObject@V?$CComEnum@UIEnumConnectionPoints@@$1?_GUID_b196b285_bab4_101a_b69c_00aa00341d07@@3U__s_GUID@@BPEAUIConnectionPoint@@V?$_CopyInterface@UIConnectionPoint@@@ATL@@VCComSingleThreadModel@6@@ATL@@@ATL@@UEAAJAEBU_GUID@@PEAPEAX@Z 0000000180020500 f i MSR.obj
 0001:0001f530       ?QueryInterface@?$CComObject@V?$CComEnum@UIEnumConnections@@$1?_GUID_b196b287_bab4_101a_b69c_00aa00341d07@@3U__s_GUID@@BUtagCONNECTDATA@@V?$_Copy@UtagCONNECTDATA@@@ATL@@VCComSingleThreadModel@6@@ATL@@@ATL@@UEAAJAEBU_GUID@@PEAPEAX@Z 0000000180020530 f i MSR.obj
 0001:0001f560       ?QueryInterface@?$CComObject@VCOPOSMSR@@@ATL@@UEAAJAEBU_GUID@@PEAPEAX@Z 0000000180020560 f i MSR.obj
 0001:0001f590       ?QueryInterface@?$CComObject@VCOPOSMSR@@@ATL@@WBAA@EAAJAEBU_GUID@@PEAPEAX@Z 0000000180020590 f i MSR.obj
 0001:0001f59c       ?QueryInterface@?$CComObject@VCOPOSMSR@@@ATL@@WBAI@EAAJAEBU_GUID@@PEAPEAX@Z 000000018002059c f i MSR.obj
 0001:0001f5a8       ?QueryInterface@?$CComObject@VCOPOSMSR@@@ATL@@WBBA@EAAJAEBU_GUID@@PEAPEAX@Z 00000001800205a8 f i MSR.obj
 0001:0001f5b4       ?QueryInterface@?$CComObject@VCOPOSMSR@@@ATL@@WBBI@EAAJAEBU_GUID@@PEAPEAX@Z 00000001800205b4 f i MSR.obj
 0001:0001f5c0       ?QueryInterface@?$CComObject@VCOPOSMSR@@@ATL@@WLI@EAAJAEBU_GUID@@PEAPEAX@Z 00000001800205c0 f i MSR.obj
 0001:0001f5cc       ?QueryInterface@?$CComObject@VCOPOSMSR@@@ATL@@WMA@EAAJAEBU_GUID@@PEAPEAX@Z 00000001800205cc f i MSR.obj
 0001:0001f5d8       ?QueryInterface@?$CComObject@VCOPOSMSR@@@ATL@@WMI@EAAJAEBU_GUID@@PEAPEAX@Z 00000001800205d8 f i MSR.obj
 0001:0001f5e4       ?QueryInterface@?$CComObject@VCOPOSMSR@@@ATL@@WNA@EAAJAEBU_GUID@@PEAPEAX@Z 00000001800205e4 f i MSR.obj
 0001:0001f5f0       ?QueryInterface@?$CComObject@VCOPOSMSR@@@ATL@@WNI@EAAJAEBU_GUID@@PEAPEAX@Z 00000001800205f0 f i MSR.obj
 0001:0001f5fc       ?QueryInterface@?$CComObject@VCOPOSMSR@@@ATL@@WOA@EAAJAEBU_GUID@@PEAPEAX@Z 00000001800205fc f i MSR.obj
 0001:0001f608       ?QueryInterface@?$CComObject@VCOPOSMSR@@@ATL@@WOI@EAAJAEBU_GUID@@PEAPEAX@Z 0000000180020608 f i MSR.obj
 0001:0001f614       ?QueryInterface@?$CComObject@VCOPOSMSR@@@ATL@@WPA@EAAJAEBU_GUID@@PEAPEAX@Z 0000000180020614 f i MSR.obj
 0001:0001f620       ?QueryInterface@?$CComObject@VCOPOSMSR@@@ATL@@WPI@EAAJAEBU_GUID@@PEAPEAX@Z 0000000180020620 f i MSR.obj
 0001:0001f630       ?QueryInterface@?$CComObjectCached@VCComClassFactory@ATL@@@ATL@@UEAAJAEBU_GUID@@PEAPEAX@Z 0000000180020630 f i MSR.obj
 0001:0001f660       ?QueryInterface@CRegObject@ATL@@UEAAJAEBU_GUID@@PEAPEAX@Z 0000000180020660 f i MSR.obj
 0001:0001f6d0       ?QuickActivate@?$IQuickActivateImpl@VCOPOSMSR@@@ATL@@UEAAJPEAUtagQACONTAINER@@PEAUtagQACONTROL@@@Z 00000001800206d0 f i MSR.obj
 0001:0001f780       ?ReactivateAndUndo@?$IOleInPlaceObjectWindowlessImpl@VCOPOSMSR@@@ATL@@UEAAJXZ 0000000180020780 f i MSR.obj
 0001:0001f7f0       ?ReadFromStream@CComBSTR@ATL@@QEAAJPEAUIStream@@@Z 00000001800207f0 f i MSR.obj
 0001:0001fcd0       ?ReadFromStream@CComVariant@ATL@@QEAAJPEAUIStream@@GTClassesAllowedInStream@2@K@Z 0000000180020cd0 f i MSR.obj
 0001:00020110       ?RecurseDeleteKey@CRegKey@ATL@@QEAAJPEB_W@Z 0000000180021110 f i MSR.obj
 0001:00020330       ?RegCreateKeyExW@CAtlTransactionManager@ATL@@QEAAJPEAUHKEY__@@PEB_WKPEA_WKKQEAU_SECURITY_ATTRIBUTES@@PEAPEAU3@PEAK@Z 0000000180021330 f i MSR.obj
 0001:000204e0       ?RegDeleteKeyW@CAtlTransactionManager@ATL@@QEAAJPEAUHKEY__@@PEB_W@Z 00000001800214e0 f i MSR.obj
 0001:000205e0       ?RegOpenKeyExW@CAtlTransactionManager@ATL@@QEAAJPEAUHKEY__@@PEB_WKKPEAPEAU3@@Z 00000001800215e0 f i MSR.obj
 0001:00020720       ?Register@_ATL_WNDCLASSINFOW@ATL@@QEAAGPEAP6A_JPEAUHWND__@@I_K_J@Z@Z 0000000180021720 f i MSR.obj
 0001:00020760       ?RegisterBuffer@CRegParser@ATL@@QEAAJPEA_WH@Z 0000000180021760 f i MSR.obj
 0001:00020b50       ?RegisterClassExW@AtlModuleRegisterWndClassInfoParamW@ATL@@SAGPEAU_ATL_WIN_MODULE70@2@PEBUtagWNDCLASSEXW@@@Z 0000000180021b50 f i MSR.obj
 0001:00020b80       ?RegisterFromResource@CRegObject@ATL@@IEAAJPEB_W00H@Z 0000000180021b80 f i MSR.obj
 0001:00020fe0       ?RegisterServer@?$CAtlModuleT@VCComModule@ATL@@@ATL@@QEAAJHPEBU_GUID@@@Z 0000000180021fe0 f i MSR.obj
 0001:00021040       ?RegisterServer@CAtlComModule@ATL@@QEAAJHPEBU_GUID@@@Z 0000000180022040 f i MSR.obj
 0001:00021070       ?RegisterServer@CComModule@ATL@@QEAAJHPEBU_GUID@@@Z 0000000180022070 f i MSR.obj
 0001:00021150       ?RegisterSubkeys@CRegParser@ATL@@IEAAJPEA_WPEAUHKEY__@@HH@Z 0000000180022150 f i MSR.obj
 0001:00021f30       ?Release@?$CComAggObject@VCOPOSMSR@@@ATL@@UEAAKXZ 0000000180022f30 f i MSR.obj
 0001:00021fe0       ?Release@?$CComContainedObject@VCOPOSMSR@@@ATL@@UEAAKXZ 0000000180022fe0 f i MSR.obj
 0001:00022004       ?Release@?$CComContainedObject@VCOPOSMSR@@@ATL@@WBAA@EAAKXZ 0000000180023004 f i MSR.obj
 0001:00022010       ?Release@?$CComContainedObject@VCOPOSMSR@@@ATL@@WBAI@EAAKXZ 0000000180023010 f i MSR.obj
 0001:0002201c       ?Release@?$CComContainedObject@VCOPOSMSR@@@ATL@@WBBA@EAAKXZ 000000018002301c f i MSR.obj
 0001:00022028       ?Release@?$CComContainedObject@VCOPOSMSR@@@ATL@@WBBI@EAAKXZ 0000000180023028 f i MSR.obj
 0001:00022034       ?Release@?$CComContainedObject@VCOPOSMSR@@@ATL@@WBCI@EAAKXZ 0000000180023034 f i MSR.obj
 0001:00022040       ?Release@?$CComContainedObject@VCOPOSMSR@@@ATL@@WBEA@EAAKXZ 0000000180023040 f i MSR.obj
 0001:0002204c       ?Release@?$CComContainedObject@VCOPOSMSR@@@ATL@@WLI@EAAKXZ 000000018002304c f i MSR.obj
 0001:00022058       ?Release@?$CComContainedObject@VCOPOSMSR@@@ATL@@WMA@EAAKXZ 0000000180023058 f i MSR.obj
 0001:00022064       ?Release@?$CComContainedObject@VCOPOSMSR@@@ATL@@WMI@EAAKXZ 0000000180023064 f i MSR.obj
 0001:00022070       ?Release@?$CComContainedObject@VCOPOSMSR@@@ATL@@WNA@EAAKXZ 0000000180023070 f i MSR.obj
 0001:0002207c       ?Release@?$CComContainedObject@VCOPOSMSR@@@ATL@@WNI@EAAKXZ 000000018002307c f i MSR.obj
 0001:00022088       ?Release@?$CComContainedObject@VCOPOSMSR@@@ATL@@WOA@EAAKXZ 0000000180023088 f i MSR.obj
 0001:00022094       ?Release@?$CComContainedObject@VCOPOSMSR@@@ATL@@WOI@EAAKXZ 0000000180023094 f i MSR.obj
 0001:000220a0       ?Release@?$CComContainedObject@VCOPOSMSR@@@ATL@@WPA@EAAKXZ 00000001800230a0 f i MSR.obj
 0001:000220ac       ?Release@?$CComContainedObject@VCOPOSMSR@@@ATL@@WPI@EAAKXZ 00000001800230ac f i MSR.obj
 0001:000220c0       ?Release@?$CComObject@V?$CComEnum@UIEnumConnectionPoints@@$1?_GUID_b196b285_bab4_101a_b69c_00aa00341d07@@3U__s_GUID@@BPEAUIConnectionPoint@@V?$_CopyInterface@UIConnectionPoint@@@ATL@@VCComSingleThreadModel@6@@ATL@@@ATL@@UEAAKXZ 00000001800230c0 f i MSR.obj
 0001:00022170       ?Release@?$CComObject@V?$CComEnum@UIEnumConnections@@$1?_GUID_b196b287_bab4_101a_b69c_00aa00341d07@@3U__s_GUID@@BUtagCONNECTDATA@@V?$_Copy@UtagCONNECTDATA@@@ATL@@VCComSingleThreadModel@6@@ATL@@@ATL@@UEAAKXZ 0000000180023170 f i MSR.obj
 0001:00022220       ?Release@?$CComObject@VCOPOSMSR@@@ATL@@UEAAKXZ 0000000180023220 f i MSR.obj
 0001:000222d8       ?Release@?$CComObject@VCOPOSMSR@@@ATL@@WBAA@EAAKXZ 00000001800232d8 f i MSR.obj
 0001:000222e4       ?Release@?$CComObject@VCOPOSMSR@@@ATL@@WBAI@EAAKXZ 00000001800232e4 f i MSR.obj
 0001:000222f0       ?Release@?$CComObject@VCOPOSMSR@@@ATL@@WBBA@EAAKXZ 00000001800232f0 f i MSR.obj
 0001:000222fc       ?Release@?$CComObject@VCOPOSMSR@@@ATL@@WBBI@EAAKXZ 00000001800232fc f i MSR.obj
 0001:00022308       ?Release@?$CComObject@VCOPOSMSR@@@ATL@@WBCI@EAAKXZ 0000000180023308 f i MSR.obj
 0001:00022314       ?Release@?$CComObject@VCOPOSMSR@@@ATL@@WBEA@EAAKXZ 0000000180023314 f i MSR.obj
 0001:00022320       ?Release@?$CComObject@VCOPOSMSR@@@ATL@@WLI@EAAKXZ 0000000180023320 f i MSR.obj
 0001:0002232c       ?Release@?$CComObject@VCOPOSMSR@@@ATL@@WMA@EAAKXZ 000000018002332c f i MSR.obj
 0001:00022338       ?Release@?$CComObject@VCOPOSMSR@@@ATL@@WMI@EAAKXZ 0000000180023338 f i MSR.obj
 0001:00022344       ?Release@?$CComObject@VCOPOSMSR@@@ATL@@WNA@EAAKXZ 0000000180023344 f i MSR.obj
 0001:00022350       ?Release@?$CComObject@VCOPOSMSR@@@ATL@@WNI@EAAKXZ 0000000180023350 f i MSR.obj
 0001:0002235c       ?Release@?$CComObject@VCOPOSMSR@@@ATL@@WOA@EAAKXZ 000000018002335c f i MSR.obj
 0001:00022368       ?Release@?$CComObject@VCOPOSMSR@@@ATL@@WOI@EAAKXZ 0000000180023368 f i MSR.obj
 0001:00022374       ?Release@?$CComObject@VCOPOSMSR@@@ATL@@WPA@EAAKXZ 0000000180023374 f i MSR.obj
 0001:00022380       ?Release@?$CComObject@VCOPOSMSR@@@ATL@@WPI@EAAKXZ 0000000180023380 f i MSR.obj
 0001:00022390       ?Release@?$CComObjectCached@VCComClassFactory@ATL@@@ATL@@UEAAKXZ 0000000180023390 f i MSR.obj
 0001:00022420       ?Release@?$CComPtrBase@UIAdviseSink@@@ATL@@QEAAXXZ 0000000180023420 f i MSR.obj
 0001:00022470       ?Release@?$CComPtrBase@UIDispatch@@@ATL@@QEAAXXZ 0000000180023470 f i MSR.obj
 0001:000224c0       ?Release@?$CComPtrBase@UIOleInPlaceSiteWindowless@@@ATL@@QEAAXXZ 00000001800234c0 f i MSR.obj
 0001:00022510       ?Release@CRegObject@ATL@@UEAAKXZ 0000000180023510 f i MSR.obj
 0001:00022570       ?Remove@CComDynamicUnkArray@ATL@@QEAAHK@Z 0000000180023570 f i MSR.obj
 0001:00022630       ?RemoveAll@?$CSimpleMap@PEA_WPEA_WVCExpansionVectorEqualHelper@ATL@@@ATL@@QEAAXXZ 0000000180023630 f i MSR.obj
 0001:000226c0       ?Reset@?$CComEnumImpl@UIEnumConnectionPoints@@$1?_GUID_b196b285_bab4_101a_b69c_00aa00341d07@@3U__s_GUID@@BPEAUIConnectionPoint@@V?$_CopyInterface@UIConnectionPoint@@@ATL@@@ATL@@UEAAJXZ 00000001800236c0 f i MSR.obj
 0001:000226e0       ?Reset@?$CComEnumImpl@UIEnumConnections@@$1?_GUID_b196b287_bab4_101a_b69c_00aa00341d07@@3U__s_GUID@@BUtagCONNECTDATA@@V?$_Copy@UtagCONNECTDATA@@@ATL@@@ATL@@UEAAJXZ 00000001800236e0 f i MSR.obj
 0001:00022700       ?ResizeBorder@?$IOleInPlaceActiveObjectImpl@VCOPOSMSR@@@ATL@@UEAAJPEBUtagRECT@@PEAUIOleInPlaceUIWindow@@H@Z 0000000180023700 f i MSR.obj
 0001:00022770       ?ResourceRegister@CRegObject@ATL@@QEAAJPEB_WI0@Z 0000000180023770 f i MSR.obj
 0001:00022850       ?ResourceRegisterSz@CRegObject@ATL@@QEAAJPEB_W00@Z 0000000180023850 f i MSR.obj
 0001:00022970       ?ResourceUnregister@CRegObject@ATL@@QEAAJPEB_WI0@Z 0000000180023970 f i MSR.obj
 0001:00022a50       ?ResourceUnregisterSz@CRegObject@ATL@@QEAAJPEB_W00@Z 0000000180023a50 f i MSR.obj
 0001:00022b70       ?SOData@COPOSMSR@@MEAAJJ@Z 0000000180023b70 f i MSR.obj
 0001:00022c00       ?SODirectIO@COPOSMSR@@MEAAJJPEAJPEAPEA_W@Z 0000000180023c00 f i MSR.obj
 0001:00022e40       ?SOError@COPOSMSR@@MEAAJJJJPEAJ@Z 0000000180023e40 f i MSR.obj
 0001:00022f30       ?SOOutputCompleteDummy@COPOSMSR@@MEAAJJ@Z 0000000180023f30 f i MSR.obj
 0001:00022f50       ?SOStatusUpdate@COPOSMSR@@MEAAJJ@Z 0000000180023f50 f i MSR.obj
 0001:00022fe0       ?Save@?$IPersistStorageImpl@VCOPOSMSR@@@ATL@@UEAAJPEAUIStorage@@H@Z 0000000180023fe0 f i MSR.obj
 0001:000231a0       ?Save@?$IPersistStreamInitImpl@VCOPOSMSR@@@ATL@@UEAAJPEAUIStream@@H@Z 00000001800241a0 f i MSR.obj
 0001:00023250       ?SaveCompleted@?$IPersistStorageImpl@VCOPOSMSR@@@ATL@@UEAAJPEAUIStorage@@@Z 0000000180024250 f i MSR.obj
 0001:000232b0       ?SendOnDataChange@CComControlBase@ATL@@QEAAJK@Z 00000001800242b0 f i MSR.obj
 0001:000233b0       ?SendOnSave@CComControlBase@ATL@@QEAAJXZ 00000001800243b0 f i MSR.obj
 0001:00023410       ?SendOnViewChange@CComControlBase@ATL@@QEAAJKJ@Z 0000000180024410 f i MSR.obj
 0001:00023470       ?SetAdvise@?$IViewObjectExImpl@VCOPOSMSR@@@ATL@@UEAAJKKPEAUIAdviseSink@@@Z 0000000180024470 f i MSR.obj
 0001:00023520       ?SetClientSite@?$IOleObjectImpl@VCOPOSMSR@@@ATL@@UEAAJPEAUIOleClientSite@@@Z 0000000180024520 f i MSR.obj
 0001:000235c0       ?SetColorScheme@?$IOleObjectImpl@VCOPOSMSR@@@ATL@@UEAAJPEAUtagLOGPALETTE@@@Z 00000001800245c0 f i MSR.obj
 0001:00023630       ?SetContentExtent@?$IQuickActivateImpl@VCOPOSMSR@@@ATL@@UEAAJPEAUtagSIZE@@@Z 0000000180024630 f i MSR.obj
 0001:000236e0       ?SetControlFocus@CComControlBase@ATL@@QEAAHH@Z 00000001800246e0 f i MSR.obj
 0001:00023860       ?SetDWORDValue@CRegKey@ATL@@QEAAJPEB_WK@Z 0000000180024860 f i MSR.obj
 0001:00023900       ?SetData@?$IDataObjectImpl@VCOPOSMSR@@@ATL@@UEAAJPEAUtagFORMATETC@@PEAUtagSTGMEDIUM@@H@Z 0000000180024900 f i MSR.obj
 0001:00023980       ?SetExtent@?$IOleObjectImpl@VCOPOSMSR@@@ATL@@UEAAJKPEAUtagSIZE@@@Z 0000000180024980 f i MSR.obj
 0001:00023a30       ?SetHostNames@?$IOleObjectImpl@VCOPOSMSR@@@ATL@@UEAAJPEB_W0@Z 0000000180024a30 f i MSR.obj
 0001:00023a90       ?SetInterfaceSafetyOptions@?$IObjectSafetyImpl@VCOPOSMSR@@$02@ATL@@UEAAJAEBU_GUID@@KK@Z 0000000180024a90 f i MSR.obj
 0001:00023c30       ?SetMoniker@?$IOleObjectImpl@VCOPOSMSR@@@ATL@@UEAAJKPEAUIMoniker@@@Z 0000000180024c30 f i MSR.obj
 0001:00023cb0       ?SetMultiStringValue@CRegKey@ATL@@QEAAJPEB_W0@Z 0000000180024cb0 f i MSR.obj
 0001:00023e10       ?SetObjectRects@?$IOleInPlaceObjectWindowlessImpl@VCOPOSMSR@@@ATL@@UEAAJPEBUtagRECT@@0@Z 0000000180024e10 f i MSR.obj
 0001:00023ec0       ?SetStringValue@CRegKey@ATL@@QEAAJPEB_W0K@Z 0000000180024ec0 f i MSR.obj
 0001:00024030       ?SetVoid@CComClassFactory@ATL@@QEAAXPEAX@Z 0000000180025030 f i MSR.obj
 0001:00024050       ?SetVoid@CComObjectRootBase@ATL@@QEAAXPEAX@Z 0000000180025050 f i MSR.obj
 0001:00024060       ?ShowWindow@CWindow@ATL@@QEAAHH@Z 0000000180025060 f i MSR.obj
 0001:000240e0       ?Skip@?$CComEnumImpl@UIEnumConnectionPoints@@$1?_GUID_b196b285_bab4_101a_b69c_00aa00341d07@@3U__s_GUID@@BPEAUIConnectionPoint@@V?$_CopyInterface@UIConnectionPoint@@@ATL@@@ATL@@UEAAJK@Z 00000001800250e0 f i MSR.obj
 0001:00024170       ?Skip@?$CComEnumImpl@UIEnumConnections@@$1?_GUID_b196b287_bab4_101a_b69c_00aa00341d07@@3U__s_GUID@@BUtagCONNECTDATA@@V?$_Copy@UtagCONNECTDATA@@@ATL@@@ATL@@UEAAJK@Z 0000000180025170 f i MSR.obj
 0001:00024200       ?SkipAssignment@CRegParser@ATL@@IEAAJPEA_W@Z 0000000180025200 f i MSR.obj
 0001:00024300       ?SkipWhiteSpace@CRegParser@ATL@@IEAAXXZ 0000000180025300 f i MSR.obj
 0001:00024350       ?StartWindowProc@?$CWindowImplBaseT@VCWindow@ATL@@V?$CWinTraits@$0FGAAAAAA@$0A@@2@@ATL@@SA_JPEAUHWND__@@I_K_J@Z 0000000180025350 f i MSR.obj
 0001:000244a0       ?StrChrW@CRegParser@ATL@@KAPEA_WPEA_W_W@Z 00000001800254a0 f i MSR.obj
 0001:00024510       ?StrFromMap@CRegObject@ATL@@QEAAPEB_WPEA_W@Z 0000000180025510 f i MSR.obj
 0001:000245b0       ?Swap@?$CComPtrBase@UIAdviseSink@@@ATL@@IEAAXAEAV12@@Z 00000001800255b0 f i MSR.obj
 0001:000245f0       ?Swap@?$CComPtrBase@UIOleClientSite@@@ATL@@IEAAXAEAV12@@Z 00000001800255f0 f i MSR.obj
 0001:00024630       ?Swap@?$CComPtrBase@UIUnknown@@@ATL@@IEAAXAEAV12@@Z 0000000180025630 f i MSR.obj
 0001:00024670       ?T2COLE_EX@@YAPEB_WPEB_WI@Z 0000000180025670 f i MSR.obj
 0001:00024690       ?T2OLE_EX@@YAPEA_WPEA_WI@Z 0000000180025690 f i MSR.obj
 0001:000246b0       ?Term@CAtlModule@ATL@@QEAAXXZ 00000001800256b0 f i MSR.obj
 0001:00024760       ?Term@CComModule@ATL@@QEAAXXZ 0000000180025760 f i MSR.obj
 0001:00024840       ?TranslateAcceleratorW@?$IOleInPlaceActiveObjectImpl@VCOPOSMSR@@@ATL@@UEAAJPEAUtagMSG@@@Z 0000000180025840 f i MSR.obj
 0001:00024ab0       ?UIDeactivate@?$IOleInPlaceObjectWindowlessImpl@VCOPOSMSR@@@ATL@@UEAAJXZ 0000000180025ab0 f i MSR.obj
 0001:00024b40       ?Unadvise@?$CProxy_IOPOSEvents@VCOPOSMSR@@@@UEAAJK@Z 0000000180025b40 f i MSR.obj
 0001:00024b80       ?Unadvise@?$IConnectionPointImpl@VCOPOSMSR@@$1?DIID__IOPOSMSREvents@@3U_GUID@@BVCComDynamicUnkArray@ATL@@@ATL@@UEAAJK@Z 0000000180025b80 f i MSR.obj
 0001:00024c60       ?Unadvise@?$IConnectionPointImpl@VCOPOSMSR@@$1?IID_IPropertyNotifySink@@3U_GUID@@BVCComDynamicUnkArray@ATL@@@ATL@@UEAAJK@Z 0000000180025c60 f i MSR.obj
 0001:00024d40       ?Unadvise@?$IOleObjectImpl@VCOPOSMSR@@@ATL@@UEAAJK@Z 0000000180025d40 f i MSR.obj
 0001:00024e20       ?Unfreeze@?$IViewObjectExImpl@VCOPOSMSR@@@ATL@@UEAAJK@Z 0000000180025e20 f i MSR.obj
 0001:00024e90       ?Unlock@?$CComCritSecLock@VCComCriticalSection@ATL@@@ATL@@QEAAXXZ 0000000180025e90 f i MSR.obj
 0001:00024f10       ?Unlock@?$CComObjectRootEx@VCComSingleThreadModel@ATL@@@ATL@@QEAAXXZ 0000000180025f10 f i MSR.obj
 0001:00024f20       ?Unlock@CAtlModule@ATL@@UEAAJXZ 0000000180025f20 f i MSR.obj
 0001:00024f50       ?Unlock@CComCriticalSection@ATL@@QEAAJXZ 0000000180025f50 f i MSR.obj
 0001:00024f70       ?Unlock@CComFakeCriticalSection@ATL@@QEAAJXZ 0000000180025f70 f i MSR.obj
 0001:00024f80       ?UnregisterServer@?$CAtlModuleT@VCComModule@ATL@@@ATL@@QEAAJHPEBU_GUID@@@Z 0000000180025f80 f i MSR.obj
 0001:00024fe0       ?UnregisterServer@CAtlComModule@ATL@@QEAAJHPEBU_GUID@@@Z 0000000180025fe0 f i MSR.obj
 0001:00025010       ?UnregisterServer@CComModule@ATL@@QEAAJHPEBU_GUID@@@Z 0000000180026010 f i MSR.obj
 0001:000250f0       ?Update@?$IOleObjectImpl@VCOPOSMSR@@@ATL@@UEAAJXZ 00000001800260f0 f i MSR.obj
 0001:00025150       ?UpdateRegistryFromResource@CAtlModule@ATL@@QEAAJIHPEAU_ATL_REGMAP_ENTRY@2@@Z 0000000180026150 f i MSR.obj
 0001:00025690       ?UpdateRegistryFromResource@CAtlModule@ATL@@QEAAJPEB_WHPEAU_ATL_REGMAP_ENTRY@2@@Z 0000000180026690 f i MSR.obj
 0001:00025be0       ?UpdateRegistryFromResource@CComModule@ATL@@UEAAJIHPEAU_ATL_REGMAP_ENTRY@2@@Z 0000000180026be0 f i MSR.obj
 0001:00025c20       ?UpdateRegistryFromResource@CComModule@ATL@@UEAAJPEB_WHPEAU_ATL_REGMAP_ENTRY@2@@Z 0000000180026c20 f i MSR.obj
 0001:00025c60       ?UpdateRegistryFromResourceD@CComModule@ATL@@UEAAJIHPEAU_ATL_REGMAP_ENTRY@2@@Z 0000000180026c60 f i MSR.obj
 0001:00025c80       ?UpdateRegistryFromResourceD@CComModule@ATL@@UEAAJPEB_WHPEAU_ATL_REGMAP_ENTRY@2@@Z 0000000180026c80 f i MSR.obj
 0001:00025ca0       ?VTFromRegType@CRegParser@ATL@@KAHPEB_WAEAG@Z 0000000180026ca0 f i MSR.obj
 0001:00025d70       ?WindowProc@?$CWindowImplBaseT@VCWindow@ATL@@V?$CWinTraits@$0FGAAAAAA@$0A@@2@@ATL@@SA_JPEAUHWND__@@I_K_J@Z 0000000180026d70 f i MSR.obj
 0001:00026050       ?WriteToStream@CComBSTR@ATL@@QEAAJPEAUIStream@@@Z 0000000180027050 f i MSR.obj
 0001:000261c0       ?WriteToStream@CComVariant@ATL@@QEAAJPEAUIStream@@@Z 00000001800271c0 f i MSR.obj
 0001:000265f0       ?WriteToStream@CComVariant@ATL@@QEAAJPEAUIStream@@G@Z 00000001800275f0 f i MSR.obj
 0001:000266d0       ?_AtlFinalConstruct@CComObjectRootBase@ATL@@QEAAJXZ 00000001800276d0 f i MSR.obj
 0001:000266e0       ?_AtlGetConversionACP@ATL@@YAIXZ 00000001800276e0 f i MSR.obj
 0001:000266f0       ?_AtlInitialConstruct@?$CComAggObject@VCOPOSMSR@@@ATL@@QEAAJXZ 00000001800276f0 f i MSR.obj
 0001:00026740       ?_AtlInitialConstruct@?$CComObjectRootEx@VCComMultiThreadModel@ATL@@@ATL@@QEAAJXZ 0000000180027740 f i MSR.obj
 0001:00026770       ?_AtlInitialConstruct@?$CComObjectRootEx@VCComSingleThreadModel@ATL@@@ATL@@QEAAJXZ 0000000180027770 f i MSR.obj
 0001:00026780       ?_AtlVerifyStackAvailable@_ATL_SAFE_ALLOCA_IMPL@ATL@@YA_N_K@Z 0000000180027780 f i MSR.obj
 0001:000268e0       ?_GetEntries@?$CComEnum@UIEnumConnectionPoints@@$1?_GUID_b196b285_bab4_101a_b69c_00aa00341d07@@3U__s_GUID@@BPEAUIConnectionPoint@@V?$_CopyInterface@UIConnectionPoint@@@ATL@@VCComSingleThreadModel@6@@ATL@@SAPEBU_ATL_INTMAP_ENTRY@2@XZ 00000001800278e0 f i MSR.obj
 0001:00026900       ?_GetEntries@?$CComEnum@UIEnumConnections@@$1?_GUID_b196b287_bab4_101a_b69c_00aa00341d07@@3U__s_GUID@@BUtagCONNECTDATA@@V?$_Copy@UtagCONNECTDATA@@@ATL@@VCComSingleThreadModel@6@@ATL@@SAPEBU_ATL_INTMAP_ENTRY@2@XZ 0000000180027900 f i MSR.obj
 0001:00026920       ?_GetEntries@CComClassFactory@ATL@@SAPEBU_ATL_INTMAP_ENTRY@2@XZ 0000000180027920 f i MSR.obj
 0001:00026940       ?_GetEntries@COPOSMSR@@SAPEBU_ATL_INTMAP_ENTRY@ATL@@XZ 0000000180027940 f i MSR.obj
 0001:00026960       ?_GetRawUnknown@COPOSMSR@@QEAAPEAUIUnknown@@XZ 0000000180027960 f i MSR.obj
 0001:000269e0       ?_GetViewStatus@COPOSMSR@@QEAAKXZ 00000001800279e0 f i MSR.obj
 0001:000269f0       ?_InternalQueryInterface@?$CComEnum@UIEnumConnectionPoints@@$1?_GUID_b196b285_bab4_101a_b69c_00aa00341d07@@3U__s_GUID@@BPEAUIConnectionPoint@@V?$_CopyInterface@UIConnectionPoint@@@ATL@@VCComSingleThreadModel@6@@ATL@@QEAAJAEBU_GUID@@PEAPEAX@Z 00000001800279f0 f i MSR.obj
 0001:00026a30       ?_InternalQueryInterface@?$CComEnum@UIEnumConnections@@$1?_GUID_b196b287_bab4_101a_b69c_00aa00341d07@@3U__s_GUID@@BUtagCONNECTDATA@@V?$_Copy@UtagCONNECTDATA@@@ATL@@VCComSingleThreadModel@6@@ATL@@QEAAJAEBU_GUID@@PEAPEAX@Z 0000000180027a30 f i MSR.obj
 0001:00026a70       ?_InternalQueryInterface@CComClassFactory@ATL@@QEAAJAEBU_GUID@@PEAPEAX@Z 0000000180027a70 f i MSR.obj
 0001:00026ab0       ?_InternalQueryInterface@COPOSMSR@@QEAAJAEBU_GUID@@PEAPEAX@Z 0000000180027ab0 f i MSR.obj
 0001:00026af0       ?_LocCPQueryInterface@?$IConnectionPointImpl@VCOPOSMSR@@$1?DIID__IOPOSMSREvents@@3U_GUID@@BVCComDynamicUnkArray@ATL@@@ATL@@UEAAJAEBU_GUID@@PEAPEAX@Z 0000000180027af0 f i MSR.obj
 0001:00026bc0       ?_LocCPQueryInterface@?$IConnectionPointImpl@VCOPOSMSR@@$1?IID_IPropertyNotifySink@@3U_GUID@@BVCComDynamicUnkArray@ATL@@@ATL@@UEAAJAEBU_GUID@@PEAPEAX@Z 0000000180027bc0 f i MSR.obj
 0001:00026c90       ?atlCreate@?$CWindowImpl@VCOPOSMSR@@VCWindow@ATL@@V?$CWinTraits@$0FGAAAAAA@$0A@@3@@ATL@@QEAAPEAUHWND__@@PEAU3@V_U_RECT@2@PEB_WKKV_U_MENUorID@2@PEAX@Z 0000000180027c90 f i MSR.obj
 0001:00026da0       ?atlCreate@?$CWindowImplBaseT@VCWindow@ATL@@V?$CWinTraits@$0FGAAAAAA@$0A@@2@@ATL@@QEAAPEAUHWND__@@PEAU3@V_U_RECT@2@PEB_WKKV_U_MENUorID@2@GPEAX@Z 0000000180027da0 f i MSR.obj
 0001:00026ff0       ?atlCreate@CRegKey@ATL@@QEAAJPEAUHKEY__@@PEB_WPEA_WKKPEAU_SECURITY_ATTRIBUTES@@PEAK@Z 0000000180027ff0 f i MSR.obj
 0001:000271f0       ?begin@CComDynamicUnkArray@ATL@@QEAAPEAPEAUIUnknown@@XZ 00000001800281f0 f i MSR.obj
 0001:00027200       ?copy@?$_Copy@UtagCONNECTDATA@@@ATL@@SAJPEAUtagCONNECTDATA@@PEBU3@@Z 0000000180028200 f i MSR.obj
 0001:000272e0       ?copy@?$_CopyInterface@UIConnectionPoint@@@ATL@@SAJPEAPEAUIConnectionPoint@@PEBQEAU3@@Z 00000001800282e0 f i MSR.obj
 0001:000273c0       ?destroy@?$_Copy@UtagCONNECTDATA@@@ATL@@SAXPEAUtagCONNECTDATA@@@Z 00000001800283c0 f i MSR.obj
 0001:00027400       ?destroy@?$_CopyInterface@UIConnectionPoint@@@ATL@@SAXPEAPEAUIConnectionPoint@@@Z 0000000180028400 f i MSR.obj
 0001:00027440       ?end@CComDynamicUnkArray@ATL@@QEAAPEAPEAUIUnknown@@XZ 0000000180028440 f i MSR.obj
 0001:00027460       ?init@?$_Copy@UtagCONNECTDATA@@@ATL@@SAXPEAUtagCONNECTDATA@@@Z 0000000180028460 f i MSR.obj
 0001:00027470       ?init@?$_CopyInterface@UIConnectionPoint@@@ATL@@SAXPEAPEAUIConnectionPoint@@@Z 0000000180028470 f i MSR.obj
 0001:00027480       ?memcpy_s@Checked@ATL@@YAXPEAX_KPEBX1@Z 0000000180028480 f i MSR.obj
 0001:000274c0       ?ocscpy_s@@YA_NPEA_W_KPEB_W@Z 00000001800284c0 f i MSR.obj
 0001:00027530       ?ocslen@@YAHPEB_W@Z        0000000180028530 f i MSR.obj
 0001:00027560       ?tcsncpy_s@Checked@ATL@@YAHPEA_W_KPEB_W1@Z 0000000180028560 f i MSR.obj
 0001:000275a0       ?wcscat_s@Checked@ATL@@YAXPEA_W_KPEB_W@Z 00000001800285a0 f i MSR.obj
 0001:000275e0       ?wcscpy_s@Checked@ATL@@YAXPEA_W_KPEB_W@Z 00000001800285e0 f i MSR.obj
 0001:00027620       ?wcsncpy_s@Checked@ATL@@YAHPEA_W_KPEB_W1@Z 0000000180028620 f i MSR.obj
 0001:00027660       ?wcsstr@@YAPEA_WPEA_WPEB_W@Z 0000000180028660 f i MSR.obj
 0001:00027690       InlineIsEqualGUID          0000000180028690 f i MSR.obj
 0001:00027750       IsEqualGUID                0000000180028750 f i MSR.obj
 0001:000277a0       ??0COPOSMSR@@QEAA@XZ       00000001800287a0 f   MSRImpl.obj
 0001:00027910       ?FinalConstruct@COPOSMSR@@QEAAJXZ 0000000180028910 f   MSRImpl.obj
 0001:000279f0       ??1COPOSMSR@@UEAA@XZ       00000001800289f0 f   MSRImpl.obj
 0001:00027ad0       ?WriteTrace@COPOSMSR@@QEAAXPEB_WZZ 0000000180028ad0 f   MSRImpl.obj
 0001:00027ba0       ?WriteTraceString@COPOSMSR@@QEAAXPEB_WPEA_W@Z 0000000180028ba0 f   MSRImpl.obj
 0001:00027fd0       ?WriteTraceString@COPOSMSR@@QEAAXPEAXHHHPEB_WZZ 0000000180028fd0 f   MSRImpl.obj
 0001:00028260       ?WriteTraceError@COPOSMSR@@QEAAXPEB_WK@Z 0000000180029260 f   MSRImpl.obj
 0001:00028360       ?WriteTraceMethods@COPOSMSR@@QEAAXPEAJH@Z 0000000180029360 f   MSRImpl.obj
 0001:000283e0       ?GetOposProp@COPOSMSR@@IEAAJPEBDJPEAJJ@Z 00000001800293e0 f   MSRImpl.obj
 0001:00028700       ?SetOposProp@COPOSMSR@@IEAAJPEBDJJJ@Z 0000000180029700 f   MSRImpl.obj
 0001:00028a70       ?GetOposProp@COPOSMSR@@IEAAJPEBDJPEAFJ@Z 0000000180029a70 f   MSRImpl.obj
 0001:00028b20       ?SetOposProp@COPOSMSR@@IEAAJPEBDJFJ@Z 0000000180029b20 f   MSRImpl.obj
 0001:00028b90       ?GetOposProp@COPOSMSR@@IEAAJPEBDJPEAPEA_WJ@Z 0000000180029b90 f   MSRImpl.obj
 0001:00028eb0       ?SetOposProp@COPOSMSR@@IEAAJPEBDJPEA_WJ@Z 0000000180029eb0 f   MSRImpl.obj
 0001:00029290       ?DoInvoke@COPOSMSR@@IEAAJPEBDJPEAVOposVariant@@IHPEAJ_N@Z 000000018002a290 f   MSRImpl.obj
 0001:0002a190       ?SetCOFreezeEvents@COPOSMSR@@IEAAXF@Z 000000018002b190 f   MSRImpl.obj
 0001:0002a320       ?FreezeEvents@COPOSMSR@@MEAAJH@Z 000000018002b320 f   MSRImpl.obj
 0001:0002a440       ?OnDraw@COPOSMSR@@MEAAJAEAUATL_DRAWINFO@@@Z 000000018002b440 f   MSRImpl.obj
 0001:0002a610       ?SOProcessID@COPOSMSR@@UEAAJPEAJ@Z 000000018002b610 f   MSRImpl.obj
 0001:0002a660       ?get_OpenResult@COPOSMSR@@UEAAJPEAJ@Z 000000018002b660 f   MSRImpl.obj
 0001:0002a6b0       ?get_CheckHealthText@COPOSMSR@@UEAAJPEAPEA_W@Z 000000018002b6b0 f   MSRImpl.obj
 0001:0002a6f0       ?get_Claimed@COPOSMSR@@UEAAJPEAF@Z 000000018002b6f0 f   MSRImpl.obj
 0001:0002a730       ?get_DataEventEnabled@COPOSMSR@@UEAAJPEAF@Z 000000018002b730 f   MSRImpl.obj
 0001:0002a770       ?put_DataEventEnabled@COPOSMSR@@UEAAJF@Z 000000018002b770 f   MSRImpl.obj
 0001:0002a7b0       ?get_DeviceEnabled@COPOSMSR@@UEAAJPEAF@Z 000000018002b7b0 f   MSRImpl.obj
 0001:0002a7f0       ?put_DeviceEnabled@COPOSMSR@@UEAAJF@Z 000000018002b7f0 f   MSRImpl.obj
 0001:0002a830       ?get_FreezeEvents@COPOSMSR@@UEAAJPEAF@Z 000000018002b830 f   MSRImpl.obj
 0001:0002a870       ?put_FreezeEvents@COPOSMSR@@UEAAJF@Z 000000018002b870 f   MSRImpl.obj
 0001:0002a930       ?get_ResultCode@COPOSMSR@@UEAAJPEAJ@Z 000000018002b930 f   MSRImpl.obj
 0001:0002a9e0       ?get_ResultCodeExtended@COPOSMSR@@UEAAJPEAJ@Z 000000018002b9e0 f   MSRImpl.obj
 0001:0002aa20       ?get_State@COPOSMSR@@UEAAJPEAJ@Z 000000018002ba20 f   MSRImpl.obj
 0001:0002aa90       ?get_ControlObjectDescription@COPOSMSR@@UEAAJPEAPEA_W@Z 000000018002ba90 f   MSRImpl.obj
 0001:0002ab00       ?get_ControlObjectVersion@COPOSMSR@@UEAAJPEAJ@Z 000000018002bb00 f   MSRImpl.obj
 0001:0002ab50       ?get_ServiceObjectDescription@COPOSMSR@@UEAAJPEAPEA_W@Z 000000018002bb50 f   MSRImpl.obj
 0001:0002ab90       ?get_ServiceObjectVersion@COPOSMSR@@UEAAJPEAJ@Z 000000018002bb90 f   MSRImpl.obj
 0001:0002abd0       ?get_DeviceDescription@COPOSMSR@@UEAAJPEAPEA_W@Z 000000018002bbd0 f   MSRImpl.obj
 0001:0002ac10       ?get_DeviceName@COPOSMSR@@UEAAJPEAPEA_W@Z 000000018002bc10 f   MSRImpl.obj
 0001:0002ac50       ?CheckHealth@COPOSMSR@@UEAAJJPEAJ@Z 000000018002bc50 f   MSRImpl.obj
 0001:0002ad10       ?ClaimDevice@COPOSMSR@@UEAAJJPEAJ@Z 000000018002bd10 f   MSRImpl.obj
 0001:0002ae30       ?ClearInput@COPOSMSR@@UEAAJPEAJ@Z 000000018002be30 f   MSRImpl.obj
 0001:0002ae90       ?Close@COPOSMSR@@UEAAJPEAJ@Z 000000018002be90 f   MSRImpl.obj
 0001:0002af90       ?DirectIO@COPOSMSR@@UEAAJJPEAJPEAPEA_W0@Z 000000018002bf90 f   MSRImpl.obj
 0001:0002b110       ?Open@COPOSMSR@@UEAAJPEA_WPEAJ@Z 000000018002c110 f   MSRImpl.obj
 0001:0002c5e0       ?ReleaseDevice@COPOSMSR@@UEAAJPEAJ@Z 000000018002d5e0 f   MSRImpl.obj
 0001:0002c680       ?get_AccountNumber@COPOSMSR@@UEAAJPEAPEA_W@Z 000000018002d680 f   MSRImpl.obj
 0001:0002c6c0       ?get_CapISO@COPOSMSR@@UEAAJPEAF@Z 000000018002d6c0 f   MSRImpl.obj
 0001:0002c700       ?get_CapJISOne@COPOSMSR@@UEAAJPEAF@Z 000000018002d700 f   MSRImpl.obj
 0001:0002c740       ?get_CapJISTwo@COPOSMSR@@UEAAJPEAF@Z 000000018002d740 f   MSRImpl.obj
 0001:0002c780       ?get_DecodeData@COPOSMSR@@UEAAJPEAF@Z 000000018002d780 f   MSRImpl.obj
 0001:0002c7c0       ?put_DecodeData@COPOSMSR@@UEAAJF@Z 000000018002d7c0 f   MSRImpl.obj
 0001:0002c800       ?get_ExpirationDate@COPOSMSR@@UEAAJPEAPEA_W@Z 000000018002d800 f   MSRImpl.obj
 0001:0002c840       ?get_FirstName@COPOSMSR@@UEAAJPEAPEA_W@Z 000000018002d840 f   MSRImpl.obj
 0001:0002c880       ?get_MiddleInitial@COPOSMSR@@UEAAJPEAPEA_W@Z 000000018002d880 f   MSRImpl.obj
 0001:0002c8c0       ?get_ParseDecodeData@COPOSMSR@@UEAAJPEAF@Z 000000018002d8c0 f   MSRImpl.obj
 0001:0002c900       ?put_ParseDecodeData@COPOSMSR@@UEAAJF@Z 000000018002d900 f   MSRImpl.obj
 0001:0002c940       ?get_ParseDecodedData@COPOSMSR@@UEAAJPEAF@Z 000000018002d940 f   MSRImpl.obj
 0001:0002c980       ?put_ParseDecodedData@COPOSMSR@@UEAAJF@Z 000000018002d980 f   MSRImpl.obj
 0001:0002c9c0       ?get_ServiceCode@COPOSMSR@@UEAAJPEAPEA_W@Z 000000018002d9c0 f   MSRImpl.obj
 0001:0002ca00       ?get_Suffix@COPOSMSR@@UEAAJPEAPEA_W@Z 000000018002da00 f   MSRImpl.obj
 0001:0002ca40       ?get_Surname@COPOSMSR@@UEAAJPEAPEA_W@Z 000000018002da40 f   MSRImpl.obj
 0001:0002ca80       ?get_Title@COPOSMSR@@UEAAJPEAPEA_W@Z 000000018002da80 f   MSRImpl.obj
 0001:0002cac0       ?get_Track1Data@COPOSMSR@@UEAAJPEAPEA_W@Z 000000018002dac0 f   MSRImpl.obj
 0001:0002cb00       ?get_Track1DiscretionaryData@COPOSMSR@@UEAAJPEAPEA_W@Z 000000018002db00 f   MSRImpl.obj
 0001:0002cb40       ?get_Track2Data@COPOSMSR@@UEAAJPEAPEA_W@Z 000000018002db40 f   MSRImpl.obj
 0001:0002cb80       ?get_Track2DiscretionaryData@COPOSMSR@@UEAAJPEAPEA_W@Z 000000018002db80 f   MSRImpl.obj
 0001:0002cbc0       ?get_Track3Data@COPOSMSR@@UEAAJPEAPEA_W@Z 000000018002dbc0 f   MSRImpl.obj
 0001:0002cc00       ?get_TracksToRead@COPOSMSR@@UEAAJPEAJ@Z 000000018002dc00 f   MSRImpl.obj
 0001:0002cc40       ?put_TracksToRead@COPOSMSR@@UEAAJJ@Z 000000018002dc40 f   MSRImpl.obj
 0001:0002cc80       ?get_AutoDisable@COPOSMSR@@UEAAJPEAF@Z 000000018002dc80 f   MSRImpl.obj
 0001:0002ccc0       ?put_AutoDisable@COPOSMSR@@UEAAJF@Z 000000018002dcc0 f   MSRImpl.obj
 0001:0002cd00       ?get_BinaryConversion@COPOSMSR@@UEAAJPEAJ@Z 000000018002dd00 f   MSRImpl.obj
 0001:0002cd40       ?put_BinaryConversion@COPOSMSR@@UEAAJJ@Z 000000018002dd40 f   MSRImpl.obj
 0001:0002cd90       ?get_DataCount@COPOSMSR@@UEAAJPEAJ@Z 000000018002dd90 f   MSRImpl.obj
 0001:0002cdd0       ?get_ErrorReportingType@COPOSMSR@@UEAAJPEAJ@Z 000000018002ddd0 f   MSRImpl.obj
 0001:0002ce10       ?put_ErrorReportingType@COPOSMSR@@UEAAJJ@Z 000000018002de10 f   MSRImpl.obj
 0001:0002ce50       ?get_CapPowerReporting@COPOSMSR@@UEAAJPEAJ@Z 000000018002de50 f   MSRImpl.obj
 0001:0002ce90       ?get_PowerNotify@COPOSMSR@@UEAAJPEAJ@Z 000000018002de90 f   MSRImpl.obj
 0001:0002ced0       ?put_PowerNotify@COPOSMSR@@UEAAJJ@Z 000000018002ded0 f   MSRImpl.obj
 0001:0002cf10       ?get_PowerState@COPOSMSR@@UEAAJPEAJ@Z 000000018002df10 f   MSRImpl.obj
 0001:0002cf50       ?get_CapTransmitSentinels@COPOSMSR@@UEAAJPEAF@Z 000000018002df50 f   MSRImpl.obj
 0001:0002cf90       ?get_Track4Data@COPOSMSR@@UEAAJPEAPEA_W@Z 000000018002df90 f   MSRImpl.obj
 0001:0002cfd0       ?get_TransmitSentinels@COPOSMSR@@UEAAJPEAF@Z 000000018002dfd0 f   MSRImpl.obj
 0001:0002d010       ?put_TransmitSentinels@COPOSMSR@@UEAAJF@Z 000000018002e010 f   MSRImpl.obj
 0001:0002d050       ?get_CapStatisticsReporting@COPOSMSR@@UEAAJPEAF@Z 000000018002e050 f   MSRImpl.obj
 0001:0002d090       ?get_CapUpdateStatistics@COPOSMSR@@UEAAJPEAF@Z 000000018002e090 f   MSRImpl.obj
 0001:0002d0d0       ?ResetStatistics@COPOSMSR@@UEAAJPEA_WPEAJ@Z 000000018002e0d0 f   MSRImpl.obj
 0001:0002d1b0       ?RetrieveStatistics@COPOSMSR@@UEAAJPEAPEA_WPEAJ@Z 000000018002e1b0 f   MSRImpl.obj
 0001:0002d290       ?UpdateStatistics@COPOSMSR@@UEAAJPEA_WPEAJ@Z 000000018002e290 f   MSRImpl.obj
 0001:0002d370       ?get_CapCompareFirmwareVersion@COPOSMSR@@UEAAJPEAF@Z 000000018002e370 f   MSRImpl.obj
 0001:0002d3b0       ?get_CapUpdateFirmware@COPOSMSR@@UEAAJPEAF@Z 000000018002e3b0 f   MSRImpl.obj
 0001:0002d3f0       ?CompareFirmwareVersion@COPOSMSR@@UEAAJPEA_WPEAJ1@Z 000000018002e3f0 f   MSRImpl.obj
 0001:0002d530       ?UpdateFirmware@COPOSMSR@@UEAAJPEA_WPEAJ@Z 000000018002e530 f   MSRImpl.obj
 0001:0002d610       ?ClearInputProperties@COPOSMSR@@UEAAJPEAJ@Z 000000018002e610 f   MSRImpl.obj
 0001:0002d670       ?get_CapWritableTracks@COPOSMSR@@UEAAJPEAJ@Z 000000018002e670 f   MSRImpl.obj
 0001:0002d6b0       ?get_EncodingMaxLength@COPOSMSR@@UEAAJPEAJ@Z 000000018002e6b0 f   MSRImpl.obj
 0001:0002d6f0       ?get_TracksToWrite@COPOSMSR@@UEAAJPEAJ@Z 000000018002e6f0 f   MSRImpl.obj
 0001:0002d730       ?put_TracksToWrite@COPOSMSR@@UEAAJJ@Z 000000018002e730 f   MSRImpl.obj
 0001:0002d770       ?WriteTracks@COPOSMSR@@UEAAJUtagVARIANT@@JPEAJ@Z 000000018002e770 f   MSRImpl.obj
 0001:0002d8b0       ?get_AdditionalSecurityInformation@COPOSMSR@@UEAAJPEAPEA_W@Z 000000018002e8b0 f   MSRImpl.obj
 0001:0002d8f0       ?get_CapCardAuthentication@COPOSMSR@@UEAAJPEAPEA_W@Z 000000018002e8f0 f   MSRImpl.obj
 0001:0002d930       ?get_CapDataEncryption@COPOSMSR@@UEAAJPEAJ@Z 000000018002e930 f   MSRImpl.obj
 0001:0002d970       ?get_CapDeviceAuthentication@COPOSMSR@@UEAAJPEAJ@Z 000000018002e970 f   MSRImpl.obj
 0001:0002d9b0       ?get_CapTrackDataMasking@COPOSMSR@@UEAAJPEAF@Z 000000018002e9b0 f   MSRImpl.obj
 0001:0002d9f0       ?get_CardAuthenticationData@COPOSMSR@@UEAAJPEAPEA_W@Z 000000018002e9f0 f   MSRImpl.obj
 0001:0002da30       ?get_CardAuthenticationDataLength@COPOSMSR@@UEAAJPEAJ@Z 000000018002ea30 f   MSRImpl.obj
 0001:0002da70       ?get_CardPropertyList@COPOSMSR@@UEAAJPEAPEA_W@Z 000000018002ea70 f   MSRImpl.obj
 0001:0002dab0       ?get_CardType@COPOSMSR@@UEAAJPEAPEA_W@Z 000000018002eab0 f   MSRImpl.obj
 0001:0002daf0       ?get_CardTypeList@COPOSMSR@@UEAAJPEAPEA_W@Z 000000018002eaf0 f   MSRImpl.obj
 0001:0002db30       ?get_DataEncryptionAlgorithm@COPOSMSR@@UEAAJPEAJ@Z 000000018002eb30 f   MSRImpl.obj
 0001:0002db70       ?put_DataEncryptionAlgorithm@COPOSMSR@@UEAAJJ@Z 000000018002eb70 f   MSRImpl.obj
 0001:0002dbb0       ?get_DeviceAuthenticated@COPOSMSR@@UEAAJPEAF@Z 000000018002ebb0 f   MSRImpl.obj
 0001:0002dbf0       ?get_DeviceAuthenticationProtocol@COPOSMSR@@UEAAJPEAJ@Z 000000018002ebf0 f   MSRImpl.obj
 0001:0002dc30       ?get_Track1EncryptedData@COPOSMSR@@UEAAJPEAPEA_W@Z 000000018002ec30 f   MSRImpl.obj
 0001:0002dc70       ?get_Track1EncryptedDataLength@COPOSMSR@@UEAAJPEAJ@Z 000000018002ec70 f   MSRImpl.obj
 0001:0002dcb0       ?get_Track2EncryptedData@COPOSMSR@@UEAAJPEAPEA_W@Z 000000018002ecb0 f   MSRImpl.obj
 0001:0002dcf0       ?get_Track2EncryptedDataLength@COPOSMSR@@UEAAJPEAJ@Z 000000018002ecf0 f   MSRImpl.obj
 0001:0002dd30       ?get_Track3EncryptedData@COPOSMSR@@UEAAJPEAPEA_W@Z 000000018002ed30 f   MSRImpl.obj
 0001:0002dd70       ?get_Track3EncryptedDataLength@COPOSMSR@@UEAAJPEAJ@Z 000000018002ed70 f   MSRImpl.obj
 0001:0002ddb0       ?get_Track4EncryptedData@COPOSMSR@@UEAAJPEAPEA_W@Z 000000018002edb0 f   MSRImpl.obj
 0001:0002ddf0       ?get_Track4EncryptedDataLength@COPOSMSR@@UEAAJPEAJ@Z 000000018002edf0 f   MSRImpl.obj
 0001:0002de30       ?get_WriteCardType@COPOSMSR@@UEAAJPEAPEA_W@Z 000000018002ee30 f   MSRImpl.obj
 0001:0002de70       ?put_WriteCardType@COPOSMSR@@UEAAJPEA_W@Z 000000018002ee70 f   MSRImpl.obj
 0001:0002deb0       ?AuthenticateDevice@COPOSMSR@@UEAAJPEA_WPEAJ@Z 000000018002eeb0 f   MSRImpl.obj
 0001:0002df90       ?DeauthenticateDevice@COPOSMSR@@UEAAJPEA_WPEAJ@Z 000000018002ef90 f   MSRImpl.obj
 0001:0002e070       ?RetrieveCardProperty@COPOSMSR@@UEAAJPEA_WPEAPEA_WPEAJ@Z 000000018002f070 f   MSRImpl.obj
 0001:0002e1b0       ?RetrieveDeviceAuthenticationData@COPOSMSR@@UEAAJPEAPEA_WPEAJ@Z 000000018002f1b0 f   MSRImpl.obj
 0001:0002e290       ?UpdateKey@COPOSMSR@@UEAAJPEA_W0PEAJ@Z 000000018002f290 f   MSRImpl.obj
 0001:0002e3d0       ??0?$CComControl@VCOPOSMSR@@V?$CWindowImpl@VCOPOSMSR@@VCWindow@ATL@@V?$CWinTraits@$0FGAAAAAA@$0A@@3@@ATL@@@ATL@@QEAA@XZ 000000018002f3d0 f i MSRImpl.obj
 0001:0002e410       ??0?$CComPtr@UIAdviseSink@@@ATL@@QEAA@XZ 000000018002f410 f i MSRImpl.obj
 0001:0002e430       ??0?$CComPtr@UIDataAdviseHolder@@@ATL@@QEAA@XZ 000000018002f430 f i MSRImpl.obj
 0001:0002e450       ??0?$CComPtr@UIOleAdviseHolder@@@ATL@@QEAA@XZ 000000018002f450 f i MSRImpl.obj
 0001:0002e470       ??0?$CComPtr@UIOleClientSite@@@ATL@@QEAA@XZ 000000018002f470 f i MSRImpl.obj
 0001:0002e490       ??0?$CComPtr@UIOleInPlaceSiteWindowless@@@ATL@@QEAA@XZ 000000018002f490 f i MSRImpl.obj
 0001:0002e4b0       ??0?$CComPtrBase@UIAdviseSink@@@ATL@@IEAA@XZ 000000018002f4b0 f i MSRImpl.obj
 0001:0002e4d0       ??0?$CComPtrBase@UIDataAdviseHolder@@@ATL@@IEAA@XZ 000000018002f4d0 f i MSRImpl.obj
 0001:0002e4f0       ??0?$CComPtrBase@UIOleAdviseHolder@@@ATL@@IEAA@XZ 000000018002f4f0 f i MSRImpl.obj
 0001:0002e510       ??0?$CComPtrBase@UIOleClientSite@@@ATL@@IEAA@XZ 000000018002f510 f i MSRImpl.obj
 0001:0002e530       ??0?$CComPtrBase@UIOleInPlaceSiteWindowless@@@ATL@@IEAA@XZ 000000018002f530 f i MSRImpl.obj
 0001:0002e550       ??0?$CComQIPtr@UIDispatch@@$1?_GUID_00020400_0000_0000_c000_000000000046@@3U__s_GUID@@B@ATL@@QEAA@XZ 000000018002f550 f i MSRImpl.obj
 0001:0002e570       ??0?$CProxy_IOPOSEvents@VCOPOSMSR@@@@QEAA@PEAVCOPOSMSR@@@Z 000000018002f570 f i MSRImpl.obj
 0001:0002e5f0       ??0?$CWindowImpl@VCOPOSMSR@@VCWindow@ATL@@V?$CWinTraits@$0FGAAAAAA@$0A@@3@@ATL@@QEAA@XZ 000000018002f5f0 f i MSRImpl.obj
 0001:0002e610       ??0?$CWindowImplBaseT@VCWindow@ATL@@V?$CWinTraits@$0FGAAAAAA@$0A@@2@@ATL@@QEAA@XZ 000000018002f610 f i MSRImpl.obj
 0001:0002e640       ??0?$CWindowImplRoot@VCWindow@ATL@@@ATL@@QEAA@XZ 000000018002f640 f i MSRImpl.obj
 0001:0002e6a0       ??0?$IConnectionPointContainerImpl@VCOPOSMSR@@@ATL@@QEAA@XZ 000000018002f6a0 f i MSRImpl.obj
 0001:0002e6c0       ??0?$IConnectionPointImpl@VCOPOSMSR@@$1?DIID__IOPOSMSREvents@@3U_GUID@@BVCComDynamicUnkArray@ATL@@@ATL@@QEAA@XZ 000000018002f6c0 f i MSRImpl.obj
 0001:0002e6f0       ??0?$IConnectionPointImpl@VCOPOSMSR@@$1?IID_IPropertyNotifySink@@3U_GUID@@BVCComDynamicUnkArray@ATL@@@ATL@@QEAA@XZ 000000018002f6f0 f i MSRImpl.obj
 0001:0002e720       ??0?$IDataObjectImpl@VCOPOSMSR@@@ATL@@QEAA@XZ 000000018002f720 f i MSRImpl.obj
 0001:0002e740       ??0?$IDispatchImpl@UIOPOSMSR@@$1?IID_IOPOSMSR@@3U_GUID@@B$1?LIBID_OposMSR_CCO@@3U3@B$00$0A@VCComTypeInfoHolder@ATL@@@ATL@@QEAA@XZ 000000018002f740 f i MSRImpl.obj
 0001:0002e760       ??0?$IObjectSafetyImpl@VCOPOSMSR@@$02@ATL@@QEAA@XZ 000000018002f760 f i MSRImpl.obj
 0001:0002e790       ??0?$IOleControlImpl@VCOPOSMSR@@@ATL@@QEAA@XZ 000000018002f790 f i MSRImpl.obj
 0001:0002e7b0       ??0?$IOleInPlaceActiveObjectImpl@VCOPOSMSR@@@ATL@@QEAA@XZ 000000018002f7b0 f i MSRImpl.obj
 0001:0002e7d0       ??0?$IOleInPlaceObjectWindowlessImpl@VCOPOSMSR@@@ATL@@QEAA@XZ 000000018002f7d0 f i MSRImpl.obj
 0001:0002e7f0       ??0?$IOleObjectImpl@VCOPOSMSR@@@ATL@@QEAA@XZ 000000018002f7f0 f i MSRImpl.obj
 0001:0002e810       ??0?$IPersistStorageImpl@VCOPOSMSR@@@ATL@@QEAA@XZ 000000018002f810 f i MSRImpl.obj
 0001:0002e830       ??0?$IPersistStreamInitImpl@VCOPOSMSR@@@ATL@@QEAA@XZ 000000018002f830 f i MSRImpl.obj
 0001:0002e850       ??0?$IPropertyNotifySinkCP@VCOPOSMSR@@VCComDynamicUnkArray@ATL@@@ATL@@QEAA@XZ 000000018002f850 f i MSRImpl.obj
 0001:0002e870       ??0?$IProvideClassInfo2Impl@$1?CLSID_OPOSMSR@@3U_GUID@@B$1?DIID__IOPOSMSREvents@@3U2@B$1?LIBID_OposMSR_CCO@@3U2@B$00$0A@VCComTypeInfoHolder@ATL@@@ATL@@QEAA@XZ 000000018002f870 f i MSRImpl.obj
 0001:0002e890       ??0?$IQuickActivateImpl@VCOPOSMSR@@@ATL@@QEAA@XZ 000000018002f890 f i MSRImpl.obj
 0001:0002e8b0       ??0?$ISpecifyPropertyPagesImpl@VCOPOSMSR@@@ATL@@QEAA@XZ 000000018002f8b0 f i MSRImpl.obj
 0001:0002e8d0       ??0?$IViewObjectExImpl@VCOPOSMSR@@@ATL@@QEAA@XZ 000000018002f8d0 f i MSRImpl.obj
 0001:0002e8f0       ??0?$_ICPLocator@$1?DIID__IOPOSMSREvents@@3U_GUID@@B@ATL@@QEAA@XZ 000000018002f8f0 f i MSRImpl.obj
 0001:0002e900       ??0?$_ICPLocator@$1?IID_IPropertyNotifySink@@3U_GUID@@B@ATL@@QEAA@XZ 000000018002f900 f i MSRImpl.obj
 0001:0002e910       ??0CComControlBase@ATL@@QEAA@AEAPEAUHWND__@@@Z 000000018002f910 f i MSRImpl.obj
 0001:0002eb20       ??0CComDynamicUnkArray@ATL@@QEAA@XZ 000000018002fb20 f i MSRImpl.obj
 0001:0002eb50       ??0CDynamicStdCallThunk2@ATL@@QEAA@XZ 000000018002fb50 f i MSRImpl.obj
 0001:0002eb70       ??0CMessageMap@ATL@@QEAA@XZ 000000018002fb70 f i MSRImpl.obj
 0001:0002eb80       ??0CWindow@ATL@@QEAA@PEAUHWND__@@@Z 000000018002fb80 f i MSRImpl.obj
 0001:0002eba0       ??0CWndProcThunk@ATL@@QEAA@XZ 000000018002fba0 f i MSRImpl.obj
 0001:0002ebd0       ??0IConnectionPointContainer@@QEAA@XZ 000000018002fbd0 f i MSRImpl.obj
 0001:0002ebf0       ??0IDataObject@@QEAA@XZ    000000018002fbf0 f i MSRImpl.obj
 0001:0002ec10       ??0IDispatch@@QEAA@XZ      000000018002fc10 f i MSRImpl.obj
 0001:0002ec30       ??0IOPOSMSR@@QEAA@XZ       000000018002fc30 f i MSRImpl.obj
 0001:0002ec50       ??0IOPOSMSR_1_10@@QEAA@XZ  000000018002fc50 f i MSRImpl.obj
 0001:0002ec70       ??0IOPOSMSR_1_12@@QEAA@XZ  000000018002fc70 f i MSRImpl.obj
 0001:0002ec90       ??0IOPOSMSR_1_5@@QEAA@XZ   000000018002fc90 f i MSRImpl.obj
 0001:0002ecb0       ??0IOPOSMSR_1_8@@QEAA@XZ   000000018002fcb0 f i MSRImpl.obj
 0001:0002ecd0       ??0IOPOSMSR_1_9@@QEAA@XZ   000000018002fcd0 f i MSRImpl.obj
 0001:0002ecf0       ??0IObjectSafety@@QEAA@XZ  000000018002fcf0 f i MSRImpl.obj
 0001:0002ed10       ??0IOleControl@@QEAA@XZ    000000018002fd10 f i MSRImpl.obj
 0001:0002ed30       ??0IOleInPlaceActiveObject@@QEAA@XZ 000000018002fd30 f i MSRImpl.obj
 0001:0002ed50       ??0IOleInPlaceObject@@QEAA@XZ 000000018002fd50 f i MSRImpl.obj
 0001:0002ed70       ??0IOleInPlaceObjectWindowless@@QEAA@XZ 000000018002fd70 f i MSRImpl.obj
 0001:0002ed90       ??0IOleObject@@QEAA@XZ     000000018002fd90 f i MSRImpl.obj
 0001:0002edb0       ??0IOleWindow@@QEAA@XZ     000000018002fdb0 f i MSRImpl.obj
 0001:0002edd0       ??0IPersist@@QEAA@XZ       000000018002fdd0 f i MSRImpl.obj
 0001:0002edf0       ??0IPersistStorage@@QEAA@XZ 000000018002fdf0 f i MSRImpl.obj
 0001:0002ee10       ??0IPersistStreamInit@@QEAA@XZ 000000018002fe10 f i MSRImpl.obj
 0001:0002ee30       ??0IProvideClassInfo2@@QEAA@XZ 000000018002fe30 f i MSRImpl.obj
 0001:0002ee50       ??0IProvideClassInfo@@QEAA@XZ 000000018002fe50 f i MSRImpl.obj
 0001:0002ee70       ??0IQuickActivate@@QEAA@XZ 000000018002fe70 f i MSRImpl.obj
 0001:0002ee90       ??0ISpecifyPropertyPages@@QEAA@XZ 000000018002fe90 f i MSRImpl.obj
 0001:0002eeb0       ??0IViewObject2@@QEAA@XZ   000000018002feb0 f i MSRImpl.obj
 0001:0002eed0       ??0IViewObject@@QEAA@XZ    000000018002fed0 f i MSRImpl.obj
 0001:0002eef0       ??0IViewObjectEx@@QEAA@XZ  000000018002fef0 f i MSRImpl.obj
 0001:0002ef10       ??0OposVariantResult@@QEAA@XZ 000000018002ff10 f i MSRImpl.obj
 0001:0002ef30       ??0_CW@@QEAA@PEBD@Z        000000018002ff30 f i MSRImpl.obj
 0001:0002ef80       ??0_CW@@QEAA@PEB_W@Z       000000018002ff80 f i MSRImpl.obj
 0001:0002efd0       ??0_CWNCC@@QEAA@PEBD@Z     000000018002ffd0 f i MSRImpl.obj
 0001:0002f000       ??1?$CComControl@VCOPOSMSR@@V?$CWindowImpl@VCOPOSMSR@@VCWindow@ATL@@V?$CWinTraits@$0FGAAAAAA@$0A@@3@@ATL@@@ATL@@UEAA@XZ 0000000180030000 f i MSRImpl.obj
 0001:0002f030       ??1?$CComPtr@UIDataAdviseHolder@@@ATL@@QEAA@XZ 0000000180030030 f i MSRImpl.obj
 0001:0002f050       ??1?$CComPtr@UIOleAdviseHolder@@@ATL@@QEAA@XZ 0000000180030050 f i MSRImpl.obj
 0001:0002f070       ??1?$CComPtr@UIOleInPlaceSiteWindowless@@@ATL@@QEAA@XZ 0000000180030070 f i MSRImpl.obj
 0001:0002f090       ??1?$CComPtrBase@UIDataAdviseHolder@@@ATL@@QEAA@XZ 0000000180030090 f i MSRImpl.obj
 0001:0002f0d0       ??1?$CComPtrBase@UIOleAdviseHolder@@@ATL@@QEAA@XZ 00000001800300d0 f i MSRImpl.obj
 0001:0002f110       ??1?$CComPtrBase@UIOleInPlaceSiteWindowless@@@ATL@@QEAA@XZ 0000000180030110 f i MSRImpl.obj
 0001:0002f150       ??1?$CComQIPtr@UIDispatch@@$1?_GUID_00020400_0000_0000_c000_000000000046@@3U__s_GUID@@B@ATL@@QEAA@XZ 0000000180030150 f i MSRImpl.obj
 0001:0002f170       ??1?$CProxy_IOPOSEvents@VCOPOSMSR@@@@QEAA@XZ 0000000180030170 f i MSRImpl.obj
 0001:0002f190       ??1?$CWindowImpl@VCOPOSMSR@@VCWindow@ATL@@V?$CWinTraits@$0FGAAAAAA@$0A@@3@@ATL@@UEAA@XZ 0000000180030190 f i MSRImpl.obj
 0001:0002f1b0       ??1?$CWindowImplBaseT@VCWindow@ATL@@V?$CWinTraits@$0FGAAAAAA@$0A@@2@@ATL@@UEAA@XZ 00000001800301b0 f i MSRImpl.obj
 0001:0002f1d0       ??1?$CWindowImplRoot@VCWindow@ATL@@@ATL@@UEAA@XZ 00000001800301d0 f i MSRImpl.obj
 0001:0002f280       ??1?$IConnectionPointImpl@VCOPOSMSR@@$1?DIID__IOPOSMSREvents@@3U_GUID@@BVCComDynamicUnkArray@ATL@@@ATL@@QEAA@XZ 0000000180030280 f i MSRImpl.obj
 0001:0002f300       ??1?$IConnectionPointImpl@VCOPOSMSR@@$1?IID_IPropertyNotifySink@@3U_GUID@@BVCComDynamicUnkArray@ATL@@@ATL@@QEAA@XZ 0000000180030300 f i MSRImpl.obj
 0001:0002f380       ??1?$IPropertyNotifySinkCP@VCOPOSMSR@@VCComDynamicUnkArray@ATL@@@ATL@@QEAA@XZ 0000000180030380 f i MSRImpl.obj
 0001:0002f3a0       ??1CComControlBase@ATL@@UEAA@XZ 00000001800303a0 f i MSRImpl.obj
 0001:0002f480       ??1CComDynamicUnkArray@ATL@@QEAA@XZ 0000000180030480 f i MSRImpl.obj
 0001:0002f4b0       ??1CDynamicStdCallThunk2@ATL@@QEAA@XZ 00000001800304b0 f i MSRImpl.obj
 0001:0002f4e0       ??1CWndProcThunk@ATL@@QEAA@XZ 00000001800304e0 f i MSRImpl.obj
 0001:0002f510       ??1OposVariantResult@@QEAA@XZ 0000000180030510 f i MSRImpl.obj
 0001:0002f540       ??1_CW@@QEAA@XZ            0000000180030540 f i MSRImpl.obj
 0001:0002f5a0       ??1_CWNCC@@QEAA@XZ         00000001800305a0 f i MSRImpl.obj
 0001:0002f5c0       ??B_CW@@QEAAPEB_WXZ        00000001800305c0 f i MSRImpl.obj
 0001:0002f5f0       ??B_CWNCC@@QEAAPEA_WXZ     00000001800305f0 f i MSRImpl.obj
 0001:0002f610       ??_EOposVariant@@QEAAPEAXI@Z 0000000180030610 f i MSRImpl.obj
 0001:0002f6b0       ?EventClaim@COPOSMSR@@IEAAXXZ 00000001800306b0 f i MSRImpl.obj
 0001:0002f6e0       ?EventClose@COPOSMSR@@IEAAXXZ 00000001800306e0 f i MSRImpl.obj
 0001:0002f780       ?EventInit@COPOSMSR@@IEAAJXZ 0000000180030780 f i MSRImpl.obj
 0001:0002fa30       ?EventOpen@COPOSMSR@@IEAAXXZ 0000000180030a30 f i MSRImpl.obj
 0001:0002fa70       ?EventPreCloseRelease@COPOSMSR@@IEAAXXZ 0000000180030a70 f i MSRImpl.obj
 0001:0002fae0       ?EventUninit@COPOSMSR@@IEAAXXZ 0000000180030ae0 f i MSRImpl.obj
 0001:0002fc00       ?EventWindowProc@COPOSMSR@@IEAA_JI_K_J@Z 0000000180030c00 f i MSRImpl.obj
 0001:0002fdc0       ?FireEventCleanup@COPOSMSR@@IEAAXXZ 0000000180030dc0 f i MSRImpl.obj
 0001:0002fe00       ?FireEventSetup@COPOSMSR@@IEAA_NXZ 0000000180030e00 f i MSRImpl.obj
 0001:0002fe70       ?GetModuleInstance@CComModule@ATL@@QEAAPEAUHINSTANCE__@@XZ 0000000180030e70 f i MSRImpl.obj
 0001:0002fe80       ?SetRC@COPOSMSR@@IEAAJJ@Z  0000000180030e80 f i MSRImpl.obj
 0001:0002fea0       ?s_EventWindowProc@COPOSMSR@@KA_JPEAUHWND__@@I_K_J@Z 0000000180030ea0 f i MSRImpl.obj
 0001:0002ff40       _snwprintf                 0000000180030f40 f i MSRImpl.obj
 0001:0002ffd0       _vfwprintf_l               0000000180030fd0 f i MSRImpl.obj
 0001:00030020       _vsnwprintf                0000000180031020 f i MSRImpl.obj
 0001:00030060       _vsnwprintf_l              0000000180031060 f i MSRImpl.obj
 0001:000300e0       vfwprintf                  00000001800310e0 f i MSRImpl.obj
 0001:00030111       DebugBreak                 0000000180031111 f   kernel32:KERNEL32.dll
 0001:00030117       Sleep                      0000000180031117 f   kernel32:KERNEL32.dll
 0001:0003011d       GetCurrentProcess          000000018003111d f   kernel32:KERNEL32.dll
 0001:00030123       TerminateProcess           0000000180031123 f   kernel32:KERNEL32.dll
 0001:00030129       MultiByteToWideChar        0000000180031129 f   kernel32:KERNEL32.dll
 0001:0003012f       WideCharToMultiByte        000000018003112f f   kernel32:KERNEL32.dll
 0001:00030135       DecodePointer              0000000180031135 f   kernel32:KERNEL32.dll
 0001:0003013b       RaiseException             000000018003113b f   kernel32:KERNEL32.dll
 0001:00030141       GetLastError               0000000180031141 f   kernel32:KERNEL32.dll
 0001:00030147       SetLastError               0000000180031147 f   kernel32:KERNEL32.dll
 0001:0003014d       InitializeCriticalSectionEx 000000018003114d f   kernel32:KERNEL32.dll
 0001:00030153       DeleteCriticalSection      0000000180031153 f   kernel32:KERNEL32.dll
 0001:00030159       EncodePointer              0000000180031159 f   kernel32:KERNEL32.dll
 0001:0003015f       EnterCriticalSection       000000018003115f f   kernel32:KERNEL32.dll
 0001:00030165       LeaveCriticalSection       0000000180031165 f   kernel32:KERNEL32.dll
 0001:0003016b       ResetEvent                 000000018003116b f   kernel32:KERNEL32.dll
 0001:00030171       ReleaseMutex               0000000180031171 f   kernel32:KERNEL32.dll
 0001:00030177       WaitForSingleObject        0000000180031177 f   kernel32:KERNEL32.dll
 0001:0003017d       GetCurrentThreadId         000000018003117d f   kernel32:KERNEL32.dll
 0001:00030183       DisableThreadLibraryCalls  0000000180031183 f   kernel32:KERNEL32.dll
 0001:00030189       FreeLibrary                0000000180031189 f   kernel32:KERNEL32.dll
 0001:0003018f       GetModuleFileNameW         000000018003118f f   kernel32:KERNEL32.dll
 0001:00030195       GetModuleHandleW           0000000180031195 f   kernel32:KERNEL32.dll
 0001:0003019b       GetProcAddress             000000018003119b f   kernel32:KERNEL32.dll
 0001:000301a1       LoadLibraryExW             00000001800311a1 f   kernel32:KERNEL32.dll
 0001:000301a7       LoadResource               00000001800311a7 f   kernel32:KERNEL32.dll
 0001:000301ad       SizeofResource             00000001800311ad f   kernel32:KERNEL32.dll
 0001:000301b3       FindResourceW              00000001800311b3 f   kernel32:KERNEL32.dll
 0001:000301b9       GlobalAlloc                00000001800311b9 f   kernel32:KERNEL32.dll
 0001:000301bf       GlobalUnlock               00000001800311bf f   kernel32:KERNEL32.dll
 0001:000301c5       GlobalLock                 00000001800311c5 f   kernel32:KERNEL32.dll
 0001:000301cb       MulDiv                     00000001800311cb f   kernel32:KERNEL32.dll
 0001:000301d1       lstrcmpiW                  00000001800311d1 f   kernel32:KERNEL32.dll
 0001:000301d7       DeleteFileW                00000001800311d7 f   kernel32:KERNEL32.dll
 0001:000301dd       CloseHandle                00000001800311dd f   kernel32:KERNEL32.dll
 0001:000301e3       SetEvent                   00000001800311e3 f   kernel32:KERNEL32.dll
 0001:000301e9       CreateMutexW               00000001800311e9 f   kernel32:KERNEL32.dll
 0001:000301ef       CreateEventW               00000001800311ef f   kernel32:KERNEL32.dll
 0001:000301f5       GetCurrentProcessId        00000001800311f5 f   kernel32:KERNEL32.dll
 0001:000301fb       LocalFree                  00000001800311fb f   kernel32:KERNEL32.dll
 0001:00030201       FormatMessageW             0000000180031201 f   kernel32:KERNEL32.dll
 0001:00030207       GetActiveWindow            0000000180031207 f   user32:USER32.dll
 0001:0003020d       MessageBoxW                000000018003120d f   user32:USER32.dll
 0001:00030213       UnregisterClassW           0000000180031213 f   user32:USER32.dll
 0001:00030219       PostMessageW               0000000180031219 f   user32:USER32.dll
 0001:0003021f       DefWindowProcW             000000018003121f f   user32:USER32.dll
 0001:00030225       CallWindowProcW            0000000180031225 f   user32:USER32.dll
 0001:0003022b       RegisterClassExW           000000018003122b f   user32:USER32.dll
 0001:00030231       GetClassInfoExW            0000000180031231 f   user32:USER32.dll
 0001:00030237       CreateWindowExW            0000000180031237 f   user32:USER32.dll
 0001:0003023d       IsWindow                   000000018003123d f   user32:USER32.dll
 0001:00030243       IsChild                    0000000180031243 f   user32:USER32.dll
 0001:00030249       DestroyWindow              0000000180031249 f   user32:USER32.dll
 0001:0003024f       ShowWindow                 000000018003124f f   user32:USER32.dll
 0001:00030255       SetWindowPos               0000000180031255 f   user32:USER32.dll
 0001:0003025b       CharNextW                  000000018003125b f   user32:USER32.dll
 0001:00030261       SetFocus                   0000000180031261 f   user32:USER32.dll
 0001:00030267       GetFocus                   0000000180031267 f   user32:USER32.dll
 0001:0003026d       GetKeyState                000000018003126d f   user32:USER32.dll
 0001:00030273       GetDC                      0000000180031273 f   user32:USER32.dll
 0001:00030279       ReleaseDC                  0000000180031279 f   user32:USER32.dll
 0001:0003027f       BeginPaint                 000000018003127f f   user32:USER32.dll
 0001:00030285       EndPaint                   0000000180031285 f   user32:USER32.dll
 0001:0003028b       SetWindowRgn               000000018003128b f   user32:USER32.dll
 0001:00030291       InvalidateRect             0000000180031291 f   user32:USER32.dll
 0001:00030297       GetClientRect              0000000180031297 f   user32:USER32.dll
 0001:0003029d       IntersectRect              000000018003129d f   user32:USER32.dll
 0001:000302a3       UnionRect                  00000001800312a3 f   user32:USER32.dll
 0001:000302a9       OffsetRect                 00000001800312a9 f   user32:USER32.dll
 0001:000302af       EqualRect                  00000001800312af f   user32:USER32.dll
 0001:000302b5       PtInRect                   00000001800312b5 f   user32:USER32.dll
 0001:000302bb       GetWindowLongPtrW          00000001800312bb f   user32:USER32.dll
 0001:000302c1       SetWindowLongPtrW          00000001800312c1 f   user32:USER32.dll
 0001:000302c7       GetParent                  00000001800312c7 f   user32:USER32.dll
 0001:000302cd       LoadCursorW                00000001800312cd f   user32:USER32.dll
 0001:000302d3       PeekMessageW               00000001800312d3 f   user32:USER32.dll
 0001:000302d9       RegisterClassW             00000001800312d9 f   user32:USER32.dll
 0001:000302df       LoadBitmapW                00000001800312df f   user32:USER32.dll
 0001:000302e5       CloseMetaFile              00000001800312e5 f   gdi32:GDI32.dll
 0001:000302eb       CreateDCW                  00000001800312eb f   gdi32:GDI32.dll
 0001:000302f1       CreateMetaFileW            00000001800312f1 f   gdi32:GDI32.dll
 0001:000302f7       CreateRectRgnIndirect      00000001800312f7 f   gdi32:GDI32.dll
 0001:000302fd       DeleteDC                   00000001800312fd f   gdi32:GDI32.dll
 0001:00030303       DeleteMetaFile             0000000180031303 f   gdi32:GDI32.dll
 0001:00030309       GetDeviceCaps              0000000180031309 f   gdi32:GDI32.dll
 0001:0003030f       RestoreDC                  000000018003130f f   gdi32:GDI32.dll
 0001:00030315       SaveDC                     0000000180031315 f   gdi32:GDI32.dll
 0001:0003031b       SetMapMode                 000000018003131b f   gdi32:GDI32.dll
 0001:00030321       LPtoDP                     0000000180031321 f   gdi32:GDI32.dll
 0001:00030327       SetViewportOrgEx           0000000180031327 f   gdi32:GDI32.dll
 0001:0003032d       SetWindowExtEx             000000018003132d f   gdi32:GDI32.dll
 0001:00030333       SetWindowOrgEx             0000000180031333 f   gdi32:GDI32.dll
 0001:00030339       BitBlt                     0000000180031339 f   gdi32:GDI32.dll
 0001:0003033f       CreateCompatibleDC         000000018003133f f   gdi32:GDI32.dll
 0001:00030345       DeleteObject               0000000180031345 f   gdi32:GDI32.dll
 0001:0003034b       SelectObject               000000018003134b f   gdi32:GDI32.dll
 0001:00030351       GetObjectW                 0000000180031351 f   gdi32:GDI32.dll
 0001:00030357       RegCloseKey                0000000180031357 f   advapi32:ADVAPI32.dll
 0001:0003035d       RegCreateKeyExW            000000018003135d f   advapi32:ADVAPI32.dll
 0001:00030363       RegDeleteKeyW              0000000180031363 f   advapi32:ADVAPI32.dll
 0001:00030369       RegDeleteValueW            0000000180031369 f   advapi32:ADVAPI32.dll
 0001:0003036f       RegEnumKeyExW              000000018003136f f   advapi32:ADVAPI32.dll
 0001:00030375       RegOpenKeyExW              0000000180031375 f   advapi32:ADVAPI32.dll
 0001:0003037b       RegQueryInfoKeyW           000000018003137b f   advapi32:ADVAPI32.dll
 0001:00030381       RegSetValueExW             0000000180031381 f   advapi32:ADVAPI32.dll
 0001:00030387       RegQueryValueExW           0000000180031387 f   advapi32:ADVAPI32.dll
 0001:0003038d       CoCreateInstance           000000018003138d f   ole32:ole32.dll
 0001:00030393       StringFromGUID2            0000000180031393 f   ole32:ole32.dll
 0001:00030399       CoTaskMemAlloc             0000000180031399 f   ole32:ole32.dll
 0001:0003039f       CoTaskMemRealloc           000000018003139f f   ole32:ole32.dll
 0001:000303a5       CoTaskMemFree              00000001800313a5 f   ole32:ole32.dll
 0001:000303ab       ReadClassStm               00000001800313ab f   ole32:ole32.dll
 0001:000303b1       WriteClassStm              00000001800313b1 f   ole32:ole32.dll
 0001:000303b7       CreateDataAdviseHolder     00000001800313b7 f   ole32:ole32.dll
 0001:000303bd       OleSaveToStream            00000001800313bd f   ole32:ole32.dll
 0001:000303c3       CreateOleAdviseHolder      00000001800313c3 f   ole32:ole32.dll
 0001:000303c9       OleRegGetUserType          00000001800313c9 f   ole32:ole32.dll
 0001:000303cf       OleRegGetMiscStatus        00000001800313cf f   ole32:ole32.dll
 0001:000303d5       OleRegEnumVerbs            00000001800313d5 f   ole32:ole32.dll
 0001:000303db       CLSIDFromProgID            00000001800313db f   ole32:ole32.dll
 0001:000303e1       SysAllocString             00000001800313e1 f   oleaut32:OLEAUT32.dll
 0001:000303e7       SysAllocStringLen          00000001800313e7 f   oleaut32:OLEAUT32.dll
 0001:000303ed       SysFreeString              00000001800313ed f   oleaut32:OLEAUT32.dll
 0001:000303f3       SysStringLen               00000001800313f3 f   oleaut32:OLEAUT32.dll
 0001:000303f9       VariantClear               00000001800313f9 f   oleaut32:OLEAUT32.dll
 0001:000303ff       VariantCopyInd             00000001800313ff f   oleaut32:OLEAUT32.dll
 0001:00030405       VariantChangeType          0000000180031405 f   oleaut32:OLEAUT32.dll
 0001:0003040b       SysStringByteLen           000000018003140b f   oleaut32:OLEAUT32.dll
 0001:00030411       SysAllocStringByteLen      0000000180031411 f   oleaut32:OLEAUT32.dll
 0001:00030417       VariantInit                0000000180031417 f   oleaut32:OLEAUT32.dll
 0001:0003041d       VarUI4FromStr              000000018003141d f   oleaut32:OLEAUT32.dll
 0001:00030423       LoadTypeLib                0000000180031423 f   oleaut32:OLEAUT32.dll
 0001:00030429       LoadRegTypeLib             0000000180031429 f   oleaut32:OLEAUT32.dll
 0001:0003042f       RegisterTypeLib            000000018003142f f   oleaut32:OLEAUT32.dll
 0001:00030435       UnRegisterTypeLib          0000000180031435 f   oleaut32:OLEAUT32.dll
 0001:0003043b       OleCreatePropertyFrame     000000018003143b f   oleaut32:OLEAUT32.dll
 0001:00030441       SafeArrayGetDim            0000000180031441 f   oleaut32:OLEAUT32.dll
 0001:00030447       SafeArrayGetUBound         0000000180031447 f   oleaut32:OLEAUT32.dll
 0001:0003044d       SafeArrayGetLBound         000000018003144d f   oleaut32:OLEAUT32.dll
 0001:00030460       _RTC_AllocaHelper          0000000180031460 f   LIBCMTD:stack.obj
 0001:000304a0       _RTC_CheckStackVars        00000001800314a0 f   LIBCMTD:stack.obj
 0001:00030530       _RTC_CheckStackVars2       0000000180031530 f   LIBCMTD:stack.obj
 0001:00030640       _CRT_RTC_INIT              0000000180031640 f   LIBCMTD:init.obj
 0001:00030650       _CRT_RTC_INITW             0000000180031650 f   LIBCMTD:init.obj
 0001:00030660       _RTC_InitBase              0000000180031660 f   LIBCMTD:init.obj
 0001:000306a0       _RTC_Shutdown              00000001800316a0 f   LIBCMTD:init.obj
 0001:000306d0       __GSHandlerCheck           00000001800316d0 f   LIBCMTD:gshandler.obj
 0001:00030710       __GSHandlerCheckCommon     0000000180031710 f   LIBCMTD:gshandler.obj
 0001:00030820       __security_check_cookie    0000000180031820 f   LIBCMTD:amdsecgs.obj
 0001:00030840       ??_U@YAPEAX_K@Z            0000000180031840 f   LIBCMTD:new_array.obj
 0001:00030860       ??3@YAXPEAX_K@Z            0000000180031860 f   LIBCMTD:delete_scalar_size.obj
 0001:00030880       ??_V@YAXPEAX@Z             0000000180031880 f   LIBCMTD:delete_array.obj
 0001:000308a0       ??_V@YAXPEAX_K@Z           00000001800318a0 f   LIBCMTD:delete_array_size.obj
 0001:000308c0       ?configure_argv@__scrt_narrow_argv_policy@@SAHXZ 00000001800318c0 f i LIBCMTD:utility.obj
 0001:000309b0       ?initialize_environment@__scrt_narrow_environment_policy@@SAHXZ 00000001800319b0 f i LIBCMTD:utility.obj
 0001:00030a50       NtCurrentTeb               0000000180031a50 f i LIBCMTD:utility.obj
 0001:00030a60       __scrt_acquire_startup_lock 0000000180031a60 f   LIBCMTD:utility.obj
 0001:00030ad0       __scrt_dllmain_after_initialize_c 0000000180031ad0 f   LIBCMTD:utility.obj
 0001:00030b00       __scrt_dllmain_before_initialize_c 0000000180031b00 f   LIBCMTD:utility.obj
 0001:00030b20       __scrt_dllmain_crt_thread_attach 0000000180031b20 f   LIBCMTD:utility.obj
 0001:00030b50       __scrt_dllmain_crt_thread_detach 0000000180031b50 f   LIBCMTD:utility.obj
 0001:00030b70       __scrt_dllmain_exception_filter 0000000180031b70 f   LIBCMTD:utility.obj
 0001:00030be0       __scrt_dllmain_uninitialize_c 0000000180031be0 f   LIBCMTD:utility.obj
 0001:00030c10       __scrt_dllmain_uninitialize_critical 0000000180031c10 f   LIBCMTD:utility.obj
 0001:00030c30       __scrt_initialize_crt      0000000180031c30 f   LIBCMTD:utility.obj
 0001:00030c80       __scrt_initialize_onexit_tables 0000000180031c80 f   LIBCMTD:utility.obj
 0001:00030d90       __scrt_is_nonwritable_in_current_image 0000000180031d90 f   LIBCMTD:utility.obj
 0001:00030e20       __scrt_release_startup_lock 0000000180031e20 f   LIBCMTD:utility.obj
 0001:00030e50       __scrt_uninitialize_crt    0000000180031e50 f   LIBCMTD:utility.obj
 0001:00030e90       _onexit                    0000000180031e90 f   LIBCMTD:utility.obj
 0001:00030f10       at_quick_exit              0000000180031f10 f   LIBCMTD:utility.obj
 0001:00030f60       atexit                     0000000180031f60 f   LIBCMTD:utility.obj
 0001:00030fa0       ??3@YAXPEAX@Z              0000000180031fa0 f   LIBCMTD:delete_scalar.obj
 0001:00030fc0       __raise_securityfailure    0000000180031fc0 f   LIBCMTD:gs_report.obj
 0001:00031000       __report_gsfailure         0000000180032000 f   LIBCMTD:gs_report.obj
 0001:000310e0       __report_rangecheckfailure 00000001800320e0 f   LIBCMTD:gs_report.obj
 0001:00031100       __report_securityfailure   0000000180032100 f   LIBCMTD:gs_report.obj
 0001:000311a0       __report_securityfailureEx 00000001800321a0 f   LIBCMTD:gs_report.obj
 0001:00031560       _Init_thread_abort         0000000180032560 f   LIBCMTD:thread_safe_statics.obj
 0001:00031590       _Init_thread_footer        0000000180032590 f   LIBCMTD:thread_safe_statics.obj
 0001:000315f0       _Init_thread_header        00000001800325f0 f   LIBCMTD:thread_safe_statics.obj
 0001:00031680       _Init_thread_lock          0000000180032680 f   LIBCMTD:thread_safe_statics.obj
 0001:000316a0       _Init_thread_notify        00000001800326a0 f   LIBCMTD:thread_safe_statics.obj
 0001:00031700       _Init_thread_unlock        0000000180032700 f   LIBCMTD:thread_safe_statics.obj
 0001:00031720       _Init_thread_wait          0000000180032720 f   LIBCMTD:thread_safe_statics.obj
 0001:000317d0       ??2@YAPEAX_KAEBUnothrow_t@std@@@Z 00000001800327d0 f   LIBCMTD:new_scalar_nothrow.obj
 0001:00031810       ??_U@YAPEAX_KAEBUnothrow_t@std@@@Z 0000000180032810 f   LIBCMTD:new_array_nothrow.obj
 0001:00031840       __GSHandlerCheck_SEH       0000000180032840 f   LIBCMTD:gshandlerseh.obj
 0001:00031910       _alloca_probe              0000000180032910 f   LIBCMTD:chkstk.obj
 0001:00031910       __chkstk                   0000000180032910 f   LIBCMTD:chkstk.obj
 0001:00031d70       _CRT_INIT                  0000000180032d70 f   LIBCMTD:dll_dllmain.obj
 0001:00031da0       _DllMainCRTStartup         0000000180032da0 f   LIBCMTD:dll_dllmain.obj
 0001:00031e70       ?_RTC_AllocaFailure@@YAXPEAXPEAU_RTC_ALLOCA_NODE@@H@Z 0000000180032e70 f   LIBCMTD:error.obj
 0001:00031fd0       ?_RTC_Failure@@YAXPEAXH@Z  0000000180032fd0 f   LIBCMTD:error.obj
 0001:00032020       ?_RTC_StackFailure@@YAXPEAXPEBD@Z 0000000180033020 f   LIBCMTD:error.obj
 0001:00032450       _RTC_UninitUse             0000000180033450 f   LIBCMTD:error.obj
 0001:00032520       _vsprintf_s_l              0000000180033520 f i LIBCMTD:error.obj
 0001:00032590       sprintf_s                  0000000180033590 f i LIBCMTD:error.obj
 0001:000325c0       ?_RTC_GetErrorFunc@@YAP6AHHPEBDH00ZZPEBX@Z 00000001800335c0 f   LIBCMTD:userapi.obj
 0001:000325d0       ?_RTC_GetErrorFuncW@@YAP6AHHPEB_WH00ZZPEBX@Z 00000001800335d0 f   LIBCMTD:userapi.obj
 0001:000325e0       _RTC_GetErrDesc            00000001800335e0 f   LIBCMTD:userapi.obj
 0001:00032600       _RTC_NumErrors             0000000180033600 f   LIBCMTD:userapi.obj
 0001:00032610       _RTC_SetErrorFunc          0000000180033610 f   LIBCMTD:userapi.obj
 0001:00032630       _RTC_SetErrorFuncW         0000000180033630 f   LIBCMTD:userapi.obj
 0001:00032650       _RTC_SetErrorType          0000000180033650 f   LIBCMTD:userapi.obj
 0001:00032670       ??2@YAPEAX_K@Z             0000000180033670 f   LIBCMTD:new_scalar.obj
 0001:000326c0       __isa_available_init       00000001800336c0 f   LIBCMTD:cpu_disp.obj
 0001:00032a60       _get_startup_argv_mode     0000000180033a60 f   LIBCMTD:argv_mode.obj
 0001:00032a70       __scrt_is_ucrt_dll_in_use  0000000180033a70 f   LIBCMTD:ucrt_detection.obj
 0001:00032aa0       __crt_debugger_hook        0000000180033aa0 f   LIBCMTD:utility_desktop.obj
 0001:00032ab0       __scrt_fastfail            0000000180033ab0 f   LIBCMTD:utility_desktop.obj
 0001:00032c50       __scrt_get_show_window_mode 0000000180033c50 f   LIBCMTD:utility_desktop.obj
 0001:00032cb0       __scrt_initialize_mta      0000000180033cb0 f   LIBCMTD:utility_desktop.obj
 0001:00032cc0       __scrt_initialize_winrt    0000000180033cc0 f   LIBCMTD:utility_desktop.obj
 0001:00032cd0       __scrt_is_managed_app      0000000180033cd0 f   LIBCMTD:utility_desktop.obj
 0001:00032d80       __scrt_set_unhandled_exception_filter 0000000180033d80 f   LIBCMTD:utility_desktop.obj
 0001:00032da0       __scrt_stub_for_initialize_mta 0000000180033da0 f   LIBCMTD:utility_desktop.obj
 0001:00032da0       __scrt_exe_initialize_mta  0000000180033da0 f   LIBCMTD:utility_desktop.obj
 0001:00032db0       __scrt_unhandled_exception_filter 0000000180033db0 f   LIBCMTD:utility_desktop.obj
 0001:00032e50       _guard_check_icall_nop     0000000180033e50 f i LIBCMTD:guard_support.obj
 0001:00032e60       ReadNoFence64              0000000180033e60 f i LIBCMTD:guard_support.obj
 0001:00032e80       ReadPointerNoFence         0000000180033e80 f i LIBCMTD:guard_support.obj
 0001:00032ea0       __castguard_check_failure_debugbreak 0000000180033ea0 f i LIBCMTD:guard_support.obj
 0001:00032ec0       __castguard_check_failure_fastfail 0000000180033ec0 f i LIBCMTD:guard_support.obj
 0001:00032ef0       __castguard_check_failure_nop 0000000180033ef0 f i LIBCMTD:guard_support.obj
 0001:00032f00       __castguard_check_failure_os_handled 0000000180033f00 f i LIBCMTD:guard_support.obj
 0001:00032fd0       __castguard_slow_path_check_debugbreak 0000000180033fd0 f i LIBCMTD:guard_support.obj
 0001:00033010       __castguard_slow_path_check_fastfail 0000000180034010 f i LIBCMTD:guard_support.obj
 0001:00033060       __castguard_slow_path_check_nop 0000000180034060 f i LIBCMTD:guard_support.obj
 0001:00033070       __castguard_slow_path_check_os_handled 0000000180034070 f i LIBCMTD:guard_support.obj
 0001:00033130       _guard_icall_checks_enforced 0000000180034130 f i LIBCMTD:guard_support.obj
 0001:00033170       _guard_rf_checks_enforced  0000000180034170 f i LIBCMTD:guard_support.obj
 0001:00033240       __security_init_cookie     0000000180034240 f   LIBCMTD:gs_support.obj
 0001:000332c0       ?__scrt_initialize_type_info@@YAXXZ 00000001800342c0 f   LIBCMTD:tncleanup.obj
 0001:000332e0       ?__scrt_uninitialize_type_info@@YAXXZ 00000001800342e0 f   LIBCMTD:tncleanup.obj
 0001:00033300       __local_stdio_scanf_options 0000000180034300 f i LIBCMTD:default_local_stdio_options.obj
 0001:00033310       __scrt_initialize_default_local_stdio_options 0000000180034310 f   LIBCMTD:default_local_stdio_options.obj
 0001:00033360       __scrt_get_dyn_tls_init_callback 0000000180034360 f   LIBCMTD:dyn_tls_init.obj
 0001:00033370       _RTC_Initialize            0000000180034370 f   LIBCMTD:initsect.obj
 0001:000333c0       _RTC_Terminate             00000001800343c0 f   LIBCMTD:initsect.obj
 0001:00033930       ?_RTC_GetSrcLine@@YAHPEAEPEA_WKPEAH1K@Z 0000000180034930 f   LIBCMTD:pdblkup.obj
 0001:00033d00       ??0bad_alloc@std@@AEAA@QEBD@Z 0000000180034d00 f i LIBCMTD:throw_bad_alloc.obj
 0001:00033d40       ??0bad_alloc@std@@QEAA@AEBV01@@Z 0000000180034d40 f i LIBCMTD:throw_bad_alloc.obj
 0001:00033d80       ??0bad_alloc@std@@QEAA@XZ  0000000180034d80 f i LIBCMTD:throw_bad_alloc.obj
 0001:00033dc0       ??0bad_array_new_length@std@@QEAA@AEBV01@@Z 0000000180034dc0 f i LIBCMTD:throw_bad_alloc.obj
 0001:00033e00       ??0bad_array_new_length@std@@QEAA@XZ 0000000180034e00 f i LIBCMTD:throw_bad_alloc.obj
 0001:00033e40       ??0exception@std@@QEAA@AEBV01@@Z 0000000180034e40 f i LIBCMTD:throw_bad_alloc.obj
 0001:00033ea0       ??0exception@std@@QEAA@QEBDH@Z 0000000180034ea0 f i LIBCMTD:throw_bad_alloc.obj
 0001:00033ef0       ??1bad_alloc@std@@UEAA@XZ  0000000180034ef0 f i LIBCMTD:throw_bad_alloc.obj
 0001:00033f10       ??1bad_array_new_length@std@@UEAA@XZ 0000000180034f10 f i LIBCMTD:throw_bad_alloc.obj
 0001:00033f30       ??1exception@std@@UEAA@XZ  0000000180034f30 f i LIBCMTD:throw_bad_alloc.obj
 0001:00033f60       ??_Ebad_alloc@std@@UEAAPEAXI@Z 0000000180034f60 f i LIBCMTD:throw_bad_alloc.obj
 0001:00033f60       ??_Gbad_alloc@std@@UEAAPEAXI@Z 0000000180034f60 f i LIBCMTD:throw_bad_alloc.obj
 0001:00033fa0       ??_Gbad_array_new_length@std@@UEAAPEAXI@Z 0000000180034fa0 f i LIBCMTD:throw_bad_alloc.obj
 0001:00033fa0       ??_Ebad_array_new_length@std@@UEAAPEAXI@Z 0000000180034fa0 f i LIBCMTD:throw_bad_alloc.obj
 0001:00033fe0       ??_Eexception@std@@UEAAPEAXI@Z 0000000180034fe0 f i LIBCMTD:throw_bad_alloc.obj
 0001:00033fe0       ??_Gexception@std@@UEAAPEAXI@Z 0000000180034fe0 f i LIBCMTD:throw_bad_alloc.obj
 0001:00034020       ?__scrt_throw_std_bad_alloc@@YAXXZ 0000000180035020 f   LIBCMTD:throw_bad_alloc.obj
 0001:00034050       ?__scrt_throw_std_bad_array_new_length@@YAXXZ 0000000180035050 f   LIBCMTD:throw_bad_alloc.obj
 0001:00034080       ?what@exception@std@@UEBAPEBDXZ 0000000180035080 f i LIBCMTD:throw_bad_alloc.obj
 0001:000340c0       ??1type_info@@UEAA@XZ      00000001800350c0 f   LIBCMTD:std_type_info_static.obj
 0001:000340e0       ??_Gtype_info@@UEAAPEAXI@Z 00000001800350e0 f i LIBCMTD:std_type_info_static.obj
 0001:000340e0       ??_Etype_info@@UEAAPEAXI@Z 00000001800350e0 f i LIBCMTD:std_type_info_static.obj
 0001:0003411c       ??$?2PEAUHINSTANCE__@@@Wrapper@?$CSimpleArray@PEAUHINSTANCE__@@V?$CSimpleArrayEqualHelper@PEAUHINSTANCE__@@@ATL@@@ATL@@SAPEAX_KPEAPEAUHINSTANCE__@@@Z 000000018003511c f i atls:atlbase.obj
 0001:00034120       ??0?$CSimpleArray@PEAUHINSTANCE__@@V?$CSimpleArrayEqualHelper@PEAUHINSTANCE__@@@ATL@@@ATL@@QEAA@XZ 0000000180035120 f i atls:atlbase.obj
 0001:00034130       ??0CAtlBaseModule@ATL@@QEAA@XZ 0000000180035130 f   atls:atlbase.obj
 0001:000341d8       ??0Wrapper@?$CSimpleArray@PEAUHINSTANCE__@@V?$CSimpleArrayEqualHelper@PEAUHINSTANCE__@@@ATL@@@ATL@@QEAA@AEBQEAUHINSTANCE__@@@Z 00000001800351d8 f i atls:atlbase.obj
 0001:000341e4       ??0_ATL_BASE_MODULE70@ATL@@QEAA@XZ 00000001800351e4 f i atls:atlbase.obj
 0001:00034210       ??1?$CSimpleArray@PEAUHINSTANCE__@@V?$CSimpleArrayEqualHelper@PEAUHINSTANCE__@@@ATL@@@ATL@@QEAA@XZ 0000000180035210 f i atls:atlbase.obj
 0001:00034238       ??1CAtlBaseModule@ATL@@QEAA@XZ 0000000180035238 f   atls:atlbase.obj
 0001:0003426c       ??1_ATL_BASE_MODULE70@ATL@@QEAA@XZ 000000018003526c f i atls:atlbase.obj
 0001:00034298       ??A?$CSimpleArray@PEAUHINSTANCE__@@V?$CSimpleArrayEqualHelper@PEAUHINSTANCE__@@@ATL@@@ATL@@QEAAAEAPEAUHINSTANCE__@@H@Z 0000000180035298 f i atls:atlbase.obj
 0001:000342c4       ?Add@?$CSimpleArray@PEAUHINSTANCE__@@V?$CSimpleArrayEqualHelper@PEAUHINSTANCE__@@@ATL@@@ATL@@QEAAHAEBQEAUHINSTANCE__@@@Z 00000001800352c4 f i atls:atlbase.obj
 0001:00034364       ?AddResourceInstance@CAtlBaseModule@ATL@@QEAA_NPEAUHINSTANCE__@@@Z 0000000180035364 f   atls:atlbase.obj
 0001:000343ac       ?GetHInstanceAt@CAtlBaseModule@ATL@@QEAAPEAUHINSTANCE__@@H@Z 00000001800353ac f   atls:atlbase.obj
 0001:00034424       ?GetSize@?$CSimpleArray@PEAUHINSTANCE__@@V?$CSimpleArrayEqualHelper@PEAUHINSTANCE__@@@ATL@@@ATL@@QEBAHXZ 0000000180035424 f i atls:atlbase.obj
 0001:00034428       ?InternalSetAtIndex@?$CSimpleArray@PEAUHINSTANCE__@@V?$CSimpleArrayEqualHelper@PEAUHINSTANCE__@@@ATL@@@ATL@@QEAAXHAEBQEAUHINSTANCE__@@@Z 0000000180035428 f i atls:atlbase.obj
 0001:00034440       ?RemoveAll@?$CSimpleArray@PEAUHINSTANCE__@@V?$CSimpleArrayEqualHelper@PEAUHINSTANCE__@@@ATL@@@ATL@@QEAAXXZ 0000000180035440 f i atls:atlbase.obj
 0001:00034468       ?RemoveAt@?$CSimpleArray@PEAUHINSTANCE__@@V?$CSimpleArrayEqualHelper@PEAUHINSTANCE__@@@ATL@@@ATL@@QEAAHH@Z 0000000180035468 f i atls:atlbase.obj
 0001:00034500       ?RemoveResourceInstance@CAtlBaseModule@ATL@@QEAA_NPEAUHINSTANCE__@@@Z 0000000180035500 f   atls:atlbase.obj
 0001:00034588       ?memmove_s@Checked@ATL@@YAXPEAX_KPEBX1@Z 0000000180035588 f i atls:atlbase.obj
 0001:00034a30       ?GetCodeAddress@_stdcallthunk@ATL@@QEAAPEAXXZ 0000000180035a30 f i atls:atlthunk.obj
 0001:00034a5c       ?Init@_stdcallthunk@ATL@@QEAAH_KPEAX@Z 0000000180035a5c f i atls:atlthunk.obj
 0001:00034aac       ?__AllocStdCallThunk@@YAPEAXXZ 0000000180035aac f   atls:atlthunk.obj
 0001:00034ab4       ?__AllocStdCallThunk@ATL@@YAPEAXXZ 0000000180035ab4 f   atls:atlthunk.obj
 0001:00034abc       ?__AllocStdCallThunk_cmn@@YAPEAXXZ 0000000180035abc f   atls:atlthunk.obj
 0001:00034b94       ?__FreeStdCallThunk@@YAXPEAX@Z 0000000180035b94 f   atls:atlthunk.obj
 0001:00034bb4       ?__FreeStdCallThunk@ATL@@YAXPEAX@Z 0000000180035bb4 f   atls:atlthunk.obj
 0001:00034bd4       ?__FreeStdCallThunk_cmn@@YAXPEAX@Z 0000000180035bd4 f   atls:atlthunk.obj
 0001:00034c74       AtlThunk_AllocateData      0000000180035c74 f   atls:atlthunk.obj
 0001:00034cf0       AtlThunk_DataToCode        0000000180035cf0 f   atls:atlthunk.obj
 0001:00034d44       AtlThunk_FreeData          0000000180035d44 f   atls:atlthunk.obj
 0001:00034da4       AtlThunk_InitData          0000000180035da4 f   atls:atlthunk.obj
 0001:00034e60       memset_repmovs             0000000180035e60 f   libvcruntimed:memset.obj
 0001:00034e80       memset                     0000000180035e80 f   libvcruntimed:memset.obj
 0001:00035010       ??$__crt_interlocked_exchange_pointer@$$A6AXXZP6AXXZ@@YAP6AXXZPEDS6AXXZQ6AXXZ@Z 0000000180036010 f i libvcruntimed:purevirt.obj
 0001:00035030       ??$__crt_interlocked_read_pointer@$$A6AXXZ@@YAP6AXXZPEDS6AXXZ@Z 0000000180036030 f i libvcruntimed:purevirt.obj
 0001:00035050       ?__crt_interlocked_read_64@@YA_JPED_J@Z 0000000180036050 f i libvcruntimed:purevirt.obj
 0001:00035070       _get_purecall_handler      0000000180036070 f   libvcruntimed:purevirt.obj
 0001:00035090       _purecall                  0000000180036090 f   libvcruntimed:purevirt.obj
 0001:000350d0       _set_purecall_handler      00000001800360d0 f   libvcruntimed:purevirt.obj
 0001:00035100       memcmp                     0000000180036100 f   libvcruntimed:memcmp.obj
 0001:000351e0       memcpy_repmovs             00000001800361e0 f   libvcruntimed:memcpy.obj
 0001:00035200       memcpy                     0000000180036200 f   libvcruntimed:memcpy.obj
 0001:00035200       memmove                    0000000180036200 f   libvcruntimed:memcpy.obj
 0001:00035880       wcsstr                     0000000180036880 f   libvcruntimed:wcsstr.obj
 0001:00035ee0       __vcrt_initialize          0000000180036ee0 f   libvcruntimed:initialization.obj
 0001:00035f20       __vcrt_thread_attach       0000000180036f20 f   libvcruntimed:initialization.obj
 0001:00035f40       __vcrt_thread_detach       0000000180036f40 f   libvcruntimed:initialization.obj
 0001:00035f60       __vcrt_uninitialize        0000000180036f60 f   libvcruntimed:initialization.obj
 0001:00035f80       __vcrt_uninitialize_critical 0000000180036f80 f   libvcruntimed:initialization.obj
 0001:00035fa0       __C_specific_handler       0000000180036fa0 f   libvcruntimed:riscchandler.obj
 0001:00036410       ??$?0AEAViterator@TryBlockMap4@FH4@@AEAV012@$0A@@?$pair@Viterator@TryBlockMap4@FH4@@V123@@std@@QEAA@AEAViterator@TryBlockMap4@FH4@@0@Z 0000000180037410 f i libvcruntimed:risctrnsctrl.obj
 0001:00036470       ??$?0AEAViterator@TryBlockMap@__FrameHandler3@@AEAV012@$0A@@?$pair@Viterator@TryBlockMap@__FrameHandler3@@V123@@std@@QEAA@AEAViterator@TryBlockMap@__FrameHandler3@@0@Z 0000000180037470 f i libvcruntimed:risctrnsctrl.obj
 0001:00036640       ??$_CallSETranslator@V__FrameHandler3@@@@YAHPEAUEHExceptionRecord@@PEA_KPEAU_CONTEXT@@PEAU_xDISPATCHER_CONTEXT@@PEBU_s_FuncInfo@@K1H@Z 0000000180037640 f i libvcruntimed:risctrnsctrl.obj
 0001:000366d0       ??$_CallSETranslator@V__FrameHandler4@@@@YAHPEAUEHExceptionRecord@@PEA_KPEAU_CONTEXT@@PEAU_xDISPATCHER_CONTEXT@@PEAUFuncInfo4@FH4@@K1H@Z 00000001800376d0 f i libvcruntimed:risctrnsctrl.obj
 0001:00036760       ??$forward@AEAViterator@TryBlockMap4@FH4@@@std@@YAAEAViterator@TryBlockMap4@FH4@@AEAV123@@Z 0000000180037760 f i libvcruntimed:risctrnsctrl.obj
 0001:00036770       ??$forward@AEAViterator@TryBlockMap@__FrameHandler3@@@std@@YAAEAViterator@TryBlockMap@__FrameHandler3@@AEAV123@@Z 0000000180037770 f i libvcruntimed:risctrnsctrl.obj
 0001:00036780       ??0FuncInfo4@FH4@@QEAA@XZ  0000000180037780 f i libvcruntimed:risctrnsctrl.obj
 0001:000367f0       ??0FuncInfoHeader@FH4@@QEAA@XZ 00000001800377f0 f i libvcruntimed:risctrnsctrl.obj
 0001:00036810       ??0iterator@TryBlockMap4@FH4@@QEAA@AEAV12@I@Z 0000000180037810 f i libvcruntimed:risctrnsctrl.obj
 0001:00036840       ??0iterator@TryBlockMap@__FrameHandler3@@QEAA@AEAV12@I@Z 0000000180037840 f i libvcruntimed:risctrnsctrl.obj
 0001:00036870       ??4iterator@TryBlockMap4@FH4@@QEAAAEAV012@AEBV012@@Z 0000000180037870 f i libvcruntimed:risctrnsctrl.obj
 0001:00036890       ??9iterator@TryBlockMap4@FH4@@QEBA_NAEBV012@@Z 0000000180037890 f i libvcruntimed:risctrnsctrl.obj
 0001:000368d0       ??Diterator@TryBlockMap4@FH4@@QEAA?AUTryBlockMapEntry4@2@XZ 00000001800378d0 f i libvcruntimed:risctrnsctrl.obj
 0001:00036900       ??Eiterator@TryBlockMap4@FH4@@QEAAAEAV012@XZ 0000000180037900 f i libvcruntimed:risctrnsctrl.obj
 0001:00036940       ?CatchTryBlock@__FrameHandler3@@SAPEBU_s_TryBlockMapEntry@@PEBU_s_FuncInfo@@H@Z 0000000180037940 f   libvcruntimed:risctrnsctrl.obj
 0001:000369d0       ?DecompFuncInfo@FH4@@YA_JPEAEAEAUFuncInfo4@1@_KH@Z 00000001800379d0 f i libvcruntimed:risctrnsctrl.obj
 0001:00036a10       ?DecompFuncInfo@FH4@@YA_JPEAEAEAUFuncInfo4@1@_KH_N@Z 0000000180037a10 f i libvcruntimed:risctrnsctrl.obj
 0001:00036be0       ?DecompTryBlock@TryBlockMap4@FH4@@AEAAXXZ 0000000180037be0 f i libvcruntimed:risctrnsctrl.obj
 0001:00036c60       ?ExecutionInCatch@__FrameHandler3@@SA_NPEAU_xDISPATCHER_CONTEXT@@PEBU_s_FuncInfo@@@Z 0000000180037c60 f   libvcruntimed:risctrnsctrl.obj
 0001:00036cb0       ?ExecutionInCatch@__FrameHandler4@@SA_NPEAU_xDISPATCHER_CONTEXT@@PEAUFuncInfo4@FH4@@@Z 0000000180037cb0 f   libvcruntimed:risctrnsctrl.obj
 0001:00036cd0       ?FrameUnwindToEmptyState@__FrameHandler3@@SAXPEA_KPEAU_xDISPATCHER_CONTEXT@@PEBU_s_FuncInfo@@@Z 0000000180037cd0 f   libvcruntimed:risctrnsctrl.obj
 0001:00036d70       ?FrameUnwindToEmptyState@__FrameHandler4@@SAXPEA_KPEAU_xDISPATCHER_CONTEXT@@PEAUFuncInfo4@FH4@@@Z 0000000180037d70 f   libvcruntimed:risctrnsctrl.obj
 0001:00036dc0       ?GetEstablisherFrame@__FrameHandler3@@SAPEA_KPEA_KPEAU_xDISPATCHER_CONTEXT@@PEBU_s_FuncInfo@@0@Z 0000000180037dc0 f   libvcruntimed:risctrnsctrl.obj
 0001:00036f30       ?GetEstablisherFrame@__FrameHandler4@@SAPEA_KPEA_KPEAU_xDISPATCHER_CONTEXT@@PEAUFuncInfo4@FH4@@0@Z 0000000180037f30 f   libvcruntimed:risctrnsctrl.obj
 0001:00036fa0       ?GetRangeOfTrysToCheck@__FrameHandler3@@SA?AU?$pair@Viterator@TryBlockMap@__FrameHandler3@@V123@@std@@AEAVTryBlockMap@1@HPEAU_xDISPATCHER_CONTEXT@@PEBU_s_FuncInfo@@H@Z 0000000180037fa0 f   libvcruntimed:risctrnsctrl.obj
 0001:000371e0       ?GetRangeOfTrysToCheck@__FrameHandler4@@SA?AU?$pair@Viterator@TryBlockMap4@FH4@@V123@@std@@AEAVTryBlockMap4@FH4@@HPEAU_xDISPATCHER_CONTEXT@@PEAUFuncInfo4@5@H@Z 00000001800381e0 f   libvcruntimed:risctrnsctrl.obj
 0001:00037390       ?ReadInt@FH4@@YAHPEAPEAE@Z 0000000180038390 f i libvcruntimed:risctrnsctrl.obj
 0001:000373d0       ?ReadUnsigned@FH4@@YAIPEAPEAE@Z 00000001800383d0 f i libvcruntimed:risctrnsctrl.obj
 0001:00037460       ?UnwindNestedFrames@__FrameHandler3@@SAXPEA_KPEAUEHExceptionRecord@@PEAU_CONTEXT@@0PEAXPEBU_s_FuncInfo@@HHPEBU_s_HandlerType@@PEAU_xDISPATCHER_CONTEXT@@E@Z 0000000180038460 f   libvcruntimed:risctrnsctrl.obj
 0001:000375d0       ?UnwindNestedFrames@__FrameHandler4@@SAXPEA_KPEAUEHExceptionRecord@@PEAU_CONTEXT@@0PEAXPEAUFuncInfo4@FH4@@HHPEAUHandlerType4@5@PEAU_xDISPATCHER_CONTEXT@@E@Z 00000001800385d0 f   libvcruntimed:risctrnsctrl.obj
 0001:000377a0       ?begin@TryBlockMap4@FH4@@QEAA?AViterator@12@XZ 00000001800387a0 f i libvcruntimed:risctrnsctrl.obj
 0001:000377d0       ?end@TryBlockMap4@FH4@@QEAA?AViterator@12@XZ 00000001800387d0 f i libvcruntimed:risctrnsctrl.obj
 0001:00037800       ?imageRelToByteBuffer@FH4@@YAPEAE_KH@Z 0000000180038800 f i libvcruntimed:risctrnsctrl.obj
 0001:00037820       ?incrementToSentinel@iterator@TryBlockMap4@FH4@@QEAAXXZ 0000000180038820 f i libvcruntimed:risctrnsctrl.obj
 0001:00037840       ?setBuffer@TryBlockMap4@FH4@@QEAAXViterator@12@@Z 0000000180038840 f i libvcruntimed:risctrnsctrl.obj
 0001:000378b0       _CreateFrameInfo           00000001800388b0 f   libvcruntimed:risctrnsctrl.obj
 0001:00037920       _FindAndUnlinkFrame        0000000180038920 f   libvcruntimed:risctrnsctrl.obj
 0001:000379a0       _GetImageBase              00000001800389a0 f   libvcruntimed:risctrnsctrl.obj
 0001:000379c0       _GetThrowImageBase         00000001800389c0 f   libvcruntimed:risctrnsctrl.obj
 0001:000379e0       _SetImageBase              00000001800389e0 f   libvcruntimed:risctrnsctrl.obj
 0001:00037a00       _SetThrowImageBase         0000000180038a00 f   libvcruntimed:risctrnsctrl.obj
 0001:00037a20       __CxxFrameHandler          0000000180038a20 f   libvcruntimed:risctrnsctrl.obj
 0001:00037a60       __CxxFrameHandler2         0000000180038a60 f   libvcruntimed:risctrnsctrl.obj
 0001:00037aa0       __CxxFrameHandler3         0000000180038aa0 f   libvcruntimed:risctrnsctrl.obj
 0001:00037b80       __CxxFrameHandler4         0000000180038b80 f   libvcruntimed:risctrnsctrl.obj
 0001:00037c90       __C_specific_handler_noexcept 0000000180038c90 f   libvcruntimed:chandler_noexcept.obj
 0001:00037d20       __DestructExceptionObject  0000000180038d20 f   libvcruntimed:ehhelpers.obj
 0001:00037e20       ?_CallMemberFunction0@@YAXQEAX0@Z 0000000180038e20 f i libvcruntimed:ehhelpers.obj
 0001:00037ef0       ?raw_name@type_info@@QEBAPEBDXZ 0000000180038ef0 f i libvcruntimed:ehhelpers.obj
 0001:00037f00       _IsExceptionObjectToBeDestroyed 0000000180038f00 f   libvcruntimed:ehhelpers.obj
 0001:00037f50       _SetWinRTOutOfMemoryExceptionCallback 0000000180038f50 f   libvcruntimed:ehhelpers.obj
 0001:00037f70       __AdjustPointer            0000000180038f70 f   libvcruntimed:ehhelpers.obj
 0001:00037ff0       __FrameUnwindFilter        0000000180038ff0 f   libvcruntimed:ehhelpers.obj
 0001:000380a0       __GetPlatformExceptionInfo 00000001800390a0 f   libvcruntimed:ehhelpers.obj
 0001:00038150       __current_exception        0000000180039150 f   libvcruntimed:ehhelpers.obj
 0001:00038170       __current_exception_context 0000000180039170 f   libvcruntimed:ehhelpers.obj
 0001:00038190       __processing_throw         0000000180039190 f   libvcruntimed:ehhelpers.obj
 0001:000381b0       __std_terminate            00000001800391b0 f   libvcruntimed:ehhelpers.obj
 0001:000381c0       _is_exception_typeof       00000001800391c0 f   libvcruntimed:ehhelpers.obj
 0001:00038350       ??$?RD@__crt_internal_free_policy@@QEBAXQEBD@Z 0000000180039350 f i libvcruntimed:std_type_info.obj
 0001:00038380       ??$?RX@__crt_internal_free_policy@@QEBAXQEBX@Z 0000000180039380 f i libvcruntimed:std_type_info.obj
 0001:000383b0       ??$__crt_interlocked_compare_exchange_pointer@$$CBDPEAD$$T@@YAPEBDPEDSEBDQEAD$$T@Z 00000001800393b0 f i libvcruntimed:std_type_info.obj
 0001:000383f0       ??$__crt_interlocked_read_pointer@$$CBD@@YAPEBDPEDSEBD@Z 00000001800393f0 f i libvcruntimed:std_type_info.obj
 0001:00038410       ??0?$__crt_unique_heap_ptr@DU__crt_internal_free_policy@@@@QEAA@QEAD@Z 0000000180039410 f i libvcruntimed:std_type_info.obj
 0001:00038430       ??0?$__crt_unique_heap_ptr@XU__crt_internal_free_policy@@@@QEAA@QEAX@Z 0000000180039430 f i libvcruntimed:std_type_info.obj
 0001:00038450       ??1?$__crt_unique_heap_ptr@DU__crt_internal_free_policy@@@@QEAA@XZ 0000000180039450 f i libvcruntimed:std_type_info.obj
 0001:00038470       ??1?$__crt_unique_heap_ptr@XU__crt_internal_free_policy@@@@QEAA@XZ 0000000180039470 f i libvcruntimed:std_type_info.obj
 0001:00038490       ??B?$__crt_unique_heap_ptr@DU__crt_internal_free_policy@@@@QEBA_NXZ 0000000180039490 f i libvcruntimed:std_type_info.obj
 0001:000384b0       ??B?$__crt_unique_heap_ptr@XU__crt_internal_free_policy@@@@QEBA_NXZ 00000001800394b0 f i libvcruntimed:std_type_info.obj
 0001:00038550       ?detach@?$__crt_unique_heap_ptr@XU__crt_internal_free_policy@@@@QEAAPEAXXZ 0000000180039550 f i libvcruntimed:std_type_info.obj
 0001:00038580       ?get@?$__crt_unique_heap_ptr@DU__crt_internal_free_policy@@@@QEBAPEADXZ 0000000180039580 f i libvcruntimed:std_type_info.obj
 0001:00038590       ?get@?$__crt_unique_heap_ptr@XU__crt_internal_free_policy@@@@QEBAPEAXXZ 0000000180039590 f i libvcruntimed:std_type_info.obj
 0001:000385a0       ?is_valid@?$__crt_unique_heap_ptr@DU__crt_internal_free_policy@@@@QEBA_NXZ 00000001800395a0 f i libvcruntimed:std_type_info.obj
 0001:000385d0       ?is_valid@?$__crt_unique_heap_ptr@XU__crt_internal_free_policy@@@@QEBA_NXZ 00000001800395d0 f i libvcruntimed:std_type_info.obj
 0001:00038600       ?release@?$__crt_unique_heap_ptr@DU__crt_internal_free_policy@@@@QEAAXXZ 0000000180039600 f i libvcruntimed:std_type_info.obj
 0001:00038630       ?release@?$__crt_unique_heap_ptr@XU__crt_internal_free_policy@@@@QEAAXXZ 0000000180039630 f i libvcruntimed:std_type_info.obj
 0001:00038660       __std_type_info_compare    0000000180039660 f   libvcruntimed:std_type_info.obj
 0001:000386a0       __std_type_info_destroy_list 00000001800396a0 f   libvcruntimed:std_type_info.obj
 0001:00038700       __std_type_info_hash       0000000180039700 f   libvcruntimed:std_type_info.obj
 0001:000387b0       __std_type_info_name       00000001800397b0 f   libvcruntimed:std_type_info.obj
 0001:00038a60       __vcrt_GetModuleFileNameW  0000000180039a60 f   libvcruntimed:winapi_thunks.obj
 0001:00038a90       __vcrt_GetModuleHandleW    0000000180039a90 f   libvcruntimed:winapi_thunks.obj
 0001:00038ab0       __vcrt_LoadLibraryExW      0000000180039ab0 f   libvcruntimed:winapi_thunks.obj
 0001:00038ae0       ??$?RD@__crt_public_free_policy@@QEBAXQEBD@Z 0000000180039ae0 f i libvcruntimed:std_exception.obj
 0001:00038b00       ??0?$__crt_unique_heap_ptr@DU__crt_public_free_policy@@@@QEAA@QEAD@Z 0000000180039b00 f i libvcruntimed:std_exception.obj
 0001:00038b20       ??1?$__crt_unique_heap_ptr@DU__crt_public_free_policy@@@@QEAA@XZ 0000000180039b20 f i libvcruntimed:std_exception.obj
 0001:00038b40       ??B?$__crt_unique_heap_ptr@DU__crt_public_free_policy@@@@QEBA_NXZ 0000000180039b40 f i libvcruntimed:std_exception.obj
 0001:00038b60       ?detach@?$__crt_unique_heap_ptr@DU__crt_public_free_policy@@@@QEAAPEADXZ 0000000180039b60 f i libvcruntimed:std_exception.obj
 0001:00038b90       ?get@?$__crt_unique_heap_ptr@DU__crt_public_free_policy@@@@QEBAPEADXZ 0000000180039b90 f i libvcruntimed:std_exception.obj
 0001:00038ba0       ?is_valid@?$__crt_unique_heap_ptr@DU__crt_public_free_policy@@@@QEBA_NXZ 0000000180039ba0 f i libvcruntimed:std_exception.obj
 0001:00038bd0       ?release@?$__crt_unique_heap_ptr@DU__crt_public_free_policy@@@@QEAAXXZ 0000000180039bd0 f i libvcruntimed:std_exception.obj
 0001:00038c00       __std_exception_copy       0000000180039c00 f   libvcruntimed:std_exception.obj
 0001:00038d40       __std_exception_destroy    0000000180039d40 f   libvcruntimed:std_exception.obj
 0001:00038d80       _CxxThrowException         0000000180039d80 f   libvcruntimed:throw.obj
 0001:00038eb0       ??$?RU__vcrt_ptd@@@__crt_internal_free_policy@@QEBAXQEBU__vcrt_ptd@@@Z 0000000180039eb0 f i libvcruntimed:per_thread_data.obj
 0001:00038ee0       ??0?$__crt_unique_heap_ptr@U__vcrt_ptd@@U__crt_internal_free_policy@@@@QEAA@QEAU__vcrt_ptd@@@Z 0000000180039ee0 f i libvcruntimed:per_thread_data.obj
 0001:00038f20       ??1?$__crt_unique_heap_ptr@U__vcrt_ptd@@U__crt_internal_free_policy@@@@QEAA@XZ 0000000180039f20 f i libvcruntimed:per_thread_data.obj
 0001:00038f60       ??B?$__crt_unique_heap_ptr@U__vcrt_ptd@@U__crt_internal_free_policy@@@@QEBA_NXZ 0000000180039f60 f i libvcruntimed:per_thread_data.obj
 0001:00038f80       ?detach@?$__crt_unique_heap_ptr@U__vcrt_ptd@@U__crt_internal_free_policy@@@@QEAAPEAU__vcrt_ptd@@XZ 0000000180039f80 f i libvcruntimed:per_thread_data.obj
 0001:00038fb0       ?get@?$__crt_unique_heap_ptr@U__vcrt_ptd@@U__crt_internal_free_policy@@@@QEBAPEAU__vcrt_ptd@@XZ 0000000180039fb0 f i libvcruntimed:per_thread_data.obj
 0001:00038fc0       ?is_valid@?$__crt_unique_heap_ptr@U__vcrt_ptd@@U__crt_internal_free_policy@@@@QEBA_NXZ 0000000180039fc0 f i libvcruntimed:per_thread_data.obj
 0001:00038ff0       ?release@?$__crt_unique_heap_ptr@U__vcrt_ptd@@U__crt_internal_free_policy@@@@QEAAXXZ 0000000180039ff0 f i libvcruntimed:per_thread_data.obj
 0001:00039060       __vcrt_freefls             000000018003a060 f   libvcruntimed:per_thread_data.obj
 0001:000390a0       __vcrt_freeptd             000000018003a0a0 f   libvcruntimed:per_thread_data.obj
 0001:00039100       __vcrt_getptd              000000018003a100 f   libvcruntimed:per_thread_data.obj
 0001:00039130       __vcrt_getptd_noexit       000000018003a130 f   libvcruntimed:per_thread_data.obj
 0001:000392d0       __vcrt_getptd_noinit       000000018003a2d0 f   libvcruntimed:per_thread_data.obj
 0001:00039330       __vcrt_initialize_ptd      000000018003a330 f   libvcruntimed:per_thread_data.obj
 0001:00039380       __vcrt_uninitialize_ptd    000000018003a380 f   libvcruntimed:per_thread_data.obj
 0001:000393b0       __vcrt_initialize_locks    000000018003a3b0 f   libvcruntimed:locks.obj
 0001:00039420       __vcrt_lock                000000018003a420 f   libvcruntimed:locks.obj
 0001:00039450       __vcrt_uninitialize_locks  000000018003a450 f   libvcruntimed:locks.obj
 0001:000394b0       __vcrt_unlock              000000018003a4b0 f   libvcruntimed:locks.obj
 0001:000394f0       _NLG_Notify                000000018003a4f0 f   libvcruntimed:notify.obj
 0001:00039510       __NLG_Dispatch2            000000018003a510 f   libvcruntimed:notify.obj
 0001:00039520       __NLG_Return2              000000018003a520 f   libvcruntimed:notify.obj
 0001:00039540       __except_validate_context_record 000000018003a540 f   libvcruntimed:jbcxrval.obj
 0001:000395a0       __except_validate_jump_buffer 000000018003a5a0 f   libvcruntimed:jbcxrval.obj
 0001:000395c0       __except_validate_jump_buffer_common 000000018003a5c0 f i libvcruntimed:jbcxrval.obj
 0001:00039640       ?GetCurrentState@__FrameHandler3@@SAHPEA_KPEAU_xDISPATCHER_CONTEXT@@PEBU_s_FuncInfo@@@Z 000000018003a640 f   libvcruntimed:ehstate.obj
 0001:000396a0       ?GetUnwindTryBlock@__FrameHandler3@@SAHPEA_KPEAU_xDISPATCHER_CONTEXT@@PEBU_s_FuncInfo@@@Z 000000018003a6a0 f   libvcruntimed:ehstate.obj
 0001:000396f0       ?SetState@__FrameHandler3@@SAXPEA_KPEBU_s_FuncInfo@@H@Z 000000018003a6f0 f   libvcruntimed:ehstate.obj
 0001:00039720       ?SetUnwindTryBlock@__FrameHandler3@@SAXPEA_KPEAU_xDISPATCHER_CONTEXT@@PEBU_s_FuncInfo@@H@Z 000000018003a720 f   libvcruntimed:ehstate.obj
 0001:00039790       ?StateFromControlPc@__FrameHandler3@@SAHPEBU_s_FuncInfo@@PEAU_xDISPATCHER_CONTEXT@@@Z 000000018003a790 f   libvcruntimed:ehstate.obj
 0001:000397d0       ?StateFromControlPc@__FrameHandler4@@SAHPEAUFuncInfo4@FH4@@PEAU_xDISPATCHER_CONTEXT@@@Z 000000018003a7d0 f   libvcruntimed:ehstate.obj
 0001:00039810       ?StateFromIp@__FrameHandler3@@SAHPEBU_s_FuncInfo@@PEAU_xDISPATCHER_CONTEXT@@_K@Z 000000018003a810 f   libvcruntimed:ehstate.obj
 0001:00039900       ?StateFromIp@__FrameHandler4@@SAHPEAUFuncInfo4@FH4@@PEAU_xDISPATCHER_CONTEXT@@_K@Z 000000018003a900 f   libvcruntimed:ehstate.obj
 0001:000399f0       ?__FuncRelToRealOffset@@YA_KPEAU_xDISPATCHER_CONTEXT@@I@Z 000000018003a9f0 f i libvcruntimed:ehstate.obj
 0001:00039a20       ?__RVAtoRealOffset@@YA_KPEAU_xDISPATCHER_CONTEXT@@H@Z 000000018003aa20 f i libvcruntimed:ehstate.obj
 0001:0003bc80       ??$TypeMatchHelper@V__FrameHandler3@@@@YAHPEBU_s_HandlerType@@PEBU_s_CatchableType@@PEBU_s_ThrowInfo@@@Z 000000018003cc80 f i libvcruntimed:frame.obj
 0001:0003be80       ??$TypeMatchHelper@V__FrameHandler4@@@@YAHPEAUHandlerType4@FH4@@PEBU_s_CatchableType@@PEBU_s_ThrowInfo@@@Z 000000018003ce80 f i libvcruntimed:frame.obj
 0001:0003c090       ??$__InternalCxxFrameHandler@V__FrameHandler3@@@@YA?AW4_EXCEPTION_DISPOSITION@@PEAUEHExceptionRecord@@PEA_KPEAU_CONTEXT@@PEAU_xDISPATCHER_CONTEXT@@PEBU_s_FuncInfo@@H1E@Z 000000018003d090 f i libvcruntimed:frame.obj
 0001:0003c500       ??$__InternalCxxFrameHandler@V__FrameHandler4@@@@YA?AW4_EXCEPTION_DISPOSITION@@PEAUEHExceptionRecord@@PEA_KPEAU_CONTEXT@@PEAU_xDISPATCHER_CONTEXT@@PEAUFuncInfo4@FH4@@H1E@Z 000000018003d500 f i libvcruntimed:frame.obj
 0001:0003c990       ??0HandlerMap4@FH4@@QEAA@PEBUTryBlockMapEntry4@1@_KH@Z 000000018003d990 f i libvcruntimed:frame.obj
 0001:0003ca50       ??0HandlerMap@__FrameHandler3@@QEAA@PEBU_s_TryBlockMapEntry@@_KI@Z 000000018003da50 f i libvcruntimed:frame.obj
 0001:0003caa0       ??0HandlerType4@FH4@@QEAA@XZ 000000018003daa0 f i libvcruntimed:frame.obj
 0001:0003cac0       ??0TryBlockMap4@FH4@@QEAA@PEBUFuncInfo4@1@_K@Z 000000018003dac0 f i libvcruntimed:frame.obj
 0001:0003cb50       ??0TryBlockMap@__FrameHandler3@@QEAA@PEBU_s_FuncInfo@@_K@Z 000000018003db50 f i libvcruntimed:frame.obj
 0001:0003cb80       ??0UWMap4@FH4@@QEAA@PEBUFuncInfo4@1@_K@Z 000000018003db80 f i libvcruntimed:frame.obj
 0001:0003cbf0       ??0bad_exception@std@@QEAA@AEBV01@@Z 000000018003dbf0 f i libvcruntimed:frame.obj
 0001:0003cc30       ??0bad_exception@std@@QEAA@XZ 000000018003dc30 f i libvcruntimed:frame.obj
 0001:0003cc70       ??0iterator@HandlerMap4@FH4@@QEAA@AEAV12@I@Z 000000018003dc70 f i libvcruntimed:frame.obj
 0001:0003cca0       ??0iterator@HandlerMap@__FrameHandler3@@QEAA@AEAV12@I@Z 000000018003dca0 f i libvcruntimed:frame.obj
 0001:0003ccd0       ??0iterator@UWMap4@FH4@@QEAA@AEAV12@PEAE@Z 000000018003dcd0 f i libvcruntimed:frame.obj
 0001:0003cd00       ??1bad_exception@std@@UEAA@XZ 000000018003dd00 f i libvcruntimed:frame.obj
 0001:0003cd20       ??4iterator@UWMap4@FH4@@QEAAAEAV012@AEBV012@@Z 000000018003dd20 f i libvcruntimed:frame.obj
 0001:0003cd70       ??8iterator@HandlerMap4@FH4@@QEBA_NAEBV012@@Z 000000018003dd70 f i libvcruntimed:frame.obj
 0001:0003cdb0       ??8iterator@HandlerMap@__FrameHandler3@@QEBA_NAEBV012@@Z 000000018003ddb0 f i libvcruntimed:frame.obj
 0001:0003cdf0       ??8type_info@@QEBA_NAEBV0@@Z 000000018003ddf0 f i libvcruntimed:frame.obj
 0001:0003ce40       ??9iterator@HandlerMap4@FH4@@QEBA_NAEBV012@@Z 000000018003de40 f i libvcruntimed:frame.obj
 0001:0003ce80       ??9iterator@HandlerMap@__FrameHandler3@@QEBA_NAEBV012@@Z 000000018003de80 f i libvcruntimed:frame.obj
 0001:0003cec0       ??Diterator@HandlerMap4@FH4@@QEAA?AUHandlerType4@2@XZ 000000018003dec0 f i libvcruntimed:frame.obj
 0001:0003cef0       ??Diterator@HandlerMap@__FrameHandler3@@QEAA?BU_s_HandlerType@@XZ 000000018003def0 f i libvcruntimed:frame.obj
 0001:0003cf30       ??Diterator@TryBlockMap@__FrameHandler3@@QEAA?BU_s_TryBlockMapEntry@@XZ 000000018003df30 f i libvcruntimed:frame.obj
 0001:0003cf80       ??Diterator@UWMap4@FH4@@QEAA?AUUnwindMapEntry4@2@XZ 000000018003df80 f i libvcruntimed:frame.obj
 0001:0003d000       ??Eiterator@HandlerMap4@FH4@@QEAAAEAV012@XZ 000000018003e000 f i libvcruntimed:frame.obj
 0001:0003d040       ??Eiterator@HandlerMap@__FrameHandler3@@QEAAAEAV012@XZ 000000018003e040 f i libvcruntimed:frame.obj
 0001:0003d060       ??Eiterator@TryBlockMap@__FrameHandler3@@QEAAAEAV012@XZ 000000018003e060 f i libvcruntimed:frame.obj
 0001:0003d080       ??Eiterator@UWMap4@FH4@@QEAAAEAV012@XZ 000000018003e080 f i libvcruntimed:frame.obj
 0001:0003d0c0       ??Giterator@UWMap4@FH4@@QEBA_JAEBV012@@Z 000000018003e0c0 f i libvcruntimed:frame.obj
 0001:0003d0e0       ??Miterator@TryBlockMap4@FH4@@QEBA_NAEBV012@@Z 000000018003e0e0 f i libvcruntimed:frame.obj
 0001:0003d120       ??Miterator@TryBlockMap@__FrameHandler3@@QEBA_NAEBV012@@Z 000000018003e120 f i libvcruntimed:frame.obj
 0001:0003d160       ??Oiterator@UWMap4@FH4@@QEBA_NAEBV012@@Z 000000018003e160 f i libvcruntimed:frame.obj
 0001:0003d1a0       ??Piterator@UWMap4@FH4@@QEBA_NAEBV012@@Z 000000018003e1a0 f i libvcruntimed:frame.obj
 0001:0003d1e0       ??_Gbad_exception@std@@UEAAPEAXI@Z 000000018003e1e0 f i libvcruntimed:frame.obj
 0001:0003d1e0       ??_Ebad_exception@std@@UEAAPEAXI@Z 000000018003e1e0 f i libvcruntimed:frame.obj
 0001:0003d220       ?BuildCatchObject@__FrameHandler3@@SAXPEAUEHExceptionRecord@@PEAXPEBU_s_HandlerType@@PEBU_s_CatchableType@@@Z 000000018003e220 f   libvcruntimed:frame.obj
 0001:0003d260       ?BuildCatchObject@__FrameHandler4@@SAXPEAUEHExceptionRecord@@PEAXPEAUHandlerType4@FH4@@PEBU_s_CatchableType@@@Z 000000018003e260 f   libvcruntimed:frame.obj
 0001:0003d2a0       ?BuildCatchObjectHelper@__FrameHandler3@@SAHPEAUEHExceptionRecord@@PEAXPEBU_s_HandlerType@@PEBU_s_CatchableType@@@Z 000000018003e2a0 f   libvcruntimed:frame.obj
 0001:0003d2e0       ?BuildCatchObjectHelper@__FrameHandler4@@SAHPEAUEHExceptionRecord@@PEAXPEAUHandlerType4@FH4@@PEBU_s_CatchableType@@@Z 000000018003e2e0 f   libvcruntimed:frame.obj
 0001:0003d320       ?CxxCallCatchBlock@__FrameHandler3@@SAPEAXPEAU_EXCEPTION_RECORD@@@Z 000000018003e320 f   libvcruntimed:frame.obj
 0001:0003d580       ?CxxCallCatchBlock@__FrameHandler4@@SAPEAXPEAU_EXCEPTION_RECORD@@@Z 000000018003e580 f   libvcruntimed:frame.obj
 0001:0003d8b0       ?DecompHandler@HandlerMap4@FH4@@AEAAXXZ 000000018003e8b0 f i libvcruntimed:frame.obj
 0001:0003dc80       ?FrameUnwindToState@__FrameHandler3@@SAXPEA_KPEAU_xDISPATCHER_CONTEXT@@PEBU_s_FuncInfo@@H@Z 000000018003ec80 f   libvcruntimed:frame.obj
 0001:0003ded0       ?FrameUnwindToState@__FrameHandler4@@SAXPEA_KPEAU_xDISPATCHER_CONTEXT@@PEAUFuncInfo4@FH4@@H@Z 000000018003eed0 f   libvcruntimed:frame.obj
 0001:0003e1e0       ?GetHandlerSearchState@__FrameHandler3@@SAHPEA_KPEAU_xDISPATCHER_CONTEXT@@PEBU_s_FuncInfo@@@Z 000000018003f1e0 f i libvcruntimed:frame.obj
 0001:0003e290       ?GetHandlerSearchState@__FrameHandler4@@SAHPEA_KPEAU_xDISPATCHER_CONTEXT@@PEAUFuncInfo4@FH4@@@Z 000000018003f290 f i libvcruntimed:frame.obj
 0001:0003e310       ?GetMaxState@__FrameHandler3@@SAHPEAU_xDISPATCHER_CONTEXT@@PEBU_s_FuncInfo@@@Z 000000018003f310 f i libvcruntimed:frame.obj
 0001:0003e330       ?GetMaxState@__FrameHandler4@@SAHPEAU_xDISPATCHER_CONTEXT@@PEAUFuncInfo4@FH4@@@Z 000000018003f330 f i libvcruntimed:frame.obj
 0001:0003e560       ?ReadEntry@UWMap4@FH4@@AEAAXPEAPEAE@Z 000000018003f560 f i libvcruntimed:frame.obj
 0001:0003e610       ?TypeMatch@__FrameHandler3@@SAHPEBU_s_HandlerType@@PEBU_s_CatchableType@@PEBU_s_ThrowInfo@@@Z 000000018003f610 f   libvcruntimed:frame.obj
 0001:0003e640       ?TypeMatch@__FrameHandler4@@SAHPEAUHandlerType4@FH4@@PEBU_s_CatchableType@@PEBU_s_ThrowInfo@@@Z 000000018003f640 f   libvcruntimed:frame.obj
 0001:0003e670       ?WalkBack@UWMap4@FH4@@AEAAXPEAPEAE@Z 000000018003f670 f i libvcruntimed:frame.obj
 0001:0003e6c0       ?WalkBack@iterator@UWMap4@FH4@@QEAAXXZ 000000018003f6c0 f i libvcruntimed:frame.obj
 0001:0003e700       ?WalkForward@UWMap4@FH4@@AEAAXPEAPEAE@Z 000000018003f700 f i libvcruntimed:frame.obj
 0001:0003e730       ?_CallMemberFunction1@@YAXQEAX00@Z 000000018003f730 f i libvcruntimed:frame.obj
 0001:0003e770       ?_CallMemberFunction2@@YAXQEAX00H@Z 000000018003f770 f i libvcruntimed:frame.obj
 0001:0003e800       ?begin@HandlerMap4@FH4@@QEAA?AViterator@12@XZ 000000018003f800 f i libvcruntimed:frame.obj
 0001:0003e830       ?begin@HandlerMap@__FrameHandler3@@QEAA?AViterator@12@XZ 000000018003f830 f i libvcruntimed:frame.obj
 0001:0003e860       ?begin@UWMap4@FH4@@QEAA?AViterator@12@XZ 000000018003f860 f i libvcruntimed:frame.obj
 0001:0003e890       ?end@HandlerMap4@FH4@@QEAA?AViterator@12@XZ 000000018003f890 f i libvcruntimed:frame.obj
 0001:0003e8c0       ?end@HandlerMap@__FrameHandler3@@QEAA?AViterator@12@XZ 000000018003f8c0 f i libvcruntimed:frame.obj
 0001:0003e8f0       ?getESTypes@__FrameHandler3@@SAPEBU_s_ESTypeList@@PEBU_s_FuncInfo@@@Z 000000018003f8f0 f i libvcruntimed:frame.obj
 0001:0003e930       ?getESTypes@__FrameHandler4@@SAPEBU_s_ESTypeList@@PEAUFuncInfo4@FH4@@@Z 000000018003f930 f i libvcruntimed:frame.obj
 0001:0003e940       ?getLastEntry@HandlerMap4@FH4@@QEAAPEAUHandlerType4@2@XZ 000000018003f940 f i libvcruntimed:frame.obj
 0001:0003e980       ?getLastEntry@HandlerMap@__FrameHandler3@@QEAAPEBU_s_HandlerType@@XZ 000000018003f980 f i libvcruntimed:frame.obj
 0001:0003e9a0       ?getMagicNum@__FrameHandler3@@SAIPEBU_s_FuncInfo@@@Z 000000018003f9a0 f i libvcruntimed:frame.obj
 0001:0003e9c0       ?getMagicNum@__FrameHandler4@@SAIPEAUFuncInfo4@FH4@@@Z 000000018003f9c0 f i libvcruntimed:frame.obj
 0001:0003e9d0       ?getNumTryBlocks@TryBlockMap4@FH4@@QEAAIXZ 000000018003f9d0 f i libvcruntimed:frame.obj
 0001:0003e9e0       ?getNumTryBlocks@TryBlockMap@__FrameHandler3@@QEAAIXZ 000000018003f9e0 f i libvcruntimed:frame.obj
 0001:0003ea00       ?getStartStop@UWMap4@FH4@@QEAAXHHAEAViterator@12@0@Z 000000018003fa00 f i libvcruntimed:frame.obj
 0001:0003eb20       ?getStateFromIterators@UWMap4@FH4@@SAHAEBViterator@12@H0H0@Z 000000018003fb20 f i libvcruntimed:frame.obj
 0001:0003ec60       ?isEHs@__FrameHandler3@@SA_NPEBU_s_FuncInfo@@@Z 000000018003fc60 f i libvcruntimed:frame.obj
 0001:0003eca0       ?isEHs@__FrameHandler4@@SA_NPEAUFuncInfo4@FH4@@@Z 000000018003fca0 f i libvcruntimed:frame.obj
 0001:0003ecc0       ?isNoExcept@__FrameHandler3@@SA_NPEBU_s_FuncInfo@@@Z 000000018003fcc0 f i libvcruntimed:frame.obj
 0001:0003ed00       ?isNoExcept@__FrameHandler4@@SA_NPEAUFuncInfo4@FH4@@@Z 000000018003fd00 f i libvcruntimed:frame.obj
 0001:0003ed20       ?reset@HandlerType4@FH4@@QEAAXXZ 000000018003fd20 f i libvcruntimed:frame.obj
 0001:0003ed80       ?resetBuffer@HandlerMap4@FH4@@QEAAXXZ 000000018003fd80 f i libvcruntimed:frame.obj
 0001:0003eda0       ?setBuffer@HandlerMap4@FH4@@QEAAXI@Z 000000018003fda0 f i libvcruntimed:frame.obj
 0001:0003ee00       __BuildCatchObject         000000018003fe00 f   libvcruntimed:frame.obj
 0001:0003ee40       __BuildCatchObjectHelper   000000018003fe40 f   libvcruntimed:frame.obj
 0001:0003ee80       __TypeMatch                000000018003fe80 f   libvcruntimed:frame.obj
 0001:0003eeb0       __vcrt_EncodePointer       000000018003feb0 f i libvcruntimed:frame.obj
 0001:0003eed0       ??$?0$00@DName@@QEAA@PEBDU?$StringLifeSelector@$00@@@Z 000000018003fed0 f i libvcruntimed:undname.obj
 0001:0003ef40       ??$?0$00@pcharNode@@QEAA@PEBDHU?$StringLifeSelector@$00@@@Z 000000018003ff40 f i libvcruntimed:undname.obj
 0001:0003efa0       ??$?0$01@DName@@QEAA@PEBDU?$StringLifeSelector@$01@@@Z 000000018003ffa0 f i libvcruntimed:undname.obj
 0001:0003f010       ??$?0$01@pcharNode@@QEAA@PEBDHU?$StringLifeSelector@$01@@@Z 0000000180040010 f i libvcruntimed:undname.obj
 0001:0003f0c0       ??$?0$0A@@DName@@QEAA@PEBDU?$StringLifeSelector@$0A@@@@Z 00000001800400c0 f i libvcruntimed:undname.obj
 0001:0003f130       ??$?0$0A@@pcharNode@@QEAA@PEBDHU?$StringLifeSelector@$0A@@@@Z 0000000180040130 f i libvcruntimed:undname.obj
 0001:0003f1e0       ??$?0_K$0A@@?$optional@_K@std@@QEAA@$$QEA_K@Z 00000001800401e0 f i libvcruntimed:undname.obj
 0001:0003f230       ??$?0_K@?$_Optional_construct_base@_K@std@@QEAA@Uin_place_t@1@$$QEA_K@Z 0000000180040230 f i libvcruntimed:undname.obj
 0001:0003f260       ??$?0_K@?$_Optional_destruct_base@_K$00@std@@QEAA@Uin_place_t@1@$$QEA_K@Z 0000000180040260 f i libvcruntimed:undname.obj
 0001:0003f2a0       ??$append@VDNameNode@@@DName@@AEAAXPEBVDNameNode@@@Z 00000001800402a0 f i libvcruntimed:undname.obj
 0001:0003f350       ??$append@VDNameStatusNode@@@DName@@AEAAXPEBVDNameStatusNode@@@Z 0000000180040350 f i libvcruntimed:undname.obj
 0001:0003f400       ??$append@VcharNode@@@DName@@AEAAXPEBVcharNode@@@Z 0000000180040400 f i libvcruntimed:undname.obj
 0001:0003f4b0       ??$append@VpDNameNode@@@DName@@AEAAXPEBVpDNameNode@@@Z 00000001800404b0 f i libvcruntimed:undname.obj
 0001:0003f560       ??$append@VpcharNode@@@DName@@AEAAXPEBVpcharNode@@@Z 0000000180040560 f i libvcruntimed:undname.obj
 0001:0003f610       ??$doPchar@$00@DName@@AEAAXPEBDH@Z 0000000180040610 f i libvcruntimed:undname.obj
 0001:0003f770       ??$doPchar@$01@DName@@AEAAXPEBDH@Z 0000000180040770 f i libvcruntimed:undname.obj
 0001:0003f8d0       ??$doPchar@$0A@@DName@@AEAAXPEBDH@Z 00000001800408d0 f i libvcruntimed:undname.obj
 0001:0003fa30       ??$forward@_K@std@@YA$$QEA_KAEA_K@Z 0000000180040a30 f i libvcruntimed:undname.obj
 0001:0003fa40       ??$size@D$04@std@@YA_KAEAY04$$CBD@Z 0000000180040a40 f i libvcruntimed:undname.obj
 0001:0003fa50       ??$size@D$0EB@@std@@YA_KAEAY0EB@$$CBD@Z 0000000180040a50 f i libvcruntimed:undname.obj
 0001:0003fa60       ??0?$_Optional_construct_base@_K@std@@QEAA@XZ 0000000180040a60 f i libvcruntimed:undname.obj
 0001:0003fa80       ??0?$_Optional_destruct_base@_K$00@std@@QEAA@XZ 0000000180040a80 f i libvcruntimed:undname.obj
 0001:0003fab0       ??0?$optional@_K@std@@QEAA@XZ 0000000180040ab0 f i libvcruntimed:undname.obj
 0001:0003fad0       ??0Block@_HeapManager@@QEAA@XZ 0000000180040ad0 f i libvcruntimed:undname.obj
 0001:0003faf0       ??0DName@@QEAA@AEAPEBDD@Z  0000000180040af0 f   libvcruntimed:undname.obj
 0001:0003fcc0       ??0DName@@QEAA@AEBUStringLiteral@@@Z 0000000180040cc0 f   libvcruntimed:undname.obj
 0001:0003fd20       ??0DName@@QEAA@AEBV0@@Z    0000000180040d20 f i libvcruntimed:undname.obj
 0001:0003fd50       ??0DName@@QEAA@D@Z         0000000180040d50 f   libvcruntimed:undname.obj
 0001:0003fd90       ??0DName@@QEAA@PEAV0@@Z    0000000180040d90 f   libvcruntimed:undname.obj
 0001:0003fe70       ??0DName@@QEAA@W4DNameStatus@@@Z 0000000180040e70 f   libvcruntimed:undname.obj
 0001:0003ff20       ??0DName@@QEAA@XZ          0000000180040f20 f i libvcruntimed:undname.obj
 0001:0003ff50       ??0DName@@QEAA@_J@Z        0000000180040f50 f   libvcruntimed:undname.obj
 0001:00040060       ??0DName@@QEAA@_K@Z        0000000180041060 f   libvcruntimed:undname.obj
 0001:00040130       ??0DNameNode@@IEAA@XZ      0000000180041130 f i libvcruntimed:undname.obj
 0001:00040150       ??0Replicator@@QEAA@XZ     0000000180041150 f i libvcruntimed:undname.obj
 0001:00040190       ??0UnDecorator@@QEAA@PEBDP6APEADJ@ZK@Z 0000000180041190 f i libvcruntimed:undname.obj
 0001:00040240       ??0_Nontrivial_dummy_type@std@@QEAA@XZ 0000000180041240 f i libvcruntimed:undname.obj
 0001:00040250       ??0charNode@@QEAA@D@Z      0000000180041250 f i libvcruntimed:undname.obj
 0001:00040290       ??0pDNameNode@@QEAA@PEAVDName@@@Z 0000000180041290 f   libvcruntimed:undname.obj
 0001:00040310       ??0pairNode@@QEAA@PEBVDNameNode@@0@Z 0000000180041310 f i libvcruntimed:undname.obj
 0001:00040390       ??2@YAPEAX_KAEAV_HeapManager@@H@Z 0000000180041390 f   libvcruntimed:undname.obj
 0001:000403f0       ??4DName@@QEAAAEAV0@AEBUStringLiteral@@@Z 00000001800413f0 f   libvcruntimed:undname.obj
 0001:00040440       ??4DName@@QEAAAEAV0@AEBV0@@Z 0000000180041440 f   libvcruntimed:undname.obj
 0001:00040470       ??4DName@@QEAAAEAV0@D@Z    0000000180041470 f i libvcruntimed:undname.obj
 0001:000404b0       ??4DName@@QEAAAEAV0@PEAV0@@Z 00000001800414b0 f   libvcruntimed:undname.obj
 0001:00040580       ??4DName@@QEAAAEAV0@W4DNameStatus@@@Z 0000000180041580 f   libvcruntimed:undname.obj
 0001:00040610       ??AReplicator@@QEBA?AVDName@@H@Z 0000000180041610 f   libvcruntimed:undname.obj
 0001:000406a0       ??B?$optional@_K@std@@QEBA_NXZ 00000001800416a0 f i libvcruntimed:undname.obj
 0001:000406b0       ??D?$optional@_K@std@@QEGAAAEA_KXZ 00000001800416b0 f i libvcruntimed:undname.obj
 0001:00040750       ??H@YA?AVDName@@AEBUStringLiteral@@AEBV0@@Z 0000000180041750 f i libvcruntimed:undname.obj
 0001:000407a0       ??H@YA?AVDName@@DAEBV0@@Z  00000001800417a0 f i libvcruntimed:undname.obj
 0001:000407f0       ??H@YA?AVDName@@W4DNameStatus@@AEBV0@@Z 00000001800417f0 f i libvcruntimed:undname.obj
 0001:00040840       ??HDName@@QEBA?AV0@AEBUStringLiteral@@@Z 0000000180041840 f   libvcruntimed:undname.obj
 0001:00040890       ??HDName@@QEBA?AV0@AEBV0@@Z 0000000180041890 f   libvcruntimed:undname.obj
 0001:000408e0       ??HDName@@QEBA?AV0@D@Z     00000001800418e0 f   libvcruntimed:undname.obj
 0001:00040930       ??HDName@@QEBA?AV0@PEAV0@@Z 0000000180041930 f   libvcruntimed:undname.obj
 0001:00040980       ??HDName@@QEBA?AV0@W4DNameStatus@@@Z 0000000180041980 f   libvcruntimed:undname.obj
 0001:000409d0       ??HStringLiteral@@QEBA?AU0@H@Z 00000001800419d0 f i libvcruntimed:undname.obj
 0001:00040a10       ??YDName@@QEAAAEAV0@AEBUStringLiteral@@@Z 0000000180041a10 f   libvcruntimed:undname.obj
 0001:00040ae0       ??YDName@@QEAAAEAV0@AEBV0@@Z 0000000180041ae0 f   libvcruntimed:undname.obj
 0001:00040ba0       ??YDName@@QEAAAEAV0@D@Z    0000000180041ba0 f   libvcruntimed:undname.obj
 0001:00040c40       ??YDName@@QEAAAEAV0@PEAV0@@Z 0000000180041c40 f   libvcruntimed:undname.obj
 0001:00040d20       ??YDName@@QEAAAEAV0@W4DNameStatus@@@Z 0000000180041d20 f   libvcruntimed:undname.obj
 0001:00040d90       ??YReplicator@@QEAAAEAV0@AEBVDName@@@Z 0000000180041d90 f   libvcruntimed:undname.obj
 0001:00040e50       ??_5DName@@QEAAAEAV0@AEBV0@@Z 0000000180041e50 f   libvcruntimed:undname.obj
 0001:00040ec0       ??__K_l@@YA?AUStringLiteral@@PEBD_K@Z 0000000180041ec0 f i libvcruntimed:undname.obj
 0001:00040f10       ?Constructor@_HeapManager@@QEAAXP6APEAX_K@ZP6AXPEAX@Z@Z 0000000180041f10 f i libvcruntimed:undname.obj
 0001:00040f70       ?Destructor@_HeapManager@@QEAAXXZ 0000000180041f70 f i libvcruntimed:undname.obj
 0001:00041010       ?UScore@UnDecorator@@SA?AUStringLiteral@@W4Tokens@@@Z 0000000180042010 f   libvcruntimed:undname.obj
 0001:000410a0       ?composeDeclaration@UnDecorator@@CA?AVDName@@AEBV2@@Z 00000001800420a0 f i libvcruntimed:undname.obj
 0001:000435a0       ?dbGetString@DName@@QEBAPEADXZ 00000001800445a0 f   libvcruntimed:undname.obj
 0001:000435d0       ?doAccessSpecifiers@UnDecorator@@SAHXZ 00000001800445d0 f i libvcruntimed:undname.obj
 0001:00043600       ?doAllocationLanguage@UnDecorator@@SAHXZ 0000000180044600 f i libvcruntimed:undname.obj
 0001:00043630       ?doAllocationModel@UnDecorator@@SAHXZ 0000000180044630 f i libvcruntimed:undname.obj
 0001:00043660       ?doEcsu@UnDecorator@@SAHXZ 0000000180044660 f i libvcruntimed:undname.obj
 0001:00043690       ?doEllipsis@UnDecorator@@SAHXZ 0000000180044690 f i libvcruntimed:undname.obj
 0001:000436c0       ?doFunctionReturns@UnDecorator@@SAHXZ 00000001800446c0 f i libvcruntimed:undname.obj
 0001:000436f0       ?doMSKeywords@UnDecorator@@SAHXZ 00000001800446f0 f i libvcruntimed:undname.obj
 0001:00043720       ?doMemberTypes@UnDecorator@@SAHXZ 0000000180044720 f i libvcruntimed:undname.obj
 0001:00043750       ?doNameOnly@UnDecorator@@SAHXZ 0000000180044750 f i libvcruntimed:undname.obj
 0001:00043760       ?doNoIdentCharCheck@UnDecorator@@SAHXZ 0000000180044760 f i libvcruntimed:undname.obj
 0001:00043770       ?doPchar@DName@@AEAAXD@Z   0000000180044770 f   libvcruntimed:undname.obj
 0001:00043800       ?doPtr64@UnDecorator@@SAHXZ 0000000180044800 f i libvcruntimed:undname.obj
 0001:00043830       ?doRestrictionSpec@UnDecorator@@SAHXZ 0000000180044830 f i libvcruntimed:undname.obj
 0001:00043860       ?doThisTypes@UnDecorator@@SAHXZ 0000000180044860 f i libvcruntimed:undname.obj
 0001:00043890       ?doThrowTypes@UnDecorator@@SAHXZ 0000000180044890 f i libvcruntimed:undname.obj
 0001:000438c0       ?doTypeOnly@UnDecorator@@SAHXZ 00000001800448c0 f i libvcruntimed:undname.obj
 0001:000438d0       ?doUnderScore@UnDecorator@@SAHXZ 00000001800448d0 f i libvcruntimed:undname.obj
 0001:00043900       ?getAddressOf@UnDecorator@@CA?AVDName@@XZ 0000000180044900 f   libvcruntimed:undname.obj
 0001:000439a0       ?getArgumentList@UnDecorator@@CA?AVDName@@XZ 00000001800449a0 f   libvcruntimed:undname.obj
 0001:00043b40       ?getArgumentTypes@UnDecorator@@CA?AVDName@@XZ 0000000180044b40 f   libvcruntimed:undname.obj
 0001:00043e20       ?getArrayAccess@UnDecorator@@CA?AVDName@@XZ 0000000180044e20 f   libvcruntimed:undname.obj
 0001:00043ee0       ?getArrayObject@UnDecorator@@CA?AVDName@@XZ 0000000180044ee0 f   libvcruntimed:undname.obj
 0001:00044000       ?getArrayType@UnDecorator@@CA?AVDName@@AEBV2@@Z 0000000180045000 f i libvcruntimed:undname.obj
 0001:000443c0       ?getBasedType@UnDecorator@@CA?AVDName@@XZ 00000001800453c0 f   libvcruntimed:undname.obj
 0001:00044530       ?getBasicDataType@UnDecorator@@CA?AVDName@@AEBV2@@Z 0000000180045530 f   libvcruntimed:undname.obj
 0001:000452d0       ?getCHPEName@UnDecorator@@QEAAPEADPEADH@Z 00000001800462d0 f i libvcruntimed:undname.obj
 0001:000454a0       ?getCallIndex@UnDecorator@@CA?AVDName@@XZ 00000001800464a0 f i libvcruntimed:undname.obj
 0001:000454c0       ?getCallingConvention@UnDecorator@@CA?AVDName@@XZ 00000001800464c0 f   libvcruntimed:undname.obj
 0001:000458b0       ?getDataIndirectType@UnDecorator@@CA?AVDName@@AEBV2@W4IndirectionKind@@0H@Z 00000001800468b0 f   libvcruntimed:undname.obj
 0001:00046550       ?getDataIndirectType@UnDecorator@@CA?AVDName@@XZ 0000000180047550 f i libvcruntimed:undname.obj
 0001:000465a0       ?getDataType@UnDecorator@@CA?AVDName@@PEAV2@@Z 00000001800475a0 f   libvcruntimed:undname.obj
 0001:00046780       ?getDecoratedName@UnDecorator@@CA?AVDName@@XZ 0000000180047780 f   libvcruntimed:undname.obj
 0001:00046c70       ?getDimension@UnDecorator@@CA?AVDName@@_N@Z 0000000180047c70 f   libvcruntimed:undname.obj
 0001:00046f80       ?getDispatchTarget@UnDecorator@@CA?AVDName@@XZ 0000000180047f80 f   libvcruntimed:undname.obj
 0001:00047050       ?getDisplacement@UnDecorator@@CA?AVDName@@XZ 0000000180048050 f i libvcruntimed:undname.obj
 0001:00047070       ?getECSUDataType@UnDecorator@@CA?AVDName@@XZ 0000000180048070 f   libvcruntimed:undname.obj
 0001:00047400       ?getECSUName@UnDecorator@@CA?AVDName@@XZ 0000000180048400 f i libvcruntimed:undname.obj
 0001:00047420       ?getEnumType@UnDecorator@@CA?AVDName@@XZ 0000000180048420 f i libvcruntimed:undname.obj
 0001:000476b0       ?getExtendedDataIndirectType@UnDecorator@@CA?AVDName@@AEAW4IndirectionKind@@AEA_NH@Z 00000001800486b0 f   libvcruntimed:undname.obj
 0001:000479d0       ?getExternalDataType@UnDecorator@@CA?AVDName@@AEBV2@@Z 00000001800489d0 f i libvcruntimed:undname.obj
 0001:00047ab0       ?getFloatingPoint@UnDecorator@@CA?AVDName@@H@Z 0000000180048ab0 f   libvcruntimed:undname.obj
 0001:00047d30       ?getFunctionIndirectType@UnDecorator@@CA?AVDName@@AEBV2@@Z 0000000180048d30 f   libvcruntimed:undname.obj
 0001:00048360       ?getGuardNumber@UnDecorator@@CA?AVDName@@XZ 0000000180049360 f i libvcruntimed:undname.obj
 0001:00048380       ?getLastChar@DName@@QEBADXZ 0000000180049380 f i libvcruntimed:undname.obj
 0001:000483d0       ?getLastChar@DNameStatusNode@@UEBADXZ 00000001800493d0 f i libvcruntimed:undname.obj
 0001:00048410       ?getLastChar@charNode@@UEBADXZ 0000000180049410 f i libvcruntimed:undname.obj
 0001:00048420       ?getLastChar@pDNameNode@@UEBADXZ 0000000180049420 f i libvcruntimed:undname.obj
 0001:00048460       ?getLastChar@pairNode@@UEBADXZ 0000000180049460 f i libvcruntimed:undname.obj
 0001:000484e0       ?getLastChar@pcharNode@@UEBADXZ 00000001800494e0 f i libvcruntimed:undname.obj
 0001:00048520       ?getLexicalFrame@UnDecorator@@CA?AVDName@@XZ 0000000180049520 f i libvcruntimed:undname.obj
 0001:00048570       ?getMemberAccess@UnDecorator@@CA?AVDName@@XZ 0000000180049570 f   libvcruntimed:undname.obj
 0001:00048620       ?getMemoryWithBuffer@_HeapManager@@QEAAPEAX_K@Z 0000000180049620 f   libvcruntimed:undname.obj
 0001:00048770       ?getMemoryWithoutBuffer@_HeapManager@@QEAAPEAX_K@Z 0000000180049770 f   libvcruntimed:undname.obj
 0001:000487c0       ?getNoexcept@UnDecorator@@CA?AVDName@@XZ 00000001800497c0 f   libvcruntimed:undname.obj
 0001:00048870       ?getNumberOfDimensions@UnDecorator@@CAHXZ 0000000180049870 f   libvcruntimed:undname.obj
 0001:00048990       ?getOperatorName@UnDecorator@@CA?AVDName@@_NPEA_N@Z 0000000180049990 f i libvcruntimed:undname.obj
 0001:00049980       ?getPointerToMember@UnDecorator@@CA?AVDName@@XZ 000000018004a980 f   libvcruntimed:undname.obj
 0001:00049ad0       ?getPointerType@UnDecorator@@CA?AVDName@@AEBV2@0@Z 000000018004aad0 f i libvcruntimed:undname.obj
 0001:00049b10       ?getPointerTypeArray@UnDecorator@@CA?AVDName@@AEBV2@0@Z 000000018004ab10 f i libvcruntimed:undname.obj
 0001:00049b50       ?getPrimaryDataType@UnDecorator@@CA?AVDName@@AEBV2@@Z 000000018004ab50 f   libvcruntimed:undname.obj
 0001:0004a180       ?getPtrRefDataType@UnDecorator@@CA?AVDName@@AEBV2@H@Z 000000018004b180 f   libvcruntimed:undname.obj
 0001:0004a570       ?getPtrRefType@UnDecorator@@CA?AVDName@@AEBV2@0W4IndirectionKind@@@Z 000000018004b570 f   libvcruntimed:undname.obj
 0001:0004a7b0       ?getReferenceType@UnDecorator@@CA?AVDName@@AEBV2@0W4IndirectionKind@@@Z 000000018004b7b0 f i libvcruntimed:undname.obj
 0001:0004a7f0       ?getRestrictionSpec@UnDecorator@@CA?AVDName@@XZ 000000018004b7f0 f   libvcruntimed:undname.obj
 0001:0004aa80       ?getReturnType@UnDecorator@@CA?AVDName@@PEAV2@@Z 000000018004ba80 f   libvcruntimed:undname.obj
 0001:0004aae0       ?getScope@UnDecorator@@CA?AVDName@@XZ 000000018004bae0 f   libvcruntimed:undname.obj
 0001:0004b240       ?getScopedName@UnDecorator@@CA?AVDName@@XZ 000000018004c240 f   libvcruntimed:undname.obj
 0001:0004b440       ?getSignedDimension@UnDecorator@@CA?AVDName@@XZ 000000018004c440 f   libvcruntimed:undname.obj
 0001:0004b4d0       ?getStorageConvention@UnDecorator@@CA?AVDName@@XZ 000000018004c4d0 f i libvcruntimed:undname.obj
 0001:0004b4f0       ?getString@DName@@QEBAPEADPEAD0@Z 000000018004c4f0 f i libvcruntimed:undname.obj
 0001:0004b570       ?getString@DName@@QEBAPEADPEADH@Z 000000018004c570 f i libvcruntimed:undname.obj
 0001:0004b630       ?getString@DNameStatusNode@@UEBAPEADPEAD0@Z 000000018004c630 f i libvcruntimed:undname.obj
 0001:0004b680       ?getString@charNode@@UEBAPEADPEAD0@Z 000000018004c680 f i libvcruntimed:undname.obj
 0001:0004b6c0       ?getString@pDNameNode@@UEBAPEADPEAD0@Z 000000018004c6c0 f i libvcruntimed:undname.obj
 0001:0004b720       ?getString@pairNode@@UEBAPEADPEAD0@Z 000000018004c720 f i libvcruntimed:undname.obj
 0001:0004b7f0       ?getString@pcharNode@@UEBAPEADPEAD0@Z 000000018004c7f0 f i libvcruntimed:undname.obj
 0001:0004b830       ?getStringEncoding@UnDecorator@@CA?AVDName@@W4PrefixKind@@H@Z 000000018004c830 f   libvcruntimed:undname.obj
 0001:0004b990       ?getStringHelper@@YAPEADPEADPEBD1H@Z 000000018004c990 f i libvcruntimed:undname.obj
 0001:0004ba00       ?getStringObject@UnDecorator@@CA?AVDName@@XZ 000000018004ca00 f   libvcruntimed:undname.obj
 0001:0004bae0       ?getSymbolName@UnDecorator@@CA?AVDName@@XZ 000000018004cae0 f i libvcruntimed:undname.obj
 0001:0004bb80       ?getTemplateArgumentList@UnDecorator@@CA?AVDName@@XZ 000000018004cb80 f   libvcruntimed:undname.obj
 0001:0004bec0       ?getTemplateName@UnDecorator@@CA?AVDName@@_N@Z 000000018004cec0 f   libvcruntimed:undname.obj
 0001:0004c100       ?getTemplateNonTypeArgument@UnDecorator@@CA?AVDName@@XZ 000000018004d100 f   libvcruntimed:undname.obj
 0001:0004c9a0       ?getTemplateTypeArgument@UnDecorator@@CA?AVDName@@XZ 000000018004d9a0 f   libvcruntimed:undname.obj
 0001:0004cc10       ?getThisType@UnDecorator@@CA?AVDName@@XZ 000000018004dc10 f i libvcruntimed:undname.obj
 0001:0004cc60       ?getThrowTypes@UnDecorator@@CA?AVDName@@XZ 000000018004dc60 f   libvcruntimed:undname.obj
 0001:0004ccb0       ?getTypeEncoding@UnDecorator@@CAHXZ 000000018004dcb0 f i libvcruntimed:undname.obj
 0001:0004d910       ?getUndecoratedName@UnDecorator@@QEAAPEADPEADH@Z 000000018004e910 f i libvcruntimed:undname.obj
 0001:0004db00       ?getUnionObject@UnDecorator@@CA?AVDName@@XZ 000000018004eb00 f   libvcruntimed:undname.obj
 0001:0004dc10       ?getVCallThunkType@UnDecorator@@CA?AVDName@@XZ 000000018004ec10 f i libvcruntimed:undname.obj
 0001:0004dcc0       ?getValue@UnDecorator@@CA?AV?$optional@_K@std@@XZ 000000018004ecc0 f   libvcruntimed:undname.obj
 0001:0004dd90       ?getValueObject@UnDecorator@@CA?AVDName@@XZ 000000018004ed90 f   libvcruntimed:undname.obj
 0001:0004dfb0       ?getVbTableType@UnDecorator@@CA?AVDName@@AEBV2@@Z 000000018004efb0 f i libvcruntimed:undname.obj
 0001:0004dfe0       ?getVdispMapType@UnDecorator@@CA?AVDName@@AEBV2@@Z 000000018004efe0 f i libvcruntimed:undname.obj
 0001:0004e0a0       ?getVfTableType@UnDecorator@@CA?AVDName@@AEBV2@@Z 000000018004f0a0 f i libvcruntimed:undname.obj
 0001:0004e340       ?getZName@UnDecorator@@CA?AVDName@@_N0@Z 000000018004f340 f   libvcruntimed:undname.obj
 0001:0004e7b0       ?haveTemplateParameters@UnDecorator@@SAHXZ 000000018004f7b0 f i libvcruntimed:undname.obj
 0001:0004e7c0       ?isArray@DName@@QEBAHXZ    000000018004f7c0 f i libvcruntimed:undname.obj
 0001:0004e7e0       ?isComArray@DName@@QEBAHXZ 000000018004f7e0 f i libvcruntimed:undname.obj
 0001:0004e800       ?isEmpty@DName@@QEBAHXZ    000000018004f800 f i libvcruntimed:undname.obj
 0001:0004e830       ?isFull@Replicator@@QEBAHXZ 000000018004f830 f i libvcruntimed:undname.obj
 0001:0004e860       ?isNoTE@DName@@QEBAHXZ     000000018004f860 f i libvcruntimed:undname.obj
 0001:0004e880       ?isPinPtr@DName@@QEBAHXZ   000000018004f880 f i libvcruntimed:undname.obj
 0001:0004e8a0       ?isPtrRef@DName@@QEBAHXZ   000000018004f8a0 f i libvcruntimed:undname.obj
 0001:0004e8c0       ?isUDC@DName@@QEBAHXZ      000000018004f8c0 f i libvcruntimed:undname.obj
 0001:0004e910       ?isUDTThunk@DName@@QEBAHXZ 000000018004f910 f i libvcruntimed:undname.obj
 0001:0004e960       ?isVCallThunk@DName@@QEBAHXZ 000000018004f960 f i libvcruntimed:undname.obj
 0001:0004e980       ?isValid@DName@@QEBAHXZ    000000018004f980 f i libvcruntimed:undname.obj
 0001:0004e9c0       ?length@DName@@QEBAHXZ     000000018004f9c0 f i libvcruntimed:undname.obj
 0001:0004ea10       ?length@DNameStatusNode@@UEBAHXZ 000000018004fa10 f i libvcruntimed:undname.obj
 0001:0004ea20       ?length@charNode@@UEBAHXZ  000000018004fa20 f i libvcruntimed:undname.obj
 0001:0004ea30       ?length@pDNameNode@@UEBAHXZ 000000018004fa30 f i libvcruntimed:undname.obj
 0001:0004ea70       ?length@pairNode@@UEBAHXZ  000000018004fa70 f i libvcruntimed:undname.obj
 0001:0004eb00       ?length@pcharNode@@UEBAHXZ 000000018004fb00 f i libvcruntimed:undname.obj
 0001:0004eb10       ?make@DNameStatusNode@@SAPEBV1@W4DNameStatus@@@Z 000000018004fb10 f i libvcruntimed:undname.obj
 0001:0004eb60       ?parseDecoratedName@UnDecorator@@CA?AVDName@@XZ 000000018004fb60 f   libvcruntimed:undname.obj
 0001:0004ed50       ?raw_length@DNameStatusNode@@UEBAHXZ 000000018004fd50 f i libvcruntimed:undname.obj
 0001:0004ed70       ?raw_length@charNode@@UEBAHXZ 000000018004fd70 f i libvcruntimed:undname.obj
 0001:0004ed90       ?raw_length@pDNameNode@@UEBAHXZ 000000018004fd90 f i libvcruntimed:undname.obj
 0001:0004eda0       ?raw_length@pairNode@@UEBAHXZ 000000018004fda0 f i libvcruntimed:undname.obj
 0001:0004edb0       ?raw_length@pcharNode@@UEBAHXZ 000000018004fdb0 f i libvcruntimed:undname.obj
 0001:0004edd0       ?setIsArray@DName@@QEAAXXZ 000000018004fdd0 f i libvcruntimed:undname.obj
 0001:0004edf0       ?setIsComArray@DName@@QEAAXXZ 000000018004fdf0 f i libvcruntimed:undname.obj
 0001:0004ee10       ?setIsNoTE@DName@@QEAAXXZ  000000018004fe10 f i libvcruntimed:undname.obj
 0001:0004ee30       ?setIsPinPtr@DName@@QEAAXXZ 000000018004fe30 f i libvcruntimed:undname.obj
 0001:0004ee50       ?setIsUDC@DName@@QEAAXXZ   000000018004fe50 f i libvcruntimed:undname.obj
 0001:0004ee80       ?setIsVCallThunk@DName@@QEAAXXZ 000000018004fe80 f i libvcruntimed:undname.obj
 0001:0004eea0       ?setPtrRef@DName@@QEAAAEAV1@XZ 000000018004fea0 f i libvcruntimed:undname.obj
 0001:0004eec0       ?status@DName@@QEBA?AW4DNameStatus@@XZ 000000018004fec0 f i libvcruntimed:undname.obj
 0001:0004eff0       __unDName                  000000018004fff0 f   libvcruntimed:undname.obj
 0001:0004f050       __unDNameEx                0000000180050050 f   libvcruntimed:undname.obj
 0001:0004f110       unDNameGenerateCHPE        0000000180050110 f   libvcruntimed:undname.obj
 0001:0004f1c0       ??$__crt_interlocked_exchange_pointer@UHINSTANCE__@@PEAU1@@@YAPEAUHINSTANCE__@@PEDSEAU0@QEAU0@@Z 00000001800501c0 f i libvcruntimed:winapi_downlevel.obj
 0001:0004f1e0       ??$__crt_interlocked_exchange_pointer@UHINSTANCE__@@PEAX@@YAPEAUHINSTANCE__@@PEDSEAU0@QEAX@Z 00000001800501e0 f i libvcruntimed:winapi_downlevel.obj
 0001:0004f200       ??$__crt_interlocked_exchange_pointer@XPEAX@@YAPEAXPEDSEAXQEAX@Z 0000000180050200 f i libvcruntimed:winapi_downlevel.obj
 0001:0004f220       ??$__crt_interlocked_read_pointer@UHINSTANCE__@@@@YAPEAUHINSTANCE__@@PEDSEAU0@@Z 0000000180050220 f i libvcruntimed:winapi_downlevel.obj
 0001:0004f240       ??$__crt_interlocked_read_pointer@X@@YAPEAXPEDSEAX@Z 0000000180050240 f i libvcruntimed:winapi_downlevel.obj
 0001:0004f750       __vcrt_FlsAlloc            0000000180050750 f   libvcruntimed:winapi_downlevel.obj
 0001:0004f7a0       __vcrt_FlsFree             00000001800507a0 f   libvcruntimed:winapi_downlevel.obj
 0001:0004f7f0       __vcrt_FlsGetValue         00000001800507f0 f   libvcruntimed:winapi_downlevel.obj
 0001:0004f840       __vcrt_FlsSetValue         0000000180050840 f   libvcruntimed:winapi_downlevel.obj
 0001:0004f8a0       __vcrt_InitializeCriticalSectionEx 00000001800508a0 f   libvcruntimed:winapi_downlevel.obj
 0001:0004f920       _CallSettingFrame          0000000180050920 f   libvcruntimed:handlers.obj
 0001:0004f970       _CallSettingFrame_LookupContinuationIndex 0000000180050970 f   libvcruntimed:handlers.obj
 0001:0004f9a0       _CallSettingFrame_NotifyContinuationAddr 00000001800509a0 f   libvcruntimed:handlers.obj
 0001:0004f9d0       _CallSettingFrameEncoded   00000001800509d0 f   libvcruntimed:handlers.obj
 0001:0004fa20       ??$?0AEBV?$stream_output_adapter@D@__crt_stdio_output@@AEB_KAEBQEBDAEAV__crt_cached_ptd_host@@AEBQEAD@?$format_validation_base@DV?$stream_output_adapter@D@__crt_stdio_output@@@__crt_stdio_output@@IEAA@AEBV?$stream_output_adapter@D@1@AEB_KAEBQEBDAEAV__crt_cached_ptd_host@@AEBQEAD@Z 0000000180050a20 f i libucrtd:output.obj
 0001:0004fa70       ??$?0AEBV?$stream_output_adapter@D@__crt_stdio_output@@AEB_KAEBQEBDAEAV__crt_cached_ptd_host@@AEBQEAD@?$positional_parameter_base@DV?$stream_output_adapter@D@__crt_stdio_output@@@__crt_stdio_output@@IEAA@AEBV?$stream_output_adapter@D@1@AEB_KAEBQEBDAEAV__crt_cached_ptd_host@@AEBQEAD@Z 0000000180050a70 f i libucrtd:output.obj
 0001:0004fb10       ??$?0AEBV?$stream_output_adapter@D@__crt_stdio_output@@AEB_KAEBQEBDAEAV__crt_cached_ptd_host@@AEBQEAD@?$standard_base@DV?$stream_output_adapter@D@__crt_stdio_output@@@__crt_stdio_output@@IEAA@AEBV?$stream_output_adapter@D@1@AEB_KAEBQEBDAEAV__crt_cached_ptd_host@@AEBQEAD@Z 0000000180050b10 f i libucrtd:output.obj
 0001:0004fb80       ??$?0AEBV?$stream_output_adapter@_W@__crt_stdio_output@@AEB_KAEBQEB_WAEAV__crt_cached_ptd_host@@AEBQEAD@?$format_validation_base@_WV?$stream_output_adapter@_W@__crt_stdio_output@@@__crt_stdio_output@@IEAA@AEBV?$stream_output_adapter@_W@1@AEB_KAEBQEB_WAEAV__crt_cached_ptd_host@@AEBQEAD@Z 0000000180050b80 f i libucrtd:output.obj
 0001:0004fbd0       ??$?0AEBV?$stream_output_adapter@_W@__crt_stdio_output@@AEB_KAEBQEB_WAEAV__crt_cached_ptd_host@@AEBQEAD@?$positional_parameter_base@_WV?$stream_output_adapter@_W@__crt_stdio_output@@@__crt_stdio_output@@IEAA@AEBV?$stream_output_adapter@_W@1@AEB_KAEBQEB_WAEAV__crt_cached_ptd_host@@AEBQEAD@Z 0000000180050bd0 f i libucrtd:output.obj
 0001:0004fc70       ??$?0AEBV?$stream_output_adapter@_W@__crt_stdio_output@@AEB_KAEBQEB_WAEAV__crt_cached_ptd_host@@AEBQEAD@?$standard_base@_WV?$stream_output_adapter@_W@__crt_stdio_output@@@__crt_stdio_output@@IEAA@AEBV?$stream_output_adapter@_W@1@AEB_KAEBQEB_WAEAV__crt_cached_ptd_host@@AEBQEAD@Z 0000000180050c70 f i libucrtd:output.obj
 0001:0004fce0       ??$?0AEBV?$string_output_adapter@D@__crt_stdio_output@@AEB_KAEBQEBDAEAV__crt_cached_ptd_host@@AEBQEAD@?$format_validation_base@DV?$string_output_adapter@D@__crt_stdio_output@@@__crt_stdio_output@@IEAA@AEBV?$string_output_adapter@D@1@AEB_KAEBQEBDAEAV__crt_cached_ptd_host@@AEBQEAD@Z 0000000180050ce0 f i libucrtd:output.obj
 0001:0004fd30       ??$?0AEBV?$string_output_adapter@D@__crt_stdio_output@@AEB_KAEBQEBDAEAV__crt_cached_ptd_host@@AEBQEAD@?$positional_parameter_base@DV?$string_output_adapter@D@__crt_stdio_output@@@__crt_stdio_output@@IEAA@AEBV?$string_output_adapter@D@1@AEB_KAEBQEBDAEAV__crt_cached_ptd_host@@AEBQEAD@Z 0000000180050d30 f i libucrtd:output.obj
 0001:0004fdd0       ??$?0AEBV?$string_output_adapter@D@__crt_stdio_output@@AEB_KAEBQEBDAEAV__crt_cached_ptd_host@@AEBQEAD@?$standard_base@DV?$string_output_adapter@D@__crt_stdio_output@@@__crt_stdio_output@@IEAA@AEBV?$string_output_adapter@D@1@AEB_KAEBQEBDAEAV__crt_cached_ptd_host@@AEBQEAD@Z 0000000180050dd0 f i libucrtd:output.obj
 0001:0004fe40       ??$?0AEBV?$string_output_adapter@_W@__crt_stdio_output@@AEB_KAEBQEB_WAEAV__crt_cached_ptd_host@@AEBQEAD@?$format_validation_base@_WV?$string_output_adapter@_W@__crt_stdio_output@@@__crt_stdio_output@@IEAA@AEBV?$string_output_adapter@_W@1@AEB_KAEBQEB_WAEAV__crt_cached_ptd_host@@AEBQEAD@Z 0000000180050e40 f i libucrtd:output.obj
 0001:0004fe90       ??$?0AEBV?$string_output_adapter@_W@__crt_stdio_output@@AEB_KAEBQEB_WAEAV__crt_cached_ptd_host@@AEBQEAD@?$positional_parameter_base@_WV?$string_output_adapter@_W@__crt_stdio_output@@@__crt_stdio_output@@IEAA@AEBV?$string_output_adapter@_W@1@AEB_KAEBQEB_WAEAV__crt_cached_ptd_host@@AEBQEAD@Z 0000000180050e90 f i libucrtd:output.obj
 0001:0004ff30       ??$?0AEBV?$string_output_adapter@_W@__crt_stdio_output@@AEB_KAEBQEB_WAEAV__crt_cached_ptd_host@@AEBQEAD@?$standard_base@_WV?$string_output_adapter@_W@__crt_stdio_output@@@__crt_stdio_output@@IEAA@AEBV?$string_output_adapter@_W@1@AEB_KAEBQEB_WAEAV__crt_cached_ptd_host@@AEBQEAD@Z 0000000180050f30 f i libucrtd:output.obj
 0001:000503c0       ??$__crt_interlocked_read@J@@YAJPEDJ@Z 00000001800513c0 f i libucrtd:output.obj
 0001:000503e0       ??$_tcstol_internal@DPEAPEAD$0A@@@YAJAEAV__crt_cached_ptd_host@@QEBDQEAPEADH@Z 00000001800513e0 f i libucrtd:output.obj
 0001:00050430       ??$_tcstol_internal@_WPEAPEA_W$0A@@@YAJAEAV__crt_cached_ptd_host@@QEB_WQEAPEA_WH@Z 0000000180051430 f i libucrtd:output.obj
 0001:00054450       ??$count@D@formatting_buffer@__crt_stdio_output@@QEBA_KXZ 0000000180055450 f i libucrtd:output.obj
 0001:000544a0       ??$count@_W@formatting_buffer@__crt_stdio_output@@QEBA_KXZ 00000001800554a0 f i libucrtd:output.obj
 0001:000544f0       ??$data@D@formatting_buffer@__crt_stdio_output@@QEAAPEADXZ 00000001800554f0 f i libucrtd:output.obj
 0001:00054540       ??$data@_W@formatting_buffer@__crt_stdio_output@@QEAAPEA_WXZ 0000000180055540 f i libucrtd:output.obj
 0001:00054590       ??$ensure_buffer_is_big_enough@D@formatting_buffer@__crt_stdio_output@@QEAA_N_KAEAV__crt_cached_ptd_host@@@Z 0000000180055590 f i libucrtd:output.obj
 0001:000546d0       ??$ensure_buffer_is_big_enough@_W@formatting_buffer@__crt_stdio_output@@QEAA_N_KAEAV__crt_cached_ptd_host@@@Z 00000001800556d0 f i libucrtd:output.obj
 0001:00054810       ??$extract_argument_from_va_list@C_J@?$positional_parameter_base@DV?$stream_output_adapter@D@__crt_stdio_output@@@__crt_stdio_output@@IEAA_NAEA_J@Z 0000000180055810 f i libucrtd:output.obj
 0001:000549d0       ??$extract_argument_from_va_list@C_J@?$positional_parameter_base@DV?$string_output_adapter@D@__crt_stdio_output@@@__crt_stdio_output@@IEAA_NAEA_J@Z 00000001800559d0 f i libucrtd:output.obj
 0001:00054b90       ??$extract_argument_from_va_list@C_J@?$positional_parameter_base@_WV?$stream_output_adapter@_W@__crt_stdio_output@@@__crt_stdio_output@@IEAA_NAEA_J@Z 0000000180055b90 f i libucrtd:output.obj
 0001:00054d50       ??$extract_argument_from_va_list@C_J@?$positional_parameter_base@_WV?$string_output_adapter@_W@__crt_stdio_output@@@__crt_stdio_output@@IEAA_NAEA_J@Z 0000000180055d50 f i libucrtd:output.obj
 0001:00054f10       ??$extract_argument_from_va_list@C_J@?$standard_base@DV?$stream_output_adapter@D@__crt_stdio_output@@@__crt_stdio_output@@IEAA_NAEA_J@Z 0000000180055f10 f i libucrtd:output.obj
 0001:00054f50       ??$extract_argument_from_va_list@C_J@?$standard_base@DV?$string_output_adapter@D@__crt_stdio_output@@@__crt_stdio_output@@IEAA_NAEA_J@Z 0000000180055f50 f i libucrtd:output.obj
 0001:00054f90       ??$extract_argument_from_va_list@C_J@?$standard_base@_WV?$stream_output_adapter@_W@__crt_stdio_output@@@__crt_stdio_output@@IEAA_NAEA_J@Z 0000000180055f90 f i libucrtd:output.obj
 0001:00054fd0       ??$extract_argument_from_va_list@C_J@?$standard_base@_WV?$string_output_adapter@_W@__crt_stdio_output@@@__crt_stdio_output@@IEAA_NAEA_J@Z 0000000180055fd0 f i libucrtd:output.obj
 0001:00055010       ??$extract_argument_from_va_list@E_J@?$positional_parameter_base@DV?$stream_output_adapter@D@__crt_stdio_output@@@__crt_stdio_output@@IEAA_NAEA_J@Z 0000000180056010 f i libucrtd:output.obj
 0001:000551d0       ??$extract_argument_from_va_list@E_J@?$positional_parameter_base@DV?$string_output_adapter@D@__crt_stdio_output@@@__crt_stdio_output@@IEAA_NAEA_J@Z 00000001800561d0 f i libucrtd:output.obj
 0001:00055390       ??$extract_argument_from_va_list@E_J@?$positional_parameter_base@_WV?$stream_output_adapter@_W@__crt_stdio_output@@@__crt_stdio_output@@IEAA_NAEA_J@Z 0000000180056390 f i libucrtd:output.obj
 0001:00055550       ??$extract_argument_from_va_list@E_J@?$positional_parameter_base@_WV?$string_output_adapter@_W@__crt_stdio_output@@@__crt_stdio_output@@IEAA_NAEA_J@Z 0000000180056550 f i libucrtd:output.obj
 0001:00055710       ??$extract_argument_from_va_list@E_J@?$standard_base@DV?$stream_output_adapter@D@__crt_stdio_output@@@__crt_stdio_output@@IEAA_NAEA_J@Z 0000000180056710 f i libucrtd:output.obj
 0001:00055750       ??$extract_argument_from_va_list@E_J@?$standard_base@DV?$string_output_adapter@D@__crt_stdio_output@@@__crt_stdio_output@@IEAA_NAEA_J@Z 0000000180056750 f i libucrtd:output.obj
 0001:00055790       ??$extract_argument_from_va_list@E_J@?$standard_base@_WV?$stream_output_adapter@_W@__crt_stdio_output@@@__crt_stdio_output@@IEAA_NAEA_J@Z 0000000180056790 f i libucrtd:output.obj
 0001:000557d0       ??$extract_argument_from_va_list@E_J@?$standard_base@_WV?$string_output_adapter@_W@__crt_stdio_output@@@__crt_stdio_output@@IEAA_NAEA_J@Z 00000001800567d0 f i libucrtd:output.obj
 0001:00055810       ??$extract_argument_from_va_list@F_J@?$positional_parameter_base@DV?$stream_output_adapter@D@__crt_stdio_output@@@__crt_stdio_output@@IEAA_NAEA_J@Z 0000000180056810 f i libucrtd:output.obj
 0001:000559d0       ??$extract_argument_from_va_list@F_J@?$positional_parameter_base@DV?$string_output_adapter@D@__crt_stdio_output@@@__crt_stdio_output@@IEAA_NAEA_J@Z 00000001800569d0 f i libucrtd:output.obj
 0001:00055b90       ??$extract_argument_from_va_list@F_J@?$positional_parameter_base@_WV?$stream_output_adapter@_W@__crt_stdio_output@@@__crt_stdio_output@@IEAA_NAEA_J@Z 0000000180056b90 f i libucrtd:output.obj
 0001:00055d50       ??$extract_argument_from_va_list@F_J@?$positional_parameter_base@_WV?$string_output_adapter@_W@__crt_stdio_output@@@__crt_stdio_output@@IEAA_NAEA_J@Z 0000000180056d50 f i libucrtd:output.obj
 0001:00055f10       ??$extract_argument_from_va_list@F_J@?$standard_base@DV?$stream_output_adapter@D@__crt_stdio_output@@@__crt_stdio_output@@IEAA_NAEA_J@Z 0000000180056f10 f i libucrtd:output.obj
 0001:00055f50       ??$extract_argument_from_va_list@F_J@?$standard_base@DV?$string_output_adapter@D@__crt_stdio_output@@@__crt_stdio_output@@IEAA_NAEA_J@Z 0000000180056f50 f i libucrtd:output.obj
 0001:00055f90       ??$extract_argument_from_va_list@F_J@?$standard_base@_WV?$stream_output_adapter@_W@__crt_stdio_output@@@__crt_stdio_output@@IEAA_NAEA_J@Z 0000000180056f90 f i libucrtd:output.obj
 0001:00055fd0       ??$extract_argument_from_va_list@F_J@?$standard_base@_WV?$string_output_adapter@_W@__crt_stdio_output@@@__crt_stdio_output@@IEAA_NAEA_J@Z 0000000180056fd0 f i libucrtd:output.obj
 0001:00056010       ??$extract_argument_from_va_list@GD@?$positional_parameter_base@DV?$stream_output_adapter@D@__crt_stdio_output@@@__crt_stdio_output@@IEAA_NAEAD@Z 0000000180057010 f i libucrtd:output.obj
 0001:000561d0       ??$extract_argument_from_va_list@GD@?$positional_parameter_base@DV?$string_output_adapter@D@__crt_stdio_output@@@__crt_stdio_output@@IEAA_NAEAD@Z 00000001800571d0 f i libucrtd:output.obj
 0001:00056390       ??$extract_argument_from_va_list@GD@?$standard_base@DV?$stream_output_adapter@D@__crt_stdio_output@@@__crt_stdio_output@@IEAA_NAEAD@Z 0000000180057390 f i libucrtd:output.obj
 0001:000563c0       ??$extract_argument_from_va_list@GD@?$standard_base@DV?$string_output_adapter@D@__crt_stdio_output@@@__crt_stdio_output@@IEAA_NAEAD@Z 00000001800573c0 f i libucrtd:output.obj
 0001:000563f0       ??$extract_argument_from_va_list@G_J@?$positional_parameter_base@DV?$stream_output_adapter@D@__crt_stdio_output@@@__crt_stdio_output@@IEAA_NAEA_J@Z 00000001800573f0 f i libucrtd:output.obj
 0001:000565b0       ??$extract_argument_from_va_list@G_J@?$positional_parameter_base@DV?$string_output_adapter@D@__crt_stdio_output@@@__crt_stdio_output@@IEAA_NAEA_J@Z 00000001800575b0 f i libucrtd:output.obj
 0001:00056770       ??$extract_argument_from_va_list@G_J@?$positional_parameter_base@_WV?$stream_output_adapter@_W@__crt_stdio_output@@@__crt_stdio_output@@IEAA_NAEA_J@Z 0000000180057770 f i libucrtd:output.obj
 0001:00056930       ??$extract_argument_from_va_list@G_J@?$positional_parameter_base@_WV?$string_output_adapter@_W@__crt_stdio_output@@@__crt_stdio_output@@IEAA_NAEA_J@Z 0000000180057930 f i libucrtd:output.obj
 0001:00056af0       ??$extract_argument_from_va_list@G_J@?$standard_base@DV?$stream_output_adapter@D@__crt_stdio_output@@@__crt_stdio_output@@IEAA_NAEA_J@Z 0000000180057af0 f i libucrtd:output.obj
 0001:00056b30       ??$extract_argument_from_va_list@G_J@?$standard_base@DV?$string_output_adapter@D@__crt_stdio_output@@@__crt_stdio_output@@IEAA_NAEA_J@Z 0000000180057b30 f i libucrtd:output.obj
 0001:00056b70       ??$extract_argument_from_va_list@G_J@?$standard_base@_WV?$stream_output_adapter@_W@__crt_stdio_output@@@__crt_stdio_output@@IEAA_NAEA_J@Z 0000000180057b70 f i libucrtd:output.obj
 0001:00056bb0       ??$extract_argument_from_va_list@G_J@?$standard_base@_WV?$string_output_adapter@_W@__crt_stdio_output@@@__crt_stdio_output@@IEAA_NAEA_J@Z 0000000180057bb0 f i libucrtd:output.obj
 0001:00056bf0       ??$extract_argument_from_va_list@H_J@?$positional_parameter_base@DV?$stream_output_adapter@D@__crt_stdio_output@@@__crt_stdio_output@@IEAA_NAEA_J@Z 0000000180057bf0 f i libucrtd:output.obj
 0001:00056db0       ??$extract_argument_from_va_list@H_J@?$positional_parameter_base@DV?$string_output_adapter@D@__crt_stdio_output@@@__crt_stdio_output@@IEAA_NAEA_J@Z 0000000180057db0 f i libucrtd:output.obj
 0001:00056f70       ??$extract_argument_from_va_list@H_J@?$positional_parameter_base@_WV?$stream_output_adapter@_W@__crt_stdio_output@@@__crt_stdio_output@@IEAA_NAEA_J@Z 0000000180057f70 f i libucrtd:output.obj
 0001:00057130       ??$extract_argument_from_va_list@H_J@?$positional_parameter_base@_WV?$string_output_adapter@_W@__crt_stdio_output@@@__crt_stdio_output@@IEAA_NAEA_J@Z 0000000180058130 f i libucrtd:output.obj
 0001:000572f0       ??$extract_argument_from_va_list@H_J@?$standard_base@DV?$stream_output_adapter@D@__crt_stdio_output@@@__crt_stdio_output@@IEAA_NAEA_J@Z 00000001800582f0 f i libucrtd:output.obj
 0001:00057320       ??$extract_argument_from_va_list@H_J@?$standard_base@DV?$string_output_adapter@D@__crt_stdio_output@@@__crt_stdio_output@@IEAA_NAEA_J@Z 0000000180058320 f i libucrtd:output.obj
 0001:00057350       ??$extract_argument_from_va_list@H_J@?$standard_base@_WV?$stream_output_adapter@_W@__crt_stdio_output@@@__crt_stdio_output@@IEAA_NAEA_J@Z 0000000180058350 f i libucrtd:output.obj
 0001:00057380       ??$extract_argument_from_va_list@H_J@?$standard_base@_WV?$string_output_adapter@_W@__crt_stdio_output@@@__crt_stdio_output@@IEAA_NAEA_J@Z 0000000180058380 f i libucrtd:output.obj
 0001:000573b0       ??$extract_argument_from_va_list@I_J@?$positional_parameter_base@DV?$stream_output_adapter@D@__crt_stdio_output@@@__crt_stdio_output@@IEAA_NAEA_J@Z 00000001800583b0 f i libucrtd:output.obj
 0001:00057570       ??$extract_argument_from_va_list@I_J@?$positional_parameter_base@DV?$string_output_adapter@D@__crt_stdio_output@@@__crt_stdio_output@@IEAA_NAEA_J@Z 0000000180058570 f i libucrtd:output.obj
 0001:00057730       ??$extract_argument_from_va_list@I_J@?$positional_parameter_base@_WV?$stream_output_adapter@_W@__crt_stdio_output@@@__crt_stdio_output@@IEAA_NAEA_J@Z 0000000180058730 f i libucrtd:output.obj
 0001:000578f0       ??$extract_argument_from_va_list@I_J@?$positional_parameter_base@_WV?$string_output_adapter@_W@__crt_stdio_output@@@__crt_stdio_output@@IEAA_NAEA_J@Z 00000001800588f0 f i libucrtd:output.obj
 0001:00057ab0       ??$extract_argument_from_va_list@I_J@?$standard_base@DV?$stream_output_adapter@D@__crt_stdio_output@@@__crt_stdio_output@@IEAA_NAEA_J@Z 0000000180058ab0 f i libucrtd:output.obj
 0001:00057ae0       ??$extract_argument_from_va_list@I_J@?$standard_base@DV?$string_output_adapter@D@__crt_stdio_output@@@__crt_stdio_output@@IEAA_NAEA_J@Z 0000000180058ae0 f i libucrtd:output.obj
 0001:00057b10       ??$extract_argument_from_va_list@I_J@?$standard_base@_WV?$stream_output_adapter@_W@__crt_stdio_output@@@__crt_stdio_output@@IEAA_NAEA_J@Z 0000000180058b10 f i libucrtd:output.obj
 0001:00057b40       ??$extract_argument_from_va_list@I_J@?$standard_base@_WV?$string_output_adapter@_W@__crt_stdio_output@@@__crt_stdio_output@@IEAA_NAEA_J@Z 0000000180058b40 f i libucrtd:output.obj
 0001:00057b70       ??$extract_argument_from_va_list@PEADPEAD@?$positional_parameter_base@DV?$stream_output_adapter@D@__crt_stdio_output@@@__crt_stdio_output@@IEAA_NAEAPEAD@Z 0000000180058b70 f i libucrtd:output.obj
 0001:00057d30       ??$extract_argument_from_va_list@PEADPEAD@?$positional_parameter_base@DV?$string_output_adapter@D@__crt_stdio_output@@@__crt_stdio_output@@IEAA_NAEAPEAD@Z 0000000180058d30 f i libucrtd:output.obj
 0001:00057ef0       ??$extract_argument_from_va_list@PEADPEAD@?$positional_parameter_base@_WV?$stream_output_adapter@_W@__crt_stdio_output@@@__crt_stdio_output@@IEAA_NAEAPEAD@Z 0000000180058ef0 f i libucrtd:output.obj
 0001:000580b0       ??$extract_argument_from_va_list@PEADPEAD@?$positional_parameter_base@_WV?$string_output_adapter@_W@__crt_stdio_output@@@__crt_stdio_output@@IEAA_NAEAPEAD@Z 00000001800590b0 f i libucrtd:output.obj
 0001:00058270       ??$extract_argument_from_va_list@PEADPEAD@?$standard_base@DV?$stream_output_adapter@D@__crt_stdio_output@@@__crt_stdio_output@@IEAA_NAEAPEAD@Z 0000000180059270 f i libucrtd:output.obj
 0001:000582a0       ??$extract_argument_from_va_list@PEADPEAD@?$standard_base@DV?$string_output_adapter@D@__crt_stdio_output@@@__crt_stdio_output@@IEAA_NAEAPEAD@Z 00000001800592a0 f i libucrtd:output.obj
 0001:000582d0       ??$extract_argument_from_va_list@PEADPEAD@?$standard_base@_WV?$stream_output_adapter@_W@__crt_stdio_output@@@__crt_stdio_output@@IEAA_NAEAPEAD@Z 00000001800592d0 f i libucrtd:output.obj
 0001:00058300       ??$extract_argument_from_va_list@PEADPEAD@?$standard_base@_WV?$string_output_adapter@_W@__crt_stdio_output@@@__crt_stdio_output@@IEAA_NAEAPEAD@Z 0000000180059300 f i libucrtd:output.obj
 0001:00058330       ??$extract_argument_from_va_list@PEAUansi_string@?1??type_case_Z@?$output_processor@DV?$stream_output_adapter@D@__crt_stdio_output@@V?$format_validation_base@DV?$stream_output_adapter@D@__crt_stdio_output@@@2@@__crt_stdio_output@@AEAA_NXZ@PEAU1?1??234@AEAA_NXZ@@?$standard_base@DV?$stream_output_adapter@D@__crt_stdio_output@@@__crt_stdio_output@@IEAA_NAEAPEAUansi_string@?1??type_case_Z@?$output_processor@DV?$stream_output_adapter@D@__crt_stdio_output@@V?$format_validation_base@DV?$stream_output_adapter@D@__crt_stdio_output@@@2@@1@AEAA_NXZ@@Z 0000000180059330 f i libucrtd:output.obj
 0001:00058360       ??$extract_argument_from_va_list@PEAUansi_string@?1??type_case_Z@?$output_processor@DV?$stream_output_adapter@D@__crt_stdio_output@@V?$positional_parameter_base@DV?$stream_output_adapter@D@__crt_stdio_output@@@2@@__crt_stdio_output@@AEAA_NXZ@PEAU1?1??234@AEAA_NXZ@@?$positional_parameter_base@DV?$stream_output_adapter@D@__crt_stdio_output@@@__crt_stdio_output@@IEAA_NAEAPEAUansi_string@?1??type_case_Z@?$output_processor@DV?$stream_output_adapter@D@__crt_stdio_output@@V?$positional_parameter_base@DV?$stream_output_adapter@D@__crt_stdio_output@@@2@@1@AEAA_NXZ@@Z 0000000180059360 f i libucrtd:output.obj
 0001:00058520       ??$extract_argument_from_va_list@PEAUansi_string@?1??type_case_Z@?$output_processor@DV?$stream_output_adapter@D@__crt_stdio_output@@V?$positional_parameter_base@DV?$stream_output_adapter@D@__crt_stdio_output@@@2@@__crt_stdio_output@@AEAA_NXZ@PEAU1?1??234@AEAA_NXZ@@?$standard_base@DV?$stream_output_adapter@D@__crt_stdio_output@@@__crt_stdio_output@@IEAA_NAEAPEAUansi_string@?1??type_case_Z@?$output_processor@DV?$stream_output_adapter@D@__crt_stdio_output@@V?$positional_parameter_base@DV?$stream_output_adapter@D@__crt_stdio_output@@@2@@1@AEAA_NXZ@@Z 0000000180059520 f i libucrtd:output.obj
 0001:00058550       ??$extract_argument_from_va_list@PEAUansi_string@?1??type_case_Z@?$output_processor@DV?$stream_output_adapter@D@__crt_stdio_output@@V?$standard_base@DV?$stream_output_adapter@D@__crt_stdio_output@@@2@@__crt_stdio_output@@AEAA_NXZ@PEAU1?1??234@AEAA_NXZ@@?$standard_base@DV?$stream_output_adapter@D@__crt_stdio_output@@@__crt_stdio_output@@IEAA_NAEAPEAUansi_string@?1??type_case_Z@?$output_processor@DV?$stream_output_adapter@D@__crt_stdio_output@@V?$standard_base@DV?$stream_output_adapter@D@__crt_stdio_output@@@2@@1@AEAA_NXZ@@Z 0000000180059550 f i libucrtd:output.obj
 0001:00058580       ??$extract_argument_from_va_list@PEAUansi_string@?1??type_case_Z@?$output_processor@DV?$string_output_adapter@D@__crt_stdio_output@@V?$format_validation_base@DV?$string_output_adapter@D@__crt_stdio_output@@@2@@__crt_stdio_output@@AEAA_NXZ@PEAU1?1??234@AEAA_NXZ@@?$standard_base@DV?$string_output_adapter@D@__crt_stdio_output@@@__crt_stdio_output@@IEAA_NAEAPEAUansi_string@?1??type_case_Z@?$output_processor@DV?$string_output_adapter@D@__crt_stdio_output@@V?$format_validation_base@DV?$string_output_adapter@D@__crt_stdio_output@@@2@@1@AEAA_NXZ@@Z 0000000180059580 f i libucrtd:output.obj
 0001:000585b0       ??$extract_argument_from_va_list@PEAUansi_string@?1??type_case_Z@?$output_processor@DV?$string_output_adapter@D@__crt_stdio_output@@V?$positional_parameter_base@DV?$string_output_adapter@D@__crt_stdio_output@@@2@@__crt_stdio_output@@AEAA_NXZ@PEAU1?1??234@AEAA_NXZ@@?$positional_parameter_base@DV?$string_output_adapter@D@__crt_stdio_output@@@__crt_stdio_output@@IEAA_NAEAPEAUansi_string@?1??type_case_Z@?$output_processor@DV?$string_output_adapter@D@__crt_stdio_output@@V?$positional_parameter_base@DV?$string_output_adapter@D@__crt_stdio_output@@@2@@1@AEAA_NXZ@@Z 00000001800595b0 f i libucrtd:output.obj
 0001:00058770       ??$extract_argument_from_va_list@PEAUansi_string@?1??type_case_Z@?$output_processor@DV?$string_output_adapter@D@__crt_stdio_output@@V?$positional_parameter_base@DV?$string_output_adapter@D@__crt_stdio_output@@@2@@__crt_stdio_output@@AEAA_NXZ@PEAU1?1??234@AEAA_NXZ@@?$standard_base@DV?$string_output_adapter@D@__crt_stdio_output@@@__crt_stdio_output@@IEAA_NAEAPEAUansi_string@?1??type_case_Z@?$output_processor@DV?$string_output_adapter@D@__crt_stdio_output@@V?$positional_parameter_base@DV?$string_output_adapter@D@__crt_stdio_output@@@2@@1@AEAA_NXZ@@Z 0000000180059770 f i libucrtd:output.obj
 0001:000587a0       ??$extract_argument_from_va_list@PEAUansi_string@?1??type_case_Z@?$output_processor@DV?$string_output_adapter@D@__crt_stdio_output@@V?$standard_base@DV?$string_output_adapter@D@__crt_stdio_output@@@2@@__crt_stdio_output@@AEAA_NXZ@PEAU1?1??234@AEAA_NXZ@@?$standard_base@DV?$string_output_adapter@D@__crt_stdio_output@@@__crt_stdio_output@@IEAA_NAEAPEAUansi_string@?1??type_case_Z@?$output_processor@DV?$string_output_adapter@D@__crt_stdio_output@@V?$standard_base@DV?$string_output_adapter@D@__crt_stdio_output@@@2@@1@AEAA_NXZ@@Z 00000001800597a0 f i libucrtd:output.obj
 0001:000587d0       ??$extract_argument_from_va_list@PEAUansi_string@?1??type_case_Z@?$output_processor@_WV?$stream_output_adapter@_W@__crt_stdio_output@@V?$format_validation_base@_WV?$stream_output_adapter@_W@__crt_stdio_output@@@2@@__crt_stdio_output@@AEAA_NXZ@PEAU1?1??234@AEAA_NXZ@@?$standard_base@_WV?$stream_output_adapter@_W@__crt_stdio_output@@@__crt_stdio_output@@IEAA_NAEAPEAUansi_string@?1??type_case_Z@?$output_processor@_WV?$stream_output_adapter@_W@__crt_stdio_output@@V?$format_validation_base@_WV?$stream_output_adapter@_W@__crt_stdio_output@@@2@@1@AEAA_NXZ@@Z 00000001800597d0 f i libucrtd:output.obj
 0001:00058800       ??$extract_argument_from_va_list@PEAUansi_string@?1??type_case_Z@?$output_processor@_WV?$stream_output_adapter@_W@__crt_stdio_output@@V?$positional_parameter_base@_WV?$stream_output_adapter@_W@__crt_stdio_output@@@2@@__crt_stdio_output@@AEAA_NXZ@PEAU1?1??234@AEAA_NXZ@@?$positional_parameter_base@_WV?$stream_output_adapter@_W@__crt_stdio_output@@@__crt_stdio_output@@IEAA_NAEAPEAUansi_string@?1??type_case_Z@?$output_processor@_WV?$stream_output_adapter@_W@__crt_stdio_output@@V?$positional_parameter_base@_WV?$stream_output_adapter@_W@__crt_stdio_output@@@2@@1@AEAA_NXZ@@Z 0000000180059800 f i libucrtd:output.obj
 0001:000589c0       ??$extract_argument_from_va_list@PEAUansi_string@?1??type_case_Z@?$output_processor@_WV?$stream_output_adapter@_W@__crt_stdio_output@@V?$positional_parameter_base@_WV?$stream_output_adapter@_W@__crt_stdio_output@@@2@@__crt_stdio_output@@AEAA_NXZ@PEAU1?1??234@AEAA_NXZ@@?$standard_base@_WV?$stream_output_adapter@_W@__crt_stdio_output@@@__crt_stdio_output@@IEAA_NAEAPEAUansi_string@?1??type_case_Z@?$output_processor@_WV?$stream_output_adapter@_W@__crt_stdio_output@@V?$positional_parameter_base@_WV?$stream_output_adapter@_W@__crt_stdio_output@@@2@@1@AEAA_NXZ@@Z 00000001800599c0 f i libucrtd:output.obj
 0001:000589f0       ??$extract_argument_from_va_list@PEAUansi_string@?1??type_case_Z@?$output_processor@_WV?$stream_output_adapter@_W@__crt_stdio_output@@V?$standard_base@_WV?$stream_output_adapter@_W@__crt_stdio_output@@@2@@__crt_stdio_output@@AEAA_NXZ@PEAU1?1??234@AEAA_NXZ@@?$standard_base@_WV?$stream_output_adapter@_W@__crt_stdio_output@@@__crt_stdio_output@@IEAA_NAEAPEAUansi_string@?1??type_case_Z@?$output_processor@_WV?$stream_output_adapter@_W@__crt_stdio_output@@V?$standard_base@_WV?$stream_output_adapter@_W@__crt_stdio_output@@@2@@1@AEAA_NXZ@@Z 00000001800599f0 f i libucrtd:output.obj
 0001:00058a20       ??$extract_argument_from_va_list@PEAUansi_string@?1??type_case_Z@?$output_processor@_WV?$string_output_adapter@_W@__crt_stdio_output@@V?$format_validation_base@_WV?$string_output_adapter@_W@__crt_stdio_output@@@2@@__crt_stdio_output@@AEAA_NXZ@PEAU1?1??234@AEAA_NXZ@@?$standard_base@_WV?$string_output_adapter@_W@__crt_stdio_output@@@__crt_stdio_output@@IEAA_NAEAPEAUansi_string@?1??type_case_Z@?$output_processor@_WV?$string_output_adapter@_W@__crt_stdio_output@@V?$format_validation_base@_WV?$string_output_adapter@_W@__crt_stdio_output@@@2@@1@AEAA_NXZ@@Z 0000000180059a20 f i libucrtd:output.obj
 0001:00058a50       ??$extract_argument_from_va_list@PEAUansi_string@?1??type_case_Z@?$output_processor@_WV?$string_output_adapter@_W@__crt_stdio_output@@V?$positional_parameter_base@_WV?$string_output_adapter@_W@__crt_stdio_output@@@2@@__crt_stdio_output@@AEAA_NXZ@PEAU1?1??234@AEAA_NXZ@@?$positional_parameter_base@_WV?$string_output_adapter@_W@__crt_stdio_output@@@__crt_stdio_output@@IEAA_NAEAPEAUansi_string@?1??type_case_Z@?$output_processor@_WV?$string_output_adapter@_W@__crt_stdio_output@@V?$positional_parameter_base@_WV?$string_output_adapter@_W@__crt_stdio_output@@@2@@1@AEAA_NXZ@@Z 0000000180059a50 f i libucrtd:output.obj
 0001:00058c10       ??$extract_argument_from_va_list@PEAUansi_string@?1??type_case_Z@?$output_processor@_WV?$string_output_adapter@_W@__crt_stdio_output@@V?$positional_parameter_base@_WV?$string_output_adapter@_W@__crt_stdio_output@@@2@@__crt_stdio_output@@AEAA_NXZ@PEAU1?1??234@AEAA_NXZ@@?$standard_base@_WV?$string_output_adapter@_W@__crt_stdio_output@@@__crt_stdio_output@@IEAA_NAEAPEAUansi_string@?1??type_case_Z@?$output_processor@_WV?$string_output_adapter@_W@__crt_stdio_output@@V?$positional_parameter_base@_WV?$string_output_adapter@_W@__crt_stdio_output@@@2@@1@AEAA_NXZ@@Z 0000000180059c10 f i libucrtd:output.obj
 0001:00058c40       ??$extract_argument_from_va_list@PEAUansi_string@?1??type_case_Z@?$output_processor@_WV?$string_output_adapter@_W@__crt_stdio_output@@V?$standard_base@_WV?$string_output_adapter@_W@__crt_stdio_output@@@2@@__crt_stdio_output@@AEAA_NXZ@PEAU1?1??234@AEAA_NXZ@@?$standard_base@_WV?$string_output_adapter@_W@__crt_stdio_output@@@__crt_stdio_output@@IEAA_NAEAPEAUansi_string@?1??type_case_Z@?$output_processor@_WV?$string_output_adapter@_W@__crt_stdio_output@@V?$standard_base@_WV?$string_output_adapter@_W@__crt_stdio_output@@@2@@1@AEAA_NXZ@@Z 0000000180059c40 f i libucrtd:output.obj
 0001:00058c70       ??$extract_argument_from_va_list@PEAXPEAX@?$positional_parameter_base@DV?$stream_output_adapter@D@__crt_stdio_output@@@__crt_stdio_output@@IEAA_NAEAPEAX@Z 0000000180059c70 f i libucrtd:output.obj
 0001:00058e30       ??$extract_argument_from_va_list@PEAXPEAX@?$positional_parameter_base@DV?$string_output_adapter@D@__crt_stdio_output@@@__crt_stdio_output@@IEAA_NAEAPEAX@Z 0000000180059e30 f i libucrtd:output.obj
 0001:00058ff0       ??$extract_argument_from_va_list@PEAXPEAX@?$positional_parameter_base@_WV?$stream_output_adapter@_W@__crt_stdio_output@@@__crt_stdio_output@@IEAA_NAEAPEAX@Z 0000000180059ff0 f i libucrtd:output.obj
 0001:000591b0       ??$extract_argument_from_va_list@PEAXPEAX@?$positional_parameter_base@_WV?$string_output_adapter@_W@__crt_stdio_output@@@__crt_stdio_output@@IEAA_NAEAPEAX@Z 000000018005a1b0 f i libucrtd:output.obj
 0001:00059370       ??$extract_argument_from_va_list@PEAXPEAX@?$standard_base@DV?$stream_output_adapter@D@__crt_stdio_output@@@__crt_stdio_output@@IEAA_NAEAPEAX@Z 000000018005a370 f i libucrtd:output.obj
 0001:000593a0       ??$extract_argument_from_va_list@PEAXPEAX@?$standard_base@DV?$string_output_adapter@D@__crt_stdio_output@@@__crt_stdio_output@@IEAA_NAEAPEAX@Z 000000018005a3a0 f i libucrtd:output.obj
 0001:000593d0       ??$extract_argument_from_va_list@PEAXPEAX@?$standard_base@_WV?$stream_output_adapter@_W@__crt_stdio_output@@@__crt_stdio_output@@IEAA_NAEAPEAX@Z 000000018005a3d0 f i libucrtd:output.obj
 0001:00059400       ??$extract_argument_from_va_list@PEAXPEAX@?$standard_base@_WV?$string_output_adapter@_W@__crt_stdio_output@@@__crt_stdio_output@@IEAA_NAEAPEAX@Z 000000018005a400 f i libucrtd:output.obj
 0001:00059430       ??$extract_argument_from_va_list@U_CRT_DOUBLE@@U1@@?$positional_parameter_base@DV?$stream_output_adapter@D@__crt_stdio_output@@@__crt_stdio_output@@IEAA_NAEAU_CRT_DOUBLE@@@Z 000000018005a430 f i libucrtd:output.obj
 0001:00059650       ??$extract_argument_from_va_list@U_CRT_DOUBLE@@U1@@?$positional_parameter_base@DV?$string_output_adapter@D@__crt_stdio_output@@@__crt_stdio_output@@IEAA_NAEAU_CRT_DOUBLE@@@Z 000000018005a650 f i libucrtd:output.obj
 0001:00059870       ??$extract_argument_from_va_list@U_CRT_DOUBLE@@U1@@?$positional_parameter_base@_WV?$stream_output_adapter@_W@__crt_stdio_output@@@__crt_stdio_output@@IEAA_NAEAU_CRT_DOUBLE@@@Z 000000018005a870 f i libucrtd:output.obj
 0001:00059a90       ??$extract_argument_from_va_list@U_CRT_DOUBLE@@U1@@?$positional_parameter_base@_WV?$string_output_adapter@_W@__crt_stdio_output@@@__crt_stdio_output@@IEAA_NAEAU_CRT_DOUBLE@@@Z 000000018005aa90 f i libucrtd:output.obj
 0001:00059cb0       ??$extract_argument_from_va_list@U_CRT_DOUBLE@@U1@@?$standard_base@DV?$stream_output_adapter@D@__crt_stdio_output@@@__crt_stdio_output@@IEAA_NAEAU_CRT_DOUBLE@@@Z 000000018005acb0 f i libucrtd:output.obj
 0001:00059d00       ??$extract_argument_from_va_list@U_CRT_DOUBLE@@U1@@?$standard_base@DV?$string_output_adapter@D@__crt_stdio_output@@@__crt_stdio_output@@IEAA_NAEAU_CRT_DOUBLE@@@Z 000000018005ad00 f i libucrtd:output.obj
 0001:00059d50       ??$extract_argument_from_va_list@U_CRT_DOUBLE@@U1@@?$standard_base@_WV?$stream_output_adapter@_W@__crt_stdio_output@@@__crt_stdio_output@@IEAA_NAEAU_CRT_DOUBLE@@@Z 000000018005ad50 f i libucrtd:output.obj
 0001:00059da0       ??$extract_argument_from_va_list@U_CRT_DOUBLE@@U1@@?$standard_base@_WV?$string_output_adapter@_W@__crt_stdio_output@@@__crt_stdio_output@@IEAA_NAEAU_CRT_DOUBLE@@@Z 000000018005ada0 f i libucrtd:output.obj
 0001:00059df0       ??$extract_argument_from_va_list@_J_J@?$positional_parameter_base@DV?$stream_output_adapter@D@__crt_stdio_output@@@__crt_stdio_output@@IEAA_NAEA_J@Z 000000018005adf0 f i libucrtd:output.obj
 0001:00059fb0       ??$extract_argument_from_va_list@_J_J@?$positional_parameter_base@DV?$string_output_adapter@D@__crt_stdio_output@@@__crt_stdio_output@@IEAA_NAEA_J@Z 000000018005afb0 f i libucrtd:output.obj
 0001:0005a170       ??$extract_argument_from_va_list@_J_J@?$positional_parameter_base@_WV?$stream_output_adapter@_W@__crt_stdio_output@@@__crt_stdio_output@@IEAA_NAEA_J@Z 000000018005b170 f i libucrtd:output.obj
 0001:0005a330       ??$extract_argument_from_va_list@_J_J@?$positional_parameter_base@_WV?$string_output_adapter@_W@__crt_stdio_output@@@__crt_stdio_output@@IEAA_NAEA_J@Z 000000018005b330 f i libucrtd:output.obj
 0001:0005a4f0       ??$extract_argument_from_va_list@_J_J@?$standard_base@DV?$stream_output_adapter@D@__crt_stdio_output@@@__crt_stdio_output@@IEAA_NAEA_J@Z 000000018005b4f0 f i libucrtd:output.obj
 0001:0005a520       ??$extract_argument_from_va_list@_J_J@?$standard_base@DV?$string_output_adapter@D@__crt_stdio_output@@@__crt_stdio_output@@IEAA_NAEA_J@Z 000000018005b520 f i libucrtd:output.obj
 0001:0005a550       ??$extract_argument_from_va_list@_J_J@?$standard_base@_WV?$stream_output_adapter@_W@__crt_stdio_output@@@__crt_stdio_output@@IEAA_NAEA_J@Z 000000018005b550 f i libucrtd:output.obj
 0001:0005a580       ??$extract_argument_from_va_list@_J_J@?$standard_base@_WV?$string_output_adapter@_W@__crt_stdio_output@@@__crt_stdio_output@@IEAA_NAEA_J@Z 000000018005b580 f i libucrtd:output.obj
 0001:0005a5b0       ??$extract_argument_from_va_list@_K_J@?$positional_parameter_base@DV?$stream_output_adapter@D@__crt_stdio_output@@@__crt_stdio_output@@IEAA_NAEA_J@Z 000000018005b5b0 f i libucrtd:output.obj
 0001:0005a770       ??$extract_argument_from_va_list@_K_J@?$positional_parameter_base@DV?$string_output_adapter@D@__crt_stdio_output@@@__crt_stdio_output@@IEAA_NAEA_J@Z 000000018005b770 f i libucrtd:output.obj
 0001:0005a930       ??$extract_argument_from_va_list@_K_J@?$positional_parameter_base@_WV?$stream_output_adapter@_W@__crt_stdio_output@@@__crt_stdio_output@@IEAA_NAEA_J@Z 000000018005b930 f i libucrtd:output.obj
 0001:0005aaf0       ??$extract_argument_from_va_list@_K_J@?$positional_parameter_base@_WV?$string_output_adapter@_W@__crt_stdio_output@@@__crt_stdio_output@@IEAA_NAEA_J@Z 000000018005baf0 f i libucrtd:output.obj
 0001:0005acb0       ??$extract_argument_from_va_list@_K_J@?$standard_base@DV?$stream_output_adapter@D@__crt_stdio_output@@@__crt_stdio_output@@IEAA_NAEA_J@Z 000000018005bcb0 f i libucrtd:output.obj
 0001:0005ace0       ??$extract_argument_from_va_list@_K_J@?$standard_base@DV?$string_output_adapter@D@__crt_stdio_output@@@__crt_stdio_output@@IEAA_NAEA_J@Z 000000018005bce0 f i libucrtd:output.obj
 0001:0005ad10       ??$extract_argument_from_va_list@_K_J@?$standard_base@_WV?$stream_output_adapter@_W@__crt_stdio_output@@@__crt_stdio_output@@IEAA_NAEA_J@Z 000000018005bd10 f i libucrtd:output.obj
 0001:0005ad40       ??$extract_argument_from_va_list@_K_J@?$standard_base@_WV?$string_output_adapter@_W@__crt_stdio_output@@@__crt_stdio_output@@IEAA_NAEA_J@Z 000000018005bd40 f i libucrtd:output.obj
 0001:0005ad70       ??$extract_argument_from_va_list@_W_W@?$positional_parameter_base@DV?$stream_output_adapter@D@__crt_stdio_output@@@__crt_stdio_output@@IEAA_NAEA_W@Z 000000018005bd70 f i libucrtd:output.obj
 0001:0005af30       ??$extract_argument_from_va_list@_W_W@?$positional_parameter_base@DV?$string_output_adapter@D@__crt_stdio_output@@@__crt_stdio_output@@IEAA_NAEA_W@Z 000000018005bf30 f i libucrtd:output.obj
 0001:0005b0f0       ??$extract_argument_from_va_list@_W_W@?$positional_parameter_base@_WV?$stream_output_adapter@_W@__crt_stdio_output@@@__crt_stdio_output@@IEAA_NAEA_W@Z 000000018005c0f0 f i libucrtd:output.obj
 0001:0005b2b0       ??$extract_argument_from_va_list@_W_W@?$positional_parameter_base@_WV?$string_output_adapter@_W@__crt_stdio_output@@@__crt_stdio_output@@IEAA_NAEA_W@Z 000000018005c2b0 f i libucrtd:output.obj
 0001:0005b470       ??$extract_argument_from_va_list@_W_W@?$standard_base@DV?$stream_output_adapter@D@__crt_stdio_output@@@__crt_stdio_output@@IEAA_NAEA_W@Z 000000018005c470 f i libucrtd:output.obj
 0001:0005b4a0       ??$extract_argument_from_va_list@_W_W@?$standard_base@DV?$string_output_adapter@D@__crt_stdio_output@@@__crt_stdio_output@@IEAA_NAEA_W@Z 000000018005c4a0 f i libucrtd:output.obj
 0001:0005b4d0       ??$extract_argument_from_va_list@_W_W@?$standard_base@_WV?$stream_output_adapter@_W@__crt_stdio_output@@@__crt_stdio_output@@IEAA_NAEA_W@Z 000000018005c4d0 f i libucrtd:output.obj
 0001:0005b500       ??$extract_argument_from_va_list@_W_W@?$standard_base@_WV?$string_output_adapter@_W@__crt_stdio_output@@@__crt_stdio_output@@IEAA_NAEA_W@Z 000000018005c500 f i libucrtd:output.obj
 0001:0005b530       ??$get_parameter_type@D@?$positional_parameter_base@DV?$stream_output_adapter@D@__crt_stdio_output@@@__crt_stdio_output@@CA?AW4parameter_type@01@PEAD@Z 000000018005c530 f i libucrtd:output.obj
 0001:0005b540       ??$get_parameter_type@D@?$positional_parameter_base@DV?$string_output_adapter@D@__crt_stdio_output@@@__crt_stdio_output@@CA?AW4parameter_type@01@PEAD@Z 000000018005c540 f i libucrtd:output.obj
 0001:0005b550       ??$get_parameter_type@D@?$positional_parameter_base@_WV?$stream_output_adapter@_W@__crt_stdio_output@@@__crt_stdio_output@@CA?AW4parameter_type@01@PEAD@Z 000000018005c550 f i libucrtd:output.obj
 0001:0005b560       ??$get_parameter_type@D@?$positional_parameter_base@_WV?$string_output_adapter@_W@__crt_stdio_output@@@__crt_stdio_output@@CA?AW4parameter_type@01@PEAD@Z 000000018005c560 f i libucrtd:output.obj
 0001:0005b570       ??$get_parameter_type@Uansi_string@?1??type_case_Z@?$output_processor@DV?$stream_output_adapter@D@__crt_stdio_output@@V?$positional_parameter_base@DV?$stream_output_adapter@D@__crt_stdio_output@@@2@@__crt_stdio_output@@AEAA_NXZ@@?$positional_parameter_base@DV?$stream_output_adapter@D@__crt_stdio_output@@@__crt_stdio_output@@CA?AW4parameter_type@01@PEAUansi_string@?1??type_case_Z@?$output_processor@DV?$stream_output_adapter@D@__crt_stdio_output@@V?$positional_parameter_base@DV?$stream_output_adapter@D@__crt_stdio_output@@@2@@1@AEAA_NXZ@@Z 000000018005c570 f i libucrtd:output.obj
 0001:0005b580       ??$get_parameter_type@Uansi_string@?1??type_case_Z@?$output_processor@DV?$string_output_adapter@D@__crt_stdio_output@@V?$positional_parameter_base@DV?$string_output_adapter@D@__crt_stdio_output@@@2@@__crt_stdio_output@@AEAA_NXZ@@?$positional_parameter_base@DV?$string_output_adapter@D@__crt_stdio_output@@@__crt_stdio_output@@CA?AW4parameter_type@01@PEAUansi_string@?1??type_case_Z@?$output_processor@DV?$string_output_adapter@D@__crt_stdio_output@@V?$positional_parameter_base@DV?$string_output_adapter@D@__crt_stdio_output@@@2@@1@AEAA_NXZ@@Z 000000018005c580 f i libucrtd:output.obj
 0001:0005b590       ??$get_parameter_type@Uansi_string@?1??type_case_Z@?$output_processor@_WV?$stream_output_adapter@_W@__crt_stdio_output@@V?$positional_parameter_base@_WV?$stream_output_adapter@_W@__crt_stdio_output@@@2@@__crt_stdio_output@@AEAA_NXZ@@?$positional_parameter_base@_WV?$stream_output_adapter@_W@__crt_stdio_output@@@__crt_stdio_output@@CA?AW4parameter_type@01@PEAUansi_string@?1??type_case_Z@?$output_processor@_WV?$stream_output_adapter@_W@__crt_stdio_output@@V?$positional_parameter_base@_WV?$stream_output_adapter@_W@__crt_stdio_output@@@2@@1@AEAA_NXZ@@Z 000000018005c590 f i libucrtd:output.obj
 0001:0005b5a0       ??$get_parameter_type@Uansi_string@?1??type_case_Z@?$output_processor@_WV?$string_output_adapter@_W@__crt_stdio_output@@V?$positional_parameter_base@_WV?$string_output_adapter@_W@__crt_stdio_output@@@2@@__crt_stdio_output@@AEAA_NXZ@@?$positional_parameter_base@_WV?$string_output_adapter@_W@__crt_stdio_output@@@__crt_stdio_output@@CA?AW4parameter_type@01@PEAUansi_string@?1??type_case_Z@?$output_processor@_WV?$string_output_adapter@_W@__crt_stdio_output@@V?$positional_parameter_base@_WV?$string_output_adapter@_W@__crt_stdio_output@@@2@@1@AEAA_NXZ@@Z 000000018005c5a0 f i libucrtd:output.obj
 0001:0005b5b0       ??$get_parameter_type@X@?$positional_parameter_base@DV?$stream_output_adapter@D@__crt_stdio_output@@@__crt_stdio_output@@CA?AW4parameter_type@01@PEAX@Z 000000018005c5b0 f i libucrtd:output.obj
 0001:0005b5c0       ??$get_parameter_type@X@?$positional_parameter_base@DV?$string_output_adapter@D@__crt_stdio_output@@@__crt_stdio_output@@CA?AW4parameter_type@01@PEAX@Z 000000018005c5c0 f i libucrtd:output.obj
 0001:0005b5d0       ??$get_parameter_type@X@?$positional_parameter_base@_WV?$stream_output_adapter@_W@__crt_stdio_output@@@__crt_stdio_output@@CA?AW4parameter_type@01@PEAX@Z 000000018005c5d0 f i libucrtd:output.obj
 0001:0005b5e0       ??$get_parameter_type@X@?$positional_parameter_base@_WV?$string_output_adapter@_W@__crt_stdio_output@@@__crt_stdio_output@@CA?AW4parameter_type@01@PEAX@Z 000000018005c5e0 f i libucrtd:output.obj
 0001:0005b5f0       ??$is_character_specifier@D@?$positional_parameter_base@DV?$stream_output_adapter@D@__crt_stdio_output@@@__crt_stdio_output@@CA_ND@Z 000000018005c5f0 f i libucrtd:output.obj
 0001:0005b630       ??$is_character_specifier@D@?$positional_parameter_base@DV?$string_output_adapter@D@__crt_stdio_output@@@__crt_stdio_output@@CA_ND@Z 000000018005c630 f i libucrtd:output.obj
 0001:0005b670       ??$is_character_specifier@_W@?$positional_parameter_base@_WV?$stream_output_adapter@_W@__crt_stdio_output@@@__crt_stdio_output@@CA_N_W@Z 000000018005c670 f i libucrtd:output.obj
 0001:0005b6b0       ??$is_character_specifier@_W@?$positional_parameter_base@_WV?$string_output_adapter@_W@__crt_stdio_output@@@__crt_stdio_output@@CA_N_W@Z 000000018005c6b0 f i libucrtd:output.obj
 0001:0005b6f0       ??$is_integral_specifier@D@?$positional_parameter_base@DV?$stream_output_adapter@D@__crt_stdio_output@@@__crt_stdio_output@@CA_ND@Z 000000018005c6f0 f i libucrtd:output.obj
 0001:0005b760       ??$is_integral_specifier@D@?$positional_parameter_base@DV?$string_output_adapter@D@__crt_stdio_output@@@__crt_stdio_output@@CA_ND@Z 000000018005c760 f i libucrtd:output.obj
 0001:0005b7d0       ??$is_integral_specifier@_W@?$positional_parameter_base@_WV?$stream_output_adapter@_W@__crt_stdio_output@@@__crt_stdio_output@@CA_N_W@Z 000000018005c7d0 f i libucrtd:output.obj
 0001:0005b840       ??$is_integral_specifier@_W@?$positional_parameter_base@_WV?$string_output_adapter@_W@__crt_stdio_output@@@__crt_stdio_output@@CA_N_W@Z 000000018005c840 f i libucrtd:output.obj
 0001:0005b8b0       ??$is_overflow_condition@K@__crt_strtox@@YA_NIK@Z 000000018005c8b0 f i libucrtd:output.obj
 0001:0005b920       ??$is_pointer_specifier@D@?$positional_parameter_base@DV?$stream_output_adapter@D@__crt_stdio_output@@@__crt_stdio_output@@CA_ND@Z 000000018005c920 f i libucrtd:output.obj
 0001:0005b950       ??$is_pointer_specifier@D@?$positional_parameter_base@DV?$string_output_adapter@D@__crt_stdio_output@@@__crt_stdio_output@@CA_ND@Z 000000018005c950 f i libucrtd:output.obj
 0001:0005b980       ??$is_pointer_specifier@_W@?$positional_parameter_base@_WV?$stream_output_adapter@_W@__crt_stdio_output@@@__crt_stdio_output@@CA_N_W@Z 000000018005c980 f i libucrtd:output.obj
 0001:0005b9b0       ??$is_pointer_specifier@_W@?$positional_parameter_base@_WV?$string_output_adapter@_W@__crt_stdio_output@@@__crt_stdio_output@@CA_N_W@Z 000000018005c9b0 f i libucrtd:output.obj
 0001:0005b9e0       ??$is_string_specifier@D@?$positional_parameter_base@DV?$stream_output_adapter@D@__crt_stdio_output@@@__crt_stdio_output@@CA_ND@Z 000000018005c9e0 f i libucrtd:output.obj
 0001:0005ba20       ??$is_string_specifier@D@?$positional_parameter_base@DV?$string_output_adapter@D@__crt_stdio_output@@@__crt_stdio_output@@CA_ND@Z 000000018005ca20 f i libucrtd:output.obj
 0001:0005ba60       ??$is_string_specifier@_W@?$positional_parameter_base@_WV?$stream_output_adapter@_W@__crt_stdio_output@@@__crt_stdio_output@@CA_N_W@Z 000000018005ca60 f i libucrtd:output.obj
 0001:0005baa0       ??$is_string_specifier@_W@?$positional_parameter_base@_WV?$string_output_adapter@_W@__crt_stdio_output@@@__crt_stdio_output@@CA_N_W@Z 000000018005caa0 f i libucrtd:output.obj
 0001:0005bae0       ??$is_wide_character_specifier@D@__crt_stdio_output@@YA_N_KDW4length_modifier@0@@Z 000000018005cae0 f i libucrtd:output.obj
 0001:0005bb80       ??$is_wide_character_specifier@_W@__crt_stdio_output@@YA_N_K_WW4length_modifier@0@@Z 000000018005cb80 f i libucrtd:output.obj
 0001:0005bc50       ??$make_c_string_character_source@DPEAPEAD@__crt_strtox@@YA?AV?$c_string_character_source@D@0@QEBDQEAPEAD@Z 000000018005cc50 f i libucrtd:output.obj
 0001:0005bc90       ??$make_c_string_character_source@_WPEAPEA_W@__crt_strtox@@YA?AV?$c_string_character_source@_W@0@QEB_WQEAPEA_W@Z 000000018005cc90 f i libucrtd:output.obj
 0001:0005bcd0       ??$parse_integer@KV?$c_string_character_source@D@__crt_strtox@@$0A@@__crt_strtox@@YAKAEAV__crt_cached_ptd_host@@V?$c_string_character_source@D@0@H_N@Z 000000018005ccd0 f i libucrtd:output.obj
 0001:0005c150       ??$parse_integer@KV?$c_string_character_source@_W@__crt_strtox@@$0A@@__crt_strtox@@YAKAEAV__crt_cached_ptd_host@@V?$c_string_character_source@_W@0@H_N@Z 000000018005d150 f i libucrtd:output.obj
 0001:0005c5d0       ??$peek_va_arg@C@__crt_stdio_output@@YACPEAD@Z 000000018005d5d0 f i libucrtd:output.obj
 0001:0005c630       ??$peek_va_arg@E@__crt_stdio_output@@YAEPEAD@Z 000000018005d630 f i libucrtd:output.obj
 0001:0005c690       ??$peek_va_arg@F@__crt_stdio_output@@YAFPEAD@Z 000000018005d690 f i libucrtd:output.obj
 0001:0005c6f0       ??$peek_va_arg@G@__crt_stdio_output@@YAGPEAD@Z 000000018005d6f0 f i libucrtd:output.obj
 0001:0005c750       ??$peek_va_arg@H@__crt_stdio_output@@YAHPEAD@Z 000000018005d750 f i libucrtd:output.obj
 0001:0005c7a0       ??$peek_va_arg@I@__crt_stdio_output@@YAIPEAD@Z 000000018005d7a0 f i libucrtd:output.obj
 0001:0005c7f0       ??$peek_va_arg@PEAD@__crt_stdio_output@@YAPEADPEAD@Z 000000018005d7f0 f i libucrtd:output.obj
 0001:0005c850       ??$peek_va_arg@PEAUansi_string@?1??type_case_Z@?$output_processor@DV?$stream_output_adapter@D@__crt_stdio_output@@V?$positional_parameter_base@DV?$stream_output_adapter@D@__crt_stdio_output@@@2@@__crt_stdio_output@@AEAA_NXZ@@__crt_stdio_output@@YAPEAUansi_string@?1??type_case_Z@?$output_processor@DV?$stream_output_adapter@D@__crt_stdio_output@@V?$positional_parameter_base@DV?$stream_output_adapter@D@__crt_stdio_output@@@2@@0@AEAA_NXZ@PEAD@Z 000000018005d850 f i libucrtd:output.obj
 0001:0005c8b0       ??$peek_va_arg@PEAUansi_string@?1??type_case_Z@?$output_processor@DV?$string_output_adapter@D@__crt_stdio_output@@V?$positional_parameter_base@DV?$string_output_adapter@D@__crt_stdio_output@@@2@@__crt_stdio_output@@AEAA_NXZ@@__crt_stdio_output@@YAPEAUansi_string@?1??type_case_Z@?$output_processor@DV?$string_output_adapter@D@__crt_stdio_output@@V?$positional_parameter_base@DV?$string_output_adapter@D@__crt_stdio_output@@@2@@0@AEAA_NXZ@PEAD@Z 000000018005d8b0 f i libucrtd:output.obj
 0001:0005c910       ??$peek_va_arg@PEAUansi_string@?1??type_case_Z@?$output_processor@_WV?$stream_output_adapter@_W@__crt_stdio_output@@V?$positional_parameter_base@_WV?$stream_output_adapter@_W@__crt_stdio_output@@@2@@__crt_stdio_output@@AEAA_NXZ@@__crt_stdio_output@@YAPEAUansi_string@?1??type_case_Z@?$output_processor@_WV?$stream_output_adapter@_W@__crt_stdio_output@@V?$positional_parameter_base@_WV?$stream_output_adapter@_W@__crt_stdio_output@@@2@@0@AEAA_NXZ@PEAD@Z 000000018005d910 f i libucrtd:output.obj
 0001:0005c970       ??$peek_va_arg@PEAUansi_string@?1??type_case_Z@?$output_processor@_WV?$string_output_adapter@_W@__crt_stdio_output@@V?$positional_parameter_base@_WV?$string_output_adapter@_W@__crt_stdio_output@@@2@@__crt_stdio_output@@AEAA_NXZ@@__crt_stdio_output@@YAPEAUansi_string@?1??type_case_Z@?$output_processor@_WV?$string_output_adapter@_W@__crt_stdio_output@@V?$positional_parameter_base@_WV?$string_output_adapter@_W@__crt_stdio_output@@@2@@0@AEAA_NXZ@PEAD@Z 000000018005d970 f i libucrtd:output.obj
 0001:0005c9d0       ??$peek_va_arg@PEAX@__crt_stdio_output@@YAPEAXPEAD@Z 000000018005d9d0 f i libucrtd:output.obj
 0001:0005ca30       ??$peek_va_arg@U_CRT_DOUBLE@@@__crt_stdio_output@@YA?AU_CRT_DOUBLE@@PEAD@Z 000000018005da30 f i libucrtd:output.obj
 0001:0005ca90       ??$peek_va_arg@_J@__crt_stdio_output@@YA_JPEAD@Z 000000018005da90 f i libucrtd:output.obj
 0001:0005caf0       ??$peek_va_arg@_K@__crt_stdio_output@@YA_KPEAD@Z 000000018005daf0 f i libucrtd:output.obj
 0001:0005cb50       ??$peek_va_arg@_W@__crt_stdio_output@@YA_WPEAD@Z 000000018005db50 f i libucrtd:output.obj
 0001:0005cbb0       ??$puttc_nolock_internal@AEBDPEAU_iobuf@@AEAV__crt_cached_ptd_host@@@?$__crt_char_traits@D@@SAHAEBD$$QEAPEAU_iobuf@@AEAV__crt_cached_ptd_host@@@Z 000000018005dbb0 f i libucrtd:output.obj
 0001:0005cbf0       ??$puttc_nolock_internal@AEB_WPEAU_iobuf@@AEAV__crt_cached_ptd_host@@@?$__crt_char_traits@_W@@SAGAEB_W$$QEAPEAU_iobuf@@AEAV__crt_cached_ptd_host@@@Z 000000018005dbf0 f i libucrtd:output.obj
 0001:0005cc30       ??$read_va_arg@C@__crt_stdio_output@@YACAEAPEAD@Z 000000018005dc30 f i libucrtd:output.obj
 0001:0005cca0       ??$read_va_arg@E@__crt_stdio_output@@YAEAEAPEAD@Z 000000018005dca0 f i libucrtd:output.obj
 0001:0005cd10       ??$read_va_arg@F@__crt_stdio_output@@YAFAEAPEAD@Z 000000018005dd10 f i libucrtd:output.obj
 0001:0005cd80       ??$read_va_arg@G@__crt_stdio_output@@YAGAEAPEAD@Z 000000018005dd80 f i libucrtd:output.obj
 0001:0005cdf0       ??$read_va_arg@H@__crt_stdio_output@@YAHAEAPEAD@Z 000000018005ddf0 f i libucrtd:output.obj
 0001:0005ce50       ??$read_va_arg@I@__crt_stdio_output@@YAIAEAPEAD@Z 000000018005de50 f i libucrtd:output.obj
 0001:0005ceb0       ??$read_va_arg@PEAD@__crt_stdio_output@@YAPEADAEAPEAD@Z 000000018005deb0 f i libucrtd:output.obj
 0001:0005cf20       ??$read_va_arg@PEAUansi_string@?1??type_case_Z@?$output_processor@DV?$stream_output_adapter@D@__crt_stdio_output@@V?$format_validation_base@DV?$stream_output_adapter@D@__crt_stdio_output@@@2@@__crt_stdio_output@@AEAA_NXZ@@__crt_stdio_output@@YAPEAUansi_string@?1??type_case_Z@?$output_processor@DV?$stream_output_adapter@D@__crt_stdio_output@@V?$format_validation_base@DV?$stream_output_adapter@D@__crt_stdio_output@@@2@@0@AEAA_NXZ@AEAPEAD@Z 000000018005df20 f i libucrtd:output.obj
 0001:0005cf90       ??$read_va_arg@PEAUansi_string@?1??type_case_Z@?$output_processor@DV?$stream_output_adapter@D@__crt_stdio_output@@V?$positional_parameter_base@DV?$stream_output_adapter@D@__crt_stdio_output@@@2@@__crt_stdio_output@@AEAA_NXZ@@__crt_stdio_output@@YAPEAUansi_string@?1??type_case_Z@?$output_processor@DV?$stream_output_adapter@D@__crt_stdio_output@@V?$positional_parameter_base@DV?$stream_output_adapter@D@__crt_stdio_output@@@2@@0@AEAA_NXZ@AEAPEAD@Z 000000018005df90 f i libucrtd:output.obj
 0001:0005d000       ??$read_va_arg@PEAUansi_string@?1??type_case_Z@?$output_processor@DV?$stream_output_adapter@D@__crt_stdio_output@@V?$standard_base@DV?$stream_output_adapter@D@__crt_stdio_output@@@2@@__crt_stdio_output@@AEAA_NXZ@@__crt_stdio_output@@YAPEAUansi_string@?1??type_case_Z@?$output_processor@DV?$stream_output_adapter@D@__crt_stdio_output@@V?$standard_base@DV?$stream_output_adapter@D@__crt_stdio_output@@@2@@0@AEAA_NXZ@AEAPEAD@Z 000000018005e000 f i libucrtd:output.obj
 0001:0005d070       ??$read_va_arg@PEAUansi_string@?1??type_case_Z@?$output_processor@DV?$string_output_adapter@D@__crt_stdio_output@@V?$format_validation_base@DV?$string_output_adapter@D@__crt_stdio_output@@@2@@__crt_stdio_output@@AEAA_NXZ@@__crt_stdio_output@@YAPEAUansi_string@?1??type_case_Z@?$output_processor@DV?$string_output_adapter@D@__crt_stdio_output@@V?$format_validation_base@DV?$string_output_adapter@D@__crt_stdio_output@@@2@@0@AEAA_NXZ@AEAPEAD@Z 000000018005e070 f i libucrtd:output.obj
 0001:0005d0e0       ??$read_va_arg@PEAUansi_string@?1??type_case_Z@?$output_processor@DV?$string_output_adapter@D@__crt_stdio_output@@V?$positional_parameter_base@DV?$string_output_adapter@D@__crt_stdio_output@@@2@@__crt_stdio_output@@AEAA_NXZ@@__crt_stdio_output@@YAPEAUansi_string@?1??type_case_Z@?$output_processor@DV?$string_output_adapter@D@__crt_stdio_output@@V?$positional_parameter_base@DV?$string_output_adapter@D@__crt_stdio_output@@@2@@0@AEAA_NXZ@AEAPEAD@Z 000000018005e0e0 f i libucrtd:output.obj
 0001:0005d150       ??$read_va_arg@PEAUansi_string@?1??type_case_Z@?$output_processor@DV?$string_output_adapter@D@__crt_stdio_output@@V?$standard_base@DV?$string_output_adapter@D@__crt_stdio_output@@@2@@__crt_stdio_output@@AEAA_NXZ@@__crt_stdio_output@@YAPEAUansi_string@?1??type_case_Z@?$output_processor@DV?$string_output_adapter@D@__crt_stdio_output@@V?$standard_base@DV?$string_output_adapter@D@__crt_stdio_output@@@2@@0@AEAA_NXZ@AEAPEAD@Z 000000018005e150 f i libucrtd:output.obj
 0001:0005d1c0       ??$read_va_arg@PEAUansi_string@?1??type_case_Z@?$output_processor@_WV?$stream_output_adapter@_W@__crt_stdio_output@@V?$format_validation_base@_WV?$stream_output_adapter@_W@__crt_stdio_output@@@2@@__crt_stdio_output@@AEAA_NXZ@@__crt_stdio_output@@YAPEAUansi_string@?1??type_case_Z@?$output_processor@_WV?$stream_output_adapter@_W@__crt_stdio_output@@V?$format_validation_base@_WV?$stream_output_adapter@_W@__crt_stdio_output@@@2@@0@AEAA_NXZ@AEAPEAD@Z 000000018005e1c0 f i libucrtd:output.obj
 0001:0005d230       ??$read_va_arg@PEAUansi_string@?1??type_case_Z@?$output_processor@_WV?$stream_output_adapter@_W@__crt_stdio_output@@V?$positional_parameter_base@_WV?$stream_output_adapter@_W@__crt_stdio_output@@@2@@__crt_stdio_output@@AEAA_NXZ@@__crt_stdio_output@@YAPEAUansi_string@?1??type_case_Z@?$output_processor@_WV?$stream_output_adapter@_W@__crt_stdio_output@@V?$positional_parameter_base@_WV?$stream_output_adapter@_W@__crt_stdio_output@@@2@@0@AEAA_NXZ@AEAPEAD@Z 000000018005e230 f i libucrtd:output.obj
 0001:0005d2a0       ??$read_va_arg@PEAUansi_string@?1??type_case_Z@?$output_processor@_WV?$stream_output_adapter@_W@__crt_stdio_output@@V?$standard_base@_WV?$stream_output_adapter@_W@__crt_stdio_output@@@2@@__crt_stdio_output@@AEAA_NXZ@@__crt_stdio_output@@YAPEAUansi_string@?1??type_case_Z@?$output_processor@_WV?$stream_output_adapter@_W@__crt_stdio_output@@V?$standard_base@_WV?$stream_output_adapter@_W@__crt_stdio_output@@@2@@0@AEAA_NXZ@AEAPEAD@Z 000000018005e2a0 f i libucrtd:output.obj
 0001:0005d310       ??$read_va_arg@PEAUansi_string@?1??type_case_Z@?$output_processor@_WV?$string_output_adapter@_W@__crt_stdio_output@@V?$format_validation_base@_WV?$string_output_adapter@_W@__crt_stdio_output@@@2@@__crt_stdio_output@@AEAA_NXZ@@__crt_stdio_output@@YAPEAUansi_string@?1??type_case_Z@?$output_processor@_WV?$string_output_adapter@_W@__crt_stdio_output@@V?$format_validation_base@_WV?$string_output_adapter@_W@__crt_stdio_output@@@2@@0@AEAA_NXZ@AEAPEAD@Z 000000018005e310 f i libucrtd:output.obj
 0001:0005d380       ??$read_va_arg@PEAUansi_string@?1??type_case_Z@?$output_processor@_WV?$string_output_adapter@_W@__crt_stdio_output@@V?$positional_parameter_base@_WV?$string_output_adapter@_W@__crt_stdio_output@@@2@@__crt_stdio_output@@AEAA_NXZ@@__crt_stdio_output@@YAPEAUansi_string@?1??type_case_Z@?$output_processor@_WV?$string_output_adapter@_W@__crt_stdio_output@@V?$positional_parameter_base@_WV?$string_output_adapter@_W@__crt_stdio_output@@@2@@0@AEAA_NXZ@AEAPEAD@Z 000000018005e380 f i libucrtd:output.obj
 0001:0005d3f0       ??$read_va_arg@PEAUansi_string@?1??type_case_Z@?$output_processor@_WV?$string_output_adapter@_W@__crt_stdio_output@@V?$standard_base@_WV?$string_output_adapter@_W@__crt_stdio_output@@@2@@__crt_stdio_output@@AEAA_NXZ@@__crt_stdio_output@@YAPEAUansi_string@?1??type_case_Z@?$output_processor@_WV?$string_output_adapter@_W@__crt_stdio_output@@V?$standard_base@_WV?$string_output_adapter@_W@__crt_stdio_output@@@2@@0@AEAA_NXZ@AEAPEAD@Z 000000018005e3f0 f i libucrtd:output.obj
 0001:0005d460       ??$read_va_arg@PEAX@__crt_stdio_output@@YAPEAXAEAPEAD@Z 000000018005e460 f i libucrtd:output.obj
 0001:0005d4d0       ??$read_va_arg@U_CRT_DOUBLE@@@__crt_stdio_output@@YA?AU_CRT_DOUBLE@@AEAPEAD@Z 000000018005e4d0 f i libucrtd:output.obj
 0001:0005d540       ??$read_va_arg@_J@__crt_stdio_output@@YA_JAEAPEAD@Z 000000018005e540 f i libucrtd:output.obj
 0001:0005d5b0       ??$read_va_arg@_K@__crt_stdio_output@@YA_KAEAPEAD@Z 000000018005e5b0 f i libucrtd:output.obj
 0001:0005d620       ??$read_va_arg@_W@__crt_stdio_output@@YA_WAEAPEAD@Z 000000018005e620 f i libucrtd:output.obj
 0001:0005d690       ??$scratch_count@D@formatting_buffer@__crt_stdio_output@@QEBA_KXZ 000000018005e690 f i libucrtd:output.obj
 0001:0005d6b0       ??$scratch_data@D@formatting_buffer@__crt_stdio_output@@QEAAPEADXZ 000000018005e6b0 f i libucrtd:output.obj
 0001:0005d720       ??$type_case_integer@$07@?$output_processor@DV?$stream_output_adapter@D@__crt_stdio_output@@V?$format_validation_base@DV?$stream_output_adapter@D@__crt_stdio_output@@@2@@__crt_stdio_output@@AEAA_N_N@Z 000000018005e720 f i libucrtd:output.obj
 0001:0005dba0       ??$type_case_integer@$07@?$output_processor@DV?$stream_output_adapter@D@__crt_stdio_output@@V?$positional_parameter_base@DV?$stream_output_adapter@D@__crt_stdio_output@@@2@@__crt_stdio_output@@AEAA_N_N@Z 000000018005eba0 f i libucrtd:output.obj
 0001:0005e020       ??$type_case_integer@$07@?$output_processor@DV?$stream_output_adapter@D@__crt_stdio_output@@V?$standard_base@DV?$stream_output_adapter@D@__crt_stdio_output@@@2@@__crt_stdio_output@@AEAA_N_N@Z 000000018005f020 f i libucrtd:output.obj
 0001:0005e4a0       ??$type_case_integer@$07@?$output_processor@DV?$string_output_adapter@D@__crt_stdio_output@@V?$format_validation_base@DV?$string_output_adapter@D@__crt_stdio_output@@@2@@__crt_stdio_output@@AEAA_N_N@Z 000000018005f4a0 f i libucrtd:output.obj
 0001:0005e920       ??$type_case_integer@$07@?$output_processor@DV?$string_output_adapter@D@__crt_stdio_output@@V?$positional_parameter_base@DV?$string_output_adapter@D@__crt_stdio_output@@@2@@__crt_stdio_output@@AEAA_N_N@Z 000000018005f920 f i libucrtd:output.obj
 0001:0005eda0       ??$type_case_integer@$07@?$output_processor@DV?$string_output_adapter@D@__crt_stdio_output@@V?$standard_base@DV?$string_output_adapter@D@__crt_stdio_output@@@2@@__crt_stdio_output@@AEAA_N_N@Z 000000018005fda0 f i libucrtd:output.obj
 0001:0005f220       ??$type_case_integer@$07@?$output_processor@_WV?$stream_output_adapter@_W@__crt_stdio_output@@V?$format_validation_base@_WV?$stream_output_adapter@_W@__crt_stdio_output@@@2@@__crt_stdio_output@@AEAA_N_N@Z 0000000180060220 f i libucrtd:output.obj
 0001:0005f6a0       ??$type_case_integer@$07@?$output_processor@_WV?$stream_output_adapter@_W@__crt_stdio_output@@V?$positional_parameter_base@_WV?$stream_output_adapter@_W@__crt_stdio_output@@@2@@__crt_stdio_output@@AEAA_N_N@Z 00000001800606a0 f i libucrtd:output.obj
 0001:0005fb20       ??$type_case_integer@$07@?$output_processor@_WV?$stream_output_adapter@_W@__crt_stdio_output@@V?$standard_base@_WV?$stream_output_adapter@_W@__crt_stdio_output@@@2@@__crt_stdio_output@@AEAA_N_N@Z 0000000180060b20 f i libucrtd:output.obj
 0001:0005ffa0       ??$type_case_integer@$07@?$output_processor@_WV?$string_output_adapter@_W@__crt_stdio_output@@V?$format_validation_base@_WV?$string_output_adapter@_W@__crt_stdio_output@@@2@@__crt_stdio_output@@AEAA_N_N@Z 0000000180060fa0 f i libucrtd:output.obj
 0001:00060420       ??$type_case_integer@$07@?$output_processor@_WV?$string_output_adapter@_W@__crt_stdio_output@@V?$positional_parameter_base@_WV?$string_output_adapter@_W@__crt_stdio_output@@@2@@__crt_stdio_output@@AEAA_N_N@Z 0000000180061420 f i libucrtd:output.obj
 0001:000608a0       ??$type_case_integer@$07@?$output_processor@_WV?$string_output_adapter@_W@__crt_stdio_output@@V?$standard_base@_WV?$string_output_adapter@_W@__crt_stdio_output@@@2@@__crt_stdio_output@@AEAA_N_N@Z 00000001800618a0 f i libucrtd:output.obj
 0001:00060d20       ??$type_case_integer@$09@?$output_processor@DV?$stream_output_adapter@D@__crt_stdio_output@@V?$format_validation_base@DV?$stream_output_adapter@D@__crt_stdio_output@@@2@@__crt_stdio_output@@AEAA_N_N@Z 0000000180061d20 f i libucrtd:output.obj
 0001:000611a0       ??$type_case_integer@$09@?$output_processor@DV?$stream_output_adapter@D@__crt_stdio_output@@V?$positional_parameter_base@DV?$stream_output_adapter@D@__crt_stdio_output@@@2@@__crt_stdio_output@@AEAA_N_N@Z 00000001800621a0 f i libucrtd:output.obj
 0001:00061620       ??$type_case_integer@$09@?$output_processor@DV?$stream_output_adapter@D@__crt_stdio_output@@V?$standard_base@DV?$stream_output_adapter@D@__crt_stdio_output@@@2@@__crt_stdio_output@@AEAA_N_N@Z 0000000180062620 f i libucrtd:output.obj
 0001:00061aa0       ??$type_case_integer@$09@?$output_processor@DV?$string_output_adapter@D@__crt_stdio_output@@V?$format_validation_base@DV?$string_output_adapter@D@__crt_stdio_output@@@2@@__crt_stdio_output@@AEAA_N_N@Z 0000000180062aa0 f i libucrtd:output.obj
 0001:00061f20       ??$type_case_integer@$09@?$output_processor@DV?$string_output_adapter@D@__crt_stdio_output@@V?$positional_parameter_base@DV?$string_output_adapter@D@__crt_stdio_output@@@2@@__crt_stdio_output@@AEAA_N_N@Z 0000000180062f20 f i libucrtd:output.obj
 0001:000623a0       ??$type_case_integer@$09@?$output_processor@DV?$string_output_adapter@D@__crt_stdio_output@@V?$standard_base@DV?$string_output_adapter@D@__crt_stdio_output@@@2@@__crt_stdio_output@@AEAA_N_N@Z 00000001800633a0 f i libucrtd:output.obj
 0001:00062820       ??$type_case_integer@$09@?$output_processor@_WV?$stream_output_adapter@_W@__crt_stdio_output@@V?$format_validation_base@_WV?$stream_output_adapter@_W@__crt_stdio_output@@@2@@__crt_stdio_output@@AEAA_N_N@Z 0000000180063820 f i libucrtd:output.obj
 0001:00062ca0       ??$type_case_integer@$09@?$output_processor@_WV?$stream_output_adapter@_W@__crt_stdio_output@@V?$positional_parameter_base@_WV?$stream_output_adapter@_W@__crt_stdio_output@@@2@@__crt_stdio_output@@AEAA_N_N@Z 0000000180063ca0 f i libucrtd:output.obj
 0001:00063120       ??$type_case_integer@$09@?$output_processor@_WV?$stream_output_adapter@_W@__crt_stdio_output@@V?$standard_base@_WV?$stream_output_adapter@_W@__crt_stdio_output@@@2@@__crt_stdio_output@@AEAA_N_N@Z 0000000180064120 f i libucrtd:output.obj
 0001:000635a0       ??$type_case_integer@$09@?$output_processor@_WV?$string_output_adapter@_W@__crt_stdio_output@@V?$format_validation_base@_WV?$string_output_adapter@_W@__crt_stdio_output@@@2@@__crt_stdio_output@@AEAA_N_N@Z 00000001800645a0 f i libucrtd:output.obj
 0001:00063a20       ??$type_case_integer@$09@?$output_processor@_WV?$string_output_adapter@_W@__crt_stdio_output@@V?$positional_parameter_base@_WV?$string_output_adapter@_W@__crt_stdio_output@@@2@@__crt_stdio_output@@AEAA_N_N@Z 0000000180064a20 f i libucrtd:output.obj
 0001:00063ea0       ??$type_case_integer@$09@?$output_processor@_WV?$string_output_adapter@_W@__crt_stdio_output@@V?$standard_base@_WV?$string_output_adapter@_W@__crt_stdio_output@@@2@@__crt_stdio_output@@AEAA_N_N@Z 0000000180064ea0 f i libucrtd:output.obj
 0001:00064320       ??$type_case_integer@$0BA@@?$output_processor@DV?$stream_output_adapter@D@__crt_stdio_output@@V?$format_validation_base@DV?$stream_output_adapter@D@__crt_stdio_output@@@2@@__crt_stdio_output@@AEAA_N_N@Z 0000000180065320 f i libucrtd:output.obj
 0001:000647a0       ??$type_case_integer@$0BA@@?$output_processor@DV?$stream_output_adapter@D@__crt_stdio_output@@V?$positional_parameter_base@DV?$stream_output_adapter@D@__crt_stdio_output@@@2@@__crt_stdio_output@@AEAA_N_N@Z 00000001800657a0 f i libucrtd:output.obj
 0001:00064c20       ??$type_case_integer@$0BA@@?$output_processor@DV?$stream_output_adapter@D@__crt_stdio_output@@V?$standard_base@DV?$stream_output_adapter@D@__crt_stdio_output@@@2@@__crt_stdio_output@@AEAA_N_N@Z 0000000180065c20 f i libucrtd:output.obj
 0001:000650a0       ??$type_case_integer@$0BA@@?$output_processor@DV?$string_output_adapter@D@__crt_stdio_output@@V?$format_validation_base@DV?$string_output_adapter@D@__crt_stdio_output@@@2@@__crt_stdio_output@@AEAA_N_N@Z 00000001800660a0 f i libucrtd:output.obj
 0001:00065520       ??$type_case_integer@$0BA@@?$output_processor@DV?$string_output_adapter@D@__crt_stdio_output@@V?$positional_parameter_base@DV?$string_output_adapter@D@__crt_stdio_output@@@2@@__crt_stdio_output@@AEAA_N_N@Z 0000000180066520 f i libucrtd:output.obj
 0001:000659a0       ??$type_case_integer@$0BA@@?$output_processor@DV?$string_output_adapter@D@__crt_stdio_output@@V?$standard_base@DV?$string_output_adapter@D@__crt_stdio_output@@@2@@__crt_stdio_output@@AEAA_N_N@Z 00000001800669a0 f i libucrtd:output.obj
 0001:00065e20       ??$type_case_integer@$0BA@@?$output_processor@_WV?$stream_output_adapter@_W@__crt_stdio_output@@V?$format_validation_base@_WV?$stream_output_adapter@_W@__crt_stdio_output@@@2@@__crt_stdio_output@@AEAA_N_N@Z 0000000180066e20 f i libucrtd:output.obj
 0001:000662a0       ??$type_case_integer@$0BA@@?$output_processor@_WV?$stream_output_adapter@_W@__crt_stdio_output@@V?$positional_parameter_base@_WV?$stream_output_adapter@_W@__crt_stdio_output@@@2@@__crt_stdio_output@@AEAA_N_N@Z 00000001800672a0 f i libucrtd:output.obj
 0001:00066720       ??$type_case_integer@$0BA@@?$output_processor@_WV?$stream_output_adapter@_W@__crt_stdio_output@@V?$standard_base@_WV?$stream_output_adapter@_W@__crt_stdio_output@@@2@@__crt_stdio_output@@AEAA_N_N@Z 0000000180067720 f i libucrtd:output.obj
 0001:00066ba0       ??$type_case_integer@$0BA@@?$output_processor@_WV?$string_output_adapter@_W@__crt_stdio_output@@V?$format_validation_base@_WV?$string_output_adapter@_W@__crt_stdio_output@@@2@@__crt_stdio_output@@AEAA_N_N@Z 0000000180067ba0 f i libucrtd:output.obj
 0001:00067020       ??$type_case_integer@$0BA@@?$output_processor@_WV?$string_output_adapter@_W@__crt_stdio_output@@V?$positional_parameter_base@_WV?$string_output_adapter@_W@__crt_stdio_output@@@2@@__crt_stdio_output@@AEAA_N_N@Z 0000000180068020 f i libucrtd:output.obj
 0001:000674a0       ??$type_case_integer@$0BA@@?$output_processor@_WV?$string_output_adapter@_W@__crt_stdio_output@@V?$standard_base@_WV?$string_output_adapter@_W@__crt_stdio_output@@@2@@__crt_stdio_output@@AEAA_N_N@Z 00000001800684a0 f i libucrtd:output.obj
 0001:00067920       ??$type_case_integer_parse_into_buffer@I$07@?$output_processor@DV?$stream_output_adapter@D@__crt_stdio_output@@V?$format_validation_base@DV?$stream_output_adapter@D@__crt_stdio_output@@@2@@__crt_stdio_output@@AEAAXI_N@Z 0000000180068920 f i libucrtd:output.obj
 0001:00067a50       ??$type_case_integer_parse_into_buffer@I$07@?$output_processor@DV?$stream_output_adapter@D@__crt_stdio_output@@V?$positional_parameter_base@DV?$stream_output_adapter@D@__crt_stdio_output@@@2@@__crt_stdio_output@@AEAAXI_N@Z 0000000180068a50 f i libucrtd:output.obj
 0001:00067b80       ??$type_case_integer_parse_into_buffer@I$07@?$output_processor@DV?$stream_output_adapter@D@__crt_stdio_output@@V?$standard_base@DV?$stream_output_adapter@D@__crt_stdio_output@@@2@@__crt_stdio_output@@AEAAXI_N@Z 0000000180068b80 f i libucrtd:output.obj
 0001:00067cb0       ??$type_case_integer_parse_into_buffer@I$07@?$output_processor@DV?$string_output_adapter@D@__crt_stdio_output@@V?$format_validation_base@DV?$string_output_adapter@D@__crt_stdio_output@@@2@@__crt_stdio_output@@AEAAXI_N@Z 0000000180068cb0 f i libucrtd:output.obj
 0001:00067de0       ??$type_case_integer_parse_into_buffer@I$07@?$output_processor@DV?$string_output_adapter@D@__crt_stdio_output@@V?$positional_parameter_base@DV?$string_output_adapter@D@__crt_stdio_output@@@2@@__crt_stdio_output@@AEAAXI_N@Z 0000000180068de0 f i libucrtd:output.obj
 0001:00067f10       ??$type_case_integer_parse_into_buffer@I$07@?$output_processor@DV?$string_output_adapter@D@__crt_stdio_output@@V?$standard_base@DV?$string_output_adapter@D@__crt_stdio_output@@@2@@__crt_stdio_output@@AEAAXI_N@Z 0000000180068f10 f i libucrtd:output.obj
 0001:00068040       ??$type_case_integer_parse_into_buffer@I$07@?$output_processor@_WV?$stream_output_adapter@_W@__crt_stdio_output@@V?$format_validation_base@_WV?$stream_output_adapter@_W@__crt_stdio_output@@@2@@__crt_stdio_output@@AEAAXI_N@Z 0000000180069040 f i libucrtd:output.obj
 0001:00068180       ??$type_case_integer_parse_into_buffer@I$07@?$output_processor@_WV?$stream_output_adapter@_W@__crt_stdio_output@@V?$positional_parameter_base@_WV?$stream_output_adapter@_W@__crt_stdio_output@@@2@@__crt_stdio_output@@AEAAXI_N@Z 0000000180069180 f i libucrtd:output.obj
 0001:000682c0       ??$type_case_integer_parse_into_buffer@I$07@?$output_processor@_WV?$stream_output_adapter@_W@__crt_stdio_output@@V?$standard_base@_WV?$stream_output_adapter@_W@__crt_stdio_output@@@2@@__crt_stdio_output@@AEAAXI_N@Z 00000001800692c0 f i libucrtd:output.obj
 0001:00068400       ??$type_case_integer_parse_into_buffer@I$07@?$output_processor@_WV?$string_output_adapter@_W@__crt_stdio_output@@V?$format_validation_base@_WV?$string_output_adapter@_W@__crt_stdio_output@@@2@@__crt_stdio_output@@AEAAXI_N@Z 0000000180069400 f i libucrtd:output.obj
 0001:00068540       ??$type_case_integer_parse_into_buffer@I$07@?$output_processor@_WV?$string_output_adapter@_W@__crt_stdio_output@@V?$positional_parameter_base@_WV?$string_output_adapter@_W@__crt_stdio_output@@@2@@__crt_stdio_output@@AEAAXI_N@Z 0000000180069540 f i libucrtd:output.obj
 0001:00068680       ??$type_case_integer_parse_into_buffer@I$07@?$output_processor@_WV?$string_output_adapter@_W@__crt_stdio_output@@V?$standard_base@_WV?$string_output_adapter@_W@__crt_stdio_output@@@2@@__crt_stdio_output@@AEAAXI_N@Z 0000000180069680 f i libucrtd:output.obj
 0001:000687c0       ??$type_case_integer_parse_into_buffer@I$09@?$output_processor@DV?$stream_output_adapter@D@__crt_stdio_output@@V?$format_validation_base@DV?$stream_output_adapter@D@__crt_stdio_output@@@2@@__crt_stdio_output@@AEAAXI_N@Z 00000001800697c0 f i libucrtd:output.obj
 0001:000688f0       ??$type_case_integer_parse_into_buffer@I$09@?$output_processor@DV?$stream_output_adapter@D@__crt_stdio_output@@V?$positional_parameter_base@DV?$stream_output_adapter@D@__crt_stdio_output@@@2@@__crt_stdio_output@@AEAAXI_N@Z 00000001800698f0 f i libucrtd:output.obj
 0001:00068a20       ??$type_case_integer_parse_into_buffer@I$09@?$output_processor@DV?$stream_output_adapter@D@__crt_stdio_output@@V?$standard_base@DV?$stream_output_adapter@D@__crt_stdio_output@@@2@@__crt_stdio_output@@AEAAXI_N@Z 0000000180069a20 f i libucrtd:output.obj
 0001:00068b50       ??$type_case_integer_parse_into_buffer@I$09@?$output_processor@DV?$string_output_adapter@D@__crt_stdio_output@@V?$format_validation_base@DV?$string_output_adapter@D@__crt_stdio_output@@@2@@__crt_stdio_output@@AEAAXI_N@Z 0000000180069b50 f i libucrtd:output.obj
 0001:00068c80       ??$type_case_integer_parse_into_buffer@I$09@?$output_processor@DV?$string_output_adapter@D@__crt_stdio_output@@V?$positional_parameter_base@DV?$string_output_adapter@D@__crt_stdio_output@@@2@@__crt_stdio_output@@AEAAXI_N@Z 0000000180069c80 f i libucrtd:output.obj
 0001:00068db0       ??$type_case_integer_parse_into_buffer@I$09@?$output_processor@DV?$string_output_adapter@D@__crt_stdio_output@@V?$standard_base@DV?$string_output_adapter@D@__crt_stdio_output@@@2@@__crt_stdio_output@@AEAAXI_N@Z 0000000180069db0 f i libucrtd:output.obj
 0001:00068ee0       ??$type_case_integer_parse_into_buffer@I$09@?$output_processor@_WV?$stream_output_adapter@_W@__crt_stdio_output@@V?$format_validation_base@_WV?$stream_output_adapter@_W@__crt_stdio_output@@@2@@__crt_stdio_output@@AEAAXI_N@Z 0000000180069ee0 f i libucrtd:output.obj
 0001:00069020       ??$type_case_integer_parse_into_buffer@I$09@?$output_processor@_WV?$stream_output_adapter@_W@__crt_stdio_output@@V?$positional_parameter_base@_WV?$stream_output_adapter@_W@__crt_stdio_output@@@2@@__crt_stdio_output@@AEAAXI_N@Z 000000018006a020 f i libucrtd:output.obj
 0001:00069160       ??$type_case_integer_parse_into_buffer@I$09@?$output_processor@_WV?$stream_output_adapter@_W@__crt_stdio_output@@V?$standard_base@_WV?$stream_output_adapter@_W@__crt_stdio_output@@@2@@__crt_stdio_output@@AEAAXI_N@Z 000000018006a160 f i libucrtd:output.obj
 0001:000692a0       ??$type_case_integer_parse_into_buffer@I$09@?$output_processor@_WV?$string_output_adapter@_W@__crt_stdio_output@@V?$format_validation_base@_WV?$string_output_adapter@_W@__crt_stdio_output@@@2@@__crt_stdio_output@@AEAAXI_N@Z 000000018006a2a0 f i libucrtd:output.obj
 0001:000693e0       ??$type_case_integer_parse_into_buffer@I$09@?$output_processor@_WV?$string_output_adapter@_W@__crt_stdio_output@@V?$positional_parameter_base@_WV?$string_output_adapter@_W@__crt_stdio_output@@@2@@__crt_stdio_output@@AEAAXI_N@Z 000000018006a3e0 f i libucrtd:output.obj
 0001:00069520       ??$type_case_integer_parse_into_buffer@I$09@?$output_processor@_WV?$string_output_adapter@_W@__crt_stdio_output@@V?$standard_base@_WV?$string_output_adapter@_W@__crt_stdio_output@@@2@@__crt_stdio_output@@AEAAXI_N@Z 000000018006a520 f i libucrtd:output.obj
 0001:00069660       ??$type_case_integer_parse_into_buffer@I$0BA@@?$output_processor@DV?$stream_output_adapter@D@__crt_stdio_output@@V?$format_validation_base@DV?$stream_output_adapter@D@__crt_stdio_output@@@2@@__crt_stdio_output@@AEAAXI_N@Z 000000018006a660 f i libucrtd:output.obj
 0001:00069790       ??$type_case_integer_parse_into_buffer@I$0BA@@?$output_processor@DV?$stream_output_adapter@D@__crt_stdio_output@@V?$positional_parameter_base@DV?$stream_output_adapter@D@__crt_stdio_output@@@2@@__crt_stdio_output@@AEAAXI_N@Z 000000018006a790 f i libucrtd:output.obj
 0001:000698c0       ??$type_case_integer_parse_into_buffer@I$0BA@@?$output_processor@DV?$stream_output_adapter@D@__crt_stdio_output@@V?$standard_base@DV?$stream_output_adapter@D@__crt_stdio_output@@@2@@__crt_stdio_output@@AEAAXI_N@Z 000000018006a8c0 f i libucrtd:output.obj
 0001:000699f0       ??$type_case_integer_parse_into_buffer@I$0BA@@?$output_processor@DV?$string_output_adapter@D@__crt_stdio_output@@V?$format_validation_base@DV?$string_output_adapter@D@__crt_stdio_output@@@2@@__crt_stdio_output@@AEAAXI_N@Z 000000018006a9f0 f i libucrtd:output.obj
 0001:00069b20       ??$type_case_integer_parse_into_buffer@I$0BA@@?$output_processor@DV?$string_output_adapter@D@__crt_stdio_output@@V?$positional_parameter_base@DV?$string_output_adapter@D@__crt_stdio_output@@@2@@__crt_stdio_output@@AEAAXI_N@Z 000000018006ab20 f i libucrtd:output.obj
 0001:00069c50       ??$type_case_integer_parse_into_buffer@I$0BA@@?$output_processor@DV?$string_output_adapter@D@__crt_stdio_output@@V?$standard_base@DV?$string_output_adapter@D@__crt_stdio_output@@@2@@__crt_stdio_output@@AEAAXI_N@Z 000000018006ac50 f i libucrtd:output.obj
 0001:00069d80       ??$type_case_integer_parse_into_buffer@I$0BA@@?$output_processor@_WV?$stream_output_adapter@_W@__crt_stdio_output@@V?$format_validation_base@_WV?$stream_output_adapter@_W@__crt_stdio_output@@@2@@__crt_stdio_output@@AEAAXI_N@Z 000000018006ad80 f i libucrtd:output.obj
 0001:00069ec0       ??$type_case_integer_parse_into_buffer@I$0BA@@?$output_processor@_WV?$stream_output_adapter@_W@__crt_stdio_output@@V?$positional_parameter_base@_WV?$stream_output_adapter@_W@__crt_stdio_output@@@2@@__crt_stdio_output@@AEAAXI_N@Z 000000018006aec0 f i libucrtd:output.obj
 0001:0006a000       ??$type_case_integer_parse_into_buffer@I$0BA@@?$output_processor@_WV?$stream_output_adapter@_W@__crt_stdio_output@@V?$standard_base@_WV?$stream_output_adapter@_W@__crt_stdio_output@@@2@@__crt_stdio_output@@AEAAXI_N@Z 000000018006b000 f i libucrtd:output.obj
 0001:0006a140       ??$type_case_integer_parse_into_buffer@I$0BA@@?$output_processor@_WV?$string_output_adapter@_W@__crt_stdio_output@@V?$format_validation_base@_WV?$string_output_adapter@_W@__crt_stdio_output@@@2@@__crt_stdio_output@@AEAAXI_N@Z 000000018006b140 f i libucrtd:output.obj
 0001:0006a280       ??$type_case_integer_parse_into_buffer@I$0BA@@?$output_processor@_WV?$string_output_adapter@_W@__crt_stdio_output@@V?$positional_parameter_base@_WV?$string_output_adapter@_W@__crt_stdio_output@@@2@@__crt_stdio_output@@AEAAXI_N@Z 000000018006b280 f i libucrtd:output.obj
 0001:0006a3c0       ??$type_case_integer_parse_into_buffer@I$0BA@@?$output_processor@_WV?$string_output_adapter@_W@__crt_stdio_output@@V?$standard_base@_WV?$string_output_adapter@_W@__crt_stdio_output@@@2@@__crt_stdio_output@@AEAAXI_N@Z 000000018006b3c0 f i libucrtd:output.obj
 0001:0006a500       ??$type_case_integer_parse_into_buffer@_K$07@?$output_processor@DV?$stream_output_adapter@D@__crt_stdio_output@@V?$format_validation_base@DV?$stream_output_adapter@D@__crt_stdio_output@@@2@@__crt_stdio_output@@AEAAX_K_N@Z 000000018006b500 f i libucrtd:output.obj
 0001:0006a640       ??$type_case_integer_parse_into_buffer@_K$07@?$output_processor@DV?$stream_output_adapter@D@__crt_stdio_output@@V?$positional_parameter_base@DV?$stream_output_adapter@D@__crt_stdio_output@@@2@@__crt_stdio_output@@AEAAX_K_N@Z 000000018006b640 f i libucrtd:output.obj
 0001:0006a780       ??$type_case_integer_parse_into_buffer@_K$07@?$output_processor@DV?$stream_output_adapter@D@__crt_stdio_output@@V?$standard_base@DV?$stream_output_adapter@D@__crt_stdio_output@@@2@@__crt_stdio_output@@AEAAX_K_N@Z 000000018006b780 f i libucrtd:output.obj
 0001:0006a8c0       ??$type_case_integer_parse_into_buffer@_K$07@?$output_processor@DV?$string_output_adapter@D@__crt_stdio_output@@V?$format_validation_base@DV?$string_output_adapter@D@__crt_stdio_output@@@2@@__crt_stdio_output@@AEAAX_K_N@Z 000000018006b8c0 f i libucrtd:output.obj
 0001:0006aa00       ??$type_case_integer_parse_into_buffer@_K$07@?$output_processor@DV?$string_output_adapter@D@__crt_stdio_output@@V?$positional_parameter_base@DV?$string_output_adapter@D@__crt_stdio_output@@@2@@__crt_stdio_output@@AEAAX_K_N@Z 000000018006ba00 f i libucrtd:output.obj
 0001:0006ab40       ??$type_case_integer_parse_into_buffer@_K$07@?$output_processor@DV?$string_output_adapter@D@__crt_stdio_output@@V?$standard_base@DV?$string_output_adapter@D@__crt_stdio_output@@@2@@__crt_stdio_output@@AEAAX_K_N@Z 000000018006bb40 f i libucrtd:output.obj
 0001:0006ac80       ??$type_case_integer_parse_into_buffer@_K$07@?$output_processor@_WV?$stream_output_adapter@_W@__crt_stdio_output@@V?$format_validation_base@_WV?$stream_output_adapter@_W@__crt_stdio_output@@@2@@__crt_stdio_output@@AEAAX_K_N@Z 000000018006bc80 f i libucrtd:output.obj
 0001:0006adc0       ??$type_case_integer_parse_into_buffer@_K$07@?$output_processor@_WV?$stream_output_adapter@_W@__crt_stdio_output@@V?$positional_parameter_base@_WV?$stream_output_adapter@_W@__crt_stdio_output@@@2@@__crt_stdio_output@@AEAAX_K_N@Z 000000018006bdc0 f i libucrtd:output.obj
 0001:0006af00       ??$type_case_integer_parse_into_buffer@_K$07@?$output_processor@_WV?$stream_output_adapter@_W@__crt_stdio_output@@V?$standard_base@_WV?$stream_output_adapter@_W@__crt_stdio_output@@@2@@__crt_stdio_output@@AEAAX_K_N@Z 000000018006bf00 f i libucrtd:output.obj
 0001:0006b040       ??$type_case_integer_parse_into_buffer@_K$07@?$output_processor@_WV?$string_output_adapter@_W@__crt_stdio_output@@V?$format_validation_base@_WV?$string_output_adapter@_W@__crt_stdio_output@@@2@@__crt_stdio_output@@AEAAX_K_N@Z 000000018006c040 f i libucrtd:output.obj
 0001:0006b180       ??$type_case_integer_parse_into_buffer@_K$07@?$output_processor@_WV?$string_output_adapter@_W@__crt_stdio_output@@V?$positional_parameter_base@_WV?$string_output_adapter@_W@__crt_stdio_output@@@2@@__crt_stdio_output@@AEAAX_K_N@Z 000000018006c180 f i libucrtd:output.obj
 0001:0006b2c0       ??$type_case_integer_parse_into_buffer@_K$07@?$output_processor@_WV?$string_output_adapter@_W@__crt_stdio_output@@V?$standard_base@_WV?$string_output_adapter@_W@__crt_stdio_output@@@2@@__crt_stdio_output@@AEAAX_K_N@Z 000000018006c2c0 f i libucrtd:output.obj
 0001:0006b400       ??$type_case_integer_parse_into_buffer@_K$09@?$output_processor@DV?$stream_output_adapter@D@__crt_stdio_output@@V?$format_validation_base@DV?$stream_output_adapter@D@__crt_stdio_output@@@2@@__crt_stdio_output@@AEAAX_K_N@Z 000000018006c400 f i libucrtd:output.obj
 0001:0006b540       ??$type_case_integer_parse_into_buffer@_K$09@?$output_processor@DV?$stream_output_adapter@D@__crt_stdio_output@@V?$positional_parameter_base@DV?$stream_output_adapter@D@__crt_stdio_output@@@2@@__crt_stdio_output@@AEAAX_K_N@Z 000000018006c540 f i libucrtd:output.obj
 0001:0006b680       ??$type_case_integer_parse_into_buffer@_K$09@?$output_processor@DV?$stream_output_adapter@D@__crt_stdio_output@@V?$standard_base@DV?$stream_output_adapter@D@__crt_stdio_output@@@2@@__crt_stdio_output@@AEAAX_K_N@Z 000000018006c680 f i libucrtd:output.obj
 0001:0006b7c0       ??$type_case_integer_parse_into_buffer@_K$09@?$output_processor@DV?$string_output_adapter@D@__crt_stdio_output@@V?$format_validation_base@DV?$string_output_adapter@D@__crt_stdio_output@@@2@@__crt_stdio_output@@AEAAX_K_N@Z 000000018006c7c0 f i libucrtd:output.obj
 0001:0006b900       ??$type_case_integer_parse_into_buffer@_K$09@?$output_processor@DV?$string_output_adapter@D@__crt_stdio_output@@V?$positional_parameter_base@DV?$string_output_adapter@D@__crt_stdio_output@@@2@@__crt_stdio_output@@AEAAX_K_N@Z 000000018006c900 f i libucrtd:output.obj
 0001:0006ba40       ??$type_case_integer_parse_into_buffer@_K$09@?$output_processor@DV?$string_output_adapter@D@__crt_stdio_output@@V?$standard_base@DV?$string_output_adapter@D@__crt_stdio_output@@@2@@__crt_stdio_output@@AEAAX_K_N@Z 000000018006ca40 f i libucrtd:output.obj
 0001:0006bb80       ??$type_case_integer_parse_into_buffer@_K$09@?$output_processor@_WV?$stream_output_adapter@_W@__crt_stdio_output@@V?$format_validation_base@_WV?$stream_output_adapter@_W@__crt_stdio_output@@@2@@__crt_stdio_output@@AEAAX_K_N@Z 000000018006cb80 f i libucrtd:output.obj
 0001:0006bcc0       ??$type_case_integer_parse_into_buffer@_K$09@?$output_processor@_WV?$stream_output_adapter@_W@__crt_stdio_output@@V?$positional_parameter_base@_WV?$stream_output_adapter@_W@__crt_stdio_output@@@2@@__crt_stdio_output@@AEAAX_K_N@Z 000000018006ccc0 f i libucrtd:output.obj
 0001:0006be00       ??$type_case_integer_parse_into_buffer@_K$09@?$output_processor@_WV?$stream_output_adapter@_W@__crt_stdio_output@@V?$standard_base@_WV?$stream_output_adapter@_W@__crt_stdio_output@@@2@@__crt_stdio_output@@AEAAX_K_N@Z 000000018006ce00 f i libucrtd:output.obj
 0001:0006bf40       ??$type_case_integer_parse_into_buffer@_K$09@?$output_processor@_WV?$string_output_adapter@_W@__crt_stdio_output@@V?$format_validation_base@_WV?$string_output_adapter@_W@__crt_stdio_output@@@2@@__crt_stdio_output@@AEAAX_K_N@Z 000000018006cf40 f i libucrtd:output.obj
 0001:0006c080       ??$type_case_integer_parse_into_buffer@_K$09@?$output_processor@_WV?$string_output_adapter@_W@__crt_stdio_output@@V?$positional_parameter_base@_WV?$string_output_adapter@_W@__crt_stdio_output@@@2@@__crt_stdio_output@@AEAAX_K_N@Z 000000018006d080 f i libucrtd:output.obj
 0001:0006c1c0       ??$type_case_integer_parse_into_buffer@_K$09@?$output_processor@_WV?$string_output_adapter@_W@__crt_stdio_output@@V?$standard_base@_WV?$string_output_adapter@_W@__crt_stdio_output@@@2@@__crt_stdio_output@@AEAAX_K_N@Z 000000018006d1c0 f i libucrtd:output.obj
 0001:0006c300       ??$type_case_integer_parse_into_buffer@_K$0BA@@?$output_processor@DV?$stream_output_adapter@D@__crt_stdio_output@@V?$format_validation_base@DV?$stream_output_adapter@D@__crt_stdio_output@@@2@@__crt_stdio_output@@AEAAX_K_N@Z 000000018006d300 f i libucrtd:output.obj
 0001:0006c440       ??$type_case_integer_parse_into_buffer@_K$0BA@@?$output_processor@DV?$stream_output_adapter@D@__crt_stdio_output@@V?$positional_parameter_base@DV?$stream_output_adapter@D@__crt_stdio_output@@@2@@__crt_stdio_output@@AEAAX_K_N@Z 000000018006d440 f i libucrtd:output.obj
 0001:0006c580       ??$type_case_integer_parse_into_buffer@_K$0BA@@?$output_processor@DV?$stream_output_adapter@D@__crt_stdio_output@@V?$standard_base@DV?$stream_output_adapter@D@__crt_stdio_output@@@2@@__crt_stdio_output@@AEAAX_K_N@Z 000000018006d580 f i libucrtd:output.obj
 0001:0006c6c0       ??$type_case_integer_parse_into_buffer@_K$0BA@@?$output_processor@DV?$string_output_adapter@D@__crt_stdio_output@@V?$format_validation_base@DV?$string_output_adapter@D@__crt_stdio_output@@@2@@__crt_stdio_output@@AEAAX_K_N@Z 000000018006d6c0 f i libucrtd:output.obj
 0001:0006c800       ??$type_case_integer_parse_into_buffer@_K$0BA@@?$output_processor@DV?$string_output_adapter@D@__crt_stdio_output@@V?$positional_parameter_base@DV?$string_output_adapter@D@__crt_stdio_output@@@2@@__crt_stdio_output@@AEAAX_K_N@Z 000000018006d800 f i libucrtd:output.obj
 0001:0006c940       ??$type_case_integer_parse_into_buffer@_K$0BA@@?$output_processor@DV?$string_output_adapter@D@__crt_stdio_output@@V?$standard_base@DV?$string_output_adapter@D@__crt_stdio_output@@@2@@__crt_stdio_output@@AEAAX_K_N@Z 000000018006d940 f i libucrtd:output.obj
 0001:0006ca80       ??$type_case_integer_parse_into_buffer@_K$0BA@@?$output_processor@_WV?$stream_output_adapter@_W@__crt_stdio_output@@V?$format_validation_base@_WV?$stream_output_adapter@_W@__crt_stdio_output@@@2@@__crt_stdio_output@@AEAAX_K_N@Z 000000018006da80 f i libucrtd:output.obj
 0001:0006cbc0       ??$type_case_integer_parse_into_buffer@_K$0BA@@?$output_processor@_WV?$stream_output_adapter@_W@__crt_stdio_output@@V?$positional_parameter_base@_WV?$stream_output_adapter@_W@__crt_stdio_output@@@2@@__crt_stdio_output@@AEAAX_K_N@Z 000000018006dbc0 f i libucrtd:output.obj
 0001:0006cd00       ??$type_case_integer_parse_into_buffer@_K$0BA@@?$output_processor@_WV?$stream_output_adapter@_W@__crt_stdio_output@@V?$standard_base@_WV?$stream_output_adapter@_W@__crt_stdio_output@@@2@@__crt_stdio_output@@AEAAX_K_N@Z 000000018006dd00 f i libucrtd:output.obj
 0001:0006ce40       ??$type_case_integer_parse_into_buffer@_K$0BA@@?$output_processor@_WV?$string_output_adapter@_W@__crt_stdio_output@@V?$format_validation_base@_WV?$string_output_adapter@_W@__crt_stdio_output@@@2@@__crt_stdio_output@@AEAAX_K_N@Z 000000018006de40 f i libucrtd:output.obj
 0001:0006cf80       ??$type_case_integer_parse_into_buffer@_K$0BA@@?$output_processor@_WV?$string_output_adapter@_W@__crt_stdio_output@@V?$positional_parameter_base@_WV?$string_output_adapter@_W@__crt_stdio_output@@@2@@__crt_stdio_output@@AEAAX_K_N@Z 000000018006df80 f i libucrtd:output.obj
 0001:0006d0c0       ??$type_case_integer_parse_into_buffer@_K$0BA@@?$output_processor@_WV?$string_output_adapter@_W@__crt_stdio_output@@V?$standard_base@_WV?$string_output_adapter@_W@__crt_stdio_output@@@2@@__crt_stdio_output@@AEAAX_K_N@Z 000000018006e0c0 f i libucrtd:output.obj
 0001:0006d200       ??$write_multiple_characters@V?$stream_output_adapter@D@__crt_stdio_output@@D@__crt_stdio_output@@YAXAEBV?$stream_output_adapter@D@0@DHQEAHAEAV__crt_cached_ptd_host@@@Z 000000018006e200 f i libucrtd:output.obj
 0001:0006d270       ??$write_multiple_characters@V?$stream_output_adapter@_W@__crt_stdio_output@@D@__crt_stdio_output@@YAXAEBV?$stream_output_adapter@_W@0@DHQEAHAEAV__crt_cached_ptd_host@@@Z 000000018006e270 f i libucrtd:output.obj
 0001:0006d2e0       ??$write_multiple_characters@V?$string_output_adapter@D@__crt_stdio_output@@D@__crt_stdio_output@@YAXAEBV?$string_output_adapter@D@0@DHQEAHAEAV__crt_cached_ptd_host@@@Z 000000018006e2e0 f i libucrtd:output.obj
 0001:0006d350       ??$write_multiple_characters@V?$string_output_adapter@_W@__crt_stdio_output@@D@__crt_stdio_output@@YAXAEBV?$string_output_adapter@_W@0@DHQEAHAEAV__crt_cached_ptd_host@@@Z 000000018006e350 f i libucrtd:output.obj
 0001:0006d780       ??0?$c_string_character_source@D@__crt_strtox@@QEAA@QEBDQEAPEBD@Z 000000018006e780 f i libucrtd:output.obj
 0001:0006d7d0       ??0?$c_string_character_source@_W@__crt_strtox@@QEAA@QEB_WQEAPEB_W@Z 000000018006e7d0 f i libucrtd:output.obj
 0001:0006d820       ??0?$cached@H@__crt_cached_ptd_host@@QEAA@XZ 000000018006e820 f i libucrtd:output.obj
 0001:0006d840       ??0?$cached@K@__crt_cached_ptd_host@@QEAA@XZ 000000018006e840 f i libucrtd:output.obj
 0001:0006d860       ??0?$common_data@D@__crt_stdio_output@@IEAA@AEAV__crt_cached_ptd_host@@@Z 000000018006e860 f i libucrtd:output.obj
 0001:0006d920       ??0?$common_data@_W@__crt_stdio_output@@IEAA@AEAV__crt_cached_ptd_host@@@Z 000000018006e920 f i libucrtd:output.obj
 0001:0006d9e0       ??0?$output_adapter_data@DV?$stream_output_adapter@D@__crt_stdio_output@@@__crt_stdio_output@@IEAA@AEBV?$stream_output_adapter@D@1@_KQEBDAEAV__crt_cached_ptd_host@@QEAD@Z 000000018006e9e0 f i libucrtd:output.obj
 0001:0006da60       ??0?$output_adapter_data@DV?$string_output_adapter@D@__crt_stdio_output@@@__crt_stdio_output@@IEAA@AEBV?$string_output_adapter@D@1@_KQEBDAEAV__crt_cached_ptd_host@@QEAD@Z 000000018006ea60 f i libucrtd:output.obj
 0001:0006dae0       ??0?$output_adapter_data@_WV?$stream_output_adapter@_W@__crt_stdio_output@@@__crt_stdio_output@@IEAA@AEBV?$stream_output_adapter@_W@1@_KQEB_WAEAV__crt_cached_ptd_host@@QEAD@Z 000000018006eae0 f i libucrtd:output.obj
 0001:0006db60       ??0?$output_adapter_data@_WV?$string_output_adapter@_W@__crt_stdio_output@@@__crt_stdio_output@@IEAA@AEBV?$string_output_adapter@_W@1@_KQEB_WAEAV__crt_cached_ptd_host@@QEAD@Z 000000018006eb60 f i libucrtd:output.obj
 0001:0006dbe0       ??0?$output_processor@DV?$stream_output_adapter@D@__crt_stdio_output@@V?$format_validation_base@DV?$stream_output_adapter@D@__crt_stdio_output@@@2@@__crt_stdio_output@@QEAA@AEBV?$stream_output_adapter@D@1@_KQEBDAEAV__crt_cached_ptd_host@@QEAD@Z 000000018006ebe0 f i libucrtd:output.obj
 0001:0006dc30       ??0?$output_processor@DV?$stream_output_adapter@D@__crt_stdio_output@@V?$positional_parameter_base@DV?$stream_output_adapter@D@__crt_stdio_output@@@2@@__crt_stdio_output@@QEAA@AEBV?$stream_output_adapter@D@1@_KQEBDAEAV__crt_cached_ptd_host@@QEAD@Z 000000018006ec30 f i libucrtd:output.obj
 0001:0006dc80       ??0?$output_processor@DV?$stream_output_adapter@D@__crt_stdio_output@@V?$standard_base@DV?$stream_output_adapter@D@__crt_stdio_output@@@2@@__crt_stdio_output@@QEAA@AEBV?$stream_output_adapter@D@1@_KQEBDAEAV__crt_cached_ptd_host@@QEAD@Z 000000018006ec80 f i libucrtd:output.obj
 0001:0006dcd0       ??0?$output_processor@DV?$string_output_adapter@D@__crt_stdio_output@@V?$format_validation_base@DV?$string_output_adapter@D@__crt_stdio_output@@@2@@__crt_stdio_output@@QEAA@AEBV?$string_output_adapter@D@1@_KQEBDAEAV__crt_cached_ptd_host@@QEAD@Z 000000018006ecd0 f i libucrtd:output.obj
 0001:0006dd20       ??0?$output_processor@DV?$string_output_adapter@D@__crt_stdio_output@@V?$positional_parameter_base@DV?$string_output_adapter@D@__crt_stdio_output@@@2@@__crt_stdio_output@@QEAA@AEBV?$string_output_adapter@D@1@_KQEBDAEAV__crt_cached_ptd_host@@QEAD@Z 000000018006ed20 f i libucrtd:output.obj
 0001:0006dd70       ??0?$output_processor@DV?$string_output_adapter@D@__crt_stdio_output@@V?$standard_base@DV?$string_output_adapter@D@__crt_stdio_output@@@2@@__crt_stdio_output@@QEAA@AEBV?$string_output_adapter@D@1@_KQEBDAEAV__crt_cached_ptd_host@@QEAD@Z 000000018006ed70 f i libucrtd:output.obj
 0001:0006ddc0       ??0?$output_processor@_WV?$stream_output_adapter@_W@__crt_stdio_output@@V?$format_validation_base@_WV?$stream_output_adapter@_W@__crt_stdio_output@@@2@@__crt_stdio_output@@QEAA@AEBV?$stream_output_adapter@_W@1@_KQEB_WAEAV__crt_cached_ptd_host@@QEAD@Z 000000018006edc0 f i libucrtd:output.obj
 0001:0006de10       ??0?$output_processor@_WV?$stream_output_adapter@_W@__crt_stdio_output@@V?$positional_parameter_base@_WV?$stream_output_adapter@_W@__crt_stdio_output@@@2@@__crt_stdio_output@@QEAA@AEBV?$stream_output_adapter@_W@1@_KQEB_WAEAV__crt_cached_ptd_host@@QEAD@Z 000000018006ee10 f i libucrtd:output.obj
 0001:0006de60       ??0?$output_processor@_WV?$stream_output_adapter@_W@__crt_stdio_output@@V?$standard_base@_WV?$stream_output_adapter@_W@__crt_stdio_output@@@2@@__crt_stdio_output@@QEAA@AEBV?$stream_output_adapter@_W@1@_KQEB_WAEAV__crt_cached_ptd_host@@QEAD@Z 000000018006ee60 f i libucrtd:output.obj
 0001:0006deb0       ??0?$output_processor@_WV?$string_output_adapter@_W@__crt_stdio_output@@V?$format_validation_base@_WV?$string_output_adapter@_W@__crt_stdio_output@@@2@@__crt_stdio_output@@QEAA@AEBV?$string_output_adapter@_W@1@_KQEB_WAEAV__crt_cached_ptd_host@@QEAD@Z 000000018006eeb0 f i libucrtd:output.obj
 0001:0006df00       ??0?$output_processor@_WV?$string_output_adapter@_W@__crt_stdio_output@@V?$positional_parameter_base@_WV?$string_output_adapter@_W@__crt_stdio_output@@@2@@__crt_stdio_output@@QEAA@AEBV?$string_output_adapter@_W@1@_KQEB_WAEAV__crt_cached_ptd_host@@QEAD@Z 000000018006ef00 f i libucrtd:output.obj
 0001:0006df50       ??0?$output_processor@_WV?$string_output_adapter@_W@__crt_stdio_output@@V?$standard_base@_WV?$string_output_adapter@_W@__crt_stdio_output@@@2@@__crt_stdio_output@@QEAA@AEBV?$string_output_adapter@_W@1@_KQEB_WAEAV__crt_cached_ptd_host@@QEAD@Z 000000018006ef50 f i libucrtd:output.obj
 0001:0006dfa0       ??0?$stream_output_adapter@D@__crt_stdio_output@@QEAA@QEAU_iobuf@@@Z 000000018006efa0 f i libucrtd:output.obj
 0001:0006dfe0       ??0?$stream_output_adapter@_W@__crt_stdio_output@@QEAA@QEAU_iobuf@@@Z 000000018006efe0 f i libucrtd:output.obj
 0001:0006e020       ??0?$string_output_adapter@D@__crt_stdio_output@@QEAA@QEAU?$string_output_adapter_context@D@1@@Z 000000018006f020 f i libucrtd:output.obj
 0001:0006e040       ??0?$string_output_adapter@_W@__crt_stdio_output@@QEAA@QEAU?$string_output_adapter_context@_W@1@@Z 000000018006f040 f i libucrtd:output.obj
 0001:0006e060       ??0__acrt_stdio_temporary_buffering_guard@@QEAA@QEAU_iobuf@@AEAV__crt_cached_ptd_host@@@Z 000000018006f060 f i libucrtd:output.obj
 0001:0006e0b0       ??0__crt_cached_ptd_host@@QEAA@QEAU__crt_locale_pointers@@@Z 000000018006f0b0 f i libucrtd:output.obj
 0001:0006e170       ??0__crt_scoped_get_last_error_reset@@QEAA@XZ 000000018006f170 f i libucrtd:output.obj
 0001:0006e190       ??0__crt_stdio_stream@@QEAA@QEAU_iobuf@@@Z 000000018006f190 f i libucrtd:output.obj
 0001:0006e1b0       ??0formatting_buffer@__crt_stdio_output@@QEAA@XZ 000000018006f1b0 f i libucrtd:output.obj
 0001:0006e1f0       ??0guard@?$cached@H@__crt_cached_ptd_host@@QEAA@AEAU12@@Z 000000018006f1f0 f i libucrtd:output.obj
 0001:0006e230       ??1?$c_string_character_source@D@__crt_strtox@@QEAA@XZ 000000018006f230 f i libucrtd:output.obj
 0001:0006e260       ??1?$c_string_character_source@_W@__crt_strtox@@QEAA@XZ 000000018006f260 f i libucrtd:output.obj
 0001:0006e290       ??1?$common_data@D@__crt_stdio_output@@QEAA@XZ 000000018006f290 f i libucrtd:output.obj
 0001:0006e2b0       ??1?$common_data@_W@__crt_stdio_output@@QEAA@XZ 000000018006f2b0 f i libucrtd:output.obj
 0001:0006e2d0       ??1?$format_validation_base@DV?$stream_output_adapter@D@__crt_stdio_output@@@__crt_stdio_output@@QEAA@XZ 000000018006f2d0 f i libucrtd:output.obj
 0001:0006e2f0       ??1?$format_validation_base@DV?$string_output_adapter@D@__crt_stdio_output@@@__crt_stdio_output@@QEAA@XZ 000000018006f2f0 f i libucrtd:output.obj
 0001:0006e310       ??1?$format_validation_base@_WV?$stream_output_adapter@_W@__crt_stdio_output@@@__crt_stdio_output@@QEAA@XZ 000000018006f310 f i libucrtd:output.obj
 0001:0006e330       ??1?$format_validation_base@_WV?$string_output_adapter@_W@__crt_stdio_output@@@__crt_stdio_output@@QEAA@XZ 000000018006f330 f i libucrtd:output.obj
 0001:0006e350       ??1?$output_adapter_data@DV?$stream_output_adapter@D@__crt_stdio_output@@@__crt_stdio_output@@QEAA@XZ 000000018006f350 f i libucrtd:output.obj
 0001:0006e370       ??1?$output_adapter_data@DV?$string_output_adapter@D@__crt_stdio_output@@@__crt_stdio_output@@QEAA@XZ 000000018006f370 f i libucrtd:output.obj
 0001:0006e390       ??1?$output_adapter_data@_WV?$stream_output_adapter@_W@__crt_stdio_output@@@__crt_stdio_output@@QEAA@XZ 000000018006f390 f i libucrtd:output.obj
 0001:0006e3b0       ??1?$output_adapter_data@_WV?$string_output_adapter@_W@__crt_stdio_output@@@__crt_stdio_output@@QEAA@XZ 000000018006f3b0 f i libucrtd:output.obj
 0001:0006e3d0       ??1?$output_processor@DV?$stream_output_adapter@D@__crt_stdio_output@@V?$format_validation_base@DV?$stream_output_adapter@D@__crt_stdio_output@@@2@@__crt_stdio_output@@QEAA@XZ 000000018006f3d0 f i libucrtd:output.obj
 0001:0006e3f0       ??1?$output_processor@DV?$stream_output_adapter@D@__crt_stdio_output@@V?$positional_parameter_base@DV?$stream_output_adapter@D@__crt_stdio_output@@@2@@__crt_stdio_output@@QEAA@XZ 000000018006f3f0 f i libucrtd:output.obj
 0001:0006e410       ??1?$output_processor@DV?$stream_output_adapter@D@__crt_stdio_output@@V?$standard_base@DV?$stream_output_adapter@D@__crt_stdio_output@@@2@@__crt_stdio_output@@QEAA@XZ 000000018006f410 f i libucrtd:output.obj
 0001:0006e430       ??1?$output_processor@DV?$string_output_adapter@D@__crt_stdio_output@@V?$format_validation_base@DV?$string_output_adapter@D@__crt_stdio_output@@@2@@__crt_stdio_output@@QEAA@XZ 000000018006f430 f i libucrtd:output.obj
 0001:0006e450       ??1?$output_processor@DV?$string_output_adapter@D@__crt_stdio_output@@V?$positional_parameter_base@DV?$string_output_adapter@D@__crt_stdio_output@@@2@@__crt_stdio_output@@QEAA@XZ 000000018006f450 f i libucrtd:output.obj
 0001:0006e470       ??1?$output_processor@DV?$string_output_adapter@D@__crt_stdio_output@@V?$standard_base@DV?$string_output_adapter@D@__crt_stdio_output@@@2@@__crt_stdio_output@@QEAA@XZ 000000018006f470 f i libucrtd:output.obj
 0001:0006e490       ??1?$output_processor@_WV?$stream_output_adapter@_W@__crt_stdio_output@@V?$format_validation_base@_WV?$stream_output_adapter@_W@__crt_stdio_output@@@2@@__crt_stdio_output@@QEAA@XZ 000000018006f490 f i libucrtd:output.obj
 0001:0006e4b0       ??1?$output_processor@_WV?$stream_output_adapter@_W@__crt_stdio_output@@V?$positional_parameter_base@_WV?$stream_output_adapter@_W@__crt_stdio_output@@@2@@__crt_stdio_output@@QEAA@XZ 000000018006f4b0 f i libucrtd:output.obj
 0001:0006e4d0       ??1?$output_processor@_WV?$stream_output_adapter@_W@__crt_stdio_output@@V?$standard_base@_WV?$stream_output_adapter@_W@__crt_stdio_output@@@2@@__crt_stdio_output@@QEAA@XZ 000000018006f4d0 f i libucrtd:output.obj
 0001:0006e4f0       ??1?$output_processor@_WV?$string_output_adapter@_W@__crt_stdio_output@@V?$format_validation_base@_WV?$string_output_adapter@_W@__crt_stdio_output@@@2@@__crt_stdio_output@@QEAA@XZ 000000018006f4f0 f i libucrtd:output.obj
 0001:0006e510       ??1?$output_processor@_WV?$string_output_adapter@_W@__crt_stdio_output@@V?$positional_parameter_base@_WV?$string_output_adapter@_W@__crt_stdio_output@@@2@@__crt_stdio_output@@QEAA@XZ 000000018006f510 f i libucrtd:output.obj
 0001:0006e530       ??1?$output_processor@_WV?$string_output_adapter@_W@__crt_stdio_output@@V?$standard_base@_WV?$string_output_adapter@_W@__crt_stdio_output@@@2@@__crt_stdio_output@@QEAA@XZ 000000018006f530 f i libucrtd:output.obj
 0001:0006e550       ??1?$positional_parameter_base@DV?$stream_output_adapter@D@__crt_stdio_output@@@__crt_stdio_output@@QEAA@XZ 000000018006f550 f i libucrtd:output.obj
 0001:0006e570       ??1?$positional_parameter_base@DV?$string_output_adapter@D@__crt_stdio_output@@@__crt_stdio_output@@QEAA@XZ 000000018006f570 f i libucrtd:output.obj
 0001:0006e590       ??1?$positional_parameter_base@_WV?$stream_output_adapter@_W@__crt_stdio_output@@@__crt_stdio_output@@QEAA@XZ 000000018006f590 f i libucrtd:output.obj
 0001:0006e5b0       ??1?$positional_parameter_base@_WV?$string_output_adapter@_W@__crt_stdio_output@@@__crt_stdio_output@@QEAA@XZ 000000018006f5b0 f i libucrtd:output.obj
 0001:0006e5d0       ??1?$standard_base@DV?$stream_output_adapter@D@__crt_stdio_output@@@__crt_stdio_output@@QEAA@XZ 000000018006f5d0 f i libucrtd:output.obj
 0001:0006e5f0       ??1?$standard_base@DV?$string_output_adapter@D@__crt_stdio_output@@@__crt_stdio_output@@QEAA@XZ 000000018006f5f0 f i libucrtd:output.obj
 0001:0006e610       ??1?$standard_base@_WV?$stream_output_adapter@_W@__crt_stdio_output@@@__crt_stdio_output@@QEAA@XZ 000000018006f610 f i libucrtd:output.obj
 0001:0006e630       ??1?$standard_base@_WV?$string_output_adapter@_W@__crt_stdio_output@@@__crt_stdio_output@@QEAA@XZ 000000018006f630 f i libucrtd:output.obj
 0001:0006e650       ??1__acrt_stdio_temporary_buffering_guard@@QEAA@XZ 000000018006f650 f i libucrtd:output.obj
 0001:0006e680       ??1__crt_cached_ptd_host@@QEAA@XZ 000000018006f680 f i libucrtd:output.obj
 0001:0006e730       ??1__crt_scoped_get_last_error_reset@@QEAA@XZ 000000018006f730 f i libucrtd:output.obj
 0001:0006e750       ??1formatting_buffer@__crt_stdio_output@@QEAA@XZ 000000018006f750 f i libucrtd:output.obj
 0001:0006e780       ??1guard@?$cached@H@__crt_cached_ptd_host@@QEAA@XZ 000000018006f780 f i libucrtd:output.obj
 0001:0006e7b0       ??4?$__crt_unique_heap_ptr@DU__crt_internal_free_policy@@@@QEAAAEAV0@$$QEAV0@@Z 000000018006f7b0 f i libucrtd:output.obj
 0001:0006e7f0       ??A?$spectre_mitigated_lookup_table@Ustate_transition_pair@__crt_stdio_output@@$0IA@@__crt_stdio_output@@QEBAAEBUstate_transition_pair@1@_K@Z 000000018006f7f0 f i libucrtd:output.obj
 0001:0006e810       ??C__crt_stdio_stream@@QEBAPEAU__crt_stdio_stream_data@@XZ 000000018006f810 f i libucrtd:output.obj
 0001:0006f060       ?__crt_interlocked_read_32@@YAHPEDH@Z 0000000180070060 f i libucrtd:output.obj
 0001:0006f080       ?adjust_hexit@?$output_processor@DV?$stream_output_adapter@D@__crt_stdio_output@@V?$format_validation_base@DV?$stream_output_adapter@D@__crt_stdio_output@@@2@@__crt_stdio_output@@CADH_N@Z 0000000180070080 f i libucrtd:output.obj
 0001:0006f0d0       ?adjust_hexit@?$output_processor@DV?$stream_output_adapter@D@__crt_stdio_output@@V?$positional_parameter_base@DV?$stream_output_adapter@D@__crt_stdio_output@@@2@@__crt_stdio_output@@CADH_N@Z 00000001800700d0 f i libucrtd:output.obj
 0001:0006f120       ?adjust_hexit@?$output_processor@DV?$stream_output_adapter@D@__crt_stdio_output@@V?$standard_base@DV?$stream_output_adapter@D@__crt_stdio_output@@@2@@__crt_stdio_output@@CADH_N@Z 0000000180070120 f i libucrtd:output.obj
 0001:0006f170       ?adjust_hexit@?$output_processor@DV?$string_output_adapter@D@__crt_stdio_output@@V?$format_validation_base@DV?$string_output_adapter@D@__crt_stdio_output@@@2@@__crt_stdio_output@@CADH_N@Z 0000000180070170 f i libucrtd:output.obj
 0001:0006f1c0       ?adjust_hexit@?$output_processor@DV?$string_output_adapter@D@__crt_stdio_output@@V?$positional_parameter_base@DV?$string_output_adapter@D@__crt_stdio_output@@@2@@__crt_stdio_output@@CADH_N@Z 00000001800701c0 f i libucrtd:output.obj
 0001:0006f210       ?adjust_hexit@?$output_processor@DV?$string_output_adapter@D@__crt_stdio_output@@V?$standard_base@DV?$string_output_adapter@D@__crt_stdio_output@@@2@@__crt_stdio_output@@CADH_N@Z 0000000180070210 f i libucrtd:output.obj
 0001:0006f260       ?adjust_hexit@?$output_processor@_WV?$stream_output_adapter@_W@__crt_stdio_output@@V?$format_validation_base@_WV?$stream_output_adapter@_W@__crt_stdio_output@@@2@@__crt_stdio_output@@CADH_N@Z 0000000180070260 f i libucrtd:output.obj
 0001:0006f2b0       ?adjust_hexit@?$output_processor@_WV?$stream_output_adapter@_W@__crt_stdio_output@@V?$positional_parameter_base@_WV?$stream_output_adapter@_W@__crt_stdio_output@@@2@@__crt_stdio_output@@CADH_N@Z 00000001800702b0 f i libucrtd:output.obj
 0001:0006f300       ?adjust_hexit@?$output_processor@_WV?$stream_output_adapter@_W@__crt_stdio_output@@V?$standard_base@_WV?$stream_output_adapter@_W@__crt_stdio_output@@@2@@__crt_stdio_output@@CADH_N@Z 0000000180070300 f i libucrtd:output.obj
 0001:0006f350       ?adjust_hexit@?$output_processor@_WV?$string_output_adapter@_W@__crt_stdio_output@@V?$format_validation_base@_WV?$string_output_adapter@_W@__crt_stdio_output@@@2@@__crt_stdio_output@@CADH_N@Z 0000000180070350 f i libucrtd:output.obj
 0001:0006f3a0       ?adjust_hexit@?$output_processor@_WV?$string_output_adapter@_W@__crt_stdio_output@@V?$positional_parameter_base@_WV?$string_output_adapter@_W@__crt_stdio_output@@@2@@__crt_stdio_output@@CADH_N@Z 00000001800703a0 f i libucrtd:output.obj
 0001:0006f3f0       ?adjust_hexit@?$output_processor@_WV?$string_output_adapter@_W@__crt_stdio_output@@V?$standard_base@_WV?$string_output_adapter@_W@__crt_stdio_output@@@2@@__crt_stdio_output@@CADH_N@Z 00000001800703f0 f i libucrtd:output.obj
 0001:0006f440       ?advance_to_next_pass@?$positional_parameter_base@DV?$stream_output_adapter@D@__crt_stdio_output@@@__crt_stdio_output@@IEAA_NXZ 0000000180070440 f i libucrtd:output.obj
 0001:0006f4f0       ?advance_to_next_pass@?$positional_parameter_base@DV?$string_output_adapter@D@__crt_stdio_output@@@__crt_stdio_output@@IEAA_NXZ 00000001800704f0 f i libucrtd:output.obj
 0001:0006f5a0       ?advance_to_next_pass@?$positional_parameter_base@_WV?$stream_output_adapter@_W@__crt_stdio_output@@@__crt_stdio_output@@IEAA_NXZ 00000001800705a0 f i libucrtd:output.obj
 0001:0006f650       ?advance_to_next_pass@?$positional_parameter_base@_WV?$string_output_adapter@_W@__crt_stdio_output@@@__crt_stdio_output@@IEAA_NXZ 0000000180070650 f i libucrtd:output.obj
 0001:0006f700       ?advance_to_next_pass@?$standard_base@DV?$stream_output_adapter@D@__crt_stdio_output@@@__crt_stdio_output@@IEAA_NXZ 0000000180070700 f i libucrtd:output.obj
 0001:0006f750       ?advance_to_next_pass@?$standard_base@DV?$string_output_adapter@D@__crt_stdio_output@@@__crt_stdio_output@@IEAA_NXZ 0000000180070750 f i libucrtd:output.obj
 0001:0006f7a0       ?advance_to_next_pass@?$standard_base@_WV?$stream_output_adapter@_W@__crt_stdio_output@@@__crt_stdio_output@@IEAA_NXZ 00000001800707a0 f i libucrtd:output.obj
 0001:0006f7f0       ?advance_to_next_pass@?$standard_base@_WV?$string_output_adapter@_W@__crt_stdio_output@@@__crt_stdio_output@@IEAA_NXZ 00000001800707f0 f i libucrtd:output.obj
 0001:0006f840       ?check@?$cached@H@__crt_cached_ptd_host@@QEBA_NH@Z 0000000180070840 f i libucrtd:output.obj
 0001:0006f880       ?check_synchronize_global_state_index@__crt_cached_ptd_host@@AEAA_KAEBV__crt_scoped_get_last_error_reset@@@Z 0000000180070880 f i libucrtd:output.obj
 0001:0006f8c0       ?check_synchronize_per_thread_data@__crt_cached_ptd_host@@AEAAPEAU__acrt_ptd@@XZ 00000001800708c0 f i libucrtd:output.obj
 0001:0006f900       ?create_guard@?$cached@H@__crt_cached_ptd_host@@QEAA?AVguard@12@XZ 0000000180070900 f i libucrtd:output.obj
 0001:0006f930       ?crop_zeroes@__crt_stdio_output@@YAXPEADQEAU__crt_locale_pointers@@@Z 0000000180070930 f i libucrtd:output.obj
 0001:0006fa80       ?disable@guard@?$cached@H@__crt_cached_ptd_host@@QEAAXXZ 0000000180070a80 f i libucrtd:output.obj
 0001:0006fa90       ?enable@guard@?$cached@H@__crt_cached_ptd_host@@QEAAXXZ 0000000180070a90 f i libucrtd:output.obj
 0001:0006faa0       ?find_next_state@?$output_processor@DV?$stream_output_adapter@D@__crt_stdio_output@@V?$format_validation_base@DV?$stream_output_adapter@D@__crt_stdio_output@@@2@@__crt_stdio_output@@AEBA?AW4state@2@DW432@@Z 0000000180070aa0 f i libucrtd:output.obj
 0001:0006fb40       ?find_next_state@?$output_processor@DV?$stream_output_adapter@D@__crt_stdio_output@@V?$positional_parameter_base@DV?$stream_output_adapter@D@__crt_stdio_output@@@2@@__crt_stdio_output@@AEBA?AW4state@2@DW432@@Z 0000000180070b40 f i libucrtd:output.obj
 0001:0006fbe0       ?find_next_state@?$output_processor@DV?$stream_output_adapter@D@__crt_stdio_output@@V?$standard_base@DV?$stream_output_adapter@D@__crt_stdio_output@@@2@@__crt_stdio_output@@AEBA?AW4state@2@DW432@@Z 0000000180070be0 f i libucrtd:output.obj
 0001:0006fc80       ?find_next_state@?$output_processor@DV?$string_output_adapter@D@__crt_stdio_output@@V?$format_validation_base@DV?$string_output_adapter@D@__crt_stdio_output@@@2@@__crt_stdio_output@@AEBA?AW4state@2@DW432@@Z 0000000180070c80 f i libucrtd:output.obj
 0001:0006fd20       ?find_next_state@?$output_processor@DV?$string_output_adapter@D@__crt_stdio_output@@V?$positional_parameter_base@DV?$string_output_adapter@D@__crt_stdio_output@@@2@@__crt_stdio_output@@AEBA?AW4state@2@DW432@@Z 0000000180070d20 f i libucrtd:output.obj
 0001:0006fdc0       ?find_next_state@?$output_processor@DV?$string_output_adapter@D@__crt_stdio_output@@V?$standard_base@DV?$string_output_adapter@D@__crt_stdio_output@@@2@@__crt_stdio_output@@AEBA?AW4state@2@DW432@@Z 0000000180070dc0 f i libucrtd:output.obj
 0001:0006fe60       ?find_next_state@?$output_processor@_WV?$stream_output_adapter@_W@__crt_stdio_output@@V?$format_validation_base@_WV?$stream_output_adapter@_W@__crt_stdio_output@@@2@@__crt_stdio_output@@AEBA?AW4state@2@_WW432@@Z 0000000180070e60 f i libucrtd:output.obj
 0001:0006ff00       ?find_next_state@?$output_processor@_WV?$stream_output_adapter@_W@__crt_stdio_output@@V?$positional_parameter_base@_WV?$stream_output_adapter@_W@__crt_stdio_output@@@2@@__crt_stdio_output@@AEBA?AW4state@2@_WW432@@Z 0000000180070f00 f i libucrtd:output.obj
 0001:0006ffa0       ?find_next_state@?$output_processor@_WV?$stream_output_adapter@_W@__crt_stdio_output@@V?$standard_base@_WV?$stream_output_adapter@_W@__crt_stdio_output@@@2@@__crt_stdio_output@@AEBA?AW4state@2@_WW432@@Z 0000000180070fa0 f i libucrtd:output.obj
 0001:00070040       ?find_next_state@?$output_processor@_WV?$string_output_adapter@_W@__crt_stdio_output@@V?$format_validation_base@_WV?$string_output_adapter@_W@__crt_stdio_output@@@2@@__crt_stdio_output@@AEBA?AW4state@2@_WW432@@Z 0000000180071040 f i libucrtd:output.obj
 0001:000700e0       ?find_next_state@?$output_processor@_WV?$string_output_adapter@_W@__crt_stdio_output@@V?$positional_parameter_base@_WV?$string_output_adapter@_W@__crt_stdio_output@@@2@@__crt_stdio_output@@AEBA?AW4state@2@_WW432@@Z 00000001800710e0 f i libucrtd:output.obj
 0001:00070180       ?find_next_state@?$output_processor@_WV?$string_output_adapter@_W@__crt_stdio_output@@V?$standard_base@_WV?$string_output_adapter@_W@__crt_stdio_output@@@2@@__crt_stdio_output@@AEBA?AW4state@2@_WW432@@Z 0000000180071180 f i libucrtd:output.obj
 0001:00070220       ?force_decimal_point@__crt_stdio_output@@YAXPEADQEAU__crt_locale_pointers@@@Z 0000000180071220 f i libucrtd:output.obj
 0001:00070320       ?force_synchronize_global_state_index@__crt_cached_ptd_host@@AEAA_KAEBV__crt_scoped_get_last_error_reset@@@Z 0000000180071320 f i libucrtd:output.obj
 0001:00070360       ?force_synchronize_per_thread_data@__crt_cached_ptd_host@@AEAAPEAU__acrt_ptd@@XZ 0000000180071360 f i libucrtd:output.obj
 0001:000703c0       ?get@?$c_string_character_source@D@__crt_strtox@@QEAADXZ 00000001800713c0 f i libucrtd:output.obj
 0001:00070400       ?get@?$c_string_character_source@_W@__crt_strtox@@QEAA_WXZ 0000000180071400 f i libucrtd:output.obj
 0001:00070440       ?get_current_state_index@__crt_state_management@@YA_KAEBV__crt_scoped_get_last_error_reset@@@Z 0000000180071440 f i libucrtd:output.obj
 0001:00070450       ?get_errno@__crt_cached_ptd_host@@QEAAAEAU?$cached@H@1@XZ 0000000180071450 f i libucrtd:output.obj
 0001:00070460       ?get_flags@__crt_stdio_stream@@QEBAJXZ 0000000180071460 f i libucrtd:output.obj
 0001:00070490       ?get_locale@__crt_cached_ptd_host@@QEAAPEAU__crt_locale_pointers@@XZ 0000000180071490 f i libucrtd:output.obj
 0001:000704c0       ?get_parameter_type@?$positional_parameter_base@DV?$stream_output_adapter@D@__crt_stdio_output@@@__crt_stdio_output@@CA?AW4parameter_type@12@F@Z 00000001800714c0 f i libucrtd:output.obj
 0001:000704d0       ?get_parameter_type@?$positional_parameter_base@DV?$stream_output_adapter@D@__crt_stdio_output@@@__crt_stdio_output@@CA?AW4parameter_type@12@G@Z 00000001800714d0 f i libucrtd:output.obj
 0001:000704e0       ?get_parameter_type@?$positional_parameter_base@DV?$stream_output_adapter@D@__crt_stdio_output@@@__crt_stdio_output@@CA?AW4parameter_type@12@H@Z 00000001800714e0 f i libucrtd:output.obj
 0001:000704f0       ?get_parameter_type@?$positional_parameter_base@DV?$stream_output_adapter@D@__crt_stdio_output@@@__crt_stdio_output@@CA?AW4parameter_type@12@I@Z 00000001800714f0 f i libucrtd:output.obj
 0001:00070500       ?get_parameter_type@?$positional_parameter_base@DV?$stream_output_adapter@D@__crt_stdio_output@@@__crt_stdio_output@@CA?AW4parameter_type@12@U_CRT_DOUBLE@@@Z 0000000180071500 f i libucrtd:output.obj
 0001:00070510       ?get_parameter_type@?$positional_parameter_base@DV?$stream_output_adapter@D@__crt_stdio_output@@@__crt_stdio_output@@CA?AW4parameter_type@12@_J@Z 0000000180071510 f i libucrtd:output.obj
 0001:00070520       ?get_parameter_type@?$positional_parameter_base@DV?$stream_output_adapter@D@__crt_stdio_output@@@__crt_stdio_output@@CA?AW4parameter_type@12@_K@Z 0000000180071520 f i libucrtd:output.obj
 0001:00070530       ?get_parameter_type@?$positional_parameter_base@DV?$stream_output_adapter@D@__crt_stdio_output@@@__crt_stdio_output@@CA?AW4parameter_type@12@_W@Z 0000000180071530 f i libucrtd:output.obj
 0001:00070540       ?get_parameter_type@?$positional_parameter_base@DV?$string_output_adapter@D@__crt_stdio_output@@@__crt_stdio_output@@CA?AW4parameter_type@12@F@Z 0000000180071540 f i libucrtd:output.obj
 0001:00070550       ?get_parameter_type@?$positional_parameter_base@DV?$string_output_adapter@D@__crt_stdio_output@@@__crt_stdio_output@@CA?AW4parameter_type@12@G@Z 0000000180071550 f i libucrtd:output.obj
 0001:00070560       ?get_parameter_type@?$positional_parameter_base@DV?$string_output_adapter@D@__crt_stdio_output@@@__crt_stdio_output@@CA?AW4parameter_type@12@H@Z 0000000180071560 f i libucrtd:output.obj
 0001:00070570       ?get_parameter_type@?$positional_parameter_base@DV?$string_output_adapter@D@__crt_stdio_output@@@__crt_stdio_output@@CA?AW4parameter_type@12@I@Z 0000000180071570 f i libucrtd:output.obj
 0001:00070580       ?get_parameter_type@?$positional_parameter_base@DV?$string_output_adapter@D@__crt_stdio_output@@@__crt_stdio_output@@CA?AW4parameter_type@12@U_CRT_DOUBLE@@@Z 0000000180071580 f i libucrtd:output.obj
 0001:00070590       ?get_parameter_type@?$positional_parameter_base@DV?$string_output_adapter@D@__crt_stdio_output@@@__crt_stdio_output@@CA?AW4parameter_type@12@_J@Z 0000000180071590 f i libucrtd:output.obj
 0001:000705a0       ?get_parameter_type@?$positional_parameter_base@DV?$string_output_adapter@D@__crt_stdio_output@@@__crt_stdio_output@@CA?AW4parameter_type@12@_K@Z 00000001800715a0 f i libucrtd:output.obj
 0001:000705b0       ?get_parameter_type@?$positional_parameter_base@DV?$string_output_adapter@D@__crt_stdio_output@@@__crt_stdio_output@@CA?AW4parameter_type@12@_W@Z 00000001800715b0 f i libucrtd:output.obj
 0001:000705c0       ?get_parameter_type@?$positional_parameter_base@_WV?$stream_output_adapter@_W@__crt_stdio_output@@@__crt_stdio_output@@CA?AW4parameter_type@12@F@Z 00000001800715c0 f i libucrtd:output.obj
 0001:000705d0       ?get_parameter_type@?$positional_parameter_base@_WV?$stream_output_adapter@_W@__crt_stdio_output@@@__crt_stdio_output@@CA?AW4parameter_type@12@G@Z 00000001800715d0 f i libucrtd:output.obj
 0001:000705e0       ?get_parameter_type@?$positional_parameter_base@_WV?$stream_output_adapter@_W@__crt_stdio_output@@@__crt_stdio_output@@CA?AW4parameter_type@12@H@Z 00000001800715e0 f i libucrtd:output.obj
 0001:000705f0       ?get_parameter_type@?$positional_parameter_base@_WV?$stream_output_adapter@_W@__crt_stdio_output@@@__crt_stdio_output@@CA?AW4parameter_type@12@I@Z 00000001800715f0 f i libucrtd:output.obj
 0001:00070600       ?get_parameter_type@?$positional_parameter_base@_WV?$stream_output_adapter@_W@__crt_stdio_output@@@__crt_stdio_output@@CA?AW4parameter_type@12@U_CRT_DOUBLE@@@Z 0000000180071600 f i libucrtd:output.obj
 0001:00070610       ?get_parameter_type@?$positional_parameter_base@_WV?$stream_output_adapter@_W@__crt_stdio_output@@@__crt_stdio_output@@CA?AW4parameter_type@12@_J@Z 0000000180071610 f i libucrtd:output.obj
 0001:00070620       ?get_parameter_type@?$positional_parameter_base@_WV?$stream_output_adapter@_W@__crt_stdio_output@@@__crt_stdio_output@@CA?AW4parameter_type@12@_K@Z 0000000180071620 f i libucrtd:output.obj
 0001:00070630       ?get_parameter_type@?$positional_parameter_base@_WV?$stream_output_adapter@_W@__crt_stdio_output@@@__crt_stdio_output@@CA?AW4parameter_type@12@_W@Z 0000000180071630 f i libucrtd:output.obj
 0001:00070640       ?get_parameter_type@?$positional_parameter_base@_WV?$string_output_adapter@_W@__crt_stdio_output@@@__crt_stdio_output@@CA?AW4parameter_type@12@F@Z 0000000180071640 f i libucrtd:output.obj
 0001:00070650       ?get_parameter_type@?$positional_parameter_base@_WV?$string_output_adapter@_W@__crt_stdio_output@@@__crt_stdio_output@@CA?AW4parameter_type@12@G@Z 0000000180071650 f i libucrtd:output.obj
 0001:00070660       ?get_parameter_type@?$positional_parameter_base@_WV?$string_output_adapter@_W@__crt_stdio_output@@@__crt_stdio_output@@CA?AW4parameter_type@12@H@Z 0000000180071660 f i libucrtd:output.obj
 0001:00070670       ?get_parameter_type@?$positional_parameter_base@_WV?$string_output_adapter@_W@__crt_stdio_output@@@__crt_stdio_output@@CA?AW4parameter_type@12@I@Z 0000000180071670 f i libucrtd:output.obj
 0001:00070680       ?get_parameter_type@?$positional_parameter_base@_WV?$string_output_adapter@_W@__crt_stdio_output@@@__crt_stdio_output@@CA?AW4parameter_type@12@U_CRT_DOUBLE@@@Z 0000000180071680 f i libucrtd:output.obj
 0001:00070690       ?get_parameter_type@?$positional_parameter_base@_WV?$string_output_adapter@_W@__crt_stdio_output@@@__crt_stdio_output@@CA?AW4parameter_type@12@_J@Z 0000000180071690 f i libucrtd:output.obj
 0001:000706a0       ?get_parameter_type@?$positional_parameter_base@_WV?$string_output_adapter@_W@__crt_stdio_output@@@__crt_stdio_output@@CA?AW4parameter_type@12@_K@Z 00000001800716a0 f i libucrtd:output.obj
 0001:000706b0       ?get_parameter_type@?$positional_parameter_base@_WV?$string_output_adapter@_W@__crt_stdio_output@@@__crt_stdio_output@@CA?AW4parameter_type@12@_W@Z 00000001800716b0 f i libucrtd:output.obj
 0001:000706c0       ?get_raw_ptd@__crt_cached_ptd_host@@QEAAPEAU__acrt_ptd@@XZ 00000001800716c0 f i libucrtd:output.obj
 0001:000706e0       ?has_flag@?$output_processor@DV?$stream_output_adapter@D@__crt_stdio_output@@V?$format_validation_base@DV?$stream_output_adapter@D@__crt_stdio_output@@@2@@__crt_stdio_output@@AEBA_NI@Z 00000001800716e0 f i libucrtd:output.obj
 0001:00070720       ?has_flag@?$output_processor@DV?$stream_output_adapter@D@__crt_stdio_output@@V?$positional_parameter_base@DV?$stream_output_adapter@D@__crt_stdio_output@@@2@@__crt_stdio_output@@AEBA_NI@Z 0000000180071720 f i libucrtd:output.obj
 0001:00070760       ?has_flag@?$output_processor@DV?$stream_output_adapter@D@__crt_stdio_output@@V?$standard_base@DV?$stream_output_adapter@D@__crt_stdio_output@@@2@@__crt_stdio_output@@AEBA_NI@Z 0000000180071760 f i libucrtd:output.obj
 0001:000707a0       ?has_flag@?$output_processor@DV?$string_output_adapter@D@__crt_stdio_output@@V?$format_validation_base@DV?$string_output_adapter@D@__crt_stdio_output@@@2@@__crt_stdio_output@@AEBA_NI@Z 00000001800717a0 f i libucrtd:output.obj
 0001:000707e0       ?has_flag@?$output_processor@DV?$string_output_adapter@D@__crt_stdio_output@@V?$positional_parameter_base@DV?$string_output_adapter@D@__crt_stdio_output@@@2@@__crt_stdio_output@@AEBA_NI@Z 00000001800717e0 f i libucrtd:output.obj
 0001:00070820       ?has_flag@?$output_processor@DV?$string_output_adapter@D@__crt_stdio_output@@V?$standard_base@DV?$string_output_adapter@D@__crt_stdio_output@@@2@@__crt_stdio_output@@AEBA_NI@Z 0000000180071820 f i libucrtd:output.obj
 0001:00070860       ?has_flag@?$output_processor@_WV?$stream_output_adapter@_W@__crt_stdio_output@@V?$format_validation_base@_WV?$stream_output_adapter@_W@__crt_stdio_output@@@2@@__crt_stdio_output@@AEBA_NI@Z 0000000180071860 f i libucrtd:output.obj
 0001:000708a0       ?has_flag@?$output_processor@_WV?$stream_output_adapter@_W@__crt_stdio_output@@V?$positional_parameter_base@_WV?$stream_output_adapter@_W@__crt_stdio_output@@@2@@__crt_stdio_output@@AEBA_NI@Z 00000001800718a0 f i libucrtd:output.obj
 0001:000708e0       ?has_flag@?$output_processor@_WV?$stream_output_adapter@_W@__crt_stdio_output@@V?$standard_base@_WV?$stream_output_adapter@_W@__crt_stdio_output@@@2@@__crt_stdio_output@@AEBA_NI@Z 00000001800718e0 f i libucrtd:output.obj
 0001:00070920       ?has_flag@?$output_processor@_WV?$string_output_adapter@_W@__crt_stdio_output@@V?$format_validation_base@_WV?$string_output_adapter@_W@__crt_stdio_output@@@2@@__crt_stdio_output@@AEBA_NI@Z 0000000180071920 f i libucrtd:output.obj
 0001:00070960       ?has_flag@?$output_processor@_WV?$string_output_adapter@_W@__crt_stdio_output@@V?$positional_parameter_base@_WV?$string_output_adapter@_W@__crt_stdio_output@@@2@@__crt_stdio_output@@AEBA_NI@Z 0000000180071960 f i libucrtd:output.obj
 0001:000709a0       ?has_flag@?$output_processor@_WV?$string_output_adapter@_W@__crt_stdio_output@@V?$standard_base@_WV?$string_output_adapter@_W@__crt_stdio_output@@@2@@__crt_stdio_output@@AEBA_NI@Z 00000001800719a0 f i libucrtd:output.obj
 0001:000709e0       ?is_positional_parameter_reappearance_consistent@?$positional_parameter_base@DV?$stream_output_adapter@D@__crt_stdio_output@@@__crt_stdio_output@@AEAA_NAEBUparameter_data@12@W4parameter_type@12@DW4length_modifier@2@@Z 00000001800719e0 f i libucrtd:output.obj
 0001:00070c40       ?is_positional_parameter_reappearance_consistent@?$positional_parameter_base@DV?$string_output_adapter@D@__crt_stdio_output@@@__crt_stdio_output@@AEAA_NAEBUparameter_data@12@W4parameter_type@12@DW4length_modifier@2@@Z 0000000180071c40 f i libucrtd:output.obj
 0001:00070ea0       ?is_positional_parameter_reappearance_consistent@?$positional_parameter_base@_WV?$stream_output_adapter@_W@__crt_stdio_output@@@__crt_stdio_output@@AEAA_NAEBUparameter_data@12@W4parameter_type@12@_WW4length_modifier@2@@Z 0000000180071ea0 f i libucrtd:output.obj
 0001:00071100       ?is_positional_parameter_reappearance_consistent@?$positional_parameter_base@_WV?$string_output_adapter@_W@__crt_stdio_output@@@__crt_stdio_output@@AEAA_NAEBUparameter_data@12@W4parameter_type@12@_WW4length_modifier@2@@Z 0000000180072100 f i libucrtd:output.obj
 0001:00071360       ?is_string_backed@__crt_stdio_stream@@QEBA_NXZ 0000000180072360 f i libucrtd:output.obj
 0001:000713a0       ?maximum_signed_value@__crt_strtox@@YAJK@Z 00000001800723a0 f i libucrtd:output.obj
 0001:000713b0       ?minimum_signed_value@__crt_strtox@@YAJK@Z 00000001800723b0 f i libucrtd:output.obj
 0001:000713c0       ?narrow_null_string@?$output_processor@DV?$stream_output_adapter@D@__crt_stdio_output@@V?$format_validation_base@DV?$stream_output_adapter@D@__crt_stdio_output@@@2@@__crt_stdio_output@@CAPEADXZ 00000001800723c0 f i libucrtd:output.obj
 0001:000713d0       ?narrow_null_string@?$output_processor@DV?$stream_output_adapter@D@__crt_stdio_output@@V?$positional_parameter_base@DV?$stream_output_adapter@D@__crt_stdio_output@@@2@@__crt_stdio_output@@CAPEADXZ 00000001800723d0 f i libucrtd:output.obj
 0001:000713e0       ?narrow_null_string@?$output_processor@DV?$stream_output_adapter@D@__crt_stdio_output@@V?$standard_base@DV?$stream_output_adapter@D@__crt_stdio_output@@@2@@__crt_stdio_output@@CAPEADXZ 00000001800723e0 f i libucrtd:output.obj
 0001:000713f0       ?narrow_null_string@?$output_processor@DV?$string_output_adapter@D@__crt_stdio_output@@V?$format_validation_base@DV?$string_output_adapter@D@__crt_stdio_output@@@2@@__crt_stdio_output@@CAPEADXZ 00000001800723f0 f i libucrtd:output.obj
 0001:00071400       ?narrow_null_string@?$output_processor@DV?$string_output_adapter@D@__crt_stdio_output@@V?$positional_parameter_base@DV?$string_output_adapter@D@__crt_stdio_output@@@2@@__crt_stdio_output@@CAPEADXZ 0000000180072400 f i libucrtd:output.obj
 0001:00071410       ?narrow_null_string@?$output_processor@DV?$string_output_adapter@D@__crt_stdio_output@@V?$standard_base@DV?$string_output_adapter@D@__crt_stdio_output@@@2@@__crt_stdio_output@@CAPEADXZ 0000000180072410 f i libucrtd:output.obj
 0001:00071420       ?narrow_null_string@?$output_processor@_WV?$stream_output_adapter@_W@__crt_stdio_output@@V?$format_validation_base@_WV?$stream_output_adapter@_W@__crt_stdio_output@@@2@@__crt_stdio_output@@CAPEADXZ 0000000180072420 f i libucrtd:output.obj
 0001:00071430       ?narrow_null_string@?$output_processor@_WV?$stream_output_adapter@_W@__crt_stdio_output@@V?$positional_parameter_base@_WV?$stream_output_adapter@_W@__crt_stdio_output@@@2@@__crt_stdio_output@@CAPEADXZ 0000000180072430 f i libucrtd:output.obj
 0001:00071440       ?narrow_null_string@?$output_processor@_WV?$stream_output_adapter@_W@__crt_stdio_output@@V?$standard_base@_WV?$stream_output_adapter@_W@__crt_stdio_output@@@2@@__crt_stdio_output@@CAPEADXZ 0000000180072440 f i libucrtd:output.obj
 0001:00071450       ?narrow_null_string@?$output_processor@_WV?$string_output_adapter@_W@__crt_stdio_output@@V?$format_validation_base@_WV?$string_output_adapter@_W@__crt_stdio_output@@@2@@__crt_stdio_output@@CAPEADXZ 0000000180072450 f i libucrtd:output.obj
 0001:00071460       ?narrow_null_string@?$output_processor@_WV?$string_output_adapter@_W@__crt_stdio_output@@V?$positional_parameter_base@_WV?$string_output_adapter@_W@__crt_stdio_output@@@2@@__crt_stdio_output@@CAPEADXZ 0000000180072460 f i libucrtd:output.obj
 0001:00071470       ?narrow_null_string@?$output_processor@_WV?$string_output_adapter@_W@__crt_stdio_output@@V?$standard_base@_WV?$string_output_adapter@_W@__crt_stdio_output@@@2@@__crt_stdio_output@@CAPEADXZ 0000000180072470 f i libucrtd:output.obj
 0001:00071480       ?parse_digit@__crt_strtox@@YAID@Z 0000000180072480 f i libucrtd:output.obj
 0001:000714f0       ?parse_digit@__crt_strtox@@YAI_W@Z 00000001800724f0 f i libucrtd:output.obj
 0001:00071540       ?parse_int_from_format_string@?$output_processor@DV?$stream_output_adapter@D@__crt_stdio_output@@V?$format_validation_base@DV?$stream_output_adapter@D@__crt_stdio_output@@@2@@__crt_stdio_output@@AEAA_NQEAH@Z 0000000180072540 f i libucrtd:output.obj
 0001:00071640       ?parse_int_from_format_string@?$output_processor@DV?$stream_output_adapter@D@__crt_stdio_output@@V?$positional_parameter_base@DV?$stream_output_adapter@D@__crt_stdio_output@@@2@@__crt_stdio_output@@AEAA_NQEAH@Z 0000000180072640 f i libucrtd:output.obj
 0001:00071740       ?parse_int_from_format_string@?$output_processor@DV?$stream_output_adapter@D@__crt_stdio_output@@V?$standard_base@DV?$stream_output_adapter@D@__crt_stdio_output@@@2@@__crt_stdio_output@@AEAA_NQEAH@Z 0000000180072740 f i libucrtd:output.obj
 0001:00071840       ?parse_int_from_format_string@?$output_processor@DV?$string_output_adapter@D@__crt_stdio_output@@V?$format_validation_base@DV?$string_output_adapter@D@__crt_stdio_output@@@2@@__crt_stdio_output@@AEAA_NQEAH@Z 0000000180072840 f i libucrtd:output.obj
 0001:00071940       ?parse_int_from_format_string@?$output_processor@DV?$string_output_adapter@D@__crt_stdio_output@@V?$positional_parameter_base@DV?$string_output_adapter@D@__crt_stdio_output@@@2@@__crt_stdio_output@@AEAA_NQEAH@Z 0000000180072940 f i libucrtd:output.obj
 0001:00071a40       ?parse_int_from_format_string@?$output_processor@DV?$string_output_adapter@D@__crt_stdio_output@@V?$standard_base@DV?$string_output_adapter@D@__crt_stdio_output@@@2@@__crt_stdio_output@@AEAA_NQEAH@Z 0000000180072a40 f i libucrtd:output.obj
 0001:00071b40       ?parse_int_from_format_string@?$output_processor@_WV?$stream_output_adapter@_W@__crt_stdio_output@@V?$format_validation_base@_WV?$stream_output_adapter@_W@__crt_stdio_output@@@2@@__crt_stdio_output@@AEAA_NQEAH@Z 0000000180072b40 f i libucrtd:output.obj
 0001:00071c40       ?parse_int_from_format_string@?$output_processor@_WV?$stream_output_adapter@_W@__crt_stdio_output@@V?$positional_parameter_base@_WV?$stream_output_adapter@_W@__crt_stdio_output@@@2@@__crt_stdio_output@@AEAA_NQEAH@Z 0000000180072c40 f i libucrtd:output.obj
 0001:00071d40       ?parse_int_from_format_string@?$output_processor@_WV?$stream_output_adapter@_W@__crt_stdio_output@@V?$standard_base@_WV?$stream_output_adapter@_W@__crt_stdio_output@@@2@@__crt_stdio_output@@AEAA_NQEAH@Z 0000000180072d40 f i libucrtd:output.obj
 0001:00071e40       ?parse_int_from_format_string@?$output_processor@_WV?$string_output_adapter@_W@__crt_stdio_output@@V?$format_validation_base@_WV?$string_output_adapter@_W@__crt_stdio_output@@@2@@__crt_stdio_output@@AEAA_NQEAH@Z 0000000180072e40 f i libucrtd:output.obj
 0001:00071f40       ?parse_int_from_format_string@?$output_processor@_WV?$string_output_adapter@_W@__crt_stdio_output@@V?$positional_parameter_base@_WV?$string_output_adapter@_W@__crt_stdio_output@@@2@@__crt_stdio_output@@AEAA_NQEAH@Z 0000000180072f40 f i libucrtd:output.obj
 0001:00072040       ?parse_int_from_format_string@?$output_processor@_WV?$string_output_adapter@_W@__crt_stdio_output@@V?$standard_base@_WV?$string_output_adapter@_W@__crt_stdio_output@@@2@@__crt_stdio_output@@AEAA_NQEAH@Z 0000000180073040 f i libucrtd:output.obj
 0001:00072140       ?process@?$output_processor@DV?$stream_output_adapter@D@__crt_stdio_output@@V?$format_validation_base@DV?$stream_output_adapter@D@__crt_stdio_output@@@2@@__crt_stdio_output@@QEAAHXZ 0000000180073140 f i libucrtd:output.obj
 0001:00072500       ?process@?$output_processor@DV?$stream_output_adapter@D@__crt_stdio_output@@V?$positional_parameter_base@DV?$stream_output_adapter@D@__crt_stdio_output@@@2@@__crt_stdio_output@@QEAAHXZ 0000000180073500 f i libucrtd:output.obj
 0001:000728c0       ?process@?$output_processor@DV?$stream_output_adapter@D@__crt_stdio_output@@V?$standard_base@DV?$stream_output_adapter@D@__crt_stdio_output@@@2@@__crt_stdio_output@@QEAAHXZ 00000001800738c0 f i libucrtd:output.obj
 0001:00072c80       ?process@?$output_processor@DV?$string_output_adapter@D@__crt_stdio_output@@V?$format_validation_base@DV?$string_output_adapter@D@__crt_stdio_output@@@2@@__crt_stdio_output@@QEAAHXZ 0000000180073c80 f i libucrtd:output.obj
 0001:00073040       ?process@?$output_processor@DV?$string_output_adapter@D@__crt_stdio_output@@V?$positional_parameter_base@DV?$string_output_adapter@D@__crt_stdio_output@@@2@@__crt_stdio_output@@QEAAHXZ 0000000180074040 f i libucrtd:output.obj
 0001:00073400       ?process@?$output_processor@DV?$string_output_adapter@D@__crt_stdio_output@@V?$standard_base@DV?$string_output_adapter@D@__crt_stdio_output@@@2@@__crt_stdio_output@@QEAAHXZ 0000000180074400 f i libucrtd:output.obj
 0001:000737c0       ?process@?$output_processor@_WV?$stream_output_adapter@_W@__crt_stdio_output@@V?$format_validation_base@_WV?$stream_output_adapter@_W@__crt_stdio_output@@@2@@__crt_stdio_output@@QEAAHXZ 00000001800747c0 f i libucrtd:output.obj
 0001:00073b80       ?process@?$output_processor@_WV?$stream_output_adapter@_W@__crt_stdio_output@@V?$positional_parameter_base@_WV?$stream_output_adapter@_W@__crt_stdio_output@@@2@@__crt_stdio_output@@QEAAHXZ 0000000180074b80 f i libucrtd:output.obj
 0001:00073f40       ?process@?$output_processor@_WV?$stream_output_adapter@_W@__crt_stdio_output@@V?$standard_base@_WV?$stream_output_adapter@_W@__crt_stdio_output@@@2@@__crt_stdio_output@@QEAAHXZ 0000000180074f40 f i libucrtd:output.obj
 0001:00074300       ?process@?$output_processor@_WV?$string_output_adapter@_W@__crt_stdio_output@@V?$format_validation_base@_WV?$string_output_adapter@_W@__crt_stdio_output@@@2@@__crt_stdio_output@@QEAAHXZ 0000000180075300 f i libucrtd:output.obj
 0001:000746c0       ?process@?$output_processor@_WV?$string_output_adapter@_W@__crt_stdio_output@@V?$positional_parameter_base@_WV?$string_output_adapter@_W@__crt_stdio_output@@@2@@__crt_stdio_output@@QEAAHXZ 00000001800756c0 f i libucrtd:output.obj
 0001:00074a80       ?process@?$output_processor@_WV?$string_output_adapter@_W@__crt_stdio_output@@V?$standard_base@_WV?$string_output_adapter@_W@__crt_stdio_output@@@2@@__crt_stdio_output@@QEAAHXZ 0000000180075a80 f i libucrtd:output.obj
 0001:00074e40       ?public_stream@__crt_stdio_stream@@QEBAPEAU_iobuf@@XZ 0000000180075e40 f i libucrtd:output.obj
 0001:00074e50       ?restore_state@?$c_string_character_source@D@__crt_strtox@@QEAA_NQEBD@Z 0000000180075e50 f i libucrtd:output.obj
 0001:00074e70       ?restore_state@?$c_string_character_source@_W@__crt_strtox@@QEAA_NQEB_W@Z 0000000180075e70 f i libucrtd:output.obj
 0001:00074e90       ?save_state@?$c_string_character_source@D@__crt_strtox@@QEBAPEBDXZ 0000000180075e90 f i libucrtd:output.obj
 0001:00074ea0       ?save_state@?$c_string_character_source@_W@__crt_strtox@@QEBAPEB_WXZ 0000000180075ea0 f i libucrtd:output.obj
 0001:00074eb0       ?set@?$cached@H@__crt_cached_ptd_host@@QEAAHH@Z 0000000180075eb0 f i libucrtd:output.obj
 0001:00074ee0       ?set_flag@?$output_processor@DV?$stream_output_adapter@D@__crt_stdio_output@@V?$format_validation_base@DV?$stream_output_adapter@D@__crt_stdio_output@@@2@@__crt_stdio_output@@AEAAXI@Z 0000000180075ee0 f i libucrtd:output.obj
 0001:00074f00       ?set_flag@?$output_processor@DV?$stream_output_adapter@D@__crt_stdio_output@@V?$positional_parameter_base@DV?$stream_output_adapter@D@__crt_stdio_output@@@2@@__crt_stdio_output@@AEAAXI@Z 0000000180075f00 f i libucrtd:output.obj
 0001:00074f20       ?set_flag@?$output_processor@DV?$stream_output_adapter@D@__crt_stdio_output@@V?$standard_base@DV?$stream_output_adapter@D@__crt_stdio_output@@@2@@__crt_stdio_output@@AEAAXI@Z 0000000180075f20 f i libucrtd:output.obj
 0001:00074f40       ?set_flag@?$output_processor@DV?$string_output_adapter@D@__crt_stdio_output@@V?$format_validation_base@DV?$string_output_adapter@D@__crt_stdio_output@@@2@@__crt_stdio_output@@AEAAXI@Z 0000000180075f40 f i libucrtd:output.obj
 0001:00074f60       ?set_flag@?$output_processor@DV?$string_output_adapter@D@__crt_stdio_output@@V?$positional_parameter_base@DV?$string_output_adapter@D@__crt_stdio_output@@@2@@__crt_stdio_output@@AEAAXI@Z 0000000180075f60 f i libucrtd:output.obj
 0001:00074f80       ?set_flag@?$output_processor@DV?$string_output_adapter@D@__crt_stdio_output@@V?$standard_base@DV?$string_output_adapter@D@__crt_stdio_output@@@2@@__crt_stdio_output@@AEAAXI@Z 0000000180075f80 f i libucrtd:output.obj
 0001:00074fa0       ?set_flag@?$output_processor@_WV?$stream_output_adapter@_W@__crt_stdio_output@@V?$format_validation_base@_WV?$stream_output_adapter@_W@__crt_stdio_output@@@2@@__crt_stdio_output@@AEAAXI@Z 0000000180075fa0 f i libucrtd:output.obj
 0001:00074fc0       ?set_flag@?$output_processor@_WV?$stream_output_adapter@_W@__crt_stdio_output@@V?$positional_parameter_base@_WV?$stream_output_adapter@_W@__crt_stdio_output@@@2@@__crt_stdio_output@@AEAAXI@Z 0000000180075fc0 f i libucrtd:output.obj
 0001:00074fe0       ?set_flag@?$output_processor@_WV?$stream_output_adapter@_W@__crt_stdio_output@@V?$standard_base@_WV?$stream_output_adapter@_W@__crt_stdio_output@@@2@@__crt_stdio_output@@AEAAXI@Z 0000000180075fe0 f i libucrtd:output.obj
 0001:00075000       ?set_flag@?$output_processor@_WV?$string_output_adapter@_W@__crt_stdio_output@@V?$format_validation_base@_WV?$string_output_adapter@_W@__crt_stdio_output@@@2@@__crt_stdio_output@@AEAAXI@Z 0000000180076000 f i libucrtd:output.obj
 0001:00075020       ?set_flag@?$output_processor@_WV?$string_output_adapter@_W@__crt_stdio_output@@V?$positional_parameter_base@_WV?$string_output_adapter@_W@__crt_stdio_output@@@2@@__crt_stdio_output@@AEAAXI@Z 0000000180076020 f i libucrtd:output.obj
 0001:00075040       ?set_flag@?$output_processor@_WV?$string_output_adapter@_W@__crt_stdio_output@@V?$standard_base@_WV?$string_output_adapter@_W@__crt_stdio_output@@@2@@__crt_stdio_output@@AEAAXI@Z 0000000180076040 f i libucrtd:output.obj
 0001:00075060       ?should_format@?$positional_parameter_base@DV?$stream_output_adapter@D@__crt_stdio_output@@@__crt_stdio_output@@IEAA_NXZ 0000000180076060 f i libucrtd:output.obj
 0001:000750a0       ?should_format@?$positional_parameter_base@DV?$string_output_adapter@D@__crt_stdio_output@@@__crt_stdio_output@@IEAA_NXZ 00000001800760a0 f i libucrtd:output.obj
 0001:000750e0       ?should_format@?$positional_parameter_base@_WV?$stream_output_adapter@_W@__crt_stdio_output@@@__crt_stdio_output@@IEAA_NXZ 00000001800760e0 f i libucrtd:output.obj
 0001:00075120       ?should_format@?$positional_parameter_base@_WV?$string_output_adapter@_W@__crt_stdio_output@@@__crt_stdio_output@@IEAA_NXZ 0000000180076120 f i libucrtd:output.obj
 0001:00075160       ?should_format@?$standard_base@DV?$stream_output_adapter@D@__crt_stdio_output@@@__crt_stdio_output@@IEAA_NXZ 0000000180076160 f i libucrtd:output.obj
 0001:00075170       ?should_format@?$standard_base@DV?$string_output_adapter@D@__crt_stdio_output@@@__crt_stdio_output@@IEAA_NXZ 0000000180076170 f i libucrtd:output.obj
 0001:00075180       ?should_format@?$standard_base@_WV?$stream_output_adapter@_W@__crt_stdio_output@@@__crt_stdio_output@@IEAA_NXZ 0000000180076180 f i libucrtd:output.obj
 0001:00075190       ?should_format@?$standard_base@_WV?$string_output_adapter@_W@__crt_stdio_output@@@__crt_stdio_output@@IEAA_NXZ 0000000180076190 f i libucrtd:output.obj
 0001:000751a0       ?should_skip_normal_state_processing@?$positional_parameter_base@DV?$stream_output_adapter@D@__crt_stdio_output@@@__crt_stdio_output@@IEAA_NXZ 00000001800761a0 f i libucrtd:output.obj
 0001:000751f0       ?should_skip_normal_state_processing@?$positional_parameter_base@DV?$string_output_adapter@D@__crt_stdio_output@@@__crt_stdio_output@@IEAA_NXZ 00000001800761f0 f i libucrtd:output.obj
 0001:00075240       ?should_skip_normal_state_processing@?$positional_parameter_base@_WV?$stream_output_adapter@_W@__crt_stdio_output@@@__crt_stdio_output@@IEAA_NXZ 0000000180076240 f i libucrtd:output.obj
 0001:00075290       ?should_skip_normal_state_processing@?$positional_parameter_base@_WV?$string_output_adapter@_W@__crt_stdio_output@@@__crt_stdio_output@@IEAA_NXZ 0000000180076290 f i libucrtd:output.obj
 0001:000752e0       ?should_skip_normal_state_processing@?$standard_base@DV?$stream_output_adapter@D@__crt_stdio_output@@@__crt_stdio_output@@IEAA_NXZ 00000001800762e0 f i libucrtd:output.obj
 0001:000752f0       ?should_skip_normal_state_processing@?$standard_base@DV?$string_output_adapter@D@__crt_stdio_output@@@__crt_stdio_output@@IEAA_NXZ 00000001800762f0 f i libucrtd:output.obj
 0001:00075300       ?should_skip_normal_state_processing@?$standard_base@_WV?$stream_output_adapter@_W@__crt_stdio_output@@@__crt_stdio_output@@IEAA_NXZ 0000000180076300 f i libucrtd:output.obj
 0001:00075310       ?should_skip_normal_state_processing@?$standard_base@_WV?$string_output_adapter@_W@__crt_stdio_output@@@__crt_stdio_output@@IEAA_NXZ 0000000180076310 f i libucrtd:output.obj
 0001:00075320       ?should_skip_type_state_output@?$positional_parameter_base@DV?$stream_output_adapter@D@__crt_stdio_output@@@__crt_stdio_output@@IEBA_NXZ 0000000180076320 f i libucrtd:output.obj
 0001:00075360       ?should_skip_type_state_output@?$positional_parameter_base@DV?$string_output_adapter@D@__crt_stdio_output@@@__crt_stdio_output@@IEBA_NXZ 0000000180076360 f i libucrtd:output.obj
 0001:000753a0       ?should_skip_type_state_output@?$positional_parameter_base@_WV?$stream_output_adapter@_W@__crt_stdio_output@@@__crt_stdio_output@@IEBA_NXZ 00000001800763a0 f i libucrtd:output.obj
 0001:000753e0       ?should_skip_type_state_output@?$positional_parameter_base@_WV?$string_output_adapter@_W@__crt_stdio_output@@@__crt_stdio_output@@IEBA_NXZ 00000001800763e0 f i libucrtd:output.obj
 0001:00075420       ?should_skip_type_state_output@?$standard_base@DV?$stream_output_adapter@D@__crt_stdio_output@@@__crt_stdio_output@@IEBA_NXZ 0000000180076420 f i libucrtd:output.obj
 0001:00075430       ?should_skip_type_state_output@?$standard_base@DV?$string_output_adapter@D@__crt_stdio_output@@@__crt_stdio_output@@IEBA_NXZ 0000000180076430 f i libucrtd:output.obj
 0001:00075440       ?should_skip_type_state_output@?$standard_base@_WV?$stream_output_adapter@_W@__crt_stdio_output@@@__crt_stdio_output@@IEBA_NXZ 0000000180076440 f i libucrtd:output.obj
 0001:00075450       ?should_skip_type_state_output@?$standard_base@_WV?$string_output_adapter@_W@__crt_stdio_output@@@__crt_stdio_output@@IEBA_NXZ 0000000180076450 f i libucrtd:output.obj
 0001:00075460       ?state_case_dot@?$output_processor@DV?$stream_output_adapter@D@__crt_stdio_output@@V?$format_validation_base@DV?$stream_output_adapter@D@__crt_stdio_output@@@2@@__crt_stdio_output@@AEAA_NXZ 0000000180076460 f i libucrtd:output.obj
 0001:00075480       ?state_case_dot@?$output_processor@DV?$stream_output_adapter@D@__crt_stdio_output@@V?$positional_parameter_base@DV?$stream_output_adapter@D@__crt_stdio_output@@@2@@__crt_stdio_output@@AEAA_NXZ 0000000180076480 f i libucrtd:output.obj
 0001:000754a0       ?state_case_dot@?$output_processor@DV?$stream_output_adapter@D@__crt_stdio_output@@V?$standard_base@DV?$stream_output_adapter@D@__crt_stdio_output@@@2@@__crt_stdio_output@@AEAA_NXZ 00000001800764a0 f i libucrtd:output.obj
 0001:000754c0       ?state_case_dot@?$output_processor@DV?$string_output_adapter@D@__crt_stdio_output@@V?$format_validation_base@DV?$string_output_adapter@D@__crt_stdio_output@@@2@@__crt_stdio_output@@AEAA_NXZ 00000001800764c0 f i libucrtd:output.obj
 0001:000754e0       ?state_case_dot@?$output_processor@DV?$string_output_adapter@D@__crt_stdio_output@@V?$positional_parameter_base@DV?$string_output_adapter@D@__crt_stdio_output@@@2@@__crt_stdio_output@@AEAA_NXZ 00000001800764e0 f i libucrtd:output.obj
 0001:00075500       ?state_case_dot@?$output_processor@DV?$string_output_adapter@D@__crt_stdio_output@@V?$standard_base@DV?$string_output_adapter@D@__crt_stdio_output@@@2@@__crt_stdio_output@@AEAA_NXZ 0000000180076500 f i libucrtd:output.obj
 0001:00075520       ?state_case_dot@?$output_processor@_WV?$stream_output_adapter@_W@__crt_stdio_output@@V?$format_validation_base@_WV?$stream_output_adapter@_W@__crt_stdio_output@@@2@@__crt_stdio_output@@AEAA_NXZ 0000000180076520 f i libucrtd:output.obj
 0001:00075540       ?state_case_dot@?$output_processor@_WV?$stream_output_adapter@_W@__crt_stdio_output@@V?$positional_parameter_base@_WV?$stream_output_adapter@_W@__crt_stdio_output@@@2@@__crt_stdio_output@@AEAA_NXZ 0000000180076540 f i libucrtd:output.obj
 0001:00075560       ?state_case_dot@?$output_processor@_WV?$stream_output_adapter@_W@__crt_stdio_output@@V?$standard_base@_WV?$stream_output_adapter@_W@__crt_stdio_output@@@2@@__crt_stdio_output@@AEAA_NXZ 0000000180076560 f i libucrtd:output.obj
 0001:00075580       ?state_case_dot@?$output_processor@_WV?$string_output_adapter@_W@__crt_stdio_output@@V?$format_validation_base@_WV?$string_output_adapter@_W@__crt_stdio_output@@@2@@__crt_stdio_output@@AEAA_NXZ 0000000180076580 f i libucrtd:output.obj
 0001:000755a0       ?state_case_dot@?$output_processor@_WV?$string_output_adapter@_W@__crt_stdio_output@@V?$positional_parameter_base@_WV?$string_output_adapter@_W@__crt_stdio_output@@@2@@__crt_stdio_output@@AEAA_NXZ 00000001800765a0 f i libucrtd:output.obj
 0001:000755c0       ?state_case_dot@?$output_processor@_WV?$string_output_adapter@_W@__crt_stdio_output@@V?$standard_base@_WV?$string_output_adapter@_W@__crt_stdio_output@@@2@@__crt_stdio_output@@AEAA_NXZ 00000001800765c0 f i libucrtd:output.obj
 0001:000755e0       ?state_case_flag@?$output_processor@DV?$stream_output_adapter@D@__crt_stdio_output@@V?$format_validation_base@DV?$stream_output_adapter@D@__crt_stdio_output@@@2@@__crt_stdio_output@@AEAA_NXZ 00000001800765e0 f i libucrtd:output.obj
 0001:00075680       ?state_case_flag@?$output_processor@DV?$stream_output_adapter@D@__crt_stdio_output@@V?$positional_parameter_base@DV?$stream_output_adapter@D@__crt_stdio_output@@@2@@__crt_stdio_output@@AEAA_NXZ 0000000180076680 f i libucrtd:output.obj
 0001:00075720       ?state_case_flag@?$output_processor@DV?$stream_output_adapter@D@__crt_stdio_output@@V?$standard_base@DV?$stream_output_adapter@D@__crt_stdio_output@@@2@@__crt_stdio_output@@AEAA_NXZ 0000000180076720 f i libucrtd:output.obj
 0001:000757c0       ?state_case_flag@?$output_processor@DV?$string_output_adapter@D@__crt_stdio_output@@V?$format_validation_base@DV?$string_output_adapter@D@__crt_stdio_output@@@2@@__crt_stdio_output@@AEAA_NXZ 00000001800767c0 f i libucrtd:output.obj
 0001:00075860       ?state_case_flag@?$output_processor@DV?$string_output_adapter@D@__crt_stdio_output@@V?$positional_parameter_base@DV?$string_output_adapter@D@__crt_stdio_output@@@2@@__crt_stdio_output@@AEAA_NXZ 0000000180076860 f i libucrtd:output.obj
 0001:00075900       ?state_case_flag@?$output_processor@DV?$string_output_adapter@D@__crt_stdio_output@@V?$standard_base@DV?$string_output_adapter@D@__crt_stdio_output@@@2@@__crt_stdio_output@@AEAA_NXZ 0000000180076900 f i libucrtd:output.obj
 0001:000759a0       ?state_case_flag@?$output_processor@_WV?$stream_output_adapter@_W@__crt_stdio_output@@V?$format_validation_base@_WV?$stream_output_adapter@_W@__crt_stdio_output@@@2@@__crt_stdio_output@@AEAA_NXZ 00000001800769a0 f i libucrtd:output.obj
 0001:00075a40       ?state_case_flag@?$output_processor@_WV?$stream_output_adapter@_W@__crt_stdio_output@@V?$positional_parameter_base@_WV?$stream_output_adapter@_W@__crt_stdio_output@@@2@@__crt_stdio_output@@AEAA_NXZ 0000000180076a40 f i libucrtd:output.obj
 0001:00075ae0       ?state_case_flag@?$output_processor@_WV?$stream_output_adapter@_W@__crt_stdio_output@@V?$standard_base@_WV?$stream_output_adapter@_W@__crt_stdio_output@@@2@@__crt_stdio_output@@AEAA_NXZ 0000000180076ae0 f i libucrtd:output.obj
 0001:00075b80       ?state_case_flag@?$output_processor@_WV?$string_output_adapter@_W@__crt_stdio_output@@V?$format_validation_base@_WV?$string_output_adapter@_W@__crt_stdio_output@@@2@@__crt_stdio_output@@AEAA_NXZ 0000000180076b80 f i libucrtd:output.obj
 0001:00075c20       ?state_case_flag@?$output_processor@_WV?$string_output_adapter@_W@__crt_stdio_output@@V?$positional_parameter_base@_WV?$string_output_adapter@_W@__crt_stdio_output@@@2@@__crt_stdio_output@@AEAA_NXZ 0000000180076c20 f i libucrtd:output.obj
 0001:00075cc0       ?state_case_flag@?$output_processor@_WV?$string_output_adapter@_W@__crt_stdio_output@@V?$standard_base@_WV?$string_output_adapter@_W@__crt_stdio_output@@@2@@__crt_stdio_output@@AEAA_NXZ 0000000180076cc0 f i libucrtd:output.obj
 0001:00075d60       ?state_case_normal@?$output_processor@DV?$stream_output_adapter@D@__crt_stdio_output@@V?$format_validation_base@DV?$stream_output_adapter@D@__crt_stdio_output@@@2@@__crt_stdio_output@@AEAA_NXZ 0000000180076d60 f i libucrtd:output.obj
 0001:00075e60       ?state_case_normal@?$output_processor@DV?$stream_output_adapter@D@__crt_stdio_output@@V?$positional_parameter_base@DV?$stream_output_adapter@D@__crt_stdio_output@@@2@@__crt_stdio_output@@AEAA_NXZ 0000000180076e60 f i libucrtd:output.obj
 0001:00075f60       ?state_case_normal@?$output_processor@DV?$stream_output_adapter@D@__crt_stdio_output@@V?$standard_base@DV?$stream_output_adapter@D@__crt_stdio_output@@@2@@__crt_stdio_output@@AEAA_NXZ 0000000180076f60 f i libucrtd:output.obj
 0001:00076060       ?state_case_normal@?$output_processor@DV?$string_output_adapter@D@__crt_stdio_output@@V?$format_validation_base@DV?$string_output_adapter@D@__crt_stdio_output@@@2@@__crt_stdio_output@@AEAA_NXZ 0000000180077060 f i libucrtd:output.obj
 0001:00076160       ?state_case_normal@?$output_processor@DV?$string_output_adapter@D@__crt_stdio_output@@V?$positional_parameter_base@DV?$string_output_adapter@D@__crt_stdio_output@@@2@@__crt_stdio_output@@AEAA_NXZ 0000000180077160 f i libucrtd:output.obj
 0001:00076260       ?state_case_normal@?$output_processor@DV?$string_output_adapter@D@__crt_stdio_output@@V?$standard_base@DV?$string_output_adapter@D@__crt_stdio_output@@@2@@__crt_stdio_output@@AEAA_NXZ 0000000180077260 f i libucrtd:output.obj
 0001:00076360       ?state_case_normal@?$output_processor@_WV?$stream_output_adapter@_W@__crt_stdio_output@@V?$format_validation_base@_WV?$stream_output_adapter@_W@__crt_stdio_output@@@2@@__crt_stdio_output@@AEAA_NXZ 0000000180077360 f i libucrtd:output.obj
 0001:00076460       ?state_case_normal@?$output_processor@_WV?$stream_output_adapter@_W@__crt_stdio_output@@V?$positional_parameter_base@_WV?$stream_output_adapter@_W@__crt_stdio_output@@@2@@__crt_stdio_output@@AEAA_NXZ 0000000180077460 f i libucrtd:output.obj
 0001:00076560       ?state_case_normal@?$output_processor@_WV?$stream_output_adapter@_W@__crt_stdio_output@@V?$standard_base@_WV?$stream_output_adapter@_W@__crt_stdio_output@@@2@@__crt_stdio_output@@AEAA_NXZ 0000000180077560 f i libucrtd:output.obj
 0001:00076660       ?state_case_normal@?$output_processor@_WV?$string_output_adapter@_W@__crt_stdio_output@@V?$format_validation_base@_WV?$string_output_adapter@_W@__crt_stdio_output@@@2@@__crt_stdio_output@@AEAA_NXZ 0000000180077660 f i libucrtd:output.obj
 0001:00076760       ?state_case_normal@?$output_processor@_WV?$string_output_adapter@_W@__crt_stdio_output@@V?$positional_parameter_base@_WV?$string_output_adapter@_W@__crt_stdio_output@@@2@@__crt_stdio_output@@AEAA_NXZ 0000000180077760 f i libucrtd:output.obj
 0001:00076860       ?state_case_normal@?$output_processor@_WV?$string_output_adapter@_W@__crt_stdio_output@@V?$standard_base@_WV?$string_output_adapter@_W@__crt_stdio_output@@@2@@__crt_stdio_output@@AEAA_NXZ 0000000180077860 f i libucrtd:output.obj
 0001:00076960       ?state_case_normal_common@?$output_processor@DV?$stream_output_adapter@D@__crt_stdio_output@@V?$format_validation_base@DV?$stream_output_adapter@D@__crt_stdio_output@@@2@@__crt_stdio_output@@AEAA_NXZ 0000000180077960 f i libucrtd:output.obj
 0001:000769c0       ?state_case_normal_common@?$output_processor@DV?$stream_output_adapter@D@__crt_stdio_output@@V?$positional_parameter_base@DV?$stream_output_adapter@D@__crt_stdio_output@@@2@@__crt_stdio_output@@AEAA_NXZ 00000001800779c0 f i libucrtd:output.obj
 0001:00076a20       ?state_case_normal_common@?$output_processor@DV?$stream_output_adapter@D@__crt_stdio_output@@V?$standard_base@DV?$stream_output_adapter@D@__crt_stdio_output@@@2@@__crt_stdio_output@@AEAA_NXZ 0000000180077a20 f i libucrtd:output.obj
 0001:00076a80       ?state_case_normal_common@?$output_processor@DV?$string_output_adapter@D@__crt_stdio_output@@V?$format_validation_base@DV?$string_output_adapter@D@__crt_stdio_output@@@2@@__crt_stdio_output@@AEAA_NXZ 0000000180077a80 f i libucrtd:output.obj
 0001:00076ae0       ?state_case_normal_common@?$output_processor@DV?$string_output_adapter@D@__crt_stdio_output@@V?$positional_parameter_base@DV?$string_output_adapter@D@__crt_stdio_output@@@2@@__crt_stdio_output@@AEAA_NXZ 0000000180077ae0 f i libucrtd:output.obj
 0001:00076b40       ?state_case_normal_common@?$output_processor@DV?$string_output_adapter@D@__crt_stdio_output@@V?$standard_base@DV?$string_output_adapter@D@__crt_stdio_output@@@2@@__crt_stdio_output@@AEAA_NXZ 0000000180077b40 f i libucrtd:output.obj
 0001:00076ba0       ?state_case_normal_common@?$output_processor@_WV?$stream_output_adapter@_W@__crt_stdio_output@@V?$format_validation_base@_WV?$stream_output_adapter@_W@__crt_stdio_output@@@2@@__crt_stdio_output@@AEAA_NXZ 0000000180077ba0 f i libucrtd:output.obj
 0001:00076c00       ?state_case_normal_common@?$output_processor@_WV?$stream_output_adapter@_W@__crt_stdio_output@@V?$positional_parameter_base@_WV?$stream_output_adapter@_W@__crt_stdio_output@@@2@@__crt_stdio_output@@AEAA_NXZ 0000000180077c00 f i libucrtd:output.obj
 0001:00076c60       ?state_case_normal_common@?$output_processor@_WV?$stream_output_adapter@_W@__crt_stdio_output@@V?$standard_base@_WV?$stream_output_adapter@_W@__crt_stdio_output@@@2@@__crt_stdio_output@@AEAA_NXZ 0000000180077c60 f i libucrtd:output.obj
 0001:00076cc0       ?state_case_normal_common@?$output_processor@_WV?$string_output_adapter@_W@__crt_stdio_output@@V?$format_validation_base@_WV?$string_output_adapter@_W@__crt_stdio_output@@@2@@__crt_stdio_output@@AEAA_NXZ 0000000180077cc0 f i libucrtd:output.obj
 0001:00076d20       ?state_case_normal_common@?$output_processor@_WV?$string_output_adapter@_W@__crt_stdio_output@@V?$positional_parameter_base@_WV?$string_output_adapter@_W@__crt_stdio_output@@@2@@__crt_stdio_output@@AEAA_NXZ 0000000180077d20 f i libucrtd:output.obj
 0001:00076d80       ?state_case_normal_common@?$output_processor@_WV?$string_output_adapter@_W@__crt_stdio_output@@V?$standard_base@_WV?$string_output_adapter@_W@__crt_stdio_output@@@2@@__crt_stdio_output@@AEAA_NXZ 0000000180077d80 f i libucrtd:output.obj
 0001:00076de0       ?state_case_normal_tchar@?$output_processor@DV?$stream_output_adapter@D@__crt_stdio_output@@V?$format_validation_base@DV?$stream_output_adapter@D@__crt_stdio_output@@@2@@__crt_stdio_output@@AEAA_ND@Z 0000000180077de0 f i libucrtd:output.obj
 0001:00076f70       ?state_case_normal_tchar@?$output_processor@DV?$stream_output_adapter@D@__crt_stdio_output@@V?$positional_parameter_base@DV?$stream_output_adapter@D@__crt_stdio_output@@@2@@__crt_stdio_output@@AEAA_ND@Z 0000000180077f70 f i libucrtd:output.obj
 0001:00077100       ?state_case_normal_tchar@?$output_processor@DV?$stream_output_adapter@D@__crt_stdio_output@@V?$standard_base@DV?$stream_output_adapter@D@__crt_stdio_output@@@2@@__crt_stdio_output@@AEAA_ND@Z 0000000180078100 f i libucrtd:output.obj
 0001:00077290       ?state_case_normal_tchar@?$output_processor@DV?$string_output_adapter@D@__crt_stdio_output@@V?$format_validation_base@DV?$string_output_adapter@D@__crt_stdio_output@@@2@@__crt_stdio_output@@AEAA_ND@Z 0000000180078290 f i libucrtd:output.obj
 0001:00077420       ?state_case_normal_tchar@?$output_processor@DV?$string_output_adapter@D@__crt_stdio_output@@V?$positional_parameter_base@DV?$string_output_adapter@D@__crt_stdio_output@@@2@@__crt_stdio_output@@AEAA_ND@Z 0000000180078420 f i libucrtd:output.obj
 0001:000775b0       ?state_case_normal_tchar@?$output_processor@DV?$string_output_adapter@D@__crt_stdio_output@@V?$standard_base@DV?$string_output_adapter@D@__crt_stdio_output@@@2@@__crt_stdio_output@@AEAA_ND@Z 00000001800785b0 f i libucrtd:output.obj
 0001:00077740       ?state_case_normal_tchar@?$output_processor@_WV?$stream_output_adapter@_W@__crt_stdio_output@@V?$format_validation_base@_WV?$stream_output_adapter@_W@__crt_stdio_output@@@2@@__crt_stdio_output@@AEAA_N_W@Z 0000000180078740 f i libucrtd:output.obj
 0001:00077760       ?state_case_normal_tchar@?$output_processor@_WV?$stream_output_adapter@_W@__crt_stdio_output@@V?$positional_parameter_base@_WV?$stream_output_adapter@_W@__crt_stdio_output@@@2@@__crt_stdio_output@@AEAA_N_W@Z 0000000180078760 f i libucrtd:output.obj
 0001:00077780       ?state_case_normal_tchar@?$output_processor@_WV?$stream_output_adapter@_W@__crt_stdio_output@@V?$standard_base@_WV?$stream_output_adapter@_W@__crt_stdio_output@@@2@@__crt_stdio_output@@AEAA_N_W@Z 0000000180078780 f i libucrtd:output.obj
 0001:000777a0       ?state_case_normal_tchar@?$output_processor@_WV?$string_output_adapter@_W@__crt_stdio_output@@V?$format_validation_base@_WV?$string_output_adapter@_W@__crt_stdio_output@@@2@@__crt_stdio_output@@AEAA_N_W@Z 00000001800787a0 f i libucrtd:output.obj
 0001:000777c0       ?state_case_normal_tchar@?$output_processor@_WV?$string_output_adapter@_W@__crt_stdio_output@@V?$positional_parameter_base@_WV?$string_output_adapter@_W@__crt_stdio_output@@@2@@__crt_stdio_output@@AEAA_N_W@Z 00000001800787c0 f i libucrtd:output.obj
 0001:000777e0       ?state_case_normal_tchar@?$output_processor@_WV?$string_output_adapter@_W@__crt_stdio_output@@V?$standard_base@_WV?$string_output_adapter@_W@__crt_stdio_output@@@2@@__crt_stdio_output@@AEAA_N_W@Z 00000001800787e0 f i libucrtd:output.obj
 0001:00077800       ?state_case_percent@?$output_processor@DV?$stream_output_adapter@D@__crt_stdio_output@@V?$format_validation_base@DV?$stream_output_adapter@D@__crt_stdio_output@@@2@@__crt_stdio_output@@AEAA_NXZ 0000000180078800 f i libucrtd:output.obj
 0001:00077850       ?state_case_percent@?$output_processor@DV?$stream_output_adapter@D@__crt_stdio_output@@V?$positional_parameter_base@DV?$stream_output_adapter@D@__crt_stdio_output@@@2@@__crt_stdio_output@@AEAA_NXZ 0000000180078850 f i libucrtd:output.obj
 0001:000778a0       ?state_case_percent@?$output_processor@DV?$stream_output_adapter@D@__crt_stdio_output@@V?$standard_base@DV?$stream_output_adapter@D@__crt_stdio_output@@@2@@__crt_stdio_output@@AEAA_NXZ 00000001800788a0 f i libucrtd:output.obj
 0001:000778f0       ?state_case_percent@?$output_processor@DV?$string_output_adapter@D@__crt_stdio_output@@V?$format_validation_base@DV?$string_output_adapter@D@__crt_stdio_output@@@2@@__crt_stdio_output@@AEAA_NXZ 00000001800788f0 f i libucrtd:output.obj
 0001:00077940       ?state_case_percent@?$output_processor@DV?$string_output_adapter@D@__crt_stdio_output@@V?$positional_parameter_base@DV?$string_output_adapter@D@__crt_stdio_output@@@2@@__crt_stdio_output@@AEAA_NXZ 0000000180078940 f i libucrtd:output.obj
 0001:00077990       ?state_case_percent@?$output_processor@DV?$string_output_adapter@D@__crt_stdio_output@@V?$standard_base@DV?$string_output_adapter@D@__crt_stdio_output@@@2@@__crt_stdio_output@@AEAA_NXZ 0000000180078990 f i libucrtd:output.obj
 0001:000779e0       ?state_case_percent@?$output_processor@_WV?$stream_output_adapter@_W@__crt_stdio_output@@V?$format_validation_base@_WV?$stream_output_adapter@_W@__crt_stdio_output@@@2@@__crt_stdio_output@@AEAA_NXZ 00000001800789e0 f i libucrtd:output.obj
 0001:00077a30       ?state_case_percent@?$output_processor@_WV?$stream_output_adapter@_W@__crt_stdio_output@@V?$positional_parameter_base@_WV?$stream_output_adapter@_W@__crt_stdio_output@@@2@@__crt_stdio_output@@AEAA_NXZ 0000000180078a30 f i libucrtd:output.obj
 0001:00077a80       ?state_case_percent@?$output_processor@_WV?$stream_output_adapter@_W@__crt_stdio_output@@V?$standard_base@_WV?$stream_output_adapter@_W@__crt_stdio_output@@@2@@__crt_stdio_output@@AEAA_NXZ 0000000180078a80 f i libucrtd:output.obj
 0001:00077ad0       ?state_case_percent@?$output_processor@_WV?$string_output_adapter@_W@__crt_stdio_output@@V?$format_validation_base@_WV?$string_output_adapter@_W@__crt_stdio_output@@@2@@__crt_stdio_output@@AEAA_NXZ 0000000180078ad0 f i libucrtd:output.obj
 0001:00077b20       ?state_case_percent@?$output_processor@_WV?$string_output_adapter@_W@__crt_stdio_output@@V?$positional_parameter_base@_WV?$string_output_adapter@_W@__crt_stdio_output@@@2@@__crt_stdio_output@@AEAA_NXZ 0000000180078b20 f i libucrtd:output.obj
 0001:00077b70       ?state_case_percent@?$output_processor@_WV?$string_output_adapter@_W@__crt_stdio_output@@V?$standard_base@_WV?$string_output_adapter@_W@__crt_stdio_output@@@2@@__crt_stdio_output@@AEAA_NXZ 0000000180078b70 f i libucrtd:output.obj
 0001:00077bc0       ?state_case_precision@?$output_processor@DV?$stream_output_adapter@D@__crt_stdio_output@@V?$format_validation_base@DV?$stream_output_adapter@D@__crt_stdio_output@@@2@@__crt_stdio_output@@AEAA_NXZ 0000000180078bc0 f i libucrtd:output.obj
 0001:00077c40       ?state_case_precision@?$output_processor@DV?$stream_output_adapter@D@__crt_stdio_output@@V?$positional_parameter_base@DV?$stream_output_adapter@D@__crt_stdio_output@@@2@@__crt_stdio_output@@AEAA_NXZ 0000000180078c40 f i libucrtd:output.obj
 0001:00077cc0       ?state_case_precision@?$output_processor@DV?$stream_output_adapter@D@__crt_stdio_output@@V?$standard_base@DV?$stream_output_adapter@D@__crt_stdio_output@@@2@@__crt_stdio_output@@AEAA_NXZ 0000000180078cc0 f i libucrtd:output.obj
 0001:00077d40       ?state_case_precision@?$output_processor@DV?$string_output_adapter@D@__crt_stdio_output@@V?$format_validation_base@DV?$string_output_adapter@D@__crt_stdio_output@@@2@@__crt_stdio_output@@AEAA_NXZ 0000000180078d40 f i libucrtd:output.obj
 0001:00077dc0       ?state_case_precision@?$output_processor@DV?$string_output_adapter@D@__crt_stdio_output@@V?$positional_parameter_base@DV?$string_output_adapter@D@__crt_stdio_output@@@2@@__crt_stdio_output@@AEAA_NXZ 0000000180078dc0 f i libucrtd:output.obj
 0001:00077e40       ?state_case_precision@?$output_processor@DV?$string_output_adapter@D@__crt_stdio_output@@V?$standard_base@DV?$string_output_adapter@D@__crt_stdio_output@@@2@@__crt_stdio_output@@AEAA_NXZ 0000000180078e40 f i libucrtd:output.obj
 0001:00077ec0       ?state_case_precision@?$output_processor@_WV?$stream_output_adapter@_W@__crt_stdio_output@@V?$format_validation_base@_WV?$stream_output_adapter@_W@__crt_stdio_output@@@2@@__crt_stdio_output@@AEAA_NXZ 0000000180078ec0 f i libucrtd:output.obj
 0001:00077f40       ?state_case_precision@?$output_processor@_WV?$stream_output_adapter@_W@__crt_stdio_output@@V?$positional_parameter_base@_WV?$stream_output_adapter@_W@__crt_stdio_output@@@2@@__crt_stdio_output@@AEAA_NXZ 0000000180078f40 f i libucrtd:output.obj
 0001:00077fc0       ?state_case_precision@?$output_processor@_WV?$stream_output_adapter@_W@__crt_stdio_output@@V?$standard_base@_WV?$stream_output_adapter@_W@__crt_stdio_output@@@2@@__crt_stdio_output@@AEAA_NXZ 0000000180078fc0 f i libucrtd:output.obj
 0001:00078040       ?state_case_precision@?$output_processor@_WV?$string_output_adapter@_W@__crt_stdio_output@@V?$format_validation_base@_WV?$string_output_adapter@_W@__crt_stdio_output@@@2@@__crt_stdio_output@@AEAA_NXZ 0000000180079040 f i libucrtd:output.obj
 0001:000780c0       ?state_case_precision@?$output_processor@_WV?$string_output_adapter@_W@__crt_stdio_output@@V?$positional_parameter_base@_WV?$string_output_adapter@_W@__crt_stdio_output@@@2@@__crt_stdio_output@@AEAA_NXZ 00000001800790c0 f i libucrtd:output.obj
 0001:00078140       ?state_case_precision@?$output_processor@_WV?$string_output_adapter@_W@__crt_stdio_output@@V?$standard_base@_WV?$string_output_adapter@_W@__crt_stdio_output@@@2@@__crt_stdio_output@@AEAA_NXZ 0000000180079140 f i libucrtd:output.obj
 0001:000781c0       ?state_case_size@?$output_processor@DV?$stream_output_adapter@D@__crt_stdio_output@@V?$format_validation_base@DV?$stream_output_adapter@D@__crt_stdio_output@@@2@@__crt_stdio_output@@AEAA_NXZ 00000001800791c0 f i libucrtd:output.obj
 0001:00078680       ?state_case_size@?$output_processor@DV?$stream_output_adapter@D@__crt_stdio_output@@V?$positional_parameter_base@DV?$stream_output_adapter@D@__crt_stdio_output@@@2@@__crt_stdio_output@@AEAA_NXZ 0000000180079680 f i libucrtd:output.obj
 0001:00078b40       ?state_case_size@?$output_processor@DV?$stream_output_adapter@D@__crt_stdio_output@@V?$standard_base@DV?$stream_output_adapter@D@__crt_stdio_output@@@2@@__crt_stdio_output@@AEAA_NXZ 0000000180079b40 f i libucrtd:output.obj
 0001:00079000       ?state_case_size@?$output_processor@DV?$string_output_adapter@D@__crt_stdio_output@@V?$format_validation_base@DV?$string_output_adapter@D@__crt_stdio_output@@@2@@__crt_stdio_output@@AEAA_NXZ 000000018007a000 f i libucrtd:output.obj
 0001:000794c0       ?state_case_size@?$output_processor@DV?$string_output_adapter@D@__crt_stdio_output@@V?$positional_parameter_base@DV?$string_output_adapter@D@__crt_stdio_output@@@2@@__crt_stdio_output@@AEAA_NXZ 000000018007a4c0 f i libucrtd:output.obj
 0001:00079980       ?state_case_size@?$output_processor@DV?$string_output_adapter@D@__crt_stdio_output@@V?$standard_base@DV?$string_output_adapter@D@__crt_stdio_output@@@2@@__crt_stdio_output@@AEAA_NXZ 000000018007a980 f i libucrtd:output.obj
 0001:00079e40       ?state_case_size@?$output_processor@_WV?$stream_output_adapter@_W@__crt_stdio_output@@V?$format_validation_base@_WV?$stream_output_adapter@_W@__crt_stdio_output@@@2@@__crt_stdio_output@@AEAA_NXZ 000000018007ae40 f i libucrtd:output.obj
 0001:0007a300       ?state_case_size@?$output_processor@_WV?$stream_output_adapter@_W@__crt_stdio_output@@V?$positional_parameter_base@_WV?$stream_output_adapter@_W@__crt_stdio_output@@@2@@__crt_stdio_output@@AEAA_NXZ 000000018007b300 f i libucrtd:output.obj
 0001:0007a7c0       ?state_case_size@?$output_processor@_WV?$stream_output_adapter@_W@__crt_stdio_output@@V?$standard_base@_WV?$stream_output_adapter@_W@__crt_stdio_output@@@2@@__crt_stdio_output@@AEAA_NXZ 000000018007b7c0 f i libucrtd:output.obj
 0001:0007ac80       ?state_case_size@?$output_processor@_WV?$string_output_adapter@_W@__crt_stdio_output@@V?$format_validation_base@_WV?$string_output_adapter@_W@__crt_stdio_output@@@2@@__crt_stdio_output@@AEAA_NXZ 000000018007bc80 f i libucrtd:output.obj
 0001:0007b140       ?state_case_size@?$output_processor@_WV?$string_output_adapter@_W@__crt_stdio_output@@V?$positional_parameter_base@_WV?$string_output_adapter@_W@__crt_stdio_output@@@2@@__crt_stdio_output@@AEAA_NXZ 000000018007c140 f i libucrtd:output.obj
 0001:0007b600       ?state_case_size@?$output_processor@_WV?$string_output_adapter@_W@__crt_stdio_output@@V?$standard_base@_WV?$string_output_adapter@_W@__crt_stdio_output@@@2@@__crt_stdio_output@@AEAA_NXZ 000000018007c600 f i libucrtd:output.obj
 0001:0007bac0       ?state_case_type@?$output_processor@DV?$stream_output_adapter@D@__crt_stdio_output@@V?$format_validation_base@DV?$stream_output_adapter@D@__crt_stdio_output@@@2@@__crt_stdio_output@@AEAA_NXZ 000000018007cac0 f i libucrtd:output.obj
 0001:0007bf80       ?state_case_type@?$output_processor@DV?$stream_output_adapter@D@__crt_stdio_output@@V?$positional_parameter_base@DV?$stream_output_adapter@D@__crt_stdio_output@@@2@@__crt_stdio_output@@AEAA_NXZ 000000018007cf80 f i libucrtd:output.obj
 0001:0007c440       ?state_case_type@?$output_processor@DV?$stream_output_adapter@D@__crt_stdio_output@@V?$standard_base@DV?$stream_output_adapter@D@__crt_stdio_output@@@2@@__crt_stdio_output@@AEAA_NXZ 000000018007d440 f i libucrtd:output.obj
 0001:0007c900       ?state_case_type@?$output_processor@DV?$string_output_adapter@D@__crt_stdio_output@@V?$format_validation_base@DV?$string_output_adapter@D@__crt_stdio_output@@@2@@__crt_stdio_output@@AEAA_NXZ 000000018007d900 f i libucrtd:output.obj
 0001:0007cdc0       ?state_case_type@?$output_processor@DV?$string_output_adapter@D@__crt_stdio_output@@V?$positional_parameter_base@DV?$string_output_adapter@D@__crt_stdio_output@@@2@@__crt_stdio_output@@AEAA_NXZ 000000018007ddc0 f i libucrtd:output.obj
 0001:0007d280       ?state_case_type@?$output_processor@DV?$string_output_adapter@D@__crt_stdio_output@@V?$standard_base@DV?$string_output_adapter@D@__crt_stdio_output@@@2@@__crt_stdio_output@@AEAA_NXZ 000000018007e280 f i libucrtd:output.obj
 0001:0007d740       ?state_case_type@?$output_processor@_WV?$stream_output_adapter@_W@__crt_stdio_output@@V?$format_validation_base@_WV?$stream_output_adapter@_W@__crt_stdio_output@@@2@@__crt_stdio_output@@AEAA_NXZ 000000018007e740 f i libucrtd:output.obj
 0001:0007dcd0       ?state_case_type@?$output_processor@_WV?$stream_output_adapter@_W@__crt_stdio_output@@V?$positional_parameter_base@_WV?$stream_output_adapter@_W@__crt_stdio_output@@@2@@__crt_stdio_output@@AEAA_NXZ 000000018007ecd0 f i libucrtd:output.obj
 0001:0007e260       ?state_case_type@?$output_processor@_WV?$stream_output_adapter@_W@__crt_stdio_output@@V?$standard_base@_WV?$stream_output_adapter@_W@__crt_stdio_output@@@2@@__crt_stdio_output@@AEAA_NXZ 000000018007f260 f i libucrtd:output.obj
 0001:0007e7f0       ?state_case_type@?$output_processor@_WV?$string_output_adapter@_W@__crt_stdio_output@@V?$format_validation_base@_WV?$string_output_adapter@_W@__crt_stdio_output@@@2@@__crt_stdio_output@@AEAA_NXZ 000000018007f7f0 f i libucrtd:output.obj
 0001:0007ed80       ?state_case_type@?$output_processor@_WV?$string_output_adapter@_W@__crt_stdio_output@@V?$positional_parameter_base@_WV?$string_output_adapter@_W@__crt_stdio_output@@@2@@__crt_stdio_output@@AEAA_NXZ 000000018007fd80 f i libucrtd:output.obj
 0001:0007f310       ?state_case_type@?$output_processor@_WV?$string_output_adapter@_W@__crt_stdio_output@@V?$standard_base@_WV?$string_output_adapter@_W@__crt_stdio_output@@@2@@__crt_stdio_output@@AEAA_NXZ 0000000180080310 f i libucrtd:output.obj
 0001:0007f8a0       ?state_case_width@?$output_processor@DV?$stream_output_adapter@D@__crt_stdio_output@@V?$format_validation_base@DV?$stream_output_adapter@D@__crt_stdio_output@@@2@@__crt_stdio_output@@AEAA_NXZ 00000001800808a0 f i libucrtd:output.obj
 0001:0007f930       ?state_case_width@?$output_processor@DV?$stream_output_adapter@D@__crt_stdio_output@@V?$positional_parameter_base@DV?$stream_output_adapter@D@__crt_stdio_output@@@2@@__crt_stdio_output@@AEAA_NXZ 0000000180080930 f i libucrtd:output.obj
 0001:0007f9c0       ?state_case_width@?$output_processor@DV?$stream_output_adapter@D@__crt_stdio_output@@V?$standard_base@DV?$stream_output_adapter@D@__crt_stdio_output@@@2@@__crt_stdio_output@@AEAA_NXZ 00000001800809c0 f i libucrtd:output.obj
 0001:0007fa50       ?state_case_width@?$output_processor@DV?$string_output_adapter@D@__crt_stdio_output@@V?$format_validation_base@DV?$string_output_adapter@D@__crt_stdio_output@@@2@@__crt_stdio_output@@AEAA_NXZ 0000000180080a50 f i libucrtd:output.obj
 0001:0007fae0       ?state_case_width@?$output_processor@DV?$string_output_adapter@D@__crt_stdio_output@@V?$positional_parameter_base@DV?$string_output_adapter@D@__crt_stdio_output@@@2@@__crt_stdio_output@@AEAA_NXZ 0000000180080ae0 f i libucrtd:output.obj
 0001:0007fb70       ?state_case_width@?$output_processor@DV?$string_output_adapter@D@__crt_stdio_output@@V?$standard_base@DV?$string_output_adapter@D@__crt_stdio_output@@@2@@__crt_stdio_output@@AEAA_NXZ 0000000180080b70 f i libucrtd:output.obj
 0001:0007fc00       ?state_case_width@?$output_processor@_WV?$stream_output_adapter@_W@__crt_stdio_output@@V?$format_validation_base@_WV?$stream_output_adapter@_W@__crt_stdio_output@@@2@@__crt_stdio_output@@AEAA_NXZ 0000000180080c00 f i libucrtd:output.obj
 0001:0007fc90       ?state_case_width@?$output_processor@_WV?$stream_output_adapter@_W@__crt_stdio_output@@V?$positional_parameter_base@_WV?$stream_output_adapter@_W@__crt_stdio_output@@@2@@__crt_stdio_output@@AEAA_NXZ 0000000180080c90 f i libucrtd:output.obj
 0001:0007fd20       ?state_case_width@?$output_processor@_WV?$stream_output_adapter@_W@__crt_stdio_output@@V?$standard_base@_WV?$stream_output_adapter@_W@__crt_stdio_output@@@2@@__crt_stdio_output@@AEAA_NXZ 0000000180080d20 f i libucrtd:output.obj
 0001:0007fdb0       ?state_case_width@?$output_processor@_WV?$string_output_adapter@_W@__crt_stdio_output@@V?$format_validation_base@_WV?$string_output_adapter@_W@__crt_stdio_output@@@2@@__crt_stdio_output@@AEAA_NXZ 0000000180080db0 f i libucrtd:output.obj
 0001:0007fe40       ?state_case_width@?$output_processor@_WV?$string_output_adapter@_W@__crt_stdio_output@@V?$positional_parameter_base@_WV?$string_output_adapter@_W@__crt_stdio_output@@@2@@__crt_stdio_output@@AEAA_NXZ 0000000180080e40 f i libucrtd:output.obj
 0001:0007fed0       ?state_case_width@?$output_processor@_WV?$string_output_adapter@_W@__crt_stdio_output@@V?$standard_base@_WV?$string_output_adapter@_W@__crt_stdio_output@@@2@@__crt_stdio_output@@AEAA_NXZ 0000000180080ed0 f i libucrtd:output.obj
 0001:0007ff60       ?state_count@?$format_validation_base@DV?$stream_output_adapter@D@__crt_stdio_output@@@__crt_stdio_output@@KAIXZ 0000000180080f60 f i libucrtd:output.obj
 0001:0007ff70       ?state_count@?$format_validation_base@DV?$string_output_adapter@D@__crt_stdio_output@@@__crt_stdio_output@@KAIXZ 0000000180080f70 f i libucrtd:output.obj
 0001:0007ff80       ?state_count@?$format_validation_base@_WV?$stream_output_adapter@_W@__crt_stdio_output@@@__crt_stdio_output@@KAIXZ 0000000180080f80 f i libucrtd:output.obj
 0001:0007ff90       ?state_count@?$format_validation_base@_WV?$string_output_adapter@_W@__crt_stdio_output@@@__crt_stdio_output@@KAIXZ 0000000180080f90 f i libucrtd:output.obj
 0001:0007ffa0       ?state_count@?$standard_base@DV?$stream_output_adapter@D@__crt_stdio_output@@@__crt_stdio_output@@KAIXZ 0000000180080fa0 f i libucrtd:output.obj
 0001:0007ffb0       ?state_count@?$standard_base@DV?$string_output_adapter@D@__crt_stdio_output@@@__crt_stdio_output@@KAIXZ 0000000180080fb0 f i libucrtd:output.obj
 0001:0007ffc0       ?state_count@?$standard_base@_WV?$stream_output_adapter@_W@__crt_stdio_output@@@__crt_stdio_output@@KAIXZ 0000000180080fc0 f i libucrtd:output.obj
 0001:0007ffd0       ?state_count@?$standard_base@_WV?$string_output_adapter@_W@__crt_stdio_output@@@__crt_stdio_output@@KAIXZ 0000000180080fd0 f i libucrtd:output.obj
 0001:0007ffe0       ?state_transition_table@?$format_validation_base@DV?$stream_output_adapter@D@__crt_stdio_output@@@__crt_stdio_output@@KAAEBV?$spectre_mitigated_lookup_table@Ustate_transition_pair@__crt_stdio_output@@$0IA@@2@XZ 0000000180080fe0 f i libucrtd:output.obj
 0001:0007fff0       ?state_transition_table@?$format_validation_base@DV?$string_output_adapter@D@__crt_stdio_output@@@__crt_stdio_output@@KAAEBV?$spectre_mitigated_lookup_table@Ustate_transition_pair@__crt_stdio_output@@$0IA@@2@XZ 0000000180080ff0 f i libucrtd:output.obj
 0001:00080000       ?state_transition_table@?$format_validation_base@_WV?$stream_output_adapter@_W@__crt_stdio_output@@@__crt_stdio_output@@KAAEBV?$spectre_mitigated_lookup_table@Ustate_transition_pair@__crt_stdio_output@@$0IA@@2@XZ 0000000180081000 f i libucrtd:output.obj
 0001:00080010       ?state_transition_table@?$format_validation_base@_WV?$string_output_adapter@_W@__crt_stdio_output@@@__crt_stdio_output@@KAAEBV?$spectre_mitigated_lookup_table@Ustate_transition_pair@__crt_stdio_output@@$0IA@@2@XZ 0000000180081010 f i libucrtd:output.obj
 0001:00080020       ?state_transition_table@?$standard_base@DV?$stream_output_adapter@D@__crt_stdio_output@@@__crt_stdio_output@@KAAEBV?$spectre_mitigated_lookup_table@Ustate_transition_pair@__crt_stdio_output@@$0IA@@2@XZ 0000000180081020 f i libucrtd:output.obj
 0001:00080030       ?state_transition_table@?$standard_base@DV?$string_output_adapter@D@__crt_stdio_output@@@__crt_stdio_output@@KAAEBV?$spectre_mitigated_lookup_table@Ustate_transition_pair@__crt_stdio_output@@$0IA@@2@XZ 0000000180081030 f i libucrtd:output.obj
 0001:00080040       ?state_transition_table@?$standard_base@_WV?$stream_output_adapter@_W@__crt_stdio_output@@@__crt_stdio_output@@KAAEBV?$spectre_mitigated_lookup_table@Ustate_transition_pair@__crt_stdio_output@@$0IA@@2@XZ 0000000180081040 f i libucrtd:output.obj
 0001:00080050       ?state_transition_table@?$standard_base@_WV?$string_output_adapter@_W@__crt_stdio_output@@@__crt_stdio_output@@KAAEBV?$spectre_mitigated_lookup_table@Ustate_transition_pair@__crt_stdio_output@@$0IA@@2@XZ 0000000180081050 f i libucrtd:output.obj
 0001:00080060       ?tchar_string@?$common_data@D@__crt_stdio_output@@IEAAAEAPEADD@Z 0000000180081060 f i libucrtd:output.obj
 0001:00080080       ?tchar_string@?$common_data@D@__crt_stdio_output@@IEAAAEAPEADXZ 0000000180081080 f i libucrtd:output.obj
 0001:000800a0       ?tchar_string@?$common_data@_W@__crt_stdio_output@@IEAAAEAPEA_WXZ 00000001800810a0 f i libucrtd:output.obj
 0001:000800c0       ?tchar_string@?$common_data@_W@__crt_stdio_output@@IEAAAEAPEA_W_W@Z 00000001800810c0 f i libucrtd:output.obj
 0001:000800e0       ?to_integer_size@__crt_stdio_output@@YA_KW4length_modifier@1@@Z 00000001800810e0 f i libucrtd:output.obj
 0001:00080190       ?type_case_X@?$output_processor@DV?$stream_output_adapter@D@__crt_stdio_output@@V?$format_validation_base@DV?$stream_output_adapter@D@__crt_stdio_output@@@2@@__crt_stdio_output@@AEAA_NXZ 0000000180081190 f i libucrtd:output.obj
 0001:000801b0       ?type_case_X@?$output_processor@DV?$stream_output_adapter@D@__crt_stdio_output@@V?$positional_parameter_base@DV?$stream_output_adapter@D@__crt_stdio_output@@@2@@__crt_stdio_output@@AEAA_NXZ 00000001800811b0 f i libucrtd:output.obj
 0001:000801d0       ?type_case_X@?$output_processor@DV?$stream_output_adapter@D@__crt_stdio_output@@V?$standard_base@DV?$stream_output_adapter@D@__crt_stdio_output@@@2@@__crt_stdio_output@@AEAA_NXZ 00000001800811d0 f i libucrtd:output.obj
 0001:000801f0       ?type_case_X@?$output_processor@DV?$string_output_adapter@D@__crt_stdio_output@@V?$format_validation_base@DV?$string_output_adapter@D@__crt_stdio_output@@@2@@__crt_stdio_output@@AEAA_NXZ 00000001800811f0 f i libucrtd:output.obj
 0001:00080210       ?type_case_X@?$output_processor@DV?$string_output_adapter@D@__crt_stdio_output@@V?$positional_parameter_base@DV?$string_output_adapter@D@__crt_stdio_output@@@2@@__crt_stdio_output@@AEAA_NXZ 0000000180081210 f i libucrtd:output.obj
 0001:00080230       ?type_case_X@?$output_processor@DV?$string_output_adapter@D@__crt_stdio_output@@V?$standard_base@DV?$string_output_adapter@D@__crt_stdio_output@@@2@@__crt_stdio_output@@AEAA_NXZ 0000000180081230 f i libucrtd:output.obj
 0001:00080250       ?type_case_X@?$output_processor@_WV?$stream_output_adapter@_W@__crt_stdio_output@@V?$format_validation_base@_WV?$stream_output_adapter@_W@__crt_stdio_output@@@2@@__crt_stdio_output@@AEAA_NXZ 0000000180081250 f i libucrtd:output.obj
 0001:00080270       ?type_case_X@?$output_processor@_WV?$stream_output_adapter@_W@__crt_stdio_output@@V?$positional_parameter_base@_WV?$stream_output_adapter@_W@__crt_stdio_output@@@2@@__crt_stdio_output@@AEAA_NXZ 0000000180081270 f i libucrtd:output.obj
 0001:00080290       ?type_case_X@?$output_processor@_WV?$stream_output_adapter@_W@__crt_stdio_output@@V?$standard_base@_WV?$stream_output_adapter@_W@__crt_stdio_output@@@2@@__crt_stdio_output@@AEAA_NXZ 0000000180081290 f i libucrtd:output.obj
 0001:000802b0       ?type_case_X@?$output_processor@_WV?$string_output_adapter@_W@__crt_stdio_output@@V?$format_validation_base@_WV?$string_output_adapter@_W@__crt_stdio_output@@@2@@__crt_stdio_output@@AEAA_NXZ 00000001800812b0 f i libucrtd:output.obj
 0001:000802d0       ?type_case_X@?$output_processor@_WV?$string_output_adapter@_W@__crt_stdio_output@@V?$positional_parameter_base@_WV?$string_output_adapter@_W@__crt_stdio_output@@@2@@__crt_stdio_output@@AEAA_NXZ 00000001800812d0 f i libucrtd:output.obj
 0001:000802f0       ?type_case_X@?$output_processor@_WV?$string_output_adapter@_W@__crt_stdio_output@@V?$standard_base@_WV?$string_output_adapter@_W@__crt_stdio_output@@@2@@__crt_stdio_output@@AEAA_NXZ 00000001800812f0 f i libucrtd:output.obj
 0001:00080310       ?type_case_Z@?$output_processor@DV?$stream_output_adapter@D@__crt_stdio_output@@V?$format_validation_base@DV?$stream_output_adapter@D@__crt_stdio_output@@@2@@__crt_stdio_output@@AEAA_NXZ 0000000180081310 f i libucrtd:output.obj
 0001:00080430       ?type_case_Z@?$output_processor@DV?$stream_output_adapter@D@__crt_stdio_output@@V?$positional_parameter_base@DV?$stream_output_adapter@D@__crt_stdio_output@@@2@@__crt_stdio_output@@AEAA_NXZ 0000000180081430 f i libucrtd:output.obj
 0001:00080550       ?type_case_Z@?$output_processor@DV?$stream_output_adapter@D@__crt_stdio_output@@V?$standard_base@DV?$stream_output_adapter@D@__crt_stdio_output@@@2@@__crt_stdio_output@@AEAA_NXZ 0000000180081550 f i libucrtd:output.obj
 0001:00080670       ?type_case_Z@?$output_processor@DV?$string_output_adapter@D@__crt_stdio_output@@V?$format_validation_base@DV?$string_output_adapter@D@__crt_stdio_output@@@2@@__crt_stdio_output@@AEAA_NXZ 0000000180081670 f i libucrtd:output.obj
 0001:00080790       ?type_case_Z@?$output_processor@DV?$string_output_adapter@D@__crt_stdio_output@@V?$positional_parameter_base@DV?$string_output_adapter@D@__crt_stdio_output@@@2@@__crt_stdio_output@@AEAA_NXZ 0000000180081790 f i libucrtd:output.obj
 0001:000808b0       ?type_case_Z@?$output_processor@DV?$string_output_adapter@D@__crt_stdio_output@@V?$standard_base@DV?$string_output_adapter@D@__crt_stdio_output@@@2@@__crt_stdio_output@@AEAA_NXZ 00000001800818b0 f i libucrtd:output.obj
 0001:000809d0       ?type_case_Z@?$output_processor@_WV?$stream_output_adapter@_W@__crt_stdio_output@@V?$format_validation_base@_WV?$stream_output_adapter@_W@__crt_stdio_output@@@2@@__crt_stdio_output@@AEAA_NXZ 00000001800819d0 f i libucrtd:output.obj
 0001:00080af0       ?type_case_Z@?$output_processor@_WV?$stream_output_adapter@_W@__crt_stdio_output@@V?$positional_parameter_base@_WV?$stream_output_adapter@_W@__crt_stdio_output@@@2@@__crt_stdio_output@@AEAA_NXZ 0000000180081af0 f i libucrtd:output.obj
 0001:00080c10       ?type_case_Z@?$output_processor@_WV?$stream_output_adapter@_W@__crt_stdio_output@@V?$standard_base@_WV?$stream_output_adapter@_W@__crt_stdio_output@@@2@@__crt_stdio_output@@AEAA_NXZ 0000000180081c10 f i libucrtd:output.obj
 0001:00080d30       ?type_case_Z@?$output_processor@_WV?$string_output_adapter@_W@__crt_stdio_output@@V?$format_validation_base@_WV?$string_output_adapter@_W@__crt_stdio_output@@@2@@__crt_stdio_output@@AEAA_NXZ 0000000180081d30 f i libucrtd:output.obj
 0001:00080e50       ?type_case_Z@?$output_processor@_WV?$string_output_adapter@_W@__crt_stdio_output@@V?$positional_parameter_base@_WV?$string_output_adapter@_W@__crt_stdio_output@@@2@@__crt_stdio_output@@AEAA_NXZ 0000000180081e50 f i libucrtd:output.obj
 0001:00080f70       ?type_case_Z@?$output_processor@_WV?$string_output_adapter@_W@__crt_stdio_output@@V?$standard_base@_WV?$string_output_adapter@_W@__crt_stdio_output@@@2@@__crt_stdio_output@@AEAA_NXZ 0000000180081f70 f i libucrtd:output.obj
 0001:00081090       ?type_case_a@?$output_processor@DV?$stream_output_adapter@D@__crt_stdio_output@@V?$format_validation_base@DV?$stream_output_adapter@D@__crt_stdio_output@@@2@@__crt_stdio_output@@AEAA_NXZ 0000000180082090 f i libucrtd:output.obj
 0001:000814f0       ?type_case_a@?$output_processor@DV?$stream_output_adapter@D@__crt_stdio_output@@V?$positional_parameter_base@DV?$stream_output_adapter@D@__crt_stdio_output@@@2@@__crt_stdio_output@@AEAA_NXZ 00000001800824f0 f i libucrtd:output.obj
 0001:00081950       ?type_case_a@?$output_processor@DV?$stream_output_adapter@D@__crt_stdio_output@@V?$standard_base@DV?$stream_output_adapter@D@__crt_stdio_output@@@2@@__crt_stdio_output@@AEAA_NXZ 0000000180082950 f i libucrtd:output.obj
 0001:00081db0       ?type_case_a@?$output_processor@DV?$string_output_adapter@D@__crt_stdio_output@@V?$format_validation_base@DV?$string_output_adapter@D@__crt_stdio_output@@@2@@__crt_stdio_output@@AEAA_NXZ 0000000180082db0 f i libucrtd:output.obj
 0001:00082210       ?type_case_a@?$output_processor@DV?$string_output_adapter@D@__crt_stdio_output@@V?$positional_parameter_base@DV?$string_output_adapter@D@__crt_stdio_output@@@2@@__crt_stdio_output@@AEAA_NXZ 0000000180083210 f i libucrtd:output.obj
 0001:00082670       ?type_case_a@?$output_processor@DV?$string_output_adapter@D@__crt_stdio_output@@V?$standard_base@DV?$string_output_adapter@D@__crt_stdio_output@@@2@@__crt_stdio_output@@AEAA_NXZ 0000000180083670 f i libucrtd:output.obj
 0001:00082ad0       ?type_case_a@?$output_processor@_WV?$stream_output_adapter@_W@__crt_stdio_output@@V?$format_validation_base@_WV?$stream_output_adapter@_W@__crt_stdio_output@@@2@@__crt_stdio_output@@AEAA_NXZ 0000000180083ad0 f i libucrtd:output.obj
 0001:00082f40       ?type_case_a@?$output_processor@_WV?$stream_output_adapter@_W@__crt_stdio_output@@V?$positional_parameter_base@_WV?$stream_output_adapter@_W@__crt_stdio_output@@@2@@__crt_stdio_output@@AEAA_NXZ 0000000180083f40 f i libucrtd:output.obj
 0001:000833b0       ?type_case_a@?$output_processor@_WV?$stream_output_adapter@_W@__crt_stdio_output@@V?$standard_base@_WV?$stream_output_adapter@_W@__crt_stdio_output@@@2@@__crt_stdio_output@@AEAA_NXZ 00000001800843b0 f i libucrtd:output.obj
 0001:00083820       ?type_case_a@?$output_processor@_WV?$string_output_adapter@_W@__crt_stdio_output@@V?$format_validation_base@_WV?$string_output_adapter@_W@__crt_stdio_output@@@2@@__crt_stdio_output@@AEAA_NXZ 0000000180084820 f i libucrtd:output.obj
 0001:00083c90       ?type_case_a@?$output_processor@_WV?$string_output_adapter@_W@__crt_stdio_output@@V?$positional_parameter_base@_WV?$string_output_adapter@_W@__crt_stdio_output@@@2@@__crt_stdio_output@@AEAA_NXZ 0000000180084c90 f i libucrtd:output.obj
 0001:00084100       ?type_case_a@?$output_processor@_WV?$string_output_adapter@_W@__crt_stdio_output@@V?$standard_base@_WV?$string_output_adapter@_W@__crt_stdio_output@@@2@@__crt_stdio_output@@AEAA_NXZ 0000000180085100 f i libucrtd:output.obj
 0001:00084570       ?type_case_c@?$output_processor@DV?$stream_output_adapter@D@__crt_stdio_output@@V?$format_validation_base@DV?$stream_output_adapter@D@__crt_stdio_output@@@2@@__crt_stdio_output@@AEAA_NXZ 0000000180085570 f i libucrtd:output.obj
 0001:00084590       ?type_case_c@?$output_processor@DV?$stream_output_adapter@D@__crt_stdio_output@@V?$positional_parameter_base@DV?$stream_output_adapter@D@__crt_stdio_output@@@2@@__crt_stdio_output@@AEAA_NXZ 0000000180085590 f i libucrtd:output.obj
 0001:000845b0       ?type_case_c@?$output_processor@DV?$stream_output_adapter@D@__crt_stdio_output@@V?$standard_base@DV?$stream_output_adapter@D@__crt_stdio_output@@@2@@__crt_stdio_output@@AEAA_NXZ 00000001800855b0 f i libucrtd:output.obj
 0001:000845d0       ?type_case_c@?$output_processor@DV?$string_output_adapter@D@__crt_stdio_output@@V?$format_validation_base@DV?$string_output_adapter@D@__crt_stdio_output@@@2@@__crt_stdio_output@@AEAA_NXZ 00000001800855d0 f i libucrtd:output.obj
 0001:000845f0       ?type_case_c@?$output_processor@DV?$string_output_adapter@D@__crt_stdio_output@@V?$positional_parameter_base@DV?$string_output_adapter@D@__crt_stdio_output@@@2@@__crt_stdio_output@@AEAA_NXZ 00000001800855f0 f i libucrtd:output.obj
 0001:00084610       ?type_case_c@?$output_processor@DV?$string_output_adapter@D@__crt_stdio_output@@V?$standard_base@DV?$string_output_adapter@D@__crt_stdio_output@@@2@@__crt_stdio_output@@AEAA_NXZ 0000000180085610 f i libucrtd:output.obj
 0001:00084630       ?type_case_c@?$output_processor@_WV?$stream_output_adapter@_W@__crt_stdio_output@@V?$format_validation_base@_WV?$stream_output_adapter@_W@__crt_stdio_output@@@2@@__crt_stdio_output@@AEAA_NXZ 0000000180085630 f i libucrtd:output.obj
 0001:00084650       ?type_case_c@?$output_processor@_WV?$stream_output_adapter@_W@__crt_stdio_output@@V?$positional_parameter_base@_WV?$stream_output_adapter@_W@__crt_stdio_output@@@2@@__crt_stdio_output@@AEAA_NXZ 0000000180085650 f i libucrtd:output.obj
 0001:00084670       ?type_case_c@?$output_processor@_WV?$stream_output_adapter@_W@__crt_stdio_output@@V?$standard_base@_WV?$stream_output_adapter@_W@__crt_stdio_output@@@2@@__crt_stdio_output@@AEAA_NXZ 0000000180085670 f i libucrtd:output.obj
 0001:00084690       ?type_case_c@?$output_processor@_WV?$string_output_adapter@_W@__crt_stdio_output@@V?$format_validation_base@_WV?$string_output_adapter@_W@__crt_stdio_output@@@2@@__crt_stdio_output@@AEAA_NXZ 0000000180085690 f i libucrtd:output.obj
 0001:000846b0       ?type_case_c@?$output_processor@_WV?$string_output_adapter@_W@__crt_stdio_output@@V?$positional_parameter_base@_WV?$string_output_adapter@_W@__crt_stdio_output@@@2@@__crt_stdio_output@@AEAA_NXZ 00000001800856b0 f i libucrtd:output.obj
 0001:000846d0       ?type_case_c@?$output_processor@_WV?$string_output_adapter@_W@__crt_stdio_output@@V?$standard_base@_WV?$string_output_adapter@_W@__crt_stdio_output@@@2@@__crt_stdio_output@@AEAA_NXZ 00000001800856d0 f i libucrtd:output.obj
 0001:000846f0       ?type_case_c_tchar@?$output_processor@DV?$stream_output_adapter@D@__crt_stdio_output@@V?$format_validation_base@DV?$stream_output_adapter@D@__crt_stdio_output@@@2@@__crt_stdio_output@@AEAA_ND@Z 00000001800856f0 f i libucrtd:output.obj
 0001:00084860       ?type_case_c_tchar@?$output_processor@DV?$stream_output_adapter@D@__crt_stdio_output@@V?$positional_parameter_base@DV?$stream_output_adapter@D@__crt_stdio_output@@@2@@__crt_stdio_output@@AEAA_ND@Z 0000000180085860 f i libucrtd:output.obj
 0001:000849d0       ?type_case_c_tchar@?$output_processor@DV?$stream_output_adapter@D@__crt_stdio_output@@V?$standard_base@DV?$stream_output_adapter@D@__crt_stdio_output@@@2@@__crt_stdio_output@@AEAA_ND@Z 00000001800859d0 f i libucrtd:output.obj
 0001:00084b40       ?type_case_c_tchar@?$output_processor@DV?$string_output_adapter@D@__crt_stdio_output@@V?$format_validation_base@DV?$string_output_adapter@D@__crt_stdio_output@@@2@@__crt_stdio_output@@AEAA_ND@Z 0000000180085b40 f i libucrtd:output.obj
 0001:00084cb0       ?type_case_c_tchar@?$output_processor@DV?$string_output_adapter@D@__crt_stdio_output@@V?$positional_parameter_base@DV?$string_output_adapter@D@__crt_stdio_output@@@2@@__crt_stdio_output@@AEAA_ND@Z 0000000180085cb0 f i libucrtd:output.obj
 0001:00084e20       ?type_case_c_tchar@?$output_processor@DV?$string_output_adapter@D@__crt_stdio_output@@V?$standard_base@DV?$string_output_adapter@D@__crt_stdio_output@@@2@@__crt_stdio_output@@AEAA_ND@Z 0000000180085e20 f i libucrtd:output.obj
 0001:00084f90       ?type_case_c_tchar@?$output_processor@_WV?$stream_output_adapter@_W@__crt_stdio_output@@V?$format_validation_base@_WV?$stream_output_adapter@_W@__crt_stdio_output@@@2@@__crt_stdio_output@@AEAA_N_W@Z 0000000180085f90 f i libucrtd:output.obj
 0001:000850f0       ?type_case_c_tchar@?$output_processor@_WV?$stream_output_adapter@_W@__crt_stdio_output@@V?$positional_parameter_base@_WV?$stream_output_adapter@_W@__crt_stdio_output@@@2@@__crt_stdio_output@@AEAA_N_W@Z 00000001800860f0 f i libucrtd:output.obj
 0001:00085250       ?type_case_c_tchar@?$output_processor@_WV?$stream_output_adapter@_W@__crt_stdio_output@@V?$standard_base@_WV?$stream_output_adapter@_W@__crt_stdio_output@@@2@@__crt_stdio_output@@AEAA_N_W@Z 0000000180086250 f i libucrtd:output.obj
 0001:000853b0       ?type_case_c_tchar@?$output_processor@_WV?$string_output_adapter@_W@__crt_stdio_output@@V?$format_validation_base@_WV?$string_output_adapter@_W@__crt_stdio_output@@@2@@__crt_stdio_output@@AEAA_N_W@Z 00000001800863b0 f i libucrtd:output.obj
 0001:00085510       ?type_case_c_tchar@?$output_processor@_WV?$string_output_adapter@_W@__crt_stdio_output@@V?$positional_parameter_base@_WV?$string_output_adapter@_W@__crt_stdio_output@@@2@@__crt_stdio_output@@AEAA_N_W@Z 0000000180086510 f i libucrtd:output.obj
 0001:00085670       ?type_case_c_tchar@?$output_processor@_WV?$string_output_adapter@_W@__crt_stdio_output@@V?$standard_base@_WV?$string_output_adapter@_W@__crt_stdio_output@@@2@@__crt_stdio_output@@AEAA_N_W@Z 0000000180086670 f i libucrtd:output.obj
 0001:000857d0       ?type_case_d@?$output_processor@DV?$stream_output_adapter@D@__crt_stdio_output@@V?$format_validation_base@DV?$stream_output_adapter@D@__crt_stdio_output@@@2@@__crt_stdio_output@@AEAA_NXZ 00000001800867d0 f i libucrtd:output.obj
 0001:00085800       ?type_case_d@?$output_processor@DV?$stream_output_adapter@D@__crt_stdio_output@@V?$positional_parameter_base@DV?$stream_output_adapter@D@__crt_stdio_output@@@2@@__crt_stdio_output@@AEAA_NXZ 0000000180086800 f i libucrtd:output.obj
 0001:00085830       ?type_case_d@?$output_processor@DV?$stream_output_adapter@D@__crt_stdio_output@@V?$standard_base@DV?$stream_output_adapter@D@__crt_stdio_output@@@2@@__crt_stdio_output@@AEAA_NXZ 0000000180086830 f i libucrtd:output.obj
 0001:00085860       ?type_case_d@?$output_processor@DV?$string_output_adapter@D@__crt_stdio_output@@V?$format_validation_base@DV?$string_output_adapter@D@__crt_stdio_output@@@2@@__crt_stdio_output@@AEAA_NXZ 0000000180086860 f i libucrtd:output.obj
 0001:00085890       ?type_case_d@?$output_processor@DV?$string_output_adapter@D@__crt_stdio_output@@V?$positional_parameter_base@DV?$string_output_adapter@D@__crt_stdio_output@@@2@@__crt_stdio_output@@AEAA_NXZ 0000000180086890 f i libucrtd:output.obj
 0001:000858c0       ?type_case_d@?$output_processor@DV?$string_output_adapter@D@__crt_stdio_output@@V?$standard_base@DV?$string_output_adapter@D@__crt_stdio_output@@@2@@__crt_stdio_output@@AEAA_NXZ 00000001800868c0 f i libucrtd:output.obj
 0001:000858f0       ?type_case_d@?$output_processor@_WV?$stream_output_adapter@_W@__crt_stdio_output@@V?$format_validation_base@_WV?$stream_output_adapter@_W@__crt_stdio_output@@@2@@__crt_stdio_output@@AEAA_NXZ 00000001800868f0 f i libucrtd:output.obj
 0001:00085920       ?type_case_d@?$output_processor@_WV?$stream_output_adapter@_W@__crt_stdio_output@@V?$positional_parameter_base@_WV?$stream_output_adapter@_W@__crt_stdio_output@@@2@@__crt_stdio_output@@AEAA_NXZ 0000000180086920 f i libucrtd:output.obj
 0001:00085950       ?type_case_d@?$output_processor@_WV?$stream_output_adapter@_W@__crt_stdio_output@@V?$standard_base@_WV?$stream_output_adapter@_W@__crt_stdio_output@@@2@@__crt_stdio_output@@AEAA_NXZ 0000000180086950 f i libucrtd:output.obj
 0001:00085980       ?type_case_d@?$output_processor@_WV?$string_output_adapter@_W@__crt_stdio_output@@V?$format_validation_base@_WV?$string_output_adapter@_W@__crt_stdio_output@@@2@@__crt_stdio_output@@AEAA_NXZ 0000000180086980 f i libucrtd:output.obj
 0001:000859b0       ?type_case_d@?$output_processor@_WV?$string_output_adapter@_W@__crt_stdio_output@@V?$positional_parameter_base@_WV?$string_output_adapter@_W@__crt_stdio_output@@@2@@__crt_stdio_output@@AEAA_NXZ 00000001800869b0 f i libucrtd:output.obj
 0001:000859e0       ?type_case_d@?$output_processor@_WV?$string_output_adapter@_W@__crt_stdio_output@@V?$standard_base@_WV?$string_output_adapter@_W@__crt_stdio_output@@@2@@__crt_stdio_output@@AEAA_NXZ 00000001800869e0 f i libucrtd:output.obj
 0001:00085a10       ?type_case_n@?$output_processor@DV?$stream_output_adapter@D@__crt_stdio_output@@V?$format_validation_base@DV?$stream_output_adapter@D@__crt_stdio_output@@@2@@__crt_stdio_output@@AEAA_NXZ 0000000180086a10 f i libucrtd:output.obj
 0001:00085ca0       ?type_case_n@?$output_processor@DV?$stream_output_adapter@D@__crt_stdio_output@@V?$positional_parameter_base@DV?$stream_output_adapter@D@__crt_stdio_output@@@2@@__crt_stdio_output@@AEAA_NXZ 0000000180086ca0 f i libucrtd:output.obj
 0001:00085f30       ?type_case_n@?$output_processor@DV?$stream_output_adapter@D@__crt_stdio_output@@V?$standard_base@DV?$stream_output_adapter@D@__crt_stdio_output@@@2@@__crt_stdio_output@@AEAA_NXZ 0000000180086f30 f i libucrtd:output.obj
 0001:000861c0       ?type_case_n@?$output_processor@DV?$string_output_adapter@D@__crt_stdio_output@@V?$format_validation_base@DV?$string_output_adapter@D@__crt_stdio_output@@@2@@__crt_stdio_output@@AEAA_NXZ 00000001800871c0 f i libucrtd:output.obj
 0001:00086450       ?type_case_n@?$output_processor@DV?$string_output_adapter@D@__crt_stdio_output@@V?$positional_parameter_base@DV?$string_output_adapter@D@__crt_stdio_output@@@2@@__crt_stdio_output@@AEAA_NXZ 0000000180087450 f i libucrtd:output.obj
 0001:000866e0       ?type_case_n@?$output_processor@DV?$string_output_adapter@D@__crt_stdio_output@@V?$standard_base@DV?$string_output_adapter@D@__crt_stdio_output@@@2@@__crt_stdio_output@@AEAA_NXZ 00000001800876e0 f i libucrtd:output.obj
 0001:00086970       ?type_case_n@?$output_processor@_WV?$stream_output_adapter@_W@__crt_stdio_output@@V?$format_validation_base@_WV?$stream_output_adapter@_W@__crt_stdio_output@@@2@@__crt_stdio_output@@AEAA_NXZ 0000000180087970 f i libucrtd:output.obj
 0001:00086c00       ?type_case_n@?$output_processor@_WV?$stream_output_adapter@_W@__crt_stdio_output@@V?$positional_parameter_base@_WV?$stream_output_adapter@_W@__crt_stdio_output@@@2@@__crt_stdio_output@@AEAA_NXZ 0000000180087c00 f i libucrtd:output.obj
 0001:00086e90       ?type_case_n@?$output_processor@_WV?$stream_output_adapter@_W@__crt_stdio_output@@V?$standard_base@_WV?$stream_output_adapter@_W@__crt_stdio_output@@@2@@__crt_stdio_output@@AEAA_NXZ 0000000180087e90 f i libucrtd:output.obj
 0001:00087120       ?type_case_n@?$output_processor@_WV?$string_output_adapter@_W@__crt_stdio_output@@V?$format_validation_base@_WV?$string_output_adapter@_W@__crt_stdio_output@@@2@@__crt_stdio_output@@AEAA_NXZ 0000000180088120 f i libucrtd:output.obj
 0001:000873b0       ?type_case_n@?$output_processor@_WV?$string_output_adapter@_W@__crt_stdio_output@@V?$positional_parameter_base@_WV?$string_output_adapter@_W@__crt_stdio_output@@@2@@__crt_stdio_output@@AEAA_NXZ 00000001800883b0 f i libucrtd:output.obj
 0001:00087640       ?type_case_n@?$output_processor@_WV?$string_output_adapter@_W@__crt_stdio_output@@V?$standard_base@_WV?$string_output_adapter@_W@__crt_stdio_output@@@2@@__crt_stdio_output@@AEAA_NXZ 0000000180088640 f i libucrtd:output.obj
 0001:000878d0       ?type_case_o@?$output_processor@DV?$stream_output_adapter@D@__crt_stdio_output@@V?$format_validation_base@DV?$stream_output_adapter@D@__crt_stdio_output@@@2@@__crt_stdio_output@@AEAA_NXZ 00000001800888d0 f i libucrtd:output.obj
 0001:00087910       ?type_case_o@?$output_processor@DV?$stream_output_adapter@D@__crt_stdio_output@@V?$positional_parameter_base@DV?$stream_output_adapter@D@__crt_stdio_output@@@2@@__crt_stdio_output@@AEAA_NXZ 0000000180088910 f i libucrtd:output.obj
 0001:00087950       ?type_case_o@?$output_processor@DV?$stream_output_adapter@D@__crt_stdio_output@@V?$standard_base@DV?$stream_output_adapter@D@__crt_stdio_output@@@2@@__crt_stdio_output@@AEAA_NXZ 0000000180088950 f i libucrtd:output.obj
 0001:00087990       ?type_case_o@?$output_processor@DV?$string_output_adapter@D@__crt_stdio_output@@V?$format_validation_base@DV?$string_output_adapter@D@__crt_stdio_output@@@2@@__crt_stdio_output@@AEAA_NXZ 0000000180088990 f i libucrtd:output.obj
 0001:000879d0       ?type_case_o@?$output_processor@DV?$string_output_adapter@D@__crt_stdio_output@@V?$positional_parameter_base@DV?$string_output_adapter@D@__crt_stdio_output@@@2@@__crt_stdio_output@@AEAA_NXZ 00000001800889d0 f i libucrtd:output.obj
 0001:00087a10       ?type_case_o@?$output_processor@DV?$string_output_adapter@D@__crt_stdio_output@@V?$standard_base@DV?$string_output_adapter@D@__crt_stdio_output@@@2@@__crt_stdio_output@@AEAA_NXZ 0000000180088a10 f i libucrtd:output.obj
 0001:00087a50       ?type_case_o@?$output_processor@_WV?$stream_output_adapter@_W@__crt_stdio_output@@V?$format_validation_base@_WV?$stream_output_adapter@_W@__crt_stdio_output@@@2@@__crt_stdio_output@@AEAA_NXZ 0000000180088a50 f i libucrtd:output.obj
 0001:00087a90       ?type_case_o@?$output_processor@_WV?$stream_output_adapter@_W@__crt_stdio_output@@V?$positional_parameter_base@_WV?$stream_output_adapter@_W@__crt_stdio_output@@@2@@__crt_stdio_output@@AEAA_NXZ 0000000180088a90 f i libucrtd:output.obj
 0001:00087ad0       ?type_case_o@?$output_processor@_WV?$stream_output_adapter@_W@__crt_stdio_output@@V?$standard_base@_WV?$stream_output_adapter@_W@__crt_stdio_output@@@2@@__crt_stdio_output@@AEAA_NXZ 0000000180088ad0 f i libucrtd:output.obj
 0001:00087b10       ?type_case_o@?$output_processor@_WV?$string_output_adapter@_W@__crt_stdio_output@@V?$format_validation_base@_WV?$string_output_adapter@_W@__crt_stdio_output@@@2@@__crt_stdio_output@@AEAA_NXZ 0000000180088b10 f i libucrtd:output.obj
 0001:00087b50       ?type_case_o@?$output_processor@_WV?$string_output_adapter@_W@__crt_stdio_output@@V?$positional_parameter_base@_WV?$string_output_adapter@_W@__crt_stdio_output@@@2@@__crt_stdio_output@@AEAA_NXZ 0000000180088b50 f i libucrtd:output.obj
 0001:00087b90       ?type_case_o@?$output_processor@_WV?$string_output_adapter@_W@__crt_stdio_output@@V?$standard_base@_WV?$string_output_adapter@_W@__crt_stdio_output@@@2@@__crt_stdio_output@@AEAA_NXZ 0000000180088b90 f i libucrtd:output.obj
 0001:00087bd0       ?type_case_p@?$output_processor@DV?$stream_output_adapter@D@__crt_stdio_output@@V?$format_validation_base@DV?$stream_output_adapter@D@__crt_stdio_output@@@2@@__crt_stdio_output@@AEAA_NXZ 0000000180088bd0 f i libucrtd:output.obj
 0001:00087c10       ?type_case_p@?$output_processor@DV?$stream_output_adapter@D@__crt_stdio_output@@V?$positional_parameter_base@DV?$stream_output_adapter@D@__crt_stdio_output@@@2@@__crt_stdio_output@@AEAA_NXZ 0000000180088c10 f i libucrtd:output.obj
 0001:00087c50       ?type_case_p@?$output_processor@DV?$stream_output_adapter@D@__crt_stdio_output@@V?$standard_base@DV?$stream_output_adapter@D@__crt_stdio_output@@@2@@__crt_stdio_output@@AEAA_NXZ 0000000180088c50 f i libucrtd:output.obj
 0001:00087c90       ?type_case_p@?$output_processor@DV?$string_output_adapter@D@__crt_stdio_output@@V?$format_validation_base@DV?$string_output_adapter@D@__crt_stdio_output@@@2@@__crt_stdio_output@@AEAA_NXZ 0000000180088c90 f i libucrtd:output.obj
 0001:00087cd0       ?type_case_p@?$output_processor@DV?$string_output_adapter@D@__crt_stdio_output@@V?$positional_parameter_base@DV?$string_output_adapter@D@__crt_stdio_output@@@2@@__crt_stdio_output@@AEAA_NXZ 0000000180088cd0 f i libucrtd:output.obj
 0001:00087d10       ?type_case_p@?$output_processor@DV?$string_output_adapter@D@__crt_stdio_output@@V?$standard_base@DV?$string_output_adapter@D@__crt_stdio_output@@@2@@__crt_stdio_output@@AEAA_NXZ 0000000180088d10 f i libucrtd:output.obj
 0001:00087d50       ?type_case_p@?$output_processor@_WV?$stream_output_adapter@_W@__crt_stdio_output@@V?$format_validation_base@_WV?$stream_output_adapter@_W@__crt_stdio_output@@@2@@__crt_stdio_output@@AEAA_NXZ 0000000180088d50 f i libucrtd:output.obj
 0001:00087d90       ?type_case_p@?$output_processor@_WV?$stream_output_adapter@_W@__crt_stdio_output@@V?$positional_parameter_base@_WV?$stream_output_adapter@_W@__crt_stdio_output@@@2@@__crt_stdio_output@@AEAA_NXZ 0000000180088d90 f i libucrtd:output.obj
 0001:00087dd0       ?type_case_p@?$output_processor@_WV?$stream_output_adapter@_W@__crt_stdio_output@@V?$standard_base@_WV?$stream_output_adapter@_W@__crt_stdio_output@@@2@@__crt_stdio_output@@AEAA_NXZ 0000000180088dd0 f i libucrtd:output.obj
 0001:00087e10       ?type_case_p@?$output_processor@_WV?$string_output_adapter@_W@__crt_stdio_output@@V?$format_validation_base@_WV?$string_output_adapter@_W@__crt_stdio_output@@@2@@__crt_stdio_output@@AEAA_NXZ 0000000180088e10 f i libucrtd:output.obj
 0001:00087e50       ?type_case_p@?$output_processor@_WV?$string_output_adapter@_W@__crt_stdio_output@@V?$positional_parameter_base@_WV?$string_output_adapter@_W@__crt_stdio_output@@@2@@__crt_stdio_output@@AEAA_NXZ 0000000180088e50 f i libucrtd:output.obj
 0001:00087e90       ?type_case_p@?$output_processor@_WV?$string_output_adapter@_W@__crt_stdio_output@@V?$standard_base@_WV?$string_output_adapter@_W@__crt_stdio_output@@@2@@__crt_stdio_output@@AEAA_NXZ 0000000180088e90 f i libucrtd:output.obj
 0001:00087ed0       ?type_case_s@?$output_processor@DV?$stream_output_adapter@D@__crt_stdio_output@@V?$format_validation_base@DV?$stream_output_adapter@D@__crt_stdio_output@@@2@@__crt_stdio_output@@AEAA_NXZ 0000000180088ed0 f i libucrtd:output.obj
 0001:00087ff0       ?type_case_s@?$output_processor@DV?$stream_output_adapter@D@__crt_stdio_output@@V?$positional_parameter_base@DV?$stream_output_adapter@D@__crt_stdio_output@@@2@@__crt_stdio_output@@AEAA_NXZ 0000000180088ff0 f i libucrtd:output.obj
 0001:00088110       ?type_case_s@?$output_processor@DV?$stream_output_adapter@D@__crt_stdio_output@@V?$standard_base@DV?$stream_output_adapter@D@__crt_stdio_output@@@2@@__crt_stdio_output@@AEAA_NXZ 0000000180089110 f i libucrtd:output.obj
 0001:00088230       ?type_case_s@?$output_processor@DV?$string_output_adapter@D@__crt_stdio_output@@V?$format_validation_base@DV?$string_output_adapter@D@__crt_stdio_output@@@2@@__crt_stdio_output@@AEAA_NXZ 0000000180089230 f i libucrtd:output.obj
 0001:00088350       ?type_case_s@?$output_processor@DV?$string_output_adapter@D@__crt_stdio_output@@V?$positional_parameter_base@DV?$string_output_adapter@D@__crt_stdio_output@@@2@@__crt_stdio_output@@AEAA_NXZ 0000000180089350 f i libucrtd:output.obj
 0001:00088470       ?type_case_s@?$output_processor@DV?$string_output_adapter@D@__crt_stdio_output@@V?$standard_base@DV?$string_output_adapter@D@__crt_stdio_output@@@2@@__crt_stdio_output@@AEAA_NXZ 0000000180089470 f i libucrtd:output.obj
 0001:00088590       ?type_case_s@?$output_processor@_WV?$stream_output_adapter@_W@__crt_stdio_output@@V?$format_validation_base@_WV?$stream_output_adapter@_W@__crt_stdio_output@@@2@@__crt_stdio_output@@AEAA_NXZ 0000000180089590 f i libucrtd:output.obj
 0001:000886b0       ?type_case_s@?$output_processor@_WV?$stream_output_adapter@_W@__crt_stdio_output@@V?$positional_parameter_base@_WV?$stream_output_adapter@_W@__crt_stdio_output@@@2@@__crt_stdio_output@@AEAA_NXZ 00000001800896b0 f i libucrtd:output.obj
 0001:000887d0       ?type_case_s@?$output_processor@_WV?$stream_output_adapter@_W@__crt_stdio_output@@V?$standard_base@_WV?$stream_output_adapter@_W@__crt_stdio_output@@@2@@__crt_stdio_output@@AEAA_NXZ 00000001800897d0 f i libucrtd:output.obj
 0001:000888f0       ?type_case_s@?$output_processor@_WV?$string_output_adapter@_W@__crt_stdio_output@@V?$format_validation_base@_WV?$string_output_adapter@_W@__crt_stdio_output@@@2@@__crt_stdio_output@@AEAA_NXZ 00000001800898f0 f i libucrtd:output.obj
 0001:00088a10       ?type_case_s@?$output_processor@_WV?$string_output_adapter@_W@__crt_stdio_output@@V?$positional_parameter_base@_WV?$string_output_adapter@_W@__crt_stdio_output@@@2@@__crt_stdio_output@@AEAA_NXZ 0000000180089a10 f i libucrtd:output.obj
 0001:00088b30       ?type_case_s@?$output_processor@_WV?$string_output_adapter@_W@__crt_stdio_output@@V?$standard_base@_WV?$string_output_adapter@_W@__crt_stdio_output@@@2@@__crt_stdio_output@@AEAA_NXZ 0000000180089b30 f i libucrtd:output.obj
 0001:00088c50       ?type_case_s_compute_narrow_string_length@?$output_processor@DV?$stream_output_adapter@D@__crt_stdio_output@@V?$format_validation_base@DV?$stream_output_adapter@D@__crt_stdio_output@@@2@@__crt_stdio_output@@AEAAHHD@Z 0000000180089c50 f i libucrtd:output.obj
 0001:00088c80       ?type_case_s_compute_narrow_string_length@?$output_processor@DV?$stream_output_adapter@D@__crt_stdio_output@@V?$positional_parameter_base@DV?$stream_output_adapter@D@__crt_stdio_output@@@2@@__crt_stdio_output@@AEAAHHD@Z 0000000180089c80 f i libucrtd:output.obj
 0001:00088cb0       ?type_case_s_compute_narrow_string_length@?$output_processor@DV?$stream_output_adapter@D@__crt_stdio_output@@V?$standard_base@DV?$stream_output_adapter@D@__crt_stdio_output@@@2@@__crt_stdio_output@@AEAAHHD@Z 0000000180089cb0 f i libucrtd:output.obj
 0001:00088ce0       ?type_case_s_compute_narrow_string_length@?$output_processor@DV?$string_output_adapter@D@__crt_stdio_output@@V?$format_validation_base@DV?$string_output_adapter@D@__crt_stdio_output@@@2@@__crt_stdio_output@@AEAAHHD@Z 0000000180089ce0 f i libucrtd:output.obj
 0001:00088d10       ?type_case_s_compute_narrow_string_length@?$output_processor@DV?$string_output_adapter@D@__crt_stdio_output@@V?$positional_parameter_base@DV?$string_output_adapter@D@__crt_stdio_output@@@2@@__crt_stdio_output@@AEAAHHD@Z 0000000180089d10 f i libucrtd:output.obj
 0001:00088d40       ?type_case_s_compute_narrow_string_length@?$output_processor@DV?$string_output_adapter@D@__crt_stdio_output@@V?$standard_base@DV?$string_output_adapter@D@__crt_stdio_output@@@2@@__crt_stdio_output@@AEAAHHD@Z 0000000180089d40 f i libucrtd:output.obj
 0001:00088d70       ?type_case_s_compute_narrow_string_length@?$output_processor@_WV?$stream_output_adapter@_W@__crt_stdio_output@@V?$format_validation_base@_WV?$stream_output_adapter@_W@__crt_stdio_output@@@2@@__crt_stdio_output@@AEAAHH_W@Z 0000000180089d70 f i libucrtd:output.obj
 0001:00088e10       ?type_case_s_compute_narrow_string_length@?$output_processor@_WV?$stream_output_adapter@_W@__crt_stdio_output@@V?$positional_parameter_base@_WV?$stream_output_adapter@_W@__crt_stdio_output@@@2@@__crt_stdio_output@@AEAAHH_W@Z 0000000180089e10 f i libucrtd:output.obj
 0001:00088eb0       ?type_case_s_compute_narrow_string_length@?$output_processor@_WV?$stream_output_adapter@_W@__crt_stdio_output@@V?$standard_base@_WV?$stream_output_adapter@_W@__crt_stdio_output@@@2@@__crt_stdio_output@@AEAAHH_W@Z 0000000180089eb0 f i libucrtd:output.obj
 0001:00088f50       ?type_case_s_compute_narrow_string_length@?$output_processor@_WV?$string_output_adapter@_W@__crt_stdio_output@@V?$format_validation_base@_WV?$string_output_adapter@_W@__crt_stdio_output@@@2@@__crt_stdio_output@@AEAAHH_W@Z 0000000180089f50 f i libucrtd:output.obj
 0001:00088ff0       ?type_case_s_compute_narrow_string_length@?$output_processor@_WV?$string_output_adapter@_W@__crt_stdio_output@@V?$positional_parameter_base@_WV?$string_output_adapter@_W@__crt_stdio_output@@@2@@__crt_stdio_output@@AEAAHH_W@Z 0000000180089ff0 f i libucrtd:output.obj
 0001:00089090       ?type_case_s_compute_narrow_string_length@?$output_processor@_WV?$string_output_adapter@_W@__crt_stdio_output@@V?$standard_base@_WV?$string_output_adapter@_W@__crt_stdio_output@@@2@@__crt_stdio_output@@AEAAHH_W@Z 000000018008a090 f i libucrtd:output.obj
 0001:00089130       ?type_case_u@?$output_processor@DV?$stream_output_adapter@D@__crt_stdio_output@@V?$format_validation_base@DV?$stream_output_adapter@D@__crt_stdio_output@@@2@@__crt_stdio_output@@AEAA_NXZ 000000018008a130 f i libucrtd:output.obj
 0001:00089150       ?type_case_u@?$output_processor@DV?$stream_output_adapter@D@__crt_stdio_output@@V?$positional_parameter_base@DV?$stream_output_adapter@D@__crt_stdio_output@@@2@@__crt_stdio_output@@AEAA_NXZ 000000018008a150 f i libucrtd:output.obj
 0001:00089170       ?type_case_u@?$output_processor@DV?$stream_output_adapter@D@__crt_stdio_output@@V?$standard_base@DV?$stream_output_adapter@D@__crt_stdio_output@@@2@@__crt_stdio_output@@AEAA_NXZ 000000018008a170 f i libucrtd:output.obj
 0001:00089190       ?type_case_u@?$output_processor@DV?$string_output_adapter@D@__crt_stdio_output@@V?$format_validation_base@DV?$string_output_adapter@D@__crt_stdio_output@@@2@@__crt_stdio_output@@AEAA_NXZ 000000018008a190 f i libucrtd:output.obj
 0001:000891b0       ?type_case_u@?$output_processor@DV?$string_output_adapter@D@__crt_stdio_output@@V?$positional_parameter_base@DV?$string_output_adapter@D@__crt_stdio_output@@@2@@__crt_stdio_output@@AEAA_NXZ 000000018008a1b0 f i libucrtd:output.obj
 0001:000891d0       ?type_case_u@?$output_processor@DV?$string_output_adapter@D@__crt_stdio_output@@V?$standard_base@DV?$string_output_adapter@D@__crt_stdio_output@@@2@@__crt_stdio_output@@AEAA_NXZ 000000018008a1d0 f i libucrtd:output.obj
 0001:000891f0       ?type_case_u@?$output_processor@_WV?$stream_output_adapter@_W@__crt_stdio_output@@V?$format_validation_base@_WV?$stream_output_adapter@_W@__crt_stdio_output@@@2@@__crt_stdio_output@@AEAA_NXZ 000000018008a1f0 f i libucrtd:output.obj
 0001:00089210       ?type_case_u@?$output_processor@_WV?$stream_output_adapter@_W@__crt_stdio_output@@V?$positional_parameter_base@_WV?$stream_output_adapter@_W@__crt_stdio_output@@@2@@__crt_stdio_output@@AEAA_NXZ 000000018008a210 f i libucrtd:output.obj
 0001:00089230       ?type_case_u@?$output_processor@_WV?$stream_output_adapter@_W@__crt_stdio_output@@V?$standard_base@_WV?$stream_output_adapter@_W@__crt_stdio_output@@@2@@__crt_stdio_output@@AEAA_NXZ 000000018008a230 f i libucrtd:output.obj
 0001:00089250       ?type_case_u@?$output_processor@_WV?$string_output_adapter@_W@__crt_stdio_output@@V?$format_validation_base@_WV?$string_output_adapter@_W@__crt_stdio_output@@@2@@__crt_stdio_output@@AEAA_NXZ 000000018008a250 f i libucrtd:output.obj
 0001:00089270       ?type_case_u@?$output_processor@_WV?$string_output_adapter@_W@__crt_stdio_output@@V?$positional_parameter_base@_WV?$string_output_adapter@_W@__crt_stdio_output@@@2@@__crt_stdio_output@@AEAA_NXZ 000000018008a270 f i libucrtd:output.obj
 0001:00089290       ?type_case_u@?$output_processor@_WV?$string_output_adapter@_W@__crt_stdio_output@@V?$standard_base@_WV?$string_output_adapter@_W@__crt_stdio_output@@@2@@__crt_stdio_output@@AEAA_NXZ 000000018008a290 f i libucrtd:output.obj
 0001:000892b0       ?type_case_x@?$output_processor@DV?$stream_output_adapter@D@__crt_stdio_output@@V?$format_validation_base@DV?$stream_output_adapter@D@__crt_stdio_output@@@2@@__crt_stdio_output@@AEAA_NXZ 000000018008a2b0 f i libucrtd:output.obj
 0001:000892d0       ?type_case_x@?$output_processor@DV?$stream_output_adapter@D@__crt_stdio_output@@V?$positional_parameter_base@DV?$stream_output_adapter@D@__crt_stdio_output@@@2@@__crt_stdio_output@@AEAA_NXZ 000000018008a2d0 f i libucrtd:output.obj
 0001:000892f0       ?type_case_x@?$output_processor@DV?$stream_output_adapter@D@__crt_stdio_output@@V?$standard_base@DV?$stream_output_adapter@D@__crt_stdio_output@@@2@@__crt_stdio_output@@AEAA_NXZ 000000018008a2f0 f i libucrtd:output.obj
 0001:00089310       ?type_case_x@?$output_processor@DV?$string_output_adapter@D@__crt_stdio_output@@V?$format_validation_base@DV?$string_output_adapter@D@__crt_stdio_output@@@2@@__crt_stdio_output@@AEAA_NXZ 000000018008a310 f i libucrtd:output.obj
 0001:00089330       ?type_case_x@?$output_processor@DV?$string_output_adapter@D@__crt_stdio_output@@V?$positional_parameter_base@DV?$string_output_adapter@D@__crt_stdio_output@@@2@@__crt_stdio_output@@AEAA_NXZ 000000018008a330 f i libucrtd:output.obj
 0001:00089350       ?type_case_x@?$output_processor@DV?$string_output_adapter@D@__crt_stdio_output@@V?$standard_base@DV?$string_output_adapter@D@__crt_stdio_output@@@2@@__crt_stdio_output@@AEAA_NXZ 000000018008a350 f i libucrtd:output.obj
 0001:00089370       ?type_case_x@?$output_processor@_WV?$stream_output_adapter@_W@__crt_stdio_output@@V?$format_validation_base@_WV?$stream_output_adapter@_W@__crt_stdio_output@@@2@@__crt_stdio_output@@AEAA_NXZ 000000018008a370 f i libucrtd:output.obj
 0001:00089390       ?type_case_x@?$output_processor@_WV?$stream_output_adapter@_W@__crt_stdio_output@@V?$positional_parameter_base@_WV?$stream_output_adapter@_W@__crt_stdio_output@@@2@@__crt_stdio_output@@AEAA_NXZ 000000018008a390 f i libucrtd:output.obj
 0001:000893b0       ?type_case_x@?$output_processor@_WV?$stream_output_adapter@_W@__crt_stdio_output@@V?$standard_base@_WV?$stream_output_adapter@_W@__crt_stdio_output@@@2@@__crt_stdio_output@@AEAA_NXZ 000000018008a3b0 f i libucrtd:output.obj
 0001:000893d0       ?type_case_x@?$output_processor@_WV?$string_output_adapter@_W@__crt_stdio_output@@V?$format_validation_base@_WV?$string_output_adapter@_W@__crt_stdio_output@@@2@@__crt_stdio_output@@AEAA_NXZ 000000018008a3d0 f i libucrtd:output.obj
 0001:000893f0       ?type_case_x@?$output_processor@_WV?$string_output_adapter@_W@__crt_stdio_output@@V?$positional_parameter_base@_WV?$string_output_adapter@_W@__crt_stdio_output@@@2@@__crt_stdio_output@@AEAA_NXZ 000000018008a3f0 f i libucrtd:output.obj
 0001:00089410       ?type_case_x@?$output_processor@_WV?$string_output_adapter@_W@__crt_stdio_output@@V?$standard_base@_WV?$string_output_adapter@_W@__crt_stdio_output@@@2@@__crt_stdio_output@@AEAA_NXZ 000000018008a410 f i libucrtd:output.obj
 0001:00089430       ?unget@?$c_string_character_source@D@__crt_strtox@@QEAAXD@Z 000000018008a430 f i libucrtd:output.obj
 0001:00089510       ?unget@?$c_string_character_source@_W@__crt_strtox@@QEAAX_W@Z 000000018008a510 f i libucrtd:output.obj
 0001:000895f0       ?unsafe_value@?$cached@H@__crt_cached_ptd_host@@QEAAHXZ 000000018008a5f0 f i libucrtd:output.obj
 0001:00089600       ?unsafe_value@?$cached@K@__crt_cached_ptd_host@@QEAAKXZ 000000018008a600 f i libucrtd:output.obj
 0001:00089610       ?unset_flag@?$output_processor@DV?$stream_output_adapter@D@__crt_stdio_output@@V?$format_validation_base@DV?$stream_output_adapter@D@__crt_stdio_output@@@2@@__crt_stdio_output@@AEAAXI@Z 000000018008a610 f i libucrtd:output.obj
 0001:00089640       ?unset_flag@?$output_processor@DV?$stream_output_adapter@D@__crt_stdio_output@@V?$positional_parameter_base@DV?$stream_output_adapter@D@__crt_stdio_output@@@2@@__crt_stdio_output@@AEAAXI@Z 000000018008a640 f i libucrtd:output.obj
 0001:00089670       ?unset_flag@?$output_processor@DV?$stream_output_adapter@D@__crt_stdio_output@@V?$standard_base@DV?$stream_output_adapter@D@__crt_stdio_output@@@2@@__crt_stdio_output@@AEAAXI@Z 000000018008a670 f i libucrtd:output.obj
 0001:000896a0       ?unset_flag@?$output_processor@DV?$string_output_adapter@D@__crt_stdio_output@@V?$format_validation_base@DV?$string_output_adapter@D@__crt_stdio_output@@@2@@__crt_stdio_output@@AEAAXI@Z 000000018008a6a0 f i libucrtd:output.obj
 0001:000896d0       ?unset_flag@?$output_processor@DV?$string_output_adapter@D@__crt_stdio_output@@V?$positional_parameter_base@DV?$string_output_adapter@D@__crt_stdio_output@@@2@@__crt_stdio_output@@AEAAXI@Z 000000018008a6d0 f i libucrtd:output.obj
 0001:00089700       ?unset_flag@?$output_processor@DV?$string_output_adapter@D@__crt_stdio_output@@V?$standard_base@DV?$string_output_adapter@D@__crt_stdio_output@@@2@@__crt_stdio_output@@AEAAXI@Z 000000018008a700 f i libucrtd:output.obj
 0001:00089730       ?unset_flag@?$output_processor@_WV?$stream_output_adapter@_W@__crt_stdio_output@@V?$format_validation_base@_WV?$stream_output_adapter@_W@__crt_stdio_output@@@2@@__crt_stdio_output@@AEAAXI@Z 000000018008a730 f i libucrtd:output.obj
 0001:00089760       ?unset_flag@?$output_processor@_WV?$stream_output_adapter@_W@__crt_stdio_output@@V?$positional_parameter_base@_WV?$stream_output_adapter@_W@__crt_stdio_output@@@2@@__crt_stdio_output@@AEAAXI@Z 000000018008a760 f i libucrtd:output.obj
 0001:00089790       ?unset_flag@?$output_processor@_WV?$stream_output_adapter@_W@__crt_stdio_output@@V?$standard_base@_WV?$stream_output_adapter@_W@__crt_stdio_output@@@2@@__crt_stdio_output@@AEAAXI@Z 000000018008a790 f i libucrtd:output.obj
 0001:000897c0       ?unset_flag@?$output_processor@_WV?$string_output_adapter@_W@__crt_stdio_output@@V?$format_validation_base@_WV?$string_output_adapter@_W@__crt_stdio_output@@@2@@__crt_stdio_output@@AEAAXI@Z 000000018008a7c0 f i libucrtd:output.obj
 0001:000897f0       ?unset_flag@?$output_processor@_WV?$string_output_adapter@_W@__crt_stdio_output@@V?$positional_parameter_base@_WV?$string_output_adapter@_W@__crt_stdio_output@@@2@@__crt_stdio_output@@AEAAXI@Z 000000018008a7f0 f i libucrtd:output.obj
 0001:00089820       ?unset_flag@?$output_processor@_WV?$string_output_adapter@_W@__crt_stdio_output@@V?$standard_base@_WV?$string_output_adapter@_W@__crt_stdio_output@@@2@@__crt_stdio_output@@AEAAXI@Z 000000018008a820 f i libucrtd:output.obj
 0001:00089850       ?update_field_width@?$positional_parameter_base@DV?$stream_output_adapter@D@__crt_stdio_output@@@__crt_stdio_output@@IEAA_NXZ 000000018008a850 f i libucrtd:output.obj
 0001:00089a50       ?update_field_width@?$positional_parameter_base@DV?$string_output_adapter@D@__crt_stdio_output@@@__crt_stdio_output@@IEAA_NXZ 000000018008aa50 f i libucrtd:output.obj
 0001:00089c50       ?update_field_width@?$positional_parameter_base@_WV?$stream_output_adapter@_W@__crt_stdio_output@@@__crt_stdio_output@@IEAA_NXZ 000000018008ac50 f i libucrtd:output.obj
 0001:00089e50       ?update_field_width@?$positional_parameter_base@_WV?$string_output_adapter@_W@__crt_stdio_output@@@__crt_stdio_output@@IEAA_NXZ 000000018008ae50 f i libucrtd:output.obj
 0001:0008a050       ?update_field_width@?$standard_base@DV?$stream_output_adapter@D@__crt_stdio_output@@@__crt_stdio_output@@IEAA_NXZ 000000018008b050 f i libucrtd:output.obj
 0001:0008a080       ?update_field_width@?$standard_base@DV?$string_output_adapter@D@__crt_stdio_output@@@__crt_stdio_output@@IEAA_NXZ 000000018008b080 f i libucrtd:output.obj
 0001:0008a0b0       ?update_field_width@?$standard_base@_WV?$stream_output_adapter@_W@__crt_stdio_output@@@__crt_stdio_output@@IEAA_NXZ 000000018008b0b0 f i libucrtd:output.obj
 0001:0008a0e0       ?update_field_width@?$standard_base@_WV?$string_output_adapter@_W@__crt_stdio_output@@@__crt_stdio_output@@IEAA_NXZ 000000018008b0e0 f i libucrtd:output.obj
 0001:0008a110       ?update_locale@__crt_cached_ptd_host@@AEAAXXZ 000000018008b110 f i libucrtd:output.obj
 0001:0008a140       ?update_locale_slow@__crt_cached_ptd_host@@AEAAXXZ 000000018008b140 f i libucrtd:output.obj
 0001:0008a1f0       ?update_precision@?$positional_parameter_base@DV?$stream_output_adapter@D@__crt_stdio_output@@@__crt_stdio_output@@IEAA_NXZ 000000018008b1f0 f i libucrtd:output.obj
 0001:0008a3f0       ?update_precision@?$positional_parameter_base@DV?$string_output_adapter@D@__crt_stdio_output@@@__crt_stdio_output@@IEAA_NXZ 000000018008b3f0 f i libucrtd:output.obj
 0001:0008a5f0       ?update_precision@?$positional_parameter_base@_WV?$stream_output_adapter@_W@__crt_stdio_output@@@__crt_stdio_output@@IEAA_NXZ 000000018008b5f0 f i libucrtd:output.obj
 0001:0008a7f0       ?update_precision@?$positional_parameter_base@_WV?$string_output_adapter@_W@__crt_stdio_output@@@__crt_stdio_output@@IEAA_NXZ 000000018008b7f0 f i libucrtd:output.obj
 0001:0008a9f0       ?update_precision@?$standard_base@DV?$stream_output_adapter@D@__crt_stdio_output@@@__crt_stdio_output@@IEAA_NXZ 000000018008b9f0 f i libucrtd:output.obj
 0001:0008aa20       ?update_precision@?$standard_base@DV?$string_output_adapter@D@__crt_stdio_output@@@__crt_stdio_output@@IEAA_NXZ 000000018008ba20 f i libucrtd:output.obj
 0001:0008aa50       ?update_precision@?$standard_base@_WV?$stream_output_adapter@_W@__crt_stdio_output@@@__crt_stdio_output@@IEAA_NXZ 000000018008ba50 f i libucrtd:output.obj
 0001:0008aa80       ?update_precision@?$standard_base@_WV?$string_output_adapter@_W@__crt_stdio_output@@@__crt_stdio_output@@IEAA_NXZ 000000018008ba80 f i libucrtd:output.obj
 0001:0008aab0       ?valid@?$cached@H@__crt_cached_ptd_host@@QEBA_NXZ 000000018008bab0 f i libucrtd:output.obj
 0001:0008aac0       ?valid@?$cached@K@__crt_cached_ptd_host@@QEBA_NXZ 000000018008bac0 f i libucrtd:output.obj
 0001:0008aad0       ?valid@__crt_stdio_stream@@QEBA_NXZ 000000018008bad0 f i libucrtd:output.obj
 0001:0008ab00       ?validate@?$c_string_character_source@D@__crt_strtox@@QEBA_NXZ 000000018008bb00 f i libucrtd:output.obj
 0001:0008abc0       ?validate@?$c_string_character_source@_W@__crt_strtox@@QEBA_NXZ 000000018008bbc0 f i libucrtd:output.obj
 0001:0008ac80       ?validate@?$stream_output_adapter@D@__crt_stdio_output@@QEBA_NAEAV__crt_cached_ptd_host@@@Z 000000018008bc80 f i libucrtd:output.obj
 0001:0008ad80       ?validate@?$stream_output_adapter@_W@__crt_stdio_output@@QEBA_NAEAV__crt_cached_ptd_host@@@Z 000000018008bd80 f i libucrtd:output.obj
 0001:0008ae80       ?validate@?$string_output_adapter@D@__crt_stdio_output@@QEBA_NAEAV__crt_cached_ptd_host@@@Z 000000018008be80 f i libucrtd:output.obj
 0001:0008af60       ?validate@?$string_output_adapter@_W@__crt_stdio_output@@QEBA_NAEAV__crt_cached_ptd_host@@@Z 000000018008bf60 f i libucrtd:output.obj
 0001:0008b040       ?validate_and_store_parameter_data@?$positional_parameter_base@DV?$stream_output_adapter@D@__crt_stdio_output@@@__crt_stdio_output@@AEAA_NAEAUparameter_data@12@W4parameter_type@12@DW4length_modifier@2@@Z 000000018008c040 f i libucrtd:output.obj
 0001:0008b180       ?validate_and_store_parameter_data@?$positional_parameter_base@DV?$string_output_adapter@D@__crt_stdio_output@@@__crt_stdio_output@@AEAA_NAEAUparameter_data@12@W4parameter_type@12@DW4length_modifier@2@@Z 000000018008c180 f i libucrtd:output.obj
 0001:0008b2c0       ?validate_and_store_parameter_data@?$positional_parameter_base@_WV?$stream_output_adapter@_W@__crt_stdio_output@@@__crt_stdio_output@@AEAA_NAEAUparameter_data@12@W4parameter_type@12@_WW4length_modifier@2@@Z 000000018008c2c0 f i libucrtd:output.obj
 0001:0008b400       ?validate_and_store_parameter_data@?$positional_parameter_base@_WV?$string_output_adapter@_W@__crt_stdio_output@@@__crt_stdio_output@@AEAA_NAEAUparameter_data@12@W4parameter_type@12@_WW4length_modifier@2@@Z 000000018008c400 f i libucrtd:output.obj
 0001:0008b540       ?validate_and_update_state_at_beginning_of_format_character@?$positional_parameter_base@DV?$stream_output_adapter@D@__crt_stdio_output@@@__crt_stdio_output@@IEAA_NXZ 000000018008c540 f i libucrtd:output.obj
 0001:0008b7e0       ?validate_and_update_state_at_beginning_of_format_character@?$positional_parameter_base@DV?$string_output_adapter@D@__crt_stdio_output@@@__crt_stdio_output@@IEAA_NXZ 000000018008c7e0 f i libucrtd:output.obj
 0001:0008ba80       ?validate_and_update_state_at_beginning_of_format_character@?$positional_parameter_base@_WV?$stream_output_adapter@_W@__crt_stdio_output@@@__crt_stdio_output@@IEAA_NXZ 000000018008ca80 f i libucrtd:output.obj
 0001:0008bd20       ?validate_and_update_state_at_beginning_of_format_character@?$positional_parameter_base@_WV?$string_output_adapter@_W@__crt_stdio_output@@@__crt_stdio_output@@IEAA_NXZ 000000018008cd20 f i libucrtd:output.obj
 0001:0008bfc0       ?validate_and_update_state_at_beginning_of_format_character@?$standard_base@DV?$stream_output_adapter@D@__crt_stdio_output@@@__crt_stdio_output@@IEAA_NXZ 000000018008cfc0 f i libucrtd:output.obj
 0001:0008bfd0       ?validate_and_update_state_at_beginning_of_format_character@?$standard_base@DV?$string_output_adapter@D@__crt_stdio_output@@@__crt_stdio_output@@IEAA_NXZ 000000018008cfd0 f i libucrtd:output.obj
 0001:0008bfe0       ?validate_and_update_state_at_beginning_of_format_character@?$standard_base@_WV?$stream_output_adapter@_W@__crt_stdio_output@@@__crt_stdio_output@@IEAA_NXZ 000000018008cfe0 f i libucrtd:output.obj
 0001:0008bff0       ?validate_and_update_state_at_beginning_of_format_character@?$standard_base@_WV?$string_output_adapter@_W@__crt_stdio_output@@@__crt_stdio_output@@IEAA_NXZ 000000018008cff0 f i libucrtd:output.obj
 0001:0008c000       ?validate_and_update_state_at_end_of_format_string@?$format_validation_base@DV?$stream_output_adapter@D@__crt_stdio_output@@@__crt_stdio_output@@IEAA_NXZ 000000018008d000 f i libucrtd:output.obj
 0001:0008c0f0       ?validate_and_update_state_at_end_of_format_string@?$format_validation_base@DV?$string_output_adapter@D@__crt_stdio_output@@@__crt_stdio_output@@IEAA_NXZ 000000018008d0f0 f i libucrtd:output.obj
 0001:0008c1e0       ?validate_and_update_state_at_end_of_format_string@?$format_validation_base@_WV?$stream_output_adapter@_W@__crt_stdio_output@@@__crt_stdio_output@@IEAA_NXZ 000000018008d1e0 f i libucrtd:output.obj
 0001:0008c2d0       ?validate_and_update_state_at_end_of_format_string@?$format_validation_base@_WV?$string_output_adapter@_W@__crt_stdio_output@@@__crt_stdio_output@@IEAA_NXZ 000000018008d2d0 f i libucrtd:output.obj
 0001:0008c3c0       ?validate_and_update_state_at_end_of_format_string@?$positional_parameter_base@DV?$stream_output_adapter@D@__crt_stdio_output@@@__crt_stdio_output@@IEAA_NXZ 000000018008d3c0 f i libucrtd:output.obj
 0001:0008c5f0       ?validate_and_update_state_at_end_of_format_string@?$positional_parameter_base@DV?$string_output_adapter@D@__crt_stdio_output@@@__crt_stdio_output@@IEAA_NXZ 000000018008d5f0 f i libucrtd:output.obj
 0001:0008c820       ?validate_and_update_state_at_end_of_format_string@?$positional_parameter_base@_WV?$stream_output_adapter@_W@__crt_stdio_output@@@__crt_stdio_output@@IEAA_NXZ 000000018008d820 f i libucrtd:output.obj
 0001:0008ca50       ?validate_and_update_state_at_end_of_format_string@?$positional_parameter_base@_WV?$string_output_adapter@_W@__crt_stdio_output@@@__crt_stdio_output@@IEAA_NXZ 000000018008da50 f i libucrtd:output.obj
 0001:0008cc80       ?validate_and_update_state_at_end_of_format_string@?$standard_base@DV?$stream_output_adapter@D@__crt_stdio_output@@@__crt_stdio_output@@IEBA_NXZ 000000018008dc80 f i libucrtd:output.obj
 0001:0008cc90       ?validate_and_update_state_at_end_of_format_string@?$standard_base@DV?$string_output_adapter@D@__crt_stdio_output@@@__crt_stdio_output@@IEBA_NXZ 000000018008dc90 f i libucrtd:output.obj
 0001:0008cca0       ?validate_and_update_state_at_end_of_format_string@?$standard_base@_WV?$stream_output_adapter@_W@__crt_stdio_output@@@__crt_stdio_output@@IEBA_NXZ 000000018008dca0 f i libucrtd:output.obj
 0001:0008ccb0       ?validate_and_update_state_at_end_of_format_string@?$standard_base@_WV?$string_output_adapter@_W@__crt_stdio_output@@@__crt_stdio_output@@IEBA_NXZ 000000018008dcb0 f i libucrtd:output.obj
 0001:0008ccc0       ?validate_state_for_type_case_a@?$positional_parameter_base@DV?$stream_output_adapter@D@__crt_stdio_output@@@__crt_stdio_output@@IEAA_NXZ 000000018008dcc0 f i libucrtd:output.obj
 0001:0008ce20       ?validate_state_for_type_case_a@?$positional_parameter_base@DV?$string_output_adapter@D@__crt_stdio_output@@@__crt_stdio_output@@IEAA_NXZ 000000018008de20 f i libucrtd:output.obj
 0001:0008cf80       ?validate_state_for_type_case_a@?$positional_parameter_base@_WV?$stream_output_adapter@_W@__crt_stdio_output@@@__crt_stdio_output@@IEAA_NXZ 000000018008df80 f i libucrtd:output.obj
 0001:0008d0e0       ?validate_state_for_type_case_a@?$positional_parameter_base@_WV?$string_output_adapter@_W@__crt_stdio_output@@@__crt_stdio_output@@IEAA_NXZ 000000018008e0e0 f i libucrtd:output.obj
 0001:0008d240       ?validate_state_for_type_case_a@?$standard_base@DV?$stream_output_adapter@D@__crt_stdio_output@@@__crt_stdio_output@@IEBA_NXZ 000000018008e240 f i libucrtd:output.obj
 0001:0008d250       ?validate_state_for_type_case_a@?$standard_base@DV?$string_output_adapter@D@__crt_stdio_output@@@__crt_stdio_output@@IEBA_NXZ 000000018008e250 f i libucrtd:output.obj
 0001:0008d260       ?validate_state_for_type_case_a@?$standard_base@_WV?$stream_output_adapter@_W@__crt_stdio_output@@@__crt_stdio_output@@IEBA_NXZ 000000018008e260 f i libucrtd:output.obj
 0001:0008d270       ?validate_state_for_type_case_a@?$standard_base@_WV?$string_output_adapter@_W@__crt_stdio_output@@@__crt_stdio_output@@IEBA_NXZ 000000018008e270 f i libucrtd:output.obj
 0001:0008d280       ?validate_stream_is_ansi_if_required@?$__acrt_stdio_char_traits@D@@SA_NQEAU_iobuf@@@Z 000000018008e280 f i libucrtd:output.obj
 0001:0008d410       ?validate_stream_is_ansi_if_required@?$__acrt_stdio_char_traits@_W@@SA_NQEAU_iobuf@@@Z 000000018008e410 f i libucrtd:output.obj
 0001:0008d420       ?wide_character_to_digit@__crt_strtox@@YAH_W@Z 000000018008e420 f i libucrtd:output.obj
 0001:0008d790       ?wide_null_string@?$output_processor@DV?$stream_output_adapter@D@__crt_stdio_output@@V?$format_validation_base@DV?$stream_output_adapter@D@__crt_stdio_output@@@2@@__crt_stdio_output@@CAPEA_WXZ 000000018008e790 f i libucrtd:output.obj
 0001:0008d7a0       ?wide_null_string@?$output_processor@DV?$stream_output_adapter@D@__crt_stdio_output@@V?$positional_parameter_base@DV?$stream_output_adapter@D@__crt_stdio_output@@@2@@__crt_stdio_output@@CAPEA_WXZ 000000018008e7a0 f i libucrtd:output.obj
 0001:0008d7b0       ?wide_null_string@?$output_processor@DV?$stream_output_adapter@D@__crt_stdio_output@@V?$standard_base@DV?$stream_output_adapter@D@__crt_stdio_output@@@2@@__crt_stdio_output@@CAPEA_WXZ 000000018008e7b0 f i libucrtd:output.obj
 0001:0008d7c0       ?wide_null_string@?$output_processor@DV?$string_output_adapter@D@__crt_stdio_output@@V?$format_validation_base@DV?$string_output_adapter@D@__crt_stdio_output@@@2@@__crt_stdio_output@@CAPEA_WXZ 000000018008e7c0 f i libucrtd:output.obj
 0001:0008d7d0       ?wide_null_string@?$output_processor@DV?$string_output_adapter@D@__crt_stdio_output@@V?$positional_parameter_base@DV?$string_output_adapter@D@__crt_stdio_output@@@2@@__crt_stdio_output@@CAPEA_WXZ 000000018008e7d0 f i libucrtd:output.obj
 0001:0008d7e0       ?wide_null_string@?$output_processor@DV?$string_output_adapter@D@__crt_stdio_output@@V?$standard_base@DV?$string_output_adapter@D@__crt_stdio_output@@@2@@__crt_stdio_output@@CAPEA_WXZ 000000018008e7e0 f i libucrtd:output.obj
 0001:0008d7f0       ?wide_null_string@?$output_processor@_WV?$stream_output_adapter@_W@__crt_stdio_output@@V?$format_validation_base@_WV?$stream_output_adapter@_W@__crt_stdio_output@@@2@@__crt_stdio_output@@CAPEA_WXZ 000000018008e7f0 f i libucrtd:output.obj
 0001:0008d800       ?wide_null_string@?$output_processor@_WV?$stream_output_adapter@_W@__crt_stdio_output@@V?$positional_parameter_base@_WV?$stream_output_adapter@_W@__crt_stdio_output@@@2@@__crt_stdio_output@@CAPEA_WXZ 000000018008e800 f i libucrtd:output.obj
 0001:0008d810       ?wide_null_string@?$output_processor@_WV?$stream_output_adapter@_W@__crt_stdio_output@@V?$standard_base@_WV?$stream_output_adapter@_W@__crt_stdio_output@@@2@@__crt_stdio_output@@CAPEA_WXZ 000000018008e810 f i libucrtd:output.obj
 0001:0008d820       ?wide_null_string@?$output_processor@_WV?$string_output_adapter@_W@__crt_stdio_output@@V?$format_validation_base@_WV?$string_output_adapter@_W@__crt_stdio_output@@@2@@__crt_stdio_output@@CAPEA_WXZ 000000018008e820 f i libucrtd:output.obj
 0001:0008d830       ?wide_null_string@?$output_processor@_WV?$string_output_adapter@_W@__crt_stdio_output@@V?$positional_parameter_base@_WV?$string_output_adapter@_W@__crt_stdio_output@@@2@@__crt_stdio_output@@CAPEA_WXZ 000000018008e830 f i libucrtd:output.obj
 0001:0008d840       ?wide_null_string@?$output_processor@_WV?$string_output_adapter@_W@__crt_stdio_output@@V?$standard_base@_WV?$string_output_adapter@_W@__crt_stdio_output@@@2@@__crt_stdio_output@@CAPEA_WXZ 000000018008e840 f i libucrtd:output.obj
 0001:0008d850       ?write_character@?$output_adapter_common@DV?$stream_output_adapter@D@__crt_stdio_output@@@__crt_stdio_output@@QEBAXDQEAHAEAV__crt_cached_ptd_host@@@Z 000000018008e850 f i libucrtd:output.obj
 0001:0008d8b0       ?write_character@?$output_adapter_common@_WV?$stream_output_adapter@_W@__crt_stdio_output@@@__crt_stdio_output@@QEBAX_WQEAHAEAV__crt_cached_ptd_host@@@Z 000000018008e8b0 f i libucrtd:output.obj
 0001:0008d910       ?write_character@?$string_output_adapter@D@__crt_stdio_output@@QEBA_NDQEAHAEAV__crt_cached_ptd_host@@@Z 000000018008e910 f i libucrtd:output.obj
 0001:0008d9e0       ?write_character@?$string_output_adapter@_W@__crt_stdio_output@@QEBA_N_WQEAHAEAV__crt_cached_ptd_host@@@Z 000000018008e9e0 f i libucrtd:output.obj
 0001:0008dab0       ?write_character_without_count_update@?$stream_output_adapter@D@__crt_stdio_output@@QEBA_NDAEAV__crt_cached_ptd_host@@@Z 000000018008eab0 f i libucrtd:output.obj
 0001:0008db40       ?write_character_without_count_update@?$stream_output_adapter@_W@__crt_stdio_output@@QEBA_N_WAEAV__crt_cached_ptd_host@@@Z 000000018008eb40 f i libucrtd:output.obj
 0001:0008dbd0       ?write_stored_string_tchar@?$output_processor@DV?$stream_output_adapter@D@__crt_stdio_output@@V?$format_validation_base@DV?$stream_output_adapter@D@__crt_stdio_output@@@2@@__crt_stdio_output@@AEAA_ND@Z 000000018008ebd0 f i libucrtd:output.obj
 0001:0008dd80       ?write_stored_string_tchar@?$output_processor@DV?$stream_output_adapter@D@__crt_stdio_output@@V?$positional_parameter_base@DV?$stream_output_adapter@D@__crt_stdio_output@@@2@@__crt_stdio_output@@AEAA_ND@Z 000000018008ed80 f i libucrtd:output.obj
 0001:0008df30       ?write_stored_string_tchar@?$output_processor@DV?$stream_output_adapter@D@__crt_stdio_output@@V?$standard_base@DV?$stream_output_adapter@D@__crt_stdio_output@@@2@@__crt_stdio_output@@AEAA_ND@Z 000000018008ef30 f i libucrtd:output.obj
 0001:0008e0e0       ?write_stored_string_tchar@?$output_processor@DV?$string_output_adapter@D@__crt_stdio_output@@V?$format_validation_base@DV?$string_output_adapter@D@__crt_stdio_output@@@2@@__crt_stdio_output@@AEAA_ND@Z 000000018008f0e0 f i libucrtd:output.obj
 0001:0008e290       ?write_stored_string_tchar@?$output_processor@DV?$string_output_adapter@D@__crt_stdio_output@@V?$positional_parameter_base@DV?$string_output_adapter@D@__crt_stdio_output@@@2@@__crt_stdio_output@@AEAA_ND@Z 000000018008f290 f i libucrtd:output.obj
 0001:0008e440       ?write_stored_string_tchar@?$output_processor@DV?$string_output_adapter@D@__crt_stdio_output@@V?$standard_base@DV?$string_output_adapter@D@__crt_stdio_output@@@2@@__crt_stdio_output@@AEAA_ND@Z 000000018008f440 f i libucrtd:output.obj
 0001:0008e5f0       ?write_stored_string_tchar@?$output_processor@_WV?$stream_output_adapter@_W@__crt_stdio_output@@V?$format_validation_base@_WV?$stream_output_adapter@_W@__crt_stdio_output@@@2@@__crt_stdio_output@@AEAA_N_W@Z 000000018008f5f0 f i libucrtd:output.obj
 0001:0008e750       ?write_stored_string_tchar@?$output_processor@_WV?$stream_output_adapter@_W@__crt_stdio_output@@V?$positional_parameter_base@_WV?$stream_output_adapter@_W@__crt_stdio_output@@@2@@__crt_stdio_output@@AEAA_N_W@Z 000000018008f750 f i libucrtd:output.obj
 0001:0008e8b0       ?write_stored_string_tchar@?$output_processor@_WV?$stream_output_adapter@_W@__crt_stdio_output@@V?$standard_base@_WV?$stream_output_adapter@_W@__crt_stdio_output@@@2@@__crt_stdio_output@@AEAA_N_W@Z 000000018008f8b0 f i libucrtd:output.obj
 0001:0008ea10       ?write_stored_string_tchar@?$output_processor@_WV?$string_output_adapter@_W@__crt_stdio_output@@V?$format_validation_base@_WV?$string_output_adapter@_W@__crt_stdio_output@@@2@@__crt_stdio_output@@AEAA_N_W@Z 000000018008fa10 f i libucrtd:output.obj
 0001:0008eb70       ?write_stored_string_tchar@?$output_processor@_WV?$string_output_adapter@_W@__crt_stdio_output@@V?$positional_parameter_base@_WV?$string_output_adapter@_W@__crt_stdio_output@@@2@@__crt_stdio_output@@AEAA_N_W@Z 000000018008fb70 f i libucrtd:output.obj
 0001:0008ecd0       ?write_stored_string_tchar@?$output_processor@_WV?$string_output_adapter@_W@__crt_stdio_output@@V?$standard_base@_WV?$string_output_adapter@_W@__crt_stdio_output@@@2@@__crt_stdio_output@@AEAA_N_W@Z 000000018008fcd0 f i libucrtd:output.obj
 0001:0008ee30       ?write_string@?$stream_output_adapter@D@__crt_stdio_output@@QEBAXQEBDHQEAHAEAV__crt_cached_ptd_host@@@Z 000000018008fe30 f i libucrtd:output.obj
 0001:0008eeb0       ?write_string@?$stream_output_adapter@_W@__crt_stdio_output@@QEBAXQEB_WHQEAHAEAV__crt_cached_ptd_host@@@Z 000000018008feb0 f i libucrtd:output.obj
 0001:0008ef30       ?write_string@?$string_output_adapter@D@__crt_stdio_output@@QEBAXQEBDHQEAHAEAV__crt_cached_ptd_host@@@Z 000000018008ff30 f i libucrtd:output.obj
 0001:0008f0a0       ?write_string@?$string_output_adapter@_W@__crt_stdio_output@@QEBAXQEB_WHQEAHAEAV__crt_cached_ptd_host@@@Z 00000001800900a0 f i libucrtd:output.obj
 0001:0008f210       ?write_string_impl@?$output_adapter_common@DV?$stream_output_adapter@D@__crt_stdio_output@@@__crt_stdio_output@@IEBAXQEBDHQEAHAEAV__crt_cached_ptd_host@@@Z 0000000180090210 f i libucrtd:output.obj
 0001:0008f330       ?write_string_impl@?$output_adapter_common@_WV?$stream_output_adapter@_W@__crt_stdio_output@@@__crt_stdio_output@@IEBAXQEB_WHQEAHAEAV__crt_cached_ptd_host@@@Z 0000000180090330 f i libucrtd:output.obj
 0001:0008f450       __acrt_disable_global_locale_sync 0000000180090450 f i libucrtd:output.obj
 0001:0008f480       __acrt_enable_global_locale_sync 0000000180090480 f i libucrtd:output.obj
 0001:0008f4b0       __acrt_isleadbyte_l_noupdate 00000001800904b0 f i libucrtd:output.obj
 0001:0008f4e0       __acrt_locale_changed      00000001800904e0 f i libucrtd:output.obj
 0001:0008f510       __acrt_locale_get_ctype_array_value 0000000180090510 f i libucrtd:output.obj
 0001:0008f550       __ascii_iswalpha           0000000180090550 f i libucrtd:output.obj
 0001:0008f590       __ascii_toupper            0000000180090590 f i libucrtd:output.obj
 0001:0008f5b0       __ascii_towupper           00000001800905b0 f i libucrtd:output.obj
 0001:0008f5d0       __stdio_common_vfprintf    00000001800905d0 f   libucrtd:output.obj
 0001:0008f650       __stdio_common_vfprintf_p  0000000180090650 f   libucrtd:output.obj
 0001:0008f6d0       __stdio_common_vfprintf_s  00000001800906d0 f   libucrtd:output.obj
 0001:0008f750       __stdio_common_vfwprintf   0000000180090750 f   libucrtd:output.obj
 0001:0008f7d0       __stdio_common_vfwprintf_p 00000001800907d0 f   libucrtd:output.obj
 0001:0008f850       __stdio_common_vfwprintf_s 0000000180090850 f   libucrtd:output.obj
 0001:0008f8d0       __stdio_common_vsnprintf_s 00000001800908d0 f   libucrtd:output.obj
 0001:0008f960       __stdio_common_vsnwprintf_s 0000000180090960 f   libucrtd:output.obj
 0001:0008f9f0       __stdio_common_vsprintf    00000001800909f0 f   libucrtd:output.obj
 0001:0008fa80       __stdio_common_vsprintf_p  0000000180090a80 f   libucrtd:output.obj
 0001:0008fb10       __stdio_common_vsprintf_s  0000000180090b10 f   libucrtd:output.obj
 0001:0008fba0       __stdio_common_vswprintf   0000000180090ba0 f   libucrtd:output.obj
 0001:0008fc30       __stdio_common_vswprintf_p 0000000180090c30 f   libucrtd:output.obj
 0001:0008fcc0       __stdio_common_vswprintf_s 0000000180090cc0 f   libucrtd:output.obj
 0001:0008fd50       _ctype_fast_check_internal 0000000180090d50 f i libucrtd:output.obj
 0001:0008fd80       _isdigit_fast_internal     0000000180090d80 f i libucrtd:output.obj
 0001:0008fdb0       _tolower_fast_internal     0000000180090db0 f i libucrtd:output.obj
 0001:0008fde0       free                       0000000180090de0 f   libucrtd:free.obj
 0001:0008fe10       malloc                     0000000180090e10 f   libucrtd:malloc.obj
 0001:0008fe40       ??$?RU?$__crt_report_hook_node@D@@@__crt_internal_free_policy@@QEBAXQEBU?$__crt_report_hook_node@D@@@Z 0000000180090e40 f i libucrtd:dbgrpt.obj
 0001:0008fe70       ??$?RU?$__crt_report_hook_node@_W@@@__crt_internal_free_policy@@QEBAXQEBU?$__crt_report_hook_node@_W@@@Z 0000000180090e70 f i libucrtd:dbgrpt.obj
 0001:000910d0       ??$get_module_file_name@AEAPEAUHINSTANCE__@@AEAY0BAF@DK@?$__crt_char_traits@D@@SAKAEAPEAUHINSTANCE__@@AEAY0BAF@D$$QEAK@Z 00000001800920d0 f i libucrtd:dbgrpt.obj
 0001:00091110       ??$get_module_file_name@AEAPEAUHINSTANCE__@@AEAY0BAF@_WK@?$__crt_char_traits@_W@@SAKAEAPEAUHINSTANCE__@@AEAY0BAF@_W$$QEAK@Z 0000000180092110 f i libucrtd:dbgrpt.obj
 0001:00091150       ??$tcscpy_s@AEAY0BAF@D_KPEBD@?$__crt_char_traits@D@@SAHAEAY0BAF@D$$QEA_K$$QEAPEBD@Z 0000000180092150 f i libucrtd:dbgrpt.obj
 0001:00091190       ??$tcscpy_s@AEAY0BAF@_W_KPEB_W@?$__crt_char_traits@_W@@SAHAEAY0BAF@_W$$QEA_K$$QEAPEB_W@Z 0000000180092190 f i libucrtd:dbgrpt.obj
 0001:000911d0       ??$tcslen@AEAY0BAF@D@?$__crt_char_traits@D@@SA_KAEAY0BAF@D@Z 00000001800921d0 f i libucrtd:dbgrpt.obj
 0001:000911f0       ??$tcslen@AEAY0BAF@_W@?$__crt_char_traits@_W@@SA_KAEAY0BAF@_W@Z 00000001800921f0 f i libucrtd:dbgrpt.obj
 0001:00091210       ??$tcslen@AEBQEBD@?$__crt_char_traits@D@@SA_KAEBQEBD@Z 0000000180092210 f i libucrtd:dbgrpt.obj
 0001:00091230       ??$tcslen@AEBQEB_W@?$__crt_char_traits@_W@@SA_KAEBQEB_W@Z 0000000180092230 f i libucrtd:dbgrpt.obj
 0001:00091330       ??0?$__crt_unique_heap_ptr@U?$__crt_report_hook_node@D@@U__crt_internal_free_policy@@@@QEAA@QEAU?$__crt_report_hook_node@D@@@Z 0000000180092330 f i libucrtd:dbgrpt.obj
 0001:00091350       ??0?$__crt_unique_heap_ptr@U?$__crt_report_hook_node@_W@@U__crt_internal_free_policy@@@@QEAA@QEAU?$__crt_report_hook_node@_W@@@Z 0000000180092350 f i libucrtd:dbgrpt.obj
 0001:00091370       ??1?$__crt_unique_heap_ptr@U?$__crt_report_hook_node@D@@U__crt_internal_free_policy@@@@QEAA@XZ 0000000180092370 f i libucrtd:dbgrpt.obj
 0001:00091390       ??1?$__crt_unique_heap_ptr@U?$__crt_report_hook_node@_W@@U__crt_internal_free_policy@@@@QEAA@XZ 0000000180092390 f i libucrtd:dbgrpt.obj
 0001:000913b0       ??B?$__crt_unique_heap_ptr@U?$__crt_report_hook_node@D@@U__crt_internal_free_policy@@@@QEBA_NXZ 00000001800923b0 f i libucrtd:dbgrpt.obj
 0001:000913d0       ??B?$__crt_unique_heap_ptr@U?$__crt_report_hook_node@_W@@U__crt_internal_free_policy@@@@QEBA_NXZ 00000001800923d0 f i libucrtd:dbgrpt.obj
 0001:00091af0       ?detach@?$__crt_unique_heap_ptr@U?$__crt_report_hook_node@D@@U__crt_internal_free_policy@@@@QEAAPEAU?$__crt_report_hook_node@D@@XZ 0000000180092af0 f i libucrtd:dbgrpt.obj
 0001:00091b20       ?detach@?$__crt_unique_heap_ptr@U?$__crt_report_hook_node@_W@@U__crt_internal_free_policy@@@@QEAAPEAU?$__crt_report_hook_node@_W@@XZ 0000000180092b20 f i libucrtd:dbgrpt.obj
 0001:00091b50       ?get@?$__crt_unique_heap_ptr@U?$__crt_report_hook_node@D@@U__crt_internal_free_policy@@@@QEBAPEAU?$__crt_report_hook_node@D@@XZ 0000000180092b50 f i libucrtd:dbgrpt.obj
 0001:00091b60       ?get@?$__crt_unique_heap_ptr@U?$__crt_report_hook_node@_W@@U__crt_internal_free_policy@@@@QEBAPEAU?$__crt_report_hook_node@_W@@XZ 0000000180092b60 f i libucrtd:dbgrpt.obj
 0001:00091bd0       ?is_valid@?$__crt_unique_heap_ptr@U?$__crt_report_hook_node@D@@U__crt_internal_free_policy@@@@QEBA_NXZ 0000000180092bd0 f i libucrtd:dbgrpt.obj
 0001:00091c00       ?is_valid@?$__crt_unique_heap_ptr@U?$__crt_report_hook_node@_W@@U__crt_internal_free_policy@@@@QEBA_NXZ 0000000180092c00 f i libucrtd:dbgrpt.obj
 0001:00091c30       ?release@?$__crt_unique_heap_ptr@U?$__crt_report_hook_node@D@@U__crt_internal_free_policy@@@@QEAAXXZ 0000000180092c30 f i libucrtd:dbgrpt.obj
 0001:00091c60       ?release@?$__crt_unique_heap_ptr@U?$__crt_report_hook_node@_W@@U__crt_internal_free_policy@@@@QEAAXXZ 0000000180092c60 f i libucrtd:dbgrpt.obj
 0001:00091c90       _CrtDbgReport              0000000180092c90 f   libucrtd:dbgrpt.obj
 0001:00091d10       _CrtDbgReportW             0000000180092d10 f   libucrtd:dbgrpt.obj
 0001:00091d90       _CrtSetReportHook2         0000000180092d90 f   libucrtd:dbgrpt.obj
 0001:00091db0       _CrtSetReportHookW2        0000000180092db0 f   libucrtd:dbgrpt.obj
 0001:00091dd0       __acrt_MessageWindowA      0000000180092dd0 f   libucrtd:dbgrpt.obj
 0001:00091e20       __acrt_MessageWindowW      0000000180092e20 f   libucrtd:dbgrpt.obj
 0001:00091e70       _invoke_watson_if_error    0000000180092e70 f i libucrtd:dbgrpt.obj
 0001:00091ec0       _invoke_watson_if_oneof    0000000180092ec0 f i libucrtd:dbgrpt.obj
 0001:00091f20       _snwprintf_s               0000000180092f20 f i libucrtd:dbgrpt.obj
 0001:00091f90       _vsnwprintf_s_l            0000000180092f90 f i libucrtd:dbgrpt.obj
 0001:00092510       wcscpy_s                   0000000180093510 f   libucrtd:wcscpy_s.obj
 0001:000938a0       ??1?$__crt_simd_cleanup_guard@$00@@QEAA@XZ 00000001800948a0 f i libucrtd:strnlen.obj
 0001:000938b0       ??1?$__crt_simd_cleanup_guard@$0A@@@QEAA@XZ 00000001800948b0 f i libucrtd:strnlen.obj
 0001:000938c0       ?compare_equals@?$__crt_simd_traits@$00E@@SA?AT__m256i@@T2@0@Z 00000001800948c0 f i libucrtd:strnlen.obj
 0001:00093900       ?compare_equals@?$__crt_simd_traits@$00G@@SA?AT__m256i@@T2@0@Z 0000000180094900 f i libucrtd:strnlen.obj
 0001:00093940       ?compare_equals@?$__crt_simd_traits@$0A@E@@SA?AT__m128i@@T2@0@Z 0000000180094940 f i libucrtd:strnlen.obj
 0001:00093970       ?compare_equals@?$__crt_simd_traits@$0A@G@@SA?AT__m128i@@T2@0@Z 0000000180094970 f i libucrtd:strnlen.obj
 0001:000939a0       ?compute_byte_mask@?$__crt_simd_pack_traits@$00@@SAHT__m256i@@@Z 00000001800949a0 f i libucrtd:strnlen.obj
 0001:000939c0       ?compute_byte_mask@?$__crt_simd_pack_traits@$0A@@@SAHT__m128i@@@Z 00000001800949c0 f i libucrtd:strnlen.obj
 0001:000939e0       ?get_zero_pack@?$__crt_simd_pack_traits@$00@@SA?AT__m256i@@XZ 00000001800949e0 f i libucrtd:strnlen.obj
 0001:00093a10       ?get_zero_pack@?$__crt_simd_pack_traits@$0A@@@SA?AT__m128i@@XZ 0000000180094a10 f i libucrtd:strnlen.obj
 0001:00093a30       strnlen                    0000000180094a30 f   libucrtd:strnlen.obj
 0001:00093a60       wcslen                     0000000180094a60 f   libucrtd:strnlen.obj
 0001:00093a80       wcsnlen                    0000000180094a80 f   libucrtd:strnlen.obj
 0001:00093ab0       ??$__crt_fast_decode_pointer@P6AXPEB_W00I_K@Z@@YAP6AXPEB_W00I_K@ZQ6AX000I1@Z@Z 0000000180094ab0 f i libucrtd:invalid_parameter.obj
 0001:00093af0       ??$__crt_fast_encode_pointer@P6AXPEB_W00I_K@Z@@YAP6AXPEB_W00I_K@ZQ6AX000I1@Z@Z 0000000180094af0 f i libucrtd:invalid_parameter.obj
 0001:00093b30       ??$initialize_from_array@$$BY00Q6AXPEB_W00I_K@Z@?$dual_state_global@P6AXPEB_W00I_K@Z@__crt_state_management@@QEAAXAEAY00Q6AXPEB_W00I_K@Z@Z 0000000180094b30 f i libucrtd:invalid_parameter.obj
 0001:00093b90       ?__crt_rotate_pointer_value@@YA_K_KH@Z 0000000180094b90 f i libucrtd:invalid_parameter.obj
 0001:00093c50       ?check_synchronize_global_state_index@__crt_cached_ptd_host@@AEAA_KXZ 0000000180094c50 f i libucrtd:invalid_parameter.obj
 0001:00093cb0       ?dangerous_get_state_array@?$dual_state_global@P6AXPEB_W00I_K@Z@__crt_state_management@@QEAAPEAP6AXPEB_W00I_K@ZXZ 0000000180094cb0 f i libucrtd:invalid_parameter.obj
 0001:00093cc0       ?get_current_global_state_index@__crt_cached_ptd_host@@QEAA_KXZ 0000000180094cc0 f i libucrtd:invalid_parameter.obj
 0001:00093ce0       ?get_current_state_index@__crt_state_management@@YA_KXZ 0000000180094ce0 f i libucrtd:invalid_parameter.obj
 0001:00093cf0       ?get_raw_ptd_noexit@__crt_cached_ptd_host@@QEAAPEAU__acrt_ptd@@XZ 0000000180094cf0 f i libucrtd:invalid_parameter.obj
 0001:00093d10       ?try_synchronize_per_thread_data@__crt_cached_ptd_host@@AEAAPEAU__acrt_ptd@@XZ 0000000180094d10 f i libucrtd:invalid_parameter.obj
 0001:00093d40       ?value@?$dual_state_global@P6AXPEB_W00I_K@Z@__crt_state_management@@QEAAAEAP6AXPEB_W00I_K@ZAEAV__crt_cached_ptd_host@@@Z 0000000180094d40 f i libucrtd:invalid_parameter.obj
 0001:00093d70       ?value@?$dual_state_global@P6AXPEB_W00I_K@Z@__crt_state_management@@QEAAAEAP6AXPEB_W00I_K@ZXZ 0000000180094d70 f i libucrtd:invalid_parameter.obj
 0001:00093d90       __acrt_call_reportfault    0000000180094d90 f   libucrtd:invalid_parameter.obj
 0001:00093ec0       __acrt_initialize_invalid_parameter_handler 0000000180094ec0 f   libucrtd:invalid_parameter.obj
 0001:00093ef0       _get_invalid_parameter_handler 0000000180094ef0 f   libucrtd:invalid_parameter.obj
 0001:00093f10       _get_thread_local_invalid_parameter_handler 0000000180094f10 f   libucrtd:invalid_parameter.obj
 0001:00093f40       _invalid_parameter         0000000180094f40 f   libucrtd:invalid_parameter.obj
 0001:00093fb0       _invalid_parameter_internal 0000000180094fb0 f   libucrtd:invalid_parameter.obj
 0001:00094100       _invalid_parameter_noinfo  0000000180095100 f   libucrtd:invalid_parameter.obj
 0001:00094130       _invalid_parameter_noinfo_noreturn 0000000180095130 f   libucrtd:invalid_parameter.obj
 0001:00094170       _invoke_watson             0000000180095170 f   libucrtd:invalid_parameter.obj
 0001:000941d0       _set_invalid_parameter_handler 00000001800951d0 f   libucrtd:invalid_parameter.obj
 0001:00094220       _set_thread_local_invalid_parameter_handler 0000000180095220 f   libucrtd:invalid_parameter.obj
 0001:00094260       ?get_doserrno@__crt_cached_ptd_host@@QEAAAEAU?$cached@K@1@XZ 0000000180095260 f i libucrtd:errno.obj
 0001:00094270       ?set@?$cached@K@__crt_cached_ptd_host@@QEAAKK@Z 0000000180095270 f i libucrtd:errno.obj
 0001:000942a0       __acrt_errno_from_os_error 00000001800952a0 f   libucrtd:errno.obj
 0001:00094330       __acrt_errno_map_os_error  0000000180095330 f   libucrtd:errno.obj
 0001:00094360       __acrt_errno_map_os_error_ptd 0000000180095360 f   libucrtd:errno.obj
 0001:000943c0       __doserrno                 00000001800953c0 f   libucrtd:errno.obj
 0001:000943f0       _errno                     00000001800953f0 f   libucrtd:errno.obj
 0001:00094420       _get_doserrno              0000000180095420 f   libucrtd:errno.obj
 0001:000944e0       _get_errno                 00000001800954e0 f   libucrtd:errno.obj
 0001:000945a0       _set_doserrno              00000001800955a0 f   libucrtd:errno.obj
 0001:000945e0       _set_errno                 00000001800955e0 f   libucrtd:errno.obj
 0001:00094620       calloc                     0000000180095620 f   libucrtd:calloc.obj
 0001:00094660       _recalloc                  0000000180095660 f   libucrtd:recalloc.obj
 0001:000946b0       _recalloc_base             00000001800956b0 f   libucrtd:recalloc.obj
 0001:00094790       _resetstkoflw              0000000180095790 f   libucrtd:resetstk.obj
 0001:00094f90       wcscat_s                   0000000180095f90 f   libucrtd:wcscat_s.obj
 0001:00095670       wcsncpy_s                  0000000180096670 f   libucrtd:wcsncpy_s.obj
 0001:000957f0       __isascii                  00000001800967f0 f   libucrtd:_ctype.obj
 0001:00095820       __iscsym                   0000000180096820 f   libucrtd:_ctype.obj
 0001:00095860       __iscsymf                  0000000180096860 f   libucrtd:_ctype.obj
 0001:000958a0       __toascii                  00000001800968a0 f   libucrtd:_ctype.obj
 0001:000958b0       _isalnum_l                 00000001800968b0 f   libucrtd:_ctype.obj
 0001:000958e0       _isalpha_l                 00000001800968e0 f   libucrtd:_ctype.obj
 0001:00095910       _isblank_l                 0000000180096910 f   libucrtd:_ctype.obj
 0001:00095940       _iscntrl_l                 0000000180096940 f   libucrtd:_ctype.obj
 0001:00095970       _iscsym_l                  0000000180096970 f   libucrtd:_ctype.obj
 0001:000959c0       _iscsymf_l                 00000001800969c0 f   libucrtd:_ctype.obj
 0001:00095a10       _isdigit_l                 0000000180096a10 f   libucrtd:_ctype.obj
 0001:00095a40       _isgraph_l                 0000000180096a40 f   libucrtd:_ctype.obj
 0001:00095a70       _islower_l                 0000000180096a70 f   libucrtd:_ctype.obj
 0001:00095aa0       _isprint_l                 0000000180096aa0 f   libucrtd:_ctype.obj
 0001:00095ad0       _ispunct_l                 0000000180096ad0 f   libucrtd:_ctype.obj
 0001:00095b00       _isspace_l                 0000000180096b00 f   libucrtd:_ctype.obj
 0001:00095b30       _isupper_l                 0000000180096b30 f   libucrtd:_ctype.obj
 0001:00095b60       _isxdigit_l                0000000180096b60 f   libucrtd:_ctype.obj
 0001:00095b90       isalnum                    0000000180096b90 f   libucrtd:_ctype.obj
 0001:00095bb0       isalpha                    0000000180096bb0 f   libucrtd:_ctype.obj
 0001:00095bd0       isblank                    0000000180096bd0 f   libucrtd:_ctype.obj
 0001:00095c00       iscntrl                    0000000180096c00 f   libucrtd:_ctype.obj
 0001:00095c20       isdigit                    0000000180096c20 f   libucrtd:_ctype.obj
 0001:00095c40       isgraph                    0000000180096c40 f   libucrtd:_ctype.obj
 0001:00095c60       islower                    0000000180096c60 f   libucrtd:_ctype.obj
 0001:00095c80       isprint                    0000000180096c80 f   libucrtd:_ctype.obj
 0001:00095ca0       ispunct                    0000000180096ca0 f   libucrtd:_ctype.obj
 0001:00095cc0       isspace                    0000000180096cc0 f   libucrtd:_ctype.obj
 0001:00095ce0       isupper                    0000000180096ce0 f   libucrtd:_ctype.obj
 0001:00095d00       isxdigit                   0000000180096d00 f   libucrtd:_ctype.obj
 0001:00095d20       wcscat                     0000000180096d20 f   libucrtd:wcscat.obj
 0001:00095db0       wcscpy                     0000000180096db0 f   libucrtd:wcscpy.obj
 0001:00096560       ??$open_file@AEBQEBDAEBQEBDAEBHPEAU_iobuf@@@?$__crt_char_traits@D@@SAPEAU_iobuf@@AEBQEBD0AEBH$$QEAPEAU1@@Z 0000000180097560 f i libucrtd:fopen.obj
 0001:000965b0       ??$open_file@AEBQEB_WAEBQEB_WAEBHPEAU_iobuf@@@?$__crt_char_traits@_W@@SAPEAU_iobuf@@AEBQEB_W0AEBH$$QEAPEAU1@@Z 00000001800975b0 f i libucrtd:fopen.obj
 0001:00096600       ?unlock@__crt_stdio_stream@@QEBAXXZ 0000000180097600 f i libucrtd:fopen.obj
 0001:00096620       _fsopen                    0000000180097620 f   libucrtd:fopen.obj
 0001:00096650       _wfopen                    0000000180097650 f   libucrtd:fopen.obj
 0001:00096680       _wfopen_s                  0000000180097680 f   libucrtd:fopen.obj
 0001:000966b0       _wfsopen                   00000001800976b0 f   libucrtd:fopen.obj
 0001:000966e0       fopen                      00000001800976e0 f   libucrtd:fopen.obj
 0001:00096710       fopen_s                    0000000180097710 f   libucrtd:fopen.obj
 0001:00096a50       ?is_in_use@__crt_stdio_stream@@QEBA_NXZ 0000000180097a50 f i libucrtd:fclose.obj
 0001:00096a90       _fclose_nolock             0000000180097a90 f   libucrtd:fclose.obj
 0001:00096ad0       fclose                     0000000180097ad0 f   libucrtd:fclose.obj
 0001:00096e10       _fputc_nolock              0000000180097e10 f   libucrtd:fputc.obj
 0001:00096e60       _fputc_nolock_internal     0000000180097e60 f   libucrtd:fputc.obj
 0001:00096f20       _fputchar                  0000000180097f20 f   libucrtd:fputc.obj
 0001:00096f50       _putc_nolock               0000000180097f50 f   libucrtd:fputc.obj
 0001:00096f70       fputc                      0000000180097f70 f   libucrtd:fputc.obj
 0001:00096fc0       putc                       0000000180097fc0 f   libucrtd:fputc.obj
 0001:00096fe0       putchar                    0000000180097fe0 f   libucrtd:fputc.obj
 0001:00097070       _seh_filter_dll            0000000180098070 f   libucrtd:exception_filter.obj
 0001:000970a0       _seh_filter_exe            00000001800980a0 f   libucrtd:exception_filter.obj
 0001:00097370       ??$?B$$A6AXPEAXK0@Z@__crt_fast_encoded_nullptr_t@@QEBAP6AXPEAXK0@ZXZ 0000000180098370 f i libucrtd:exit.obj
 0001:00097430       ??$__crt_fast_decode_pointer@P6AXPEAXK0@Z@@YAP6AXPEAXK0@ZQ6AX0K0@Z@Z 0000000180098430 f i libucrtd:exit.obj
 0001:00097470       ??$__crt_fast_encode_pointer@P6AXPEAXK0@Z@@YAP6AXPEAXK0@ZQ6AX0K0@Z@Z 0000000180098470 f i libucrtd:exit.obj
 0001:000974b0       ??$__crt_get_proc_address@P6AXI@Z@@YAP6AXI@ZQEAUHINSTANCE__@@QEBD@Z 00000001800984b0 f i libucrtd:exit.obj
 0001:00097570       ??0?$__crt_unique_handle_t@U__crt_hmodule_traits@@@@QEAA@QEAUHINSTANCE__@@@Z 0000000180098570 f i libucrtd:exit.obj
 0001:00097590       ??1?$__crt_unique_handle_t@U__crt_hmodule_traits@@@@QEAA@XZ 0000000180098590 f i libucrtd:exit.obj
 0001:00097710       ?__acrt_select_exit_lock@@YA?AW4__acrt_lock_id@@XZ 0000000180098710 f i libucrtd:exit.obj
 0001:00097720       ?__crt_fast_encode_pointer@@YA?AU__crt_fast_encoded_nullptr_t@@$$T@Z 0000000180098720 f i libucrtd:exit.obj
 0001:00097760       ?close@?$__crt_unique_handle_t@U__crt_hmodule_traits@@@@QEAAXXZ 0000000180098760 f i libucrtd:exit.obj
 0001:000977a0       ?close@__crt_hmodule_traits@@SA_NPEAUHINSTANCE__@@@Z 00000001800987a0 f i libucrtd:exit.obj
 0001:000978c0       ?get@?$__crt_unique_handle_t@U__crt_hmodule_traits@@@@QEBAPEAUHINSTANCE__@@XZ 00000001800988c0 f i libucrtd:exit.obj
 0001:000978d0       ?get_address_of@?$__crt_unique_handle_t@U__crt_hmodule_traits@@@@QEAAPEAPEAUHINSTANCE__@@XZ 00000001800988d0 f i libucrtd:exit.obj
 0001:000978e0       ?get_invalid_value@__crt_hmodule_traits@@SAPEAUHINSTANCE__@@XZ 00000001800988e0 f i libucrtd:exit.obj
 0001:00097ac0       _Exit                      0000000180098ac0 f   libucrtd:exit.obj
 0001:00097ae0       __acrt_initialize_thread_local_exit_callback 0000000180098ae0 f   libucrtd:exit.obj
 0001:00097b00       _c_exit                    0000000180098b00 f   libucrtd:exit.obj
 0001:00097b20       _cexit                     0000000180098b20 f   libucrtd:exit.obj
 0001:00097b40       _exit                      0000000180098b40 f   libucrtd:exit.obj
 0001:00097b60       _is_c_termination_complete 0000000180098b60 f   libucrtd:exit.obj
 0001:00097b80       _register_thread_local_exe_atexit_callback 0000000180098b80 f   libucrtd:exit.obj
 0001:00097bd0       exit                       0000000180098bd0 f   libucrtd:exit.obj
 0001:00097bf0       quick_exit                 0000000180098bf0 f   libucrtd:exit.obj
 0001:00097c10       ??$?RE@__crt_internal_free_policy@@QEBAXQEBE@Z 0000000180098c10 f i libucrtd:argv_parsing.obj
 0001:00097c40       ??$?RPEAD@__crt_internal_free_policy@@QEBAXQEBQEAD@Z 0000000180098c40 f i libucrtd:argv_parsing.obj
 0001:00097c70       ??$?RPEA_W@__crt_internal_free_policy@@QEBAXQEBQEA_W@Z 0000000180098c70 f i libucrtd:argv_parsing.obj
 0001:000983c0       ??$get_module_file_name@$$TAEAY0BAF@DH@?$__crt_char_traits@D@@SAK$$QEA$$TAEAY0BAF@D$$QEAH@Z 00000001800993c0 f i libucrtd:argv_parsing.obj
 0001:00098400       ??$get_module_file_name@$$TAEAY0BAF@_WH@?$__crt_char_traits@_W@@SAK$$QEA$$TAEAY0BAF@_W$$QEAH@Z 0000000180099400 f i libucrtd:argv_parsing.obj
 0001:00098e00       ??$set_program_name@PEAD@?$__crt_char_traits@D@@SAX$$QEAPEAD@Z 0000000180099e00 f i libucrtd:argv_parsing.obj
 0001:00098e20       ??$set_program_name@PEA_W@?$__crt_char_traits@_W@@SAX$$QEAPEA_W@Z 0000000180099e20 f i libucrtd:argv_parsing.obj
 0001:00098e80       ??0?$__crt_unique_heap_ptr@EU__crt_internal_free_policy@@@@QEAA@QEAE@Z 0000000180099e80 f i libucrtd:argv_parsing.obj
 0001:00098ea0       ??0?$__crt_unique_heap_ptr@PEADU__crt_internal_free_policy@@@@QEAA@QEAPEAD@Z 0000000180099ea0 f i libucrtd:argv_parsing.obj
 0001:00098ec0       ??0?$__crt_unique_heap_ptr@PEA_WU__crt_internal_free_policy@@@@QEAA@QEAPEA_W@Z 0000000180099ec0 f i libucrtd:argv_parsing.obj
 0001:00098ee0       ??1?$__crt_unique_heap_ptr@EU__crt_internal_free_policy@@@@QEAA@XZ 0000000180099ee0 f i libucrtd:argv_parsing.obj
 0001:00098f00       ??1?$__crt_unique_heap_ptr@PEADU__crt_internal_free_policy@@@@QEAA@XZ 0000000180099f00 f i libucrtd:argv_parsing.obj
 0001:00098f20       ??1?$__crt_unique_heap_ptr@PEA_WU__crt_internal_free_policy@@@@QEAA@XZ 0000000180099f20 f i libucrtd:argv_parsing.obj
 0001:00098f40       ??B?$__crt_unique_heap_ptr@EU__crt_internal_free_policy@@@@QEBA_NXZ 0000000180099f40 f i libucrtd:argv_parsing.obj
 0001:00099020       ?detach@?$__crt_unique_heap_ptr@EU__crt_internal_free_policy@@@@QEAAPEAEXZ 000000018009a020 f i libucrtd:argv_parsing.obj
 0001:00099050       ?detach@?$__crt_unique_heap_ptr@PEADU__crt_internal_free_policy@@@@QEAAPEAPEADXZ 000000018009a050 f i libucrtd:argv_parsing.obj
 0001:00099080       ?detach@?$__crt_unique_heap_ptr@PEA_WU__crt_internal_free_policy@@@@QEAAPEAPEA_WXZ 000000018009a080 f i libucrtd:argv_parsing.obj
 0001:00099140       ?get@?$__crt_unique_heap_ptr@EU__crt_internal_free_policy@@@@QEBAPEAEXZ 000000018009a140 f i libucrtd:argv_parsing.obj
 0001:00099150       ?get@?$__crt_unique_heap_ptr@PEADU__crt_internal_free_policy@@@@QEBAPEAPEADXZ 000000018009a150 f i libucrtd:argv_parsing.obj
 0001:00099160       ?get@?$__crt_unique_heap_ptr@PEA_WU__crt_internal_free_policy@@@@QEBAPEAPEA_WXZ 000000018009a160 f i libucrtd:argv_parsing.obj
 0001:00099170       ?get_address_of@?$__crt_unique_heap_ptr@PEADU__crt_internal_free_policy@@@@QEAAPEAPEAPEADXZ 000000018009a170 f i libucrtd:argv_parsing.obj
 0001:00099180       ?get_address_of@?$__crt_unique_heap_ptr@PEA_WU__crt_internal_free_policy@@@@QEAAPEAPEAPEA_WXZ 000000018009a180 f i libucrtd:argv_parsing.obj
 0001:000991d0       ?is_valid@?$__crt_unique_heap_ptr@EU__crt_internal_free_policy@@@@QEBA_NXZ 000000018009a1d0 f i libucrtd:argv_parsing.obj
 0001:00099200       ?release@?$__crt_unique_heap_ptr@EU__crt_internal_free_policy@@@@QEAAXXZ 000000018009a200 f i libucrtd:argv_parsing.obj
 0001:00099230       ?release@?$__crt_unique_heap_ptr@PEADU__crt_internal_free_policy@@@@QEAAXXZ 000000018009a230 f i libucrtd:argv_parsing.obj
 0001:00099260       ?release@?$__crt_unique_heap_ptr@PEA_WU__crt_internal_free_policy@@@@QEAAXXZ 000000018009a260 f i libucrtd:argv_parsing.obj
 0001:000992e0       __acrt_allocate_buffer_for_argv 000000018009a2e0 f   libucrtd:argv_parsing.obj
 0001:00099400       _configure_narrow_argv     000000018009a400 f   libucrtd:argv_parsing.obj
 0001:00099420       _configure_wide_argv       000000018009a420 f   libucrtd:argv_parsing.obj
 0001:00099440       _set_pgmptr                000000018009a440 f i libucrtd:argv_parsing.obj
 0001:00099460       _set_wpgmptr               000000018009a460 f i libucrtd:argv_parsing.obj
 0001:00099480       ??$?R_W@__crt_internal_free_policy@@QEBAXQEB_W@Z 000000018009a480 f i libucrtd:environment_initialization.obj
 0001:00099e40       ??$get_environment_from_os@$$V@?$__crt_char_traits@D@@SAPEADXZ 000000018009ae40 f i libucrtd:environment_initialization.obj
 0001:00099e50       ??$get_environment_from_os@$$V@?$__crt_char_traits@_W@@SAPEA_WXZ 000000018009ae50 f i libucrtd:environment_initialization.obj
 0001:0009a160       ??$set_variable_in_environment_nolock@PEADH@?$__crt_char_traits@D@@SAH$$QEAPEAD$$QEAH@Z 000000018009b160 f i libucrtd:environment_initialization.obj
 0001:0009a190       ??$set_variable_in_environment_nolock@PEA_WH@?$__crt_char_traits@_W@@SAH$$QEAPEA_W$$QEAH@Z 000000018009b190 f i libucrtd:environment_initialization.obj
 0001:0009a1c0       ??$tcscpy_s@PEADAEB_KAEAPEAD@?$__crt_char_traits@D@@SAH$$QEAPEADAEB_KAEAPEAD@Z 000000018009b1c0 f i libucrtd:environment_initialization.obj
 0001:0009a200       ??$tcscpy_s@PEA_WAEB_KAEAPEA_W@?$__crt_char_traits@_W@@SAH$$QEAPEA_WAEB_KAEAPEA_W@Z 000000018009b200 f i libucrtd:environment_initialization.obj
 0001:0009a240       ??$tcslen@AEAPEAD@?$__crt_char_traits@D@@SA_KAEAPEAD@Z 000000018009b240 f i libucrtd:environment_initialization.obj
 0001:0009a260       ??$tcslen@AEAPEA_W@?$__crt_char_traits@_W@@SA_KAEAPEA_W@Z 000000018009b260 f i libucrtd:environment_initialization.obj
 0001:0009a280       ??$uninitialize@A6AXAEAPEAPEAD@_E@?$dual_state_global@PEAPEAD@__crt_state_management@@QEAAXA6AXAEAPEAPEAD@_E@Z 000000018009b280 f i libucrtd:environment_initialization.obj
 0001:0009a300       ??$uninitialize@A6AXAEAPEAPEA_W@_E@?$dual_state_global@PEAPEA_W@__crt_state_management@@QEAAXA6AXAEAPEAPEA_W@_E@Z 000000018009b300 f i libucrtd:environment_initialization.obj
 0001:0009a400       ??0?$__crt_unique_heap_ptr@_WU__crt_internal_free_policy@@@@QEAA@QEA_W@Z 000000018009b400 f i libucrtd:environment_initialization.obj
 0001:0009a420       ??1?$__crt_unique_heap_ptr@_WU__crt_internal_free_policy@@@@QEAA@XZ 000000018009b420 f i libucrtd:environment_initialization.obj
 0001:0009a440       ??B?$__crt_unique_heap_ptr@PEADU__crt_internal_free_policy@@@@QEBA_NXZ 000000018009b440 f i libucrtd:environment_initialization.obj
 0001:0009a460       ??B?$__crt_unique_heap_ptr@PEA_WU__crt_internal_free_policy@@@@QEBA_NXZ 000000018009b460 f i libucrtd:environment_initialization.obj
 0001:0009a480       ??B?$__crt_unique_heap_ptr@_WU__crt_internal_free_policy@@@@QEBA_NXZ 000000018009b480 f i libucrtd:environment_initialization.obj
 0001:0009a4a0       ?__crt_compute_required_transform_buffer_count@@YA_KIQEBD@Z 000000018009b4a0 f i libucrtd:environment_initialization.obj
 0001:0009a4e0       ?__crt_compute_required_transform_buffer_count@@YA_KIQEB_W@Z 000000018009b4e0 f i libucrtd:environment_initialization.obj
 0001:0009a530       ?__crt_transform_string@@YA_KIQEBDQEA_W_K@Z 000000018009b530 f i libucrtd:environment_initialization.obj
 0001:0009a580       ?__crt_transform_string@@YA_KIQEB_WQEAD_K@Z 000000018009b580 f i libucrtd:environment_initialization.obj
 0001:0009a5e0       ?detach@?$__crt_unique_heap_ptr@DU__crt_internal_free_policy@@@@QEAAPEADXZ 000000018009b5e0 f i libucrtd:environment_initialization.obj
 0001:0009a610       ?detach@?$__crt_unique_heap_ptr@_WU__crt_internal_free_policy@@@@QEAAPEA_WXZ 000000018009b610 f i libucrtd:environment_initialization.obj
 0001:0009a640       ?get@?$__crt_unique_heap_ptr@_WU__crt_internal_free_policy@@@@QEBAPEA_WXZ 000000018009b640 f i libucrtd:environment_initialization.obj
 0001:0009a6d0       ?initialize@?$dual_state_global@PEAPEAD@__crt_state_management@@QEAAXQEAPEAD@Z 000000018009b6d0 f i libucrtd:environment_initialization.obj
 0001:0009a720       ?initialize@?$dual_state_global@PEAPEA_W@__crt_state_management@@QEAAXQEAPEA_W@Z 000000018009b720 f i libucrtd:environment_initialization.obj
 0001:0009a770       ?is_valid@?$__crt_unique_heap_ptr@PEADU__crt_internal_free_policy@@@@QEBA_NXZ 000000018009b770 f i libucrtd:environment_initialization.obj
 0001:0009a7a0       ?is_valid@?$__crt_unique_heap_ptr@PEA_WU__crt_internal_free_policy@@@@QEBA_NXZ 000000018009b7a0 f i libucrtd:environment_initialization.obj
 0001:0009a7d0       ?is_valid@?$__crt_unique_heap_ptr@_WU__crt_internal_free_policy@@@@QEBA_NXZ 000000018009b7d0 f i libucrtd:environment_initialization.obj
 0001:0009a830       ?release@?$__crt_unique_heap_ptr@_WU__crt_internal_free_policy@@@@QEAAXXZ 000000018009b830 f i libucrtd:environment_initialization.obj
 0001:0009a860       ?value@?$dual_state_global@PEAPEAD@__crt_state_management@@QEAAAEAPEAPEADXZ 000000018009b860 f i libucrtd:environment_initialization.obj
 0001:0009a880       ?value@?$dual_state_global@PEAPEA_W@__crt_state_management@@QEAAAEAPEAPEA_WXZ 000000018009b880 f i libucrtd:environment_initialization.obj
 0001:0009a8a0       __dcrt_get_or_create_narrow_environment_nolock 000000018009b8a0 f   libucrtd:environment_initialization.obj
 0001:0009a8b0       __dcrt_get_or_create_wide_environment_nolock 000000018009b8b0 f   libucrtd:environment_initialization.obj
 0001:0009a8c0       __dcrt_uninitialize_environments_nolock 000000018009b8c0 f   libucrtd:environment_initialization.obj
 0001:0009a910       __p__environ               000000018009b910 f   libucrtd:environment_initialization.obj
 0001:0009a930       __p__wenviron              000000018009b930 f   libucrtd:environment_initialization.obj
 0001:0009a950       _get_initial_narrow_environment 000000018009b950 f   libucrtd:environment_initialization.obj
