 OPOSSigCap

 Timestamp is 61a75952 (Wed Dec  1 20:15:30 2021)

 Preferred load address is 0000000180000000

 Start         Length     Name                   Class
 0001:00000000 00000d90H .text$di                CODE
 0001:00000d90 000e3ef0H .text$mn                CODE
 0001:000e4c80 00000040H .text$mn$00             CODE
 0001:000e4cc0 00001330H .text$x                 CODE
 0001:000e5ff0 00000124H .text$yd                CODE
 0002:00000000 000006f8H .idata$5                DATA
 0002:000006f8 00000030H .00cfg                  DATA
 0002:00000728 00000008H .CRT$XCA                DATA
 0002:00000730 00000008H .CRT$XCL                DATA
 0002:00000738 000000d8H .CRT$XCU                DATA
 0002:00000810 00000008H .CRT$XCZ                DATA
 0002:00000818 00000008H .CRT$XIA                DATA
 0002:00000820 00000028H .CRT$XIC                DATA
 0002:00000848 00000008H .CRT$XIZ                DATA
 0002:00000850 00000008H .CRT$XLA                DATA
 0002:00000858 00000008H .CRT$XLZ                DATA
 0002:00000860 00000008H .CRT$XPA                DATA
 0002:00000868 00000010H .CRT$XPX                DATA
 0002:00000878 00000008H .CRT$XPXA               DATA
 0002:00000880 00000008H .CRT$XPZ                DATA
 0002:00000888 00000008H .CRT$XTA                DATA
 0002:00000890 00000010H .CRT$XTZ                DATA
 0002:00000898 00000000H .gehcont$y              DATA
 0002:00000898 00000000H .gfids$y                DATA
 0002:000008a0 0003bee0H .rdata                  DATA
 0002:0003c780 00000080H .rdata$CastGuardVftablesA DATA
 0002:0003c800 00000080H .rdata$CastGuardVftablesC DATA
 0002:0003c880 00000028H .rdata$T                DATA
 0002:0003c8a8 0000056cH .rdata$r                DATA
 0002:0003ce14 00000180H .rdata$voltmd           DATA
 0002:0003cf94 000004a4H .rdata$zzzdbg           DATA
 0002:0003d438 00000008H .rtc$IAA                DATA
 0002:0003d440 00000030H .rtc$IMZ                DATA
 0002:0003d470 00000008H .rtc$IZZ                DATA
 0002:0003d478 00000008H .rtc$TAA                DATA
 0002:0003d480 00000030H .rtc$TMZ                DATA
 0002:0003d4b0 00000008H .rtc$TZZ                DATA
 0002:0003d4b8 00000004H .tls                    DATA
 0002:0003d4bc 00000004H .tls$                   DATA
 0002:0003d4c0 00000008H .tls$ZZZ                DATA
 0002:0003d4c8 00009f08H .xdata                  DATA
 0002:000473d0 00000150H .xdata$x                DATA
 0002:00047520 00000008H ATL$__a                 DATA
 0002:00047528 00000008H ATL$__z                 DATA
 0002:00047530 000000a8H .edata                  DATA
 0002:000475d8 00000078H .idata$2                DATA
 0002:00047650 00000018H .idata$3                DATA
 0002:00047668 000006f8H .idata$4                DATA
 0002:00047d60 00000df0H .idata$6                DATA
 0003:00000000 00000ed8H .data                   DATA
 0003:00000ed8 000000a8H .data$r                 DATA
 0003:00000f80 000000f0H .data$rs                DATA
 0003:00001070 00003e7cH .bss                    DATA
 0004:00000000 0000c7b0H .pdata                  DATA
 0005:00000000 000000fcH _RDATA                  DATA
 0006:00000000 00000220H .rsrc$01                DATA
 0006:00000220 00003f88H .rsrc$02                DATA

  Address         Publics by Value              Rva+Base               Lib:Object

 0000:00000000       __enclave_config           0000000000000000     <absolute>
 0000:00000000       __dynamic_value_reloc_table 0000000000000000     <absolute>
 0000:00000000       __hybrid_code_map          0000000000000000     <absolute>
 0000:00000000       __hybrid_code_map_count    0000000000000000     <absolute>
 0000:00000000       __guard_longjmp_count      0000000000000000     <absolute>
 0000:00000000       __guard_fids_count         0000000000000000     <absolute>
 0000:00000000       __guard_iat_count          0000000000000000     <absolute>
 0000:00000000       __x64_code_ranges_to_entry_points_count 0000000000000000     <absolute>
 0000:00000000       __guard_check_icall_a64n_fptr 0000000000000000     <absolute>
 0000:00000000       ___safe_se_handler_table   0000000000000000     <absolute>
 0000:00000000       ___safe_se_handler_count   0000000000000000     <absolute>
 0000:00000000       __arm64x_native_entrypoint 0000000000000000     <absolute>
 0000:00000000       __hybrid_auxiliary_iat     0000000000000000     <absolute>
 0000:00000000       __guard_iat_table          0000000000000000     <absolute>
 0000:00000000       __AbsoluteZero             0000000000000000     <absolute>
 0000:00000000       __arm64x_redirection_metadata_count 0000000000000000     <absolute>
 0000:00000000       __arm64x_redirection_metadata 0000000000000000     <absolute>
 0000:00000000       __guard_eh_cont_count      0000000000000000     <absolute>
 0000:00000000       __hybrid_auxiliary_iat_copy 0000000000000000     <absolute>
 0000:00000000       __arm64x_extra_rfe_table   0000000000000000     <absolute>
 0000:00000000       __x64_code_ranges_to_entry_points 0000000000000000     <absolute>
 0000:00000000       __guard_eh_cont_table      0000000000000000     <absolute>
 0000:00000000       __arm64x_extra_rfe_table_size 0000000000000000     <absolute>
 0000:00000000       __guard_longjmp_table      0000000000000000     <absolute>
 0000:00000000       __guard_fids_table         0000000000000000     <absolute>
 0000:00000100       __guard_flags              0000000000000100     <absolute>
 0000:00000000       __ImageBase                0000000180000000     <linker-defined>
 0001:00000d90       ?_assert@@YAXPEB_W0I@Z     0000000180001d90 f   Assert.obj
 0001:00000e90       __local_stdio_printf_options 0000000180001e90 f i Assert.obj
 0001:00000ea0       __vswprintf_l              0000000180001ea0 f i Assert.obj
 0001:00000ef0       _swprintf                  0000000180001ef0 f i Assert.obj
 0001:00000f70       _vswprintf_c_l             0000000180001f70 f i Assert.obj
 0001:00000fe0       _vswprintf_l               0000000180001fe0 f i Assert.obj
 0001:00001030       ?cw_memcpy@@YAHPEADPEB_WH@Z 0000000180002030 f   CWString.obj
 0001:000010b0       ?cw_memcpy@@YAHPEA_WPEBDH@Z 00000001800020b0 f   CWString.obj
 0001:00001120       ?cw_memcpy@@YAHPEADPEBDH@Z 0000000180002120 f   CWString.obj
 0001:000011b0       ?cw_memcpy@@YAHPEA_WPEB_WH@Z 00000001800021b0 f   CWString.obj
 0001:00001210       ?cw_memset@@YAXPEADDH@Z    0000000180002210 f   CWString.obj
 0001:00001270       ?cw_memset@@YAXPEA_W_WH@Z  0000000180002270 f   CWString.obj
 0001:00001300       ?cw_strlen@@YAHPEBD@Z      0000000180002300 f   CWString.obj
 0001:00001360       ?cw_strlen@@YAHPEB_W@Z     0000000180002360 f   CWString.obj
 0001:000013c0       ?cw_strcpy@@YAHPEADPEB_W@Z 00000001800023c0 f   CWString.obj
 0001:00001400       ?cw_strcpy@@YAHPEA_WPEBD@Z 0000000180002400 f   CWString.obj
 0001:00001440       ?cw_strcpy@@YAHPEADPEBD@Z  0000000180002440 f   CWString.obj
 0001:00001480       ?cw_strcpy@@YAHPEA_WPEB_W@Z 0000000180002480 f   CWString.obj
 0001:000014c0       ?cw_strcat@@YAHPEADPEB_W@Z 00000001800024c0 f   CWString.obj
 0001:00001510       ?cw_strcat@@YAHPEA_WPEBD@Z 0000000180002510 f   CWString.obj
 0001:00001560       ?cw_strcat@@YAHPEADPEBD@Z  0000000180002560 f   CWString.obj
 0001:000015b0       ?cw_strcat@@YAHPEA_WPEB_W@Z 00000001800025b0 f   CWString.obj
 0001:00001600       ?cw_dup@@YAXPEBDAEAHAEAPEA_W1@Z 0000000180002600 f   CWString.obj
 0001:00001700       ?cw_dup@@YAXPEB_WAEAHAEAPEAD1@Z 0000000180002700 f   CWString.obj
 0001:000017e0       ?DupChar@_CW@@AEAAXXZ      00000001800027e0 f   CWString.obj
 0001:00001830       ?DupWide@_CW@@AEAAXXZ      0000000180002830 f   CWString.obj
 0001:00001880       ?GetCharsMbcs@_CW@@QEAAHXZ 0000000180002880 f   CWString.obj
 0001:000018e0       ?GetCharsWide@_CW@@QEAAHXZ 00000001800028e0 f   CWString.obj
 0001:00001940       ?SetVARIANT_BOOL@OposVariant@@QEAAXF@Z 0000000180002940 f   OposVariant.obj
 0001:000019a0       ?SetVARIANT_BOOL_Ptr@OposVariant@@QEAAXPEAFAEAJ@Z 00000001800029a0 f   OposVariant.obj
 0001:00001a00       ?GetLONG@OposVariant@@QEAAJXZ 0000000180002a00 f   OposVariant.obj
 0001:00001a60       ?ChangeLONG@OposVariant@@QEAAXPEAJAEAJ@Z 0000000180002a60 f   OposVariant.obj
 0001:00001b10       ?SetLONG@OposVariant@@QEAAXJ@Z 0000000180002b10 f   OposVariant.obj
 0001:00001b50       ?SetLONG_Ptr@OposVariant@@QEAAXPEAJAEAJ@Z 0000000180002b50 f   OposVariant.obj
 0001:00001bb0       ?ChangeCURRENCY@OposVariant@@QEAAXPEATtagCY@@AEAJ@Z 0000000180002bb0 f   OposVariant.obj
 0001:00001c60       ?SetCURRENCY@OposVariant@@QEAAXTtagCY@@@Z 0000000180002c60 f   OposVariant.obj
 0001:00001ca0       ?SetCURRENCY_Ptr@OposVariant@@QEAAXPEATtagCY@@AEAJ@Z 0000000180002ca0 f   OposVariant.obj
 0001:00001d00       ?ChangeBSTR@OposVariant@@QEAAXPEAPEA_WAEAJ@Z 0000000180002d00 f   OposVariant.obj
 0001:00001db0       ?SetBSTR@OposVariant@@QEAAXPEA_WAEAJ@Z 0000000180002db0 f   OposVariant.obj
 0001:00001e10       ?SetBSTR_Copy@OposVariant@@QEAAXPEA_WAEAJ@Z 0000000180002e10 f   OposVariant.obj
 0001:00001eb0       ?SetBSTR_OutPtr@OposVariant@@QEAA_NPEAPEA_WAEAJ@Z 0000000180002eb0 f   OposVariant.obj
 0001:00001f10       ?SetBSTR_InOutPtr@OposVariant@@QEAA_NPEAPEA_WAEAJ@Z 0000000180002f10 f   OposVariant.obj
 0001:00001f70       ?SetVARIANT@OposVariant@@QEAAXAEAUtagVARIANT@@GAEAJ@Z 0000000180002f70 f   OposVariant.obj
 0001:00002000       ?SetVARIANT_Ptr@OposVariant@@QEAAXAEAPEAUtagVARIANT@@GAEAJ@Z 0000000180003000 f   OposVariant.obj
 0001:000020a0       ?SetString@OposVariant@@QEAAXPEB_WAEAJ@Z 00000001800030a0 f   OposVariant.obj
 0001:00002130       ?SetDispatch_Ptr@OposVariant@@QEAAXPEAUIDispatch@@AEAJ@Z 0000000180003130 f   OposVariant.obj
 0001:000021b0       ??0OposDispParms@@QEAA@PEAVOposVariant@@H@Z 00000001800031b0 f   OposVariant.obj
 0001:000022b0       ??1OposDispParms@@QEAA@XZ  00000001800032b0 f   OposVariant.obj
 0001:000022f0       ??$AtlMultiply@_K@ATL@@YAJPEA_K_K1@Z 00000001800032f0 f i OposVariant.obj
 0001:00002360       ??0?$CHeapPtr@_WVCCRTAllocator@ATL@@@ATL@@QEAA@XZ 0000000180003360 f i OposVariant.obj
 0001:00002380       ??0?$CHeapPtrBase@_WVCCRTAllocator@ATL@@@ATL@@IEAA@XZ 0000000180003380 f i OposVariant.obj
 0001:000023a0       ??0?$CSimpleArray@GV?$CSimpleArrayEqualHelper@G@ATL@@@ATL@@QEAA@XZ 00000001800033a0 f i OposVariant.obj
 0001:000023e0       ??0?$CTraceCategoryEx@$00$0A@@ATL@@QEAA@PEB_W@Z 00000001800033e0 f i OposVariant.obj
 0001:00002410       ??0?$CTraceCategoryEx@$01$0A@@ATL@@QEAA@PEB_W@Z 0000000180003410 f i OposVariant.obj
 0001:00002440       ??0?$CTraceCategoryEx@$03$0A@@ATL@@QEAA@PEB_W@Z 0000000180003440 f i OposVariant.obj
 0001:00002470       ??0?$CTraceCategoryEx@$07$0A@@ATL@@QEAA@PEB_W@Z 0000000180003470 f i OposVariant.obj
 0001:000024a0       ??0?$CTraceCategoryEx@$0BA@$0A@@ATL@@QEAA@PEB_W@Z 00000001800034a0 f i OposVariant.obj
 0001:000024d0       ??0?$CTraceCategoryEx@$0BAA@$0A@@ATL@@QEAA@PEB_W@Z 00000001800034d0 f i OposVariant.obj
 0001:00002500       ??0?$CTraceCategoryEx@$0BAAA@$0A@@ATL@@QEAA@PEB_W@Z 0000000180003500 f i OposVariant.obj
 0001:00002530       ??0?$CTraceCategoryEx@$0BAAAA@$0A@@ATL@@QEAA@PEB_W@Z 0000000180003530 f i OposVariant.obj
 0001:00002560       ??0?$CTraceCategoryEx@$0BAAAAA@$0A@@ATL@@QEAA@PEB_W@Z 0000000180003560 f i OposVariant.obj
 0001:00002590       ??0?$CTraceCategoryEx@$0CA@$0A@@ATL@@QEAA@PEB_W@Z 0000000180003590 f i OposVariant.obj
 0001:000025c0       ??0?$CTraceCategoryEx@$0CAA@$0A@@ATL@@QEAA@PEB_W@Z 00000001800035c0 f i OposVariant.obj
 0001:000025f0       ??0?$CTraceCategoryEx@$0CAAA@$0A@@ATL@@QEAA@PEB_W@Z 00000001800035f0 f i OposVariant.obj
 0001:00002620       ??0?$CTraceCategoryEx@$0CAAAA@$0A@@ATL@@QEAA@PEB_W@Z 0000000180003620 f i OposVariant.obj
 0001:00002650       ??0?$CTraceCategoryEx@$0CAAAAA@$0A@@ATL@@QEAA@PEB_W@Z 0000000180003650 f i OposVariant.obj
 0001:00002680       ??0?$CTraceCategoryEx@$0EA@$0A@@ATL@@QEAA@PEB_W@Z 0000000180003680 f i OposVariant.obj
 0001:000026b0       ??0?$CTraceCategoryEx@$0EAA@$0A@@ATL@@QEAA@PEB_W@Z 00000001800036b0 f i OposVariant.obj
 0001:000026e0       ??0?$CTraceCategoryEx@$0EAAA@$0A@@ATL@@QEAA@PEB_W@Z 00000001800036e0 f i OposVariant.obj
 0001:00002710       ??0?$CTraceCategoryEx@$0EAAAA@$0A@@ATL@@QEAA@PEB_W@Z 0000000180003710 f i OposVariant.obj
 0001:00002740       ??0?$CTraceCategoryEx@$0EAAAAA@$0A@@ATL@@QEAA@PEB_W@Z 0000000180003740 f i OposVariant.obj
 0001:00002770       ??0?$CTraceCategoryEx@$0IA@$0A@@ATL@@QEAA@PEB_W@Z 0000000180003770 f i OposVariant.obj
 0001:000027a0       ??0?$CTraceCategoryEx@$0IAA@$0A@@ATL@@QEAA@PEB_W@Z 00000001800037a0 f i OposVariant.obj
 0001:000027d0       ??0?$CTraceCategoryEx@$0IAAA@$0A@@ATL@@QEAA@PEB_W@Z 00000001800037d0 f i OposVariant.obj
 0001:00002800       ??0?$CTraceCategoryEx@$0IAAAA@$0A@@ATL@@QEAA@PEB_W@Z 0000000180003800 f i OposVariant.obj
 0001:00002830       ??0CAtlComModule@ATL@@QEAA@XZ 0000000180003830 f i OposVariant.obj
 0001:00002940       ??0CAtlWinModule@ATL@@QEAA@XZ 0000000180003940 f i OposVariant.obj
 0001:000029e0       ??0CComCriticalSection@ATL@@QEAA@XZ 00000001800039e0 f i OposVariant.obj
 0001:00002a10       ??0CPreserveLastError@ATL@@QEAA@XZ 0000000180003a10 f i OposVariant.obj
 0001:00002a40       ??0CTraceFileAndLineInfo@ATL@@QEAA@PEBDH@Z 0000000180003a40 f i OposVariant.obj
 0001:00002a70       ??0_ATL_COM_MODULE70@ATL@@QEAA@XZ 0000000180003a70 f i OposVariant.obj
 0001:00002aa0       ??0_ATL_WIN_MODULE70@ATL@@QEAA@XZ 0000000180003aa0 f i OposVariant.obj
 0001:00002ae0       ??1?$CHeapPtr@_WVCCRTAllocator@ATL@@@ATL@@QEAA@XZ 0000000180003ae0 f i OposVariant.obj
 0001:00002b00       ??1?$CHeapPtrBase@_WVCCRTAllocator@ATL@@@ATL@@QEAA@XZ 0000000180003b00 f i OposVariant.obj
 0001:00002b20       ??1?$CSimpleArray@GV?$CSimpleArrayEqualHelper@G@ATL@@@ATL@@QEAA@XZ 0000000180003b20 f i OposVariant.obj
 0001:00002b40       ??1CAtlComModule@ATL@@QEAA@XZ 0000000180003b40 f i OposVariant.obj
 0001:00002b70       ??1CAtlWinModule@ATL@@QEAA@XZ 0000000180003b70 f i OposVariant.obj
 0001:00002ba0       ??1CComBSTR@ATL@@QEAA@XZ   0000000180003ba0 f i OposVariant.obj
 0001:00002bc0       ??1CComCriticalSection@ATL@@QEAA@XZ 0000000180003bc0 f i OposVariant.obj
 0001:00002bd0       ??1CPreserveLastError@ATL@@QEAA@XZ 0000000180003bd0 f i OposVariant.obj
 0001:00002bf0       ??1_ATL_COM_MODULE70@ATL@@QEAA@XZ 0000000180003bf0 f i OposVariant.obj
 0001:00002c20       ??1_ATL_WIN_MODULE70@ATL@@QEAA@XZ 0000000180003c20 f i OposVariant.obj
 0001:00002c60       ??1stringdispid@CComTypeInfoHolder@ATL@@QEAA@XZ 0000000180003c60 f i OposVariant.obj
 0001:00002c80       ??A?$CSimpleArray@GV?$CSimpleArrayEqualHelper@G@ATL@@@ATL@@QEAAAEAGH@Z 0000000180003c80 f i OposVariant.obj
 0001:00002d20       ??B?$CHeapPtrBase@_WVCCRTAllocator@ATL@@@ATL@@QEBAPEA_WXZ 0000000180003d20 f i OposVariant.obj
 0001:00002d30       ??B?$CTraceCategoryEx@$01$0A@@ATL@@QEAAIXZ 0000000180003d30 f i OposVariant.obj
 0001:00002d40       ??B?$CTraceCategoryEx@$0CA@$0A@@ATL@@QEAAIXZ 0000000180003d40 f i OposVariant.obj
 0001:00002d50       ??RCTraceFileAndLineInfo@ATL@@QEBAXHIPEB_WZZ 0000000180003d50 f i OposVariant.obj
 0001:00002e10       ??_Estringdispid@CComTypeInfoHolder@ATL@@QEAAPEAXI@Z 0000000180003e10 f i OposVariant.obj
 0001:00002eb0       ??_H@YAXPEAX_K1P6APEAX0@Z@Z 0000000180003eb0 f i OposVariant.obj
 0001:00002f30       ??_I@YAXPEAX_K1P6AX0@Z@Z   0000000180003f30 f i OposVariant.obj
 0001:00002fd0       ?Allocate@?$CHeapPtr@_WVCCRTAllocator@ATL@@@ATL@@QEAA_N_K@Z 0000000180003fd0 f i OposVariant.obj
 0001:00003050       ?Allocate@CCRTAllocator@ATL@@SAPEAX_K@Z 0000000180004050 f i OposVariant.obj
 0001:00003070       ?AllocateBytes@?$CHeapPtrBase@_WVCCRTAllocator@ATL@@@ATL@@QEAA_N_K@Z 0000000180004070 f i OposVariant.obj
 0001:000030f0       ?AtlWinModuleInit@ATL@@YAJPEAU_ATL_WIN_MODULE70@1@@Z 00000001800040f0 f i OposVariant.obj
 0001:000031e0       ?AtlWinModuleTerm@ATL@@YAJPEAU_ATL_WIN_MODULE70@1@PEAUHINSTANCE__@@@Z 00000001800041e0 f i OposVariant.obj
 0001:000032b0       ?Clear@OposVariant@@QEAAJXZ 00000001800042b0 f i OposVariant.obj
 0001:000032e0       ?Free@?$CHeapPtrBase@_WVCCRTAllocator@ATL@@@ATL@@QEAAXXZ 00000001800042e0 f i OposVariant.obj
 0001:00003310       ?Free@CCRTAllocator@ATL@@SAXPEAX@Z 0000000180004310 f i OposVariant.obj
 0001:00003330       ?GetCategoryName@CTrace@ATL@@CAPEA_WI@Z 0000000180004330 f i OposVariant.obj
 0001:000033a0       ?GetModuleInstance@CAtlBaseModule@ATL@@QEAAPEAUHINSTANCE__@@XZ 00000001800043a0 f i OposVariant.obj
 0001:000033c0       ?GetSize@?$CSimpleArray@GV?$CSimpleArrayEqualHelper@G@ATL@@@ATL@@QEBAHXZ 00000001800043c0 f i OposVariant.obj
 0001:000033d0       ?Init@CComCriticalSection@ATL@@QEAAJXZ 00000001800043d0 f i OposVariant.obj
 0001:00003420       ?RegisterCategory@CTrace@ATL@@SAXPEB_WI@Z 0000000180004420 f i OposVariant.obj
 0001:000034e0       ?RemoveAll@?$CSimpleArray@GV?$CSimpleArrayEqualHelper@G@ATL@@@ATL@@QEAAXXZ 00000001800044e0 f i OposVariant.obj
 0001:00003550       ?Term@CAtlComModule@ATL@@QEAAXXZ 0000000180004550 f i OposVariant.obj
 0001:00003620       ?Term@CAtlWinModule@ATL@@QEAAXXZ 0000000180004620 f i OposVariant.obj
 0001:00003650       ?Term@CComCriticalSection@ATL@@QEAAJXZ 0000000180004650 f i OposVariant.obj
 0001:00003670       ?TraceV@CTrace@ATL@@CAXPEBDHIIPEB_W@Z 0000000180004670 f i OposVariant.obj
 0001:00003920       ?TraceV@CTrace@ATL@@SAXPEBDHIIPEB_WPEAD@Z 0000000180004920 f i OposVariant.obj
 0001:00003ad0       ?_AtlInitializeCriticalSectionEx@ATL@@YAHPEAU_RTL_CRITICAL_SECTION@@KK@Z 0000000180004ad0 f i OposVariant.obj
 0001:00003b00       ?_AtlRaiseException@ATL@@YAXKK@Z 0000000180004b00 f i OposVariant.obj
 0001:00003b30       HRESULT_FROM_WIN32         0000000180004b30 f i OposVariant.obj
 0001:00003b70       _vswprintf_s_l             0000000180004b70 f i OposVariant.obj
 0001:00003be0       swprintf_s                 0000000180004be0 f i OposVariant.obj
 0001:00003c70       ?ObjectMain@CComObjectRootBase@ATL@@SAX_N@Z 0000000180004c70 f i SigCap.obj
 0001:00003c80       ?GetCategoryMap@CComObjectRootBase@ATL@@SAPEBU_ATL_CATMAP_ENTRY@2@XZ 0000000180004c80 f i SigCap.obj
 0001:00003c90       ?GetObjectDescription@?$CComCoClass@VCOPOSSigCap@@$1?CLSID_OPOSSigCap@@3U_GUID@@B@ATL@@SAPEB_WXZ 0000000180004c90 f i SigCap.obj
 0001:00003ca0       ?UpdateRegistry@COPOSSigCap@@SAJH@Z 0000000180004ca0 f i SigCap.obj
 0001:00003cd0       ?CreateInstance@?$CComCreator@V?$CComObjectCached@VCComClassFactory@ATL@@@ATL@@@ATL@@SAJPEAXAEBU_GUID@@PEAPEAX@Z 0000000180004cd0 f i SigCap.obj
 0001:00003ea0       ?CreateInstance@?$CComCreator2@V?$CComCreator@V?$CComObject@VCOPOSSigCap@@@ATL@@@ATL@@V?$CComCreator@V?$CComAggObject@VCOPOSSigCap@@@ATL@@@2@@ATL@@SAJPEAXAEBU_GUID@@PEAPEAX@Z 0000000180004ea0 f i SigCap.obj
 0001:00004090       DllGetClassObject          0000000180005090 f   SigCap.obj
 0001:000040d0       DllCanUnloadNow            00000001800050d0 f   SigCap.obj
 0001:00004110       DllRegisterServer          0000000180005110 f   SigCap.obj
 0001:00004140       DllUnregisterServer        0000000180005140 f   SigCap.obj
 0001:00004300       DllMain                    0000000180005300 f   SigCap.obj
 0001:00004370       ??$?2G@Wrapper@?$CSimpleArray@GV?$CSimpleArrayEqualHelper@G@ATL@@@ATL@@SAPEAX_KPEAG@Z 0000000180005370 f i SigCap.obj
 0001:00004390       ??$?2PEA_W@?$Wrapper@PEA_W@?$CSimpleMap@PEA_WPEA_WVCExpansionVectorEqualHelper@ATL@@@ATL@@SAPEAX_KPEAPEA_W@Z 0000000180005390 f i SigCap.obj
 0001:000043b0       ??$?4UITypeInfo2@@@?$CComPtr@UITypeInfo@@@ATL@@QEAAPEAUITypeInfo@@AEBV?$CComPtr@UITypeInfo2@@@1@@Z 00000001800053b0 f i SigCap.obj
 0001:00004410       ??$AtlAdd@_K@ATL@@YAJPEA_K_K1@Z 0000000180005410 f i SigCap.obj
 0001:00004470       ??$AtlAddThrow@_K@ATL@@YA_K_K0@Z 0000000180005470 f i SigCap.obj
 0001:000044e0       ??$AtlModuleRegisterWndClassInfoT@VAtlModuleRegisterWndClassInfoParamW@ATL@@@ATL@@YAGPEAU_ATL_BASE_MODULE70@0@PEAU_ATL_WIN_MODULE70@0@PEAU_ATL_WNDCLASSINFOW@0@PEAP6A_JPEAUHWND__@@I_K_J@ZVAtlModuleRegisterWndClassInfoParamW@0@@Z 00000001800054e0 f i SigCap.obj
 0001:00004ab0       ??$AtlMultiply@H@ATL@@YAJPEAHHH@Z 0000000180005ab0 f i SigCap.obj
 0001:00004b10       ??$AtlMultiply@K@ATL@@YAJPEAKKK@Z 0000000180005b10 f i SigCap.obj
 0001:00004b60       ??$AtlMultiplyThrow@_K@ATL@@YA_K_K0@Z 0000000180005b60 f i SigCap.obj
 0001:00004bd0       ??$QueryInterface@UIPersistStream@@@IUnknown@@QEAAJPEAPEAUIPersistStream@@@Z 0000000180005bd0 f i SigCap.obj
 0001:00004c00       ??$QueryInterface@UITypeInfo2@@@IUnknown@@QEAAJPEAPEAUITypeInfo2@@@Z 0000000180005c00 f i SigCap.obj
 0001:00004c30       ??0?$CAtlModuleT@VCComModule@ATL@@@ATL@@QEAA@XZ 0000000180005c30 f i SigCap.obj
 0001:00004c60       ??0?$CAtlSafeAllocBufferManager@VCCRTAllocator@ATL@@@_ATL_SAFE_ALLOCA_IMPL@ATL@@QEAA@XZ 0000000180005c60 f i SigCap.obj
 0001:00004c80       ??0?$CAutoVectorPtr@_W@ATL@@QEAA@XZ 0000000180005c80 f i SigCap.obj
 0001:00004ca0       ??0?$CComAggObject@VCOPOSSigCap@@@ATL@@QEAA@PEAX@Z 0000000180005ca0 f i SigCap.obj
 0001:00004d10       ??0?$CComContainedObject@VCOPOSSigCap@@@ATL@@QEAA@PEAX@Z 0000000180005d10 f i SigCap.obj
 0001:00004ea0       ??0?$CComCritSecLock@VCComCriticalSection@ATL@@@ATL@@QEAA@AEAVCComCriticalSection@1@_N@Z 0000000180005ea0 f i SigCap.obj
 0001:00004f00       ??0?$CComEnum@UIEnumConnectionPoints@@$1?_GUID_b196b285_bab4_101a_b69c_00aa00341d07@@3U__s_GUID@@BPEAUIConnectionPoint@@V?$_CopyInterface@UIConnectionPoint@@@ATL@@VCComSingleThreadModel@6@@ATL@@QEAA@XZ 0000000180005f00 f i SigCap.obj
 0001:00004f30       ??0?$CComEnum@UIEnumConnections@@$1?_GUID_b196b287_bab4_101a_b69c_00aa00341d07@@3U__s_GUID@@BUtagCONNECTDATA@@V?$_Copy@UtagCONNECTDATA@@@ATL@@VCComSingleThreadModel@6@@ATL@@QEAA@XZ 0000000180005f30 f i SigCap.obj
 0001:00004f60       ??0?$CComEnumImpl@UIEnumConnectionPoints@@$1?_GUID_b196b285_bab4_101a_b69c_00aa00341d07@@3U__s_GUID@@BPEAUIConnectionPoint@@V?$_CopyInterface@UIConnectionPoint@@@ATL@@@ATL@@QEAA@XZ 0000000180005f60 f i SigCap.obj
 0001:00004fd0       ??0?$CComEnumImpl@UIEnumConnections@@$1?_GUID_b196b287_bab4_101a_b69c_00aa00341d07@@3U__s_GUID@@BUtagCONNECTDATA@@V?$_Copy@UtagCONNECTDATA@@@ATL@@@ATL@@QEAA@XZ 0000000180005fd0 f i SigCap.obj
 0001:00005040       ??0?$CComObject@V?$CComEnum@UIEnumConnectionPoints@@$1?_GUID_b196b285_bab4_101a_b69c_00aa00341d07@@3U__s_GUID@@BPEAUIConnectionPoint@@V?$_CopyInterface@UIConnectionPoint@@@ATL@@VCComSingleThreadModel@6@@ATL@@@ATL@@QEAA@PEAX@Z 0000000180006040 f i SigCap.obj
 0001:00005090       ??0?$CComObject@V?$CComEnum@UIEnumConnections@@$1?_GUID_b196b287_bab4_101a_b69c_00aa00341d07@@3U__s_GUID@@BUtagCONNECTDATA@@V?$_Copy@UtagCONNECTDATA@@@ATL@@VCComSingleThreadModel@6@@ATL@@@ATL@@QEAA@PEAX@Z 0000000180006090 f i SigCap.obj
 0001:000050e0       ??0?$CComObject@VCOPOSSigCap@@@ATL@@QEAA@PEAX@Z 00000001800060e0 f i SigCap.obj
 0001:00005270       ??0?$CComObjectCached@VCComClassFactory@ATL@@@ATL@@QEAA@PEAX@Z 0000000180006270 f i SigCap.obj
 0001:000052b0       ??0?$CComObjectRootEx@VCComMultiThreadModel@ATL@@@ATL@@QEAA@XZ 00000001800062b0 f i SigCap.obj
 0001:000052e0       ??0?$CComObjectRootEx@VCComSingleThreadModel@ATL@@@ATL@@QEAA@XZ 00000001800062e0 f i SigCap.obj
 0001:00005300       ??0?$CComPtr@UIAdviseSink@@@ATL@@QEAA@PEAUIAdviseSink@@@Z 0000000180006300 f i SigCap.obj
 0001:00005330       ??0?$CComPtr@UICatRegister@@@ATL@@QEAA@XZ 0000000180006330 f i SigCap.obj
 0001:00005350       ??0?$CComPtr@UIConnectionPoint@@@ATL@@QEAA@XZ 0000000180006350 f i SigCap.obj
 0001:00005370       ??0?$CComPtr@UIConnectionPointContainer@@@ATL@@QEAA@XZ 0000000180006370 f i SigCap.obj
 0001:00005390       ??0?$CComPtr@UIDataObject@@@ATL@@QEAA@XZ 0000000180006390 f i SigCap.obj
 0001:000053b0       ??0?$CComPtr@UIDispatch@@@ATL@@QEAA@XZ 00000001800063b0 f i SigCap.obj
 0001:000053d0       ??0?$CComPtr@UIOleClientSite@@@ATL@@QEAA@PEAUIOleClientSite@@@Z 00000001800063d0 f i SigCap.obj
 0001:00005400       ??0?$CComPtr@UIOleControlSite@@@ATL@@QEAA@XZ 0000000180006400 f i SigCap.obj
 0001:00005420       ??0?$CComPtr@UIOleInPlaceActiveObject@@@ATL@@QEAA@XZ 0000000180006420 f i SigCap.obj
 0001:00005440       ??0?$CComPtr@UIOleInPlaceFrame@@@ATL@@QEAA@XZ 0000000180006440 f i SigCap.obj
 0001:00005460       ??0?$CComPtr@UIOleInPlaceObject@@@ATL@@QEAA@XZ 0000000180006460 f i SigCap.obj
 0001:00005480       ??0?$CComPtr@UIOleInPlaceUIWindow@@@ATL@@QEAA@XZ 0000000180006480 f i SigCap.obj
 0001:000054a0       ??0?$CComPtr@UIOleObject@@@ATL@@QEAA@XZ 00000001800064a0 f i SigCap.obj
 0001:000054c0       ??0?$CComPtr@UIPersistStream@@@ATL@@QEAA@XZ 00000001800064c0 f i SigCap.obj
 0001:000054e0       ??0?$CComPtr@UIPersistStreamInit@@@ATL@@QEAA@XZ 00000001800064e0 f i SigCap.obj
 0001:00005500       ??0?$CComPtr@UIPointerInactive@@@ATL@@QEAA@XZ 0000000180006500 f i SigCap.obj
 0001:00005520       ??0?$CComPtr@UIProvideClassInfo2@@@ATL@@QEAA@XZ 0000000180006520 f i SigCap.obj
 0001:00005540       ??0?$CComPtr@UISpecifyPropertyPages@@@ATL@@QEAA@XZ 0000000180006540 f i SigCap.obj
 0001:00005560       ??0?$CComPtr@UIStream@@@ATL@@QEAA@XZ 0000000180006560 f i SigCap.obj
 0001:00005580       ??0?$CComPtr@UITypeInfo2@@@ATL@@QEAA@XZ 0000000180006580 f i SigCap.obj
 0001:000055a0       ??0?$CComPtr@UITypeInfo@@@ATL@@QEAA@AEBV01@@Z 00000001800065a0 f i SigCap.obj
 0001:000055d0       ??0?$CComPtr@UITypeInfo@@@ATL@@QEAA@XZ 00000001800065d0 f i SigCap.obj
 0001:000055f0       ??0?$CComPtr@UITypeLib@@@ATL@@QEAA@XZ 00000001800065f0 f i SigCap.obj
 0001:00005610       ??0?$CComPtr@UIUnknown@@@ATL@@QEAA@AEBV01@@Z 0000000180006610 f i SigCap.obj
 0001:00005640       ??0?$CComPtr@UIUnknown@@@ATL@@QEAA@PEAUIUnknown@@@Z 0000000180006640 f i SigCap.obj
 0001:00005670       ??0?$CComPtr@UIUnknown@@@ATL@@QEAA@XZ 0000000180006670 f i SigCap.obj
 0001:00005690       ??0?$CComPtr@UIViewObjectEx@@@ATL@@QEAA@XZ 0000000180006690 f i SigCap.obj
 0001:000056b0       ??0?$CComPtrBase@UIAdviseSink@@@ATL@@IEAA@PEAUIAdviseSink@@@Z 00000001800066b0 f i SigCap.obj
 0001:00005700       ??0?$CComPtrBase@UICatRegister@@@ATL@@IEAA@XZ 0000000180006700 f i SigCap.obj
 0001:00005720       ??0?$CComPtrBase@UIConnectionPoint@@@ATL@@IEAA@XZ 0000000180006720 f i SigCap.obj
 0001:00005740       ??0?$CComPtrBase@UIConnectionPointContainer@@@ATL@@IEAA@XZ 0000000180006740 f i SigCap.obj
 0001:00005760       ??0?$CComPtrBase@UIDataObject@@@ATL@@IEAA@XZ 0000000180006760 f i SigCap.obj
 0001:00005780       ??0?$CComPtrBase@UIDispatch@@@ATL@@IEAA@XZ 0000000180006780 f i SigCap.obj
 0001:000057a0       ??0?$CComPtrBase@UIOleClientSite@@@ATL@@IEAA@PEAUIOleClientSite@@@Z 00000001800067a0 f i SigCap.obj
 0001:000057f0       ??0?$CComPtrBase@UIOleControlSite@@@ATL@@IEAA@XZ 00000001800067f0 f i SigCap.obj
 0001:00005810       ??0?$CComPtrBase@UIOleInPlaceActiveObject@@@ATL@@IEAA@XZ 0000000180006810 f i SigCap.obj
 0001:00005830       ??0?$CComPtrBase@UIOleInPlaceFrame@@@ATL@@IEAA@XZ 0000000180006830 f i SigCap.obj
 0001:00005850       ??0?$CComPtrBase@UIOleInPlaceObject@@@ATL@@IEAA@XZ 0000000180006850 f i SigCap.obj
 0001:00005870       ??0?$CComPtrBase@UIOleInPlaceUIWindow@@@ATL@@IEAA@XZ 0000000180006870 f i SigCap.obj
 0001:00005890       ??0?$CComPtrBase@UIOleObject@@@ATL@@IEAA@XZ 0000000180006890 f i SigCap.obj
 0001:000058b0       ??0?$CComPtrBase@UIPersistStream@@@ATL@@IEAA@XZ 00000001800068b0 f i SigCap.obj
 0001:000058d0       ??0?$CComPtrBase@UIPersistStreamInit@@@ATL@@IEAA@XZ 00000001800068d0 f i SigCap.obj
 0001:000058f0       ??0?$CComPtrBase@UIPointerInactive@@@ATL@@IEAA@XZ 00000001800068f0 f i SigCap.obj
 0001:00005910       ??0?$CComPtrBase@UIProvideClassInfo2@@@ATL@@IEAA@XZ 0000000180006910 f i SigCap.obj
 0001:00005930       ??0?$CComPtrBase@UISpecifyPropertyPages@@@ATL@@IEAA@XZ 0000000180006930 f i SigCap.obj
 0001:00005950       ??0?$CComPtrBase@UIStream@@@ATL@@IEAA@XZ 0000000180006950 f i SigCap.obj
 0001:00005970       ??0?$CComPtrBase@UITypeInfo2@@@ATL@@IEAA@XZ 0000000180006970 f i SigCap.obj
 0001:00005990       ??0?$CComPtrBase@UITypeInfo@@@ATL@@IEAA@PEAUITypeInfo@@@Z 0000000180006990 f i SigCap.obj
 0001:000059e0       ??0?$CComPtrBase@UITypeInfo@@@ATL@@IEAA@XZ 00000001800069e0 f i SigCap.obj
 0001:00005a00       ??0?$CComPtrBase@UITypeLib@@@ATL@@IEAA@XZ 0000000180006a00 f i SigCap.obj
 0001:00005a20       ??0?$CComPtrBase@UIUnknown@@@ATL@@IEAA@PEAUIUnknown@@@Z 0000000180006a20 f i SigCap.obj
 0001:00005a70       ??0?$CComPtrBase@UIUnknown@@@ATL@@IEAA@XZ 0000000180006a70 f i SigCap.obj
 0001:00005a90       ??0?$CComPtrBase@UIViewObjectEx@@@ATL@@IEAA@XZ 0000000180006a90 f i SigCap.obj
 0001:00005ab0       ??0?$CComQIPtr@UIOleControlSite@@$1?_GUID_b196b289_bab4_101a_b69c_00aa00341d07@@3U__s_GUID@@B@ATL@@QEAA@PEAUIUnknown@@@Z 0000000180006ab0 f i SigCap.obj
 0001:00005b10       ??0?$CComQIPtr@UIOleObject@@$1?_GUID_00000112_0000_0000_c000_000000000046@@3U__s_GUID@@B@ATL@@QEAA@XZ 0000000180006b10 f i SigCap.obj
 0001:00005b30       ??0?$CComQIPtr@UISpecifyPropertyPages@@$1?_GUID_b196b28b_bab4_101a_b69c_00aa00341d07@@3U__s_GUID@@B@ATL@@QEAA@XZ 0000000180006b30 f i SigCap.obj
 0001:00005b50       ??0?$CSimpleMap@PEA_WPEA_WVCExpansionVectorEqualHelper@ATL@@@ATL@@QEAA@XZ 0000000180006b50 f i SigCap.obj
 0001:00005b90       ??0?$CTempBuffer@E$0BAA@VCCRTAllocator@ATL@@@ATL@@QEAA@XZ 0000000180006b90 f i SigCap.obj
 0001:00005bb0       ??0?$CTempBuffer@_W$0BAA@VCCRTAllocator@ATL@@@ATL@@QEAA@XZ 0000000180006bb0 f i SigCap.obj
 0001:00005bd0       ??0?$CTempBuffer@_W$0EAA@VCCRTAllocator@ATL@@@ATL@@QEAA@XZ 0000000180006bd0 f i SigCap.obj
 0001:00005bf0       ??0?$Wrapper@PEA_W@?$CSimpleMap@PEA_WPEA_WVCExpansionVectorEqualHelper@ATL@@@ATL@@QEAA@AEBQEA_W@Z 0000000180006bf0 f i SigCap.obj
 0001:00005c20       ??0CAtlModule@ATL@@QEAA@XZ 0000000180006c20 f i SigCap.obj
 0001:00005d80       ??0CComAutoDeleteCriticalSection@ATL@@QEAA@XZ 0000000180006d80 f i SigCap.obj
 0001:00005da0       ??0CComBSTR@ATL@@QEAA@XZ   0000000180006da0 f i SigCap.obj
 0001:00005dc0       ??0CComClassFactory@ATL@@QEAA@XZ 0000000180006dc0 f i SigCap.obj
 0001:00005e00       ??0CComModule@ATL@@QEAA@XZ 0000000180006e00 f i SigCap.obj
 0001:00005e80       ??0CComObjectRootBase@ATL@@QEAA@XZ 0000000180006e80 f i SigCap.obj
 0001:00005ea0       ??0CComSafeDeleteCriticalSection@ATL@@QEAA@XZ 0000000180006ea0 f i SigCap.obj
 0001:00005ed0       ??0CComVariant@ATL@@QEAA@XZ 0000000180006ed0 f i SigCap.obj
 0001:00005f10       ??0CExpansionVector@ATL@@QEAA@XZ 0000000180006f10 f i SigCap.obj
 0001:00005f30       ??0CParseBuffer@CRegParser@ATL@@QEAA@H@Z 0000000180006f30 f i SigCap.obj
 0001:00005fb0       ??0CRegKey@ATL@@QEAA@PEAUHKEY__@@@Z 0000000180006fb0 f i SigCap.obj
 0001:00005ff0       ??0CRegKey@ATL@@QEAA@PEAVCAtlTransactionManager@1@@Z 0000000180006ff0 f i SigCap.obj
 0001:00006030       ??0CRegObject@ATL@@QEAA@XZ 0000000180007030 f i SigCap.obj
 0001:00006070       ??0CRegParser@ATL@@QEAA@PEAVCRegObject@1@@Z 0000000180007070 f i SigCap.obj
 0001:000060a0       ??0IClassFactory@@QEAA@XZ  00000001800070a0 f i SigCap.obj
 0001:000060c0       ??0IEnumConnectionPoints@@QEAA@XZ 00000001800070c0 f i SigCap.obj
 0001:000060e0       ??0IEnumConnections@@QEAA@XZ 00000001800070e0 f i SigCap.obj
 0001:00006100       ??0IRegistrarBase@@QEAA@XZ 0000000180007100 f i SigCap.obj
 0001:00006120       ??0IUnknown@@QEAA@XZ       0000000180007120 f i SigCap.obj
 0001:00006130       ??0ModuleLockHelper@ATL@@QEAA@XZ 0000000180007130 f i SigCap.obj
 0001:00006160       ??0OposVariant@@QEAA@XZ    0000000180007160 f i SigCap.obj
 0001:00006180       ??0Wrapper@?$CSimpleArray@GV?$CSimpleArrayEqualHelper@G@ATL@@@ATL@@QEAA@AEBG@Z 0000000180007180 f i SigCap.obj
 0001:000061b0       ??0_ATL_MODULE70@ATL@@QEAA@XZ 00000001800071b0 f i SigCap.obj
 0001:000061e0       ??0_ATL_MSG@ATL@@QEAA@PEAUHWND__@@I_K_JH@Z 00000001800071e0 f i SigCap.obj
 0001:00006270       ??0_U_MENUorID@ATL@@QEAA@I@Z 0000000180007270 f i SigCap.obj
 0001:00006290       ??0_U_RECT@ATL@@QEAA@AEAUtagRECT@@@Z 0000000180007290 f i SigCap.obj
 0001:000062b0       ??0stringdispid@CComTypeInfoHolder@ATL@@QEAA@XZ 00000001800072b0 f i SigCap.obj
 0001:000062f0       ??1?$CAtlModuleT@VCComModule@ATL@@@ATL@@UEAA@XZ 00000001800072f0 f i SigCap.obj
 0001:00006310       ??1?$CAtlSafeAllocBufferManager@VCCRTAllocator@ATL@@@_ATL_SAFE_ALLOCA_IMPL@ATL@@QEAA@XZ 0000000180007310 f i SigCap.obj
 0001:00006360       ??1?$CAutoVectorPtr@_W@ATL@@QEAA@XZ 0000000180007360 f i SigCap.obj
 0001:00006380       ??1?$CComAggObject@VCOPOSSigCap@@@ATL@@UEAA@XZ 0000000180007380 f i SigCap.obj
 0001:000063f0       ??1?$CComContainedObject@VCOPOSSigCap@@@ATL@@UEAA@XZ 00000001800073f0 f i SigCap.obj
 0001:00006410       ??1?$CComCritSecLock@VCComCriticalSection@ATL@@@ATL@@QEAA@XZ 0000000180007410 f i SigCap.obj
 0001:00006440       ??1?$CComEnum@UIEnumConnectionPoints@@$1?_GUID_b196b285_bab4_101a_b69c_00aa00341d07@@3U__s_GUID@@BPEAUIConnectionPoint@@V?$_CopyInterface@UIConnectionPoint@@@ATL@@VCComSingleThreadModel@6@@ATL@@UEAA@XZ 0000000180007440 f i SigCap.obj
 0001:00006470       ??1?$CComEnum@UIEnumConnections@@$1?_GUID_b196b287_bab4_101a_b69c_00aa00341d07@@3U__s_GUID@@BUtagCONNECTDATA@@V?$_Copy@UtagCONNECTDATA@@@ATL@@VCComSingleThreadModel@6@@ATL@@UEAA@XZ 0000000180007470 f i SigCap.obj
 0001:000064a0       ??1?$CComEnumImpl@UIEnumConnectionPoints@@$1?_GUID_b196b285_bab4_101a_b69c_00aa00341d07@@3U__s_GUID@@BPEAUIConnectionPoint@@V?$_CopyInterface@UIConnectionPoint@@@ATL@@@ATL@@UEAA@XZ 00000001800074a0 f i SigCap.obj
 0001:00006530       ??1?$CComEnumImpl@UIEnumConnections@@$1?_GUID_b196b287_bab4_101a_b69c_00aa00341d07@@3U__s_GUID@@BUtagCONNECTDATA@@V?$_Copy@UtagCONNECTDATA@@@ATL@@@ATL@@UEAA@XZ 0000000180007530 f i SigCap.obj
 0001:000065c0       ??1?$CComObject@V?$CComEnum@UIEnumConnectionPoints@@$1?_GUID_b196b285_bab4_101a_b69c_00aa00341d07@@3U__s_GUID@@BPEAUIConnectionPoint@@V?$_CopyInterface@UIConnectionPoint@@@ATL@@VCComSingleThreadModel@6@@ATL@@@ATL@@UEAA@XZ 00000001800075c0 f i SigCap.obj
 0001:00006620       ??1?$CComObject@V?$CComEnum@UIEnumConnections@@$1?_GUID_b196b287_bab4_101a_b69c_00aa00341d07@@3U__s_GUID@@BUtagCONNECTDATA@@V?$_Copy@UtagCONNECTDATA@@@ATL@@VCComSingleThreadModel@6@@ATL@@@ATL@@UEAA@XZ 0000000180007620 f i SigCap.obj
 0001:00006680       ??1?$CComObject@VCOPOSSigCap@@@ATL@@UEAA@XZ 0000000180007680 f i SigCap.obj
 0001:00006820       ??1?$CComObjectCached@VCComClassFactory@ATL@@@ATL@@UEAA@XZ 0000000180007820 f i SigCap.obj
 0001:00006870       ??1?$CComObjectRootEx@VCComMultiThreadModel@ATL@@@ATL@@QEAA@XZ 0000000180007870 f i SigCap.obj
 0001:000068a0       ??1?$CComObjectRootEx@VCComSingleThreadModel@ATL@@@ATL@@QEAA@XZ 00000001800078a0 f i SigCap.obj
 0001:000068c0       ??1?$CComPtr@UIAdviseSink@@@ATL@@QEAA@XZ 00000001800078c0 f i SigCap.obj
 0001:000068e0       ??1?$CComPtr@UICatRegister@@@ATL@@QEAA@XZ 00000001800078e0 f i SigCap.obj
 0001:00006900       ??1?$CComPtr@UIConnectionPoint@@@ATL@@QEAA@XZ 0000000180007900 f i SigCap.obj
 0001:00006920       ??1?$CComPtr@UIConnectionPointContainer@@@ATL@@QEAA@XZ 0000000180007920 f i SigCap.obj
 0001:00006940       ??1?$CComPtr@UIDataObject@@@ATL@@QEAA@XZ 0000000180007940 f i SigCap.obj
 0001:00006960       ??1?$CComPtr@UIDispatch@@@ATL@@QEAA@XZ 0000000180007960 f i SigCap.obj
 0001:00006980       ??1?$CComPtr@UIOleClientSite@@@ATL@@QEAA@XZ 0000000180007980 f i SigCap.obj
 0001:000069a0       ??1?$CComPtr@UIOleControlSite@@@ATL@@QEAA@XZ 00000001800079a0 f i SigCap.obj
 0001:000069c0       ??1?$CComPtr@UIOleInPlaceActiveObject@@@ATL@@QEAA@XZ 00000001800079c0 f i SigCap.obj
 0001:000069e0       ??1?$CComPtr@UIOleInPlaceFrame@@@ATL@@QEAA@XZ 00000001800079e0 f i SigCap.obj
 0001:00006a00       ??1?$CComPtr@UIOleInPlaceObject@@@ATL@@QEAA@XZ 0000000180007a00 f i SigCap.obj
 0001:00006a20       ??1?$CComPtr@UIOleInPlaceUIWindow@@@ATL@@QEAA@XZ 0000000180007a20 f i SigCap.obj
 0001:00006a40       ??1?$CComPtr@UIOleObject@@@ATL@@QEAA@XZ 0000000180007a40 f i SigCap.obj
 0001:00006a60       ??1?$CComPtr@UIPersistStream@@@ATL@@QEAA@XZ 0000000180007a60 f i SigCap.obj
 0001:00006a80       ??1?$CComPtr@UIPersistStreamInit@@@ATL@@QEAA@XZ 0000000180007a80 f i SigCap.obj
 0001:00006aa0       ??1?$CComPtr@UIPointerInactive@@@ATL@@QEAA@XZ 0000000180007aa0 f i SigCap.obj
 0001:00006ac0       ??1?$CComPtr@UIProvideClassInfo2@@@ATL@@QEAA@XZ 0000000180007ac0 f i SigCap.obj
 0001:00006ae0       ??1?$CComPtr@UISpecifyPropertyPages@@@ATL@@QEAA@XZ 0000000180007ae0 f i SigCap.obj
 0001:00006b00       ??1?$CComPtr@UIStream@@@ATL@@QEAA@XZ 0000000180007b00 f i SigCap.obj
 0001:00006b20       ??1?$CComPtr@UITypeInfo2@@@ATL@@QEAA@XZ 0000000180007b20 f i SigCap.obj
 0001:00006b40       ??1?$CComPtr@UITypeInfo@@@ATL@@QEAA@XZ 0000000180007b40 f i SigCap.obj
 0001:00006b60       ??1?$CComPtr@UITypeLib@@@ATL@@QEAA@XZ 0000000180007b60 f i SigCap.obj
 0001:00006b80       ??1?$CComPtr@UIUnknown@@@ATL@@QEAA@XZ 0000000180007b80 f i SigCap.obj
 0001:00006ba0       ??1?$CComPtr@UIViewObjectEx@@@ATL@@QEAA@XZ 0000000180007ba0 f i SigCap.obj
 0001:00006bc0       ??1?$CComPtrBase@UIAdviseSink@@@ATL@@QEAA@XZ 0000000180007bc0 f i SigCap.obj
 0001:00006c00       ??1?$CComPtrBase@UICatRegister@@@ATL@@QEAA@XZ 0000000180007c00 f i SigCap.obj
 0001:00006c40       ??1?$CComPtrBase@UIConnectionPoint@@@ATL@@QEAA@XZ 0000000180007c40 f i SigCap.obj
 0001:00006c80       ??1?$CComPtrBase@UIConnectionPointContainer@@@ATL@@QEAA@XZ 0000000180007c80 f i SigCap.obj
 0001:00006cc0       ??1?$CComPtrBase@UIDataObject@@@ATL@@QEAA@XZ 0000000180007cc0 f i SigCap.obj
 0001:00006d00       ??1?$CComPtrBase@UIDispatch@@@ATL@@QEAA@XZ 0000000180007d00 f i SigCap.obj
 0001:00006d40       ??1?$CComPtrBase@UIOleClientSite@@@ATL@@QEAA@XZ 0000000180007d40 f i SigCap.obj
 0001:00006d80       ??1?$CComPtrBase@UIOleControlSite@@@ATL@@QEAA@XZ 0000000180007d80 f i SigCap.obj
 0001:00006dc0       ??1?$CComPtrBase@UIOleInPlaceActiveObject@@@ATL@@QEAA@XZ 0000000180007dc0 f i SigCap.obj
 0001:00006e00       ??1?$CComPtrBase@UIOleInPlaceFrame@@@ATL@@QEAA@XZ 0000000180007e00 f i SigCap.obj
 0001:00006e40       ??1?$CComPtrBase@UIOleInPlaceObject@@@ATL@@QEAA@XZ 0000000180007e40 f i SigCap.obj
 0001:00006e80       ??1?$CComPtrBase@UIOleInPlaceUIWindow@@@ATL@@QEAA@XZ 0000000180007e80 f i SigCap.obj
 0001:00006ec0       ??1?$CComPtrBase@UIOleObject@@@ATL@@QEAA@XZ 0000000180007ec0 f i SigCap.obj
 0001:00006f00       ??1?$CComPtrBase@UIPersistStream@@@ATL@@QEAA@XZ 0000000180007f00 f i SigCap.obj
 0001:00006f40       ??1?$CComPtrBase@UIPersistStreamInit@@@ATL@@QEAA@XZ 0000000180007f40 f i SigCap.obj
 0001:00006f80       ??1?$CComPtrBase@UIPointerInactive@@@ATL@@QEAA@XZ 0000000180007f80 f i SigCap.obj
 0001:00006fc0       ??1?$CComPtrBase@UIProvideClassInfo2@@@ATL@@QEAA@XZ 0000000180007fc0 f i SigCap.obj
 0001:00007000       ??1?$CComPtrBase@UISpecifyPropertyPages@@@ATL@@QEAA@XZ 0000000180008000 f i SigCap.obj
 0001:00007040       ??1?$CComPtrBase@UIStream@@@ATL@@QEAA@XZ 0000000180008040 f i SigCap.obj
 0001:00007080       ??1?$CComPtrBase@UITypeInfo2@@@ATL@@QEAA@XZ 0000000180008080 f i SigCap.obj
 0001:000070c0       ??1?$CComPtrBase@UITypeInfo@@@ATL@@QEAA@XZ 00000001800080c0 f i SigCap.obj
 0001:00007100       ??1?$CComPtrBase@UITypeLib@@@ATL@@QEAA@XZ 0000000180008100 f i SigCap.obj
 0001:00007140       ??1?$CComPtrBase@UIUnknown@@@ATL@@QEAA@XZ 0000000180008140 f i SigCap.obj
 0001:00007180       ??1?$CComPtrBase@UIViewObjectEx@@@ATL@@QEAA@XZ 0000000180008180 f i SigCap.obj
 0001:000071c0       ??1?$CComQIPtr@UIOleControlSite@@$1?_GUID_b196b289_bab4_101a_b69c_00aa00341d07@@3U__s_GUID@@B@ATL@@QEAA@XZ 00000001800081c0 f i SigCap.obj
 0001:000071e0       ??1?$CComQIPtr@UIOleObject@@$1?_GUID_00000112_0000_0000_c000_000000000046@@3U__s_GUID@@B@ATL@@QEAA@XZ 00000001800081e0 f i SigCap.obj
 0001:00007200       ??1?$CComQIPtr@UISpecifyPropertyPages@@$1?_GUID_b196b28b_bab4_101a_b69c_00aa00341d07@@3U__s_GUID@@B@ATL@@QEAA@XZ 0000000180008200 f i SigCap.obj
 0001:00007220       ??1?$CSimpleMap@PEA_WPEA_WVCExpansionVectorEqualHelper@ATL@@@ATL@@QEAA@XZ 0000000180008220 f i SigCap.obj
 0001:00007240       ??1?$CTempBuffer@E$0BAA@VCCRTAllocator@ATL@@@ATL@@QEAA@XZ 0000000180008240 f i SigCap.obj
 0001:00007270       ??1?$CTempBuffer@_W$0BAA@VCCRTAllocator@ATL@@@ATL@@QEAA@XZ 0000000180008270 f i SigCap.obj
 0001:000072a0       ??1?$CTempBuffer@_W$0EAA@VCCRTAllocator@ATL@@@ATL@@QEAA@XZ 00000001800082a0 f i SigCap.obj
 0001:000072d0       ??1CAtlModule@ATL@@UEAA@XZ 00000001800082d0 f i SigCap.obj
 0001:00007300       ??1CComAutoDeleteCriticalSection@ATL@@QEAA@XZ 0000000180008300 f i SigCap.obj
 0001:00007320       ??1CComClassFactory@ATL@@UEAA@XZ 0000000180008320 f i SigCap.obj
 0001:00007350       ??1CComModule@ATL@@UEAA@XZ 0000000180008350 f i SigCap.obj
 0001:00007380       ??1CComObjectRootBase@ATL@@QEAA@XZ 0000000180008380 f i SigCap.obj
 0001:00007390       ??1CComSafeDeleteCriticalSection@ATL@@QEAA@XZ 0000000180008390 f i SigCap.obj
 0001:000073d0       ??1CComVariant@ATL@@QEAA@XZ 00000001800083d0 f i SigCap.obj
 0001:00007430       ??1CExpansionVector@ATL@@QEAA@XZ 0000000180008430 f i SigCap.obj
 0001:00007460       ??1CParseBuffer@CRegParser@ATL@@QEAA@XZ 0000000180008460 f i SigCap.obj
 0001:00007480       ??1CRegKey@ATL@@QEAA@XZ    0000000180008480 f i SigCap.obj
 0001:000074a0       ??1CRegObject@ATL@@UEAA@XZ 00000001800084a0 f i SigCap.obj
 0001:000074e0       ??1ModuleLockHelper@ATL@@QEAA@XZ 00000001800084e0 f i SigCap.obj
 0001:00007510       ??1OposVariant@@QEAA@XZ    0000000180008510 f i SigCap.obj
 0001:00007540       ??1_ATL_MODULE70@ATL@@QEAA@XZ 0000000180008540 f i SigCap.obj
 0001:00007570       ??4?$CComPtr@UIAdviseSink@@@ATL@@QEAAPEAUIAdviseSink@@PEAU2@@Z 0000000180008570 f i SigCap.obj
 0001:000075d0       ??4?$CComPtr@UIOleClientSite@@@ATL@@QEAAPEAUIOleClientSite@@PEAU2@@Z 00000001800085d0 f i SigCap.obj
 0001:00007630       ??4?$CComPtr@UIUnknown@@@ATL@@QEAAPEAUIUnknown@@PEAU2@@Z 0000000180008630 f i SigCap.obj
 0001:00007690       ??4?$CComQIPtr@UIOleObject@@$1?_GUID_00000112_0000_0000_c000_000000000046@@3U__s_GUID@@B@ATL@@QEAAPEAUIOleObject@@PEAUIUnknown@@@Z 0000000180008690 f i SigCap.obj
 0001:000076e0       ??4?$CComQIPtr@UISpecifyPropertyPages@@$1?_GUID_b196b28b_bab4_101a_b69c_00aa00341d07@@3U__s_GUID@@B@ATL@@QEAAPEAUISpecifyPropertyPages@@PEAUIUnknown@@@Z 00000001800086e0 f i SigCap.obj
 0001:00007730       ??7?$CComPtrBase@UIOleClientSite@@@ATL@@QEBA_NXZ 0000000180008730 f i SigCap.obj
 0001:00007760       ??7?$CComPtrBase@UIOleInPlaceSiteWindowless@@@ATL@@QEBA_NXZ 0000000180008760 f i SigCap.obj
 0001:00007790       ??7CComBSTR@ATL@@QEBA_NXZ  0000000180008790 f i SigCap.obj
 0001:000077c0       ??8?$CComPtrBase@UIConnectionPointContainer@@@ATL@@QEBA_NPEAUIConnectionPointContainer@@@Z 00000001800087c0 f i SigCap.obj
 0001:00007800       ??8?$CComPtrBase@UIDataAdviseHolder@@@ATL@@QEBA_NPEAUIDataAdviseHolder@@@Z 0000000180008800 f i SigCap.obj
 0001:00007840       ??8?$CComPtrBase@UIOleAdviseHolder@@@ATL@@QEBA_NPEAUIOleAdviseHolder@@@Z 0000000180008840 f i SigCap.obj
 0001:00007880       ??8?$CComPtrBase@UIOleClientSite@@@ATL@@QEBA_NPEAUIOleClientSite@@@Z 0000000180008880 f i SigCap.obj
 0001:000078c0       ??8?$CComPtrBase@UIOleControlSite@@@ATL@@QEBA_NPEAUIOleControlSite@@@Z 00000001800088c0 f i SigCap.obj
 0001:00007900       ??8?$CComPtrBase@UIOleInPlaceObject@@@ATL@@QEBA_NPEAUIOleInPlaceObject@@@Z 0000000180008900 f i SigCap.obj
 0001:00007940       ??8?$CComPtrBase@UIOleInPlaceSiteWindowless@@@ATL@@QEBA_NPEAUIOleInPlaceSiteWindowless@@@Z 0000000180008940 f i SigCap.obj
 0001:00007980       ??8?$CComPtrBase@UIOleObject@@@ATL@@QEBA_NPEAUIOleObject@@@Z 0000000180008980 f i SigCap.obj
 0001:000079c0       ??8?$CComPtrBase@UIPersistStream@@@ATL@@QEBA_NPEAUIPersistStream@@@Z 00000001800089c0 f i SigCap.obj
 0001:00007a00       ??8?$CComPtrBase@UIPersistStreamInit@@@ATL@@QEBA_NPEAUIPersistStreamInit@@@Z 0000000180008a00 f i SigCap.obj
 0001:00007a40       ??8?$CComPtrBase@UIPointerInactive@@@ATL@@QEBA_NPEAUIPointerInactive@@@Z 0000000180008a40 f i SigCap.obj
 0001:00007a80       ??8?$CComPtrBase@UIUnknown@@@ATL@@QEBA_NPEAUIUnknown@@@Z 0000000180008a80 f i SigCap.obj
 0001:00007ac0       ??8?$CComPtrBase@UIViewObjectEx@@@ATL@@QEBA_NPEAUIViewObjectEx@@@Z 0000000180008ac0 f i SigCap.obj
 0001:00007b00       ??8CComBSTR@ATL@@QEBA_NH@Z 0000000180008b00 f i SigCap.obj
 0001:00007b60       ??9?$CComPtrBase@UIConnectionPointContainer@@@ATL@@QEBA_NPEAUIConnectionPointContainer@@@Z 0000000180008b60 f i SigCap.obj
 0001:00007bb0       ??9?$CComPtrBase@UIDataAdviseHolder@@@ATL@@QEBA_NPEAUIDataAdviseHolder@@@Z 0000000180008bb0 f i SigCap.obj
 0001:00007c00       ??9?$CComPtrBase@UIOleAdviseHolder@@@ATL@@QEBA_NPEAUIOleAdviseHolder@@@Z 0000000180008c00 f i SigCap.obj
 0001:00007c50       ??9?$CComPtrBase@UIOleClientSite@@@ATL@@QEBA_NPEAUIOleClientSite@@@Z 0000000180008c50 f i SigCap.obj
 0001:00007ca0       ??9?$CComPtrBase@UIOleControlSite@@@ATL@@QEBA_NPEAUIOleControlSite@@@Z 0000000180008ca0 f i SigCap.obj
 0001:00007cf0       ??9?$CComPtrBase@UIOleInPlaceObject@@@ATL@@QEBA_NPEAUIOleInPlaceObject@@@Z 0000000180008cf0 f i SigCap.obj
 0001:00007d40       ??9?$CComPtrBase@UIOleInPlaceSiteWindowless@@@ATL@@QEBA_NPEAUIOleInPlaceSiteWindowless@@@Z 0000000180008d40 f i SigCap.obj
 0001:00007d90       ??9?$CComPtrBase@UIOleObject@@@ATL@@QEBA_NPEAUIOleObject@@@Z 0000000180008d90 f i SigCap.obj
 0001:00007de0       ??9?$CComPtrBase@UIPersistStream@@@ATL@@QEBA_NPEAUIPersistStream@@@Z 0000000180008de0 f i SigCap.obj
 0001:00007e30       ??9?$CComPtrBase@UIPersistStreamInit@@@ATL@@QEBA_NPEAUIPersistStreamInit@@@Z 0000000180008e30 f i SigCap.obj
 0001:00007e80       ??9?$CComPtrBase@UIPointerInactive@@@ATL@@QEBA_NPEAUIPointerInactive@@@Z 0000000180008e80 f i SigCap.obj
 0001:00007ed0       ??9?$CComPtrBase@UIUnknown@@@ATL@@QEBA_NPEAUIUnknown@@@Z 0000000180008ed0 f i SigCap.obj
 0001:00007f20       ??9?$CComPtrBase@UIViewObjectEx@@@ATL@@QEBA_NPEAUIViewObjectEx@@@Z 0000000180008f20 f i SigCap.obj
 0001:00007f70       ??9CComBSTR@ATL@@QEBA_NH@Z 0000000180008f70 f i SigCap.obj
 0001:00007fb0       ??B?$CComPtrBase@UIAdviseSink@@@ATL@@QEBAPEAUIAdviseSink@@XZ 0000000180008fb0 f i SigCap.obj
 0001:00007fc0       ??B?$CComPtrBase@UIDataAdviseHolder@@@ATL@@QEBAPEAUIDataAdviseHolder@@XZ 0000000180008fc0 f i SigCap.obj
 0001:00007fd0       ??B?$CComPtrBase@UIDataObject@@@ATL@@QEBAPEAUIDataObject@@XZ 0000000180008fd0 f i SigCap.obj
 0001:00007fe0       ??B?$CComPtrBase@UIOleAdviseHolder@@@ATL@@QEBAPEAUIOleAdviseHolder@@XZ 0000000180008fe0 f i SigCap.obj
 0001:00007ff0       ??B?$CComPtrBase@UIOleClientSite@@@ATL@@QEBAPEAUIOleClientSite@@XZ 0000000180008ff0 f i SigCap.obj
 0001:00008000       ??B?$CComPtrBase@UIOleControlSite@@@ATL@@QEBAPEAUIOleControlSite@@XZ 0000000180009000 f i SigCap.obj
 0001:00008010       ??B?$CComPtrBase@UIOleInPlaceActiveObject@@@ATL@@QEBAPEAUIOleInPlaceActiveObject@@XZ 0000000180009010 f i SigCap.obj
 0001:00008020       ??B?$CComPtrBase@UIOleInPlaceFrame@@@ATL@@QEBAPEAUIOleInPlaceFrame@@XZ 0000000180009020 f i SigCap.obj
 0001:00008030       ??B?$CComPtrBase@UIOleInPlaceSiteWindowless@@@ATL@@QEBAPEAUIOleInPlaceSiteWindowless@@XZ 0000000180009030 f i SigCap.obj
 0001:00008040       ??B?$CComPtrBase@UIOleInPlaceUIWindow@@@ATL@@QEBAPEAUIOleInPlaceUIWindow@@XZ 0000000180009040 f i SigCap.obj
 0001:00008050       ??B?$CComPtrBase@UIOleObject@@@ATL@@QEBAPEAUIOleObject@@XZ 0000000180009050 f i SigCap.obj
 0001:00008060       ??B?$CComPtrBase@UIPersistStream@@@ATL@@QEBAPEAUIPersistStream@@XZ 0000000180009060 f i SigCap.obj
 0001:00008070       ??B?$CComPtrBase@UIProvideClassInfo2@@@ATL@@QEBAPEAUIProvideClassInfo2@@XZ 0000000180009070 f i SigCap.obj
 0001:00008080       ??B?$CComPtrBase@UISpecifyPropertyPages@@@ATL@@QEBAPEAUISpecifyPropertyPages@@XZ 0000000180009080 f i SigCap.obj
 0001:00008090       ??B?$CComPtrBase@UIStream@@@ATL@@QEBAPEAUIStream@@XZ 0000000180009090 f i SigCap.obj
 0001:000080a0       ??B?$CComPtrBase@UITypeInfo2@@@ATL@@QEBAPEAUITypeInfo2@@XZ 00000001800090a0 f i SigCap.obj
 0001:000080b0       ??B?$CComPtrBase@UITypeInfo@@@ATL@@QEBAPEAUITypeInfo@@XZ 00000001800090b0 f i SigCap.obj
 0001:000080c0       ??B?$CComPtrBase@UITypeLib@@@ATL@@QEBAPEAUITypeLib@@XZ 00000001800090c0 f i SigCap.obj
 0001:000080d0       ??B?$CComPtrBase@UIUnknown@@@ATL@@QEBAPEAUIUnknown@@XZ 00000001800090d0 f i SigCap.obj
 0001:000080e0       ??B?$CTempBuffer@E$0BAA@VCCRTAllocator@ATL@@@ATL@@QEBAPEAEXZ 00000001800090e0 f i SigCap.obj
 0001:000080f0       ??B?$CTempBuffer@_W$0BAA@VCCRTAllocator@ATL@@@ATL@@QEBAPEA_WXZ 00000001800090f0 f i SigCap.obj
 0001:00008100       ??B?$CTempBuffer@_W$0EAA@VCCRTAllocator@ATL@@@ATL@@QEBAPEA_WXZ 0000000180009100 f i SigCap.obj
 0001:00008110       ??B?$CTraceCategoryEx@$00$0A@@ATL@@QEAAIXZ 0000000180009110 f i SigCap.obj
 0001:00008120       ??B?$CTraceCategoryEx@$07$0A@@ATL@@QEAAIXZ 0000000180009120 f i SigCap.obj
 0001:00008130       ??B?$CTraceCategoryEx@$0CAAA@$0A@@ATL@@QEAAIXZ 0000000180009130 f i SigCap.obj
 0001:00008140       ??B?$CTraceCategoryEx@$0EA@$0A@@ATL@@QEAAIXZ 0000000180009140 f i SigCap.obj
 0001:00008150       ??B?$CTraceCategoryEx@$0IAA@$0A@@ATL@@QEAAIXZ 0000000180009150 f i SigCap.obj
 0001:00008160       ??BCComBSTR@ATL@@QEBAPEA_WXZ 0000000180009160 f i SigCap.obj
 0001:00008170       ??BCRegKey@ATL@@QEBAPEAUHKEY__@@XZ 0000000180009170 f i SigCap.obj
 0001:00008180       ??C?$CComPtrBase@UIAdviseSink@@@ATL@@QEBAPEAV?$_NoAddRefReleaseOnCComPtr@UIAdviseSink@@@1@XZ 0000000180009180 f i SigCap.obj
 0001:000081e0       ??C?$CComPtrBase@UICatRegister@@@ATL@@QEBAPEAV?$_NoAddRefReleaseOnCComPtr@UICatRegister@@@1@XZ 00000001800091e0 f i SigCap.obj
 0001:00008240       ??C?$CComPtrBase@UIConnectionPoint@@@ATL@@QEBAPEAV?$_NoAddRefReleaseOnCComPtr@UIConnectionPoint@@@1@XZ 0000000180009240 f i SigCap.obj
 0001:000082a0       ??C?$CComPtrBase@UIConnectionPointContainer@@@ATL@@QEBAPEAV?$_NoAddRefReleaseOnCComPtr@UIConnectionPointContainer@@@1@XZ 00000001800092a0 f i SigCap.obj
 0001:00008300       ??C?$CComPtrBase@UIDataAdviseHolder@@@ATL@@QEBAPEAV?$_NoAddRefReleaseOnCComPtr@UIDataAdviseHolder@@@1@XZ 0000000180009300 f i SigCap.obj
 0001:00008360       ??C?$CComPtrBase@UIOleAdviseHolder@@@ATL@@QEBAPEAV?$_NoAddRefReleaseOnCComPtr@UIOleAdviseHolder@@@1@XZ 0000000180009360 f i SigCap.obj
 0001:000083c0       ??C?$CComPtrBase@UIOleClientSite@@@ATL@@QEBAPEAV?$_NoAddRefReleaseOnCComPtr@UIOleClientSite@@@1@XZ 00000001800093c0 f i SigCap.obj
 0001:00008420       ??C?$CComPtrBase@UIOleControlSite@@@ATL@@QEBAPEAV?$_NoAddRefReleaseOnCComPtr@UIOleControlSite@@@1@XZ 0000000180009420 f i SigCap.obj
 0001:00008480       ??C?$CComPtrBase@UIOleInPlaceFrame@@@ATL@@QEBAPEAV?$_NoAddRefReleaseOnCComPtr@UIOleInPlaceFrame@@@1@XZ 0000000180009480 f i SigCap.obj
 0001:000084e0       ??C?$CComPtrBase@UIOleInPlaceObject@@@ATL@@QEBAPEAV?$_NoAddRefReleaseOnCComPtr@UIOleInPlaceObject@@@1@XZ 00000001800094e0 f i SigCap.obj
 0001:00008540       ??C?$CComPtrBase@UIOleInPlaceSiteWindowless@@@ATL@@QEBAPEAV?$_NoAddRefReleaseOnCComPtr@UIOleInPlaceSiteWindowless@@@1@XZ 0000000180009540 f i SigCap.obj
 0001:000085a0       ??C?$CComPtrBase@UIOleInPlaceUIWindow@@@ATL@@QEBAPEAV?$_NoAddRefReleaseOnCComPtr@UIOleInPlaceUIWindow@@@1@XZ 00000001800095a0 f i SigCap.obj
 0001:00008600       ??C?$CComPtrBase@UIOleObject@@@ATL@@QEBAPEAV?$_NoAddRefReleaseOnCComPtr@UIOleObject@@@1@XZ 0000000180009600 f i SigCap.obj
 0001:00008660       ??C?$CComPtrBase@UIPersistStream@@@ATL@@QEBAPEAV?$_NoAddRefReleaseOnCComPtr@UIPersistStream@@@1@XZ 0000000180009660 f i SigCap.obj
 0001:000086c0       ??C?$CComPtrBase@UIPersistStreamInit@@@ATL@@QEBAPEAV?$_NoAddRefReleaseOnCComPtr@UIPersistStreamInit@@@1@XZ 00000001800096c0 f i SigCap.obj
 0001:00008720       ??C?$CComPtrBase@UIPointerInactive@@@ATL@@QEBAPEAV?$_NoAddRefReleaseOnCComPtr@UIPointerInactive@@@1@XZ 0000000180009720 f i SigCap.obj
 0001:00008780       ??C?$CComPtrBase@UIProvideClassInfo2@@@ATL@@QEBAPEAV?$_NoAddRefReleaseOnCComPtr@UIProvideClassInfo2@@@1@XZ 0000000180009780 f i SigCap.obj
 0001:000087e0       ??C?$CComPtrBase@UISpecifyPropertyPages@@@ATL@@QEBAPEAV?$_NoAddRefReleaseOnCComPtr@UISpecifyPropertyPages@@@1@XZ 00000001800097e0 f i SigCap.obj
 0001:00008840       ??C?$CComPtrBase@UITypeInfo@@@ATL@@QEBAPEAV?$_NoAddRefReleaseOnCComPtr@UITypeInfo@@@1@XZ 0000000180009840 f i SigCap.obj
 0001:000088a0       ??C?$CComPtrBase@UITypeLib@@@ATL@@QEBAPEAV?$_NoAddRefReleaseOnCComPtr@UITypeLib@@@1@XZ 00000001800098a0 f i SigCap.obj
 0001:00008900       ??C?$CComPtrBase@UIUnknown@@@ATL@@QEBAPEAV?$_NoAddRefReleaseOnCComPtr@UIUnknown@@@1@XZ 0000000180009900 f i SigCap.obj
 0001:00008960       ??C?$CComPtrBase@UIViewObjectEx@@@ATL@@QEBAPEAV?$_NoAddRefReleaseOnCComPtr@UIViewObjectEx@@@1@XZ 0000000180009960 f i SigCap.obj
 0001:000089c0       ??I?$CComPtrBase@UICatRegister@@@ATL@@QEAAPEAPEAUICatRegister@@XZ 00000001800099c0 f i SigCap.obj
 0001:00008a20       ??I?$CComPtrBase@UIConnectionPoint@@@ATL@@QEAAPEAPEAUIConnectionPoint@@XZ 0000000180009a20 f i SigCap.obj
 0001:00008a80       ??I?$CComPtrBase@UIConnectionPointContainer@@@ATL@@QEAAPEAPEAUIConnectionPointContainer@@XZ 0000000180009a80 f i SigCap.obj
 0001:00008ae0       ??I?$CComPtrBase@UIDataAdviseHolder@@@ATL@@QEAAPEAPEAUIDataAdviseHolder@@XZ 0000000180009ae0 f i SigCap.obj
 0001:00008b40       ??I?$CComPtrBase@UIDataObject@@@ATL@@QEAAPEAPEAUIDataObject@@XZ 0000000180009b40 f i SigCap.obj
 0001:00008ba0       ??I?$CComPtrBase@UIDispatch@@@ATL@@QEAAPEAPEAUIDispatch@@XZ 0000000180009ba0 f i SigCap.obj
 0001:00008c00       ??I?$CComPtrBase@UIOleAdviseHolder@@@ATL@@QEAAPEAPEAUIOleAdviseHolder@@XZ 0000000180009c00 f i SigCap.obj
 0001:00008c60       ??I?$CComPtrBase@UIOleControlSite@@@ATL@@QEAAPEAPEAUIOleControlSite@@XZ 0000000180009c60 f i SigCap.obj
 0001:00008cc0       ??I?$CComPtrBase@UIOleInPlaceActiveObject@@@ATL@@QEAAPEAPEAUIOleInPlaceActiveObject@@XZ 0000000180009cc0 f i SigCap.obj
 0001:00008d20       ??I?$CComPtrBase@UIOleInPlaceFrame@@@ATL@@QEAAPEAPEAUIOleInPlaceFrame@@XZ 0000000180009d20 f i SigCap.obj
 0001:00008d80       ??I?$CComPtrBase@UIOleInPlaceObject@@@ATL@@QEAAPEAPEAUIOleInPlaceObject@@XZ 0000000180009d80 f i SigCap.obj
 0001:00008de0       ??I?$CComPtrBase@UIOleInPlaceSiteWindowless@@@ATL@@QEAAPEAPEAUIOleInPlaceSiteWindowless@@XZ 0000000180009de0 f i SigCap.obj
 0001:00008e40       ??I?$CComPtrBase@UIOleInPlaceUIWindow@@@ATL@@QEAAPEAPEAUIOleInPlaceUIWindow@@XZ 0000000180009e40 f i SigCap.obj
 0001:00008ea0       ??I?$CComPtrBase@UIOleObject@@@ATL@@QEAAPEAPEAUIOleObject@@XZ 0000000180009ea0 f i SigCap.obj
 0001:00008f00       ??I?$CComPtrBase@UIPersistStream@@@ATL@@QEAAPEAPEAUIPersistStream@@XZ 0000000180009f00 f i SigCap.obj
 0001:00008f60       ??I?$CComPtrBase@UIPointerInactive@@@ATL@@QEAAPEAPEAUIPointerInactive@@XZ 0000000180009f60 f i SigCap.obj
 0001:00008fc0       ??I?$CComPtrBase@UIProvideClassInfo2@@@ATL@@QEAAPEAPEAUIProvideClassInfo2@@XZ 0000000180009fc0 f i SigCap.obj
 0001:00009020       ??I?$CComPtrBase@UIStream@@@ATL@@QEAAPEAPEAUIStream@@XZ 000000018000a020 f i SigCap.obj
 0001:00009080       ??I?$CComPtrBase@UITypeInfo2@@@ATL@@QEAAPEAPEAUITypeInfo2@@XZ 000000018000a080 f i SigCap.obj
 0001:000090e0       ??I?$CComPtrBase@UITypeInfo@@@ATL@@QEAAPEAPEAUITypeInfo@@XZ 000000018000a0e0 f i SigCap.obj
 0001:00009140       ??I?$CComPtrBase@UITypeLib@@@ATL@@QEAAPEAPEAUITypeLib@@XZ 000000018000a140 f i SigCap.obj
 0001:000091a0       ??I?$CComPtrBase@UIUnknown@@@ATL@@QEAAPEAPEAUIUnknown@@XZ 000000018000a1a0 f i SigCap.obj
 0001:00009200       ??I?$CComPtrBase@UIViewObjectEx@@@ATL@@QEAAPEAPEAUIViewObjectEx@@XZ 000000018000a200 f i SigCap.obj
 0001:00009260       ??ICComBSTR@ATL@@QEAAPEAPEA_WXZ 000000018000a260 f i SigCap.obj
 0001:00009270       ??_E?$CComContainedObject@VCOPOSSigCap@@@ATL@@W7EAAPEAXI@Z 000000018000a270 f i SigCap.obj
 0001:0000927c       ??_E?$CComContainedObject@VCOPOSSigCap@@@ATL@@WHA@EAAPEAXI@Z 000000018000a27c f i SigCap.obj
 0001:00009288       ??_E?$CComObject@VCOPOSSigCap@@@ATL@@W7EAAPEAXI@Z 000000018000a288 f i SigCap.obj
 0001:00009294       ??_E?$CComObject@VCOPOSSigCap@@@ATL@@WHA@EAAPEAXI@Z 000000018000a294 f i SigCap.obj
 0001:000092a0       ??_G?$CComAggObject@VCOPOSSigCap@@@ATL@@UEAAPEAXI@Z 000000018000a2a0 f i SigCap.obj
 0001:000092a0       ??_E?$CComAggObject@VCOPOSSigCap@@@ATL@@UEAAPEAXI@Z 000000018000a2a0 f i SigCap.obj
 0001:000092e0       ??_E?$CComContainedObject@VCOPOSSigCap@@@ATL@@UEAAPEAXI@Z 000000018000a2e0 f i SigCap.obj
 0001:000092e0       ??_G?$CComContainedObject@VCOPOSSigCap@@@ATL@@UEAAPEAXI@Z 000000018000a2e0 f i SigCap.obj
 0001:00009320       ??_G?$CComObject@V?$CComEnum@UIEnumConnectionPoints@@$1?_GUID_b196b285_bab4_101a_b69c_00aa00341d07@@3U__s_GUID@@BPEAUIConnectionPoint@@V?$_CopyInterface@UIConnectionPoint@@@ATL@@VCComSingleThreadModel@6@@ATL@@@ATL@@UEAAPEAXI@Z 000000018000a320 f i SigCap.obj
 0001:00009320       ??_E?$CComObject@V?$CComEnum@UIEnumConnectionPoints@@$1?_GUID_b196b285_bab4_101a_b69c_00aa00341d07@@3U__s_GUID@@BPEAUIConnectionPoint@@V?$_CopyInterface@UIConnectionPoint@@@ATL@@VCComSingleThreadModel@6@@ATL@@@ATL@@UEAAPEAXI@Z 000000018000a320 f i SigCap.obj
 0001:00009360       ??_G?$CComObject@V?$CComEnum@UIEnumConnections@@$1?_GUID_b196b287_bab4_101a_b69c_00aa00341d07@@3U__s_GUID@@BUtagCONNECTDATA@@V?$_Copy@UtagCONNECTDATA@@@ATL@@VCComSingleThreadModel@6@@ATL@@@ATL@@UEAAPEAXI@Z 000000018000a360 f i SigCap.obj
 0001:00009360       ??_E?$CComObject@V?$CComEnum@UIEnumConnections@@$1?_GUID_b196b287_bab4_101a_b69c_00aa00341d07@@3U__s_GUID@@BUtagCONNECTDATA@@V?$_Copy@UtagCONNECTDATA@@@ATL@@VCComSingleThreadModel@6@@ATL@@@ATL@@UEAAPEAXI@Z 000000018000a360 f i SigCap.obj
 0001:000093a0       ??_E?$CComObject@VCOPOSSigCap@@@ATL@@UEAAPEAXI@Z 000000018000a3a0 f i SigCap.obj
 0001:000093a0       ??_G?$CComObject@VCOPOSSigCap@@@ATL@@UEAAPEAXI@Z 000000018000a3a0 f i SigCap.obj
 0001:000093e0       ??_G?$CComObjectCached@VCComClassFactory@ATL@@@ATL@@UEAAPEAXI@Z 000000018000a3e0 f i SigCap.obj
 0001:000093e0       ??_E?$CComObjectCached@VCComClassFactory@ATL@@@ATL@@UEAAPEAXI@Z 000000018000a3e0 f i SigCap.obj
 0001:00009420       ??_ECComClassFactory@ATL@@UEAAPEAXI@Z 000000018000a420 f i SigCap.obj
 0001:00009420       ??_GCComClassFactory@ATL@@UEAAPEAXI@Z 000000018000a420 f i SigCap.obj
 0001:00009460       ??_ECComModule@ATL@@UEAAPEAXI@Z 000000018000a460 f i SigCap.obj
 0001:00009460       ??_GCComModule@ATL@@UEAAPEAXI@Z 000000018000a460 f i SigCap.obj
 0001:000094a0       ??_ECRegObject@ATL@@UEAAPEAXI@Z 000000018000a4a0 f i SigCap.obj
 0001:000094a0       ??_GCRegObject@ATL@@UEAAPEAXI@Z 000000018000a4a0 f i SigCap.obj
 0001:000094e0       ?Add@?$CSimpleArray@GV?$CSimpleArrayEqualHelper@G@ATL@@@ATL@@QEAAHAEBG@Z 000000018000a4e0 f i SigCap.obj
 0001:00009670       ?Add@?$CSimpleMap@PEA_WPEA_WVCExpansionVectorEqualHelper@ATL@@@ATL@@QEAAHAEBQEA_W0@Z 000000018000a670 f i SigCap.obj
 0001:00009750       ?Add@CComDynamicUnkArray@ATL@@QEAAKPEAUIUnknown@@@Z 000000018000a750 f i SigCap.obj
 0001:00009930       ?Add@CExpansionVector@ATL@@QEAAHPEB_W0@Z 000000018000a930 f i SigCap.obj
 0001:00009c70       ?AddChar@CParseBuffer@CRegParser@ATL@@QEAAHPEB_W@Z 000000018000ac70 f i SigCap.obj
 0001:00009cb0       ?AddCommonRGSReplacements@?$CAtlModuleT@VCComModule@ATL@@@ATL@@UEAAJPEAUIRegistrarBase@@@Z 000000018000acb0 f i SigCap.obj
 0001:00009cf0       ?AddCreateWndData@CAtlWinModule@ATL@@QEAAXPEAU_AtlCreateWndData@2@PEAX@Z 000000018000acf0 f i SigCap.obj
 0001:00009d20       ?AddRef@?$CComAggObject@VCOPOSSigCap@@@ATL@@UEAAKXZ 000000018000ad20 f i SigCap.obj
 0001:00009d50       ?AddRef@?$CComContainedObject@VCOPOSSigCap@@@ATL@@UEAAKXZ 000000018000ad50 f i SigCap.obj
 0001:00009d74       ?AddRef@?$CComContainedObject@VCOPOSSigCap@@@ATL@@WBAA@EAAKXZ 000000018000ad74 f i SigCap.obj
 0001:00009d80       ?AddRef@?$CComContainedObject@VCOPOSSigCap@@@ATL@@WBAI@EAAKXZ 000000018000ad80 f i SigCap.obj
 0001:00009d8c       ?AddRef@?$CComContainedObject@VCOPOSSigCap@@@ATL@@WBBA@EAAKXZ 000000018000ad8c f i SigCap.obj
 0001:00009d98       ?AddRef@?$CComContainedObject@VCOPOSSigCap@@@ATL@@WBBI@EAAKXZ 000000018000ad98 f i SigCap.obj
 0001:00009da4       ?AddRef@?$CComContainedObject@VCOPOSSigCap@@@ATL@@WBCI@EAAKXZ 000000018000ada4 f i SigCap.obj
 0001:00009db0       ?AddRef@?$CComContainedObject@VCOPOSSigCap@@@ATL@@WBEA@EAAKXZ 000000018000adb0 f i SigCap.obj
 0001:00009dbc       ?AddRef@?$CComContainedObject@VCOPOSSigCap@@@ATL@@WLI@EAAKXZ 000000018000adbc f i SigCap.obj
 0001:00009dc8       ?AddRef@?$CComContainedObject@VCOPOSSigCap@@@ATL@@WMA@EAAKXZ 000000018000adc8 f i SigCap.obj
 0001:00009dd4       ?AddRef@?$CComContainedObject@VCOPOSSigCap@@@ATL@@WMI@EAAKXZ 000000018000add4 f i SigCap.obj
 0001:00009de0       ?AddRef@?$CComContainedObject@VCOPOSSigCap@@@ATL@@WNA@EAAKXZ 000000018000ade0 f i SigCap.obj
 0001:00009dec       ?AddRef@?$CComContainedObject@VCOPOSSigCap@@@ATL@@WNI@EAAKXZ 000000018000adec f i SigCap.obj
 0001:00009df8       ?AddRef@?$CComContainedObject@VCOPOSSigCap@@@ATL@@WOA@EAAKXZ 000000018000adf8 f i SigCap.obj
 0001:00009e04       ?AddRef@?$CComContainedObject@VCOPOSSigCap@@@ATL@@WOI@EAAKXZ 000000018000ae04 f i SigCap.obj
 0001:00009e10       ?AddRef@?$CComContainedObject@VCOPOSSigCap@@@ATL@@WPA@EAAKXZ 000000018000ae10 f i SigCap.obj
 0001:00009e1c       ?AddRef@?$CComContainedObject@VCOPOSSigCap@@@ATL@@WPI@EAAKXZ 000000018000ae1c f i SigCap.obj
 0001:00009e30       ?AddRef@?$CComObject@V?$CComEnum@UIEnumConnectionPoints@@$1?_GUID_b196b285_bab4_101a_b69c_00aa00341d07@@3U__s_GUID@@BPEAUIConnectionPoint@@V?$_CopyInterface@UIConnectionPoint@@@ATL@@VCComSingleThreadModel@6@@ATL@@@ATL@@UEAAKXZ 000000018000ae30 f i SigCap.obj
 0001:00009e60       ?AddRef@?$CComObject@V?$CComEnum@UIEnumConnections@@$1?_GUID_b196b287_bab4_101a_b69c_00aa00341d07@@3U__s_GUID@@BUtagCONNECTDATA@@V?$_Copy@UtagCONNECTDATA@@@ATL@@VCComSingleThreadModel@6@@ATL@@@ATL@@UEAAKXZ 000000018000ae60 f i SigCap.obj
 0001:00009e90       ?AddRef@?$CComObject@VCOPOSSigCap@@@ATL@@UEAAKXZ 000000018000ae90 f i SigCap.obj
 0001:00009eb4       ?AddRef@?$CComObject@VCOPOSSigCap@@@ATL@@WBAA@EAAKXZ 000000018000aeb4 f i SigCap.obj
 0001:00009ec0       ?AddRef@?$CComObject@VCOPOSSigCap@@@ATL@@WBAI@EAAKXZ 000000018000aec0 f i SigCap.obj
 0001:00009ecc       ?AddRef@?$CComObject@VCOPOSSigCap@@@ATL@@WBBA@EAAKXZ 000000018000aecc f i SigCap.obj
 0001:00009ed8       ?AddRef@?$CComObject@VCOPOSSigCap@@@ATL@@WBBI@EAAKXZ 000000018000aed8 f i SigCap.obj
 0001:00009ee4       ?AddRef@?$CComObject@VCOPOSSigCap@@@ATL@@WBCI@EAAKXZ 000000018000aee4 f i SigCap.obj
 0001:00009ef0       ?AddRef@?$CComObject@VCOPOSSigCap@@@ATL@@WBEA@EAAKXZ 000000018000aef0 f i SigCap.obj
 0001:00009efc       ?AddRef@?$CComObject@VCOPOSSigCap@@@ATL@@WLI@EAAKXZ 000000018000aefc f i SigCap.obj
 0001:00009f08       ?AddRef@?$CComObject@VCOPOSSigCap@@@ATL@@WMA@EAAKXZ 000000018000af08 f i SigCap.obj
 0001:00009f14       ?AddRef@?$CComObject@VCOPOSSigCap@@@ATL@@WMI@EAAKXZ 000000018000af14 f i SigCap.obj
 0001:00009f20       ?AddRef@?$CComObject@VCOPOSSigCap@@@ATL@@WNA@EAAKXZ 000000018000af20 f i SigCap.obj
 0001:00009f2c       ?AddRef@?$CComObject@VCOPOSSigCap@@@ATL@@WNI@EAAKXZ 000000018000af2c f i SigCap.obj
 0001:00009f38       ?AddRef@?$CComObject@VCOPOSSigCap@@@ATL@@WOA@EAAKXZ 000000018000af38 f i SigCap.obj
 0001:00009f44       ?AddRef@?$CComObject@VCOPOSSigCap@@@ATL@@WOI@EAAKXZ 000000018000af44 f i SigCap.obj
 0001:00009f50       ?AddRef@?$CComObject@VCOPOSSigCap@@@ATL@@WPA@EAAKXZ 000000018000af50 f i SigCap.obj
 0001:00009f5c       ?AddRef@?$CComObject@VCOPOSSigCap@@@ATL@@WPI@EAAKXZ 000000018000af5c f i SigCap.obj
 0001:00009f70       ?AddRef@?$CComObjectCached@VCComClassFactory@ATL@@@ATL@@UEAAKXZ 000000018000af70 f i SigCap.obj
 0001:00009fc0       ?AddRef@CRegObject@ATL@@UEAAKXZ 000000018000afc0 f i SigCap.obj
 0001:0000a020       ?AddReplacement@CRegObject@ATL@@UEAAJPEB_W0@Z 000000018000b020 f i SigCap.obj
 0001:0000a150       ?AddString@CParseBuffer@CRegParser@ATL@@QEAAHPEB_W@Z 000000018000b150 f i SigCap.obj
 0001:0000a240       ?AddTermFunc@CAtlModule@ATL@@QEAAJP6AX_K@Z0@Z 000000018000b240 f i SigCap.obj
 0001:0000a290       ?AddValue@CRegParser@ATL@@IEAAJAEAVCRegKey@2@PEB_WPEA_W@Z 000000018000b290 f i SigCap.obj
 0001:0000ab60       ?Advise@?$CProxy_IOPOSEvents@VCOPOSSigCap@@@@UEAAJPEAUIUnknown@@PEAK@Z 000000018000bb60 f i SigCap.obj
 0001:0000abc0       ?Advise@?$IConnectionPointImpl@VCOPOSSigCap@@$1?DIID__IOPOSSigCapEvents@@3U_GUID@@BVCComDynamicUnkArray@ATL@@@ATL@@UEAAJPEAUIUnknown@@PEAK@Z 000000018000bbc0 f i SigCap.obj
 0001:0000adc0       ?Advise@?$IConnectionPointImpl@VCOPOSSigCap@@$1?IID_IPropertyNotifySink@@3U_GUID@@BVCComDynamicUnkArray@ATL@@@ATL@@UEAAJPEAUIUnknown@@PEAK@Z 000000018000bdc0 f i SigCap.obj
 0001:0000afc0       ?Advise@?$IOleObjectImpl@VCOPOSSigCap@@@ATL@@UEAAJPEAUIAdviseSink@@PEAK@Z 000000018000bfc0 f i SigCap.obj
 0001:0000b070       ?Allocate@?$CAtlSafeAllocBufferManager@VCCRTAllocator@ATL@@@_ATL_SAFE_ALLOCA_IMPL@ATL@@QEAAPEAX_K@Z 000000018000c070 f i SigCap.obj
 0001:0000b0e0       ?Allocate@?$CTempBuffer@E$0BAA@VCCRTAllocator@ATL@@@ATL@@QEAAPEAE_K@Z 000000018000c0e0 f i SigCap.obj
 0001:0000b120       ?Allocate@?$CTempBuffer@_W$0BAA@VCCRTAllocator@ATL@@@ATL@@QEAAPEA_W_K@Z 000000018000c120 f i SigCap.obj
 0001:0000b160       ?Allocate@?$CTempBuffer@_W$0EAA@VCCRTAllocator@ATL@@@ATL@@QEAAPEA_W_K@Z 000000018000c160 f i SigCap.obj
 0001:0000b1a0       ?AllocateBytes@?$CTempBuffer@E$0BAA@VCCRTAllocator@ATL@@@ATL@@QEAAPEAE_K@Z 000000018000c1a0 f i SigCap.obj
 0001:0000b230       ?AllocateBytes@?$CTempBuffer@_W$0BAA@VCCRTAllocator@ATL@@@ATL@@QEAAPEA_W_K@Z 000000018000c230 f i SigCap.obj
 0001:0000b2c0       ?AllocateBytes@?$CTempBuffer@_W$0EAA@VCCRTAllocator@ATL@@@ATL@@QEAAPEA_W_K@Z 000000018000c2c0 f i SigCap.obj
 0001:0000b350       ?AllocateHeap@?$CTempBuffer@E$0BAA@VCCRTAllocator@ATL@@@ATL@@AEAAX_K@Z 000000018000c350 f i SigCap.obj
 0001:0000b3a0       ?AllocateHeap@?$CTempBuffer@_W$0BAA@VCCRTAllocator@ATL@@@ATL@@AEAAX_K@Z 000000018000c3a0 f i SigCap.obj
 0001:0000b3f0       ?AllocateHeap@?$CTempBuffer@_W$0EAA@VCCRTAllocator@ATL@@@ATL@@AEAAX_K@Z 000000018000c3f0 f i SigCap.obj
 0001:0000b440       ?Append@CParseBuffer@CRegParser@ATL@@QEAAHPEB_WH@Z 000000018000c440 f i SigCap.obj
 0001:0000b660       ?AtlCallTermFunc@ATL@@YAXPEAU_ATL_MODULE70@1@@Z 000000018000c660 f i SigCap.obj
 0001:0000b700       ?AtlCoTaskMemCAlloc@ATL@@YAPEAXKK@Z 000000018000c700 f i SigCap.obj
 0001:0000b780       ?AtlCoTaskMemRecalloc@ATL@@YAPEAXPEAXKK@Z 000000018000c780 f i SigCap.obj
 0001:0000b800       ?AtlComModuleGetClassObject@ATL@@YAJPEAU_ATL_COM_MODULE70@1@AEBU_GUID@@1PEAPEAX@Z 000000018000c800 f i SigCap.obj
 0001:0000bb30       ?AtlComModuleRegisterServer@ATL@@YAJPEAU_ATL_COM_MODULE70@1@HPEBU_GUID@@@Z 000000018000cb30 f i SigCap.obj
 0001:0000bd20       ?AtlComModuleUnregisterServer@ATL@@YAJPEAU_ATL_COM_MODULE70@1@HPEBU_GUID@@@Z 000000018000cd20 f i SigCap.obj
 0001:0000be70       ?AtlComQIPtrAssign2@ATL@@YAXPEAPEAUIUnknown@@PEAU2@AEBU_GUID@@@Z 000000018000ce70 f i SigCap.obj
 0001:0000bee0       ?AtlCreateTargetDC@ATL@@YAPEAUHDC__@@PEAU2@PEAUtagDVTARGETDEVICE@@@Z 000000018000cee0 f i SigCap.obj
 0001:0000c110       ?AtlCrtErrorCheck@ATL@@YAHH@Z 000000018000d110 f i SigCap.obj
 0001:0000c180       ?AtlGetPerUserRegistration@ATL@@YAJPEA_N@Z 000000018000d180 f i SigCap.obj
 0001:0000c1b0       ?AtlHiMetricToPixel@ATL@@YAXPEBUtagSIZE@@PEAU2@@Z 000000018000d1b0 f i SigCap.obj
 0001:0000c390       ?AtlHresultFromLastError@ATL@@YAJXZ 000000018000d390 f i SigCap.obj
 0001:0000c3b0       ?AtlHresultFromWin32@ATL@@YAJK@Z 000000018000d3b0 f i SigCap.obj
 0001:0000c3d0       ?AtlIPersistStreamInit_Load@ATL@@YAJPEAUIStream@@PEBUATL_PROPMAP_ENTRY@1@PEAXPEAUIUnknown@@@Z 000000018000d3d0 f i SigCap.obj
 0001:0000ca50       ?AtlIPersistStreamInit_Save@ATL@@YAJPEAUIStream@@HPEBUATL_PROPMAP_ENTRY@1@PEAXPEAUIUnknown@@@Z 000000018000da50 f i SigCap.obj
 0001:0000cfe0       ?AtlInternalOleLoadFromStream@ATL@@YAJPEAUIStream@@AEBU_GUID@@PEAPEAXTClassesAllowedInStream@1@K@Z 000000018000dfe0 f i SigCap.obj
 0001:0000d320       ?AtlInternalQueryInterface@ATL@@YAJPEAXPEBU_ATL_INTMAP_ENTRY@1@AEBU_GUID@@PEAPEAX@Z 000000018000e320 f i SigCap.obj
 0001:0000d5d0       ?AtlLoadTypeLib@ATL@@YAJPEAUHINSTANCE__@@PEB_WPEAPEA_WPEAPEAUITypeLib@@@Z 000000018000e5d0 f i SigCap.obj
 0001:0000daa0       ?AtlModuleAddTermFunc@ATL@@YAJPEAU_ATL_MODULE70@1@P6AX_K@Z1@Z 000000018000eaa0 f i SigCap.obj
 0001:0000dc70       ?AtlRegisterClassCategoriesHelper@ATL@@YAJAEBU_GUID@@PEBU_ATL_CATMAP_ENTRY@1@H@Z 000000018000ec70 f i SigCap.obj
 0001:0000e440       ?AtlRegisterTypeLib@ATL@@YAJPEAUHINSTANCE__@@PEB_W@Z 000000018000f440 f i SigCap.obj
 0001:0000e7a0       ?AtlThrowImpl@ATL@@YAXJ@Z  000000018000f7a0 f i SigCap.obj
 0001:0000e870       ?AtlUnRegisterTypeLib@ATL@@YAJPEAUHINSTANCE__@@PEB_W@Z 000000018000f870 f i SigCap.obj
 0001:0000eaa0       ?AtlWinModuleAddCreateWndData@ATL@@YAXPEAU_ATL_WIN_MODULE70@1@PEAU_AtlCreateWndData@1@PEAX@Z 000000018000faa0 f i SigCap.obj
 0001:0000ec90       ?AtlWinModuleExtractCreateWndData@ATL@@YAPEAXPEAU_ATL_WIN_MODULE70@1@@Z 000000018000fc90 f i SigCap.obj
 0001:0000ee90       ?AtlWinModuleRegisterClassExW@ATL@@YAGPEAU_ATL_WIN_MODULE70@1@PEBUtagWNDCLASSEXW@@@Z 000000018000fe90 f i SigCap.obj
 0001:0000ef60       ?AtlWinModuleRegisterWndClassInfoW@ATL@@YAGPEAU_ATL_WIN_MODULE70@1@PEAU_ATL_BASE_MODULE70@1@PEAU_ATL_WNDCLASSINFOW@1@PEAP6A_JPEAUHWND__@@I_K_J@Z@Z 000000018000ff60 f i SigCap.obj
 0001:0000efd0       ?Attach@?$CAutoVectorPtr@_W@ATL@@QEAAXPEA_W@Z 000000018000ffd0 f i SigCap.obj
 0001:0000f040       ?Attach@CComBSTR@ATL@@QEAAXPEA_W@Z 0000000180010040 f i SigCap.obj
 0001:0000f080       ?Attach@CRegKey@ATL@@QEAAXPEAUHKEY__@@@Z 0000000180010080 f i SigCap.obj
 0001:0000f110       ?CanForceRemoveKey@CRegParser@ATL@@IEAAHPEB_W@Z 0000000180010110 f i SigCap.obj
 0001:0000f170       ?ChToByte@CRegParser@ATL@@KAE_W@Z 0000000180010170 f i SigCap.obj
 0001:0000f310       ?ChangeType@CComVariant@ATL@@QEAAJGPEBUtagVARIANT@@@Z 0000000180010310 f i SigCap.obj
 0001:0000f360       ?Cleanup@CComTypeInfoHolder@ATL@@SAX_K@Z 0000000180010360 f i SigCap.obj
 0001:0000f440       ?Clear@CComVariant@ATL@@QEAAJXZ 0000000180010440 f i SigCap.obj
 0001:0000f460       ?ClearReplacements@CExpansionVector@ATL@@QEAAJXZ 0000000180010460 f i SigCap.obj
 0001:0000f4f0       ?ClearReplacements@CRegObject@ATL@@UEAAJXZ 00000001800104f0 f i SigCap.obj
 0001:0000f540       ?Clone@?$CComEnumImpl@UIEnumConnectionPoints@@$1?_GUID_b196b285_bab4_101a_b69c_00aa00341d07@@3U__s_GUID@@BPEAUIConnectionPoint@@V?$_CopyInterface@UIConnectionPoint@@@ATL@@@ATL@@UEAAJPEAPEAUIEnumConnectionPoints@@@Z 0000000180010540 f i SigCap.obj
 0001:0000f730       ?Clone@?$CComEnumImpl@UIEnumConnections@@$1?_GUID_b196b287_bab4_101a_b69c_00aa00341d07@@3U__s_GUID@@BUtagCONNECTDATA@@V?$_Copy@UtagCONNECTDATA@@@ATL@@@ATL@@UEAAJPEAPEAUIEnumConnections@@@Z 0000000180010730 f i SigCap.obj
 0001:0000f920       ?Close@?$IOleObjectImpl@VCOPOSSigCap@@@ATL@@UEAAJK@Z 0000000180010920 f i SigCap.obj
 0001:0000f9c0       ?Close@CRegKey@ATL@@QEAAJXZ 00000001800109c0 f i SigCap.obj
 0001:0000fa20       ?ContextSensitiveHelp@?$IOleInPlaceActiveObjectImpl@VCOPOSSigCap@@@ATL@@UEAAJH@Z 0000000180010a20 f i SigCap.obj
 0001:0000fa90       ?ContextSensitiveHelp@?$IOleInPlaceObjectWindowlessImpl@VCOPOSSigCap@@@ATL@@UEAAJH@Z 0000000180010a90 f i SigCap.obj
 0001:0000fb00       ?ControlQueryInterface@?$CComControl@VCOPOSSigCap@@V?$CWindowImpl@VCOPOSSigCap@@VCWindow@ATL@@V?$CWinTraits@$0FGAAAAAA@$0A@@3@@ATL@@@ATL@@UEAAJAEBU_GUID@@PEAPEAX@Z 0000000180010b00 f i SigCap.obj
 0001:0000fb70       ?CreateControlWindow@?$CComControl@VCOPOSSigCap@@V?$CWindowImpl@VCOPOSSigCap@@VCWindow@ATL@@V?$CWinTraits@$0FGAAAAAA@$0A@@3@@ATL@@@ATL@@UEAAPEAUHWND__@@PEAU3@AEAUtagRECT@@@Z 0000000180010b70 f i SigCap.obj
 0001:0000fc40       ?CreateInstance@?$CComCreator@V?$CComAggObject@VCOPOSSigCap@@@ATL@@@ATL@@SAJPEAXAEBU_GUID@@PEAPEAX@Z 0000000180010c40 f i SigCap.obj
 0001:0000fe10       ?CreateInstance@?$CComCreator@V?$CComObject@VCOPOSSigCap@@@ATL@@@ATL@@SAJPEAXAEBU_GUID@@PEAPEAX@Z 0000000180010e10 f i SigCap.obj
 0001:0000fff0       ?CreateInstance@?$CComObject@V?$CComEnum@UIEnumConnectionPoints@@$1?_GUID_b196b285_bab4_101a_b69c_00aa00341d07@@3U__s_GUID@@BPEAUIConnectionPoint@@V?$_CopyInterface@UIConnectionPoint@@@ATL@@VCComSingleThreadModel@6@@ATL@@@ATL@@SAJPEAPEAV12@@Z 0000000180010ff0 f i SigCap.obj
 0001:000101a0       ?CreateInstance@?$CComObject@V?$CComEnum@UIEnumConnections@@$1?_GUID_b196b287_bab4_101a_b69c_00aa00341d07@@3U__s_GUID@@BUtagCONNECTDATA@@V?$_Copy@UtagCONNECTDATA@@@ATL@@VCComSingleThreadModel@6@@ATL@@@ATL@@SAJPEAPEAV12@@Z 00000001800111a0 f i SigCap.obj
 0001:00010350       ?CreateInstance@CComClassFactory@ATL@@UEAAJPEAUIUnknown@@AEBU_GUID@@PEAPEAX@Z 0000000180011350 f i SigCap.obj
 0001:00010460       ?DAdvise@?$IDataObjectImpl@VCOPOSSigCap@@@ATL@@UEAAJPEAUtagFORMATETC@@KPEAUIAdviseSink@@PEAK@Z 0000000180011460 f i SigCap.obj
 0001:000105a0       ?DEVMODEOLE2T_EX@@YAPEAU_devicemodeW@@PEAU1@@Z 00000001800115a0 f i SigCap.obj
 0001:000105b0       ?DUnadvise@?$IDataObjectImpl@VCOPOSSigCap@@@ATL@@UEAAJK@Z 00000001800115b0 f i SigCap.obj
 0001:000106a0       ?Decrement@CComMultiThreadModel@ATL@@SAKPEAJ@Z 00000001800116a0 f i SigCap.obj
 0001:000106c0       ?Decrement@CComSingleThreadModel@ATL@@SAKPEAJ@Z 00000001800116c0 f i SigCap.obj
 0001:000106e0       ?DefWindowProcW@?$CWindowImplBaseT@VCWindow@ATL@@V?$CWinTraits@$0FGAAAAAA@$0A@@2@@ATL@@QEAA_JI_K_J@Z 00000001800116e0 f i SigCap.obj
 0001:00010730       ?DefaultReflectionHandler@?$CWindowImplRoot@VCWindow@ATL@@@ATL@@SAHPEAUHWND__@@I_K_JAEA_J@Z 0000000180011730 f i SigCap.obj
 0001:00010a30       ?DeleteSubKey@CRegKey@ATL@@QEAAJPEB_W@Z 0000000180011a30 f i SigCap.obj
 0001:00010b40       ?DeleteValue@CRegKey@ATL@@QEAAJPEB_W@Z 0000000180011b40 f i SigCap.obj
 0001:00010bc0       ?Detach@?$CAutoVectorPtr@_W@ATL@@QEAAPEA_WXZ 0000000180011bc0 f i SigCap.obj
 0001:00010bf0       ?Detach@?$CComPtrBase@UIPersistStream@@@ATL@@QEAAPEAUIPersistStream@@XZ 0000000180011bf0 f i SigCap.obj
 0001:00010c20       ?Detach@?$CComPtrBase@UITypeInfo@@@ATL@@QEAAPEAUITypeInfo@@XZ 0000000180011c20 f i SigCap.obj
 0001:00010c50       ?Detach@?$CComPtrBase@UIUnknown@@@ATL@@QEAAPEAUIUnknown@@XZ 0000000180011c50 f i SigCap.obj
 0001:00010c80       ?Detach@CComBSTR@ATL@@QEAAPEA_WXZ 0000000180011c80 f i SigCap.obj
 0001:00010cb0       ?Detach@CParseBuffer@CRegParser@ATL@@QEAAPEA_WXZ 0000000180011cb0 f i SigCap.obj
 0001:00010d00       ?Detach@CRegKey@ATL@@QEAAPEAUHKEY__@@XZ 0000000180011d00 f i SigCap.obj
 0001:00010d50       ?DoEvent@COPOSSigCap@@IEAAXI_K_J@Z 0000000180011d50 f i SigCap.obj
 0001:00010e70       ?DoVerb@?$IOleObjectImpl@VCOPOSSigCap@@@ATL@@UEAAJJPEAUtagMSG@@PEAUIOleClientSite@@JPEAUHWND__@@PEBUtagRECT@@@Z 0000000180011e70 f i SigCap.obj
 0001:00011170       ?DoVerbDiscardUndo@?$IOleObjectImpl@VCOPOSSigCap@@@ATL@@QEAAJPEBUtagRECT@@PEAUHWND__@@@Z 0000000180012170 f i SigCap.obj
 0001:000111f0       ?DoVerbHide@?$IOleObjectImpl@VCOPOSSigCap@@@ATL@@QEAAJPEBUtagRECT@@PEAUHWND__@@@Z 00000001800121f0 f i SigCap.obj
 0001:000112c0       ?DoVerbInPlaceActivate@?$IOleObjectImpl@VCOPOSSigCap@@@ATL@@QEAAJPEBUtagRECT@@PEAUHWND__@@@Z 00000001800122c0 f i SigCap.obj
 0001:00011380       ?DoVerbOpen@?$IOleObjectImpl@VCOPOSSigCap@@@ATL@@QEAAJPEBUtagRECT@@PEAUHWND__@@@Z 0000000180012380 f i SigCap.obj
 0001:00011400       ?DoVerbPrimary@?$IOleObjectImpl@VCOPOSSigCap@@@ATL@@QEAAJPEBUtagRECT@@PEAUHWND__@@@Z 0000000180012400 f i SigCap.obj
 0001:00011540       ?DoVerbProperties@CComControlBase@ATL@@QEAAJPEBUtagRECT@@PEAUHWND__@@@Z 0000000180012540 f i SigCap.obj
 0001:000118f0       ?DoVerbShow@?$IOleObjectImpl@VCOPOSSigCap@@@ATL@@QEAAJPEBUtagRECT@@PEAUHWND__@@@Z 00000001800128f0 f i SigCap.obj
 0001:000119a0       ?DoVerbUIActivate@?$IOleObjectImpl@VCOPOSSigCap@@@ATL@@QEAAJPEBUtagRECT@@PEAUHWND__@@@Z 00000001800129a0 f i SigCap.obj
 0001:00011a60       ?DoesVerbActivate@CComControlBase@ATL@@QEAAHJ@Z 0000000180012a60 f i SigCap.obj
 0001:00011ab0       ?DoesVerbUIActivate@CComControlBase@ATL@@QEAAHJ@Z 0000000180012ab0 f i SigCap.obj
 0001:00011b20       ?Draw@?$IViewObjectExImpl@VCOPOSSigCap@@@ATL@@UEAAJKJPEAXPEAUtagDVTARGETDEVICE@@PEAUHDC__@@2PEBU_RECTL@@3P6AH_K@Z4@Z 0000000180012b20 f i SigCap.obj
 0001:00011c30       ?Empty@CComBSTR@ATL@@QEAAXXZ 0000000180012c30 f i SigCap.obj
 0001:00011c60       ?EnableModeless@?$IOleInPlaceActiveObjectImpl@VCOPOSSigCap@@@ATL@@UEAAJH@Z 0000000180012c60 f i SigCap.obj
 0001:00011cc0       ?EndOfVar@CRegParser@ATL@@IEAAHXZ 0000000180012cc0 f i SigCap.obj
 0001:00011d10       ?EnsureTI@CComTypeInfoHolder@ATL@@QEAAJK@Z 0000000180012d10 f i SigCap.obj
 0001:00011d60       ?EnumAdvise@?$IOleObjectImpl@VCOPOSSigCap@@@ATL@@UEAAJPEAPEAUIEnumSTATDATA@@@Z 0000000180012d60 f i SigCap.obj
 0001:00011eb0       ?EnumConnectionPoints@?$IConnectionPointContainerImpl@VCOPOSSigCap@@@ATL@@UEAAJPEAPEAUIEnumConnectionPoints@@@Z 0000000180012eb0 f i SigCap.obj
 0001:000123a0       ?EnumConnections@?$IConnectionPointImpl@VCOPOSSigCap@@$1?DIID__IOPOSSigCapEvents@@3U_GUID@@BVCComDynamicUnkArray@ATL@@@ATL@@UEAAJPEAPEAUIEnumConnections@@@Z 00000001800133a0 f i SigCap.obj
 0001:000126d0       ?EnumConnections@?$IConnectionPointImpl@VCOPOSSigCap@@$1?IID_IPropertyNotifySink@@3U_GUID@@BVCComDynamicUnkArray@ATL@@@ATL@@UEAAJPEAPEAUIEnumConnections@@@Z 00000001800136d0 f i SigCap.obj
 0001:00012a00       ?EnumDAdvise@?$IDataObjectImpl@VCOPOSSigCap@@@ATL@@UEAAJPEAPEAUIEnumSTATDATA@@@Z 0000000180013a00 f i SigCap.obj
 0001:00012b30       ?EnumFormatEtc@?$IDataObjectImpl@VCOPOSSigCap@@@ATL@@UEAAJKPEAPEAUIEnumFORMATETC@@@Z 0000000180013b30 f i SigCap.obj
 0001:00012bb0       ?EnumVerbs@?$IOleObjectImpl@VCOPOSSigCap@@@ATL@@UEAAJPEAPEAUIEnumOLEVERB@@@Z 0000000180013bb0 f i SigCap.obj
 0001:00012c70       ?EscapeSingleQuote@CAtlModule@ATL@@SAXPEA_W_KPEB_W@Z 0000000180013c70 f i SigCap.obj
 0001:00012d50       ?ExtractCreateWndData@CAtlWinModule@ATL@@QEAAPEAXXZ 0000000180013d50 f i SigCap.obj
 0001:00012d70       ?FAccessAllowed@?$IObjectSafetyImpl@VCOPOSSigCap@@$02@ATL@@MEAAHXZ 0000000180013d70 f i SigCap.obj
 0001:00012d80       ?FinalConstruct@?$CComAggObject@VCOPOSSigCap@@@ATL@@QEAAJXZ 0000000180013d80 f i SigCap.obj
 0001:00012dc0       ?FinalConstruct@CComObjectRootBase@ATL@@QEAAJXZ 0000000180013dc0 f i SigCap.obj
 0001:00012dd0       ?FinalConstruct@CRegObject@ATL@@QEAAJXZ 0000000180013dd0 f i SigCap.obj
 0001:00012e00       ?FinalRelease@?$CComAggObject@VCOPOSSigCap@@@ATL@@QEAAXXZ 0000000180013e00 f i SigCap.obj
 0001:00012e40       ?FinalRelease@CComObjectRootBase@ATL@@QEAAXXZ 0000000180013e40 f i SigCap.obj
 0001:00012e50       ?FindConnectionPoint@?$IConnectionPointContainerImpl@VCOPOSSigCap@@@ATL@@UEAAJAEBU_GUID@@PEAPEAUIConnectionPoint@@@Z 0000000180013e50 f i SigCap.obj
 0001:00012fc0       ?FindKey@?$CSimpleMap@PEA_WPEA_WVCExpansionVectorEqualHelper@ATL@@@ATL@@QEBAHAEBQEA_W@Z 0000000180013fc0 f i SigCap.obj
 0001:00013030       ?FireTheEvent@?$CProxy_IOPOSEvents@VCOPOSSigCap@@@@IEAAXPEAUIUnknown@@PEAVOposVariant@@IAEAJPEB_WJ@Z 0000000180014030 f i SigCap.obj
 0001:00013210       ?FireViewChange@CComControlBase@ATL@@QEAAJXZ 0000000180014210 f i SigCap.obj
 0001:000132e0       ?Fire_DataEvent@?$CProxy_IOPOSEvents@VCOPOSSigCap@@@@QEAAXJ@Z 00000001800142e0 f i SigCap.obj
 0001:000134d0       ?Fire_DirectIOEvent@?$CProxy_IOPOSEvents@VCOPOSSigCap@@@@QEAAXJPEAJPEAPEA_W@Z 00000001800144d0 f i SigCap.obj
 0001:00013770       ?Fire_ErrorEvent@?$CProxy_IOPOSEvents@VCOPOSSigCap@@@@QEAAXJJJPEAJ@Z 0000000180014770 f i SigCap.obj
 0001:00013a20       ?Fire_StatusUpdateEvent@?$CProxy_IOPOSEvents@VCOPOSSigCap@@@@QEAAXJ@Z 0000000180014a20 f i SigCap.obj
 0001:00013c10       ?FormatWindowClassName@AtlModuleRegisterWndClassInfoParamW@ATL@@SAXPEA_WKPEAX@Z 0000000180014c10 f i SigCap.obj
 0001:00013c50       ?Free@?$CAutoVectorPtr@_W@ATL@@QEAAXXZ 0000000180014c50 f i SigCap.obj
 0001:00013c90       ?FreeHeap@?$CTempBuffer@E$0BAA@VCCRTAllocator@ATL@@@ATL@@AEAAXXZ 0000000180014c90 f i SigCap.obj
 0001:00013cb0       ?FreeHeap@?$CTempBuffer@_W$0BAA@VCCRTAllocator@ATL@@@ATL@@AEAAXXZ 0000000180014cb0 f i SigCap.obj
 0001:00013cd0       ?FreeHeap@?$CTempBuffer@_W$0EAA@VCCRTAllocator@ATL@@@ATL@@AEAAXXZ 0000000180014cd0 f i SigCap.obj
 0001:00013cf0       ?Freeze@?$IViewObjectExImpl@VCOPOSSigCap@@@ATL@@UEAAJKJPEAXPEAK@Z 0000000180014cf0 f i SigCap.obj
 0001:00013d70       ?GenerateError@CRegParser@ATL@@IEAAJI@Z 0000000180014d70 f i SigCap.obj
 0001:00013d90       ?GetAdvise@?$IViewObjectExImpl@VCOPOSSigCap@@@ATL@@UEAAJPEAK0PEAPEAUIAdviseSink@@@Z 0000000180014d90 f i SigCap.obj
 0001:00013ed0       ?GetAmbientLocaleID@CComControlBase@ATL@@QEAAJAEAK@Z 0000000180014ed0 f i SigCap.obj
 0001:00013fb0       ?GetAmbientProperty@CComControlBase@ATL@@QEAAJJAEAUtagVARIANT@@@Z 0000000180014fb0 f i SigCap.obj
 0001:00014000       ?GetAmbientUserMode@CComControlBase@ATL@@QEAAJAEAH@Z 0000000180015000 f i SigCap.obj
 0001:00014120       ?GetAppId@?$CAtlModuleT@VCComModule@ATL@@@ATL@@SAPEB_WXZ 0000000180015120 f i SigCap.obj
 0001:00014130       ?GetAt@CComDynamicUnkArray@ATL@@QEAAPEAUIUnknown@@H@Z 0000000180015130 f i SigCap.obj
 0001:000141c0       ?GetCanonicalFormatEtc@?$IDataObjectImpl@VCOPOSSigCap@@@ATL@@UEAAJPEAUtagFORMATETC@@0@Z 00000001800151c0 f i SigCap.obj
 0001:00014240       ?GetClassID@?$IPersistStorageImpl@VCOPOSSigCap@@@ATL@@UEAAJPEAU_GUID@@@Z 0000000180015240 f i SigCap.obj
 0001:000142c0       ?GetClassID@?$IPersistStreamInitImpl@VCOPOSSigCap@@@ATL@@UEAAJPEAU_GUID@@@Z 00000001800152c0 f i SigCap.obj
 0001:00014340       ?GetClassInfoExW@AtlModuleRegisterWndClassInfoParamW@ATL@@SAHPEAUHINSTANCE__@@PEB_WPEAUtagWNDCLASSEXW@@@Z 0000000180015340 f i SigCap.obj
 0001:00014370       ?GetClassInfoW@?$IProvideClassInfo2Impl@$1?CLSID_OPOSSigCap@@3U_GUID@@B$1?DIID__IOPOSSigCapEvents@@3U2@B$1?LIBID_OposSigCap_CCO@@3U2@B$00$0A@VCComTypeInfoHolder@ATL@@@ATL@@UEAAJPEAPEAUITypeInfo@@@Z 0000000180015370 f i SigCap.obj
 0001:000143a0       ?GetClassObject@CComModule@ATL@@QEAAJAEBU_GUID@@0PEAPEAX@Z 00000001800153a0 f i SigCap.obj
 0001:00014610       ?GetClientSite@?$IOleObjectImpl@VCOPOSSigCap@@@ATL@@UEAAJPEAPEAUIOleClientSite@@@Z 0000000180015610 f i SigCap.obj
 0001:000146b0       ?GetClipboardData@?$IOleObjectImpl@VCOPOSSigCap@@@ATL@@UEAAJKPEAPEAUIDataObject@@@Z 00000001800156b0 f i SigCap.obj
 0001:00014730       ?GetCodeAddress@CDynamicStdCallThunk2@ATL@@QEAAPEAXXZ 0000000180015730 f i SigCap.obj
 0001:00014750       ?GetColorSet@?$IViewObjectExImpl@VCOPOSSigCap@@@ATL@@UEAAJKJPEAXPEAUtagDVTARGETDEVICE@@PEAUHDC__@@PEAPEAUtagLOGPALETTE@@@Z 0000000180015750 f i SigCap.obj
 0001:000147d0       ?GetConnMap@COPOSSigCap@@SAPEBU_ATL_CONNMAP_ENTRY@ATL@@PEAH@Z 00000001800157d0 f i SigCap.obj
 0001:00014920       ?GetConnectionInterface@?$IConnectionPointImpl@VCOPOSSigCap@@$1?DIID__IOPOSSigCapEvents@@3U_GUID@@BVCComDynamicUnkArray@ATL@@@ATL@@UEAAJPEAU_GUID@@@Z 0000000180015920 f i SigCap.obj
 0001:00014960       ?GetConnectionInterface@?$IConnectionPointImpl@VCOPOSSigCap@@$1?IID_IPropertyNotifySink@@3U_GUID@@BVCComDynamicUnkArray@ATL@@@ATL@@UEAAJPEAU_GUID@@@Z 0000000180015960 f i SigCap.obj
 0001:000149a0       ?GetConnectionPointContainer@?$IConnectionPointImpl@VCOPOSSigCap@@$1?DIID__IOPOSSigCapEvents@@3U_GUID@@BVCComDynamicUnkArray@ATL@@@ATL@@UEAAJPEAPEAUIConnectionPointContainer@@@Z 00000001800159a0 f i SigCap.obj
 0001:00014a00       ?GetConnectionPointContainer@?$IConnectionPointImpl@VCOPOSSigCap@@$1?IID_IPropertyNotifySink@@3U_GUID@@BVCComDynamicUnkArray@ATL@@@ATL@@UEAAJPEAPEAUIConnectionPointContainer@@@Z 0000000180015a00 f i SigCap.obj
 0001:00014a60       ?GetContentExtent@?$IQuickActivateImpl@VCOPOSSigCap@@@ATL@@UEAAJPEAUtagSIZE@@@Z 0000000180015a60 f i SigCap.obj
 0001:00014b10       ?GetControlInfo@?$IOleControlImpl@VCOPOSSigCap@@@ATL@@UEAAJPEAUtagCONTROLINFO@@@Z 0000000180015b10 f i SigCap.obj
 0001:00014b80       ?GetCookie@CComDynamicUnkArray@ATL@@QEAAKPEAPEAUIUnknown@@@Z 0000000180015b80 f i SigCap.obj
 0001:00014c60       ?GetData@?$IDataObjectImpl@VCOPOSSigCap@@@ATL@@UEAAJPEAUtagFORMATETC@@PEAUtagSTGMEDIUM@@@Z 0000000180015c60 f i SigCap.obj
 0001:00014d10       ?GetData@CAtlSafeAllocBufferNode@?$CAtlSafeAllocBufferManager@VCCRTAllocator@ATL@@@_ATL_SAFE_ALLOCA_IMPL@ATL@@QEAAPEAXXZ 0000000180015d10 f i SigCap.obj
 0001:00014d30       ?GetDataHere@?$IDataObjectImpl@VCOPOSSigCap@@@ATL@@UEAAJPEAUtagFORMATETC@@PEAUtagSTGMEDIUM@@@Z 0000000180015d30 f i SigCap.obj
 0001:00014db0       ?GetDropTarget@?$IOleInPlaceObjectWindowlessImpl@VCOPOSSigCap@@@ATL@@UEAAJPEAPEAUIDropTarget@@@Z 0000000180015db0 f i SigCap.obj
 0001:00014e20       ?GetExtent@?$IOleObjectImpl@VCOPOSSigCap@@@ATL@@UEAAJKPEAUtagSIZE@@@Z 0000000180015e20 f i SigCap.obj
 0001:00014ee0       ?GetExtent@?$IViewObjectExImpl@VCOPOSSigCap@@@ATL@@UEAAJKJPEAUtagDVTARGETDEVICE@@PEAUtagSIZE@@@Z 0000000180015ee0 f i SigCap.obj
 0001:00014fe0       ?GetGITPtr@CAtlModule@ATL@@UEAAJPEAPEAUIGlobalInterfaceTable@@@Z 0000000180015fe0 f i SigCap.obj
 0001:00015110       ?GetGUID@?$IProvideClassInfo2Impl@$1?CLSID_OPOSSigCap@@3U_GUID@@B$1?DIID__IOPOSSigCapEvents@@3U2@B$1?LIBID_OposSigCap_CCO@@3U2@B$00$0A@VCComTypeInfoHolder@ATL@@@ATL@@UEAAJKPEAU_GUID@@@Z 0000000180016110 f i SigCap.obj
 0001:00015190       ?GetIDsOfNames@?$IDispatchImpl@UIOPOSSigCap@@$1?IID_IOPOSSigCap@@3U_GUID@@B$1?LIBID_OposSigCap_CCO@@3U3@B$00$0A@VCComTypeInfoHolder@ATL@@@ATL@@UEAAJAEBU_GUID@@PEAPEA_WIKPEAJ@Z 0000000180016190 f i SigCap.obj
 0001:000151e0       ?GetIDsOfNames@CComTypeInfoHolder@ATL@@QEAAJAEBU_GUID@@PEAPEA_WIKPEAJ@Z 00000001800161e0 f i SigCap.obj
 0001:000153f0       ?GetInterfaceSafetyOptions@?$IObjectSafetyImpl@VCOPOSSigCap@@$02@ATL@@UEAAJAEBU_GUID@@PEAK1@Z 00000001800163f0 f i SigCap.obj
 0001:00015590       ?GetKeyAt@?$CSimpleMap@PEA_WPEA_WVCExpansionVectorEqualHelper@ATL@@@ATL@@QEBAAEAPEA_WH@Z 0000000180016590 f i SigCap.obj
 0001:00015630       ?GetLockCount@CAtlModule@ATL@@UEAAJXZ 0000000180016630 f i SigCap.obj
 0001:00015640       ?GetMiscStatus@?$IOleObjectImpl@VCOPOSSigCap@@@ATL@@UEAAJKPEAK@Z 0000000180016640 f i SigCap.obj
 0001:000156c0       ?GetMoniker@?$IOleObjectImpl@VCOPOSSigCap@@@ATL@@UEAAJKKPEAPEAUIMoniker@@@Z 00000001800166c0 f i SigCap.obj
 0001:00015740       ?GetNaturalExtent@?$IViewObjectExImpl@VCOPOSSigCap@@@ATL@@UEAAJKJPEAUtagDVTARGETDEVICE@@PEAUHDC__@@PEAUtagExtentInfo@@PEAUtagSIZE@@@Z 0000000180016740 f i SigCap.obj
 0001:000158c0       ?GetObjectCLSID@?$CComCoClass@VCOPOSSigCap@@$1?CLSID_OPOSSigCap@@3U_GUID@@B@ATL@@SAAEBU_GUID@@XZ 00000001800168c0 f i SigCap.obj
 0001:000158d0       ?GetPages@?$ISpecifyPropertyPagesImpl@VCOPOSSigCap@@@ATL@@UEAAJPEAUtagCAUUID@@@Z 00000001800168d0 f i SigCap.obj
 0001:00015950       ?GetPagesHelper@?$ISpecifyPropertyPagesImpl@VCOPOSSigCap@@@ATL@@IEAAJPEAUtagCAUUID@@PEBUATL_PROPMAP_ENTRY@2@@Z 0000000180016950 f i SigCap.obj
 0001:00015bb0       ?GetProperty@?$CComPtr@UIDispatch@@@ATL@@QEAAJJPEAUtagVARIANT@@@Z 0000000180016bb0 f i SigCap.obj
 0001:00015be0       ?GetProperty@?$CComPtr@UIDispatch@@@ATL@@SAJPEAUIDispatch@@JPEAUtagVARIANT@@@Z 0000000180016be0 f i SigCap.obj
 0001:00015db0       ?GetPropertyMap@COPOSSigCap@@SAPEBUATL_PROPMAP_ENTRY@ATL@@XZ 0000000180016db0 f i SigCap.obj
 0001:00015dc0       ?GetRect@?$IViewObjectExImpl@VCOPOSSigCap@@@ATL@@UEAAJKPEAU_RECTL@@@Z 0000000180016dc0 f i SigCap.obj
 0001:00015e40       ?GetSize@?$CSimpleMap@PEA_WPEA_WVCExpansionVectorEqualHelper@ATL@@@ATL@@QEBAHXZ 0000000180016e40 f i SigCap.obj
 0001:00015e50       ?GetSize@CComDynamicUnkArray@ATL@@QEBAHXZ 0000000180016e50 f i SigCap.obj
 0001:00015e60       ?GetSizeMax@?$IPersistStreamInitImpl@VCOPOSSigCap@@@ATL@@UEAAJPEAT_ULARGE_INTEGER@@@Z 0000000180016e60 f i SigCap.obj
 0001:00016600       ?GetSizeMax@CComVariant@ATL@@QEBAJPEAT_ULARGE_INTEGER@@@Z 0000000180017600 f i SigCap.obj
 0001:00016a50       ?GetStreamSize@CComBSTR@ATL@@SAKPEA_W@Z 0000000180017a50 f i SigCap.obj
 0001:00016a90       ?GetTI@CComTypeInfoHolder@ATL@@QEAAJK@Z 0000000180017a90 f i SigCap.obj
 0001:00017360       ?GetTI@CComTypeInfoHolder@ATL@@QEAAJKPEAPEAUITypeInfo@@@Z 0000000180018360 f i SigCap.obj
 0001:00017440       ?GetTypeInfo@?$IDispatchImpl@UIOPOSSigCap@@$1?IID_IOPOSSigCap@@3U_GUID@@B$1?LIBID_OposSigCap_CCO@@3U3@B$00$0A@VCComTypeInfoHolder@ATL@@@ATL@@UEAAJIKPEAPEAUITypeInfo@@@Z 0000000180018440 f i SigCap.obj
 0001:00017480       ?GetTypeInfo@CComTypeInfoHolder@ATL@@QEAAJIKPEAPEAUITypeInfo@@@Z 0000000180018480 f i SigCap.obj
 0001:000174c0       ?GetTypeInfoCount@?$IDispatchImpl@UIOPOSSigCap@@$1?IID_IOPOSSigCap@@3U_GUID@@B$1?LIBID_OposSigCap_CCO@@3U3@B$00$0A@VCComTypeInfoHolder@ATL@@@ATL@@UEAAJPEAI@Z 00000001800184c0 f i SigCap.obj
 0001:000174f0       ?GetUnknown@CComDynamicUnkArray@ATL@@QEAAPEAUIUnknown@@K@Z 00000001800184f0 f i SigCap.obj
 0001:00017580       ?GetUnknown@COPOSSigCap@@QEAAPEAUIUnknown@@XZ 0000000180018580 f i SigCap.obj
 0001:000175a0       ?GetUserClassID@?$IOleObjectImpl@VCOPOSSigCap@@@ATL@@UEAAJPEAU_GUID@@@Z 00000001800185a0 f i SigCap.obj
 0001:00017660       ?GetUserType@?$IOleObjectImpl@VCOPOSSigCap@@@ATL@@UEAAJKPEAPEA_W@Z 0000000180018660 f i SigCap.obj
 0001:000176e0       ?GetValueAt@?$CSimpleMap@PEA_WPEA_WVCExpansionVectorEqualHelper@ATL@@@ATL@@QEBAAEAPEA_WH@Z 00000001800186e0 f i SigCap.obj
 0001:00017780       ?GetViewStatus@?$IViewObjectExImpl@VCOPOSSigCap@@@ATL@@UEAAJPEAK@Z 0000000180018780 f i SigCap.obj
 0001:00017870       ?GetWNDPROC@CWndProcThunk@ATL@@QEAAP6A_JPEAUHWND__@@I_K_J@ZXZ 0000000180018870 f i SigCap.obj
 0001:000178a0       ?GetWindow@?$IOleInPlaceActiveObjectImpl@VCOPOSSigCap@@@ATL@@UEAAJPEAPEAUHWND__@@@Z 00000001800188a0 f i SigCap.obj
 0001:00017990       ?GetWindow@?$IOleInPlaceObjectWindowlessImpl@VCOPOSSigCap@@@ATL@@UEAAJPEAPEAUHWND__@@@Z 0000000180018990 f i SigCap.obj
 0001:00017a80       ?GetWindowProc@?$CWindowImplBaseT@VCWindow@ATL@@V?$CWinTraits@$0FGAAAAAA@$0A@@2@@ATL@@UEAAP6A_JPEAUHWND__@@I_K_J@ZXZ 0000000180018a80 f i SigCap.obj
 0001:00017a90       ?GetWndCaption@?$CWindowImpl@VCOPOSSigCap@@VCWindow@ATL@@V?$CWinTraits@$0FGAAAAAA@$0A@@3@@ATL@@SAPEB_WXZ 0000000180018a90 f i SigCap.obj
 0001:00017aa0       ?GetWndClassInfo@?$CWindowImpl@VCOPOSSigCap@@VCWindow@ATL@@V?$CWinTraits@$0FGAAAAAA@$0A@@3@@ATL@@SAAEAU_ATL_WNDCLASSINFOW@2@XZ 0000000180018aa0 f i SigCap.obj
 0001:00017ab0       ?GetWndClassName@CWindow@ATL@@SAPEB_WXZ 0000000180018ab0 f i SigCap.obj
 0001:00017ac0       ?GetWndExStyle@?$CWinTraits@$0FGAAAAAA@$0A@@ATL@@SAKK@Z 0000000180018ac0 f i SigCap.obj
 0001:00017af0       ?GetWndExStyle@?$CWindowImplBaseT@VCWindow@ATL@@V?$CWinTraits@$0FGAAAAAA@$0A@@2@@ATL@@SAKK@Z 0000000180018af0 f i SigCap.obj
 0001:00017b10       ?GetWndStyle@?$CWinTraits@$0FGAAAAAA@$0A@@ATL@@SAKK@Z 0000000180018b10 f i SigCap.obj
 0001:00017b40       ?GetWndStyle@?$CWindowImplBaseT@VCWindow@ATL@@V?$CWinTraits@$0FGAAAAAA@$0A@@2@@ATL@@SAKK@Z 0000000180018b40 f i SigCap.obj
 0001:00017b60       ?GetZoomInfo@CComControlBase@ATL@@QEAAXAEAUATL_DRAWINFO@@@Z 0000000180018b60 f i SigCap.obj
 0001:00017d10       ?HKeyFromString@CRegParser@ATL@@KAPEAUHKEY__@@PEA_W@Z 0000000180018d10 f i SigCap.obj
 0001:00017d80       ?HandsOffStorage@?$IPersistStorageImpl@VCOPOSSigCap@@@ATL@@UEAAJXZ 0000000180018d80 f i SigCap.obj
 0001:00017de0       ?HasSubKeys@CRegParser@ATL@@IEAAHPEAUHKEY__@@@Z 0000000180018de0 f i SigCap.obj
 0001:00017f50       ?IDataObject_GetData@CComControlBase@ATL@@QEAAJPEAUtagFORMATETC@@PEAUtagSTGMEDIUM@@@Z 0000000180018f50 f i SigCap.obj
 0001:00018400       ?IOleInPlaceObject_InPlaceDeactivate@CComControlBase@ATL@@QEAAJXZ 0000000180019400 f i SigCap.obj
 0001:00018670       ?IOleInPlaceObject_SetObjectRects@CComControlBase@ATL@@QEAAJPEBUtagRECT@@0@Z 0000000180019670 f i SigCap.obj
 0001:00018860       ?IOleInPlaceObject_UIDeactivate@CComControlBase@ATL@@QEAAJXZ 0000000180019860 f i SigCap.obj
 0001:00018ad0       ?IOleObject_Advise@CComControlBase@ATL@@QEAAJPEAUIAdviseSink@@PEAK@Z 0000000180019ad0 f i SigCap.obj
 0001:00018b70       ?IOleObject_Close@CComControlBase@ATL@@QEAAJK@Z 0000000180019b70 f i SigCap.obj
 0001:00018ee0       ?IOleObject_GetClientSite@CComControlBase@ATL@@QEAAJPEAPEAUIOleClientSite@@@Z 0000000180019ee0 f i SigCap.obj
 0001:00018fa0       ?IOleObject_SetClientSite@CComControlBase@ATL@@QEAAJPEAUIOleClientSite@@@Z 0000000180019fa0 f i SigCap.obj
 0001:000190a0       ?IOleObject_SetExtent@CComControlBase@ATL@@QEAAJKPEAUtagSIZE@@@Z 000000018001a0a0 f i SigCap.obj
 0001:000191f0       ?IPSI_GetIPersistStreamInit@?$IPersistStorageImpl@VCOPOSSigCap@@@ATL@@AEAAPEAUIPersistStreamInit@@XZ 000000018001a1f0 f i SigCap.obj
 0001:000192b0       ?IPersistStreamInit_Load@?$IPersistStreamInitImpl@VCOPOSSigCap@@@ATL@@QEAAJPEAUIStream@@PEBUATL_PROPMAP_ENTRY@2@@Z 000000018001a2b0 f i SigCap.obj
 0001:00019340       ?IPersistStreamInit_Save@?$IPersistStreamInitImpl@VCOPOSSigCap@@@ATL@@QEAAJPEAUIStream@@HPEBUATL_PROPMAP_ENTRY@2@@Z 000000018001a340 f i SigCap.obj
 0001:000193e0       ?IQuickActivate_QuickActivate@CComControlBase@ATL@@QEAAJPEAUtagQACONTAINER@@PEAUtagQACONTROL@@@Z 000000018001a3e0 f i SigCap.obj
 0001:00019c20       ?IViewObject_Draw@CComControlBase@ATL@@QEAAJKJPEAXPEAUtagDVTARGETDEVICE@@PEAUHDC__@@2PEBU_RECTL@@3@Z 000000018001ac20 f i SigCap.obj
 0001:0001a070       ?InPlaceActivate@CComControlBase@ATL@@QEAAJJPEBUtagRECT@@@Z 000000018001b070 f i SigCap.obj
 0001:0001ac10       ?InPlaceDeactivate@?$IOleInPlaceObjectWindowlessImpl@VCOPOSSigCap@@@ATL@@UEAAJXZ 000000018001bc10 f i SigCap.obj
 0001:0001aca0       ?Increment@CComMultiThreadModel@ATL@@SAKPEAJ@Z 000000018001bca0 f i SigCap.obj
 0001:0001acc0       ?Increment@CComSingleThreadModel@ATL@@SAKPEAJ@Z 000000018001bcc0 f i SigCap.obj
 0001:0001ace0       ?Init@?$CComEnumImpl@UIEnumConnectionPoints@@$1?_GUID_b196b285_bab4_101a_b69c_00aa00341d07@@3U__s_GUID@@BPEAUIConnectionPoint@@V?$_CopyInterface@UIConnectionPoint@@@ATL@@@ATL@@QEAAJPEAPEAUIConnectionPoint@@0PEAUIUnknown@@W4CComEnumFlags@2@@Z 000000018001bce0 f i SigCap.obj
 0001:0001afc0       ?Init@?$CComEnumImpl@UIEnumConnections@@$1?_GUID_b196b287_bab4_101a_b69c_00aa00341d07@@3U__s_GUID@@BUtagCONNECTDATA@@V?$_Copy@UtagCONNECTDATA@@@ATL@@@ATL@@QEAAJPEAUtagCONNECTDATA@@0PEAUIUnknown@@W4CComEnumFlags@2@@Z 000000018001bfc0 f i SigCap.obj
 0001:0001b2a0       ?Init@CComFakeCriticalSection@ATL@@QEAAJXZ 000000018001c2a0 f i SigCap.obj
 0001:0001b2b0       ?Init@CComModule@ATL@@QEAAJPEAU_ATL_OBJMAP_ENTRY30@2@PEAUHINSTANCE__@@PEBU_GUID@@@Z 000000018001c2b0 f i SigCap.obj
 0001:0001b390       ?Init@CComSafeDeleteCriticalSection@ATL@@QEAAJXZ 000000018001c390 f i SigCap.obj
 0001:0001b410       ?Init@CDynamicStdCallThunk2@ATL@@QEAAH_KPEAX@Z 000000018001c410 f i SigCap.obj
 0001:0001b470       ?Init@CWndProcThunk@ATL@@QEAAHP6A_JPEAUHWND__@@I_K_J@ZPEAX@Z 000000018001c470 f i SigCap.obj
 0001:0001b4b0       ?InitFromData@?$IOleObjectImpl@VCOPOSSigCap@@@ATL@@UEAAJPEAUIDataObject@@HK@Z 000000018001c4b0 f i SigCap.obj
 0001:0001b530       ?InitLibId@?$CAtlModuleT@VCComModule@ATL@@@ATL@@SAXXZ 000000018001c530 f i SigCap.obj
 0001:0001b540       ?InitNew@?$IPersistStorageImpl@VCOPOSSigCap@@@ATL@@UEAAJPEAUIStorage@@@Z 000000018001c540 f i SigCap.obj
 0001:0001b630       ?InitNew@?$IPersistStreamInitImpl@VCOPOSSigCap@@@ATL@@UEAAJXZ 000000018001c630 f i SigCap.obj
 0001:0001b6d0       ?InlineIsEqualUnknown@ATL@@YAHAEBU_GUID@@@Z 000000018001c6d0 f i SigCap.obj
 0001:0001b750       ?InternalAddRef@?$CComObjectRootEx@VCComMultiThreadModel@ATL@@@ATL@@QEAAKXZ 000000018001c750 f i SigCap.obj
 0001:0001b7c0       ?InternalAddRef@?$CComObjectRootEx@VCComSingleThreadModel@ATL@@@ATL@@QEAAKXZ 000000018001c7c0 f i SigCap.obj
 0001:0001b830       ?InternalFinalConstructAddRef@CComObjectRootBase@ATL@@QEAAXXZ 000000018001c830 f i SigCap.obj
 0001:0001b840       ?InternalFinalConstructAddRef@COPOSSigCap@@QEAAXXZ 000000018001c840 f i SigCap.obj
 0001:0001b870       ?InternalFinalConstructRelease@CComObjectRootBase@ATL@@QEAAXXZ 000000018001c870 f i SigCap.obj
 0001:0001b8d0       ?InternalFinalConstructRelease@COPOSSigCap@@QEAAXXZ 000000018001c8d0 f i SigCap.obj
 0001:0001b900       ?InternalGetSite@CComControlBase@ATL@@QEAAJAEBU_GUID@@PEAPEAX@Z 000000018001c900 f i SigCap.obj
 0001:0001b9d0       ?InternalQueryInterface@CComObjectRootBase@ATL@@SAJPEAXPEBU_ATL_INTMAP_ENTRY@2@AEBU_GUID@@PEAPEAX@Z 000000018001c9d0 f i SigCap.obj
 0001:0001bae0       ?InternalRelease@?$CComObjectRootEx@VCComMultiThreadModel@ATL@@@ATL@@QEAAKXZ 000000018001cae0 f i SigCap.obj
 0001:0001bb50       ?InternalRelease@?$CComObjectRootEx@VCComSingleThreadModel@ATL@@@ATL@@QEAAKXZ 000000018001cb50 f i SigCap.obj
 0001:0001bbc0       ?InternalSetAtIndex@?$CSimpleArray@GV?$CSimpleArrayEqualHelper@G@ATL@@@ATL@@QEAAXHAEBG@Z 000000018001cbc0 f i SigCap.obj
 0001:0001bc30       ?InternalSetAtIndex@?$CSimpleMap@PEA_WPEA_WVCExpansionVectorEqualHelper@ATL@@@ATL@@QEAAXHAEBQEA_W0@Z 000000018001cc30 f i SigCap.obj
 0001:0001bcf0       ?Invoke@?$IDispatchImpl@UIOPOSSigCap@@$1?IID_IOPOSSigCap@@3U_GUID@@B$1?LIBID_OposSigCap_CCO@@3U3@B$00$0A@VCComTypeInfoHolder@ATL@@@ATL@@UEAAJJAEBU_GUID@@KGPEAUtagDISPPARAMS@@PEAUtagVARIANT@@PEAUtagEXCEPINFO@@PEAI@Z 000000018001ccf0 f i SigCap.obj
 0001:0001bd80       ?Invoke@CComTypeInfoHolder@ATL@@QEAAJPEAUIDispatch@@JAEBU_GUID@@KGPEAUtagDISPPARAMS@@PEAUtagVARIANT@@PEAUtagEXCEPINFO@@PEAI@Z 000000018001cd80 f i SigCap.obj
 0001:0001be30       ?IsDirty@?$IPersistStorageImpl@VCOPOSSigCap@@@ATL@@UEAAJXZ 000000018001ce30 f i SigCap.obj
 0001:0001bf20       ?IsDirty@?$IPersistStreamInitImpl@VCOPOSSigCap@@@ATL@@UEAAJXZ 000000018001cf20 f i SigCap.obj
 0001:0001bfd0       ?IsEqualKey@CExpansionVectorEqualHelper@ATL@@SA_NQEA_W0@Z 000000018001cfd0 f i SigCap.obj
 0001:0001c000       ?IsEqualObject@?$CComPtrBase@UIOleClientSite@@@ATL@@QEAA_NPEAUIUnknown@@@Z 000000018001d000 f i SigCap.obj
 0001:0001c150       ?IsEqualObject@?$CComPtrBase@UITypeInfo@@@ATL@@QEAA_NPEAUIUnknown@@@Z 000000018001d150 f i SigCap.obj
 0001:0001c2a0       ?IsSpace@CRegParser@ATL@@IEAAH_W@Z 000000018001d2a0 f i SigCap.obj
 0001:0001c2e0       ?IsUpToDate@?$IOleObjectImpl@VCOPOSSigCap@@@ATL@@UEAAJXZ 000000018001d2e0 f i SigCap.obj
 0001:0001c340       ?Length@CComBSTR@ATL@@QEBAIXZ 000000018001d340 f i SigCap.obj
 0001:0001c360       ?Load@?$IPersistStorageImpl@VCOPOSSigCap@@@ATL@@UEAAJPEAUIStorage@@@Z 000000018001d360 f i SigCap.obj
 0001:0001c510       ?Load@?$IPersistStreamInitImpl@VCOPOSSigCap@@@ATL@@UEAAJPEAUIStream@@@Z 000000018001d510 f i SigCap.obj
 0001:0001c5c0       ?LoadCursorW@AtlModuleRegisterWndClassInfoParamW@ATL@@SAPEAUHICON__@@PEAUHINSTANCE__@@PEB_W@Z 000000018001d5c0 f i SigCap.obj
 0001:0001c5f0       ?LoadNameCache@CComTypeInfoHolder@ATL@@QEAAJPEAUITypeInfo@@@Z 000000018001d5f0 f i SigCap.obj
 0001:0001c930       ?Lock@?$CComCritSecLock@VCComCriticalSection@ATL@@@ATL@@QEAAJXZ 000000018001d930 f i SigCap.obj
 0001:0001ca00       ?Lock@?$CComObjectRootEx@VCComSingleThreadModel@ATL@@@ATL@@QEAAXXZ 000000018001da00 f i SigCap.obj
 0001:0001ca10       ?Lock@CAtlModule@ATL@@UEAAJXZ 000000018001da10 f i SigCap.obj
 0001:0001ca40       ?Lock@CComCriticalSection@ATL@@QEAAJXZ 000000018001da40 f i SigCap.obj
 0001:0001ca60       ?Lock@CComFakeCriticalSection@ATL@@QEAAJXZ 000000018001da60 f i SigCap.obj
 0001:0001ca70       ?LockServer@CComClassFactory@ATL@@UEAAJH@Z 000000018001da70 f i SigCap.obj
 0001:0001cac0       ?Lookup@?$CSimpleMap@PEA_WPEA_WVCExpansionVectorEqualHelper@ATL@@@ATL@@QEBAPEA_WAEBQEA_W@Z 000000018001dac0 f i SigCap.obj
 0001:0001cb10       ?Next@?$CComEnumImpl@UIEnumConnectionPoints@@$1?_GUID_b196b285_bab4_101a_b69c_00aa00341d07@@3U__s_GUID@@BPEAUIConnectionPoint@@V?$_CopyInterface@UIConnectionPoint@@@ATL@@@ATL@@UEAAJKPEAPEAUIConnectionPoint@@PEAK@Z 000000018001db10 f i SigCap.obj
 0001:0001ccc0       ?Next@?$CComEnumImpl@UIEnumConnections@@$1?_GUID_b196b287_bab4_101a_b69c_00aa00341d07@@3U__s_GUID@@BUtagCONNECTDATA@@V?$_Copy@UtagCONNECTDATA@@@ATL@@@ATL@@UEAAJKPEAUtagCONNECTDATA@@PEAK@Z 000000018001dcc0 f i SigCap.obj
 0001:0001ce70       ?NextToken@CRegParser@ATL@@IEAAJPEA_W@Z 000000018001de70 f i SigCap.obj
 0001:0001d1f0       ?OLE2CT_EX@@YAPEB_WPEB_WI@Z 000000018001e1f0 f i SigCap.obj
 0001:0001d210       ?OLE2CT_EX_DEF@@YAPEB_WPEB_W@Z 000000018001e210 f i SigCap.obj
 0001:0001d220       ?OLE2T_EX@@YAPEA_WPEA_WI@Z 000000018001e220 f i SigCap.obj
 0001:0001d240       ?OnAmbientPropertyChange@?$IOleControlImpl@VCOPOSSigCap@@@ATL@@UEAAJJ@Z 000000018001e240 f i SigCap.obj
 0001:0001d2f0       ?OnDocWindowActivate@?$IOleInPlaceActiveObjectImpl@VCOPOSSigCap@@@ATL@@UEAAJH@Z 000000018001e2f0 f i SigCap.obj
 0001:0001d390       ?OnDrawAdvanced@CComControlBase@ATL@@UEAAJAEAUATL_DRAWINFO@@@Z 000000018001e390 f i SigCap.obj
 0001:0001d5e0       ?OnFinalMessage@?$CWindowImplBaseT@VCWindow@ATL@@V?$CWinTraits@$0FGAAAAAA@$0A@@2@@ATL@@UEAAXPEAUHWND__@@@Z 000000018001e5e0 f i SigCap.obj
 0001:0001d5f0       ?OnFrameWindowActivate@?$IOleInPlaceActiveObjectImpl@VCOPOSSigCap@@@ATL@@UEAAJH@Z 000000018001e5f0 f i SigCap.obj
 0001:0001d650       ?OnKillFocus@CComControlBase@ATL@@QEAA_JI_K_JAEAH@Z 000000018001e650 f i SigCap.obj
 0001:0001d750       ?OnMnemonic@?$IOleControlImpl@VCOPOSSigCap@@@ATL@@UEAAJPEAUtagMSG@@@Z 000000018001e750 f i SigCap.obj
 0001:0001d7c0       ?OnMouseActivate@CComControlBase@ATL@@QEAA_JI_K_JAEAH@Z 000000018001e7c0 f i SigCap.obj
 0001:0001d960       ?OnPaint@CComControlBase@ATL@@QEAA_JI_K_JAEAH@Z 000000018001e960 f i SigCap.obj
 0001:0001daf0       ?OnPostVerbDiscardUndo@?$IOleObjectImpl@VCOPOSSigCap@@@ATL@@QEAAJXZ 000000018001eaf0 f i SigCap.obj
 0001:0001db00       ?OnPostVerbHide@?$IOleObjectImpl@VCOPOSSigCap@@@ATL@@QEAAJXZ 000000018001eb00 f i SigCap.obj
 0001:0001db10       ?OnPostVerbInPlaceActivate@?$IOleObjectImpl@VCOPOSSigCap@@@ATL@@QEAAJXZ 000000018001eb10 f i SigCap.obj
 0001:0001db20       ?OnPostVerbOpen@?$IOleObjectImpl@VCOPOSSigCap@@@ATL@@QEAAJXZ 000000018001eb20 f i SigCap.obj
 0001:0001db30       ?OnPostVerbShow@?$IOleObjectImpl@VCOPOSSigCap@@@ATL@@QEAAJXZ 000000018001eb30 f i SigCap.obj
 0001:0001db40       ?OnPostVerbUIActivate@?$IOleObjectImpl@VCOPOSSigCap@@@ATL@@QEAAJXZ 000000018001eb40 f i SigCap.obj
 0001:0001db50       ?OnPreVerbDiscardUndo@?$IOleObjectImpl@VCOPOSSigCap@@@ATL@@QEAAJXZ 000000018001eb50 f i SigCap.obj
 0001:0001db60       ?OnPreVerbHide@?$IOleObjectImpl@VCOPOSSigCap@@@ATL@@QEAAJXZ 000000018001eb60 f i SigCap.obj
 0001:0001db70       ?OnPreVerbInPlaceActivate@?$IOleObjectImpl@VCOPOSSigCap@@@ATL@@QEAAJXZ 000000018001eb70 f i SigCap.obj
 0001:0001db80       ?OnPreVerbOpen@?$IOleObjectImpl@VCOPOSSigCap@@@ATL@@QEAAJXZ 000000018001eb80 f i SigCap.obj
 0001:0001db90       ?OnPreVerbShow@?$IOleObjectImpl@VCOPOSSigCap@@@ATL@@QEAAJXZ 000000018001eb90 f i SigCap.obj
 0001:0001dba0       ?OnPreVerbUIActivate@?$IOleObjectImpl@VCOPOSSigCap@@@ATL@@QEAAJXZ 000000018001eba0 f i SigCap.obj
 0001:0001dbb0       ?OnSetFocus@CComControlBase@ATL@@QEAA_JI_K_JAEAH@Z 000000018001ebb0 f i SigCap.obj
 0001:0001ddb0       ?OnWindowMessage@?$IOleInPlaceObjectWindowlessImpl@VCOPOSSigCap@@@ATL@@UEAAJI_K_JPEA_J@Z 000000018001edb0 f i SigCap.obj
 0001:0001dfd0       ?Open@CRegKey@ATL@@QEAAJPEAUHKEY__@@PEB_WK@Z 000000018001efd0 f i SigCap.obj
 0001:0001e150       ?OuterAddRef@CComObjectRootBase@ATL@@QEAAKXZ 000000018001f150 f i SigCap.obj
 0001:0001e180       ?OuterQueryInterface@CComObjectRootBase@ATL@@QEAAJAEBU_GUID@@PEAPEAX@Z 000000018001f180 f i SigCap.obj
 0001:0001e1c0       ?OuterRelease@CComObjectRootBase@ATL@@QEAAKXZ 000000018001f1c0 f i SigCap.obj
 0001:0001e1f0       ?PreProcessBuffer@CRegParser@ATL@@QEAAJPEA_WPEAPEA_W@Z 000000018001f1f0 f i SigCap.obj
 0001:0001e8d0       ?PreTranslateAccelerator@CComControlBase@ATL@@QEAAHPEAUtagMSG@@AEAJ@Z 000000018001f8d0 f i SigCap.obj
 0001:0001e8f0       ?ProcessWindowMessage@?$CComControl@VCOPOSSigCap@@V?$CWindowImpl@VCOPOSSigCap@@VCWindow@ATL@@V?$CWinTraits@$0FGAAAAAA@$0A@@3@@ATL@@@ATL@@UEAAHPEAUHWND__@@I_K_JAEA_JK@Z 000000018001f8f0 f i SigCap.obj
 0001:0001eb70       ?ProcessWindowMessage@COPOSSigCap@@UEAAHPEAUHWND__@@I_K_JAEA_JK@Z 000000018001fb70 f i SigCap.obj
 0001:0001ecd0       ?PutProperty@?$CComPtr@UIDispatch@@@ATL@@QEAAJJPEAUtagVARIANT@@@Z 000000018001fcd0 f i SigCap.obj
 0001:0001ed00       ?PutProperty@?$CComPtr@UIDispatch@@@ATL@@SAJPEAUIDispatch@@JPEAUtagVARIANT@@@Z 000000018001fd00 f i SigCap.obj
 0001:0001efb0       ?QueryGetData@?$IDataObjectImpl@VCOPOSSigCap@@@ATL@@UEAAJPEAUtagFORMATETC@@@Z 000000018001ffb0 f i SigCap.obj
 0001:0001f020       ?QueryHitPoint@?$IViewObjectExImpl@VCOPOSSigCap@@@ATL@@UEAAJKPEBUtagRECT@@UtagPOINT@@JPEAK@Z 0000000180020020 f i SigCap.obj
 0001:0001f180       ?QueryHitRect@?$IViewObjectExImpl@VCOPOSSigCap@@@ATL@@UEAAJKPEBUtagRECT@@0JPEAK@Z 0000000180020180 f i SigCap.obj
 0001:0001f350       ?QueryInterface@?$CComAggObject@VCOPOSSigCap@@@ATL@@UEAAJAEBU_GUID@@PEAPEAX@Z 0000000180020350 f i SigCap.obj
 0001:0001f420       ?QueryInterface@?$CComContainedObject@VCOPOSSigCap@@@ATL@@UEAAJAEBU_GUID@@PEAPEAX@Z 0000000180020420 f i SigCap.obj
 0001:0001f458       ?QueryInterface@?$CComContainedObject@VCOPOSSigCap@@@ATL@@WBAA@EAAJAEBU_GUID@@PEAPEAX@Z 0000000180020458 f i SigCap.obj
 0001:0001f464       ?QueryInterface@?$CComContainedObject@VCOPOSSigCap@@@ATL@@WBAI@EAAJAEBU_GUID@@PEAPEAX@Z 0000000180020464 f i SigCap.obj
 0001:0001f470       ?QueryInterface@?$CComContainedObject@VCOPOSSigCap@@@ATL@@WBBA@EAAJAEBU_GUID@@PEAPEAX@Z 0000000180020470 f i SigCap.obj
 0001:0001f47c       ?QueryInterface@?$CComContainedObject@VCOPOSSigCap@@@ATL@@WBBI@EAAJAEBU_GUID@@PEAPEAX@Z 000000018002047c f i SigCap.obj
 0001:0001f488       ?QueryInterface@?$CComContainedObject@VCOPOSSigCap@@@ATL@@WLI@EAAJAEBU_GUID@@PEAPEAX@Z 0000000180020488 f i SigCap.obj
 0001:0001f494       ?QueryInterface@?$CComContainedObject@VCOPOSSigCap@@@ATL@@WMA@EAAJAEBU_GUID@@PEAPEAX@Z 0000000180020494 f i SigCap.obj
 0001:0001f4a0       ?QueryInterface@?$CComContainedObject@VCOPOSSigCap@@@ATL@@WMI@EAAJAEBU_GUID@@PEAPEAX@Z 00000001800204a0 f i SigCap.obj
 0001:0001f4ac       ?QueryInterface@?$CComContainedObject@VCOPOSSigCap@@@ATL@@WNA@EAAJAEBU_GUID@@PEAPEAX@Z 00000001800204ac f i SigCap.obj
 0001:0001f4b8       ?QueryInterface@?$CComContainedObject@VCOPOSSigCap@@@ATL@@WNI@EAAJAEBU_GUID@@PEAPEAX@Z 00000001800204b8 f i SigCap.obj
 0001:0001f4c4       ?QueryInterface@?$CComContainedObject@VCOPOSSigCap@@@ATL@@WOA@EAAJAEBU_GUID@@PEAPEAX@Z 00000001800204c4 f i SigCap.obj
 0001:0001f4d0       ?QueryInterface@?$CComContainedObject@VCOPOSSigCap@@@ATL@@WOI@EAAJAEBU_GUID@@PEAPEAX@Z 00000001800204d0 f i SigCap.obj
 0001:0001f4dc       ?QueryInterface@?$CComContainedObject@VCOPOSSigCap@@@ATL@@WPA@EAAJAEBU_GUID@@PEAPEAX@Z 00000001800204dc f i SigCap.obj
 0001:0001f4e8       ?QueryInterface@?$CComContainedObject@VCOPOSSigCap@@@ATL@@WPI@EAAJAEBU_GUID@@PEAPEAX@Z 00000001800204e8 f i SigCap.obj
 0001:0001f500       ?QueryInterface@?$CComObject@V?$CComEnum@UIEnumConnectionPoints@@$1?_GUID_b196b285_bab4_101a_b69c_00aa00341d07@@3U__s_GUID@@BPEAUIConnectionPoint@@V?$_CopyInterface@UIConnectionPoint@@@ATL@@VCComSingleThreadModel@6@@ATL@@@ATL@@UEAAJAEBU_GUID@@PEAPEAX@Z 0000000180020500 f i SigCap.obj
 0001:0001f530       ?QueryInterface@?$CComObject@V?$CComEnum@UIEnumConnections@@$1?_GUID_b196b287_bab4_101a_b69c_00aa00341d07@@3U__s_GUID@@BUtagCONNECTDATA@@V?$_Copy@UtagCONNECTDATA@@@ATL@@VCComSingleThreadModel@6@@ATL@@@ATL@@UEAAJAEBU_GUID@@PEAPEAX@Z 0000000180020530 f i SigCap.obj
 0001:0001f560       ?QueryInterface@?$CComObject@VCOPOSSigCap@@@ATL@@UEAAJAEBU_GUID@@PEAPEAX@Z 0000000180020560 f i SigCap.obj
 0001:0001f590       ?QueryInterface@?$CComObject@VCOPOSSigCap@@@ATL@@WBAA@EAAJAEBU_GUID@@PEAPEAX@Z 0000000180020590 f i SigCap.obj
 0001:0001f59c       ?QueryInterface@?$CComObject@VCOPOSSigCap@@@ATL@@WBAI@EAAJAEBU_GUID@@PEAPEAX@Z 000000018002059c f i SigCap.obj
 0001:0001f5a8       ?QueryInterface@?$CComObject@VCOPOSSigCap@@@ATL@@WBBA@EAAJAEBU_GUID@@PEAPEAX@Z 00000001800205a8 f i SigCap.obj
 0001:0001f5b4       ?QueryInterface@?$CComObject@VCOPOSSigCap@@@ATL@@WBBI@EAAJAEBU_GUID@@PEAPEAX@Z 00000001800205b4 f i SigCap.obj
 0001:0001f5c0       ?QueryInterface@?$CComObject@VCOPOSSigCap@@@ATL@@WLI@EAAJAEBU_GUID@@PEAPEAX@Z 00000001800205c0 f i SigCap.obj
 0001:0001f5cc       ?QueryInterface@?$CComObject@VCOPOSSigCap@@@ATL@@WMA@EAAJAEBU_GUID@@PEAPEAX@Z 00000001800205cc f i SigCap.obj
 0001:0001f5d8       ?QueryInterface@?$CComObject@VCOPOSSigCap@@@ATL@@WMI@EAAJAEBU_GUID@@PEAPEAX@Z 00000001800205d8 f i SigCap.obj
 0001:0001f5e4       ?QueryInterface@?$CComObject@VCOPOSSigCap@@@ATL@@WNA@EAAJAEBU_GUID@@PEAPEAX@Z 00000001800205e4 f i SigCap.obj
 0001:0001f5f0       ?QueryInterface@?$CComObject@VCOPOSSigCap@@@ATL@@WNI@EAAJAEBU_GUID@@PEAPEAX@Z 00000001800205f0 f i SigCap.obj
 0001:0001f5fc       ?QueryInterface@?$CComObject@VCOPOSSigCap@@@ATL@@WOA@EAAJAEBU_GUID@@PEAPEAX@Z 00000001800205fc f i SigCap.obj
 0001:0001f608       ?QueryInterface@?$CComObject@VCOPOSSigCap@@@ATL@@WOI@EAAJAEBU_GUID@@PEAPEAX@Z 0000000180020608 f i SigCap.obj
 0001:0001f614       ?QueryInterface@?$CComObject@VCOPOSSigCap@@@ATL@@WPA@EAAJAEBU_GUID@@PEAPEAX@Z 0000000180020614 f i SigCap.obj
 0001:0001f620       ?QueryInterface@?$CComObject@VCOPOSSigCap@@@ATL@@WPI@EAAJAEBU_GUID@@PEAPEAX@Z 0000000180020620 f i SigCap.obj
 0001:0001f630       ?QueryInterface@?$CComObjectCached@VCComClassFactory@ATL@@@ATL@@UEAAJAEBU_GUID@@PEAPEAX@Z 0000000180020630 f i SigCap.obj
 0001:0001f660       ?QueryInterface@CRegObject@ATL@@UEAAJAEBU_GUID@@PEAPEAX@Z 0000000180020660 f i SigCap.obj
 0001:0001f6d0       ?QuickActivate@?$IQuickActivateImpl@VCOPOSSigCap@@@ATL@@UEAAJPEAUtagQACONTAINER@@PEAUtagQACONTROL@@@Z 00000001800206d0 f i SigCap.obj
 0001:0001f780       ?ReactivateAndUndo@?$IOleInPlaceObjectWindowlessImpl@VCOPOSSigCap@@@ATL@@UEAAJXZ 0000000180020780 f i SigCap.obj
 0001:0001f7f0       ?ReadFromStream@CComBSTR@ATL@@QEAAJPEAUIStream@@@Z 00000001800207f0 f i SigCap.obj
 0001:0001fcd0       ?ReadFromStream@CComVariant@ATL@@QEAAJPEAUIStream@@GTClassesAllowedInStream@2@K@Z 0000000180020cd0 f i SigCap.obj
 0001:00020110       ?RecurseDeleteKey@CRegKey@ATL@@QEAAJPEB_W@Z 0000000180021110 f i SigCap.obj
 0001:00020330       ?RegCreateKeyExW@CAtlTransactionManager@ATL@@QEAAJPEAUHKEY__@@PEB_WKPEA_WKKQEAU_SECURITY_ATTRIBUTES@@PEAPEAU3@PEAK@Z 0000000180021330 f i SigCap.obj
 0001:000204e0       ?RegDeleteKeyW@CAtlTransactionManager@ATL@@QEAAJPEAUHKEY__@@PEB_W@Z 00000001800214e0 f i SigCap.obj
 0001:000205e0       ?RegOpenKeyExW@CAtlTransactionManager@ATL@@QEAAJPEAUHKEY__@@PEB_WKKPEAPEAU3@@Z 00000001800215e0 f i SigCap.obj
 0001:00020720       ?Register@_ATL_WNDCLASSINFOW@ATL@@QEAAGPEAP6A_JPEAUHWND__@@I_K_J@Z@Z 0000000180021720 f i SigCap.obj
 0001:00020760       ?RegisterBuffer@CRegParser@ATL@@QEAAJPEA_WH@Z 0000000180021760 f i SigCap.obj
 0001:00020b50       ?RegisterClassExW@AtlModuleRegisterWndClassInfoParamW@ATL@@SAGPEAU_ATL_WIN_MODULE70@2@PEBUtagWNDCLASSEXW@@@Z 0000000180021b50 f i SigCap.obj
 0001:00020b80       ?RegisterFromResource@CRegObject@ATL@@IEAAJPEB_W00H@Z 0000000180021b80 f i SigCap.obj
 0001:00020fe0       ?RegisterServer@?$CAtlModuleT@VCComModule@ATL@@@ATL@@QEAAJHPEBU_GUID@@@Z 0000000180021fe0 f i SigCap.obj
 0001:00021040       ?RegisterServer@CAtlComModule@ATL@@QEAAJHPEBU_GUID@@@Z 0000000180022040 f i SigCap.obj
 0001:00021070       ?RegisterServer@CComModule@ATL@@QEAAJHPEBU_GUID@@@Z 0000000180022070 f i SigCap.obj
 0001:00021150       ?RegisterSubkeys@CRegParser@ATL@@IEAAJPEA_WPEAUHKEY__@@HH@Z 0000000180022150 f i SigCap.obj
 0001:00021f30       ?Release@?$CComAggObject@VCOPOSSigCap@@@ATL@@UEAAKXZ 0000000180022f30 f i SigCap.obj
 0001:00021fe0       ?Release@?$CComContainedObject@VCOPOSSigCap@@@ATL@@UEAAKXZ 0000000180022fe0 f i SigCap.obj
 0001:00022004       ?Release@?$CComContainedObject@VCOPOSSigCap@@@ATL@@WBAA@EAAKXZ 0000000180023004 f i SigCap.obj
 0001:00022010       ?Release@?$CComContainedObject@VCOPOSSigCap@@@ATL@@WBAI@EAAKXZ 0000000180023010 f i SigCap.obj
 0001:0002201c       ?Release@?$CComContainedObject@VCOPOSSigCap@@@ATL@@WBBA@EAAKXZ 000000018002301c f i SigCap.obj
 0001:00022028       ?Release@?$CComContainedObject@VCOPOSSigCap@@@ATL@@WBBI@EAAKXZ 0000000180023028 f i SigCap.obj
 0001:00022034       ?Release@?$CComContainedObject@VCOPOSSigCap@@@ATL@@WBCI@EAAKXZ 0000000180023034 f i SigCap.obj
 0001:00022040       ?Release@?$CComContainedObject@VCOPOSSigCap@@@ATL@@WBEA@EAAKXZ 0000000180023040 f i SigCap.obj
 0001:0002204c       ?Release@?$CComContainedObject@VCOPOSSigCap@@@ATL@@WLI@EAAKXZ 000000018002304c f i SigCap.obj
 0001:00022058       ?Release@?$CComContainedObject@VCOPOSSigCap@@@ATL@@WMA@EAAKXZ 0000000180023058 f i SigCap.obj
 0001:00022064       ?Release@?$CComContainedObject@VCOPOSSigCap@@@ATL@@WMI@EAAKXZ 0000000180023064 f i SigCap.obj
 0001:00022070       ?Release@?$CComContainedObject@VCOPOSSigCap@@@ATL@@WNA@EAAKXZ 0000000180023070 f i SigCap.obj
 0001:0002207c       ?Release@?$CComContainedObject@VCOPOSSigCap@@@ATL@@WNI@EAAKXZ 000000018002307c f i SigCap.obj
 0001:00022088       ?Release@?$CComContainedObject@VCOPOSSigCap@@@ATL@@WOA@EAAKXZ 0000000180023088 f i SigCap.obj
 0001:00022094       ?Release@?$CComContainedObject@VCOPOSSigCap@@@ATL@@WOI@EAAKXZ 0000000180023094 f i SigCap.obj
 0001:000220a0       ?Release@?$CComContainedObject@VCOPOSSigCap@@@ATL@@WPA@EAAKXZ 00000001800230a0 f i SigCap.obj
 0001:000220ac       ?Release@?$CComContainedObject@VCOPOSSigCap@@@ATL@@WPI@EAAKXZ 00000001800230ac f i SigCap.obj
 0001:000220c0       ?Release@?$CComObject@V?$CComEnum@UIEnumConnectionPoints@@$1?_GUID_b196b285_bab4_101a_b69c_00aa00341d07@@3U__s_GUID@@BPEAUIConnectionPoint@@V?$_CopyInterface@UIConnectionPoint@@@ATL@@VCComSingleThreadModel@6@@ATL@@@ATL@@UEAAKXZ 00000001800230c0 f i SigCap.obj
 0001:00022170       ?Release@?$CComObject@V?$CComEnum@UIEnumConnections@@$1?_GUID_b196b287_bab4_101a_b69c_00aa00341d07@@3U__s_GUID@@BUtagCONNECTDATA@@V?$_Copy@UtagCONNECTDATA@@@ATL@@VCComSingleThreadModel@6@@ATL@@@ATL@@UEAAKXZ 0000000180023170 f i SigCap.obj
 0001:00022220       ?Release@?$CComObject@VCOPOSSigCap@@@ATL@@UEAAKXZ 0000000180023220 f i SigCap.obj
 0001:000222d8       ?Release@?$CComObject@VCOPOSSigCap@@@ATL@@WBAA@EAAKXZ 00000001800232d8 f i SigCap.obj
 0001:000222e4       ?Release@?$CComObject@VCOPOSSigCap@@@ATL@@WBAI@EAAKXZ 00000001800232e4 f i SigCap.obj
 0001:000222f0       ?Release@?$CComObject@VCOPOSSigCap@@@ATL@@WBBA@EAAKXZ 00000001800232f0 f i SigCap.obj
 0001:000222fc       ?Release@?$CComObject@VCOPOSSigCap@@@ATL@@WBBI@EAAKXZ 00000001800232fc f i SigCap.obj
 0001:00022308       ?Release@?$CComObject@VCOPOSSigCap@@@ATL@@WBCI@EAAKXZ 0000000180023308 f i SigCap.obj
 0001:00022314       ?Release@?$CComObject@VCOPOSSigCap@@@ATL@@WBEA@EAAKXZ 0000000180023314 f i SigCap.obj
 0001:00022320       ?Release@?$CComObject@VCOPOSSigCap@@@ATL@@WLI@EAAKXZ 0000000180023320 f i SigCap.obj
 0001:0002232c       ?Release@?$CComObject@VCOPOSSigCap@@@ATL@@WMA@EAAKXZ 000000018002332c f i SigCap.obj
 0001:00022338       ?Release@?$CComObject@VCOPOSSigCap@@@ATL@@WMI@EAAKXZ 0000000180023338 f i SigCap.obj
 0001:00022344       ?Release@?$CComObject@VCOPOSSigCap@@@ATL@@WNA@EAAKXZ 0000000180023344 f i SigCap.obj
 0001:00022350       ?Release@?$CComObject@VCOPOSSigCap@@@ATL@@WNI@EAAKXZ 0000000180023350 f i SigCap.obj
 0001:0002235c       ?Release@?$CComObject@VCOPOSSigCap@@@ATL@@WOA@EAAKXZ 000000018002335c f i SigCap.obj
 0001:00022368       ?Release@?$CComObject@VCOPOSSigCap@@@ATL@@WOI@EAAKXZ 0000000180023368 f i SigCap.obj
 0001:00022374       ?Release@?$CComObject@VCOPOSSigCap@@@ATL@@WPA@EAAKXZ 0000000180023374 f i SigCap.obj
 0001:00022380       ?Release@?$CComObject@VCOPOSSigCap@@@ATL@@WPI@EAAKXZ 0000000180023380 f i SigCap.obj
 0001:00022390       ?Release@?$CComObjectCached@VCComClassFactory@ATL@@@ATL@@UEAAKXZ 0000000180023390 f i SigCap.obj
 0001:00022420       ?Release@?$CComPtrBase@UIAdviseSink@@@ATL@@QEAAXXZ 0000000180023420 f i SigCap.obj
 0001:00022470       ?Release@?$CComPtrBase@UIDispatch@@@ATL@@QEAAXXZ 0000000180023470 f i SigCap.obj
 0001:000224c0       ?Release@?$CComPtrBase@UIOleInPlaceSiteWindowless@@@ATL@@QEAAXXZ 00000001800234c0 f i SigCap.obj
 0001:00022510       ?Release@CRegObject@ATL@@UEAAKXZ 0000000180023510 f i SigCap.obj
 0001:00022570       ?Remove@CComDynamicUnkArray@ATL@@QEAAHK@Z 0000000180023570 f i SigCap.obj
 0001:00022630       ?RemoveAll@?$CSimpleMap@PEA_WPEA_WVCExpansionVectorEqualHelper@ATL@@@ATL@@QEAAXXZ 0000000180023630 f i SigCap.obj
 0001:000226c0       ?Reset@?$CComEnumImpl@UIEnumConnectionPoints@@$1?_GUID_b196b285_bab4_101a_b69c_00aa00341d07@@3U__s_GUID@@BPEAUIConnectionPoint@@V?$_CopyInterface@UIConnectionPoint@@@ATL@@@ATL@@UEAAJXZ 00000001800236c0 f i SigCap.obj
 0001:000226e0       ?Reset@?$CComEnumImpl@UIEnumConnections@@$1?_GUID_b196b287_bab4_101a_b69c_00aa00341d07@@3U__s_GUID@@BUtagCONNECTDATA@@V?$_Copy@UtagCONNECTDATA@@@ATL@@@ATL@@UEAAJXZ 00000001800236e0 f i SigCap.obj
 0001:00022700       ?ResizeBorder@?$IOleInPlaceActiveObjectImpl@VCOPOSSigCap@@@ATL@@UEAAJPEBUtagRECT@@PEAUIOleInPlaceUIWindow@@H@Z 0000000180023700 f i SigCap.obj
 0001:00022770       ?ResourceRegister@CRegObject@ATL@@QEAAJPEB_WI0@Z 0000000180023770 f i SigCap.obj
 0001:00022850       ?ResourceRegisterSz@CRegObject@ATL@@QEAAJPEB_W00@Z 0000000180023850 f i SigCap.obj
 0001:00022970       ?ResourceUnregister@CRegObject@ATL@@QEAAJPEB_WI0@Z 0000000180023970 f i SigCap.obj
 0001:00022a50       ?ResourceUnregisterSz@CRegObject@ATL@@QEAAJPEB_W00@Z 0000000180023a50 f i SigCap.obj
 0001:00022b70       ?SOData@COPOSSigCap@@MEAAJJ@Z 0000000180023b70 f i SigCap.obj
 0001:00022c00       ?SODirectIO@COPOSSigCap@@MEAAJJPEAJPEAPEA_W@Z 0000000180023c00 f i SigCap.obj
 0001:00022e40       ?SOError@COPOSSigCap@@MEAAJJJJPEAJ@Z 0000000180023e40 f i SigCap.obj
 0001:00022f30       ?SOOutputCompleteDummy@COPOSSigCap@@MEAAJJ@Z 0000000180023f30 f i SigCap.obj
 0001:00022f50       ?SOStatusUpdate@COPOSSigCap@@MEAAJJ@Z 0000000180023f50 f i SigCap.obj
 0001:00022fe0       ?Save@?$IPersistStorageImpl@VCOPOSSigCap@@@ATL@@UEAAJPEAUIStorage@@H@Z 0000000180023fe0 f i SigCap.obj
 0001:000231a0       ?Save@?$IPersistStreamInitImpl@VCOPOSSigCap@@@ATL@@UEAAJPEAUIStream@@H@Z 00000001800241a0 f i SigCap.obj
 0001:00023250       ?SaveCompleted@?$IPersistStorageImpl@VCOPOSSigCap@@@ATL@@UEAAJPEAUIStorage@@@Z 0000000180024250 f i SigCap.obj
 0001:000232b0       ?SendOnDataChange@CComControlBase@ATL@@QEAAJK@Z 00000001800242b0 f i SigCap.obj
 0001:000233b0       ?SendOnSave@CComControlBase@ATL@@QEAAJXZ 00000001800243b0 f i SigCap.obj
 0001:00023410       ?SendOnViewChange@CComControlBase@ATL@@QEAAJKJ@Z 0000000180024410 f i SigCap.obj
 0001:00023470       ?SetAdvise@?$IViewObjectExImpl@VCOPOSSigCap@@@ATL@@UEAAJKKPEAUIAdviseSink@@@Z 0000000180024470 f i SigCap.obj
 0001:00023520       ?SetClientSite@?$IOleObjectImpl@VCOPOSSigCap@@@ATL@@UEAAJPEAUIOleClientSite@@@Z 0000000180024520 f i SigCap.obj
 0001:000235c0       ?SetColorScheme@?$IOleObjectImpl@VCOPOSSigCap@@@ATL@@UEAAJPEAUtagLOGPALETTE@@@Z 00000001800245c0 f i SigCap.obj
 0001:00023630       ?SetContentExtent@?$IQuickActivateImpl@VCOPOSSigCap@@@ATL@@UEAAJPEAUtagSIZE@@@Z 0000000180024630 f i SigCap.obj
 0001:000236e0       ?SetControlFocus@CComControlBase@ATL@@QEAAHH@Z 00000001800246e0 f i SigCap.obj
 0001:00023860       ?SetDWORDValue@CRegKey@ATL@@QEAAJPEB_WK@Z 0000000180024860 f i SigCap.obj
 0001:00023900       ?SetData@?$IDataObjectImpl@VCOPOSSigCap@@@ATL@@UEAAJPEAUtagFORMATETC@@PEAUtagSTGMEDIUM@@H@Z 0000000180024900 f i SigCap.obj
 0001:00023980       ?SetExtent@?$IOleObjectImpl@VCOPOSSigCap@@@ATL@@UEAAJKPEAUtagSIZE@@@Z 0000000180024980 f i SigCap.obj
 0001:00023a30       ?SetHostNames@?$IOleObjectImpl@VCOPOSSigCap@@@ATL@@UEAAJPEB_W0@Z 0000000180024a30 f i SigCap.obj
 0001:00023a90       ?SetInterfaceSafetyOptions@?$IObjectSafetyImpl@VCOPOSSigCap@@$02@ATL@@UEAAJAEBU_GUID@@KK@Z 0000000180024a90 f i SigCap.obj
 0001:00023c30       ?SetMoniker@?$IOleObjectImpl@VCOPOSSigCap@@@ATL@@UEAAJKPEAUIMoniker@@@Z 0000000180024c30 f i SigCap.obj
 0001:00023cb0       ?SetMultiStringValue@CRegKey@ATL@@QEAAJPEB_W0@Z 0000000180024cb0 f i SigCap.obj
 0001:00023e10       ?SetObjectRects@?$IOleInPlaceObjectWindowlessImpl@VCOPOSSigCap@@@ATL@@UEAAJPEBUtagRECT@@0@Z 0000000180024e10 f i SigCap.obj
 0001:00023ec0       ?SetStringValue@CRegKey@ATL@@QEAAJPEB_W0K@Z 0000000180024ec0 f i SigCap.obj
 0001:00024030       ?SetVoid@CComClassFactory@ATL@@QEAAXPEAX@Z 0000000180025030 f i SigCap.obj
 0001:00024050       ?SetVoid@CComObjectRootBase@ATL@@QEAAXPEAX@Z 0000000180025050 f i SigCap.obj
 0001:00024060       ?ShowWindow@CWindow@ATL@@QEAAHH@Z 0000000180025060 f i SigCap.obj
 0001:000240e0       ?Skip@?$CComEnumImpl@UIEnumConnectionPoints@@$1?_GUID_b196b285_bab4_101a_b69c_00aa00341d07@@3U__s_GUID@@BPEAUIConnectionPoint@@V?$_CopyInterface@UIConnectionPoint@@@ATL@@@ATL@@UEAAJK@Z 00000001800250e0 f i SigCap.obj
 0001:00024170       ?Skip@?$CComEnumImpl@UIEnumConnections@@$1?_GUID_b196b287_bab4_101a_b69c_00aa00341d07@@3U__s_GUID@@BUtagCONNECTDATA@@V?$_Copy@UtagCONNECTDATA@@@ATL@@@ATL@@UEAAJK@Z 0000000180025170 f i SigCap.obj
 0001:00024200       ?SkipAssignment@CRegParser@ATL@@IEAAJPEA_W@Z 0000000180025200 f i SigCap.obj
 0001:00024300       ?SkipWhiteSpace@CRegParser@ATL@@IEAAXXZ 0000000180025300 f i SigCap.obj
 0001:00024350       ?StartWindowProc@?$CWindowImplBaseT@VCWindow@ATL@@V?$CWinTraits@$0FGAAAAAA@$0A@@2@@ATL@@SA_JPEAUHWND__@@I_K_J@Z 0000000180025350 f i SigCap.obj
 0001:000244a0       ?StrChrW@CRegParser@ATL@@KAPEA_WPEA_W_W@Z 00000001800254a0 f i SigCap.obj
 0001:00024510       ?StrFromMap@CRegObject@ATL@@QEAAPEB_WPEA_W@Z 0000000180025510 f i SigCap.obj
 0001:000245b0       ?Swap@?$CComPtrBase@UIAdviseSink@@@ATL@@IEAAXAEAV12@@Z 00000001800255b0 f i SigCap.obj
 0001:000245f0       ?Swap@?$CComPtrBase@UIOleClientSite@@@ATL@@IEAAXAEAV12@@Z 00000001800255f0 f i SigCap.obj
 0001:00024630       ?Swap@?$CComPtrBase@UIUnknown@@@ATL@@IEAAXAEAV12@@Z 0000000180025630 f i SigCap.obj
 0001:00024670       ?T2COLE_EX@@YAPEB_WPEB_WI@Z 0000000180025670 f i SigCap.obj
 0001:00024690       ?T2OLE_EX@@YAPEA_WPEA_WI@Z 0000000180025690 f i SigCap.obj
 0001:000246b0       ?Term@CAtlModule@ATL@@QEAAXXZ 00000001800256b0 f i SigCap.obj
 0001:00024760       ?Term@CComModule@ATL@@QEAAXXZ 0000000180025760 f i SigCap.obj
 0001:00024840       ?TranslateAcceleratorW@?$IOleInPlaceActiveObjectImpl@VCOPOSSigCap@@@ATL@@UEAAJPEAUtagMSG@@@Z 0000000180025840 f i SigCap.obj
 0001:00024ab0       ?UIDeactivate@?$IOleInPlaceObjectWindowlessImpl@VCOPOSSigCap@@@ATL@@UEAAJXZ 0000000180025ab0 f i SigCap.obj
 0001:00024b40       ?Unadvise@?$CProxy_IOPOSEvents@VCOPOSSigCap@@@@UEAAJK@Z 0000000180025b40 f i SigCap.obj
 0001:00024b80       ?Unadvise@?$IConnectionPointImpl@VCOPOSSigCap@@$1?DIID__IOPOSSigCapEvents@@3U_GUID@@BVCComDynamicUnkArray@ATL@@@ATL@@UEAAJK@Z 0000000180025b80 f i SigCap.obj
 0001:00024c60       ?Unadvise@?$IConnectionPointImpl@VCOPOSSigCap@@$1?IID_IPropertyNotifySink@@3U_GUID@@BVCComDynamicUnkArray@ATL@@@ATL@@UEAAJK@Z 0000000180025c60 f i SigCap.obj
 0001:00024d40       ?Unadvise@?$IOleObjectImpl@VCOPOSSigCap@@@ATL@@UEAAJK@Z 0000000180025d40 f i SigCap.obj
 0001:00024e20       ?Unfreeze@?$IViewObjectExImpl@VCOPOSSigCap@@@ATL@@UEAAJK@Z 0000000180025e20 f i SigCap.obj
 0001:00024e90       ?Unlock@?$CComCritSecLock@VCComCriticalSection@ATL@@@ATL@@QEAAXXZ 0000000180025e90 f i SigCap.obj
 0001:00024f10       ?Unlock@?$CComObjectRootEx@VCComSingleThreadModel@ATL@@@ATL@@QEAAXXZ 0000000180025f10 f i SigCap.obj
 0001:00024f20       ?Unlock@CAtlModule@ATL@@UEAAJXZ 0000000180025f20 f i SigCap.obj
 0001:00024f50       ?Unlock@CComCriticalSection@ATL@@QEAAJXZ 0000000180025f50 f i SigCap.obj
 0001:00024f70       ?Unlock@CComFakeCriticalSection@ATL@@QEAAJXZ 0000000180025f70 f i SigCap.obj
 0001:00024f80       ?UnregisterServer@?$CAtlModuleT@VCComModule@ATL@@@ATL@@QEAAJHPEBU_GUID@@@Z 0000000180025f80 f i SigCap.obj
 0001:00024fe0       ?UnregisterServer@CAtlComModule@ATL@@QEAAJHPEBU_GUID@@@Z 0000000180025fe0 f i SigCap.obj
 0001:00025010       ?UnregisterServer@CComModule@ATL@@QEAAJHPEBU_GUID@@@Z 0000000180026010 f i SigCap.obj
 0001:000250f0       ?Update@?$IOleObjectImpl@VCOPOSSigCap@@@ATL@@UEAAJXZ 00000001800260f0 f i SigCap.obj
 0001:00025150       ?UpdateRegistryFromResource@CAtlModule@ATL@@QEAAJIHPEAU_ATL_REGMAP_ENTRY@2@@Z 0000000180026150 f i SigCap.obj
 0001:00025690       ?UpdateRegistryFromResource@CAtlModule@ATL@@QEAAJPEB_WHPEAU_ATL_REGMAP_ENTRY@2@@Z 0000000180026690 f i SigCap.obj
 0001:00025be0       ?UpdateRegistryFromResource@CComModule@ATL@@UEAAJIHPEAU_ATL_REGMAP_ENTRY@2@@Z 0000000180026be0 f i SigCap.obj
 0001:00025c20       ?UpdateRegistryFromResource@CComModule@ATL@@UEAAJPEB_WHPEAU_ATL_REGMAP_ENTRY@2@@Z 0000000180026c20 f i SigCap.obj
 0001:00025c60       ?UpdateRegistryFromResourceD@CComModule@ATL@@UEAAJIHPEAU_ATL_REGMAP_ENTRY@2@@Z 0000000180026c60 f i SigCap.obj
 0001:00025c80       ?UpdateRegistryFromResourceD@CComModule@ATL@@UEAAJPEB_WHPEAU_ATL_REGMAP_ENTRY@2@@Z 0000000180026c80 f i SigCap.obj
 0001:00025ca0       ?VTFromRegType@CRegParser@ATL@@KAHPEB_WAEAG@Z 0000000180026ca0 f i SigCap.obj
 0001:00025d70       ?WindowProc@?$CWindowImplBaseT@VCWindow@ATL@@V?$CWinTraits@$0FGAAAAAA@$0A@@2@@ATL@@SA_JPEAUHWND__@@I_K_J@Z 0000000180026d70 f i SigCap.obj
 0001:00026050       ?WriteToStream@CComBSTR@ATL@@QEAAJPEAUIStream@@@Z 0000000180027050 f i SigCap.obj
 0001:000261c0       ?WriteToStream@CComVariant@ATL@@QEAAJPEAUIStream@@@Z 00000001800271c0 f i SigCap.obj
 0001:000265f0       ?WriteToStream@CComVariant@ATL@@QEAAJPEAUIStream@@G@Z 00000001800275f0 f i SigCap.obj
 0001:000266d0       ?_AtlFinalConstruct@CComObjectRootBase@ATL@@QEAAJXZ 00000001800276d0 f i SigCap.obj
 0001:000266e0       ?_AtlGetConversionACP@ATL@@YAIXZ 00000001800276e0 f i SigCap.obj
 0001:000266f0       ?_AtlInitialConstruct@?$CComAggObject@VCOPOSSigCap@@@ATL@@QEAAJXZ 00000001800276f0 f i SigCap.obj
 0001:00026740       ?_AtlInitialConstruct@?$CComObjectRootEx@VCComMultiThreadModel@ATL@@@ATL@@QEAAJXZ 0000000180027740 f i SigCap.obj
 0001:00026770       ?_AtlInitialConstruct@?$CComObjectRootEx@VCComSingleThreadModel@ATL@@@ATL@@QEAAJXZ 0000000180027770 f i SigCap.obj
 0001:00026780       ?_AtlVerifyStackAvailable@_ATL_SAFE_ALLOCA_IMPL@ATL@@YA_N_K@Z 0000000180027780 f i SigCap.obj
 0001:000268e0       ?_GetEntries@?$CComEnum@UIEnumConnectionPoints@@$1?_GUID_b196b285_bab4_101a_b69c_00aa00341d07@@3U__s_GUID@@BPEAUIConnectionPoint@@V?$_CopyInterface@UIConnectionPoint@@@ATL@@VCComSingleThreadModel@6@@ATL@@SAPEBU_ATL_INTMAP_ENTRY@2@XZ 00000001800278e0 f i SigCap.obj
 0001:00026900       ?_GetEntries@?$CComEnum@UIEnumConnections@@$1?_GUID_b196b287_bab4_101a_b69c_00aa00341d07@@3U__s_GUID@@BUtagCONNECTDATA@@V?$_Copy@UtagCONNECTDATA@@@ATL@@VCComSingleThreadModel@6@@ATL@@SAPEBU_ATL_INTMAP_ENTRY@2@XZ 0000000180027900 f i SigCap.obj
 0001:00026920       ?_GetEntries@CComClassFactory@ATL@@SAPEBU_ATL_INTMAP_ENTRY@2@XZ 0000000180027920 f i SigCap.obj
 0001:00026940       ?_GetEntries@COPOSSigCap@@SAPEBU_ATL_INTMAP_ENTRY@ATL@@XZ 0000000180027940 f i SigCap.obj
 0001:00026960       ?_GetRawUnknown@COPOSSigCap@@QEAAPEAUIUnknown@@XZ 0000000180027960 f i SigCap.obj
 0001:000269e0       ?_GetViewStatus@COPOSSigCap@@QEAAKXZ 00000001800279e0 f i SigCap.obj
 0001:000269f0       ?_InternalQueryInterface@?$CComEnum@UIEnumConnectionPoints@@$1?_GUID_b196b285_bab4_101a_b69c_00aa00341d07@@3U__s_GUID@@BPEAUIConnectionPoint@@V?$_CopyInterface@UIConnectionPoint@@@ATL@@VCComSingleThreadModel@6@@ATL@@QEAAJAEBU_GUID@@PEAPEAX@Z 00000001800279f0 f i SigCap.obj
 0001:00026a30       ?_InternalQueryInterface@?$CComEnum@UIEnumConnections@@$1?_GUID_b196b287_bab4_101a_b69c_00aa00341d07@@3U__s_GUID@@BUtagCONNECTDATA@@V?$_Copy@UtagCONNECTDATA@@@ATL@@VCComSingleThreadModel@6@@ATL@@QEAAJAEBU_GUID@@PEAPEAX@Z 0000000180027a30 f i SigCap.obj
 0001:00026a70       ?_InternalQueryInterface@CComClassFactory@ATL@@QEAAJAEBU_GUID@@PEAPEAX@Z 0000000180027a70 f i SigCap.obj
 0001:00026ab0       ?_InternalQueryInterface@COPOSSigCap@@QEAAJAEBU_GUID@@PEAPEAX@Z 0000000180027ab0 f i SigCap.obj
 0001:00026af0       ?_LocCPQueryInterface@?$IConnectionPointImpl@VCOPOSSigCap@@$1?DIID__IOPOSSigCapEvents@@3U_GUID@@BVCComDynamicUnkArray@ATL@@@ATL@@UEAAJAEBU_GUID@@PEAPEAX@Z 0000000180027af0 f i SigCap.obj
 0001:00026bc0       ?_LocCPQueryInterface@?$IConnectionPointImpl@VCOPOSSigCap@@$1?IID_IPropertyNotifySink@@3U_GUID@@BVCComDynamicUnkArray@ATL@@@ATL@@UEAAJAEBU_GUID@@PEAPEAX@Z 0000000180027bc0 f i SigCap.obj
 0001:00026c90       ?atlCreate@?$CWindowImpl@VCOPOSSigCap@@VCWindow@ATL@@V?$CWinTraits@$0FGAAAAAA@$0A@@3@@ATL@@QEAAPEAUHWND__@@PEAU3@V_U_RECT@2@PEB_WKKV_U_MENUorID@2@PEAX@Z 0000000180027c90 f i SigCap.obj
 0001:00026da0       ?atlCreate@?$CWindowImplBaseT@VCWindow@ATL@@V?$CWinTraits@$0FGAAAAAA@$0A@@2@@ATL@@QEAAPEAUHWND__@@PEAU3@V_U_RECT@2@PEB_WKKV_U_MENUorID@2@GPEAX@Z 0000000180027da0 f i SigCap.obj
 0001:00026ff0       ?atlCreate@CRegKey@ATL@@QEAAJPEAUHKEY__@@PEB_WPEA_WKKPEAU_SECURITY_ATTRIBUTES@@PEAK@Z 0000000180027ff0 f i SigCap.obj
 0001:000271f0       ?begin@CComDynamicUnkArray@ATL@@QEAAPEAPEAUIUnknown@@XZ 00000001800281f0 f i SigCap.obj
 0001:00027200       ?copy@?$_Copy@UtagCONNECTDATA@@@ATL@@SAJPEAUtagCONNECTDATA@@PEBU3@@Z 0000000180028200 f i SigCap.obj
 0001:000272e0       ?copy@?$_CopyInterface@UIConnectionPoint@@@ATL@@SAJPEAPEAUIConnectionPoint@@PEBQEAU3@@Z 00000001800282e0 f i SigCap.obj
 0001:000273c0       ?destroy@?$_Copy@UtagCONNECTDATA@@@ATL@@SAXPEAUtagCONNECTDATA@@@Z 00000001800283c0 f i SigCap.obj
 0001:00027400       ?destroy@?$_CopyInterface@UIConnectionPoint@@@ATL@@SAXPEAPEAUIConnectionPoint@@@Z 0000000180028400 f i SigCap.obj
 0001:00027440       ?end@CComDynamicUnkArray@ATL@@QEAAPEAPEAUIUnknown@@XZ 0000000180028440 f i SigCap.obj
 0001:00027460       ?init@?$_Copy@UtagCONNECTDATA@@@ATL@@SAXPEAUtagCONNECTDATA@@@Z 0000000180028460 f i SigCap.obj
 0001:00027470       ?init@?$_CopyInterface@UIConnectionPoint@@@ATL@@SAXPEAPEAUIConnectionPoint@@@Z 0000000180028470 f i SigCap.obj
 0001:00027480       ?memcpy_s@Checked@ATL@@YAXPEAX_KPEBX1@Z 0000000180028480 f i SigCap.obj
 0001:000274c0       ?ocscpy_s@@YA_NPEA_W_KPEB_W@Z 00000001800284c0 f i SigCap.obj
 0001:00027530       ?ocslen@@YAHPEB_W@Z        0000000180028530 f i SigCap.obj
 0001:00027560       ?tcsncpy_s@Checked@ATL@@YAHPEA_W_KPEB_W1@Z 0000000180028560 f i SigCap.obj
 0001:000275a0       ?wcscat_s@Checked@ATL@@YAXPEA_W_KPEB_W@Z 00000001800285a0 f i SigCap.obj
 0001:000275e0       ?wcscpy_s@Checked@ATL@@YAXPEA_W_KPEB_W@Z 00000001800285e0 f i SigCap.obj
 0001:00027620       ?wcsncpy_s@Checked@ATL@@YAHPEA_W_KPEB_W1@Z 0000000180028620 f i SigCap.obj
 0001:00027660       ?wcsstr@@YAPEA_WPEA_WPEB_W@Z 0000000180028660 f i SigCap.obj
 0001:00027690       InlineIsEqualGUID          0000000180028690 f i SigCap.obj
 0001:00027750       IsEqualGUID                0000000180028750 f i SigCap.obj
 0001:000277a0       ??0COPOSSigCap@@QEAA@XZ    00000001800287a0 f   SigCapImpl.obj
 0001:00027910       ?FinalConstruct@COPOSSigCap@@QEAAJXZ 0000000180028910 f   SigCapImpl.obj
 0001:000279f0       ??1COPOSSigCap@@UEAA@XZ    00000001800289f0 f   SigCapImpl.obj
 0001:00027ad0       ?WriteTrace@COPOSSigCap@@QEAAXPEB_WZZ 0000000180028ad0 f   SigCapImpl.obj
 0001:00027ba0       ?WriteTraceString@COPOSSigCap@@QEAAXPEB_WPEA_W@Z 0000000180028ba0 f   SigCapImpl.obj
 0001:00027fd0       ?WriteTraceString@COPOSSigCap@@QEAAXPEAXHHHPEB_WZZ 0000000180028fd0 f   SigCapImpl.obj
 0001:00028260       ?WriteTraceError@COPOSSigCap@@QEAAXPEB_WK@Z 0000000180029260 f   SigCapImpl.obj
 0001:00028360       ?WriteTraceMethods@COPOSSigCap@@QEAAXPEAJH@Z 0000000180029360 f   SigCapImpl.obj
 0001:000283e0       ?GetOposProp@COPOSSigCap@@IEAAJPEBDJPEAJJ@Z 00000001800293e0 f   SigCapImpl.obj
 0001:00028700       ?SetOposProp@COPOSSigCap@@IEAAJPEBDJJJ@Z 0000000180029700 f   SigCapImpl.obj
 0001:00028a70       ?GetOposProp@COPOSSigCap@@IEAAJPEBDJPEAFJ@Z 0000000180029a70 f   SigCapImpl.obj
 0001:00028b20       ?SetOposProp@COPOSSigCap@@IEAAJPEBDJFJ@Z 0000000180029b20 f   SigCapImpl.obj
 0001:00028b90       ?GetOposProp@COPOSSigCap@@IEAAJPEBDJPEAPEA_WJ@Z 0000000180029b90 f   SigCapImpl.obj
 0001:00028eb0       ?SetOposProp@COPOSSigCap@@IEAAJPEBDJPEA_WJ@Z 0000000180029eb0 f   SigCapImpl.obj
 0001:00029290       ?DoInvoke@COPOSSigCap@@IEAAJPEBDJPEAVOposVariant@@IHPEAJ_N@Z 000000018002a290 f   SigCapImpl.obj
 0001:00029df0       ?SetCOFreezeEvents@COPOSSigCap@@IEAAXF@Z 000000018002adf0 f   SigCapImpl.obj
 0001:00029f80       ?FreezeEvents@COPOSSigCap@@MEAAJH@Z 000000018002af80 f   SigCapImpl.obj
 0001:0002a0a0       ?OnDraw@COPOSSigCap@@MEAAJAEAUATL_DRAWINFO@@@Z 000000018002b0a0 f   SigCapImpl.obj
 0001:0002a270       ?SOProcessID@COPOSSigCap@@UEAAJPEAJ@Z 000000018002b270 f   SigCapImpl.obj
 0001:0002a2c0       ?get_OpenResult@COPOSSigCap@@UEAAJPEAJ@Z 000000018002b2c0 f   SigCapImpl.obj
 0001:0002a310       ?get_CheckHealthText@COPOSSigCap@@UEAAJPEAPEA_W@Z 000000018002b310 f   SigCapImpl.obj
 0001:0002a350       ?get_Claimed@COPOSSigCap@@UEAAJPEAF@Z 000000018002b350 f   SigCapImpl.obj
 0001:0002a390       ?get_DataEventEnabled@COPOSSigCap@@UEAAJPEAF@Z 000000018002b390 f   SigCapImpl.obj
 0001:0002a3d0       ?put_DataEventEnabled@COPOSSigCap@@UEAAJF@Z 000000018002b3d0 f   SigCapImpl.obj
 0001:0002a410       ?get_DeviceEnabled@COPOSSigCap@@UEAAJPEAF@Z 000000018002b410 f   SigCapImpl.obj
 0001:0002a450       ?put_DeviceEnabled@COPOSSigCap@@UEAAJF@Z 000000018002b450 f   SigCapImpl.obj
 0001:0002a490       ?get_FreezeEvents@COPOSSigCap@@UEAAJPEAF@Z 000000018002b490 f   SigCapImpl.obj
 0001:0002a4d0       ?put_FreezeEvents@COPOSSigCap@@UEAAJF@Z 000000018002b4d0 f   SigCapImpl.obj
 0001:0002a590       ?get_ResultCode@COPOSSigCap@@UEAAJPEAJ@Z 000000018002b590 f   SigCapImpl.obj
 0001:0002a640       ?get_ResultCodeExtended@COPOSSigCap@@UEAAJPEAJ@Z 000000018002b640 f   SigCapImpl.obj
 0001:0002a680       ?get_State@COPOSSigCap@@UEAAJPEAJ@Z 000000018002b680 f   SigCapImpl.obj
 0001:0002a6f0       ?get_ControlObjectDescription@COPOSSigCap@@UEAAJPEAPEA_W@Z 000000018002b6f0 f   SigCapImpl.obj
 0001:0002a760       ?get_ControlObjectVersion@COPOSSigCap@@UEAAJPEAJ@Z 000000018002b760 f   SigCapImpl.obj
 0001:0002a7b0       ?get_ServiceObjectDescription@COPOSSigCap@@UEAAJPEAPEA_W@Z 000000018002b7b0 f   SigCapImpl.obj
 0001:0002a7f0       ?get_ServiceObjectVersion@COPOSSigCap@@UEAAJPEAJ@Z 000000018002b7f0 f   SigCapImpl.obj
 0001:0002a830       ?get_DeviceDescription@COPOSSigCap@@UEAAJPEAPEA_W@Z 000000018002b830 f   SigCapImpl.obj
 0001:0002a870       ?get_DeviceName@COPOSSigCap@@UEAAJPEAPEA_W@Z 000000018002b870 f   SigCapImpl.obj
 0001:0002a8b0       ?CheckHealth@COPOSSigCap@@UEAAJJPEAJ@Z 000000018002b8b0 f   SigCapImpl.obj
 0001:0002a970       ?ClaimDevice@COPOSSigCap@@UEAAJJPEAJ@Z 000000018002b970 f   SigCapImpl.obj
 0001:0002aa90       ?ClearInput@COPOSSigCap@@UEAAJPEAJ@Z 000000018002ba90 f   SigCapImpl.obj
 0001:0002aaf0       ?Close@COPOSSigCap@@UEAAJPEAJ@Z 000000018002baf0 f   SigCapImpl.obj
 0001:0002abf0       ?DirectIO@COPOSSigCap@@UEAAJJPEAJPEAPEA_W0@Z 000000018002bbf0 f   SigCapImpl.obj
 0001:0002ad70       ?Open@COPOSSigCap@@UEAAJPEA_WPEAJ@Z 000000018002bd70 f   SigCapImpl.obj
 0001:0002c240       ?ReleaseDevice@COPOSSigCap@@UEAAJPEAJ@Z 000000018002d240 f   SigCapImpl.obj
 0001:0002c2e0       ?get_CapDisplay@COPOSSigCap@@UEAAJPEAF@Z 000000018002d2e0 f   SigCapImpl.obj
 0001:0002c320       ?get_CapUserTerminated@COPOSSigCap@@UEAAJPEAF@Z 000000018002d320 f   SigCapImpl.obj
 0001:0002c360       ?get_MaximumX@COPOSSigCap@@UEAAJPEAJ@Z 000000018002d360 f   SigCapImpl.obj
 0001:0002c3a0       ?get_MaximumY@COPOSSigCap@@UEAAJPEAJ@Z 000000018002d3a0 f   SigCapImpl.obj
 0001:0002c3e0       ?get_PointArray@COPOSSigCap@@UEAAJPEAPEA_W@Z 000000018002d3e0 f   SigCapImpl.obj
 0001:0002c420       ?get_RawData@COPOSSigCap@@UEAAJPEAPEA_W@Z 000000018002d420 f   SigCapImpl.obj
 0001:0002c460       ?get_TotalPoints@COPOSSigCap@@UEAAJPEAJ@Z 000000018002d460 f   SigCapImpl.obj
 0001:0002c4a0       ?BeginCapture@COPOSSigCap@@UEAAJPEA_WPEAJ@Z 000000018002d4a0 f   SigCapImpl.obj
 0001:0002c580       ?EndCapture@COPOSSigCap@@UEAAJPEAJ@Z 000000018002d580 f   SigCapImpl.obj
 0001:0002c5e0       ?get_AutoDisable@COPOSSigCap@@UEAAJPEAF@Z 000000018002d5e0 f   SigCapImpl.obj
 0001:0002c620       ?put_AutoDisable@COPOSSigCap@@UEAAJF@Z 000000018002d620 f   SigCapImpl.obj
 0001:0002c660       ?get_BinaryConversion@COPOSSigCap@@UEAAJPEAJ@Z 000000018002d660 f   SigCapImpl.obj
 0001:0002c6a0       ?put_BinaryConversion@COPOSSigCap@@UEAAJJ@Z 000000018002d6a0 f   SigCapImpl.obj
 0001:0002c6f0       ?get_DataCount@COPOSSigCap@@UEAAJPEAJ@Z 000000018002d6f0 f   SigCapImpl.obj
 0001:0002c730       ?get_CapRealTimeData@COPOSSigCap@@UEAAJPEAF@Z 000000018002d730 f   SigCapImpl.obj
 0001:0002c770       ?get_RealTimeDataEnabled@COPOSSigCap@@UEAAJPEAF@Z 000000018002d770 f   SigCapImpl.obj
 0001:0002c7b0       ?put_RealTimeDataEnabled@COPOSSigCap@@UEAAJF@Z 000000018002d7b0 f   SigCapImpl.obj
 0001:0002c7f0       ?get_CapPowerReporting@COPOSSigCap@@UEAAJPEAJ@Z 000000018002d7f0 f   SigCapImpl.obj
 0001:0002c830       ?get_PowerNotify@COPOSSigCap@@UEAAJPEAJ@Z 000000018002d830 f   SigCapImpl.obj
 0001:0002c870       ?put_PowerNotify@COPOSSigCap@@UEAAJJ@Z 000000018002d870 f   SigCapImpl.obj
 0001:0002c8b0       ?get_PowerState@COPOSSigCap@@UEAAJPEAJ@Z 000000018002d8b0 f   SigCapImpl.obj
 0001:0002c8f0       ?get_CapStatisticsReporting@COPOSSigCap@@UEAAJPEAF@Z 000000018002d8f0 f   SigCapImpl.obj
 0001:0002c930       ?get_CapUpdateStatistics@COPOSSigCap@@UEAAJPEAF@Z 000000018002d930 f   SigCapImpl.obj
 0001:0002c970       ?ResetStatistics@COPOSSigCap@@UEAAJPEA_WPEAJ@Z 000000018002d970 f   SigCapImpl.obj
 0001:0002ca50       ?RetrieveStatistics@COPOSSigCap@@UEAAJPEAPEA_WPEAJ@Z 000000018002da50 f   SigCapImpl.obj
 0001:0002cb30       ?UpdateStatistics@COPOSSigCap@@UEAAJPEA_WPEAJ@Z 000000018002db30 f   SigCapImpl.obj
 0001:0002cc10       ?get_CapCompareFirmwareVersion@COPOSSigCap@@UEAAJPEAF@Z 000000018002dc10 f   SigCapImpl.obj
 0001:0002cc50       ?get_CapUpdateFirmware@COPOSSigCap@@UEAAJPEAF@Z 000000018002dc50 f   SigCapImpl.obj
 0001:0002cc90       ?CompareFirmwareVersion@COPOSSigCap@@UEAAJPEA_WPEAJ1@Z 000000018002dc90 f   SigCapImpl.obj
 0001:0002cdd0       ?UpdateFirmware@COPOSSigCap@@UEAAJPEA_WPEAJ@Z 000000018002ddd0 f   SigCapImpl.obj
 0001:0002ceb0       ?ClearInputProperties@COPOSSigCap@@UEAAJPEAJ@Z 000000018002deb0 f   SigCapImpl.obj
 0001:0002cf00       ??0?$CComControl@VCOPOSSigCap@@V?$CWindowImpl@VCOPOSSigCap@@VCWindow@ATL@@V?$CWinTraits@$0FGAAAAAA@$0A@@3@@ATL@@@ATL@@QEAA@XZ 000000018002df00 f i SigCapImpl.obj
 0001:0002cf40       ??0?$CComPtr@UIAdviseSink@@@ATL@@QEAA@XZ 000000018002df40 f i SigCapImpl.obj
 0001:0002cf60       ??0?$CComPtr@UIDataAdviseHolder@@@ATL@@QEAA@XZ 000000018002df60 f i SigCapImpl.obj
 0001:0002cf80       ??0?$CComPtr@UIOleAdviseHolder@@@ATL@@QEAA@XZ 000000018002df80 f i SigCapImpl.obj
 0001:0002cfa0       ??0?$CComPtr@UIOleClientSite@@@ATL@@QEAA@XZ 000000018002dfa0 f i SigCapImpl.obj
 0001:0002cfc0       ??0?$CComPtr@UIOleInPlaceSiteWindowless@@@ATL@@QEAA@XZ 000000018002dfc0 f i SigCapImpl.obj
 0001:0002cfe0       ??0?$CComPtrBase@UIAdviseSink@@@ATL@@IEAA@XZ 000000018002dfe0 f i SigCapImpl.obj
 0001:0002d000       ??0?$CComPtrBase@UIDataAdviseHolder@@@ATL@@IEAA@XZ 000000018002e000 f i SigCapImpl.obj
 0001:0002d020       ??0?$CComPtrBase@UIOleAdviseHolder@@@ATL@@IEAA@XZ 000000018002e020 f i SigCapImpl.obj
 0001:0002d040       ??0?$CComPtrBase@UIOleClientSite@@@ATL@@IEAA@XZ 000000018002e040 f i SigCapImpl.obj
 0001:0002d060       ??0?$CComPtrBase@UIOleInPlaceSiteWindowless@@@ATL@@IEAA@XZ 000000018002e060 f i SigCapImpl.obj
 0001:0002d080       ??0?$CComQIPtr@UIDispatch@@$1?_GUID_00020400_0000_0000_c000_000000000046@@3U__s_GUID@@B@ATL@@QEAA@XZ 000000018002e080 f i SigCapImpl.obj
 0001:0002d0a0       ??0?$CProxy_IOPOSEvents@VCOPOSSigCap@@@@QEAA@PEAVCOPOSSigCap@@@Z 000000018002e0a0 f i SigCapImpl.obj
 0001:0002d120       ??0?$CWindowImpl@VCOPOSSigCap@@VCWindow@ATL@@V?$CWinTraits@$0FGAAAAAA@$0A@@3@@ATL@@QEAA@XZ 000000018002e120 f i SigCapImpl.obj
 0001:0002d140       ??0?$CWindowImplBaseT@VCWindow@ATL@@V?$CWinTraits@$0FGAAAAAA@$0A@@2@@ATL@@QEAA@XZ 000000018002e140 f i SigCapImpl.obj
 0001:0002d170       ??0?$CWindowImplRoot@VCWindow@ATL@@@ATL@@QEAA@XZ 000000018002e170 f i SigCapImpl.obj
 0001:0002d1d0       ??0?$IConnectionPointContainerImpl@VCOPOSSigCap@@@ATL@@QEAA@XZ 000000018002e1d0 f i SigCapImpl.obj
 0001:0002d1f0       ??0?$IConnectionPointImpl@VCOPOSSigCap@@$1?DIID__IOPOSSigCapEvents@@3U_GUID@@BVCComDynamicUnkArray@ATL@@@ATL@@QEAA@XZ 000000018002e1f0 f i SigCapImpl.obj
 0001:0002d220       ??0?$IConnectionPointImpl@VCOPOSSigCap@@$1?IID_IPropertyNotifySink@@3U_GUID@@BVCComDynamicUnkArray@ATL@@@ATL@@QEAA@XZ 000000018002e220 f i SigCapImpl.obj
 0001:0002d250       ??0?$IDataObjectImpl@VCOPOSSigCap@@@ATL@@QEAA@XZ 000000018002e250 f i SigCapImpl.obj
 0001:0002d270       ??0?$IDispatchImpl@UIOPOSSigCap@@$1?IID_IOPOSSigCap@@3U_GUID@@B$1?LIBID_OposSigCap_CCO@@3U3@B$00$0A@VCComTypeInfoHolder@ATL@@@ATL@@QEAA@XZ 000000018002e270 f i SigCapImpl.obj
 0001:0002d290       ??0?$IObjectSafetyImpl@VCOPOSSigCap@@$02@ATL@@QEAA@XZ 000000018002e290 f i SigCapImpl.obj
 0001:0002d2c0       ??0?$IOleControlImpl@VCOPOSSigCap@@@ATL@@QEAA@XZ 000000018002e2c0 f i SigCapImpl.obj
 0001:0002d2e0       ??0?$IOleInPlaceActiveObjectImpl@VCOPOSSigCap@@@ATL@@QEAA@XZ 000000018002e2e0 f i SigCapImpl.obj
 0001:0002d300       ??0?$IOleInPlaceObjectWindowlessImpl@VCOPOSSigCap@@@ATL@@QEAA@XZ 000000018002e300 f i SigCapImpl.obj
 0001:0002d320       ??0?$IOleObjectImpl@VCOPOSSigCap@@@ATL@@QEAA@XZ 000000018002e320 f i SigCapImpl.obj
 0001:0002d340       ??0?$IPersistStorageImpl@VCOPOSSigCap@@@ATL@@QEAA@XZ 000000018002e340 f i SigCapImpl.obj
 0001:0002d360       ??0?$IPersistStreamInitImpl@VCOPOSSigCap@@@ATL@@QEAA@XZ 000000018002e360 f i SigCapImpl.obj
 0001:0002d380       ??0?$IPropertyNotifySinkCP@VCOPOSSigCap@@VCComDynamicUnkArray@ATL@@@ATL@@QEAA@XZ 000000018002e380 f i SigCapImpl.obj
 0001:0002d3a0       ??0?$IProvideClassInfo2Impl@$1?CLSID_OPOSSigCap@@3U_GUID@@B$1?DIID__IOPOSSigCapEvents@@3U2@B$1?LIBID_OposSigCap_CCO@@3U2@B$00$0A@VCComTypeInfoHolder@ATL@@@ATL@@QEAA@XZ 000000018002e3a0 f i SigCapImpl.obj
 0001:0002d3c0       ??0?$IQuickActivateImpl@VCOPOSSigCap@@@ATL@@QEAA@XZ 000000018002e3c0 f i SigCapImpl.obj
 0001:0002d3e0       ??0?$ISpecifyPropertyPagesImpl@VCOPOSSigCap@@@ATL@@QEAA@XZ 000000018002e3e0 f i SigCapImpl.obj
 0001:0002d400       ??0?$IViewObjectExImpl@VCOPOSSigCap@@@ATL@@QEAA@XZ 000000018002e400 f i SigCapImpl.obj
 0001:0002d420       ??0?$_ICPLocator@$1?DIID__IOPOSSigCapEvents@@3U_GUID@@B@ATL@@QEAA@XZ 000000018002e420 f i SigCapImpl.obj
 0001:0002d430       ??0?$_ICPLocator@$1?IID_IPropertyNotifySink@@3U_GUID@@B@ATL@@QEAA@XZ 000000018002e430 f i SigCapImpl.obj
 0001:0002d440       ??0CComControlBase@ATL@@QEAA@AEAPEAUHWND__@@@Z 000000018002e440 f i SigCapImpl.obj
 0001:0002d650       ??0CComDynamicUnkArray@ATL@@QEAA@XZ 000000018002e650 f i SigCapImpl.obj
 0001:0002d680       ??0CDynamicStdCallThunk2@ATL@@QEAA@XZ 000000018002e680 f i SigCapImpl.obj
 0001:0002d6a0       ??0CMessageMap@ATL@@QEAA@XZ 000000018002e6a0 f i SigCapImpl.obj
 0001:0002d6b0       ??0CWindow@ATL@@QEAA@PEAUHWND__@@@Z 000000018002e6b0 f i SigCapImpl.obj
 0001:0002d6d0       ??0CWndProcThunk@ATL@@QEAA@XZ 000000018002e6d0 f i SigCapImpl.obj
 0001:0002d700       ??0IConnectionPointContainer@@QEAA@XZ 000000018002e700 f i SigCapImpl.obj
 0001:0002d720       ??0IDataObject@@QEAA@XZ    000000018002e720 f i SigCapImpl.obj
 0001:0002d740       ??0IDispatch@@QEAA@XZ      000000018002e740 f i SigCapImpl.obj
 0001:0002d760       ??0IOPOSSigCap@@QEAA@XZ    000000018002e760 f i SigCapImpl.obj
 0001:0002d780       ??0IOPOSSigCap_1_10@@QEAA@XZ 000000018002e780 f i SigCapImpl.obj
 0001:0002d7a0       ??0IOPOSSigCap_1_5@@QEAA@XZ 000000018002e7a0 f i SigCapImpl.obj
 0001:0002d7c0       ??0IOPOSSigCap_1_8@@QEAA@XZ 000000018002e7c0 f i SigCapImpl.obj
 0001:0002d7e0       ??0IOPOSSigCap_1_9@@QEAA@XZ 000000018002e7e0 f i SigCapImpl.obj
 0001:0002d800       ??0IObjectSafety@@QEAA@XZ  000000018002e800 f i SigCapImpl.obj
 0001:0002d820       ??0IOleControl@@QEAA@XZ    000000018002e820 f i SigCapImpl.obj
 0001:0002d840       ??0IOleInPlaceActiveObject@@QEAA@XZ 000000018002e840 f i SigCapImpl.obj
 0001:0002d860       ??0IOleInPlaceObject@@QEAA@XZ 000000018002e860 f i SigCapImpl.obj
 0001:0002d880       ??0IOleInPlaceObjectWindowless@@QEAA@XZ 000000018002e880 f i SigCapImpl.obj
 0001:0002d8a0       ??0IOleObject@@QEAA@XZ     000000018002e8a0 f i SigCapImpl.obj
 0001:0002d8c0       ??0IOleWindow@@QEAA@XZ     000000018002e8c0 f i SigCapImpl.obj
 0001:0002d8e0       ??0IPersist@@QEAA@XZ       000000018002e8e0 f i SigCapImpl.obj
 0001:0002d900       ??0IPersistStorage@@QEAA@XZ 000000018002e900 f i SigCapImpl.obj
 0001:0002d920       ??0IPersistStreamInit@@QEAA@XZ 000000018002e920 f i SigCapImpl.obj
 0001:0002d940       ??0IProvideClassInfo2@@QEAA@XZ 000000018002e940 f i SigCapImpl.obj
 0001:0002d960       ??0IProvideClassInfo@@QEAA@XZ 000000018002e960 f i SigCapImpl.obj
 0001:0002d980       ??0IQuickActivate@@QEAA@XZ 000000018002e980 f i SigCapImpl.obj
 0001:0002d9a0       ??0ISpecifyPropertyPages@@QEAA@XZ 000000018002e9a0 f i SigCapImpl.obj
 0001:0002d9c0       ??0IViewObject2@@QEAA@XZ   000000018002e9c0 f i SigCapImpl.obj
 0001:0002d9e0       ??0IViewObject@@QEAA@XZ    000000018002e9e0 f i SigCapImpl.obj
 0001:0002da00       ??0IViewObjectEx@@QEAA@XZ  000000018002ea00 f i SigCapImpl.obj
 0001:0002da20       ??0OposVariantResult@@QEAA@XZ 000000018002ea20 f i SigCapImpl.obj
 0001:0002da40       ??0_CW@@QEAA@PEBD@Z        000000018002ea40 f i SigCapImpl.obj
 0001:0002da90       ??0_CW@@QEAA@PEB_W@Z       000000018002ea90 f i SigCapImpl.obj
 0001:0002dae0       ??0_CWNCC@@QEAA@PEBD@Z     000000018002eae0 f i SigCapImpl.obj
 0001:0002db10       ??1?$CComControl@VCOPOSSigCap@@V?$CWindowImpl@VCOPOSSigCap@@VCWindow@ATL@@V?$CWinTraits@$0FGAAAAAA@$0A@@3@@ATL@@@ATL@@UEAA@XZ 000000018002eb10 f i SigCapImpl.obj
 0001:0002db40       ??1?$CComPtr@UIDataAdviseHolder@@@ATL@@QEAA@XZ 000000018002eb40 f i SigCapImpl.obj
 0001:0002db60       ??1?$CComPtr@UIOleAdviseHolder@@@ATL@@QEAA@XZ 000000018002eb60 f i SigCapImpl.obj
 0001:0002db80       ??1?$CComPtr@UIOleInPlaceSiteWindowless@@@ATL@@QEAA@XZ 000000018002eb80 f i SigCapImpl.obj
 0001:0002dba0       ??1?$CComPtrBase@UIDataAdviseHolder@@@ATL@@QEAA@XZ 000000018002eba0 f i SigCapImpl.obj
 0001:0002dbe0       ??1?$CComPtrBase@UIOleAdviseHolder@@@ATL@@QEAA@XZ 000000018002ebe0 f i SigCapImpl.obj
 0001:0002dc20       ??1?$CComPtrBase@UIOleInPlaceSiteWindowless@@@ATL@@QEAA@XZ 000000018002ec20 f i SigCapImpl.obj
 0001:0002dc60       ??1?$CComQIPtr@UIDispatch@@$1?_GUID_00020400_0000_0000_c000_000000000046@@3U__s_GUID@@B@ATL@@QEAA@XZ 000000018002ec60 f i SigCapImpl.obj
 0001:0002dc80       ??1?$CProxy_IOPOSEvents@VCOPOSSigCap@@@@QEAA@XZ 000000018002ec80 f i SigCapImpl.obj
 0001:0002dca0       ??1?$CWindowImpl@VCOPOSSigCap@@VCWindow@ATL@@V?$CWinTraits@$0FGAAAAAA@$0A@@3@@ATL@@UEAA@XZ 000000018002eca0 f i SigCapImpl.obj
 0001:0002dcc0       ??1?$CWindowImplBaseT@VCWindow@ATL@@V?$CWinTraits@$0FGAAAAAA@$0A@@2@@ATL@@UEAA@XZ 000000018002ecc0 f i SigCapImpl.obj
 0001:0002dce0       ??1?$CWindowImplRoot@VCWindow@ATL@@@ATL@@UEAA@XZ 000000018002ece0 f i SigCapImpl.obj
 0001:0002dd90       ??1?$IConnectionPointImpl@VCOPOSSigCap@@$1?DIID__IOPOSSigCapEvents@@3U_GUID@@BVCComDynamicUnkArray@ATL@@@ATL@@QEAA@XZ 000000018002ed90 f i SigCapImpl.obj
 0001:0002de10       ??1?$IConnectionPointImpl@VCOPOSSigCap@@$1?IID_IPropertyNotifySink@@3U_GUID@@BVCComDynamicUnkArray@ATL@@@ATL@@QEAA@XZ 000000018002ee10 f i SigCapImpl.obj
 0001:0002de90       ??1?$IPropertyNotifySinkCP@VCOPOSSigCap@@VCComDynamicUnkArray@ATL@@@ATL@@QEAA@XZ 000000018002ee90 f i SigCapImpl.obj
 0001:0002deb0       ??1CComControlBase@ATL@@UEAA@XZ 000000018002eeb0 f i SigCapImpl.obj
 0001:0002df90       ??1CComDynamicUnkArray@ATL@@QEAA@XZ 000000018002ef90 f i SigCapImpl.obj
 0001:0002dfc0       ??1CDynamicStdCallThunk2@ATL@@QEAA@XZ 000000018002efc0 f i SigCapImpl.obj
 0001:0002dff0       ??1CWndProcThunk@ATL@@QEAA@XZ 000000018002eff0 f i SigCapImpl.obj
 0001:0002e020       ??1OposVariantResult@@QEAA@XZ 000000018002f020 f i SigCapImpl.obj
 0001:0002e050       ??1_CW@@QEAA@XZ            000000018002f050 f i SigCapImpl.obj
 0001:0002e0b0       ??1_CWNCC@@QEAA@XZ         000000018002f0b0 f i SigCapImpl.obj
 0001:0002e0d0       ??B_CW@@QEAAPEB_WXZ        000000018002f0d0 f i SigCapImpl.obj
 0001:0002e100       ??B_CWNCC@@QEAAPEA_WXZ     000000018002f100 f i SigCapImpl.obj
 0001:0002e120       ??_EOposVariant@@QEAAPEAXI@Z 000000018002f120 f i SigCapImpl.obj
 0001:0002e1c0       ?EventClaim@COPOSSigCap@@IEAAXXZ 000000018002f1c0 f i SigCapImpl.obj
 0001:0002e1f0       ?EventClose@COPOSSigCap@@IEAAXXZ 000000018002f1f0 f i SigCapImpl.obj
 0001:0002e290       ?EventInit@COPOSSigCap@@IEAAJXZ 000000018002f290 f i SigCapImpl.obj
 0001:0002e540       ?EventOpen@COPOSSigCap@@IEAAXXZ 000000018002f540 f i SigCapImpl.obj
 0001:0002e580       ?EventPreCloseRelease@COPOSSigCap@@IEAAXXZ 000000018002f580 f i SigCapImpl.obj
 0001:0002e5f0       ?EventUninit@COPOSSigCap@@IEAAXXZ 000000018002f5f0 f i SigCapImpl.obj
 0001:0002e710       ?EventWindowProc@COPOSSigCap@@IEAA_JI_K_J@Z 000000018002f710 f i SigCapImpl.obj
 0001:0002e8d0       ?FireEventCleanup@COPOSSigCap@@IEAAXXZ 000000018002f8d0 f i SigCapImpl.obj
 0001:0002e910       ?FireEventSetup@COPOSSigCap@@IEAA_NXZ 000000018002f910 f i SigCapImpl.obj
 0001:0002e980       ?GetModuleInstance@CComModule@ATL@@QEAAPEAUHINSTANCE__@@XZ 000000018002f980 f i SigCapImpl.obj
 0001:0002e990       ?SetRC@COPOSSigCap@@IEAAJJ@Z 000000018002f990 f i SigCapImpl.obj
 0001:0002e9b0       ?s_EventWindowProc@COPOSSigCap@@KA_JPEAUHWND__@@I_K_J@Z 000000018002f9b0 f i SigCapImpl.obj
 0001:0002ea50       _snwprintf                 000000018002fa50 f i SigCapImpl.obj
 0001:0002eae0       _vfwprintf_l               000000018002fae0 f i SigCapImpl.obj
 0001:0002eb30       _vsnwprintf                000000018002fb30 f i SigCapImpl.obj
 0001:0002eb70       _vsnwprintf_l              000000018002fb70 f i SigCapImpl.obj
 0001:0002ebf0       vfwprintf                  000000018002fbf0 f i SigCapImpl.obj
 0001:0002ec21       DebugBreak                 000000018002fc21 f   kernel32:KERNEL32.dll
 0001:0002ec27       Sleep                      000000018002fc27 f   kernel32:KERNEL32.dll
 0001:0002ec2d       GetCurrentProcess          000000018002fc2d f   kernel32:KERNEL32.dll
 0001:0002ec33       TerminateProcess           000000018002fc33 f   kernel32:KERNEL32.dll
 0001:0002ec39       MultiByteToWideChar        000000018002fc39 f   kernel32:KERNEL32.dll
 0001:0002ec3f       WideCharToMultiByte        000000018002fc3f f   kernel32:KERNEL32.dll
 0001:0002ec45       DecodePointer              000000018002fc45 f   kernel32:KERNEL32.dll
 0001:0002ec4b       RaiseException             000000018002fc4b f   kernel32:KERNEL32.dll
 0001:0002ec51       GetLastError               000000018002fc51 f   kernel32:KERNEL32.dll
 0001:0002ec57       SetLastError               000000018002fc57 f   kernel32:KERNEL32.dll
 0001:0002ec5d       InitializeCriticalSectionEx 000000018002fc5d f   kernel32:KERNEL32.dll
 0001:0002ec63       DeleteCriticalSection      000000018002fc63 f   kernel32:KERNEL32.dll
 0001:0002ec69       EncodePointer              000000018002fc69 f   kernel32:KERNEL32.dll
 0001:0002ec6f       EnterCriticalSection       000000018002fc6f f   kernel32:KERNEL32.dll
 0001:0002ec75       LeaveCriticalSection       000000018002fc75 f   kernel32:KERNEL32.dll
 0001:0002ec7b       ResetEvent                 000000018002fc7b f   kernel32:KERNEL32.dll
 0001:0002ec81       ReleaseMutex               000000018002fc81 f   kernel32:KERNEL32.dll
 0001:0002ec87       WaitForSingleObject        000000018002fc87 f   kernel32:KERNEL32.dll
 0001:0002ec8d       GetCurrentThreadId         000000018002fc8d f   kernel32:KERNEL32.dll
 0001:0002ec93       DisableThreadLibraryCalls  000000018002fc93 f   kernel32:KERNEL32.dll
 0001:0002ec99       FreeLibrary                000000018002fc99 f   kernel32:KERNEL32.dll
 0001:0002ec9f       GetModuleFileNameW         000000018002fc9f f   kernel32:KERNEL32.dll
 0001:0002eca5       GetModuleHandleW           000000018002fca5 f   kernel32:KERNEL32.dll
 0001:0002ecab       GetProcAddress             000000018002fcab f   kernel32:KERNEL32.dll
 0001:0002ecb1       LoadLibraryExW             000000018002fcb1 f   kernel32:KERNEL32.dll
 0001:0002ecb7       LoadResource               000000018002fcb7 f   kernel32:KERNEL32.dll
 0001:0002ecbd       SizeofResource             000000018002fcbd f   kernel32:KERNEL32.dll
 0001:0002ecc3       FindResourceW              000000018002fcc3 f   kernel32:KERNEL32.dll
 0001:0002ecc9       GlobalAlloc                000000018002fcc9 f   kernel32:KERNEL32.dll
 0001:0002eccf       GlobalUnlock               000000018002fccf f   kernel32:KERNEL32.dll
 0001:0002ecd5       GlobalLock                 000000018002fcd5 f   kernel32:KERNEL32.dll
 0001:0002ecdb       MulDiv                     000000018002fcdb f   kernel32:KERNEL32.dll
 0001:0002ece1       lstrcmpiW                  000000018002fce1 f   kernel32:KERNEL32.dll
 0001:0002ece7       DeleteFileW                000000018002fce7 f   kernel32:KERNEL32.dll
 0001:0002eced       CloseHandle                000000018002fced f   kernel32:KERNEL32.dll
 0001:0002ecf3       SetEvent                   000000018002fcf3 f   kernel32:KERNEL32.dll
 0001:0002ecf9       CreateMutexW               000000018002fcf9 f   kernel32:KERNEL32.dll
 0001:0002ecff       CreateEventW               000000018002fcff f   kernel32:KERNEL32.dll
 0001:0002ed05       GetCurrentProcessId        000000018002fd05 f   kernel32:KERNEL32.dll
 0001:0002ed0b       LocalFree                  000000018002fd0b f   kernel32:KERNEL32.dll
 0001:0002ed11       FormatMessageW             000000018002fd11 f   kernel32:KERNEL32.dll
 0001:0002ed17       GetActiveWindow            000000018002fd17 f   user32:USER32.dll
 0001:0002ed1d       MessageBoxW                000000018002fd1d f   user32:USER32.dll
 0001:0002ed23       UnregisterClassW           000000018002fd23 f   user32:USER32.dll
 0001:0002ed29       PostMessageW               000000018002fd29 f   user32:USER32.dll
 0001:0002ed2f       DefWindowProcW             000000018002fd2f f   user32:USER32.dll
 0001:0002ed35       CallWindowProcW            000000018002fd35 f   user32:USER32.dll
 0001:0002ed3b       RegisterClassExW           000000018002fd3b f   user32:USER32.dll
 0001:0002ed41       GetClassInfoExW            000000018002fd41 f   user32:USER32.dll
 0001:0002ed47       CreateWindowExW            000000018002fd47 f   user32:USER32.dll
 0001:0002ed4d       IsWindow                   000000018002fd4d f   user32:USER32.dll
 0001:0002ed53       IsChild                    000000018002fd53 f   user32:USER32.dll
 0001:0002ed59       DestroyWindow              000000018002fd59 f   user32:USER32.dll
 0001:0002ed5f       ShowWindow                 000000018002fd5f f   user32:USER32.dll
 0001:0002ed65       SetWindowPos               000000018002fd65 f   user32:USER32.dll
 0001:0002ed6b       CharNextW                  000000018002fd6b f   user32:USER32.dll
 0001:0002ed71       SetFocus                   000000018002fd71 f   user32:USER32.dll
 0001:0002ed77       GetFocus                   000000018002fd77 f   user32:USER32.dll
 0001:0002ed7d       GetKeyState                000000018002fd7d f   user32:USER32.dll
 0001:0002ed83       GetDC                      000000018002fd83 f   user32:USER32.dll
 0001:0002ed89       ReleaseDC                  000000018002fd89 f   user32:USER32.dll
 0001:0002ed8f       BeginPaint                 000000018002fd8f f   user32:USER32.dll
 0001:0002ed95       EndPaint                   000000018002fd95 f   user32:USER32.dll
 0001:0002ed9b       SetWindowRgn               000000018002fd9b f   user32:USER32.dll
 0001:0002eda1       InvalidateRect             000000018002fda1 f   user32:USER32.dll
 0001:0002eda7       GetClientRect              000000018002fda7 f   user32:USER32.dll
 0001:0002edad       IntersectRect              000000018002fdad f   user32:USER32.dll
 0001:0002edb3       UnionRect                  000000018002fdb3 f   user32:USER32.dll
 0001:0002edb9       OffsetRect                 000000018002fdb9 f   user32:USER32.dll
 0001:0002edbf       EqualRect                  000000018002fdbf f   user32:USER32.dll
 0001:0002edc5       PtInRect                   000000018002fdc5 f   user32:USER32.dll
 0001:0002edcb       GetWindowLongPtrW          000000018002fdcb f   user32:USER32.dll
 0001:0002edd1       SetWindowLongPtrW          000000018002fdd1 f   user32:USER32.dll
 0001:0002edd7       GetParent                  000000018002fdd7 f   user32:USER32.dll
 0001:0002eddd       LoadCursorW                000000018002fddd f   user32:USER32.dll
 0001:0002ede3       PeekMessageW               000000018002fde3 f   user32:USER32.dll
 0001:0002ede9       RegisterClassW             000000018002fde9 f   user32:USER32.dll
 0001:0002edef       LoadBitmapW                000000018002fdef f   user32:USER32.dll
 0001:0002edf5       CloseMetaFile              000000018002fdf5 f   gdi32:GDI32.dll
 0001:0002edfb       CreateDCW                  000000018002fdfb f   gdi32:GDI32.dll
 0001:0002ee01       CreateMetaFileW            000000018002fe01 f   gdi32:GDI32.dll
 0001:0002ee07       CreateRectRgnIndirect      000000018002fe07 f   gdi32:GDI32.dll
 0001:0002ee0d       DeleteDC                   000000018002fe0d f   gdi32:GDI32.dll
 0001:0002ee13       DeleteMetaFile             000000018002fe13 f   gdi32:GDI32.dll
 0001:0002ee19       GetDeviceCaps              000000018002fe19 f   gdi32:GDI32.dll
 0001:0002ee1f       RestoreDC                  000000018002fe1f f   gdi32:GDI32.dll
 0001:0002ee25       SaveDC                     000000018002fe25 f   gdi32:GDI32.dll
 0001:0002ee2b       SetMapMode                 000000018002fe2b f   gdi32:GDI32.dll
 0001:0002ee31       LPtoDP                     000000018002fe31 f   gdi32:GDI32.dll
 0001:0002ee37       SetViewportOrgEx           000000018002fe37 f   gdi32:GDI32.dll
 0001:0002ee3d       SetWindowExtEx             000000018002fe3d f   gdi32:GDI32.dll
 0001:0002ee43       SetWindowOrgEx             000000018002fe43 f   gdi32:GDI32.dll
 0001:0002ee49       BitBlt                     000000018002fe49 f   gdi32:GDI32.dll
 0001:0002ee4f       CreateCompatibleDC         000000018002fe4f f   gdi32:GDI32.dll
 0001:0002ee55       DeleteObject               000000018002fe55 f   gdi32:GDI32.dll
 0001:0002ee5b       SelectObject               000000018002fe5b f   gdi32:GDI32.dll
 0001:0002ee61       GetObjectW                 000000018002fe61 f   gdi32:GDI32.dll
 0001:0002ee67       RegCloseKey                000000018002fe67 f   advapi32:ADVAPI32.dll
 0001:0002ee6d       RegCreateKeyExW            000000018002fe6d f   advapi32:ADVAPI32.dll
 0001:0002ee73       RegDeleteKeyW              000000018002fe73 f   advapi32:ADVAPI32.dll
 0001:0002ee79       RegDeleteValueW            000000018002fe79 f   advapi32:ADVAPI32.dll
 0001:0002ee7f       RegEnumKeyExW              000000018002fe7f f   advapi32:ADVAPI32.dll
 0001:0002ee85       RegOpenKeyExW              000000018002fe85 f   advapi32:ADVAPI32.dll
 0001:0002ee8b       RegQueryInfoKeyW           000000018002fe8b f   advapi32:ADVAPI32.dll
 0001:0002ee91       RegSetValueExW             000000018002fe91 f   advapi32:ADVAPI32.dll
 0001:0002ee97       RegQueryValueExW           000000018002fe97 f   advapi32:ADVAPI32.dll
 0001:0002ee9d       CoCreateInstance           000000018002fe9d f   ole32:ole32.dll
 0001:0002eea3       StringFromGUID2            000000018002fea3 f   ole32:ole32.dll
 0001:0002eea9       CoTaskMemAlloc             000000018002fea9 f   ole32:ole32.dll
 0001:0002eeaf       CoTaskMemRealloc           000000018002feaf f   ole32:ole32.dll
 0001:0002eeb5       CoTaskMemFree              000000018002feb5 f   ole32:ole32.dll
 0001:0002eebb       ReadClassStm               000000018002febb f   ole32:ole32.dll
 0001:0002eec1       WriteClassStm              000000018002fec1 f   ole32:ole32.dll
 0001:0002eec7       CreateDataAdviseHolder     000000018002fec7 f   ole32:ole32.dll
 0001:0002eecd       OleSaveToStream            000000018002fecd f   ole32:ole32.dll
 0001:0002eed3       CreateOleAdviseHolder      000000018002fed3 f   ole32:ole32.dll
 0001:0002eed9       OleRegGetUserType          000000018002fed9 f   ole32:ole32.dll
 0001:0002eedf       OleRegGetMiscStatus        000000018002fedf f   ole32:ole32.dll
 0001:0002eee5       OleRegEnumVerbs            000000018002fee5 f   ole32:ole32.dll
 0001:0002eeeb       CLSIDFromProgID            000000018002feeb f   ole32:ole32.dll
 0001:0002eef1       SysAllocString             000000018002fef1 f   oleaut32:OLEAUT32.dll
 0001:0002eef7       SysAllocStringLen          000000018002fef7 f   oleaut32:OLEAUT32.dll
 0001:0002eefd       SysFreeString              000000018002fefd f   oleaut32:OLEAUT32.dll
 0001:0002ef03       SysStringLen               000000018002ff03 f   oleaut32:OLEAUT32.dll
 0001:0002ef09       VariantClear               000000018002ff09 f   oleaut32:OLEAUT32.dll
 0001:0002ef0f       VariantCopyInd             000000018002ff0f f   oleaut32:OLEAUT32.dll
 0001:0002ef15       VariantChangeType          000000018002ff15 f   oleaut32:OLEAUT32.dll
 0001:0002ef1b       SysStringByteLen           000000018002ff1b f   oleaut32:OLEAUT32.dll
 0001:0002ef21       SysAllocStringByteLen      000000018002ff21 f   oleaut32:OLEAUT32.dll
 0001:0002ef27       VariantInit                000000018002ff27 f   oleaut32:OLEAUT32.dll
 0001:0002ef2d       VarUI4FromStr              000000018002ff2d f   oleaut32:OLEAUT32.dll
 0001:0002ef33       LoadTypeLib                000000018002ff33 f   oleaut32:OLEAUT32.dll
 0001:0002ef39       LoadRegTypeLib             000000018002ff39 f   oleaut32:OLEAUT32.dll
 0001:0002ef3f       RegisterTypeLib            000000018002ff3f f   oleaut32:OLEAUT32.dll
 0001:0002ef45       UnRegisterTypeLib          000000018002ff45 f   oleaut32:OLEAUT32.dll
 0001:0002ef4b       OleCreatePropertyFrame     000000018002ff4b f   oleaut32:OLEAUT32.dll
 0001:0002ef60       _RTC_AllocaHelper          000000018002ff60 f   LIBCMTD:stack.obj
 0001:0002efa0       _RTC_CheckStackVars        000000018002ffa0 f   LIBCMTD:stack.obj
 0001:0002f030       _RTC_CheckStackVars2       0000000180030030 f   LIBCMTD:stack.obj
 0001:0002f140       _CRT_RTC_INIT              0000000180030140 f   LIBCMTD:init.obj
 0001:0002f150       _CRT_RTC_INITW             0000000180030150 f   LIBCMTD:init.obj
 0001:0002f160       _RTC_InitBase              0000000180030160 f   LIBCMTD:init.obj
 0001:0002f1a0       _RTC_Shutdown              00000001800301a0 f   LIBCMTD:init.obj
 0001:0002f1d0       __GSHandlerCheck           00000001800301d0 f   LIBCMTD:gshandler.obj
 0001:0002f210       __GSHandlerCheckCommon     0000000180030210 f   LIBCMTD:gshandler.obj
 0001:0002f320       __security_check_cookie    0000000180030320 f   LIBCMTD:amdsecgs.obj
 0001:0002f340       ??_U@YAPEAX_K@Z            0000000180030340 f   LIBCMTD:new_array.obj
 0001:0002f360       ??3@YAXPEAX_K@Z            0000000180030360 f   LIBCMTD:delete_scalar_size.obj
 0001:0002f380       ??_V@YAXPEAX@Z             0000000180030380 f   LIBCMTD:delete_array.obj
 0001:0002f3a0       ??_V@YAXPEAX_K@Z           00000001800303a0 f   LIBCMTD:delete_array_size.obj
 0001:0002f3c0       ?configure_argv@__scrt_narrow_argv_policy@@SAHXZ 00000001800303c0 f i LIBCMTD:utility.obj
 0001:0002f4b0       ?initialize_environment@__scrt_narrow_environment_policy@@SAHXZ 00000001800304b0 f i LIBCMTD:utility.obj
 0001:0002f550       NtCurrentTeb               0000000180030550 f i LIBCMTD:utility.obj
 0001:0002f560       __scrt_acquire_startup_lock 0000000180030560 f   LIBCMTD:utility.obj
 0001:0002f5d0       __scrt_dllmain_after_initialize_c 00000001800305d0 f   LIBCMTD:utility.obj
 0001:0002f600       __scrt_dllmain_before_initialize_c 0000000180030600 f   LIBCMTD:utility.obj
 0001:0002f620       __scrt_dllmain_crt_thread_attach 0000000180030620 f   LIBCMTD:utility.obj
 0001:0002f650       __scrt_dllmain_crt_thread_detach 0000000180030650 f   LIBCMTD:utility.obj
 0001:0002f670       __scrt_dllmain_exception_filter 0000000180030670 f   LIBCMTD:utility.obj
 0001:0002f6e0       __scrt_dllmain_uninitialize_c 00000001800306e0 f   LIBCMTD:utility.obj
 0001:0002f710       __scrt_dllmain_uninitialize_critical 0000000180030710 f   LIBCMTD:utility.obj
 0001:0002f730       __scrt_initialize_crt      0000000180030730 f   LIBCMTD:utility.obj
 0001:0002f780       __scrt_initialize_onexit_tables 0000000180030780 f   LIBCMTD:utility.obj
 0001:0002f890       __scrt_is_nonwritable_in_current_image 0000000180030890 f   LIBCMTD:utility.obj
 0001:0002f920       __scrt_release_startup_lock 0000000180030920 f   LIBCMTD:utility.obj
 0001:0002f950       __scrt_uninitialize_crt    0000000180030950 f   LIBCMTD:utility.obj
 0001:0002f990       _onexit                    0000000180030990 f   LIBCMTD:utility.obj
 0001:0002fa10       at_quick_exit              0000000180030a10 f   LIBCMTD:utility.obj
 0001:0002fa60       atexit                     0000000180030a60 f   LIBCMTD:utility.obj
 0001:0002faa0       ??3@YAXPEAX@Z              0000000180030aa0 f   LIBCMTD:delete_scalar.obj
 0001:0002fac0       __raise_securityfailure    0000000180030ac0 f   LIBCMTD:gs_report.obj
 0001:0002fb00       __report_gsfailure         0000000180030b00 f   LIBCMTD:gs_report.obj
 0001:0002fbe0       __report_rangecheckfailure 0000000180030be0 f   LIBCMTD:gs_report.obj
 0001:0002fc00       __report_securityfailure   0000000180030c00 f   LIBCMTD:gs_report.obj
 0001:0002fca0       __report_securityfailureEx 0000000180030ca0 f   LIBCMTD:gs_report.obj
 0001:00030060       _Init_thread_abort         0000000180031060 f   LIBCMTD:thread_safe_statics.obj
 0001:00030090       _Init_thread_footer        0000000180031090 f   LIBCMTD:thread_safe_statics.obj
 0001:000300f0       _Init_thread_header        00000001800310f0 f   LIBCMTD:thread_safe_statics.obj
 0001:00030180       _Init_thread_lock          0000000180031180 f   LIBCMTD:thread_safe_statics.obj
 0001:000301a0       _Init_thread_notify        00000001800311a0 f   LIBCMTD:thread_safe_statics.obj
 0001:00030200       _Init_thread_unlock        0000000180031200 f   LIBCMTD:thread_safe_statics.obj
 0001:00030220       _Init_thread_wait          0000000180031220 f   LIBCMTD:thread_safe_statics.obj
 0001:000302d0       ??2@YAPEAX_KAEBUnothrow_t@std@@@Z 00000001800312d0 f   LIBCMTD:new_scalar_nothrow.obj
 0001:00030310       ??_U@YAPEAX_KAEBUnothrow_t@std@@@Z 0000000180031310 f   LIBCMTD:new_array_nothrow.obj
 0001:00030340       __GSHandlerCheck_SEH       0000000180031340 f   LIBCMTD:gshandlerseh.obj
 0001:00030410       __chkstk                   0000000180031410 f   LIBCMTD:chkstk.obj
 0001:00030410       _alloca_probe              0000000180031410 f   LIBCMTD:chkstk.obj
 0001:00030870       _CRT_INIT                  0000000180031870 f   LIBCMTD:dll_dllmain.obj
 0001:000308a0       _DllMainCRTStartup         00000001800318a0 f   LIBCMTD:dll_dllmain.obj
 0001:00030970       ?_RTC_AllocaFailure@@YAXPEAXPEAU_RTC_ALLOCA_NODE@@H@Z 0000000180031970 f   LIBCMTD:error.obj
 0001:00030ad0       ?_RTC_Failure@@YAXPEAXH@Z  0000000180031ad0 f   LIBCMTD:error.obj
 0001:00030b20       ?_RTC_StackFailure@@YAXPEAXPEBD@Z 0000000180031b20 f   LIBCMTD:error.obj
 0001:00030f50       _RTC_UninitUse             0000000180031f50 f   LIBCMTD:error.obj
 0001:00031020       _vsprintf_s_l              0000000180032020 f i LIBCMTD:error.obj
 0001:00031090       sprintf_s                  0000000180032090 f i LIBCMTD:error.obj
 0001:000310c0       ?_RTC_GetErrorFunc@@YAP6AHHPEBDH00ZZPEBX@Z 00000001800320c0 f   LIBCMTD:userapi.obj
 0001:000310d0       ?_RTC_GetErrorFuncW@@YAP6AHHPEB_WH00ZZPEBX@Z 00000001800320d0 f   LIBCMTD:userapi.obj
 0001:000310e0       _RTC_GetErrDesc            00000001800320e0 f   LIBCMTD:userapi.obj
 0001:00031100       _RTC_NumErrors             0000000180032100 f   LIBCMTD:userapi.obj
 0001:00031110       _RTC_SetErrorFunc          0000000180032110 f   LIBCMTD:userapi.obj
 0001:00031130       _RTC_SetErrorFuncW         0000000180032130 f   LIBCMTD:userapi.obj
 0001:00031150       _RTC_SetErrorType          0000000180032150 f   LIBCMTD:userapi.obj
 0001:00031170       ??2@YAPEAX_K@Z             0000000180032170 f   LIBCMTD:new_scalar.obj
 0001:000311c0       __isa_available_init       00000001800321c0 f   LIBCMTD:cpu_disp.obj
 0001:00031560       _get_startup_argv_mode     0000000180032560 f   LIBCMTD:argv_mode.obj
 0001:00031570       __scrt_is_ucrt_dll_in_use  0000000180032570 f   LIBCMTD:ucrt_detection.obj
 0001:000315a0       __crt_debugger_hook        00000001800325a0 f   LIBCMTD:utility_desktop.obj
 0001:000315b0       __scrt_fastfail            00000001800325b0 f   LIBCMTD:utility_desktop.obj
 0001:00031750       __scrt_get_show_window_mode 0000000180032750 f   LIBCMTD:utility_desktop.obj
 0001:000317b0       __scrt_initialize_mta      00000001800327b0 f   LIBCMTD:utility_desktop.obj
 0001:000317c0       __scrt_initialize_winrt    00000001800327c0 f   LIBCMTD:utility_desktop.obj
 0001:000317d0       __scrt_is_managed_app      00000001800327d0 f   LIBCMTD:utility_desktop.obj
 0001:00031880       __scrt_set_unhandled_exception_filter 0000000180032880 f   LIBCMTD:utility_desktop.obj
 0001:000318a0       __scrt_exe_initialize_mta  00000001800328a0 f   LIBCMTD:utility_desktop.obj
 0001:000318a0       __scrt_stub_for_initialize_mta 00000001800328a0 f   LIBCMTD:utility_desktop.obj
 0001:000318b0       __scrt_unhandled_exception_filter 00000001800328b0 f   LIBCMTD:utility_desktop.obj
 0001:00031950       _guard_check_icall_nop     0000000180032950 f i LIBCMTD:guard_support.obj
 0001:00031960       ReadNoFence64              0000000180032960 f i LIBCMTD:guard_support.obj
 0001:00031980       ReadPointerNoFence         0000000180032980 f i LIBCMTD:guard_support.obj
 0001:000319a0       __castguard_check_failure_debugbreak 00000001800329a0 f i LIBCMTD:guard_support.obj
 0001:000319c0       __castguard_check_failure_fastfail 00000001800329c0 f i LIBCMTD:guard_support.obj
 0001:000319f0       __castguard_check_failure_nop 00000001800329f0 f i LIBCMTD:guard_support.obj
 0001:00031a00       __castguard_check_failure_os_handled 0000000180032a00 f i LIBCMTD:guard_support.obj
 0001:00031ad0       __castguard_slow_path_check_debugbreak 0000000180032ad0 f i LIBCMTD:guard_support.obj
 0001:00031b10       __castguard_slow_path_check_fastfail 0000000180032b10 f i LIBCMTD:guard_support.obj
 0001:00031b60       __castguard_slow_path_check_nop 0000000180032b60 f i LIBCMTD:guard_support.obj
 0001:00031b70       __castguard_slow_path_check_os_handled 0000000180032b70 f i LIBCMTD:guard_support.obj
 0001:00031c30       _guard_icall_checks_enforced 0000000180032c30 f i LIBCMTD:guard_support.obj
 0001:00031c70       _guard_rf_checks_enforced  0000000180032c70 f i LIBCMTD:guard_support.obj
 0001:00031d40       __security_init_cookie     0000000180032d40 f   LIBCMTD:gs_support.obj
 0001:00031dc0       ?__scrt_initialize_type_info@@YAXXZ 0000000180032dc0 f   LIBCMTD:tncleanup.obj
 0001:00031de0       ?__scrt_uninitialize_type_info@@YAXXZ 0000000180032de0 f   LIBCMTD:tncleanup.obj
 0001:00031e00       __local_stdio_scanf_options 0000000180032e00 f i LIBCMTD:default_local_stdio_options.obj
 0001:00031e10       __scrt_initialize_default_local_stdio_options 0000000180032e10 f   LIBCMTD:default_local_stdio_options.obj
 0001:00031e60       __scrt_get_dyn_tls_init_callback 0000000180032e60 f   LIBCMTD:dyn_tls_init.obj
 0001:00031e70       _RTC_Initialize            0000000180032e70 f   LIBCMTD:initsect.obj
 0001:00031ec0       _RTC_Terminate             0000000180032ec0 f   LIBCMTD:initsect.obj
 0001:00032430       ?_RTC_GetSrcLine@@YAHPEAEPEA_WKPEAH1K@Z 0000000180033430 f   LIBCMTD:pdblkup.obj
 0001:00032800       ??0bad_alloc@std@@AEAA@QEBD@Z 0000000180033800 f i LIBCMTD:throw_bad_alloc.obj
 0001:00032840       ??0bad_alloc@std@@QEAA@AEBV01@@Z 0000000180033840 f i LIBCMTD:throw_bad_alloc.obj
 0001:00032880       ??0bad_alloc@std@@QEAA@XZ  0000000180033880 f i LIBCMTD:throw_bad_alloc.obj
 0001:000328c0       ??0bad_array_new_length@std@@QEAA@AEBV01@@Z 00000001800338c0 f i LIBCMTD:throw_bad_alloc.obj
 0001:00032900       ??0bad_array_new_length@std@@QEAA@XZ 0000000180033900 f i LIBCMTD:throw_bad_alloc.obj
 0001:00032940       ??0exception@std@@QEAA@AEBV01@@Z 0000000180033940 f i LIBCMTD:throw_bad_alloc.obj
 0001:000329a0       ??0exception@std@@QEAA@QEBDH@Z 00000001800339a0 f i LIBCMTD:throw_bad_alloc.obj
 0001:000329f0       ??1bad_alloc@std@@UEAA@XZ  00000001800339f0 f i LIBCMTD:throw_bad_alloc.obj
 0001:00032a10       ??1bad_array_new_length@std@@UEAA@XZ 0000000180033a10 f i LIBCMTD:throw_bad_alloc.obj
 0001:00032a30       ??1exception@std@@UEAA@XZ  0000000180033a30 f i LIBCMTD:throw_bad_alloc.obj
 0001:00032a60       ??_Ebad_alloc@std@@UEAAPEAXI@Z 0000000180033a60 f i LIBCMTD:throw_bad_alloc.obj
 0001:00032a60       ??_Gbad_alloc@std@@UEAAPEAXI@Z 0000000180033a60 f i LIBCMTD:throw_bad_alloc.obj
 0001:00032aa0       ??_Ebad_array_new_length@std@@UEAAPEAXI@Z 0000000180033aa0 f i LIBCMTD:throw_bad_alloc.obj
 0001:00032aa0       ??_Gbad_array_new_length@std@@UEAAPEAXI@Z 0000000180033aa0 f i LIBCMTD:throw_bad_alloc.obj
 0001:00032ae0       ??_Eexception@std@@UEAAPEAXI@Z 0000000180033ae0 f i LIBCMTD:throw_bad_alloc.obj
 0001:00032ae0       ??_Gexception@std@@UEAAPEAXI@Z 0000000180033ae0 f i LIBCMTD:throw_bad_alloc.obj
 0001:00032b20       ?__scrt_throw_std_bad_alloc@@YAXXZ 0000000180033b20 f   LIBCMTD:throw_bad_alloc.obj
 0001:00032b50       ?__scrt_throw_std_bad_array_new_length@@YAXXZ 0000000180033b50 f   LIBCMTD:throw_bad_alloc.obj
 0001:00032b80       ?what@exception@std@@UEBAPEBDXZ 0000000180033b80 f i LIBCMTD:throw_bad_alloc.obj
 0001:00032bc0       ??1type_info@@UEAA@XZ      0000000180033bc0 f   LIBCMTD:std_type_info_static.obj
 0001:00032be0       ??_Gtype_info@@UEAAPEAXI@Z 0000000180033be0 f i LIBCMTD:std_type_info_static.obj
 0001:00032be0       ??_Etype_info@@UEAAPEAXI@Z 0000000180033be0 f i LIBCMTD:std_type_info_static.obj
 0001:00032c1c       ??$?2PEAUHINSTANCE__@@@Wrapper@?$CSimpleArray@PEAUHINSTANCE__@@V?$CSimpleArrayEqualHelper@PEAUHINSTANCE__@@@ATL@@@ATL@@SAPEAX_KPEAPEAUHINSTANCE__@@@Z 0000000180033c1c f i atls:atlbase.obj
 0001:00032c20       ??0?$CSimpleArray@PEAUHINSTANCE__@@V?$CSimpleArrayEqualHelper@PEAUHINSTANCE__@@@ATL@@@ATL@@QEAA@XZ 0000000180033c20 f i atls:atlbase.obj
 0001:00032c30       ??0CAtlBaseModule@ATL@@QEAA@XZ 0000000180033c30 f   atls:atlbase.obj
 0001:00032cd8       ??0Wrapper@?$CSimpleArray@PEAUHINSTANCE__@@V?$CSimpleArrayEqualHelper@PEAUHINSTANCE__@@@ATL@@@ATL@@QEAA@AEBQEAUHINSTANCE__@@@Z 0000000180033cd8 f i atls:atlbase.obj
 0001:00032ce4       ??0_ATL_BASE_MODULE70@ATL@@QEAA@XZ 0000000180033ce4 f i atls:atlbase.obj
 0001:00032d10       ??1?$CSimpleArray@PEAUHINSTANCE__@@V?$CSimpleArrayEqualHelper@PEAUHINSTANCE__@@@ATL@@@ATL@@QEAA@XZ 0000000180033d10 f i atls:atlbase.obj
 0001:00032d38       ??1CAtlBaseModule@ATL@@QEAA@XZ 0000000180033d38 f   atls:atlbase.obj
 0001:00032d6c       ??1_ATL_BASE_MODULE70@ATL@@QEAA@XZ 0000000180033d6c f i atls:atlbase.obj
 0001:00032d98       ??A?$CSimpleArray@PEAUHINSTANCE__@@V?$CSimpleArrayEqualHelper@PEAUHINSTANCE__@@@ATL@@@ATL@@QEAAAEAPEAUHINSTANCE__@@H@Z 0000000180033d98 f i atls:atlbase.obj
 0001:00032dc4       ?Add@?$CSimpleArray@PEAUHINSTANCE__@@V?$CSimpleArrayEqualHelper@PEAUHINSTANCE__@@@ATL@@@ATL@@QEAAHAEBQEAUHINSTANCE__@@@Z 0000000180033dc4 f i atls:atlbase.obj
 0001:00032e64       ?AddResourceInstance@CAtlBaseModule@ATL@@QEAA_NPEAUHINSTANCE__@@@Z 0000000180033e64 f   atls:atlbase.obj
 0001:00032eac       ?GetHInstanceAt@CAtlBaseModule@ATL@@QEAAPEAUHINSTANCE__@@H@Z 0000000180033eac f   atls:atlbase.obj
 0001:00032f24       ?GetSize@?$CSimpleArray@PEAUHINSTANCE__@@V?$CSimpleArrayEqualHelper@PEAUHINSTANCE__@@@ATL@@@ATL@@QEBAHXZ 0000000180033f24 f i atls:atlbase.obj
 0001:00032f28       ?InternalSetAtIndex@?$CSimpleArray@PEAUHINSTANCE__@@V?$CSimpleArrayEqualHelper@PEAUHINSTANCE__@@@ATL@@@ATL@@QEAAXHAEBQEAUHINSTANCE__@@@Z 0000000180033f28 f i atls:atlbase.obj
 0001:00032f40       ?RemoveAll@?$CSimpleArray@PEAUHINSTANCE__@@V?$CSimpleArrayEqualHelper@PEAUHINSTANCE__@@@ATL@@@ATL@@QEAAXXZ 0000000180033f40 f i atls:atlbase.obj
 0001:00032f68       ?RemoveAt@?$CSimpleArray@PEAUHINSTANCE__@@V?$CSimpleArrayEqualHelper@PEAUHINSTANCE__@@@ATL@@@ATL@@QEAAHH@Z 0000000180033f68 f i atls:atlbase.obj
 0001:00033000       ?RemoveResourceInstance@CAtlBaseModule@ATL@@QEAA_NPEAUHINSTANCE__@@@Z 0000000180034000 f   atls:atlbase.obj
 0001:00033088       ?memmove_s@Checked@ATL@@YAXPEAX_KPEBX1@Z 0000000180034088 f i atls:atlbase.obj
 0001:00033530       ?GetCodeAddress@_stdcallthunk@ATL@@QEAAPEAXXZ 0000000180034530 f i atls:atlthunk.obj
 0001:0003355c       ?Init@_stdcallthunk@ATL@@QEAAH_KPEAX@Z 000000018003455c f i atls:atlthunk.obj
 0001:000335ac       ?__AllocStdCallThunk@@YAPEAXXZ 00000001800345ac f   atls:atlthunk.obj
 0001:000335b4       ?__AllocStdCallThunk@ATL@@YAPEAXXZ 00000001800345b4 f   atls:atlthunk.obj
 0001:000335bc       ?__AllocStdCallThunk_cmn@@YAPEAXXZ 00000001800345bc f   atls:atlthunk.obj
 0001:00033694       ?__FreeStdCallThunk@@YAXPEAX@Z 0000000180034694 f   atls:atlthunk.obj
 0001:000336b4       ?__FreeStdCallThunk@ATL@@YAXPEAX@Z 00000001800346b4 f   atls:atlthunk.obj
 0001:000336d4       ?__FreeStdCallThunk_cmn@@YAXPEAX@Z 00000001800346d4 f   atls:atlthunk.obj
 0001:00033774       AtlThunk_AllocateData      0000000180034774 f   atls:atlthunk.obj
 0001:000337f0       AtlThunk_DataToCode        00000001800347f0 f   atls:atlthunk.obj
 0001:00033844       AtlThunk_FreeData          0000000180034844 f   atls:atlthunk.obj
 0001:000338a4       AtlThunk_InitData          00000001800348a4 f   atls:atlthunk.obj
 0001:00033960       memset_repmovs             0000000180034960 f   libvcruntimed:memset.obj
 0001:00033980       memset                     0000000180034980 f   libvcruntimed:memset.obj
 0001:00033b10       ??$__crt_interlocked_exchange_pointer@$$A6AXXZP6AXXZ@@YAP6AXXZPEDS6AXXZQ6AXXZ@Z 0000000180034b10 f i libvcruntimed:purevirt.obj
 0001:00033b30       ??$__crt_interlocked_read_pointer@$$A6AXXZ@@YAP6AXXZPEDS6AXXZ@Z 0000000180034b30 f i libvcruntimed:purevirt.obj
 0001:00033b50       ?__crt_interlocked_read_64@@YA_JPED_J@Z 0000000180034b50 f i libvcruntimed:purevirt.obj
 0001:00033b70       _get_purecall_handler      0000000180034b70 f   libvcruntimed:purevirt.obj
 0001:00033b90       _purecall                  0000000180034b90 f   libvcruntimed:purevirt.obj
 0001:00033bd0       _set_purecall_handler      0000000180034bd0 f   libvcruntimed:purevirt.obj
 0001:00033c00       memcmp                     0000000180034c00 f   libvcruntimed:memcmp.obj
 0001:00033ce0       memcpy_repmovs             0000000180034ce0 f   libvcruntimed:memcpy.obj
 0001:00033d00       memcpy                     0000000180034d00 f   libvcruntimed:memcpy.obj
 0001:00033d00       memmove                    0000000180034d00 f   libvcruntimed:memcpy.obj
 0001:00034380       wcsstr                     0000000180035380 f   libvcruntimed:wcsstr.obj
 0001:000349e0       __vcrt_initialize          00000001800359e0 f   libvcruntimed:initialization.obj
 0001:00034a20       __vcrt_thread_attach       0000000180035a20 f   libvcruntimed:initialization.obj
 0001:00034a40       __vcrt_thread_detach       0000000180035a40 f   libvcruntimed:initialization.obj
 0001:00034a60       __vcrt_uninitialize        0000000180035a60 f   libvcruntimed:initialization.obj
 0001:00034a80       __vcrt_uninitialize_critical 0000000180035a80 f   libvcruntimed:initialization.obj
 0001:00034aa0       __C_specific_handler       0000000180035aa0 f   libvcruntimed:riscchandler.obj
 0001:00034f10       ??$?0AEAViterator@TryBlockMap4@FH4@@AEAV012@$0A@@?$pair@Viterator@TryBlockMap4@FH4@@V123@@std@@QEAA@AEAViterator@TryBlockMap4@FH4@@0@Z 0000000180035f10 f i libvcruntimed:risctrnsctrl.obj
 0001:00034f70       ??$?0AEAViterator@TryBlockMap@__FrameHandler3@@AEAV012@$0A@@?$pair@Viterator@TryBlockMap@__FrameHandler3@@V123@@std@@QEAA@AEAViterator@TryBlockMap@__FrameHandler3@@0@Z 0000000180035f70 f i libvcruntimed:risctrnsctrl.obj
 0001:00035140       ??$_CallSETranslator@V__FrameHandler3@@@@YAHPEAUEHExceptionRecord@@PEA_KPEAU_CONTEXT@@PEAU_xDISPATCHER_CONTEXT@@PEBU_s_FuncInfo@@K1H@Z 0000000180036140 f i libvcruntimed:risctrnsctrl.obj
 0001:000351d0       ??$_CallSETranslator@V__FrameHandler4@@@@YAHPEAUEHExceptionRecord@@PEA_KPEAU_CONTEXT@@PEAU_xDISPATCHER_CONTEXT@@PEAUFuncInfo4@FH4@@K1H@Z 00000001800361d0 f i libvcruntimed:risctrnsctrl.obj
 0001:00035260       ??$forward@AEAViterator@TryBlockMap4@FH4@@@std@@YAAEAViterator@TryBlockMap4@FH4@@AEAV123@@Z 0000000180036260 f i libvcruntimed:risctrnsctrl.obj
 0001:00035270       ??$forward@AEAViterator@TryBlockMap@__FrameHandler3@@@std@@YAAEAViterator@TryBlockMap@__FrameHandler3@@AEAV123@@Z 0000000180036270 f i libvcruntimed:risctrnsctrl.obj
 0001:00035280       ??0FuncInfo4@FH4@@QEAA@XZ  0000000180036280 f i libvcruntimed:risctrnsctrl.obj
 0001:000352f0       ??0FuncInfoHeader@FH4@@QEAA@XZ 00000001800362f0 f i libvcruntimed:risctrnsctrl.obj
 0001:00035310       ??0iterator@TryBlockMap4@FH4@@QEAA@AEAV12@I@Z 0000000180036310 f i libvcruntimed:risctrnsctrl.obj
 0001:00035340       ??0iterator@TryBlockMap@__FrameHandler3@@QEAA@AEAV12@I@Z 0000000180036340 f i libvcruntimed:risctrnsctrl.obj
 0001:00035370       ??4iterator@TryBlockMap4@FH4@@QEAAAEAV012@AEBV012@@Z 0000000180036370 f i libvcruntimed:risctrnsctrl.obj
 0001:00035390       ??9iterator@TryBlockMap4@FH4@@QEBA_NAEBV012@@Z 0000000180036390 f i libvcruntimed:risctrnsctrl.obj
 0001:000353d0       ??Diterator@TryBlockMap4@FH4@@QEAA?AUTryBlockMapEntry4@2@XZ 00000001800363d0 f i libvcruntimed:risctrnsctrl.obj
 0001:00035400       ??Eiterator@TryBlockMap4@FH4@@QEAAAEAV012@XZ 0000000180036400 f i libvcruntimed:risctrnsctrl.obj
 0001:00035440       ?CatchTryBlock@__FrameHandler3@@SAPEBU_s_TryBlockMapEntry@@PEBU_s_FuncInfo@@H@Z 0000000180036440 f   libvcruntimed:risctrnsctrl.obj
 0001:000354d0       ?DecompFuncInfo@FH4@@YA_JPEAEAEAUFuncInfo4@1@_KH@Z 00000001800364d0 f i libvcruntimed:risctrnsctrl.obj
 0001:00035510       ?DecompFuncInfo@FH4@@YA_JPEAEAEAUFuncInfo4@1@_KH_N@Z 0000000180036510 f i libvcruntimed:risctrnsctrl.obj
 0001:000356e0       ?DecompTryBlock@TryBlockMap4@FH4@@AEAAXXZ 00000001800366e0 f i libvcruntimed:risctrnsctrl.obj
 0001:00035760       ?ExecutionInCatch@__FrameHandler3@@SA_NPEAU_xDISPATCHER_CONTEXT@@PEBU_s_FuncInfo@@@Z 0000000180036760 f   libvcruntimed:risctrnsctrl.obj
 0001:000357b0       ?ExecutionInCatch@__FrameHandler4@@SA_NPEAU_xDISPATCHER_CONTEXT@@PEAUFuncInfo4@FH4@@@Z 00000001800367b0 f   libvcruntimed:risctrnsctrl.obj
 0001:000357d0       ?FrameUnwindToEmptyState@__FrameHandler3@@SAXPEA_KPEAU_xDISPATCHER_CONTEXT@@PEBU_s_FuncInfo@@@Z 00000001800367d0 f   libvcruntimed:risctrnsctrl.obj
 0001:00035870       ?FrameUnwindToEmptyState@__FrameHandler4@@SAXPEA_KPEAU_xDISPATCHER_CONTEXT@@PEAUFuncInfo4@FH4@@@Z 0000000180036870 f   libvcruntimed:risctrnsctrl.obj
 0001:000358c0       ?GetEstablisherFrame@__FrameHandler3@@SAPEA_KPEA_KPEAU_xDISPATCHER_CONTEXT@@PEBU_s_FuncInfo@@0@Z 00000001800368c0 f   libvcruntimed:risctrnsctrl.obj
 0001:00035a30       ?GetEstablisherFrame@__FrameHandler4@@SAPEA_KPEA_KPEAU_xDISPATCHER_CONTEXT@@PEAUFuncInfo4@FH4@@0@Z 0000000180036a30 f   libvcruntimed:risctrnsctrl.obj
 0001:00035aa0       ?GetRangeOfTrysToCheck@__FrameHandler3@@SA?AU?$pair@Viterator@TryBlockMap@__FrameHandler3@@V123@@std@@AEAVTryBlockMap@1@HPEAU_xDISPATCHER_CONTEXT@@PEBU_s_FuncInfo@@H@Z 0000000180036aa0 f   libvcruntimed:risctrnsctrl.obj
 0001:00035ce0       ?GetRangeOfTrysToCheck@__FrameHandler4@@SA?AU?$pair@Viterator@TryBlockMap4@FH4@@V123@@std@@AEAVTryBlockMap4@FH4@@HPEAU_xDISPATCHER_CONTEXT@@PEAUFuncInfo4@5@H@Z 0000000180036ce0 f   libvcruntimed:risctrnsctrl.obj
 0001:00035e90       ?ReadInt@FH4@@YAHPEAPEAE@Z 0000000180036e90 f i libvcruntimed:risctrnsctrl.obj
 0001:00035ed0       ?ReadUnsigned@FH4@@YAIPEAPEAE@Z 0000000180036ed0 f i libvcruntimed:risctrnsctrl.obj
 0001:00035f60       ?UnwindNestedFrames@__FrameHandler3@@SAXPEA_KPEAUEHExceptionRecord@@PEAU_CONTEXT@@0PEAXPEBU_s_FuncInfo@@HHPEBU_s_HandlerType@@PEAU_xDISPATCHER_CONTEXT@@E@Z 0000000180036f60 f   libvcruntimed:risctrnsctrl.obj
 0001:000360d0       ?UnwindNestedFrames@__FrameHandler4@@SAXPEA_KPEAUEHExceptionRecord@@PEAU_CONTEXT@@0PEAXPEAUFuncInfo4@FH4@@HHPEAUHandlerType4@5@PEAU_xDISPATCHER_CONTEXT@@E@Z 00000001800370d0 f   libvcruntimed:risctrnsctrl.obj
 0001:000362a0       ?begin@TryBlockMap4@FH4@@QEAA?AViterator@12@XZ 00000001800372a0 f i libvcruntimed:risctrnsctrl.obj
 0001:000362d0       ?end@TryBlockMap4@FH4@@QEAA?AViterator@12@XZ 00000001800372d0 f i libvcruntimed:risctrnsctrl.obj
 0001:00036300       ?imageRelToByteBuffer@FH4@@YAPEAE_KH@Z 0000000180037300 f i libvcruntimed:risctrnsctrl.obj
 0001:00036320       ?incrementToSentinel@iterator@TryBlockMap4@FH4@@QEAAXXZ 0000000180037320 f i libvcruntimed:risctrnsctrl.obj
 0001:00036340       ?setBuffer@TryBlockMap4@FH4@@QEAAXViterator@12@@Z 0000000180037340 f i libvcruntimed:risctrnsctrl.obj
 0001:000363b0       _CreateFrameInfo           00000001800373b0 f   libvcruntimed:risctrnsctrl.obj
 0001:00036420       _FindAndUnlinkFrame        0000000180037420 f   libvcruntimed:risctrnsctrl.obj
 0001:000364a0       _GetImageBase              00000001800374a0 f   libvcruntimed:risctrnsctrl.obj
 0001:000364c0       _GetThrowImageBase         00000001800374c0 f   libvcruntimed:risctrnsctrl.obj
 0001:000364e0       _SetImageBase              00000001800374e0 f   libvcruntimed:risctrnsctrl.obj
 0001:00036500       _SetThrowImageBase         0000000180037500 f   libvcruntimed:risctrnsctrl.obj
 0001:00036520       __CxxFrameHandler          0000000180037520 f   libvcruntimed:risctrnsctrl.obj
 0001:00036560       __CxxFrameHandler2         0000000180037560 f   libvcruntimed:risctrnsctrl.obj
 0001:000365a0       __CxxFrameHandler3         00000001800375a0 f   libvcruntimed:risctrnsctrl.obj
 0001:00036680       __CxxFrameHandler4         0000000180037680 f   libvcruntimed:risctrnsctrl.obj
 0001:00036790       __C_specific_handler_noexcept 0000000180037790 f   libvcruntimed:chandler_noexcept.obj
 0001:00036820       __DestructExceptionObject  0000000180037820 f   libvcruntimed:ehhelpers.obj
 0001:00036920       ?_CallMemberFunction0@@YAXQEAX0@Z 0000000180037920 f i libvcruntimed:ehhelpers.obj
 0001:000369f0       ?raw_name@type_info@@QEBAPEBDXZ 00000001800379f0 f i libvcruntimed:ehhelpers.obj
 0001:00036a00       _IsExceptionObjectToBeDestroyed 0000000180037a00 f   libvcruntimed:ehhelpers.obj
 0001:00036a50       _SetWinRTOutOfMemoryExceptionCallback 0000000180037a50 f   libvcruntimed:ehhelpers.obj
 0001:00036a70       __AdjustPointer            0000000180037a70 f   libvcruntimed:ehhelpers.obj
 0001:00036af0       __FrameUnwindFilter        0000000180037af0 f   libvcruntimed:ehhelpers.obj
 0001:00036ba0       __GetPlatformExceptionInfo 0000000180037ba0 f   libvcruntimed:ehhelpers.obj
 0001:00036c50       __current_exception        0000000180037c50 f   libvcruntimed:ehhelpers.obj
 0001:00036c70       __current_exception_context 0000000180037c70 f   libvcruntimed:ehhelpers.obj
 0001:00036c90       __processing_throw         0000000180037c90 f   libvcruntimed:ehhelpers.obj
 0001:00036cb0       __std_terminate            0000000180037cb0 f   libvcruntimed:ehhelpers.obj
 0001:00036cc0       _is_exception_typeof       0000000180037cc0 f   libvcruntimed:ehhelpers.obj
 0001:00036e50       ??$?RD@__crt_internal_free_policy@@QEBAXQEBD@Z 0000000180037e50 f i libvcruntimed:std_type_info.obj
 0001:00036e80       ??$?RX@__crt_internal_free_policy@@QEBAXQEBX@Z 0000000180037e80 f i libvcruntimed:std_type_info.obj
 0001:00036eb0       ??$__crt_interlocked_compare_exchange_pointer@$$CBDPEAD$$T@@YAPEBDPEDSEBDQEAD$$T@Z 0000000180037eb0 f i libvcruntimed:std_type_info.obj
 0001:00036ef0       ??$__crt_interlocked_read_pointer@$$CBD@@YAPEBDPEDSEBD@Z 0000000180037ef0 f i libvcruntimed:std_type_info.obj
 0001:00036f10       ??0?$__crt_unique_heap_ptr@DU__crt_internal_free_policy@@@@QEAA@QEAD@Z 0000000180037f10 f i libvcruntimed:std_type_info.obj
 0001:00036f30       ??0?$__crt_unique_heap_ptr@XU__crt_internal_free_policy@@@@QEAA@QEAX@Z 0000000180037f30 f i libvcruntimed:std_type_info.obj
 0001:00036f50       ??1?$__crt_unique_heap_ptr@DU__crt_internal_free_policy@@@@QEAA@XZ 0000000180037f50 f i libvcruntimed:std_type_info.obj
 0001:00036f70       ??1?$__crt_unique_heap_ptr@XU__crt_internal_free_policy@@@@QEAA@XZ 0000000180037f70 f i libvcruntimed:std_type_info.obj
 0001:00036f90       ??B?$__crt_unique_heap_ptr@DU__crt_internal_free_policy@@@@QEBA_NXZ 0000000180037f90 f i libvcruntimed:std_type_info.obj
 0001:00036fb0       ??B?$__crt_unique_heap_ptr@XU__crt_internal_free_policy@@@@QEBA_NXZ 0000000180037fb0 f i libvcruntimed:std_type_info.obj
 0001:00037050       ?detach@?$__crt_unique_heap_ptr@XU__crt_internal_free_policy@@@@QEAAPEAXXZ 0000000180038050 f i libvcruntimed:std_type_info.obj
 0001:00037080       ?get@?$__crt_unique_heap_ptr@DU__crt_internal_free_policy@@@@QEBAPEADXZ 0000000180038080 f i libvcruntimed:std_type_info.obj
 0001:00037090       ?get@?$__crt_unique_heap_ptr@XU__crt_internal_free_policy@@@@QEBAPEAXXZ 0000000180038090 f i libvcruntimed:std_type_info.obj
 0001:000370a0       ?is_valid@?$__crt_unique_heap_ptr@DU__crt_internal_free_policy@@@@QEBA_NXZ 00000001800380a0 f i libvcruntimed:std_type_info.obj
 0001:000370d0       ?is_valid@?$__crt_unique_heap_ptr@XU__crt_internal_free_policy@@@@QEBA_NXZ 00000001800380d0 f i libvcruntimed:std_type_info.obj
 0001:00037100       ?release@?$__crt_unique_heap_ptr@DU__crt_internal_free_policy@@@@QEAAXXZ 0000000180038100 f i libvcruntimed:std_type_info.obj
 0001:00037130       ?release@?$__crt_unique_heap_ptr@XU__crt_internal_free_policy@@@@QEAAXXZ 0000000180038130 f i libvcruntimed:std_type_info.obj
 0001:00037160       __std_type_info_compare    0000000180038160 f   libvcruntimed:std_type_info.obj
 0001:000371a0       __std_type_info_destroy_list 00000001800381a0 f   libvcruntimed:std_type_info.obj
 0001:00037200       __std_type_info_hash       0000000180038200 f   libvcruntimed:std_type_info.obj
 0001:000372b0       __std_type_info_name       00000001800382b0 f   libvcruntimed:std_type_info.obj
 0001:00037560       __vcrt_GetModuleFileNameW  0000000180038560 f   libvcruntimed:winapi_thunks.obj
 0001:00037590       __vcrt_GetModuleHandleW    0000000180038590 f   libvcruntimed:winapi_thunks.obj
 0001:000375b0       __vcrt_LoadLibraryExW      00000001800385b0 f   libvcruntimed:winapi_thunks.obj
 0001:000375e0       ??$?RD@__crt_public_free_policy@@QEBAXQEBD@Z 00000001800385e0 f i libvcruntimed:std_exception.obj
 0001:00037600       ??0?$__crt_unique_heap_ptr@DU__crt_public_free_policy@@@@QEAA@QEAD@Z 0000000180038600 f i libvcruntimed:std_exception.obj
 0001:00037620       ??1?$__crt_unique_heap_ptr@DU__crt_public_free_policy@@@@QEAA@XZ 0000000180038620 f i libvcruntimed:std_exception.obj
 0001:00037640       ??B?$__crt_unique_heap_ptr@DU__crt_public_free_policy@@@@QEBA_NXZ 0000000180038640 f i libvcruntimed:std_exception.obj
 0001:00037660       ?detach@?$__crt_unique_heap_ptr@DU__crt_public_free_policy@@@@QEAAPEADXZ 0000000180038660 f i libvcruntimed:std_exception.obj
 0001:00037690       ?get@?$__crt_unique_heap_ptr@DU__crt_public_free_policy@@@@QEBAPEADXZ 0000000180038690 f i libvcruntimed:std_exception.obj
 0001:000376a0       ?is_valid@?$__crt_unique_heap_ptr@DU__crt_public_free_policy@@@@QEBA_NXZ 00000001800386a0 f i libvcruntimed:std_exception.obj
 0001:000376d0       ?release@?$__crt_unique_heap_ptr@DU__crt_public_free_policy@@@@QEAAXXZ 00000001800386d0 f i libvcruntimed:std_exception.obj
 0001:00037700       __std_exception_copy       0000000180038700 f   libvcruntimed:std_exception.obj
 0001:00037840       __std_exception_destroy    0000000180038840 f   libvcruntimed:std_exception.obj
 0001:00037880       _CxxThrowException         0000000180038880 f   libvcruntimed:throw.obj
 0001:000379b0       ??$?RU__vcrt_ptd@@@__crt_internal_free_policy@@QEBAXQEBU__vcrt_ptd@@@Z 00000001800389b0 f i libvcruntimed:per_thread_data.obj
 0001:000379e0       ??0?$__crt_unique_heap_ptr@U__vcrt_ptd@@U__crt_internal_free_policy@@@@QEAA@QEAU__vcrt_ptd@@@Z 00000001800389e0 f i libvcruntimed:per_thread_data.obj
 0001:00037a20       ??1?$__crt_unique_heap_ptr@U__vcrt_ptd@@U__crt_internal_free_policy@@@@QEAA@XZ 0000000180038a20 f i libvcruntimed:per_thread_data.obj
 0001:00037a60       ??B?$__crt_unique_heap_ptr@U__vcrt_ptd@@U__crt_internal_free_policy@@@@QEBA_NXZ 0000000180038a60 f i libvcruntimed:per_thread_data.obj
 0001:00037a80       ?detach@?$__crt_unique_heap_ptr@U__vcrt_ptd@@U__crt_internal_free_policy@@@@QEAAPEAU__vcrt_ptd@@XZ 0000000180038a80 f i libvcruntimed:per_thread_data.obj
 0001:00037ab0       ?get@?$__crt_unique_heap_ptr@U__vcrt_ptd@@U__crt_internal_free_policy@@@@QEBAPEAU__vcrt_ptd@@XZ 0000000180038ab0 f i libvcruntimed:per_thread_data.obj
 0001:00037ac0       ?is_valid@?$__crt_unique_heap_ptr@U__vcrt_ptd@@U__crt_internal_free_policy@@@@QEBA_NXZ 0000000180038ac0 f i libvcruntimed:per_thread_data.obj
 0001:00037af0       ?release@?$__crt_unique_heap_ptr@U__vcrt_ptd@@U__crt_internal_free_policy@@@@QEAAXXZ 0000000180038af0 f i libvcruntimed:per_thread_data.obj
 0001:00037b60       __vcrt_freefls             0000000180038b60 f   libvcruntimed:per_thread_data.obj
 0001:00037ba0       __vcrt_freeptd             0000000180038ba0 f   libvcruntimed:per_thread_data.obj
 0001:00037c00       __vcrt_getptd              0000000180038c00 f   libvcruntimed:per_thread_data.obj
 0001:00037c30       __vcrt_getptd_noexit       0000000180038c30 f   libvcruntimed:per_thread_data.obj
 0001:00037dd0       __vcrt_getptd_noinit       0000000180038dd0 f   libvcruntimed:per_thread_data.obj
 0001:00037e30       __vcrt_initialize_ptd      0000000180038e30 f   libvcruntimed:per_thread_data.obj
 0001:00037e80       __vcrt_uninitialize_ptd    0000000180038e80 f   libvcruntimed:per_thread_data.obj
 0001:00037eb0       __vcrt_initialize_locks    0000000180038eb0 f   libvcruntimed:locks.obj
 0001:00037f20       __vcrt_lock                0000000180038f20 f   libvcruntimed:locks.obj
 0001:00037f50       __vcrt_uninitialize_locks  0000000180038f50 f   libvcruntimed:locks.obj
 0001:00037fb0       __vcrt_unlock              0000000180038fb0 f   libvcruntimed:locks.obj
 0001:00037ff0       _NLG_Notify                0000000180038ff0 f   libvcruntimed:notify.obj
 0001:00038010       __NLG_Dispatch2            0000000180039010 f   libvcruntimed:notify.obj
 0001:00038020       __NLG_Return2              0000000180039020 f   libvcruntimed:notify.obj
 0001:00038040       __except_validate_context_record 0000000180039040 f   libvcruntimed:jbcxrval.obj
 0001:000380a0       __except_validate_jump_buffer 00000001800390a0 f   libvcruntimed:jbcxrval.obj
 0001:000380c0       __except_validate_jump_buffer_common 00000001800390c0 f i libvcruntimed:jbcxrval.obj
 0001:00038140       ?GetCurrentState@__FrameHandler3@@SAHPEA_KPEAU_xDISPATCHER_CONTEXT@@PEBU_s_FuncInfo@@@Z 0000000180039140 f   libvcruntimed:ehstate.obj
 0001:000381a0       ?GetUnwindTryBlock@__FrameHandler3@@SAHPEA_KPEAU_xDISPATCHER_CONTEXT@@PEBU_s_FuncInfo@@@Z 00000001800391a0 f   libvcruntimed:ehstate.obj
 0001:000381f0       ?SetState@__FrameHandler3@@SAXPEA_KPEBU_s_FuncInfo@@H@Z 00000001800391f0 f   libvcruntimed:ehstate.obj
 0001:00038220       ?SetUnwindTryBlock@__FrameHandler3@@SAXPEA_KPEAU_xDISPATCHER_CONTEXT@@PEBU_s_FuncInfo@@H@Z 0000000180039220 f   libvcruntimed:ehstate.obj
 0001:00038290       ?StateFromControlPc@__FrameHandler3@@SAHPEBU_s_FuncInfo@@PEAU_xDISPATCHER_CONTEXT@@@Z 0000000180039290 f   libvcruntimed:ehstate.obj
 0001:000382d0       ?StateFromControlPc@__FrameHandler4@@SAHPEAUFuncInfo4@FH4@@PEAU_xDISPATCHER_CONTEXT@@@Z 00000001800392d0 f   libvcruntimed:ehstate.obj
 0001:00038310       ?StateFromIp@__FrameHandler3@@SAHPEBU_s_FuncInfo@@PEAU_xDISPATCHER_CONTEXT@@_K@Z 0000000180039310 f   libvcruntimed:ehstate.obj
 0001:00038400       ?StateFromIp@__FrameHandler4@@SAHPEAUFuncInfo4@FH4@@PEAU_xDISPATCHER_CONTEXT@@_K@Z 0000000180039400 f   libvcruntimed:ehstate.obj
 0001:000384f0       ?__FuncRelToRealOffset@@YA_KPEAU_xDISPATCHER_CONTEXT@@I@Z 00000001800394f0 f i libvcruntimed:ehstate.obj
 0001:00038520       ?__RVAtoRealOffset@@YA_KPEAU_xDISPATCHER_CONTEXT@@H@Z 0000000180039520 f i libvcruntimed:ehstate.obj
 0001:0003a780       ??$TypeMatchHelper@V__FrameHandler3@@@@YAHPEBU_s_HandlerType@@PEBU_s_CatchableType@@PEBU_s_ThrowInfo@@@Z 000000018003b780 f i libvcruntimed:frame.obj
 0001:0003a980       ??$TypeMatchHelper@V__FrameHandler4@@@@YAHPEAUHandlerType4@FH4@@PEBU_s_CatchableType@@PEBU_s_ThrowInfo@@@Z 000000018003b980 f i libvcruntimed:frame.obj
 0001:0003ab90       ??$__InternalCxxFrameHandler@V__FrameHandler3@@@@YA?AW4_EXCEPTION_DISPOSITION@@PEAUEHExceptionRecord@@PEA_KPEAU_CONTEXT@@PEAU_xDISPATCHER_CONTEXT@@PEBU_s_FuncInfo@@H1E@Z 000000018003bb90 f i libvcruntimed:frame.obj
 0001:0003b000       ??$__InternalCxxFrameHandler@V__FrameHandler4@@@@YA?AW4_EXCEPTION_DISPOSITION@@PEAUEHExceptionRecord@@PEA_KPEAU_CONTEXT@@PEAU_xDISPATCHER_CONTEXT@@PEAUFuncInfo4@FH4@@H1E@Z 000000018003c000 f i libvcruntimed:frame.obj
 0001:0003b490       ??0HandlerMap4@FH4@@QEAA@PEBUTryBlockMapEntry4@1@_KH@Z 000000018003c490 f i libvcruntimed:frame.obj
 0001:0003b550       ??0HandlerMap@__FrameHandler3@@QEAA@PEBU_s_TryBlockMapEntry@@_KI@Z 000000018003c550 f i libvcruntimed:frame.obj
 0001:0003b5a0       ??0HandlerType4@FH4@@QEAA@XZ 000000018003c5a0 f i libvcruntimed:frame.obj
 0001:0003b5c0       ??0TryBlockMap4@FH4@@QEAA@PEBUFuncInfo4@1@_K@Z 000000018003c5c0 f i libvcruntimed:frame.obj
 0001:0003b650       ??0TryBlockMap@__FrameHandler3@@QEAA@PEBU_s_FuncInfo@@_K@Z 000000018003c650 f i libvcruntimed:frame.obj
 0001:0003b680       ??0UWMap4@FH4@@QEAA@PEBUFuncInfo4@1@_K@Z 000000018003c680 f i libvcruntimed:frame.obj
 0001:0003b6f0       ??0bad_exception@std@@QEAA@AEBV01@@Z 000000018003c6f0 f i libvcruntimed:frame.obj
 0001:0003b730       ??0bad_exception@std@@QEAA@XZ 000000018003c730 f i libvcruntimed:frame.obj
 0001:0003b770       ??0iterator@HandlerMap4@FH4@@QEAA@AEAV12@I@Z 000000018003c770 f i libvcruntimed:frame.obj
 0001:0003b7a0       ??0iterator@HandlerMap@__FrameHandler3@@QEAA@AEAV12@I@Z 000000018003c7a0 f i libvcruntimed:frame.obj
 0001:0003b7d0       ??0iterator@UWMap4@FH4@@QEAA@AEAV12@PEAE@Z 000000018003c7d0 f i libvcruntimed:frame.obj
 0001:0003b800       ??1bad_exception@std@@UEAA@XZ 000000018003c800 f i libvcruntimed:frame.obj
 0001:0003b820       ??4iterator@UWMap4@FH4@@QEAAAEAV012@AEBV012@@Z 000000018003c820 f i libvcruntimed:frame.obj
 0001:0003b870       ??8iterator@HandlerMap4@FH4@@QEBA_NAEBV012@@Z 000000018003c870 f i libvcruntimed:frame.obj
 0001:0003b8b0       ??8iterator@HandlerMap@__FrameHandler3@@QEBA_NAEBV012@@Z 000000018003c8b0 f i libvcruntimed:frame.obj
 0001:0003b8f0       ??8type_info@@QEBA_NAEBV0@@Z 000000018003c8f0 f i libvcruntimed:frame.obj
 0001:0003b940       ??9iterator@HandlerMap4@FH4@@QEBA_NAEBV012@@Z 000000018003c940 f i libvcruntimed:frame.obj
 0001:0003b980       ??9iterator@HandlerMap@__FrameHandler3@@QEBA_NAEBV012@@Z 000000018003c980 f i libvcruntimed:frame.obj
 0001:0003b9c0       ??Diterator@HandlerMap4@FH4@@QEAA?AUHandlerType4@2@XZ 000000018003c9c0 f i libvcruntimed:frame.obj
 0001:0003b9f0       ??Diterator@HandlerMap@__FrameHandler3@@QEAA?BU_s_HandlerType@@XZ 000000018003c9f0 f i libvcruntimed:frame.obj
 0001:0003ba30       ??Diterator@TryBlockMap@__FrameHandler3@@QEAA?BU_s_TryBlockMapEntry@@XZ 000000018003ca30 f i libvcruntimed:frame.obj
 0001:0003ba80       ??Diterator@UWMap4@FH4@@QEAA?AUUnwindMapEntry4@2@XZ 000000018003ca80 f i libvcruntimed:frame.obj
 0001:0003bb00       ??Eiterator@HandlerMap4@FH4@@QEAAAEAV012@XZ 000000018003cb00 f i libvcruntimed:frame.obj
 0001:0003bb40       ??Eiterator@HandlerMap@__FrameHandler3@@QEAAAEAV012@XZ 000000018003cb40 f i libvcruntimed:frame.obj
 0001:0003bb60       ??Eiterator@TryBlockMap@__FrameHandler3@@QEAAAEAV012@XZ 000000018003cb60 f i libvcruntimed:frame.obj
 0001:0003bb80       ??Eiterator@UWMap4@FH4@@QEAAAEAV012@XZ 000000018003cb80 f i libvcruntimed:frame.obj
 0001:0003bbc0       ??Giterator@UWMap4@FH4@@QEBA_JAEBV012@@Z 000000018003cbc0 f i libvcruntimed:frame.obj
 0001:0003bbe0       ??Miterator@TryBlockMap4@FH4@@QEBA_NAEBV012@@Z 000000018003cbe0 f i libvcruntimed:frame.obj
 0001:0003bc20       ??Miterator@TryBlockMap@__FrameHandler3@@QEBA_NAEBV012@@Z 000000018003cc20 f i libvcruntimed:frame.obj
 0001:0003bc60       ??Oiterator@UWMap4@FH4@@QEBA_NAEBV012@@Z 000000018003cc60 f i libvcruntimed:frame.obj
 0001:0003bca0       ??Piterator@UWMap4@FH4@@QEBA_NAEBV012@@Z 000000018003cca0 f i libvcruntimed:frame.obj
 0001:0003bce0       ??_Ebad_exception@std@@UEAAPEAXI@Z 000000018003cce0 f i libvcruntimed:frame.obj
 0001:0003bce0       ??_Gbad_exception@std@@UEAAPEAXI@Z 000000018003cce0 f i libvcruntimed:frame.obj
 0001:0003bd20       ?BuildCatchObject@__FrameHandler3@@SAXPEAUEHExceptionRecord@@PEAXPEBU_s_HandlerType@@PEBU_s_CatchableType@@@Z 000000018003cd20 f   libvcruntimed:frame.obj
 0001:0003bd60       ?BuildCatchObject@__FrameHandler4@@SAXPEAUEHExceptionRecord@@PEAXPEAUHandlerType4@FH4@@PEBU_s_CatchableType@@@Z 000000018003cd60 f   libvcruntimed:frame.obj
 0001:0003bda0       ?BuildCatchObjectHelper@__FrameHandler3@@SAHPEAUEHExceptionRecord@@PEAXPEBU_s_HandlerType@@PEBU_s_CatchableType@@@Z 000000018003cda0 f   libvcruntimed:frame.obj
 0001:0003bde0       ?BuildCatchObjectHelper@__FrameHandler4@@SAHPEAUEHExceptionRecord@@PEAXPEAUHandlerType4@FH4@@PEBU_s_CatchableType@@@Z 000000018003cde0 f   libvcruntimed:frame.obj
 0001:0003be20       ?CxxCallCatchBlock@__FrameHandler3@@SAPEAXPEAU_EXCEPTION_RECORD@@@Z 000000018003ce20 f   libvcruntimed:frame.obj
 0001:0003c080       ?CxxCallCatchBlock@__FrameHandler4@@SAPEAXPEAU_EXCEPTION_RECORD@@@Z 000000018003d080 f   libvcruntimed:frame.obj
 0001:0003c3b0       ?DecompHandler@HandlerMap4@FH4@@AEAAXXZ 000000018003d3b0 f i libvcruntimed:frame.obj
 0001:0003c780       ?FrameUnwindToState@__FrameHandler3@@SAXPEA_KPEAU_xDISPATCHER_CONTEXT@@PEBU_s_FuncInfo@@H@Z 000000018003d780 f   libvcruntimed:frame.obj
 0001:0003c9d0       ?FrameUnwindToState@__FrameHandler4@@SAXPEA_KPEAU_xDISPATCHER_CONTEXT@@PEAUFuncInfo4@FH4@@H@Z 000000018003d9d0 f   libvcruntimed:frame.obj
 0001:0003cce0       ?GetHandlerSearchState@__FrameHandler3@@SAHPEA_KPEAU_xDISPATCHER_CONTEXT@@PEBU_s_FuncInfo@@@Z 000000018003dce0 f i libvcruntimed:frame.obj
 0001:0003cd90       ?GetHandlerSearchState@__FrameHandler4@@SAHPEA_KPEAU_xDISPATCHER_CONTEXT@@PEAUFuncInfo4@FH4@@@Z 000000018003dd90 f i libvcruntimed:frame.obj
 0001:0003ce10       ?GetMaxState@__FrameHandler3@@SAHPEAU_xDISPATCHER_CONTEXT@@PEBU_s_FuncInfo@@@Z 000000018003de10 f i libvcruntimed:frame.obj
 0001:0003ce30       ?GetMaxState@__FrameHandler4@@SAHPEAU_xDISPATCHER_CONTEXT@@PEAUFuncInfo4@FH4@@@Z 000000018003de30 f i libvcruntimed:frame.obj
 0001:0003d060       ?ReadEntry@UWMap4@FH4@@AEAAXPEAPEAE@Z 000000018003e060 f i libvcruntimed:frame.obj
 0001:0003d110       ?TypeMatch@__FrameHandler3@@SAHPEBU_s_HandlerType@@PEBU_s_CatchableType@@PEBU_s_ThrowInfo@@@Z 000000018003e110 f   libvcruntimed:frame.obj
 0001:0003d140       ?TypeMatch@__FrameHandler4@@SAHPEAUHandlerType4@FH4@@PEBU_s_CatchableType@@PEBU_s_ThrowInfo@@@Z 000000018003e140 f   libvcruntimed:frame.obj
 0001:0003d170       ?WalkBack@UWMap4@FH4@@AEAAXPEAPEAE@Z 000000018003e170 f i libvcruntimed:frame.obj
 0001:0003d1c0       ?WalkBack@iterator@UWMap4@FH4@@QEAAXXZ 000000018003e1c0 f i libvcruntimed:frame.obj
 0001:0003d200       ?WalkForward@UWMap4@FH4@@AEAAXPEAPEAE@Z 000000018003e200 f i libvcruntimed:frame.obj
 0001:0003d230       ?_CallMemberFunction1@@YAXQEAX00@Z 000000018003e230 f i libvcruntimed:frame.obj
 0001:0003d270       ?_CallMemberFunction2@@YAXQEAX00H@Z 000000018003e270 f i libvcruntimed:frame.obj
 0001:0003d300       ?begin@HandlerMap4@FH4@@QEAA?AViterator@12@XZ 000000018003e300 f i libvcruntimed:frame.obj
 0001:0003d330       ?begin@HandlerMap@__FrameHandler3@@QEAA?AViterator@12@XZ 000000018003e330 f i libvcruntimed:frame.obj
 0001:0003d360       ?begin@UWMap4@FH4@@QEAA?AViterator@12@XZ 000000018003e360 f i libvcruntimed:frame.obj
 0001:0003d390       ?end@HandlerMap4@FH4@@QEAA?AViterator@12@XZ 000000018003e390 f i libvcruntimed:frame.obj
 0001:0003d3c0       ?end@HandlerMap@__FrameHandler3@@QEAA?AViterator@12@XZ 000000018003e3c0 f i libvcruntimed:frame.obj
 0001:0003d3f0       ?getESTypes@__FrameHandler3@@SAPEBU_s_ESTypeList@@PEBU_s_FuncInfo@@@Z 000000018003e3f0 f i libvcruntimed:frame.obj
 0001:0003d430       ?getESTypes@__FrameHandler4@@SAPEBU_s_ESTypeList@@PEAUFuncInfo4@FH4@@@Z 000000018003e430 f i libvcruntimed:frame.obj
 0001:0003d440       ?getLastEntry@HandlerMap4@FH4@@QEAAPEAUHandlerType4@2@XZ 000000018003e440 f i libvcruntimed:frame.obj
 0001:0003d480       ?getLastEntry@HandlerMap@__FrameHandler3@@QEAAPEBU_s_HandlerType@@XZ 000000018003e480 f i libvcruntimed:frame.obj
 0001:0003d4a0       ?getMagicNum@__FrameHandler3@@SAIPEBU_s_FuncInfo@@@Z 000000018003e4a0 f i libvcruntimed:frame.obj
 0001:0003d4c0       ?getMagicNum@__FrameHandler4@@SAIPEAUFuncInfo4@FH4@@@Z 000000018003e4c0 f i libvcruntimed:frame.obj
 0001:0003d4d0       ?getNumTryBlocks@TryBlockMap4@FH4@@QEAAIXZ 000000018003e4d0 f i libvcruntimed:frame.obj
 0001:0003d4e0       ?getNumTryBlocks@TryBlockMap@__FrameHandler3@@QEAAIXZ 000000018003e4e0 f i libvcruntimed:frame.obj
 0001:0003d500       ?getStartStop@UWMap4@FH4@@QEAAXHHAEAViterator@12@0@Z 000000018003e500 f i libvcruntimed:frame.obj
 0001:0003d620       ?getStateFromIterators@UWMap4@FH4@@SAHAEBViterator@12@H0H0@Z 000000018003e620 f i libvcruntimed:frame.obj
 0001:0003d760       ?isEHs@__FrameHandler3@@SA_NPEBU_s_FuncInfo@@@Z 000000018003e760 f i libvcruntimed:frame.obj
 0001:0003d7a0       ?isEHs@__FrameHandler4@@SA_NPEAUFuncInfo4@FH4@@@Z 000000018003e7a0 f i libvcruntimed:frame.obj
 0001:0003d7c0       ?isNoExcept@__FrameHandler3@@SA_NPEBU_s_FuncInfo@@@Z 000000018003e7c0 f i libvcruntimed:frame.obj
 0001:0003d800       ?isNoExcept@__FrameHandler4@@SA_NPEAUFuncInfo4@FH4@@@Z 000000018003e800 f i libvcruntimed:frame.obj
 0001:0003d820       ?reset@HandlerType4@FH4@@QEAAXXZ 000000018003e820 f i libvcruntimed:frame.obj
 0001:0003d880       ?resetBuffer@HandlerMap4@FH4@@QEAAXXZ 000000018003e880 f i libvcruntimed:frame.obj
 0001:0003d8a0       ?setBuffer@HandlerMap4@FH4@@QEAAXI@Z 000000018003e8a0 f i libvcruntimed:frame.obj
 0001:0003d900       __BuildCatchObject         000000018003e900 f   libvcruntimed:frame.obj
 0001:0003d940       __BuildCatchObjectHelper   000000018003e940 f   libvcruntimed:frame.obj
 0001:0003d980       __TypeMatch                000000018003e980 f   libvcruntimed:frame.obj
 0001:0003d9b0       __vcrt_EncodePointer       000000018003e9b0 f i libvcruntimed:frame.obj
 0001:0003d9d0       ??$?0$00@DName@@QEAA@PEBDU?$StringLifeSelector@$00@@@Z 000000018003e9d0 f i libvcruntimed:undname.obj
 0001:0003da40       ??$?0$00@pcharNode@@QEAA@PEBDHU?$StringLifeSelector@$00@@@Z 000000018003ea40 f i libvcruntimed:undname.obj
 0001:0003daa0       ??$?0$01@DName@@QEAA@PEBDU?$StringLifeSelector@$01@@@Z 000000018003eaa0 f i libvcruntimed:undname.obj
 0001:0003db10       ??$?0$01@pcharNode@@QEAA@PEBDHU?$StringLifeSelector@$01@@@Z 000000018003eb10 f i libvcruntimed:undname.obj
 0001:0003dbc0       ??$?0$0A@@DName@@QEAA@PEBDU?$StringLifeSelector@$0A@@@@Z 000000018003ebc0 f i libvcruntimed:undname.obj
 0001:0003dc30       ??$?0$0A@@pcharNode@@QEAA@PEBDHU?$StringLifeSelector@$0A@@@@Z 000000018003ec30 f i libvcruntimed:undname.obj
 0001:0003dce0       ??$?0_K$0A@@?$optional@_K@std@@QEAA@$$QEA_K@Z 000000018003ece0 f i libvcruntimed:undname.obj
 0001:0003dd30       ??$?0_K@?$_Optional_construct_base@_K@std@@QEAA@Uin_place_t@1@$$QEA_K@Z 000000018003ed30 f i libvcruntimed:undname.obj
 0001:0003dd60       ??$?0_K@?$_Optional_destruct_base@_K$00@std@@QEAA@Uin_place_t@1@$$QEA_K@Z 000000018003ed60 f i libvcruntimed:undname.obj
 0001:0003dda0       ??$append@VDNameNode@@@DName@@AEAAXPEBVDNameNode@@@Z 000000018003eda0 f i libvcruntimed:undname.obj
 0001:0003de50       ??$append@VDNameStatusNode@@@DName@@AEAAXPEBVDNameStatusNode@@@Z 000000018003ee50 f i libvcruntimed:undname.obj
 0001:0003df00       ??$append@VcharNode@@@DName@@AEAAXPEBVcharNode@@@Z 000000018003ef00 f i libvcruntimed:undname.obj
 0001:0003dfb0       ??$append@VpDNameNode@@@DName@@AEAAXPEBVpDNameNode@@@Z 000000018003efb0 f i libvcruntimed:undname.obj
 0001:0003e060       ??$append@VpcharNode@@@DName@@AEAAXPEBVpcharNode@@@Z 000000018003f060 f i libvcruntimed:undname.obj
 0001:0003e110       ??$doPchar@$00@DName@@AEAAXPEBDH@Z 000000018003f110 f i libvcruntimed:undname.obj
 0001:0003e270       ??$doPchar@$01@DName@@AEAAXPEBDH@Z 000000018003f270 f i libvcruntimed:undname.obj
 0001:0003e3d0       ??$doPchar@$0A@@DName@@AEAAXPEBDH@Z 000000018003f3d0 f i libvcruntimed:undname.obj
 0001:0003e530       ??$forward@_K@std@@YA$$QEA_KAEA_K@Z 000000018003f530 f i libvcruntimed:undname.obj
 0001:0003e540       ??$size@D$04@std@@YA_KAEAY04$$CBD@Z 000000018003f540 f i libvcruntimed:undname.obj
 0001:0003e550       ??$size@D$0EB@@std@@YA_KAEAY0EB@$$CBD@Z 000000018003f550 f i libvcruntimed:undname.obj
 0001:0003e560       ??0?$_Optional_construct_base@_K@std@@QEAA@XZ 000000018003f560 f i libvcruntimed:undname.obj
 0001:0003e580       ??0?$_Optional_destruct_base@_K$00@std@@QEAA@XZ 000000018003f580 f i libvcruntimed:undname.obj
 0001:0003e5b0       ??0?$optional@_K@std@@QEAA@XZ 000000018003f5b0 f i libvcruntimed:undname.obj
 0001:0003e5d0       ??0Block@_HeapManager@@QEAA@XZ 000000018003f5d0 f i libvcruntimed:undname.obj
 0001:0003e5f0       ??0DName@@QEAA@AEAPEBDD@Z  000000018003f5f0 f   libvcruntimed:undname.obj
 0001:0003e7c0       ??0DName@@QEAA@AEBUStringLiteral@@@Z 000000018003f7c0 f   libvcruntimed:undname.obj
 0001:0003e820       ??0DName@@QEAA@AEBV0@@Z    000000018003f820 f i libvcruntimed:undname.obj
 0001:0003e850       ??0DName@@QEAA@D@Z         000000018003f850 f   libvcruntimed:undname.obj
 0001:0003e890       ??0DName@@QEAA@PEAV0@@Z    000000018003f890 f   libvcruntimed:undname.obj
 0001:0003e970       ??0DName@@QEAA@W4DNameStatus@@@Z 000000018003f970 f   libvcruntimed:undname.obj
 0001:0003ea20       ??0DName@@QEAA@XZ          000000018003fa20 f i libvcruntimed:undname.obj
 0001:0003ea50       ??0DName@@QEAA@_J@Z        000000018003fa50 f   libvcruntimed:undname.obj
 0001:0003eb60       ??0DName@@QEAA@_K@Z        000000018003fb60 f   libvcruntimed:undname.obj
 0001:0003ec30       ??0DNameNode@@IEAA@XZ      000000018003fc30 f i libvcruntimed:undname.obj
 0001:0003ec50       ??0Replicator@@QEAA@XZ     000000018003fc50 f i libvcruntimed:undname.obj
 0001:0003ec90       ??0UnDecorator@@QEAA@PEBDP6APEADJ@ZK@Z 000000018003fc90 f i libvcruntimed:undname.obj
 0001:0003ed40       ??0_Nontrivial_dummy_type@std@@QEAA@XZ 000000018003fd40 f i libvcruntimed:undname.obj
 0001:0003ed50       ??0charNode@@QEAA@D@Z      000000018003fd50 f i libvcruntimed:undname.obj
 0001:0003ed90       ??0pDNameNode@@QEAA@PEAVDName@@@Z 000000018003fd90 f   libvcruntimed:undname.obj
 0001:0003ee10       ??0pairNode@@QEAA@PEBVDNameNode@@0@Z 000000018003fe10 f i libvcruntimed:undname.obj
 0001:0003ee90       ??2@YAPEAX_KAEAV_HeapManager@@H@Z 000000018003fe90 f   libvcruntimed:undname.obj
 0001:0003eef0       ??4DName@@QEAAAEAV0@AEBUStringLiteral@@@Z 000000018003fef0 f   libvcruntimed:undname.obj
 0001:0003ef40       ??4DName@@QEAAAEAV0@AEBV0@@Z 000000018003ff40 f   libvcruntimed:undname.obj
 0001:0003ef70       ??4DName@@QEAAAEAV0@D@Z    000000018003ff70 f i libvcruntimed:undname.obj
 0001:0003efb0       ??4DName@@QEAAAEAV0@PEAV0@@Z 000000018003ffb0 f   libvcruntimed:undname.obj
 0001:0003f080       ??4DName@@QEAAAEAV0@W4DNameStatus@@@Z 0000000180040080 f   libvcruntimed:undname.obj
 0001:0003f110       ??AReplicator@@QEBA?AVDName@@H@Z 0000000180040110 f   libvcruntimed:undname.obj
 0001:0003f1a0       ??B?$optional@_K@std@@QEBA_NXZ 00000001800401a0 f i libvcruntimed:undname.obj
 0001:0003f1b0       ??D?$optional@_K@std@@QEGAAAEA_KXZ 00000001800401b0 f i libvcruntimed:undname.obj
 0001:0003f250       ??H@YA?AVDName@@AEBUStringLiteral@@AEBV0@@Z 0000000180040250 f i libvcruntimed:undname.obj
 0001:0003f2a0       ??H@YA?AVDName@@DAEBV0@@Z  00000001800402a0 f i libvcruntimed:undname.obj
 0001:0003f2f0       ??H@YA?AVDName@@W4DNameStatus@@AEBV0@@Z 00000001800402f0 f i libvcruntimed:undname.obj
 0001:0003f340       ??HDName@@QEBA?AV0@AEBUStringLiteral@@@Z 0000000180040340 f   libvcruntimed:undname.obj
 0001:0003f390       ??HDName@@QEBA?AV0@AEBV0@@Z 0000000180040390 f   libvcruntimed:undname.obj
 0001:0003f3e0       ??HDName@@QEBA?AV0@D@Z     00000001800403e0 f   libvcruntimed:undname.obj
 0001:0003f430       ??HDName@@QEBA?AV0@PEAV0@@Z 0000000180040430 f   libvcruntimed:undname.obj
 0001:0003f480       ??HDName@@QEBA?AV0@W4DNameStatus@@@Z 0000000180040480 f   libvcruntimed:undname.obj
 0001:0003f4d0       ??HStringLiteral@@QEBA?AU0@H@Z 00000001800404d0 f i libvcruntimed:undname.obj
 0001:0003f510       ??YDName@@QEAAAEAV0@AEBUStringLiteral@@@Z 0000000180040510 f   libvcruntimed:undname.obj
 0001:0003f5e0       ??YDName@@QEAAAEAV0@AEBV0@@Z 00000001800405e0 f   libvcruntimed:undname.obj
 0001:0003f6a0       ??YDName@@QEAAAEAV0@D@Z    00000001800406a0 f   libvcruntimed:undname.obj
 0001:0003f740       ??YDName@@QEAAAEAV0@PEAV0@@Z 0000000180040740 f   libvcruntimed:undname.obj
 0001:0003f820       ??YDName@@QEAAAEAV0@W4DNameStatus@@@Z 0000000180040820 f   libvcruntimed:undname.obj
 0001:0003f890       ??YReplicator@@QEAAAEAV0@AEBVDName@@@Z 0000000180040890 f   libvcruntimed:undname.obj
 0001:0003f950       ??_5DName@@QEAAAEAV0@AEBV0@@Z 0000000180040950 f   libvcruntimed:undname.obj
 0001:0003f9c0       ??__K_l@@YA?AUStringLiteral@@PEBD_K@Z 00000001800409c0 f i libvcruntimed:undname.obj
 0001:0003fa10       ?Constructor@_HeapManager@@QEAAXP6APEAX_K@ZP6AXPEAX@Z@Z 0000000180040a10 f i libvcruntimed:undname.obj
 0001:0003fa70       ?Destructor@_HeapManager@@QEAAXXZ 0000000180040a70 f i libvcruntimed:undname.obj
 0001:0003fb10       ?UScore@UnDecorator@@SA?AUStringLiteral@@W4Tokens@@@Z 0000000180040b10 f   libvcruntimed:undname.obj
 0001:0003fba0       ?composeDeclaration@UnDecorator@@CA?AVDName@@AEBV2@@Z 0000000180040ba0 f i libvcruntimed:undname.obj
 0001:000420a0       ?dbGetString@DName@@QEBAPEADXZ 00000001800430a0 f   libvcruntimed:undname.obj
 0001:000420d0       ?doAccessSpecifiers@UnDecorator@@SAHXZ 00000001800430d0 f i libvcruntimed:undname.obj
 0001:00042100       ?doAllocationLanguage@UnDecorator@@SAHXZ 0000000180043100 f i libvcruntimed:undname.obj
 0001:00042130       ?doAllocationModel@UnDecorator@@SAHXZ 0000000180043130 f i libvcruntimed:undname.obj
 0001:00042160       ?doEcsu@UnDecorator@@SAHXZ 0000000180043160 f i libvcruntimed:undname.obj
 0001:00042190       ?doEllipsis@UnDecorator@@SAHXZ 0000000180043190 f i libvcruntimed:undname.obj
 0001:000421c0       ?doFunctionReturns@UnDecorator@@SAHXZ 00000001800431c0 f i libvcruntimed:undname.obj
 0001:000421f0       ?doMSKeywords@UnDecorator@@SAHXZ 00000001800431f0 f i libvcruntimed:undname.obj
 0001:00042220       ?doMemberTypes@UnDecorator@@SAHXZ 0000000180043220 f i libvcruntimed:undname.obj
 0001:00042250       ?doNameOnly@UnDecorator@@SAHXZ 0000000180043250 f i libvcruntimed:undname.obj
 0001:00042260       ?doNoIdentCharCheck@UnDecorator@@SAHXZ 0000000180043260 f i libvcruntimed:undname.obj
 0001:00042270       ?doPchar@DName@@AEAAXD@Z   0000000180043270 f   libvcruntimed:undname.obj
 0001:00042300       ?doPtr64@UnDecorator@@SAHXZ 0000000180043300 f i libvcruntimed:undname.obj
 0001:00042330       ?doRestrictionSpec@UnDecorator@@SAHXZ 0000000180043330 f i libvcruntimed:undname.obj
 0001:00042360       ?doThisTypes@UnDecorator@@SAHXZ 0000000180043360 f i libvcruntimed:undname.obj
 0001:00042390       ?doThrowTypes@UnDecorator@@SAHXZ 0000000180043390 f i libvcruntimed:undname.obj
 0001:000423c0       ?doTypeOnly@UnDecorator@@SAHXZ 00000001800433c0 f i libvcruntimed:undname.obj
 0001:000423d0       ?doUnderScore@UnDecorator@@SAHXZ 00000001800433d0 f i libvcruntimed:undname.obj
 0001:00042400       ?getAddressOf@UnDecorator@@CA?AVDName@@XZ 0000000180043400 f   libvcruntimed:undname.obj
 0001:000424a0       ?getArgumentList@UnDecorator@@CA?AVDName@@XZ 00000001800434a0 f   libvcruntimed:undname.obj
 0001:00042640       ?getArgumentTypes@UnDecorator@@CA?AVDName@@XZ 0000000180043640 f   libvcruntimed:undname.obj
 0001:00042920       ?getArrayAccess@UnDecorator@@CA?AVDName@@XZ 0000000180043920 f   libvcruntimed:undname.obj
 0001:000429e0       ?getArrayObject@UnDecorator@@CA?AVDName@@XZ 00000001800439e0 f   libvcruntimed:undname.obj
 0001:00042b00       ?getArrayType@UnDecorator@@CA?AVDName@@AEBV2@@Z 0000000180043b00 f i libvcruntimed:undname.obj
 0001:00042ec0       ?getBasedType@UnDecorator@@CA?AVDName@@XZ 0000000180043ec0 f   libvcruntimed:undname.obj
 0001:00043030       ?getBasicDataType@UnDecorator@@CA?AVDName@@AEBV2@@Z 0000000180044030 f   libvcruntimed:undname.obj
 0001:00043dd0       ?getCHPEName@UnDecorator@@QEAAPEADPEADH@Z 0000000180044dd0 f i libvcruntimed:undname.obj
 0001:00043fa0       ?getCallIndex@UnDecorator@@CA?AVDName@@XZ 0000000180044fa0 f i libvcruntimed:undname.obj
 0001:00043fc0       ?getCallingConvention@UnDecorator@@CA?AVDName@@XZ 0000000180044fc0 f   libvcruntimed:undname.obj
 0001:000443b0       ?getDataIndirectType@UnDecorator@@CA?AVDName@@AEBV2@W4IndirectionKind@@0H@Z 00000001800453b0 f   libvcruntimed:undname.obj
 0001:00045050       ?getDataIndirectType@UnDecorator@@CA?AVDName@@XZ 0000000180046050 f i libvcruntimed:undname.obj
 0001:000450a0       ?getDataType@UnDecorator@@CA?AVDName@@PEAV2@@Z 00000001800460a0 f   libvcruntimed:undname.obj
 0001:00045280       ?getDecoratedName@UnDecorator@@CA?AVDName@@XZ 0000000180046280 f   libvcruntimed:undname.obj
 0001:00045770       ?getDimension@UnDecorator@@CA?AVDName@@_N@Z 0000000180046770 f   libvcruntimed:undname.obj
 0001:00045a80       ?getDispatchTarget@UnDecorator@@CA?AVDName@@XZ 0000000180046a80 f   libvcruntimed:undname.obj
 0001:00045b50       ?getDisplacement@UnDecorator@@CA?AVDName@@XZ 0000000180046b50 f i libvcruntimed:undname.obj
 0001:00045b70       ?getECSUDataType@UnDecorator@@CA?AVDName@@XZ 0000000180046b70 f   libvcruntimed:undname.obj
 0001:00045f00       ?getECSUName@UnDecorator@@CA?AVDName@@XZ 0000000180046f00 f i libvcruntimed:undname.obj
 0001:00045f20       ?getEnumType@UnDecorator@@CA?AVDName@@XZ 0000000180046f20 f i libvcruntimed:undname.obj
 0001:000461b0       ?getExtendedDataIndirectType@UnDecorator@@CA?AVDName@@AEAW4IndirectionKind@@AEA_NH@Z 00000001800471b0 f   libvcruntimed:undname.obj
 0001:000464d0       ?getExternalDataType@UnDecorator@@CA?AVDName@@AEBV2@@Z 00000001800474d0 f i libvcruntimed:undname.obj
 0001:000465b0       ?getFloatingPoint@UnDecorator@@CA?AVDName@@H@Z 00000001800475b0 f   libvcruntimed:undname.obj
 0001:00046830       ?getFunctionIndirectType@UnDecorator@@CA?AVDName@@AEBV2@@Z 0000000180047830 f   libvcruntimed:undname.obj
 0001:00046e60       ?getGuardNumber@UnDecorator@@CA?AVDName@@XZ 0000000180047e60 f i libvcruntimed:undname.obj
 0001:00046e80       ?getLastChar@DName@@QEBADXZ 0000000180047e80 f i libvcruntimed:undname.obj
 0001:00046ed0       ?getLastChar@DNameStatusNode@@UEBADXZ 0000000180047ed0 f i libvcruntimed:undname.obj
 0001:00046f10       ?getLastChar@charNode@@UEBADXZ 0000000180047f10 f i libvcruntimed:undname.obj
 0001:00046f20       ?getLastChar@pDNameNode@@UEBADXZ 0000000180047f20 f i libvcruntimed:undname.obj
 0001:00046f60       ?getLastChar@pairNode@@UEBADXZ 0000000180047f60 f i libvcruntimed:undname.obj
 0001:00046fe0       ?getLastChar@pcharNode@@UEBADXZ 0000000180047fe0 f i libvcruntimed:undname.obj
 0001:00047020       ?getLexicalFrame@UnDecorator@@CA?AVDName@@XZ 0000000180048020 f i libvcruntimed:undname.obj
 0001:00047070       ?getMemberAccess@UnDecorator@@CA?AVDName@@XZ 0000000180048070 f   libvcruntimed:undname.obj
 0001:00047120       ?getMemoryWithBuffer@_HeapManager@@QEAAPEAX_K@Z 0000000180048120 f   libvcruntimed:undname.obj
 0001:00047270       ?getMemoryWithoutBuffer@_HeapManager@@QEAAPEAX_K@Z 0000000180048270 f   libvcruntimed:undname.obj
 0001:000472c0       ?getNoexcept@UnDecorator@@CA?AVDName@@XZ 00000001800482c0 f   libvcruntimed:undname.obj
 0001:00047370       ?getNumberOfDimensions@UnDecorator@@CAHXZ 0000000180048370 f   libvcruntimed:undname.obj
 0001:00047490       ?getOperatorName@UnDecorator@@CA?AVDName@@_NPEA_N@Z 0000000180048490 f i libvcruntimed:undname.obj
 0001:00048480       ?getPointerToMember@UnDecorator@@CA?AVDName@@XZ 0000000180049480 f   libvcruntimed:undname.obj
 0001:000485d0       ?getPointerType@UnDecorator@@CA?AVDName@@AEBV2@0@Z 00000001800495d0 f i libvcruntimed:undname.obj
 0001:00048610       ?getPointerTypeArray@UnDecorator@@CA?AVDName@@AEBV2@0@Z 0000000180049610 f i libvcruntimed:undname.obj
 0001:00048650       ?getPrimaryDataType@UnDecorator@@CA?AVDName@@AEBV2@@Z 0000000180049650 f   libvcruntimed:undname.obj
 0001:00048c80       ?getPtrRefDataType@UnDecorator@@CA?AVDName@@AEBV2@H@Z 0000000180049c80 f   libvcruntimed:undname.obj
 0001:00049070       ?getPtrRefType@UnDecorator@@CA?AVDName@@AEBV2@0W4IndirectionKind@@@Z 000000018004a070 f   libvcruntimed:undname.obj
 0001:000492b0       ?getReferenceType@UnDecorator@@CA?AVDName@@AEBV2@0W4IndirectionKind@@@Z 000000018004a2b0 f i libvcruntimed:undname.obj
 0001:000492f0       ?getRestrictionSpec@UnDecorator@@CA?AVDName@@XZ 000000018004a2f0 f   libvcruntimed:undname.obj
 0001:00049580       ?getReturnType@UnDecorator@@CA?AVDName@@PEAV2@@Z 000000018004a580 f   libvcruntimed:undname.obj
 0001:000495e0       ?getScope@UnDecorator@@CA?AVDName@@XZ 000000018004a5e0 f   libvcruntimed:undname.obj
 0001:00049d40       ?getScopedName@UnDecorator@@CA?AVDName@@XZ 000000018004ad40 f   libvcruntimed:undname.obj
 0001:00049f40       ?getSignedDimension@UnDecorator@@CA?AVDName@@XZ 000000018004af40 f   libvcruntimed:undname.obj
 0001:00049fd0       ?getStorageConvention@UnDecorator@@CA?AVDName@@XZ 000000018004afd0 f i libvcruntimed:undname.obj
 0001:00049ff0       ?getString@DName@@QEBAPEADPEAD0@Z 000000018004aff0 f i libvcruntimed:undname.obj
 0001:0004a070       ?getString@DName@@QEBAPEADPEADH@Z 000000018004b070 f i libvcruntimed:undname.obj
 0001:0004a130       ?getString@DNameStatusNode@@UEBAPEADPEAD0@Z 000000018004b130 f i libvcruntimed:undname.obj
 0001:0004a180       ?getString@charNode@@UEBAPEADPEAD0@Z 000000018004b180 f i libvcruntimed:undname.obj
 0001:0004a1c0       ?getString@pDNameNode@@UEBAPEADPEAD0@Z 000000018004b1c0 f i libvcruntimed:undname.obj
 0001:0004a220       ?getString@pairNode@@UEBAPEADPEAD0@Z 000000018004b220 f i libvcruntimed:undname.obj
 0001:0004a2f0       ?getString@pcharNode@@UEBAPEADPEAD0@Z 000000018004b2f0 f i libvcruntimed:undname.obj
 0001:0004a330       ?getStringEncoding@UnDecorator@@CA?AVDName@@W4PrefixKind@@H@Z 000000018004b330 f   libvcruntimed:undname.obj
 0001:0004a490       ?getStringHelper@@YAPEADPEADPEBD1H@Z 000000018004b490 f i libvcruntimed:undname.obj
 0001:0004a500       ?getStringObject@UnDecorator@@CA?AVDName@@XZ 000000018004b500 f   libvcruntimed:undname.obj
 0001:0004a5e0       ?getSymbolName@UnDecorator@@CA?AVDName@@XZ 000000018004b5e0 f i libvcruntimed:undname.obj
 0001:0004a680       ?getTemplateArgumentList@UnDecorator@@CA?AVDName@@XZ 000000018004b680 f   libvcruntimed:undname.obj
 0001:0004a9c0       ?getTemplateName@UnDecorator@@CA?AVDName@@_N@Z 000000018004b9c0 f   libvcruntimed:undname.obj
 0001:0004ac00       ?getTemplateNonTypeArgument@UnDecorator@@CA?AVDName@@XZ 000000018004bc00 f   libvcruntimed:undname.obj
 0001:0004b4a0       ?getTemplateTypeArgument@UnDecorator@@CA?AVDName@@XZ 000000018004c4a0 f   libvcruntimed:undname.obj
 0001:0004b710       ?getThisType@UnDecorator@@CA?AVDName@@XZ 000000018004c710 f i libvcruntimed:undname.obj
 0001:0004b760       ?getThrowTypes@UnDecorator@@CA?AVDName@@XZ 000000018004c760 f   libvcruntimed:undname.obj
 0001:0004b7b0       ?getTypeEncoding@UnDecorator@@CAHXZ 000000018004c7b0 f i libvcruntimed:undname.obj
 0001:0004c410       ?getUndecoratedName@UnDecorator@@QEAAPEADPEADH@Z 000000018004d410 f i libvcruntimed:undname.obj
 0001:0004c600       ?getUnionObject@UnDecorator@@CA?AVDName@@XZ 000000018004d600 f   libvcruntimed:undname.obj
 0001:0004c710       ?getVCallThunkType@UnDecorator@@CA?AVDName@@XZ 000000018004d710 f i libvcruntimed:undname.obj
 0001:0004c7c0       ?getValue@UnDecorator@@CA?AV?$optional@_K@std@@XZ 000000018004d7c0 f   libvcruntimed:undname.obj
 0001:0004c890       ?getValueObject@UnDecorator@@CA?AVDName@@XZ 000000018004d890 f   libvcruntimed:undname.obj
 0001:0004cab0       ?getVbTableType@UnDecorator@@CA?AVDName@@AEBV2@@Z 000000018004dab0 f i libvcruntimed:undname.obj
 0001:0004cae0       ?getVdispMapType@UnDecorator@@CA?AVDName@@AEBV2@@Z 000000018004dae0 f i libvcruntimed:undname.obj
 0001:0004cba0       ?getVfTableType@UnDecorator@@CA?AVDName@@AEBV2@@Z 000000018004dba0 f i libvcruntimed:undname.obj
 0001:0004ce40       ?getZName@UnDecorator@@CA?AVDName@@_N0@Z 000000018004de40 f   libvcruntimed:undname.obj
 0001:0004d2b0       ?haveTemplateParameters@UnDecorator@@SAHXZ 000000018004e2b0 f i libvcruntimed:undname.obj
 0001:0004d2c0       ?isArray@DName@@QEBAHXZ    000000018004e2c0 f i libvcruntimed:undname.obj
 0001:0004d2e0       ?isComArray@DName@@QEBAHXZ 000000018004e2e0 f i libvcruntimed:undname.obj
 0001:0004d300       ?isEmpty@DName@@QEBAHXZ    000000018004e300 f i libvcruntimed:undname.obj
 0001:0004d330       ?isFull@Replicator@@QEBAHXZ 000000018004e330 f i libvcruntimed:undname.obj
 0001:0004d360       ?isNoTE@DName@@QEBAHXZ     000000018004e360 f i libvcruntimed:undname.obj
 0001:0004d380       ?isPinPtr@DName@@QEBAHXZ   000000018004e380 f i libvcruntimed:undname.obj
 0001:0004d3a0       ?isPtrRef@DName@@QEBAHXZ   000000018004e3a0 f i libvcruntimed:undname.obj
 0001:0004d3c0       ?isUDC@DName@@QEBAHXZ      000000018004e3c0 f i libvcruntimed:undname.obj
 0001:0004d410       ?isUDTThunk@DName@@QEBAHXZ 000000018004e410 f i libvcruntimed:undname.obj
 0001:0004d460       ?isVCallThunk@DName@@QEBAHXZ 000000018004e460 f i libvcruntimed:undname.obj
 0001:0004d480       ?isValid@DName@@QEBAHXZ    000000018004e480 f i libvcruntimed:undname.obj
 0001:0004d4c0       ?length@DName@@QEBAHXZ     000000018004e4c0 f i libvcruntimed:undname.obj
 0001:0004d510       ?length@DNameStatusNode@@UEBAHXZ 000000018004e510 f i libvcruntimed:undname.obj
 0001:0004d520       ?length@charNode@@UEBAHXZ  000000018004e520 f i libvcruntimed:undname.obj
 0001:0004d530       ?length@pDNameNode@@UEBAHXZ 000000018004e530 f i libvcruntimed:undname.obj
 0001:0004d570       ?length@pairNode@@UEBAHXZ  000000018004e570 f i libvcruntimed:undname.obj
 0001:0004d600       ?length@pcharNode@@UEBAHXZ 000000018004e600 f i libvcruntimed:undname.obj
 0001:0004d610       ?make@DNameStatusNode@@SAPEBV1@W4DNameStatus@@@Z 000000018004e610 f i libvcruntimed:undname.obj
 0001:0004d660       ?parseDecoratedName@UnDecorator@@CA?AVDName@@XZ 000000018004e660 f   libvcruntimed:undname.obj
 0001:0004d850       ?raw_length@DNameStatusNode@@UEBAHXZ 000000018004e850 f i libvcruntimed:undname.obj
 0001:0004d870       ?raw_length@charNode@@UEBAHXZ 000000018004e870 f i libvcruntimed:undname.obj
 0001:0004d890       ?raw_length@pDNameNode@@UEBAHXZ 000000018004e890 f i libvcruntimed:undname.obj
 0001:0004d8a0       ?raw_length@pairNode@@UEBAHXZ 000000018004e8a0 f i libvcruntimed:undname.obj
 0001:0004d8b0       ?raw_length@pcharNode@@UEBAHXZ 000000018004e8b0 f i libvcruntimed:undname.obj
 0001:0004d8d0       ?setIsArray@DName@@QEAAXXZ 000000018004e8d0 f i libvcruntimed:undname.obj
 0001:0004d8f0       ?setIsComArray@DName@@QEAAXXZ 000000018004e8f0 f i libvcruntimed:undname.obj
 0001:0004d910       ?setIsNoTE@DName@@QEAAXXZ  000000018004e910 f i libvcruntimed:undname.obj
 0001:0004d930       ?setIsPinPtr@DName@@QEAAXXZ 000000018004e930 f i libvcruntimed:undname.obj
 0001:0004d950       ?setIsUDC@DName@@QEAAXXZ   000000018004e950 f i libvcruntimed:undname.obj
 0001:0004d980       ?setIsVCallThunk@DName@@QEAAXXZ 000000018004e980 f i libvcruntimed:undname.obj
 0001:0004d9a0       ?setPtrRef@DName@@QEAAAEAV1@XZ 000000018004e9a0 f i libvcruntimed:undname.obj
 0001:0004d9c0       ?status@DName@@QEBA?AW4DNameStatus@@XZ 000000018004e9c0 f i libvcruntimed:undname.obj
 0001:0004daf0       __unDName                  000000018004eaf0 f   libvcruntimed:undname.obj
 0001:0004db50       __unDNameEx                000000018004eb50 f   libvcruntimed:undname.obj
 0001:0004dc10       unDNameGenerateCHPE        000000018004ec10 f   libvcruntimed:undname.obj
 0001:0004dcc0       ??$__crt_interlocked_exchange_pointer@UHINSTANCE__@@PEAU1@@@YAPEAUHINSTANCE__@@PEDSEAU0@QEAU0@@Z 000000018004ecc0 f i libvcruntimed:winapi_downlevel.obj
 0001:0004dce0       ??$__crt_interlocked_exchange_pointer@UHINSTANCE__@@PEAX@@YAPEAUHINSTANCE__@@PEDSEAU0@QEAX@Z 000000018004ece0 f i libvcruntimed:winapi_downlevel.obj
 0001:0004dd00       ??$__crt_interlocked_exchange_pointer@XPEAX@@YAPEAXPEDSEAXQEAX@Z 000000018004ed00 f i libvcruntimed:winapi_downlevel.obj
 0001:0004dd20       ??$__crt_interlocked_read_pointer@UHINSTANCE__@@@@YAPEAUHINSTANCE__@@PEDSEAU0@@Z 000000018004ed20 f i libvcruntimed:winapi_downlevel.obj
 0001:0004dd40       ??$__crt_interlocked_read_pointer@X@@YAPEAXPEDSEAX@Z 000000018004ed40 f i libvcruntimed:winapi_downlevel.obj
 0001:0004e250       __vcrt_FlsAlloc            000000018004f250 f   libvcruntimed:winapi_downlevel.obj
 0001:0004e2a0       __vcrt_FlsFree             000000018004f2a0 f   libvcruntimed:winapi_downlevel.obj
 0001:0004e2f0       __vcrt_FlsGetValue         000000018004f2f0 f   libvcruntimed:winapi_downlevel.obj
 0001:0004e340       __vcrt_FlsSetValue         000000018004f340 f   libvcruntimed:winapi_downlevel.obj
 0001:0004e3a0       __vcrt_InitializeCriticalSectionEx 000000018004f3a0 f   libvcruntimed:winapi_downlevel.obj
 0001:0004e420       _CallSettingFrame          000000018004f420 f   libvcruntimed:handlers.obj
 0001:0004e470       _CallSettingFrame_LookupContinuationIndex 000000018004f470 f   libvcruntimed:handlers.obj
 0001:0004e4a0       _CallSettingFrame_NotifyContinuationAddr 000000018004f4a0 f   libvcruntimed:handlers.obj
 0001:0004e4d0       _CallSettingFrameEncoded   000000018004f4d0 f   libvcruntimed:handlers.obj
 0001:0004e520       ??$?0AEBV?$stream_output_adapter@D@__crt_stdio_output@@AEB_KAEBQEBDAEAV__crt_cached_ptd_host@@AEBQEAD@?$format_validation_base@DV?$stream_output_adapter@D@__crt_stdio_output@@@__crt_stdio_output@@IEAA@AEBV?$stream_output_adapter@D@1@AEB_KAEBQEBDAEAV__crt_cached_ptd_host@@AEBQEAD@Z 000000018004f520 f i libucrtd:output.obj
 0001:0004e570       ??$?0AEBV?$stream_output_adapter@D@__crt_stdio_output@@AEB_KAEBQEBDAEAV__crt_cached_ptd_host@@AEBQEAD@?$positional_parameter_base@DV?$stream_output_adapter@D@__crt_stdio_output@@@__crt_stdio_output@@IEAA@AEBV?$stream_output_adapter@D@1@AEB_KAEBQEBDAEAV__crt_cached_ptd_host@@AEBQEAD@Z 000000018004f570 f i libucrtd:output.obj
 0001:0004e610       ??$?0AEBV?$stream_output_adapter@D@__crt_stdio_output@@AEB_KAEBQEBDAEAV__crt_cached_ptd_host@@AEBQEAD@?$standard_base@DV?$stream_output_adapter@D@__crt_stdio_output@@@__crt_stdio_output@@IEAA@AEBV?$stream_output_adapter@D@1@AEB_KAEBQEBDAEAV__crt_cached_ptd_host@@AEBQEAD@Z 000000018004f610 f i libucrtd:output.obj
 0001:0004e680       ??$?0AEBV?$stream_output_adapter@_W@__crt_stdio_output@@AEB_KAEBQEB_WAEAV__crt_cached_ptd_host@@AEBQEAD@?$format_validation_base@_WV?$stream_output_adapter@_W@__crt_stdio_output@@@__crt_stdio_output@@IEAA@AEBV?$stream_output_adapter@_W@1@AEB_KAEBQEB_WAEAV__crt_cached_ptd_host@@AEBQEAD@Z 000000018004f680 f i libucrtd:output.obj
 0001:0004e6d0       ??$?0AEBV?$stream_output_adapter@_W@__crt_stdio_output@@AEB_KAEBQEB_WAEAV__crt_cached_ptd_host@@AEBQEAD@?$positional_parameter_base@_WV?$stream_output_adapter@_W@__crt_stdio_output@@@__crt_stdio_output@@IEAA@AEBV?$stream_output_adapter@_W@1@AEB_KAEBQEB_WAEAV__crt_cached_ptd_host@@AEBQEAD@Z 000000018004f6d0 f i libucrtd:output.obj
 0001:0004e770       ??$?0AEBV?$stream_output_adapter@_W@__crt_stdio_output@@AEB_KAEBQEB_WAEAV__crt_cached_ptd_host@@AEBQEAD@?$standard_base@_WV?$stream_output_adapter@_W@__crt_stdio_output@@@__crt_stdio_output@@IEAA@AEBV?$stream_output_adapter@_W@1@AEB_KAEBQEB_WAEAV__crt_cached_ptd_host@@AEBQEAD@Z 000000018004f770 f i libucrtd:output.obj
 0001:0004e7e0       ??$?0AEBV?$string_output_adapter@D@__crt_stdio_output@@AEB_KAEBQEBDAEAV__crt_cached_ptd_host@@AEBQEAD@?$format_validation_base@DV?$string_output_adapter@D@__crt_stdio_output@@@__crt_stdio_output@@IEAA@AEBV?$string_output_adapter@D@1@AEB_KAEBQEBDAEAV__crt_cached_ptd_host@@AEBQEAD@Z 000000018004f7e0 f i libucrtd:output.obj
 0001:0004e830       ??$?0AEBV?$string_output_adapter@D@__crt_stdio_output@@AEB_KAEBQEBDAEAV__crt_cached_ptd_host@@AEBQEAD@?$positional_parameter_base@DV?$string_output_adapter@D@__crt_stdio_output@@@__crt_stdio_output@@IEAA@AEBV?$string_output_adapter@D@1@AEB_KAEBQEBDAEAV__crt_cached_ptd_host@@AEBQEAD@Z 000000018004f830 f i libucrtd:output.obj
 0001:0004e8d0       ??$?0AEBV?$string_output_adapter@D@__crt_stdio_output@@AEB_KAEBQEBDAEAV__crt_cached_ptd_host@@AEBQEAD@?$standard_base@DV?$string_output_adapter@D@__crt_stdio_output@@@__crt_stdio_output@@IEAA@AEBV?$string_output_adapter@D@1@AEB_KAEBQEBDAEAV__crt_cached_ptd_host@@AEBQEAD@Z 000000018004f8d0 f i libucrtd:output.obj
 0001:0004e940       ??$?0AEBV?$string_output_adapter@_W@__crt_stdio_output@@AEB_KAEBQEB_WAEAV__crt_cached_ptd_host@@AEBQEAD@?$format_validation_base@_WV?$string_output_adapter@_W@__crt_stdio_output@@@__crt_stdio_output@@IEAA@AEBV?$string_output_adapter@_W@1@AEB_KAEBQEB_WAEAV__crt_cached_ptd_host@@AEBQEAD@Z 000000018004f940 f i libucrtd:output.obj
 0001:0004e990       ??$?0AEBV?$string_output_adapter@_W@__crt_stdio_output@@AEB_KAEBQEB_WAEAV__crt_cached_ptd_host@@AEBQEAD@?$positional_parameter_base@_WV?$string_output_adapter@_W@__crt_stdio_output@@@__crt_stdio_output@@IEAA@AEBV?$string_output_adapter@_W@1@AEB_KAEBQEB_WAEAV__crt_cached_ptd_host@@AEBQEAD@Z 000000018004f990 f i libucrtd:output.obj
 0001:0004ea30       ??$?0AEBV?$string_output_adapter@_W@__crt_stdio_output@@AEB_KAEBQEB_WAEAV__crt_cached_ptd_host@@AEBQEAD@?$standard_base@_WV?$string_output_adapter@_W@__crt_stdio_output@@@__crt_stdio_output@@IEAA@AEBV?$string_output_adapter@_W@1@AEB_KAEBQEB_WAEAV__crt_cached_ptd_host@@AEBQEAD@Z 000000018004fa30 f i libucrtd:output.obj
 0001:0004eec0       ??$__crt_interlocked_read@J@@YAJPEDJ@Z 000000018004fec0 f i libucrtd:output.obj
 0001:0004eee0       ??$_tcstol_internal@DPEAPEAD$0A@@@YAJAEAV__crt_cached_ptd_host@@QEBDQEAPEADH@Z 000000018004fee0 f i libucrtd:output.obj
 0001:0004ef30       ??$_tcstol_internal@_WPEAPEA_W$0A@@@YAJAEAV__crt_cached_ptd_host@@QEB_WQEAPEA_WH@Z 000000018004ff30 f i libucrtd:output.obj
 0001:00052f50       ??$count@D@formatting_buffer@__crt_stdio_output@@QEBA_KXZ 0000000180053f50 f i libucrtd:output.obj
 0001:00052fa0       ??$count@_W@formatting_buffer@__crt_stdio_output@@QEBA_KXZ 0000000180053fa0 f i libucrtd:output.obj
 0001:00052ff0       ??$data@D@formatting_buffer@__crt_stdio_output@@QEAAPEADXZ 0000000180053ff0 f i libucrtd:output.obj
 0001:00053040       ??$data@_W@formatting_buffer@__crt_stdio_output@@QEAAPEA_WXZ 0000000180054040 f i libucrtd:output.obj
 0001:00053090       ??$ensure_buffer_is_big_enough@D@formatting_buffer@__crt_stdio_output@@QEAA_N_KAEAV__crt_cached_ptd_host@@@Z 0000000180054090 f i libucrtd:output.obj
 0001:000531d0       ??$ensure_buffer_is_big_enough@_W@formatting_buffer@__crt_stdio_output@@QEAA_N_KAEAV__crt_cached_ptd_host@@@Z 00000001800541d0 f i libucrtd:output.obj
 0001:00053310       ??$extract_argument_from_va_list@C_J@?$positional_parameter_base@DV?$stream_output_adapter@D@__crt_stdio_output@@@__crt_stdio_output@@IEAA_NAEA_J@Z 0000000180054310 f i libucrtd:output.obj
 0001:000534d0       ??$extract_argument_from_va_list@C_J@?$positional_parameter_base@DV?$string_output_adapter@D@__crt_stdio_output@@@__crt_stdio_output@@IEAA_NAEA_J@Z 00000001800544d0 f i libucrtd:output.obj
 0001:00053690       ??$extract_argument_from_va_list@C_J@?$positional_parameter_base@_WV?$stream_output_adapter@_W@__crt_stdio_output@@@__crt_stdio_output@@IEAA_NAEA_J@Z 0000000180054690 f i libucrtd:output.obj
 0001:00053850       ??$extract_argument_from_va_list@C_J@?$positional_parameter_base@_WV?$string_output_adapter@_W@__crt_stdio_output@@@__crt_stdio_output@@IEAA_NAEA_J@Z 0000000180054850 f i libucrtd:output.obj
 0001:00053a10       ??$extract_argument_from_va_list@C_J@?$standard_base@DV?$stream_output_adapter@D@__crt_stdio_output@@@__crt_stdio_output@@IEAA_NAEA_J@Z 0000000180054a10 f i libucrtd:output.obj
 0001:00053a50       ??$extract_argument_from_va_list@C_J@?$standard_base@DV?$string_output_adapter@D@__crt_stdio_output@@@__crt_stdio_output@@IEAA_NAEA_J@Z 0000000180054a50 f i libucrtd:output.obj
 0001:00053a90       ??$extract_argument_from_va_list@C_J@?$standard_base@_WV?$stream_output_adapter@_W@__crt_stdio_output@@@__crt_stdio_output@@IEAA_NAEA_J@Z 0000000180054a90 f i libucrtd:output.obj
 0001:00053ad0       ??$extract_argument_from_va_list@C_J@?$standard_base@_WV?$string_output_adapter@_W@__crt_stdio_output@@@__crt_stdio_output@@IEAA_NAEA_J@Z 0000000180054ad0 f i libucrtd:output.obj
 0001:00053b10       ??$extract_argument_from_va_list@E_J@?$positional_parameter_base@DV?$stream_output_adapter@D@__crt_stdio_output@@@__crt_stdio_output@@IEAA_NAEA_J@Z 0000000180054b10 f i libucrtd:output.obj
 0001:00053cd0       ??$extract_argument_from_va_list@E_J@?$positional_parameter_base@DV?$string_output_adapter@D@__crt_stdio_output@@@__crt_stdio_output@@IEAA_NAEA_J@Z 0000000180054cd0 f i libucrtd:output.obj
 0001:00053e90       ??$extract_argument_from_va_list@E_J@?$positional_parameter_base@_WV?$stream_output_adapter@_W@__crt_stdio_output@@@__crt_stdio_output@@IEAA_NAEA_J@Z 0000000180054e90 f i libucrtd:output.obj
 0001:00054050       ??$extract_argument_from_va_list@E_J@?$positional_parameter_base@_WV?$string_output_adapter@_W@__crt_stdio_output@@@__crt_stdio_output@@IEAA_NAEA_J@Z 0000000180055050 f i libucrtd:output.obj
 0001:00054210       ??$extract_argument_from_va_list@E_J@?$standard_base@DV?$stream_output_adapter@D@__crt_stdio_output@@@__crt_stdio_output@@IEAA_NAEA_J@Z 0000000180055210 f i libucrtd:output.obj
 0001:00054250       ??$extract_argument_from_va_list@E_J@?$standard_base@DV?$string_output_adapter@D@__crt_stdio_output@@@__crt_stdio_output@@IEAA_NAEA_J@Z 0000000180055250 f i libucrtd:output.obj
 0001:00054290       ??$extract_argument_from_va_list@E_J@?$standard_base@_WV?$stream_output_adapter@_W@__crt_stdio_output@@@__crt_stdio_output@@IEAA_NAEA_J@Z 0000000180055290 f i libucrtd:output.obj
 0001:000542d0       ??$extract_argument_from_va_list@E_J@?$standard_base@_WV?$string_output_adapter@_W@__crt_stdio_output@@@__crt_stdio_output@@IEAA_NAEA_J@Z 00000001800552d0 f i libucrtd:output.obj
 0001:00054310       ??$extract_argument_from_va_list@F_J@?$positional_parameter_base@DV?$stream_output_adapter@D@__crt_stdio_output@@@__crt_stdio_output@@IEAA_NAEA_J@Z 0000000180055310 f i libucrtd:output.obj
 0001:000544d0       ??$extract_argument_from_va_list@F_J@?$positional_parameter_base@DV?$string_output_adapter@D@__crt_stdio_output@@@__crt_stdio_output@@IEAA_NAEA_J@Z 00000001800554d0 f i libucrtd:output.obj
 0001:00054690       ??$extract_argument_from_va_list@F_J@?$positional_parameter_base@_WV?$stream_output_adapter@_W@__crt_stdio_output@@@__crt_stdio_output@@IEAA_NAEA_J@Z 0000000180055690 f i libucrtd:output.obj
 0001:00054850       ??$extract_argument_from_va_list@F_J@?$positional_parameter_base@_WV?$string_output_adapter@_W@__crt_stdio_output@@@__crt_stdio_output@@IEAA_NAEA_J@Z 0000000180055850 f i libucrtd:output.obj
 0001:00054a10       ??$extract_argument_from_va_list@F_J@?$standard_base@DV?$stream_output_adapter@D@__crt_stdio_output@@@__crt_stdio_output@@IEAA_NAEA_J@Z 0000000180055a10 f i libucrtd:output.obj
 0001:00054a50       ??$extract_argument_from_va_list@F_J@?$standard_base@DV?$string_output_adapter@D@__crt_stdio_output@@@__crt_stdio_output@@IEAA_NAEA_J@Z 0000000180055a50 f i libucrtd:output.obj
 0001:00054a90       ??$extract_argument_from_va_list@F_J@?$standard_base@_WV?$stream_output_adapter@_W@__crt_stdio_output@@@__crt_stdio_output@@IEAA_NAEA_J@Z 0000000180055a90 f i libucrtd:output.obj
 0001:00054ad0       ??$extract_argument_from_va_list@F_J@?$standard_base@_WV?$string_output_adapter@_W@__crt_stdio_output@@@__crt_stdio_output@@IEAA_NAEA_J@Z 0000000180055ad0 f i libucrtd:output.obj
 0001:00054b10       ??$extract_argument_from_va_list@GD@?$positional_parameter_base@DV?$stream_output_adapter@D@__crt_stdio_output@@@__crt_stdio_output@@IEAA_NAEAD@Z 0000000180055b10 f i libucrtd:output.obj
 0001:00054cd0       ??$extract_argument_from_va_list@GD@?$positional_parameter_base@DV?$string_output_adapter@D@__crt_stdio_output@@@__crt_stdio_output@@IEAA_NAEAD@Z 0000000180055cd0 f i libucrtd:output.obj
 0001:00054e90       ??$extract_argument_from_va_list@GD@?$standard_base@DV?$stream_output_adapter@D@__crt_stdio_output@@@__crt_stdio_output@@IEAA_NAEAD@Z 0000000180055e90 f i libucrtd:output.obj
 0001:00054ec0       ??$extract_argument_from_va_list@GD@?$standard_base@DV?$string_output_adapter@D@__crt_stdio_output@@@__crt_stdio_output@@IEAA_NAEAD@Z 0000000180055ec0 f i libucrtd:output.obj
 0001:00054ef0       ??$extract_argument_from_va_list@G_J@?$positional_parameter_base@DV?$stream_output_adapter@D@__crt_stdio_output@@@__crt_stdio_output@@IEAA_NAEA_J@Z 0000000180055ef0 f i libucrtd:output.obj
 0001:000550b0       ??$extract_argument_from_va_list@G_J@?$positional_parameter_base@DV?$string_output_adapter@D@__crt_stdio_output@@@__crt_stdio_output@@IEAA_NAEA_J@Z 00000001800560b0 f i libucrtd:output.obj
 0001:00055270       ??$extract_argument_from_va_list@G_J@?$positional_parameter_base@_WV?$stream_output_adapter@_W@__crt_stdio_output@@@__crt_stdio_output@@IEAA_NAEA_J@Z 0000000180056270 f i libucrtd:output.obj
 0001:00055430       ??$extract_argument_from_va_list@G_J@?$positional_parameter_base@_WV?$string_output_adapter@_W@__crt_stdio_output@@@__crt_stdio_output@@IEAA_NAEA_J@Z 0000000180056430 f i libucrtd:output.obj
 0001:000555f0       ??$extract_argument_from_va_list@G_J@?$standard_base@DV?$stream_output_adapter@D@__crt_stdio_output@@@__crt_stdio_output@@IEAA_NAEA_J@Z 00000001800565f0 f i libucrtd:output.obj
 0001:00055630       ??$extract_argument_from_va_list@G_J@?$standard_base@DV?$string_output_adapter@D@__crt_stdio_output@@@__crt_stdio_output@@IEAA_NAEA_J@Z 0000000180056630 f i libucrtd:output.obj
 0001:00055670       ??$extract_argument_from_va_list@G_J@?$standard_base@_WV?$stream_output_adapter@_W@__crt_stdio_output@@@__crt_stdio_output@@IEAA_NAEA_J@Z 0000000180056670 f i libucrtd:output.obj
 0001:000556b0       ??$extract_argument_from_va_list@G_J@?$standard_base@_WV?$string_output_adapter@_W@__crt_stdio_output@@@__crt_stdio_output@@IEAA_NAEA_J@Z 00000001800566b0 f i libucrtd:output.obj
 0001:000556f0       ??$extract_argument_from_va_list@H_J@?$positional_parameter_base@DV?$stream_output_adapter@D@__crt_stdio_output@@@__crt_stdio_output@@IEAA_NAEA_J@Z 00000001800566f0 f i libucrtd:output.obj
 0001:000558b0       ??$extract_argument_from_va_list@H_J@?$positional_parameter_base@DV?$string_output_adapter@D@__crt_stdio_output@@@__crt_stdio_output@@IEAA_NAEA_J@Z 00000001800568b0 f i libucrtd:output.obj
 0001:00055a70       ??$extract_argument_from_va_list@H_J@?$positional_parameter_base@_WV?$stream_output_adapter@_W@__crt_stdio_output@@@__crt_stdio_output@@IEAA_NAEA_J@Z 0000000180056a70 f i libucrtd:output.obj
 0001:00055c30       ??$extract_argument_from_va_list@H_J@?$positional_parameter_base@_WV?$string_output_adapter@_W@__crt_stdio_output@@@__crt_stdio_output@@IEAA_NAEA_J@Z 0000000180056c30 f i libucrtd:output.obj
 0001:00055df0       ??$extract_argument_from_va_list@H_J@?$standard_base@DV?$stream_output_adapter@D@__crt_stdio_output@@@__crt_stdio_output@@IEAA_NAEA_J@Z 0000000180056df0 f i libucrtd:output.obj
 0001:00055e20       ??$extract_argument_from_va_list@H_J@?$standard_base@DV?$string_output_adapter@D@__crt_stdio_output@@@__crt_stdio_output@@IEAA_NAEA_J@Z 0000000180056e20 f i libucrtd:output.obj
 0001:00055e50       ??$extract_argument_from_va_list@H_J@?$standard_base@_WV?$stream_output_adapter@_W@__crt_stdio_output@@@__crt_stdio_output@@IEAA_NAEA_J@Z 0000000180056e50 f i libucrtd:output.obj
 0001:00055e80       ??$extract_argument_from_va_list@H_J@?$standard_base@_WV?$string_output_adapter@_W@__crt_stdio_output@@@__crt_stdio_output@@IEAA_NAEA_J@Z 0000000180056e80 f i libucrtd:output.obj
 0001:00055eb0       ??$extract_argument_from_va_list@I_J@?$positional_parameter_base@DV?$stream_output_adapter@D@__crt_stdio_output@@@__crt_stdio_output@@IEAA_NAEA_J@Z 0000000180056eb0 f i libucrtd:output.obj
 0001:00056070       ??$extract_argument_from_va_list@I_J@?$positional_parameter_base@DV?$string_output_adapter@D@__crt_stdio_output@@@__crt_stdio_output@@IEAA_NAEA_J@Z 0000000180057070 f i libucrtd:output.obj
 0001:00056230       ??$extract_argument_from_va_list@I_J@?$positional_parameter_base@_WV?$stream_output_adapter@_W@__crt_stdio_output@@@__crt_stdio_output@@IEAA_NAEA_J@Z 0000000180057230 f i libucrtd:output.obj
 0001:000563f0       ??$extract_argument_from_va_list@I_J@?$positional_parameter_base@_WV?$string_output_adapter@_W@__crt_stdio_output@@@__crt_stdio_output@@IEAA_NAEA_J@Z 00000001800573f0 f i libucrtd:output.obj
 0001:000565b0       ??$extract_argument_from_va_list@I_J@?$standard_base@DV?$stream_output_adapter@D@__crt_stdio_output@@@__crt_stdio_output@@IEAA_NAEA_J@Z 00000001800575b0 f i libucrtd:output.obj
 0001:000565e0       ??$extract_argument_from_va_list@I_J@?$standard_base@DV?$string_output_adapter@D@__crt_stdio_output@@@__crt_stdio_output@@IEAA_NAEA_J@Z 00000001800575e0 f i libucrtd:output.obj
 0001:00056610       ??$extract_argument_from_va_list@I_J@?$standard_base@_WV?$stream_output_adapter@_W@__crt_stdio_output@@@__crt_stdio_output@@IEAA_NAEA_J@Z 0000000180057610 f i libucrtd:output.obj
 0001:00056640       ??$extract_argument_from_va_list@I_J@?$standard_base@_WV?$string_output_adapter@_W@__crt_stdio_output@@@__crt_stdio_output@@IEAA_NAEA_J@Z 0000000180057640 f i libucrtd:output.obj
 0001:00056670       ??$extract_argument_from_va_list@PEADPEAD@?$positional_parameter_base@DV?$stream_output_adapter@D@__crt_stdio_output@@@__crt_stdio_output@@IEAA_NAEAPEAD@Z 0000000180057670 f i libucrtd:output.obj
 0001:00056830       ??$extract_argument_from_va_list@PEADPEAD@?$positional_parameter_base@DV?$string_output_adapter@D@__crt_stdio_output@@@__crt_stdio_output@@IEAA_NAEAPEAD@Z 0000000180057830 f i libucrtd:output.obj
 0001:000569f0       ??$extract_argument_from_va_list@PEADPEAD@?$positional_parameter_base@_WV?$stream_output_adapter@_W@__crt_stdio_output@@@__crt_stdio_output@@IEAA_NAEAPEAD@Z 00000001800579f0 f i libucrtd:output.obj
 0001:00056bb0       ??$extract_argument_from_va_list@PEADPEAD@?$positional_parameter_base@_WV?$string_output_adapter@_W@__crt_stdio_output@@@__crt_stdio_output@@IEAA_NAEAPEAD@Z 0000000180057bb0 f i libucrtd:output.obj
 0001:00056d70       ??$extract_argument_from_va_list@PEADPEAD@?$standard_base@DV?$stream_output_adapter@D@__crt_stdio_output@@@__crt_stdio_output@@IEAA_NAEAPEAD@Z 0000000180057d70 f i libucrtd:output.obj
 0001:00056da0       ??$extract_argument_from_va_list@PEADPEAD@?$standard_base@DV?$string_output_adapter@D@__crt_stdio_output@@@__crt_stdio_output@@IEAA_NAEAPEAD@Z 0000000180057da0 f i libucrtd:output.obj
 0001:00056dd0       ??$extract_argument_from_va_list@PEADPEAD@?$standard_base@_WV?$stream_output_adapter@_W@__crt_stdio_output@@@__crt_stdio_output@@IEAA_NAEAPEAD@Z 0000000180057dd0 f i libucrtd:output.obj
 0001:00056e00       ??$extract_argument_from_va_list@PEADPEAD@?$standard_base@_WV?$string_output_adapter@_W@__crt_stdio_output@@@__crt_stdio_output@@IEAA_NAEAPEAD@Z 0000000180057e00 f i libucrtd:output.obj
 0001:00056e30       ??$extract_argument_from_va_list@PEAUansi_string@?1??type_case_Z@?$output_processor@DV?$stream_output_adapter@D@__crt_stdio_output@@V?$format_validation_base@DV?$stream_output_adapter@D@__crt_stdio_output@@@2@@__crt_stdio_output@@AEAA_NXZ@PEAU1?1??234@AEAA_NXZ@@?$standard_base@DV?$stream_output_adapter@D@__crt_stdio_output@@@__crt_stdio_output@@IEAA_NAEAPEAUansi_string@?1??type_case_Z@?$output_processor@DV?$stream_output_adapter@D@__crt_stdio_output@@V?$format_validation_base@DV?$stream_output_adapter@D@__crt_stdio_output@@@2@@1@AEAA_NXZ@@Z 0000000180057e30 f i libucrtd:output.obj
 0001:00056e60       ??$extract_argument_from_va_list@PEAUansi_string@?1??type_case_Z@?$output_processor@DV?$stream_output_adapter@D@__crt_stdio_output@@V?$positional_parameter_base@DV?$stream_output_adapter@D@__crt_stdio_output@@@2@@__crt_stdio_output@@AEAA_NXZ@PEAU1?1??234@AEAA_NXZ@@?$positional_parameter_base@DV?$stream_output_adapter@D@__crt_stdio_output@@@__crt_stdio_output@@IEAA_NAEAPEAUansi_string@?1??type_case_Z@?$output_processor@DV?$stream_output_adapter@D@__crt_stdio_output@@V?$positional_parameter_base@DV?$stream_output_adapter@D@__crt_stdio_output@@@2@@1@AEAA_NXZ@@Z 0000000180057e60 f i libucrtd:output.obj
 0001:00057020       ??$extract_argument_from_va_list@PEAUansi_string@?1??type_case_Z@?$output_processor@DV?$stream_output_adapter@D@__crt_stdio_output@@V?$positional_parameter_base@DV?$stream_output_adapter@D@__crt_stdio_output@@@2@@__crt_stdio_output@@AEAA_NXZ@PEAU1?1??234@AEAA_NXZ@@?$standard_base@DV?$stream_output_adapter@D@__crt_stdio_output@@@__crt_stdio_output@@IEAA_NAEAPEAUansi_string@?1??type_case_Z@?$output_processor@DV?$stream_output_adapter@D@__crt_stdio_output@@V?$positional_parameter_base@DV?$stream_output_adapter@D@__crt_stdio_output@@@2@@1@AEAA_NXZ@@Z 0000000180058020 f i libucrtd:output.obj
 0001:00057050       ??$extract_argument_from_va_list@PEAUansi_string@?1??type_case_Z@?$output_processor@DV?$stream_output_adapter@D@__crt_stdio_output@@V?$standard_base@DV?$stream_output_adapter@D@__crt_stdio_output@@@2@@__crt_stdio_output@@AEAA_NXZ@PEAU1?1??234@AEAA_NXZ@@?$standard_base@DV?$stream_output_adapter@D@__crt_stdio_output@@@__crt_stdio_output@@IEAA_NAEAPEAUansi_string@?1??type_case_Z@?$output_processor@DV?$stream_output_adapter@D@__crt_stdio_output@@V?$standard_base@DV?$stream_output_adapter@D@__crt_stdio_output@@@2@@1@AEAA_NXZ@@Z 0000000180058050 f i libucrtd:output.obj
 0001:00057080       ??$extract_argument_from_va_list@PEAUansi_string@?1??type_case_Z@?$output_processor@DV?$string_output_adapter@D@__crt_stdio_output@@V?$format_validation_base@DV?$string_output_adapter@D@__crt_stdio_output@@@2@@__crt_stdio_output@@AEAA_NXZ@PEAU1?1??234@AEAA_NXZ@@?$standard_base@DV?$string_output_adapter@D@__crt_stdio_output@@@__crt_stdio_output@@IEAA_NAEAPEAUansi_string@?1??type_case_Z@?$output_processor@DV?$string_output_adapter@D@__crt_stdio_output@@V?$format_validation_base@DV?$string_output_adapter@D@__crt_stdio_output@@@2@@1@AEAA_NXZ@@Z 0000000180058080 f i libucrtd:output.obj
 0001:000570b0       ??$extract_argument_from_va_list@PEAUansi_string@?1??type_case_Z@?$output_processor@DV?$string_output_adapter@D@__crt_stdio_output@@V?$positional_parameter_base@DV?$string_output_adapter@D@__crt_stdio_output@@@2@@__crt_stdio_output@@AEAA_NXZ@PEAU1?1??234@AEAA_NXZ@@?$positional_parameter_base@DV?$string_output_adapter@D@__crt_stdio_output@@@__crt_stdio_output@@IEAA_NAEAPEAUansi_string@?1??type_case_Z@?$output_processor@DV?$string_output_adapter@D@__crt_stdio_output@@V?$positional_parameter_base@DV?$string_output_adapter@D@__crt_stdio_output@@@2@@1@AEAA_NXZ@@Z 00000001800580b0 f i libucrtd:output.obj
 0001:00057270       ??$extract_argument_from_va_list@PEAUansi_string@?1??type_case_Z@?$output_processor@DV?$string_output_adapter@D@__crt_stdio_output@@V?$positional_parameter_base@DV?$string_output_adapter@D@__crt_stdio_output@@@2@@__crt_stdio_output@@AEAA_NXZ@PEAU1?1??234@AEAA_NXZ@@?$standard_base@DV?$string_output_adapter@D@__crt_stdio_output@@@__crt_stdio_output@@IEAA_NAEAPEAUansi_string@?1??type_case_Z@?$output_processor@DV?$string_output_adapter@D@__crt_stdio_output@@V?$positional_parameter_base@DV?$string_output_adapter@D@__crt_stdio_output@@@2@@1@AEAA_NXZ@@Z 0000000180058270 f i libucrtd:output.obj
 0001:000572a0       ??$extract_argument_from_va_list@PEAUansi_string@?1??type_case_Z@?$output_processor@DV?$string_output_adapter@D@__crt_stdio_output@@V?$standard_base@DV?$string_output_adapter@D@__crt_stdio_output@@@2@@__crt_stdio_output@@AEAA_NXZ@PEAU1?1??234@AEAA_NXZ@@?$standard_base@DV?$string_output_adapter@D@__crt_stdio_output@@@__crt_stdio_output@@IEAA_NAEAPEAUansi_string@?1??type_case_Z@?$output_processor@DV?$string_output_adapter@D@__crt_stdio_output@@V?$standard_base@DV?$string_output_adapter@D@__crt_stdio_output@@@2@@1@AEAA_NXZ@@Z 00000001800582a0 f i libucrtd:output.obj
 0001:000572d0       ??$extract_argument_from_va_list@PEAUansi_string@?1??type_case_Z@?$output_processor@_WV?$stream_output_adapter@_W@__crt_stdio_output@@V?$format_validation_base@_WV?$stream_output_adapter@_W@__crt_stdio_output@@@2@@__crt_stdio_output@@AEAA_NXZ@PEAU1?1??234@AEAA_NXZ@@?$standard_base@_WV?$stream_output_adapter@_W@__crt_stdio_output@@@__crt_stdio_output@@IEAA_NAEAPEAUansi_string@?1??type_case_Z@?$output_processor@_WV?$stream_output_adapter@_W@__crt_stdio_output@@V?$format_validation_base@_WV?$stream_output_adapter@_W@__crt_stdio_output@@@2@@1@AEAA_NXZ@@Z 00000001800582d0 f i libucrtd:output.obj
 0001:00057300       ??$extract_argument_from_va_list@PEAUansi_string@?1??type_case_Z@?$output_processor@_WV?$stream_output_adapter@_W@__crt_stdio_output@@V?$positional_parameter_base@_WV?$stream_output_adapter@_W@__crt_stdio_output@@@2@@__crt_stdio_output@@AEAA_NXZ@PEAU1?1??234@AEAA_NXZ@@?$positional_parameter_base@_WV?$stream_output_adapter@_W@__crt_stdio_output@@@__crt_stdio_output@@IEAA_NAEAPEAUansi_string@?1??type_case_Z@?$output_processor@_WV?$stream_output_adapter@_W@__crt_stdio_output@@V?$positional_parameter_base@_WV?$stream_output_adapter@_W@__crt_stdio_output@@@2@@1@AEAA_NXZ@@Z 0000000180058300 f i libucrtd:output.obj
 0001:000574c0       ??$extract_argument_from_va_list@PEAUansi_string@?1??type_case_Z@?$output_processor@_WV?$stream_output_adapter@_W@__crt_stdio_output@@V?$positional_parameter_base@_WV?$stream_output_adapter@_W@__crt_stdio_output@@@2@@__crt_stdio_output@@AEAA_NXZ@PEAU1?1??234@AEAA_NXZ@@?$standard_base@_WV?$stream_output_adapter@_W@__crt_stdio_output@@@__crt_stdio_output@@IEAA_NAEAPEAUansi_string@?1??type_case_Z@?$output_processor@_WV?$stream_output_adapter@_W@__crt_stdio_output@@V?$positional_parameter_base@_WV?$stream_output_adapter@_W@__crt_stdio_output@@@2@@1@AEAA_NXZ@@Z 00000001800584c0 f i libucrtd:output.obj
 0001:000574f0       ??$extract_argument_from_va_list@PEAUansi_string@?1??type_case_Z@?$output_processor@_WV?$stream_output_adapter@_W@__crt_stdio_output@@V?$standard_base@_WV?$stream_output_adapter@_W@__crt_stdio_output@@@2@@__crt_stdio_output@@AEAA_NXZ@PEAU1?1??234@AEAA_NXZ@@?$standard_base@_WV?$stream_output_adapter@_W@__crt_stdio_output@@@__crt_stdio_output@@IEAA_NAEAPEAUansi_string@?1??type_case_Z@?$output_processor@_WV?$stream_output_adapter@_W@__crt_stdio_output@@V?$standard_base@_WV?$stream_output_adapter@_W@__crt_stdio_output@@@2@@1@AEAA_NXZ@@Z 00000001800584f0 f i libucrtd:output.obj
 0001:00057520       ??$extract_argument_from_va_list@PEAUansi_string@?1??type_case_Z@?$output_processor@_WV?$string_output_adapter@_W@__crt_stdio_output@@V?$format_validation_base@_WV?$string_output_adapter@_W@__crt_stdio_output@@@2@@__crt_stdio_output@@AEAA_NXZ@PEAU1?1??234@AEAA_NXZ@@?$standard_base@_WV?$string_output_adapter@_W@__crt_stdio_output@@@__crt_stdio_output@@IEAA_NAEAPEAUansi_string@?1??type_case_Z@?$output_processor@_WV?$string_output_adapter@_W@__crt_stdio_output@@V?$format_validation_base@_WV?$string_output_adapter@_W@__crt_stdio_output@@@2@@1@AEAA_NXZ@@Z 0000000180058520 f i libucrtd:output.obj
 0001:00057550       ??$extract_argument_from_va_list@PEAUansi_string@?1??type_case_Z@?$output_processor@_WV?$string_output_adapter@_W@__crt_stdio_output@@V?$positional_parameter_base@_WV?$string_output_adapter@_W@__crt_stdio_output@@@2@@__crt_stdio_output@@AEAA_NXZ@PEAU1?1??234@AEAA_NXZ@@?$positional_parameter_base@_WV?$string_output_adapter@_W@__crt_stdio_output@@@__crt_stdio_output@@IEAA_NAEAPEAUansi_string@?1??type_case_Z@?$output_processor@_WV?$string_output_adapter@_W@__crt_stdio_output@@V?$positional_parameter_base@_WV?$string_output_adapter@_W@__crt_stdio_output@@@2@@1@AEAA_NXZ@@Z 0000000180058550 f i libucrtd:output.obj
 0001:00057710       ??$extract_argument_from_va_list@PEAUansi_string@?1??type_case_Z@?$output_processor@_WV?$string_output_adapter@_W@__crt_stdio_output@@V?$positional_parameter_base@_WV?$string_output_adapter@_W@__crt_stdio_output@@@2@@__crt_stdio_output@@AEAA_NXZ@PEAU1?1??234@AEAA_NXZ@@?$standard_base@_WV?$string_output_adapter@_W@__crt_stdio_output@@@__crt_stdio_output@@IEAA_NAEAPEAUansi_string@?1??type_case_Z@?$output_processor@_WV?$string_output_adapter@_W@__crt_stdio_output@@V?$positional_parameter_base@_WV?$string_output_adapter@_W@__crt_stdio_output@@@2@@1@AEAA_NXZ@@Z 0000000180058710 f i libucrtd:output.obj
 0001:00057740       ??$extract_argument_from_va_list@PEAUansi_string@?1??type_case_Z@?$output_processor@_WV?$string_output_adapter@_W@__crt_stdio_output@@V?$standard_base@_WV?$string_output_adapter@_W@__crt_stdio_output@@@2@@__crt_stdio_output@@AEAA_NXZ@PEAU1?1??234@AEAA_NXZ@@?$standard_base@_WV?$string_output_adapter@_W@__crt_stdio_output@@@__crt_stdio_output@@IEAA_NAEAPEAUansi_string@?1??type_case_Z@?$output_processor@_WV?$string_output_adapter@_W@__crt_stdio_output@@V?$standard_base@_WV?$string_output_adapter@_W@__crt_stdio_output@@@2@@1@AEAA_NXZ@@Z 0000000180058740 f i libucrtd:output.obj
 0001:00057770       ??$extract_argument_from_va_list@PEAXPEAX@?$positional_parameter_base@DV?$stream_output_adapter@D@__crt_stdio_output@@@__crt_stdio_output@@IEAA_NAEAPEAX@Z 0000000180058770 f i libucrtd:output.obj
 0001:00057930       ??$extract_argument_from_va_list@PEAXPEAX@?$positional_parameter_base@DV?$string_output_adapter@D@__crt_stdio_output@@@__crt_stdio_output@@IEAA_NAEAPEAX@Z 0000000180058930 f i libucrtd:output.obj
 0001:00057af0       ??$extract_argument_from_va_list@PEAXPEAX@?$positional_parameter_base@_WV?$stream_output_adapter@_W@__crt_stdio_output@@@__crt_stdio_output@@IEAA_NAEAPEAX@Z 0000000180058af0 f i libucrtd:output.obj
 0001:00057cb0       ??$extract_argument_from_va_list@PEAXPEAX@?$positional_parameter_base@_WV?$string_output_adapter@_W@__crt_stdio_output@@@__crt_stdio_output@@IEAA_NAEAPEAX@Z 0000000180058cb0 f i libucrtd:output.obj
 0001:00057e70       ??$extract_argument_from_va_list@PEAXPEAX@?$standard_base@DV?$stream_output_adapter@D@__crt_stdio_output@@@__crt_stdio_output@@IEAA_NAEAPEAX@Z 0000000180058e70 f i libucrtd:output.obj
 0001:00057ea0       ??$extract_argument_from_va_list@PEAXPEAX@?$standard_base@DV?$string_output_adapter@D@__crt_stdio_output@@@__crt_stdio_output@@IEAA_NAEAPEAX@Z 0000000180058ea0 f i libucrtd:output.obj
 0001:00057ed0       ??$extract_argument_from_va_list@PEAXPEAX@?$standard_base@_WV?$stream_output_adapter@_W@__crt_stdio_output@@@__crt_stdio_output@@IEAA_NAEAPEAX@Z 0000000180058ed0 f i libucrtd:output.obj
 0001:00057f00       ??$extract_argument_from_va_list@PEAXPEAX@?$standard_base@_WV?$string_output_adapter@_W@__crt_stdio_output@@@__crt_stdio_output@@IEAA_NAEAPEAX@Z 0000000180058f00 f i libucrtd:output.obj
 0001:00057f30       ??$extract_argument_from_va_list@U_CRT_DOUBLE@@U1@@?$positional_parameter_base@DV?$stream_output_adapter@D@__crt_stdio_output@@@__crt_stdio_output@@IEAA_NAEAU_CRT_DOUBLE@@@Z 0000000180058f30 f i libucrtd:output.obj
 0001:00058150       ??$extract_argument_from_va_list@U_CRT_DOUBLE@@U1@@?$positional_parameter_base@DV?$string_output_adapter@D@__crt_stdio_output@@@__crt_stdio_output@@IEAA_NAEAU_CRT_DOUBLE@@@Z 0000000180059150 f i libucrtd:output.obj
 0001:00058370       ??$extract_argument_from_va_list@U_CRT_DOUBLE@@U1@@?$positional_parameter_base@_WV?$stream_output_adapter@_W@__crt_stdio_output@@@__crt_stdio_output@@IEAA_NAEAU_CRT_DOUBLE@@@Z 0000000180059370 f i libucrtd:output.obj
 0001:00058590       ??$extract_argument_from_va_list@U_CRT_DOUBLE@@U1@@?$positional_parameter_base@_WV?$string_output_adapter@_W@__crt_stdio_output@@@__crt_stdio_output@@IEAA_NAEAU_CRT_DOUBLE@@@Z 0000000180059590 f i libucrtd:output.obj
 0001:000587b0       ??$extract_argument_from_va_list@U_CRT_DOUBLE@@U1@@?$standard_base@DV?$stream_output_adapter@D@__crt_stdio_output@@@__crt_stdio_output@@IEAA_NAEAU_CRT_DOUBLE@@@Z 00000001800597b0 f i libucrtd:output.obj
 0001:00058800       ??$extract_argument_from_va_list@U_CRT_DOUBLE@@U1@@?$standard_base@DV?$string_output_adapter@D@__crt_stdio_output@@@__crt_stdio_output@@IEAA_NAEAU_CRT_DOUBLE@@@Z 0000000180059800 f i libucrtd:output.obj
 0001:00058850       ??$extract_argument_from_va_list@U_CRT_DOUBLE@@U1@@?$standard_base@_WV?$stream_output_adapter@_W@__crt_stdio_output@@@__crt_stdio_output@@IEAA_NAEAU_CRT_DOUBLE@@@Z 0000000180059850 f i libucrtd:output.obj
 0001:000588a0       ??$extract_argument_from_va_list@U_CRT_DOUBLE@@U1@@?$standard_base@_WV?$string_output_adapter@_W@__crt_stdio_output@@@__crt_stdio_output@@IEAA_NAEAU_CRT_DOUBLE@@@Z 00000001800598a0 f i libucrtd:output.obj
 0001:000588f0       ??$extract_argument_from_va_list@_J_J@?$positional_parameter_base@DV?$stream_output_adapter@D@__crt_stdio_output@@@__crt_stdio_output@@IEAA_NAEA_J@Z 00000001800598f0 f i libucrtd:output.obj
 0001:00058ab0       ??$extract_argument_from_va_list@_J_J@?$positional_parameter_base@DV?$string_output_adapter@D@__crt_stdio_output@@@__crt_stdio_output@@IEAA_NAEA_J@Z 0000000180059ab0 f i libucrtd:output.obj
 0001:00058c70       ??$extract_argument_from_va_list@_J_J@?$positional_parameter_base@_WV?$stream_output_adapter@_W@__crt_stdio_output@@@__crt_stdio_output@@IEAA_NAEA_J@Z 0000000180059c70 f i libucrtd:output.obj
 0001:00058e30       ??$extract_argument_from_va_list@_J_J@?$positional_parameter_base@_WV?$string_output_adapter@_W@__crt_stdio_output@@@__crt_stdio_output@@IEAA_NAEA_J@Z 0000000180059e30 f i libucrtd:output.obj
 0001:00058ff0       ??$extract_argument_from_va_list@_J_J@?$standard_base@DV?$stream_output_adapter@D@__crt_stdio_output@@@__crt_stdio_output@@IEAA_NAEA_J@Z 0000000180059ff0 f i libucrtd:output.obj
 0001:00059020       ??$extract_argument_from_va_list@_J_J@?$standard_base@DV?$string_output_adapter@D@__crt_stdio_output@@@__crt_stdio_output@@IEAA_NAEA_J@Z 000000018005a020 f i libucrtd:output.obj
 0001:00059050       ??$extract_argument_from_va_list@_J_J@?$standard_base@_WV?$stream_output_adapter@_W@__crt_stdio_output@@@__crt_stdio_output@@IEAA_NAEA_J@Z 000000018005a050 f i libucrtd:output.obj
 0001:00059080       ??$extract_argument_from_va_list@_J_J@?$standard_base@_WV?$string_output_adapter@_W@__crt_stdio_output@@@__crt_stdio_output@@IEAA_NAEA_J@Z 000000018005a080 f i libucrtd:output.obj
 0001:000590b0       ??$extract_argument_from_va_list@_K_J@?$positional_parameter_base@DV?$stream_output_adapter@D@__crt_stdio_output@@@__crt_stdio_output@@IEAA_NAEA_J@Z 000000018005a0b0 f i libucrtd:output.obj
 0001:00059270       ??$extract_argument_from_va_list@_K_J@?$positional_parameter_base@DV?$string_output_adapter@D@__crt_stdio_output@@@__crt_stdio_output@@IEAA_NAEA_J@Z 000000018005a270 f i libucrtd:output.obj
 0001:00059430       ??$extract_argument_from_va_list@_K_J@?$positional_parameter_base@_WV?$stream_output_adapter@_W@__crt_stdio_output@@@__crt_stdio_output@@IEAA_NAEA_J@Z 000000018005a430 f i libucrtd:output.obj
 0001:000595f0       ??$extract_argument_from_va_list@_K_J@?$positional_parameter_base@_WV?$string_output_adapter@_W@__crt_stdio_output@@@__crt_stdio_output@@IEAA_NAEA_J@Z 000000018005a5f0 f i libucrtd:output.obj
 0001:000597b0       ??$extract_argument_from_va_list@_K_J@?$standard_base@DV?$stream_output_adapter@D@__crt_stdio_output@@@__crt_stdio_output@@IEAA_NAEA_J@Z 000000018005a7b0 f i libucrtd:output.obj
 0001:000597e0       ??$extract_argument_from_va_list@_K_J@?$standard_base@DV?$string_output_adapter@D@__crt_stdio_output@@@__crt_stdio_output@@IEAA_NAEA_J@Z 000000018005a7e0 f i libucrtd:output.obj
 0001:00059810       ??$extract_argument_from_va_list@_K_J@?$standard_base@_WV?$stream_output_adapter@_W@__crt_stdio_output@@@__crt_stdio_output@@IEAA_NAEA_J@Z 000000018005a810 f i libucrtd:output.obj
 0001:00059840       ??$extract_argument_from_va_list@_K_J@?$standard_base@_WV?$string_output_adapter@_W@__crt_stdio_output@@@__crt_stdio_output@@IEAA_NAEA_J@Z 000000018005a840 f i libucrtd:output.obj
 0001:00059870       ??$extract_argument_from_va_list@_W_W@?$positional_parameter_base@DV?$stream_output_adapter@D@__crt_stdio_output@@@__crt_stdio_output@@IEAA_NAEA_W@Z 000000018005a870 f i libucrtd:output.obj
 0001:00059a30       ??$extract_argument_from_va_list@_W_W@?$positional_parameter_base@DV?$string_output_adapter@D@__crt_stdio_output@@@__crt_stdio_output@@IEAA_NAEA_W@Z 000000018005aa30 f i libucrtd:output.obj
 0001:00059bf0       ??$extract_argument_from_va_list@_W_W@?$positional_parameter_base@_WV?$stream_output_adapter@_W@__crt_stdio_output@@@__crt_stdio_output@@IEAA_NAEA_W@Z 000000018005abf0 f i libucrtd:output.obj
 0001:00059db0       ??$extract_argument_from_va_list@_W_W@?$positional_parameter_base@_WV?$string_output_adapter@_W@__crt_stdio_output@@@__crt_stdio_output@@IEAA_NAEA_W@Z 000000018005adb0 f i libucrtd:output.obj
 0001:00059f70       ??$extract_argument_from_va_list@_W_W@?$standard_base@DV?$stream_output_adapter@D@__crt_stdio_output@@@__crt_stdio_output@@IEAA_NAEA_W@Z 000000018005af70 f i libucrtd:output.obj
 0001:00059fa0       ??$extract_argument_from_va_list@_W_W@?$standard_base@DV?$string_output_adapter@D@__crt_stdio_output@@@__crt_stdio_output@@IEAA_NAEA_W@Z 000000018005afa0 f i libucrtd:output.obj
 0001:00059fd0       ??$extract_argument_from_va_list@_W_W@?$standard_base@_WV?$stream_output_adapter@_W@__crt_stdio_output@@@__crt_stdio_output@@IEAA_NAEA_W@Z 000000018005afd0 f i libucrtd:output.obj
 0001:0005a000       ??$extract_argument_from_va_list@_W_W@?$standard_base@_WV?$string_output_adapter@_W@__crt_stdio_output@@@__crt_stdio_output@@IEAA_NAEA_W@Z 000000018005b000 f i libucrtd:output.obj
 0001:0005a030       ??$get_parameter_type@D@?$positional_parameter_base@DV?$stream_output_adapter@D@__crt_stdio_output@@@__crt_stdio_output@@CA?AW4parameter_type@01@PEAD@Z 000000018005b030 f i libucrtd:output.obj
 0001:0005a040       ??$get_parameter_type@D@?$positional_parameter_base@DV?$string_output_adapter@D@__crt_stdio_output@@@__crt_stdio_output@@CA?AW4parameter_type@01@PEAD@Z 000000018005b040 f i libucrtd:output.obj
 0001:0005a050       ??$get_parameter_type@D@?$positional_parameter_base@_WV?$stream_output_adapter@_W@__crt_stdio_output@@@__crt_stdio_output@@CA?AW4parameter_type@01@PEAD@Z 000000018005b050 f i libucrtd:output.obj
 0001:0005a060       ??$get_parameter_type@D@?$positional_parameter_base@_WV?$string_output_adapter@_W@__crt_stdio_output@@@__crt_stdio_output@@CA?AW4parameter_type@01@PEAD@Z 000000018005b060 f i libucrtd:output.obj
 0001:0005a070       ??$get_parameter_type@Uansi_string@?1??type_case_Z@?$output_processor@DV?$stream_output_adapter@D@__crt_stdio_output@@V?$positional_parameter_base@DV?$stream_output_adapter@D@__crt_stdio_output@@@2@@__crt_stdio_output@@AEAA_NXZ@@?$positional_parameter_base@DV?$stream_output_adapter@D@__crt_stdio_output@@@__crt_stdio_output@@CA?AW4parameter_type@01@PEAUansi_string@?1??type_case_Z@?$output_processor@DV?$stream_output_adapter@D@__crt_stdio_output@@V?$positional_parameter_base@DV?$stream_output_adapter@D@__crt_stdio_output@@@2@@1@AEAA_NXZ@@Z 000000018005b070 f i libucrtd:output.obj
 0001:0005a080       ??$get_parameter_type@Uansi_string@?1??type_case_Z@?$output_processor@DV?$string_output_adapter@D@__crt_stdio_output@@V?$positional_parameter_base@DV?$string_output_adapter@D@__crt_stdio_output@@@2@@__crt_stdio_output@@AEAA_NXZ@@?$positional_parameter_base@DV?$string_output_adapter@D@__crt_stdio_output@@@__crt_stdio_output@@CA?AW4parameter_type@01@PEAUansi_string@?1??type_case_Z@?$output_processor@DV?$string_output_adapter@D@__crt_stdio_output@@V?$positional_parameter_base@DV?$string_output_adapter@D@__crt_stdio_output@@@2@@1@AEAA_NXZ@@Z 000000018005b080 f i libucrtd:output.obj
 0001:0005a090       ??$get_parameter_type@Uansi_string@?1??type_case_Z@?$output_processor@_WV?$stream_output_adapter@_W@__crt_stdio_output@@V?$positional_parameter_base@_WV?$stream_output_adapter@_W@__crt_stdio_output@@@2@@__crt_stdio_output@@AEAA_NXZ@@?$positional_parameter_base@_WV?$stream_output_adapter@_W@__crt_stdio_output@@@__crt_stdio_output@@CA?AW4parameter_type@01@PEAUansi_string@?1??type_case_Z@?$output_processor@_WV?$stream_output_adapter@_W@__crt_stdio_output@@V?$positional_parameter_base@_WV?$stream_output_adapter@_W@__crt_stdio_output@@@2@@1@AEAA_NXZ@@Z 000000018005b090 f i libucrtd:output.obj
 0001:0005a0a0       ??$get_parameter_type@Uansi_string@?1??type_case_Z@?$output_processor@_WV?$string_output_adapter@_W@__crt_stdio_output@@V?$positional_parameter_base@_WV?$string_output_adapter@_W@__crt_stdio_output@@@2@@__crt_stdio_output@@AEAA_NXZ@@?$positional_parameter_base@_WV?$string_output_adapter@_W@__crt_stdio_output@@@__crt_stdio_output@@CA?AW4parameter_type@01@PEAUansi_string@?1??type_case_Z@?$output_processor@_WV?$string_output_adapter@_W@__crt_stdio_output@@V?$positional_parameter_base@_WV?$string_output_adapter@_W@__crt_stdio_output@@@2@@1@AEAA_NXZ@@Z 000000018005b0a0 f i libucrtd:output.obj
 0001:0005a0b0       ??$get_parameter_type@X@?$positional_parameter_base@DV?$stream_output_adapter@D@__crt_stdio_output@@@__crt_stdio_output@@CA?AW4parameter_type@01@PEAX@Z 000000018005b0b0 f i libucrtd:output.obj
 0001:0005a0c0       ??$get_parameter_type@X@?$positional_parameter_base@DV?$string_output_adapter@D@__crt_stdio_output@@@__crt_stdio_output@@CA?AW4parameter_type@01@PEAX@Z 000000018005b0c0 f i libucrtd:output.obj
 0001:0005a0d0       ??$get_parameter_type@X@?$positional_parameter_base@_WV?$stream_output_adapter@_W@__crt_stdio_output@@@__crt_stdio_output@@CA?AW4parameter_type@01@PEAX@Z 000000018005b0d0 f i libucrtd:output.obj
 0001:0005a0e0       ??$get_parameter_type@X@?$positional_parameter_base@_WV?$string_output_adapter@_W@__crt_stdio_output@@@__crt_stdio_output@@CA?AW4parameter_type@01@PEAX@Z 000000018005b0e0 f i libucrtd:output.obj
 0001:0005a0f0       ??$is_character_specifier@D@?$positional_parameter_base@DV?$stream_output_adapter@D@__crt_stdio_output@@@__crt_stdio_output@@CA_ND@Z 000000018005b0f0 f i libucrtd:output.obj
 0001:0005a130       ??$is_character_specifier@D@?$positional_parameter_base@DV?$string_output_adapter@D@__crt_stdio_output@@@__crt_stdio_output@@CA_ND@Z 000000018005b130 f i libucrtd:output.obj
 0001:0005a170       ??$is_character_specifier@_W@?$positional_parameter_base@_WV?$stream_output_adapter@_W@__crt_stdio_output@@@__crt_stdio_output@@CA_N_W@Z 000000018005b170 f i libucrtd:output.obj
 0001:0005a1b0       ??$is_character_specifier@_W@?$positional_parameter_base@_WV?$string_output_adapter@_W@__crt_stdio_output@@@__crt_stdio_output@@CA_N_W@Z 000000018005b1b0 f i libucrtd:output.obj
 0001:0005a1f0       ??$is_integral_specifier@D@?$positional_parameter_base@DV?$stream_output_adapter@D@__crt_stdio_output@@@__crt_stdio_output@@CA_ND@Z 000000018005b1f0 f i libucrtd:output.obj
 0001:0005a260       ??$is_integral_specifier@D@?$positional_parameter_base@DV?$string_output_adapter@D@__crt_stdio_output@@@__crt_stdio_output@@CA_ND@Z 000000018005b260 f i libucrtd:output.obj
 0001:0005a2d0       ??$is_integral_specifier@_W@?$positional_parameter_base@_WV?$stream_output_adapter@_W@__crt_stdio_output@@@__crt_stdio_output@@CA_N_W@Z 000000018005b2d0 f i libucrtd:output.obj
 0001:0005a340       ??$is_integral_specifier@_W@?$positional_parameter_base@_WV?$string_output_adapter@_W@__crt_stdio_output@@@__crt_stdio_output@@CA_N_W@Z 000000018005b340 f i libucrtd:output.obj
 0001:0005a3b0       ??$is_overflow_condition@K@__crt_strtox@@YA_NIK@Z 000000018005b3b0 f i libucrtd:output.obj
 0001:0005a420       ??$is_pointer_specifier@D@?$positional_parameter_base@DV?$stream_output_adapter@D@__crt_stdio_output@@@__crt_stdio_output@@CA_ND@Z 000000018005b420 f i libucrtd:output.obj
 0001:0005a450       ??$is_pointer_specifier@D@?$positional_parameter_base@DV?$string_output_adapter@D@__crt_stdio_output@@@__crt_stdio_output@@CA_ND@Z 000000018005b450 f i libucrtd:output.obj
 0001:0005a480       ??$is_pointer_specifier@_W@?$positional_parameter_base@_WV?$stream_output_adapter@_W@__crt_stdio_output@@@__crt_stdio_output@@CA_N_W@Z 000000018005b480 f i libucrtd:output.obj
 0001:0005a4b0       ??$is_pointer_specifier@_W@?$positional_parameter_base@_WV?$string_output_adapter@_W@__crt_stdio_output@@@__crt_stdio_output@@CA_N_W@Z 000000018005b4b0 f i libucrtd:output.obj
 0001:0005a4e0       ??$is_string_specifier@D@?$positional_parameter_base@DV?$stream_output_adapter@D@__crt_stdio_output@@@__crt_stdio_output@@CA_ND@Z 000000018005b4e0 f i libucrtd:output.obj
 0001:0005a520       ??$is_string_specifier@D@?$positional_parameter_base@DV?$string_output_adapter@D@__crt_stdio_output@@@__crt_stdio_output@@CA_ND@Z 000000018005b520 f i libucrtd:output.obj
 0001:0005a560       ??$is_string_specifier@_W@?$positional_parameter_base@_WV?$stream_output_adapter@_W@__crt_stdio_output@@@__crt_stdio_output@@CA_N_W@Z 000000018005b560 f i libucrtd:output.obj
 0001:0005a5a0       ??$is_string_specifier@_W@?$positional_parameter_base@_WV?$string_output_adapter@_W@__crt_stdio_output@@@__crt_stdio_output@@CA_N_W@Z 000000018005b5a0 f i libucrtd:output.obj
 0001:0005a5e0       ??$is_wide_character_specifier@D@__crt_stdio_output@@YA_N_KDW4length_modifier@0@@Z 000000018005b5e0 f i libucrtd:output.obj
 0001:0005a680       ??$is_wide_character_specifier@_W@__crt_stdio_output@@YA_N_K_WW4length_modifier@0@@Z 000000018005b680 f i libucrtd:output.obj
 0001:0005a750       ??$make_c_string_character_source@DPEAPEAD@__crt_strtox@@YA?AV?$c_string_character_source@D@0@QEBDQEAPEAD@Z 000000018005b750 f i libucrtd:output.obj
 0001:0005a790       ??$make_c_string_character_source@_WPEAPEA_W@__crt_strtox@@YA?AV?$c_string_character_source@_W@0@QEB_WQEAPEA_W@Z 000000018005b790 f i libucrtd:output.obj
 0001:0005a7d0       ??$parse_integer@KV?$c_string_character_source@D@__crt_strtox@@$0A@@__crt_strtox@@YAKAEAV__crt_cached_ptd_host@@V?$c_string_character_source@D@0@H_N@Z 000000018005b7d0 f i libucrtd:output.obj
 0001:0005ac50       ??$parse_integer@KV?$c_string_character_source@_W@__crt_strtox@@$0A@@__crt_strtox@@YAKAEAV__crt_cached_ptd_host@@V?$c_string_character_source@_W@0@H_N@Z 000000018005bc50 f i libucrtd:output.obj
 0001:0005b0d0       ??$peek_va_arg@C@__crt_stdio_output@@YACPEAD@Z 000000018005c0d0 f i libucrtd:output.obj
 0001:0005b130       ??$peek_va_arg@E@__crt_stdio_output@@YAEPEAD@Z 000000018005c130 f i libucrtd:output.obj
 0001:0005b190       ??$peek_va_arg@F@__crt_stdio_output@@YAFPEAD@Z 000000018005c190 f i libucrtd:output.obj
 0001:0005b1f0       ??$peek_va_arg@G@__crt_stdio_output@@YAGPEAD@Z 000000018005c1f0 f i libucrtd:output.obj
 0001:0005b250       ??$peek_va_arg@H@__crt_stdio_output@@YAHPEAD@Z 000000018005c250 f i libucrtd:output.obj
 0001:0005b2a0       ??$peek_va_arg@I@__crt_stdio_output@@YAIPEAD@Z 000000018005c2a0 f i libucrtd:output.obj
 0001:0005b2f0       ??$peek_va_arg@PEAD@__crt_stdio_output@@YAPEADPEAD@Z 000000018005c2f0 f i libucrtd:output.obj
 0001:0005b350       ??$peek_va_arg@PEAUansi_string@?1??type_case_Z@?$output_processor@DV?$stream_output_adapter@D@__crt_stdio_output@@V?$positional_parameter_base@DV?$stream_output_adapter@D@__crt_stdio_output@@@2@@__crt_stdio_output@@AEAA_NXZ@@__crt_stdio_output@@YAPEAUansi_string@?1??type_case_Z@?$output_processor@DV?$stream_output_adapter@D@__crt_stdio_output@@V?$positional_parameter_base@DV?$stream_output_adapter@D@__crt_stdio_output@@@2@@0@AEAA_NXZ@PEAD@Z 000000018005c350 f i libucrtd:output.obj
 0001:0005b3b0       ??$peek_va_arg@PEAUansi_string@?1??type_case_Z@?$output_processor@DV?$string_output_adapter@D@__crt_stdio_output@@V?$positional_parameter_base@DV?$string_output_adapter@D@__crt_stdio_output@@@2@@__crt_stdio_output@@AEAA_NXZ@@__crt_stdio_output@@YAPEAUansi_string@?1??type_case_Z@?$output_processor@DV?$string_output_adapter@D@__crt_stdio_output@@V?$positional_parameter_base@DV?$string_output_adapter@D@__crt_stdio_output@@@2@@0@AEAA_NXZ@PEAD@Z 000000018005c3b0 f i libucrtd:output.obj
 0001:0005b410       ??$peek_va_arg@PEAUansi_string@?1??type_case_Z@?$output_processor@_WV?$stream_output_adapter@_W@__crt_stdio_output@@V?$positional_parameter_base@_WV?$stream_output_adapter@_W@__crt_stdio_output@@@2@@__crt_stdio_output@@AEAA_NXZ@@__crt_stdio_output@@YAPEAUansi_string@?1??type_case_Z@?$output_processor@_WV?$stream_output_adapter@_W@__crt_stdio_output@@V?$positional_parameter_base@_WV?$stream_output_adapter@_W@__crt_stdio_output@@@2@@0@AEAA_NXZ@PEAD@Z 000000018005c410 f i libucrtd:output.obj
 0001:0005b470       ??$peek_va_arg@PEAUansi_string@?1??type_case_Z@?$output_processor@_WV?$string_output_adapter@_W@__crt_stdio_output@@V?$positional_parameter_base@_WV?$string_output_adapter@_W@__crt_stdio_output@@@2@@__crt_stdio_output@@AEAA_NXZ@@__crt_stdio_output@@YAPEAUansi_string@?1??type_case_Z@?$output_processor@_WV?$string_output_adapter@_W@__crt_stdio_output@@V?$positional_parameter_base@_WV?$string_output_adapter@_W@__crt_stdio_output@@@2@@0@AEAA_NXZ@PEAD@Z 000000018005c470 f i libucrtd:output.obj
 0001:0005b4d0       ??$peek_va_arg@PEAX@__crt_stdio_output@@YAPEAXPEAD@Z 000000018005c4d0 f i libucrtd:output.obj
 0001:0005b530       ??$peek_va_arg@U_CRT_DOUBLE@@@__crt_stdio_output@@YA?AU_CRT_DOUBLE@@PEAD@Z 000000018005c530 f i libucrtd:output.obj
 0001:0005b590       ??$peek_va_arg@_J@__crt_stdio_output@@YA_JPEAD@Z 000000018005c590 f i libucrtd:output.obj
 0001:0005b5f0       ??$peek_va_arg@_K@__crt_stdio_output@@YA_KPEAD@Z 000000018005c5f0 f i libucrtd:output.obj
 0001:0005b650       ??$peek_va_arg@_W@__crt_stdio_output@@YA_WPEAD@Z 000000018005c650 f i libucrtd:output.obj
 0001:0005b6b0       ??$puttc_nolock_internal@AEBDPEAU_iobuf@@AEAV__crt_cached_ptd_host@@@?$__crt_char_traits@D@@SAHAEBD$$QEAPEAU_iobuf@@AEAV__crt_cached_ptd_host@@@Z 000000018005c6b0 f i libucrtd:output.obj
 0001:0005b6f0       ??$puttc_nolock_internal@AEB_WPEAU_iobuf@@AEAV__crt_cached_ptd_host@@@?$__crt_char_traits@_W@@SAGAEB_W$$QEAPEAU_iobuf@@AEAV__crt_cached_ptd_host@@@Z 000000018005c6f0 f i libucrtd:output.obj
 0001:0005b730       ??$read_va_arg@C@__crt_stdio_output@@YACAEAPEAD@Z 000000018005c730 f i libucrtd:output.obj
 0001:0005b7a0       ??$read_va_arg@E@__crt_stdio_output@@YAEAEAPEAD@Z 000000018005c7a0 f i libucrtd:output.obj
 0001:0005b810       ??$read_va_arg@F@__crt_stdio_output@@YAFAEAPEAD@Z 000000018005c810 f i libucrtd:output.obj
 0001:0005b880       ??$read_va_arg@G@__crt_stdio_output@@YAGAEAPEAD@Z 000000018005c880 f i libucrtd:output.obj
 0001:0005b8f0       ??$read_va_arg@H@__crt_stdio_output@@YAHAEAPEAD@Z 000000018005c8f0 f i libucrtd:output.obj
 0001:0005b950       ??$read_va_arg@I@__crt_stdio_output@@YAIAEAPEAD@Z 000000018005c950 f i libucrtd:output.obj
 0001:0005b9b0       ??$read_va_arg@PEAD@__crt_stdio_output@@YAPEADAEAPEAD@Z 000000018005c9b0 f i libucrtd:output.obj
 0001:0005ba20       ??$read_va_arg@PEAUansi_string@?1??type_case_Z@?$output_processor@DV?$stream_output_adapter@D@__crt_stdio_output@@V?$format_validation_base@DV?$stream_output_adapter@D@__crt_stdio_output@@@2@@__crt_stdio_output@@AEAA_NXZ@@__crt_stdio_output@@YAPEAUansi_string@?1??type_case_Z@?$output_processor@DV?$stream_output_adapter@D@__crt_stdio_output@@V?$format_validation_base@DV?$stream_output_adapter@D@__crt_stdio_output@@@2@@0@AEAA_NXZ@AEAPEAD@Z 000000018005ca20 f i libucrtd:output.obj
 0001:0005ba90       ??$read_va_arg@PEAUansi_string@?1??type_case_Z@?$output_processor@DV?$stream_output_adapter@D@__crt_stdio_output@@V?$positional_parameter_base@DV?$stream_output_adapter@D@__crt_stdio_output@@@2@@__crt_stdio_output@@AEAA_NXZ@@__crt_stdio_output@@YAPEAUansi_string@?1??type_case_Z@?$output_processor@DV?$stream_output_adapter@D@__crt_stdio_output@@V?$positional_parameter_base@DV?$stream_output_adapter@D@__crt_stdio_output@@@2@@0@AEAA_NXZ@AEAPEAD@Z 000000018005ca90 f i libucrtd:output.obj
 0001:0005bb00       ??$read_va_arg@PEAUansi_string@?1??type_case_Z@?$output_processor@DV?$stream_output_adapter@D@__crt_stdio_output@@V?$standard_base@DV?$stream_output_adapter@D@__crt_stdio_output@@@2@@__crt_stdio_output@@AEAA_NXZ@@__crt_stdio_output@@YAPEAUansi_string@?1??type_case_Z@?$output_processor@DV?$stream_output_adapter@D@__crt_stdio_output@@V?$standard_base@DV?$stream_output_adapter@D@__crt_stdio_output@@@2@@0@AEAA_NXZ@AEAPEAD@Z 000000018005cb00 f i libucrtd:output.obj
 0001:0005bb70       ??$read_va_arg@PEAUansi_string@?1??type_case_Z@?$output_processor@DV?$string_output_adapter@D@__crt_stdio_output@@V?$format_validation_base@DV?$string_output_adapter@D@__crt_stdio_output@@@2@@__crt_stdio_output@@AEAA_NXZ@@__crt_stdio_output@@YAPEAUansi_string@?1??type_case_Z@?$output_processor@DV?$string_output_adapter@D@__crt_stdio_output@@V?$format_validation_base@DV?$string_output_adapter@D@__crt_stdio_output@@@2@@0@AEAA_NXZ@AEAPEAD@Z 000000018005cb70 f i libucrtd:output.obj
 0001:0005bbe0       ??$read_va_arg@PEAUansi_string@?1??type_case_Z@?$output_processor@DV?$string_output_adapter@D@__crt_stdio_output@@V?$positional_parameter_base@DV?$string_output_adapter@D@__crt_stdio_output@@@2@@__crt_stdio_output@@AEAA_NXZ@@__crt_stdio_output@@YAPEAUansi_string@?1??type_case_Z@?$output_processor@DV?$string_output_adapter@D@__crt_stdio_output@@V?$positional_parameter_base@DV?$string_output_adapter@D@__crt_stdio_output@@@2@@0@AEAA_NXZ@AEAPEAD@Z 000000018005cbe0 f i libucrtd:output.obj
 0001:0005bc50       ??$read_va_arg@PEAUansi_string@?1??type_case_Z@?$output_processor@DV?$string_output_adapter@D@__crt_stdio_output@@V?$standard_base@DV?$string_output_adapter@D@__crt_stdio_output@@@2@@__crt_stdio_output@@AEAA_NXZ@@__crt_stdio_output@@YAPEAUansi_string@?1??type_case_Z@?$output_processor@DV?$string_output_adapter@D@__crt_stdio_output@@V?$standard_base@DV?$string_output_adapter@D@__crt_stdio_output@@@2@@0@AEAA_NXZ@AEAPEAD@Z 000000018005cc50 f i libucrtd:output.obj
 0001:0005bcc0       ??$read_va_arg@PEAUansi_string@?1??type_case_Z@?$output_processor@_WV?$stream_output_adapter@_W@__crt_stdio_output@@V?$format_validation_base@_WV?$stream_output_adapter@_W@__crt_stdio_output@@@2@@__crt_stdio_output@@AEAA_NXZ@@__crt_stdio_output@@YAPEAUansi_string@?1??type_case_Z@?$output_processor@_WV?$stream_output_adapter@_W@__crt_stdio_output@@V?$format_validation_base@_WV?$stream_output_adapter@_W@__crt_stdio_output@@@2@@0@AEAA_NXZ@AEAPEAD@Z 000000018005ccc0 f i libucrtd:output.obj
 0001:0005bd30       ??$read_va_arg@PEAUansi_string@?1??type_case_Z@?$output_processor@_WV?$stream_output_adapter@_W@__crt_stdio_output@@V?$positional_parameter_base@_WV?$stream_output_adapter@_W@__crt_stdio_output@@@2@@__crt_stdio_output@@AEAA_NXZ@@__crt_stdio_output@@YAPEAUansi_string@?1??type_case_Z@?$output_processor@_WV?$stream_output_adapter@_W@__crt_stdio_output@@V?$positional_parameter_base@_WV?$stream_output_adapter@_W@__crt_stdio_output@@@2@@0@AEAA_NXZ@AEAPEAD@Z 000000018005cd30 f i libucrtd:output.obj
 0001:0005bda0       ??$read_va_arg@PEAUansi_string@?1??type_case_Z@?$output_processor@_WV?$stream_output_adapter@_W@__crt_stdio_output@@V?$standard_base@_WV?$stream_output_adapter@_W@__crt_stdio_output@@@2@@__crt_stdio_output@@AEAA_NXZ@@__crt_stdio_output@@YAPEAUansi_string@?1??type_case_Z@?$output_processor@_WV?$stream_output_adapter@_W@__crt_stdio_output@@V?$standard_base@_WV?$stream_output_adapter@_W@__crt_stdio_output@@@2@@0@AEAA_NXZ@AEAPEAD@Z 000000018005cda0 f i libucrtd:output.obj
 0001:0005be10       ??$read_va_arg@PEAUansi_string@?1??type_case_Z@?$output_processor@_WV?$string_output_adapter@_W@__crt_stdio_output@@V?$format_validation_base@_WV?$string_output_adapter@_W@__crt_stdio_output@@@2@@__crt_stdio_output@@AEAA_NXZ@@__crt_stdio_output@@YAPEAUansi_string@?1??type_case_Z@?$output_processor@_WV?$string_output_adapter@_W@__crt_stdio_output@@V?$format_validation_base@_WV?$string_output_adapter@_W@__crt_stdio_output@@@2@@0@AEAA_NXZ@AEAPEAD@Z 000000018005ce10 f i libucrtd:output.obj
 0001:0005be80       ??$read_va_arg@PEAUansi_string@?1??type_case_Z@?$output_processor@_WV?$string_output_adapter@_W@__crt_stdio_output@@V?$positional_parameter_base@_WV?$string_output_adapter@_W@__crt_stdio_output@@@2@@__crt_stdio_output@@AEAA_NXZ@@__crt_stdio_output@@YAPEAUansi_string@?1??type_case_Z@?$output_processor@_WV?$string_output_adapter@_W@__crt_stdio_output@@V?$positional_parameter_base@_WV?$string_output_adapter@_W@__crt_stdio_output@@@2@@0@AEAA_NXZ@AEAPEAD@Z 000000018005ce80 f i libucrtd:output.obj
 0001:0005bef0       ??$read_va_arg@PEAUansi_string@?1??type_case_Z@?$output_processor@_WV?$string_output_adapter@_W@__crt_stdio_output@@V?$standard_base@_WV?$string_output_adapter@_W@__crt_stdio_output@@@2@@__crt_stdio_output@@AEAA_NXZ@@__crt_stdio_output@@YAPEAUansi_string@?1??type_case_Z@?$output_processor@_WV?$string_output_adapter@_W@__crt_stdio_output@@V?$standard_base@_WV?$string_output_adapter@_W@__crt_stdio_output@@@2@@0@AEAA_NXZ@AEAPEAD@Z 000000018005cef0 f i libucrtd:output.obj
 0001:0005bf60       ??$read_va_arg@PEAX@__crt_stdio_output@@YAPEAXAEAPEAD@Z 000000018005cf60 f i libucrtd:output.obj
 0001:0005bfd0       ??$read_va_arg@U_CRT_DOUBLE@@@__crt_stdio_output@@YA?AU_CRT_DOUBLE@@AEAPEAD@Z 000000018005cfd0 f i libucrtd:output.obj
 0001:0005c040       ??$read_va_arg@_J@__crt_stdio_output@@YA_JAEAPEAD@Z 000000018005d040 f i libucrtd:output.obj
 0001:0005c0b0       ??$read_va_arg@_K@__crt_stdio_output@@YA_KAEAPEAD@Z 000000018005d0b0 f i libucrtd:output.obj
 0001:0005c120       ??$read_va_arg@_W@__crt_stdio_output@@YA_WAEAPEAD@Z 000000018005d120 f i libucrtd:output.obj
 0001:0005c190       ??$scratch_count@D@formatting_buffer@__crt_stdio_output@@QEBA_KXZ 000000018005d190 f i libucrtd:output.obj
 0001:0005c1b0       ??$scratch_data@D@formatting_buffer@__crt_stdio_output@@QEAAPEADXZ 000000018005d1b0 f i libucrtd:output.obj
 0001:0005c220       ??$type_case_integer@$07@?$output_processor@DV?$stream_output_adapter@D@__crt_stdio_output@@V?$format_validation_base@DV?$stream_output_adapter@D@__crt_stdio_output@@@2@@__crt_stdio_output@@AEAA_N_N@Z 000000018005d220 f i libucrtd:output.obj
 0001:0005c6a0       ??$type_case_integer@$07@?$output_processor@DV?$stream_output_adapter@D@__crt_stdio_output@@V?$positional_parameter_base@DV?$stream_output_adapter@D@__crt_stdio_output@@@2@@__crt_stdio_output@@AEAA_N_N@Z 000000018005d6a0 f i libucrtd:output.obj
 0001:0005cb20       ??$type_case_integer@$07@?$output_processor@DV?$stream_output_adapter@D@__crt_stdio_output@@V?$standard_base@DV?$stream_output_adapter@D@__crt_stdio_output@@@2@@__crt_stdio_output@@AEAA_N_N@Z 000000018005db20 f i libucrtd:output.obj
 0001:0005cfa0       ??$type_case_integer@$07@?$output_processor@DV?$string_output_adapter@D@__crt_stdio_output@@V?$format_validation_base@DV?$string_output_adapter@D@__crt_stdio_output@@@2@@__crt_stdio_output@@AEAA_N_N@Z 000000018005dfa0 f i libucrtd:output.obj
 0001:0005d420       ??$type_case_integer@$07@?$output_processor@DV?$string_output_adapter@D@__crt_stdio_output@@V?$positional_parameter_base@DV?$string_output_adapter@D@__crt_stdio_output@@@2@@__crt_stdio_output@@AEAA_N_N@Z 000000018005e420 f i libucrtd:output.obj
 0001:0005d8a0       ??$type_case_integer@$07@?$output_processor@DV?$string_output_adapter@D@__crt_stdio_output@@V?$standard_base@DV?$string_output_adapter@D@__crt_stdio_output@@@2@@__crt_stdio_output@@AEAA_N_N@Z 000000018005e8a0 f i libucrtd:output.obj
 0001:0005dd20       ??$type_case_integer@$07@?$output_processor@_WV?$stream_output_adapter@_W@__crt_stdio_output@@V?$format_validation_base@_WV?$stream_output_adapter@_W@__crt_stdio_output@@@2@@__crt_stdio_output@@AEAA_N_N@Z 000000018005ed20 f i libucrtd:output.obj
 0001:0005e1a0       ??$type_case_integer@$07@?$output_processor@_WV?$stream_output_adapter@_W@__crt_stdio_output@@V?$positional_parameter_base@_WV?$stream_output_adapter@_W@__crt_stdio_output@@@2@@__crt_stdio_output@@AEAA_N_N@Z 000000018005f1a0 f i libucrtd:output.obj
 0001:0005e620       ??$type_case_integer@$07@?$output_processor@_WV?$stream_output_adapter@_W@__crt_stdio_output@@V?$standard_base@_WV?$stream_output_adapter@_W@__crt_stdio_output@@@2@@__crt_stdio_output@@AEAA_N_N@Z 000000018005f620 f i libucrtd:output.obj
 0001:0005eaa0       ??$type_case_integer@$07@?$output_processor@_WV?$string_output_adapter@_W@__crt_stdio_output@@V?$format_validation_base@_WV?$string_output_adapter@_W@__crt_stdio_output@@@2@@__crt_stdio_output@@AEAA_N_N@Z 000000018005faa0 f i libucrtd:output.obj
 0001:0005ef20       ??$type_case_integer@$07@?$output_processor@_WV?$string_output_adapter@_W@__crt_stdio_output@@V?$positional_parameter_base@_WV?$string_output_adapter@_W@__crt_stdio_output@@@2@@__crt_stdio_output@@AEAA_N_N@Z 000000018005ff20 f i libucrtd:output.obj
 0001:0005f3a0       ??$type_case_integer@$07@?$output_processor@_WV?$string_output_adapter@_W@__crt_stdio_output@@V?$standard_base@_WV?$string_output_adapter@_W@__crt_stdio_output@@@2@@__crt_stdio_output@@AEAA_N_N@Z 00000001800603a0 f i libucrtd:output.obj
 0001:0005f820       ??$type_case_integer@$09@?$output_processor@DV?$stream_output_adapter@D@__crt_stdio_output@@V?$format_validation_base@DV?$stream_output_adapter@D@__crt_stdio_output@@@2@@__crt_stdio_output@@AEAA_N_N@Z 0000000180060820 f i libucrtd:output.obj
 0001:0005fca0       ??$type_case_integer@$09@?$output_processor@DV?$stream_output_adapter@D@__crt_stdio_output@@V?$positional_parameter_base@DV?$stream_output_adapter@D@__crt_stdio_output@@@2@@__crt_stdio_output@@AEAA_N_N@Z 0000000180060ca0 f i libucrtd:output.obj
 0001:00060120       ??$type_case_integer@$09@?$output_processor@DV?$stream_output_adapter@D@__crt_stdio_output@@V?$standard_base@DV?$stream_output_adapter@D@__crt_stdio_output@@@2@@__crt_stdio_output@@AEAA_N_N@Z 0000000180061120 f i libucrtd:output.obj
 0001:000605a0       ??$type_case_integer@$09@?$output_processor@DV?$string_output_adapter@D@__crt_stdio_output@@V?$format_validation_base@DV?$string_output_adapter@D@__crt_stdio_output@@@2@@__crt_stdio_output@@AEAA_N_N@Z 00000001800615a0 f i libucrtd:output.obj
 0001:00060a20       ??$type_case_integer@$09@?$output_processor@DV?$string_output_adapter@D@__crt_stdio_output@@V?$positional_parameter_base@DV?$string_output_adapter@D@__crt_stdio_output@@@2@@__crt_stdio_output@@AEAA_N_N@Z 0000000180061a20 f i libucrtd:output.obj
 0001:00060ea0       ??$type_case_integer@$09@?$output_processor@DV?$string_output_adapter@D@__crt_stdio_output@@V?$standard_base@DV?$string_output_adapter@D@__crt_stdio_output@@@2@@__crt_stdio_output@@AEAA_N_N@Z 0000000180061ea0 f i libucrtd:output.obj
 0001:00061320       ??$type_case_integer@$09@?$output_processor@_WV?$stream_output_adapter@_W@__crt_stdio_output@@V?$format_validation_base@_WV?$stream_output_adapter@_W@__crt_stdio_output@@@2@@__crt_stdio_output@@AEAA_N_N@Z 0000000180062320 f i libucrtd:output.obj
 0001:000617a0       ??$type_case_integer@$09@?$output_processor@_WV?$stream_output_adapter@_W@__crt_stdio_output@@V?$positional_parameter_base@_WV?$stream_output_adapter@_W@__crt_stdio_output@@@2@@__crt_stdio_output@@AEAA_N_N@Z 00000001800627a0 f i libucrtd:output.obj
 0001:00061c20       ??$type_case_integer@$09@?$output_processor@_WV?$stream_output_adapter@_W@__crt_stdio_output@@V?$standard_base@_WV?$stream_output_adapter@_W@__crt_stdio_output@@@2@@__crt_stdio_output@@AEAA_N_N@Z 0000000180062c20 f i libucrtd:output.obj
 0001:000620a0       ??$type_case_integer@$09@?$output_processor@_WV?$string_output_adapter@_W@__crt_stdio_output@@V?$format_validation_base@_WV?$string_output_adapter@_W@__crt_stdio_output@@@2@@__crt_stdio_output@@AEAA_N_N@Z 00000001800630a0 f i libucrtd:output.obj
 0001:00062520       ??$type_case_integer@$09@?$output_processor@_WV?$string_output_adapter@_W@__crt_stdio_output@@V?$positional_parameter_base@_WV?$string_output_adapter@_W@__crt_stdio_output@@@2@@__crt_stdio_output@@AEAA_N_N@Z 0000000180063520 f i libucrtd:output.obj
 0001:000629a0       ??$type_case_integer@$09@?$output_processor@_WV?$string_output_adapter@_W@__crt_stdio_output@@V?$standard_base@_WV?$string_output_adapter@_W@__crt_stdio_output@@@2@@__crt_stdio_output@@AEAA_N_N@Z 00000001800639a0 f i libucrtd:output.obj
 0001:00062e20       ??$type_case_integer@$0BA@@?$output_processor@DV?$stream_output_adapter@D@__crt_stdio_output@@V?$format_validation_base@DV?$stream_output_adapter@D@__crt_stdio_output@@@2@@__crt_stdio_output@@AEAA_N_N@Z 0000000180063e20 f i libucrtd:output.obj
 0001:000632a0       ??$type_case_integer@$0BA@@?$output_processor@DV?$stream_output_adapter@D@__crt_stdio_output@@V?$positional_parameter_base@DV?$stream_output_adapter@D@__crt_stdio_output@@@2@@__crt_stdio_output@@AEAA_N_N@Z 00000001800642a0 f i libucrtd:output.obj
 0001:00063720       ??$type_case_integer@$0BA@@?$output_processor@DV?$stream_output_adapter@D@__crt_stdio_output@@V?$standard_base@DV?$stream_output_adapter@D@__crt_stdio_output@@@2@@__crt_stdio_output@@AEAA_N_N@Z 0000000180064720 f i libucrtd:output.obj
 0001:00063ba0       ??$type_case_integer@$0BA@@?$output_processor@DV?$string_output_adapter@D@__crt_stdio_output@@V?$format_validation_base@DV?$string_output_adapter@D@__crt_stdio_output@@@2@@__crt_stdio_output@@AEAA_N_N@Z 0000000180064ba0 f i libucrtd:output.obj
 0001:00064020       ??$type_case_integer@$0BA@@?$output_processor@DV?$string_output_adapter@D@__crt_stdio_output@@V?$positional_parameter_base@DV?$string_output_adapter@D@__crt_stdio_output@@@2@@__crt_stdio_output@@AEAA_N_N@Z 0000000180065020 f i libucrtd:output.obj
 0001:000644a0       ??$type_case_integer@$0BA@@?$output_processor@DV?$string_output_adapter@D@__crt_stdio_output@@V?$standard_base@DV?$string_output_adapter@D@__crt_stdio_output@@@2@@__crt_stdio_output@@AEAA_N_N@Z 00000001800654a0 f i libucrtd:output.obj
 0001:00064920       ??$type_case_integer@$0BA@@?$output_processor@_WV?$stream_output_adapter@_W@__crt_stdio_output@@V?$format_validation_base@_WV?$stream_output_adapter@_W@__crt_stdio_output@@@2@@__crt_stdio_output@@AEAA_N_N@Z 0000000180065920 f i libucrtd:output.obj
 0001:00064da0       ??$type_case_integer@$0BA@@?$output_processor@_WV?$stream_output_adapter@_W@__crt_stdio_output@@V?$positional_parameter_base@_WV?$stream_output_adapter@_W@__crt_stdio_output@@@2@@__crt_stdio_output@@AEAA_N_N@Z 0000000180065da0 f i libucrtd:output.obj
 0001:00065220       ??$type_case_integer@$0BA@@?$output_processor@_WV?$stream_output_adapter@_W@__crt_stdio_output@@V?$standard_base@_WV?$stream_output_adapter@_W@__crt_stdio_output@@@2@@__crt_stdio_output@@AEAA_N_N@Z 0000000180066220 f i libucrtd:output.obj
 0001:000656a0       ??$type_case_integer@$0BA@@?$output_processor@_WV?$string_output_adapter@_W@__crt_stdio_output@@V?$format_validation_base@_WV?$string_output_adapter@_W@__crt_stdio_output@@@2@@__crt_stdio_output@@AEAA_N_N@Z 00000001800666a0 f i libucrtd:output.obj
 0001:00065b20       ??$type_case_integer@$0BA@@?$output_processor@_WV?$string_output_adapter@_W@__crt_stdio_output@@V?$positional_parameter_base@_WV?$string_output_adapter@_W@__crt_stdio_output@@@2@@__crt_stdio_output@@AEAA_N_N@Z 0000000180066b20 f i libucrtd:output.obj
 0001:00065fa0       ??$type_case_integer@$0BA@@?$output_processor@_WV?$string_output_adapter@_W@__crt_stdio_output@@V?$standard_base@_WV?$string_output_adapter@_W@__crt_stdio_output@@@2@@__crt_stdio_output@@AEAA_N_N@Z 0000000180066fa0 f i libucrtd:output.obj
 0001:00066420       ??$type_case_integer_parse_into_buffer@I$07@?$output_processor@DV?$stream_output_adapter@D@__crt_stdio_output@@V?$format_validation_base@DV?$stream_output_adapter@D@__crt_stdio_output@@@2@@__crt_stdio_output@@AEAAXI_N@Z 0000000180067420 f i libucrtd:output.obj
 0001:00066550       ??$type_case_integer_parse_into_buffer@I$07@?$output_processor@DV?$stream_output_adapter@D@__crt_stdio_output@@V?$positional_parameter_base@DV?$stream_output_adapter@D@__crt_stdio_output@@@2@@__crt_stdio_output@@AEAAXI_N@Z 0000000180067550 f i libucrtd:output.obj
 0001:00066680       ??$type_case_integer_parse_into_buffer@I$07@?$output_processor@DV?$stream_output_adapter@D@__crt_stdio_output@@V?$standard_base@DV?$stream_output_adapter@D@__crt_stdio_output@@@2@@__crt_stdio_output@@AEAAXI_N@Z 0000000180067680 f i libucrtd:output.obj
 0001:000667b0       ??$type_case_integer_parse_into_buffer@I$07@?$output_processor@DV?$string_output_adapter@D@__crt_stdio_output@@V?$format_validation_base@DV?$string_output_adapter@D@__crt_stdio_output@@@2@@__crt_stdio_output@@AEAAXI_N@Z 00000001800677b0 f i libucrtd:output.obj
 0001:000668e0       ??$type_case_integer_parse_into_buffer@I$07@?$output_processor@DV?$string_output_adapter@D@__crt_stdio_output@@V?$positional_parameter_base@DV?$string_output_adapter@D@__crt_stdio_output@@@2@@__crt_stdio_output@@AEAAXI_N@Z 00000001800678e0 f i libucrtd:output.obj
 0001:00066a10       ??$type_case_integer_parse_into_buffer@I$07@?$output_processor@DV?$string_output_adapter@D@__crt_stdio_output@@V?$standard_base@DV?$string_output_adapter@D@__crt_stdio_output@@@2@@__crt_stdio_output@@AEAAXI_N@Z 0000000180067a10 f i libucrtd:output.obj
 0001:00066b40       ??$type_case_integer_parse_into_buffer@I$07@?$output_processor@_WV?$stream_output_adapter@_W@__crt_stdio_output@@V?$format_validation_base@_WV?$stream_output_adapter@_W@__crt_stdio_output@@@2@@__crt_stdio_output@@AEAAXI_N@Z 0000000180067b40 f i libucrtd:output.obj
 0001:00066c80       ??$type_case_integer_parse_into_buffer@I$07@?$output_processor@_WV?$stream_output_adapter@_W@__crt_stdio_output@@V?$positional_parameter_base@_WV?$stream_output_adapter@_W@__crt_stdio_output@@@2@@__crt_stdio_output@@AEAAXI_N@Z 0000000180067c80 f i libucrtd:output.obj
 0001:00066dc0       ??$type_case_integer_parse_into_buffer@I$07@?$output_processor@_WV?$stream_output_adapter@_W@__crt_stdio_output@@V?$standard_base@_WV?$stream_output_adapter@_W@__crt_stdio_output@@@2@@__crt_stdio_output@@AEAAXI_N@Z 0000000180067dc0 f i libucrtd:output.obj
 0001:00066f00       ??$type_case_integer_parse_into_buffer@I$07@?$output_processor@_WV?$string_output_adapter@_W@__crt_stdio_output@@V?$format_validation_base@_WV?$string_output_adapter@_W@__crt_stdio_output@@@2@@__crt_stdio_output@@AEAAXI_N@Z 0000000180067f00 f i libucrtd:output.obj
 0001:00067040       ??$type_case_integer_parse_into_buffer@I$07@?$output_processor@_WV?$string_output_adapter@_W@__crt_stdio_output@@V?$positional_parameter_base@_WV?$string_output_adapter@_W@__crt_stdio_output@@@2@@__crt_stdio_output@@AEAAXI_N@Z 0000000180068040 f i libucrtd:output.obj
 0001:00067180       ??$type_case_integer_parse_into_buffer@I$07@?$output_processor@_WV?$string_output_adapter@_W@__crt_stdio_output@@V?$standard_base@_WV?$string_output_adapter@_W@__crt_stdio_output@@@2@@__crt_stdio_output@@AEAAXI_N@Z 0000000180068180 f i libucrtd:output.obj
 0001:000672c0       ??$type_case_integer_parse_into_buffer@I$09@?$output_processor@DV?$stream_output_adapter@D@__crt_stdio_output@@V?$format_validation_base@DV?$stream_output_adapter@D@__crt_stdio_output@@@2@@__crt_stdio_output@@AEAAXI_N@Z 00000001800682c0 f i libucrtd:output.obj
 0001:000673f0       ??$type_case_integer_parse_into_buffer@I$09@?$output_processor@DV?$stream_output_adapter@D@__crt_stdio_output@@V?$positional_parameter_base@DV?$stream_output_adapter@D@__crt_stdio_output@@@2@@__crt_stdio_output@@AEAAXI_N@Z 00000001800683f0 f i libucrtd:output.obj
 0001:00067520       ??$type_case_integer_parse_into_buffer@I$09@?$output_processor@DV?$stream_output_adapter@D@__crt_stdio_output@@V?$standard_base@DV?$stream_output_adapter@D@__crt_stdio_output@@@2@@__crt_stdio_output@@AEAAXI_N@Z 0000000180068520 f i libucrtd:output.obj
 0001:00067650       ??$type_case_integer_parse_into_buffer@I$09@?$output_processor@DV?$string_output_adapter@D@__crt_stdio_output@@V?$format_validation_base@DV?$string_output_adapter@D@__crt_stdio_output@@@2@@__crt_stdio_output@@AEAAXI_N@Z 0000000180068650 f i libucrtd:output.obj
 0001:00067780       ??$type_case_integer_parse_into_buffer@I$09@?$output_processor@DV?$string_output_adapter@D@__crt_stdio_output@@V?$positional_parameter_base@DV?$string_output_adapter@D@__crt_stdio_output@@@2@@__crt_stdio_output@@AEAAXI_N@Z 0000000180068780 f i libucrtd:output.obj
 0001:000678b0       ??$type_case_integer_parse_into_buffer@I$09@?$output_processor@DV?$string_output_adapter@D@__crt_stdio_output@@V?$standard_base@DV?$string_output_adapter@D@__crt_stdio_output@@@2@@__crt_stdio_output@@AEAAXI_N@Z 00000001800688b0 f i libucrtd:output.obj
 0001:000679e0       ??$type_case_integer_parse_into_buffer@I$09@?$output_processor@_WV?$stream_output_adapter@_W@__crt_stdio_output@@V?$format_validation_base@_WV?$stream_output_adapter@_W@__crt_stdio_output@@@2@@__crt_stdio_output@@AEAAXI_N@Z 00000001800689e0 f i libucrtd:output.obj
 0001:00067b20       ??$type_case_integer_parse_into_buffer@I$09@?$output_processor@_WV?$stream_output_adapter@_W@__crt_stdio_output@@V?$positional_parameter_base@_WV?$stream_output_adapter@_W@__crt_stdio_output@@@2@@__crt_stdio_output@@AEAAXI_N@Z 0000000180068b20 f i libucrtd:output.obj
 0001:00067c60       ??$type_case_integer_parse_into_buffer@I$09@?$output_processor@_WV?$stream_output_adapter@_W@__crt_stdio_output@@V?$standard_base@_WV?$stream_output_adapter@_W@__crt_stdio_output@@@2@@__crt_stdio_output@@AEAAXI_N@Z 0000000180068c60 f i libucrtd:output.obj
 0001:00067da0       ??$type_case_integer_parse_into_buffer@I$09@?$output_processor@_WV?$string_output_adapter@_W@__crt_stdio_output@@V?$format_validation_base@_WV?$string_output_adapter@_W@__crt_stdio_output@@@2@@__crt_stdio_output@@AEAAXI_N@Z 0000000180068da0 f i libucrtd:output.obj
 0001:00067ee0       ??$type_case_integer_parse_into_buffer@I$09@?$output_processor@_WV?$string_output_adapter@_W@__crt_stdio_output@@V?$positional_parameter_base@_WV?$string_output_adapter@_W@__crt_stdio_output@@@2@@__crt_stdio_output@@AEAAXI_N@Z 0000000180068ee0 f i libucrtd:output.obj
 0001:00068020       ??$type_case_integer_parse_into_buffer@I$09@?$output_processor@_WV?$string_output_adapter@_W@__crt_stdio_output@@V?$standard_base@_WV?$string_output_adapter@_W@__crt_stdio_output@@@2@@__crt_stdio_output@@AEAAXI_N@Z 0000000180069020 f i libucrtd:output.obj
 0001:00068160       ??$type_case_integer_parse_into_buffer@I$0BA@@?$output_processor@DV?$stream_output_adapter@D@__crt_stdio_output@@V?$format_validation_base@DV?$stream_output_adapter@D@__crt_stdio_output@@@2@@__crt_stdio_output@@AEAAXI_N@Z 0000000180069160 f i libucrtd:output.obj
 0001:00068290       ??$type_case_integer_parse_into_buffer@I$0BA@@?$output_processor@DV?$stream_output_adapter@D@__crt_stdio_output@@V?$positional_parameter_base@DV?$stream_output_adapter@D@__crt_stdio_output@@@2@@__crt_stdio_output@@AEAAXI_N@Z 0000000180069290 f i libucrtd:output.obj
 0001:000683c0       ??$type_case_integer_parse_into_buffer@I$0BA@@?$output_processor@DV?$stream_output_adapter@D@__crt_stdio_output@@V?$standard_base@DV?$stream_output_adapter@D@__crt_stdio_output@@@2@@__crt_stdio_output@@AEAAXI_N@Z 00000001800693c0 f i libucrtd:output.obj
 0001:000684f0       ??$type_case_integer_parse_into_buffer@I$0BA@@?$output_processor@DV?$string_output_adapter@D@__crt_stdio_output@@V?$format_validation_base@DV?$string_output_adapter@D@__crt_stdio_output@@@2@@__crt_stdio_output@@AEAAXI_N@Z 00000001800694f0 f i libucrtd:output.obj
 0001:00068620       ??$type_case_integer_parse_into_buffer@I$0BA@@?$output_processor@DV?$string_output_adapter@D@__crt_stdio_output@@V?$positional_parameter_base@DV?$string_output_adapter@D@__crt_stdio_output@@@2@@__crt_stdio_output@@AEAAXI_N@Z 0000000180069620 f i libucrtd:output.obj
 0001:00068750       ??$type_case_integer_parse_into_buffer@I$0BA@@?$output_processor@DV?$string_output_adapter@D@__crt_stdio_output@@V?$standard_base@DV?$string_output_adapter@D@__crt_stdio_output@@@2@@__crt_stdio_output@@AEAAXI_N@Z 0000000180069750 f i libucrtd:output.obj
 0001:00068880       ??$type_case_integer_parse_into_buffer@I$0BA@@?$output_processor@_WV?$stream_output_adapter@_W@__crt_stdio_output@@V?$format_validation_base@_WV?$stream_output_adapter@_W@__crt_stdio_output@@@2@@__crt_stdio_output@@AEAAXI_N@Z 0000000180069880 f i libucrtd:output.obj
 0001:000689c0       ??$type_case_integer_parse_into_buffer@I$0BA@@?$output_processor@_WV?$stream_output_adapter@_W@__crt_stdio_output@@V?$positional_parameter_base@_WV?$stream_output_adapter@_W@__crt_stdio_output@@@2@@__crt_stdio_output@@AEAAXI_N@Z 00000001800699c0 f i libucrtd:output.obj
 0001:00068b00       ??$type_case_integer_parse_into_buffer@I$0BA@@?$output_processor@_WV?$stream_output_adapter@_W@__crt_stdio_output@@V?$standard_base@_WV?$stream_output_adapter@_W@__crt_stdio_output@@@2@@__crt_stdio_output@@AEAAXI_N@Z 0000000180069b00 f i libucrtd:output.obj
 0001:00068c40       ??$type_case_integer_parse_into_buffer@I$0BA@@?$output_processor@_WV?$string_output_adapter@_W@__crt_stdio_output@@V?$format_validation_base@_WV?$string_output_adapter@_W@__crt_stdio_output@@@2@@__crt_stdio_output@@AEAAXI_N@Z 0000000180069c40 f i libucrtd:output.obj
 0001:00068d80       ??$type_case_integer_parse_into_buffer@I$0BA@@?$output_processor@_WV?$string_output_adapter@_W@__crt_stdio_output@@V?$positional_parameter_base@_WV?$string_output_adapter@_W@__crt_stdio_output@@@2@@__crt_stdio_output@@AEAAXI_N@Z 0000000180069d80 f i libucrtd:output.obj
 0001:00068ec0       ??$type_case_integer_parse_into_buffer@I$0BA@@?$output_processor@_WV?$string_output_adapter@_W@__crt_stdio_output@@V?$standard_base@_WV?$string_output_adapter@_W@__crt_stdio_output@@@2@@__crt_stdio_output@@AEAAXI_N@Z 0000000180069ec0 f i libucrtd:output.obj
 0001:00069000       ??$type_case_integer_parse_into_buffer@_K$07@?$output_processor@DV?$stream_output_adapter@D@__crt_stdio_output@@V?$format_validation_base@DV?$stream_output_adapter@D@__crt_stdio_output@@@2@@__crt_stdio_output@@AEAAX_K_N@Z 000000018006a000 f i libucrtd:output.obj
 0001:00069140       ??$type_case_integer_parse_into_buffer@_K$07@?$output_processor@DV?$stream_output_adapter@D@__crt_stdio_output@@V?$positional_parameter_base@DV?$stream_output_adapter@D@__crt_stdio_output@@@2@@__crt_stdio_output@@AEAAX_K_N@Z 000000018006a140 f i libucrtd:output.obj
 0001:00069280       ??$type_case_integer_parse_into_buffer@_K$07@?$output_processor@DV?$stream_output_adapter@D@__crt_stdio_output@@V?$standard_base@DV?$stream_output_adapter@D@__crt_stdio_output@@@2@@__crt_stdio_output@@AEAAX_K_N@Z 000000018006a280 f i libucrtd:output.obj
 0001:000693c0       ??$type_case_integer_parse_into_buffer@_K$07@?$output_processor@DV?$string_output_adapter@D@__crt_stdio_output@@V?$format_validation_base@DV?$string_output_adapter@D@__crt_stdio_output@@@2@@__crt_stdio_output@@AEAAX_K_N@Z 000000018006a3c0 f i libucrtd:output.obj
 0001:00069500       ??$type_case_integer_parse_into_buffer@_K$07@?$output_processor@DV?$string_output_adapter@D@__crt_stdio_output@@V?$positional_parameter_base@DV?$string_output_adapter@D@__crt_stdio_output@@@2@@__crt_stdio_output@@AEAAX_K_N@Z 000000018006a500 f i libucrtd:output.obj
 0001:00069640       ??$type_case_integer_parse_into_buffer@_K$07@?$output_processor@DV?$string_output_adapter@D@__crt_stdio_output@@V?$standard_base@DV?$string_output_adapter@D@__crt_stdio_output@@@2@@__crt_stdio_output@@AEAAX_K_N@Z 000000018006a640 f i libucrtd:output.obj
 0001:00069780       ??$type_case_integer_parse_into_buffer@_K$07@?$output_processor@_WV?$stream_output_adapter@_W@__crt_stdio_output@@V?$format_validation_base@_WV?$stream_output_adapter@_W@__crt_stdio_output@@@2@@__crt_stdio_output@@AEAAX_K_N@Z 000000018006a780 f i libucrtd:output.obj
 0001:000698c0       ??$type_case_integer_parse_into_buffer@_K$07@?$output_processor@_WV?$stream_output_adapter@_W@__crt_stdio_output@@V?$positional_parameter_base@_WV?$stream_output_adapter@_W@__crt_stdio_output@@@2@@__crt_stdio_output@@AEAAX_K_N@Z 000000018006a8c0 f i libucrtd:output.obj
 0001:00069a00       ??$type_case_integer_parse_into_buffer@_K$07@?$output_processor@_WV?$stream_output_adapter@_W@__crt_stdio_output@@V?$standard_base@_WV?$stream_output_adapter@_W@__crt_stdio_output@@@2@@__crt_stdio_output@@AEAAX_K_N@Z 000000018006aa00 f i libucrtd:output.obj
 0001:00069b40       ??$type_case_integer_parse_into_buffer@_K$07@?$output_processor@_WV?$string_output_adapter@_W@__crt_stdio_output@@V?$format_validation_base@_WV?$string_output_adapter@_W@__crt_stdio_output@@@2@@__crt_stdio_output@@AEAAX_K_N@Z 000000018006ab40 f i libucrtd:output.obj
 0001:00069c80       ??$type_case_integer_parse_into_buffer@_K$07@?$output_processor@_WV?$string_output_adapter@_W@__crt_stdio_output@@V?$positional_parameter_base@_WV?$string_output_adapter@_W@__crt_stdio_output@@@2@@__crt_stdio_output@@AEAAX_K_N@Z 000000018006ac80 f i libucrtd:output.obj
 0001:00069dc0       ??$type_case_integer_parse_into_buffer@_K$07@?$output_processor@_WV?$string_output_adapter@_W@__crt_stdio_output@@V?$standard_base@_WV?$string_output_adapter@_W@__crt_stdio_output@@@2@@__crt_stdio_output@@AEAAX_K_N@Z 000000018006adc0 f i libucrtd:output.obj
 0001:00069f00       ??$type_case_integer_parse_into_buffer@_K$09@?$output_processor@DV?$stream_output_adapter@D@__crt_stdio_output@@V?$format_validation_base@DV?$stream_output_adapter@D@__crt_stdio_output@@@2@@__crt_stdio_output@@AEAAX_K_N@Z 000000018006af00 f i libucrtd:output.obj
 0001:0006a040       ??$type_case_integer_parse_into_buffer@_K$09@?$output_processor@DV?$stream_output_adapter@D@__crt_stdio_output@@V?$positional_parameter_base@DV?$stream_output_adapter@D@__crt_stdio_output@@@2@@__crt_stdio_output@@AEAAX_K_N@Z 000000018006b040 f i libucrtd:output.obj
 0001:0006a180       ??$type_case_integer_parse_into_buffer@_K$09@?$output_processor@DV?$stream_output_adapter@D@__crt_stdio_output@@V?$standard_base@DV?$stream_output_adapter@D@__crt_stdio_output@@@2@@__crt_stdio_output@@AEAAX_K_N@Z 000000018006b180 f i libucrtd:output.obj
 0001:0006a2c0       ??$type_case_integer_parse_into_buffer@_K$09@?$output_processor@DV?$string_output_adapter@D@__crt_stdio_output@@V?$format_validation_base@DV?$string_output_adapter@D@__crt_stdio_output@@@2@@__crt_stdio_output@@AEAAX_K_N@Z 000000018006b2c0 f i libucrtd:output.obj
 0001:0006a400       ??$type_case_integer_parse_into_buffer@_K$09@?$output_processor@DV?$string_output_adapter@D@__crt_stdio_output@@V?$positional_parameter_base@DV?$string_output_adapter@D@__crt_stdio_output@@@2@@__crt_stdio_output@@AEAAX_K_N@Z 000000018006b400 f i libucrtd:output.obj
 0001:0006a540       ??$type_case_integer_parse_into_buffer@_K$09@?$output_processor@DV?$string_output_adapter@D@__crt_stdio_output@@V?$standard_base@DV?$string_output_adapter@D@__crt_stdio_output@@@2@@__crt_stdio_output@@AEAAX_K_N@Z 000000018006b540 f i libucrtd:output.obj
 0001:0006a680       ??$type_case_integer_parse_into_buffer@_K$09@?$output_processor@_WV?$stream_output_adapter@_W@__crt_stdio_output@@V?$format_validation_base@_WV?$stream_output_adapter@_W@__crt_stdio_output@@@2@@__crt_stdio_output@@AEAAX_K_N@Z 000000018006b680 f i libucrtd:output.obj
 0001:0006a7c0       ??$type_case_integer_parse_into_buffer@_K$09@?$output_processor@_WV?$stream_output_adapter@_W@__crt_stdio_output@@V?$positional_parameter_base@_WV?$stream_output_adapter@_W@__crt_stdio_output@@@2@@__crt_stdio_output@@AEAAX_K_N@Z 000000018006b7c0 f i libucrtd:output.obj
 0001:0006a900       ??$type_case_integer_parse_into_buffer@_K$09@?$output_processor@_WV?$stream_output_adapter@_W@__crt_stdio_output@@V?$standard_base@_WV?$stream_output_adapter@_W@__crt_stdio_output@@@2@@__crt_stdio_output@@AEAAX_K_N@Z 000000018006b900 f i libucrtd:output.obj
 0001:0006aa40       ??$type_case_integer_parse_into_buffer@_K$09@?$output_processor@_WV?$string_output_adapter@_W@__crt_stdio_output@@V?$format_validation_base@_WV?$string_output_adapter@_W@__crt_stdio_output@@@2@@__crt_stdio_output@@AEAAX_K_N@Z 000000018006ba40 f i libucrtd:output.obj
 0001:0006ab80       ??$type_case_integer_parse_into_buffer@_K$09@?$output_processor@_WV?$string_output_adapter@_W@__crt_stdio_output@@V?$positional_parameter_base@_WV?$string_output_adapter@_W@__crt_stdio_output@@@2@@__crt_stdio_output@@AEAAX_K_N@Z 000000018006bb80 f i libucrtd:output.obj
 0001:0006acc0       ??$type_case_integer_parse_into_buffer@_K$09@?$output_processor@_WV?$string_output_adapter@_W@__crt_stdio_output@@V?$standard_base@_WV?$string_output_adapter@_W@__crt_stdio_output@@@2@@__crt_stdio_output@@AEAAX_K_N@Z 000000018006bcc0 f i libucrtd:output.obj
 0001:0006ae00       ??$type_case_integer_parse_into_buffer@_K$0BA@@?$output_processor@DV?$stream_output_adapter@D@__crt_stdio_output@@V?$format_validation_base@DV?$stream_output_adapter@D@__crt_stdio_output@@@2@@__crt_stdio_output@@AEAAX_K_N@Z 000000018006be00 f i libucrtd:output.obj
 0001:0006af40       ??$type_case_integer_parse_into_buffer@_K$0BA@@?$output_processor@DV?$stream_output_adapter@D@__crt_stdio_output@@V?$positional_parameter_base@DV?$stream_output_adapter@D@__crt_stdio_output@@@2@@__crt_stdio_output@@AEAAX_K_N@Z 000000018006bf40 f i libucrtd:output.obj
 0001:0006b080       ??$type_case_integer_parse_into_buffer@_K$0BA@@?$output_processor@DV?$stream_output_adapter@D@__crt_stdio_output@@V?$standard_base@DV?$stream_output_adapter@D@__crt_stdio_output@@@2@@__crt_stdio_output@@AEAAX_K_N@Z 000000018006c080 f i libucrtd:output.obj
 0001:0006b1c0       ??$type_case_integer_parse_into_buffer@_K$0BA@@?$output_processor@DV?$string_output_adapter@D@__crt_stdio_output@@V?$format_validation_base@DV?$string_output_adapter@D@__crt_stdio_output@@@2@@__crt_stdio_output@@AEAAX_K_N@Z 000000018006c1c0 f i libucrtd:output.obj
 0001:0006b300       ??$type_case_integer_parse_into_buffer@_K$0BA@@?$output_processor@DV?$string_output_adapter@D@__crt_stdio_output@@V?$positional_parameter_base@DV?$string_output_adapter@D@__crt_stdio_output@@@2@@__crt_stdio_output@@AEAAX_K_N@Z 000000018006c300 f i libucrtd:output.obj
 0001:0006b440       ??$type_case_integer_parse_into_buffer@_K$0BA@@?$output_processor@DV?$string_output_adapter@D@__crt_stdio_output@@V?$standard_base@DV?$string_output_adapter@D@__crt_stdio_output@@@2@@__crt_stdio_output@@AEAAX_K_N@Z 000000018006c440 f i libucrtd:output.obj
 0001:0006b580       ??$type_case_integer_parse_into_buffer@_K$0BA@@?$output_processor@_WV?$stream_output_adapter@_W@__crt_stdio_output@@V?$format_validation_base@_WV?$stream_output_adapter@_W@__crt_stdio_output@@@2@@__crt_stdio_output@@AEAAX_K_N@Z 000000018006c580 f i libucrtd:output.obj
 0001:0006b6c0       ??$type_case_integer_parse_into_buffer@_K$0BA@@?$output_processor@_WV?$stream_output_adapter@_W@__crt_stdio_output@@V?$positional_parameter_base@_WV?$stream_output_adapter@_W@__crt_stdio_output@@@2@@__crt_stdio_output@@AEAAX_K_N@Z 000000018006c6c0 f i libucrtd:output.obj
 0001:0006b800       ??$type_case_integer_parse_into_buffer@_K$0BA@@?$output_processor@_WV?$stream_output_adapter@_W@__crt_stdio_output@@V?$standard_base@_WV?$stream_output_adapter@_W@__crt_stdio_output@@@2@@__crt_stdio_output@@AEAAX_K_N@Z 000000018006c800 f i libucrtd:output.obj
 0001:0006b940       ??$type_case_integer_parse_into_buffer@_K$0BA@@?$output_processor@_WV?$string_output_adapter@_W@__crt_stdio_output@@V?$format_validation_base@_WV?$string_output_adapter@_W@__crt_stdio_output@@@2@@__crt_stdio_output@@AEAAX_K_N@Z 000000018006c940 f i libucrtd:output.obj
 0001:0006ba80       ??$type_case_integer_parse_into_buffer@_K$0BA@@?$output_processor@_WV?$string_output_adapter@_W@__crt_stdio_output@@V?$positional_parameter_base@_WV?$string_output_adapter@_W@__crt_stdio_output@@@2@@__crt_stdio_output@@AEAAX_K_N@Z 000000018006ca80 f i libucrtd:output.obj
 0001:0006bbc0       ??$type_case_integer_parse_into_buffer@_K$0BA@@?$output_processor@_WV?$string_output_adapter@_W@__crt_stdio_output@@V?$standard_base@_WV?$string_output_adapter@_W@__crt_stdio_output@@@2@@__crt_stdio_output@@AEAAX_K_N@Z 000000018006cbc0 f i libucrtd:output.obj
 0001:0006bd00       ??$write_multiple_characters@V?$stream_output_adapter@D@__crt_stdio_output@@D@__crt_stdio_output@@YAXAEBV?$stream_output_adapter@D@0@DHQEAHAEAV__crt_cached_ptd_host@@@Z 000000018006cd00 f i libucrtd:output.obj
 0001:0006bd70       ??$write_multiple_characters@V?$stream_output_adapter@_W@__crt_stdio_output@@D@__crt_stdio_output@@YAXAEBV?$stream_output_adapter@_W@0@DHQEAHAEAV__crt_cached_ptd_host@@@Z 000000018006cd70 f i libucrtd:output.obj
 0001:0006bde0       ??$write_multiple_characters@V?$string_output_adapter@D@__crt_stdio_output@@D@__crt_stdio_output@@YAXAEBV?$string_output_adapter@D@0@DHQEAHAEAV__crt_cached_ptd_host@@@Z 000000018006cde0 f i libucrtd:output.obj
 0001:0006be50       ??$write_multiple_characters@V?$string_output_adapter@_W@__crt_stdio_output@@D@__crt_stdio_output@@YAXAEBV?$string_output_adapter@_W@0@DHQEAHAEAV__crt_cached_ptd_host@@@Z 000000018006ce50 f i libucrtd:output.obj
 0001:0006c280       ??0?$c_string_character_source@D@__crt_strtox@@QEAA@QEBDQEAPEBD@Z 000000018006d280 f i libucrtd:output.obj
 0001:0006c2d0       ??0?$c_string_character_source@_W@__crt_strtox@@QEAA@QEB_WQEAPEB_W@Z 000000018006d2d0 f i libucrtd:output.obj
 0001:0006c320       ??0?$cached@H@__crt_cached_ptd_host@@QEAA@XZ 000000018006d320 f i libucrtd:output.obj
 0001:0006c340       ??0?$cached@K@__crt_cached_ptd_host@@QEAA@XZ 000000018006d340 f i libucrtd:output.obj
 0001:0006c360       ??0?$common_data@D@__crt_stdio_output@@IEAA@AEAV__crt_cached_ptd_host@@@Z 000000018006d360 f i libucrtd:output.obj
 0001:0006c420       ??0?$common_data@_W@__crt_stdio_output@@IEAA@AEAV__crt_cached_ptd_host@@@Z 000000018006d420 f i libucrtd:output.obj
 0001:0006c4e0       ??0?$output_adapter_data@DV?$stream_output_adapter@D@__crt_stdio_output@@@__crt_stdio_output@@IEAA@AEBV?$stream_output_adapter@D@1@_KQEBDAEAV__crt_cached_ptd_host@@QEAD@Z 000000018006d4e0 f i libucrtd:output.obj
 0001:0006c560       ??0?$output_adapter_data@DV?$string_output_adapter@D@__crt_stdio_output@@@__crt_stdio_output@@IEAA@AEBV?$string_output_adapter@D@1@_KQEBDAEAV__crt_cached_ptd_host@@QEAD@Z 000000018006d560 f i libucrtd:output.obj
 0001:0006c5e0       ??0?$output_adapter_data@_WV?$stream_output_adapter@_W@__crt_stdio_output@@@__crt_stdio_output@@IEAA@AEBV?$stream_output_adapter@_W@1@_KQEB_WAEAV__crt_cached_ptd_host@@QEAD@Z 000000018006d5e0 f i libucrtd:output.obj
 0001:0006c660       ??0?$output_adapter_data@_WV?$string_output_adapter@_W@__crt_stdio_output@@@__crt_stdio_output@@IEAA@AEBV?$string_output_adapter@_W@1@_KQEB_WAEAV__crt_cached_ptd_host@@QEAD@Z 000000018006d660 f i libucrtd:output.obj
 0001:0006c6e0       ??0?$output_processor@DV?$stream_output_adapter@D@__crt_stdio_output@@V?$format_validation_base@DV?$stream_output_adapter@D@__crt_stdio_output@@@2@@__crt_stdio_output@@QEAA@AEBV?$stream_output_adapter@D@1@_KQEBDAEAV__crt_cached_ptd_host@@QEAD@Z 000000018006d6e0 f i libucrtd:output.obj
 0001:0006c730       ??0?$output_processor@DV?$stream_output_adapter@D@__crt_stdio_output@@V?$positional_parameter_base@DV?$stream_output_adapter@D@__crt_stdio_output@@@2@@__crt_stdio_output@@QEAA@AEBV?$stream_output_adapter@D@1@_KQEBDAEAV__crt_cached_ptd_host@@QEAD@Z 000000018006d730 f i libucrtd:output.obj
 0001:0006c780       ??0?$output_processor@DV?$stream_output_adapter@D@__crt_stdio_output@@V?$standard_base@DV?$stream_output_adapter@D@__crt_stdio_output@@@2@@__crt_stdio_output@@QEAA@AEBV?$stream_output_adapter@D@1@_KQEBDAEAV__crt_cached_ptd_host@@QEAD@Z 000000018006d780 f i libucrtd:output.obj
 0001:0006c7d0       ??0?$output_processor@DV?$string_output_adapter@D@__crt_stdio_output@@V?$format_validation_base@DV?$string_output_adapter@D@__crt_stdio_output@@@2@@__crt_stdio_output@@QEAA@AEBV?$string_output_adapter@D@1@_KQEBDAEAV__crt_cached_ptd_host@@QEAD@Z 000000018006d7d0 f i libucrtd:output.obj
 0001:0006c820       ??0?$output_processor@DV?$string_output_adapter@D@__crt_stdio_output@@V?$positional_parameter_base@DV?$string_output_adapter@D@__crt_stdio_output@@@2@@__crt_stdio_output@@QEAA@AEBV?$string_output_adapter@D@1@_KQEBDAEAV__crt_cached_ptd_host@@QEAD@Z 000000018006d820 f i libucrtd:output.obj
 0001:0006c870       ??0?$output_processor@DV?$string_output_adapter@D@__crt_stdio_output@@V?$standard_base@DV?$string_output_adapter@D@__crt_stdio_output@@@2@@__crt_stdio_output@@QEAA@AEBV?$string_output_adapter@D@1@_KQEBDAEAV__crt_cached_ptd_host@@QEAD@Z 000000018006d870 f i libucrtd:output.obj
 0001:0006c8c0       ??0?$output_processor@_WV?$stream_output_adapter@_W@__crt_stdio_output@@V?$format_validation_base@_WV?$stream_output_adapter@_W@__crt_stdio_output@@@2@@__crt_stdio_output@@QEAA@AEBV?$stream_output_adapter@_W@1@_KQEB_WAEAV__crt_cached_ptd_host@@QEAD@Z 000000018006d8c0 f i libucrtd:output.obj
 0001:0006c910       ??0?$output_processor@_WV?$stream_output_adapter@_W@__crt_stdio_output@@V?$positional_parameter_base@_WV?$stream_output_adapter@_W@__crt_stdio_output@@@2@@__crt_stdio_output@@QEAA@AEBV?$stream_output_adapter@_W@1@_KQEB_WAEAV__crt_cached_ptd_host@@QEAD@Z 000000018006d910 f i libucrtd:output.obj
 0001:0006c960       ??0?$output_processor@_WV?$stream_output_adapter@_W@__crt_stdio_output@@V?$standard_base@_WV?$stream_output_adapter@_W@__crt_stdio_output@@@2@@__crt_stdio_output@@QEAA@AEBV?$stream_output_adapter@_W@1@_KQEB_WAEAV__crt_cached_ptd_host@@QEAD@Z 000000018006d960 f i libucrtd:output.obj
 0001:0006c9b0       ??0?$output_processor@_WV?$string_output_adapter@_W@__crt_stdio_output@@V?$format_validation_base@_WV?$string_output_adapter@_W@__crt_stdio_output@@@2@@__crt_stdio_output@@QEAA@AEBV?$string_output_adapter@_W@1@_KQEB_WAEAV__crt_cached_ptd_host@@QEAD@Z 000000018006d9b0 f i libucrtd:output.obj
 0001:0006ca00       ??0?$output_processor@_WV?$string_output_adapter@_W@__crt_stdio_output@@V?$positional_parameter_base@_WV?$string_output_adapter@_W@__crt_stdio_output@@@2@@__crt_stdio_output@@QEAA@AEBV?$string_output_adapter@_W@1@_KQEB_WAEAV__crt_cached_ptd_host@@QEAD@Z 000000018006da00 f i libucrtd:output.obj
 0001:0006ca50       ??0?$output_processor@_WV?$string_output_adapter@_W@__crt_stdio_output@@V?$standard_base@_WV?$string_output_adapter@_W@__crt_stdio_output@@@2@@__crt_stdio_output@@QEAA@AEBV?$string_output_adapter@_W@1@_KQEB_WAEAV__crt_cached_ptd_host@@QEAD@Z 000000018006da50 f i libucrtd:output.obj
 0001:0006caa0       ??0?$stream_output_adapter@D@__crt_stdio_output@@QEAA@QEAU_iobuf@@@Z 000000018006daa0 f i libucrtd:output.obj
 0001:0006cae0       ??0?$stream_output_adapter@_W@__crt_stdio_output@@QEAA@QEAU_iobuf@@@Z 000000018006dae0 f i libucrtd:output.obj
 0001:0006cb20       ??0?$string_output_adapter@D@__crt_stdio_output@@QEAA@QEAU?$string_output_adapter_context@D@1@@Z 000000018006db20 f i libucrtd:output.obj
 0001:0006cb40       ??0?$string_output_adapter@_W@__crt_stdio_output@@QEAA@QEAU?$string_output_adapter_context@_W@1@@Z 000000018006db40 f i libucrtd:output.obj
 0001:0006cb60       ??0__acrt_stdio_temporary_buffering_guard@@QEAA@QEAU_iobuf@@AEAV__crt_cached_ptd_host@@@Z 000000018006db60 f i libucrtd:output.obj
 0001:0006cbb0       ??0__crt_cached_ptd_host@@QEAA@QEAU__crt_locale_pointers@@@Z 000000018006dbb0 f i libucrtd:output.obj
 0001:0006cc70       ??0__crt_scoped_get_last_error_reset@@QEAA@XZ 000000018006dc70 f i libucrtd:output.obj
 0001:0006cc90       ??0__crt_stdio_stream@@QEAA@QEAU_iobuf@@@Z 000000018006dc90 f i libucrtd:output.obj
 0001:0006ccb0       ??0formatting_buffer@__crt_stdio_output@@QEAA@XZ 000000018006dcb0 f i libucrtd:output.obj
 0001:0006ccf0       ??0guard@?$cached@H@__crt_cached_ptd_host@@QEAA@AEAU12@@Z 000000018006dcf0 f i libucrtd:output.obj
 0001:0006cd30       ??1?$c_string_character_source@D@__crt_strtox@@QEAA@XZ 000000018006dd30 f i libucrtd:output.obj
 0001:0006cd60       ??1?$c_string_character_source@_W@__crt_strtox@@QEAA@XZ 000000018006dd60 f i libucrtd:output.obj
 0001:0006cd90       ??1?$common_data@D@__crt_stdio_output@@QEAA@XZ 000000018006dd90 f i libucrtd:output.obj
 0001:0006cdb0       ??1?$common_data@_W@__crt_stdio_output@@QEAA@XZ 000000018006ddb0 f i libucrtd:output.obj
 0001:0006cdd0       ??1?$format_validation_base@DV?$stream_output_adapter@D@__crt_stdio_output@@@__crt_stdio_output@@QEAA@XZ 000000018006ddd0 f i libucrtd:output.obj
 0001:0006cdf0       ??1?$format_validation_base@DV?$string_output_adapter@D@__crt_stdio_output@@@__crt_stdio_output@@QEAA@XZ 000000018006ddf0 f i libucrtd:output.obj
 0001:0006ce10       ??1?$format_validation_base@_WV?$stream_output_adapter@_W@__crt_stdio_output@@@__crt_stdio_output@@QEAA@XZ 000000018006de10 f i libucrtd:output.obj
 0001:0006ce30       ??1?$format_validation_base@_WV?$string_output_adapter@_W@__crt_stdio_output@@@__crt_stdio_output@@QEAA@XZ 000000018006de30 f i libucrtd:output.obj
 0001:0006ce50       ??1?$output_adapter_data@DV?$stream_output_adapter@D@__crt_stdio_output@@@__crt_stdio_output@@QEAA@XZ 000000018006de50 f i libucrtd:output.obj
 0001:0006ce70       ??1?$output_adapter_data@DV?$string_output_adapter@D@__crt_stdio_output@@@__crt_stdio_output@@QEAA@XZ 000000018006de70 f i libucrtd:output.obj
 0001:0006ce90       ??1?$output_adapter_data@_WV?$stream_output_adapter@_W@__crt_stdio_output@@@__crt_stdio_output@@QEAA@XZ 000000018006de90 f i libucrtd:output.obj
 0001:0006ceb0       ??1?$output_adapter_data@_WV?$string_output_adapter@_W@__crt_stdio_output@@@__crt_stdio_output@@QEAA@XZ 000000018006deb0 f i libucrtd:output.obj
 0001:0006ced0       ??1?$output_processor@DV?$stream_output_adapter@D@__crt_stdio_output@@V?$format_validation_base@DV?$stream_output_adapter@D@__crt_stdio_output@@@2@@__crt_stdio_output@@QEAA@XZ 000000018006ded0 f i libucrtd:output.obj
 0001:0006cef0       ??1?$output_processor@DV?$stream_output_adapter@D@__crt_stdio_output@@V?$positional_parameter_base@DV?$stream_output_adapter@D@__crt_stdio_output@@@2@@__crt_stdio_output@@QEAA@XZ 000000018006def0 f i libucrtd:output.obj
 0001:0006cf10       ??1?$output_processor@DV?$stream_output_adapter@D@__crt_stdio_output@@V?$standard_base@DV?$stream_output_adapter@D@__crt_stdio_output@@@2@@__crt_stdio_output@@QEAA@XZ 000000018006df10 f i libucrtd:output.obj
 0001:0006cf30       ??1?$output_processor@DV?$string_output_adapter@D@__crt_stdio_output@@V?$format_validation_base@DV?$string_output_adapter@D@__crt_stdio_output@@@2@@__crt_stdio_output@@QEAA@XZ 000000018006df30 f i libucrtd:output.obj
 0001:0006cf50       ??1?$output_processor@DV?$string_output_adapter@D@__crt_stdio_output@@V?$positional_parameter_base@DV?$string_output_adapter@D@__crt_stdio_output@@@2@@__crt_stdio_output@@QEAA@XZ 000000018006df50 f i libucrtd:output.obj
 0001:0006cf70       ??1?$output_processor@DV?$string_output_adapter@D@__crt_stdio_output@@V?$standard_base@DV?$string_output_adapter@D@__crt_stdio_output@@@2@@__crt_stdio_output@@QEAA@XZ 000000018006df70 f i libucrtd:output.obj
 0001:0006cf90       ??1?$output_processor@_WV?$stream_output_adapter@_W@__crt_stdio_output@@V?$format_validation_base@_WV?$stream_output_adapter@_W@__crt_stdio_output@@@2@@__crt_stdio_output@@QEAA@XZ 000000018006df90 f i libucrtd:output.obj
 0001:0006cfb0       ??1?$output_processor@_WV?$stream_output_adapter@_W@__crt_stdio_output@@V?$positional_parameter_base@_WV?$stream_output_adapter@_W@__crt_stdio_output@@@2@@__crt_stdio_output@@QEAA@XZ 000000018006dfb0 f i libucrtd:output.obj
 0001:0006cfd0       ??1?$output_processor@_WV?$stream_output_adapter@_W@__crt_stdio_output@@V?$standard_base@_WV?$stream_output_adapter@_W@__crt_stdio_output@@@2@@__crt_stdio_output@@QEAA@XZ 000000018006dfd0 f i libucrtd:output.obj
 0001:0006cff0       ??1?$output_processor@_WV?$string_output_adapter@_W@__crt_stdio_output@@V?$format_validation_base@_WV?$string_output_adapter@_W@__crt_stdio_output@@@2@@__crt_stdio_output@@QEAA@XZ 000000018006dff0 f i libucrtd:output.obj
 0001:0006d010       ??1?$output_processor@_WV?$string_output_adapter@_W@__crt_stdio_output@@V?$positional_parameter_base@_WV?$string_output_adapter@_W@__crt_stdio_output@@@2@@__crt_stdio_output@@QEAA@XZ 000000018006e010 f i libucrtd:output.obj
 0001:0006d030       ??1?$output_processor@_WV?$string_output_adapter@_W@__crt_stdio_output@@V?$standard_base@_WV?$string_output_adapter@_W@__crt_stdio_output@@@2@@__crt_stdio_output@@QEAA@XZ 000000018006e030 f i libucrtd:output.obj
 0001:0006d050       ??1?$positional_parameter_base@DV?$stream_output_adapter@D@__crt_stdio_output@@@__crt_stdio_output@@QEAA@XZ 000000018006e050 f i libucrtd:output.obj
 0001:0006d070       ??1?$positional_parameter_base@DV?$string_output_adapter@D@__crt_stdio_output@@@__crt_stdio_output@@QEAA@XZ 000000018006e070 f i libucrtd:output.obj
 0001:0006d090       ??1?$positional_parameter_base@_WV?$stream_output_adapter@_W@__crt_stdio_output@@@__crt_stdio_output@@QEAA@XZ 000000018006e090 f i libucrtd:output.obj
 0001:0006d0b0       ??1?$positional_parameter_base@_WV?$string_output_adapter@_W@__crt_stdio_output@@@__crt_stdio_output@@QEAA@XZ 000000018006e0b0 f i libucrtd:output.obj
 0001:0006d0d0       ??1?$standard_base@DV?$stream_output_adapter@D@__crt_stdio_output@@@__crt_stdio_output@@QEAA@XZ 000000018006e0d0 f i libucrtd:output.obj
 0001:0006d0f0       ??1?$standard_base@DV?$string_output_adapter@D@__crt_stdio_output@@@__crt_stdio_output@@QEAA@XZ 000000018006e0f0 f i libucrtd:output.obj
 0001:0006d110       ??1?$standard_base@_WV?$stream_output_adapter@_W@__crt_stdio_output@@@__crt_stdio_output@@QEAA@XZ 000000018006e110 f i libucrtd:output.obj
 0001:0006d130       ??1?$standard_base@_WV?$string_output_adapter@_W@__crt_stdio_output@@@__crt_stdio_output@@QEAA@XZ 000000018006e130 f i libucrtd:output.obj
 0001:0006d150       ??1__acrt_stdio_temporary_buffering_guard@@QEAA@XZ 000000018006e150 f i libucrtd:output.obj
 0001:0006d180       ??1__crt_cached_ptd_host@@QEAA@XZ 000000018006e180 f i libucrtd:output.obj
 0001:0006d230       ??1__crt_scoped_get_last_error_reset@@QEAA@XZ 000000018006e230 f i libucrtd:output.obj
 0001:0006d250       ??1formatting_buffer@__crt_stdio_output@@QEAA@XZ 000000018006e250 f i libucrtd:output.obj
 0001:0006d280       ??1guard@?$cached@H@__crt_cached_ptd_host@@QEAA@XZ 000000018006e280 f i libucrtd:output.obj
 0001:0006d2b0       ??4?$__crt_unique_heap_ptr@DU__crt_internal_free_policy@@@@QEAAAEAV0@$$QEAV0@@Z 000000018006e2b0 f i libucrtd:output.obj
 0001:0006d2f0       ??A?$spectre_mitigated_lookup_table@Ustate_transition_pair@__crt_stdio_output@@$0IA@@__crt_stdio_output@@QEBAAEBUstate_transition_pair@1@_K@Z 000000018006e2f0 f i libucrtd:output.obj
 0001:0006d310       ??C__crt_stdio_stream@@QEBAPEAU__crt_stdio_stream_data@@XZ 000000018006e310 f i libucrtd:output.obj
 0001:0006db60       ?__crt_interlocked_read_32@@YAHPEDH@Z 000000018006eb60 f i libucrtd:output.obj
 0001:0006db80       ?adjust_hexit@?$output_processor@DV?$stream_output_adapter@D@__crt_stdio_output@@V?$format_validation_base@DV?$stream_output_adapter@D@__crt_stdio_output@@@2@@__crt_stdio_output@@CADH_N@Z 000000018006eb80 f i libucrtd:output.obj
 0001:0006dbd0       ?adjust_hexit@?$output_processor@DV?$stream_output_adapter@D@__crt_stdio_output@@V?$positional_parameter_base@DV?$stream_output_adapter@D@__crt_stdio_output@@@2@@__crt_stdio_output@@CADH_N@Z 000000018006ebd0 f i libucrtd:output.obj
 0001:0006dc20       ?adjust_hexit@?$output_processor@DV?$stream_output_adapter@D@__crt_stdio_output@@V?$standard_base@DV?$stream_output_adapter@D@__crt_stdio_output@@@2@@__crt_stdio_output@@CADH_N@Z 000000018006ec20 f i libucrtd:output.obj
 0001:0006dc70       ?adjust_hexit@?$output_processor@DV?$string_output_adapter@D@__crt_stdio_output@@V?$format_validation_base@DV?$string_output_adapter@D@__crt_stdio_output@@@2@@__crt_stdio_output@@CADH_N@Z 000000018006ec70 f i libucrtd:output.obj
 0001:0006dcc0       ?adjust_hexit@?$output_processor@DV?$string_output_adapter@D@__crt_stdio_output@@V?$positional_parameter_base@DV?$string_output_adapter@D@__crt_stdio_output@@@2@@__crt_stdio_output@@CADH_N@Z 000000018006ecc0 f i libucrtd:output.obj
 0001:0006dd10       ?adjust_hexit@?$output_processor@DV?$string_output_adapter@D@__crt_stdio_output@@V?$standard_base@DV?$string_output_adapter@D@__crt_stdio_output@@@2@@__crt_stdio_output@@CADH_N@Z 000000018006ed10 f i libucrtd:output.obj
 0001:0006dd60       ?adjust_hexit@?$output_processor@_WV?$stream_output_adapter@_W@__crt_stdio_output@@V?$format_validation_base@_WV?$stream_output_adapter@_W@__crt_stdio_output@@@2@@__crt_stdio_output@@CADH_N@Z 000000018006ed60 f i libucrtd:output.obj
 0001:0006ddb0       ?adjust_hexit@?$output_processor@_WV?$stream_output_adapter@_W@__crt_stdio_output@@V?$positional_parameter_base@_WV?$stream_output_adapter@_W@__crt_stdio_output@@@2@@__crt_stdio_output@@CADH_N@Z 000000018006edb0 f i libucrtd:output.obj
 0001:0006de00       ?adjust_hexit@?$output_processor@_WV?$stream_output_adapter@_W@__crt_stdio_output@@V?$standard_base@_WV?$stream_output_adapter@_W@__crt_stdio_output@@@2@@__crt_stdio_output@@CADH_N@Z 000000018006ee00 f i libucrtd:output.obj
 0001:0006de50       ?adjust_hexit@?$output_processor@_WV?$string_output_adapter@_W@__crt_stdio_output@@V?$format_validation_base@_WV?$string_output_adapter@_W@__crt_stdio_output@@@2@@__crt_stdio_output@@CADH_N@Z 000000018006ee50 f i libucrtd:output.obj
 0001:0006dea0       ?adjust_hexit@?$output_processor@_WV?$string_output_adapter@_W@__crt_stdio_output@@V?$positional_parameter_base@_WV?$string_output_adapter@_W@__crt_stdio_output@@@2@@__crt_stdio_output@@CADH_N@Z 000000018006eea0 f i libucrtd:output.obj
 0001:0006def0       ?adjust_hexit@?$output_processor@_WV?$string_output_adapter@_W@__crt_stdio_output@@V?$standard_base@_WV?$string_output_adapter@_W@__crt_stdio_output@@@2@@__crt_stdio_output@@CADH_N@Z 000000018006eef0 f i libucrtd:output.obj
 0001:0006df40       ?advance_to_next_pass@?$positional_parameter_base@DV?$stream_output_adapter@D@__crt_stdio_output@@@__crt_stdio_output@@IEAA_NXZ 000000018006ef40 f i libucrtd:output.obj
 0001:0006dff0       ?advance_to_next_pass@?$positional_parameter_base@DV?$string_output_adapter@D@__crt_stdio_output@@@__crt_stdio_output@@IEAA_NXZ 000000018006eff0 f i libucrtd:output.obj
 0001:0006e0a0       ?advance_to_next_pass@?$positional_parameter_base@_WV?$stream_output_adapter@_W@__crt_stdio_output@@@__crt_stdio_output@@IEAA_NXZ 000000018006f0a0 f i libucrtd:output.obj
 0001:0006e150       ?advance_to_next_pass@?$positional_parameter_base@_WV?$string_output_adapter@_W@__crt_stdio_output@@@__crt_stdio_output@@IEAA_NXZ 000000018006f150 f i libucrtd:output.obj
 0001:0006e200       ?advance_to_next_pass@?$standard_base@DV?$stream_output_adapter@D@__crt_stdio_output@@@__crt_stdio_output@@IEAA_NXZ 000000018006f200 f i libucrtd:output.obj
 0001:0006e250       ?advance_to_next_pass@?$standard_base@DV?$string_output_adapter@D@__crt_stdio_output@@@__crt_stdio_output@@IEAA_NXZ 000000018006f250 f i libucrtd:output.obj
 0001:0006e2a0       ?advance_to_next_pass@?$standard_base@_WV?$stream_output_adapter@_W@__crt_stdio_output@@@__crt_stdio_output@@IEAA_NXZ 000000018006f2a0 f i libucrtd:output.obj
 0001:0006e2f0       ?advance_to_next_pass@?$standard_base@_WV?$string_output_adapter@_W@__crt_stdio_output@@@__crt_stdio_output@@IEAA_NXZ 000000018006f2f0 f i libucrtd:output.obj
 0001:0006e340       ?check@?$cached@H@__crt_cached_ptd_host@@QEBA_NH@Z 000000018006f340 f i libucrtd:output.obj
 0001:0006e380       ?check_synchronize_global_state_index@__crt_cached_ptd_host@@AEAA_KAEBV__crt_scoped_get_last_error_reset@@@Z 000000018006f380 f i libucrtd:output.obj
 0001:0006e3c0       ?check_synchronize_per_thread_data@__crt_cached_ptd_host@@AEAAPEAU__acrt_ptd@@XZ 000000018006f3c0 f i libucrtd:output.obj
 0001:0006e400       ?create_guard@?$cached@H@__crt_cached_ptd_host@@QEAA?AVguard@12@XZ 000000018006f400 f i libucrtd:output.obj
 0001:0006e430       ?crop_zeroes@__crt_stdio_output@@YAXPEADQEAU__crt_locale_pointers@@@Z 000000018006f430 f i libucrtd:output.obj
 0001:0006e580       ?disable@guard@?$cached@H@__crt_cached_ptd_host@@QEAAXXZ 000000018006f580 f i libucrtd:output.obj
 0001:0006e590       ?enable@guard@?$cached@H@__crt_cached_ptd_host@@QEAAXXZ 000000018006f590 f i libucrtd:output.obj
 0001:0006e5a0       ?find_next_state@?$output_processor@DV?$stream_output_adapter@D@__crt_stdio_output@@V?$format_validation_base@DV?$stream_output_adapter@D@__crt_stdio_output@@@2@@__crt_stdio_output@@AEBA?AW4state@2@DW432@@Z 000000018006f5a0 f i libucrtd:output.obj
 0001:0006e640       ?find_next_state@?$output_processor@DV?$stream_output_adapter@D@__crt_stdio_output@@V?$positional_parameter_base@DV?$stream_output_adapter@D@__crt_stdio_output@@@2@@__crt_stdio_output@@AEBA?AW4state@2@DW432@@Z 000000018006f640 f i libucrtd:output.obj
 0001:0006e6e0       ?find_next_state@?$output_processor@DV?$stream_output_adapter@D@__crt_stdio_output@@V?$standard_base@DV?$stream_output_adapter@D@__crt_stdio_output@@@2@@__crt_stdio_output@@AEBA?AW4state@2@DW432@@Z 000000018006f6e0 f i libucrtd:output.obj
 0001:0006e780       ?find_next_state@?$output_processor@DV?$string_output_adapter@D@__crt_stdio_output@@V?$format_validation_base@DV?$string_output_adapter@D@__crt_stdio_output@@@2@@__crt_stdio_output@@AEBA?AW4state@2@DW432@@Z 000000018006f780 f i libucrtd:output.obj
 0001:0006e820       ?find_next_state@?$output_processor@DV?$string_output_adapter@D@__crt_stdio_output@@V?$positional_parameter_base@DV?$string_output_adapter@D@__crt_stdio_output@@@2@@__crt_stdio_output@@AEBA?AW4state@2@DW432@@Z 000000018006f820 f i libucrtd:output.obj
 0001:0006e8c0       ?find_next_state@?$output_processor@DV?$string_output_adapter@D@__crt_stdio_output@@V?$standard_base@DV?$string_output_adapter@D@__crt_stdio_output@@@2@@__crt_stdio_output@@AEBA?AW4state@2@DW432@@Z 000000018006f8c0 f i libucrtd:output.obj
 0001:0006e960       ?find_next_state@?$output_processor@_WV?$stream_output_adapter@_W@__crt_stdio_output@@V?$format_validation_base@_WV?$stream_output_adapter@_W@__crt_stdio_output@@@2@@__crt_stdio_output@@AEBA?AW4state@2@_WW432@@Z 000000018006f960 f i libucrtd:output.obj
 0001:0006ea00       ?find_next_state@?$output_processor@_WV?$stream_output_adapter@_W@__crt_stdio_output@@V?$positional_parameter_base@_WV?$stream_output_adapter@_W@__crt_stdio_output@@@2@@__crt_stdio_output@@AEBA?AW4state@2@_WW432@@Z 000000018006fa00 f i libucrtd:output.obj
 0001:0006eaa0       ?find_next_state@?$output_processor@_WV?$stream_output_adapter@_W@__crt_stdio_output@@V?$standard_base@_WV?$stream_output_adapter@_W@__crt_stdio_output@@@2@@__crt_stdio_output@@AEBA?AW4state@2@_WW432@@Z 000000018006faa0 f i libucrtd:output.obj
 0001:0006eb40       ?find_next_state@?$output_processor@_WV?$string_output_adapter@_W@__crt_stdio_output@@V?$format_validation_base@_WV?$string_output_adapter@_W@__crt_stdio_output@@@2@@__crt_stdio_output@@AEBA?AW4state@2@_WW432@@Z 000000018006fb40 f i libucrtd:output.obj
 0001:0006ebe0       ?find_next_state@?$output_processor@_WV?$string_output_adapter@_W@__crt_stdio_output@@V?$positional_parameter_base@_WV?$string_output_adapter@_W@__crt_stdio_output@@@2@@__crt_stdio_output@@AEBA?AW4state@2@_WW432@@Z 000000018006fbe0 f i libucrtd:output.obj
 0001:0006ec80       ?find_next_state@?$output_processor@_WV?$string_output_adapter@_W@__crt_stdio_output@@V?$standard_base@_WV?$string_output_adapter@_W@__crt_stdio_output@@@2@@__crt_stdio_output@@AEBA?AW4state@2@_WW432@@Z 000000018006fc80 f i libucrtd:output.obj
 0001:0006ed20       ?force_decimal_point@__crt_stdio_output@@YAXPEADQEAU__crt_locale_pointers@@@Z 000000018006fd20 f i libucrtd:output.obj
 0001:0006ee20       ?force_synchronize_global_state_index@__crt_cached_ptd_host@@AEAA_KAEBV__crt_scoped_get_last_error_reset@@@Z 000000018006fe20 f i libucrtd:output.obj
 0001:0006ee60       ?force_synchronize_per_thread_data@__crt_cached_ptd_host@@AEAAPEAU__acrt_ptd@@XZ 000000018006fe60 f i libucrtd:output.obj
 0001:0006eec0       ?get@?$c_string_character_source@D@__crt_strtox@@QEAADXZ 000000018006fec0 f i libucrtd:output.obj
 0001:0006ef00       ?get@?$c_string_character_source@_W@__crt_strtox@@QEAA_WXZ 000000018006ff00 f i libucrtd:output.obj
 0001:0006ef40       ?get_current_state_index@__crt_state_management@@YA_KAEBV__crt_scoped_get_last_error_reset@@@Z 000000018006ff40 f i libucrtd:output.obj
 0001:0006ef50       ?get_errno@__crt_cached_ptd_host@@QEAAAEAU?$cached@H@1@XZ 000000018006ff50 f i libucrtd:output.obj
 0001:0006ef60       ?get_flags@__crt_stdio_stream@@QEBAJXZ 000000018006ff60 f i libucrtd:output.obj
 0001:0006ef90       ?get_locale@__crt_cached_ptd_host@@QEAAPEAU__crt_locale_pointers@@XZ 000000018006ff90 f i libucrtd:output.obj
 0001:0006efc0       ?get_parameter_type@?$positional_parameter_base@DV?$stream_output_adapter@D@__crt_stdio_output@@@__crt_stdio_output@@CA?AW4parameter_type@12@F@Z 000000018006ffc0 f i libucrtd:output.obj
 0001:0006efd0       ?get_parameter_type@?$positional_parameter_base@DV?$stream_output_adapter@D@__crt_stdio_output@@@__crt_stdio_output@@CA?AW4parameter_type@12@G@Z 000000018006ffd0 f i libucrtd:output.obj
 0001:0006efe0       ?get_parameter_type@?$positional_parameter_base@DV?$stream_output_adapter@D@__crt_stdio_output@@@__crt_stdio_output@@CA?AW4parameter_type@12@H@Z 000000018006ffe0 f i libucrtd:output.obj
 0001:0006eff0       ?get_parameter_type@?$positional_parameter_base@DV?$stream_output_adapter@D@__crt_stdio_output@@@__crt_stdio_output@@CA?AW4parameter_type@12@I@Z 000000018006fff0 f i libucrtd:output.obj
 0001:0006f000       ?get_parameter_type@?$positional_parameter_base@DV?$stream_output_adapter@D@__crt_stdio_output@@@__crt_stdio_output@@CA?AW4parameter_type@12@U_CRT_DOUBLE@@@Z 0000000180070000 f i libucrtd:output.obj
 0001:0006f010       ?get_parameter_type@?$positional_parameter_base@DV?$stream_output_adapter@D@__crt_stdio_output@@@__crt_stdio_output@@CA?AW4parameter_type@12@_J@Z 0000000180070010 f i libucrtd:output.obj
 0001:0006f020       ?get_parameter_type@?$positional_parameter_base@DV?$stream_output_adapter@D@__crt_stdio_output@@@__crt_stdio_output@@CA?AW4parameter_type@12@_K@Z 0000000180070020 f i libucrtd:output.obj
 0001:0006f030       ?get_parameter_type@?$positional_parameter_base@DV?$stream_output_adapter@D@__crt_stdio_output@@@__crt_stdio_output@@CA?AW4parameter_type@12@_W@Z 0000000180070030 f i libucrtd:output.obj
 0001:0006f040       ?get_parameter_type@?$positional_parameter_base@DV?$string_output_adapter@D@__crt_stdio_output@@@__crt_stdio_output@@CA?AW4parameter_type@12@F@Z 0000000180070040 f i libucrtd:output.obj
 0001:0006f050       ?get_parameter_type@?$positional_parameter_base@DV?$string_output_adapter@D@__crt_stdio_output@@@__crt_stdio_output@@CA?AW4parameter_type@12@G@Z 0000000180070050 f i libucrtd:output.obj
 0001:0006f060       ?get_parameter_type@?$positional_parameter_base@DV?$string_output_adapter@D@__crt_stdio_output@@@__crt_stdio_output@@CA?AW4parameter_type@12@H@Z 0000000180070060 f i libucrtd:output.obj
 0001:0006f070       ?get_parameter_type@?$positional_parameter_base@DV?$string_output_adapter@D@__crt_stdio_output@@@__crt_stdio_output@@CA?AW4parameter_type@12@I@Z 0000000180070070 f i libucrtd:output.obj
 0001:0006f080       ?get_parameter_type@?$positional_parameter_base@DV?$string_output_adapter@D@__crt_stdio_output@@@__crt_stdio_output@@CA?AW4parameter_type@12@U_CRT_DOUBLE@@@Z 0000000180070080 f i libucrtd:output.obj
 0001:0006f090       ?get_parameter_type@?$positional_parameter_base@DV?$string_output_adapter@D@__crt_stdio_output@@@__crt_stdio_output@@CA?AW4parameter_type@12@_J@Z 0000000180070090 f i libucrtd:output.obj
 0001:0006f0a0       ?get_parameter_type@?$positional_parameter_base@DV?$string_output_adapter@D@__crt_stdio_output@@@__crt_stdio_output@@CA?AW4parameter_type@12@_K@Z 00000001800700a0 f i libucrtd:output.obj
 0001:0006f0b0       ?get_parameter_type@?$positional_parameter_base@DV?$string_output_adapter@D@__crt_stdio_output@@@__crt_stdio_output@@CA?AW4parameter_type@12@_W@Z 00000001800700b0 f i libucrtd:output.obj
 0001:0006f0c0       ?get_parameter_type@?$positional_parameter_base@_WV?$stream_output_adapter@_W@__crt_stdio_output@@@__crt_stdio_output@@CA?AW4parameter_type@12@F@Z 00000001800700c0 f i libucrtd:output.obj
 0001:0006f0d0       ?get_parameter_type@?$positional_parameter_base@_WV?$stream_output_adapter@_W@__crt_stdio_output@@@__crt_stdio_output@@CA?AW4parameter_type@12@G@Z 00000001800700d0 f i libucrtd:output.obj
 0001:0006f0e0       ?get_parameter_type@?$positional_parameter_base@_WV?$stream_output_adapter@_W@__crt_stdio_output@@@__crt_stdio_output@@CA?AW4parameter_type@12@H@Z 00000001800700e0 f i libucrtd:output.obj
 0001:0006f0f0       ?get_parameter_type@?$positional_parameter_base@_WV?$stream_output_adapter@_W@__crt_stdio_output@@@__crt_stdio_output@@CA?AW4parameter_type@12@I@Z 00000001800700f0 f i libucrtd:output.obj
 0001:0006f100       ?get_parameter_type@?$positional_parameter_base@_WV?$stream_output_adapter@_W@__crt_stdio_output@@@__crt_stdio_output@@CA?AW4parameter_type@12@U_CRT_DOUBLE@@@Z 0000000180070100 f i libucrtd:output.obj
 0001:0006f110       ?get_parameter_type@?$positional_parameter_base@_WV?$stream_output_adapter@_W@__crt_stdio_output@@@__crt_stdio_output@@CA?AW4parameter_type@12@_J@Z 0000000180070110 f i libucrtd:output.obj
 0001:0006f120       ?get_parameter_type@?$positional_parameter_base@_WV?$stream_output_adapter@_W@__crt_stdio_output@@@__crt_stdio_output@@CA?AW4parameter_type@12@_K@Z 0000000180070120 f i libucrtd:output.obj
 0001:0006f130       ?get_parameter_type@?$positional_parameter_base@_WV?$stream_output_adapter@_W@__crt_stdio_output@@@__crt_stdio_output@@CA?AW4parameter_type@12@_W@Z 0000000180070130 f i libucrtd:output.obj
 0001:0006f140       ?get_parameter_type@?$positional_parameter_base@_WV?$string_output_adapter@_W@__crt_stdio_output@@@__crt_stdio_output@@CA?AW4parameter_type@12@F@Z 0000000180070140 f i libucrtd:output.obj
 0001:0006f150       ?get_parameter_type@?$positional_parameter_base@_WV?$string_output_adapter@_W@__crt_stdio_output@@@__crt_stdio_output@@CA?AW4parameter_type@12@G@Z 0000000180070150 f i libucrtd:output.obj
 0001:0006f160       ?get_parameter_type@?$positional_parameter_base@_WV?$string_output_adapter@_W@__crt_stdio_output@@@__crt_stdio_output@@CA?AW4parameter_type@12@H@Z 0000000180070160 f i libucrtd:output.obj
 0001:0006f170       ?get_parameter_type@?$positional_parameter_base@_WV?$string_output_adapter@_W@__crt_stdio_output@@@__crt_stdio_output@@CA?AW4parameter_type@12@I@Z 0000000180070170 f i libucrtd:output.obj
 0001:0006f180       ?get_parameter_type@?$positional_parameter_base@_WV?$string_output_adapter@_W@__crt_stdio_output@@@__crt_stdio_output@@CA?AW4parameter_type@12@U_CRT_DOUBLE@@@Z 0000000180070180 f i libucrtd:output.obj
 0001:0006f190       ?get_parameter_type@?$positional_parameter_base@_WV?$string_output_adapter@_W@__crt_stdio_output@@@__crt_stdio_output@@CA?AW4parameter_type@12@_J@Z 0000000180070190 f i libucrtd:output.obj
 0001:0006f1a0       ?get_parameter_type@?$positional_parameter_base@_WV?$string_output_adapter@_W@__crt_stdio_output@@@__crt_stdio_output@@CA?AW4parameter_type@12@_K@Z 00000001800701a0 f i libucrtd:output.obj
 0001:0006f1b0       ?get_parameter_type@?$positional_parameter_base@_WV?$string_output_adapter@_W@__crt_stdio_output@@@__crt_stdio_output@@CA?AW4parameter_type@12@_W@Z 00000001800701b0 f i libucrtd:output.obj
 0001:0006f1c0       ?get_raw_ptd@__crt_cached_ptd_host@@QEAAPEAU__acrt_ptd@@XZ 00000001800701c0 f i libucrtd:output.obj
 0001:0006f1e0       ?has_flag@?$output_processor@DV?$stream_output_adapter@D@__crt_stdio_output@@V?$format_validation_base@DV?$stream_output_adapter@D@__crt_stdio_output@@@2@@__crt_stdio_output@@AEBA_NI@Z 00000001800701e0 f i libucrtd:output.obj
 0001:0006f220       ?has_flag@?$output_processor@DV?$stream_output_adapter@D@__crt_stdio_output@@V?$positional_parameter_base@DV?$stream_output_adapter@D@__crt_stdio_output@@@2@@__crt_stdio_output@@AEBA_NI@Z 0000000180070220 f i libucrtd:output.obj
 0001:0006f260       ?has_flag@?$output_processor@DV?$stream_output_adapter@D@__crt_stdio_output@@V?$standard_base@DV?$stream_output_adapter@D@__crt_stdio_output@@@2@@__crt_stdio_output@@AEBA_NI@Z 0000000180070260 f i libucrtd:output.obj
 0001:0006f2a0       ?has_flag@?$output_processor@DV?$string_output_adapter@D@__crt_stdio_output@@V?$format_validation_base@DV?$string_output_adapter@D@__crt_stdio_output@@@2@@__crt_stdio_output@@AEBA_NI@Z 00000001800702a0 f i libucrtd:output.obj
 0001:0006f2e0       ?has_flag@?$output_processor@DV?$string_output_adapter@D@__crt_stdio_output@@V?$positional_parameter_base@DV?$string_output_adapter@D@__crt_stdio_output@@@2@@__crt_stdio_output@@AEBA_NI@Z 00000001800702e0 f i libucrtd:output.obj
 0001:0006f320       ?has_flag@?$output_processor@DV?$string_output_adapter@D@__crt_stdio_output@@V?$standard_base@DV?$string_output_adapter@D@__crt_stdio_output@@@2@@__crt_stdio_output@@AEBA_NI@Z 0000000180070320 f i libucrtd:output.obj
 0001:0006f360       ?has_flag@?$output_processor@_WV?$stream_output_adapter@_W@__crt_stdio_output@@V?$format_validation_base@_WV?$stream_output_adapter@_W@__crt_stdio_output@@@2@@__crt_stdio_output@@AEBA_NI@Z 0000000180070360 f i libucrtd:output.obj
 0001:0006f3a0       ?has_flag@?$output_processor@_WV?$stream_output_adapter@_W@__crt_stdio_output@@V?$positional_parameter_base@_WV?$stream_output_adapter@_W@__crt_stdio_output@@@2@@__crt_stdio_output@@AEBA_NI@Z 00000001800703a0 f i libucrtd:output.obj
 0001:0006f3e0       ?has_flag@?$output_processor@_WV?$stream_output_adapter@_W@__crt_stdio_output@@V?$standard_base@_WV?$stream_output_adapter@_W@__crt_stdio_output@@@2@@__crt_stdio_output@@AEBA_NI@Z 00000001800703e0 f i libucrtd:output.obj
 0001:0006f420       ?has_flag@?$output_processor@_WV?$string_output_adapter@_W@__crt_stdio_output@@V?$format_validation_base@_WV?$string_output_adapter@_W@__crt_stdio_output@@@2@@__crt_stdio_output@@AEBA_NI@Z 0000000180070420 f i libucrtd:output.obj
 0001:0006f460       ?has_flag@?$output_processor@_WV?$string_output_adapter@_W@__crt_stdio_output@@V?$positional_parameter_base@_WV?$string_output_adapter@_W@__crt_stdio_output@@@2@@__crt_stdio_output@@AEBA_NI@Z 0000000180070460 f i libucrtd:output.obj
 0001:0006f4a0       ?has_flag@?$output_processor@_WV?$string_output_adapter@_W@__crt_stdio_output@@V?$standard_base@_WV?$string_output_adapter@_W@__crt_stdio_output@@@2@@__crt_stdio_output@@AEBA_NI@Z 00000001800704a0 f i libucrtd:output.obj
 0001:0006f4e0       ?is_positional_parameter_reappearance_consistent@?$positional_parameter_base@DV?$stream_output_adapter@D@__crt_stdio_output@@@__crt_stdio_output@@AEAA_NAEBUparameter_data@12@W4parameter_type@12@DW4length_modifier@2@@Z 00000001800704e0 f i libucrtd:output.obj
 0001:0006f740       ?is_positional_parameter_reappearance_consistent@?$positional_parameter_base@DV?$string_output_adapter@D@__crt_stdio_output@@@__crt_stdio_output@@AEAA_NAEBUparameter_data@12@W4parameter_type@12@DW4length_modifier@2@@Z 0000000180070740 f i libucrtd:output.obj
 0001:0006f9a0       ?is_positional_parameter_reappearance_consistent@?$positional_parameter_base@_WV?$stream_output_adapter@_W@__crt_stdio_output@@@__crt_stdio_output@@AEAA_NAEBUparameter_data@12@W4parameter_type@12@_WW4length_modifier@2@@Z 00000001800709a0 f i libucrtd:output.obj
 0001:0006fc00       ?is_positional_parameter_reappearance_consistent@?$positional_parameter_base@_WV?$string_output_adapter@_W@__crt_stdio_output@@@__crt_stdio_output@@AEAA_NAEBUparameter_data@12@W4parameter_type@12@_WW4length_modifier@2@@Z 0000000180070c00 f i libucrtd:output.obj
 0001:0006fe60       ?is_string_backed@__crt_stdio_stream@@QEBA_NXZ 0000000180070e60 f i libucrtd:output.obj
 0001:0006fea0       ?maximum_signed_value@__crt_strtox@@YAJK@Z 0000000180070ea0 f i libucrtd:output.obj
 0001:0006feb0       ?minimum_signed_value@__crt_strtox@@YAJK@Z 0000000180070eb0 f i libucrtd:output.obj
 0001:0006fec0       ?narrow_null_string@?$output_processor@DV?$stream_output_adapter@D@__crt_stdio_output@@V?$format_validation_base@DV?$stream_output_adapter@D@__crt_stdio_output@@@2@@__crt_stdio_output@@CAPEADXZ 0000000180070ec0 f i libucrtd:output.obj
 0001:0006fed0       ?narrow_null_string@?$output_processor@DV?$stream_output_adapter@D@__crt_stdio_output@@V?$positional_parameter_base@DV?$stream_output_adapter@D@__crt_stdio_output@@@2@@__crt_stdio_output@@CAPEADXZ 0000000180070ed0 f i libucrtd:output.obj
 0001:0006fee0       ?narrow_null_string@?$output_processor@DV?$stream_output_adapter@D@__crt_stdio_output@@V?$standard_base@DV?$stream_output_adapter@D@__crt_stdio_output@@@2@@__crt_stdio_output@@CAPEADXZ 0000000180070ee0 f i libucrtd:output.obj
 0001:0006fef0       ?narrow_null_string@?$output_processor@DV?$string_output_adapter@D@__crt_stdio_output@@V?$format_validation_base@DV?$string_output_adapter@D@__crt_stdio_output@@@2@@__crt_stdio_output@@CAPEADXZ 0000000180070ef0 f i libucrtd:output.obj
 0001:0006ff00       ?narrow_null_string@?$output_processor@DV?$string_output_adapter@D@__crt_stdio_output@@V?$positional_parameter_base@DV?$string_output_adapter@D@__crt_stdio_output@@@2@@__crt_stdio_output@@CAPEADXZ 0000000180070f00 f i libucrtd:output.obj
 0001:0006ff10       ?narrow_null_string@?$output_processor@DV?$string_output_adapter@D@__crt_stdio_output@@V?$standard_base@DV?$string_output_adapter@D@__crt_stdio_output@@@2@@__crt_stdio_output@@CAPEADXZ 0000000180070f10 f i libucrtd:output.obj
 0001:0006ff20       ?narrow_null_string@?$output_processor@_WV?$stream_output_adapter@_W@__crt_stdio_output@@V?$format_validation_base@_WV?$stream_output_adapter@_W@__crt_stdio_output@@@2@@__crt_stdio_output@@CAPEADXZ 0000000180070f20 f i libucrtd:output.obj
 0001:0006ff30       ?narrow_null_string@?$output_processor@_WV?$stream_output_adapter@_W@__crt_stdio_output@@V?$positional_parameter_base@_WV?$stream_output_adapter@_W@__crt_stdio_output@@@2@@__crt_stdio_output@@CAPEADXZ 0000000180070f30 f i libucrtd:output.obj
 0001:0006ff40       ?narrow_null_string@?$output_processor@_WV?$stream_output_adapter@_W@__crt_stdio_output@@V?$standard_base@_WV?$stream_output_adapter@_W@__crt_stdio_output@@@2@@__crt_stdio_output@@CAPEADXZ 0000000180070f40 f i libucrtd:output.obj
 0001:0006ff50       ?narrow_null_string@?$output_processor@_WV?$string_output_adapter@_W@__crt_stdio_output@@V?$format_validation_base@_WV?$string_output_adapter@_W@__crt_stdio_output@@@2@@__crt_stdio_output@@CAPEADXZ 0000000180070f50 f i libucrtd:output.obj
 0001:0006ff60       ?narrow_null_string@?$output_processor@_WV?$string_output_adapter@_W@__crt_stdio_output@@V?$positional_parameter_base@_WV?$string_output_adapter@_W@__crt_stdio_output@@@2@@__crt_stdio_output@@CAPEADXZ 0000000180070f60 f i libucrtd:output.obj
 0001:0006ff70       ?narrow_null_string@?$output_processor@_WV?$string_output_adapter@_W@__crt_stdio_output@@V?$standard_base@_WV?$string_output_adapter@_W@__crt_stdio_output@@@2@@__crt_stdio_output@@CAPEADXZ 0000000180070f70 f i libucrtd:output.obj
 0001:0006ff80       ?parse_digit@__crt_strtox@@YAID@Z 0000000180070f80 f i libucrtd:output.obj
 0001:0006fff0       ?parse_digit@__crt_strtox@@YAI_W@Z 0000000180070ff0 f i libucrtd:output.obj
 0001:00070040       ?parse_int_from_format_string@?$output_processor@DV?$stream_output_adapter@D@__crt_stdio_output@@V?$format_validation_base@DV?$stream_output_adapter@D@__crt_stdio_output@@@2@@__crt_stdio_output@@AEAA_NQEAH@Z 0000000180071040 f i libucrtd:output.obj
 0001:00070140       ?parse_int_from_format_string@?$output_processor@DV?$stream_output_adapter@D@__crt_stdio_output@@V?$positional_parameter_base@DV?$stream_output_adapter@D@__crt_stdio_output@@@2@@__crt_stdio_output@@AEAA_NQEAH@Z 0000000180071140 f i libucrtd:output.obj
 0001:00070240       ?parse_int_from_format_string@?$output_processor@DV?$stream_output_adapter@D@__crt_stdio_output@@V?$standard_base@DV?$stream_output_adapter@D@__crt_stdio_output@@@2@@__crt_stdio_output@@AEAA_NQEAH@Z 0000000180071240 f i libucrtd:output.obj
 0001:00070340       ?parse_int_from_format_string@?$output_processor@DV?$string_output_adapter@D@__crt_stdio_output@@V?$format_validation_base@DV?$string_output_adapter@D@__crt_stdio_output@@@2@@__crt_stdio_output@@AEAA_NQEAH@Z 0000000180071340 f i libucrtd:output.obj
 0001:00070440       ?parse_int_from_format_string@?$output_processor@DV?$string_output_adapter@D@__crt_stdio_output@@V?$positional_parameter_base@DV?$string_output_adapter@D@__crt_stdio_output@@@2@@__crt_stdio_output@@AEAA_NQEAH@Z 0000000180071440 f i libucrtd:output.obj
 0001:00070540       ?parse_int_from_format_string@?$output_processor@DV?$string_output_adapter@D@__crt_stdio_output@@V?$standard_base@DV?$string_output_adapter@D@__crt_stdio_output@@@2@@__crt_stdio_output@@AEAA_NQEAH@Z 0000000180071540 f i libucrtd:output.obj
 0001:00070640       ?parse_int_from_format_string@?$output_processor@_WV?$stream_output_adapter@_W@__crt_stdio_output@@V?$format_validation_base@_WV?$stream_output_adapter@_W@__crt_stdio_output@@@2@@__crt_stdio_output@@AEAA_NQEAH@Z 0000000180071640 f i libucrtd:output.obj
 0001:00070740       ?parse_int_from_format_string@?$output_processor@_WV?$stream_output_adapter@_W@__crt_stdio_output@@V?$positional_parameter_base@_WV?$stream_output_adapter@_W@__crt_stdio_output@@@2@@__crt_stdio_output@@AEAA_NQEAH@Z 0000000180071740 f i libucrtd:output.obj
 0001:00070840       ?parse_int_from_format_string@?$output_processor@_WV?$stream_output_adapter@_W@__crt_stdio_output@@V?$standard_base@_WV?$stream_output_adapter@_W@__crt_stdio_output@@@2@@__crt_stdio_output@@AEAA_NQEAH@Z 0000000180071840 f i libucrtd:output.obj
 0001:00070940       ?parse_int_from_format_string@?$output_processor@_WV?$string_output_adapter@_W@__crt_stdio_output@@V?$format_validation_base@_WV?$string_output_adapter@_W@__crt_stdio_output@@@2@@__crt_stdio_output@@AEAA_NQEAH@Z 0000000180071940 f i libucrtd:output.obj
 0001:00070a40       ?parse_int_from_format_string@?$output_processor@_WV?$string_output_adapter@_W@__crt_stdio_output@@V?$positional_parameter_base@_WV?$string_output_adapter@_W@__crt_stdio_output@@@2@@__crt_stdio_output@@AEAA_NQEAH@Z 0000000180071a40 f i libucrtd:output.obj
 0001:00070b40       ?parse_int_from_format_string@?$output_processor@_WV?$string_output_adapter@_W@__crt_stdio_output@@V?$standard_base@_WV?$string_output_adapter@_W@__crt_stdio_output@@@2@@__crt_stdio_output@@AEAA_NQEAH@Z 0000000180071b40 f i libucrtd:output.obj
 0001:00070c40       ?process@?$output_processor@DV?$stream_output_adapter@D@__crt_stdio_output@@V?$format_validation_base@DV?$stream_output_adapter@D@__crt_stdio_output@@@2@@__crt_stdio_output@@QEAAHXZ 0000000180071c40 f i libucrtd:output.obj
 0001:00071000       ?process@?$output_processor@DV?$stream_output_adapter@D@__crt_stdio_output@@V?$positional_parameter_base@DV?$stream_output_adapter@D@__crt_stdio_output@@@2@@__crt_stdio_output@@QEAAHXZ 0000000180072000 f i libucrtd:output.obj
 0001:000713c0       ?process@?$output_processor@DV?$stream_output_adapter@D@__crt_stdio_output@@V?$standard_base@DV?$stream_output_adapter@D@__crt_stdio_output@@@2@@__crt_stdio_output@@QEAAHXZ 00000001800723c0 f i libucrtd:output.obj
 0001:00071780       ?process@?$output_processor@DV?$string_output_adapter@D@__crt_stdio_output@@V?$format_validation_base@DV?$string_output_adapter@D@__crt_stdio_output@@@2@@__crt_stdio_output@@QEAAHXZ 0000000180072780 f i libucrtd:output.obj
 0001:00071b40       ?process@?$output_processor@DV?$string_output_adapter@D@__crt_stdio_output@@V?$positional_parameter_base@DV?$string_output_adapter@D@__crt_stdio_output@@@2@@__crt_stdio_output@@QEAAHXZ 0000000180072b40 f i libucrtd:output.obj
 0001:00071f00       ?process@?$output_processor@DV?$string_output_adapter@D@__crt_stdio_output@@V?$standard_base@DV?$string_output_adapter@D@__crt_stdio_output@@@2@@__crt_stdio_output@@QEAAHXZ 0000000180072f00 f i libucrtd:output.obj
 0001:000722c0       ?process@?$output_processor@_WV?$stream_output_adapter@_W@__crt_stdio_output@@V?$format_validation_base@_WV?$stream_output_adapter@_W@__crt_stdio_output@@@2@@__crt_stdio_output@@QEAAHXZ 00000001800732c0 f i libucrtd:output.obj
 0001:00072680       ?process@?$output_processor@_WV?$stream_output_adapter@_W@__crt_stdio_output@@V?$positional_parameter_base@_WV?$stream_output_adapter@_W@__crt_stdio_output@@@2@@__crt_stdio_output@@QEAAHXZ 0000000180073680 f i libucrtd:output.obj
 0001:00072a40       ?process@?$output_processor@_WV?$stream_output_adapter@_W@__crt_stdio_output@@V?$standard_base@_WV?$stream_output_adapter@_W@__crt_stdio_output@@@2@@__crt_stdio_output@@QEAAHXZ 0000000180073a40 f i libucrtd:output.obj
 0001:00072e00       ?process@?$output_processor@_WV?$string_output_adapter@_W@__crt_stdio_output@@V?$format_validation_base@_WV?$string_output_adapter@_W@__crt_stdio_output@@@2@@__crt_stdio_output@@QEAAHXZ 0000000180073e00 f i libucrtd:output.obj
 0001:000731c0       ?process@?$output_processor@_WV?$string_output_adapter@_W@__crt_stdio_output@@V?$positional_parameter_base@_WV?$string_output_adapter@_W@__crt_stdio_output@@@2@@__crt_stdio_output@@QEAAHXZ 00000001800741c0 f i libucrtd:output.obj
 0001:00073580       ?process@?$output_processor@_WV?$string_output_adapter@_W@__crt_stdio_output@@V?$standard_base@_WV?$string_output_adapter@_W@__crt_stdio_output@@@2@@__crt_stdio_output@@QEAAHXZ 0000000180074580 f i libucrtd:output.obj
 0001:00073940       ?public_stream@__crt_stdio_stream@@QEBAPEAU_iobuf@@XZ 0000000180074940 f i libucrtd:output.obj
 0001:00073950       ?restore_state@?$c_string_character_source@D@__crt_strtox@@QEAA_NQEBD@Z 0000000180074950 f i libucrtd:output.obj
 0001:00073970       ?restore_state@?$c_string_character_source@_W@__crt_strtox@@QEAA_NQEB_W@Z 0000000180074970 f i libucrtd:output.obj
 0001:00073990       ?save_state@?$c_string_character_source@D@__crt_strtox@@QEBAPEBDXZ 0000000180074990 f i libucrtd:output.obj
 0001:000739a0       ?save_state@?$c_string_character_source@_W@__crt_strtox@@QEBAPEB_WXZ 00000001800749a0 f i libucrtd:output.obj
 0001:000739b0       ?set@?$cached@H@__crt_cached_ptd_host@@QEAAHH@Z 00000001800749b0 f i libucrtd:output.obj
 0001:000739e0       ?set_flag@?$output_processor@DV?$stream_output_adapter@D@__crt_stdio_output@@V?$format_validation_base@DV?$stream_output_adapter@D@__crt_stdio_output@@@2@@__crt_stdio_output@@AEAAXI@Z 00000001800749e0 f i libucrtd:output.obj
 0001:00073a00       ?set_flag@?$output_processor@DV?$stream_output_adapter@D@__crt_stdio_output@@V?$positional_parameter_base@DV?$stream_output_adapter@D@__crt_stdio_output@@@2@@__crt_stdio_output@@AEAAXI@Z 0000000180074a00 f i libucrtd:output.obj
 0001:00073a20       ?set_flag@?$output_processor@DV?$stream_output_adapter@D@__crt_stdio_output@@V?$standard_base@DV?$stream_output_adapter@D@__crt_stdio_output@@@2@@__crt_stdio_output@@AEAAXI@Z 0000000180074a20 f i libucrtd:output.obj
 0001:00073a40       ?set_flag@?$output_processor@DV?$string_output_adapter@D@__crt_stdio_output@@V?$format_validation_base@DV?$string_output_adapter@D@__crt_stdio_output@@@2@@__crt_stdio_output@@AEAAXI@Z 0000000180074a40 f i libucrtd:output.obj
 0001:00073a60       ?set_flag@?$output_processor@DV?$string_output_adapter@D@__crt_stdio_output@@V?$positional_parameter_base@DV?$string_output_adapter@D@__crt_stdio_output@@@2@@__crt_stdio_output@@AEAAXI@Z 0000000180074a60 f i libucrtd:output.obj
 0001:00073a80       ?set_flag@?$output_processor@DV?$string_output_adapter@D@__crt_stdio_output@@V?$standard_base@DV?$string_output_adapter@D@__crt_stdio_output@@@2@@__crt_stdio_output@@AEAAXI@Z 0000000180074a80 f i libucrtd:output.obj
 0001:00073aa0       ?set_flag@?$output_processor@_WV?$stream_output_adapter@_W@__crt_stdio_output@@V?$format_validation_base@_WV?$stream_output_adapter@_W@__crt_stdio_output@@@2@@__crt_stdio_output@@AEAAXI@Z 0000000180074aa0 f i libucrtd:output.obj
 0001:00073ac0       ?set_flag@?$output_processor@_WV?$stream_output_adapter@_W@__crt_stdio_output@@V?$positional_parameter_base@_WV?$stream_output_adapter@_W@__crt_stdio_output@@@2@@__crt_stdio_output@@AEAAXI@Z 0000000180074ac0 f i libucrtd:output.obj
 0001:00073ae0       ?set_flag@?$output_processor@_WV?$stream_output_adapter@_W@__crt_stdio_output@@V?$standard_base@_WV?$stream_output_adapter@_W@__crt_stdio_output@@@2@@__crt_stdio_output@@AEAAXI@Z 0000000180074ae0 f i libucrtd:output.obj
 0001:00073b00       ?set_flag@?$output_processor@_WV?$string_output_adapter@_W@__crt_stdio_output@@V?$format_validation_base@_WV?$string_output_adapter@_W@__crt_stdio_output@@@2@@__crt_stdio_output@@AEAAXI@Z 0000000180074b00 f i libucrtd:output.obj
 0001:00073b20       ?set_flag@?$output_processor@_WV?$string_output_adapter@_W@__crt_stdio_output@@V?$positional_parameter_base@_WV?$string_output_adapter@_W@__crt_stdio_output@@@2@@__crt_stdio_output@@AEAAXI@Z 0000000180074b20 f i libucrtd:output.obj
 0001:00073b40       ?set_flag@?$output_processor@_WV?$string_output_adapter@_W@__crt_stdio_output@@V?$standard_base@_WV?$string_output_adapter@_W@__crt_stdio_output@@@2@@__crt_stdio_output@@AEAAXI@Z 0000000180074b40 f i libucrtd:output.obj
 0001:00073b60       ?should_format@?$positional_parameter_base@DV?$stream_output_adapter@D@__crt_stdio_output@@@__crt_stdio_output@@IEAA_NXZ 0000000180074b60 f i libucrtd:output.obj
 0001:00073ba0       ?should_format@?$positional_parameter_base@DV?$string_output_adapter@D@__crt_stdio_output@@@__crt_stdio_output@@IEAA_NXZ 0000000180074ba0 f i libucrtd:output.obj
 0001:00073be0       ?should_format@?$positional_parameter_base@_WV?$stream_output_adapter@_W@__crt_stdio_output@@@__crt_stdio_output@@IEAA_NXZ 0000000180074be0 f i libucrtd:output.obj
 0001:00073c20       ?should_format@?$positional_parameter_base@_WV?$string_output_adapter@_W@__crt_stdio_output@@@__crt_stdio_output@@IEAA_NXZ 0000000180074c20 f i libucrtd:output.obj
 0001:00073c60       ?should_format@?$standard_base@DV?$stream_output_adapter@D@__crt_stdio_output@@@__crt_stdio_output@@IEAA_NXZ 0000000180074c60 f i libucrtd:output.obj
 0001:00073c70       ?should_format@?$standard_base@DV?$string_output_adapter@D@__crt_stdio_output@@@__crt_stdio_output@@IEAA_NXZ 0000000180074c70 f i libucrtd:output.obj
 0001:00073c80       ?should_format@?$standard_base@_WV?$stream_output_adapter@_W@__crt_stdio_output@@@__crt_stdio_output@@IEAA_NXZ 0000000180074c80 f i libucrtd:output.obj
 0001:00073c90       ?should_format@?$standard_base@_WV?$string_output_adapter@_W@__crt_stdio_output@@@__crt_stdio_output@@IEAA_NXZ 0000000180074c90 f i libucrtd:output.obj
 0001:00073ca0       ?should_skip_normal_state_processing@?$positional_parameter_base@DV?$stream_output_adapter@D@__crt_stdio_output@@@__crt_stdio_output@@IEAA_NXZ 0000000180074ca0 f i libucrtd:output.obj
 0001:00073cf0       ?should_skip_normal_state_processing@?$positional_parameter_base@DV?$string_output_adapter@D@__crt_stdio_output@@@__crt_stdio_output@@IEAA_NXZ 0000000180074cf0 f i libucrtd:output.obj
 0001:00073d40       ?should_skip_normal_state_processing@?$positional_parameter_base@_WV?$stream_output_adapter@_W@__crt_stdio_output@@@__crt_stdio_output@@IEAA_NXZ 0000000180074d40 f i libucrtd:output.obj
 0001:00073d90       ?should_skip_normal_state_processing@?$positional_parameter_base@_WV?$string_output_adapter@_W@__crt_stdio_output@@@__crt_stdio_output@@IEAA_NXZ 0000000180074d90 f i libucrtd:output.obj
 0001:00073de0       ?should_skip_normal_state_processing@?$standard_base@DV?$stream_output_adapter@D@__crt_stdio_output@@@__crt_stdio_output@@IEAA_NXZ 0000000180074de0 f i libucrtd:output.obj
 0001:00073df0       ?should_skip_normal_state_processing@?$standard_base@DV?$string_output_adapter@D@__crt_stdio_output@@@__crt_stdio_output@@IEAA_NXZ 0000000180074df0 f i libucrtd:output.obj
 0001:00073e00       ?should_skip_normal_state_processing@?$standard_base@_WV?$stream_output_adapter@_W@__crt_stdio_output@@@__crt_stdio_output@@IEAA_NXZ 0000000180074e00 f i libucrtd:output.obj
 0001:00073e10       ?should_skip_normal_state_processing@?$standard_base@_WV?$string_output_adapter@_W@__crt_stdio_output@@@__crt_stdio_output@@IEAA_NXZ 0000000180074e10 f i libucrtd:output.obj
 0001:00073e20       ?should_skip_type_state_output@?$positional_parameter_base@DV?$stream_output_adapter@D@__crt_stdio_output@@@__crt_stdio_output@@IEBA_NXZ 0000000180074e20 f i libucrtd:output.obj
 0001:00073e60       ?should_skip_type_state_output@?$positional_parameter_base@DV?$string_output_adapter@D@__crt_stdio_output@@@__crt_stdio_output@@IEBA_NXZ 0000000180074e60 f i libucrtd:output.obj
 0001:00073ea0       ?should_skip_type_state_output@?$positional_parameter_base@_WV?$stream_output_adapter@_W@__crt_stdio_output@@@__crt_stdio_output@@IEBA_NXZ 0000000180074ea0 f i libucrtd:output.obj
 0001:00073ee0       ?should_skip_type_state_output@?$positional_parameter_base@_WV?$string_output_adapter@_W@__crt_stdio_output@@@__crt_stdio_output@@IEBA_NXZ 0000000180074ee0 f i libucrtd:output.obj
 0001:00073f20       ?should_skip_type_state_output@?$standard_base@DV?$stream_output_adapter@D@__crt_stdio_output@@@__crt_stdio_output@@IEBA_NXZ 0000000180074f20 f i libucrtd:output.obj
 0001:00073f30       ?should_skip_type_state_output@?$standard_base@DV?$string_output_adapter@D@__crt_stdio_output@@@__crt_stdio_output@@IEBA_NXZ 0000000180074f30 f i libucrtd:output.obj
 0001:00073f40       ?should_skip_type_state_output@?$standard_base@_WV?$stream_output_adapter@_W@__crt_stdio_output@@@__crt_stdio_output@@IEBA_NXZ 0000000180074f40 f i libucrtd:output.obj
 0001:00073f50       ?should_skip_type_state_output@?$standard_base@_WV?$string_output_adapter@_W@__crt_stdio_output@@@__crt_stdio_output@@IEBA_NXZ 0000000180074f50 f i libucrtd:output.obj
 0001:00073f60       ?state_case_dot@?$output_processor@DV?$stream_output_adapter@D@__crt_stdio_output@@V?$format_validation_base@DV?$stream_output_adapter@D@__crt_stdio_output@@@2@@__crt_stdio_output@@AEAA_NXZ 0000000180074f60 f i libucrtd:output.obj
 0001:00073f80       ?state_case_dot@?$output_processor@DV?$stream_output_adapter@D@__crt_stdio_output@@V?$positional_parameter_base@DV?$stream_output_adapter@D@__crt_stdio_output@@@2@@__crt_stdio_output@@AEAA_NXZ 0000000180074f80 f i libucrtd:output.obj
 0001:00073fa0       ?state_case_dot@?$output_processor@DV?$stream_output_adapter@D@__crt_stdio_output@@V?$standard_base@DV?$stream_output_adapter@D@__crt_stdio_output@@@2@@__crt_stdio_output@@AEAA_NXZ 0000000180074fa0 f i libucrtd:output.obj
 0001:00073fc0       ?state_case_dot@?$output_processor@DV?$string_output_adapter@D@__crt_stdio_output@@V?$format_validation_base@DV?$string_output_adapter@D@__crt_stdio_output@@@2@@__crt_stdio_output@@AEAA_NXZ 0000000180074fc0 f i libucrtd:output.obj
 0001:00073fe0       ?state_case_dot@?$output_processor@DV?$string_output_adapter@D@__crt_stdio_output@@V?$positional_parameter_base@DV?$string_output_adapter@D@__crt_stdio_output@@@2@@__crt_stdio_output@@AEAA_NXZ 0000000180074fe0 f i libucrtd:output.obj
 0001:00074000       ?state_case_dot@?$output_processor@DV?$string_output_adapter@D@__crt_stdio_output@@V?$standard_base@DV?$string_output_adapter@D@__crt_stdio_output@@@2@@__crt_stdio_output@@AEAA_NXZ 0000000180075000 f i libucrtd:output.obj
 0001:00074020       ?state_case_dot@?$output_processor@_WV?$stream_output_adapter@_W@__crt_stdio_output@@V?$format_validation_base@_WV?$stream_output_adapter@_W@__crt_stdio_output@@@2@@__crt_stdio_output@@AEAA_NXZ 0000000180075020 f i libucrtd:output.obj
 0001:00074040       ?state_case_dot@?$output_processor@_WV?$stream_output_adapter@_W@__crt_stdio_output@@V?$positional_parameter_base@_WV?$stream_output_adapter@_W@__crt_stdio_output@@@2@@__crt_stdio_output@@AEAA_NXZ 0000000180075040 f i libucrtd:output.obj
 0001:00074060       ?state_case_dot@?$output_processor@_WV?$stream_output_adapter@_W@__crt_stdio_output@@V?$standard_base@_WV?$stream_output_adapter@_W@__crt_stdio_output@@@2@@__crt_stdio_output@@AEAA_NXZ 0000000180075060 f i libucrtd:output.obj
 0001:00074080       ?state_case_dot@?$output_processor@_WV?$string_output_adapter@_W@__crt_stdio_output@@V?$format_validation_base@_WV?$string_output_adapter@_W@__crt_stdio_output@@@2@@__crt_stdio_output@@AEAA_NXZ 0000000180075080 f i libucrtd:output.obj
 0001:000740a0       ?state_case_dot@?$output_processor@_WV?$string_output_adapter@_W@__crt_stdio_output@@V?$positional_parameter_base@_WV?$string_output_adapter@_W@__crt_stdio_output@@@2@@__crt_stdio_output@@AEAA_NXZ 00000001800750a0 f i libucrtd:output.obj
 0001:000740c0       ?state_case_dot@?$output_processor@_WV?$string_output_adapter@_W@__crt_stdio_output@@V?$standard_base@_WV?$string_output_adapter@_W@__crt_stdio_output@@@2@@__crt_stdio_output@@AEAA_NXZ 00000001800750c0 f i libucrtd:output.obj
 0001:000740e0       ?state_case_flag@?$output_processor@DV?$stream_output_adapter@D@__crt_stdio_output@@V?$format_validation_base@DV?$stream_output_adapter@D@__crt_stdio_output@@@2@@__crt_stdio_output@@AEAA_NXZ 00000001800750e0 f i libucrtd:output.obj
 0001:00074180       ?state_case_flag@?$output_processor@DV?$stream_output_adapter@D@__crt_stdio_output@@V?$positional_parameter_base@DV?$stream_output_adapter@D@__crt_stdio_output@@@2@@__crt_stdio_output@@AEAA_NXZ 0000000180075180 f i libucrtd:output.obj
 0001:00074220       ?state_case_flag@?$output_processor@DV?$stream_output_adapter@D@__crt_stdio_output@@V?$standard_base@DV?$stream_output_adapter@D@__crt_stdio_output@@@2@@__crt_stdio_output@@AEAA_NXZ 0000000180075220 f i libucrtd:output.obj
 0001:000742c0       ?state_case_flag@?$output_processor@DV?$string_output_adapter@D@__crt_stdio_output@@V?$format_validation_base@DV?$string_output_adapter@D@__crt_stdio_output@@@2@@__crt_stdio_output@@AEAA_NXZ 00000001800752c0 f i libucrtd:output.obj
 0001:00074360       ?state_case_flag@?$output_processor@DV?$string_output_adapter@D@__crt_stdio_output@@V?$positional_parameter_base@DV?$string_output_adapter@D@__crt_stdio_output@@@2@@__crt_stdio_output@@AEAA_NXZ 0000000180075360 f i libucrtd:output.obj
 0001:00074400       ?state_case_flag@?$output_processor@DV?$string_output_adapter@D@__crt_stdio_output@@V?$standard_base@DV?$string_output_adapter@D@__crt_stdio_output@@@2@@__crt_stdio_output@@AEAA_NXZ 0000000180075400 f i libucrtd:output.obj
 0001:000744a0       ?state_case_flag@?$output_processor@_WV?$stream_output_adapter@_W@__crt_stdio_output@@V?$format_validation_base@_WV?$stream_output_adapter@_W@__crt_stdio_output@@@2@@__crt_stdio_output@@AEAA_NXZ 00000001800754a0 f i libucrtd:output.obj
 0001:00074540       ?state_case_flag@?$output_processor@_WV?$stream_output_adapter@_W@__crt_stdio_output@@V?$positional_parameter_base@_WV?$stream_output_adapter@_W@__crt_stdio_output@@@2@@__crt_stdio_output@@AEAA_NXZ 0000000180075540 f i libucrtd:output.obj
 0001:000745e0       ?state_case_flag@?$output_processor@_WV?$stream_output_adapter@_W@__crt_stdio_output@@V?$standard_base@_WV?$stream_output_adapter@_W@__crt_stdio_output@@@2@@__crt_stdio_output@@AEAA_NXZ 00000001800755e0 f i libucrtd:output.obj
 0001:00074680       ?state_case_flag@?$output_processor@_WV?$string_output_adapter@_W@__crt_stdio_output@@V?$format_validation_base@_WV?$string_output_adapter@_W@__crt_stdio_output@@@2@@__crt_stdio_output@@AEAA_NXZ 0000000180075680 f i libucrtd:output.obj
 0001:00074720       ?state_case_flag@?$output_processor@_WV?$string_output_adapter@_W@__crt_stdio_output@@V?$positional_parameter_base@_WV?$string_output_adapter@_W@__crt_stdio_output@@@2@@__crt_stdio_output@@AEAA_NXZ 0000000180075720 f i libucrtd:output.obj
 0001:000747c0       ?state_case_flag@?$output_processor@_WV?$string_output_adapter@_W@__crt_stdio_output@@V?$standard_base@_WV?$string_output_adapter@_W@__crt_stdio_output@@@2@@__crt_stdio_output@@AEAA_NXZ 00000001800757c0 f i libucrtd:output.obj
 0001:00074860       ?state_case_normal@?$output_processor@DV?$stream_output_adapter@D@__crt_stdio_output@@V?$format_validation_base@DV?$stream_output_adapter@D@__crt_stdio_output@@@2@@__crt_stdio_output@@AEAA_NXZ 0000000180075860 f i libucrtd:output.obj
 0001:00074960       ?state_case_normal@?$output_processor@DV?$stream_output_adapter@D@__crt_stdio_output@@V?$positional_parameter_base@DV?$stream_output_adapter@D@__crt_stdio_output@@@2@@__crt_stdio_output@@AEAA_NXZ 0000000180075960 f i libucrtd:output.obj
 0001:00074a60       ?state_case_normal@?$output_processor@DV?$stream_output_adapter@D@__crt_stdio_output@@V?$standard_base@DV?$stream_output_adapter@D@__crt_stdio_output@@@2@@__crt_stdio_output@@AEAA_NXZ 0000000180075a60 f i libucrtd:output.obj
 0001:00074b60       ?state_case_normal@?$output_processor@DV?$string_output_adapter@D@__crt_stdio_output@@V?$format_validation_base@DV?$string_output_adapter@D@__crt_stdio_output@@@2@@__crt_stdio_output@@AEAA_NXZ 0000000180075b60 f i libucrtd:output.obj
 0001:00074c60       ?state_case_normal@?$output_processor@DV?$string_output_adapter@D@__crt_stdio_output@@V?$positional_parameter_base@DV?$string_output_adapter@D@__crt_stdio_output@@@2@@__crt_stdio_output@@AEAA_NXZ 0000000180075c60 f i libucrtd:output.obj
 0001:00074d60       ?state_case_normal@?$output_processor@DV?$string_output_adapter@D@__crt_stdio_output@@V?$standard_base@DV?$string_output_adapter@D@__crt_stdio_output@@@2@@__crt_stdio_output@@AEAA_NXZ 0000000180075d60 f i libucrtd:output.obj
 0001:00074e60       ?state_case_normal@?$output_processor@_WV?$stream_output_adapter@_W@__crt_stdio_output@@V?$format_validation_base@_WV?$stream_output_adapter@_W@__crt_stdio_output@@@2@@__crt_stdio_output@@AEAA_NXZ 0000000180075e60 f i libucrtd:output.obj
 0001:00074f60       ?state_case_normal@?$output_processor@_WV?$stream_output_adapter@_W@__crt_stdio_output@@V?$positional_parameter_base@_WV?$stream_output_adapter@_W@__crt_stdio_output@@@2@@__crt_stdio_output@@AEAA_NXZ 0000000180075f60 f i libucrtd:output.obj
 0001:00075060       ?state_case_normal@?$output_processor@_WV?$stream_output_adapter@_W@__crt_stdio_output@@V?$standard_base@_WV?$stream_output_adapter@_W@__crt_stdio_output@@@2@@__crt_stdio_output@@AEAA_NXZ 0000000180076060 f i libucrtd:output.obj
 0001:00075160       ?state_case_normal@?$output_processor@_WV?$string_output_adapter@_W@__crt_stdio_output@@V?$format_validation_base@_WV?$string_output_adapter@_W@__crt_stdio_output@@@2@@__crt_stdio_output@@AEAA_NXZ 0000000180076160 f i libucrtd:output.obj
 0001:00075260       ?state_case_normal@?$output_processor@_WV?$string_output_adapter@_W@__crt_stdio_output@@V?$positional_parameter_base@_WV?$string_output_adapter@_W@__crt_stdio_output@@@2@@__crt_stdio_output@@AEAA_NXZ 0000000180076260 f i libucrtd:output.obj
 0001:00075360       ?state_case_normal@?$output_processor@_WV?$string_output_adapter@_W@__crt_stdio_output@@V?$standard_base@_WV?$string_output_adapter@_W@__crt_stdio_output@@@2@@__crt_stdio_output@@AEAA_NXZ 0000000180076360 f i libucrtd:output.obj
 0001:00075460       ?state_case_normal_common@?$output_processor@DV?$stream_output_adapter@D@__crt_stdio_output@@V?$format_validation_base@DV?$stream_output_adapter@D@__crt_stdio_output@@@2@@__crt_stdio_output@@AEAA_NXZ 0000000180076460 f i libucrtd:output.obj
 0001:000754c0       ?state_case_normal_common@?$output_processor@DV?$stream_output_adapter@D@__crt_stdio_output@@V?$positional_parameter_base@DV?$stream_output_adapter@D@__crt_stdio_output@@@2@@__crt_stdio_output@@AEAA_NXZ 00000001800764c0 f i libucrtd:output.obj
 0001:00075520       ?state_case_normal_common@?$output_processor@DV?$stream_output_adapter@D@__crt_stdio_output@@V?$standard_base@DV?$stream_output_adapter@D@__crt_stdio_output@@@2@@__crt_stdio_output@@AEAA_NXZ 0000000180076520 f i libucrtd:output.obj
 0001:00075580       ?state_case_normal_common@?$output_processor@DV?$string_output_adapter@D@__crt_stdio_output@@V?$format_validation_base@DV?$string_output_adapter@D@__crt_stdio_output@@@2@@__crt_stdio_output@@AEAA_NXZ 0000000180076580 f i libucrtd:output.obj
 0001:000755e0       ?state_case_normal_common@?$output_processor@DV?$string_output_adapter@D@__crt_stdio_output@@V?$positional_parameter_base@DV?$string_output_adapter@D@__crt_stdio_output@@@2@@__crt_stdio_output@@AEAA_NXZ 00000001800765e0 f i libucrtd:output.obj
 0001:00075640       ?state_case_normal_common@?$output_processor@DV?$string_output_adapter@D@__crt_stdio_output@@V?$standard_base@DV?$string_output_adapter@D@__crt_stdio_output@@@2@@__crt_stdio_output@@AEAA_NXZ 0000000180076640 f i libucrtd:output.obj
 0001:000756a0       ?state_case_normal_common@?$output_processor@_WV?$stream_output_adapter@_W@__crt_stdio_output@@V?$format_validation_base@_WV?$stream_output_adapter@_W@__crt_stdio_output@@@2@@__crt_stdio_output@@AEAA_NXZ 00000001800766a0 f i libucrtd:output.obj
 0001:00075700       ?state_case_normal_common@?$output_processor@_WV?$stream_output_adapter@_W@__crt_stdio_output@@V?$positional_parameter_base@_WV?$stream_output_adapter@_W@__crt_stdio_output@@@2@@__crt_stdio_output@@AEAA_NXZ 0000000180076700 f i libucrtd:output.obj
 0001:00075760       ?state_case_normal_common@?$output_processor@_WV?$stream_output_adapter@_W@__crt_stdio_output@@V?$standard_base@_WV?$stream_output_adapter@_W@__crt_stdio_output@@@2@@__crt_stdio_output@@AEAA_NXZ 0000000180076760 f i libucrtd:output.obj
 0001:000757c0       ?state_case_normal_common@?$output_processor@_WV?$string_output_adapter@_W@__crt_stdio_output@@V?$format_validation_base@_WV?$string_output_adapter@_W@__crt_stdio_output@@@2@@__crt_stdio_output@@AEAA_NXZ 00000001800767c0 f i libucrtd:output.obj
 0001:00075820       ?state_case_normal_common@?$output_processor@_WV?$string_output_adapter@_W@__crt_stdio_output@@V?$positional_parameter_base@_WV?$string_output_adapter@_W@__crt_stdio_output@@@2@@__crt_stdio_output@@AEAA_NXZ 0000000180076820 f i libucrtd:output.obj
 0001:00075880       ?state_case_normal_common@?$output_processor@_WV?$string_output_adapter@_W@__crt_stdio_output@@V?$standard_base@_WV?$string_output_adapter@_W@__crt_stdio_output@@@2@@__crt_stdio_output@@AEAA_NXZ 0000000180076880 f i libucrtd:output.obj
 0001:000758e0       ?state_case_normal_tchar@?$output_processor@DV?$stream_output_adapter@D@__crt_stdio_output@@V?$format_validation_base@DV?$stream_output_adapter@D@__crt_stdio_output@@@2@@__crt_stdio_output@@AEAA_ND@Z 00000001800768e0 f i libucrtd:output.obj
 0001:00075a70       ?state_case_normal_tchar@?$output_processor@DV?$stream_output_adapter@D@__crt_stdio_output@@V?$positional_parameter_base@DV?$stream_output_adapter@D@__crt_stdio_output@@@2@@__crt_stdio_output@@AEAA_ND@Z 0000000180076a70 f i libucrtd:output.obj
 0001:00075c00       ?state_case_normal_tchar@?$output_processor@DV?$stream_output_adapter@D@__crt_stdio_output@@V?$standard_base@DV?$stream_output_adapter@D@__crt_stdio_output@@@2@@__crt_stdio_output@@AEAA_ND@Z 0000000180076c00 f i libucrtd:output.obj
 0001:00075d90       ?state_case_normal_tchar@?$output_processor@DV?$string_output_adapter@D@__crt_stdio_output@@V?$format_validation_base@DV?$string_output_adapter@D@__crt_stdio_output@@@2@@__crt_stdio_output@@AEAA_ND@Z 0000000180076d90 f i libucrtd:output.obj
 0001:00075f20       ?state_case_normal_tchar@?$output_processor@DV?$string_output_adapter@D@__crt_stdio_output@@V?$positional_parameter_base@DV?$string_output_adapter@D@__crt_stdio_output@@@2@@__crt_stdio_output@@AEAA_ND@Z 0000000180076f20 f i libucrtd:output.obj
 0001:000760b0       ?state_case_normal_tchar@?$output_processor@DV?$string_output_adapter@D@__crt_stdio_output@@V?$standard_base@DV?$string_output_adapter@D@__crt_stdio_output@@@2@@__crt_stdio_output@@AEAA_ND@Z 00000001800770b0 f i libucrtd:output.obj
 0001:00076240       ?state_case_normal_tchar@?$output_processor@_WV?$stream_output_adapter@_W@__crt_stdio_output@@V?$format_validation_base@_WV?$stream_output_adapter@_W@__crt_stdio_output@@@2@@__crt_stdio_output@@AEAA_N_W@Z 0000000180077240 f i libucrtd:output.obj
 0001:00076260       ?state_case_normal_tchar@?$output_processor@_WV?$stream_output_adapter@_W@__crt_stdio_output@@V?$positional_parameter_base@_WV?$stream_output_adapter@_W@__crt_stdio_output@@@2@@__crt_stdio_output@@AEAA_N_W@Z 0000000180077260 f i libucrtd:output.obj
 0001:00076280       ?state_case_normal_tchar@?$output_processor@_WV?$stream_output_adapter@_W@__crt_stdio_output@@V?$standard_base@_WV?$stream_output_adapter@_W@__crt_stdio_output@@@2@@__crt_stdio_output@@AEAA_N_W@Z 0000000180077280 f i libucrtd:output.obj
 0001:000762a0       ?state_case_normal_tchar@?$output_processor@_WV?$string_output_adapter@_W@__crt_stdio_output@@V?$format_validation_base@_WV?$string_output_adapter@_W@__crt_stdio_output@@@2@@__crt_stdio_output@@AEAA_N_W@Z 00000001800772a0 f i libucrtd:output.obj
 0001:000762c0       ?state_case_normal_tchar@?$output_processor@_WV?$string_output_adapter@_W@__crt_stdio_output@@V?$positional_parameter_base@_WV?$string_output_adapter@_W@__crt_stdio_output@@@2@@__crt_stdio_output@@AEAA_N_W@Z 00000001800772c0 f i libucrtd:output.obj
 0001:000762e0       ?state_case_normal_tchar@?$output_processor@_WV?$string_output_adapter@_W@__crt_stdio_output@@V?$standard_base@_WV?$string_output_adapter@_W@__crt_stdio_output@@@2@@__crt_stdio_output@@AEAA_N_W@Z 00000001800772e0 f i libucrtd:output.obj
 0001:00076300       ?state_case_percent@?$output_processor@DV?$stream_output_adapter@D@__crt_stdio_output@@V?$format_validation_base@DV?$stream_output_adapter@D@__crt_stdio_output@@@2@@__crt_stdio_output@@AEAA_NXZ 0000000180077300 f i libucrtd:output.obj
 0001:00076350       ?state_case_percent@?$output_processor@DV?$stream_output_adapter@D@__crt_stdio_output@@V?$positional_parameter_base@DV?$stream_output_adapter@D@__crt_stdio_output@@@2@@__crt_stdio_output@@AEAA_NXZ 0000000180077350 f i libucrtd:output.obj
 0001:000763a0       ?state_case_percent@?$output_processor@DV?$stream_output_adapter@D@__crt_stdio_output@@V?$standard_base@DV?$stream_output_adapter@D@__crt_stdio_output@@@2@@__crt_stdio_output@@AEAA_NXZ 00000001800773a0 f i libucrtd:output.obj
 0001:000763f0       ?state_case_percent@?$output_processor@DV?$string_output_adapter@D@__crt_stdio_output@@V?$format_validation_base@DV?$string_output_adapter@D@__crt_stdio_output@@@2@@__crt_stdio_output@@AEAA_NXZ 00000001800773f0 f i libucrtd:output.obj
 0001:00076440       ?state_case_percent@?$output_processor@DV?$string_output_adapter@D@__crt_stdio_output@@V?$positional_parameter_base@DV?$string_output_adapter@D@__crt_stdio_output@@@2@@__crt_stdio_output@@AEAA_NXZ 0000000180077440 f i libucrtd:output.obj
 0001:00076490       ?state_case_percent@?$output_processor@DV?$string_output_adapter@D@__crt_stdio_output@@V?$standard_base@DV?$string_output_adapter@D@__crt_stdio_output@@@2@@__crt_stdio_output@@AEAA_NXZ 0000000180077490 f i libucrtd:output.obj
 0001:000764e0       ?state_case_percent@?$output_processor@_WV?$stream_output_adapter@_W@__crt_stdio_output@@V?$format_validation_base@_WV?$stream_output_adapter@_W@__crt_stdio_output@@@2@@__crt_stdio_output@@AEAA_NXZ 00000001800774e0 f i libucrtd:output.obj
 0001:00076530       ?state_case_percent@?$output_processor@_WV?$stream_output_adapter@_W@__crt_stdio_output@@V?$positional_parameter_base@_WV?$stream_output_adapter@_W@__crt_stdio_output@@@2@@__crt_stdio_output@@AEAA_NXZ 0000000180077530 f i libucrtd:output.obj
 0001:00076580       ?state_case_percent@?$output_processor@_WV?$stream_output_adapter@_W@__crt_stdio_output@@V?$standard_base@_WV?$stream_output_adapter@_W@__crt_stdio_output@@@2@@__crt_stdio_output@@AEAA_NXZ 0000000180077580 f i libucrtd:output.obj
 0001:000765d0       ?state_case_percent@?$output_processor@_WV?$string_output_adapter@_W@__crt_stdio_output@@V?$format_validation_base@_WV?$string_output_adapter@_W@__crt_stdio_output@@@2@@__crt_stdio_output@@AEAA_NXZ 00000001800775d0 f i libucrtd:output.obj
 0001:00076620       ?state_case_percent@?$output_processor@_WV?$string_output_adapter@_W@__crt_stdio_output@@V?$positional_parameter_base@_WV?$string_output_adapter@_W@__crt_stdio_output@@@2@@__crt_stdio_output@@AEAA_NXZ 0000000180077620 f i libucrtd:output.obj
 0001:00076670       ?state_case_percent@?$output_processor@_WV?$string_output_adapter@_W@__crt_stdio_output@@V?$standard_base@_WV?$string_output_adapter@_W@__crt_stdio_output@@@2@@__crt_stdio_output@@AEAA_NXZ 0000000180077670 f i libucrtd:output.obj
 0001:000766c0       ?state_case_precision@?$output_processor@DV?$stream_output_adapter@D@__crt_stdio_output@@V?$format_validation_base@DV?$stream_output_adapter@D@__crt_stdio_output@@@2@@__crt_stdio_output@@AEAA_NXZ 00000001800776c0 f i libucrtd:output.obj
 0001:00076740       ?state_case_precision@?$output_processor@DV?$stream_output_adapter@D@__crt_stdio_output@@V?$positional_parameter_base@DV?$stream_output_adapter@D@__crt_stdio_output@@@2@@__crt_stdio_output@@AEAA_NXZ 0000000180077740 f i libucrtd:output.obj
 0001:000767c0       ?state_case_precision@?$output_processor@DV?$stream_output_adapter@D@__crt_stdio_output@@V?$standard_base@DV?$stream_output_adapter@D@__crt_stdio_output@@@2@@__crt_stdio_output@@AEAA_NXZ 00000001800777c0 f i libucrtd:output.obj
 0001:00076840       ?state_case_precision@?$output_processor@DV?$string_output_adapter@D@__crt_stdio_output@@V?$format_validation_base@DV?$string_output_adapter@D@__crt_stdio_output@@@2@@__crt_stdio_output@@AEAA_NXZ 0000000180077840 f i libucrtd:output.obj
 0001:000768c0       ?state_case_precision@?$output_processor@DV?$string_output_adapter@D@__crt_stdio_output@@V?$positional_parameter_base@DV?$string_output_adapter@D@__crt_stdio_output@@@2@@__crt_stdio_output@@AEAA_NXZ 00000001800778c0 f i libucrtd:output.obj
 0001:00076940       ?state_case_precision@?$output_processor@DV?$string_output_adapter@D@__crt_stdio_output@@V?$standard_base@DV?$string_output_adapter@D@__crt_stdio_output@@@2@@__crt_stdio_output@@AEAA_NXZ 0000000180077940 f i libucrtd:output.obj
 0001:000769c0       ?state_case_precision@?$output_processor@_WV?$stream_output_adapter@_W@__crt_stdio_output@@V?$format_validation_base@_WV?$stream_output_adapter@_W@__crt_stdio_output@@@2@@__crt_stdio_output@@AEAA_NXZ 00000001800779c0 f i libucrtd:output.obj
 0001:00076a40       ?state_case_precision@?$output_processor@_WV?$stream_output_adapter@_W@__crt_stdio_output@@V?$positional_parameter_base@_WV?$stream_output_adapter@_W@__crt_stdio_output@@@2@@__crt_stdio_output@@AEAA_NXZ 0000000180077a40 f i libucrtd:output.obj
 0001:00076ac0       ?state_case_precision@?$output_processor@_WV?$stream_output_adapter@_W@__crt_stdio_output@@V?$standard_base@_WV?$stream_output_adapter@_W@__crt_stdio_output@@@2@@__crt_stdio_output@@AEAA_NXZ 0000000180077ac0 f i libucrtd:output.obj
 0001:00076b40       ?state_case_precision@?$output_processor@_WV?$string_output_adapter@_W@__crt_stdio_output@@V?$format_validation_base@_WV?$string_output_adapter@_W@__crt_stdio_output@@@2@@__crt_stdio_output@@AEAA_NXZ 0000000180077b40 f i libucrtd:output.obj
 0001:00076bc0       ?state_case_precision@?$output_processor@_WV?$string_output_adapter@_W@__crt_stdio_output@@V?$positional_parameter_base@_WV?$string_output_adapter@_W@__crt_stdio_output@@@2@@__crt_stdio_output@@AEAA_NXZ 0000000180077bc0 f i libucrtd:output.obj
 0001:00076c40       ?state_case_precision@?$output_processor@_WV?$string_output_adapter@_W@__crt_stdio_output@@V?$standard_base@_WV?$string_output_adapter@_W@__crt_stdio_output@@@2@@__crt_stdio_output@@AEAA_NXZ 0000000180077c40 f i libucrtd:output.obj
 0001:00076cc0       ?state_case_size@?$output_processor@DV?$stream_output_adapter@D@__crt_stdio_output@@V?$format_validation_base@DV?$stream_output_adapter@D@__crt_stdio_output@@@2@@__crt_stdio_output@@AEAA_NXZ 0000000180077cc0 f i libucrtd:output.obj
 0001:00077180       ?state_case_size@?$output_processor@DV?$stream_output_adapter@D@__crt_stdio_output@@V?$positional_parameter_base@DV?$stream_output_adapter@D@__crt_stdio_output@@@2@@__crt_stdio_output@@AEAA_NXZ 0000000180078180 f i libucrtd:output.obj
 0001:00077640       ?state_case_size@?$output_processor@DV?$stream_output_adapter@D@__crt_stdio_output@@V?$standard_base@DV?$stream_output_adapter@D@__crt_stdio_output@@@2@@__crt_stdio_output@@AEAA_NXZ 0000000180078640 f i libucrtd:output.obj
 0001:00077b00       ?state_case_size@?$output_processor@DV?$string_output_adapter@D@__crt_stdio_output@@V?$format_validation_base@DV?$string_output_adapter@D@__crt_stdio_output@@@2@@__crt_stdio_output@@AEAA_NXZ 0000000180078b00 f i libucrtd:output.obj
 0001:00077fc0       ?state_case_size@?$output_processor@DV?$string_output_adapter@D@__crt_stdio_output@@V?$positional_parameter_base@DV?$string_output_adapter@D@__crt_stdio_output@@@2@@__crt_stdio_output@@AEAA_NXZ 0000000180078fc0 f i libucrtd:output.obj
 0001:00078480       ?state_case_size@?$output_processor@DV?$string_output_adapter@D@__crt_stdio_output@@V?$standard_base@DV?$string_output_adapter@D@__crt_stdio_output@@@2@@__crt_stdio_output@@AEAA_NXZ 0000000180079480 f i libucrtd:output.obj
 0001:00078940       ?state_case_size@?$output_processor@_WV?$stream_output_adapter@_W@__crt_stdio_output@@V?$format_validation_base@_WV?$stream_output_adapter@_W@__crt_stdio_output@@@2@@__crt_stdio_output@@AEAA_NXZ 0000000180079940 f i libucrtd:output.obj
 0001:00078e00       ?state_case_size@?$output_processor@_WV?$stream_output_adapter@_W@__crt_stdio_output@@V?$positional_parameter_base@_WV?$stream_output_adapter@_W@__crt_stdio_output@@@2@@__crt_stdio_output@@AEAA_NXZ 0000000180079e00 f i libucrtd:output.obj
 0001:000792c0       ?state_case_size@?$output_processor@_WV?$stream_output_adapter@_W@__crt_stdio_output@@V?$standard_base@_WV?$stream_output_adapter@_W@__crt_stdio_output@@@2@@__crt_stdio_output@@AEAA_NXZ 000000018007a2c0 f i libucrtd:output.obj
 0001:00079780       ?state_case_size@?$output_processor@_WV?$string_output_adapter@_W@__crt_stdio_output@@V?$format_validation_base@_WV?$string_output_adapter@_W@__crt_stdio_output@@@2@@__crt_stdio_output@@AEAA_NXZ 000000018007a780 f i libucrtd:output.obj
 0001:00079c40       ?state_case_size@?$output_processor@_WV?$string_output_adapter@_W@__crt_stdio_output@@V?$positional_parameter_base@_WV?$string_output_adapter@_W@__crt_stdio_output@@@2@@__crt_stdio_output@@AEAA_NXZ 000000018007ac40 f i libucrtd:output.obj
 0001:0007a100       ?state_case_size@?$output_processor@_WV?$string_output_adapter@_W@__crt_stdio_output@@V?$standard_base@_WV?$string_output_adapter@_W@__crt_stdio_output@@@2@@__crt_stdio_output@@AEAA_NXZ 000000018007b100 f i libucrtd:output.obj
 0001:0007a5c0       ?state_case_type@?$output_processor@DV?$stream_output_adapter@D@__crt_stdio_output@@V?$format_validation_base@DV?$stream_output_adapter@D@__crt_stdio_output@@@2@@__crt_stdio_output@@AEAA_NXZ 000000018007b5c0 f i libucrtd:output.obj
 0001:0007aa80       ?state_case_type@?$output_processor@DV?$stream_output_adapter@D@__crt_stdio_output@@V?$positional_parameter_base@DV?$stream_output_adapter@D@__crt_stdio_output@@@2@@__crt_stdio_output@@AEAA_NXZ 000000018007ba80 f i libucrtd:output.obj
 0001:0007af40       ?state_case_type@?$output_processor@DV?$stream_output_adapter@D@__crt_stdio_output@@V?$standard_base@DV?$stream_output_adapter@D@__crt_stdio_output@@@2@@__crt_stdio_output@@AEAA_NXZ 000000018007bf40 f i libucrtd:output.obj
 0001:0007b400       ?state_case_type@?$output_processor@DV?$string_output_adapter@D@__crt_stdio_output@@V?$format_validation_base@DV?$string_output_adapter@D@__crt_stdio_output@@@2@@__crt_stdio_output@@AEAA_NXZ 000000018007c400 f i libucrtd:output.obj
 0001:0007b8c0       ?state_case_type@?$output_processor@DV?$string_output_adapter@D@__crt_stdio_output@@V?$positional_parameter_base@DV?$string_output_adapter@D@__crt_stdio_output@@@2@@__crt_stdio_output@@AEAA_NXZ 000000018007c8c0 f i libucrtd:output.obj
 0001:0007bd80       ?state_case_type@?$output_processor@DV?$string_output_adapter@D@__crt_stdio_output@@V?$standard_base@DV?$string_output_adapter@D@__crt_stdio_output@@@2@@__crt_stdio_output@@AEAA_NXZ 000000018007cd80 f i libucrtd:output.obj
 0001:0007c240       ?state_case_type@?$output_processor@_WV?$stream_output_adapter@_W@__crt_stdio_output@@V?$format_validation_base@_WV?$stream_output_adapter@_W@__crt_stdio_output@@@2@@__crt_stdio_output@@AEAA_NXZ 000000018007d240 f i libucrtd:output.obj
 0001:0007c7d0       ?state_case_type@?$output_processor@_WV?$stream_output_adapter@_W@__crt_stdio_output@@V?$positional_parameter_base@_WV?$stream_output_adapter@_W@__crt_stdio_output@@@2@@__crt_stdio_output@@AEAA_NXZ 000000018007d7d0 f i libucrtd:output.obj
 0001:0007cd60       ?state_case_type@?$output_processor@_WV?$stream_output_adapter@_W@__crt_stdio_output@@V?$standard_base@_WV?$stream_output_adapter@_W@__crt_stdio_output@@@2@@__crt_stdio_output@@AEAA_NXZ 000000018007dd60 f i libucrtd:output.obj
 0001:0007d2f0       ?state_case_type@?$output_processor@_WV?$string_output_adapter@_W@__crt_stdio_output@@V?$format_validation_base@_WV?$string_output_adapter@_W@__crt_stdio_output@@@2@@__crt_stdio_output@@AEAA_NXZ 000000018007e2f0 f i libucrtd:output.obj
 0001:0007d880       ?state_case_type@?$output_processor@_WV?$string_output_adapter@_W@__crt_stdio_output@@V?$positional_parameter_base@_WV?$string_output_adapter@_W@__crt_stdio_output@@@2@@__crt_stdio_output@@AEAA_NXZ 000000018007e880 f i libucrtd:output.obj
 0001:0007de10       ?state_case_type@?$output_processor@_WV?$string_output_adapter@_W@__crt_stdio_output@@V?$standard_base@_WV?$string_output_adapter@_W@__crt_stdio_output@@@2@@__crt_stdio_output@@AEAA_NXZ 000000018007ee10 f i libucrtd:output.obj
 0001:0007e3a0       ?state_case_width@?$output_processor@DV?$stream_output_adapter@D@__crt_stdio_output@@V?$format_validation_base@DV?$stream_output_adapter@D@__crt_stdio_output@@@2@@__crt_stdio_output@@AEAA_NXZ 000000018007f3a0 f i libucrtd:output.obj
 0001:0007e430       ?state_case_width@?$output_processor@DV?$stream_output_adapter@D@__crt_stdio_output@@V?$positional_parameter_base@DV?$stream_output_adapter@D@__crt_stdio_output@@@2@@__crt_stdio_output@@AEAA_NXZ 000000018007f430 f i libucrtd:output.obj
 0001:0007e4c0       ?state_case_width@?$output_processor@DV?$stream_output_adapter@D@__crt_stdio_output@@V?$standard_base@DV?$stream_output_adapter@D@__crt_stdio_output@@@2@@__crt_stdio_output@@AEAA_NXZ 000000018007f4c0 f i libucrtd:output.obj
 0001:0007e550       ?state_case_width@?$output_processor@DV?$string_output_adapter@D@__crt_stdio_output@@V?$format_validation_base@DV?$string_output_adapter@D@__crt_stdio_output@@@2@@__crt_stdio_output@@AEAA_NXZ 000000018007f550 f i libucrtd:output.obj
 0001:0007e5e0       ?state_case_width@?$output_processor@DV?$string_output_adapter@D@__crt_stdio_output@@V?$positional_parameter_base@DV?$string_output_adapter@D@__crt_stdio_output@@@2@@__crt_stdio_output@@AEAA_NXZ 000000018007f5e0 f i libucrtd:output.obj
 0001:0007e670       ?state_case_width@?$output_processor@DV?$string_output_adapter@D@__crt_stdio_output@@V?$standard_base@DV?$string_output_adapter@D@__crt_stdio_output@@@2@@__crt_stdio_output@@AEAA_NXZ 000000018007f670 f i libucrtd:output.obj
 0001:0007e700       ?state_case_width@?$output_processor@_WV?$stream_output_adapter@_W@__crt_stdio_output@@V?$format_validation_base@_WV?$stream_output_adapter@_W@__crt_stdio_output@@@2@@__crt_stdio_output@@AEAA_NXZ 000000018007f700 f i libucrtd:output.obj
 0001:0007e790       ?state_case_width@?$output_processor@_WV?$stream_output_adapter@_W@__crt_stdio_output@@V?$positional_parameter_base@_WV?$stream_output_adapter@_W@__crt_stdio_output@@@2@@__crt_stdio_output@@AEAA_NXZ 000000018007f790 f i libucrtd:output.obj
 0001:0007e820       ?state_case_width@?$output_processor@_WV?$stream_output_adapter@_W@__crt_stdio_output@@V?$standard_base@_WV?$stream_output_adapter@_W@__crt_stdio_output@@@2@@__crt_stdio_output@@AEAA_NXZ 000000018007f820 f i libucrtd:output.obj
 0001:0007e8b0       ?state_case_width@?$output_processor@_WV?$string_output_adapter@_W@__crt_stdio_output@@V?$format_validation_base@_WV?$string_output_adapter@_W@__crt_stdio_output@@@2@@__crt_stdio_output@@AEAA_NXZ 000000018007f8b0 f i libucrtd:output.obj
 0001:0007e940       ?state_case_width@?$output_processor@_WV?$string_output_adapter@_W@__crt_stdio_output@@V?$positional_parameter_base@_WV?$string_output_adapter@_W@__crt_stdio_output@@@2@@__crt_stdio_output@@AEAA_NXZ 000000018007f940 f i libucrtd:output.obj
 0001:0007e9d0       ?state_case_width@?$output_processor@_WV?$string_output_adapter@_W@__crt_stdio_output@@V?$standard_base@_WV?$string_output_adapter@_W@__crt_stdio_output@@@2@@__crt_stdio_output@@AEAA_NXZ 000000018007f9d0 f i libucrtd:output.obj
 0001:0007ea60       ?state_count@?$format_validation_base@DV?$stream_output_adapter@D@__crt_stdio_output@@@__crt_stdio_output@@KAIXZ 000000018007fa60 f i libucrtd:output.obj
 0001:0007ea70       ?state_count@?$format_validation_base@DV?$string_output_adapter@D@__crt_stdio_output@@@__crt_stdio_output@@KAIXZ 000000018007fa70 f i libucrtd:output.obj
 0001:0007ea80       ?state_count@?$format_validation_base@_WV?$stream_output_adapter@_W@__crt_stdio_output@@@__crt_stdio_output@@KAIXZ 000000018007fa80 f i libucrtd:output.obj
 0001:0007ea90       ?state_count@?$format_validation_base@_WV?$string_output_adapter@_W@__crt_stdio_output@@@__crt_stdio_output@@KAIXZ 000000018007fa90 f i libucrtd:output.obj
 0001:0007eaa0       ?state_count@?$standard_base@DV?$stream_output_adapter@D@__crt_stdio_output@@@__crt_stdio_output@@KAIXZ 000000018007faa0 f i libucrtd:output.obj
 0001:0007eab0       ?state_count@?$standard_base@DV?$string_output_adapter@D@__crt_stdio_output@@@__crt_stdio_output@@KAIXZ 000000018007fab0 f i libucrtd:output.obj
 0001:0007eac0       ?state_count@?$standard_base@_WV?$stream_output_adapter@_W@__crt_stdio_output@@@__crt_stdio_output@@KAIXZ 000000018007fac0 f i libucrtd:output.obj
 0001:0007ead0       ?state_count@?$standard_base@_WV?$string_output_adapter@_W@__crt_stdio_output@@@__crt_stdio_output@@KAIXZ 000000018007fad0 f i libucrtd:output.obj
 0001:0007eae0       ?state_transition_table@?$format_validation_base@DV?$stream_output_adapter@D@__crt_stdio_output@@@__crt_stdio_output@@KAAEBV?$spectre_mitigated_lookup_table@Ustate_transition_pair@__crt_stdio_output@@$0IA@@2@XZ 000000018007fae0 f i libucrtd:output.obj
 0001:0007eaf0       ?state_transition_table@?$format_validation_base@DV?$string_output_adapter@D@__crt_stdio_output@@@__crt_stdio_output@@KAAEBV?$spectre_mitigated_lookup_table@Ustate_transition_pair@__crt_stdio_output@@$0IA@@2@XZ 000000018007faf0 f i libucrtd:output.obj
 0001:0007eb00       ?state_transition_table@?$format_validation_base@_WV?$stream_output_adapter@_W@__crt_stdio_output@@@__crt_stdio_output@@KAAEBV?$spectre_mitigated_lookup_table@Ustate_transition_pair@__crt_stdio_output@@$0IA@@2@XZ 000000018007fb00 f i libucrtd:output.obj
 0001:0007eb10       ?state_transition_table@?$format_validation_base@_WV?$string_output_adapter@_W@__crt_stdio_output@@@__crt_stdio_output@@KAAEBV?$spectre_mitigated_lookup_table@Ustate_transition_pair@__crt_stdio_output@@$0IA@@2@XZ 000000018007fb10 f i libucrtd:output.obj
 0001:0007eb20       ?state_transition_table@?$standard_base@DV?$stream_output_adapter@D@__crt_stdio_output@@@__crt_stdio_output@@KAAEBV?$spectre_mitigated_lookup_table@Ustate_transition_pair@__crt_stdio_output@@$0IA@@2@XZ 000000018007fb20 f i libucrtd:output.obj
 0001:0007eb30       ?state_transition_table@?$standard_base@DV?$string_output_adapter@D@__crt_stdio_output@@@__crt_stdio_output@@KAAEBV?$spectre_mitigated_lookup_table@Ustate_transition_pair@__crt_stdio_output@@$0IA@@2@XZ 000000018007fb30 f i libucrtd:output.obj
 0001:0007eb40       ?state_transition_table@?$standard_base@_WV?$stream_output_adapter@_W@__crt_stdio_output@@@__crt_stdio_output@@KAAEBV?$spectre_mitigated_lookup_table@Ustate_transition_pair@__crt_stdio_output@@$0IA@@2@XZ 000000018007fb40 f i libucrtd:output.obj
 0001:0007eb50       ?state_transition_table@?$standard_base@_WV?$string_output_adapter@_W@__crt_stdio_output@@@__crt_stdio_output@@KAAEBV?$spectre_mitigated_lookup_table@Ustate_transition_pair@__crt_stdio_output@@$0IA@@2@XZ 000000018007fb50 f i libucrtd:output.obj
 0001:0007eb60       ?tchar_string@?$common_data@D@__crt_stdio_output@@IEAAAEAPEADD@Z 000000018007fb60 f i libucrtd:output.obj
 0001:0007eb80       ?tchar_string@?$common_data@D@__crt_stdio_output@@IEAAAEAPEADXZ 000000018007fb80 f i libucrtd:output.obj
 0001:0007eba0       ?tchar_string@?$common_data@_W@__crt_stdio_output@@IEAAAEAPEA_WXZ 000000018007fba0 f i libucrtd:output.obj
 0001:0007ebc0       ?tchar_string@?$common_data@_W@__crt_stdio_output@@IEAAAEAPEA_W_W@Z 000000018007fbc0 f i libucrtd:output.obj
 0001:0007ebe0       ?to_integer_size@__crt_stdio_output@@YA_KW4length_modifier@1@@Z 000000018007fbe0 f i libucrtd:output.obj
 0001:0007ec90       ?type_case_X@?$output_processor@DV?$stream_output_adapter@D@__crt_stdio_output@@V?$format_validation_base@DV?$stream_output_adapter@D@__crt_stdio_output@@@2@@__crt_stdio_output@@AEAA_NXZ 000000018007fc90 f i libucrtd:output.obj
 0001:0007ecb0       ?type_case_X@?$output_processor@DV?$stream_output_adapter@D@__crt_stdio_output@@V?$positional_parameter_base@DV?$stream_output_adapter@D@__crt_stdio_output@@@2@@__crt_stdio_output@@AEAA_NXZ 000000018007fcb0 f i libucrtd:output.obj
 0001:0007ecd0       ?type_case_X@?$output_processor@DV?$stream_output_adapter@D@__crt_stdio_output@@V?$standard_base@DV?$stream_output_adapter@D@__crt_stdio_output@@@2@@__crt_stdio_output@@AEAA_NXZ 000000018007fcd0 f i libucrtd:output.obj
 0001:0007ecf0       ?type_case_X@?$output_processor@DV?$string_output_adapter@D@__crt_stdio_output@@V?$format_validation_base@DV?$string_output_adapter@D@__crt_stdio_output@@@2@@__crt_stdio_output@@AEAA_NXZ 000000018007fcf0 f i libucrtd:output.obj
 0001:0007ed10       ?type_case_X@?$output_processor@DV?$string_output_adapter@D@__crt_stdio_output@@V?$positional_parameter_base@DV?$string_output_adapter@D@__crt_stdio_output@@@2@@__crt_stdio_output@@AEAA_NXZ 000000018007fd10 f i libucrtd:output.obj
 0001:0007ed30       ?type_case_X@?$output_processor@DV?$string_output_adapter@D@__crt_stdio_output@@V?$standard_base@DV?$string_output_adapter@D@__crt_stdio_output@@@2@@__crt_stdio_output@@AEAA_NXZ 000000018007fd30 f i libucrtd:output.obj
 0001:0007ed50       ?type_case_X@?$output_processor@_WV?$stream_output_adapter@_W@__crt_stdio_output@@V?$format_validation_base@_WV?$stream_output_adapter@_W@__crt_stdio_output@@@2@@__crt_stdio_output@@AEAA_NXZ 000000018007fd50 f i libucrtd:output.obj
 0001:0007ed70       ?type_case_X@?$output_processor@_WV?$stream_output_adapter@_W@__crt_stdio_output@@V?$positional_parameter_base@_WV?$stream_output_adapter@_W@__crt_stdio_output@@@2@@__crt_stdio_output@@AEAA_NXZ 000000018007fd70 f i libucrtd:output.obj
 0001:0007ed90       ?type_case_X@?$output_processor@_WV?$stream_output_adapter@_W@__crt_stdio_output@@V?$standard_base@_WV?$stream_output_adapter@_W@__crt_stdio_output@@@2@@__crt_stdio_output@@AEAA_NXZ 000000018007fd90 f i libucrtd:output.obj
 0001:0007edb0       ?type_case_X@?$output_processor@_WV?$string_output_adapter@_W@__crt_stdio_output@@V?$format_validation_base@_WV?$string_output_adapter@_W@__crt_stdio_output@@@2@@__crt_stdio_output@@AEAA_NXZ 000000018007fdb0 f i libucrtd:output.obj
 0001:0007edd0       ?type_case_X@?$output_processor@_WV?$string_output_adapter@_W@__crt_stdio_output@@V?$positional_parameter_base@_WV?$string_output_adapter@_W@__crt_stdio_output@@@2@@__crt_stdio_output@@AEAA_NXZ 000000018007fdd0 f i libucrtd:output.obj
 0001:0007edf0       ?type_case_X@?$output_processor@_WV?$string_output_adapter@_W@__crt_stdio_output@@V?$standard_base@_WV?$string_output_adapter@_W@__crt_stdio_output@@@2@@__crt_stdio_output@@AEAA_NXZ 000000018007fdf0 f i libucrtd:output.obj
 0001:0007ee10       ?type_case_Z@?$output_processor@DV?$stream_output_adapter@D@__crt_stdio_output@@V?$format_validation_base@DV?$stream_output_adapter@D@__crt_stdio_output@@@2@@__crt_stdio_output@@AEAA_NXZ 000000018007fe10 f i libucrtd:output.obj
 0001:0007ef30       ?type_case_Z@?$output_processor@DV?$stream_output_adapter@D@__crt_stdio_output@@V?$positional_parameter_base@DV?$stream_output_adapter@D@__crt_stdio_output@@@2@@__crt_stdio_output@@AEAA_NXZ 000000018007ff30 f i libucrtd:output.obj
 0001:0007f050       ?type_case_Z@?$output_processor@DV?$stream_output_adapter@D@__crt_stdio_output@@V?$standard_base@DV?$stream_output_adapter@D@__crt_stdio_output@@@2@@__crt_stdio_output@@AEAA_NXZ 0000000180080050 f i libucrtd:output.obj
 0001:0007f170       ?type_case_Z@?$output_processor@DV?$string_output_adapter@D@__crt_stdio_output@@V?$format_validation_base@DV?$string_output_adapter@D@__crt_stdio_output@@@2@@__crt_stdio_output@@AEAA_NXZ 0000000180080170 f i libucrtd:output.obj
 0001:0007f290       ?type_case_Z@?$output_processor@DV?$string_output_adapter@D@__crt_stdio_output@@V?$positional_parameter_base@DV?$string_output_adapter@D@__crt_stdio_output@@@2@@__crt_stdio_output@@AEAA_NXZ 0000000180080290 f i libucrtd:output.obj
 0001:0007f3b0       ?type_case_Z@?$output_processor@DV?$string_output_adapter@D@__crt_stdio_output@@V?$standard_base@DV?$string_output_adapter@D@__crt_stdio_output@@@2@@__crt_stdio_output@@AEAA_NXZ 00000001800803b0 f i libucrtd:output.obj
 0001:0007f4d0       ?type_case_Z@?$output_processor@_WV?$stream_output_adapter@_W@__crt_stdio_output@@V?$format_validation_base@_WV?$stream_output_adapter@_W@__crt_stdio_output@@@2@@__crt_stdio_output@@AEAA_NXZ 00000001800804d0 f i libucrtd:output.obj
 0001:0007f5f0       ?type_case_Z@?$output_processor@_WV?$stream_output_adapter@_W@__crt_stdio_output@@V?$positional_parameter_base@_WV?$stream_output_adapter@_W@__crt_stdio_output@@@2@@__crt_stdio_output@@AEAA_NXZ 00000001800805f0 f i libucrtd:output.obj
 0001:0007f710       ?type_case_Z@?$output_processor@_WV?$stream_output_adapter@_W@__crt_stdio_output@@V?$standard_base@_WV?$stream_output_adapter@_W@__crt_stdio_output@@@2@@__crt_stdio_output@@AEAA_NXZ 0000000180080710 f i libucrtd:output.obj
 0001:0007f830       ?type_case_Z@?$output_processor@_WV?$string_output_adapter@_W@__crt_stdio_output@@V?$format_validation_base@_WV?$string_output_adapter@_W@__crt_stdio_output@@@2@@__crt_stdio_output@@AEAA_NXZ 0000000180080830 f i libucrtd:output.obj
 0001:0007f950       ?type_case_Z@?$output_processor@_WV?$string_output_adapter@_W@__crt_stdio_output@@V?$positional_parameter_base@_WV?$string_output_adapter@_W@__crt_stdio_output@@@2@@__crt_stdio_output@@AEAA_NXZ 0000000180080950 f i libucrtd:output.obj
 0001:0007fa70       ?type_case_Z@?$output_processor@_WV?$string_output_adapter@_W@__crt_stdio_output@@V?$standard_base@_WV?$string_output_adapter@_W@__crt_stdio_output@@@2@@__crt_stdio_output@@AEAA_NXZ 0000000180080a70 f i libucrtd:output.obj
 0001:0007fb90       ?type_case_a@?$output_processor@DV?$stream_output_adapter@D@__crt_stdio_output@@V?$format_validation_base@DV?$stream_output_adapter@D@__crt_stdio_output@@@2@@__crt_stdio_output@@AEAA_NXZ 0000000180080b90 f i libucrtd:output.obj
 0001:0007fff0       ?type_case_a@?$output_processor@DV?$stream_output_adapter@D@__crt_stdio_output@@V?$positional_parameter_base@DV?$stream_output_adapter@D@__crt_stdio_output@@@2@@__crt_stdio_output@@AEAA_NXZ 0000000180080ff0 f i libucrtd:output.obj
 0001:00080450       ?type_case_a@?$output_processor@DV?$stream_output_adapter@D@__crt_stdio_output@@V?$standard_base@DV?$stream_output_adapter@D@__crt_stdio_output@@@2@@__crt_stdio_output@@AEAA_NXZ 0000000180081450 f i libucrtd:output.obj
 0001:000808b0       ?type_case_a@?$output_processor@DV?$string_output_adapter@D@__crt_stdio_output@@V?$format_validation_base@DV?$string_output_adapter@D@__crt_stdio_output@@@2@@__crt_stdio_output@@AEAA_NXZ 00000001800818b0 f i libucrtd:output.obj
 0001:00080d10       ?type_case_a@?$output_processor@DV?$string_output_adapter@D@__crt_stdio_output@@V?$positional_parameter_base@DV?$string_output_adapter@D@__crt_stdio_output@@@2@@__crt_stdio_output@@AEAA_NXZ 0000000180081d10 f i libucrtd:output.obj
 0001:00081170       ?type_case_a@?$output_processor@DV?$string_output_adapter@D@__crt_stdio_output@@V?$standard_base@DV?$string_output_adapter@D@__crt_stdio_output@@@2@@__crt_stdio_output@@AEAA_NXZ 0000000180082170 f i libucrtd:output.obj
 0001:000815d0       ?type_case_a@?$output_processor@_WV?$stream_output_adapter@_W@__crt_stdio_output@@V?$format_validation_base@_WV?$stream_output_adapter@_W@__crt_stdio_output@@@2@@__crt_stdio_output@@AEAA_NXZ 00000001800825d0 f i libucrtd:output.obj
 0001:00081a40       ?type_case_a@?$output_processor@_WV?$stream_output_adapter@_W@__crt_stdio_output@@V?$positional_parameter_base@_WV?$stream_output_adapter@_W@__crt_stdio_output@@@2@@__crt_stdio_output@@AEAA_NXZ 0000000180082a40 f i libucrtd:output.obj
 0001:00081eb0       ?type_case_a@?$output_processor@_WV?$stream_output_adapter@_W@__crt_stdio_output@@V?$standard_base@_WV?$stream_output_adapter@_W@__crt_stdio_output@@@2@@__crt_stdio_output@@AEAA_NXZ 0000000180082eb0 f i libucrtd:output.obj
 0001:00082320       ?type_case_a@?$output_processor@_WV?$string_output_adapter@_W@__crt_stdio_output@@V?$format_validation_base@_WV?$string_output_adapter@_W@__crt_stdio_output@@@2@@__crt_stdio_output@@AEAA_NXZ 0000000180083320 f i libucrtd:output.obj
 0001:00082790       ?type_case_a@?$output_processor@_WV?$string_output_adapter@_W@__crt_stdio_output@@V?$positional_parameter_base@_WV?$string_output_adapter@_W@__crt_stdio_output@@@2@@__crt_stdio_output@@AEAA_NXZ 0000000180083790 f i libucrtd:output.obj
 0001:00082c00       ?type_case_a@?$output_processor@_WV?$string_output_adapter@_W@__crt_stdio_output@@V?$standard_base@_WV?$string_output_adapter@_W@__crt_stdio_output@@@2@@__crt_stdio_output@@AEAA_NXZ 0000000180083c00 f i libucrtd:output.obj
 0001:00083070       ?type_case_c@?$output_processor@DV?$stream_output_adapter@D@__crt_stdio_output@@V?$format_validation_base@DV?$stream_output_adapter@D@__crt_stdio_output@@@2@@__crt_stdio_output@@AEAA_NXZ 0000000180084070 f i libucrtd:output.obj
 0001:00083090       ?type_case_c@?$output_processor@DV?$stream_output_adapter@D@__crt_stdio_output@@V?$positional_parameter_base@DV?$stream_output_adapter@D@__crt_stdio_output@@@2@@__crt_stdio_output@@AEAA_NXZ 0000000180084090 f i libucrtd:output.obj
 0001:000830b0       ?type_case_c@?$output_processor@DV?$stream_output_adapter@D@__crt_stdio_output@@V?$standard_base@DV?$stream_output_adapter@D@__crt_stdio_output@@@2@@__crt_stdio_output@@AEAA_NXZ 00000001800840b0 f i libucrtd:output.obj
 0001:000830d0       ?type_case_c@?$output_processor@DV?$string_output_adapter@D@__crt_stdio_output@@V?$format_validation_base@DV?$string_output_adapter@D@__crt_stdio_output@@@2@@__crt_stdio_output@@AEAA_NXZ 00000001800840d0 f i libucrtd:output.obj
 0001:000830f0       ?type_case_c@?$output_processor@DV?$string_output_adapter@D@__crt_stdio_output@@V?$positional_parameter_base@DV?$string_output_adapter@D@__crt_stdio_output@@@2@@__crt_stdio_output@@AEAA_NXZ 00000001800840f0 f i libucrtd:output.obj
 0001:00083110       ?type_case_c@?$output_processor@DV?$string_output_adapter@D@__crt_stdio_output@@V?$standard_base@DV?$string_output_adapter@D@__crt_stdio_output@@@2@@__crt_stdio_output@@AEAA_NXZ 0000000180084110 f i libucrtd:output.obj
 0001:00083130       ?type_case_c@?$output_processor@_WV?$stream_output_adapter@_W@__crt_stdio_output@@V?$format_validation_base@_WV?$stream_output_adapter@_W@__crt_stdio_output@@@2@@__crt_stdio_output@@AEAA_NXZ 0000000180084130 f i libucrtd:output.obj
 0001:00083150       ?type_case_c@?$output_processor@_WV?$stream_output_adapter@_W@__crt_stdio_output@@V?$positional_parameter_base@_WV?$stream_output_adapter@_W@__crt_stdio_output@@@2@@__crt_stdio_output@@AEAA_NXZ 0000000180084150 f i libucrtd:output.obj
 0001:00083170       ?type_case_c@?$output_processor@_WV?$stream_output_adapter@_W@__crt_stdio_output@@V?$standard_base@_WV?$stream_output_adapter@_W@__crt_stdio_output@@@2@@__crt_stdio_output@@AEAA_NXZ 0000000180084170 f i libucrtd:output.obj
 0001:00083190       ?type_case_c@?$output_processor@_WV?$string_output_adapter@_W@__crt_stdio_output@@V?$format_validation_base@_WV?$string_output_adapter@_W@__crt_stdio_output@@@2@@__crt_stdio_output@@AEAA_NXZ 0000000180084190 f i libucrtd:output.obj
 0001:000831b0       ?type_case_c@?$output_processor@_WV?$string_output_adapter@_W@__crt_stdio_output@@V?$positional_parameter_base@_WV?$string_output_adapter@_W@__crt_stdio_output@@@2@@__crt_stdio_output@@AEAA_NXZ 00000001800841b0 f i libucrtd:output.obj
 0001:000831d0       ?type_case_c@?$output_processor@_WV?$string_output_adapter@_W@__crt_stdio_output@@V?$standard_base@_WV?$string_output_adapter@_W@__crt_stdio_output@@@2@@__crt_stdio_output@@AEAA_NXZ 00000001800841d0 f i libucrtd:output.obj
 0001:000831f0       ?type_case_c_tchar@?$output_processor@DV?$stream_output_adapter@D@__crt_stdio_output@@V?$format_validation_base@DV?$stream_output_adapter@D@__crt_stdio_output@@@2@@__crt_stdio_output@@AEAA_ND@Z 00000001800841f0 f i libucrtd:output.obj
 0001:00083360       ?type_case_c_tchar@?$output_processor@DV?$stream_output_adapter@D@__crt_stdio_output@@V?$positional_parameter_base@DV?$stream_output_adapter@D@__crt_stdio_output@@@2@@__crt_stdio_output@@AEAA_ND@Z 0000000180084360 f i libucrtd:output.obj
 0001:000834d0       ?type_case_c_tchar@?$output_processor@DV?$stream_output_adapter@D@__crt_stdio_output@@V?$standard_base@DV?$stream_output_adapter@D@__crt_stdio_output@@@2@@__crt_stdio_output@@AEAA_ND@Z 00000001800844d0 f i libucrtd:output.obj
 0001:00083640       ?type_case_c_tchar@?$output_processor@DV?$string_output_adapter@D@__crt_stdio_output@@V?$format_validation_base@DV?$string_output_adapter@D@__crt_stdio_output@@@2@@__crt_stdio_output@@AEAA_ND@Z 0000000180084640 f i libucrtd:output.obj
 0001:000837b0       ?type_case_c_tchar@?$output_processor@DV?$string_output_adapter@D@__crt_stdio_output@@V?$positional_parameter_base@DV?$string_output_adapter@D@__crt_stdio_output@@@2@@__crt_stdio_output@@AEAA_ND@Z 00000001800847b0 f i libucrtd:output.obj
 0001:00083920       ?type_case_c_tchar@?$output_processor@DV?$string_output_adapter@D@__crt_stdio_output@@V?$standard_base@DV?$string_output_adapter@D@__crt_stdio_output@@@2@@__crt_stdio_output@@AEAA_ND@Z 0000000180084920 f i libucrtd:output.obj
 0001:00083a90       ?type_case_c_tchar@?$output_processor@_WV?$stream_output_adapter@_W@__crt_stdio_output@@V?$format_validation_base@_WV?$stream_output_adapter@_W@__crt_stdio_output@@@2@@__crt_stdio_output@@AEAA_N_W@Z 0000000180084a90 f i libucrtd:output.obj
 0001:00083bf0       ?type_case_c_tchar@?$output_processor@_WV?$stream_output_adapter@_W@__crt_stdio_output@@V?$positional_parameter_base@_WV?$stream_output_adapter@_W@__crt_stdio_output@@@2@@__crt_stdio_output@@AEAA_N_W@Z 0000000180084bf0 f i libucrtd:output.obj
 0001:00083d50       ?type_case_c_tchar@?$output_processor@_WV?$stream_output_adapter@_W@__crt_stdio_output@@V?$standard_base@_WV?$stream_output_adapter@_W@__crt_stdio_output@@@2@@__crt_stdio_output@@AEAA_N_W@Z 0000000180084d50 f i libucrtd:output.obj
 0001:00083eb0       ?type_case_c_tchar@?$output_processor@_WV?$string_output_adapter@_W@__crt_stdio_output@@V?$format_validation_base@_WV?$string_output_adapter@_W@__crt_stdio_output@@@2@@__crt_stdio_output@@AEAA_N_W@Z 0000000180084eb0 f i libucrtd:output.obj
 0001:00084010       ?type_case_c_tchar@?$output_processor@_WV?$string_output_adapter@_W@__crt_stdio_output@@V?$positional_parameter_base@_WV?$string_output_adapter@_W@__crt_stdio_output@@@2@@__crt_stdio_output@@AEAA_N_W@Z 0000000180085010 f i libucrtd:output.obj
 0001:00084170       ?type_case_c_tchar@?$output_processor@_WV?$string_output_adapter@_W@__crt_stdio_output@@V?$standard_base@_WV?$string_output_adapter@_W@__crt_stdio_output@@@2@@__crt_stdio_output@@AEAA_N_W@Z 0000000180085170 f i libucrtd:output.obj
 0001:000842d0       ?type_case_d@?$output_processor@DV?$stream_output_adapter@D@__crt_stdio_output@@V?$format_validation_base@DV?$stream_output_adapter@D@__crt_stdio_output@@@2@@__crt_stdio_output@@AEAA_NXZ 00000001800852d0 f i libucrtd:output.obj
 0001:00084300       ?type_case_d@?$output_processor@DV?$stream_output_adapter@D@__crt_stdio_output@@V?$positional_parameter_base@DV?$stream_output_adapter@D@__crt_stdio_output@@@2@@__crt_stdio_output@@AEAA_NXZ 0000000180085300 f i libucrtd:output.obj
 0001:00084330       ?type_case_d@?$output_processor@DV?$stream_output_adapter@D@__crt_stdio_output@@V?$standard_base@DV?$stream_output_adapter@D@__crt_stdio_output@@@2@@__crt_stdio_output@@AEAA_NXZ 0000000180085330 f i libucrtd:output.obj
 0001:00084360       ?type_case_d@?$output_processor@DV?$string_output_adapter@D@__crt_stdio_output@@V?$format_validation_base@DV?$string_output_adapter@D@__crt_stdio_output@@@2@@__crt_stdio_output@@AEAA_NXZ 0000000180085360 f i libucrtd:output.obj
 0001:00084390       ?type_case_d@?$output_processor@DV?$string_output_adapter@D@__crt_stdio_output@@V?$positional_parameter_base@DV?$string_output_adapter@D@__crt_stdio_output@@@2@@__crt_stdio_output@@AEAA_NXZ 0000000180085390 f i libucrtd:output.obj
 0001:000843c0       ?type_case_d@?$output_processor@DV?$string_output_adapter@D@__crt_stdio_output@@V?$standard_base@DV?$string_output_adapter@D@__crt_stdio_output@@@2@@__crt_stdio_output@@AEAA_NXZ 00000001800853c0 f i libucrtd:output.obj
 0001:000843f0       ?type_case_d@?$output_processor@_WV?$stream_output_adapter@_W@__crt_stdio_output@@V?$format_validation_base@_WV?$stream_output_adapter@_W@__crt_stdio_output@@@2@@__crt_stdio_output@@AEAA_NXZ 00000001800853f0 f i libucrtd:output.obj
 0001:00084420       ?type_case_d@?$output_processor@_WV?$stream_output_adapter@_W@__crt_stdio_output@@V?$positional_parameter_base@_WV?$stream_output_adapter@_W@__crt_stdio_output@@@2@@__crt_stdio_output@@AEAA_NXZ 0000000180085420 f i libucrtd:output.obj
 0001:00084450       ?type_case_d@?$output_processor@_WV?$stream_output_adapter@_W@__crt_stdio_output@@V?$standard_base@_WV?$stream_output_adapter@_W@__crt_stdio_output@@@2@@__crt_stdio_output@@AEAA_NXZ 0000000180085450 f i libucrtd:output.obj
 0001:00084480       ?type_case_d@?$output_processor@_WV?$string_output_adapter@_W@__crt_stdio_output@@V?$format_validation_base@_WV?$string_output_adapter@_W@__crt_stdio_output@@@2@@__crt_stdio_output@@AEAA_NXZ 0000000180085480 f i libucrtd:output.obj
 0001:000844b0       ?type_case_d@?$output_processor@_WV?$string_output_adapter@_W@__crt_stdio_output@@V?$positional_parameter_base@_WV?$string_output_adapter@_W@__crt_stdio_output@@@2@@__crt_stdio_output@@AEAA_NXZ 00000001800854b0 f i libucrtd:output.obj
 0001:000844e0       ?type_case_d@?$output_processor@_WV?$string_output_adapter@_W@__crt_stdio_output@@V?$standard_base@_WV?$string_output_adapter@_W@__crt_stdio_output@@@2@@__crt_stdio_output@@AEAA_NXZ 00000001800854e0 f i libucrtd:output.obj
 0001:00084510       ?type_case_n@?$output_processor@DV?$stream_output_adapter@D@__crt_stdio_output@@V?$format_validation_base@DV?$stream_output_adapter@D@__crt_stdio_output@@@2@@__crt_stdio_output@@AEAA_NXZ 0000000180085510 f i libucrtd:output.obj
 0001:000847a0       ?type_case_n@?$output_processor@DV?$stream_output_adapter@D@__crt_stdio_output@@V?$positional_parameter_base@DV?$stream_output_adapter@D@__crt_stdio_output@@@2@@__crt_stdio_output@@AEAA_NXZ 00000001800857a0 f i libucrtd:output.obj
 0001:00084a30       ?type_case_n@?$output_processor@DV?$stream_output_adapter@D@__crt_stdio_output@@V?$standard_base@DV?$stream_output_adapter@D@__crt_stdio_output@@@2@@__crt_stdio_output@@AEAA_NXZ 0000000180085a30 f i libucrtd:output.obj
 0001:00084cc0       ?type_case_n@?$output_processor@DV?$string_output_adapter@D@__crt_stdio_output@@V?$format_validation_base@DV?$string_output_adapter@D@__crt_stdio_output@@@2@@__crt_stdio_output@@AEAA_NXZ 0000000180085cc0 f i libucrtd:output.obj
 0001:00084f50       ?type_case_n@?$output_processor@DV?$string_output_adapter@D@__crt_stdio_output@@V?$positional_parameter_base@DV?$string_output_adapter@D@__crt_stdio_output@@@2@@__crt_stdio_output@@AEAA_NXZ 0000000180085f50 f i libucrtd:output.obj
 0001:000851e0       ?type_case_n@?$output_processor@DV?$string_output_adapter@D@__crt_stdio_output@@V?$standard_base@DV?$string_output_adapter@D@__crt_stdio_output@@@2@@__crt_stdio_output@@AEAA_NXZ 00000001800861e0 f i libucrtd:output.obj
 0001:00085470       ?type_case_n@?$output_processor@_WV?$stream_output_adapter@_W@__crt_stdio_output@@V?$format_validation_base@_WV?$stream_output_adapter@_W@__crt_stdio_output@@@2@@__crt_stdio_output@@AEAA_NXZ 0000000180086470 f i libucrtd:output.obj
 0001:00085700       ?type_case_n@?$output_processor@_WV?$stream_output_adapter@_W@__crt_stdio_output@@V?$positional_parameter_base@_WV?$stream_output_adapter@_W@__crt_stdio_output@@@2@@__crt_stdio_output@@AEAA_NXZ 0000000180086700 f i libucrtd:output.obj
 0001:00085990       ?type_case_n@?$output_processor@_WV?$stream_output_adapter@_W@__crt_stdio_output@@V?$standard_base@_WV?$stream_output_adapter@_W@__crt_stdio_output@@@2@@__crt_stdio_output@@AEAA_NXZ 0000000180086990 f i libucrtd:output.obj
 0001:00085c20       ?type_case_n@?$output_processor@_WV?$string_output_adapter@_W@__crt_stdio_output@@V?$format_validation_base@_WV?$string_output_adapter@_W@__crt_stdio_output@@@2@@__crt_stdio_output@@AEAA_NXZ 0000000180086c20 f i libucrtd:output.obj
 0001:00085eb0       ?type_case_n@?$output_processor@_WV?$string_output_adapter@_W@__crt_stdio_output@@V?$positional_parameter_base@_WV?$string_output_adapter@_W@__crt_stdio_output@@@2@@__crt_stdio_output@@AEAA_NXZ 0000000180086eb0 f i libucrtd:output.obj
 0001:00086140       ?type_case_n@?$output_processor@_WV?$string_output_adapter@_W@__crt_stdio_output@@V?$standard_base@_WV?$string_output_adapter@_W@__crt_stdio_output@@@2@@__crt_stdio_output@@AEAA_NXZ 0000000180087140 f i libucrtd:output.obj
 0001:000863d0       ?type_case_o@?$output_processor@DV?$stream_output_adapter@D@__crt_stdio_output@@V?$format_validation_base@DV?$stream_output_adapter@D@__crt_stdio_output@@@2@@__crt_stdio_output@@AEAA_NXZ 00000001800873d0 f i libucrtd:output.obj
 0001:00086410       ?type_case_o@?$output_processor@DV?$stream_output_adapter@D@__crt_stdio_output@@V?$positional_parameter_base@DV?$stream_output_adapter@D@__crt_stdio_output@@@2@@__crt_stdio_output@@AEAA_NXZ 0000000180087410 f i libucrtd:output.obj
 0001:00086450       ?type_case_o@?$output_processor@DV?$stream_output_adapter@D@__crt_stdio_output@@V?$standard_base@DV?$stream_output_adapter@D@__crt_stdio_output@@@2@@__crt_stdio_output@@AEAA_NXZ 0000000180087450 f i libucrtd:output.obj
 0001:00086490       ?type_case_o@?$output_processor@DV?$string_output_adapter@D@__crt_stdio_output@@V?$format_validation_base@DV?$string_output_adapter@D@__crt_stdio_output@@@2@@__crt_stdio_output@@AEAA_NXZ 0000000180087490 f i libucrtd:output.obj
 0001:000864d0       ?type_case_o@?$output_processor@DV?$string_output_adapter@D@__crt_stdio_output@@V?$positional_parameter_base@DV?$string_output_adapter@D@__crt_stdio_output@@@2@@__crt_stdio_output@@AEAA_NXZ 00000001800874d0 f i libucrtd:output.obj
 0001:00086510       ?type_case_o@?$output_processor@DV?$string_output_adapter@D@__crt_stdio_output@@V?$standard_base@DV?$string_output_adapter@D@__crt_stdio_output@@@2@@__crt_stdio_output@@AEAA_NXZ 0000000180087510 f i libucrtd:output.obj
 0001:00086550       ?type_case_o@?$output_processor@_WV?$stream_output_adapter@_W@__crt_stdio_output@@V?$format_validation_base@_WV?$stream_output_adapter@_W@__crt_stdio_output@@@2@@__crt_stdio_output@@AEAA_NXZ 0000000180087550 f i libucrtd:output.obj
 0001:00086590       ?type_case_o@?$output_processor@_WV?$stream_output_adapter@_W@__crt_stdio_output@@V?$positional_parameter_base@_WV?$stream_output_adapter@_W@__crt_stdio_output@@@2@@__crt_stdio_output@@AEAA_NXZ 0000000180087590 f i libucrtd:output.obj
 0001:000865d0       ?type_case_o@?$output_processor@_WV?$stream_output_adapter@_W@__crt_stdio_output@@V?$standard_base@_WV?$stream_output_adapter@_W@__crt_stdio_output@@@2@@__crt_stdio_output@@AEAA_NXZ 00000001800875d0 f i libucrtd:output.obj
 0001:00086610       ?type_case_o@?$output_processor@_WV?$string_output_adapter@_W@__crt_stdio_output@@V?$format_validation_base@_WV?$string_output_adapter@_W@__crt_stdio_output@@@2@@__crt_stdio_output@@AEAA_NXZ 0000000180087610 f i libucrtd:output.obj
 0001:00086650       ?type_case_o@?$output_processor@_WV?$string_output_adapter@_W@__crt_stdio_output@@V?$positional_parameter_base@_WV?$string_output_adapter@_W@__crt_stdio_output@@@2@@__crt_stdio_output@@AEAA_NXZ 0000000180087650 f i libucrtd:output.obj
 0001:00086690       ?type_case_o@?$output_processor@_WV?$string_output_adapter@_W@__crt_stdio_output@@V?$standard_base@_WV?$string_output_adapter@_W@__crt_stdio_output@@@2@@__crt_stdio_output@@AEAA_NXZ 0000000180087690 f i libucrtd:output.obj
 0001:000866d0       ?type_case_p@?$output_processor@DV?$stream_output_adapter@D@__crt_stdio_output@@V?$format_validation_base@DV?$stream_output_adapter@D@__crt_stdio_output@@@2@@__crt_stdio_output@@AEAA_NXZ 00000001800876d0 f i libucrtd:output.obj
 0001:00086710       ?type_case_p@?$output_processor@DV?$stream_output_adapter@D@__crt_stdio_output@@V?$positional_parameter_base@DV?$stream_output_adapter@D@__crt_stdio_output@@@2@@__crt_stdio_output@@AEAA_NXZ 0000000180087710 f i libucrtd:output.obj
 0001:00086750       ?type_case_p@?$output_processor@DV?$stream_output_adapter@D@__crt_stdio_output@@V?$standard_base@DV?$stream_output_adapter@D@__crt_stdio_output@@@2@@__crt_stdio_output@@AEAA_NXZ 0000000180087750 f i libucrtd:output.obj
 0001:00086790       ?type_case_p@?$output_processor@DV?$string_output_adapter@D@__crt_stdio_output@@V?$format_validation_base@DV?$string_output_adapter@D@__crt_stdio_output@@@2@@__crt_stdio_output@@AEAA_NXZ 0000000180087790 f i libucrtd:output.obj
 0001:000867d0       ?type_case_p@?$output_processor@DV?$string_output_adapter@D@__crt_stdio_output@@V?$positional_parameter_base@DV?$string_output_adapter@D@__crt_stdio_output@@@2@@__crt_stdio_output@@AEAA_NXZ 00000001800877d0 f i libucrtd:output.obj
 0001:00086810       ?type_case_p@?$output_processor@DV?$string_output_adapter@D@__crt_stdio_output@@V?$standard_base@DV?$string_output_adapter@D@__crt_stdio_output@@@2@@__crt_stdio_output@@AEAA_NXZ 0000000180087810 f i libucrtd:output.obj
 0001:00086850       ?type_case_p@?$output_processor@_WV?$stream_output_adapter@_W@__crt_stdio_output@@V?$format_validation_base@_WV?$stream_output_adapter@_W@__crt_stdio_output@@@2@@__crt_stdio_output@@AEAA_NXZ 0000000180087850 f i libucrtd:output.obj
 0001:00086890       ?type_case_p@?$output_processor@_WV?$stream_output_adapter@_W@__crt_stdio_output@@V?$positional_parameter_base@_WV?$stream_output_adapter@_W@__crt_stdio_output@@@2@@__crt_stdio_output@@AEAA_NXZ 0000000180087890 f i libucrtd:output.obj
 0001:000868d0       ?type_case_p@?$output_processor@_WV?$stream_output_adapter@_W@__crt_stdio_output@@V?$standard_base@_WV?$stream_output_adapter@_W@__crt_stdio_output@@@2@@__crt_stdio_output@@AEAA_NXZ 00000001800878d0 f i libucrtd:output.obj
 0001:00086910       ?type_case_p@?$output_processor@_WV?$string_output_adapter@_W@__crt_stdio_output@@V?$format_validation_base@_WV?$string_output_adapter@_W@__crt_stdio_output@@@2@@__crt_stdio_output@@AEAA_NXZ 0000000180087910 f i libucrtd:output.obj
 0001:00086950       ?type_case_p@?$output_processor@_WV?$string_output_adapter@_W@__crt_stdio_output@@V?$positional_parameter_base@_WV?$string_output_adapter@_W@__crt_stdio_output@@@2@@__crt_stdio_output@@AEAA_NXZ 0000000180087950 f i libucrtd:output.obj
 0001:00086990       ?type_case_p@?$output_processor@_WV?$string_output_adapter@_W@__crt_stdio_output@@V?$standard_base@_WV?$string_output_adapter@_W@__crt_stdio_output@@@2@@__crt_stdio_output@@AEAA_NXZ 0000000180087990 f i libucrtd:output.obj
 0001:000869d0       ?type_case_s@?$output_processor@DV?$stream_output_adapter@D@__crt_stdio_output@@V?$format_validation_base@DV?$stream_output_adapter@D@__crt_stdio_output@@@2@@__crt_stdio_output@@AEAA_NXZ 00000001800879d0 f i libucrtd:output.obj
 0001:00086af0       ?type_case_s@?$output_processor@DV?$stream_output_adapter@D@__crt_stdio_output@@V?$positional_parameter_base@DV?$stream_output_adapter@D@__crt_stdio_output@@@2@@__crt_stdio_output@@AEAA_NXZ 0000000180087af0 f i libucrtd:output.obj
 0001:00086c10       ?type_case_s@?$output_processor@DV?$stream_output_adapter@D@__crt_stdio_output@@V?$standard_base@DV?$stream_output_adapter@D@__crt_stdio_output@@@2@@__crt_stdio_output@@AEAA_NXZ 0000000180087c10 f i libucrtd:output.obj
 0001:00086d30       ?type_case_s@?$output_processor@DV?$string_output_adapter@D@__crt_stdio_output@@V?$format_validation_base@DV?$string_output_adapter@D@__crt_stdio_output@@@2@@__crt_stdio_output@@AEAA_NXZ 0000000180087d30 f i libucrtd:output.obj
 0001:00086e50       ?type_case_s@?$output_processor@DV?$string_output_adapter@D@__crt_stdio_output@@V?$positional_parameter_base@DV?$string_output_adapter@D@__crt_stdio_output@@@2@@__crt_stdio_output@@AEAA_NXZ 0000000180087e50 f i libucrtd:output.obj
 0001:00086f70       ?type_case_s@?$output_processor@DV?$string_output_adapter@D@__crt_stdio_output@@V?$standard_base@DV?$string_output_adapter@D@__crt_stdio_output@@@2@@__crt_stdio_output@@AEAA_NXZ 0000000180087f70 f i libucrtd:output.obj
 0001:00087090       ?type_case_s@?$output_processor@_WV?$stream_output_adapter@_W@__crt_stdio_output@@V?$format_validation_base@_WV?$stream_output_adapter@_W@__crt_stdio_output@@@2@@__crt_stdio_output@@AEAA_NXZ 0000000180088090 f i libucrtd:output.obj
 0001:000871b0       ?type_case_s@?$output_processor@_WV?$stream_output_adapter@_W@__crt_stdio_output@@V?$positional_parameter_base@_WV?$stream_output_adapter@_W@__crt_stdio_output@@@2@@__crt_stdio_output@@AEAA_NXZ 00000001800881b0 f i libucrtd:output.obj
 0001:000872d0       ?type_case_s@?$output_processor@_WV?$stream_output_adapter@_W@__crt_stdio_output@@V?$standard_base@_WV?$stream_output_adapter@_W@__crt_stdio_output@@@2@@__crt_stdio_output@@AEAA_NXZ 00000001800882d0 f i libucrtd:output.obj
 0001:000873f0       ?type_case_s@?$output_processor@_WV?$string_output_adapter@_W@__crt_stdio_output@@V?$format_validation_base@_WV?$string_output_adapter@_W@__crt_stdio_output@@@2@@__crt_stdio_output@@AEAA_NXZ 00000001800883f0 f i libucrtd:output.obj
 0001:00087510       ?type_case_s@?$output_processor@_WV?$string_output_adapter@_W@__crt_stdio_output@@V?$positional_parameter_base@_WV?$string_output_adapter@_W@__crt_stdio_output@@@2@@__crt_stdio_output@@AEAA_NXZ 0000000180088510 f i libucrtd:output.obj
 0001:00087630       ?type_case_s@?$output_processor@_WV?$string_output_adapter@_W@__crt_stdio_output@@V?$standard_base@_WV?$string_output_adapter@_W@__crt_stdio_output@@@2@@__crt_stdio_output@@AEAA_NXZ 0000000180088630 f i libucrtd:output.obj
 0001:00087750       ?type_case_s_compute_narrow_string_length@?$output_processor@DV?$stream_output_adapter@D@__crt_stdio_output@@V?$format_validation_base@DV?$stream_output_adapter@D@__crt_stdio_output@@@2@@__crt_stdio_output@@AEAAHHD@Z 0000000180088750 f i libucrtd:output.obj
 0001:00087780       ?type_case_s_compute_narrow_string_length@?$output_processor@DV?$stream_output_adapter@D@__crt_stdio_output@@V?$positional_parameter_base@DV?$stream_output_adapter@D@__crt_stdio_output@@@2@@__crt_stdio_output@@AEAAHHD@Z 0000000180088780 f i libucrtd:output.obj
 0001:000877b0       ?type_case_s_compute_narrow_string_length@?$output_processor@DV?$stream_output_adapter@D@__crt_stdio_output@@V?$standard_base@DV?$stream_output_adapter@D@__crt_stdio_output@@@2@@__crt_stdio_output@@AEAAHHD@Z 00000001800887b0 f i libucrtd:output.obj
 0001:000877e0       ?type_case_s_compute_narrow_string_length@?$output_processor@DV?$string_output_adapter@D@__crt_stdio_output@@V?$format_validation_base@DV?$string_output_adapter@D@__crt_stdio_output@@@2@@__crt_stdio_output@@AEAAHHD@Z 00000001800887e0 f i libucrtd:output.obj
 0001:00087810       ?type_case_s_compute_narrow_string_length@?$output_processor@DV?$string_output_adapter@D@__crt_stdio_output@@V?$positional_parameter_base@DV?$string_output_adapter@D@__crt_stdio_output@@@2@@__crt_stdio_output@@AEAAHHD@Z 0000000180088810 f i libucrtd:output.obj
 0001:00087840       ?type_case_s_compute_narrow_string_length@?$output_processor@DV?$string_output_adapter@D@__crt_stdio_output@@V?$standard_base@DV?$string_output_adapter@D@__crt_stdio_output@@@2@@__crt_stdio_output@@AEAAHHD@Z 0000000180088840 f i libucrtd:output.obj
 0001:00087870       ?type_case_s_compute_narrow_string_length@?$output_processor@_WV?$stream_output_adapter@_W@__crt_stdio_output@@V?$format_validation_base@_WV?$stream_output_adapter@_W@__crt_stdio_output@@@2@@__crt_stdio_output@@AEAAHH_W@Z 0000000180088870 f i libucrtd:output.obj
 0001:00087910       ?type_case_s_compute_narrow_string_length@?$output_processor@_WV?$stream_output_adapter@_W@__crt_stdio_output@@V?$positional_parameter_base@_WV?$stream_output_adapter@_W@__crt_stdio_output@@@2@@__crt_stdio_output@@AEAAHH_W@Z 0000000180088910 f i libucrtd:output.obj
 0001:000879b0       ?type_case_s_compute_narrow_string_length@?$output_processor@_WV?$stream_output_adapter@_W@__crt_stdio_output@@V?$standard_base@_WV?$stream_output_adapter@_W@__crt_stdio_output@@@2@@__crt_stdio_output@@AEAAHH_W@Z 00000001800889b0 f i libucrtd:output.obj
 0001:00087a50       ?type_case_s_compute_narrow_string_length@?$output_processor@_WV?$string_output_adapter@_W@__crt_stdio_output@@V?$format_validation_base@_WV?$string_output_adapter@_W@__crt_stdio_output@@@2@@__crt_stdio_output@@AEAAHH_W@Z 0000000180088a50 f i libucrtd:output.obj
 0001:00087af0       ?type_case_s_compute_narrow_string_length@?$output_processor@_WV?$string_output_adapter@_W@__crt_stdio_output@@V?$positional_parameter_base@_WV?$string_output_adapter@_W@__crt_stdio_output@@@2@@__crt_stdio_output@@AEAAHH_W@Z 0000000180088af0 f i libucrtd:output.obj
 0001:00087b90       ?type_case_s_compute_narrow_string_length@?$output_processor@_WV?$string_output_adapter@_W@__crt_stdio_output@@V?$standard_base@_WV?$string_output_adapter@_W@__crt_stdio_output@@@2@@__crt_stdio_output@@AEAAHH_W@Z 0000000180088b90 f i libucrtd:output.obj
 0001:00087c30       ?type_case_u@?$output_processor@DV?$stream_output_adapter@D@__crt_stdio_output@@V?$format_validation_base@DV?$stream_output_adapter@D@__crt_stdio_output@@@2@@__crt_stdio_output@@AEAA_NXZ 0000000180088c30 f i libucrtd:output.obj
 0001:00087c50       ?type_case_u@?$output_processor@DV?$stream_output_adapter@D@__crt_stdio_output@@V?$positional_parameter_base@DV?$stream_output_adapter@D@__crt_stdio_output@@@2@@__crt_stdio_output@@AEAA_NXZ 0000000180088c50 f i libucrtd:output.obj
 0001:00087c70       ?type_case_u@?$output_processor@DV?$stream_output_adapter@D@__crt_stdio_output@@V?$standard_base@DV?$stream_output_adapter@D@__crt_stdio_output@@@2@@__crt_stdio_output@@AEAA_NXZ 0000000180088c70 f i libucrtd:output.obj
 0001:00087c90       ?type_case_u@?$output_processor@DV?$string_output_adapter@D@__crt_stdio_output@@V?$format_validation_base@DV?$string_output_adapter@D@__crt_stdio_output@@@2@@__crt_stdio_output@@AEAA_NXZ 0000000180088c90 f i libucrtd:output.obj
 0001:00087cb0       ?type_case_u@?$output_processor@DV?$string_output_adapter@D@__crt_stdio_output@@V?$positional_parameter_base@DV?$string_output_adapter@D@__crt_stdio_output@@@2@@__crt_stdio_output@@AEAA_NXZ 0000000180088cb0 f i libucrtd:output.obj
 0001:00087cd0       ?type_case_u@?$output_processor@DV?$string_output_adapter@D@__crt_stdio_output@@V?$standard_base@DV?$string_output_adapter@D@__crt_stdio_output@@@2@@__crt_stdio_output@@AEAA_NXZ 0000000180088cd0 f i libucrtd:output.obj
 0001:00087cf0       ?type_case_u@?$output_processor@_WV?$stream_output_adapter@_W@__crt_stdio_output@@V?$format_validation_base@_WV?$stream_output_adapter@_W@__crt_stdio_output@@@2@@__crt_stdio_output@@AEAA_NXZ 0000000180088cf0 f i libucrtd:output.obj
 0001:00087d10       ?type_case_u@?$output_processor@_WV?$stream_output_adapter@_W@__crt_stdio_output@@V?$positional_parameter_base@_WV?$stream_output_adapter@_W@__crt_stdio_output@@@2@@__crt_stdio_output@@AEAA_NXZ 0000000180088d10 f i libucrtd:output.obj
 0001:00087d30       ?type_case_u@?$output_processor@_WV?$stream_output_adapter@_W@__crt_stdio_output@@V?$standard_base@_WV?$stream_output_adapter@_W@__crt_stdio_output@@@2@@__crt_stdio_output@@AEAA_NXZ 0000000180088d30 f i libucrtd:output.obj
 0001:00087d50       ?type_case_u@?$output_processor@_WV?$string_output_adapter@_W@__crt_stdio_output@@V?$format_validation_base@_WV?$string_output_adapter@_W@__crt_stdio_output@@@2@@__crt_stdio_output@@AEAA_NXZ 0000000180088d50 f i libucrtd:output.obj
 0001:00087d70       ?type_case_u@?$output_processor@_WV?$string_output_adapter@_W@__crt_stdio_output@@V?$positional_parameter_base@_WV?$string_output_adapter@_W@__crt_stdio_output@@@2@@__crt_stdio_output@@AEAA_NXZ 0000000180088d70 f i libucrtd:output.obj
 0001:00087d90       ?type_case_u@?$output_processor@_WV?$string_output_adapter@_W@__crt_stdio_output@@V?$standard_base@_WV?$string_output_adapter@_W@__crt_stdio_output@@@2@@__crt_stdio_output@@AEAA_NXZ 0000000180088d90 f i libucrtd:output.obj
 0001:00087db0       ?type_case_x@?$output_processor@DV?$stream_output_adapter@D@__crt_stdio_output@@V?$format_validation_base@DV?$stream_output_adapter@D@__crt_stdio_output@@@2@@__crt_stdio_output@@AEAA_NXZ 0000000180088db0 f i libucrtd:output.obj
 0001:00087dd0       ?type_case_x@?$output_processor@DV?$stream_output_adapter@D@__crt_stdio_output@@V?$positional_parameter_base@DV?$stream_output_adapter@D@__crt_stdio_output@@@2@@__crt_stdio_output@@AEAA_NXZ 0000000180088dd0 f i libucrtd:output.obj
 0001:00087df0       ?type_case_x@?$output_processor@DV?$stream_output_adapter@D@__crt_stdio_output@@V?$standard_base@DV?$stream_output_adapter@D@__crt_stdio_output@@@2@@__crt_stdio_output@@AEAA_NXZ 0000000180088df0 f i libucrtd:output.obj
 0001:00087e10       ?type_case_x@?$output_processor@DV?$string_output_adapter@D@__crt_stdio_output@@V?$format_validation_base@DV?$string_output_adapter@D@__crt_stdio_output@@@2@@__crt_stdio_output@@AEAA_NXZ 0000000180088e10 f i libucrtd:output.obj
 0001:00087e30       ?type_case_x@?$output_processor@DV?$string_output_adapter@D@__crt_stdio_output@@V?$positional_parameter_base@DV?$string_output_adapter@D@__crt_stdio_output@@@2@@__crt_stdio_output@@AEAA_NXZ 0000000180088e30 f i libucrtd:output.obj
 0001:00087e50       ?type_case_x@?$output_processor@DV?$string_output_adapter@D@__crt_stdio_output@@V?$standard_base@DV?$string_output_adapter@D@__crt_stdio_output@@@2@@__crt_stdio_output@@AEAA_NXZ 0000000180088e50 f i libucrtd:output.obj
 0001:00087e70       ?type_case_x@?$output_processor@_WV?$stream_output_adapter@_W@__crt_stdio_output@@V?$format_validation_base@_WV?$stream_output_adapter@_W@__crt_stdio_output@@@2@@__crt_stdio_output@@AEAA_NXZ 0000000180088e70 f i libucrtd:output.obj
 0001:00087e90       ?type_case_x@?$output_processor@_WV?$stream_output_adapter@_W@__crt_stdio_output@@V?$positional_parameter_base@_WV?$stream_output_adapter@_W@__crt_stdio_output@@@2@@__crt_stdio_output@@AEAA_NXZ 0000000180088e90 f i libucrtd:output.obj
 0001:00087eb0       ?type_case_x@?$output_processor@_WV?$stream_output_adapter@_W@__crt_stdio_output@@V?$standard_base@_WV?$stream_output_adapter@_W@__crt_stdio_output@@@2@@__crt_stdio_output@@AEAA_NXZ 0000000180088eb0 f i libucrtd:output.obj
 0001:00087ed0       ?type_case_x@?$output_processor@_WV?$string_output_adapter@_W@__crt_stdio_output@@V?$format_validation_base@_WV?$string_output_adapter@_W@__crt_stdio_output@@@2@@__crt_stdio_output@@AEAA_NXZ 0000000180088ed0 f i libucrtd:output.obj
 0001:00087ef0       ?type_case_x@?$output_processor@_WV?$string_output_adapter@_W@__crt_stdio_output@@V?$positional_parameter_base@_WV?$string_output_adapter@_W@__crt_stdio_output@@@2@@__crt_stdio_output@@AEAA_NXZ 0000000180088ef0 f i libucrtd:output.obj
 0001:00087f10       ?type_case_x@?$output_processor@_WV?$string_output_adapter@_W@__crt_stdio_output@@V?$standard_base@_WV?$string_output_adapter@_W@__crt_stdio_output@@@2@@__crt_stdio_output@@AEAA_NXZ 0000000180088f10 f i libucrtd:output.obj
 0001:00087f30       ?unget@?$c_string_character_source@D@__crt_strtox@@QEAAXD@Z 0000000180088f30 f i libucrtd:output.obj
 0001:00088010       ?unget@?$c_string_character_source@_W@__crt_strtox@@QEAAX_W@Z 0000000180089010 f i libucrtd:output.obj
 0001:000880f0       ?unsafe_value@?$cached@H@__crt_cached_ptd_host@@QEAAHXZ 00000001800890f0 f i libucrtd:output.obj
 0001:00088100       ?unsafe_value@?$cached@K@__crt_cached_ptd_host@@QEAAKXZ 0000000180089100 f i libucrtd:output.obj
 0001:00088110       ?unset_flag@?$output_processor@DV?$stream_output_adapter@D@__crt_stdio_output@@V?$format_validation_base@DV?$stream_output_adapter@D@__crt_stdio_output@@@2@@__crt_stdio_output@@AEAAXI@Z 0000000180089110 f i libucrtd:output.obj
 0001:00088140       ?unset_flag@?$output_processor@DV?$stream_output_adapter@D@__crt_stdio_output@@V?$positional_parameter_base@DV?$stream_output_adapter@D@__crt_stdio_output@@@2@@__crt_stdio_output@@AEAAXI@Z 0000000180089140 f i libucrtd:output.obj
 0001:00088170       ?unset_flag@?$output_processor@DV?$stream_output_adapter@D@__crt_stdio_output@@V?$standard_base@DV?$stream_output_adapter@D@__crt_stdio_output@@@2@@__crt_stdio_output@@AEAAXI@Z 0000000180089170 f i libucrtd:output.obj
 0001:000881a0       ?unset_flag@?$output_processor@DV?$string_output_adapter@D@__crt_stdio_output@@V?$format_validation_base@DV?$string_output_adapter@D@__crt_stdio_output@@@2@@__crt_stdio_output@@AEAAXI@Z 00000001800891a0 f i libucrtd:output.obj
 0001:000881d0       ?unset_flag@?$output_processor@DV?$string_output_adapter@D@__crt_stdio_output@@V?$positional_parameter_base@DV?$string_output_adapter@D@__crt_stdio_output@@@2@@__crt_stdio_output@@AEAAXI@Z 00000001800891d0 f i libucrtd:output.obj
 0001:00088200       ?unset_flag@?$output_processor@DV?$string_output_adapter@D@__crt_stdio_output@@V?$standard_base@DV?$string_output_adapter@D@__crt_stdio_output@@@2@@__crt_stdio_output@@AEAAXI@Z 0000000180089200 f i libucrtd:output.obj
 0001:00088230       ?unset_flag@?$output_processor@_WV?$stream_output_adapter@_W@__crt_stdio_output@@V?$format_validation_base@_WV?$stream_output_adapter@_W@__crt_stdio_output@@@2@@__crt_stdio_output@@AEAAXI@Z 0000000180089230 f i libucrtd:output.obj
 0001:00088260       ?unset_flag@?$output_processor@_WV?$stream_output_adapter@_W@__crt_stdio_output@@V?$positional_parameter_base@_WV?$stream_output_adapter@_W@__crt_stdio_output@@@2@@__crt_stdio_output@@AEAAXI@Z 0000000180089260 f i libucrtd:output.obj
 0001:00088290       ?unset_flag@?$output_processor@_WV?$stream_output_adapter@_W@__crt_stdio_output@@V?$standard_base@_WV?$stream_output_adapter@_W@__crt_stdio_output@@@2@@__crt_stdio_output@@AEAAXI@Z 0000000180089290 f i libucrtd:output.obj
 0001:000882c0       ?unset_flag@?$output_processor@_WV?$string_output_adapter@_W@__crt_stdio_output@@V?$format_validation_base@_WV?$string_output_adapter@_W@__crt_stdio_output@@@2@@__crt_stdio_output@@AEAAXI@Z 00000001800892c0 f i libucrtd:output.obj
 0001:000882f0       ?unset_flag@?$output_processor@_WV?$string_output_adapter@_W@__crt_stdio_output@@V?$positional_parameter_base@_WV?$string_output_adapter@_W@__crt_stdio_output@@@2@@__crt_stdio_output@@AEAAXI@Z 00000001800892f0 f i libucrtd:output.obj
 0001:00088320       ?unset_flag@?$output_processor@_WV?$string_output_adapter@_W@__crt_stdio_output@@V?$standard_base@_WV?$string_output_adapter@_W@__crt_stdio_output@@@2@@__crt_stdio_output@@AEAAXI@Z 0000000180089320 f i libucrtd:output.obj
 0001:00088350       ?update_field_width@?$positional_parameter_base@DV?$stream_output_adapter@D@__crt_stdio_output@@@__crt_stdio_output@@IEAA_NXZ 0000000180089350 f i libucrtd:output.obj
 0001:00088550       ?update_field_width@?$positional_parameter_base@DV?$string_output_adapter@D@__crt_stdio_output@@@__crt_stdio_output@@IEAA_NXZ 0000000180089550 f i libucrtd:output.obj
 0001:00088750       ?update_field_width@?$positional_parameter_base@_WV?$stream_output_adapter@_W@__crt_stdio_output@@@__crt_stdio_output@@IEAA_NXZ 0000000180089750 f i libucrtd:output.obj
 0001:00088950       ?update_field_width@?$positional_parameter_base@_WV?$string_output_adapter@_W@__crt_stdio_output@@@__crt_stdio_output@@IEAA_NXZ 0000000180089950 f i libucrtd:output.obj
 0001:00088b50       ?update_field_width@?$standard_base@DV?$stream_output_adapter@D@__crt_stdio_output@@@__crt_stdio_output@@IEAA_NXZ 0000000180089b50 f i libucrtd:output.obj
 0001:00088b80       ?update_field_width@?$standard_base@DV?$string_output_adapter@D@__crt_stdio_output@@@__crt_stdio_output@@IEAA_NXZ 0000000180089b80 f i libucrtd:output.obj
 0001:00088bb0       ?update_field_width@?$standard_base@_WV?$stream_output_adapter@_W@__crt_stdio_output@@@__crt_stdio_output@@IEAA_NXZ 0000000180089bb0 f i libucrtd:output.obj
 0001:00088be0       ?update_field_width@?$standard_base@_WV?$string_output_adapter@_W@__crt_stdio_output@@@__crt_stdio_output@@IEAA_NXZ 0000000180089be0 f i libucrtd:output.obj
 0001:00088c10       ?update_locale@__crt_cached_ptd_host@@AEAAXXZ 0000000180089c10 f i libucrtd:output.obj
 0001:00088c40       ?update_locale_slow@__crt_cached_ptd_host@@AEAAXXZ 0000000180089c40 f i libucrtd:output.obj
 0001:00088cf0       ?update_precision@?$positional_parameter_base@DV?$stream_output_adapter@D@__crt_stdio_output@@@__crt_stdio_output@@IEAA_NXZ 0000000180089cf0 f i libucrtd:output.obj
 0001:00088ef0       ?update_precision@?$positional_parameter_base@DV?$string_output_adapter@D@__crt_stdio_output@@@__crt_stdio_output@@IEAA_NXZ 0000000180089ef0 f i libucrtd:output.obj
 0001:000890f0       ?update_precision@?$positional_parameter_base@_WV?$stream_output_adapter@_W@__crt_stdio_output@@@__crt_stdio_output@@IEAA_NXZ 000000018008a0f0 f i libucrtd:output.obj
 0001:000892f0       ?update_precision@?$positional_parameter_base@_WV?$string_output_adapter@_W@__crt_stdio_output@@@__crt_stdio_output@@IEAA_NXZ 000000018008a2f0 f i libucrtd:output.obj
 0001:000894f0       ?update_precision@?$standard_base@DV?$stream_output_adapter@D@__crt_stdio_output@@@__crt_stdio_output@@IEAA_NXZ 000000018008a4f0 f i libucrtd:output.obj
 0001:00089520       ?update_precision@?$standard_base@DV?$string_output_adapter@D@__crt_stdio_output@@@__crt_stdio_output@@IEAA_NXZ 000000018008a520 f i libucrtd:output.obj
 0001:00089550       ?update_precision@?$standard_base@_WV?$stream_output_adapter@_W@__crt_stdio_output@@@__crt_stdio_output@@IEAA_NXZ 000000018008a550 f i libucrtd:output.obj
 0001:00089580       ?update_precision@?$standard_base@_WV?$string_output_adapter@_W@__crt_stdio_output@@@__crt_stdio_output@@IEAA_NXZ 000000018008a580 f i libucrtd:output.obj
 0001:000895b0       ?valid@?$cached@H@__crt_cached_ptd_host@@QEBA_NXZ 000000018008a5b0 f i libucrtd:output.obj
 0001:000895c0       ?valid@?$cached@K@__crt_cached_ptd_host@@QEBA_NXZ 000000018008a5c0 f i libucrtd:output.obj
 0001:000895d0       ?valid@__crt_stdio_stream@@QEBA_NXZ 000000018008a5d0 f i libucrtd:output.obj
 0001:00089600       ?validate@?$c_string_character_source@D@__crt_strtox@@QEBA_NXZ 000000018008a600 f i libucrtd:output.obj
 0001:000896c0       ?validate@?$c_string_character_source@_W@__crt_strtox@@QEBA_NXZ 000000018008a6c0 f i libucrtd:output.obj
 0001:00089780       ?validate@?$stream_output_adapter@D@__crt_stdio_output@@QEBA_NAEAV__crt_cached_ptd_host@@@Z 000000018008a780 f i libucrtd:output.obj
 0001:00089880       ?validate@?$stream_output_adapter@_W@__crt_stdio_output@@QEBA_NAEAV__crt_cached_ptd_host@@@Z 000000018008a880 f i libucrtd:output.obj
 0001:00089980       ?validate@?$string_output_adapter@D@__crt_stdio_output@@QEBA_NAEAV__crt_cached_ptd_host@@@Z 000000018008a980 f i libucrtd:output.obj
 0001:00089a60       ?validate@?$string_output_adapter@_W@__crt_stdio_output@@QEBA_NAEAV__crt_cached_ptd_host@@@Z 000000018008aa60 f i libucrtd:output.obj
 0001:00089b40       ?validate_and_store_parameter_data@?$positional_parameter_base@DV?$stream_output_adapter@D@__crt_stdio_output@@@__crt_stdio_output@@AEAA_NAEAUparameter_data@12@W4parameter_type@12@DW4length_modifier@2@@Z 000000018008ab40 f i libucrtd:output.obj
 0001:00089c80       ?validate_and_store_parameter_data@?$positional_parameter_base@DV?$string_output_adapter@D@__crt_stdio_output@@@__crt_stdio_output@@AEAA_NAEAUparameter_data@12@W4parameter_type@12@DW4length_modifier@2@@Z 000000018008ac80 f i libucrtd:output.obj
 0001:00089dc0       ?validate_and_store_parameter_data@?$positional_parameter_base@_WV?$stream_output_adapter@_W@__crt_stdio_output@@@__crt_stdio_output@@AEAA_NAEAUparameter_data@12@W4parameter_type@12@_WW4length_modifier@2@@Z 000000018008adc0 f i libucrtd:output.obj
 0001:00089f00       ?validate_and_store_parameter_data@?$positional_parameter_base@_WV?$string_output_adapter@_W@__crt_stdio_output@@@__crt_stdio_output@@AEAA_NAEAUparameter_data@12@W4parameter_type@12@_WW4length_modifier@2@@Z 000000018008af00 f i libucrtd:output.obj
 0001:0008a040       ?validate_and_update_state_at_beginning_of_format_character@?$positional_parameter_base@DV?$stream_output_adapter@D@__crt_stdio_output@@@__crt_stdio_output@@IEAA_NXZ 000000018008b040 f i libucrtd:output.obj
 0001:0008a2e0       ?validate_and_update_state_at_beginning_of_format_character@?$positional_parameter_base@DV?$string_output_adapter@D@__crt_stdio_output@@@__crt_stdio_output@@IEAA_NXZ 000000018008b2e0 f i libucrtd:output.obj
 0001:0008a580       ?validate_and_update_state_at_beginning_of_format_character@?$positional_parameter_base@_WV?$stream_output_adapter@_W@__crt_stdio_output@@@__crt_stdio_output@@IEAA_NXZ 000000018008b580 f i libucrtd:output.obj
 0001:0008a820       ?validate_and_update_state_at_beginning_of_format_character@?$positional_parameter_base@_WV?$string_output_adapter@_W@__crt_stdio_output@@@__crt_stdio_output@@IEAA_NXZ 000000018008b820 f i libucrtd:output.obj
 0001:0008aac0       ?validate_and_update_state_at_beginning_of_format_character@?$standard_base@DV?$stream_output_adapter@D@__crt_stdio_output@@@__crt_stdio_output@@IEAA_NXZ 000000018008bac0 f i libucrtd:output.obj
 0001:0008aad0       ?validate_and_update_state_at_beginning_of_format_character@?$standard_base@DV?$string_output_adapter@D@__crt_stdio_output@@@__crt_stdio_output@@IEAA_NXZ 000000018008bad0 f i libucrtd:output.obj
 0001:0008aae0       ?validate_and_update_state_at_beginning_of_format_character@?$standard_base@_WV?$stream_output_adapter@_W@__crt_stdio_output@@@__crt_stdio_output@@IEAA_NXZ 000000018008bae0 f i libucrtd:output.obj
 0001:0008aaf0       ?validate_and_update_state_at_beginning_of_format_character@?$standard_base@_WV?$string_output_adapter@_W@__crt_stdio_output@@@__crt_stdio_output@@IEAA_NXZ 000000018008baf0 f i libucrtd:output.obj
 0001:0008ab00       ?validate_and_update_state_at_end_of_format_string@?$format_validation_base@DV?$stream_output_adapter@D@__crt_stdio_output@@@__crt_stdio_output@@IEAA_NXZ 000000018008bb00 f i libucrtd:output.obj
 0001:0008abf0       ?validate_and_update_state_at_end_of_format_string@?$format_validation_base@DV?$string_output_adapter@D@__crt_stdio_output@@@__crt_stdio_output@@IEAA_NXZ 000000018008bbf0 f i libucrtd:output.obj
 0001:0008ace0       ?validate_and_update_state_at_end_of_format_string@?$format_validation_base@_WV?$stream_output_adapter@_W@__crt_stdio_output@@@__crt_stdio_output@@IEAA_NXZ 000000018008bce0 f i libucrtd:output.obj
 0001:0008add0       ?validate_and_update_state_at_end_of_format_string@?$format_validation_base@_WV?$string_output_adapter@_W@__crt_stdio_output@@@__crt_stdio_output@@IEAA_NXZ 000000018008bdd0 f i libucrtd:output.obj
 0001:0008aec0       ?validate_and_update_state_at_end_of_format_string@?$positional_parameter_base@DV?$stream_output_adapter@D@__crt_stdio_output@@@__crt_stdio_output@@IEAA_NXZ 000000018008bec0 f i libucrtd:output.obj
 0001:0008b0f0       ?validate_and_update_state_at_end_of_format_string@?$positional_parameter_base@DV?$string_output_adapter@D@__crt_stdio_output@@@__crt_stdio_output@@IEAA_NXZ 000000018008c0f0 f i libucrtd:output.obj
 0001:0008b320       ?validate_and_update_state_at_end_of_format_string@?$positional_parameter_base@_WV?$stream_output_adapter@_W@__crt_stdio_output@@@__crt_stdio_output@@IEAA_NXZ 000000018008c320 f i libucrtd:output.obj
 0001:0008b550       ?validate_and_update_state_at_end_of_format_string@?$positional_parameter_base@_WV?$string_output_adapter@_W@__crt_stdio_output@@@__crt_stdio_output@@IEAA_NXZ 000000018008c550 f i libucrtd:output.obj
 0001:0008b780       ?validate_and_update_state_at_end_of_format_string@?$standard_base@DV?$stream_output_adapter@D@__crt_stdio_output@@@__crt_stdio_output@@IEBA_NXZ 000000018008c780 f i libucrtd:output.obj
 0001:0008b790       ?validate_and_update_state_at_end_of_format_string@?$standard_base@DV?$string_output_adapter@D@__crt_stdio_output@@@__crt_stdio_output@@IEBA_NXZ 000000018008c790 f i libucrtd:output.obj
 0001:0008b7a0       ?validate_and_update_state_at_end_of_format_string@?$standard_base@_WV?$stream_output_adapter@_W@__crt_stdio_output@@@__crt_stdio_output@@IEBA_NXZ 000000018008c7a0 f i libucrtd:output.obj
 0001:0008b7b0       ?validate_and_update_state_at_end_of_format_string@?$standard_base@_WV?$string_output_adapter@_W@__crt_stdio_output@@@__crt_stdio_output@@IEBA_NXZ 000000018008c7b0 f i libucrtd:output.obj
 0001:0008b7c0       ?validate_state_for_type_case_a@?$positional_parameter_base@DV?$stream_output_adapter@D@__crt_stdio_output@@@__crt_stdio_output@@IEAA_NXZ 000000018008c7c0 f i libucrtd:output.obj
 0001:0008b920       ?validate_state_for_type_case_a@?$positional_parameter_base@DV?$string_output_adapter@D@__crt_stdio_output@@@__crt_stdio_output@@IEAA_NXZ 000000018008c920 f i libucrtd:output.obj
 0001:0008ba80       ?validate_state_for_type_case_a@?$positional_parameter_base@_WV?$stream_output_adapter@_W@__crt_stdio_output@@@__crt_stdio_output@@IEAA_NXZ 000000018008ca80 f i libucrtd:output.obj
 0001:0008bbe0       ?validate_state_for_type_case_a@?$positional_parameter_base@_WV?$string_output_adapter@_W@__crt_stdio_output@@@__crt_stdio_output@@IEAA_NXZ 000000018008cbe0 f i libucrtd:output.obj
 0001:0008bd40       ?validate_state_for_type_case_a@?$standard_base@DV?$stream_output_adapter@D@__crt_stdio_output@@@__crt_stdio_output@@IEBA_NXZ 000000018008cd40 f i libucrtd:output.obj
 0001:0008bd50       ?validate_state_for_type_case_a@?$standard_base@DV?$string_output_adapter@D@__crt_stdio_output@@@__crt_stdio_output@@IEBA_NXZ 000000018008cd50 f i libucrtd:output.obj
 0001:0008bd60       ?validate_state_for_type_case_a@?$standard_base@_WV?$stream_output_adapter@_W@__crt_stdio_output@@@__crt_stdio_output@@IEBA_NXZ 000000018008cd60 f i libucrtd:output.obj
 0001:0008bd70       ?validate_state_for_type_case_a@?$standard_base@_WV?$string_output_adapter@_W@__crt_stdio_output@@@__crt_stdio_output@@IEBA_NXZ 000000018008cd70 f i libucrtd:output.obj
 0001:0008bd80       ?validate_stream_is_ansi_if_required@?$__acrt_stdio_char_traits@D@@SA_NQEAU_iobuf@@@Z 000000018008cd80 f i libucrtd:output.obj
 0001:0008bf10       ?validate_stream_is_ansi_if_required@?$__acrt_stdio_char_traits@_W@@SA_NQEAU_iobuf@@@Z 000000018008cf10 f i libucrtd:output.obj
 0001:0008bf20       ?wide_character_to_digit@__crt_strtox@@YAH_W@Z 000000018008cf20 f i libucrtd:output.obj
 0001:0008c290       ?wide_null_string@?$output_processor@DV?$stream_output_adapter@D@__crt_stdio_output@@V?$format_validation_base@DV?$stream_output_adapter@D@__crt_stdio_output@@@2@@__crt_stdio_output@@CAPEA_WXZ 000000018008d290 f i libucrtd:output.obj
 0001:0008c2a0       ?wide_null_string@?$output_processor@DV?$stream_output_adapter@D@__crt_stdio_output@@V?$positional_parameter_base@DV?$stream_output_adapter@D@__crt_stdio_output@@@2@@__crt_stdio_output@@CAPEA_WXZ 000000018008d2a0 f i libucrtd:output.obj
 0001:0008c2b0       ?wide_null_string@?$output_processor@DV?$stream_output_adapter@D@__crt_stdio_output@@V?$standard_base@DV?$stream_output_adapter@D@__crt_stdio_output@@@2@@__crt_stdio_output@@CAPEA_WXZ 000000018008d2b0 f i libucrtd:output.obj
 0001:0008c2c0       ?wide_null_string@?$output_processor@DV?$string_output_adapter@D@__crt_stdio_output@@V?$format_validation_base@DV?$string_output_adapter@D@__crt_stdio_output@@@2@@__crt_stdio_output@@CAPEA_WXZ 000000018008d2c0 f i libucrtd:output.obj
 0001:0008c2d0       ?wide_null_string@?$output_processor@DV?$string_output_adapter@D@__crt_stdio_output@@V?$positional_parameter_base@DV?$string_output_adapter@D@__crt_stdio_output@@@2@@__crt_stdio_output@@CAPEA_WXZ 000000018008d2d0 f i libucrtd:output.obj
 0001:0008c2e0       ?wide_null_string@?$output_processor@DV?$string_output_adapter@D@__crt_stdio_output@@V?$standard_base@DV?$string_output_adapter@D@__crt_stdio_output@@@2@@__crt_stdio_output@@CAPEA_WXZ 000000018008d2e0 f i libucrtd:output.obj
 0001:0008c2f0       ?wide_null_string@?$output_processor@_WV?$stream_output_adapter@_W@__crt_stdio_output@@V?$format_validation_base@_WV?$stream_output_adapter@_W@__crt_stdio_output@@@2@@__crt_stdio_output@@CAPEA_WXZ 000000018008d2f0 f i libucrtd:output.obj
 0001:0008c300       ?wide_null_string@?$output_processor@_WV?$stream_output_adapter@_W@__crt_stdio_output@@V?$positional_parameter_base@_WV?$stream_output_adapter@_W@__crt_stdio_output@@@2@@__crt_stdio_output@@CAPEA_WXZ 000000018008d300 f i libucrtd:output.obj
 0001:0008c310       ?wide_null_string@?$output_processor@_WV?$stream_output_adapter@_W@__crt_stdio_output@@V?$standard_base@_WV?$stream_output_adapter@_W@__crt_stdio_output@@@2@@__crt_stdio_output@@CAPEA_WXZ 000000018008d310 f i libucrtd:output.obj
 0001:0008c320       ?wide_null_string@?$output_processor@_WV?$string_output_adapter@_W@__crt_stdio_output@@V?$format_validation_base@_WV?$string_output_adapter@_W@__crt_stdio_output@@@2@@__crt_stdio_output@@CAPEA_WXZ 000000018008d320 f i libucrtd:output.obj
 0001:0008c330       ?wide_null_string@?$output_processor@_WV?$string_output_adapter@_W@__crt_stdio_output@@V?$positional_parameter_base@_WV?$string_output_adapter@_W@__crt_stdio_output@@@2@@__crt_stdio_output@@CAPEA_WXZ 000000018008d330 f i libucrtd:output.obj
 0001:0008c340       ?wide_null_string@?$output_processor@_WV?$string_output_adapter@_W@__crt_stdio_output@@V?$standard_base@_WV?$string_output_adapter@_W@__crt_stdio_output@@@2@@__crt_stdio_output@@CAPEA_WXZ 000000018008d340 f i libucrtd:output.obj
 0001:0008c350       ?write_character@?$output_adapter_common@DV?$stream_output_adapter@D@__crt_stdio_output@@@__crt_stdio_output@@QEBAXDQEAHAEAV__crt_cached_ptd_host@@@Z 000000018008d350 f i libucrtd:output.obj
 0001:0008c3b0       ?write_character@?$output_adapter_common@_WV?$stream_output_adapter@_W@__crt_stdio_output@@@__crt_stdio_output@@QEBAX_WQEAHAEAV__crt_cached_ptd_host@@@Z 000000018008d3b0 f i libucrtd:output.obj
 0001:0008c410       ?write_character@?$string_output_adapter@D@__crt_stdio_output@@QEBA_NDQEAHAEAV__crt_cached_ptd_host@@@Z 000000018008d410 f i libucrtd:output.obj
 0001:0008c4e0       ?write_character@?$string_output_adapter@_W@__crt_stdio_output@@QEBA_N_WQEAHAEAV__crt_cached_ptd_host@@@Z 000000018008d4e0 f i libucrtd:output.obj
 0001:0008c5b0       ?write_character_without_count_update@?$stream_output_adapter@D@__crt_stdio_output@@QEBA_NDAEAV__crt_cached_ptd_host@@@Z 000000018008d5b0 f i libucrtd:output.obj
 0001:0008c640       ?write_character_without_count_update@?$stream_output_adapter@_W@__crt_stdio_output@@QEBA_N_WAEAV__crt_cached_ptd_host@@@Z 000000018008d640 f i libucrtd:output.obj
 0001:0008c6d0       ?write_stored_string_tchar@?$output_processor@DV?$stream_output_adapter@D@__crt_stdio_output@@V?$format_validation_base@DV?$stream_output_adapter@D@__crt_stdio_output@@@2@@__crt_stdio_output@@AEAA_ND@Z 000000018008d6d0 f i libucrtd:output.obj
 0001:0008c880       ?write_stored_string_tchar@?$output_processor@DV?$stream_output_adapter@D@__crt_stdio_output@@V?$positional_parameter_base@DV?$stream_output_adapter@D@__crt_stdio_output@@@2@@__crt_stdio_output@@AEAA_ND@Z 000000018008d880 f i libucrtd:output.obj
 0001:0008ca30       ?write_stored_string_tchar@?$output_processor@DV?$stream_output_adapter@D@__crt_stdio_output@@V?$standard_base@DV?$stream_output_adapter@D@__crt_stdio_output@@@2@@__crt_stdio_output@@AEAA_ND@Z 000000018008da30 f i libucrtd:output.obj
 0001:0008cbe0       ?write_stored_string_tchar@?$output_processor@DV?$string_output_adapter@D@__crt_stdio_output@@V?$format_validation_base@DV?$string_output_adapter@D@__crt_stdio_output@@@2@@__crt_stdio_output@@AEAA_ND@Z 000000018008dbe0 f i libucrtd:output.obj
 0001:0008cd90       ?write_stored_string_tchar@?$output_processor@DV?$string_output_adapter@D@__crt_stdio_output@@V?$positional_parameter_base@DV?$string_output_adapter@D@__crt_stdio_output@@@2@@__crt_stdio_output@@AEAA_ND@Z 000000018008dd90 f i libucrtd:output.obj
 0001:0008cf40       ?write_stored_string_tchar@?$output_processor@DV?$string_output_adapter@D@__crt_stdio_output@@V?$standard_base@DV?$string_output_adapter@D@__crt_stdio_output@@@2@@__crt_stdio_output@@AEAA_ND@Z 000000018008df40 f i libucrtd:output.obj
 0001:0008d0f0       ?write_stored_string_tchar@?$output_processor@_WV?$stream_output_adapter@_W@__crt_stdio_output@@V?$format_validation_base@_WV?$stream_output_adapter@_W@__crt_stdio_output@@@2@@__crt_stdio_output@@AEAA_N_W@Z 000000018008e0f0 f i libucrtd:output.obj
 0001:0008d250       ?write_stored_string_tchar@?$output_processor@_WV?$stream_output_adapter@_W@__crt_stdio_output@@V?$positional_parameter_base@_WV?$stream_output_adapter@_W@__crt_stdio_output@@@2@@__crt_stdio_output@@AEAA_N_W@Z 000000018008e250 f i libucrtd:output.obj
 0001:0008d3b0       ?write_stored_string_tchar@?$output_processor@_WV?$stream_output_adapter@_W@__crt_stdio_output@@V?$standard_base@_WV?$stream_output_adapter@_W@__crt_stdio_output@@@2@@__crt_stdio_output@@AEAA_N_W@Z 000000018008e3b0 f i libucrtd:output.obj
 0001:0008d510       ?write_stored_string_tchar@?$output_processor@_WV?$string_output_adapter@_W@__crt_stdio_output@@V?$format_validation_base@_WV?$string_output_adapter@_W@__crt_stdio_output@@@2@@__crt_stdio_output@@AEAA_N_W@Z 000000018008e510 f i libucrtd:output.obj
 0001:0008d670       ?write_stored_string_tchar@?$output_processor@_WV?$string_output_adapter@_W@__crt_stdio_output@@V?$positional_parameter_base@_WV?$string_output_adapter@_W@__crt_stdio_output@@@2@@__crt_stdio_output@@AEAA_N_W@Z 000000018008e670 f i libucrtd:output.obj
 0001:0008d7d0       ?write_stored_string_tchar@?$output_processor@_WV?$string_output_adapter@_W@__crt_stdio_output@@V?$standard_base@_WV?$string_output_adapter@_W@__crt_stdio_output@@@2@@__crt_stdio_output@@AEAA_N_W@Z 000000018008e7d0 f i libucrtd:output.obj
 0001:0008d930       ?write_string@?$stream_output_adapter@D@__crt_stdio_output@@QEBAXQEBDHQEAHAEAV__crt_cached_ptd_host@@@Z 000000018008e930 f i libucrtd:output.obj
 0001:0008d9b0       ?write_string@?$stream_output_adapter@_W@__crt_stdio_output@@QEBAXQEB_WHQEAHAEAV__crt_cached_ptd_host@@@Z 000000018008e9b0 f i libucrtd:output.obj
 0001:0008da30       ?write_string@?$string_output_adapter@D@__crt_stdio_output@@QEBAXQEBDHQEAHAEAV__crt_cached_ptd_host@@@Z 000000018008ea30 f i libucrtd:output.obj
 0001:0008dba0       ?write_string@?$string_output_adapter@_W@__crt_stdio_output@@QEBAXQEB_WHQEAHAEAV__crt_cached_ptd_host@@@Z 000000018008eba0 f i libucrtd:output.obj
 0001:0008dd10       ?write_string_impl@?$output_adapter_common@DV?$stream_output_adapter@D@__crt_stdio_output@@@__crt_stdio_output@@IEBAXQEBDHQEAHAEAV__crt_cached_ptd_host@@@Z 000000018008ed10 f i libucrtd:output.obj
 0001:0008de30       ?write_string_impl@?$output_adapter_common@_WV?$stream_output_adapter@_W@__crt_stdio_output@@@__crt_stdio_output@@IEBAXQEB_WHQEAHAEAV__crt_cached_ptd_host@@@Z 000000018008ee30 f i libucrtd:output.obj
 0001:0008df50       __acrt_disable_global_locale_sync 000000018008ef50 f i libucrtd:output.obj
 0001:0008df80       __acrt_enable_global_locale_sync 000000018008ef80 f i libucrtd:output.obj
 0001:0008dfb0       __acrt_isleadbyte_l_noupdate 000000018008efb0 f i libucrtd:output.obj
 0001:0008dfe0       __acrt_locale_changed      000000018008efe0 f i libucrtd:output.obj
 0001:0008e010       __acrt_locale_get_ctype_array_value 000000018008f010 f i libucrtd:output.obj
 0001:0008e050       __ascii_iswalpha           000000018008f050 f i libucrtd:output.obj
 0001:0008e090       __ascii_toupper            000000018008f090 f i libucrtd:output.obj
 0001:0008e0b0       __ascii_towupper           000000018008f0b0 f i libucrtd:output.obj
 0001:0008e0d0       __stdio_common_vfprintf    000000018008f0d0 f   libucrtd:output.obj
 0001:0008e150       __stdio_common_vfprintf_p  000000018008f150 f   libucrtd:output.obj
 0001:0008e1d0       __stdio_common_vfprintf_s  000000018008f1d0 f   libucrtd:output.obj
 0001:0008e250       __stdio_common_vfwprintf   000000018008f250 f   libucrtd:output.obj
 0001:0008e2d0       __stdio_common_vfwprintf_p 000000018008f2d0 f   libucrtd:output.obj
 0001:0008e350       __stdio_common_vfwprintf_s 000000018008f350 f   libucrtd:output.obj
 0001:0008e3d0       __stdio_common_vsnprintf_s 000000018008f3d0 f   libucrtd:output.obj
 0001:0008e460       __stdio_common_vsnwprintf_s 000000018008f460 f   libucrtd:output.obj
 0001:0008e4f0       __stdio_common_vsprintf    000000018008f4f0 f   libucrtd:output.obj
 0001:0008e580       __stdio_common_vsprintf_p  000000018008f580 f   libucrtd:output.obj
 0001:0008e610       __stdio_common_vsprintf_s  000000018008f610 f   libucrtd:output.obj
 0001:0008e6a0       __stdio_common_vswprintf   000000018008f6a0 f   libucrtd:output.obj
 0001:0008e730       __stdio_common_vswprintf_p 000000018008f730 f   libucrtd:output.obj
 0001:0008e7c0       __stdio_common_vswprintf_s 000000018008f7c0 f   libucrtd:output.obj
 0001:0008e850       _ctype_fast_check_internal 000000018008f850 f i libucrtd:output.obj
 0001:0008e880       _isdigit_fast_internal     000000018008f880 f i libucrtd:output.obj
 0001:0008e8b0       _tolower_fast_internal     000000018008f8b0 f i libucrtd:output.obj
 0001:0008e8e0       free                       000000018008f8e0 f   libucrtd:free.obj
 0001:0008e910       malloc                     000000018008f910 f   libucrtd:malloc.obj
 0001:0008e940       ??$?RU?$__crt_report_hook_node@D@@@__crt_internal_free_policy@@QEBAXQEBU?$__crt_report_hook_node@D@@@Z 000000018008f940 f i libucrtd:dbgrpt.obj
 0001:0008e970       ??$?RU?$__crt_report_hook_node@_W@@@__crt_internal_free_policy@@QEBAXQEBU?$__crt_report_hook_node@_W@@@Z 000000018008f970 f i libucrtd:dbgrpt.obj
 0001:0008fbd0       ??$get_module_file_name@AEAPEAUHINSTANCE__@@AEAY0BAF@DK@?$__crt_char_traits@D@@SAKAEAPEAUHINSTANCE__@@AEAY0BAF@D$$QEAK@Z 0000000180090bd0 f i libucrtd:dbgrpt.obj
 0001:0008fc10       ??$get_module_file_name@AEAPEAUHINSTANCE__@@AEAY0BAF@_WK@?$__crt_char_traits@_W@@SAKAEAPEAUHINSTANCE__@@AEAY0BAF@_W$$QEAK@Z 0000000180090c10 f i libucrtd:dbgrpt.obj
 0001:0008fc50       ??$tcscpy_s@AEAY0BAF@D_KPEBD@?$__crt_char_traits@D@@SAHAEAY0BAF@D$$QEA_K$$QEAPEBD@Z 0000000180090c50 f i libucrtd:dbgrpt.obj
 0001:0008fc90       ??$tcscpy_s@AEAY0BAF@_W_KPEB_W@?$__crt_char_traits@_W@@SAHAEAY0BAF@_W$$QEA_K$$QEAPEB_W@Z 0000000180090c90 f i libucrtd:dbgrpt.obj
 0001:0008fcd0       ??$tcslen@AEAY0BAF@D@?$__crt_char_traits@D@@SA_KAEAY0BAF@D@Z 0000000180090cd0 f i libucrtd:dbgrpt.obj
 0001:0008fcf0       ??$tcslen@AEAY0BAF@_W@?$__crt_char_traits@_W@@SA_KAEAY0BAF@_W@Z 0000000180090cf0 f i libucrtd:dbgrpt.obj
 0001:0008fd10       ??$tcslen@AEBQEBD@?$__crt_char_traits@D@@SA_KAEBQEBD@Z 0000000180090d10 f i libucrtd:dbgrpt.obj
 0001:0008fd30       ??$tcslen@AEBQEB_W@?$__crt_char_traits@_W@@SA_KAEBQEB_W@Z 0000000180090d30 f i libucrtd:dbgrpt.obj
 0001:0008fe30       ??0?$__crt_unique_heap_ptr@U?$__crt_report_hook_node@D@@U__crt_internal_free_policy@@@@QEAA@QEAU?$__crt_report_hook_node@D@@@Z 0000000180090e30 f i libucrtd:dbgrpt.obj
 0001:0008fe50       ??0?$__crt_unique_heap_ptr@U?$__crt_report_hook_node@_W@@U__crt_internal_free_policy@@@@QEAA@QEAU?$__crt_report_hook_node@_W@@@Z 0000000180090e50 f i libucrtd:dbgrpt.obj
 0001:0008fe70       ??1?$__crt_unique_heap_ptr@U?$__crt_report_hook_node@D@@U__crt_internal_free_policy@@@@QEAA@XZ 0000000180090e70 f i libucrtd:dbgrpt.obj
 0001:0008fe90       ??1?$__crt_unique_heap_ptr@U?$__crt_report_hook_node@_W@@U__crt_internal_free_policy@@@@QEAA@XZ 0000000180090e90 f i libucrtd:dbgrpt.obj
 0001:0008feb0       ??B?$__crt_unique_heap_ptr@U?$__crt_report_hook_node@D@@U__crt_internal_free_policy@@@@QEBA_NXZ 0000000180090eb0 f i libucrtd:dbgrpt.obj
 0001:0008fed0       ??B?$__crt_unique_heap_ptr@U?$__crt_report_hook_node@_W@@U__crt_internal_free_policy@@@@QEBA_NXZ 0000000180090ed0 f i libucrtd:dbgrpt.obj
 0001:000905f0       ?detach@?$__crt_unique_heap_ptr@U?$__crt_report_hook_node@D@@U__crt_internal_free_policy@@@@QEAAPEAU?$__crt_report_hook_node@D@@XZ 00000001800915f0 f i libucrtd:dbgrpt.obj
 0001:00090620       ?detach@?$__crt_unique_heap_ptr@U?$__crt_report_hook_node@_W@@U__crt_internal_free_policy@@@@QEAAPEAU?$__crt_report_hook_node@_W@@XZ 0000000180091620 f i libucrtd:dbgrpt.obj
 0001:00090650       ?get@?$__crt_unique_heap_ptr@U?$__crt_report_hook_node@D@@U__crt_internal_free_policy@@@@QEBAPEAU?$__crt_report_hook_node@D@@XZ 0000000180091650 f i libucrtd:dbgrpt.obj
 0001:00090660       ?get@?$__crt_unique_heap_ptr@U?$__crt_report_hook_node@_W@@U__crt_internal_free_policy@@@@QEBAPEAU?$__crt_report_hook_node@_W@@XZ 0000000180091660 f i libucrtd:dbgrpt.obj
 0001:000906d0       ?is_valid@?$__crt_unique_heap_ptr@U?$__crt_report_hook_node@D@@U__crt_internal_free_policy@@@@QEBA_NXZ 00000001800916d0 f i libucrtd:dbgrpt.obj
 0001:00090700       ?is_valid@?$__crt_unique_heap_ptr@U?$__crt_report_hook_node@_W@@U__crt_internal_free_policy@@@@QEBA_NXZ 0000000180091700 f i libucrtd:dbgrpt.obj
 0001:00090730       ?release@?$__crt_unique_heap_ptr@U?$__crt_report_hook_node@D@@U__crt_internal_free_policy@@@@QEAAXXZ 0000000180091730 f i libucrtd:dbgrpt.obj
 0001:00090760       ?release@?$__crt_unique_heap_ptr@U?$__crt_report_hook_node@_W@@U__crt_internal_free_policy@@@@QEAAXXZ 0000000180091760 f i libucrtd:dbgrpt.obj
 0001:00090790       _CrtDbgReport              0000000180091790 f   libucrtd:dbgrpt.obj
 0001:00090810       _CrtDbgReportW             0000000180091810 f   libucrtd:dbgrpt.obj
 0001:00090890       _CrtSetReportHook2         0000000180091890 f   libucrtd:dbgrpt.obj
 0001:000908b0       _CrtSetReportHookW2        00000001800918b0 f   libucrtd:dbgrpt.obj
 0001:000908d0       __acrt_MessageWindowA      00000001800918d0 f   libucrtd:dbgrpt.obj
 0001:00090920       __acrt_MessageWindowW      0000000180091920 f   libucrtd:dbgrpt.obj
 0001:00090970       _invoke_watson_if_error    0000000180091970 f i libucrtd:dbgrpt.obj
 0001:000909c0       _invoke_watson_if_oneof    00000001800919c0 f i libucrtd:dbgrpt.obj
 0001:00090a20       _snwprintf_s               0000000180091a20 f i libucrtd:dbgrpt.obj
 0001:00090a90       _vsnwprintf_s_l            0000000180091a90 f i libucrtd:dbgrpt.obj
 0001:00091010       wcscpy_s                   0000000180092010 f   libucrtd:wcscpy_s.obj
 0001:000923a0       ??1?$__crt_simd_cleanup_guard@$00@@QEAA@XZ 00000001800933a0 f i libucrtd:strnlen.obj
 0001:000923b0       ??1?$__crt_simd_cleanup_guard@$0A@@@QEAA@XZ 00000001800933b0 f i libucrtd:strnlen.obj
 0001:000923c0       ?compare_equals@?$__crt_simd_traits@$00E@@SA?AT__m256i@@T2@0@Z 00000001800933c0 f i libucrtd:strnlen.obj
 0001:00092400       ?compare_equals@?$__crt_simd_traits@$00G@@SA?AT__m256i@@T2@0@Z 0000000180093400 f i libucrtd:strnlen.obj
 0001:00092440       ?compare_equals@?$__crt_simd_traits@$0A@E@@SA?AT__m128i@@T2@0@Z 0000000180093440 f i libucrtd:strnlen.obj
 0001:00092470       ?compare_equals@?$__crt_simd_traits@$0A@G@@SA?AT__m128i@@T2@0@Z 0000000180093470 f i libucrtd:strnlen.obj
 0001:000924a0       ?compute_byte_mask@?$__crt_simd_pack_traits@$00@@SAHT__m256i@@@Z 00000001800934a0 f i libucrtd:strnlen.obj
 0001:000924c0       ?compute_byte_mask@?$__crt_simd_pack_traits@$0A@@@SAHT__m128i@@@Z 00000001800934c0 f i libucrtd:strnlen.obj
 0001:000924e0       ?get_zero_pack@?$__crt_simd_pack_traits@$00@@SA?AT__m256i@@XZ 00000001800934e0 f i libucrtd:strnlen.obj
 0001:00092510       ?get_zero_pack@?$__crt_simd_pack_traits@$0A@@@SA?AT__m128i@@XZ 0000000180093510 f i libucrtd:strnlen.obj
 0001:00092530       strnlen                    0000000180093530 f   libucrtd:strnlen.obj
 0001:00092560       wcslen                     0000000180093560 f   libucrtd:strnlen.obj
 0001:00092580       wcsnlen                    0000000180093580 f   libucrtd:strnlen.obj
 0001:000925b0       ??$__crt_fast_decode_pointer@P6AXPEB_W00I_K@Z@@YAP6AXPEB_W00I_K@ZQ6AX000I1@Z@Z 00000001800935b0 f i libucrtd:invalid_parameter.obj
 0001:000925f0       ??$__crt_fast_encode_pointer@P6AXPEB_W00I_K@Z@@YAP6AXPEB_W00I_K@ZQ6AX000I1@Z@Z 00000001800935f0 f i libucrtd:invalid_parameter.obj
 0001:00092630       ??$initialize_from_array@$$BY00Q6AXPEB_W00I_K@Z@?$dual_state_global@P6AXPEB_W00I_K@Z@__crt_state_management@@QEAAXAEAY00Q6AXPEB_W00I_K@Z@Z 0000000180093630 f i libucrtd:invalid_parameter.obj
 0001:00092690       ?__crt_rotate_pointer_value@@YA_K_KH@Z 0000000180093690 f i libucrtd:invalid_parameter.obj
 0001:00092750       ?check_synchronize_global_state_index@__crt_cached_ptd_host@@AEAA_KXZ 0000000180093750 f i libucrtd:invalid_parameter.obj
 0001:000927b0       ?dangerous_get_state_array@?$dual_state_global@P6AXPEB_W00I_K@Z@__crt_state_management@@QEAAPEAP6AXPEB_W00I_K@ZXZ 00000001800937b0 f i libucrtd:invalid_parameter.obj
 0001:000927c0       ?get_current_global_state_index@__crt_cached_ptd_host@@QEAA_KXZ 00000001800937c0 f i libucrtd:invalid_parameter.obj
 0001:000927e0       ?get_current_state_index@__crt_state_management@@YA_KXZ 00000001800937e0 f i libucrtd:invalid_parameter.obj
 0001:000927f0       ?get_raw_ptd_noexit@__crt_cached_ptd_host@@QEAAPEAU__acrt_ptd@@XZ 00000001800937f0 f i libucrtd:invalid_parameter.obj
 0001:00092810       ?try_synchronize_per_thread_data@__crt_cached_ptd_host@@AEAAPEAU__acrt_ptd@@XZ 0000000180093810 f i libucrtd:invalid_parameter.obj
 0001:00092840       ?value@?$dual_state_global@P6AXPEB_W00I_K@Z@__crt_state_management@@QEAAAEAP6AXPEB_W00I_K@ZAEAV__crt_cached_ptd_host@@@Z 0000000180093840 f i libucrtd:invalid_parameter.obj
 0001:00092870       ?value@?$dual_state_global@P6AXPEB_W00I_K@Z@__crt_state_management@@QEAAAEAP6AXPEB_W00I_K@ZXZ 0000000180093870 f i libucrtd:invalid_parameter.obj
 0001:00092890       __acrt_call_reportfault    0000000180093890 f   libucrtd:invalid_parameter.obj
 0001:000929c0       __acrt_initialize_invalid_parameter_handler 00000001800939c0 f   libucrtd:invalid_parameter.obj
 0001:000929f0       _get_invalid_parameter_handler 00000001800939f0 f   libucrtd:invalid_parameter.obj
 0001:00092a10       _get_thread_local_invalid_parameter_handler 0000000180093a10 f   libucrtd:invalid_parameter.obj
 0001:00092a40       _invalid_parameter         0000000180093a40 f   libucrtd:invalid_parameter.obj
 0001:00092ab0       _invalid_parameter_internal 0000000180093ab0 f   libucrtd:invalid_parameter.obj
 0001:00092c00       _invalid_parameter_noinfo  0000000180093c00 f   libucrtd:invalid_parameter.obj
 0001:00092c30       _invalid_parameter_noinfo_noreturn 0000000180093c30 f   libucrtd:invalid_parameter.obj
 0001:00092c70       _invoke_watson             0000000180093c70 f   libucrtd:invalid_parameter.obj
 0001:00092cd0       _set_invalid_parameter_handler 0000000180093cd0 f   libucrtd:invalid_parameter.obj
 0001:00092d20       _set_thread_local_invalid_parameter_handler 0000000180093d20 f   libucrtd:invalid_parameter.obj
 0001:00092d60       ?get_doserrno@__crt_cached_ptd_host@@QEAAAEAU?$cached@K@1@XZ 0000000180093d60 f i libucrtd:errno.obj
 0001:00092d70       ?set@?$cached@K@__crt_cached_ptd_host@@QEAAKK@Z 0000000180093d70 f i libucrtd:errno.obj
 0001:00092da0       __acrt_errno_from_os_error 0000000180093da0 f   libucrtd:errno.obj
 0001:00092e30       __acrt_errno_map_os_error  0000000180093e30 f   libucrtd:errno.obj
 0001:00092e60       __acrt_errno_map_os_error_ptd 0000000180093e60 f   libucrtd:errno.obj
 0001:00092ec0       __doserrno                 0000000180093ec0 f   libucrtd:errno.obj
 0001:00092ef0       _errno                     0000000180093ef0 f   libucrtd:errno.obj
 0001:00092f20       _get_doserrno              0000000180093f20 f   libucrtd:errno.obj
 0001:00092fe0       _get_errno                 0000000180093fe0 f   libucrtd:errno.obj
 0001:000930a0       _set_doserrno              00000001800940a0 f   libucrtd:errno.obj
 0001:000930e0       _set_errno                 00000001800940e0 f   libucrtd:errno.obj
 0001:00093120       calloc                     0000000180094120 f   libucrtd:calloc.obj
 0001:00093160       _recalloc                  0000000180094160 f   libucrtd:recalloc.obj
 0001:000931b0       _recalloc_base             00000001800941b0 f   libucrtd:recalloc.obj
 0001:00093290       _resetstkoflw              0000000180094290 f   libucrtd:resetstk.obj
 0001:00093a90       wcscat_s                   0000000180094a90 f   libucrtd:wcscat_s.obj
 0001:00094170       wcsncpy_s                  0000000180095170 f   libucrtd:wcsncpy_s.obj
 0001:000942f0       __isascii                  00000001800952f0 f   libucrtd:_ctype.obj
 0001:00094320       __iscsym                   0000000180095320 f   libucrtd:_ctype.obj
 0001:00094360       __iscsymf                  0000000180095360 f   libucrtd:_ctype.obj
 0001:000943a0       __toascii                  00000001800953a0 f   libucrtd:_ctype.obj
 0001:000943b0       _isalnum_l                 00000001800953b0 f   libucrtd:_ctype.obj
 0001:000943e0       _isalpha_l                 00000001800953e0 f   libucrtd:_ctype.obj
 0001:00094410       _isblank_l                 0000000180095410 f   libucrtd:_ctype.obj
 0001:00094440       _iscntrl_l                 0000000180095440 f   libucrtd:_ctype.obj
 0001:00094470       _iscsym_l                  0000000180095470 f   libucrtd:_ctype.obj
 0001:000944c0       _iscsymf_l                 00000001800954c0 f   libucrtd:_ctype.obj
 0001:00094510       _isdigit_l                 0000000180095510 f   libucrtd:_ctype.obj
 0001:00094540       _isgraph_l                 0000000180095540 f   libucrtd:_ctype.obj
 0001:00094570       _islower_l                 0000000180095570 f   libucrtd:_ctype.obj
 0001:000945a0       _isprint_l                 00000001800955a0 f   libucrtd:_ctype.obj
 0001:000945d0       _ispunct_l                 00000001800955d0 f   libucrtd:_ctype.obj
 0001:00094600       _isspace_l                 0000000180095600 f   libucrtd:_ctype.obj
 0001:00094630       _isupper_l                 0000000180095630 f   libucrtd:_ctype.obj
 0001:00094660       _isxdigit_l                0000000180095660 f   libucrtd:_ctype.obj
 0001:00094690       isalnum                    0000000180095690 f   libucrtd:_ctype.obj
 0001:000946b0       isalpha                    00000001800956b0 f   libucrtd:_ctype.obj
 0001:000946d0       isblank                    00000001800956d0 f   libucrtd:_ctype.obj
 0001:00094700       iscntrl                    0000000180095700 f   libucrtd:_ctype.obj
 0001:00094720       isdigit                    0000000180095720 f   libucrtd:_ctype.obj
 0001:00094740       isgraph                    0000000180095740 f   libucrtd:_ctype.obj
 0001:00094760       islower                    0000000180095760 f   libucrtd:_ctype.obj
 0001:00094780       isprint                    0000000180095780 f   libucrtd:_ctype.obj
 0001:000947a0       ispunct                    00000001800957a0 f   libucrtd:_ctype.obj
 0001:000947c0       isspace                    00000001800957c0 f   libucrtd:_ctype.obj
 0001:000947e0       isupper                    00000001800957e0 f   libucrtd:_ctype.obj
 0001:00094800       isxdigit                   0000000180095800 f   libucrtd:_ctype.obj
 0001:00094820       wcscat                     0000000180095820 f   libucrtd:wcscat.obj
 0001:000948b0       wcscpy                     00000001800958b0 f   libucrtd:wcscpy.obj
 0001:00095060       ??$open_file@AEBQEBDAEBQEBDAEBHPEAU_iobuf@@@?$__crt_char_traits@D@@SAPEAU_iobuf@@AEBQEBD0AEBH$$QEAPEAU1@@Z 0000000180096060 f i libucrtd:fopen.obj
 0001:000950b0       ??$open_file@AEBQEB_WAEBQEB_WAEBHPEAU_iobuf@@@?$__crt_char_traits@_W@@SAPEAU_iobuf@@AEBQEB_W0AEBH$$QEAPEAU1@@Z 00000001800960b0 f i libucrtd:fopen.obj
 0001:00095100       ?unlock@__crt_stdio_stream@@QEBAXXZ 0000000180096100 f i libucrtd:fopen.obj
 0001:00095120       _fsopen                    0000000180096120 f   libucrtd:fopen.obj
 0001:00095150       _wfopen                    0000000180096150 f   libucrtd:fopen.obj
 0001:00095180       _wfopen_s                  0000000180096180 f   libucrtd:fopen.obj
 0001:000951b0       _wfsopen                   00000001800961b0 f   libucrtd:fopen.obj
 0001:000951e0       fopen                      00000001800961e0 f   libucrtd:fopen.obj
 0001:00095210       fopen_s                    0000000180096210 f   libucrtd:fopen.obj
 0001:00095550       ?is_in_use@__crt_stdio_stream@@QEBA_NXZ 0000000180096550 f i libucrtd:fclose.obj
 0001:00095590       _fclose_nolock             0000000180096590 f   libucrtd:fclose.obj
 0001:000955d0       fclose                     00000001800965d0 f   libucrtd:fclose.obj
 0001:00095910       _fputc_nolock              0000000180096910 f   libucrtd:fputc.obj
 0001:00095960       _fputc_nolock_internal     0000000180096960 f   libucrtd:fputc.obj
 0001:00095a20       _fputchar                  0000000180096a20 f   libucrtd:fputc.obj
 0001:00095a50       _putc_nolock               0000000180096a50 f   libucrtd:fputc.obj
 0001:00095a70       fputc                      0000000180096a70 f   libucrtd:fputc.obj
 0001:00095ac0       putc                       0000000180096ac0 f   libucrtd:fputc.obj
 0001:00095ae0       putchar                    0000000180096ae0 f   libucrtd:fputc.obj
 0001:00095b70       _seh_filter_dll            0000000180096b70 f   libucrtd:exception_filter.obj
 0001:00095ba0       _seh_filter_exe            0000000180096ba0 f   libucrtd:exception_filter.obj
 0001:00095e70       ??$?B$$A6AXPEAXK0@Z@__crt_fast_encoded_nullptr_t@@QEBAP6AXPEAXK0@ZXZ 0000000180096e70 f i libucrtd:exit.obj
 0001:00095f30       ??$__crt_fast_decode_pointer@P6AXPEAXK0@Z@@YAP6AXPEAXK0@ZQ6AX0K0@Z@Z 0000000180096f30 f i libucrtd:exit.obj
 0001:00095f70       ??$__crt_fast_encode_pointer@P6AXPEAXK0@Z@@YAP6AXPEAXK0@ZQ6AX0K0@Z@Z 0000000180096f70 f i libucrtd:exit.obj
 0001:00095fb0       ??$__crt_get_proc_address@P6AXI@Z@@YAP6AXI@ZQEAUHINSTANCE__@@QEBD@Z 0000000180096fb0 f i libucrtd:exit.obj
 0001:00096070       ??0?$__crt_unique_handle_t@U__crt_hmodule_traits@@@@QEAA@QEAUHINSTANCE__@@@Z 0000000180097070 f i libucrtd:exit.obj
 0001:00096090       ??1?$__crt_unique_handle_t@U__crt_hmodule_traits@@@@QEAA@XZ 0000000180097090 f i libucrtd:exit.obj
 0001:00096210       ?__acrt_select_exit_lock@@YA?AW4__acrt_lock_id@@XZ 0000000180097210 f i libucrtd:exit.obj
 0001:00096220       ?__crt_fast_encode_pointer@@YA?AU__crt_fast_encoded_nullptr_t@@$$T@Z 0000000180097220 f i libucrtd:exit.obj
 0001:00096260       ?close@?$__crt_unique_handle_t@U__crt_hmodule_traits@@@@QEAAXXZ 0000000180097260 f i libucrtd:exit.obj
 0001:000962a0       ?close@__crt_hmodule_traits@@SA_NPEAUHINSTANCE__@@@Z 00000001800972a0 f i libucrtd:exit.obj
 0001:000963c0       ?get@?$__crt_unique_handle_t@U__crt_hmodule_traits@@@@QEBAPEAUHINSTANCE__@@XZ 00000001800973c0 f i libucrtd:exit.obj
 0001:000963d0       ?get_address_of@?$__crt_unique_handle_t@U__crt_hmodule_traits@@@@QEAAPEAPEAUHINSTANCE__@@XZ 00000001800973d0 f i libucrtd:exit.obj
 0001:000963e0       ?get_invalid_value@__crt_hmodule_traits@@SAPEAUHINSTANCE__@@XZ 00000001800973e0 f i libucrtd:exit.obj
 0001:000965c0       _Exit                      00000001800975c0 f   libucrtd:exit.obj
 0001:000965e0       __acrt_initialize_thread_local_exit_callback 00000001800975e0 f   libucrtd:exit.obj
 0001:00096600       _c_exit                    0000000180097600 f   libucrtd:exit.obj
 0001:00096620       _cexit                     0000000180097620 f   libucrtd:exit.obj
 0001:00096640       _exit                      0000000180097640 f   libucrtd:exit.obj
 0001:00096660       _is_c_termination_complete 0000000180097660 f   libucrtd:exit.obj
 0001:00096680       _register_thread_local_exe_atexit_callback 0000000180097680 f   libucrtd:exit.obj
 0001:000966d0       exit                       00000001800976d0 f   libucrtd:exit.obj
 0001:000966f0       quick_exit                 00000001800976f0 f   libucrtd:exit.obj
 0001:00096710       ??$?RE@__crt_internal_free_policy@@QEBAXQEBE@Z 0000000180097710 f i libucrtd:argv_parsing.obj
 0001:00096740       ??$?RPEAD@__crt_internal_free_policy@@QEBAXQEBQEAD@Z 0000000180097740 f i libucrtd:argv_parsing.obj
 0001:00096770       ??$?RPEA_W@__crt_internal_free_policy@@QEBAXQEBQEA_W@Z 0000000180097770 f i libucrtd:argv_parsing.obj
 0001:00096ec0       ??$get_module_file_name@$$TAEAY0BAF@DH@?$__crt_char_traits@D@@SAK$$QEA$$TAEAY0BAF@D$$QEAH@Z 0000000180097ec0 f i libucrtd:argv_parsing.obj
 0001:00096f00       ??$get_module_file_name@$$TAEAY0BAF@_WH@?$__crt_char_traits@_W@@SAK$$QEA$$TAEAY0BAF@_W$$QEAH@Z 0000000180097f00 f i libucrtd:argv_parsing.obj
 0001:00097900       ??$set_program_name@PEAD@?$__crt_char_traits@D@@SAX$$QEAPEAD@Z 0000000180098900 f i libucrtd:argv_parsing.obj
 0001:00097920       ??$set_program_name@PEA_W@?$__crt_char_traits@_W@@SAX$$QEAPEA_W@Z 0000000180098920 f i libucrtd:argv_parsing.obj
 0001:00097980       ??0?$__crt_unique_heap_ptr@EU__crt_internal_free_policy@@@@QEAA@QEAE@Z 0000000180098980 f i libucrtd:argv_parsing.obj
 0001:000979a0       ??0?$__crt_unique_heap_ptr@PEADU__crt_internal_free_policy@@@@QEAA@QEAPEAD@Z 00000001800989a0 f i libucrtd:argv_parsing.obj
 0001:000979c0       ??0?$__crt_unique_heap_ptr@PEA_WU__crt_internal_free_policy@@@@QEAA@QEAPEA_W@Z 00000001800989c0 f i libucrtd:argv_parsing.obj
 0001:000979e0       ??1?$__crt_unique_heap_ptr@EU__crt_internal_free_policy@@@@QEAA@XZ 00000001800989e0 f i libucrtd:argv_parsing.obj
 0001:00097a00       ??1?$__crt_unique_heap_ptr@PEADU__crt_internal_free_policy@@@@QEAA@XZ 0000000180098a00 f i libucrtd:argv_parsing.obj
 0001:00097a20       ??1?$__crt_unique_heap_ptr@PEA_WU__crt_internal_free_policy@@@@QEAA@XZ 0000000180098a20 f i libucrtd:argv_parsing.obj
 0001:00097a40       ??B?$__crt_unique_heap_ptr@EU__crt_internal_free_policy@@@@QEBA_NXZ 0000000180098a40 f i libucrtd:argv_parsing.obj
 0001:00097b20       ?detach@?$__crt_unique_heap_ptr@EU__crt_internal_free_policy@@@@QEAAPEAEXZ 0000000180098b20 f i libucrtd:argv_parsing.obj
 0001:00097b50       ?detach@?$__crt_unique_heap_ptr@PEADU__crt_internal_free_policy@@@@QEAAPEAPEADXZ 0000000180098b50 f i libucrtd:argv_parsing.obj
 0001:00097b80       ?detach@?$__crt_unique_heap_ptr@PEA_WU__crt_internal_free_policy@@@@QEAAPEAPEA_WXZ 0000000180098b80 f i libucrtd:argv_parsing.obj
 0001:00097c40       ?get@?$__crt_unique_heap_ptr@EU__crt_internal_free_policy@@@@QEBAPEAEXZ 0000000180098c40 f i libucrtd:argv_parsing.obj
 0001:00097c50       ?get@?$__crt_unique_heap_ptr@PEADU__crt_internal_free_policy@@@@QEBAPEAPEADXZ 0000000180098c50 f i libucrtd:argv_parsing.obj
 0001:00097c60       ?get@?$__crt_unique_heap_ptr@PEA_WU__crt_internal_free_policy@@@@QEBAPEAPEA_WXZ 0000000180098c60 f i libucrtd:argv_parsing.obj
 0001:00097c70       ?get_address_of@?$__crt_unique_heap_ptr@PEADU__crt_internal_free_policy@@@@QEAAPEAPEAPEADXZ 0000000180098c70 f i libucrtd:argv_parsing.obj
 0001:00097c80       ?get_address_of@?$__crt_unique_heap_ptr@PEA_WU__crt_internal_free_policy@@@@QEAAPEAPEAPEA_WXZ 0000000180098c80 f i libucrtd:argv_parsing.obj
 0001:00097cd0       ?is_valid@?$__crt_unique_heap_ptr@EU__crt_internal_free_policy@@@@QEBA_NXZ 0000000180098cd0 f i libucrtd:argv_parsing.obj
 0001:00097d00       ?release@?$__crt_unique_heap_ptr@EU__crt_internal_free_policy@@@@QEAAXXZ 0000000180098d00 f i libucrtd:argv_parsing.obj
 0001:00097d30       ?release@?$__crt_unique_heap_ptr@PEADU__crt_internal_free_policy@@@@QEAAXXZ 0000000180098d30 f i libucrtd:argv_parsing.obj
 0001:00097d60       ?release@?$__crt_unique_heap_ptr@PEA_WU__crt_internal_free_policy@@@@QEAAXXZ 0000000180098d60 f i libucrtd:argv_parsing.obj
 0001:00097de0       __acrt_allocate_buffer_for_argv 0000000180098de0 f   libucrtd:argv_parsing.obj
 0001:00097f00       _configure_narrow_argv     0000000180098f00 f   libucrtd:argv_parsing.obj
 0001:00097f20       _configure_wide_argv       0000000180098f20 f   libucrtd:argv_parsing.obj
 0001:00097f40       _set_pgmptr                0000000180098f40 f i libucrtd:argv_parsing.obj
 0001:00097f60       _set_wpgmptr               0000000180098f60 f i libucrtd:argv_parsing.obj
 0001:00097f80       ??$?R_W@__crt_internal_free_policy@@QEBAXQEB_W@Z 0000000180098f80 f i libucrtd:environment_initialization.obj
 0001:00098940       ??$get_environment_from_os@$$V@?$__crt_char_traits@D@@SAPEADXZ 0000000180099940 f i libucrtd:environment_initialization.obj
 0001:00098950       ??$get_environment_from_os@$$V@?$__crt_char_traits@_W@@SAPEA_WXZ 0000000180099950 f i libucrtd:environment_initialization.obj
 0001:00098c60       ??$set_variable_in_environment_nolock@PEADH@?$__crt_char_traits@D@@SAH$$QEAPEAD$$QEAH@Z 0000000180099c60 f i libucrtd:environment_initialization.obj
 0001:00098c90       ??$set_variable_in_environment_nolock@PEA_WH@?$__crt_char_traits@_W@@SAH$$QEAPEA_W$$QEAH@Z 0000000180099c90 f i libucrtd:environment_initialization.obj
 0001:00098cc0       ??$tcscpy_s@PEADAEB_KAEAPEAD@?$__crt_char_traits@D@@SAH$$QEAPEADAEB_KAEAPEAD@Z 0000000180099cc0 f i libucrtd:environment_initialization.obj
 0001:00098d00       ??$tcscpy_s@PEA_WAEB_KAEAPEA_W@?$__crt_char_traits@_W@@SAH$$QEAPEA_WAEB_KAEAPEA_W@Z 0000000180099d00 f i libucrtd:environment_initialization.obj
 0001:00098d40       ??$tcslen@AEAPEAD@?$__crt_char_traits@D@@SA_KAEAPEAD@Z 0000000180099d40 f i libucrtd:environment_initialization.obj
 0001:00098d60       ??$tcslen@AEAPEA_W@?$__crt_char_traits@_W@@SA_KAEAPEA_W@Z 0000000180099d60 f i libucrtd:environment_initialization.obj
 0001:00098d80       ??$uninitialize@A6AXAEAPEAPEAD@_E@?$dual_state_global@PEAPEAD@__crt_state_management@@QEAAXA6AXAEAPEAPEAD@_E@Z 0000000180099d80 f i libucrtd:environment_initialization.obj
 0001:00098e00       ??$uninitialize@A6AXAEAPEAPEA_W@_E@?$dual_state_global@PEAPEA_W@__crt_state_management@@QEAAXA6AXAEAPEAPEA_W@_E@Z 0000000180099e00 f i libucrtd:environment_initialization.obj
 0001:00098f00       ??0?$__crt_unique_heap_ptr@_WU__crt_internal_free_policy@@@@QEAA@QEA_W@Z 0000000180099f00 f i libucrtd:environment_initialization.obj
 0001:00098f20       ??1?$__crt_unique_heap_ptr@_WU__crt_internal_free_policy@@@@QEAA@XZ 0000000180099f20 f i libucrtd:environment_initialization.obj
 0001:00098f40       ??B?$__crt_unique_heap_ptr@PEADU__crt_internal_free_policy@@@@QEBA_NXZ 0000000180099f40 f i libucrtd:environment_initialization.obj
 0001:00098f60       ??B?$__crt_unique_heap_ptr@PEA_WU__crt_internal_free_policy@@@@QEBA_NXZ 0000000180099f60 f i libucrtd:environment_initialization.obj
 0001:00098f80       ??B?$__crt_unique_heap_ptr@_WU__crt_internal_free_policy@@@@QEBA_NXZ 0000000180099f80 f i libucrtd:environment_initialization.obj
 0001:00098fa0       ?__crt_compute_required_transform_buffer_count@@YA_KIQEBD@Z 0000000180099fa0 f i libucrtd:environment_initialization.obj
 0001:00098fe0       ?__crt_compute_required_transform_buffer_count@@YA_KIQEB_W@Z 0000000180099fe0 f i libucrtd:environment_initialization.obj
 0001:00099030       ?__crt_transform_string@@YA_KIQEBDQEA_W_K@Z 000000018009a030 f i libucrtd:environment_initialization.obj
 0001:00099080       ?__crt_transform_string@@YA_KIQEB_WQEAD_K@Z 000000018009a080 f i libucrtd:environment_initialization.obj
 0001:000990e0       ?detach@?$__crt_unique_heap_ptr@DU__crt_internal_free_policy@@@@QEAAPEADXZ 000000018009a0e0 f i libucrtd:environment_initialization.obj
 0001:00099110       ?detach@?$__crt_unique_heap_ptr@_WU__crt_internal_free_policy@@@@QEAAPEA_WXZ 000000018009a110 f i libucrtd:environment_initialization.obj
 0001:00099140       ?get@?$__crt_unique_heap_ptr@_WU__crt_internal_free_policy@@@@QEBAPEA_WXZ 000000018009a140 f i libucrtd:environment_initialization.obj
 0001:000991d0       ?initialize@?$dual_state_global@PEAPEAD@__crt_state_management@@QEAAXQEAPEAD@Z 000000018009a1d0 f i libucrtd:environment_initialization.obj
 0001:00099220       ?initialize@?$dual_state_global@PEAPEA_W@__crt_state_management@@QEAAXQEAPEA_W@Z 000000018009a220 f i libucrtd:environment_initialization.obj
 0001:00099270       ?is_valid@?$__crt_unique_heap_ptr@PEADU__crt_internal_free_policy@@@@QEBA_NXZ 000000018009a270 f i libucrtd:environment_initialization.obj
 0001:000992a0       ?is_valid@?$__crt_unique_heap_ptr@PEA_WU__crt_internal_free_policy@@@@QEBA_NXZ 000000018009a2a0 f i libucrtd:environment_initialization.obj
 0001:000992d0       ?is_valid@?$__crt_unique_heap_ptr@_WU__crt_internal_free_policy@@@@QEBA_NXZ 000000018009a2d0 f i libucrtd:environment_initialization.obj
 0001:00099330       ?release@?$__crt_unique_heap_ptr@_WU__crt_internal_free_policy@@@@QEAAXXZ 000000018009a330 f i libucrtd:environment_initialization.obj
 0001:00099360       ?value@?$dual_state_global@PEAPEAD@__crt_state_management@@QEAAAEAPEAPEADXZ 000000018009a360 f i libucrtd:environment_initialization.obj
 0001:00099380       ?value@?$dual_state_global@PEAPEA_W@__crt_state_management@@QEAAAEAPEAPEA_WXZ 000000018009a380 f i libucrtd:environment_initialization.obj
 0001:000993a0       __dcrt_get_or_create_narrow_environment_nolock 000000018009a3a0 f   libucrtd:environment_initialization.obj
 0001:000993b0       __dcrt_get_or_create_wide_environment_nolock 000000018009a3b0 f   libucrtd:environment_initialization.obj
 0001:000993c0       __dcrt_uninitialize_environments_nolock 000000018009a3c0 f   libucrtd:environment_initialization.obj
 0001:00099410       __p__environ               000000018009a410 f   libucrtd:environment_initialization.obj
 0001:00099430       __p__wenviron              000000018009a430 f   libucrtd:environment_initialization.obj
 0001:00099450       _get_initial_narrow_environment 000000018009a450 f   libucrtd:environment_initialization.obj
 0001:00099460       _get_initial_wide_environment 000000018009a460 f   libucrtd:environment_initialization.obj
 0001:00099470       _initialize_narrow_environment 000000018009a470 f   libucrtd:environment_initialization.obj
 0001:00099480       _initialize_wide_environment 000000018009a480 f   libucrtd:environment_initialization.obj
 0001:00099490       ??$?B$$A6AXXZ@__crt_fast_encoded_nullptr_t@@QEBAP6AXXZXZ 000000018009a490 f i libucrtd:onexit.obj
 0001:000994b0       ??$?BP6AXXZ@__crt_fast_encoded_nullptr_t@@QEBAPEAP6AXXZXZ 000000018009a4b0 f i libucrtd:onexit.obj
 0001:000994d0       ??$?RP6AXXZ@__crt_internal_free_policy@@QEBAXQEBQ6AXXZ@Z 000000018009a4d0 f i libucrtd:onexit.obj
 0001:00099660       ??$__crt_fast_decode_pointer@P6AXXZ@@YAP6AXXZQ6AXXZ@Z 000000018009a660 f i libucrtd:onexit.obj
 0001:000996a0       ??$__crt_fast_decode_pointer@PEAP6AXXZ@@YAPEAP6AXXZQEAP6AXXZ@Z 000000018009a6a0 f i libucrtd:onexit.obj
 0001:000996e0       ??$__crt_fast_encode_pointer@P6AHXZ@@YAP6AHXZQ6AHXZ@Z 000000018009a6e0 f i libucrtd:onexit.obj
