 OPOSScanner

 Timestamp is 5ed459d4 (Mon Jun  1 10:28:52 2020)

 Preferred load address is 0000000180000000

 Start         Length     Name                   Class
 0001:00000000 00001400H .text$di                CODE
 0001:00001400 000d4be0H .text$mn                CODE
 0001:000d5fe0 00000040H .text$mn$00             CODE
 0001:000d6020 00001390H .text$x                 CODE
 0001:000d73b0 000001b4H .text$yd                CODE
 0002:00000000 000006d8H .idata$5                DATA
 0002:000006d8 00000028H .00cfg                  DATA
 0002:00000700 00000008H .CRT$XCA                DATA
 0002:00000708 00000008H .CRT$XCL                DATA
 0002:00000710 000000d8H .CRT$XCU                DATA
 0002:000007e8 00000008H .CRT$XCZ                DATA
 0002:000007f0 00000008H .CRT$XIA                DATA
 0002:000007f8 00000028H .CRT$XIC                DATA
 0002:00000820 00000008H .CRT$XIZ                DATA
 0002:00000828 00000008H .CRT$XLA                DATA
 0002:00000830 00000008H .CRT$XLZ                DATA
 0002:00000838 00000008H .CRT$XPA                DATA
 0002:00000840 00000010H .CRT$XPX                DATA
 0002:00000850 00000008H .CRT$XPXA               DATA
 0002:00000858 00000008H .CRT$XPZ                DATA
 0002:00000860 00000008H .CRT$XTA                DATA
 0002:00000868 00000008H .CRT$XTZ                DATA
 0002:00000870 00000000H .gfids$y                DATA
 0002:00000870 0003b880H .rdata                  DATA
 0002:0003c0f0 00000028H .rdata$T                DATA
 0002:0003c118 0000056cH .rdata$r                DATA
 0002:0003c684 0000042cH .rdata$zzzdbg           DATA
 0002:0003cab0 00000008H .rtc$IAA                DATA
 0002:0003cab8 00000030H .rtc$IMZ                DATA
 0002:0003cae8 00000008H .rtc$IZZ                DATA
 0002:0003caf0 00000008H .rtc$TAA                DATA
 0002:0003caf8 00000030H .rtc$TMZ                DATA
 0002:0003cb28 00000008H .rtc$TZZ                DATA
 0002:0003cb30 00000004H .tls                    DATA
 0002:0003cb34 00000004H .tls$                   DATA
 0002:0003cb38 00000008H .tls$ZZZ                DATA
 0002:0003cb40 00009798H .xdata                  DATA
 0002:000462d8 00000150H .xdata$x                DATA
 0002:00046428 00000008H ATL$__a                 DATA
 0002:00046430 00000010H ATL$__z                 DATA
 0002:00046440 000000a8H .edata                  DATA
 0002:000464e8 00000078H .idata$2                DATA
 0002:00046560 00000018H .idata$3                DATA
 0002:00046578 000006d8H .idata$4                DATA
 0002:00046c50 00000dbeH .idata$6                DATA
 0003:00000000 00000eb8H .data                   DATA
 0003:00000eb8 00000198H .data$r                 DATA
 0003:00001050 00003e9cH .bss                    DATA
 0004:00000000 0000c120H .pdata                  DATA
 0005:00000000 00000094H _RDATA                  DATA
 0006:00000000 00000220H .rsrc$01                DATA
 0006:00000220 00003c20H .rsrc$02                DATA

  Address         Publics by Value              Rva+Base               Lib:Object

 0000:00000000       __guard_iat_count          0000000000000000     <absolute>
 0000:00000000       __volatile_metadata        0000000000000000     <absolute>
 0000:00000000       __guard_longjmp_table      0000000000000000     <absolute>
 0000:00000000       __AbsoluteZero             0000000000000000     <absolute>
 0000:00000000       __hybrid_code_map_count    0000000000000000     <absolute>
 0000:00000000       __dynamic_value_reloc_table 0000000000000000     <absolute>
 0000:00000000       __guard_fids_table         0000000000000000     <absolute>
 0000:00000000       __arm64x_native_entrypoint 0000000000000000     <absolute>
 0000:00000000       ___safe_se_handler_table   0000000000000000     <absolute>
 0000:00000000       ___safe_se_handler_count   0000000000000000     <absolute>
 0000:00000000       __hybrid_auxiliary_iat     0000000000000000     <absolute>
 0000:00000000       __hybrid_code_map          0000000000000000     <absolute>
 0000:00000000       __guard_eh_cont_count      0000000000000000     <absolute>
 0000:00000000       __guard_longjmp_count      0000000000000000     <absolute>
 0000:00000000       __arm64x_redirection_metadata 0000000000000000     <absolute>
 0000:00000000       __enclave_config           0000000000000000     <absolute>
 0000:00000000       __guard_iat_table          0000000000000000     <absolute>
 0000:00000000       __x64_code_ranges_to_entry_points 0000000000000000     <absolute>
 0000:00000000       __guard_fids_count         0000000000000000     <absolute>
 0000:00000000       __guard_eh_cont_table      0000000000000000     <absolute>
 0000:00000100       __guard_flags              0000000000000100     <absolute>
 0000:00000000       __ImageBase                0000000180000000     <linker-defined>
 0001:00001400       ?_assert@@YAXPEB_W0I@Z     0000000180002400 f   Assert.obj
 0001:00001500       __local_stdio_printf_options 0000000180002500 f i Assert.obj
 0001:00001510       __vswprintf_l              0000000180002510 f i Assert.obj
 0001:00001570       _swprintf                  0000000180002570 f i Assert.obj
 0001:000015f0       _vswprintf_c_l             00000001800025f0 f i Assert.obj
 0001:00001680       _vswprintf_l               0000000180002680 f i Assert.obj
 0001:000016e0       ?cw_memcpy@@YAHPEADPEB_WH@Z 00000001800026e0 f   CWString.obj
 0001:00001770       ?cw_memcpy@@YAHPEA_WPEBDH@Z 0000000180002770 f   CWString.obj
 0001:000017f0       ?cw_memcpy@@YAHPEADPEBDH@Z 00000001800027f0 f   CWString.obj
 0001:00001890       ?cw_memcpy@@YAHPEA_WPEB_WH@Z 0000000180002890 f   CWString.obj
 0001:00001900       ?cw_memset@@YAXPEADDH@Z    0000000180002900 f   CWString.obj
 0001:00001970       ?cw_memset@@YAXPEA_W_WH@Z  0000000180002970 f   CWString.obj
 0001:00001a10       ?cw_strlen@@YAHPEBD@Z      0000000180002a10 f   CWString.obj
 0001:00001a80       ?cw_strlen@@YAHPEB_W@Z     0000000180002a80 f   CWString.obj
 0001:00001af0       ?cw_strcpy@@YAHPEADPEB_W@Z 0000000180002af0 f   CWString.obj
 0001:00001b40       ?cw_strcpy@@YAHPEA_WPEBD@Z 0000000180002b40 f   CWString.obj
 0001:00001b90       ?cw_strcpy@@YAHPEADPEBD@Z  0000000180002b90 f   CWString.obj
 0001:00001be0       ?cw_strcpy@@YAHPEA_WPEB_W@Z 0000000180002be0 f   CWString.obj
 0001:00001c30       ?cw_strcat@@YAHPEADPEB_W@Z 0000000180002c30 f   CWString.obj
 0001:00001c90       ?cw_strcat@@YAHPEA_WPEBD@Z 0000000180002c90 f   CWString.obj
 0001:00001cf0       ?cw_strcat@@YAHPEADPEBD@Z  0000000180002cf0 f   CWString.obj
 0001:00001d50       ?cw_strcat@@YAHPEA_WPEB_W@Z 0000000180002d50 f   CWString.obj
 0001:00001db0       ?cw_dup@@YAXPEBDAEAHAEAPEA_W1@Z 0000000180002db0 f   CWString.obj
 0001:00001ec0       ?cw_dup@@YAXPEB_WAEAHAEAPEAD1@Z 0000000180002ec0 f   CWString.obj
 0001:00001fb0       ?DupChar@_CW@@AEAAXXZ      0000000180002fb0 f   CWString.obj
 0001:00002010       ?DupWide@_CW@@AEAAXXZ      0000000180003010 f   CWString.obj
 0001:00002080       ?GetCharsMbcs@_CW@@QEAAHXZ 0000000180003080 f   CWString.obj
 0001:000020f0       ?GetCharsWide@_CW@@QEAAHXZ 00000001800030f0 f   CWString.obj
 0001:00002160       ?SetVARIANT_BOOL@OposVariant@@QEAAXF@Z 0000000180003160 f   OposVariant.obj
 0001:000021d0       ?SetVARIANT_BOOL_Ptr@OposVariant@@QEAAXPEAFAEAJ@Z 00000001800031d0 f   OposVariant.obj
 0001:00002240       ?GetLONG@OposVariant@@QEAAJXZ 0000000180003240 f   OposVariant.obj
 0001:000022a0       ?ChangeLONG@OposVariant@@QEAAXPEAJAEAJ@Z 00000001800032a0 f   OposVariant.obj
 0001:00002350       ?SetLONG@OposVariant@@QEAAXJ@Z 0000000180003350 f   OposVariant.obj
 0001:000023b0       ?SetLONG_Ptr@OposVariant@@QEAAXPEAJAEAJ@Z 00000001800033b0 f   OposVariant.obj
 0001:00002420       ?ChangeCURRENCY@OposVariant@@QEAAXPEATtagCY@@AEAJ@Z 0000000180003420 f   OposVariant.obj
 0001:000024d0       ?SetCURRENCY@OposVariant@@QEAAXTtagCY@@@Z 00000001800034d0 f   OposVariant.obj
 0001:00002530       ?SetCURRENCY_Ptr@OposVariant@@QEAAXPEATtagCY@@AEAJ@Z 0000000180003530 f   OposVariant.obj
 0001:000025a0       ?ChangeBSTR@OposVariant@@QEAAXPEAPEA_WAEAJ@Z 00000001800035a0 f   OposVariant.obj
 0001:00002650       ?SetBSTR@OposVariant@@QEAAXPEA_WAEAJ@Z 0000000180003650 f   OposVariant.obj
 0001:000026d0       ?SetBSTR_Copy@OposVariant@@QEAAXPEA_WAEAJ@Z 00000001800036d0 f   OposVariant.obj
 0001:00002780       ?SetBSTR_OutPtr@OposVariant@@QEAA_NPEAPEA_WAEAJ@Z 0000000180003780 f   OposVariant.obj
 0001:000027f0       ?SetBSTR_InOutPtr@OposVariant@@QEAA_NPEAPEA_WAEAJ@Z 00000001800037f0 f   OposVariant.obj
 0001:00002870       ?SetVARIANT@OposVariant@@QEAAXAEAUtagVARIANT@@GAEAJ@Z 0000000180003870 f   OposVariant.obj
 0001:00002910       ?SetVARIANT_Ptr@OposVariant@@QEAAXAEAPEAUtagVARIANT@@GAEAJ@Z 0000000180003910 f   OposVariant.obj
 0001:000029c0       ?SetString@OposVariant@@QEAAXPEB_WAEAJ@Z 00000001800039c0 f   OposVariant.obj
 0001:00002a70       ?SetDispatch_Ptr@OposVariant@@QEAAXPEAUIDispatch@@AEAJ@Z 0000000180003a70 f   OposVariant.obj
 0001:00002b00       ??0OposDispParms@@QEAA@PEAVOposVariant@@H@Z 0000000180003b00 f   OposVariant.obj
 0001:00002c10       ??1OposDispParms@@QEAA@XZ  0000000180003c10 f   OposVariant.obj
 0001:00002c60       ??$AtlMultiply@_K@ATL@@YAJPEA_K_K1@Z 0000000180003c60 f i OposVariant.obj
 0001:00002ce0       ??0?$CHeapPtr@_WVCCRTAllocator@ATL@@@ATL@@QEAA@XZ 0000000180003ce0 f i OposVariant.obj
 0001:00002d20       ??0?$CHeapPtrBase@_WVCCRTAllocator@ATL@@@ATL@@IEAA@XZ 0000000180003d20 f i OposVariant.obj
 0001:00002d40       ??0?$CSimpleArray@GV?$CSimpleArrayEqualHelper@G@ATL@@@ATL@@QEAA@XZ 0000000180003d40 f i OposVariant.obj
 0001:00002d80       ??0?$CTraceCategoryEx@$00$0A@@ATL@@QEAA@PEB_W@Z 0000000180003d80 f i OposVariant.obj
 0001:00002dc0       ??0?$CTraceCategoryEx@$01$0A@@ATL@@QEAA@PEB_W@Z 0000000180003dc0 f i OposVariant.obj
 0001:00002e00       ??0?$CTraceCategoryEx@$03$0A@@ATL@@QEAA@PEB_W@Z 0000000180003e00 f i OposVariant.obj
 0001:00002e40       ??0?$CTraceCategoryEx@$07$0A@@ATL@@QEAA@PEB_W@Z 0000000180003e40 f i OposVariant.obj
 0001:00002e80       ??0?$CTraceCategoryEx@$0BA@$0A@@ATL@@QEAA@PEB_W@Z 0000000180003e80 f i OposVariant.obj
 0001:00002ec0       ??0?$CTraceCategoryEx@$0BAA@$0A@@ATL@@QEAA@PEB_W@Z 0000000180003ec0 f i OposVariant.obj
 0001:00002f00       ??0?$CTraceCategoryEx@$0BAAA@$0A@@ATL@@QEAA@PEB_W@Z 0000000180003f00 f i OposVariant.obj
 0001:00002f40       ??0?$CTraceCategoryEx@$0BAAAA@$0A@@ATL@@QEAA@PEB_W@Z 0000000180003f40 f i OposVariant.obj
 0001:00002f80       ??0?$CTraceCategoryEx@$0BAAAAA@$0A@@ATL@@QEAA@PEB_W@Z 0000000180003f80 f i OposVariant.obj
 0001:00002fc0       ??0?$CTraceCategoryEx@$0CA@$0A@@ATL@@QEAA@PEB_W@Z 0000000180003fc0 f i OposVariant.obj
 0001:00003000       ??0?$CTraceCategoryEx@$0CAA@$0A@@ATL@@QEAA@PEB_W@Z 0000000180004000 f i OposVariant.obj
 0001:00003040       ??0?$CTraceCategoryEx@$0CAAA@$0A@@ATL@@QEAA@PEB_W@Z 0000000180004040 f i OposVariant.obj
 0001:00003080       ??0?$CTraceCategoryEx@$0CAAAA@$0A@@ATL@@QEAA@PEB_W@Z 0000000180004080 f i OposVariant.obj
 0001:000030c0       ??0?$CTraceCategoryEx@$0CAAAAA@$0A@@ATL@@QEAA@PEB_W@Z 00000001800040c0 f i OposVariant.obj
 0001:00003100       ??0?$CTraceCategoryEx@$0EA@$0A@@ATL@@QEAA@PEB_W@Z 0000000180004100 f i OposVariant.obj
 0001:00003140       ??0?$CTraceCategoryEx@$0EAA@$0A@@ATL@@QEAA@PEB_W@Z 0000000180004140 f i OposVariant.obj
 0001:00003180       ??0?$CTraceCategoryEx@$0EAAA@$0A@@ATL@@QEAA@PEB_W@Z 0000000180004180 f i OposVariant.obj
 0001:000031c0       ??0?$CTraceCategoryEx@$0EAAAA@$0A@@ATL@@QEAA@PEB_W@Z 00000001800041c0 f i OposVariant.obj
 0001:00003200       ??0?$CTraceCategoryEx@$0EAAAAA@$0A@@ATL@@QEAA@PEB_W@Z 0000000180004200 f i OposVariant.obj
 0001:00003240       ??0?$CTraceCategoryEx@$0IA@$0A@@ATL@@QEAA@PEB_W@Z 0000000180004240 f i OposVariant.obj
 0001:00003280       ??0?$CTraceCategoryEx@$0IAA@$0A@@ATL@@QEAA@PEB_W@Z 0000000180004280 f i OposVariant.obj
 0001:000032c0       ??0?$CTraceCategoryEx@$0IAAA@$0A@@ATL@@QEAA@PEB_W@Z 00000001800042c0 f i OposVariant.obj
 0001:00003300       ??0?$CTraceCategoryEx@$0IAAAA@$0A@@ATL@@QEAA@PEB_W@Z 0000000180004300 f i OposVariant.obj
 0001:00003340       ??0CAtlComModule@ATL@@QEAA@XZ 0000000180004340 f i OposVariant.obj
 0001:00003460       ??0CAtlWinModule@ATL@@QEAA@XZ 0000000180004460 f i OposVariant.obj
 0001:00003510       ??0CComCriticalSection@ATL@@QEAA@XZ 0000000180004510 f i OposVariant.obj
 0001:00003550       ??0CPreserveLastError@ATL@@QEAA@XZ 0000000180004550 f i OposVariant.obj
 0001:00003590       ??0CTraceFileAndLineInfo@ATL@@QEAA@PEBDH@Z 0000000180004590 f i OposVariant.obj
 0001:000035c0       ??0_ATL_COM_MODULE70@ATL@@QEAA@XZ 00000001800045c0 f i OposVariant.obj
 0001:00003600       ??0_ATL_WIN_MODULE70@ATL@@QEAA@XZ 0000000180004600 f i OposVariant.obj
 0001:00003650       ??1?$CHeapPtr@_WVCCRTAllocator@ATL@@@ATL@@QEAA@XZ 0000000180004650 f i OposVariant.obj
 0001:00003680       ??1?$CHeapPtrBase@_WVCCRTAllocator@ATL@@@ATL@@QEAA@XZ 0000000180004680 f i OposVariant.obj
 0001:000036b0       ??1?$CSimpleArray@GV?$CSimpleArrayEqualHelper@G@ATL@@@ATL@@QEAA@XZ 00000001800046b0 f i OposVariant.obj
 0001:000036e0       ??1CAtlComModule@ATL@@QEAA@XZ 00000001800046e0 f i OposVariant.obj
 0001:00003720       ??1CAtlWinModule@ATL@@QEAA@XZ 0000000180004720 f i OposVariant.obj
 0001:00003760       ??1CComBSTR@ATL@@QEAA@XZ   0000000180004760 f i OposVariant.obj
 0001:000037a0       ??1CComCriticalSection@ATL@@QEAA@XZ 00000001800047a0 f i OposVariant.obj
 0001:000037b0       ??1CPreserveLastError@ATL@@QEAA@XZ 00000001800047b0 f i OposVariant.obj
 0001:000037f0       ??1_ATL_COM_MODULE70@ATL@@QEAA@XZ 00000001800047f0 f i OposVariant.obj
 0001:00003830       ??1_ATL_WIN_MODULE70@ATL@@QEAA@XZ 0000000180004830 f i OposVariant.obj
 0001:00003880       ??1stringdispid@CComTypeInfoHolder@ATL@@QEAA@XZ 0000000180004880 f i OposVariant.obj
 0001:000038c0       ??A?$CSimpleArray@GV?$CSimpleArrayEqualHelper@G@ATL@@@ATL@@QEAAAEAGH@Z 00000001800048c0 f i OposVariant.obj
 0001:00003970       ??B?$CHeapPtrBase@_WVCCRTAllocator@ATL@@@ATL@@QEBAPEA_WXZ 0000000180004970 f i OposVariant.obj
 0001:00003980       ??B?$CTraceCategoryEx@$01$0A@@ATL@@QEAAIXZ 0000000180004980 f i OposVariant.obj
 0001:00003990       ??B?$CTraceCategoryEx@$0CA@$0A@@ATL@@QEAAIXZ 0000000180004990 f i OposVariant.obj
 0001:000039a0       ??RCTraceFileAndLineInfo@ATL@@QEBAXHIPEB_WZZ 00000001800049a0 f i OposVariant.obj
 0001:00003a50       ??_Estringdispid@CComTypeInfoHolder@ATL@@QEAAPEAXI@Z 0000000180004a50 f i OposVariant.obj
 0001:00003b00       ??_H@YAXPEAX_K1P6APEAX0@Z@Z 0000000180004b00 f i OposVariant.obj
 0001:00003b90       ??_I@YAXPEAX_K1P6AX0@Z@Z   0000000180004b90 f i OposVariant.obj
 0001:00003c40       ?Allocate@?$CHeapPtr@_WVCCRTAllocator@ATL@@@ATL@@QEAA_N_K@Z 0000000180004c40 f i OposVariant.obj
 0001:00003cc0       ?Allocate@CCRTAllocator@ATL@@SAPEAX_K@Z 0000000180004cc0 f i OposVariant.obj
 0001:00003cf0       ?AllocateBytes@?$CHeapPtrBase@_WVCCRTAllocator@ATL@@@ATL@@QEAA_N_K@Z 0000000180004cf0 f i OposVariant.obj
 0001:00003d90       ?AtlWinModuleInit@ATL@@YAJPEAU_ATL_WIN_MODULE70@1@@Z 0000000180004d90 f i OposVariant.obj
 0001:00003e90       ?AtlWinModuleTerm@ATL@@YAJPEAU_ATL_WIN_MODULE70@1@PEAUHINSTANCE__@@@Z 0000000180004e90 f i OposVariant.obj
 0001:00003f80       ?Clear@OposVariant@@QEAAJXZ 0000000180004f80 f i OposVariant.obj
 0001:00003fc0       ?Free@?$CHeapPtrBase@_WVCCRTAllocator@ATL@@@ATL@@QEAAXXZ 0000000180004fc0 f i OposVariant.obj
 0001:00004000       ?Free@CCRTAllocator@ATL@@SAXPEAX@Z 0000000180005000 f i OposVariant.obj
 0001:00004030       ?GetCategoryName@CTrace@ATL@@CAPEA_WI@Z 0000000180005030 f i OposVariant.obj
 0001:000040b0       ?GetModuleInstance@CAtlBaseModule@ATL@@QEAAPEAUHINSTANCE__@@XZ 00000001800050b0 f i OposVariant.obj
 0001:000040d0       ?GetSize@?$CSimpleArray@GV?$CSimpleArrayEqualHelper@G@ATL@@@ATL@@QEBAHXZ 00000001800050d0 f i OposVariant.obj
 0001:000040e0       ?Init@CComCriticalSection@ATL@@QEAAJXZ 00000001800050e0 f i OposVariant.obj
 0001:00004140       ?RegisterCategory@CTrace@ATL@@SAXPEB_WI@Z 0000000180005140 f i OposVariant.obj
 0001:00004220       ?RemoveAll@?$CSimpleArray@GV?$CSimpleArrayEqualHelper@G@ATL@@@ATL@@QEAAXXZ 0000000180005220 f i OposVariant.obj
 0001:000042b0       ?Term@CAtlComModule@ATL@@QEAAXXZ 00000001800052b0 f i OposVariant.obj
 0001:00004390       ?Term@CAtlWinModule@ATL@@QEAAXXZ 0000000180005390 f i OposVariant.obj
 0001:000043d0       ?Term@CComCriticalSection@ATL@@QEAAJXZ 00000001800053d0 f i OposVariant.obj
 0001:00004410       ?TraceV@CTrace@ATL@@CAXPEBDHIIPEB_W@Z 0000000180005410 f i OposVariant.obj
 0001:000046c0       ?TraceV@CTrace@ATL@@SAXPEBDHIIPEB_WPEAD@Z 00000001800056c0 f i OposVariant.obj
 0001:00004870       ?_AtlInitializeCriticalSectionEx@ATL@@YAHPEAU_RTL_CRITICAL_SECTION@@KK@Z 0000000180005870 f i OposVariant.obj
 0001:000048c0       ?_AtlRaiseException@ATL@@YAXKK@Z 00000001800058c0 f i OposVariant.obj
 0001:00004900       HRESULT_FROM_WIN32         0000000180005900 f i OposVariant.obj
 0001:00004950       _vswprintf_s_l             0000000180005950 f i OposVariant.obj
 0001:000049e0       swprintf_s                 00000001800059e0 f i OposVariant.obj
 0001:00004a70       ?ObjectMain@CComObjectRootBase@ATL@@SAX_N@Z 0000000180005a70 f i Scanner.obj
 0001:00004a80       ?GetCategoryMap@CComObjectRootBase@ATL@@SAPEBU_ATL_CATMAP_ENTRY@2@XZ 0000000180005a80 f i Scanner.obj
 0001:00004a90       ?GetObjectDescription@?$CComCoClass@VCOPOSScanner@@$1?CLSID_OPOSScanner@@3U_GUID@@B@ATL@@SAPEB_WXZ 0000000180005a90 f i Scanner.obj
 0001:00004aa0       ?UpdateRegistry@COPOSScanner@@SAJH@Z 0000000180005aa0 f i Scanner.obj
 0001:00004ae0       ?CreateInstance@?$CComCreator@V?$CComObjectCached@VCComClassFactory@ATL@@@ATL@@@ATL@@SAJPEAXAEBU_GUID@@PEAPEAX@Z 0000000180005ae0 f i Scanner.obj
 0001:00004cd0       ?CreateInstance@?$CComCreator2@V?$CComCreator@V?$CComObject@VCOPOSScanner@@@ATL@@@ATL@@V?$CComCreator@V?$CComAggObject@VCOPOSScanner@@@ATL@@@2@@ATL@@SAJPEAXAEBU_GUID@@PEAPEAX@Z 0000000180005cd0 f i Scanner.obj
 0001:00004ee0       DllGetClassObject          0000000180005ee0 f   Scanner.obj
 0001:00004f30       DllCanUnloadNow            0000000180005f30 f   Scanner.obj
 0001:00004f80       DllRegisterServer          0000000180005f80 f   Scanner.obj
 0001:00004fc0       DllUnregisterServer        0000000180005fc0 f   Scanner.obj
 0001:000051c0       DllMain                    00000001800061c0 f   Scanner.obj
 0001:00005240       ??$?2G@Wrapper@?$CSimpleArray@GV?$CSimpleArrayEqualHelper@G@ATL@@@ATL@@SAPEAX_KPEAG@Z 0000000180006240 f i Scanner.obj
 0001:00005260       ??$?2PEA_W@?$Wrapper@PEA_W@?$CSimpleMap@PEA_WPEA_WVCExpansionVectorEqualHelper@ATL@@@ATL@@SAPEAX_KPEAPEA_W@Z 0000000180006260 f i Scanner.obj
 0001:00005280       ??$?4UITypeInfo2@@@?$CComPtr@UITypeInfo@@@ATL@@QEAAPEAUITypeInfo@@AEBV?$CComPtr@UITypeInfo2@@@1@@Z 0000000180006280 f i Scanner.obj
 0001:000052f0       ??$AtlAdd@_K@ATL@@YAJPEA_K_K1@Z 00000001800062f0 f i Scanner.obj
 0001:00005360       ??$AtlAddThrow@_K@ATL@@YA_K_K0@Z 0000000180006360 f i Scanner.obj
 0001:000053d0       ??$AtlModuleRegisterWndClassInfoT@VAtlModuleRegisterWndClassInfoParamW@ATL@@@ATL@@YAGPEAU_ATL_BASE_MODULE70@0@PEAU_ATL_WIN_MODULE70@0@PEAU_ATL_WNDCLASSINFOW@0@PEAP6A_JPEAUHWND__@@I_K_J@ZVAtlModuleRegisterWndClassInfoParamW@0@@Z 00000001800063d0 f i Scanner.obj
 0001:000059a0       ??$AtlMultiply@H@ATL@@YAJPEAHHH@Z 00000001800069a0 f i Scanner.obj
 0001:00005a10       ??$AtlMultiply@K@ATL@@YAJPEAKKK@Z 0000000180006a10 f i Scanner.obj
 0001:00005a80       ??$AtlMultiplyThrow@_K@ATL@@YA_K_K0@Z 0000000180006a80 f i Scanner.obj
 0001:00005af0       ??$QueryInterface@UIPersistStream@@@IUnknown@@QEAAJPEAPEAUIPersistStream@@@Z 0000000180006af0 f i Scanner.obj
 0001:00005b40       ??$QueryInterface@UITypeInfo2@@@IUnknown@@QEAAJPEAPEAUITypeInfo2@@@Z 0000000180006b40 f i Scanner.obj
 0001:00005b90       ??0?$CAtlModuleT@VCComModule@ATL@@@ATL@@QEAA@XZ 0000000180006b90 f i Scanner.obj
 0001:00005bd0       ??0?$CAtlSafeAllocBufferManager@VCCRTAllocator@ATL@@@_ATL_SAFE_ALLOCA_IMPL@ATL@@QEAA@XZ 0000000180006bd0 f i Scanner.obj
 0001:00005bf0       ??0?$CAutoVectorPtr@_W@ATL@@QEAA@XZ 0000000180006bf0 f i Scanner.obj
 0001:00005c10       ??0?$CComAggObject@VCOPOSScanner@@@ATL@@QEAA@PEAX@Z 0000000180006c10 f i Scanner.obj
 0001:00005ca0       ??0?$CComContainedObject@VCOPOSScanner@@@ATL@@QEAA@PEAX@Z 0000000180006ca0 f i Scanner.obj
 0001:00005e40       ??0?$CComCritSecLock@VCComCriticalSection@ATL@@@ATL@@QEAA@AEAVCComCriticalSection@1@_N@Z 0000000180006e40 f i Scanner.obj
 0001:00005eb0       ??0?$CComEnum@UIEnumConnectionPoints@@$1?_GUID_b196b285_bab4_101a_b69c_00aa00341d07@@3U__s_GUID@@BPEAUIConnectionPoint@@V?$_CopyInterface@UIConnectionPoint@@@ATL@@VCComSingleThreadModel@6@@ATL@@QEAA@XZ 0000000180006eb0 f i Scanner.obj
 0001:00005f00       ??0?$CComEnum@UIEnumConnections@@$1?_GUID_b196b287_bab4_101a_b69c_00aa00341d07@@3U__s_GUID@@BUtagCONNECTDATA@@V?$_Copy@UtagCONNECTDATA@@@ATL@@VCComSingleThreadModel@6@@ATL@@QEAA@XZ 0000000180006f00 f i Scanner.obj
 0001:00005f50       ??0?$CComEnumImpl@UIEnumConnectionPoints@@$1?_GUID_b196b285_bab4_101a_b69c_00aa00341d07@@3U__s_GUID@@BPEAUIConnectionPoint@@V?$_CopyInterface@UIConnectionPoint@@@ATL@@@ATL@@QEAA@XZ 0000000180006f50 f i Scanner.obj
 0001:00005fd0       ??0?$CComEnumImpl@UIEnumConnections@@$1?_GUID_b196b287_bab4_101a_b69c_00aa00341d07@@3U__s_GUID@@BUtagCONNECTDATA@@V?$_Copy@UtagCONNECTDATA@@@ATL@@@ATL@@QEAA@XZ 0000000180006fd0 f i Scanner.obj
 0001:00006050       ??0?$CComObject@V?$CComEnum@UIEnumConnectionPoints@@$1?_GUID_b196b285_bab4_101a_b69c_00aa00341d07@@3U__s_GUID@@BPEAUIConnectionPoint@@V?$_CopyInterface@UIConnectionPoint@@@ATL@@VCComSingleThreadModel@6@@ATL@@@ATL@@QEAA@PEAX@Z 0000000180007050 f i Scanner.obj
 0001:000060b0       ??0?$CComObject@V?$CComEnum@UIEnumConnections@@$1?_GUID_b196b287_bab4_101a_b69c_00aa00341d07@@3U__s_GUID@@BUtagCONNECTDATA@@V?$_Copy@UtagCONNECTDATA@@@ATL@@VCComSingleThreadModel@6@@ATL@@@ATL@@QEAA@PEAX@Z 00000001800070b0 f i Scanner.obj
 0001:00006110       ??0?$CComObject@VCOPOSScanner@@@ATL@@QEAA@PEAX@Z 0000000180007110 f i Scanner.obj
 0001:000062b0       ??0?$CComObjectCached@VCComClassFactory@ATL@@@ATL@@QEAA@PEAX@Z 00000001800072b0 f i Scanner.obj
 0001:00006300       ??0?$CComObjectRootEx@VCComMultiThreadModel@ATL@@@ATL@@QEAA@XZ 0000000180007300 f i Scanner.obj
 0001:00006350       ??0?$CComObjectRootEx@VCComSingleThreadModel@ATL@@@ATL@@QEAA@XZ 0000000180007350 f i Scanner.obj
 0001:00006390       ??0?$CComPtr@UIAdviseSink@@@ATL@@QEAA@PEAUIAdviseSink@@@Z 0000000180007390 f i Scanner.obj
 0001:000063d0       ??0?$CComPtr@UICatRegister@@@ATL@@QEAA@XZ 00000001800073d0 f i Scanner.obj
 0001:00006410       ??0?$CComPtr@UIConnectionPoint@@@ATL@@QEAA@XZ 0000000180007410 f i Scanner.obj
 0001:00006450       ??0?$CComPtr@UIConnectionPointContainer@@@ATL@@QEAA@XZ 0000000180007450 f i Scanner.obj
 0001:00006490       ??0?$CComPtr@UIDataObject@@@ATL@@QEAA@XZ 0000000180007490 f i Scanner.obj
 0001:000064d0       ??0?$CComPtr@UIDispatch@@@ATL@@QEAA@XZ 00000001800074d0 f i Scanner.obj
 0001:00006510       ??0?$CComPtr@UIOleClientSite@@@ATL@@QEAA@PEAUIOleClientSite@@@Z 0000000180007510 f i Scanner.obj
 0001:00006550       ??0?$CComPtr@UIOleControlSite@@@ATL@@QEAA@XZ 0000000180007550 f i Scanner.obj
 0001:00006590       ??0?$CComPtr@UIOleInPlaceActiveObject@@@ATL@@QEAA@XZ 0000000180007590 f i Scanner.obj
 0001:000065d0       ??0?$CComPtr@UIOleInPlaceFrame@@@ATL@@QEAA@XZ 00000001800075d0 f i Scanner.obj
 0001:00006610       ??0?$CComPtr@UIOleInPlaceObject@@@ATL@@QEAA@XZ 0000000180007610 f i Scanner.obj
 0001:00006650       ??0?$CComPtr@UIOleInPlaceUIWindow@@@ATL@@QEAA@XZ 0000000180007650 f i Scanner.obj
 0001:00006690       ??0?$CComPtr@UIOleObject@@@ATL@@QEAA@XZ 0000000180007690 f i Scanner.obj
 0001:000066d0       ??0?$CComPtr@UIPersistStream@@@ATL@@QEAA@XZ 00000001800076d0 f i Scanner.obj
 0001:00006710       ??0?$CComPtr@UIPersistStreamInit@@@ATL@@QEAA@XZ 0000000180007710 f i Scanner.obj
 0001:00006750       ??0?$CComPtr@UIPointerInactive@@@ATL@@QEAA@XZ 0000000180007750 f i Scanner.obj
 0001:00006790       ??0?$CComPtr@UIProvideClassInfo2@@@ATL@@QEAA@XZ 0000000180007790 f i Scanner.obj
 0001:000067d0       ??0?$CComPtr@UISpecifyPropertyPages@@@ATL@@QEAA@XZ 00000001800077d0 f i Scanner.obj
 0001:00006810       ??0?$CComPtr@UIStream@@@ATL@@QEAA@XZ 0000000180007810 f i Scanner.obj
 0001:00006850       ??0?$CComPtr@UITypeInfo2@@@ATL@@QEAA@XZ 0000000180007850 f i Scanner.obj
 0001:00006890       ??0?$CComPtr@UITypeInfo@@@ATL@@QEAA@AEBV01@@Z 0000000180007890 f i Scanner.obj
 0001:000068d0       ??0?$CComPtr@UITypeInfo@@@ATL@@QEAA@XZ 00000001800078d0 f i Scanner.obj
 0001:00006910       ??0?$CComPtr@UITypeLib@@@ATL@@QEAA@XZ 0000000180007910 f i Scanner.obj
 0001:00006950       ??0?$CComPtr@UIUnknown@@@ATL@@QEAA@AEBV01@@Z 0000000180007950 f i Scanner.obj
 0001:00006990       ??0?$CComPtr@UIUnknown@@@ATL@@QEAA@PEAUIUnknown@@@Z 0000000180007990 f i Scanner.obj
 0001:000069d0       ??0?$CComPtr@UIUnknown@@@ATL@@QEAA@XZ 00000001800079d0 f i Scanner.obj
 0001:00006a10       ??0?$CComPtr@UIViewObjectEx@@@ATL@@QEAA@XZ 0000000180007a10 f i Scanner.obj
 0001:00006a50       ??0?$CComPtrBase@UIAdviseSink@@@ATL@@IEAA@PEAUIAdviseSink@@@Z 0000000180007a50 f i Scanner.obj
 0001:00006ab0       ??0?$CComPtrBase@UICatRegister@@@ATL@@IEAA@XZ 0000000180007ab0 f i Scanner.obj
 0001:00006ad0       ??0?$CComPtrBase@UIConnectionPoint@@@ATL@@IEAA@XZ 0000000180007ad0 f i Scanner.obj
 0001:00006af0       ??0?$CComPtrBase@UIConnectionPointContainer@@@ATL@@IEAA@XZ 0000000180007af0 f i Scanner.obj
 0001:00006b10       ??0?$CComPtrBase@UIDataObject@@@ATL@@IEAA@XZ 0000000180007b10 f i Scanner.obj
 0001:00006b30       ??0?$CComPtrBase@UIDispatch@@@ATL@@IEAA@XZ 0000000180007b30 f i Scanner.obj
 0001:00006b50       ??0?$CComPtrBase@UIOleClientSite@@@ATL@@IEAA@PEAUIOleClientSite@@@Z 0000000180007b50 f i Scanner.obj
 0001:00006bb0       ??0?$CComPtrBase@UIOleControlSite@@@ATL@@IEAA@XZ 0000000180007bb0 f i Scanner.obj
 0001:00006bd0       ??0?$CComPtrBase@UIOleInPlaceActiveObject@@@ATL@@IEAA@XZ 0000000180007bd0 f i Scanner.obj
 0001:00006bf0       ??0?$CComPtrBase@UIOleInPlaceFrame@@@ATL@@IEAA@XZ 0000000180007bf0 f i Scanner.obj
 0001:00006c10       ??0?$CComPtrBase@UIOleInPlaceObject@@@ATL@@IEAA@XZ 0000000180007c10 f i Scanner.obj
 0001:00006c30       ??0?$CComPtrBase@UIOleInPlaceUIWindow@@@ATL@@IEAA@XZ 0000000180007c30 f i Scanner.obj
 0001:00006c50       ??0?$CComPtrBase@UIOleObject@@@ATL@@IEAA@XZ 0000000180007c50 f i Scanner.obj
 0001:00006c70       ??0?$CComPtrBase@UIPersistStream@@@ATL@@IEAA@XZ 0000000180007c70 f i Scanner.obj
 0001:00006c90       ??0?$CComPtrBase@UIPersistStreamInit@@@ATL@@IEAA@XZ 0000000180007c90 f i Scanner.obj
 0001:00006cb0       ??0?$CComPtrBase@UIPointerInactive@@@ATL@@IEAA@XZ 0000000180007cb0 f i Scanner.obj
 0001:00006cd0       ??0?$CComPtrBase@UIProvideClassInfo2@@@ATL@@IEAA@XZ 0000000180007cd0 f i Scanner.obj
 0001:00006cf0       ??0?$CComPtrBase@UISpecifyPropertyPages@@@ATL@@IEAA@XZ 0000000180007cf0 f i Scanner.obj
 0001:00006d10       ??0?$CComPtrBase@UIStream@@@ATL@@IEAA@XZ 0000000180007d10 f i Scanner.obj
 0001:00006d30       ??0?$CComPtrBase@UITypeInfo2@@@ATL@@IEAA@XZ 0000000180007d30 f i Scanner.obj
 0001:00006d50       ??0?$CComPtrBase@UITypeInfo@@@ATL@@IEAA@PEAUITypeInfo@@@Z 0000000180007d50 f i Scanner.obj
 0001:00006db0       ??0?$CComPtrBase@UITypeInfo@@@ATL@@IEAA@XZ 0000000180007db0 f i Scanner.obj
 0001:00006dd0       ??0?$CComPtrBase@UITypeLib@@@ATL@@IEAA@XZ 0000000180007dd0 f i Scanner.obj
 0001:00006df0       ??0?$CComPtrBase@UIUnknown@@@ATL@@IEAA@PEAUIUnknown@@@Z 0000000180007df0 f i Scanner.obj
 0001:00006e50       ??0?$CComPtrBase@UIUnknown@@@ATL@@IEAA@XZ 0000000180007e50 f i Scanner.obj
 0001:00006e70       ??0?$CComPtrBase@UIViewObjectEx@@@ATL@@IEAA@XZ 0000000180007e70 f i Scanner.obj
 0001:00006e90       ??0?$CComQIPtr@UIOleControlSite@@$1?_GUID_b196b289_bab4_101a_b69c_00aa00341d07@@3U__s_GUID@@B@ATL@@QEAA@PEAUIUnknown@@@Z 0000000180007e90 f i Scanner.obj
 0001:00006f00       ??0?$CComQIPtr@UIOleObject@@$1?_GUID_00000112_0000_0000_c000_000000000046@@3U__s_GUID@@B@ATL@@QEAA@XZ 0000000180007f00 f i Scanner.obj
 0001:00006f40       ??0?$CComQIPtr@UISpecifyPropertyPages@@$1?_GUID_b196b28b_bab4_101a_b69c_00aa00341d07@@3U__s_GUID@@B@ATL@@QEAA@XZ 0000000180007f40 f i Scanner.obj
 0001:00006f80       ??0?$CSimpleMap@PEA_WPEA_WVCExpansionVectorEqualHelper@ATL@@@ATL@@QEAA@XZ 0000000180007f80 f i Scanner.obj
 0001:00006fc0       ??0?$CTempBuffer@E$0BAA@VCCRTAllocator@ATL@@@ATL@@QEAA@XZ 0000000180007fc0 f i Scanner.obj
 0001:00006fe0       ??0?$CTempBuffer@_W$0BAA@VCCRTAllocator@ATL@@@ATL@@QEAA@XZ 0000000180007fe0 f i Scanner.obj
 0001:00007000       ??0?$CTempBuffer@_W$0EAA@VCCRTAllocator@ATL@@@ATL@@QEAA@XZ 0000000180008000 f i Scanner.obj
 0001:00007020       ??0?$Wrapper@PEA_W@?$CSimpleMap@PEA_WPEA_WVCExpansionVectorEqualHelper@ATL@@@ATL@@QEAA@AEBQEA_W@Z 0000000180008020 f i Scanner.obj
 0001:00007050       ??0CAtlModule@ATL@@QEAA@XZ 0000000180008050 f i Scanner.obj
 0001:000071c0       ??0CComAutoDeleteCriticalSection@ATL@@QEAA@XZ 00000001800081c0 f i Scanner.obj
 0001:00007200       ??0CComBSTR@ATL@@QEAA@XZ   0000000180008200 f i Scanner.obj
 0001:00007220       ??0CComClassFactory@ATL@@QEAA@XZ 0000000180008220 f i Scanner.obj
 0001:00007280       ??0CComModule@ATL@@QEAA@XZ 0000000180008280 f i Scanner.obj
 0001:00007320       ??0CComObjectRootBase@ATL@@QEAA@XZ 0000000180008320 f i Scanner.obj
 0001:00007340       ??0CComSafeDeleteCriticalSection@ATL@@QEAA@XZ 0000000180008340 f i Scanner.obj
 0001:00007380       ??0CComVariant@ATL@@QEAA@XZ 0000000180008380 f i Scanner.obj
 0001:000073d0       ??0CExpansionVector@ATL@@QEAA@XZ 00000001800083d0 f i Scanner.obj
 0001:00007410       ??0CParseBuffer@CRegParser@ATL@@QEAA@H@Z 0000000180008410 f i Scanner.obj
 0001:000074a0       ??0CRegKey@ATL@@QEAA@PEAUHKEY__@@@Z 00000001800084a0 f i Scanner.obj
 0001:000074e0       ??0CRegKey@ATL@@QEAA@PEAVCAtlTransactionManager@1@@Z 00000001800084e0 f i Scanner.obj
 0001:00007520       ??0CRegObject@ATL@@QEAA@XZ 0000000180008520 f i Scanner.obj
 0001:00007580       ??0CRegParser@ATL@@QEAA@PEAVCRegObject@1@@Z 0000000180008580 f i Scanner.obj
 0001:000075b0       ??0IClassFactory@@QEAA@XZ  00000001800085b0 f i Scanner.obj
 0001:000075f0       ??0IEnumConnectionPoints@@QEAA@XZ 00000001800085f0 f i Scanner.obj
 0001:00007630       ??0IEnumConnections@@QEAA@XZ 0000000180008630 f i Scanner.obj
 0001:00007670       ??0IRegistrarBase@@QEAA@XZ 0000000180008670 f i Scanner.obj
 0001:000076b0       ??0IUnknown@@QEAA@XZ       00000001800086b0 f i Scanner.obj
 0001:000076c0       ??0ModuleLockHelper@ATL@@QEAA@XZ 00000001800086c0 f i Scanner.obj
 0001:00007700       ??0OposVariant@@QEAA@XZ    0000000180008700 f i Scanner.obj
 0001:00007720       ??0Wrapper@?$CSimpleArray@GV?$CSimpleArrayEqualHelper@G@ATL@@@ATL@@QEAA@AEBG@Z 0000000180008720 f i Scanner.obj
 0001:00007750       ??0_ATL_MODULE70@ATL@@QEAA@XZ 0000000180008750 f i Scanner.obj
 0001:00007790       ??0_ATL_MSG@ATL@@QEAA@PEAUHWND__@@I_K_JH@Z 0000000180008790 f i Scanner.obj
 0001:00007820       ??0_U_MENUorID@ATL@@QEAA@I@Z 0000000180008820 f i Scanner.obj
 0001:00007840       ??0_U_RECT@ATL@@QEAA@AEAUtagRECT@@@Z 0000000180008840 f i Scanner.obj
 0001:00007860       ??0stringdispid@CComTypeInfoHolder@ATL@@QEAA@XZ 0000000180008860 f i Scanner.obj
 0001:000078b0       ??1?$CAtlModuleT@VCComModule@ATL@@@ATL@@UEAA@XZ 00000001800088b0 f i Scanner.obj
 0001:000078e0       ??1?$CAtlSafeAllocBufferManager@VCCRTAllocator@ATL@@@_ATL_SAFE_ALLOCA_IMPL@ATL@@QEAA@XZ 00000001800088e0 f i Scanner.obj
 0001:00007940       ??1?$CAutoVectorPtr@_W@ATL@@QEAA@XZ 0000000180008940 f i Scanner.obj
 0001:00007970       ??1?$CComAggObject@VCOPOSScanner@@@ATL@@UEAA@XZ 0000000180008970 f i Scanner.obj
 0001:000079f0       ??1?$CComContainedObject@VCOPOSScanner@@@ATL@@UEAA@XZ 00000001800089f0 f i Scanner.obj
 0001:00007a20       ??1?$CComCritSecLock@VCComCriticalSection@ATL@@@ATL@@QEAA@XZ 0000000180008a20 f i Scanner.obj
 0001:00007a60       ??1?$CComEnum@UIEnumConnectionPoints@@$1?_GUID_b196b285_bab4_101a_b69c_00aa00341d07@@3U__s_GUID@@BPEAUIConnectionPoint@@V?$_CopyInterface@UIConnectionPoint@@@ATL@@VCComSingleThreadModel@6@@ATL@@UEAA@XZ 0000000180008a60 f i Scanner.obj
 0001:00007aa0       ??1?$CComEnum@UIEnumConnections@@$1?_GUID_b196b287_bab4_101a_b69c_00aa00341d07@@3U__s_GUID@@BUtagCONNECTDATA@@V?$_Copy@UtagCONNECTDATA@@@ATL@@VCComSingleThreadModel@6@@ATL@@UEAA@XZ 0000000180008aa0 f i Scanner.obj
 0001:00007ae0       ??1?$CComEnumImpl@UIEnumConnectionPoints@@$1?_GUID_b196b285_bab4_101a_b69c_00aa00341d07@@3U__s_GUID@@BPEAUIConnectionPoint@@V?$_CopyInterface@UIConnectionPoint@@@ATL@@@ATL@@UEAA@XZ 0000000180008ae0 f i Scanner.obj
 0001:00007b80       ??1?$CComEnumImpl@UIEnumConnections@@$1?_GUID_b196b287_bab4_101a_b69c_00aa00341d07@@3U__s_GUID@@BUtagCONNECTDATA@@V?$_Copy@UtagCONNECTDATA@@@ATL@@@ATL@@UEAA@XZ 0000000180008b80 f i Scanner.obj
 0001:00007c20       ??1?$CComObject@V?$CComEnum@UIEnumConnectionPoints@@$1?_GUID_b196b285_bab4_101a_b69c_00aa00341d07@@3U__s_GUID@@BPEAUIConnectionPoint@@V?$_CopyInterface@UIConnectionPoint@@@ATL@@VCComSingleThreadModel@6@@ATL@@@ATL@@UEAA@XZ 0000000180008c20 f i Scanner.obj
 0001:00007c90       ??1?$CComObject@V?$CComEnum@UIEnumConnections@@$1?_GUID_b196b287_bab4_101a_b69c_00aa00341d07@@3U__s_GUID@@BUtagCONNECTDATA@@V?$_Copy@UtagCONNECTDATA@@@ATL@@VCComSingleThreadModel@6@@ATL@@@ATL@@UEAA@XZ 0000000180008c90 f i Scanner.obj
 0001:00007d00       ??1?$CComObject@VCOPOSScanner@@@ATL@@UEAA@XZ 0000000180008d00 f i Scanner.obj
 0001:00007eb0       ??1?$CComObjectCached@VCComClassFactory@ATL@@@ATL@@UEAA@XZ 0000000180008eb0 f i Scanner.obj
 0001:00007f10       ??1?$CComObjectRootEx@VCComMultiThreadModel@ATL@@@ATL@@QEAA@XZ 0000000180008f10 f i Scanner.obj
 0001:00007f50       ??1?$CComObjectRootEx@VCComSingleThreadModel@ATL@@@ATL@@QEAA@XZ 0000000180008f50 f i Scanner.obj
 0001:00007f80       ??1?$CComPtr@UIAdviseSink@@@ATL@@QEAA@XZ 0000000180008f80 f i Scanner.obj
 0001:00007fb0       ??1?$CComPtr@UICatRegister@@@ATL@@QEAA@XZ 0000000180008fb0 f i Scanner.obj
 0001:00007fe0       ??1?$CComPtr@UIConnectionPoint@@@ATL@@QEAA@XZ 0000000180008fe0 f i Scanner.obj
 0001:00008010       ??1?$CComPtr@UIConnectionPointContainer@@@ATL@@QEAA@XZ 0000000180009010 f i Scanner.obj
 0001:00008040       ??1?$CComPtr@UIDataObject@@@ATL@@QEAA@XZ 0000000180009040 f i Scanner.obj
 0001:00008070       ??1?$CComPtr@UIDispatch@@@ATL@@QEAA@XZ 0000000180009070 f i Scanner.obj
 0001:000080a0       ??1?$CComPtr@UIOleClientSite@@@ATL@@QEAA@XZ 00000001800090a0 f i Scanner.obj
 0001:000080d0       ??1?$CComPtr@UIOleControlSite@@@ATL@@QEAA@XZ 00000001800090d0 f i Scanner.obj
 0001:00008100       ??1?$CComPtr@UIOleInPlaceActiveObject@@@ATL@@QEAA@XZ 0000000180009100 f i Scanner.obj
 0001:00008130       ??1?$CComPtr@UIOleInPlaceFrame@@@ATL@@QEAA@XZ 0000000180009130 f i Scanner.obj
 0001:00008160       ??1?$CComPtr@UIOleInPlaceObject@@@ATL@@QEAA@XZ 0000000180009160 f i Scanner.obj
 0001:00008190       ??1?$CComPtr@UIOleInPlaceUIWindow@@@ATL@@QEAA@XZ 0000000180009190 f i Scanner.obj
 0001:000081c0       ??1?$CComPtr@UIOleObject@@@ATL@@QEAA@XZ 00000001800091c0 f i Scanner.obj
 0001:000081f0       ??1?$CComPtr@UIPersistStream@@@ATL@@QEAA@XZ 00000001800091f0 f i Scanner.obj
 0001:00008220       ??1?$CComPtr@UIPersistStreamInit@@@ATL@@QEAA@XZ 0000000180009220 f i Scanner.obj
 0001:00008250       ??1?$CComPtr@UIPointerInactive@@@ATL@@QEAA@XZ 0000000180009250 f i Scanner.obj
 0001:00008280       ??1?$CComPtr@UIProvideClassInfo2@@@ATL@@QEAA@XZ 0000000180009280 f i Scanner.obj
 0001:000082b0       ??1?$CComPtr@UISpecifyPropertyPages@@@ATL@@QEAA@XZ 00000001800092b0 f i Scanner.obj
 0001:000082e0       ??1?$CComPtr@UIStream@@@ATL@@QEAA@XZ 00000001800092e0 f i Scanner.obj
 0001:00008310       ??1?$CComPtr@UITypeInfo2@@@ATL@@QEAA@XZ 0000000180009310 f i Scanner.obj
 0001:00008340       ??1?$CComPtr@UITypeInfo@@@ATL@@QEAA@XZ 0000000180009340 f i Scanner.obj
 0001:00008370       ??1?$CComPtr@UITypeLib@@@ATL@@QEAA@XZ 0000000180009370 f i Scanner.obj
 0001:000083a0       ??1?$CComPtr@UIUnknown@@@ATL@@QEAA@XZ 00000001800093a0 f i Scanner.obj
 0001:000083d0       ??1?$CComPtr@UIViewObjectEx@@@ATL@@QEAA@XZ 00000001800093d0 f i Scanner.obj
 0001:00008400       ??1?$CComPtrBase@UIAdviseSink@@@ATL@@QEAA@XZ 0000000180009400 f i Scanner.obj
 0001:00008450       ??1?$CComPtrBase@UICatRegister@@@ATL@@QEAA@XZ 0000000180009450 f i Scanner.obj
 0001:000084a0       ??1?$CComPtrBase@UIConnectionPoint@@@ATL@@QEAA@XZ 00000001800094a0 f i Scanner.obj
 0001:000084f0       ??1?$CComPtrBase@UIConnectionPointContainer@@@ATL@@QEAA@XZ 00000001800094f0 f i Scanner.obj
 0001:00008540       ??1?$CComPtrBase@UIDataObject@@@ATL@@QEAA@XZ 0000000180009540 f i Scanner.obj
 0001:00008590       ??1?$CComPtrBase@UIDispatch@@@ATL@@QEAA@XZ 0000000180009590 f i Scanner.obj
 0001:000085e0       ??1?$CComPtrBase@UIOleClientSite@@@ATL@@QEAA@XZ 00000001800095e0 f i Scanner.obj
 0001:00008630       ??1?$CComPtrBase@UIOleControlSite@@@ATL@@QEAA@XZ 0000000180009630 f i Scanner.obj
 0001:00008680       ??1?$CComPtrBase@UIOleInPlaceActiveObject@@@ATL@@QEAA@XZ 0000000180009680 f i Scanner.obj
 0001:000086d0       ??1?$CComPtrBase@UIOleInPlaceFrame@@@ATL@@QEAA@XZ 00000001800096d0 f i Scanner.obj
 0001:00008720       ??1?$CComPtrBase@UIOleInPlaceObject@@@ATL@@QEAA@XZ 0000000180009720 f i Scanner.obj
 0001:00008770       ??1?$CComPtrBase@UIOleInPlaceUIWindow@@@ATL@@QEAA@XZ 0000000180009770 f i Scanner.obj
 0001:000087c0       ??1?$CComPtrBase@UIOleObject@@@ATL@@QEAA@XZ 00000001800097c0 f i Scanner.obj
 0001:00008810       ??1?$CComPtrBase@UIPersistStream@@@ATL@@QEAA@XZ 0000000180009810 f i Scanner.obj
 0001:00008860       ??1?$CComPtrBase@UIPersistStreamInit@@@ATL@@QEAA@XZ 0000000180009860 f i Scanner.obj
 0001:000088b0       ??1?$CComPtrBase@UIPointerInactive@@@ATL@@QEAA@XZ 00000001800098b0 f i Scanner.obj
 0001:00008900       ??1?$CComPtrBase@UIProvideClassInfo2@@@ATL@@QEAA@XZ 0000000180009900 f i Scanner.obj
 0001:00008950       ??1?$CComPtrBase@UISpecifyPropertyPages@@@ATL@@QEAA@XZ 0000000180009950 f i Scanner.obj
 0001:000089a0       ??1?$CComPtrBase@UIStream@@@ATL@@QEAA@XZ 00000001800099a0 f i Scanner.obj
 0001:000089f0       ??1?$CComPtrBase@UITypeInfo2@@@ATL@@QEAA@XZ 00000001800099f0 f i Scanner.obj
 0001:00008a40       ??1?$CComPtrBase@UITypeInfo@@@ATL@@QEAA@XZ 0000000180009a40 f i Scanner.obj
 0001:00008a90       ??1?$CComPtrBase@UITypeLib@@@ATL@@QEAA@XZ 0000000180009a90 f i Scanner.obj
 0001:00008ae0       ??1?$CComPtrBase@UIUnknown@@@ATL@@QEAA@XZ 0000000180009ae0 f i Scanner.obj
 0001:00008b30       ??1?$CComPtrBase@UIViewObjectEx@@@ATL@@QEAA@XZ 0000000180009b30 f i Scanner.obj
 0001:00008b80       ??1?$CComQIPtr@UIOleControlSite@@$1?_GUID_b196b289_bab4_101a_b69c_00aa00341d07@@3U__s_GUID@@B@ATL@@QEAA@XZ 0000000180009b80 f i Scanner.obj
 0001:00008bb0       ??1?$CComQIPtr@UIOleObject@@$1?_GUID_00000112_0000_0000_c000_000000000046@@3U__s_GUID@@B@ATL@@QEAA@XZ 0000000180009bb0 f i Scanner.obj
 0001:00008be0       ??1?$CComQIPtr@UISpecifyPropertyPages@@$1?_GUID_b196b28b_bab4_101a_b69c_00aa00341d07@@3U__s_GUID@@B@ATL@@QEAA@XZ 0000000180009be0 f i Scanner.obj
 0001:00008c10       ??1?$CSimpleMap@PEA_WPEA_WVCExpansionVectorEqualHelper@ATL@@@ATL@@QEAA@XZ 0000000180009c10 f i Scanner.obj
 0001:00008c40       ??1?$CTempBuffer@E$0BAA@VCCRTAllocator@ATL@@@ATL@@QEAA@XZ 0000000180009c40 f i Scanner.obj
 0001:00008c90       ??1?$CTempBuffer@_W$0BAA@VCCRTAllocator@ATL@@@ATL@@QEAA@XZ 0000000180009c90 f i Scanner.obj
 0001:00008ce0       ??1?$CTempBuffer@_W$0EAA@VCCRTAllocator@ATL@@@ATL@@QEAA@XZ 0000000180009ce0 f i Scanner.obj
 0001:00008d30       ??1CAtlModule@ATL@@UEAA@XZ 0000000180009d30 f i Scanner.obj
 0001:00008d70       ??1CComAutoDeleteCriticalSection@ATL@@QEAA@XZ 0000000180009d70 f i Scanner.obj
 0001:00008da0       ??1CComClassFactory@ATL@@UEAA@XZ 0000000180009da0 f i Scanner.obj
 0001:00008df0       ??1CComModule@ATL@@UEAA@XZ 0000000180009df0 f i Scanner.obj
 0001:00008e30       ??1CComObjectRootBase@ATL@@QEAA@XZ 0000000180009e30 f i Scanner.obj
 0001:00008e40       ??1CComSafeDeleteCriticalSection@ATL@@QEAA@XZ 0000000180009e40 f i Scanner.obj
 0001:00008e90       ??1CComVariant@ATL@@QEAA@XZ 0000000180009e90 f i Scanner.obj
 0001:00008f10       ??1CExpansionVector@ATL@@QEAA@XZ 0000000180009f10 f i Scanner.obj
 0001:00008f50       ??1CParseBuffer@CRegParser@ATL@@QEAA@XZ 0000000180009f50 f i Scanner.obj
 0001:00008f90       ??1CRegKey@ATL@@QEAA@XZ    0000000180009f90 f i Scanner.obj
 0001:00008fc0       ??1CRegObject@ATL@@UEAA@XZ 0000000180009fc0 f i Scanner.obj
 0001:00009010       ??1ModuleLockHelper@ATL@@QEAA@XZ 000000018000a010 f i Scanner.obj
 0001:00009050       ??1OposVariant@@QEAA@XZ    000000018000a050 f i Scanner.obj
 0001:00009090       ??1_ATL_MODULE70@ATL@@QEAA@XZ 000000018000a090 f i Scanner.obj
 0001:000090d0       ??4?$CComPtr@UIAdviseSink@@@ATL@@QEAAPEAUIAdviseSink@@PEAU2@@Z 000000018000a0d0 f i Scanner.obj
 0001:00009140       ??4?$CComPtr@UIOleClientSite@@@ATL@@QEAAPEAUIOleClientSite@@PEAU2@@Z 000000018000a140 f i Scanner.obj
 0001:000091b0       ??4?$CComPtr@UIUnknown@@@ATL@@QEAAPEAUIUnknown@@PEAU2@@Z 000000018000a1b0 f i Scanner.obj
 0001:00009220       ??4?$CComQIPtr@UIOleObject@@$1?_GUID_00000112_0000_0000_c000_000000000046@@3U__s_GUID@@B@ATL@@QEAAPEAUIOleObject@@PEAUIUnknown@@@Z 000000018000a220 f i Scanner.obj
 0001:00009280       ??4?$CComQIPtr@UISpecifyPropertyPages@@$1?_GUID_b196b28b_bab4_101a_b69c_00aa00341d07@@3U__s_GUID@@B@ATL@@QEAAPEAUISpecifyPropertyPages@@PEAUIUnknown@@@Z 000000018000a280 f i Scanner.obj
 0001:000092e0       ??7?$CComPtrBase@UIOleClientSite@@@ATL@@QEBA_NXZ 000000018000a2e0 f i Scanner.obj
 0001:00009330       ??7?$CComPtrBase@UIOleInPlaceSiteWindowless@@@ATL@@QEBA_NXZ 000000018000a330 f i Scanner.obj
 0001:00009380       ??7CComBSTR@ATL@@QEBA_NXZ  000000018000a380 f i Scanner.obj
 0001:000093d0       ??8?$CComPtrBase@UIAdviseSink@@@ATL@@QEBA_NPEAUIAdviseSink@@@Z 000000018000a3d0 f i Scanner.obj
 0001:00009420       ??8?$CComPtrBase@UIConnectionPointContainer@@@ATL@@QEBA_NPEAUIConnectionPointContainer@@@Z 000000018000a420 f i Scanner.obj
 0001:00009470       ??8?$CComPtrBase@UIDataAdviseHolder@@@ATL@@QEBA_NPEAUIDataAdviseHolder@@@Z 000000018000a470 f i Scanner.obj
 0001:000094c0       ??8?$CComPtrBase@UIOleAdviseHolder@@@ATL@@QEBA_NPEAUIOleAdviseHolder@@@Z 000000018000a4c0 f i Scanner.obj
 0001:00009510       ??8?$CComPtrBase@UIOleClientSite@@@ATL@@QEBA_NPEAUIOleClientSite@@@Z 000000018000a510 f i Scanner.obj
 0001:00009560       ??8?$CComPtrBase@UIOleControlSite@@@ATL@@QEBA_NPEAUIOleControlSite@@@Z 000000018000a560 f i Scanner.obj
 0001:000095b0       ??8?$CComPtrBase@UIOleInPlaceObject@@@ATL@@QEBA_NPEAUIOleInPlaceObject@@@Z 000000018000a5b0 f i Scanner.obj
 0001:00009600       ??8?$CComPtrBase@UIOleInPlaceSiteWindowless@@@ATL@@QEBA_NPEAUIOleInPlaceSiteWindowless@@@Z 000000018000a600 f i Scanner.obj
 0001:00009650       ??8?$CComPtrBase@UIOleObject@@@ATL@@QEBA_NPEAUIOleObject@@@Z 000000018000a650 f i Scanner.obj
 0001:000096a0       ??8?$CComPtrBase@UIPersistStream@@@ATL@@QEBA_NPEAUIPersistStream@@@Z 000000018000a6a0 f i Scanner.obj
 0001:000096f0       ??8?$CComPtrBase@UIPersistStreamInit@@@ATL@@QEBA_NPEAUIPersistStreamInit@@@Z 000000018000a6f0 f i Scanner.obj
 0001:00009740       ??8?$CComPtrBase@UIPointerInactive@@@ATL@@QEBA_NPEAUIPointerInactive@@@Z 000000018000a740 f i Scanner.obj
 0001:00009790       ??8?$CComPtrBase@UIUnknown@@@ATL@@QEBA_NPEAUIUnknown@@@Z 000000018000a790 f i Scanner.obj
 0001:000097e0       ??8?$CComPtrBase@UIViewObjectEx@@@ATL@@QEBA_NPEAUIViewObjectEx@@@Z 000000018000a7e0 f i Scanner.obj
 0001:00009830       ??8CComBSTR@ATL@@QEBA_NH@Z 000000018000a830 f i Scanner.obj
 0001:000098b0       ??9?$CComPtrBase@UIAdviseSink@@@ATL@@QEBA_NPEAUIAdviseSink@@@Z 000000018000a8b0 f i Scanner.obj
 0001:00009910       ??9?$CComPtrBase@UIConnectionPointContainer@@@ATL@@QEBA_NPEAUIConnectionPointContainer@@@Z 000000018000a910 f i Scanner.obj
 0001:00009970       ??9?$CComPtrBase@UIDataAdviseHolder@@@ATL@@QEBA_NPEAUIDataAdviseHolder@@@Z 000000018000a970 f i Scanner.obj
 0001:000099d0       ??9?$CComPtrBase@UIOleAdviseHolder@@@ATL@@QEBA_NPEAUIOleAdviseHolder@@@Z 000000018000a9d0 f i Scanner.obj
 0001:00009a30       ??9?$CComPtrBase@UIOleClientSite@@@ATL@@QEBA_NPEAUIOleClientSite@@@Z 000000018000aa30 f i Scanner.obj
 0001:00009a90       ??9?$CComPtrBase@UIOleControlSite@@@ATL@@QEBA_NPEAUIOleControlSite@@@Z 000000018000aa90 f i Scanner.obj
 0001:00009af0       ??9?$CComPtrBase@UIOleInPlaceObject@@@ATL@@QEBA_NPEAUIOleInPlaceObject@@@Z 000000018000aaf0 f i Scanner.obj
 0001:00009b50       ??9?$CComPtrBase@UIOleInPlaceSiteWindowless@@@ATL@@QEBA_NPEAUIOleInPlaceSiteWindowless@@@Z 000000018000ab50 f i Scanner.obj
 0001:00009bb0       ??9?$CComPtrBase@UIOleObject@@@ATL@@QEBA_NPEAUIOleObject@@@Z 000000018000abb0 f i Scanner.obj
 0001:00009c10       ??9?$CComPtrBase@UIPersistStream@@@ATL@@QEBA_NPEAUIPersistStream@@@Z 000000018000ac10 f i Scanner.obj
 0001:00009c70       ??9?$CComPtrBase@UIPersistStreamInit@@@ATL@@QEBA_NPEAUIPersistStreamInit@@@Z 000000018000ac70 f i Scanner.obj
 0001:00009cd0       ??9?$CComPtrBase@UIPointerInactive@@@ATL@@QEBA_NPEAUIPointerInactive@@@Z 000000018000acd0 f i Scanner.obj
 0001:00009d30       ??9?$CComPtrBase@UIUnknown@@@ATL@@QEBA_NPEAUIUnknown@@@Z 000000018000ad30 f i Scanner.obj
 0001:00009d90       ??9?$CComPtrBase@UIViewObjectEx@@@ATL@@QEBA_NPEAUIViewObjectEx@@@Z 000000018000ad90 f i Scanner.obj
 0001:00009df0       ??9CComBSTR@ATL@@QEBA_NH@Z 000000018000adf0 f i Scanner.obj
 0001:00009e50       ??B?$CComPtrBase@UIAdviseSink@@@ATL@@QEBAPEAUIAdviseSink@@XZ 000000018000ae50 f i Scanner.obj
 0001:00009e60       ??B?$CComPtrBase@UIDataAdviseHolder@@@ATL@@QEBAPEAUIDataAdviseHolder@@XZ 000000018000ae60 f i Scanner.obj
 0001:00009e70       ??B?$CComPtrBase@UIDataObject@@@ATL@@QEBAPEAUIDataObject@@XZ 000000018000ae70 f i Scanner.obj
 0001:00009e80       ??B?$CComPtrBase@UIOleAdviseHolder@@@ATL@@QEBAPEAUIOleAdviseHolder@@XZ 000000018000ae80 f i Scanner.obj
 0001:00009e90       ??B?$CComPtrBase@UIOleClientSite@@@ATL@@QEBAPEAUIOleClientSite@@XZ 000000018000ae90 f i Scanner.obj
 0001:00009ea0       ??B?$CComPtrBase@UIOleControlSite@@@ATL@@QEBAPEAUIOleControlSite@@XZ 000000018000aea0 f i Scanner.obj
 0001:00009eb0       ??B?$CComPtrBase@UIOleInPlaceActiveObject@@@ATL@@QEBAPEAUIOleInPlaceActiveObject@@XZ 000000018000aeb0 f i Scanner.obj
 0001:00009ec0       ??B?$CComPtrBase@UIOleInPlaceFrame@@@ATL@@QEBAPEAUIOleInPlaceFrame@@XZ 000000018000aec0 f i Scanner.obj
 0001:00009ed0       ??B?$CComPtrBase@UIOleInPlaceSiteWindowless@@@ATL@@QEBAPEAUIOleInPlaceSiteWindowless@@XZ 000000018000aed0 f i Scanner.obj
 0001:00009ee0       ??B?$CComPtrBase@UIOleInPlaceUIWindow@@@ATL@@QEBAPEAUIOleInPlaceUIWindow@@XZ 000000018000aee0 f i Scanner.obj
 0001:00009ef0       ??B?$CComPtrBase@UIOleObject@@@ATL@@QEBAPEAUIOleObject@@XZ 000000018000aef0 f i Scanner.obj
 0001:00009f00       ??B?$CComPtrBase@UIPersistStream@@@ATL@@QEBAPEAUIPersistStream@@XZ 000000018000af00 f i Scanner.obj
 0001:00009f10       ??B?$CComPtrBase@UIProvideClassInfo2@@@ATL@@QEBAPEAUIProvideClassInfo2@@XZ 000000018000af10 f i Scanner.obj
 0001:00009f20       ??B?$CComPtrBase@UISpecifyPropertyPages@@@ATL@@QEBAPEAUISpecifyPropertyPages@@XZ 000000018000af20 f i Scanner.obj
 0001:00009f30       ??B?$CComPtrBase@UIStream@@@ATL@@QEBAPEAUIStream@@XZ 000000018000af30 f i Scanner.obj
 0001:00009f40       ??B?$CComPtrBase@UITypeInfo2@@@ATL@@QEBAPEAUITypeInfo2@@XZ 000000018000af40 f i Scanner.obj
 0001:00009f50       ??B?$CComPtrBase@UITypeInfo@@@ATL@@QEBAPEAUITypeInfo@@XZ 000000018000af50 f i Scanner.obj
 0001:00009f60       ??B?$CComPtrBase@UITypeLib@@@ATL@@QEBAPEAUITypeLib@@XZ 000000018000af60 f i Scanner.obj
 0001:00009f70       ??B?$CComPtrBase@UIUnknown@@@ATL@@QEBAPEAUIUnknown@@XZ 000000018000af70 f i Scanner.obj
 0001:00009f80       ??B?$CTempBuffer@E$0BAA@VCCRTAllocator@ATL@@@ATL@@QEBAPEAEXZ 000000018000af80 f i Scanner.obj
 0001:00009f90       ??B?$CTempBuffer@_W$0BAA@VCCRTAllocator@ATL@@@ATL@@QEBAPEA_WXZ 000000018000af90 f i Scanner.obj
 0001:00009fa0       ??B?$CTempBuffer@_W$0EAA@VCCRTAllocator@ATL@@@ATL@@QEBAPEA_WXZ 000000018000afa0 f i Scanner.obj
 0001:00009fb0       ??B?$CTraceCategoryEx@$00$0A@@ATL@@QEAAIXZ 000000018000afb0 f i Scanner.obj
 0001:00009fc0       ??B?$CTraceCategoryEx@$07$0A@@ATL@@QEAAIXZ 000000018000afc0 f i Scanner.obj
 0001:00009fd0       ??B?$CTraceCategoryEx@$0CAAA@$0A@@ATL@@QEAAIXZ 000000018000afd0 f i Scanner.obj
 0001:00009fe0       ??B?$CTraceCategoryEx@$0EA@$0A@@ATL@@QEAAIXZ 000000018000afe0 f i Scanner.obj
 0001:00009ff0       ??B?$CTraceCategoryEx@$0IAA@$0A@@ATL@@QEAAIXZ 000000018000aff0 f i Scanner.obj
 0001:0000a000       ??BCComBSTR@ATL@@QEBAPEA_WXZ 000000018000b000 f i Scanner.obj
 0001:0000a010       ??BCRegKey@ATL@@QEBAPEAUHKEY__@@XZ 000000018000b010 f i Scanner.obj
 0001:0000a020       ??C?$CComPtrBase@UIAdviseSink@@@ATL@@QEBAPEAV?$_NoAddRefReleaseOnCComPtr@UIAdviseSink@@@1@XZ 000000018000b020 f i Scanner.obj
 0001:0000a0a0       ??C?$CComPtrBase@UICatRegister@@@ATL@@QEBAPEAV?$_NoAddRefReleaseOnCComPtr@UICatRegister@@@1@XZ 000000018000b0a0 f i Scanner.obj
 0001:0000a120       ??C?$CComPtrBase@UIConnectionPoint@@@ATL@@QEBAPEAV?$_NoAddRefReleaseOnCComPtr@UIConnectionPoint@@@1@XZ 000000018000b120 f i Scanner.obj
 0001:0000a1a0       ??C?$CComPtrBase@UIConnectionPointContainer@@@ATL@@QEBAPEAV?$_NoAddRefReleaseOnCComPtr@UIConnectionPointContainer@@@1@XZ 000000018000b1a0 f i Scanner.obj
 0001:0000a220       ??C?$CComPtrBase@UIDataAdviseHolder@@@ATL@@QEBAPEAV?$_NoAddRefReleaseOnCComPtr@UIDataAdviseHolder@@@1@XZ 000000018000b220 f i Scanner.obj
 0001:0000a2a0       ??C?$CComPtrBase@UIOleAdviseHolder@@@ATL@@QEBAPEAV?$_NoAddRefReleaseOnCComPtr@UIOleAdviseHolder@@@1@XZ 000000018000b2a0 f i Scanner.obj
 0001:0000a320       ??C?$CComPtrBase@UIOleClientSite@@@ATL@@QEBAPEAV?$_NoAddRefReleaseOnCComPtr@UIOleClientSite@@@1@XZ 000000018000b320 f i Scanner.obj
 0001:0000a3a0       ??C?$CComPtrBase@UIOleControlSite@@@ATL@@QEBAPEAV?$_NoAddRefReleaseOnCComPtr@UIOleControlSite@@@1@XZ 000000018000b3a0 f i Scanner.obj
 0001:0000a420       ??C?$CComPtrBase@UIOleInPlaceFrame@@@ATL@@QEBAPEAV?$_NoAddRefReleaseOnCComPtr@UIOleInPlaceFrame@@@1@XZ 000000018000b420 f i Scanner.obj
 0001:0000a4a0       ??C?$CComPtrBase@UIOleInPlaceObject@@@ATL@@QEBAPEAV?$_NoAddRefReleaseOnCComPtr@UIOleInPlaceObject@@@1@XZ 000000018000b4a0 f i Scanner.obj
 0001:0000a520       ??C?$CComPtrBase@UIOleInPlaceSiteWindowless@@@ATL@@QEBAPEAV?$_NoAddRefReleaseOnCComPtr@UIOleInPlaceSiteWindowless@@@1@XZ 000000018000b520 f i Scanner.obj
 0001:0000a5a0       ??C?$CComPtrBase@UIOleInPlaceUIWindow@@@ATL@@QEBAPEAV?$_NoAddRefReleaseOnCComPtr@UIOleInPlaceUIWindow@@@1@XZ 000000018000b5a0 f i Scanner.obj
 0001:0000a620       ??C?$CComPtrBase@UIOleObject@@@ATL@@QEBAPEAV?$_NoAddRefReleaseOnCComPtr@UIOleObject@@@1@XZ 000000018000b620 f i Scanner.obj
 0001:0000a6a0       ??C?$CComPtrBase@UIPersistStream@@@ATL@@QEBAPEAV?$_NoAddRefReleaseOnCComPtr@UIPersistStream@@@1@XZ 000000018000b6a0 f i Scanner.obj
 0001:0000a720       ??C?$CComPtrBase@UIPersistStreamInit@@@ATL@@QEBAPEAV?$_NoAddRefReleaseOnCComPtr@UIPersistStreamInit@@@1@XZ 000000018000b720 f i Scanner.obj
 0001:0000a7a0       ??C?$CComPtrBase@UIPointerInactive@@@ATL@@QEBAPEAV?$_NoAddRefReleaseOnCComPtr@UIPointerInactive@@@1@XZ 000000018000b7a0 f i Scanner.obj
 0001:0000a820       ??C?$CComPtrBase@UIProvideClassInfo2@@@ATL@@QEBAPEAV?$_NoAddRefReleaseOnCComPtr@UIProvideClassInfo2@@@1@XZ 000000018000b820 f i Scanner.obj
 0001:0000a8a0       ??C?$CComPtrBase@UISpecifyPropertyPages@@@ATL@@QEBAPEAV?$_NoAddRefReleaseOnCComPtr@UISpecifyPropertyPages@@@1@XZ 000000018000b8a0 f i Scanner.obj
 0001:0000a920       ??C?$CComPtrBase@UITypeInfo@@@ATL@@QEBAPEAV?$_NoAddRefReleaseOnCComPtr@UITypeInfo@@@1@XZ 000000018000b920 f i Scanner.obj
 0001:0000a9a0       ??C?$CComPtrBase@UITypeLib@@@ATL@@QEBAPEAV?$_NoAddRefReleaseOnCComPtr@UITypeLib@@@1@XZ 000000018000b9a0 f i Scanner.obj
 0001:0000aa20       ??C?$CComPtrBase@UIUnknown@@@ATL@@QEBAPEAV?$_NoAddRefReleaseOnCComPtr@UIUnknown@@@1@XZ 000000018000ba20 f i Scanner.obj
 0001:0000aaa0       ??C?$CComPtrBase@UIViewObjectEx@@@ATL@@QEBAPEAV?$_NoAddRefReleaseOnCComPtr@UIViewObjectEx@@@1@XZ 000000018000baa0 f i Scanner.obj
 0001:0000ab20       ??I?$CComPtrBase@UICatRegister@@@ATL@@QEAAPEAPEAUICatRegister@@XZ 000000018000bb20 f i Scanner.obj
 0001:0000ab90       ??I?$CComPtrBase@UIConnectionPoint@@@ATL@@QEAAPEAPEAUIConnectionPoint@@XZ 000000018000bb90 f i Scanner.obj
 0001:0000ac00       ??I?$CComPtrBase@UIConnectionPointContainer@@@ATL@@QEAAPEAPEAUIConnectionPointContainer@@XZ 000000018000bc00 f i Scanner.obj
 0001:0000ac70       ??I?$CComPtrBase@UIDataAdviseHolder@@@ATL@@QEAAPEAPEAUIDataAdviseHolder@@XZ 000000018000bc70 f i Scanner.obj
 0001:0000ace0       ??I?$CComPtrBase@UIDataObject@@@ATL@@QEAAPEAPEAUIDataObject@@XZ 000000018000bce0 f i Scanner.obj
 0001:0000ad50       ??I?$CComPtrBase@UIDispatch@@@ATL@@QEAAPEAPEAUIDispatch@@XZ 000000018000bd50 f i Scanner.obj
 0001:0000adc0       ??I?$CComPtrBase@UIOleAdviseHolder@@@ATL@@QEAAPEAPEAUIOleAdviseHolder@@XZ 000000018000bdc0 f i Scanner.obj
 0001:0000ae30       ??I?$CComPtrBase@UIOleControlSite@@@ATL@@QEAAPEAPEAUIOleControlSite@@XZ 000000018000be30 f i Scanner.obj
 0001:0000aea0       ??I?$CComPtrBase@UIOleInPlaceActiveObject@@@ATL@@QEAAPEAPEAUIOleInPlaceActiveObject@@XZ 000000018000bea0 f i Scanner.obj
 0001:0000af10       ??I?$CComPtrBase@UIOleInPlaceFrame@@@ATL@@QEAAPEAPEAUIOleInPlaceFrame@@XZ 000000018000bf10 f i Scanner.obj
 0001:0000af80       ??I?$CComPtrBase@UIOleInPlaceObject@@@ATL@@QEAAPEAPEAUIOleInPlaceObject@@XZ 000000018000bf80 f i Scanner.obj
 0001:0000aff0       ??I?$CComPtrBase@UIOleInPlaceSiteWindowless@@@ATL@@QEAAPEAPEAUIOleInPlaceSiteWindowless@@XZ 000000018000bff0 f i Scanner.obj
 0001:0000b060       ??I?$CComPtrBase@UIOleInPlaceUIWindow@@@ATL@@QEAAPEAPEAUIOleInPlaceUIWindow@@XZ 000000018000c060 f i Scanner.obj
 0001:0000b0d0       ??I?$CComPtrBase@UIOleObject@@@ATL@@QEAAPEAPEAUIOleObject@@XZ 000000018000c0d0 f i Scanner.obj
 0001:0000b140       ??I?$CComPtrBase@UIPersistStream@@@ATL@@QEAAPEAPEAUIPersistStream@@XZ 000000018000c140 f i Scanner.obj
 0001:0000b1b0       ??I?$CComPtrBase@UIPointerInactive@@@ATL@@QEAAPEAPEAUIPointerInactive@@XZ 000000018000c1b0 f i Scanner.obj
 0001:0000b220       ??I?$CComPtrBase@UIProvideClassInfo2@@@ATL@@QEAAPEAPEAUIProvideClassInfo2@@XZ 000000018000c220 f i Scanner.obj
 0001:0000b290       ??I?$CComPtrBase@UIStream@@@ATL@@QEAAPEAPEAUIStream@@XZ 000000018000c290 f i Scanner.obj
 0001:0000b300       ??I?$CComPtrBase@UITypeInfo2@@@ATL@@QEAAPEAPEAUITypeInfo2@@XZ 000000018000c300 f i Scanner.obj
 0001:0000b370       ??I?$CComPtrBase@UITypeInfo@@@ATL@@QEAAPEAPEAUITypeInfo@@XZ 000000018000c370 f i Scanner.obj
 0001:0000b3e0       ??I?$CComPtrBase@UITypeLib@@@ATL@@QEAAPEAPEAUITypeLib@@XZ 000000018000c3e0 f i Scanner.obj
 0001:0000b450       ??I?$CComPtrBase@UIUnknown@@@ATL@@QEAAPEAPEAUIUnknown@@XZ 000000018000c450 f i Scanner.obj
 0001:0000b4c0       ??I?$CComPtrBase@UIViewObjectEx@@@ATL@@QEAAPEAPEAUIViewObjectEx@@XZ 000000018000c4c0 f i Scanner.obj
 0001:0000b530       ??ICComBSTR@ATL@@QEAAPEAPEA_WXZ 000000018000c530 f i Scanner.obj
 0001:0000b540       ??_E?$CComContainedObject@VCOPOSScanner@@@ATL@@W7EAAPEAXI@Z 000000018000c540 f i Scanner.obj
 0001:0000b54c       ??_E?$CComContainedObject@VCOPOSScanner@@@ATL@@WHA@EAAPEAXI@Z 000000018000c54c f i Scanner.obj
 0001:0000b558       ??_E?$CComObject@VCOPOSScanner@@@ATL@@W7EAAPEAXI@Z 000000018000c558 f i Scanner.obj
 0001:0000b564       ??_E?$CComObject@VCOPOSScanner@@@ATL@@WHA@EAAPEAXI@Z 000000018000c564 f i Scanner.obj
 0001:0000b570       ??_G?$CComAggObject@VCOPOSScanner@@@ATL@@UEAAPEAXI@Z 000000018000c570 f i Scanner.obj
 0001:0000b570       ??_E?$CComAggObject@VCOPOSScanner@@@ATL@@UEAAPEAXI@Z 000000018000c570 f i Scanner.obj
 0001:0000b5d0       ??_E?$CComContainedObject@VCOPOSScanner@@@ATL@@UEAAPEAXI@Z 000000018000c5d0 f i Scanner.obj
 0001:0000b5d0       ??_G?$CComContainedObject@VCOPOSScanner@@@ATL@@UEAAPEAXI@Z 000000018000c5d0 f i Scanner.obj
 0001:0000b630       ??_E?$CComObject@V?$CComEnum@UIEnumConnectionPoints@@$1?_GUID_b196b285_bab4_101a_b69c_00aa00341d07@@3U__s_GUID@@BPEAUIConnectionPoint@@V?$_CopyInterface@UIConnectionPoint@@@ATL@@VCComSingleThreadModel@6@@ATL@@@ATL@@UEAAPEAXI@Z 000000018000c630 f i Scanner.obj
 0001:0000b630       ??_G?$CComObject@V?$CComEnum@UIEnumConnectionPoints@@$1?_GUID_b196b285_bab4_101a_b69c_00aa00341d07@@3U__s_GUID@@BPEAUIConnectionPoint@@V?$_CopyInterface@UIConnectionPoint@@@ATL@@VCComSingleThreadModel@6@@ATL@@@ATL@@UEAAPEAXI@Z 000000018000c630 f i Scanner.obj
 0001:0000b690       ??_E?$CComObject@V?$CComEnum@UIEnumConnections@@$1?_GUID_b196b287_bab4_101a_b69c_00aa00341d07@@3U__s_GUID@@BUtagCONNECTDATA@@V?$_Copy@UtagCONNECTDATA@@@ATL@@VCComSingleThreadModel@6@@ATL@@@ATL@@UEAAPEAXI@Z 000000018000c690 f i Scanner.obj
 0001:0000b690       ??_G?$CComObject@V?$CComEnum@UIEnumConnections@@$1?_GUID_b196b287_bab4_101a_b69c_00aa00341d07@@3U__s_GUID@@BUtagCONNECTDATA@@V?$_Copy@UtagCONNECTDATA@@@ATL@@VCComSingleThreadModel@6@@ATL@@@ATL@@UEAAPEAXI@Z 000000018000c690 f i Scanner.obj
 0001:0000b6f0       ??_G?$CComObject@VCOPOSScanner@@@ATL@@UEAAPEAXI@Z 000000018000c6f0 f i Scanner.obj
 0001:0000b6f0       ??_E?$CComObject@VCOPOSScanner@@@ATL@@UEAAPEAXI@Z 000000018000c6f0 f i Scanner.obj
 0001:0000b750       ??_E?$CComObjectCached@VCComClassFactory@ATL@@@ATL@@UEAAPEAXI@Z 000000018000c750 f i Scanner.obj
 0001:0000b750       ??_G?$CComObjectCached@VCComClassFactory@ATL@@@ATL@@UEAAPEAXI@Z 000000018000c750 f i Scanner.obj
 0001:0000b7b0       ??_ECComClassFactory@ATL@@UEAAPEAXI@Z 000000018000c7b0 f i Scanner.obj
 0001:0000b7b0       ??_GCComClassFactory@ATL@@UEAAPEAXI@Z 000000018000c7b0 f i Scanner.obj
 0001:0000b810       ??_ECComModule@ATL@@UEAAPEAXI@Z 000000018000c810 f i Scanner.obj
 0001:0000b810       ??_GCComModule@ATL@@UEAAPEAXI@Z 000000018000c810 f i Scanner.obj
 0001:0000b870       ??_GCRegObject@ATL@@UEAAPEAXI@Z 000000018000c870 f i Scanner.obj
 0001:0000b870       ??_ECRegObject@ATL@@UEAAPEAXI@Z 000000018000c870 f i Scanner.obj
 0001:0000b8d0       ?Add@?$CSimpleArray@GV?$CSimpleArrayEqualHelper@G@ATL@@@ATL@@QEAAHAEBG@Z 000000018000c8d0 f i Scanner.obj
 0001:0000ba70       ?Add@?$CSimpleMap@PEA_WPEA_WVCExpansionVectorEqualHelper@ATL@@@ATL@@QEAAHAEBQEA_W0@Z 000000018000ca70 f i Scanner.obj
 0001:0000bb60       ?Add@CComDynamicUnkArray@ATL@@QEAAKPEAUIUnknown@@@Z 000000018000cb60 f i Scanner.obj
 0001:0000bd40       ?Add@CExpansionVector@ATL@@QEAAHPEB_W0@Z 000000018000cd40 f i Scanner.obj
 0001:0000c070       ?AddChar@CParseBuffer@CRegParser@ATL@@QEAAHPEB_W@Z 000000018000d070 f i Scanner.obj
 0001:0000c0c0       ?AddCommonRGSReplacements@?$CAtlModuleT@VCComModule@ATL@@@ATL@@UEAAJPEAUIRegistrarBase@@@Z 000000018000d0c0 f i Scanner.obj
 0001:0000c120       ?AddCreateWndData@CAtlWinModule@ATL@@QEAAXPEAU_AtlCreateWndData@2@PEAX@Z 000000018000d120 f i Scanner.obj
 0001:0000c170       ?AddRef@?$CComAggObject@VCOPOSScanner@@@ATL@@UEAAKXZ 000000018000d170 f i Scanner.obj
 0001:0000c1b0       ?AddRef@?$CComContainedObject@VCOPOSScanner@@@ATL@@UEAAKXZ 000000018000d1b0 f i Scanner.obj
 0001:0000c1e8       ?AddRef@?$CComContainedObject@VCOPOSScanner@@@ATL@@WBAA@EAAKXZ 000000018000d1e8 f i Scanner.obj
 0001:0000c1f4       ?AddRef@?$CComContainedObject@VCOPOSScanner@@@ATL@@WBAI@EAAKXZ 000000018000d1f4 f i Scanner.obj
 0001:0000c200       ?AddRef@?$CComContainedObject@VCOPOSScanner@@@ATL@@WBBA@EAAKXZ 000000018000d200 f i Scanner.obj
 0001:0000c20c       ?AddRef@?$CComContainedObject@VCOPOSScanner@@@ATL@@WBBI@EAAKXZ 000000018000d20c f i Scanner.obj
 0001:0000c218       ?AddRef@?$CComContainedObject@VCOPOSScanner@@@ATL@@WBCI@EAAKXZ 000000018000d218 f i Scanner.obj
 0001:0000c224       ?AddRef@?$CComContainedObject@VCOPOSScanner@@@ATL@@WBEA@EAAKXZ 000000018000d224 f i Scanner.obj
 0001:0000c230       ?AddRef@?$CComContainedObject@VCOPOSScanner@@@ATL@@WLI@EAAKXZ 000000018000d230 f i Scanner.obj
 0001:0000c23c       ?AddRef@?$CComContainedObject@VCOPOSScanner@@@ATL@@WMA@EAAKXZ 000000018000d23c f i Scanner.obj
 0001:0000c248       ?AddRef@?$CComContainedObject@VCOPOSScanner@@@ATL@@WMI@EAAKXZ 000000018000d248 f i Scanner.obj
 0001:0000c254       ?AddRef@?$CComContainedObject@VCOPOSScanner@@@ATL@@WNA@EAAKXZ 000000018000d254 f i Scanner.obj
 0001:0000c260       ?AddRef@?$CComContainedObject@VCOPOSScanner@@@ATL@@WNI@EAAKXZ 000000018000d260 f i Scanner.obj
 0001:0000c26c       ?AddRef@?$CComContainedObject@VCOPOSScanner@@@ATL@@WOA@EAAKXZ 000000018000d26c f i Scanner.obj
 0001:0000c278       ?AddRef@?$CComContainedObject@VCOPOSScanner@@@ATL@@WOI@EAAKXZ 000000018000d278 f i Scanner.obj
 0001:0000c284       ?AddRef@?$CComContainedObject@VCOPOSScanner@@@ATL@@WPA@EAAKXZ 000000018000d284 f i Scanner.obj
 0001:0000c290       ?AddRef@?$CComContainedObject@VCOPOSScanner@@@ATL@@WPI@EAAKXZ 000000018000d290 f i Scanner.obj
 0001:0000c2a0       ?AddRef@?$CComObject@V?$CComEnum@UIEnumConnectionPoints@@$1?_GUID_b196b285_bab4_101a_b69c_00aa00341d07@@3U__s_GUID@@BPEAUIConnectionPoint@@V?$_CopyInterface@UIConnectionPoint@@@ATL@@VCComSingleThreadModel@6@@ATL@@@ATL@@UEAAKXZ 000000018000d2a0 f i Scanner.obj
 0001:0000c2e0       ?AddRef@?$CComObject@V?$CComEnum@UIEnumConnections@@$1?_GUID_b196b287_bab4_101a_b69c_00aa00341d07@@3U__s_GUID@@BUtagCONNECTDATA@@V?$_Copy@UtagCONNECTDATA@@@ATL@@VCComSingleThreadModel@6@@ATL@@@ATL@@UEAAKXZ 000000018000d2e0 f i Scanner.obj
 0001:0000c320       ?AddRef@?$CComObject@VCOPOSScanner@@@ATL@@UEAAKXZ 000000018000d320 f i Scanner.obj
 0001:0000c358       ?AddRef@?$CComObject@VCOPOSScanner@@@ATL@@WBAA@EAAKXZ 000000018000d358 f i Scanner.obj
 0001:0000c364       ?AddRef@?$CComObject@VCOPOSScanner@@@ATL@@WBAI@EAAKXZ 000000018000d364 f i Scanner.obj
 0001:0000c370       ?AddRef@?$CComObject@VCOPOSScanner@@@ATL@@WBBA@EAAKXZ 000000018000d370 f i Scanner.obj
 0001:0000c37c       ?AddRef@?$CComObject@VCOPOSScanner@@@ATL@@WBBI@EAAKXZ 000000018000d37c f i Scanner.obj
 0001:0000c388       ?AddRef@?$CComObject@VCOPOSScanner@@@ATL@@WBCI@EAAKXZ 000000018000d388 f i Scanner.obj
 0001:0000c394       ?AddRef@?$CComObject@VCOPOSScanner@@@ATL@@WBEA@EAAKXZ 000000018000d394 f i Scanner.obj
 0001:0000c3a0       ?AddRef@?$CComObject@VCOPOSScanner@@@ATL@@WLI@EAAKXZ 000000018000d3a0 f i Scanner.obj
 0001:0000c3ac       ?AddRef@?$CComObject@VCOPOSScanner@@@ATL@@WMA@EAAKXZ 000000018000d3ac f i Scanner.obj
 0001:0000c3b8       ?AddRef@?$CComObject@VCOPOSScanner@@@ATL@@WMI@EAAKXZ 000000018000d3b8 f i Scanner.obj
 0001:0000c3c4       ?AddRef@?$CComObject@VCOPOSScanner@@@ATL@@WNA@EAAKXZ 000000018000d3c4 f i Scanner.obj
 0001:0000c3d0       ?AddRef@?$CComObject@VCOPOSScanner@@@ATL@@WNI@EAAKXZ 000000018000d3d0 f i Scanner.obj
 0001:0000c3dc       ?AddRef@?$CComObject@VCOPOSScanner@@@ATL@@WOA@EAAKXZ 000000018000d3dc f i Scanner.obj
 0001:0000c3e8       ?AddRef@?$CComObject@VCOPOSScanner@@@ATL@@WOI@EAAKXZ 000000018000d3e8 f i Scanner.obj
 0001:0000c3f4       ?AddRef@?$CComObject@VCOPOSScanner@@@ATL@@WPA@EAAKXZ 000000018000d3f4 f i Scanner.obj
 0001:0000c400       ?AddRef@?$CComObject@VCOPOSScanner@@@ATL@@WPI@EAAKXZ 000000018000d400 f i Scanner.obj
 0001:0000c410       ?AddRef@?$CComObjectCached@VCComClassFactory@ATL@@@ATL@@UEAAKXZ 000000018000d410 f i Scanner.obj
 0001:0000c470       ?AddRef@CRegObject@ATL@@UEAAKXZ 000000018000d470 f i Scanner.obj
 0001:0000c4e0       ?AddReplacement@CRegObject@ATL@@UEAAJPEB_W0@Z 000000018000d4e0 f i Scanner.obj
 0001:0000c610       ?AddString@CParseBuffer@CRegParser@ATL@@QEAAHPEB_W@Z 000000018000d610 f i Scanner.obj
 0001:0000c700       ?AddTermFunc@CAtlModule@ATL@@QEAAJP6AX_K@Z0@Z 000000018000d700 f i Scanner.obj
 0001:0000c770       ?AddValue@CRegParser@ATL@@IEAAJAEAVCRegKey@2@PEB_WPEA_W@Z 000000018000d770 f i Scanner.obj
 0001:0000d040       ?Advise@?$CProxy_IOPOSEvents@VCOPOSScanner@@@@UEAAJPEAUIUnknown@@PEAK@Z 000000018000e040 f i Scanner.obj
 0001:0000d0b0       ?Advise@?$IConnectionPointImpl@VCOPOSScanner@@$1?DIID__IOPOSScannerEvents@@3U_GUID@@BVCComDynamicUnkArray@ATL@@@ATL@@UEAAJPEAUIUnknown@@PEAK@Z 000000018000e0b0 f i Scanner.obj
 0001:0000d2b0       ?Advise@?$IConnectionPointImpl@VCOPOSScanner@@$1?IID_IPropertyNotifySink@@3U_GUID@@BVCComDynamicUnkArray@ATL@@@ATL@@UEAAJPEAUIUnknown@@PEAK@Z 000000018000e2b0 f i Scanner.obj
 0001:0000d4b0       ?Advise@?$IOleObjectImpl@VCOPOSScanner@@@ATL@@UEAAJPEAUIAdviseSink@@PEAK@Z 000000018000e4b0 f i Scanner.obj
 0001:0000d570       ?Allocate@?$CAtlSafeAllocBufferManager@VCCRTAllocator@ATL@@@_ATL_SAFE_ALLOCA_IMPL@ATL@@QEAAPEAX_K@Z 000000018000e570 f i Scanner.obj
 0001:0000d5f0       ?Allocate@?$CTempBuffer@E$0BAA@VCCRTAllocator@ATL@@@ATL@@QEAAPEAE_K@Z 000000018000e5f0 f i Scanner.obj
 0001:0000d640       ?Allocate@?$CTempBuffer@_W$0BAA@VCCRTAllocator@ATL@@@ATL@@QEAAPEA_W_K@Z 000000018000e640 f i Scanner.obj
 0001:0000d690       ?Allocate@?$CTempBuffer@_W$0EAA@VCCRTAllocator@ATL@@@ATL@@QEAAPEA_W_K@Z 000000018000e690 f i Scanner.obj
 0001:0000d6e0       ?AllocateBytes@?$CTempBuffer@E$0BAA@VCCRTAllocator@ATL@@@ATL@@QEAAPEAE_K@Z 000000018000e6e0 f i Scanner.obj
 0001:0000d790       ?AllocateBytes@?$CTempBuffer@_W$0BAA@VCCRTAllocator@ATL@@@ATL@@QEAAPEA_W_K@Z 000000018000e790 f i Scanner.obj
 0001:0000d840       ?AllocateBytes@?$CTempBuffer@_W$0EAA@VCCRTAllocator@ATL@@@ATL@@QEAAPEA_W_K@Z 000000018000e840 f i Scanner.obj
 0001:0000d8f0       ?AllocateHeap@?$CTempBuffer@E$0BAA@VCCRTAllocator@ATL@@@ATL@@AEAAX_K@Z 000000018000e8f0 f i Scanner.obj
 0001:0000d950       ?AllocateHeap@?$CTempBuffer@_W$0BAA@VCCRTAllocator@ATL@@@ATL@@AEAAX_K@Z 000000018000e950 f i Scanner.obj
 0001:0000d9b0       ?AllocateHeap@?$CTempBuffer@_W$0EAA@VCCRTAllocator@ATL@@@ATL@@AEAAX_K@Z 000000018000e9b0 f i Scanner.obj
 0001:0000da10       ?Append@CParseBuffer@CRegParser@ATL@@QEAAHPEB_WH@Z 000000018000ea10 f i Scanner.obj
 0001:0000dc40       ?AtlCallTermFunc@ATL@@YAXPEAU_ATL_MODULE70@1@@Z 000000018000ec40 f i Scanner.obj
 0001:0000dcf0       ?AtlCoTaskMemCAlloc@ATL@@YAPEAXKK@Z 000000018000ecf0 f i Scanner.obj
 0001:0000dd70       ?AtlCoTaskMemRecalloc@ATL@@YAPEAXPEAXKK@Z 000000018000ed70 f i Scanner.obj
 0001:0000ddf0       ?AtlComModuleGetClassObject@ATL@@YAJPEAU_ATL_COM_MODULE70@1@AEBU_GUID@@1PEAPEAX@Z 000000018000edf0 f i Scanner.obj
 0001:0000e120       ?AtlComModuleRegisterServer@ATL@@YAJPEAU_ATL_COM_MODULE70@1@HPEBU_GUID@@@Z 000000018000f120 f i Scanner.obj
 0001:0000e320       ?AtlComModuleUnregisterServer@ATL@@YAJPEAU_ATL_COM_MODULE70@1@HPEBU_GUID@@@Z 000000018000f320 f i Scanner.obj
 0001:0000e480       ?AtlComQIPtrAssign2@ATL@@YAXPEAPEAUIUnknown@@PEAU2@AEBU_GUID@@@Z 000000018000f480 f i Scanner.obj
 0001:0000e510       ?AtlCreateTargetDC@ATL@@YAPEAUHDC__@@PEAU2@PEAUtagDVTARGETDEVICE@@@Z 000000018000f510 f i Scanner.obj
 0001:0000e740       ?AtlCrtErrorCheck@ATL@@YAHH@Z 000000018000f740 f i Scanner.obj
 0001:0000e7c0       ?AtlGetPerUserRegistration@ATL@@YAJPEA_N@Z 000000018000f7c0 f i Scanner.obj
 0001:0000e7f0       ?AtlHiMetricToPixel@ATL@@YAXPEBUtagSIZE@@PEAU2@@Z 000000018000f7f0 f i Scanner.obj
 0001:0000e9f0       ?AtlHresultFromLastError@ATL@@YAJXZ 000000018000f9f0 f i Scanner.obj
 0001:0000ea20       ?AtlHresultFromWin32@ATL@@YAJK@Z 000000018000fa20 f i Scanner.obj
 0001:0000ea50       ?AtlIPersistStreamInit_Load@ATL@@YAJPEAUIStream@@PEBUATL_PROPMAP_ENTRY@1@PEAXPEAUIUnknown@@@Z 000000018000fa50 f i Scanner.obj
 0001:0000f0c0       ?AtlIPersistStreamInit_Save@ATL@@YAJPEAUIStream@@HPEBUATL_PROPMAP_ENTRY@1@PEAXPEAUIUnknown@@@Z 00000001800100c0 f i Scanner.obj
 0001:0000f650       ?AtlInternalOleLoadFromStream@ATL@@YAJPEAUIStream@@AEBU_GUID@@PEAPEAXTClassesAllowedInStream@1@K@Z 0000000180010650 f i Scanner.obj
 0001:0000f990       ?AtlInternalQueryInterface@ATL@@YAJPEAXPEBU_ATL_INTMAP_ENTRY@1@AEBU_GUID@@PEAPEAX@Z 0000000180010990 f i Scanner.obj
 0001:0000fc50       ?AtlLoadTypeLib@ATL@@YAJPEAUHINSTANCE__@@PEB_WPEAPEA_WPEAPEAUITypeLib@@@Z 0000000180010c50 f i Scanner.obj
 0001:00010120       ?AtlModuleAddTermFunc@ATL@@YAJPEAU_ATL_MODULE70@1@P6AX_K@Z1@Z 0000000180011120 f i Scanner.obj
 0001:000102f0       ?AtlRegisterClassCategoriesHelper@ATL@@YAJAEBU_GUID@@PEBU_ATL_CATMAP_ENTRY@1@H@Z 00000001800112f0 f i Scanner.obj
 0001:00010ac0       ?AtlRegisterTypeLib@ATL@@YAJPEAUHINSTANCE__@@PEB_W@Z 0000000180011ac0 f i Scanner.obj
 0001:00010e20       ?AtlThrowImpl@ATL@@YAXJ@Z  0000000180011e20 f i Scanner.obj
 0001:00010f00       ?AtlUnRegisterTypeLib@ATL@@YAJPEAUHINSTANCE__@@PEB_W@Z 0000000180011f00 f i Scanner.obj
 0001:00011130       ?AtlWinModuleAddCreateWndData@ATL@@YAXPEAU_ATL_WIN_MODULE70@1@PEAU_AtlCreateWndData@1@PEAX@Z 0000000180012130 f i Scanner.obj
 0001:00011320       ?AtlWinModuleExtractCreateWndData@ATL@@YAPEAXPEAU_ATL_WIN_MODULE70@1@@Z 0000000180012320 f i Scanner.obj
 0001:00011520       ?AtlWinModuleRegisterClassExW@ATL@@YAGPEAU_ATL_WIN_MODULE70@1@PEBUtagWNDCLASSEXW@@@Z 0000000180012520 f i Scanner.obj
 0001:000115f0       ?AtlWinModuleRegisterWndClassInfoW@ATL@@YAGPEAU_ATL_WIN_MODULE70@1@PEAU_ATL_BASE_MODULE70@1@PEAU_ATL_WNDCLASSINFOW@1@PEAP6A_JPEAUHWND__@@I_K_J@Z@Z 00000001800125f0 f i Scanner.obj
 0001:00011660       ?Attach@?$CAutoVectorPtr@_W@ATL@@QEAAXPEA_W@Z 0000000180012660 f i Scanner.obj
 0001:000116f0       ?Attach@CComBSTR@ATL@@QEAAXPEA_W@Z 00000001800126f0 f i Scanner.obj
 0001:00011750       ?Attach@CRegKey@ATL@@QEAAXPEAUHKEY__@@@Z 0000000180012750 f i Scanner.obj
 0001:000117f0       ?CanForceRemoveKey@CRegParser@ATL@@IEAAHPEB_W@Z 00000001800127f0 f i Scanner.obj
 0001:00011860       ?ChToByte@CRegParser@ATL@@KAE_W@Z 0000000180012860 f i Scanner.obj
 0001:000119c0       ?ChangeType@CComVariant@ATL@@QEAAJGPEBUtagVARIANT@@@Z 00000001800129c0 f i Scanner.obj
 0001:00011a30       ?Cleanup@CComTypeInfoHolder@ATL@@SAX_K@Z 0000000180012a30 f i Scanner.obj
 0001:00011b20       ?Clear@CComVariant@ATL@@QEAAJXZ 0000000180012b20 f i Scanner.obj
 0001:00011b50       ?ClearReplacements@CExpansionVector@ATL@@QEAAJXZ 0000000180012b50 f i Scanner.obj
 0001:00011bf0       ?ClearReplacements@CRegObject@ATL@@UEAAJXZ 0000000180012bf0 f i Scanner.obj
 0001:00011c50       ?Clone@?$CComEnumImpl@UIEnumConnectionPoints@@$1?_GUID_b196b285_bab4_101a_b69c_00aa00341d07@@3U__s_GUID@@BPEAUIConnectionPoint@@V?$_CopyInterface@UIConnectionPoint@@@ATL@@@ATL@@UEAAJPEAPEAUIEnumConnectionPoints@@@Z 0000000180012c50 f i Scanner.obj
 0001:00011e40       ?Clone@?$CComEnumImpl@UIEnumConnections@@$1?_GUID_b196b287_bab4_101a_b69c_00aa00341d07@@3U__s_GUID@@BUtagCONNECTDATA@@V?$_Copy@UtagCONNECTDATA@@@ATL@@@ATL@@UEAAJPEAPEAUIEnumConnections@@@Z 0000000180012e40 f i Scanner.obj
 0001:00012030       ?Close@?$IOleObjectImpl@VCOPOSScanner@@@ATL@@UEAAJK@Z 0000000180013030 f i Scanner.obj
 0001:000120e0       ?Close@CRegKey@ATL@@QEAAJXZ 00000001800130e0 f i Scanner.obj
 0001:00012150       ?ContextSensitiveHelp@?$IOleInPlaceActiveObjectImpl@VCOPOSScanner@@@ATL@@UEAAJH@Z 0000000180013150 f i Scanner.obj
 0001:000121d0       ?ContextSensitiveHelp@?$IOleInPlaceObjectWindowlessImpl@VCOPOSScanner@@@ATL@@UEAAJH@Z 00000001800131d0 f i Scanner.obj
 0001:00012250       ?ControlQueryInterface@?$CComControl@VCOPOSScanner@@V?$CWindowImpl@VCOPOSScanner@@VCWindow@ATL@@V?$CWinTraits@$0FGAAAAAA@$0A@@3@@ATL@@@ATL@@UEAAJAEBU_GUID@@PEAPEAX@Z 0000000180013250 f i Scanner.obj
 0001:000122e0       ?CreateControlWindow@?$CComControl@VCOPOSScanner@@V?$CWindowImpl@VCOPOSScanner@@VCWindow@ATL@@V?$CWinTraits@$0FGAAAAAA@$0A@@3@@ATL@@@ATL@@UEAAPEAUHWND__@@PEAU3@AEAUtagRECT@@@Z 00000001800132e0 f i Scanner.obj
 0001:000123d0       ?CreateInstance@?$CComCreator@V?$CComAggObject@VCOPOSScanner@@@ATL@@@ATL@@SAJPEAXAEBU_GUID@@PEAPEAX@Z 00000001800133d0 f i Scanner.obj
 0001:000125b0       ?CreateInstance@?$CComCreator@V?$CComObject@VCOPOSScanner@@@ATL@@@ATL@@SAJPEAXAEBU_GUID@@PEAPEAX@Z 00000001800135b0 f i Scanner.obj
 0001:000127b0       ?CreateInstance@?$CComObject@V?$CComEnum@UIEnumConnectionPoints@@$1?_GUID_b196b285_bab4_101a_b69c_00aa00341d07@@3U__s_GUID@@BPEAUIConnectionPoint@@V?$_CopyInterface@UIConnectionPoint@@@ATL@@VCComSingleThreadModel@6@@ATL@@@ATL@@SAJPEAPEAV12@@Z 00000001800137b0 f i Scanner.obj
 0001:00012970       ?CreateInstance@?$CComObject@V?$CComEnum@UIEnumConnections@@$1?_GUID_b196b287_bab4_101a_b69c_00aa00341d07@@3U__s_GUID@@BUtagCONNECTDATA@@V?$_Copy@UtagCONNECTDATA@@@ATL@@VCComSingleThreadModel@6@@ATL@@@ATL@@SAJPEAPEAV12@@Z 0000000180013970 f i Scanner.obj
 0001:00012b30       ?CreateInstance@CComClassFactory@ATL@@UEAAJPEAUIUnknown@@AEBU_GUID@@PEAPEAX@Z 0000000180013b30 f i Scanner.obj
 0001:00012c50       ?DAdvise@?$IDataObjectImpl@VCOPOSScanner@@@ATL@@UEAAJPEAUtagFORMATETC@@KPEAUIAdviseSink@@PEAK@Z 0000000180013c50 f i Scanner.obj
 0001:00012db0       ?DEVMODEOLE2T_EX@@YAPEAU_devicemodeW@@PEAU1@@Z 0000000180013db0 f i Scanner.obj
 0001:00012dc0       ?DUnadvise@?$IDataObjectImpl@VCOPOSScanner@@@ATL@@UEAAJK@Z 0000000180013dc0 f i Scanner.obj
 0001:00012ec0       ?Decrement@CComMultiThreadModel@ATL@@SAKPEAJ@Z 0000000180013ec0 f i Scanner.obj
 0001:00012ee0       ?Decrement@CComSingleThreadModel@ATL@@SAKPEAJ@Z 0000000180013ee0 f i Scanner.obj
 0001:00012f00       ?DefWindowProcW@?$CWindowImplBaseT@VCWindow@ATL@@V?$CWinTraits@$0FGAAAAAA@$0A@@2@@ATL@@QEAA_JI_K_J@Z 0000000180013f00 f i Scanner.obj
 0001:00012f60       ?DefaultReflectionHandler@?$CWindowImplRoot@VCWindow@ATL@@@ATL@@SAHPEAUHWND__@@I_K_JAEA_J@Z 0000000180013f60 f i Scanner.obj
 0001:00013050       ?DeleteSubKey@CRegKey@ATL@@QEAAJPEB_W@Z 0000000180014050 f i Scanner.obj
 0001:00013180       ?DeleteValue@CRegKey@ATL@@QEAAJPEB_W@Z 0000000180014180 f i Scanner.obj
 0001:00013210       ?Detach@?$CAutoVectorPtr@_W@ATL@@QEAAPEA_WXZ 0000000180014210 f i Scanner.obj
 0001:00013250       ?Detach@?$CComPtrBase@UIPersistStream@@@ATL@@QEAAPEAUIPersistStream@@XZ 0000000180014250 f i Scanner.obj
 0001:00013290       ?Detach@?$CComPtrBase@UITypeInfo@@@ATL@@QEAAPEAUITypeInfo@@XZ 0000000180014290 f i Scanner.obj
 0001:000132d0       ?Detach@?$CComPtrBase@UIUnknown@@@ATL@@QEAAPEAUIUnknown@@XZ 00000001800142d0 f i Scanner.obj
 0001:00013310       ?Detach@CComBSTR@ATL@@QEAAPEA_WXZ 0000000180014310 f i Scanner.obj
 0001:00013350       ?Detach@CParseBuffer@CRegParser@ATL@@QEAAPEA_WXZ 0000000180014350 f i Scanner.obj
 0001:000133b0       ?Detach@CRegKey@ATL@@QEAAPEAUHKEY__@@XZ 00000001800143b0 f i Scanner.obj
 0001:00013410       ?DoEvent@COPOSScanner@@IEAAXI_K_J@Z 0000000180014410 f i Scanner.obj
 0001:00013550       ?DoVerb@?$IOleObjectImpl@VCOPOSScanner@@@ATL@@UEAAJJPEAUtagMSG@@PEAUIOleClientSite@@JPEAUHWND__@@PEBUtagRECT@@@Z 0000000180014550 f i Scanner.obj
 0001:00013860       ?DoVerbDiscardUndo@?$IOleObjectImpl@VCOPOSScanner@@@ATL@@QEAAJPEBUtagRECT@@PEAUHWND__@@@Z 0000000180014860 f i Scanner.obj
 0001:00013900       ?DoVerbHide@?$IOleObjectImpl@VCOPOSScanner@@@ATL@@QEAAJPEBUtagRECT@@PEAUHWND__@@@Z 0000000180014900 f i Scanner.obj
 0001:000139e0       ?DoVerbInPlaceActivate@?$IOleObjectImpl@VCOPOSScanner@@@ATL@@QEAAJPEBUtagRECT@@PEAUHWND__@@@Z 00000001800149e0 f i Scanner.obj
 0001:00013ac0       ?DoVerbOpen@?$IOleObjectImpl@VCOPOSScanner@@@ATL@@QEAAJPEBUtagRECT@@PEAUHWND__@@@Z 0000000180014ac0 f i Scanner.obj
 0001:00013b60       ?DoVerbPrimary@?$IOleObjectImpl@VCOPOSScanner@@@ATL@@QEAAJPEBUtagRECT@@PEAUHWND__@@@Z 0000000180014b60 f i Scanner.obj
 0001:00013ca0       ?DoVerbProperties@CComControlBase@ATL@@QEAAJPEBUtagRECT@@PEAUHWND__@@@Z 0000000180014ca0 f i Scanner.obj
 0001:00014050       ?DoVerbShow@?$IOleObjectImpl@VCOPOSScanner@@@ATL@@QEAAJPEBUtagRECT@@PEAUHWND__@@@Z 0000000180015050 f i Scanner.obj
 0001:00014110       ?DoVerbUIActivate@?$IOleObjectImpl@VCOPOSScanner@@@ATL@@QEAAJPEBUtagRECT@@PEAUHWND__@@@Z 0000000180015110 f i Scanner.obj
 0001:000141f0       ?DoesVerbActivate@CComControlBase@ATL@@QEAAHJ@Z 00000001800151f0 f i Scanner.obj
 0001:00014250       ?DoesVerbUIActivate@CComControlBase@ATL@@QEAAHJ@Z 0000000180015250 f i Scanner.obj
 0001:000142d0       ?Draw@?$IViewObjectExImpl@VCOPOSScanner@@@ATL@@UEAAJKJPEAXPEAUtagDVTARGETDEVICE@@PEAUHDC__@@2PEBU_RECTL@@3P6AH_K@Z4@Z 00000001800152d0 f i Scanner.obj
 0001:000143f0       ?Empty@CComBSTR@ATL@@QEAAXXZ 00000001800153f0 f i Scanner.obj
 0001:00014430       ?EnableModeless@?$IOleInPlaceActiveObjectImpl@VCOPOSScanner@@@ATL@@UEAAJH@Z 0000000180015430 f i Scanner.obj
 0001:000144a0       ?EndOfVar@CRegParser@ATL@@IEAAHXZ 00000001800154a0 f i Scanner.obj
 0001:00014500       ?EnsureTI@CComTypeInfoHolder@ATL@@QEAAJK@Z 0000000180015500 f i Scanner.obj
 0001:00014560       ?EnumAdvise@?$IOleObjectImpl@VCOPOSScanner@@@ATL@@UEAAJPEAPEAUIEnumSTATDATA@@@Z 0000000180015560 f i Scanner.obj
 0001:000146c0       ?EnumConnectionPoints@?$IConnectionPointContainerImpl@VCOPOSScanner@@@ATL@@UEAAJPEAPEAUIEnumConnectionPoints@@@Z 00000001800156c0 f i Scanner.obj
 0001:00014bb0       ?EnumConnections@?$IConnectionPointImpl@VCOPOSScanner@@$1?DIID__IOPOSScannerEvents@@3U_GUID@@BVCComDynamicUnkArray@ATL@@@ATL@@UEAAJPEAPEAUIEnumConnections@@@Z 0000000180015bb0 f i Scanner.obj
 0001:00014f00       ?EnumConnections@?$IConnectionPointImpl@VCOPOSScanner@@$1?IID_IPropertyNotifySink@@3U_GUID@@BVCComDynamicUnkArray@ATL@@@ATL@@UEAAJPEAPEAUIEnumConnections@@@Z 0000000180015f00 f i Scanner.obj
 0001:00015250       ?EnumDAdvise@?$IDataObjectImpl@VCOPOSScanner@@@ATL@@UEAAJPEAPEAUIEnumSTATDATA@@@Z 0000000180016250 f i Scanner.obj
 0001:000153a0       ?EnumFormatEtc@?$IDataObjectImpl@VCOPOSScanner@@@ATL@@UEAAJKPEAPEAUIEnumFORMATETC@@@Z 00000001800163a0 f i Scanner.obj
 0001:00015430       ?EnumVerbs@?$IOleObjectImpl@VCOPOSScanner@@@ATL@@UEAAJPEAPEAUIEnumOLEVERB@@@Z 0000000180016430 f i Scanner.obj
 0001:00015500       ?EscapeSingleQuote@CAtlModule@ATL@@SAXPEA_W_KPEB_W@Z 0000000180016500 f i Scanner.obj
 0001:00015600       ?ExtractCreateWndData@CAtlWinModule@ATL@@QEAAPEAXXZ 0000000180016600 f i Scanner.obj
 0001:00015630       ?FAccessAllowed@?$IObjectSafetyImpl@VCOPOSScanner@@$02@ATL@@MEAAHXZ 0000000180016630 f i Scanner.obj
 0001:00015640       ?FinalConstruct@?$CComAggObject@VCOPOSScanner@@@ATL@@QEAAJXZ 0000000180016640 f i Scanner.obj
 0001:00015690       ?FinalConstruct@CComObjectRootBase@ATL@@QEAAJXZ 0000000180016690 f i Scanner.obj
 0001:000156a0       ?FinalConstruct@CRegObject@ATL@@QEAAJXZ 00000001800166a0 f i Scanner.obj
 0001:000156e0       ?FinalRelease@?$CComAggObject@VCOPOSScanner@@@ATL@@QEAAXXZ 00000001800166e0 f i Scanner.obj
 0001:00015730       ?FinalRelease@CComObjectRootBase@ATL@@QEAAXXZ 0000000180016730 f i Scanner.obj
 0001:00015740       ?FindConnectionPoint@?$IConnectionPointContainerImpl@VCOPOSScanner@@@ATL@@UEAAJAEBU_GUID@@PEAPEAUIConnectionPoint@@@Z 0000000180016740 f i Scanner.obj
 0001:000158b0       ?FindKey@?$CSimpleMap@PEA_WPEA_WVCExpansionVectorEqualHelper@ATL@@@ATL@@QEBAHAEBQEA_W@Z 00000001800168b0 f i Scanner.obj
 0001:00015930       ?FireTheEvent@?$CProxy_IOPOSEvents@VCOPOSScanner@@@@IEAAXPEAUIUnknown@@PEAVOposVariant@@IAEAJPEB_WJ@Z 0000000180016930 f i Scanner.obj
 0001:00015b10       ?FireViewChange@CComControlBase@ATL@@QEAAJXZ 0000000180016b10 f i Scanner.obj
 0001:00015bf0       ?Fire_DataEvent@?$CProxy_IOPOSEvents@VCOPOSScanner@@@@QEAAXJ@Z 0000000180016bf0 f i Scanner.obj
 0001:00015de0       ?Fire_DirectIOEvent@?$CProxy_IOPOSEvents@VCOPOSScanner@@@@QEAAXJPEAJPEAPEA_W@Z 0000000180016de0 f i Scanner.obj
 0001:00016070       ?Fire_ErrorEvent@?$CProxy_IOPOSEvents@VCOPOSScanner@@@@QEAAXJJJPEAJ@Z 0000000180017070 f i Scanner.obj
 0001:00016320       ?Fire_StatusUpdateEvent@?$CProxy_IOPOSEvents@VCOPOSScanner@@@@QEAAXJ@Z 0000000180017320 f i Scanner.obj
 0001:00016510       ?FormatWindowClassName@AtlModuleRegisterWndClassInfoParamW@ATL@@SAXPEA_WKPEAX@Z 0000000180017510 f i Scanner.obj
 0001:00016560       ?Free@?$CAutoVectorPtr@_W@ATL@@QEAAXXZ 0000000180017560 f i Scanner.obj
 0001:000165b0       ?FreeHeap@?$CTempBuffer@E$0BAA@VCCRTAllocator@ATL@@@ATL@@AEAAXXZ 00000001800175b0 f i Scanner.obj
 0001:000165f0       ?FreeHeap@?$CTempBuffer@_W$0BAA@VCCRTAllocator@ATL@@@ATL@@AEAAXXZ 00000001800175f0 f i Scanner.obj
 0001:00016630       ?FreeHeap@?$CTempBuffer@_W$0EAA@VCCRTAllocator@ATL@@@ATL@@AEAAXXZ 0000000180017630 f i Scanner.obj
 0001:00016670       ?Freeze@?$IViewObjectExImpl@VCOPOSScanner@@@ATL@@UEAAJKJPEAXPEAK@Z 0000000180017670 f i Scanner.obj
 0001:00016700       ?GenerateError@CRegParser@ATL@@IEAAJI@Z 0000000180017700 f i Scanner.obj
 0001:00016720       ?GetAdvise@?$IViewObjectExImpl@VCOPOSScanner@@@ATL@@UEAAJPEAK0PEAPEAUIAdviseSink@@@Z 0000000180017720 f i Scanner.obj
 0001:00016870       ?GetAmbientLocaleID@CComControlBase@ATL@@QEAAJAEAK@Z 0000000180017870 f i Scanner.obj
 0001:00016950       ?GetAmbientProperty@CComControlBase@ATL@@QEAAJJAEAUtagVARIANT@@@Z 0000000180017950 f i Scanner.obj
 0001:000169c0       ?GetAmbientUserMode@CComControlBase@ATL@@QEAAJAEAH@Z 00000001800179c0 f i Scanner.obj
 0001:00016ae0       ?GetAppId@?$CAtlModuleT@VCComModule@ATL@@@ATL@@SAPEB_WXZ 0000000180017ae0 f i Scanner.obj
 0001:00016af0       ?GetAt@CComDynamicUnkArray@ATL@@QEAAPEAUIUnknown@@H@Z 0000000180017af0 f i Scanner.obj
 0001:00016ba0       ?GetCanonicalFormatEtc@?$IDataObjectImpl@VCOPOSScanner@@@ATL@@UEAAJPEAUtagFORMATETC@@0@Z 0000000180017ba0 f i Scanner.obj
 0001:00016c30       ?GetClassID@?$IPersistStorageImpl@VCOPOSScanner@@@ATL@@UEAAJPEAU_GUID@@@Z 0000000180017c30 f i Scanner.obj
 0001:00016cd0       ?GetClassID@?$IPersistStreamInitImpl@VCOPOSScanner@@@ATL@@UEAAJPEAU_GUID@@@Z 0000000180017cd0 f i Scanner.obj
 0001:00016d70       ?GetClassInfoExW@AtlModuleRegisterWndClassInfoParamW@ATL@@SAHPEAUHINSTANCE__@@PEB_WPEAUtagWNDCLASSEXW@@@Z 0000000180017d70 f i Scanner.obj
 0001:00016dc0       ?GetClassInfoW@?$IProvideClassInfo2Impl@$1?CLSID_OPOSScanner@@3U_GUID@@B$1?DIID__IOPOSScannerEvents@@3U2@B$1?LIBID_OposScanner_CCO@@3U2@B$00$0A@VCComTypeInfoHolder@ATL@@@ATL@@UEAAJPEAPEAUITypeInfo@@@Z 0000000180017dc0 f i Scanner.obj
 0001:00016e00       ?GetClassObject@CComModule@ATL@@QEAAJAEBU_GUID@@0PEAPEAX@Z 0000000180017e00 f i Scanner.obj
 0001:00017070       ?GetClientSite@?$IOleObjectImpl@VCOPOSScanner@@@ATL@@UEAAJPEAPEAUIOleClientSite@@@Z 0000000180018070 f i Scanner.obj
 0001:00017120       ?GetClipboardData@?$IOleObjectImpl@VCOPOSScanner@@@ATL@@UEAAJKPEAPEAUIDataObject@@@Z 0000000180018120 f i Scanner.obj
 0001:000171b0       ?GetCodeAddress@CDynamicStdCallThunk2@ATL@@QEAAPEAXXZ 00000001800181b0 f i Scanner.obj
 0001:000171f0       ?GetColorSet@?$IViewObjectExImpl@VCOPOSScanner@@@ATL@@UEAAJKJPEAXPEAUtagDVTARGETDEVICE@@PEAUHDC__@@PEAPEAUtagLOGPALETTE@@@Z 00000001800181f0 f i Scanner.obj
 0001:00017280       ?GetConnMap@COPOSScanner@@SAPEBU_ATL_CONNMAP_ENTRY@ATL@@PEAH@Z 0000000180018280 f i Scanner.obj
 0001:000173e0       ?GetConnectionInterface@?$IConnectionPointImpl@VCOPOSScanner@@$1?DIID__IOPOSScannerEvents@@3U_GUID@@BVCComDynamicUnkArray@ATL@@@ATL@@UEAAJPEAU_GUID@@@Z 00000001800183e0 f i Scanner.obj
 0001:00017420       ?GetConnectionInterface@?$IConnectionPointImpl@VCOPOSScanner@@$1?IID_IPropertyNotifySink@@3U_GUID@@BVCComDynamicUnkArray@ATL@@@ATL@@UEAAJPEAU_GUID@@@Z 0000000180018420 f i Scanner.obj
 0001:00017460       ?GetConnectionPointContainer@?$IConnectionPointImpl@VCOPOSScanner@@$1?DIID__IOPOSScannerEvents@@3U_GUID@@BVCComDynamicUnkArray@ATL@@@ATL@@UEAAJPEAPEAUIConnectionPointContainer@@@Z 0000000180018460 f i Scanner.obj
 0001:000174e0       ?GetConnectionPointContainer@?$IConnectionPointImpl@VCOPOSScanner@@$1?IID_IPropertyNotifySink@@3U_GUID@@BVCComDynamicUnkArray@ATL@@@ATL@@UEAAJPEAPEAUIConnectionPointContainer@@@Z 00000001800184e0 f i Scanner.obj
 0001:00017560       ?GetContentExtent@?$IQuickActivateImpl@VCOPOSScanner@@@ATL@@UEAAJPEAUtagSIZE@@@Z 0000000180018560 f i Scanner.obj
 0001:00017620       ?GetControlInfo@?$IOleControlImpl@VCOPOSScanner@@@ATL@@UEAAJPEAUtagCONTROLINFO@@@Z 0000000180018620 f i Scanner.obj
 0001:000176b0       ?GetCookie@CComDynamicUnkArray@ATL@@QEAAKPEAPEAUIUnknown@@@Z 00000001800186b0 f i Scanner.obj
 0001:000177a0       ?GetData@?$IDataObjectImpl@VCOPOSScanner@@@ATL@@UEAAJPEAUtagFORMATETC@@PEAUtagSTGMEDIUM@@@Z 00000001800187a0 f i Scanner.obj
 0001:00017860       ?GetData@CAtlSafeAllocBufferNode@?$CAtlSafeAllocBufferManager@VCCRTAllocator@ATL@@@_ATL_SAFE_ALLOCA_IMPL@ATL@@QEAAPEAXXZ 0000000180018860 f i Scanner.obj
 0001:00017880       ?GetDataHere@?$IDataObjectImpl@VCOPOSScanner@@@ATL@@UEAAJPEAUtagFORMATETC@@PEAUtagSTGMEDIUM@@@Z 0000000180018880 f i Scanner.obj
 0001:00017910       ?GetDropTarget@?$IOleInPlaceObjectWindowlessImpl@VCOPOSScanner@@@ATL@@UEAAJPEAPEAUIDropTarget@@@Z 0000000180018910 f i Scanner.obj
 0001:000179a0       ?GetExtent@?$IOleObjectImpl@VCOPOSScanner@@@ATL@@UEAAJKPEAUtagSIZE@@@Z 00000001800189a0 f i Scanner.obj
 0001:00017a70       ?GetExtent@?$IViewObjectExImpl@VCOPOSScanner@@@ATL@@UEAAJKJPEAUtagDVTARGETDEVICE@@PEAUtagSIZE@@@Z 0000000180018a70 f i Scanner.obj
 0001:00017b80       ?GetGITPtr@CAtlModule@ATL@@UEAAJPEAPEAUIGlobalInterfaceTable@@@Z 0000000180018b80 f i Scanner.obj
 0001:00017cc0       ?GetGUID@?$IProvideClassInfo2Impl@$1?CLSID_OPOSScanner@@3U_GUID@@B$1?DIID__IOPOSScannerEvents@@3U2@B$1?LIBID_OposScanner_CCO@@3U2@B$00$0A@VCComTypeInfoHolder@ATL@@@ATL@@UEAAJKPEAU_GUID@@@Z 0000000180018cc0 f i Scanner.obj
 0001:00017d40       ?GetIDsOfNames@?$IDispatchImpl@UIOPOSScanner@@$1?IID_IOPOSScanner@@3U_GUID@@B$1?LIBID_OposScanner_CCO@@3U3@B$00$0A@VCComTypeInfoHolder@ATL@@@ATL@@UEAAJAEBU_GUID@@PEAPEA_WIKPEAJ@Z 0000000180018d40 f i Scanner.obj
 0001:00017da0       ?GetIDsOfNames@CComTypeInfoHolder@ATL@@QEAAJAEBU_GUID@@PEAPEA_WIKPEAJ@Z 0000000180018da0 f i Scanner.obj
 0001:00017fc0       ?GetInterfaceSafetyOptions@?$IObjectSafetyImpl@VCOPOSScanner@@$02@ATL@@UEAAJAEBU_GUID@@PEAK1@Z 0000000180018fc0 f i Scanner.obj
 0001:00018160       ?GetKeyAt@?$CSimpleMap@PEA_WPEA_WVCExpansionVectorEqualHelper@ATL@@@ATL@@QEBAAEAPEA_WH@Z 0000000180019160 f i Scanner.obj
 0001:00018210       ?GetLockCount@CAtlModule@ATL@@UEAAJXZ 0000000180019210 f i Scanner.obj
 0001:00018220       ?GetMiscStatus@?$IOleObjectImpl@VCOPOSScanner@@@ATL@@UEAAJKPEAK@Z 0000000180019220 f i Scanner.obj
 0001:000182b0       ?GetMoniker@?$IOleObjectImpl@VCOPOSScanner@@@ATL@@UEAAJKKPEAPEAUIMoniker@@@Z 00000001800192b0 f i Scanner.obj
 0001:00018340       ?GetNaturalExtent@?$IViewObjectExImpl@VCOPOSScanner@@@ATL@@UEAAJKJPEAUtagDVTARGETDEVICE@@PEAUHDC__@@PEAUtagExtentInfo@@PEAUtagSIZE@@@Z 0000000180019340 f i Scanner.obj
 0001:000184d0       ?GetObjectCLSID@?$CComCoClass@VCOPOSScanner@@$1?CLSID_OPOSScanner@@3U_GUID@@B@ATL@@SAAEBU_GUID@@XZ 00000001800194d0 f i Scanner.obj
 0001:000184e0       ?GetPages@?$ISpecifyPropertyPagesImpl@VCOPOSScanner@@@ATL@@UEAAJPEAUtagCAUUID@@@Z 00000001800194e0 f i Scanner.obj
 0001:00018570       ?GetPagesHelper@?$ISpecifyPropertyPagesImpl@VCOPOSScanner@@@ATL@@IEAAJPEAUtagCAUUID@@PEBUATL_PROPMAP_ENTRY@2@@Z 0000000180019570 f i Scanner.obj
 0001:000187e0       ?GetProperty@?$CComPtr@UIDispatch@@@ATL@@QEAAJJPEAUtagVARIANT@@@Z 00000001800197e0 f i Scanner.obj
 0001:00018830       ?GetProperty@?$CComPtr@UIDispatch@@@ATL@@SAJPEAUIDispatch@@JPEAUtagVARIANT@@@Z 0000000180019830 f i Scanner.obj
 0001:00018a00       ?GetPropertyMap@COPOSScanner@@SAPEBUATL_PROPMAP_ENTRY@ATL@@XZ 0000000180019a00 f i Scanner.obj
 0001:00018a10       ?GetRect@?$IViewObjectExImpl@VCOPOSScanner@@@ATL@@UEAAJKPEAU_RECTL@@@Z 0000000180019a10 f i Scanner.obj
 0001:00018aa0       ?GetSize@?$CSimpleMap@PEA_WPEA_WVCExpansionVectorEqualHelper@ATL@@@ATL@@QEBAHXZ 0000000180019aa0 f i Scanner.obj
 0001:00018ab0       ?GetSize@CComDynamicUnkArray@ATL@@QEBAHXZ 0000000180019ab0 f i Scanner.obj
 0001:00018ac0       ?GetSizeMax@?$IPersistStreamInitImpl@VCOPOSScanner@@@ATL@@UEAAJPEAT_ULARGE_INTEGER@@@Z 0000000180019ac0 f i Scanner.obj
 0001:00019250       ?GetSizeMax@CComVariant@ATL@@QEBAJPEAT_ULARGE_INTEGER@@@Z 000000018001a250 f i Scanner.obj
 0001:00019680       ?GetStreamSize@CComBSTR@ATL@@SAKPEA_W@Z 000000018001a680 f i Scanner.obj
 0001:000196e0       ?GetTI@CComTypeInfoHolder@ATL@@QEAAJK@Z 000000018001a6e0 f i Scanner.obj
 0001:00019fb0       ?GetTI@CComTypeInfoHolder@ATL@@QEAAJKPEAPEAUITypeInfo@@@Z 000000018001afb0 f i Scanner.obj
 0001:0001a0a0       ?GetTypeInfo@?$IDispatchImpl@UIOPOSScanner@@$1?IID_IOPOSScanner@@3U_GUID@@B$1?LIBID_OposScanner_CCO@@3U3@B$00$0A@VCComTypeInfoHolder@ATL@@@ATL@@UEAAJIKPEAPEAUITypeInfo@@@Z 000000018001b0a0 f i Scanner.obj
 0001:0001a0f0       ?GetTypeInfo@CComTypeInfoHolder@ATL@@QEAAJIKPEAPEAUITypeInfo@@@Z 000000018001b0f0 f i Scanner.obj
 0001:0001a150       ?GetTypeInfoCount@?$IDispatchImpl@UIOPOSScanner@@$1?IID_IOPOSScanner@@3U_GUID@@B$1?LIBID_OposScanner_CCO@@3U3@B$00$0A@VCComTypeInfoHolder@ATL@@@ATL@@UEAAJPEAI@Z 000000018001b150 f i Scanner.obj
 0001:0001a180       ?GetUnknown@CComDynamicUnkArray@ATL@@QEAAPEAUIUnknown@@K@Z 000000018001b180 f i Scanner.obj
 0001:0001a230       ?GetUnknown@COPOSScanner@@QEAAPEAUIUnknown@@XZ 000000018001b230 f i Scanner.obj
 0001:0001a260       ?GetUserClassID@?$IOleObjectImpl@VCOPOSScanner@@@ATL@@UEAAJPEAU_GUID@@@Z 000000018001b260 f i Scanner.obj
 0001:0001a340       ?GetUserType@?$IOleObjectImpl@VCOPOSScanner@@@ATL@@UEAAJKPEAPEA_W@Z 000000018001b340 f i Scanner.obj
 0001:0001a3d0       ?GetValueAt@?$CSimpleMap@PEA_WPEA_WVCExpansionVectorEqualHelper@ATL@@@ATL@@QEBAAEAPEA_WH@Z 000000018001b3d0 f i Scanner.obj
 0001:0001a480       ?GetViewStatus@?$IViewObjectExImpl@VCOPOSScanner@@@ATL@@UEAAJPEAK@Z 000000018001b480 f i Scanner.obj
 0001:0001a580       ?GetWNDPROC@CWndProcThunk@ATL@@QEAAP6A_JPEAUHWND__@@I_K_J@ZXZ 000000018001b580 f i Scanner.obj
 0001:0001a5c0       ?GetWindow@?$IOleInPlaceActiveObjectImpl@VCOPOSScanner@@@ATL@@UEAAJPEAPEAUHWND__@@@Z 000000018001b5c0 f i Scanner.obj
 0001:0001a6c0       ?GetWindow@?$IOleInPlaceObjectWindowlessImpl@VCOPOSScanner@@@ATL@@UEAAJPEAPEAUHWND__@@@Z 000000018001b6c0 f i Scanner.obj
 0001:0001a7c0       ?GetWindowProc@?$CWindowImplBaseT@VCWindow@ATL@@V?$CWinTraits@$0FGAAAAAA@$0A@@2@@ATL@@UEAAP6A_JPEAUHWND__@@I_K_J@ZXZ 000000018001b7c0 f i Scanner.obj
 0001:0001a7d0       ?GetWndCaption@?$CWindowImpl@VCOPOSScanner@@VCWindow@ATL@@V?$CWinTraits@$0FGAAAAAA@$0A@@3@@ATL@@SAPEB_WXZ 000000018001b7d0 f i Scanner.obj
 0001:0001a7e0       ?GetWndClassInfo@?$CWindowImpl@VCOPOSScanner@@VCWindow@ATL@@V?$CWinTraits@$0FGAAAAAA@$0A@@3@@ATL@@SAAEAU_ATL_WNDCLASSINFOW@2@XZ 000000018001b7e0 f i Scanner.obj
 0001:0001a7f0       ?GetWndClassName@CWindow@ATL@@SAPEB_WXZ 000000018001b7f0 f i Scanner.obj
 0001:0001a800       ?GetWndExStyle@?$CWinTraits@$0FGAAAAAA@$0A@@ATL@@SAKK@Z 000000018001b800 f i Scanner.obj
 0001:0001a840       ?GetWndExStyle@?$CWindowImplBaseT@VCWindow@ATL@@V?$CWinTraits@$0FGAAAAAA@$0A@@2@@ATL@@SAKK@Z 000000018001b840 f i Scanner.obj
 0001:0001a870       ?GetWndStyle@?$CWinTraits@$0FGAAAAAA@$0A@@ATL@@SAKK@Z 000000018001b870 f i Scanner.obj
 0001:0001a8b0       ?GetWndStyle@?$CWindowImplBaseT@VCWindow@ATL@@V?$CWinTraits@$0FGAAAAAA@$0A@@2@@ATL@@SAKK@Z 000000018001b8b0 f i Scanner.obj
 0001:0001a8e0       ?GetZoomInfo@CComControlBase@ATL@@QEAAXAEAUATL_DRAWINFO@@@Z 000000018001b8e0 f i Scanner.obj
 0001:0001aa90       ?HKeyFromString@CRegParser@ATL@@KAPEAUHKEY__@@PEA_W@Z 000000018001ba90 f i Scanner.obj
 0001:0001ab20       ?HandsOffStorage@?$IPersistStorageImpl@VCOPOSScanner@@@ATL@@UEAAJXZ 000000018001bb20 f i Scanner.obj
 0001:0001ab90       ?HasSubKeys@CRegParser@ATL@@IEAAHPEAUHKEY__@@@Z 000000018001bb90 f i Scanner.obj
 0001:0001ad00       ?IDataObject_GetData@CComControlBase@ATL@@QEAAJPEAUtagFORMATETC@@PEAUtagSTGMEDIUM@@@Z 000000018001bd00 f i Scanner.obj
 0001:0001b1b0       ?IOleInPlaceObject_InPlaceDeactivate@CComControlBase@ATL@@QEAAJXZ 000000018001c1b0 f i Scanner.obj
 0001:0001b420       ?IOleInPlaceObject_SetObjectRects@CComControlBase@ATL@@QEAAJPEBUtagRECT@@0@Z 000000018001c420 f i Scanner.obj
 0001:0001b600       ?IOleInPlaceObject_UIDeactivate@CComControlBase@ATL@@QEAAJXZ 000000018001c600 f i Scanner.obj
 0001:0001b870       ?IOleObject_Advise@CComControlBase@ATL@@QEAAJPEAUIAdviseSink@@PEAK@Z 000000018001c870 f i Scanner.obj
 0001:0001b920       ?IOleObject_Close@CComControlBase@ATL@@QEAAJK@Z 000000018001c920 f i Scanner.obj
 0001:0001bc90       ?IOleObject_GetClientSite@CComControlBase@ATL@@QEAAJPEAPEAUIOleClientSite@@@Z 000000018001cc90 f i Scanner.obj
 0001:0001bd60       ?IOleObject_SetClientSite@CComControlBase@ATL@@QEAAJPEAUIOleClientSite@@@Z 000000018001cd60 f i Scanner.obj
 0001:0001be70       ?IOleObject_SetExtent@CComControlBase@ATL@@QEAAJKPEAUtagSIZE@@@Z 000000018001ce70 f i Scanner.obj
 0001:0001bfe0       ?IPSI_GetIPersistStreamInit@?$IPersistStorageImpl@VCOPOSScanner@@@ATL@@AEAAPEAUIPersistStreamInit@@XZ 000000018001cfe0 f i Scanner.obj
 0001:0001c0a0       ?IPersistStreamInit_Load@?$IPersistStreamInitImpl@VCOPOSScanner@@@ATL@@QEAAJPEAUIStream@@PEBUATL_PROPMAP_ENTRY@2@@Z 000000018001d0a0 f i Scanner.obj
 0001:0001c140       ?IPersistStreamInit_Save@?$IPersistStreamInitImpl@VCOPOSScanner@@@ATL@@QEAAJPEAUIStream@@HPEBUATL_PROPMAP_ENTRY@2@@Z 000000018001d140 f i Scanner.obj
 0001:0001c200       ?IQuickActivate_QuickActivate@CComControlBase@ATL@@QEAAJPEAUtagQACONTAINER@@PEAUtagQACONTROL@@@Z 000000018001d200 f i Scanner.obj
 0001:0001ca40       ?IViewObject_Draw@CComControlBase@ATL@@QEAAJKJPEAXPEAUtagDVTARGETDEVICE@@PEAUHDC__@@2PEBU_RECTL@@3@Z 000000018001da40 f i Scanner.obj
 0001:0001ce90       ?InPlaceActivate@CComControlBase@ATL@@QEAAJJPEBUtagRECT@@@Z 000000018001de90 f i Scanner.obj
 0001:0001da30       ?InPlaceDeactivate@?$IOleInPlaceObjectWindowlessImpl@VCOPOSScanner@@@ATL@@UEAAJXZ 000000018001ea30 f i Scanner.obj
 0001:0001dae0       ?Increment@CComMultiThreadModel@ATL@@SAKPEAJ@Z 000000018001eae0 f i Scanner.obj
 0001:0001db00       ?Increment@CComSingleThreadModel@ATL@@SAKPEAJ@Z 000000018001eb00 f i Scanner.obj
 0001:0001db20       ?Init@?$CComEnumImpl@UIEnumConnectionPoints@@$1?_GUID_b196b285_bab4_101a_b69c_00aa00341d07@@3U__s_GUID@@BPEAUIConnectionPoint@@V?$_CopyInterface@UIConnectionPoint@@@ATL@@@ATL@@QEAAJPEAPEAUIConnectionPoint@@0PEAUIUnknown@@W4CComEnumFlags@2@@Z 000000018001eb20 f i Scanner.obj
 0001:0001de10       ?Init@?$CComEnumImpl@UIEnumConnections@@$1?_GUID_b196b287_bab4_101a_b69c_00aa00341d07@@3U__s_GUID@@BUtagCONNECTDATA@@V?$_Copy@UtagCONNECTDATA@@@ATL@@@ATL@@QEAAJPEAUtagCONNECTDATA@@0PEAUIUnknown@@W4CComEnumFlags@2@@Z 000000018001ee10 f i Scanner.obj
 0001:0001e100       ?Init@CComFakeCriticalSection@ATL@@QEAAJXZ 000000018001f100 f i Scanner.obj
 0001:0001e110       ?Init@CComModule@ATL@@QEAAJPEAU_ATL_OBJMAP_ENTRY30@2@PEAUHINSTANCE__@@PEBU_GUID@@@Z 000000018001f110 f i Scanner.obj
 0001:0001e200       ?Init@CComSafeDeleteCriticalSection@ATL@@QEAAJXZ 000000018001f200 f i Scanner.obj
 0001:0001e290       ?Init@CDynamicStdCallThunk2@ATL@@QEAAH_KPEAX@Z 000000018001f290 f i Scanner.obj
 0001:0001e310       ?Init@CWndProcThunk@ATL@@QEAAHP6A_JPEAUHWND__@@I_K_J@ZPEAX@Z 000000018001f310 f i Scanner.obj
 0001:0001e360       ?InitFromData@?$IOleObjectImpl@VCOPOSScanner@@@ATL@@UEAAJPEAUIDataObject@@HK@Z 000000018001f360 f i Scanner.obj
 0001:0001e3f0       ?InitLibId@?$CAtlModuleT@VCComModule@ATL@@@ATL@@SAXXZ 000000018001f3f0 f i Scanner.obj
 0001:0001e400       ?InitNew@?$IPersistStorageImpl@VCOPOSScanner@@@ATL@@UEAAJPEAUIStorage@@@Z 000000018001f400 f i Scanner.obj
 0001:0001e4f0       ?InitNew@?$IPersistStreamInitImpl@VCOPOSScanner@@@ATL@@UEAAJXZ 000000018001f4f0 f i Scanner.obj
 0001:0001e5a0       ?InlineIsEqualUnknown@ATL@@YAHAEBU_GUID@@@Z 000000018001f5a0 f i Scanner.obj
 0001:0001e630       ?InternalAddRef@?$CComObjectRootEx@VCComMultiThreadModel@ATL@@@ATL@@QEAAKXZ 000000018001f630 f i Scanner.obj
 0001:0001e6b0       ?InternalAddRef@?$CComObjectRootEx@VCComSingleThreadModel@ATL@@@ATL@@QEAAKXZ 000000018001f6b0 f i Scanner.obj
 0001:0001e730       ?InternalFinalConstructAddRef@CComObjectRootBase@ATL@@QEAAXXZ 000000018001f730 f i Scanner.obj
 0001:0001e740       ?InternalFinalConstructAddRef@COPOSScanner@@QEAAXXZ 000000018001f740 f i Scanner.obj
 0001:0001e780       ?InternalFinalConstructRelease@CComObjectRootBase@ATL@@QEAAXXZ 000000018001f780 f i Scanner.obj
 0001:0001e7f0       ?InternalFinalConstructRelease@COPOSScanner@@QEAAXXZ 000000018001f7f0 f i Scanner.obj
 0001:0001e830       ?InternalGetSite@CComControlBase@ATL@@QEAAJAEBU_GUID@@PEAPEAX@Z 000000018001f830 f i Scanner.obj
 0001:0001e910       ?InternalQueryInterface@CComObjectRootBase@ATL@@SAJPEAXPEBU_ATL_INTMAP_ENTRY@2@AEBU_GUID@@PEAPEAX@Z 000000018001f910 f i Scanner.obj
 0001:0001ea30       ?InternalRelease@?$CComObjectRootEx@VCComMultiThreadModel@ATL@@@ATL@@QEAAKXZ 000000018001fa30 f i Scanner.obj
 0001:0001eab0       ?InternalRelease@?$CComObjectRootEx@VCComSingleThreadModel@ATL@@@ATL@@QEAAKXZ 000000018001fab0 f i Scanner.obj
 0001:0001eb30       ?InternalSetAtIndex@?$CSimpleArray@GV?$CSimpleArrayEqualHelper@G@ATL@@@ATL@@QEAAXHAEBG@Z 000000018001fb30 f i Scanner.obj
 0001:0001ebb0       ?InternalSetAtIndex@?$CSimpleMap@PEA_WPEA_WVCExpansionVectorEqualHelper@ATL@@@ATL@@QEAAXHAEBQEA_W0@Z 000000018001fbb0 f i Scanner.obj
 0001:0001ec80       ?Invoke@?$IDispatchImpl@UIOPOSScanner@@$1?IID_IOPOSScanner@@3U_GUID@@B$1?LIBID_OposScanner_CCO@@3U3@B$00$0A@VCComTypeInfoHolder@ATL@@@ATL@@UEAAJJAEBU_GUID@@KGPEAUtagDISPPARAMS@@PEAUtagVARIANT@@PEAUtagEXCEPINFO@@PEAI@Z 000000018001fc80 f i Scanner.obj
 0001:0001ed20       ?Invoke@CComTypeInfoHolder@ATL@@QEAAJPEAUIDispatch@@JAEBU_GUID@@KGPEAUtagDISPPARAMS@@PEAUtagVARIANT@@PEAUtagEXCEPINFO@@PEAI@Z 000000018001fd20 f i Scanner.obj
 0001:0001ede0       ?IsDirty@?$IPersistStorageImpl@VCOPOSScanner@@@ATL@@UEAAJXZ 000000018001fde0 f i Scanner.obj
 0001:0001eed0       ?IsDirty@?$IPersistStreamInitImpl@VCOPOSScanner@@@ATL@@UEAAJXZ 000000018001fed0 f i Scanner.obj
 0001:0001ef90       ?IsEqualKey@CExpansionVectorEqualHelper@ATL@@SA_NQEA_W0@Z 000000018001ff90 f i Scanner.obj
 0001:0001efe0       ?IsEqualObject@?$CComPtrBase@UIOleClientSite@@@ATL@@QEAA_NPEAUIUnknown@@@Z 000000018001ffe0 f i Scanner.obj
 0001:0001f130       ?IsEqualObject@?$CComPtrBase@UITypeInfo@@@ATL@@QEAA_NPEAUIUnknown@@@Z 0000000180020130 f i Scanner.obj
 0001:0001f280       ?IsSpace@CRegParser@ATL@@IEAAH_W@Z 0000000180020280 f i Scanner.obj
 0001:0001f2e0       ?IsUpToDate@?$IOleObjectImpl@VCOPOSScanner@@@ATL@@UEAAJXZ 00000001800202e0 f i Scanner.obj
 0001:0001f350       ?Length@CComBSTR@ATL@@QEBAIXZ 0000000180020350 f i Scanner.obj
 0001:0001f390       ?Load@?$IPersistStorageImpl@VCOPOSScanner@@@ATL@@UEAAJPEAUIStorage@@@Z 0000000180020390 f i Scanner.obj
 0001:0001f540       ?Load@?$IPersistStreamInitImpl@VCOPOSScanner@@@ATL@@UEAAJPEAUIStream@@@Z 0000000180020540 f i Scanner.obj
 0001:0001f600       ?LoadCursorW@AtlModuleRegisterWndClassInfoParamW@ATL@@SAPEAUHICON__@@PEAUHINSTANCE__@@PEB_W@Z 0000000180020600 f i Scanner.obj
 0001:0001f640       ?LoadNameCache@CComTypeInfoHolder@ATL@@QEAAJPEAUITypeInfo@@@Z 0000000180020640 f i Scanner.obj
 0001:0001f980       ?Lock@?$CComCritSecLock@VCComCriticalSection@ATL@@@ATL@@QEAAJXZ 0000000180020980 f i Scanner.obj
 0001:0001fa70       ?Lock@?$CComObjectRootEx@VCComSingleThreadModel@ATL@@@ATL@@QEAAXXZ 0000000180020a70 f i Scanner.obj
 0001:0001fa80       ?Lock@CAtlModule@ATL@@UEAAJXZ 0000000180020a80 f i Scanner.obj
 0001:0001fac0       ?Lock@CComCriticalSection@ATL@@QEAAJXZ 0000000180020ac0 f i Scanner.obj
 0001:0001fb00       ?Lock@CComFakeCriticalSection@ATL@@QEAAJXZ 0000000180020b00 f i Scanner.obj
 0001:0001fb10       ?LockServer@CComClassFactory@ATL@@UEAAJH@Z 0000000180020b10 f i Scanner.obj
 0001:0001fb70       ?Lookup@?$CSimpleMap@PEA_WPEA_WVCExpansionVectorEqualHelper@ATL@@@ATL@@QEBAPEA_WAEBQEA_W@Z 0000000180020b70 f i Scanner.obj
 0001:0001fbd0       ?Next@?$CComEnumImpl@UIEnumConnectionPoints@@$1?_GUID_b196b285_bab4_101a_b69c_00aa00341d07@@3U__s_GUID@@BPEAUIConnectionPoint@@V?$_CopyInterface@UIConnectionPoint@@@ATL@@@ATL@@UEAAJKPEAPEAUIConnectionPoint@@PEAK@Z 0000000180020bd0 f i Scanner.obj
 0001:0001fd90       ?Next@?$CComEnumImpl@UIEnumConnections@@$1?_GUID_b196b287_bab4_101a_b69c_00aa00341d07@@3U__s_GUID@@BUtagCONNECTDATA@@V?$_Copy@UtagCONNECTDATA@@@ATL@@@ATL@@UEAAJKPEAUtagCONNECTDATA@@PEAK@Z 0000000180020d90 f i Scanner.obj
 0001:0001ff50       ?NextToken@CRegParser@ATL@@IEAAJPEA_W@Z 0000000180020f50 f i Scanner.obj
 0001:000202e0       ?OLE2CT_EX@@YAPEB_WPEB_WI@Z 00000001800212e0 f i Scanner.obj
 0001:00020300       ?OLE2CT_EX_DEF@@YAPEB_WPEB_W@Z 0000000180021300 f i Scanner.obj
 0001:00020310       ?OLE2T_EX@@YAPEA_WPEA_WI@Z 0000000180021310 f i Scanner.obj
 0001:00020330       ?OnAmbientPropertyChange@?$IOleControlImpl@VCOPOSScanner@@@ATL@@UEAAJJ@Z 0000000180021330 f i Scanner.obj
 0001:000203f0       ?OnDocWindowActivate@?$IOleInPlaceActiveObjectImpl@VCOPOSScanner@@@ATL@@UEAAJH@Z 00000001800213f0 f i Scanner.obj
 0001:000204b0       ?OnDrawAdvanced@CComControlBase@ATL@@UEAAJAEAUATL_DRAWINFO@@@Z 00000001800214b0 f i Scanner.obj
 0001:00020700       ?OnFinalMessage@?$CWindowImplBaseT@VCWindow@ATL@@V?$CWinTraits@$0FGAAAAAA@$0A@@2@@ATL@@UEAAXPEAUHWND__@@@Z 0000000180021700 f i Scanner.obj
 0001:00020710       ?OnFrameWindowActivate@?$IOleInPlaceActiveObjectImpl@VCOPOSScanner@@@ATL@@UEAAJH@Z 0000000180021710 f i Scanner.obj
 0001:00020780       ?OnKillFocus@CComControlBase@ATL@@QEAA_JI_K_JAEAH@Z 0000000180021780 f i Scanner.obj
 0001:00020870       ?OnMnemonic@?$IOleControlImpl@VCOPOSScanner@@@ATL@@UEAAJPEAUtagMSG@@@Z 0000000180021870 f i Scanner.obj
 0001:00020900       ?OnMouseActivate@CComControlBase@ATL@@QEAA_JI_K_JAEAH@Z 0000000180021900 f i Scanner.obj
 0001:00020aa0       ?OnPaint@CComControlBase@ATL@@QEAA_JI_K_JAEAH@Z 0000000180021aa0 f i Scanner.obj
 0001:00020c30       ?OnPostVerbDiscardUndo@?$IOleObjectImpl@VCOPOSScanner@@@ATL@@QEAAJXZ 0000000180021c30 f i Scanner.obj
 0001:00020c40       ?OnPostVerbHide@?$IOleObjectImpl@VCOPOSScanner@@@ATL@@QEAAJXZ 0000000180021c40 f i Scanner.obj
 0001:00020c50       ?OnPostVerbInPlaceActivate@?$IOleObjectImpl@VCOPOSScanner@@@ATL@@QEAAJXZ 0000000180021c50 f i Scanner.obj
 0001:00020c60       ?OnPostVerbOpen@?$IOleObjectImpl@VCOPOSScanner@@@ATL@@QEAAJXZ 0000000180021c60 f i Scanner.obj
 0001:00020c70       ?OnPostVerbShow@?$IOleObjectImpl@VCOPOSScanner@@@ATL@@QEAAJXZ 0000000180021c70 f i Scanner.obj
 0001:00020c80       ?OnPostVerbUIActivate@?$IOleObjectImpl@VCOPOSScanner@@@ATL@@QEAAJXZ 0000000180021c80 f i Scanner.obj
 0001:00020c90       ?OnPreVerbDiscardUndo@?$IOleObjectImpl@VCOPOSScanner@@@ATL@@QEAAJXZ 0000000180021c90 f i Scanner.obj
 0001:00020ca0       ?OnPreVerbHide@?$IOleObjectImpl@VCOPOSScanner@@@ATL@@QEAAJXZ 0000000180021ca0 f i Scanner.obj
 0001:00020cb0       ?OnPreVerbInPlaceActivate@?$IOleObjectImpl@VCOPOSScanner@@@ATL@@QEAAJXZ 0000000180021cb0 f i Scanner.obj
 0001:00020cc0       ?OnPreVerbOpen@?$IOleObjectImpl@VCOPOSScanner@@@ATL@@QEAAJXZ 0000000180021cc0 f i Scanner.obj
 0001:00020cd0       ?OnPreVerbShow@?$IOleObjectImpl@VCOPOSScanner@@@ATL@@QEAAJXZ 0000000180021cd0 f i Scanner.obj
 0001:00020ce0       ?OnPreVerbUIActivate@?$IOleObjectImpl@VCOPOSScanner@@@ATL@@QEAAJXZ 0000000180021ce0 f i Scanner.obj
 0001:00020cf0       ?OnSetFocus@CComControlBase@ATL@@QEAA_JI_K_JAEAH@Z 0000000180021cf0 f i Scanner.obj
 0001:00020ef0       ?OnWindowMessage@?$IOleInPlaceObjectWindowlessImpl@VCOPOSScanner@@@ATL@@UEAAJI_K_JPEA_J@Z 0000000180021ef0 f i Scanner.obj
 0001:00021110       ?Open@CRegKey@ATL@@QEAAJPEAUHKEY__@@PEB_WK@Z 0000000180022110 f i Scanner.obj
 0001:00021290       ?OuterAddRef@CComObjectRootBase@ATL@@QEAAKXZ 0000000180022290 f i Scanner.obj
 0001:000212d0       ?OuterQueryInterface@CComObjectRootBase@ATL@@QEAAJAEBU_GUID@@PEAPEAX@Z 00000001800222d0 f i Scanner.obj
 0001:00021320       ?OuterRelease@CComObjectRootBase@ATL@@QEAAKXZ 0000000180022320 f i Scanner.obj
 0001:00021360       ?PreProcessBuffer@CRegParser@ATL@@QEAAJPEA_WPEAPEA_W@Z 0000000180022360 f i Scanner.obj
 0001:00021a40       ?PreTranslateAccelerator@CComControlBase@ATL@@QEAAHPEAUtagMSG@@AEAJ@Z 0000000180022a40 f i Scanner.obj
 0001:00021a60       ?ProcessWindowMessage@?$CComControl@VCOPOSScanner@@V?$CWindowImpl@VCOPOSScanner@@VCWindow@ATL@@V?$CWinTraits@$0FGAAAAAA@$0A@@3@@ATL@@@ATL@@UEAAHPEAUHWND__@@I_K_JAEA_JK@Z 0000000180022a60 f i Scanner.obj
 0001:00021ce0       ?ProcessWindowMessage@COPOSScanner@@UEAAHPEAUHWND__@@I_K_JAEA_JK@Z 0000000180022ce0 f i Scanner.obj
 0001:00021e60       ?PutProperty@?$CComPtr@UIDispatch@@@ATL@@QEAAJJPEAUtagVARIANT@@@Z 0000000180022e60 f i Scanner.obj
 0001:00021eb0       ?PutProperty@?$CComPtr@UIDispatch@@@ATL@@SAJPEAUIDispatch@@JPEAUtagVARIANT@@@Z 0000000180022eb0 f i Scanner.obj
 0001:00022150       ?QueryGetData@?$IDataObjectImpl@VCOPOSScanner@@@ATL@@UEAAJPEAUtagFORMATETC@@@Z 0000000180023150 f i Scanner.obj
 0001:000221e0       ?QueryHitPoint@?$IViewObjectExImpl@VCOPOSScanner@@@ATL@@UEAAJKPEBUtagRECT@@UtagPOINT@@JPEAK@Z 00000001800231e0 f i Scanner.obj
 0001:00022350       ?QueryHitRect@?$IViewObjectExImpl@VCOPOSScanner@@@ATL@@UEAAJKPEBUtagRECT@@0JPEAK@Z 0000000180023350 f i Scanner.obj
 0001:00022520       ?QueryInterface@?$CComAggObject@VCOPOSScanner@@@ATL@@UEAAJAEBU_GUID@@PEAPEAX@Z 0000000180023520 f i Scanner.obj
 0001:00022610       ?QueryInterface@?$CComContainedObject@VCOPOSScanner@@@ATL@@UEAAJAEBU_GUID@@PEAPEAX@Z 0000000180023610 f i Scanner.obj
 0001:0002265c       ?QueryInterface@?$CComContainedObject@VCOPOSScanner@@@ATL@@WBAA@EAAJAEBU_GUID@@PEAPEAX@Z 000000018002365c f i Scanner.obj
 0001:00022668       ?QueryInterface@?$CComContainedObject@VCOPOSScanner@@@ATL@@WBAI@EAAJAEBU_GUID@@PEAPEAX@Z 0000000180023668 f i Scanner.obj
 0001:00022674       ?QueryInterface@?$CComContainedObject@VCOPOSScanner@@@ATL@@WBBA@EAAJAEBU_GUID@@PEAPEAX@Z 0000000180023674 f i Scanner.obj
 0001:00022680       ?QueryInterface@?$CComContainedObject@VCOPOSScanner@@@ATL@@WBBI@EAAJAEBU_GUID@@PEAPEAX@Z 0000000180023680 f i Scanner.obj
 0001:0002268c       ?QueryInterface@?$CComContainedObject@VCOPOSScanner@@@ATL@@WLI@EAAJAEBU_GUID@@PEAPEAX@Z 000000018002368c f i Scanner.obj
 0001:00022698       ?QueryInterface@?$CComContainedObject@VCOPOSScanner@@@ATL@@WMA@EAAJAEBU_GUID@@PEAPEAX@Z 0000000180023698 f i Scanner.obj
 0001:000226a4       ?QueryInterface@?$CComContainedObject@VCOPOSScanner@@@ATL@@WMI@EAAJAEBU_GUID@@PEAPEAX@Z 00000001800236a4 f i Scanner.obj
 0001:000226b0       ?QueryInterface@?$CComContainedObject@VCOPOSScanner@@@ATL@@WNA@EAAJAEBU_GUID@@PEAPEAX@Z 00000001800236b0 f i Scanner.obj
 0001:000226bc       ?QueryInterface@?$CComContainedObject@VCOPOSScanner@@@ATL@@WNI@EAAJAEBU_GUID@@PEAPEAX@Z 00000001800236bc f i Scanner.obj
 0001:000226c8       ?QueryInterface@?$CComContainedObject@VCOPOSScanner@@@ATL@@WOA@EAAJAEBU_GUID@@PEAPEAX@Z 00000001800236c8 f i Scanner.obj
 0001:000226d4       ?QueryInterface@?$CComContainedObject@VCOPOSScanner@@@ATL@@WOI@EAAJAEBU_GUID@@PEAPEAX@Z 00000001800236d4 f i Scanner.obj
 0001:000226e0       ?QueryInterface@?$CComContainedObject@VCOPOSScanner@@@ATL@@WPA@EAAJAEBU_GUID@@PEAPEAX@Z 00000001800236e0 f i Scanner.obj
 0001:000226ec       ?QueryInterface@?$CComContainedObject@VCOPOSScanner@@@ATL@@WPI@EAAJAEBU_GUID@@PEAPEAX@Z 00000001800236ec f i Scanner.obj
 0001:00022700       ?QueryInterface@?$CComObject@V?$CComEnum@UIEnumConnectionPoints@@$1?_GUID_b196b285_bab4_101a_b69c_00aa00341d07@@3U__s_GUID@@BPEAUIConnectionPoint@@V?$_CopyInterface@UIConnectionPoint@@@ATL@@VCComSingleThreadModel@6@@ATL@@@ATL@@UEAAJAEBU_GUID@@PEAPEAX@Z 0000000180023700 f i Scanner.obj
 0001:00022750       ?QueryInterface@?$CComObject@V?$CComEnum@UIEnumConnections@@$1?_GUID_b196b287_bab4_101a_b69c_00aa00341d07@@3U__s_GUID@@BUtagCONNECTDATA@@V?$_Copy@UtagCONNECTDATA@@@ATL@@VCComSingleThreadModel@6@@ATL@@@ATL@@UEAAJAEBU_GUID@@PEAPEAX@Z 0000000180023750 f i Scanner.obj
 0001:000227a0       ?QueryInterface@?$CComObject@VCOPOSScanner@@@ATL@@UEAAJAEBU_GUID@@PEAPEAX@Z 00000001800237a0 f i Scanner.obj
 0001:000227e4       ?QueryInterface@?$CComObject@VCOPOSScanner@@@ATL@@WBAA@EAAJAEBU_GUID@@PEAPEAX@Z 00000001800237e4 f i Scanner.obj
 0001:000227f0       ?QueryInterface@?$CComObject@VCOPOSScanner@@@ATL@@WBAI@EAAJAEBU_GUID@@PEAPEAX@Z 00000001800237f0 f i Scanner.obj
 0001:000227fc       ?QueryInterface@?$CComObject@VCOPOSScanner@@@ATL@@WBBA@EAAJAEBU_GUID@@PEAPEAX@Z 00000001800237fc f i Scanner.obj
 0001:00022808       ?QueryInterface@?$CComObject@VCOPOSScanner@@@ATL@@WBBI@EAAJAEBU_GUID@@PEAPEAX@Z 0000000180023808 f i Scanner.obj
 0001:00022814       ?QueryInterface@?$CComObject@VCOPOSScanner@@@ATL@@WLI@EAAJAEBU_GUID@@PEAPEAX@Z 0000000180023814 f i Scanner.obj
 0001:00022820       ?QueryInterface@?$CComObject@VCOPOSScanner@@@ATL@@WMA@EAAJAEBU_GUID@@PEAPEAX@Z 0000000180023820 f i Scanner.obj
 0001:0002282c       ?QueryInterface@?$CComObject@VCOPOSScanner@@@ATL@@WMI@EAAJAEBU_GUID@@PEAPEAX@Z 000000018002382c f i Scanner.obj
 0001:00022838       ?QueryInterface@?$CComObject@VCOPOSScanner@@@ATL@@WNA@EAAJAEBU_GUID@@PEAPEAX@Z 0000000180023838 f i Scanner.obj
 0001:00022844       ?QueryInterface@?$CComObject@VCOPOSScanner@@@ATL@@WNI@EAAJAEBU_GUID@@PEAPEAX@Z 0000000180023844 f i Scanner.obj
 0001:00022850       ?QueryInterface@?$CComObject@VCOPOSScanner@@@ATL@@WOA@EAAJAEBU_GUID@@PEAPEAX@Z 0000000180023850 f i Scanner.obj
 0001:0002285c       ?QueryInterface@?$CComObject@VCOPOSScanner@@@ATL@@WOI@EAAJAEBU_GUID@@PEAPEAX@Z 000000018002385c f i Scanner.obj
 0001:00022868       ?QueryInterface@?$CComObject@VCOPOSScanner@@@ATL@@WPA@EAAJAEBU_GUID@@PEAPEAX@Z 0000000180023868 f i Scanner.obj
 0001:00022874       ?QueryInterface@?$CComObject@VCOPOSScanner@@@ATL@@WPI@EAAJAEBU_GUID@@PEAPEAX@Z 0000000180023874 f i Scanner.obj
 0001:00022880       ?QueryInterface@?$CComObjectCached@VCComClassFactory@ATL@@@ATL@@UEAAJAEBU_GUID@@PEAPEAX@Z 0000000180023880 f i Scanner.obj
 0001:000228d0       ?QueryInterface@CRegObject@ATL@@UEAAJAEBU_GUID@@PEAPEAX@Z 00000001800238d0 f i Scanner.obj
 0001:00022950       ?QuickActivate@?$IQuickActivateImpl@VCOPOSScanner@@@ATL@@UEAAJPEAUtagQACONTAINER@@PEAUtagQACONTROL@@@Z 0000000180023950 f i Scanner.obj
 0001:00022a10       ?ReactivateAndUndo@?$IOleInPlaceObjectWindowlessImpl@VCOPOSScanner@@@ATL@@UEAAJXZ 0000000180023a10 f i Scanner.obj
 0001:00022a90       ?ReadFromStream@CComBSTR@ATL@@QEAAJPEAUIStream@@@Z 0000000180023a90 f i Scanner.obj
 0001:00022f70       ?ReadFromStream@CComVariant@ATL@@QEAAJPEAUIStream@@GTClassesAllowedInStream@2@K@Z 0000000180023f70 f i Scanner.obj
 0001:000233a0       ?RecurseDeleteKey@CRegKey@ATL@@QEAAJPEB_W@Z 00000001800243a0 f i Scanner.obj
 0001:000235c0       ?RegCreateKeyExW@CAtlTransactionManager@ATL@@QEAAJPEAUHKEY__@@PEB_WKPEA_WKKQEAU_SECURITY_ATTRIBUTES@@PEAPEAU3@PEAK@Z 00000001800245c0 f i Scanner.obj
 0001:00023790       ?RegDeleteKeyW@CAtlTransactionManager@ATL@@QEAAJPEAUHKEY__@@PEB_W@Z 0000000180024790 f i Scanner.obj
 0001:000238a0       ?RegOpenKeyExW@CAtlTransactionManager@ATL@@QEAAJPEAUHKEY__@@PEB_WKKPEAPEAU3@@Z 00000001800248a0 f i Scanner.obj
 0001:000239f0       ?Register@_ATL_WNDCLASSINFOW@ATL@@QEAAGPEAP6A_JPEAUHWND__@@I_K_J@Z@Z 00000001800249f0 f i Scanner.obj
 0001:00023a40       ?RegisterBuffer@CRegParser@ATL@@QEAAJPEA_WH@Z 0000000180024a40 f i Scanner.obj
 0001:00023e30       ?RegisterClassExW@AtlModuleRegisterWndClassInfoParamW@ATL@@SAGPEAU_ATL_WIN_MODULE70@2@PEBUtagWNDCLASSEXW@@@Z 0000000180024e30 f i Scanner.obj
 0001:00023e70       ?RegisterFromResource@CRegObject@ATL@@IEAAJPEB_W00H@Z 0000000180024e70 f i Scanner.obj
 0001:000242d0       ?RegisterServer@?$CAtlModuleT@VCComModule@ATL@@@ATL@@QEAAJHPEBU_GUID@@@Z 00000001800252d0 f i Scanner.obj
 0001:00024350       ?RegisterServer@CAtlComModule@ATL@@QEAAJHPEBU_GUID@@@Z 0000000180025350 f i Scanner.obj
 0001:00024390       ?RegisterServer@CComModule@ATL@@QEAAJHPEBU_GUID@@@Z 0000000180025390 f i Scanner.obj
 0001:00024490       ?RegisterSubkeys@CRegParser@ATL@@IEAAJPEA_WPEAUHKEY__@@HH@Z 0000000180025490 f i Scanner.obj
 0001:00025270       ?Release@?$CComAggObject@VCOPOSScanner@@@ATL@@UEAAKXZ 0000000180026270 f i Scanner.obj
 0001:00025320       ?Release@?$CComContainedObject@VCOPOSScanner@@@ATL@@UEAAKXZ 0000000180026320 f i Scanner.obj
 0001:00025358       ?Release@?$CComContainedObject@VCOPOSScanner@@@ATL@@WBAA@EAAKXZ 0000000180026358 f i Scanner.obj
 0001:00025364       ?Release@?$CComContainedObject@VCOPOSScanner@@@ATL@@WBAI@EAAKXZ 0000000180026364 f i Scanner.obj
 0001:00025370       ?Release@?$CComContainedObject@VCOPOSScanner@@@ATL@@WBBA@EAAKXZ 0000000180026370 f i Scanner.obj
 0001:0002537c       ?Release@?$CComContainedObject@VCOPOSScanner@@@ATL@@WBBI@EAAKXZ 000000018002637c f i Scanner.obj
 0001:00025388       ?Release@?$CComContainedObject@VCOPOSScanner@@@ATL@@WBCI@EAAKXZ 0000000180026388 f i Scanner.obj
 0001:00025394       ?Release@?$CComContainedObject@VCOPOSScanner@@@ATL@@WBEA@EAAKXZ 0000000180026394 f i Scanner.obj
 0001:000253a0       ?Release@?$CComContainedObject@VCOPOSScanner@@@ATL@@WLI@EAAKXZ 00000001800263a0 f i Scanner.obj
 0001:000253ac       ?Release@?$CComContainedObject@VCOPOSScanner@@@ATL@@WMA@EAAKXZ 00000001800263ac f i Scanner.obj
 0001:000253b8       ?Release@?$CComContainedObject@VCOPOSScanner@@@ATL@@WMI@EAAKXZ 00000001800263b8 f i Scanner.obj
 0001:000253c4       ?Release@?$CComContainedObject@VCOPOSScanner@@@ATL@@WNA@EAAKXZ 00000001800263c4 f i Scanner.obj
 0001:000253d0       ?Release@?$CComContainedObject@VCOPOSScanner@@@ATL@@WNI@EAAKXZ 00000001800263d0 f i Scanner.obj
 0001:000253dc       ?Release@?$CComContainedObject@VCOPOSScanner@@@ATL@@WOA@EAAKXZ 00000001800263dc f i Scanner.obj
 0001:000253e8       ?Release@?$CComContainedObject@VCOPOSScanner@@@ATL@@WOI@EAAKXZ 00000001800263e8 f i Scanner.obj
 0001:000253f4       ?Release@?$CComContainedObject@VCOPOSScanner@@@ATL@@WPA@EAAKXZ 00000001800263f4 f i Scanner.obj
 0001:00025400       ?Release@?$CComContainedObject@VCOPOSScanner@@@ATL@@WPI@EAAKXZ 0000000180026400 f i Scanner.obj
 0001:00025410       ?Release@?$CComObject@V?$CComEnum@UIEnumConnectionPoints@@$1?_GUID_b196b285_bab4_101a_b69c_00aa00341d07@@3U__s_GUID@@BPEAUIConnectionPoint@@V?$_CopyInterface@UIConnectionPoint@@@ATL@@VCComSingleThreadModel@6@@ATL@@@ATL@@UEAAKXZ 0000000180026410 f i Scanner.obj
 0001:000254c0       ?Release@?$CComObject@V?$CComEnum@UIEnumConnections@@$1?_GUID_b196b287_bab4_101a_b69c_00aa00341d07@@3U__s_GUID@@BUtagCONNECTDATA@@V?$_Copy@UtagCONNECTDATA@@@ATL@@VCComSingleThreadModel@6@@ATL@@@ATL@@UEAAKXZ 00000001800264c0 f i Scanner.obj
 0001:00025570       ?Release@?$CComObject@VCOPOSScanner@@@ATL@@UEAAKXZ 0000000180026570 f i Scanner.obj
 0001:00025628       ?Release@?$CComObject@VCOPOSScanner@@@ATL@@WBAA@EAAKXZ 0000000180026628 f i Scanner.obj
 0001:00025634       ?Release@?$CComObject@VCOPOSScanner@@@ATL@@WBAI@EAAKXZ 0000000180026634 f i Scanner.obj
 0001:00025640       ?Release@?$CComObject@VCOPOSScanner@@@ATL@@WBBA@EAAKXZ 0000000180026640 f i Scanner.obj
 0001:0002564c       ?Release@?$CComObject@VCOPOSScanner@@@ATL@@WBBI@EAAKXZ 000000018002664c f i Scanner.obj
 0001:00025658       ?Release@?$CComObject@VCOPOSScanner@@@ATL@@WBCI@EAAKXZ 0000000180026658 f i Scanner.obj
 0001:00025664       ?Release@?$CComObject@VCOPOSScanner@@@ATL@@WBEA@EAAKXZ 0000000180026664 f i Scanner.obj
 0001:00025670       ?Release@?$CComObject@VCOPOSScanner@@@ATL@@WLI@EAAKXZ 0000000180026670 f i Scanner.obj
 0001:0002567c       ?Release@?$CComObject@VCOPOSScanner@@@ATL@@WMA@EAAKXZ 000000018002667c f i Scanner.obj
 0001:00025688       ?Release@?$CComObject@VCOPOSScanner@@@ATL@@WMI@EAAKXZ 0000000180026688 f i Scanner.obj
 0001:00025694       ?Release@?$CComObject@VCOPOSScanner@@@ATL@@WNA@EAAKXZ 0000000180026694 f i Scanner.obj
 0001:000256a0       ?Release@?$CComObject@VCOPOSScanner@@@ATL@@WNI@EAAKXZ 00000001800266a0 f i Scanner.obj
 0001:000256ac       ?Release@?$CComObject@VCOPOSScanner@@@ATL@@WOA@EAAKXZ 00000001800266ac f i Scanner.obj
 0001:000256b8       ?Release@?$CComObject@VCOPOSScanner@@@ATL@@WOI@EAAKXZ 00000001800266b8 f i Scanner.obj
 0001:000256c4       ?Release@?$CComObject@VCOPOSScanner@@@ATL@@WPA@EAAKXZ 00000001800266c4 f i Scanner.obj
 0001:000256d0       ?Release@?$CComObject@VCOPOSScanner@@@ATL@@WPI@EAAKXZ 00000001800266d0 f i Scanner.obj
 0001:000256e0       ?Release@?$CComObjectCached@VCComClassFactory@ATL@@@ATL@@UEAAKXZ 00000001800266e0 f i Scanner.obj
 0001:00025780       ?Release@?$CComPtrBase@UIAdviseSink@@@ATL@@QEAAXXZ 0000000180026780 f i Scanner.obj
 0001:000257e0       ?Release@?$CComPtrBase@UIDispatch@@@ATL@@QEAAXXZ 00000001800267e0 f i Scanner.obj
 0001:00025840       ?Release@?$CComPtrBase@UIOleInPlaceSiteWindowless@@@ATL@@QEAAXXZ 0000000180026840 f i Scanner.obj
 0001:000258a0       ?Release@CRegObject@ATL@@UEAAKXZ 00000001800268a0 f i Scanner.obj
 0001:00025910       ?Remove@CComDynamicUnkArray@ATL@@QEAAHK@Z 0000000180026910 f i Scanner.obj
 0001:000259f0       ?RemoveAll@?$CSimpleMap@PEA_WPEA_WVCExpansionVectorEqualHelper@ATL@@@ATL@@QEAAXXZ 00000001800269f0 f i Scanner.obj
 0001:00025a90       ?Reset@?$CComEnumImpl@UIEnumConnectionPoints@@$1?_GUID_b196b285_bab4_101a_b69c_00aa00341d07@@3U__s_GUID@@BPEAUIConnectionPoint@@V?$_CopyInterface@UIConnectionPoint@@@ATL@@@ATL@@UEAAJXZ 0000000180026a90 f i Scanner.obj
 0001:00025ab0       ?Reset@?$CComEnumImpl@UIEnumConnections@@$1?_GUID_b196b287_bab4_101a_b69c_00aa00341d07@@3U__s_GUID@@BUtagCONNECTDATA@@V?$_Copy@UtagCONNECTDATA@@@ATL@@@ATL@@UEAAJXZ 0000000180026ab0 f i Scanner.obj
 0001:00025ad0       ?ResizeBorder@?$IOleInPlaceActiveObjectImpl@VCOPOSScanner@@@ATL@@UEAAJPEBUtagRECT@@PEAUIOleInPlaceUIWindow@@H@Z 0000000180026ad0 f i Scanner.obj
 0001:00025b50       ?ResourceRegister@CRegObject@ATL@@QEAAJPEB_WI0@Z 0000000180026b50 f i Scanner.obj
 0001:00025c30       ?ResourceRegisterSz@CRegObject@ATL@@QEAAJPEB_W00@Z 0000000180026c30 f i Scanner.obj
 0001:00025d50       ?ResourceUnregister@CRegObject@ATL@@QEAAJPEB_WI0@Z 0000000180026d50 f i Scanner.obj
 0001:00025e30       ?ResourceUnregisterSz@CRegObject@ATL@@QEAAJPEB_W00@Z 0000000180026e30 f i Scanner.obj
 0001:00025f50       ?SOData@COPOSScanner@@MEAAJJ@Z 0000000180026f50 f i Scanner.obj
 0001:00025ff0       ?SODirectIO@COPOSScanner@@MEAAJJPEAJPEAPEA_W@Z 0000000180026ff0 f i Scanner.obj
 0001:00026230       ?SOError@COPOSScanner@@MEAAJJJJPEAJ@Z 0000000180027230 f i Scanner.obj
 0001:00026340       ?SOOutputCompleteDummy@COPOSScanner@@MEAAJJ@Z 0000000180027340 f i Scanner.obj
 0001:00026360       ?SOStatusUpdate@COPOSScanner@@MEAAJJ@Z 0000000180027360 f i Scanner.obj
 0001:00026400       ?Save@?$IPersistStorageImpl@VCOPOSScanner@@@ATL@@UEAAJPEAUIStorage@@H@Z 0000000180027400 f i Scanner.obj
 0001:000265c0       ?Save@?$IPersistStreamInitImpl@VCOPOSScanner@@@ATL@@UEAAJPEAUIStream@@H@Z 00000001800275c0 f i Scanner.obj
 0001:00026680       ?SaveCompleted@?$IPersistStorageImpl@VCOPOSScanner@@@ATL@@UEAAJPEAUIStorage@@@Z 0000000180027680 f i Scanner.obj
 0001:000266f0       ?SendOnDataChange@CComControlBase@ATL@@QEAAJK@Z 00000001800276f0 f i Scanner.obj
 0001:000267e0       ?SendOnSave@CComControlBase@ATL@@QEAAJXZ 00000001800277e0 f i Scanner.obj
 0001:00026850       ?SendOnViewChange@CComControlBase@ATL@@QEAAJKJ@Z 0000000180027850 f i Scanner.obj
 0001:000268d0       ?SetAdvise@?$IViewObjectExImpl@VCOPOSScanner@@@ATL@@UEAAJKKPEAUIAdviseSink@@@Z 00000001800278d0 f i Scanner.obj
 0001:00026990       ?SetClientSite@?$IOleObjectImpl@VCOPOSScanner@@@ATL@@UEAAJPEAUIOleClientSite@@@Z 0000000180027990 f i Scanner.obj
 0001:00026a40       ?SetColorScheme@?$IOleObjectImpl@VCOPOSScanner@@@ATL@@UEAAJPEAUtagLOGPALETTE@@@Z 0000000180027a40 f i Scanner.obj
 0001:00026ad0       ?SetContentExtent@?$IQuickActivateImpl@VCOPOSScanner@@@ATL@@UEAAJPEAUtagSIZE@@@Z 0000000180027ad0 f i Scanner.obj
 0001:00026b90       ?SetControlFocus@CComControlBase@ATL@@QEAAHH@Z 0000000180027b90 f i Scanner.obj
 0001:00026d20       ?SetDWORDValue@CRegKey@ATL@@QEAAJPEB_WK@Z 0000000180027d20 f i Scanner.obj
 0001:00026dd0       ?SetData@?$IDataObjectImpl@VCOPOSScanner@@@ATL@@UEAAJPEAUtagFORMATETC@@PEAUtagSTGMEDIUM@@H@Z 0000000180027dd0 f i Scanner.obj
 0001:00026e60       ?SetExtent@?$IOleObjectImpl@VCOPOSScanner@@@ATL@@UEAAJKPEAUtagSIZE@@@Z 0000000180027e60 f i Scanner.obj
 0001:00026f20       ?SetHostNames@?$IOleObjectImpl@VCOPOSScanner@@@ATL@@UEAAJPEB_W0@Z 0000000180027f20 f i Scanner.obj
 0001:00026fa0       ?SetInterfaceSafetyOptions@?$IObjectSafetyImpl@VCOPOSScanner@@$02@ATL@@UEAAJAEBU_GUID@@KK@Z 0000000180027fa0 f i Scanner.obj
 0001:00027140       ?SetMoniker@?$IOleObjectImpl@VCOPOSScanner@@@ATL@@UEAAJKPEAUIMoniker@@@Z 0000000180028140 f i Scanner.obj
 0001:000271d0       ?SetMultiStringValue@CRegKey@ATL@@QEAAJPEB_W0@Z 00000001800281d0 f i Scanner.obj
 0001:00027340       ?SetObjectRects@?$IOleInPlaceObjectWindowlessImpl@VCOPOSScanner@@@ATL@@UEAAJPEBUtagRECT@@0@Z 0000000180028340 f i Scanner.obj
 0001:00027400       ?SetStringValue@CRegKey@ATL@@QEAAJPEB_W0K@Z 0000000180028400 f i Scanner.obj
 0001:00027580       ?SetVoid@CComClassFactory@ATL@@QEAAXPEAX@Z 0000000180028580 f i Scanner.obj
 0001:000275a0       ?SetVoid@CComObjectRootBase@ATL@@QEAAXPEAX@Z 00000001800285a0 f i Scanner.obj
 0001:000275b0       ?ShowWindow@CWindow@ATL@@QEAAHH@Z 00000001800285b0 f i Scanner.obj
 0001:00027640       ?Skip@?$CComEnumImpl@UIEnumConnectionPoints@@$1?_GUID_b196b285_bab4_101a_b69c_00aa00341d07@@3U__s_GUID@@BPEAUIConnectionPoint@@V?$_CopyInterface@UIConnectionPoint@@@ATL@@@ATL@@UEAAJK@Z 0000000180028640 f i Scanner.obj
 0001:000276e0       ?Skip@?$CComEnumImpl@UIEnumConnections@@$1?_GUID_b196b287_bab4_101a_b69c_00aa00341d07@@3U__s_GUID@@BUtagCONNECTDATA@@V?$_Copy@UtagCONNECTDATA@@@ATL@@@ATL@@UEAAJK@Z 00000001800286e0 f i Scanner.obj
 0001:00027780       ?SkipAssignment@CRegParser@ATL@@IEAAJPEA_W@Z 0000000180028780 f i Scanner.obj
 0001:00027880       ?SkipWhiteSpace@CRegParser@ATL@@IEAAXXZ 0000000180028880 f i Scanner.obj
 0001:000278e0       ?StartWindowProc@?$CWindowImplBaseT@VCWindow@ATL@@V?$CWinTraits@$0FGAAAAAA@$0A@@2@@ATL@@SA_JPEAUHWND__@@I_K_J@Z 00000001800288e0 f i Scanner.obj
 0001:00027a50       ?StrChrW@CRegParser@ATL@@KAPEA_WPEA_W_W@Z 0000000180028a50 f i Scanner.obj
 0001:00027ad0       ?StrFromMap@CRegObject@ATL@@QEAAPEB_WPEA_W@Z 0000000180028ad0 f i Scanner.obj
 0001:00027b90       ?Swap@?$CComPtrBase@UIAdviseSink@@@ATL@@IEAAXAEAV12@@Z 0000000180028b90 f i Scanner.obj
 0001:00027bf0       ?Swap@?$CComPtrBase@UIOleClientSite@@@ATL@@IEAAXAEAV12@@Z 0000000180028bf0 f i Scanner.obj
 0001:00027c50       ?Swap@?$CComPtrBase@UIUnknown@@@ATL@@IEAAXAEAV12@@Z 0000000180028c50 f i Scanner.obj
 0001:00027cb0       ?T2COLE_EX@@YAPEB_WPEB_WI@Z 0000000180028cb0 f i Scanner.obj
 0001:00027cd0       ?T2OLE_EX@@YAPEA_WPEA_WI@Z 0000000180028cd0 f i Scanner.obj
 0001:00027cf0       ?Term@CAtlModule@ATL@@QEAAXXZ 0000000180028cf0 f i Scanner.obj
 0001:00027db0       ?Term@CComModule@ATL@@QEAAXXZ 0000000180028db0 f i Scanner.obj
 0001:00027ea0       ?TranslateAcceleratorW@?$IOleInPlaceActiveObjectImpl@VCOPOSScanner@@@ATL@@UEAAJPEAUtagMSG@@@Z 0000000180028ea0 f i Scanner.obj
 0001:00028110       ?UIDeactivate@?$IOleInPlaceObjectWindowlessImpl@VCOPOSScanner@@@ATL@@UEAAJXZ 0000000180029110 f i Scanner.obj
 0001:000281c0       ?Unadvise@?$CProxy_IOPOSEvents@VCOPOSScanner@@@@UEAAJK@Z 00000001800291c0 f i Scanner.obj
 0001:00028210       ?Unadvise@?$IConnectionPointImpl@VCOPOSScanner@@$1?DIID__IOPOSScannerEvents@@3U_GUID@@BVCComDynamicUnkArray@ATL@@@ATL@@UEAAJK@Z 0000000180029210 f i Scanner.obj
 0001:00028300       ?Unadvise@?$IConnectionPointImpl@VCOPOSScanner@@$1?IID_IPropertyNotifySink@@3U_GUID@@BVCComDynamicUnkArray@ATL@@@ATL@@UEAAJK@Z 0000000180029300 f i Scanner.obj
 0001:000283f0       ?Unadvise@?$IOleObjectImpl@VCOPOSScanner@@@ATL@@UEAAJK@Z 00000001800293f0 f i Scanner.obj
 0001:000284e0       ?Unfreeze@?$IViewObjectExImpl@VCOPOSScanner@@@ATL@@UEAAJK@Z 00000001800294e0 f i Scanner.obj
 0001:00028560       ?Unlock@?$CComCritSecLock@VCComCriticalSection@ATL@@@ATL@@QEAAXXZ 0000000180029560 f i Scanner.obj
 0001:000285f0       ?Unlock@?$CComObjectRootEx@VCComSingleThreadModel@ATL@@@ATL@@QEAAXXZ 00000001800295f0 f i Scanner.obj
 0001:00028600       ?Unlock@CAtlModule@ATL@@UEAAJXZ 0000000180029600 f i Scanner.obj
 0001:00028640       ?Unlock@CComCriticalSection@ATL@@QEAAJXZ 0000000180029640 f i Scanner.obj
 0001:00028680       ?Unlock@CComFakeCriticalSection@ATL@@QEAAJXZ 0000000180029680 f i Scanner.obj
 0001:00028690       ?UnregisterServer@?$CAtlModuleT@VCComModule@ATL@@@ATL@@QEAAJHPEBU_GUID@@@Z 0000000180029690 f i Scanner.obj
 0001:00028700       ?UnregisterServer@CAtlComModule@ATL@@QEAAJHPEBU_GUID@@@Z 0000000180029700 f i Scanner.obj
 0001:00028740       ?UnregisterServer@CComModule@ATL@@QEAAJHPEBU_GUID@@@Z 0000000180029740 f i Scanner.obj
 0001:00028830       ?Update@?$IOleObjectImpl@VCOPOSScanner@@@ATL@@UEAAJXZ 0000000180029830 f i Scanner.obj
 0001:000288a0       ?UpdateRegistryFromResource@CAtlModule@ATL@@QEAAJIHPEAU_ATL_REGMAP_ENTRY@2@@Z 00000001800298a0 f i Scanner.obj
 0001:00028dd0       ?UpdateRegistryFromResource@CAtlModule@ATL@@QEAAJPEB_WHPEAU_ATL_REGMAP_ENTRY@2@@Z 0000000180029dd0 f i Scanner.obj
 0001:00029320       ?UpdateRegistryFromResource@CComModule@ATL@@UEAAJIHPEAU_ATL_REGMAP_ENTRY@2@@Z 000000018002a320 f i Scanner.obj
 0001:00029370       ?UpdateRegistryFromResource@CComModule@ATL@@UEAAJPEB_WHPEAU_ATL_REGMAP_ENTRY@2@@Z 000000018002a370 f i Scanner.obj
 0001:000293c0       ?UpdateRegistryFromResourceD@CComModule@ATL@@UEAAJIHPEAU_ATL_REGMAP_ENTRY@2@@Z 000000018002a3c0 f i Scanner.obj
 0001:000293e0       ?UpdateRegistryFromResourceD@CComModule@ATL@@UEAAJPEB_WHPEAU_ATL_REGMAP_ENTRY@2@@Z 000000018002a3e0 f i Scanner.obj
 0001:00029400       ?VTFromRegType@CRegParser@ATL@@KAHPEB_WAEAG@Z 000000018002a400 f i Scanner.obj
 0001:000294e0       ?WindowProc@?$CWindowImplBaseT@VCWindow@ATL@@V?$CWinTraits@$0FGAAAAAA@$0A@@2@@ATL@@SA_JPEAUHWND__@@I_K_J@Z 000000018002a4e0 f i Scanner.obj
 0001:000297c0       ?WriteToStream@CComBSTR@ATL@@QEAAJPEAUIStream@@@Z 000000018002a7c0 f i Scanner.obj
 0001:00029930       ?WriteToStream@CComVariant@ATL@@QEAAJPEAUIStream@@@Z 000000018002a930 f i Scanner.obj
 0001:00029d40       ?WriteToStream@CComVariant@ATL@@QEAAJPEAUIStream@@G@Z 000000018002ad40 f i Scanner.obj
 0001:00029e20       ?_AtlFinalConstruct@CComObjectRootBase@ATL@@QEAAJXZ 000000018002ae20 f i Scanner.obj
 0001:00029e30       ?_AtlGetConversionACP@ATL@@YAIXZ 000000018002ae30 f i Scanner.obj
 0001:00029e40       ?_AtlInitialConstruct@?$CComAggObject@VCOPOSScanner@@@ATL@@QEAAJXZ 000000018002ae40 f i Scanner.obj
 0001:00029ea0       ?_AtlInitialConstruct@?$CComObjectRootEx@VCComMultiThreadModel@ATL@@@ATL@@QEAAJXZ 000000018002aea0 f i Scanner.obj
 0001:00029ee0       ?_AtlInitialConstruct@?$CComObjectRootEx@VCComSingleThreadModel@ATL@@@ATL@@QEAAJXZ 000000018002aee0 f i Scanner.obj
 0001:00029ef0       ?_AtlVerifyStackAvailable@_ATL_SAFE_ALLOCA_IMPL@ATL@@YA_N_K@Z 000000018002aef0 f i Scanner.obj
 0001:0002a050       ?_GetEntries@?$CComEnum@UIEnumConnectionPoints@@$1?_GUID_b196b285_bab4_101a_b69c_00aa00341d07@@3U__s_GUID@@BPEAUIConnectionPoint@@V?$_CopyInterface@UIConnectionPoint@@@ATL@@VCComSingleThreadModel@6@@ATL@@SAPEBU_ATL_INTMAP_ENTRY@2@XZ 000000018002b050 f i Scanner.obj
 0001:0002a070       ?_GetEntries@?$CComEnum@UIEnumConnections@@$1?_GUID_b196b287_bab4_101a_b69c_00aa00341d07@@3U__s_GUID@@BUtagCONNECTDATA@@V?$_Copy@UtagCONNECTDATA@@@ATL@@VCComSingleThreadModel@6@@ATL@@SAPEBU_ATL_INTMAP_ENTRY@2@XZ 000000018002b070 f i Scanner.obj
 0001:0002a090       ?_GetEntries@CComClassFactory@ATL@@SAPEBU_ATL_INTMAP_ENTRY@2@XZ 000000018002b090 f i Scanner.obj
 0001:0002a0b0       ?_GetEntries@COPOSScanner@@SAPEBU_ATL_INTMAP_ENTRY@ATL@@XZ 000000018002b0b0 f i Scanner.obj
 0001:0002a0d0       ?_GetRawUnknown@COPOSScanner@@QEAAPEAUIUnknown@@XZ 000000018002b0d0 f i Scanner.obj
 0001:0002a160       ?_GetViewStatus@COPOSScanner@@QEAAKXZ 000000018002b160 f i Scanner.obj
 0001:0002a170       ?_InternalQueryInterface@?$CComEnum@UIEnumConnectionPoints@@$1?_GUID_b196b285_bab4_101a_b69c_00aa00341d07@@3U__s_GUID@@BPEAUIConnectionPoint@@V?$_CopyInterface@UIConnectionPoint@@@ATL@@VCComSingleThreadModel@6@@ATL@@QEAAJAEBU_GUID@@PEAPEAX@Z 000000018002b170 f i Scanner.obj
 0001:0002a1c0       ?_InternalQueryInterface@?$CComEnum@UIEnumConnections@@$1?_GUID_b196b287_bab4_101a_b69c_00aa00341d07@@3U__s_GUID@@BUtagCONNECTDATA@@V?$_Copy@UtagCONNECTDATA@@@ATL@@VCComSingleThreadModel@6@@ATL@@QEAAJAEBU_GUID@@PEAPEAX@Z 000000018002b1c0 f i Scanner.obj
 0001:0002a210       ?_InternalQueryInterface@CComClassFactory@ATL@@QEAAJAEBU_GUID@@PEAPEAX@Z 000000018002b210 f i Scanner.obj
 0001:0002a260       ?_InternalQueryInterface@COPOSScanner@@QEAAJAEBU_GUID@@PEAPEAX@Z 000000018002b260 f i Scanner.obj
 0001:0002a2b0       ?_LocCPQueryInterface@?$IConnectionPointImpl@VCOPOSScanner@@$1?DIID__IOPOSScannerEvents@@3U_GUID@@BVCComDynamicUnkArray@ATL@@@ATL@@UEAAJAEBU_GUID@@PEAPEAX@Z 000000018002b2b0 f i Scanner.obj
 0001:0002a390       ?_LocCPQueryInterface@?$IConnectionPointImpl@VCOPOSScanner@@$1?IID_IPropertyNotifySink@@3U_GUID@@BVCComDynamicUnkArray@ATL@@@ATL@@UEAAJAEBU_GUID@@PEAPEAX@Z 000000018002b390 f i Scanner.obj
 0001:0002a470       ?atlCreate@?$CWindowImpl@VCOPOSScanner@@VCWindow@ATL@@V?$CWinTraits@$0FGAAAAAA@$0A@@3@@ATL@@QEAAPEAUHWND__@@PEAU3@V_U_RECT@2@PEB_WKKV_U_MENUorID@2@PEAX@Z 000000018002b470 f i Scanner.obj
 0001:0002a5a0       ?atlCreate@?$CWindowImplBaseT@VCWindow@ATL@@V?$CWinTraits@$0FGAAAAAA@$0A@@2@@ATL@@QEAAPEAUHWND__@@PEAU3@V_U_RECT@2@PEB_WKKV_U_MENUorID@2@GPEAX@Z 000000018002b5a0 f i Scanner.obj
 0001:0002a800       ?atlCreate@CRegKey@ATL@@QEAAJPEAUHKEY__@@PEB_WPEA_WKKPEAU_SECURITY_ATTRIBUTES@@PEAK@Z 000000018002b800 f i Scanner.obj
 0001:0002a9f0       ?begin@CComDynamicUnkArray@ATL@@QEAAPEAPEAUIUnknown@@XZ 000000018002b9f0 f i Scanner.obj
 0001:0002aa00       ?copy@?$_Copy@UtagCONNECTDATA@@@ATL@@SAJPEAUtagCONNECTDATA@@PEBU3@@Z 000000018002ba00 f i Scanner.obj
 0001:0002aaf0       ?copy@?$_CopyInterface@UIConnectionPoint@@@ATL@@SAJPEAPEAUIConnectionPoint@@PEBQEAU3@@Z 000000018002baf0 f i Scanner.obj
 0001:0002abe0       ?destroy@?$_Copy@UtagCONNECTDATA@@@ATL@@SAXPEAUtagCONNECTDATA@@@Z 000000018002bbe0 f i Scanner.obj
 0001:0002ac30       ?destroy@?$_CopyInterface@UIConnectionPoint@@@ATL@@SAXPEAPEAUIConnectionPoint@@@Z 000000018002bc30 f i Scanner.obj
 0001:0002ac80       ?end@CComDynamicUnkArray@ATL@@QEAAPEAPEAUIUnknown@@XZ 000000018002bc80 f i Scanner.obj
 0001:0002aca0       ?init@?$_Copy@UtagCONNECTDATA@@@ATL@@SAXPEAUtagCONNECTDATA@@@Z 000000018002bca0 f i Scanner.obj
 0001:0002acb0       ?init@?$_CopyInterface@UIConnectionPoint@@@ATL@@SAXPEAPEAUIConnectionPoint@@@Z 000000018002bcb0 f i Scanner.obj
 0001:0002acc0       ?memcpy_s@Checked@ATL@@YAXPEAX_KPEBX1@Z 000000018002bcc0 f i Scanner.obj
 0001:0002ad20       ?ocscpy_s@@YA_NPEA_W_KPEB_W@Z 000000018002bd20 f i Scanner.obj
 0001:0002ada0       ?ocslen@@YAHPEB_W@Z        000000018002bda0 f i Scanner.obj
 0001:0002ade0       ?tcsncpy_s@Checked@ATL@@YAHPEA_W_KPEB_W1@Z 000000018002bde0 f i Scanner.obj
 0001:0002ae40       ?wcscat_s@Checked@ATL@@YAXPEA_W_KPEB_W@Z 000000018002be40 f i Scanner.obj
 0001:0002ae90       ?wcscpy_s@Checked@ATL@@YAXPEA_W_KPEB_W@Z 000000018002be90 f i Scanner.obj
 0001:0002aee0       ?wcsncpy_s@Checked@ATL@@YAHPEA_W_KPEB_W1@Z 000000018002bee0 f i Scanner.obj
 0001:0002af40       ?wcsstr@@YAPEA_WPEA_WPEB_W@Z 000000018002bf40 f i Scanner.obj
 0001:0002af80       InlineIsEqualGUID          000000018002bf80 f i Scanner.obj
 0001:0002b050       IsEqualGUID                000000018002c050 f i Scanner.obj
 0001:0002b0b0       ??0COPOSScanner@@QEAA@XZ   000000018002c0b0 f   ScannerImpl.obj
 0001:0002b230       ?FinalConstruct@COPOSScanner@@QEAAJXZ 000000018002c230 f   ScannerImpl.obj
 0001:0002b320       ??1COPOSScanner@@UEAA@XZ   000000018002c320 f   ScannerImpl.obj
 0001:0002b400       ?WriteTrace@COPOSScanner@@QEAAXPEB_WZZ 000000018002c400 f   ScannerImpl.obj
 0001:0002b4c0       ?WriteTraceString@COPOSScanner@@QEAAXPEB_WPEA_W@Z 000000018002c4c0 f   ScannerImpl.obj
 0001:0002b900       ?WriteTraceString@COPOSScanner@@QEAAXPEAXHHHPEB_WZZ 000000018002c900 f   ScannerImpl.obj
 0001:0002bb90       ?WriteTraceError@COPOSScanner@@QEAAXPEB_WK@Z 000000018002cb90 f   ScannerImpl.obj
 0001:0002bc90       ?WriteTraceMethods@COPOSScanner@@QEAAXPEAJH@Z 000000018002cc90 f   ScannerImpl.obj
 0001:0002bd20       ?GetOposProp@COPOSScanner@@IEAAJPEBDJPEAJJ@Z 000000018002cd20 f   ScannerImpl.obj
 0001:0002c040       ?SetOposProp@COPOSScanner@@IEAAJPEBDJJJ@Z 000000018002d040 f   ScannerImpl.obj
 0001:0002c3a0       ?GetOposProp@COPOSScanner@@IEAAJPEBDJPEAFJ@Z 000000018002d3a0 f   ScannerImpl.obj
 0001:0002c440       ?SetOposProp@COPOSScanner@@IEAAJPEBDJFJ@Z 000000018002d440 f   ScannerImpl.obj
 0001:0002c4c0       ?GetOposProp@COPOSScanner@@IEAAJPEBDJPEAPEA_WJ@Z 000000018002d4c0 f   ScannerImpl.obj
 0001:0002c7e0       ?SetOposProp@COPOSScanner@@IEAAJPEBDJPEA_WJ@Z 000000018002d7e0 f   ScannerImpl.obj
 0001:0002cbc0       ?DoInvoke@COPOSScanner@@IEAAJPEBDJPEAVOposVariant@@IHPEAJ_N@Z 000000018002dbc0 f   ScannerImpl.obj
 0001:0002d710       ?SetCOFreezeEvents@COPOSScanner@@IEAAXF@Z 000000018002e710 f   ScannerImpl.obj
 0001:0002d8a0       ?FreezeEvents@COPOSScanner@@MEAAJH@Z 000000018002e8a0 f   ScannerImpl.obj
 0001:0002d9d0       ?OnDraw@COPOSScanner@@MEAAJAEAUATL_DRAWINFO@@@Z 000000018002e9d0 f   ScannerImpl.obj
 0001:0002dba0       ?SOProcessID@COPOSScanner@@UEAAJPEAJ@Z 000000018002eba0 f   ScannerImpl.obj
 0001:0002dc00       ?get_OpenResult@COPOSScanner@@UEAAJPEAJ@Z 000000018002ec00 f   ScannerImpl.obj
 0001:0002dc60       ?get_CheckHealthText@COPOSScanner@@UEAAJPEAPEA_W@Z 000000018002ec60 f   ScannerImpl.obj
 0001:0002dcc0       ?get_Claimed@COPOSScanner@@UEAAJPEAF@Z 000000018002ecc0 f   ScannerImpl.obj
 0001:0002dd20       ?get_DataEventEnabled@COPOSScanner@@UEAAJPEAF@Z 000000018002ed20 f   ScannerImpl.obj
 0001:0002dd80       ?put_DataEventEnabled@COPOSScanner@@UEAAJF@Z 000000018002ed80 f   ScannerImpl.obj
 0001:0002dde0       ?get_DeviceEnabled@COPOSScanner@@UEAAJPEAF@Z 000000018002ede0 f   ScannerImpl.obj
 0001:0002de40       ?put_DeviceEnabled@COPOSScanner@@UEAAJF@Z 000000018002ee40 f   ScannerImpl.obj
 0001:0002dea0       ?get_FreezeEvents@COPOSScanner@@UEAAJPEAF@Z 000000018002eea0 f   ScannerImpl.obj
 0001:0002df00       ?put_FreezeEvents@COPOSScanner@@UEAAJF@Z 000000018002ef00 f   ScannerImpl.obj
 0001:0002dfe0       ?get_ResultCode@COPOSScanner@@UEAAJPEAJ@Z 000000018002efe0 f   ScannerImpl.obj
 0001:0002e0b0       ?get_ResultCodeExtended@COPOSScanner@@UEAAJPEAJ@Z 000000018002f0b0 f   ScannerImpl.obj
 0001:0002e110       ?get_State@COPOSScanner@@UEAAJPEAJ@Z 000000018002f110 f   ScannerImpl.obj
 0001:0002e1a0       ?get_ControlObjectDescription@COPOSScanner@@UEAAJPEAPEA_W@Z 000000018002f1a0 f   ScannerImpl.obj
 0001:0002e220       ?get_ControlObjectVersion@COPOSScanner@@UEAAJPEAJ@Z 000000018002f220 f   ScannerImpl.obj
 0001:0002e280       ?get_ServiceObjectDescription@COPOSScanner@@UEAAJPEAPEA_W@Z 000000018002f280 f   ScannerImpl.obj
 0001:0002e2e0       ?get_ServiceObjectVersion@COPOSScanner@@UEAAJPEAJ@Z 000000018002f2e0 f   ScannerImpl.obj
 0001:0002e340       ?get_DeviceDescription@COPOSScanner@@UEAAJPEAPEA_W@Z 000000018002f340 f   ScannerImpl.obj
 0001:0002e3a0       ?get_DeviceName@COPOSScanner@@UEAAJPEAPEA_W@Z 000000018002f3a0 f   ScannerImpl.obj
 0001:0002e400       ?CheckHealth@COPOSScanner@@UEAAJJPEAJ@Z 000000018002f400 f   ScannerImpl.obj
 0001:0002e4c0       ?ClaimDevice@COPOSScanner@@UEAAJJPEAJ@Z 000000018002f4c0 f   ScannerImpl.obj
 0001:0002e5e0       ?ClearInput@COPOSScanner@@UEAAJPEAJ@Z 000000018002f5e0 f   ScannerImpl.obj
 0001:0002e650       ?Close@COPOSScanner@@UEAAJPEAJ@Z 000000018002f650 f   ScannerImpl.obj
 0001:0002e760       ?DirectIO@COPOSScanner@@UEAAJJPEAJPEAPEA_W0@Z 000000018002f760 f   ScannerImpl.obj
 0001:0002e8e0       ?Open@COPOSScanner@@UEAAJPEA_WPEAJ@Z 000000018002f8e0 f   ScannerImpl.obj
 0001:0002fdb0       ?ReleaseDevice@COPOSScanner@@UEAAJPEAJ@Z 0000000180030db0 f   ScannerImpl.obj
 0001:0002fe60       ?get_ScanData@COPOSScanner@@UEAAJPEAPEA_W@Z 0000000180030e60 f   ScannerImpl.obj
 0001:0002fec0       ?get_AutoDisable@COPOSScanner@@UEAAJPEAF@Z 0000000180030ec0 f   ScannerImpl.obj
 0001:0002ff20       ?put_AutoDisable@COPOSScanner@@UEAAJF@Z 0000000180030f20 f   ScannerImpl.obj
 0001:0002ff80       ?get_BinaryConversion@COPOSScanner@@UEAAJPEAJ@Z 0000000180030f80 f   ScannerImpl.obj
 0001:0002ffe0       ?put_BinaryConversion@COPOSScanner@@UEAAJJ@Z 0000000180030fe0 f   ScannerImpl.obj
 0001:00030050       ?get_DataCount@COPOSScanner@@UEAAJPEAJ@Z 0000000180031050 f   ScannerImpl.obj
 0001:000300b0       ?get_DecodeData@COPOSScanner@@UEAAJPEAF@Z 00000001800310b0 f   ScannerImpl.obj
 0001:00030110       ?put_DecodeData@COPOSScanner@@UEAAJF@Z 0000000180031110 f   ScannerImpl.obj
 0001:00030170       ?get_ScanDataLabel@COPOSScanner@@UEAAJPEAPEA_W@Z 0000000180031170 f   ScannerImpl.obj
 0001:000301d0       ?get_ScanDataType@COPOSScanner@@UEAAJPEAJ@Z 00000001800311d0 f   ScannerImpl.obj
 0001:00030230       ?get_CapPowerReporting@COPOSScanner@@UEAAJPEAJ@Z 0000000180031230 f   ScannerImpl.obj
 0001:00030290       ?get_PowerNotify@COPOSScanner@@UEAAJPEAJ@Z 0000000180031290 f   ScannerImpl.obj
 0001:000302f0       ?put_PowerNotify@COPOSScanner@@UEAAJJ@Z 00000001800312f0 f   ScannerImpl.obj
 0001:00030350       ?get_PowerState@COPOSScanner@@UEAAJPEAJ@Z 0000000180031350 f   ScannerImpl.obj
 0001:000303b0       ?get_CapStatisticsReporting@COPOSScanner@@UEAAJPEAF@Z 00000001800313b0 f   ScannerImpl.obj
 0001:00030410       ?get_CapUpdateStatistics@COPOSScanner@@UEAAJPEAF@Z 0000000180031410 f   ScannerImpl.obj
 0001:00030470       ?ResetStatistics@COPOSScanner@@UEAAJPEA_WPEAJ@Z 0000000180031470 f   ScannerImpl.obj
 0001:00030550       ?RetrieveStatistics@COPOSScanner@@UEAAJPEAPEA_WPEAJ@Z 0000000180031550 f   ScannerImpl.obj
 0001:00030630       ?UpdateStatistics@COPOSScanner@@UEAAJPEA_WPEAJ@Z 0000000180031630 f   ScannerImpl.obj
 0001:00030710       ?get_CapCompareFirmwareVersion@COPOSScanner@@UEAAJPEAF@Z 0000000180031710 f   ScannerImpl.obj
 0001:00030770       ?get_CapUpdateFirmware@COPOSScanner@@UEAAJPEAF@Z 0000000180031770 f   ScannerImpl.obj
 0001:000307d0       ?CompareFirmwareVersion@COPOSScanner@@UEAAJPEA_WPEAJ1@Z 00000001800317d0 f   ScannerImpl.obj
 0001:00030910       ?UpdateFirmware@COPOSScanner@@UEAAJPEA_WPEAJ@Z 0000000180031910 f   ScannerImpl.obj
 0001:000309f0       ?ClearInputProperties@COPOSScanner@@UEAAJPEAJ@Z 00000001800319f0 f   ScannerImpl.obj
 0001:00030a50       ??0?$CComControl@VCOPOSScanner@@V?$CWindowImpl@VCOPOSScanner@@VCWindow@ATL@@V?$CWinTraits@$0FGAAAAAA@$0A@@3@@ATL@@@ATL@@QEAA@XZ 0000000180031a50 f i ScannerImpl.obj
 0001:00030aa0       ??0?$CComPtr@UIAdviseSink@@@ATL@@QEAA@XZ 0000000180031aa0 f i ScannerImpl.obj
 0001:00030ae0       ??0?$CComPtr@UIDataAdviseHolder@@@ATL@@QEAA@XZ 0000000180031ae0 f i ScannerImpl.obj
 0001:00030b20       ??0?$CComPtr@UIOleAdviseHolder@@@ATL@@QEAA@XZ 0000000180031b20 f i ScannerImpl.obj
 0001:00030b60       ??0?$CComPtr@UIOleClientSite@@@ATL@@QEAA@XZ 0000000180031b60 f i ScannerImpl.obj
 0001:00030ba0       ??0?$CComPtr@UIOleInPlaceSiteWindowless@@@ATL@@QEAA@XZ 0000000180031ba0 f i ScannerImpl.obj
 0001:00030be0       ??0?$CComPtrBase@UIAdviseSink@@@ATL@@IEAA@XZ 0000000180031be0 f i ScannerImpl.obj
 0001:00030c00       ??0?$CComPtrBase@UIDataAdviseHolder@@@ATL@@IEAA@XZ 0000000180031c00 f i ScannerImpl.obj
 0001:00030c20       ??0?$CComPtrBase@UIOleAdviseHolder@@@ATL@@IEAA@XZ 0000000180031c20 f i ScannerImpl.obj
 0001:00030c40       ??0?$CComPtrBase@UIOleClientSite@@@ATL@@IEAA@XZ 0000000180031c40 f i ScannerImpl.obj
 0001:00030c60       ??0?$CComPtrBase@UIOleInPlaceSiteWindowless@@@ATL@@IEAA@XZ 0000000180031c60 f i ScannerImpl.obj
 0001:00030c80       ??0?$CComQIPtr@UIDispatch@@$1?_GUID_00020400_0000_0000_c000_000000000046@@3U__s_GUID@@B@ATL@@QEAA@XZ 0000000180031c80 f i ScannerImpl.obj
 0001:00030cc0       ??0?$CProxy_IOPOSEvents@VCOPOSScanner@@@@QEAA@PEAVCOPOSScanner@@@Z 0000000180031cc0 f i ScannerImpl.obj
 0001:00030d50       ??0?$CWindowImpl@VCOPOSScanner@@VCWindow@ATL@@V?$CWinTraits@$0FGAAAAAA@$0A@@3@@ATL@@QEAA@XZ 0000000180031d50 f i ScannerImpl.obj
 0001:00030d90       ??0?$CWindowImplBaseT@VCWindow@ATL@@V?$CWinTraits@$0FGAAAAAA@$0A@@2@@ATL@@QEAA@XZ 0000000180031d90 f i ScannerImpl.obj
 0001:00030de0       ??0?$CWindowImplRoot@VCWindow@ATL@@@ATL@@QEAA@XZ 0000000180031de0 f i ScannerImpl.obj
 0001:00030e50       ??0?$IConnectionPointContainerImpl@VCOPOSScanner@@@ATL@@QEAA@XZ 0000000180031e50 f i ScannerImpl.obj
 0001:00030e90       ??0?$IConnectionPointImpl@VCOPOSScanner@@$1?DIID__IOPOSScannerEvents@@3U_GUID@@BVCComDynamicUnkArray@ATL@@@ATL@@QEAA@XZ 0000000180031e90 f i ScannerImpl.obj
 0001:00030ee0       ??0?$IConnectionPointImpl@VCOPOSScanner@@$1?IID_IPropertyNotifySink@@3U_GUID@@BVCComDynamicUnkArray@ATL@@@ATL@@QEAA@XZ 0000000180031ee0 f i ScannerImpl.obj
 0001:00030f30       ??0?$IDataObjectImpl@VCOPOSScanner@@@ATL@@QEAA@XZ 0000000180031f30 f i ScannerImpl.obj
 0001:00030f70       ??0?$IDispatchImpl@UIOPOSScanner@@$1?IID_IOPOSScanner@@3U_GUID@@B$1?LIBID_OposScanner_CCO@@3U3@B$00$0A@VCComTypeInfoHolder@ATL@@@ATL@@QEAA@XZ 0000000180031f70 f i ScannerImpl.obj
 0001:00030fb0       ??0?$IObjectSafetyImpl@VCOPOSScanner@@$02@ATL@@QEAA@XZ 0000000180031fb0 f i ScannerImpl.obj
 0001:00030ff0       ??0?$IOleControlImpl@VCOPOSScanner@@@ATL@@QEAA@XZ 0000000180031ff0 f i ScannerImpl.obj
 0001:00031030       ??0?$IOleInPlaceActiveObjectImpl@VCOPOSScanner@@@ATL@@QEAA@XZ 0000000180032030 f i ScannerImpl.obj
 0001:00031070       ??0?$IOleInPlaceObjectWindowlessImpl@VCOPOSScanner@@@ATL@@QEAA@XZ 0000000180032070 f i ScannerImpl.obj
 0001:000310b0       ??0?$IOleObjectImpl@VCOPOSScanner@@@ATL@@QEAA@XZ 00000001800320b0 f i ScannerImpl.obj
 0001:000310f0       ??0?$IPersistStorageImpl@VCOPOSScanner@@@ATL@@QEAA@XZ 00000001800320f0 f i ScannerImpl.obj
 0001:00031130       ??0?$IPersistStreamInitImpl@VCOPOSScanner@@@ATL@@QEAA@XZ 0000000180032130 f i ScannerImpl.obj
 0001:00031170       ??0?$IPropertyNotifySinkCP@VCOPOSScanner@@VCComDynamicUnkArray@ATL@@@ATL@@QEAA@XZ 0000000180032170 f i ScannerImpl.obj
 0001:000311b0       ??0?$IProvideClassInfo2Impl@$1?CLSID_OPOSScanner@@3U_GUID@@B$1?DIID__IOPOSScannerEvents@@3U2@B$1?LIBID_OposScanner_CCO@@3U2@B$00$0A@VCComTypeInfoHolder@ATL@@@ATL@@QEAA@XZ 00000001800321b0 f i ScannerImpl.obj
 0001:000311f0       ??0?$IQuickActivateImpl@VCOPOSScanner@@@ATL@@QEAA@XZ 00000001800321f0 f i ScannerImpl.obj
 0001:00031230       ??0?$ISpecifyPropertyPagesImpl@VCOPOSScanner@@@ATL@@QEAA@XZ 0000000180032230 f i ScannerImpl.obj
 0001:00031270       ??0?$IViewObjectExImpl@VCOPOSScanner@@@ATL@@QEAA@XZ 0000000180032270 f i ScannerImpl.obj
 0001:000312b0       ??0?$_ICPLocator@$1?DIID__IOPOSScannerEvents@@3U_GUID@@B@ATL@@QEAA@XZ 00000001800322b0 f i ScannerImpl.obj
 0001:000312c0       ??0?$_ICPLocator@$1?IID_IPropertyNotifySink@@3U_GUID@@B@ATL@@QEAA@XZ 00000001800322c0 f i ScannerImpl.obj
 0001:000312d0       ??0CComControlBase@ATL@@QEAA@AEAPEAUHWND__@@@Z 00000001800322d0 f i ScannerImpl.obj
 0001:000314f0       ??0CComDynamicUnkArray@ATL@@QEAA@XZ 00000001800324f0 f i ScannerImpl.obj
 0001:00031520       ??0CDynamicStdCallThunk2@ATL@@QEAA@XZ 0000000180032520 f i ScannerImpl.obj
 0001:00031540       ??0CMessageMap@ATL@@QEAA@XZ 0000000180032540 f i ScannerImpl.obj
 0001:00031550       ??0CWindow@ATL@@QEAA@PEAUHWND__@@@Z 0000000180032550 f i ScannerImpl.obj
 0001:00031570       ??0CWndProcThunk@ATL@@QEAA@XZ 0000000180032570 f i ScannerImpl.obj
 0001:000315b0       ??0IConnectionPointContainer@@QEAA@XZ 00000001800325b0 f i ScannerImpl.obj
 0001:000315f0       ??0IDataObject@@QEAA@XZ    00000001800325f0 f i ScannerImpl.obj
 0001:00031630       ??0IDispatch@@QEAA@XZ      0000000180032630 f i ScannerImpl.obj
 0001:00031670       ??0IOPOSScanner@@QEAA@XZ   0000000180032670 f i ScannerImpl.obj
 0001:000316b0       ??0IOPOSScanner_1_10@@QEAA@XZ 00000001800326b0 f i ScannerImpl.obj
 0001:000316f0       ??0IOPOSScanner_1_5@@QEAA@XZ 00000001800326f0 f i ScannerImpl.obj
 0001:00031730       ??0IOPOSScanner_1_8@@QEAA@XZ 0000000180032730 f i ScannerImpl.obj
 0001:00031770       ??0IOPOSScanner_1_9@@QEAA@XZ 0000000180032770 f i ScannerImpl.obj
 0001:000317b0       ??0IObjectSafety@@QEAA@XZ  00000001800327b0 f i ScannerImpl.obj
 0001:000317f0       ??0IOleControl@@QEAA@XZ    00000001800327f0 f i ScannerImpl.obj
 0001:00031830       ??0IOleInPlaceActiveObject@@QEAA@XZ 0000000180032830 f i ScannerImpl.obj
 0001:00031870       ??0IOleInPlaceObject@@QEAA@XZ 0000000180032870 f i ScannerImpl.obj
 0001:000318b0       ??0IOleInPlaceObjectWindowless@@QEAA@XZ 00000001800328b0 f i ScannerImpl.obj
 0001:000318f0       ??0IOleObject@@QEAA@XZ     00000001800328f0 f i ScannerImpl.obj
 0001:00031930       ??0IOleWindow@@QEAA@XZ     0000000180032930 f i ScannerImpl.obj
 0001:00031970       ??0IPersist@@QEAA@XZ       0000000180032970 f i ScannerImpl.obj
 0001:000319b0       ??0IPersistStorage@@QEAA@XZ 00000001800329b0 f i ScannerImpl.obj
 0001:000319f0       ??0IPersistStreamInit@@QEAA@XZ 00000001800329f0 f i ScannerImpl.obj
 0001:00031a30       ??0IProvideClassInfo2@@QEAA@XZ 0000000180032a30 f i ScannerImpl.obj
 0001:00031a70       ??0IProvideClassInfo@@QEAA@XZ 0000000180032a70 f i ScannerImpl.obj
 0001:00031ab0       ??0IQuickActivate@@QEAA@XZ 0000000180032ab0 f i ScannerImpl.obj
 0001:00031af0       ??0ISpecifyPropertyPages@@QEAA@XZ 0000000180032af0 f i ScannerImpl.obj
 0001:00031b30       ??0IViewObject2@@QEAA@XZ   0000000180032b30 f i ScannerImpl.obj
 0001:00031b70       ??0IViewObject@@QEAA@XZ    0000000180032b70 f i ScannerImpl.obj
 0001:00031bb0       ??0IViewObjectEx@@QEAA@XZ  0000000180032bb0 f i ScannerImpl.obj
 0001:00031bf0       ??0OposVariantResult@@QEAA@XZ 0000000180032bf0 f i ScannerImpl.obj
 0001:00031c30       ??0_CW@@QEAA@PEBD@Z        0000000180032c30 f i ScannerImpl.obj
 0001:00031c80       ??0_CW@@QEAA@PEB_W@Z       0000000180032c80 f i ScannerImpl.obj
 0001:00031cd0       ??0_CWNCC@@QEAA@PEBD@Z     0000000180032cd0 f i ScannerImpl.obj
 0001:00031d10       ??1?$CComControl@VCOPOSScanner@@V?$CWindowImpl@VCOPOSScanner@@VCWindow@ATL@@V?$CWinTraits@$0FGAAAAAA@$0A@@3@@ATL@@@ATL@@UEAA@XZ 0000000180032d10 f i ScannerImpl.obj
 0001:00031d50       ??1?$CComPtr@UIDataAdviseHolder@@@ATL@@QEAA@XZ 0000000180032d50 f i ScannerImpl.obj
 0001:00031d80       ??1?$CComPtr@UIOleAdviseHolder@@@ATL@@QEAA@XZ 0000000180032d80 f i ScannerImpl.obj
 0001:00031db0       ??1?$CComPtr@UIOleInPlaceSiteWindowless@@@ATL@@QEAA@XZ 0000000180032db0 f i ScannerImpl.obj
 0001:00031de0       ??1?$CComPtrBase@UIDataAdviseHolder@@@ATL@@QEAA@XZ 0000000180032de0 f i ScannerImpl.obj
 0001:00031e30       ??1?$CComPtrBase@UIOleAdviseHolder@@@ATL@@QEAA@XZ 0000000180032e30 f i ScannerImpl.obj
 0001:00031e80       ??1?$CComPtrBase@UIOleInPlaceSiteWindowless@@@ATL@@QEAA@XZ 0000000180032e80 f i ScannerImpl.obj
 0001:00031ed0       ??1?$CComQIPtr@UIDispatch@@$1?_GUID_00020400_0000_0000_c000_000000000046@@3U__s_GUID@@B@ATL@@QEAA@XZ 0000000180032ed0 f i ScannerImpl.obj
 0001:00031f00       ??1?$CProxy_IOPOSEvents@VCOPOSScanner@@@@QEAA@XZ 0000000180032f00 f i ScannerImpl.obj
 0001:00031f30       ??1?$CWindowImpl@VCOPOSScanner@@VCWindow@ATL@@V?$CWinTraits@$0FGAAAAAA@$0A@@3@@ATL@@UEAA@XZ 0000000180032f30 f i ScannerImpl.obj
 0001:00031f60       ??1?$CWindowImplBaseT@VCWindow@ATL@@V?$CWinTraits@$0FGAAAAAA@$0A@@2@@ATL@@UEAA@XZ 0000000180032f60 f i ScannerImpl.obj
 0001:00031f90       ??1?$CWindowImplRoot@VCWindow@ATL@@@ATL@@UEAA@XZ 0000000180032f90 f i ScannerImpl.obj
 0001:00032050       ??1?$IConnectionPointImpl@VCOPOSScanner@@$1?DIID__IOPOSScannerEvents@@3U_GUID@@BVCComDynamicUnkArray@ATL@@@ATL@@QEAA@XZ 0000000180033050 f i ScannerImpl.obj
 0001:000320f0       ??1?$IConnectionPointImpl@VCOPOSScanner@@$1?IID_IPropertyNotifySink@@3U_GUID@@BVCComDynamicUnkArray@ATL@@@ATL@@QEAA@XZ 00000001800330f0 f i ScannerImpl.obj
 0001:00032190       ??1?$IPropertyNotifySinkCP@VCOPOSScanner@@VCComDynamicUnkArray@ATL@@@ATL@@QEAA@XZ 0000000180033190 f i ScannerImpl.obj
 0001:000321c0       ??1CComControlBase@ATL@@UEAA@XZ 00000001800331c0 f i ScannerImpl.obj
 0001:000322b0       ??1CComDynamicUnkArray@ATL@@QEAA@XZ 00000001800332b0 f i ScannerImpl.obj
 0001:000322f0       ??1CDynamicStdCallThunk2@ATL@@QEAA@XZ 00000001800332f0 f i ScannerImpl.obj
 0001:00032330       ??1CWndProcThunk@ATL@@QEAA@XZ 0000000180033330 f i ScannerImpl.obj
 0001:00032370       ??1OposVariantResult@@QEAA@XZ 0000000180033370 f i ScannerImpl.obj
 0001:000323b0       ??1_CW@@QEAA@XZ            00000001800333b0 f i ScannerImpl.obj
 0001:00032430       ??1_CWNCC@@QEAA@XZ         0000000180033430 f i ScannerImpl.obj
 0001:00032460       ??B_CW@@QEAAPEB_WXZ        0000000180033460 f i ScannerImpl.obj
 0001:000324b0       ??B_CWNCC@@QEAAPEA_WXZ     00000001800334b0 f i ScannerImpl.obj
 0001:000324e0       ??_EOposVariant@@QEAAPEAXI@Z 00000001800334e0 f i ScannerImpl.obj
 0001:00032590       ?EventClaim@COPOSScanner@@IEAAXXZ 0000000180033590 f i ScannerImpl.obj
 0001:000325e0       ?EventClose@COPOSScanner@@IEAAXXZ 00000001800335e0 f i ScannerImpl.obj
 0001:00032680       ?EventInit@COPOSScanner@@IEAAJXZ 0000000180033680 f i ScannerImpl.obj
 0001:00032930       ?EventOpen@COPOSScanner@@IEAAXXZ 0000000180033930 f i ScannerImpl.obj
 0001:00032970       ?EventPreCloseRelease@COPOSScanner@@IEAAXXZ 0000000180033970 f i ScannerImpl.obj
 0001:000329f0       ?EventUninit@COPOSScanner@@IEAAXXZ 00000001800339f0 f i ScannerImpl.obj
 0001:00032b20       ?EventWindowProc@COPOSScanner@@IEAA_JI_K_J@Z 0000000180033b20 f i ScannerImpl.obj
 0001:00032cf0       ?FireEventCleanup@COPOSScanner@@IEAAXXZ 0000000180033cf0 f i ScannerImpl.obj
 0001:00032d40       ?FireEventSetup@COPOSScanner@@IEAA_NXZ 0000000180033d40 f i ScannerImpl.obj
 0001:00032dc0       ?GetModuleInstance@CComModule@ATL@@QEAAPEAUHINSTANCE__@@XZ 0000000180033dc0 f i ScannerImpl.obj
 0001:00032dd0       ?SetRC@COPOSScanner@@IEAAJJ@Z 0000000180033dd0 f i ScannerImpl.obj
 0001:00032df0       ?s_EventWindowProc@COPOSScanner@@KA_JPEAUHWND__@@I_K_J@Z 0000000180033df0 f i ScannerImpl.obj
 0001:00032ea0       _snwprintf                 0000000180033ea0 f i ScannerImpl.obj
 0001:00032f30       _vfwprintf_l               0000000180033f30 f i ScannerImpl.obj
 0001:00032f90       _vsnwprintf                0000000180033f90 f i ScannerImpl.obj
 0001:00032ff0       _vsnwprintf_l              0000000180033ff0 f i ScannerImpl.obj
 0001:00033080       vfwprintf                  0000000180034080 f i ScannerImpl.obj
 0001:000330c5       DebugBreak                 00000001800340c5 f   kernel32:KERNEL32.dll
 0001:000330cb       Sleep                      00000001800340cb f   kernel32:KERNEL32.dll
 0001:000330d1       GetCurrentProcess          00000001800340d1 f   kernel32:KERNEL32.dll
 0001:000330d7       TerminateProcess           00000001800340d7 f   kernel32:KERNEL32.dll
 0001:000330dd       MultiByteToWideChar        00000001800340dd f   kernel32:KERNEL32.dll
 0001:000330e3       WideCharToMultiByte        00000001800340e3 f   kernel32:KERNEL32.dll
 0001:000330e9       DecodePointer              00000001800340e9 f   kernel32:KERNEL32.dll
 0001:000330ef       RaiseException             00000001800340ef f   kernel32:KERNEL32.dll
 0001:000330f5       GetLastError               00000001800340f5 f   kernel32:KERNEL32.dll
 0001:000330fb       SetLastError               00000001800340fb f   kernel32:KERNEL32.dll
 0001:00033101       InitializeCriticalSectionEx 0000000180034101 f   kernel32:KERNEL32.dll
 0001:00033107       DeleteCriticalSection      0000000180034107 f   kernel32:KERNEL32.dll
 0001:0003310d       EncodePointer              000000018003410d f   kernel32:KERNEL32.dll
 0001:00033113       EnterCriticalSection       0000000180034113 f   kernel32:KERNEL32.dll
 0001:00033119       LeaveCriticalSection       0000000180034119 f   kernel32:KERNEL32.dll
 0001:0003311f       ResetEvent                 000000018003411f f   kernel32:KERNEL32.dll
 0001:00033125       ReleaseMutex               0000000180034125 f   kernel32:KERNEL32.dll
 0001:0003312b       WaitForSingleObject        000000018003412b f   kernel32:KERNEL32.dll
 0001:00033131       GetCurrentThreadId         0000000180034131 f   kernel32:KERNEL32.dll
 0001:00033137       DisableThreadLibraryCalls  0000000180034137 f   kernel32:KERNEL32.dll
 0001:0003313d       FreeLibrary                000000018003413d f   kernel32:KERNEL32.dll
 0001:00033143       GetModuleFileNameW         0000000180034143 f   kernel32:KERNEL32.dll
 0001:00033149       GetModuleHandleW           0000000180034149 f   kernel32:KERNEL32.dll
 0001:0003314f       GetProcAddress             000000018003414f f   kernel32:KERNEL32.dll
 0001:00033155       LoadLibraryExW             0000000180034155 f   kernel32:KERNEL32.dll
 0001:0003315b       LoadResource               000000018003415b f   kernel32:KERNEL32.dll
 0001:00033161       SizeofResource             0000000180034161 f   kernel32:KERNEL32.dll
 0001:00033167       FindResourceW              0000000180034167 f   kernel32:KERNEL32.dll
 0001:0003316d       GlobalAlloc                000000018003416d f   kernel32:KERNEL32.dll
 0001:00033173       GlobalUnlock               0000000180034173 f   kernel32:KERNEL32.dll
 0001:00033179       GlobalLock                 0000000180034179 f   kernel32:KERNEL32.dll
 0001:0003317f       MulDiv                     000000018003417f f   kernel32:KERNEL32.dll
 0001:00033185       lstrcmpiW                  0000000180034185 f   kernel32:KERNEL32.dll
 0001:0003318b       DeleteFileW                000000018003418b f   kernel32:KERNEL32.dll
 0001:00033191       CloseHandle                0000000180034191 f   kernel32:KERNEL32.dll
 0001:00033197       SetEvent                   0000000180034197 f   kernel32:KERNEL32.dll
 0001:0003319d       CreateMutexW               000000018003419d f   kernel32:KERNEL32.dll
 0001:000331a3       CreateEventW               00000001800341a3 f   kernel32:KERNEL32.dll
 0001:000331a9       GetCurrentProcessId        00000001800341a9 f   kernel32:KERNEL32.dll
 0001:000331af       LocalFree                  00000001800341af f   kernel32:KERNEL32.dll
 0001:000331b5       FormatMessageW             00000001800341b5 f   kernel32:KERNEL32.dll
 0001:000331bb       GetActiveWindow            00000001800341bb f   user32:USER32.dll
 0001:000331c1       MessageBoxW                00000001800341c1 f   user32:USER32.dll
 0001:000331c7       UnregisterClassW           00000001800341c7 f   user32:USER32.dll
 0001:000331cd       PostMessageW               00000001800341cd f   user32:USER32.dll
 0001:000331d3       DefWindowProcW             00000001800341d3 f   user32:USER32.dll
 0001:000331d9       CallWindowProcW            00000001800341d9 f   user32:USER32.dll
 0001:000331df       RegisterClassExW           00000001800341df f   user32:USER32.dll
 0001:000331e5       GetClassInfoExW            00000001800341e5 f   user32:USER32.dll
 0001:000331eb       CreateWindowExW            00000001800341eb f   user32:USER32.dll
 0001:000331f1       IsWindow                   00000001800341f1 f   user32:USER32.dll
 0001:000331f7       IsChild                    00000001800341f7 f   user32:USER32.dll
 0001:000331fd       DestroyWindow              00000001800341fd f   user32:USER32.dll
 0001:00033203       ShowWindow                 0000000180034203 f   user32:USER32.dll
 0001:00033209       SetWindowPos               0000000180034209 f   user32:USER32.dll
 0001:0003320f       CharNextW                  000000018003420f f   user32:USER32.dll
 0001:00033215       SetFocus                   0000000180034215 f   user32:USER32.dll
 0001:0003321b       GetFocus                   000000018003421b f   user32:USER32.dll
 0001:00033221       GetKeyState                0000000180034221 f   user32:USER32.dll
 0001:00033227       GetDC                      0000000180034227 f   user32:USER32.dll
 0001:0003322d       ReleaseDC                  000000018003422d f   user32:USER32.dll
 0001:00033233       BeginPaint                 0000000180034233 f   user32:USER32.dll
 0001:00033239       EndPaint                   0000000180034239 f   user32:USER32.dll
 0001:0003323f       SetWindowRgn               000000018003423f f   user32:USER32.dll
 0001:00033245       InvalidateRect             0000000180034245 f   user32:USER32.dll
 0001:0003324b       GetClientRect              000000018003424b f   user32:USER32.dll
 0001:00033251       IntersectRect              0000000180034251 f   user32:USER32.dll
 0001:00033257       UnionRect                  0000000180034257 f   user32:USER32.dll
 0001:0003325d       OffsetRect                 000000018003425d f   user32:USER32.dll
 0001:00033263       EqualRect                  0000000180034263 f   user32:USER32.dll
 0001:00033269       PtInRect                   0000000180034269 f   user32:USER32.dll
 0001:0003326f       GetWindowLongPtrW          000000018003426f f   user32:USER32.dll
 0001:00033275       SetWindowLongPtrW          0000000180034275 f   user32:USER32.dll
 0001:0003327b       GetParent                  000000018003427b f   user32:USER32.dll
 0001:00033281       LoadCursorW                0000000180034281 f   user32:USER32.dll
 0001:00033287       PeekMessageW               0000000180034287 f   user32:USER32.dll
 0001:0003328d       RegisterClassW             000000018003428d f   user32:USER32.dll
 0001:00033293       LoadBitmapW                0000000180034293 f   user32:USER32.dll
 0001:00033299       CloseMetaFile              0000000180034299 f   gdi32:GDI32.dll
 0001:0003329f       CreateDCW                  000000018003429f f   gdi32:GDI32.dll
 0001:000332a5       CreateMetaFileW            00000001800342a5 f   gdi32:GDI32.dll
 0001:000332ab       CreateRectRgnIndirect      00000001800342ab f   gdi32:GDI32.dll
 0001:000332b1       DeleteDC                   00000001800342b1 f   gdi32:GDI32.dll
 0001:000332b7       DeleteMetaFile             00000001800342b7 f   gdi32:GDI32.dll
 0001:000332bd       GetDeviceCaps              00000001800342bd f   gdi32:GDI32.dll
 0001:000332c3       RestoreDC                  00000001800342c3 f   gdi32:GDI32.dll
 0001:000332c9       SaveDC                     00000001800342c9 f   gdi32:GDI32.dll
 0001:000332cf       SetMapMode                 00000001800342cf f   gdi32:GDI32.dll
 0001:000332d5       LPtoDP                     00000001800342d5 f   gdi32:GDI32.dll
 0001:000332db       SetViewportOrgEx           00000001800342db f   gdi32:GDI32.dll
 0001:000332e1       SetWindowExtEx             00000001800342e1 f   gdi32:GDI32.dll
 0001:000332e7       SetWindowOrgEx             00000001800342e7 f   gdi32:GDI32.dll
 0001:000332ed       BitBlt                     00000001800342ed f   gdi32:GDI32.dll
 0001:000332f3       CreateCompatibleDC         00000001800342f3 f   gdi32:GDI32.dll
 0001:000332f9       DeleteObject               00000001800342f9 f   gdi32:GDI32.dll
 0001:000332ff       SelectObject               00000001800342ff f   gdi32:GDI32.dll
 0001:00033305       GetObjectW                 0000000180034305 f   gdi32:GDI32.dll
 0001:0003330b       RegCloseKey                000000018003430b f   advapi32:ADVAPI32.dll
 0001:00033311       RegCreateKeyExW            0000000180034311 f   advapi32:ADVAPI32.dll
 0001:00033317       RegDeleteKeyW              0000000180034317 f   advapi32:ADVAPI32.dll
 0001:0003331d       RegDeleteValueW            000000018003431d f   advapi32:ADVAPI32.dll
 0001:00033323       RegEnumKeyExW              0000000180034323 f   advapi32:ADVAPI32.dll
 0001:00033329       RegOpenKeyExW              0000000180034329 f   advapi32:ADVAPI32.dll
 0001:0003332f       RegQueryInfoKeyW           000000018003432f f   advapi32:ADVAPI32.dll
 0001:00033335       RegSetValueExW             0000000180034335 f   advapi32:ADVAPI32.dll
 0001:0003333b       RegQueryValueExW           000000018003433b f   advapi32:ADVAPI32.dll
 0001:00033341       CoCreateInstance           0000000180034341 f   ole32:ole32.dll
 0001:00033347       StringFromGUID2            0000000180034347 f   ole32:ole32.dll
 0001:0003334d       CoTaskMemAlloc             000000018003434d f   ole32:ole32.dll
 0001:00033353       CoTaskMemRealloc           0000000180034353 f   ole32:ole32.dll
 0001:00033359       CoTaskMemFree              0000000180034359 f   ole32:ole32.dll
 0001:0003335f       ReadClassStm               000000018003435f f   ole32:ole32.dll
 0001:00033365       WriteClassStm              0000000180034365 f   ole32:ole32.dll
 0001:0003336b       CreateDataAdviseHolder     000000018003436b f   ole32:ole32.dll
 0001:00033371       OleSaveToStream            0000000180034371 f   ole32:ole32.dll
 0001:00033377       CreateOleAdviseHolder      0000000180034377 f   ole32:ole32.dll
 0001:0003337d       OleRegGetUserType          000000018003437d f   ole32:ole32.dll
 0001:00033383       OleRegGetMiscStatus        0000000180034383 f   ole32:ole32.dll
 0001:00033389       OleRegEnumVerbs            0000000180034389 f   ole32:ole32.dll
 0001:0003338f       CLSIDFromProgID            000000018003438f f   ole32:ole32.dll
 0001:00033395       SysAllocString             0000000180034395 f   oleaut32:OLEAUT32.dll
 0001:0003339b       SysAllocStringLen          000000018003439b f   oleaut32:OLEAUT32.dll
 0001:000333a1       SysFreeString              00000001800343a1 f   oleaut32:OLEAUT32.dll
 0001:000333a7       SysStringLen               00000001800343a7 f   oleaut32:OLEAUT32.dll
 0001:000333ad       VariantClear               00000001800343ad f   oleaut32:OLEAUT32.dll
 0001:000333b3       VariantCopyInd             00000001800343b3 f   oleaut32:OLEAUT32.dll
 0001:000333b9       VariantChangeType          00000001800343b9 f   oleaut32:OLEAUT32.dll
 0001:000333bf       SysStringByteLen           00000001800343bf f   oleaut32:OLEAUT32.dll
 0001:000333c5       SysAllocStringByteLen      00000001800343c5 f   oleaut32:OLEAUT32.dll
 0001:000333cb       VariantInit                00000001800343cb f   oleaut32:OLEAUT32.dll
 0001:000333d1       VarUI4FromStr              00000001800343d1 f   oleaut32:OLEAUT32.dll
 0001:000333d7       LoadTypeLib                00000001800343d7 f   oleaut32:OLEAUT32.dll
 0001:000333dd       LoadRegTypeLib             00000001800343dd f   oleaut32:OLEAUT32.dll
 0001:000333e3       RegisterTypeLib            00000001800343e3 f   oleaut32:OLEAUT32.dll
 0001:000333e9       UnRegisterTypeLib          00000001800343e9 f   oleaut32:OLEAUT32.dll
 0001:000333ef       OleCreatePropertyFrame     00000001800343ef f   oleaut32:OLEAUT32.dll
 0001:00033400       _RTC_AllocaHelper          0000000180034400 f   LIBCMTD:stack.obj
 0001:00033440       _RTC_CheckStackVars        0000000180034440 f   LIBCMTD:stack.obj
 0001:000334d0       _RTC_CheckStackVars2       00000001800344d0 f   LIBCMTD:stack.obj
 0001:000335e0       _CRT_RTC_INIT              00000001800345e0 f   LIBCMTD:init.obj
 0001:000335f0       _CRT_RTC_INITW             00000001800345f0 f   LIBCMTD:init.obj
 0001:00033600       _RTC_InitBase              0000000180034600 f   LIBCMTD:init.obj
 0001:00033640       _RTC_Shutdown              0000000180034640 f   LIBCMTD:init.obj
 0001:00033670       __GSHandlerCheck           0000000180034670 f   LIBCMTD:gshandler.obj
 0001:000336b0       __GSHandlerCheckCommon     00000001800346b0 f   LIBCMTD:gshandler.obj
 0001:000337c0       __security_check_cookie    00000001800347c0 f   LIBCMTD:amdsecgs.obj
 0001:000337f0       ??_U@YAPEAX_K@Z            00000001800347f0 f   LIBCMTD:new_array.obj
 0001:00033810       ??3@YAXPEAX_K@Z            0000000180034810 f   LIBCMTD:delete_scalar_size.obj
 0001:00033830       ??_V@YAXPEAX@Z             0000000180034830 f   LIBCMTD:delete_array.obj
 0001:00033850       ??_V@YAXPEAX_K@Z           0000000180034850 f   LIBCMTD:delete_array_size.obj
 0001:00033870       ?configure_argv@__scrt_narrow_argv_policy@@SAHXZ 0000000180034870 f i LIBCMTD:utility.obj
 0001:00033960       ?initialize_environment@__scrt_narrow_environment_policy@@SAHXZ 0000000180034960 f i LIBCMTD:utility.obj
 0001:00033a00       NtCurrentTeb               0000000180034a00 f i LIBCMTD:utility.obj
 0001:00033a10       __scrt_acquire_startup_lock 0000000180034a10 f   LIBCMTD:utility.obj
 0001:00033a80       __scrt_dllmain_after_initialize_c 0000000180034a80 f   LIBCMTD:utility.obj
 0001:00033ab0       __scrt_dllmain_before_initialize_c 0000000180034ab0 f   LIBCMTD:utility.obj
 0001:00033ad0       __scrt_dllmain_crt_thread_attach 0000000180034ad0 f   LIBCMTD:utility.obj
 0001:00033b00       __scrt_dllmain_crt_thread_detach 0000000180034b00 f   LIBCMTD:utility.obj
 0001:00033b20       __scrt_dllmain_exception_filter 0000000180034b20 f   LIBCMTD:utility.obj
 0001:00033b90       __scrt_dllmain_uninitialize_c 0000000180034b90 f   LIBCMTD:utility.obj
 0001:00033bc0       __scrt_dllmain_uninitialize_critical 0000000180034bc0 f   LIBCMTD:utility.obj
 0001:00033be0       __scrt_initialize_crt      0000000180034be0 f   LIBCMTD:utility.obj
 0001:00033c30       __scrt_initialize_onexit_tables 0000000180034c30 f   LIBCMTD:utility.obj
 0001:00033d40       __scrt_is_nonwritable_in_current_image 0000000180034d40 f   LIBCMTD:utility.obj
 0001:00033dd0       __scrt_release_startup_lock 0000000180034dd0 f   LIBCMTD:utility.obj
 0001:00033e00       __scrt_uninitialize_crt    0000000180034e00 f   LIBCMTD:utility.obj
 0001:00033e40       _onexit                    0000000180034e40 f   LIBCMTD:utility.obj
 0001:00033ec0       at_quick_exit              0000000180034ec0 f   LIBCMTD:utility.obj
 0001:00033f10       atexit                     0000000180034f10 f   LIBCMTD:utility.obj
 0001:00033f50       ??3@YAXPEAX@Z              0000000180034f50 f   LIBCMTD:delete_scalar.obj
 0001:00033f70       __raise_securityfailure    0000000180034f70 f   LIBCMTD:gs_report.obj
 0001:00033fb0       __report_gsfailure         0000000180034fb0 f   LIBCMTD:gs_report.obj
 0001:00034090       __report_rangecheckfailure 0000000180035090 f   LIBCMTD:gs_report.obj
 0001:000340b0       __report_securityfailure   00000001800350b0 f   LIBCMTD:gs_report.obj
 0001:00034150       __report_securityfailureEx 0000000180035150 f   LIBCMTD:gs_report.obj
 0001:00034510       _Init_thread_abort         0000000180035510 f   LIBCMTD:thread_safe_statics.obj
 0001:00034540       _Init_thread_footer        0000000180035540 f   LIBCMTD:thread_safe_statics.obj
 0001:000345a0       _Init_thread_header        00000001800355a0 f   LIBCMTD:thread_safe_statics.obj
 0001:00034630       _Init_thread_lock          0000000180035630 f   LIBCMTD:thread_safe_statics.obj
 0001:00034650       _Init_thread_notify        0000000180035650 f   LIBCMTD:thread_safe_statics.obj
 0001:000346b0       _Init_thread_unlock        00000001800356b0 f   LIBCMTD:thread_safe_statics.obj
 0001:000346d0       _Init_thread_wait          00000001800356d0 f   LIBCMTD:thread_safe_statics.obj
 0001:00034780       ??2@YAPEAX_KAEBUnothrow_t@std@@@Z 0000000180035780 f   LIBCMTD:new_scalar_nothrow.obj
 0001:000347c0       ??_U@YAPEAX_KAEBUnothrow_t@std@@@Z 00000001800357c0 f   LIBCMTD:new_array_nothrow.obj
 0001:000347f0       __GSHandlerCheck_SEH       00000001800357f0 f   LIBCMTD:gshandlerseh.obj
 0001:000348c0       _alloca_probe              00000001800358c0 f   LIBCMTD:chkstk.obj
 0001:000348c0       __chkstk                   00000001800358c0 f   LIBCMTD:chkstk.obj
 0001:00034d30       _CRT_INIT                  0000000180035d30 f   LIBCMTD:dll_dllmain.obj
 0001:00034d60       _DllMainCRTStartup         0000000180035d60 f   LIBCMTD:dll_dllmain.obj
 0001:00034e30       ?_RTC_AllocaFailure@@YAXPEAXPEAU_RTC_ALLOCA_NODE@@H@Z 0000000180035e30 f   LIBCMTD:error.obj
 0001:00034f90       ?_RTC_Failure@@YAXPEAXH@Z  0000000180035f90 f   LIBCMTD:error.obj
 0001:00034fe0       ?_RTC_StackFailure@@YAXPEAXPEBD@Z 0000000180035fe0 f   LIBCMTD:error.obj
 0001:00035410       _RTC_UninitUse             0000000180036410 f   LIBCMTD:error.obj
 0001:000354e0       _vsprintf_s_l              00000001800364e0 f i LIBCMTD:error.obj
 0001:00035550       sprintf_s                  0000000180036550 f i LIBCMTD:error.obj
 0001:00035580       ?_RTC_GetErrorFunc@@YAP6AHHPEBDH00ZZPEBX@Z 0000000180036580 f   LIBCMTD:userapi.obj
 0001:00035590       ?_RTC_GetErrorFuncW@@YAP6AHHPEB_WH00ZZPEBX@Z 0000000180036590 f   LIBCMTD:userapi.obj
 0001:000355a0       _RTC_GetErrDesc            00000001800365a0 f   LIBCMTD:userapi.obj
 0001:000355c0       _RTC_NumErrors             00000001800365c0 f   LIBCMTD:userapi.obj
 0001:000355d0       _RTC_SetErrorFunc          00000001800365d0 f   LIBCMTD:userapi.obj
 0001:000355f0       _RTC_SetErrorFuncW         00000001800365f0 f   LIBCMTD:userapi.obj
 0001:00035610       _RTC_SetErrorType          0000000180036610 f   LIBCMTD:userapi.obj
 0001:00035630       ??2@YAPEAX_K@Z             0000000180036630 f   LIBCMTD:new_scalar.obj
 0001:00035680       __isa_available_init       0000000180036680 f   LIBCMTD:cpu_disp.obj
 0001:00035a20       _get_startup_argv_mode     0000000180036a20 f   LIBCMTD:argv_mode.obj
 0001:00035a30       __scrt_is_ucrt_dll_in_use  0000000180036a30 f   LIBCMTD:ucrt_detection.obj
 0001:00035a60       __crt_debugger_hook        0000000180036a60 f   LIBCMTD:utility_desktop.obj
 0001:00035a70       __scrt_fastfail            0000000180036a70 f   LIBCMTD:utility_desktop.obj
 0001:00035c10       __scrt_get_show_window_mode 0000000180036c10 f   LIBCMTD:utility_desktop.obj
 0001:00035c70       __scrt_initialize_mta      0000000180036c70 f   LIBCMTD:utility_desktop.obj
 0001:00035c80       __scrt_initialize_winrt    0000000180036c80 f   LIBCMTD:utility_desktop.obj
 0001:00035c90       __scrt_is_managed_app      0000000180036c90 f   LIBCMTD:utility_desktop.obj
 0001:00035d40       __scrt_set_unhandled_exception_filter 0000000180036d40 f   LIBCMTD:utility_desktop.obj
 0001:00035d60       __scrt_stub_for_initialize_mta 0000000180036d60 f   LIBCMTD:utility_desktop.obj
 0001:00035d60       __scrt_exe_initialize_mta  0000000180036d60 f   LIBCMTD:utility_desktop.obj
 0001:00035d70       __scrt_unhandled_exception_filter 0000000180036d70 f   LIBCMTD:utility_desktop.obj
 0001:00035e10       _guard_check_icall_nop     0000000180036e10 f i LIBCMTD:guard_support.obj
 0001:00035e20       ReadNoFence64              0000000180036e20 f i LIBCMTD:guard_support.obj
 0001:00035e40       ReadPointerNoFence         0000000180036e40 f i LIBCMTD:guard_support.obj
 0001:00035e60       _guard_icall_checks_enforced 0000000180036e60 f i LIBCMTD:guard_support.obj
 0001:00035ea0       _guard_rf_checks_enforced  0000000180036ea0 f i LIBCMTD:guard_support.obj
 0001:00035f70       __security_init_cookie     0000000180036f70 f   LIBCMTD:gs_support.obj
 0001:00035ff0       ?__scrt_initialize_type_info@@YAXXZ 0000000180036ff0 f   LIBCMTD:tncleanup.obj
 0001:00036010       ?__scrt_uninitialize_type_info@@YAXXZ 0000000180037010 f   LIBCMTD:tncleanup.obj
 0001:00036030       __local_stdio_scanf_options 0000000180037030 f i LIBCMTD:default_local_stdio_options.obj
 0001:00036040       __scrt_initialize_default_local_stdio_options 0000000180037040 f   LIBCMTD:default_local_stdio_options.obj
 0001:00036090       __scrt_get_dyn_tls_init_callback 0000000180037090 f   LIBCMTD:dyn_tls_init.obj
 0001:000360a0       _RTC_Initialize            00000001800370a0 f   LIBCMTD:initsect.obj
 0001:000360f0       _RTC_Terminate             00000001800370f0 f   LIBCMTD:initsect.obj
 0001:00036650       ?_RTC_GetSrcLine@@YAHPEAEPEA_WKPEAH1K@Z 0000000180037650 f   LIBCMTD:pdblkup.obj
 0001:00036a20       ??0bad_alloc@std@@AEAA@QEBD@Z 0000000180037a20 f i LIBCMTD:throw_bad_alloc.obj
 0001:00036a60       ??0bad_alloc@std@@QEAA@AEBV01@@Z 0000000180037a60 f i LIBCMTD:throw_bad_alloc.obj
 0001:00036aa0       ??0bad_alloc@std@@QEAA@XZ  0000000180037aa0 f i LIBCMTD:throw_bad_alloc.obj
 0001:00036ae0       ??0bad_array_new_length@std@@QEAA@AEBV01@@Z 0000000180037ae0 f i LIBCMTD:throw_bad_alloc.obj
 0001:00036b20       ??0bad_array_new_length@std@@QEAA@XZ 0000000180037b20 f i LIBCMTD:throw_bad_alloc.obj
 0001:00036b60       ??0exception@std@@QEAA@AEBV01@@Z 0000000180037b60 f i LIBCMTD:throw_bad_alloc.obj
 0001:00036bc0       ??0exception@std@@QEAA@QEBDH@Z 0000000180037bc0 f i LIBCMTD:throw_bad_alloc.obj
 0001:00036c10       ??1bad_alloc@std@@UEAA@XZ  0000000180037c10 f i LIBCMTD:throw_bad_alloc.obj
 0001:00036c30       ??1bad_array_new_length@std@@UEAA@XZ 0000000180037c30 f i LIBCMTD:throw_bad_alloc.obj
 0001:00036c50       ??1exception@std@@UEAA@XZ  0000000180037c50 f i LIBCMTD:throw_bad_alloc.obj
 0001:00036c80       ??_Ebad_alloc@std@@UEAAPEAXI@Z 0000000180037c80 f i LIBCMTD:throw_bad_alloc.obj
 0001:00036c80       ??_Gbad_alloc@std@@UEAAPEAXI@Z 0000000180037c80 f i LIBCMTD:throw_bad_alloc.obj
 0001:00036cc0       ??_Ebad_array_new_length@std@@UEAAPEAXI@Z 0000000180037cc0 f i LIBCMTD:throw_bad_alloc.obj
 0001:00036cc0       ??_Gbad_array_new_length@std@@UEAAPEAXI@Z 0000000180037cc0 f i LIBCMTD:throw_bad_alloc.obj
 0001:00036d00       ??_Gexception@std@@UEAAPEAXI@Z 0000000180037d00 f i LIBCMTD:throw_bad_alloc.obj
 0001:00036d00       ??_Eexception@std@@UEAAPEAXI@Z 0000000180037d00 f i LIBCMTD:throw_bad_alloc.obj
 0001:00036d40       ?__scrt_throw_std_bad_alloc@@YAXXZ 0000000180037d40 f   LIBCMTD:throw_bad_alloc.obj
 0001:00036d70       ?__scrt_throw_std_bad_array_new_length@@YAXXZ 0000000180037d70 f   LIBCMTD:throw_bad_alloc.obj
 0001:00036da0       ?what@exception@std@@UEBAPEBDXZ 0000000180037da0 f i LIBCMTD:throw_bad_alloc.obj
 0001:00036de0       ??1type_info@@UEAA@XZ      0000000180037de0 f   LIBCMTD:std_type_info_static.obj
 0001:00036e00       ??_Gtype_info@@UEAAPEAXI@Z 0000000180037e00 f i LIBCMTD:std_type_info_static.obj
 0001:00036e00       ??_Etype_info@@UEAAPEAXI@Z 0000000180037e00 f i LIBCMTD:std_type_info_static.obj
 0001:00036e3c       ??$?2PEAUHINSTANCE__@@@Wrapper@?$CSimpleArray@PEAUHINSTANCE__@@V?$CSimpleArrayEqualHelper@PEAUHINSTANCE__@@@ATL@@@ATL@@SAPEAX_KPEAPEAUHINSTANCE__@@@Z 0000000180037e3c f i atls:atlbase.obj
 0001:00036e40       ??0?$CSimpleArray@PEAUHINSTANCE__@@V?$CSimpleArrayEqualHelper@PEAUHINSTANCE__@@@ATL@@@ATL@@QEAA@XZ 0000000180037e40 f i atls:atlbase.obj
 0001:00036e50       ??0CAtlBaseModule@ATL@@QEAA@XZ 0000000180037e50 f   atls:atlbase.obj
 0001:00036ef8       ??0Wrapper@?$CSimpleArray@PEAUHINSTANCE__@@V?$CSimpleArrayEqualHelper@PEAUHINSTANCE__@@@ATL@@@ATL@@QEAA@AEBQEAUHINSTANCE__@@@Z 0000000180037ef8 f i atls:atlbase.obj
 0001:00036f04       ??0_ATL_BASE_MODULE70@ATL@@QEAA@XZ 0000000180037f04 f i atls:atlbase.obj
 0001:00036f30       ??1?$CSimpleArray@PEAUHINSTANCE__@@V?$CSimpleArrayEqualHelper@PEAUHINSTANCE__@@@ATL@@@ATL@@QEAA@XZ 0000000180037f30 f i atls:atlbase.obj
 0001:00036f58       ??1CAtlBaseModule@ATL@@QEAA@XZ 0000000180037f58 f   atls:atlbase.obj
 0001:00036f8c       ??1_ATL_BASE_MODULE70@ATL@@QEAA@XZ 0000000180037f8c f i atls:atlbase.obj
 0001:00036fb8       ??A?$CSimpleArray@PEAUHINSTANCE__@@V?$CSimpleArrayEqualHelper@PEAUHINSTANCE__@@@ATL@@@ATL@@QEAAAEAPEAUHINSTANCE__@@H@Z 0000000180037fb8 f i atls:atlbase.obj
 0001:00036fe4       ?Add@?$CSimpleArray@PEAUHINSTANCE__@@V?$CSimpleArrayEqualHelper@PEAUHINSTANCE__@@@ATL@@@ATL@@QEAAHAEBQEAUHINSTANCE__@@@Z 0000000180037fe4 f i atls:atlbase.obj
 0001:00037098       ?AddResourceInstance@CAtlBaseModule@ATL@@QEAA_NPEAUHINSTANCE__@@@Z 0000000180038098 f   atls:atlbase.obj
 0001:000370e0       ?GetHInstanceAt@CAtlBaseModule@ATL@@QEAAPEAUHINSTANCE__@@H@Z 00000001800380e0 f   atls:atlbase.obj
 0001:00037158       ?GetSize@?$CSimpleArray@PEAUHINSTANCE__@@V?$CSimpleArrayEqualHelper@PEAUHINSTANCE__@@@ATL@@@ATL@@QEBAHXZ 0000000180038158 f i atls:atlbase.obj
 0001:0003715c       ?InternalSetAtIndex@?$CSimpleArray@PEAUHINSTANCE__@@V?$CSimpleArrayEqualHelper@PEAUHINSTANCE__@@@ATL@@@ATL@@QEAAXHAEBQEAUHINSTANCE__@@@Z 000000018003815c f i atls:atlbase.obj
 0001:00037174       ?RemoveAll@?$CSimpleArray@PEAUHINSTANCE__@@V?$CSimpleArrayEqualHelper@PEAUHINSTANCE__@@@ATL@@@ATL@@QEAAXXZ 0000000180038174 f i atls:atlbase.obj
 0001:0003719c       ?RemoveAt@?$CSimpleArray@PEAUHINSTANCE__@@V?$CSimpleArrayEqualHelper@PEAUHINSTANCE__@@@ATL@@@ATL@@QEAAHH@Z 000000018003819c f i atls:atlbase.obj
 0001:00037240       ?RemoveResourceInstance@CAtlBaseModule@ATL@@QEAA_NPEAUHINSTANCE__@@@Z 0000000180038240 f   atls:atlbase.obj
 0001:000372c0       ?memmove_s@Checked@ATL@@YAXPEAX_KPEBX1@Z 00000001800382c0 f i atls:atlbase.obj
 0001:00037768       ?GetCodeAddress@_stdcallthunk@ATL@@QEAAPEAXXZ 0000000180038768 f i atls:atlthunk.obj
 0001:00037794       ?Init@_stdcallthunk@ATL@@QEAAH_KPEAX@Z 0000000180038794 f i atls:atlthunk.obj
 0001:000377e4       ?__AllocStdCallThunk@@YAPEAXXZ 00000001800387e4 f   atls:atlthunk.obj
 0001:000377ec       ?__AllocStdCallThunk@ATL@@YAPEAXXZ 00000001800387ec f   atls:atlthunk.obj
 0001:000377f4       ?__AllocStdCallThunk_cmn@@YAPEAXXZ 00000001800387f4 f   atls:atlthunk.obj
 0001:000378cc       ?__FreeStdCallThunk@@YAXPEAX@Z 00000001800388cc f   atls:atlthunk.obj
 0001:000378ec       ?__FreeStdCallThunk@ATL@@YAXPEAX@Z 00000001800388ec f   atls:atlthunk.obj
 0001:0003790c       ?__FreeStdCallThunk_cmn@@YAXPEAX@Z 000000018003890c f   atls:atlthunk.obj
 0001:000379ac       AtlThunk_AllocateData      00000001800389ac f   atls:atlthunk.obj
 0001:00037a28       AtlThunk_DataToCode        0000000180038a28 f   atls:atlthunk.obj
 0001:00037a7c       AtlThunk_FreeData          0000000180038a7c f   atls:atlthunk.obj
 0001:00037adc       AtlThunk_InitData          0000000180038adc f   atls:atlthunk.obj
 0001:00037ba0       memset_repmovs             0000000180038ba0 f   libvcruntimed:memset.obj
 0001:00037bc0       memset                     0000000180038bc0 f   libvcruntimed:memset.obj
 0001:00037d50       ??$__crt_interlocked_exchange_pointer@$$A6AXXZP6AXXZ@@YAP6AXXZPEDS6AXXZQ6AXXZ@Z 0000000180038d50 f i libvcruntimed:purevirt.obj
 0001:00037d70       ??$__crt_interlocked_read_pointer@$$A6AXXZ@@YAP6AXXZPEDS6AXXZ@Z 0000000180038d70 f i libvcruntimed:purevirt.obj
 0001:00037d90       ?__crt_interlocked_read_64@@YA_JPED_J@Z 0000000180038d90 f i libvcruntimed:purevirt.obj
 0001:00037db0       _get_purecall_handler      0000000180038db0 f   libvcruntimed:purevirt.obj
 0001:00037dd0       _purecall                  0000000180038dd0 f   libvcruntimed:purevirt.obj
 0001:00037e10       _set_purecall_handler      0000000180038e10 f   libvcruntimed:purevirt.obj
 0001:00037e40       memcmp                     0000000180038e40 f   libvcruntimed:memcmp.obj
 0001:00037f20       memcpy_repmovs             0000000180038f20 f   libvcruntimed:memcpy.obj
 0001:00037f40       memmove                    0000000180038f40 f   libvcruntimed:memcpy.obj
 0001:00037f40       memcpy                     0000000180038f40 f   libvcruntimed:memcpy.obj
 0001:00038320       wcsstr                     0000000180039320 f   libvcruntimed:wcsstr.obj
 0001:00038980       __vcrt_initialize          0000000180039980 f   libvcruntimed:initialization.obj
 0001:000389c0       __vcrt_thread_attach       00000001800399c0 f   libvcruntimed:initialization.obj
 0001:000389e0       __vcrt_thread_detach       00000001800399e0 f   libvcruntimed:initialization.obj
 0001:00038a00       __vcrt_uninitialize        0000000180039a00 f   libvcruntimed:initialization.obj
 0001:00038a20       __vcrt_uninitialize_critical 0000000180039a20 f   libvcruntimed:initialization.obj
 0001:00038a40       __C_specific_handler       0000000180039a40 f   libvcruntimed:riscchandler.obj
 0001:00038eb0       ??$?0AEAViterator@TryBlockMap4@FH4@@AEAV012@$0A@@?$pair@Viterator@TryBlockMap4@FH4@@V123@@std@@QEAA@AEAViterator@TryBlockMap4@FH4@@0@Z 0000000180039eb0 f i libvcruntimed:risctrnsctrl.obj
 0001:00038f10       ??$?0AEAViterator@TryBlockMap@__FrameHandler3@@AEAV012@$0A@@?$pair@Viterator@TryBlockMap@__FrameHandler3@@V123@@std@@QEAA@AEAViterator@TryBlockMap@__FrameHandler3@@0@Z 0000000180039f10 f i libvcruntimed:risctrnsctrl.obj
 0001:000390e0       ??$_CallSETranslator@V__FrameHandler3@@@@YAHPEAUEHExceptionRecord@@PEA_KPEAU_CONTEXT@@PEAU_xDISPATCHER_CONTEXT@@PEBU_s_FuncInfo@@K1H@Z 000000018003a0e0 f i libvcruntimed:risctrnsctrl.obj
 0001:00039170       ??$_CallSETranslator@V__FrameHandler4@@@@YAHPEAUEHExceptionRecord@@PEA_KPEAU_CONTEXT@@PEAU_xDISPATCHER_CONTEXT@@PEAUFuncInfo4@FH4@@K1H@Z 000000018003a170 f i libvcruntimed:risctrnsctrl.obj
 0001:00039200       ??$forward@AEAViterator@TryBlockMap4@FH4@@@std@@YAAEAViterator@TryBlockMap4@FH4@@AEAV123@@Z 000000018003a200 f i libvcruntimed:risctrnsctrl.obj
 0001:00039210       ??$forward@AEAViterator@TryBlockMap@__FrameHandler3@@@std@@YAAEAViterator@TryBlockMap@__FrameHandler3@@AEAV123@@Z 000000018003a210 f i libvcruntimed:risctrnsctrl.obj
 0001:00039220       ??0FuncInfo4@FH4@@QEAA@XZ  000000018003a220 f i libvcruntimed:risctrnsctrl.obj
 0001:00039290       ??0FuncInfoHeader@FH4@@QEAA@XZ 000000018003a290 f i libvcruntimed:risctrnsctrl.obj
 0001:000392b0       ??0iterator@TryBlockMap4@FH4@@QEAA@AEAV12@I@Z 000000018003a2b0 f i libvcruntimed:risctrnsctrl.obj
 0001:000392e0       ??0iterator@TryBlockMap@__FrameHandler3@@QEAA@AEAV12@I@Z 000000018003a2e0 f i libvcruntimed:risctrnsctrl.obj
 0001:00039310       ??4iterator@TryBlockMap4@FH4@@QEAAAEAV012@AEBV012@@Z 000000018003a310 f i libvcruntimed:risctrnsctrl.obj
 0001:00039330       ??9iterator@TryBlockMap4@FH4@@QEBA_NAEBV012@@Z 000000018003a330 f i libvcruntimed:risctrnsctrl.obj
 0001:00039370       ??Diterator@TryBlockMap4@FH4@@QEAA?AUTryBlockMapEntry4@2@XZ 000000018003a370 f i libvcruntimed:risctrnsctrl.obj
 0001:000393a0       ??Eiterator@TryBlockMap4@FH4@@QEAAAEAV012@XZ 000000018003a3a0 f i libvcruntimed:risctrnsctrl.obj
 0001:000393e0       ?CatchTryBlock@__FrameHandler3@@SAPEBU_s_TryBlockMapEntry@@PEBU_s_FuncInfo@@H@Z 000000018003a3e0 f   libvcruntimed:risctrnsctrl.obj
 0001:00039470       ?DecompFuncInfo@FH4@@YA_JPEAEAEAUFuncInfo4@1@_KH@Z 000000018003a470 f i libvcruntimed:risctrnsctrl.obj
 0001:000394b0       ?DecompFuncInfo@FH4@@YA_JPEAEAEAUFuncInfo4@1@_KH_N@Z 000000018003a4b0 f i libvcruntimed:risctrnsctrl.obj
 0001:00039680       ?DecompTryBlock@TryBlockMap4@FH4@@AEAAXXZ 000000018003a680 f i libvcruntimed:risctrnsctrl.obj
 0001:00039700       ?ExecutionInCatch@__FrameHandler3@@SA_NPEAU_xDISPATCHER_CONTEXT@@PEBU_s_FuncInfo@@@Z 000000018003a700 f   libvcruntimed:risctrnsctrl.obj
 0001:00039750       ?ExecutionInCatch@__FrameHandler4@@SA_NPEAU_xDISPATCHER_CONTEXT@@PEAUFuncInfo4@FH4@@@Z 000000018003a750 f   libvcruntimed:risctrnsctrl.obj
 0001:00039770       ?FrameUnwindToEmptyState@__FrameHandler3@@SAXPEA_KPEAU_xDISPATCHER_CONTEXT@@PEBU_s_FuncInfo@@@Z 000000018003a770 f   libvcruntimed:risctrnsctrl.obj
 0001:00039810       ?FrameUnwindToEmptyState@__FrameHandler4@@SAXPEA_KPEAU_xDISPATCHER_CONTEXT@@PEAUFuncInfo4@FH4@@@Z 000000018003a810 f   libvcruntimed:risctrnsctrl.obj
 0001:00039860       ?GetEstablisherFrame@__FrameHandler3@@SAPEA_KPEA_KPEAU_xDISPATCHER_CONTEXT@@PEBU_s_FuncInfo@@0@Z 000000018003a860 f   libvcruntimed:risctrnsctrl.obj
 0001:000399d0       ?GetEstablisherFrame@__FrameHandler4@@SAPEA_KPEA_KPEAU_xDISPATCHER_CONTEXT@@PEAUFuncInfo4@FH4@@0@Z 000000018003a9d0 f   libvcruntimed:risctrnsctrl.obj
 0001:00039a40       ?GetRangeOfTrysToCheck@__FrameHandler3@@SA?AU?$pair@Viterator@TryBlockMap@__FrameHandler3@@V123@@std@@AEAVTryBlockMap@1@HPEAU_xDISPATCHER_CONTEXT@@PEBU_s_FuncInfo@@H@Z 000000018003aa40 f   libvcruntimed:risctrnsctrl.obj
 0001:00039c80       ?GetRangeOfTrysToCheck@__FrameHandler4@@SA?AU?$pair@Viterator@TryBlockMap4@FH4@@V123@@std@@AEAVTryBlockMap4@FH4@@HPEAU_xDISPATCHER_CONTEXT@@PEAUFuncInfo4@5@H@Z 000000018003ac80 f   libvcruntimed:risctrnsctrl.obj
 0001:00039e30       ?ReadInt@FH4@@YAHPEAPEAE@Z 000000018003ae30 f i libvcruntimed:risctrnsctrl.obj
 0001:00039e70       ?ReadUnsigned@FH4@@YAIPEAPEAE@Z 000000018003ae70 f i libvcruntimed:risctrnsctrl.obj
 0001:00039f00       ?UnwindNestedFrames@__FrameHandler3@@SAXPEA_KPEAUEHExceptionRecord@@PEAU_CONTEXT@@0PEAXPEBU_s_FuncInfo@@HHPEBU_s_HandlerType@@PEAU_xDISPATCHER_CONTEXT@@E@Z 000000018003af00 f   libvcruntimed:risctrnsctrl.obj
 0001:0003a070       ?UnwindNestedFrames@__FrameHandler4@@SAXPEA_KPEAUEHExceptionRecord@@PEAU_CONTEXT@@0PEAXPEAUFuncInfo4@FH4@@HHPEAUHandlerType4@5@PEAU_xDISPATCHER_CONTEXT@@E@Z 000000018003b070 f   libvcruntimed:risctrnsctrl.obj
 0001:0003a240       ?begin@TryBlockMap4@FH4@@QEAA?AViterator@12@XZ 000000018003b240 f i libvcruntimed:risctrnsctrl.obj
 0001:0003a270       ?end@TryBlockMap4@FH4@@QEAA?AViterator@12@XZ 000000018003b270 f i libvcruntimed:risctrnsctrl.obj
 0001:0003a2a0       ?imageRelToByteBuffer@FH4@@YAPEAE_KH@Z 000000018003b2a0 f i libvcruntimed:risctrnsctrl.obj
 0001:0003a2c0       ?incrementToSentinel@iterator@TryBlockMap4@FH4@@QEAAXXZ 000000018003b2c0 f i libvcruntimed:risctrnsctrl.obj
 0001:0003a2e0       ?setBuffer@TryBlockMap4@FH4@@QEAAXViterator@12@@Z 000000018003b2e0 f i libvcruntimed:risctrnsctrl.obj
 0001:0003a350       _CreateFrameInfo           000000018003b350 f   libvcruntimed:risctrnsctrl.obj
 0001:0003a3c0       _FindAndUnlinkFrame        000000018003b3c0 f   libvcruntimed:risctrnsctrl.obj
 0001:0003a440       _GetImageBase              000000018003b440 f   libvcruntimed:risctrnsctrl.obj
 0001:0003a460       _GetThrowImageBase         000000018003b460 f   libvcruntimed:risctrnsctrl.obj
 0001:0003a480       _SetImageBase              000000018003b480 f   libvcruntimed:risctrnsctrl.obj
 0001:0003a4a0       _SetThrowImageBase         000000018003b4a0 f   libvcruntimed:risctrnsctrl.obj
 0001:0003a4c0       __CxxFrameHandler          000000018003b4c0 f   libvcruntimed:risctrnsctrl.obj
 0001:0003a500       __CxxFrameHandler2         000000018003b500 f   libvcruntimed:risctrnsctrl.obj
 0001:0003a540       __CxxFrameHandler3         000000018003b540 f   libvcruntimed:risctrnsctrl.obj
 0001:0003a620       __CxxFrameHandler4         000000018003b620 f   libvcruntimed:risctrnsctrl.obj
 0001:0003a730       __C_specific_handler_noexcept 000000018003b730 f   libvcruntimed:chandler_noexcept.obj
 0001:0003a7c0       __DestructExceptionObject  000000018003b7c0 f   libvcruntimed:ehhelpers.obj
 0001:0003a8c0       ?_CallMemberFunction0@@YAXQEAX0@Z 000000018003b8c0 f i libvcruntimed:ehhelpers.obj
 0001:0003a990       ?raw_name@type_info@@QEBAPEBDXZ 000000018003b990 f i libvcruntimed:ehhelpers.obj
 0001:0003a9a0       _IsExceptionObjectToBeDestroyed 000000018003b9a0 f   libvcruntimed:ehhelpers.obj
 0001:0003a9f0       _SetWinRTOutOfMemoryExceptionCallback 000000018003b9f0 f   libvcruntimed:ehhelpers.obj
 0001:0003aa10       __AdjustPointer            000000018003ba10 f   libvcruntimed:ehhelpers.obj
 0001:0003aa90       __FrameUnwindFilter        000000018003ba90 f   libvcruntimed:ehhelpers.obj
 0001:0003ab40       __GetPlatformExceptionInfo 000000018003bb40 f   libvcruntimed:ehhelpers.obj
 0001:0003abf0       __current_exception        000000018003bbf0 f   libvcruntimed:ehhelpers.obj
 0001:0003ac10       __current_exception_context 000000018003bc10 f   libvcruntimed:ehhelpers.obj
 0001:0003ac30       __processing_throw         000000018003bc30 f   libvcruntimed:ehhelpers.obj
 0001:0003ac50       __std_terminate            000000018003bc50 f   libvcruntimed:ehhelpers.obj
 0001:0003ac60       _is_exception_typeof       000000018003bc60 f   libvcruntimed:ehhelpers.obj
 0001:0003adf0       ??$?RD@__crt_internal_free_policy@@QEBAXQEBD@Z 000000018003bdf0 f i libvcruntimed:std_type_info.obj
 0001:0003ae20       ??$?RX@__crt_internal_free_policy@@QEBAXQEBX@Z 000000018003be20 f i libvcruntimed:std_type_info.obj
 0001:0003ae50       ??$__crt_interlocked_compare_exchange_pointer@$$CBDPEAD$$T@@YAPEBDPEDSEBDQEAD$$T@Z 000000018003be50 f i libvcruntimed:std_type_info.obj
 0001:0003ae90       ??$__crt_interlocked_read_pointer@$$CBD@@YAPEBDPEDSEBD@Z 000000018003be90 f i libvcruntimed:std_type_info.obj
 0001:0003aeb0       ??0?$__crt_unique_heap_ptr@DU__crt_internal_free_policy@@@@QEAA@QEAD@Z 000000018003beb0 f i libvcruntimed:std_type_info.obj
 0001:0003aed0       ??0?$__crt_unique_heap_ptr@XU__crt_internal_free_policy@@@@QEAA@QEAX@Z 000000018003bed0 f i libvcruntimed:std_type_info.obj
 0001:0003aef0       ??1?$__crt_unique_heap_ptr@DU__crt_internal_free_policy@@@@QEAA@XZ 000000018003bef0 f i libvcruntimed:std_type_info.obj
 0001:0003af10       ??1?$__crt_unique_heap_ptr@XU__crt_internal_free_policy@@@@QEAA@XZ 000000018003bf10 f i libvcruntimed:std_type_info.obj
 0001:0003af30       ??B?$__crt_unique_heap_ptr@DU__crt_internal_free_policy@@@@QEBA_NXZ 000000018003bf30 f i libvcruntimed:std_type_info.obj
 0001:0003af50       ??B?$__crt_unique_heap_ptr@XU__crt_internal_free_policy@@@@QEBA_NXZ 000000018003bf50 f i libvcruntimed:std_type_info.obj
 0001:0003aff0       ?detach@?$__crt_unique_heap_ptr@XU__crt_internal_free_policy@@@@QEAAPEAXXZ 000000018003bff0 f i libvcruntimed:std_type_info.obj
 0001:0003b020       ?get@?$__crt_unique_heap_ptr@DU__crt_internal_free_policy@@@@QEBAPEADXZ 000000018003c020 f i libvcruntimed:std_type_info.obj
 0001:0003b030       ?get@?$__crt_unique_heap_ptr@XU__crt_internal_free_policy@@@@QEBAPEAXXZ 000000018003c030 f i libvcruntimed:std_type_info.obj
 0001:0003b040       ?is_valid@?$__crt_unique_heap_ptr@DU__crt_internal_free_policy@@@@QEBA_NXZ 000000018003c040 f i libvcruntimed:std_type_info.obj
 0001:0003b070       ?is_valid@?$__crt_unique_heap_ptr@XU__crt_internal_free_policy@@@@QEBA_NXZ 000000018003c070 f i libvcruntimed:std_type_info.obj
 0001:0003b0a0       ?release@?$__crt_unique_heap_ptr@DU__crt_internal_free_policy@@@@QEAAXXZ 000000018003c0a0 f i libvcruntimed:std_type_info.obj
 0001:0003b0d0       ?release@?$__crt_unique_heap_ptr@XU__crt_internal_free_policy@@@@QEAAXXZ 000000018003c0d0 f i libvcruntimed:std_type_info.obj
 0001:0003b100       __std_type_info_compare    000000018003c100 f   libvcruntimed:std_type_info.obj
 0001:0003b140       __std_type_info_destroy_list 000000018003c140 f   libvcruntimed:std_type_info.obj
 0001:0003b1a0       __std_type_info_hash       000000018003c1a0 f   libvcruntimed:std_type_info.obj
 0001:0003b250       __std_type_info_name       000000018003c250 f   libvcruntimed:std_type_info.obj
 0001:0003b500       __vcrt_GetModuleFileNameW  000000018003c500 f   libvcruntimed:winapi_thunks.obj
 0001:0003b530       __vcrt_GetModuleHandleW    000000018003c530 f   libvcruntimed:winapi_thunks.obj
 0001:0003b550       __vcrt_LoadLibraryExW      000000018003c550 f   libvcruntimed:winapi_thunks.obj
 0001:0003b580       ??$?RD@__crt_public_free_policy@@QEBAXQEBD@Z 000000018003c580 f i libvcruntimed:std_exception.obj
 0001:0003b5a0       ??0?$__crt_unique_heap_ptr@DU__crt_public_free_policy@@@@QEAA@QEAD@Z 000000018003c5a0 f i libvcruntimed:std_exception.obj
 0001:0003b5c0       ??1?$__crt_unique_heap_ptr@DU__crt_public_free_policy@@@@QEAA@XZ 000000018003c5c0 f i libvcruntimed:std_exception.obj
 0001:0003b5e0       ??B?$__crt_unique_heap_ptr@DU__crt_public_free_policy@@@@QEBA_NXZ 000000018003c5e0 f i libvcruntimed:std_exception.obj
 0001:0003b600       ?detach@?$__crt_unique_heap_ptr@DU__crt_public_free_policy@@@@QEAAPEADXZ 000000018003c600 f i libvcruntimed:std_exception.obj
 0001:0003b630       ?get@?$__crt_unique_heap_ptr@DU__crt_public_free_policy@@@@QEBAPEADXZ 000000018003c630 f i libvcruntimed:std_exception.obj
 0001:0003b640       ?is_valid@?$__crt_unique_heap_ptr@DU__crt_public_free_policy@@@@QEBA_NXZ 000000018003c640 f i libvcruntimed:std_exception.obj
 0001:0003b670       ?release@?$__crt_unique_heap_ptr@DU__crt_public_free_policy@@@@QEAAXXZ 000000018003c670 f i libvcruntimed:std_exception.obj
 0001:0003b6a0       __std_exception_copy       000000018003c6a0 f   libvcruntimed:std_exception.obj
 0001:0003b7e0       __std_exception_destroy    000000018003c7e0 f   libvcruntimed:std_exception.obj
 0001:0003b820       _CxxThrowException         000000018003c820 f   libvcruntimed:throw.obj
 0001:0003b950       ??$?RU__vcrt_ptd@@@__crt_internal_free_policy@@QEBAXQEBU__vcrt_ptd@@@Z 000000018003c950 f i libvcruntimed:per_thread_data.obj
 0001:0003b980       ??0?$__crt_unique_heap_ptr@U__vcrt_ptd@@U__crt_internal_free_policy@@@@QEAA@QEAU__vcrt_ptd@@@Z 000000018003c980 f i libvcruntimed:per_thread_data.obj
 0001:0003b9c0       ??1?$__crt_unique_heap_ptr@U__vcrt_ptd@@U__crt_internal_free_policy@@@@QEAA@XZ 000000018003c9c0 f i libvcruntimed:per_thread_data.obj
 0001:0003ba00       ??B?$__crt_unique_heap_ptr@U__vcrt_ptd@@U__crt_internal_free_policy@@@@QEBA_NXZ 000000018003ca00 f i libvcruntimed:per_thread_data.obj
 0001:0003ba20       ?detach@?$__crt_unique_heap_ptr@U__vcrt_ptd@@U__crt_internal_free_policy@@@@QEAAPEAU__vcrt_ptd@@XZ 000000018003ca20 f i libvcruntimed:per_thread_data.obj
 0001:0003ba50       ?get@?$__crt_unique_heap_ptr@U__vcrt_ptd@@U__crt_internal_free_policy@@@@QEBAPEAU__vcrt_ptd@@XZ 000000018003ca50 f i libvcruntimed:per_thread_data.obj
 0001:0003ba60       ?is_valid@?$__crt_unique_heap_ptr@U__vcrt_ptd@@U__crt_internal_free_policy@@@@QEBA_NXZ 000000018003ca60 f i libvcruntimed:per_thread_data.obj
 0001:0003ba90       ?release@?$__crt_unique_heap_ptr@U__vcrt_ptd@@U__crt_internal_free_policy@@@@QEAAXXZ 000000018003ca90 f i libvcruntimed:per_thread_data.obj
 0001:0003bb00       __vcrt_freefls             000000018003cb00 f   libvcruntimed:per_thread_data.obj
 0001:0003bb40       __vcrt_freeptd             000000018003cb40 f   libvcruntimed:per_thread_data.obj
 0001:0003bba0       __vcrt_getptd              000000018003cba0 f   libvcruntimed:per_thread_data.obj
 0001:0003bbd0       __vcrt_getptd_noexit       000000018003cbd0 f   libvcruntimed:per_thread_data.obj
 0001:0003bd70       __vcrt_getptd_noinit       000000018003cd70 f   libvcruntimed:per_thread_data.obj
 0001:0003bdd0       __vcrt_initialize_ptd      000000018003cdd0 f   libvcruntimed:per_thread_data.obj
 0001:0003be20       __vcrt_uninitialize_ptd    000000018003ce20 f   libvcruntimed:per_thread_data.obj
 0001:0003be50       __vcrt_initialize_locks    000000018003ce50 f   libvcruntimed:locks.obj
 0001:0003bec0       __vcrt_lock                000000018003cec0 f   libvcruntimed:locks.obj
 0001:0003bef0       __vcrt_uninitialize_locks  000000018003cef0 f   libvcruntimed:locks.obj
 0001:0003bf50       __vcrt_unlock              000000018003cf50 f   libvcruntimed:locks.obj
 0001:0003bf90       _NLG_Notify                000000018003cf90 f   libvcruntimed:notify.obj
 0001:0003bfb0       __NLG_Dispatch2            000000018003cfb0 f   libvcruntimed:notify.obj
 0001:0003bfc0       __NLG_Return2              000000018003cfc0 f   libvcruntimed:notify.obj
 0001:0003bfe0       __except_validate_context_record 000000018003cfe0 f   libvcruntimed:jbcxrval.obj
 0001:0003c040       __except_validate_jump_buffer 000000018003d040 f   libvcruntimed:jbcxrval.obj
 0001:0003c060       __except_validate_jump_buffer_common 000000018003d060 f i libvcruntimed:jbcxrval.obj
 0001:0003c0e0       ?GetCurrentState@__FrameHandler3@@SAHPEA_KPEAU_xDISPATCHER_CONTEXT@@PEBU_s_FuncInfo@@@Z 000000018003d0e0 f   libvcruntimed:ehstate.obj
 0001:0003c140       ?GetUnwindTryBlock@__FrameHandler3@@SAHPEA_KPEAU_xDISPATCHER_CONTEXT@@PEBU_s_FuncInfo@@@Z 000000018003d140 f   libvcruntimed:ehstate.obj
 0001:0003c190       ?SetState@__FrameHandler3@@SAXPEA_KPEBU_s_FuncInfo@@H@Z 000000018003d190 f   libvcruntimed:ehstate.obj
 0001:0003c1c0       ?SetUnwindTryBlock@__FrameHandler3@@SAXPEA_KPEAU_xDISPATCHER_CONTEXT@@PEBU_s_FuncInfo@@H@Z 000000018003d1c0 f   libvcruntimed:ehstate.obj
 0001:0003c230       ?StateFromControlPc@__FrameHandler3@@SAHPEBU_s_FuncInfo@@PEAU_xDISPATCHER_CONTEXT@@@Z 000000018003d230 f   libvcruntimed:ehstate.obj
 0001:0003c270       ?StateFromControlPc@__FrameHandler4@@SAHPEAUFuncInfo4@FH4@@PEAU_xDISPATCHER_CONTEXT@@@Z 000000018003d270 f   libvcruntimed:ehstate.obj
 0001:0003c2b0       ?StateFromIp@__FrameHandler3@@SAHPEBU_s_FuncInfo@@PEAU_xDISPATCHER_CONTEXT@@_K@Z 000000018003d2b0 f   libvcruntimed:ehstate.obj
 0001:0003c3a0       ?StateFromIp@__FrameHandler4@@SAHPEAUFuncInfo4@FH4@@PEAU_xDISPATCHER_CONTEXT@@_K@Z 000000018003d3a0 f   libvcruntimed:ehstate.obj
 0001:0003c490       ?__FuncRelToRealOffset@@YA_KPEAU_xDISPATCHER_CONTEXT@@I@Z 000000018003d490 f i libvcruntimed:ehstate.obj
 0001:0003c4c0       ?__RVAtoRealOffset@@YA_KPEAU_xDISPATCHER_CONTEXT@@H@Z 000000018003d4c0 f i libvcruntimed:ehstate.obj
 0001:0003e740       ??$TypeMatchHelper@V__FrameHandler3@@@@YAHPEBU_s_HandlerType@@PEBU_s_CatchableType@@PEBU_s_ThrowInfo@@@Z 000000018003f740 f i libvcruntimed:frame.obj
 0001:0003e940       ??$TypeMatchHelper@V__FrameHandler4@@@@YAHPEAUHandlerType4@FH4@@PEBU_s_CatchableType@@PEBU_s_ThrowInfo@@@Z 000000018003f940 f i libvcruntimed:frame.obj
 0001:0003eb50       ??$__InternalCxxFrameHandler@V__FrameHandler3@@@@YA?AW4_EXCEPTION_DISPOSITION@@PEAUEHExceptionRecord@@PEA_KPEAU_CONTEXT@@PEAU_xDISPATCHER_CONTEXT@@PEBU_s_FuncInfo@@H1E@Z 000000018003fb50 f i libvcruntimed:frame.obj
 0001:0003efc0       ??$__InternalCxxFrameHandler@V__FrameHandler4@@@@YA?AW4_EXCEPTION_DISPOSITION@@PEAUEHExceptionRecord@@PEA_KPEAU_CONTEXT@@PEAU_xDISPATCHER_CONTEXT@@PEAUFuncInfo4@FH4@@H1E@Z 000000018003ffc0 f i libvcruntimed:frame.obj
 0001:0003f450       ??0HandlerMap4@FH4@@QEAA@PEBUTryBlockMapEntry4@1@_KH@Z 0000000180040450 f i libvcruntimed:frame.obj
 0001:0003f510       ??0HandlerMap@__FrameHandler3@@QEAA@PEBU_s_TryBlockMapEntry@@_KI@Z 0000000180040510 f i libvcruntimed:frame.obj
 0001:0003f560       ??0HandlerType4@FH4@@QEAA@XZ 0000000180040560 f i libvcruntimed:frame.obj
 0001:0003f580       ??0TryBlockMap4@FH4@@QEAA@PEBUFuncInfo4@1@_K@Z 0000000180040580 f i libvcruntimed:frame.obj
 0001:0003f610       ??0TryBlockMap@__FrameHandler3@@QEAA@PEBU_s_FuncInfo@@_K@Z 0000000180040610 f i libvcruntimed:frame.obj
 0001:0003f640       ??0UWMap4@FH4@@QEAA@PEBUFuncInfo4@1@_K@Z 0000000180040640 f i libvcruntimed:frame.obj
 0001:0003f6b0       ??0bad_exception@std@@QEAA@AEBV01@@Z 00000001800406b0 f i libvcruntimed:frame.obj
 0001:0003f6f0       ??0bad_exception@std@@QEAA@XZ 00000001800406f0 f i libvcruntimed:frame.obj
 0001:0003f730       ??0iterator@HandlerMap4@FH4@@QEAA@AEAV12@I@Z 0000000180040730 f i libvcruntimed:frame.obj
 0001:0003f760       ??0iterator@HandlerMap@__FrameHandler3@@QEAA@AEAV12@I@Z 0000000180040760 f i libvcruntimed:frame.obj
 0001:0003f790       ??0iterator@UWMap4@FH4@@QEAA@AEAV12@PEAE@Z 0000000180040790 f i libvcruntimed:frame.obj
 0001:0003f7c0       ??1bad_exception@std@@UEAA@XZ 00000001800407c0 f i libvcruntimed:frame.obj
 0001:0003f7e0       ??4iterator@UWMap4@FH4@@QEAAAEAV012@AEBV012@@Z 00000001800407e0 f i libvcruntimed:frame.obj
 0001:0003f830       ??8iterator@HandlerMap4@FH4@@QEBA_NAEBV012@@Z 0000000180040830 f i libvcruntimed:frame.obj
 0001:0003f870       ??8iterator@HandlerMap@__FrameHandler3@@QEBA_NAEBV012@@Z 0000000180040870 f i libvcruntimed:frame.obj
 0001:0003f8b0       ??8type_info@@QEBA_NAEBV0@@Z 00000001800408b0 f i libvcruntimed:frame.obj
 0001:0003f900       ??9iterator@HandlerMap4@FH4@@QEBA_NAEBV012@@Z 0000000180040900 f i libvcruntimed:frame.obj
 0001:0003f940       ??9iterator@HandlerMap@__FrameHandler3@@QEBA_NAEBV012@@Z 0000000180040940 f i libvcruntimed:frame.obj
 0001:0003f980       ??Diterator@HandlerMap4@FH4@@QEAA?AUHandlerType4@2@XZ 0000000180040980 f i libvcruntimed:frame.obj
 0001:0003f9b0       ??Diterator@HandlerMap@__FrameHandler3@@QEAA?BU_s_HandlerType@@XZ 00000001800409b0 f i libvcruntimed:frame.obj
 0001:0003f9f0       ??Diterator@TryBlockMap@__FrameHandler3@@QEAA?BU_s_TryBlockMapEntry@@XZ 00000001800409f0 f i libvcruntimed:frame.obj
 0001:0003fa40       ??Diterator@UWMap4@FH4@@QEAA?AUUnwindMapEntry4@2@XZ 0000000180040a40 f i libvcruntimed:frame.obj
 0001:0003fac0       ??Eiterator@HandlerMap4@FH4@@QEAAAEAV012@XZ 0000000180040ac0 f i libvcruntimed:frame.obj
 0001:0003fb00       ??Eiterator@HandlerMap@__FrameHandler3@@QEAAAEAV012@XZ 0000000180040b00 f i libvcruntimed:frame.obj
 0001:0003fb20       ??Eiterator@TryBlockMap@__FrameHandler3@@QEAAAEAV012@XZ 0000000180040b20 f i libvcruntimed:frame.obj
 0001:0003fb40       ??Eiterator@UWMap4@FH4@@QEAAAEAV012@XZ 0000000180040b40 f i libvcruntimed:frame.obj
 0001:0003fb80       ??Giterator@UWMap4@FH4@@QEBA_JAEBV012@@Z 0000000180040b80 f i libvcruntimed:frame.obj
 0001:0003fba0       ??Miterator@TryBlockMap4@FH4@@QEBA_NAEBV012@@Z 0000000180040ba0 f i libvcruntimed:frame.obj
 0001:0003fbe0       ??Miterator@TryBlockMap@__FrameHandler3@@QEBA_NAEBV012@@Z 0000000180040be0 f i libvcruntimed:frame.obj
 0001:0003fc20       ??Oiterator@UWMap4@FH4@@QEBA_NAEBV012@@Z 0000000180040c20 f i libvcruntimed:frame.obj
 0001:0003fc60       ??Piterator@UWMap4@FH4@@QEBA_NAEBV012@@Z 0000000180040c60 f i libvcruntimed:frame.obj
 0001:0003fca0       ??_Ebad_exception@std@@UEAAPEAXI@Z 0000000180040ca0 f i libvcruntimed:frame.obj
 0001:0003fca0       ??_Gbad_exception@std@@UEAAPEAXI@Z 0000000180040ca0 f i libvcruntimed:frame.obj
 0001:0003fce0       ?BuildCatchObject@__FrameHandler3@@SAXPEAUEHExceptionRecord@@PEAXPEBU_s_HandlerType@@PEBU_s_CatchableType@@@Z 0000000180040ce0 f   libvcruntimed:frame.obj
 0001:0003fd20       ?BuildCatchObject@__FrameHandler4@@SAXPEAUEHExceptionRecord@@PEAXPEAUHandlerType4@FH4@@PEBU_s_CatchableType@@@Z 0000000180040d20 f   libvcruntimed:frame.obj
 0001:0003fd60       ?BuildCatchObjectHelper@__FrameHandler3@@SAHPEAUEHExceptionRecord@@PEAXPEBU_s_HandlerType@@PEBU_s_CatchableType@@@Z 0000000180040d60 f   libvcruntimed:frame.obj
 0001:0003fda0       ?BuildCatchObjectHelper@__FrameHandler4@@SAHPEAUEHExceptionRecord@@PEAXPEAUHandlerType4@FH4@@PEBU_s_CatchableType@@@Z 0000000180040da0 f   libvcruntimed:frame.obj
 0001:0003fde0       ?CxxCallCatchBlock@__FrameHandler3@@SAPEAXPEAU_EXCEPTION_RECORD@@@Z 0000000180040de0 f   libvcruntimed:frame.obj
 0001:00040040       ?CxxCallCatchBlock@__FrameHandler4@@SAPEAXPEAU_EXCEPTION_RECORD@@@Z 0000000180041040 f   libvcruntimed:frame.obj
 0001:00040370       ?DecompHandler@HandlerMap4@FH4@@AEAAXXZ 0000000180041370 f i libvcruntimed:frame.obj
 0001:00040740       ?FrameUnwindToState@__FrameHandler3@@SAXPEA_KPEAU_xDISPATCHER_CONTEXT@@PEBU_s_FuncInfo@@H@Z 0000000180041740 f   libvcruntimed:frame.obj
 0001:00040990       ?FrameUnwindToState@__FrameHandler4@@SAXPEA_KPEAU_xDISPATCHER_CONTEXT@@PEAUFuncInfo4@FH4@@H@Z 0000000180041990 f   libvcruntimed:frame.obj
 0001:00040ca0       ?GetHandlerSearchState@__FrameHandler3@@SAHPEA_KPEAU_xDISPATCHER_CONTEXT@@PEBU_s_FuncInfo@@@Z 0000000180041ca0 f i libvcruntimed:frame.obj
 0001:00040d50       ?GetHandlerSearchState@__FrameHandler4@@SAHPEA_KPEAU_xDISPATCHER_CONTEXT@@PEAUFuncInfo4@FH4@@@Z 0000000180041d50 f i libvcruntimed:frame.obj
 0001:00040dd0       ?GetMaxState@__FrameHandler3@@SAHPEAU_xDISPATCHER_CONTEXT@@PEBU_s_FuncInfo@@@Z 0000000180041dd0 f i libvcruntimed:frame.obj
 0001:00040df0       ?GetMaxState@__FrameHandler4@@SAHPEAU_xDISPATCHER_CONTEXT@@PEAUFuncInfo4@FH4@@@Z 0000000180041df0 f i libvcruntimed:frame.obj
 0001:00041020       ?ReadEntry@UWMap4@FH4@@AEAAXPEAPEAE@Z 0000000180042020 f i libvcruntimed:frame.obj
 0001:000410d0       ?TypeMatch@__FrameHandler3@@SAHPEBU_s_HandlerType@@PEBU_s_CatchableType@@PEBU_s_ThrowInfo@@@Z 00000001800420d0 f   libvcruntimed:frame.obj
 0001:00041100       ?TypeMatch@__FrameHandler4@@SAHPEAUHandlerType4@FH4@@PEBU_s_CatchableType@@PEBU_s_ThrowInfo@@@Z 0000000180042100 f   libvcruntimed:frame.obj
 0001:00041130       ?WalkBack@UWMap4@FH4@@AEAAXPEAPEAE@Z 0000000180042130 f i libvcruntimed:frame.obj
 0001:00041180       ?WalkBack@iterator@UWMap4@FH4@@QEAAXXZ 0000000180042180 f i libvcruntimed:frame.obj
 0001:000411c0       ?WalkForward@UWMap4@FH4@@AEAAXPEAPEAE@Z 00000001800421c0 f i libvcruntimed:frame.obj
 0001:000411f0       ?_CallMemberFunction1@@YAXQEAX00@Z 00000001800421f0 f i libvcruntimed:frame.obj
 0001:00041230       ?_CallMemberFunction2@@YAXQEAX00H@Z 0000000180042230 f i libvcruntimed:frame.obj
 0001:000412c0       ?begin@HandlerMap4@FH4@@QEAA?AViterator@12@XZ 00000001800422c0 f i libvcruntimed:frame.obj
 0001:000412f0       ?begin@HandlerMap@__FrameHandler3@@QEAA?AViterator@12@XZ 00000001800422f0 f i libvcruntimed:frame.obj
 0001:00041320       ?begin@UWMap4@FH4@@QEAA?AViterator@12@XZ 0000000180042320 f i libvcruntimed:frame.obj
 0001:00041350       ?end@HandlerMap4@FH4@@QEAA?AViterator@12@XZ 0000000180042350 f i libvcruntimed:frame.obj
 0001:00041380       ?end@HandlerMap@__FrameHandler3@@QEAA?AViterator@12@XZ 0000000180042380 f i libvcruntimed:frame.obj
 0001:000413b0       ?getESTypes@__FrameHandler3@@SAPEBU_s_ESTypeList@@PEBU_s_FuncInfo@@@Z 00000001800423b0 f i libvcruntimed:frame.obj
 0001:000413f0       ?getESTypes@__FrameHandler4@@SAPEBU_s_ESTypeList@@PEAUFuncInfo4@FH4@@@Z 00000001800423f0 f i libvcruntimed:frame.obj
 0001:00041400       ?getLastEntry@HandlerMap4@FH4@@QEAAPEAUHandlerType4@2@XZ 0000000180042400 f i libvcruntimed:frame.obj
 0001:00041440       ?getLastEntry@HandlerMap@__FrameHandler3@@QEAAPEBU_s_HandlerType@@XZ 0000000180042440 f i libvcruntimed:frame.obj
 0001:00041460       ?getMagicNum@__FrameHandler3@@SAIPEBU_s_FuncInfo@@@Z 0000000180042460 f i libvcruntimed:frame.obj
 0001:00041480       ?getMagicNum@__FrameHandler4@@SAIPEAUFuncInfo4@FH4@@@Z 0000000180042480 f i libvcruntimed:frame.obj
 0001:00041490       ?getNumTryBlocks@TryBlockMap4@FH4@@QEAAIXZ 0000000180042490 f i libvcruntimed:frame.obj
 0001:000414a0       ?getNumTryBlocks@TryBlockMap@__FrameHandler3@@QEAAIXZ 00000001800424a0 f i libvcruntimed:frame.obj
 0001:000414c0       ?getStartStop@UWMap4@FH4@@QEAAXHHAEAViterator@12@0@Z 00000001800424c0 f i libvcruntimed:frame.obj
 0001:000415e0       ?getStateFromIterators@UWMap4@FH4@@SAHAEBViterator@12@H0H0@Z 00000001800425e0 f i libvcruntimed:frame.obj
 0001:00041720       ?isEHs@__FrameHandler3@@SA_NPEBU_s_FuncInfo@@@Z 0000000180042720 f i libvcruntimed:frame.obj
 0001:00041760       ?isEHs@__FrameHandler4@@SA_NPEAUFuncInfo4@FH4@@@Z 0000000180042760 f i libvcruntimed:frame.obj
 0001:00041780       ?isNoExcept@__FrameHandler3@@SA_NPEBU_s_FuncInfo@@@Z 0000000180042780 f i libvcruntimed:frame.obj
 0001:000417c0       ?isNoExcept@__FrameHandler4@@SA_NPEAUFuncInfo4@FH4@@@Z 00000001800427c0 f i libvcruntimed:frame.obj
 0001:000417e0       ?reset@HandlerType4@FH4@@QEAAXXZ 00000001800427e0 f i libvcruntimed:frame.obj
 0001:00041840       ?resetBuffer@HandlerMap4@FH4@@QEAAXXZ 0000000180042840 f i libvcruntimed:frame.obj
 0001:00041860       ?setBuffer@HandlerMap4@FH4@@QEAAXI@Z 0000000180042860 f i libvcruntimed:frame.obj
 0001:000418c0       __BuildCatchObject         00000001800428c0 f   libvcruntimed:frame.obj
 0001:00041900       __BuildCatchObjectHelper   0000000180042900 f   libvcruntimed:frame.obj
 0001:00041940       __TypeMatch                0000000180042940 f   libvcruntimed:frame.obj
 0001:00041970       __vcrt_EncodePointer       0000000180042970 f i libvcruntimed:frame.obj
 0001:00041990       ??$?0$00@DName@@QEAA@PEBDU?$StringLifeSelector@$00@@@Z 0000000180042990 f i libvcruntimed:undname.obj
 0001:00041a00       ??$?0$00@pcharNode@@QEAA@PEBDHU?$StringLifeSelector@$00@@@Z 0000000180042a00 f i libvcruntimed:undname.obj
 0001:00041a60       ??$?0$01@DName@@QEAA@PEBDU?$StringLifeSelector@$01@@@Z 0000000180042a60 f i libvcruntimed:undname.obj
 0001:00041ad0       ??$?0$01@pcharNode@@QEAA@PEBDHU?$StringLifeSelector@$01@@@Z 0000000180042ad0 f i libvcruntimed:undname.obj
 0001:00041b80       ??$?0$0A@@DName@@QEAA@PEBDU?$StringLifeSelector@$0A@@@@Z 0000000180042b80 f i libvcruntimed:undname.obj
 0001:00041bf0       ??$?0$0A@@pcharNode@@QEAA@PEBDHU?$StringLifeSelector@$0A@@@@Z 0000000180042bf0 f i libvcruntimed:undname.obj
 0001:00041ca0       ??$?0_K$0A@@?$optional@_K@std@@QEAA@$$QEA_K@Z 0000000180042ca0 f i libvcruntimed:undname.obj
 0001:00041cf0       ??$?0_K@?$_Optional_construct_base@_K@std@@QEAA@Uin_place_t@1@$$QEA_K@Z 0000000180042cf0 f i libvcruntimed:undname.obj
 0001:00041d20       ??$?0_K@?$_Optional_destruct_base@_K$00@std@@QEAA@Uin_place_t@1@$$QEA_K@Z 0000000180042d20 f i libvcruntimed:undname.obj
 0001:00041d60       ??$append@VDNameNode@@@DName@@AEAAXPEBVDNameNode@@@Z 0000000180042d60 f i libvcruntimed:undname.obj
 0001:00041e10       ??$append@VDNameStatusNode@@@DName@@AEAAXPEBVDNameStatusNode@@@Z 0000000180042e10 f i libvcruntimed:undname.obj
 0001:00041ec0       ??$append@VcharNode@@@DName@@AEAAXPEBVcharNode@@@Z 0000000180042ec0 f i libvcruntimed:undname.obj
 0001:00041f70       ??$append@VpDNameNode@@@DName@@AEAAXPEBVpDNameNode@@@Z 0000000180042f70 f i libvcruntimed:undname.obj
 0001:00042020       ??$append@VpcharNode@@@DName@@AEAAXPEBVpcharNode@@@Z 0000000180043020 f i libvcruntimed:undname.obj
 0001:000420d0       ??$doPchar@$00@DName@@AEAAXPEBDH@Z 00000001800430d0 f i libvcruntimed:undname.obj
 0001:00042230       ??$doPchar@$01@DName@@AEAAXPEBDH@Z 0000000180043230 f i libvcruntimed:undname.obj
 0001:00042390       ??$doPchar@$0A@@DName@@AEAAXPEBDH@Z 0000000180043390 f i libvcruntimed:undname.obj
 0001:000424f0       ??$forward@_K@std@@YA$$QEA_KAEA_K@Z 00000001800434f0 f i libvcruntimed:undname.obj
 0001:00042500       ??$size@D$04@std@@YA_KAEAY04$$CBD@Z 0000000180043500 f i libvcruntimed:undname.obj
 0001:00042510       ??$size@D$0EB@@std@@YA_KAEAY0EB@$$CBD@Z 0000000180043510 f i libvcruntimed:undname.obj
 0001:00042520       ??0?$_Optional_construct_base@_K@std@@QEAA@XZ 0000000180043520 f i libvcruntimed:undname.obj
 0001:00042540       ??0?$_Optional_destruct_base@_K$00@std@@QEAA@XZ 0000000180043540 f i libvcruntimed:undname.obj
 0001:00042560       ??0?$optional@_K@std@@QEAA@XZ 0000000180043560 f i libvcruntimed:undname.obj
 0001:00042590       ??0Block@_HeapManager@@QEAA@XZ 0000000180043590 f i libvcruntimed:undname.obj
 0001:000425b0       ??0DName@@QEAA@AEAPEBDD@Z  00000001800435b0 f   libvcruntimed:undname.obj
 0001:00042780       ??0DName@@QEAA@AEBUStringLiteral@@@Z 0000000180043780 f   libvcruntimed:undname.obj
 0001:000427e0       ??0DName@@QEAA@AEBV0@@Z    00000001800437e0 f i libvcruntimed:undname.obj
 0001:00042810       ??0DName@@QEAA@D@Z         0000000180043810 f   libvcruntimed:undname.obj
 0001:00042850       ??0DName@@QEAA@PEAV0@@Z    0000000180043850 f   libvcruntimed:undname.obj
 0001:00042930       ??0DName@@QEAA@W4DNameStatus@@@Z 0000000180043930 f   libvcruntimed:undname.obj
 0001:000429e0       ??0DName@@QEAA@XZ          00000001800439e0 f i libvcruntimed:undname.obj
 0001:00042a10       ??0DName@@QEAA@_J@Z        0000000180043a10 f   libvcruntimed:undname.obj
 0001:00042b20       ??0DName@@QEAA@_K@Z        0000000180043b20 f   libvcruntimed:undname.obj
 0001:00042bf0       ??0DNameNode@@IEAA@XZ      0000000180043bf0 f i libvcruntimed:undname.obj
 0001:00042c10       ??0Replicator@@QEAA@XZ     0000000180043c10 f i libvcruntimed:undname.obj
 0001:00042c50       ??0UnDecorator@@QEAA@PEBDP6APEADJ@ZK@Z 0000000180043c50 f i libvcruntimed:undname.obj
 0001:00042d00       ??0charNode@@QEAA@D@Z      0000000180043d00 f i libvcruntimed:undname.obj
 0001:00042d40       ??0pDNameNode@@QEAA@PEAVDName@@@Z 0000000180043d40 f   libvcruntimed:undname.obj
 0001:00042dc0       ??0pairNode@@QEAA@PEBVDNameNode@@0@Z 0000000180043dc0 f i libvcruntimed:undname.obj
 0001:00042e40       ??2@YAPEAX_KAEAV_HeapManager@@H@Z 0000000180043e40 f   libvcruntimed:undname.obj
 0001:00042ea0       ??4DName@@QEAAAEAV0@AEBUStringLiteral@@@Z 0000000180043ea0 f   libvcruntimed:undname.obj
 0001:00042ef0       ??4DName@@QEAAAEAV0@AEBV0@@Z 0000000180043ef0 f   libvcruntimed:undname.obj
 0001:00042f20       ??4DName@@QEAAAEAV0@D@Z    0000000180043f20 f i libvcruntimed:undname.obj
 0001:00042f60       ??4DName@@QEAAAEAV0@PEAV0@@Z 0000000180043f60 f   libvcruntimed:undname.obj
 0001:00043030       ??4DName@@QEAAAEAV0@W4DNameStatus@@@Z 0000000180044030 f   libvcruntimed:undname.obj
 0001:000430c0       ??AReplicator@@QEBA?AVDName@@H@Z 00000001800440c0 f   libvcruntimed:undname.obj
 0001:00043150       ??B?$optional@_K@std@@QEBA_NXZ 0000000180044150 f i libvcruntimed:undname.obj
 0001:00043160       ??D?$optional@_K@std@@QEGAAAEA_KXZ 0000000180044160 f i libvcruntimed:undname.obj
 0001:00043170       ??H@YA?AVDName@@AEBUStringLiteral@@AEBV0@@Z 0000000180044170 f i libvcruntimed:undname.obj
 0001:000431c0       ??H@YA?AVDName@@DAEBV0@@Z  00000001800441c0 f i libvcruntimed:undname.obj
 0001:00043210       ??H@YA?AVDName@@W4DNameStatus@@AEBV0@@Z 0000000180044210 f i libvcruntimed:undname.obj
 0001:00043260       ??HDName@@QEBA?AV0@AEBUStringLiteral@@@Z 0000000180044260 f   libvcruntimed:undname.obj
 0001:000432b0       ??HDName@@QEBA?AV0@AEBV0@@Z 00000001800442b0 f   libvcruntimed:undname.obj
 0001:00043300       ??HDName@@QEBA?AV0@D@Z     0000000180044300 f   libvcruntimed:undname.obj
 0001:00043350       ??HDName@@QEBA?AV0@PEAV0@@Z 0000000180044350 f   libvcruntimed:undname.obj
 0001:000433a0       ??HDName@@QEBA?AV0@W4DNameStatus@@@Z 00000001800443a0 f   libvcruntimed:undname.obj
 0001:000433f0       ??HStringLiteral@@QEBA?AU0@H@Z 00000001800443f0 f i libvcruntimed:undname.obj
 0001:00043430       ??YDName@@QEAAAEAV0@AEBUStringLiteral@@@Z 0000000180044430 f   libvcruntimed:undname.obj
 0001:00043500       ??YDName@@QEAAAEAV0@AEBV0@@Z 0000000180044500 f   libvcruntimed:undname.obj
 0001:000435c0       ??YDName@@QEAAAEAV0@D@Z    00000001800445c0 f   libvcruntimed:undname.obj
 0001:00043660       ??YDName@@QEAAAEAV0@PEAV0@@Z 0000000180044660 f   libvcruntimed:undname.obj
 0001:00043740       ??YDName@@QEAAAEAV0@W4DNameStatus@@@Z 0000000180044740 f   libvcruntimed:undname.obj
 0001:000437b0       ??YReplicator@@QEAAAEAV0@AEBVDName@@@Z 00000001800447b0 f   libvcruntimed:undname.obj
 0001:00043870       ??_5DName@@QEAAAEAV0@AEBV0@@Z 0000000180044870 f   libvcruntimed:undname.obj
 0001:000438e0       ??__K_l@@YA?AUStringLiteral@@PEBD_K@Z 00000001800448e0 f i libvcruntimed:undname.obj
 0001:00043930       ?Constructor@_HeapManager@@QEAAXP6APEAX_K@ZP6AXPEAX@Z@Z 0000000180044930 f i libvcruntimed:undname.obj
 0001:00043990       ?Destructor@_HeapManager@@QEAAXXZ 0000000180044990 f i libvcruntimed:undname.obj
 0001:00043a30       ?UScore@UnDecorator@@SA?AUStringLiteral@@W4Tokens@@@Z 0000000180044a30 f   libvcruntimed:undname.obj
 0001:00043ac0       ?composeDeclaration@UnDecorator@@CA?AVDName@@AEBV2@@Z 0000000180044ac0 f i libvcruntimed:undname.obj
 0001:00045fc0       ?dbGetString@DName@@QEBAPEADXZ 0000000180046fc0 f   libvcruntimed:undname.obj
 0001:00045ff0       ?doAccessSpecifiers@UnDecorator@@SAHXZ 0000000180046ff0 f i libvcruntimed:undname.obj
 0001:00046020       ?doAllocationLanguage@UnDecorator@@SAHXZ 0000000180047020 f i libvcruntimed:undname.obj
 0001:00046050       ?doAllocationModel@UnDecorator@@SAHXZ 0000000180047050 f i libvcruntimed:undname.obj
 0001:00046080       ?doEcsu@UnDecorator@@SAHXZ 0000000180047080 f i libvcruntimed:undname.obj
 0001:000460b0       ?doEllipsis@UnDecorator@@SAHXZ 00000001800470b0 f i libvcruntimed:undname.obj
 0001:000460e0       ?doFunctionReturns@UnDecorator@@SAHXZ 00000001800470e0 f i libvcruntimed:undname.obj
 0001:00046110       ?doMSKeywords@UnDecorator@@SAHXZ 0000000180047110 f i libvcruntimed:undname.obj
 0001:00046140       ?doMemberTypes@UnDecorator@@SAHXZ 0000000180047140 f i libvcruntimed:undname.obj
 0001:00046170       ?doNameOnly@UnDecorator@@SAHXZ 0000000180047170 f i libvcruntimed:undname.obj
 0001:00046180       ?doNoIdentCharCheck@UnDecorator@@SAHXZ 0000000180047180 f i libvcruntimed:undname.obj
 0001:00046190       ?doPchar@DName@@AEAAXD@Z   0000000180047190 f   libvcruntimed:undname.obj
 0001:00046220       ?doPtr64@UnDecorator@@SAHXZ 0000000180047220 f i libvcruntimed:undname.obj
 0001:00046250       ?doRestrictionSpec@UnDecorator@@SAHXZ 0000000180047250 f i libvcruntimed:undname.obj
 0001:00046280       ?doThisTypes@UnDecorator@@SAHXZ 0000000180047280 f i libvcruntimed:undname.obj
 0001:000462b0       ?doThrowTypes@UnDecorator@@SAHXZ 00000001800472b0 f i libvcruntimed:undname.obj
 0001:000462e0       ?doTypeOnly@UnDecorator@@SAHXZ 00000001800472e0 f i libvcruntimed:undname.obj
 0001:000462f0       ?doUnderScore@UnDecorator@@SAHXZ 00000001800472f0 f i libvcruntimed:undname.obj
 0001:00046320       ?getArgumentList@UnDecorator@@CA?AVDName@@XZ 0000000180047320 f   libvcruntimed:undname.obj
 0001:000464c0       ?getArgumentTypes@UnDecorator@@CA?AVDName@@XZ 00000001800474c0 f   libvcruntimed:undname.obj
 0001:00046820       ?getArrayObject@UnDecorator@@CA?AVDName@@XZ 0000000180047820 f   libvcruntimed:undname.obj
 0001:00046940       ?getArrayType@UnDecorator@@CA?AVDName@@AEBV2@@Z 0000000180047940 f i libvcruntimed:undname.obj
 0001:00046d00       ?getBasedType@UnDecorator@@CA?AVDName@@XZ 0000000180047d00 f   libvcruntimed:undname.obj
 0001:00046e70       ?getBasicDataType@UnDecorator@@CA?AVDName@@AEBV2@@Z 0000000180047e70 f   libvcruntimed:undname.obj
 0001:00047b40       ?getCHPEName@UnDecorator@@QEAAPEADPEADH@Z 0000000180048b40 f i libvcruntimed:undname.obj
 0001:00047d10       ?getCallIndex@UnDecorator@@CA?AVDName@@XZ 0000000180048d10 f i libvcruntimed:undname.obj
 0001:00047d30       ?getCallingConvention@UnDecorator@@CA?AVDName@@XZ 0000000180048d30 f   libvcruntimed:undname.obj
 0001:000480d0       ?getDataIndirectType@UnDecorator@@CA?AVDName@@AEBV2@W4IndirectionKind@@0H@Z 00000001800490d0 f   libvcruntimed:undname.obj
 0001:00048d70       ?getDataIndirectType@UnDecorator@@CA?AVDName@@XZ 0000000180049d70 f i libvcruntimed:undname.obj
 0001:00048dc0       ?getDataType@UnDecorator@@CA?AVDName@@PEAV2@@Z 0000000180049dc0 f   libvcruntimed:undname.obj
 0001:00048fa0       ?getDecoratedName@UnDecorator@@CA?AVDName@@XZ 0000000180049fa0 f   libvcruntimed:undname.obj
 0001:00049490       ?getDimension@UnDecorator@@CA?AVDName@@_N@Z 000000018004a490 f   libvcruntimed:undname.obj
 0001:000497a0       ?getDispatchTarget@UnDecorator@@CA?AVDName@@XZ 000000018004a7a0 f   libvcruntimed:undname.obj
 0001:00049870       ?getDisplacement@UnDecorator@@CA?AVDName@@XZ 000000018004a870 f i libvcruntimed:undname.obj
 0001:00049890       ?getECSUDataType@UnDecorator@@CA?AVDName@@XZ 000000018004a890 f   libvcruntimed:undname.obj
 0001:00049c20       ?getECSUName@UnDecorator@@CA?AVDName@@XZ 000000018004ac20 f i libvcruntimed:undname.obj
 0001:00049c40       ?getEnumType@UnDecorator@@CA?AVDName@@XZ 000000018004ac40 f i libvcruntimed:undname.obj
 0001:00049ed0       ?getExtendedDataIndirectType@UnDecorator@@CA?AVDName@@AEAW4IndirectionKind@@AEA_NH@Z 000000018004aed0 f   libvcruntimed:undname.obj
 0001:0004a1f0       ?getExternalDataType@UnDecorator@@CA?AVDName@@AEBV2@@Z 000000018004b1f0 f i libvcruntimed:undname.obj
 0001:0004a2d0       ?getFloatingPoint@UnDecorator@@CA?AVDName@@H@Z 000000018004b2d0 f   libvcruntimed:undname.obj
 0001:0004a540       ?getFunctionIndirectType@UnDecorator@@CA?AVDName@@AEBV2@@Z 000000018004b540 f   libvcruntimed:undname.obj
 0001:0004ab70       ?getGuardNumber@UnDecorator@@CA?AVDName@@XZ 000000018004bb70 f i libvcruntimed:undname.obj
 0001:0004ab90       ?getLastChar@DName@@QEBADXZ 000000018004bb90 f i libvcruntimed:undname.obj
 0001:0004abe0       ?getLastChar@DNameStatusNode@@UEBADXZ 000000018004bbe0 f i libvcruntimed:undname.obj
 0001:0004ac20       ?getLastChar@charNode@@UEBADXZ 000000018004bc20 f i libvcruntimed:undname.obj
 0001:0004ac30       ?getLastChar@pDNameNode@@UEBADXZ 000000018004bc30 f i libvcruntimed:undname.obj
 0001:0004ac70       ?getLastChar@pairNode@@UEBADXZ 000000018004bc70 f i libvcruntimed:undname.obj
 0001:0004acf0       ?getLastChar@pcharNode@@UEBADXZ 000000018004bcf0 f i libvcruntimed:undname.obj
 0001:0004ad30       ?getLexicalFrame@UnDecorator@@CA?AVDName@@XZ 000000018004bd30 f i libvcruntimed:undname.obj
 0001:0004ad80       ?getMemoryWithBuffer@_HeapManager@@QEAAPEAX_K@Z 000000018004bd80 f   libvcruntimed:undname.obj
 0001:0004aed0       ?getMemoryWithoutBuffer@_HeapManager@@QEAAPEAX_K@Z 000000018004bed0 f   libvcruntimed:undname.obj
 0001:0004af20       ?getNoexcept@UnDecorator@@CA?AVDName@@XZ 000000018004bf20 f   libvcruntimed:undname.obj
 0001:0004afd0       ?getNumberOfDimensions@UnDecorator@@CAHXZ 000000018004bfd0 f   libvcruntimed:undname.obj
 0001:0004b0f0       ?getOperatorName@UnDecorator@@CA?AVDName@@_NPEA_N@Z 000000018004c0f0 f i libvcruntimed:undname.obj
 0001:0004c000       ?getPointerType@UnDecorator@@CA?AVDName@@AEBV2@0@Z 000000018004d000 f i libvcruntimed:undname.obj
 0001:0004c040       ?getPointerTypeArray@UnDecorator@@CA?AVDName@@AEBV2@0@Z 000000018004d040 f i libvcruntimed:undname.obj
 0001:0004c080       ?getPrimaryDataType@UnDecorator@@CA?AVDName@@AEBV2@@Z 000000018004d080 f   libvcruntimed:undname.obj
 0001:0004c670       ?getPtrRefDataType@UnDecorator@@CA?AVDName@@AEBV2@H@Z 000000018004d670 f   libvcruntimed:undname.obj
 0001:0004ca60       ?getPtrRefType@UnDecorator@@CA?AVDName@@AEBV2@0W4IndirectionKind@@@Z 000000018004da60 f   libvcruntimed:undname.obj
 0001:0004cca0       ?getReferenceType@UnDecorator@@CA?AVDName@@AEBV2@0W4IndirectionKind@@@Z 000000018004dca0 f i libvcruntimed:undname.obj
 0001:0004cce0       ?getRestrictionSpec@UnDecorator@@CA?AVDName@@XZ 000000018004dce0 f   libvcruntimed:undname.obj
 0001:0004cf70       ?getReturnType@UnDecorator@@CA?AVDName@@PEAV2@@Z 000000018004df70 f   libvcruntimed:undname.obj
 0001:0004cfd0       ?getScope@UnDecorator@@CA?AVDName@@XZ 000000018004dfd0 f   libvcruntimed:undname.obj
 0001:0004d720       ?getScopedName@UnDecorator@@CA?AVDName@@XZ 000000018004e720 f   libvcruntimed:undname.obj
 0001:0004d920       ?getSignedDimension@UnDecorator@@CA?AVDName@@XZ 000000018004e920 f   libvcruntimed:undname.obj
 0001:0004d9b0       ?getStorageConvention@UnDecorator@@CA?AVDName@@XZ 000000018004e9b0 f i libvcruntimed:undname.obj
 0001:0004d9d0       ?getString@DName@@QEBAPEADPEAD0@Z 000000018004e9d0 f i libvcruntimed:undname.obj
 0001:0004da50       ?getString@DName@@QEBAPEADPEADH@Z 000000018004ea50 f i libvcruntimed:undname.obj
 0001:0004db10       ?getString@DNameStatusNode@@UEBAPEADPEAD0@Z 000000018004eb10 f i libvcruntimed:undname.obj
 0001:0004db60       ?getString@charNode@@UEBAPEADPEAD0@Z 000000018004eb60 f i libvcruntimed:undname.obj
 0001:0004dba0       ?getString@pDNameNode@@UEBAPEADPEAD0@Z 000000018004eba0 f i libvcruntimed:undname.obj
 0001:0004dc00       ?getString@pairNode@@UEBAPEADPEAD0@Z 000000018004ec00 f i libvcruntimed:undname.obj
 0001:0004dcd0       ?getString@pcharNode@@UEBAPEADPEAD0@Z 000000018004ecd0 f i libvcruntimed:undname.obj
 0001:0004dd10       ?getStringEncoding@UnDecorator@@CA?AVDName@@W4PrefixKind@@H@Z 000000018004ed10 f   libvcruntimed:undname.obj
 0001:0004de70       ?getStringHelper@@YAPEADPEADPEBD1H@Z 000000018004ee70 f i libvcruntimed:undname.obj
 0001:0004dee0       ?getStringObject@UnDecorator@@CA?AVDName@@XZ 000000018004eee0 f   libvcruntimed:undname.obj
 0001:0004dfc0       ?getSymbolName@UnDecorator@@CA?AVDName@@XZ 000000018004efc0 f i libvcruntimed:undname.obj
 0001:0004e060       ?getTemplateArgumentList@UnDecorator@@CA?AVDName@@XZ 000000018004f060 f   libvcruntimed:undname.obj
 0001:0004e370       ?getTemplateName@UnDecorator@@CA?AVDName@@_N@Z 000000018004f370 f   libvcruntimed:undname.obj
 0001:0004e5b0       ?getTemplateNonTypeArgument@UnDecorator@@CA?AVDName@@XZ 000000018004f5b0 f   libvcruntimed:undname.obj
 0001:0004eca0       ?getTemplateTypeArgument@UnDecorator@@CA?AVDName@@XZ 000000018004fca0 f   libvcruntimed:undname.obj
 0001:0004ef10       ?getThisType@UnDecorator@@CA?AVDName@@XZ 000000018004ff10 f i libvcruntimed:undname.obj
 0001:0004ef60       ?getThrowTypes@UnDecorator@@CA?AVDName@@XZ 000000018004ff60 f   libvcruntimed:undname.obj
 0001:0004efb0       ?getTypeEncoding@UnDecorator@@CAHXZ 000000018004ffb0 f i libvcruntimed:undname.obj
 0001:0004fbe0       ?getUndecoratedName@UnDecorator@@QEAAPEADPEADH@Z 0000000180050be0 f i libvcruntimed:undname.obj
 0001:0004fdd0       ?getVCallThunkType@UnDecorator@@CA?AVDName@@XZ 0000000180050dd0 f i libvcruntimed:undname.obj
 0001:0004fe80       ?getValue@UnDecorator@@CA?AV?$optional@_K@std@@XZ 0000000180050e80 f   libvcruntimed:undname.obj
 0001:0004ff50       ?getValueObject@UnDecorator@@CA?AVDName@@XZ 0000000180050f50 f   libvcruntimed:undname.obj
 0001:00050110       ?getVbTableType@UnDecorator@@CA?AVDName@@AEBV2@@Z 0000000180051110 f i libvcruntimed:undname.obj
 0001:00050140       ?getVdispMapType@UnDecorator@@CA?AVDName@@AEBV2@@Z 0000000180051140 f i libvcruntimed:undname.obj
 0001:00050200       ?getVfTableType@UnDecorator@@CA?AVDName@@AEBV2@@Z 0000000180051200 f i libvcruntimed:undname.obj
 0001:000504a0       ?getZName@UnDecorator@@CA?AVDName@@_N0@Z 00000001800514a0 f   libvcruntimed:undname.obj
 0001:00050930       ?haveTemplateParameters@UnDecorator@@SAHXZ 0000000180051930 f i libvcruntimed:undname.obj
 0001:00050940       ?isArray@DName@@QEBAHXZ    0000000180051940 f i libvcruntimed:undname.obj
 0001:00050960       ?isComArray@DName@@QEBAHXZ 0000000180051960 f i libvcruntimed:undname.obj
 0001:00050980       ?isEmpty@DName@@QEBAHXZ    0000000180051980 f i libvcruntimed:undname.obj
 0001:000509b0       ?isFull@Replicator@@QEBAHXZ 00000001800519b0 f i libvcruntimed:undname.obj
 0001:000509e0       ?isNoTE@DName@@QEBAHXZ     00000001800519e0 f i libvcruntimed:undname.obj
 0001:00050a00       ?isPinPtr@DName@@QEBAHXZ   0000000180051a00 f i libvcruntimed:undname.obj
 0001:00050a20       ?isPtrRef@DName@@QEBAHXZ   0000000180051a20 f i libvcruntimed:undname.obj
 0001:00050a40       ?isUDC@DName@@QEBAHXZ      0000000180051a40 f i libvcruntimed:undname.obj
 0001:00050a90       ?isUDTThunk@DName@@QEBAHXZ 0000000180051a90 f i libvcruntimed:undname.obj
 0001:00050ae0       ?isVCallThunk@DName@@QEBAHXZ 0000000180051ae0 f i libvcruntimed:undname.obj
 0001:00050b00       ?isValid@DName@@QEBAHXZ    0000000180051b00 f i libvcruntimed:undname.obj
 0001:00050b40       ?length@DName@@QEBAHXZ     0000000180051b40 f i libvcruntimed:undname.obj
 0001:00050b90       ?length@DNameStatusNode@@UEBAHXZ 0000000180051b90 f i libvcruntimed:undname.obj
 0001:00050ba0       ?length@charNode@@UEBAHXZ  0000000180051ba0 f i libvcruntimed:undname.obj
 0001:00050bb0       ?length@pDNameNode@@UEBAHXZ 0000000180051bb0 f i libvcruntimed:undname.obj
 0001:00050bf0       ?length@pairNode@@UEBAHXZ  0000000180051bf0 f i libvcruntimed:undname.obj
 0001:00050c80       ?length@pcharNode@@UEBAHXZ 0000000180051c80 f i libvcruntimed:undname.obj
 0001:00050c90       ?make@DNameStatusNode@@SAPEBV1@W4DNameStatus@@@Z 0000000180051c90 f i libvcruntimed:undname.obj
 0001:00050ce0       ?parseDecoratedName@UnDecorator@@CA?AVDName@@XZ 0000000180051ce0 f   libvcruntimed:undname.obj
 0001:00050ed0       ?raw_length@DNameStatusNode@@UEBAHXZ 0000000180051ed0 f i libvcruntimed:undname.obj
 0001:00050ef0       ?raw_length@charNode@@UEBAHXZ 0000000180051ef0 f i libvcruntimed:undname.obj
 0001:00050f10       ?raw_length@pDNameNode@@UEBAHXZ 0000000180051f10 f i libvcruntimed:undname.obj
 0001:00050f20       ?raw_length@pairNode@@UEBAHXZ 0000000180051f20 f i libvcruntimed:undname.obj
 0001:00050f30       ?raw_length@pcharNode@@UEBAHXZ 0000000180051f30 f i libvcruntimed:undname.obj
 0001:00050f50       ?setIsArray@DName@@QEAAXXZ 0000000180051f50 f i libvcruntimed:undname.obj
 0001:00050f70       ?setIsComArray@DName@@QEAAXXZ 0000000180051f70 f i libvcruntimed:undname.obj
 0001:00050f90       ?setIsNoTE@DName@@QEAAXXZ  0000000180051f90 f i libvcruntimed:undname.obj
 0001:00050fb0       ?setIsPinPtr@DName@@QEAAXXZ 0000000180051fb0 f i libvcruntimed:undname.obj
 0001:00050fd0       ?setIsUDC@DName@@QEAAXXZ   0000000180051fd0 f i libvcruntimed:undname.obj
 0001:00051000       ?setIsVCallThunk@DName@@QEAAXXZ 0000000180052000 f i libvcruntimed:undname.obj
 0001:00051020       ?setPtrRef@DName@@QEAAAEAV1@XZ 0000000180052020 f i libvcruntimed:undname.obj
 0001:00051040       ?status@DName@@QEBA?AW4DNameStatus@@XZ 0000000180052040 f i libvcruntimed:undname.obj
 0001:00051170       __unDName                  0000000180052170 f   libvcruntimed:undname.obj
 0001:000511d0       __unDNameEx                00000001800521d0 f   libvcruntimed:undname.obj
 0001:00051290       unDNameGenerateCHPE        0000000180052290 f   libvcruntimed:undname.obj
 0001:00051340       ??$__crt_interlocked_exchange_pointer@UHINSTANCE__@@PEAU1@@@YAPEAUHINSTANCE__@@PEDSEAU0@QEAU0@@Z 0000000180052340 f i libvcruntimed:winapi_downlevel.obj
 0001:00051360       ??$__crt_interlocked_exchange_pointer@UHINSTANCE__@@PEAX@@YAPEAUHINSTANCE__@@PEDSEAU0@QEAX@Z 0000000180052360 f i libvcruntimed:winapi_downlevel.obj
 0001:00051380       ??$__crt_interlocked_exchange_pointer@XPEAX@@YAPEAXPEDSEAXQEAX@Z 0000000180052380 f i libvcruntimed:winapi_downlevel.obj
 0001:000513a0       ??$__crt_interlocked_read_pointer@UHINSTANCE__@@@@YAPEAUHINSTANCE__@@PEDSEAU0@@Z 00000001800523a0 f i libvcruntimed:winapi_downlevel.obj
 0001:000513c0       ??$__crt_interlocked_read_pointer@X@@YAPEAXPEDSEAX@Z 00000001800523c0 f i libvcruntimed:winapi_downlevel.obj
 0001:000518d0       __vcrt_FlsAlloc            00000001800528d0 f   libvcruntimed:winapi_downlevel.obj
 0001:00051920       __vcrt_FlsFree             0000000180052920 f   libvcruntimed:winapi_downlevel.obj
 0001:00051970       __vcrt_FlsGetValue         0000000180052970 f   libvcruntimed:winapi_downlevel.obj
 0001:000519c0       __vcrt_FlsSetValue         00000001800529c0 f   libvcruntimed:winapi_downlevel.obj
 0001:00051a20       __vcrt_InitializeCriticalSectionEx 0000000180052a20 f   libvcruntimed:winapi_downlevel.obj
 0001:00051aa0       _CallSettingFrame          0000000180052aa0 f   libvcruntimed:handlers.obj
 0001:00051af0       _CallSettingFrame_LookupContinuationIndex 0000000180052af0 f   libvcruntimed:handlers.obj
 0001:00051b20       _CallSettingFrame_NotifyContinuationAddr 0000000180052b20 f   libvcruntimed:handlers.obj
 0001:00051b50       _CallSettingFrameEncoded   0000000180052b50 f   libvcruntimed:handlers.obj
 0001:00051ba0       ??$?0AEBV?$stream_output_adapter@D@__crt_stdio_output@@AEB_KAEBQEBDAEBQEAU__crt_locale_pointers@@AEBQEAD@?$format_validation_base@DV?$stream_output_adapter@D@__crt_stdio_output@@@__crt_stdio_output@@IEAA@AEBV?$stream_output_adapter@D@1@AEB_KAEBQEBDAEBQEAU__crt_locale_pointers@@AEBQEAD@Z 0000000180052ba0 f i libucrtd:output.obj
 0001:00051bf0       ??$?0AEBV?$stream_output_adapter@D@__crt_stdio_output@@AEB_KAEBQEBDAEBQEAU__crt_locale_pointers@@AEBQEAD@?$positional_parameter_base@DV?$stream_output_adapter@D@__crt_stdio_output@@@__crt_stdio_output@@IEAA@AEBV?$stream_output_adapter@D@1@AEB_KAEBQEBDAEBQEAU__crt_locale_pointers@@AEBQEAD@Z 0000000180052bf0 f i libucrtd:output.obj
 0001:00051c90       ??$?0AEBV?$stream_output_adapter@D@__crt_stdio_output@@AEB_KAEBQEBDAEBQEAU__crt_locale_pointers@@AEBQEAD@?$standard_base@DV?$stream_output_adapter@D@__crt_stdio_output@@@__crt_stdio_output@@IEAA@AEBV?$stream_output_adapter@D@1@AEB_KAEBQEBDAEBQEAU__crt_locale_pointers@@AEBQEAD@Z 0000000180052c90 f i libucrtd:output.obj
 0001:00051d00       ??$?0AEBV?$stream_output_adapter@_W@__crt_stdio_output@@AEB_KAEBQEB_WAEBQEAU__crt_locale_pointers@@AEBQEAD@?$format_validation_base@_WV?$stream_output_adapter@_W@__crt_stdio_output@@@__crt_stdio_output@@IEAA@AEBV?$stream_output_adapter@_W@1@AEB_KAEBQEB_WAEBQEAU__crt_locale_pointers@@AEBQEAD@Z 0000000180052d00 f i libucrtd:output.obj
 0001:00051d50       ??$?0AEBV?$stream_output_adapter@_W@__crt_stdio_output@@AEB_KAEBQEB_WAEBQEAU__crt_locale_pointers@@AEBQEAD@?$positional_parameter_base@_WV?$stream_output_adapter@_W@__crt_stdio_output@@@__crt_stdio_output@@IEAA@AEBV?$stream_output_adapter@_W@1@AEB_KAEBQEB_WAEBQEAU__crt_locale_pointers@@AEBQEAD@Z 0000000180052d50 f i libucrtd:output.obj
 0001:00051df0       ??$?0AEBV?$stream_output_adapter@_W@__crt_stdio_output@@AEB_KAEBQEB_WAEBQEAU__crt_locale_pointers@@AEBQEAD@?$standard_base@_WV?$stream_output_adapter@_W@__crt_stdio_output@@@__crt_stdio_output@@IEAA@AEBV?$stream_output_adapter@_W@1@AEB_KAEBQEB_WAEBQEAU__crt_locale_pointers@@AEBQEAD@Z 0000000180052df0 f i libucrtd:output.obj
 0001:00051e60       ??$?0AEBV?$string_output_adapter@D@__crt_stdio_output@@AEB_KAEBQEBDAEBQEAU__crt_locale_pointers@@AEBQEAD@?$format_validation_base@DV?$string_output_adapter@D@__crt_stdio_output@@@__crt_stdio_output@@IEAA@AEBV?$string_output_adapter@D@1@AEB_KAEBQEBDAEBQEAU__crt_locale_pointers@@AEBQEAD@Z 0000000180052e60 f i libucrtd:output.obj
 0001:00051eb0       ??$?0AEBV?$string_output_adapter@D@__crt_stdio_output@@AEB_KAEBQEBDAEBQEAU__crt_locale_pointers@@AEBQEAD@?$positional_parameter_base@DV?$string_output_adapter@D@__crt_stdio_output@@@__crt_stdio_output@@IEAA@AEBV?$string_output_adapter@D@1@AEB_KAEBQEBDAEBQEAU__crt_locale_pointers@@AEBQEAD@Z 0000000180052eb0 f i libucrtd:output.obj
 0001:00051f50       ??$?0AEBV?$string_output_adapter@D@__crt_stdio_output@@AEB_KAEBQEBDAEBQEAU__crt_locale_pointers@@AEBQEAD@?$standard_base@DV?$string_output_adapter@D@__crt_stdio_output@@@__crt_stdio_output@@IEAA@AEBV?$string_output_adapter@D@1@AEB_KAEBQEBDAEBQEAU__crt_locale_pointers@@AEBQEAD@Z 0000000180052f50 f i libucrtd:output.obj
 0001:00051fc0       ??$?0AEBV?$string_output_adapter@_W@__crt_stdio_output@@AEB_KAEBQEB_WAEBQEAU__crt_locale_pointers@@AEBQEAD@?$format_validation_base@_WV?$string_output_adapter@_W@__crt_stdio_output@@@__crt_stdio_output@@IEAA@AEBV?$string_output_adapter@_W@1@AEB_KAEBQEB_WAEBQEAU__crt_locale_pointers@@AEBQEAD@Z 0000000180052fc0 f i libucrtd:output.obj
 0001:00052010       ??$?0AEBV?$string_output_adapter@_W@__crt_stdio_output@@AEB_KAEBQEB_WAEBQEAU__crt_locale_pointers@@AEBQEAD@?$positional_parameter_base@_WV?$string_output_adapter@_W@__crt_stdio_output@@@__crt_stdio_output@@IEAA@AEBV?$string_output_adapter@_W@1@AEB_KAEBQEB_WAEBQEAU__crt_locale_pointers@@AEBQEAD@Z 0000000180053010 f i libucrtd:output.obj
 0001:000520b0       ??$?0AEBV?$string_output_adapter@_W@__crt_stdio_output@@AEB_KAEBQEB_WAEBQEAU__crt_locale_pointers@@AEBQEAD@?$standard_base@_WV?$string_output_adapter@_W@__crt_stdio_output@@@__crt_stdio_output@@IEAA@AEBV?$string_output_adapter@_W@1@AEB_KAEBQEB_WAEBQEAU__crt_locale_pointers@@AEBQEAD@Z 00000001800530b0 f i libucrtd:output.obj
 0001:000524e0       ??$__crt_interlocked_read@J@@YAJPEDJ@Z 00000001800534e0 f i libucrtd:output.obj
 0001:00055fc0       ??$count@D@formatting_buffer@__crt_stdio_output@@QEBA_KXZ 0000000180056fc0 f i libucrtd:output.obj
 0001:00056010       ??$count@_W@formatting_buffer@__crt_stdio_output@@QEBA_KXZ 0000000180057010 f i libucrtd:output.obj
 0001:00056060       ??$data@D@formatting_buffer@__crt_stdio_output@@QEAAPEADXZ 0000000180057060 f i libucrtd:output.obj
 0001:000560b0       ??$data@_W@formatting_buffer@__crt_stdio_output@@QEAAPEA_WXZ 00000001800570b0 f i libucrtd:output.obj
 0001:00056100       ??$ensure_buffer_is_big_enough@D@formatting_buffer@__crt_stdio_output@@QEAA_N_K@Z 0000000180057100 f i libucrtd:output.obj
 0001:00056230       ??$ensure_buffer_is_big_enough@_W@formatting_buffer@__crt_stdio_output@@QEAA_N_K@Z 0000000180057230 f i libucrtd:output.obj
 0001:00056360       ??$extract_argument_from_va_list@C_J@?$positional_parameter_base@DV?$stream_output_adapter@D@__crt_stdio_output@@@__crt_stdio_output@@IEAA_NAEA_J@Z 0000000180057360 f i libucrtd:output.obj
 0001:000564e0       ??$extract_argument_from_va_list@C_J@?$positional_parameter_base@DV?$string_output_adapter@D@__crt_stdio_output@@@__crt_stdio_output@@IEAA_NAEA_J@Z 00000001800574e0 f i libucrtd:output.obj
 0001:00056660       ??$extract_argument_from_va_list@C_J@?$positional_parameter_base@_WV?$stream_output_adapter@_W@__crt_stdio_output@@@__crt_stdio_output@@IEAA_NAEA_J@Z 0000000180057660 f i libucrtd:output.obj
 0001:000567e0       ??$extract_argument_from_va_list@C_J@?$positional_parameter_base@_WV?$string_output_adapter@_W@__crt_stdio_output@@@__crt_stdio_output@@IEAA_NAEA_J@Z 00000001800577e0 f i libucrtd:output.obj
 0001:00056960       ??$extract_argument_from_va_list@C_J@?$standard_base@DV?$stream_output_adapter@D@__crt_stdio_output@@@__crt_stdio_output@@IEAA_NAEA_J@Z 0000000180057960 f i libucrtd:output.obj
 0001:000569a0       ??$extract_argument_from_va_list@C_J@?$standard_base@DV?$string_output_adapter@D@__crt_stdio_output@@@__crt_stdio_output@@IEAA_NAEA_J@Z 00000001800579a0 f i libucrtd:output.obj
 0001:000569e0       ??$extract_argument_from_va_list@C_J@?$standard_base@_WV?$stream_output_adapter@_W@__crt_stdio_output@@@__crt_stdio_output@@IEAA_NAEA_J@Z 00000001800579e0 f i libucrtd:output.obj
 0001:00056a20       ??$extract_argument_from_va_list@C_J@?$standard_base@_WV?$string_output_adapter@_W@__crt_stdio_output@@@__crt_stdio_output@@IEAA_NAEA_J@Z 0000000180057a20 f i libucrtd:output.obj
 0001:00056a60       ??$extract_argument_from_va_list@E_J@?$positional_parameter_base@DV?$stream_output_adapter@D@__crt_stdio_output@@@__crt_stdio_output@@IEAA_NAEA_J@Z 0000000180057a60 f i libucrtd:output.obj
 0001:00056be0       ??$extract_argument_from_va_list@E_J@?$positional_parameter_base@DV?$string_output_adapter@D@__crt_stdio_output@@@__crt_stdio_output@@IEAA_NAEA_J@Z 0000000180057be0 f i libucrtd:output.obj
 0001:00056d60       ??$extract_argument_from_va_list@E_J@?$positional_parameter_base@_WV?$stream_output_adapter@_W@__crt_stdio_output@@@__crt_stdio_output@@IEAA_NAEA_J@Z 0000000180057d60 f i libucrtd:output.obj
 0001:00056ee0       ??$extract_argument_from_va_list@E_J@?$positional_parameter_base@_WV?$string_output_adapter@_W@__crt_stdio_output@@@__crt_stdio_output@@IEAA_NAEA_J@Z 0000000180057ee0 f i libucrtd:output.obj
 0001:00057060       ??$extract_argument_from_va_list@E_J@?$standard_base@DV?$stream_output_adapter@D@__crt_stdio_output@@@__crt_stdio_output@@IEAA_NAEA_J@Z 0000000180058060 f i libucrtd:output.obj
 0001:000570a0       ??$extract_argument_from_va_list@E_J@?$standard_base@DV?$string_output_adapter@D@__crt_stdio_output@@@__crt_stdio_output@@IEAA_NAEA_J@Z 00000001800580a0 f i libucrtd:output.obj
 0001:000570e0       ??$extract_argument_from_va_list@E_J@?$standard_base@_WV?$stream_output_adapter@_W@__crt_stdio_output@@@__crt_stdio_output@@IEAA_NAEA_J@Z 00000001800580e0 f i libucrtd:output.obj
 0001:00057120       ??$extract_argument_from_va_list@E_J@?$standard_base@_WV?$string_output_adapter@_W@__crt_stdio_output@@@__crt_stdio_output@@IEAA_NAEA_J@Z 0000000180058120 f i libucrtd:output.obj
 0001:00057160       ??$extract_argument_from_va_list@F_J@?$positional_parameter_base@DV?$stream_output_adapter@D@__crt_stdio_output@@@__crt_stdio_output@@IEAA_NAEA_J@Z 0000000180058160 f i libucrtd:output.obj
 0001:000572e0       ??$extract_argument_from_va_list@F_J@?$positional_parameter_base@DV?$string_output_adapter@D@__crt_stdio_output@@@__crt_stdio_output@@IEAA_NAEA_J@Z 00000001800582e0 f i libucrtd:output.obj
 0001:00057460       ??$extract_argument_from_va_list@F_J@?$positional_parameter_base@_WV?$stream_output_adapter@_W@__crt_stdio_output@@@__crt_stdio_output@@IEAA_NAEA_J@Z 0000000180058460 f i libucrtd:output.obj
 0001:000575e0       ??$extract_argument_from_va_list@F_J@?$positional_parameter_base@_WV?$string_output_adapter@_W@__crt_stdio_output@@@__crt_stdio_output@@IEAA_NAEA_J@Z 00000001800585e0 f i libucrtd:output.obj
 0001:00057760       ??$extract_argument_from_va_list@F_J@?$standard_base@DV?$stream_output_adapter@D@__crt_stdio_output@@@__crt_stdio_output@@IEAA_NAEA_J@Z 0000000180058760 f i libucrtd:output.obj
 0001:000577a0       ??$extract_argument_from_va_list@F_J@?$standard_base@DV?$string_output_adapter@D@__crt_stdio_output@@@__crt_stdio_output@@IEAA_NAEA_J@Z 00000001800587a0 f i libucrtd:output.obj
 0001:000577e0       ??$extract_argument_from_va_list@F_J@?$standard_base@_WV?$stream_output_adapter@_W@__crt_stdio_output@@@__crt_stdio_output@@IEAA_NAEA_J@Z 00000001800587e0 f i libucrtd:output.obj
 0001:00057820       ??$extract_argument_from_va_list@F_J@?$standard_base@_WV?$string_output_adapter@_W@__crt_stdio_output@@@__crt_stdio_output@@IEAA_NAEA_J@Z 0000000180058820 f i libucrtd:output.obj
 0001:00057860       ??$extract_argument_from_va_list@GD@?$positional_parameter_base@DV?$stream_output_adapter@D@__crt_stdio_output@@@__crt_stdio_output@@IEAA_NAEAD@Z 0000000180058860 f i libucrtd:output.obj
 0001:000579e0       ??$extract_argument_from_va_list@GD@?$positional_parameter_base@DV?$string_output_adapter@D@__crt_stdio_output@@@__crt_stdio_output@@IEAA_NAEAD@Z 00000001800589e0 f i libucrtd:output.obj
 0001:00057b60       ??$extract_argument_from_va_list@GD@?$standard_base@DV?$stream_output_adapter@D@__crt_stdio_output@@@__crt_stdio_output@@IEAA_NAEAD@Z 0000000180058b60 f i libucrtd:output.obj
 0001:00057b90       ??$extract_argument_from_va_list@GD@?$standard_base@DV?$string_output_adapter@D@__crt_stdio_output@@@__crt_stdio_output@@IEAA_NAEAD@Z 0000000180058b90 f i libucrtd:output.obj
 0001:00057bc0       ??$extract_argument_from_va_list@G_J@?$positional_parameter_base@DV?$stream_output_adapter@D@__crt_stdio_output@@@__crt_stdio_output@@IEAA_NAEA_J@Z 0000000180058bc0 f i libucrtd:output.obj
 0001:00057d40       ??$extract_argument_from_va_list@G_J@?$positional_parameter_base@DV?$string_output_adapter@D@__crt_stdio_output@@@__crt_stdio_output@@IEAA_NAEA_J@Z 0000000180058d40 f i libucrtd:output.obj
 0001:00057ec0       ??$extract_argument_from_va_list@G_J@?$positional_parameter_base@_WV?$stream_output_adapter@_W@__crt_stdio_output@@@__crt_stdio_output@@IEAA_NAEA_J@Z 0000000180058ec0 f i libucrtd:output.obj
 0001:00058040       ??$extract_argument_from_va_list@G_J@?$positional_parameter_base@_WV?$string_output_adapter@_W@__crt_stdio_output@@@__crt_stdio_output@@IEAA_NAEA_J@Z 0000000180059040 f i libucrtd:output.obj
 0001:000581c0       ??$extract_argument_from_va_list@G_J@?$standard_base@DV?$stream_output_adapter@D@__crt_stdio_output@@@__crt_stdio_output@@IEAA_NAEA_J@Z 00000001800591c0 f i libucrtd:output.obj
 0001:00058200       ??$extract_argument_from_va_list@G_J@?$standard_base@DV?$string_output_adapter@D@__crt_stdio_output@@@__crt_stdio_output@@IEAA_NAEA_J@Z 0000000180059200 f i libucrtd:output.obj
 0001:00058240       ??$extract_argument_from_va_list@G_J@?$standard_base@_WV?$stream_output_adapter@_W@__crt_stdio_output@@@__crt_stdio_output@@IEAA_NAEA_J@Z 0000000180059240 f i libucrtd:output.obj
 0001:00058280       ??$extract_argument_from_va_list@G_J@?$standard_base@_WV?$string_output_adapter@_W@__crt_stdio_output@@@__crt_stdio_output@@IEAA_NAEA_J@Z 0000000180059280 f i libucrtd:output.obj
 0001:000582c0       ??$extract_argument_from_va_list@H_J@?$positional_parameter_base@DV?$stream_output_adapter@D@__crt_stdio_output@@@__crt_stdio_output@@IEAA_NAEA_J@Z 00000001800592c0 f i libucrtd:output.obj
 0001:00058440       ??$extract_argument_from_va_list@H_J@?$positional_parameter_base@DV?$string_output_adapter@D@__crt_stdio_output@@@__crt_stdio_output@@IEAA_NAEA_J@Z 0000000180059440 f i libucrtd:output.obj
 0001:000585c0       ??$extract_argument_from_va_list@H_J@?$positional_parameter_base@_WV?$stream_output_adapter@_W@__crt_stdio_output@@@__crt_stdio_output@@IEAA_NAEA_J@Z 00000001800595c0 f i libucrtd:output.obj
 0001:00058740       ??$extract_argument_from_va_list@H_J@?$positional_parameter_base@_WV?$string_output_adapter@_W@__crt_stdio_output@@@__crt_stdio_output@@IEAA_NAEA_J@Z 0000000180059740 f i libucrtd:output.obj
 0001:000588c0       ??$extract_argument_from_va_list@H_J@?$standard_base@DV?$stream_output_adapter@D@__crt_stdio_output@@@__crt_stdio_output@@IEAA_NAEA_J@Z 00000001800598c0 f i libucrtd:output.obj
 0001:000588f0       ??$extract_argument_from_va_list@H_J@?$standard_base@DV?$string_output_adapter@D@__crt_stdio_output@@@__crt_stdio_output@@IEAA_NAEA_J@Z 00000001800598f0 f i libucrtd:output.obj
 0001:00058920       ??$extract_argument_from_va_list@H_J@?$standard_base@_WV?$stream_output_adapter@_W@__crt_stdio_output@@@__crt_stdio_output@@IEAA_NAEA_J@Z 0000000180059920 f i libucrtd:output.obj
 0001:00058950       ??$extract_argument_from_va_list@H_J@?$standard_base@_WV?$string_output_adapter@_W@__crt_stdio_output@@@__crt_stdio_output@@IEAA_NAEA_J@Z 0000000180059950 f i libucrtd:output.obj
 0001:00058980       ??$extract_argument_from_va_list@I_J@?$positional_parameter_base@DV?$stream_output_adapter@D@__crt_stdio_output@@@__crt_stdio_output@@IEAA_NAEA_J@Z 0000000180059980 f i libucrtd:output.obj
 0001:00058b00       ??$extract_argument_from_va_list@I_J@?$positional_parameter_base@DV?$string_output_adapter@D@__crt_stdio_output@@@__crt_stdio_output@@IEAA_NAEA_J@Z 0000000180059b00 f i libucrtd:output.obj
 0001:00058c80       ??$extract_argument_from_va_list@I_J@?$positional_parameter_base@_WV?$stream_output_adapter@_W@__crt_stdio_output@@@__crt_stdio_output@@IEAA_NAEA_J@Z 0000000180059c80 f i libucrtd:output.obj
 0001:00058e00       ??$extract_argument_from_va_list@I_J@?$positional_parameter_base@_WV?$string_output_adapter@_W@__crt_stdio_output@@@__crt_stdio_output@@IEAA_NAEA_J@Z 0000000180059e00 f i libucrtd:output.obj
 0001:00058f80       ??$extract_argument_from_va_list@I_J@?$standard_base@DV?$stream_output_adapter@D@__crt_stdio_output@@@__crt_stdio_output@@IEAA_NAEA_J@Z 0000000180059f80 f i libucrtd:output.obj
 0001:00058fb0       ??$extract_argument_from_va_list@I_J@?$standard_base@DV?$string_output_adapter@D@__crt_stdio_output@@@__crt_stdio_output@@IEAA_NAEA_J@Z 0000000180059fb0 f i libucrtd:output.obj
 0001:00058fe0       ??$extract_argument_from_va_list@I_J@?$standard_base@_WV?$stream_output_adapter@_W@__crt_stdio_output@@@__crt_stdio_output@@IEAA_NAEA_J@Z 0000000180059fe0 f i libucrtd:output.obj
 0001:00059010       ??$extract_argument_from_va_list@I_J@?$standard_base@_WV?$string_output_adapter@_W@__crt_stdio_output@@@__crt_stdio_output@@IEAA_NAEA_J@Z 000000018005a010 f i libucrtd:output.obj
 0001:00059040       ??$extract_argument_from_va_list@PEADPEAD@?$positional_parameter_base@DV?$stream_output_adapter@D@__crt_stdio_output@@@__crt_stdio_output@@IEAA_NAEAPEAD@Z 000000018005a040 f i libucrtd:output.obj
 0001:000591c0       ??$extract_argument_from_va_list@PEADPEAD@?$positional_parameter_base@DV?$string_output_adapter@D@__crt_stdio_output@@@__crt_stdio_output@@IEAA_NAEAPEAD@Z 000000018005a1c0 f i libucrtd:output.obj
 0001:00059340       ??$extract_argument_from_va_list@PEADPEAD@?$positional_parameter_base@_WV?$stream_output_adapter@_W@__crt_stdio_output@@@__crt_stdio_output@@IEAA_NAEAPEAD@Z 000000018005a340 f i libucrtd:output.obj
 0001:000594c0       ??$extract_argument_from_va_list@PEADPEAD@?$positional_parameter_base@_WV?$string_output_adapter@_W@__crt_stdio_output@@@__crt_stdio_output@@IEAA_NAEAPEAD@Z 000000018005a4c0 f i libucrtd:output.obj
 0001:00059640       ??$extract_argument_from_va_list@PEADPEAD@?$standard_base@DV?$stream_output_adapter@D@__crt_stdio_output@@@__crt_stdio_output@@IEAA_NAEAPEAD@Z 000000018005a640 f i libucrtd:output.obj
 0001:00059670       ??$extract_argument_from_va_list@PEADPEAD@?$standard_base@DV?$string_output_adapter@D@__crt_stdio_output@@@__crt_stdio_output@@IEAA_NAEAPEAD@Z 000000018005a670 f i libucrtd:output.obj
 0001:000596a0       ??$extract_argument_from_va_list@PEADPEAD@?$standard_base@_WV?$stream_output_adapter@_W@__crt_stdio_output@@@__crt_stdio_output@@IEAA_NAEAPEAD@Z 000000018005a6a0 f i libucrtd:output.obj
 0001:000596d0       ??$extract_argument_from_va_list@PEADPEAD@?$standard_base@_WV?$string_output_adapter@_W@__crt_stdio_output@@@__crt_stdio_output@@IEAA_NAEAPEAD@Z 000000018005a6d0 f i libucrtd:output.obj
 0001:00059700       ??$extract_argument_from_va_list@PEAUansi_string@?1??type_case_Z@?$output_processor@DV?$stream_output_adapter@D@__crt_stdio_output@@V?$format_validation_base@DV?$stream_output_adapter@D@__crt_stdio_output@@@2@@__crt_stdio_output@@AEAA_NXZ@PEAU1?1??234@AEAA_NXZ@@?$standard_base@DV?$stream_output_adapter@D@__crt_stdio_output@@@__crt_stdio_output@@IEAA_NAEAPEAUansi_string@?1??type_case_Z@?$output_processor@DV?$stream_output_adapter@D@__crt_stdio_output@@V?$format_validation_base@DV?$stream_output_adapter@D@__crt_stdio_output@@@2@@1@AEAA_NXZ@@Z 000000018005a700 f i libucrtd:output.obj
 0001:00059730       ??$extract_argument_from_va_list@PEAUansi_string@?1??type_case_Z@?$output_processor@DV?$stream_output_adapter@D@__crt_stdio_output@@V?$positional_parameter_base@DV?$stream_output_adapter@D@__crt_stdio_output@@@2@@__crt_stdio_output@@AEAA_NXZ@PEAU1?1??234@AEAA_NXZ@@?$positional_parameter_base@DV?$stream_output_adapter@D@__crt_stdio_output@@@__crt_stdio_output@@IEAA_NAEAPEAUansi_string@?1??type_case_Z@?$output_processor@DV?$stream_output_adapter@D@__crt_stdio_output@@V?$positional_parameter_base@DV?$stream_output_adapter@D@__crt_stdio_output@@@2@@1@AEAA_NXZ@@Z 000000018005a730 f i libucrtd:output.obj
 0001:000598b0       ??$extract_argument_from_va_list@PEAUansi_string@?1??type_case_Z@?$output_processor@DV?$stream_output_adapter@D@__crt_stdio_output@@V?$positional_parameter_base@DV?$stream_output_adapter@D@__crt_stdio_output@@@2@@__crt_stdio_output@@AEAA_NXZ@PEAU1?1??234@AEAA_NXZ@@?$standard_base@DV?$stream_output_adapter@D@__crt_stdio_output@@@__crt_stdio_output@@IEAA_NAEAPEAUansi_string@?1??type_case_Z@?$output_processor@DV?$stream_output_adapter@D@__crt_stdio_output@@V?$positional_parameter_base@DV?$stream_output_adapter@D@__crt_stdio_output@@@2@@1@AEAA_NXZ@@Z 000000018005a8b0 f i libucrtd:output.obj
 0001:000598e0       ??$extract_argument_from_va_list@PEAUansi_string@?1??type_case_Z@?$output_processor@DV?$stream_output_adapter@D@__crt_stdio_output@@V?$standard_base@DV?$stream_output_adapter@D@__crt_stdio_output@@@2@@__crt_stdio_output@@AEAA_NXZ@PEAU1?1??234@AEAA_NXZ@@?$standard_base@DV?$stream_output_adapter@D@__crt_stdio_output@@@__crt_stdio_output@@IEAA_NAEAPEAUansi_string@?1??type_case_Z@?$output_processor@DV?$stream_output_adapter@D@__crt_stdio_output@@V?$standard_base@DV?$stream_output_adapter@D@__crt_stdio_output@@@2@@1@AEAA_NXZ@@Z 000000018005a8e0 f i libucrtd:output.obj
 0001:00059910       ??$extract_argument_from_va_list@PEAUansi_string@?1??type_case_Z@?$output_processor@DV?$string_output_adapter@D@__crt_stdio_output@@V?$format_validation_base@DV?$string_output_adapter@D@__crt_stdio_output@@@2@@__crt_stdio_output@@AEAA_NXZ@PEAU1?1??234@AEAA_NXZ@@?$standard_base@DV?$string_output_adapter@D@__crt_stdio_output@@@__crt_stdio_output@@IEAA_NAEAPEAUansi_string@?1??type_case_Z@?$output_processor@DV?$string_output_adapter@D@__crt_stdio_output@@V?$format_validation_base@DV?$string_output_adapter@D@__crt_stdio_output@@@2@@1@AEAA_NXZ@@Z 000000018005a910 f i libucrtd:output.obj
 0001:00059940       ??$extract_argument_from_va_list@PEAUansi_string@?1??type_case_Z@?$output_processor@DV?$string_output_adapter@D@__crt_stdio_output@@V?$positional_parameter_base@DV?$string_output_adapter@D@__crt_stdio_output@@@2@@__crt_stdio_output@@AEAA_NXZ@PEAU1?1??234@AEAA_NXZ@@?$positional_parameter_base@DV?$string_output_adapter@D@__crt_stdio_output@@@__crt_stdio_output@@IEAA_NAEAPEAUansi_string@?1??type_case_Z@?$output_processor@DV?$string_output_adapter@D@__crt_stdio_output@@V?$positional_parameter_base@DV?$string_output_adapter@D@__crt_stdio_output@@@2@@1@AEAA_NXZ@@Z 000000018005a940 f i libucrtd:output.obj
 0001:00059ac0       ??$extract_argument_from_va_list@PEAUansi_string@?1??type_case_Z@?$output_processor@DV?$string_output_adapter@D@__crt_stdio_output@@V?$positional_parameter_base@DV?$string_output_adapter@D@__crt_stdio_output@@@2@@__crt_stdio_output@@AEAA_NXZ@PEAU1?1??234@AEAA_NXZ@@?$standard_base@DV?$string_output_adapter@D@__crt_stdio_output@@@__crt_stdio_output@@IEAA_NAEAPEAUansi_string@?1??type_case_Z@?$output_processor@DV?$string_output_adapter@D@__crt_stdio_output@@V?$positional_parameter_base@DV?$string_output_adapter@D@__crt_stdio_output@@@2@@1@AEAA_NXZ@@Z 000000018005aac0 f i libucrtd:output.obj
 0001:00059af0       ??$extract_argument_from_va_list@PEAUansi_string@?1??type_case_Z@?$output_processor@DV?$string_output_adapter@D@__crt_stdio_output@@V?$standard_base@DV?$string_output_adapter@D@__crt_stdio_output@@@2@@__crt_stdio_output@@AEAA_NXZ@PEAU1?1??234@AEAA_NXZ@@?$standard_base@DV?$string_output_adapter@D@__crt_stdio_output@@@__crt_stdio_output@@IEAA_NAEAPEAUansi_string@?1??type_case_Z@?$output_processor@DV?$string_output_adapter@D@__crt_stdio_output@@V?$standard_base@DV?$string_output_adapter@D@__crt_stdio_output@@@2@@1@AEAA_NXZ@@Z 000000018005aaf0 f i libucrtd:output.obj
 0001:00059b20       ??$extract_argument_from_va_list@PEAUansi_string@?1??type_case_Z@?$output_processor@_WV?$stream_output_adapter@_W@__crt_stdio_output@@V?$format_validation_base@_WV?$stream_output_adapter@_W@__crt_stdio_output@@@2@@__crt_stdio_output@@AEAA_NXZ@PEAU1?1??234@AEAA_NXZ@@?$standard_base@_WV?$stream_output_adapter@_W@__crt_stdio_output@@@__crt_stdio_output@@IEAA_NAEAPEAUansi_string@?1??type_case_Z@?$output_processor@_WV?$stream_output_adapter@_W@__crt_stdio_output@@V?$format_validation_base@_WV?$stream_output_adapter@_W@__crt_stdio_output@@@2@@1@AEAA_NXZ@@Z 000000018005ab20 f i libucrtd:output.obj
 0001:00059b50       ??$extract_argument_from_va_list@PEAUansi_string@?1??type_case_Z@?$output_processor@_WV?$stream_output_adapter@_W@__crt_stdio_output@@V?$positional_parameter_base@_WV?$stream_output_adapter@_W@__crt_stdio_output@@@2@@__crt_stdio_output@@AEAA_NXZ@PEAU1?1??234@AEAA_NXZ@@?$positional_parameter_base@_WV?$stream_output_adapter@_W@__crt_stdio_output@@@__crt_stdio_output@@IEAA_NAEAPEAUansi_string@?1??type_case_Z@?$output_processor@_WV?$stream_output_adapter@_W@__crt_stdio_output@@V?$positional_parameter_base@_WV?$stream_output_adapter@_W@__crt_stdio_output@@@2@@1@AEAA_NXZ@@Z 000000018005ab50 f i libucrtd:output.obj
 0001:00059cd0       ??$extract_argument_from_va_list@PEAUansi_string@?1??type_case_Z@?$output_processor@_WV?$stream_output_adapter@_W@__crt_stdio_output@@V?$positional_parameter_base@_WV?$stream_output_adapter@_W@__crt_stdio_output@@@2@@__crt_stdio_output@@AEAA_NXZ@PEAU1?1??234@AEAA_NXZ@@?$standard_base@_WV?$stream_output_adapter@_W@__crt_stdio_output@@@__crt_stdio_output@@IEAA_NAEAPEAUansi_string@?1??type_case_Z@?$output_processor@_WV?$stream_output_adapter@_W@__crt_stdio_output@@V?$positional_parameter_base@_WV?$stream_output_adapter@_W@__crt_stdio_output@@@2@@1@AEAA_NXZ@@Z 000000018005acd0 f i libucrtd:output.obj
 0001:00059d00       ??$extract_argument_from_va_list@PEAUansi_string@?1??type_case_Z@?$output_processor@_WV?$stream_output_adapter@_W@__crt_stdio_output@@V?$standard_base@_WV?$stream_output_adapter@_W@__crt_stdio_output@@@2@@__crt_stdio_output@@AEAA_NXZ@PEAU1?1??234@AEAA_NXZ@@?$standard_base@_WV?$stream_output_adapter@_W@__crt_stdio_output@@@__crt_stdio_output@@IEAA_NAEAPEAUansi_string@?1??type_case_Z@?$output_processor@_WV?$stream_output_adapter@_W@__crt_stdio_output@@V?$standard_base@_WV?$stream_output_adapter@_W@__crt_stdio_output@@@2@@1@AEAA_NXZ@@Z 000000018005ad00 f i libucrtd:output.obj
 0001:00059d30       ??$extract_argument_from_va_list@PEAUansi_string@?1??type_case_Z@?$output_processor@_WV?$string_output_adapter@_W@__crt_stdio_output@@V?$format_validation_base@_WV?$string_output_adapter@_W@__crt_stdio_output@@@2@@__crt_stdio_output@@AEAA_NXZ@PEAU1?1??234@AEAA_NXZ@@?$standard_base@_WV?$string_output_adapter@_W@__crt_stdio_output@@@__crt_stdio_output@@IEAA_NAEAPEAUansi_string@?1??type_case_Z@?$output_processor@_WV?$string_output_adapter@_W@__crt_stdio_output@@V?$format_validation_base@_WV?$string_output_adapter@_W@__crt_stdio_output@@@2@@1@AEAA_NXZ@@Z 000000018005ad30 f i libucrtd:output.obj
 0001:00059d60       ??$extract_argument_from_va_list@PEAUansi_string@?1??type_case_Z@?$output_processor@_WV?$string_output_adapter@_W@__crt_stdio_output@@V?$positional_parameter_base@_WV?$string_output_adapter@_W@__crt_stdio_output@@@2@@__crt_stdio_output@@AEAA_NXZ@PEAU1?1??234@AEAA_NXZ@@?$positional_parameter_base@_WV?$string_output_adapter@_W@__crt_stdio_output@@@__crt_stdio_output@@IEAA_NAEAPEAUansi_string@?1??type_case_Z@?$output_processor@_WV?$string_output_adapter@_W@__crt_stdio_output@@V?$positional_parameter_base@_WV?$string_output_adapter@_W@__crt_stdio_output@@@2@@1@AEAA_NXZ@@Z 000000018005ad60 f i libucrtd:output.obj
 0001:00059ee0       ??$extract_argument_from_va_list@PEAUansi_string@?1??type_case_Z@?$output_processor@_WV?$string_output_adapter@_W@__crt_stdio_output@@V?$positional_parameter_base@_WV?$string_output_adapter@_W@__crt_stdio_output@@@2@@__crt_stdio_output@@AEAA_NXZ@PEAU1?1??234@AEAA_NXZ@@?$standard_base@_WV?$string_output_adapter@_W@__crt_stdio_output@@@__crt_stdio_output@@IEAA_NAEAPEAUansi_string@?1??type_case_Z@?$output_processor@_WV?$string_output_adapter@_W@__crt_stdio_output@@V?$positional_parameter_base@_WV?$string_output_adapter@_W@__crt_stdio_output@@@2@@1@AEAA_NXZ@@Z 000000018005aee0 f i libucrtd:output.obj
 0001:00059f10       ??$extract_argument_from_va_list@PEAUansi_string@?1??type_case_Z@?$output_processor@_WV?$string_output_adapter@_W@__crt_stdio_output@@V?$standard_base@_WV?$string_output_adapter@_W@__crt_stdio_output@@@2@@__crt_stdio_output@@AEAA_NXZ@PEAU1?1??234@AEAA_NXZ@@?$standard_base@_WV?$string_output_adapter@_W@__crt_stdio_output@@@__crt_stdio_output@@IEAA_NAEAPEAUansi_string@?1??type_case_Z@?$output_processor@_WV?$string_output_adapter@_W@__crt_stdio_output@@V?$standard_base@_WV?$string_output_adapter@_W@__crt_stdio_output@@@2@@1@AEAA_NXZ@@Z 000000018005af10 f i libucrtd:output.obj
 0001:00059f40       ??$extract_argument_from_va_list@PEAXPEAX@?$positional_parameter_base@DV?$stream_output_adapter@D@__crt_stdio_output@@@__crt_stdio_output@@IEAA_NAEAPEAX@Z 000000018005af40 f i libucrtd:output.obj
 0001:0005a0c0       ??$extract_argument_from_va_list@PEAXPEAX@?$positional_parameter_base@DV?$string_output_adapter@D@__crt_stdio_output@@@__crt_stdio_output@@IEAA_NAEAPEAX@Z 000000018005b0c0 f i libucrtd:output.obj
 0001:0005a240       ??$extract_argument_from_va_list@PEAXPEAX@?$positional_parameter_base@_WV?$stream_output_adapter@_W@__crt_stdio_output@@@__crt_stdio_output@@IEAA_NAEAPEAX@Z 000000018005b240 f i libucrtd:output.obj
 0001:0005a3c0       ??$extract_argument_from_va_list@PEAXPEAX@?$positional_parameter_base@_WV?$string_output_adapter@_W@__crt_stdio_output@@@__crt_stdio_output@@IEAA_NAEAPEAX@Z 000000018005b3c0 f i libucrtd:output.obj
 0001:0005a540       ??$extract_argument_from_va_list@PEAXPEAX@?$standard_base@DV?$stream_output_adapter@D@__crt_stdio_output@@@__crt_stdio_output@@IEAA_NAEAPEAX@Z 000000018005b540 f i libucrtd:output.obj
 0001:0005a570       ??$extract_argument_from_va_list@PEAXPEAX@?$standard_base@DV?$string_output_adapter@D@__crt_stdio_output@@@__crt_stdio_output@@IEAA_NAEAPEAX@Z 000000018005b570 f i libucrtd:output.obj
 0001:0005a5a0       ??$extract_argument_from_va_list@PEAXPEAX@?$standard_base@_WV?$stream_output_adapter@_W@__crt_stdio_output@@@__crt_stdio_output@@IEAA_NAEAPEAX@Z 000000018005b5a0 f i libucrtd:output.obj
 0001:0005a5d0       ??$extract_argument_from_va_list@PEAXPEAX@?$standard_base@_WV?$string_output_adapter@_W@__crt_stdio_output@@@__crt_stdio_output@@IEAA_NAEAPEAX@Z 000000018005b5d0 f i libucrtd:output.obj
 0001:0005a600       ??$extract_argument_from_va_list@U_CRT_DOUBLE@@U1@@?$positional_parameter_base@DV?$stream_output_adapter@D@__crt_stdio_output@@@__crt_stdio_output@@IEAA_NAEAU_CRT_DOUBLE@@@Z 000000018005b600 f i libucrtd:output.obj
 0001:0005a7a0       ??$extract_argument_from_va_list@U_CRT_DOUBLE@@U1@@?$positional_parameter_base@DV?$string_output_adapter@D@__crt_stdio_output@@@__crt_stdio_output@@IEAA_NAEAU_CRT_DOUBLE@@@Z 000000018005b7a0 f i libucrtd:output.obj
 0001:0005a940       ??$extract_argument_from_va_list@U_CRT_DOUBLE@@U1@@?$positional_parameter_base@_WV?$stream_output_adapter@_W@__crt_stdio_output@@@__crt_stdio_output@@IEAA_NAEAU_CRT_DOUBLE@@@Z 000000018005b940 f i libucrtd:output.obj
 0001:0005aae0       ??$extract_argument_from_va_list@U_CRT_DOUBLE@@U1@@?$positional_parameter_base@_WV?$string_output_adapter@_W@__crt_stdio_output@@@__crt_stdio_output@@IEAA_NAEAU_CRT_DOUBLE@@@Z 000000018005bae0 f i libucrtd:output.obj
 0001:0005ac80       ??$extract_argument_from_va_list@U_CRT_DOUBLE@@U1@@?$standard_base@DV?$stream_output_adapter@D@__crt_stdio_output@@@__crt_stdio_output@@IEAA_NAEAU_CRT_DOUBLE@@@Z 000000018005bc80 f i libucrtd:output.obj
 0001:0005acd0       ??$extract_argument_from_va_list@U_CRT_DOUBLE@@U1@@?$standard_base@DV?$string_output_adapter@D@__crt_stdio_output@@@__crt_stdio_output@@IEAA_NAEAU_CRT_DOUBLE@@@Z 000000018005bcd0 f i libucrtd:output.obj
 0001:0005ad20       ??$extract_argument_from_va_list@U_CRT_DOUBLE@@U1@@?$standard_base@_WV?$stream_output_adapter@_W@__crt_stdio_output@@@__crt_stdio_output@@IEAA_NAEAU_CRT_DOUBLE@@@Z 000000018005bd20 f i libucrtd:output.obj
 0001:0005ad70       ??$extract_argument_from_va_list@U_CRT_DOUBLE@@U1@@?$standard_base@_WV?$string_output_adapter@_W@__crt_stdio_output@@@__crt_stdio_output@@IEAA_NAEAU_CRT_DOUBLE@@@Z 000000018005bd70 f i libucrtd:output.obj
 0001:0005adc0       ??$extract_argument_from_va_list@_J_J@?$positional_parameter_base@DV?$stream_output_adapter@D@__crt_stdio_output@@@__crt_stdio_output@@IEAA_NAEA_J@Z 000000018005bdc0 f i libucrtd:output.obj
 0001:0005af40       ??$extract_argument_from_va_list@_J_J@?$positional_parameter_base@DV?$string_output_adapter@D@__crt_stdio_output@@@__crt_stdio_output@@IEAA_NAEA_J@Z 000000018005bf40 f i libucrtd:output.obj
 0001:0005b0c0       ??$extract_argument_from_va_list@_J_J@?$positional_parameter_base@_WV?$stream_output_adapter@_W@__crt_stdio_output@@@__crt_stdio_output@@IEAA_NAEA_J@Z 000000018005c0c0 f i libucrtd:output.obj
 0001:0005b240       ??$extract_argument_from_va_list@_J_J@?$positional_parameter_base@_WV?$string_output_adapter@_W@__crt_stdio_output@@@__crt_stdio_output@@IEAA_NAEA_J@Z 000000018005c240 f i libucrtd:output.obj
 0001:0005b3c0       ??$extract_argument_from_va_list@_J_J@?$standard_base@DV?$stream_output_adapter@D@__crt_stdio_output@@@__crt_stdio_output@@IEAA_NAEA_J@Z 000000018005c3c0 f i libucrtd:output.obj
 0001:0005b3f0       ??$extract_argument_from_va_list@_J_J@?$standard_base@DV?$string_output_adapter@D@__crt_stdio_output@@@__crt_stdio_output@@IEAA_NAEA_J@Z 000000018005c3f0 f i libucrtd:output.obj
 0001:0005b420       ??$extract_argument_from_va_list@_J_J@?$standard_base@_WV?$stream_output_adapter@_W@__crt_stdio_output@@@__crt_stdio_output@@IEAA_NAEA_J@Z 000000018005c420 f i libucrtd:output.obj
 0001:0005b450       ??$extract_argument_from_va_list@_J_J@?$standard_base@_WV?$string_output_adapter@_W@__crt_stdio_output@@@__crt_stdio_output@@IEAA_NAEA_J@Z 000000018005c450 f i libucrtd:output.obj
 0001:0005b480       ??$extract_argument_from_va_list@_K_J@?$positional_parameter_base@DV?$stream_output_adapter@D@__crt_stdio_output@@@__crt_stdio_output@@IEAA_NAEA_J@Z 000000018005c480 f i libucrtd:output.obj
 0001:0005b600       ??$extract_argument_from_va_list@_K_J@?$positional_parameter_base@DV?$string_output_adapter@D@__crt_stdio_output@@@__crt_stdio_output@@IEAA_NAEA_J@Z 000000018005c600 f i libucrtd:output.obj
 0001:0005b780       ??$extract_argument_from_va_list@_K_J@?$positional_parameter_base@_WV?$stream_output_adapter@_W@__crt_stdio_output@@@__crt_stdio_output@@IEAA_NAEA_J@Z 000000018005c780 f i libucrtd:output.obj
 0001:0005b900       ??$extract_argument_from_va_list@_K_J@?$positional_parameter_base@_WV?$string_output_adapter@_W@__crt_stdio_output@@@__crt_stdio_output@@IEAA_NAEA_J@Z 000000018005c900 f i libucrtd:output.obj
 0001:0005ba80       ??$extract_argument_from_va_list@_K_J@?$standard_base@DV?$stream_output_adapter@D@__crt_stdio_output@@@__crt_stdio_output@@IEAA_NAEA_J@Z 000000018005ca80 f i libucrtd:output.obj
 0001:0005bab0       ??$extract_argument_from_va_list@_K_J@?$standard_base@DV?$string_output_adapter@D@__crt_stdio_output@@@__crt_stdio_output@@IEAA_NAEA_J@Z 000000018005cab0 f i libucrtd:output.obj
 0001:0005bae0       ??$extract_argument_from_va_list@_K_J@?$standard_base@_WV?$stream_output_adapter@_W@__crt_stdio_output@@@__crt_stdio_output@@IEAA_NAEA_J@Z 000000018005cae0 f i libucrtd:output.obj
 0001:0005bb10       ??$extract_argument_from_va_list@_K_J@?$standard_base@_WV?$string_output_adapter@_W@__crt_stdio_output@@@__crt_stdio_output@@IEAA_NAEA_J@Z 000000018005cb10 f i libucrtd:output.obj
 0001:0005bb40       ??$extract_argument_from_va_list@_W_W@?$positional_parameter_base@DV?$stream_output_adapter@D@__crt_stdio_output@@@__crt_stdio_output@@IEAA_NAEA_W@Z 000000018005cb40 f i libucrtd:output.obj
 0001:0005bcc0       ??$extract_argument_from_va_list@_W_W@?$positional_parameter_base@DV?$string_output_adapter@D@__crt_stdio_output@@@__crt_stdio_output@@IEAA_NAEA_W@Z 000000018005ccc0 f i libucrtd:output.obj
 0001:0005be40       ??$extract_argument_from_va_list@_W_W@?$positional_parameter_base@_WV?$stream_output_adapter@_W@__crt_stdio_output@@@__crt_stdio_output@@IEAA_NAEA_W@Z 000000018005ce40 f i libucrtd:output.obj
 0001:0005bfc0       ??$extract_argument_from_va_list@_W_W@?$positional_parameter_base@_WV?$string_output_adapter@_W@__crt_stdio_output@@@__crt_stdio_output@@IEAA_NAEA_W@Z 000000018005cfc0 f i libucrtd:output.obj
 0001:0005c140       ??$extract_argument_from_va_list@_W_W@?$standard_base@DV?$stream_output_adapter@D@__crt_stdio_output@@@__crt_stdio_output@@IEAA_NAEA_W@Z 000000018005d140 f i libucrtd:output.obj
 0001:0005c170       ??$extract_argument_from_va_list@_W_W@?$standard_base@DV?$string_output_adapter@D@__crt_stdio_output@@@__crt_stdio_output@@IEAA_NAEA_W@Z 000000018005d170 f i libucrtd:output.obj
 0001:0005c1a0       ??$extract_argument_from_va_list@_W_W@?$standard_base@_WV?$stream_output_adapter@_W@__crt_stdio_output@@@__crt_stdio_output@@IEAA_NAEA_W@Z 000000018005d1a0 f i libucrtd:output.obj
 0001:0005c1d0       ??$extract_argument_from_va_list@_W_W@?$standard_base@_WV?$string_output_adapter@_W@__crt_stdio_output@@@__crt_stdio_output@@IEAA_NAEA_W@Z 000000018005d1d0 f i libucrtd:output.obj
 0001:0005c200       ??$get_parameter_type@D@?$positional_parameter_base@DV?$stream_output_adapter@D@__crt_stdio_output@@@__crt_stdio_output@@CA?AW4parameter_type@01@PEAD@Z 000000018005d200 f i libucrtd:output.obj
 0001:0005c210       ??$get_parameter_type@D@?$positional_parameter_base@DV?$string_output_adapter@D@__crt_stdio_output@@@__crt_stdio_output@@CA?AW4parameter_type@01@PEAD@Z 000000018005d210 f i libucrtd:output.obj
 0001:0005c220       ??$get_parameter_type@D@?$positional_parameter_base@_WV?$stream_output_adapter@_W@__crt_stdio_output@@@__crt_stdio_output@@CA?AW4parameter_type@01@PEAD@Z 000000018005d220 f i libucrtd:output.obj
 0001:0005c230       ??$get_parameter_type@D@?$positional_parameter_base@_WV?$string_output_adapter@_W@__crt_stdio_output@@@__crt_stdio_output@@CA?AW4parameter_type@01@PEAD@Z 000000018005d230 f i libucrtd:output.obj
 0001:0005c240       ??$get_parameter_type@Uansi_string@?1??type_case_Z@?$output_processor@DV?$stream_output_adapter@D@__crt_stdio_output@@V?$positional_parameter_base@DV?$stream_output_adapter@D@__crt_stdio_output@@@2@@__crt_stdio_output@@AEAA_NXZ@@?$positional_parameter_base@DV?$stream_output_adapter@D@__crt_stdio_output@@@__crt_stdio_output@@CA?AW4parameter_type@01@PEAUansi_string@?1??type_case_Z@?$output_processor@DV?$stream_output_adapter@D@__crt_stdio_output@@V?$positional_parameter_base@DV?$stream_output_adapter@D@__crt_stdio_output@@@2@@1@AEAA_NXZ@@Z 000000018005d240 f i libucrtd:output.obj
 0001:0005c250       ??$get_parameter_type@Uansi_string@?1??type_case_Z@?$output_processor@DV?$string_output_adapter@D@__crt_stdio_output@@V?$positional_parameter_base@DV?$string_output_adapter@D@__crt_stdio_output@@@2@@__crt_stdio_output@@AEAA_NXZ@@?$positional_parameter_base@DV?$string_output_adapter@D@__crt_stdio_output@@@__crt_stdio_output@@CA?AW4parameter_type@01@PEAUansi_string@?1??type_case_Z@?$output_processor@DV?$string_output_adapter@D@__crt_stdio_output@@V?$positional_parameter_base@DV?$string_output_adapter@D@__crt_stdio_output@@@2@@1@AEAA_NXZ@@Z 000000018005d250 f i libucrtd:output.obj
 0001:0005c260       ??$get_parameter_type@Uansi_string@?1??type_case_Z@?$output_processor@_WV?$stream_output_adapter@_W@__crt_stdio_output@@V?$positional_parameter_base@_WV?$stream_output_adapter@_W@__crt_stdio_output@@@2@@__crt_stdio_output@@AEAA_NXZ@@?$positional_parameter_base@_WV?$stream_output_adapter@_W@__crt_stdio_output@@@__crt_stdio_output@@CA?AW4parameter_type@01@PEAUansi_string@?1??type_case_Z@?$output_processor@_WV?$stream_output_adapter@_W@__crt_stdio_output@@V?$positional_parameter_base@_WV?$stream_output_adapter@_W@__crt_stdio_output@@@2@@1@AEAA_NXZ@@Z 000000018005d260 f i libucrtd:output.obj
 0001:0005c270       ??$get_parameter_type@Uansi_string@?1??type_case_Z@?$output_processor@_WV?$string_output_adapter@_W@__crt_stdio_output@@V?$positional_parameter_base@_WV?$string_output_adapter@_W@__crt_stdio_output@@@2@@__crt_stdio_output@@AEAA_NXZ@@?$positional_parameter_base@_WV?$string_output_adapter@_W@__crt_stdio_output@@@__crt_stdio_output@@CA?AW4parameter_type@01@PEAUansi_string@?1??type_case_Z@?$output_processor@_WV?$string_output_adapter@_W@__crt_stdio_output@@V?$positional_parameter_base@_WV?$string_output_adapter@_W@__crt_stdio_output@@@2@@1@AEAA_NXZ@@Z 000000018005d270 f i libucrtd:output.obj
 0001:0005c280       ??$get_parameter_type@X@?$positional_parameter_base@DV?$stream_output_adapter@D@__crt_stdio_output@@@__crt_stdio_output@@CA?AW4parameter_type@01@PEAX@Z 000000018005d280 f i libucrtd:output.obj
 0001:0005c290       ??$get_parameter_type@X@?$positional_parameter_base@DV?$string_output_adapter@D@__crt_stdio_output@@@__crt_stdio_output@@CA?AW4parameter_type@01@PEAX@Z 000000018005d290 f i libucrtd:output.obj
 0001:0005c2a0       ??$get_parameter_type@X@?$positional_parameter_base@_WV?$stream_output_adapter@_W@__crt_stdio_output@@@__crt_stdio_output@@CA?AW4parameter_type@01@PEAX@Z 000000018005d2a0 f i libucrtd:output.obj
 0001:0005c2b0       ??$get_parameter_type@X@?$positional_parameter_base@_WV?$string_output_adapter@_W@__crt_stdio_output@@@__crt_stdio_output@@CA?AW4parameter_type@01@PEAX@Z 000000018005d2b0 f i libucrtd:output.obj
 0001:0005c2c0       ??$is_character_specifier@D@?$positional_parameter_base@DV?$stream_output_adapter@D@__crt_stdio_output@@@__crt_stdio_output@@CA_ND@Z 000000018005d2c0 f i libucrtd:output.obj
 0001:0005c300       ??$is_character_specifier@D@?$positional_parameter_base@DV?$string_output_adapter@D@__crt_stdio_output@@@__crt_stdio_output@@CA_ND@Z 000000018005d300 f i libucrtd:output.obj
 0001:0005c340       ??$is_character_specifier@_W@?$positional_parameter_base@_WV?$stream_output_adapter@_W@__crt_stdio_output@@@__crt_stdio_output@@CA_N_W@Z 000000018005d340 f i libucrtd:output.obj
 0001:0005c380       ??$is_character_specifier@_W@?$positional_parameter_base@_WV?$string_output_adapter@_W@__crt_stdio_output@@@__crt_stdio_output@@CA_N_W@Z 000000018005d380 f i libucrtd:output.obj
 0001:0005c3c0       ??$is_integral_specifier@D@?$positional_parameter_base@DV?$stream_output_adapter@D@__crt_stdio_output@@@__crt_stdio_output@@CA_ND@Z 000000018005d3c0 f i libucrtd:output.obj
 0001:0005c430       ??$is_integral_specifier@D@?$positional_parameter_base@DV?$string_output_adapter@D@__crt_stdio_output@@@__crt_stdio_output@@CA_ND@Z 000000018005d430 f i libucrtd:output.obj
 0001:0005c4a0       ??$is_integral_specifier@_W@?$positional_parameter_base@_WV?$stream_output_adapter@_W@__crt_stdio_output@@@__crt_stdio_output@@CA_N_W@Z 000000018005d4a0 f i libucrtd:output.obj
 0001:0005c510       ??$is_integral_specifier@_W@?$positional_parameter_base@_WV?$string_output_adapter@_W@__crt_stdio_output@@@__crt_stdio_output@@CA_N_W@Z 000000018005d510 f i libucrtd:output.obj
 0001:0005c580       ??$is_pointer_specifier@D@?$positional_parameter_base@DV?$stream_output_adapter@D@__crt_stdio_output@@@__crt_stdio_output@@CA_ND@Z 000000018005d580 f i libucrtd:output.obj
 0001:0005c5b0       ??$is_pointer_specifier@D@?$positional_parameter_base@DV?$string_output_adapter@D@__crt_stdio_output@@@__crt_stdio_output@@CA_ND@Z 000000018005d5b0 f i libucrtd:output.obj
 0001:0005c5e0       ??$is_pointer_specifier@_W@?$positional_parameter_base@_WV?$stream_output_adapter@_W@__crt_stdio_output@@@__crt_stdio_output@@CA_N_W@Z 000000018005d5e0 f i libucrtd:output.obj
 0001:0005c610       ??$is_pointer_specifier@_W@?$positional_parameter_base@_WV?$string_output_adapter@_W@__crt_stdio_output@@@__crt_stdio_output@@CA_N_W@Z 000000018005d610 f i libucrtd:output.obj
 0001:0005c640       ??$is_string_specifier@D@?$positional_parameter_base@DV?$stream_output_adapter@D@__crt_stdio_output@@@__crt_stdio_output@@CA_ND@Z 000000018005d640 f i libucrtd:output.obj
 0001:0005c680       ??$is_string_specifier@D@?$positional_parameter_base@DV?$string_output_adapter@D@__crt_stdio_output@@@__crt_stdio_output@@CA_ND@Z 000000018005d680 f i libucrtd:output.obj
 0001:0005c6c0       ??$is_string_specifier@_W@?$positional_parameter_base@_WV?$stream_output_adapter@_W@__crt_stdio_output@@@__crt_stdio_output@@CA_N_W@Z 000000018005d6c0 f i libucrtd:output.obj
 0001:0005c700       ??$is_string_specifier@_W@?$positional_parameter_base@_WV?$string_output_adapter@_W@__crt_stdio_output@@@__crt_stdio_output@@CA_N_W@Z 000000018005d700 f i libucrtd:output.obj
 0001:0005c740       ??$is_wide_character_specifier@D@__crt_stdio_output@@YA_N_KDW4length_modifier@0@@Z 000000018005d740 f i libucrtd:output.obj
 0001:0005c7e0       ??$is_wide_character_specifier@_W@__crt_stdio_output@@YA_N_K_WW4length_modifier@0@@Z 000000018005d7e0 f i libucrtd:output.obj
 0001:0005c8b0       ??$peek_va_arg@C@__crt_stdio_output@@YACPEAD@Z 000000018005d8b0 f i libucrtd:output.obj
 0001:0005c910       ??$peek_va_arg@E@__crt_stdio_output@@YAEPEAD@Z 000000018005d910 f i libucrtd:output.obj
 0001:0005c970       ??$peek_va_arg@F@__crt_stdio_output@@YAFPEAD@Z 000000018005d970 f i libucrtd:output.obj
 0001:0005c9d0       ??$peek_va_arg@G@__crt_stdio_output@@YAGPEAD@Z 000000018005d9d0 f i libucrtd:output.obj
 0001:0005ca30       ??$peek_va_arg@H@__crt_stdio_output@@YAHPEAD@Z 000000018005da30 f i libucrtd:output.obj
 0001:0005ca80       ??$peek_va_arg@I@__crt_stdio_output@@YAIPEAD@Z 000000018005da80 f i libucrtd:output.obj
 0001:0005cad0       ??$peek_va_arg@PEAD@__crt_stdio_output@@YAPEADPEAD@Z 000000018005dad0 f i libucrtd:output.obj
 0001:0005cb30       ??$peek_va_arg@PEAUansi_string@?1??type_case_Z@?$output_processor@DV?$stream_output_adapter@D@__crt_stdio_output@@V?$positional_parameter_base@DV?$stream_output_adapter@D@__crt_stdio_output@@@2@@__crt_stdio_output@@AEAA_NXZ@@__crt_stdio_output@@YAPEAUansi_string@?1??type_case_Z@?$output_processor@DV?$stream_output_adapter@D@__crt_stdio_output@@V?$positional_parameter_base@DV?$stream_output_adapter@D@__crt_stdio_output@@@2@@0@AEAA_NXZ@PEAD@Z 000000018005db30 f i libucrtd:output.obj
 0001:0005cb90       ??$peek_va_arg@PEAUansi_string@?1??type_case_Z@?$output_processor@DV?$string_output_adapter@D@__crt_stdio_output@@V?$positional_parameter_base@DV?$string_output_adapter@D@__crt_stdio_output@@@2@@__crt_stdio_output@@AEAA_NXZ@@__crt_stdio_output@@YAPEAUansi_string@?1??type_case_Z@?$output_processor@DV?$string_output_adapter@D@__crt_stdio_output@@V?$positional_parameter_base@DV?$string_output_adapter@D@__crt_stdio_output@@@2@@0@AEAA_NXZ@PEAD@Z 000000018005db90 f i libucrtd:output.obj
 0001:0005cbf0       ??$peek_va_arg@PEAUansi_string@?1??type_case_Z@?$output_processor@_WV?$stream_output_adapter@_W@__crt_stdio_output@@V?$positional_parameter_base@_WV?$stream_output_adapter@_W@__crt_stdio_output@@@2@@__crt_stdio_output@@AEAA_NXZ@@__crt_stdio_output@@YAPEAUansi_string@?1??type_case_Z@?$output_processor@_WV?$stream_output_adapter@_W@__crt_stdio_output@@V?$positional_parameter_base@_WV?$stream_output_adapter@_W@__crt_stdio_output@@@2@@0@AEAA_NXZ@PEAD@Z 000000018005dbf0 f i libucrtd:output.obj
 0001:0005cc50       ??$peek_va_arg@PEAUansi_string@?1??type_case_Z@?$output_processor@_WV?$string_output_adapter@_W@__crt_stdio_output@@V?$positional_parameter_base@_WV?$string_output_adapter@_W@__crt_stdio_output@@@2@@__crt_stdio_output@@AEAA_NXZ@@__crt_stdio_output@@YAPEAUansi_string@?1??type_case_Z@?$output_processor@_WV?$string_output_adapter@_W@__crt_stdio_output@@V?$positional_parameter_base@_WV?$string_output_adapter@_W@__crt_stdio_output@@@2@@0@AEAA_NXZ@PEAD@Z 000000018005dc50 f i libucrtd:output.obj
 0001:0005ccb0       ??$peek_va_arg@PEAX@__crt_stdio_output@@YAPEAXPEAD@Z 000000018005dcb0 f i libucrtd:output.obj
 0001:0005cd10       ??$peek_va_arg@U_CRT_DOUBLE@@@__crt_stdio_output@@YA?AU_CRT_DOUBLE@@PEAD@Z 000000018005dd10 f i libucrtd:output.obj
 0001:0005cd70       ??$peek_va_arg@_J@__crt_stdio_output@@YA_JPEAD@Z 000000018005dd70 f i libucrtd:output.obj
 0001:0005cdd0       ??$peek_va_arg@_K@__crt_stdio_output@@YA_KPEAD@Z 000000018005ddd0 f i libucrtd:output.obj
 0001:0005ce30       ??$peek_va_arg@_W@__crt_stdio_output@@YA_WPEAD@Z 000000018005de30 f i libucrtd:output.obj
 0001:0005ce90       ??$puttc_nolock@AEBDPEAU_iobuf@@@?$__crt_char_traits@D@@SAHAEBD$$QEAPEAU_iobuf@@@Z 000000018005de90 f i libucrtd:output.obj
 0001:0005cec0       ??$puttc_nolock@AEB_WPEAU_iobuf@@@?$__crt_char_traits@_W@@SAGAEB_W$$QEAPEAU_iobuf@@@Z 000000018005dec0 f i libucrtd:output.obj
 0001:0005cef0       ??$read_va_arg@C@__crt_stdio_output@@YACAEAPEAD@Z 000000018005def0 f i libucrtd:output.obj
 0001:0005cf60       ??$read_va_arg@E@__crt_stdio_output@@YAEAEAPEAD@Z 000000018005df60 f i libucrtd:output.obj
 0001:0005cfd0       ??$read_va_arg@F@__crt_stdio_output@@YAFAEAPEAD@Z 000000018005dfd0 f i libucrtd:output.obj
 0001:0005d040       ??$read_va_arg@G@__crt_stdio_output@@YAGAEAPEAD@Z 000000018005e040 f i libucrtd:output.obj
 0001:0005d0b0       ??$read_va_arg@H@__crt_stdio_output@@YAHAEAPEAD@Z 000000018005e0b0 f i libucrtd:output.obj
 0001:0005d110       ??$read_va_arg@I@__crt_stdio_output@@YAIAEAPEAD@Z 000000018005e110 f i libucrtd:output.obj
 0001:0005d170       ??$read_va_arg@PEAD@__crt_stdio_output@@YAPEADAEAPEAD@Z 000000018005e170 f i libucrtd:output.obj
 0001:0005d1e0       ??$read_va_arg@PEAUansi_string@?1??type_case_Z@?$output_processor@DV?$stream_output_adapter@D@__crt_stdio_output@@V?$format_validation_base@DV?$stream_output_adapter@D@__crt_stdio_output@@@2@@__crt_stdio_output@@AEAA_NXZ@@__crt_stdio_output@@YAPEAUansi_string@?1??type_case_Z@?$output_processor@DV?$stream_output_adapter@D@__crt_stdio_output@@V?$format_validation_base@DV?$stream_output_adapter@D@__crt_stdio_output@@@2@@0@AEAA_NXZ@AEAPEAD@Z 000000018005e1e0 f i libucrtd:output.obj
 0001:0005d250       ??$read_va_arg@PEAUansi_string@?1??type_case_Z@?$output_processor@DV?$stream_output_adapter@D@__crt_stdio_output@@V?$positional_parameter_base@DV?$stream_output_adapter@D@__crt_stdio_output@@@2@@__crt_stdio_output@@AEAA_NXZ@@__crt_stdio_output@@YAPEAUansi_string@?1??type_case_Z@?$output_processor@DV?$stream_output_adapter@D@__crt_stdio_output@@V?$positional_parameter_base@DV?$stream_output_adapter@D@__crt_stdio_output@@@2@@0@AEAA_NXZ@AEAPEAD@Z 000000018005e250 f i libucrtd:output.obj
 0001:0005d2c0       ??$read_va_arg@PEAUansi_string@?1??type_case_Z@?$output_processor@DV?$stream_output_adapter@D@__crt_stdio_output@@V?$standard_base@DV?$stream_output_adapter@D@__crt_stdio_output@@@2@@__crt_stdio_output@@AEAA_NXZ@@__crt_stdio_output@@YAPEAUansi_string@?1??type_case_Z@?$output_processor@DV?$stream_output_adapter@D@__crt_stdio_output@@V?$standard_base@DV?$stream_output_adapter@D@__crt_stdio_output@@@2@@0@AEAA_NXZ@AEAPEAD@Z 000000018005e2c0 f i libucrtd:output.obj
 0001:0005d330       ??$read_va_arg@PEAUansi_string@?1??type_case_Z@?$output_processor@DV?$string_output_adapter@D@__crt_stdio_output@@V?$format_validation_base@DV?$string_output_adapter@D@__crt_stdio_output@@@2@@__crt_stdio_output@@AEAA_NXZ@@__crt_stdio_output@@YAPEAUansi_string@?1??type_case_Z@?$output_processor@DV?$string_output_adapter@D@__crt_stdio_output@@V?$format_validation_base@DV?$string_output_adapter@D@__crt_stdio_output@@@2@@0@AEAA_NXZ@AEAPEAD@Z 000000018005e330 f i libucrtd:output.obj
 0001:0005d3a0       ??$read_va_arg@PEAUansi_string@?1??type_case_Z@?$output_processor@DV?$string_output_adapter@D@__crt_stdio_output@@V?$positional_parameter_base@DV?$string_output_adapter@D@__crt_stdio_output@@@2@@__crt_stdio_output@@AEAA_NXZ@@__crt_stdio_output@@YAPEAUansi_string@?1??type_case_Z@?$output_processor@DV?$string_output_adapter@D@__crt_stdio_output@@V?$positional_parameter_base@DV?$string_output_adapter@D@__crt_stdio_output@@@2@@0@AEAA_NXZ@AEAPEAD@Z 000000018005e3a0 f i libucrtd:output.obj
 0001:0005d410       ??$read_va_arg@PEAUansi_string@?1??type_case_Z@?$output_processor@DV?$string_output_adapter@D@__crt_stdio_output@@V?$standard_base@DV?$string_output_adapter@D@__crt_stdio_output@@@2@@__crt_stdio_output@@AEAA_NXZ@@__crt_stdio_output@@YAPEAUansi_string@?1??type_case_Z@?$output_processor@DV?$string_output_adapter@D@__crt_stdio_output@@V?$standard_base@DV?$string_output_adapter@D@__crt_stdio_output@@@2@@0@AEAA_NXZ@AEAPEAD@Z 000000018005e410 f i libucrtd:output.obj
 0001:0005d480       ??$read_va_arg@PEAUansi_string@?1??type_case_Z@?$output_processor@_WV?$stream_output_adapter@_W@__crt_stdio_output@@V?$format_validation_base@_WV?$stream_output_adapter@_W@__crt_stdio_output@@@2@@__crt_stdio_output@@AEAA_NXZ@@__crt_stdio_output@@YAPEAUansi_string@?1??type_case_Z@?$output_processor@_WV?$stream_output_adapter@_W@__crt_stdio_output@@V?$format_validation_base@_WV?$stream_output_adapter@_W@__crt_stdio_output@@@2@@0@AEAA_NXZ@AEAPEAD@Z 000000018005e480 f i libucrtd:output.obj
 0001:0005d4f0       ??$read_va_arg@PEAUansi_string@?1??type_case_Z@?$output_processor@_WV?$stream_output_adapter@_W@__crt_stdio_output@@V?$positional_parameter_base@_WV?$stream_output_adapter@_W@__crt_stdio_output@@@2@@__crt_stdio_output@@AEAA_NXZ@@__crt_stdio_output@@YAPEAUansi_string@?1??type_case_Z@?$output_processor@_WV?$stream_output_adapter@_W@__crt_stdio_output@@V?$positional_parameter_base@_WV?$stream_output_adapter@_W@__crt_stdio_output@@@2@@0@AEAA_NXZ@AEAPEAD@Z 000000018005e4f0 f i libucrtd:output.obj
 0001:0005d560       ??$read_va_arg@PEAUansi_string@?1??type_case_Z@?$output_processor@_WV?$stream_output_adapter@_W@__crt_stdio_output@@V?$standard_base@_WV?$stream_output_adapter@_W@__crt_stdio_output@@@2@@__crt_stdio_output@@AEAA_NXZ@@__crt_stdio_output@@YAPEAUansi_string@?1??type_case_Z@?$output_processor@_WV?$stream_output_adapter@_W@__crt_stdio_output@@V?$standard_base@_WV?$stream_output_adapter@_W@__crt_stdio_output@@@2@@0@AEAA_NXZ@AEAPEAD@Z 000000018005e560 f i libucrtd:output.obj
 0001:0005d5d0       ??$read_va_arg@PEAUansi_string@?1??type_case_Z@?$output_processor@_WV?$string_output_adapter@_W@__crt_stdio_output@@V?$format_validation_base@_WV?$string_output_adapter@_W@__crt_stdio_output@@@2@@__crt_stdio_output@@AEAA_NXZ@@__crt_stdio_output@@YAPEAUansi_string@?1??type_case_Z@?$output_processor@_WV?$string_output_adapter@_W@__crt_stdio_output@@V?$format_validation_base@_WV?$string_output_adapter@_W@__crt_stdio_output@@@2@@0@AEAA_NXZ@AEAPEAD@Z 000000018005e5d0 f i libucrtd:output.obj
 0001:0005d640       ??$read_va_arg@PEAUansi_string@?1??type_case_Z@?$output_processor@_WV?$string_output_adapter@_W@__crt_stdio_output@@V?$positional_parameter_base@_WV?$string_output_adapter@_W@__crt_stdio_output@@@2@@__crt_stdio_output@@AEAA_NXZ@@__crt_stdio_output@@YAPEAUansi_string@?1??type_case_Z@?$output_processor@_WV?$string_output_adapter@_W@__crt_stdio_output@@V?$positional_parameter_base@_WV?$string_output_adapter@_W@__crt_stdio_output@@@2@@0@AEAA_NXZ@AEAPEAD@Z 000000018005e640 f i libucrtd:output.obj
 0001:0005d6b0       ??$read_va_arg@PEAUansi_string@?1??type_case_Z@?$output_processor@_WV?$string_output_adapter@_W@__crt_stdio_output@@V?$standard_base@_WV?$string_output_adapter@_W@__crt_stdio_output@@@2@@__crt_stdio_output@@AEAA_NXZ@@__crt_stdio_output@@YAPEAUansi_string@?1??type_case_Z@?$output_processor@_WV?$string_output_adapter@_W@__crt_stdio_output@@V?$standard_base@_WV?$string_output_adapter@_W@__crt_stdio_output@@@2@@0@AEAA_NXZ@AEAPEAD@Z 000000018005e6b0 f i libucrtd:output.obj
 0001:0005d720       ??$read_va_arg@PEAX@__crt_stdio_output@@YAPEAXAEAPEAD@Z 000000018005e720 f i libucrtd:output.obj
 0001:0005d790       ??$read_va_arg@U_CRT_DOUBLE@@@__crt_stdio_output@@YA?AU_CRT_DOUBLE@@AEAPEAD@Z 000000018005e790 f i libucrtd:output.obj
 0001:0005d800       ??$read_va_arg@_J@__crt_stdio_output@@YA_JAEAPEAD@Z 000000018005e800 f i libucrtd:output.obj
 0001:0005d870       ??$read_va_arg@_K@__crt_stdio_output@@YA_KAEAPEAD@Z 000000018005e870 f i libucrtd:output.obj
 0001:0005d8e0       ??$read_va_arg@_W@__crt_stdio_output@@YA_WAEAPEAD@Z 000000018005e8e0 f i libucrtd:output.obj
 0001:0005d950       ??$scratch_count@D@formatting_buffer@__crt_stdio_output@@QEBA_KXZ 000000018005e950 f i libucrtd:output.obj
 0001:0005d970       ??$scratch_data@D@formatting_buffer@__crt_stdio_output@@QEAAPEADXZ 000000018005e970 f i libucrtd:output.obj
 0001:0005d9e0       ??$tcstol@AEAPEBDPEAPEADH@?$__crt_char_traits@D@@SAJAEAPEBD$$QEAPEAPEAD$$QEAH@Z 000000018005e9e0 f i libucrtd:output.obj
 0001:0005da20       ??$tcstol@AEAPEB_WPEAPEA_WH@?$__crt_char_traits@_W@@SAJAEAPEB_W$$QEAPEAPEA_W$$QEAH@Z 000000018005ea20 f i libucrtd:output.obj
 0001:0005da60       ??$tcstol@PEBDPEAPEADH@?$__crt_char_traits@D@@SAJ$$QEAPEBD$$QEAPEAPEAD$$QEAH@Z 000000018005ea60 f i libucrtd:output.obj
 0001:0005daa0       ??$tcstol@PEB_WPEAPEA_WH@?$__crt_char_traits@_W@@SAJ$$QEAPEB_W$$QEAPEAPEA_W$$QEAH@Z 000000018005eaa0 f i libucrtd:output.obj
 0001:0005dae0       ??$type_case_integer_parse_into_buffer@I@?$output_processor@DV?$stream_output_adapter@D@__crt_stdio_output@@V?$format_validation_base@DV?$stream_output_adapter@D@__crt_stdio_output@@@2@@__crt_stdio_output@@AEAAXII_N@Z 000000018005eae0 f i libucrtd:output.obj
 0001:0005dc10       ??$type_case_integer_parse_into_buffer@I@?$output_processor@DV?$stream_output_adapter@D@__crt_stdio_output@@V?$positional_parameter_base@DV?$stream_output_adapter@D@__crt_stdio_output@@@2@@__crt_stdio_output@@AEAAXII_N@Z 000000018005ec10 f i libucrtd:output.obj
 0001:0005dd40       ??$type_case_integer_parse_into_buffer@I@?$output_processor@DV?$stream_output_adapter@D@__crt_stdio_output@@V?$standard_base@DV?$stream_output_adapter@D@__crt_stdio_output@@@2@@__crt_stdio_output@@AEAAXII_N@Z 000000018005ed40 f i libucrtd:output.obj
 0001:0005de70       ??$type_case_integer_parse_into_buffer@I@?$output_processor@DV?$string_output_adapter@D@__crt_stdio_output@@V?$format_validation_base@DV?$string_output_adapter@D@__crt_stdio_output@@@2@@__crt_stdio_output@@AEAAXII_N@Z 000000018005ee70 f i libucrtd:output.obj
 0001:0005dfa0       ??$type_case_integer_parse_into_buffer@I@?$output_processor@DV?$string_output_adapter@D@__crt_stdio_output@@V?$positional_parameter_base@DV?$string_output_adapter@D@__crt_stdio_output@@@2@@__crt_stdio_output@@AEAAXII_N@Z 000000018005efa0 f i libucrtd:output.obj
 0001:0005e0d0       ??$type_case_integer_parse_into_buffer@I@?$output_processor@DV?$string_output_adapter@D@__crt_stdio_output@@V?$standard_base@DV?$string_output_adapter@D@__crt_stdio_output@@@2@@__crt_stdio_output@@AEAAXII_N@Z 000000018005f0d0 f i libucrtd:output.obj
 0001:0005e200       ??$type_case_integer_parse_into_buffer@I@?$output_processor@_WV?$stream_output_adapter@_W@__crt_stdio_output@@V?$format_validation_base@_WV?$stream_output_adapter@_W@__crt_stdio_output@@@2@@__crt_stdio_output@@AEAAXII_N@Z 000000018005f200 f i libucrtd:output.obj
 0001:0005e340       ??$type_case_integer_parse_into_buffer@I@?$output_processor@_WV?$stream_output_adapter@_W@__crt_stdio_output@@V?$positional_parameter_base@_WV?$stream_output_adapter@_W@__crt_stdio_output@@@2@@__crt_stdio_output@@AEAAXII_N@Z 000000018005f340 f i libucrtd:output.obj
 0001:0005e480       ??$type_case_integer_parse_into_buffer@I@?$output_processor@_WV?$stream_output_adapter@_W@__crt_stdio_output@@V?$standard_base@_WV?$stream_output_adapter@_W@__crt_stdio_output@@@2@@__crt_stdio_output@@AEAAXII_N@Z 000000018005f480 f i libucrtd:output.obj
 0001:0005e5c0       ??$type_case_integer_parse_into_buffer@I@?$output_processor@_WV?$string_output_adapter@_W@__crt_stdio_output@@V?$format_validation_base@_WV?$string_output_adapter@_W@__crt_stdio_output@@@2@@__crt_stdio_output@@AEAAXII_N@Z 000000018005f5c0 f i libucrtd:output.obj
 0001:0005e700       ??$type_case_integer_parse_into_buffer@I@?$output_processor@_WV?$string_output_adapter@_W@__crt_stdio_output@@V?$positional_parameter_base@_WV?$string_output_adapter@_W@__crt_stdio_output@@@2@@__crt_stdio_output@@AEAAXII_N@Z 000000018005f700 f i libucrtd:output.obj
 0001:0005e840       ??$type_case_integer_parse_into_buffer@I@?$output_processor@_WV?$string_output_adapter@_W@__crt_stdio_output@@V?$standard_base@_WV?$string_output_adapter@_W@__crt_stdio_output@@@2@@__crt_stdio_output@@AEAAXII_N@Z 000000018005f840 f i libucrtd:output.obj
 0001:0005e980       ??$type_case_integer_parse_into_buffer@_K@?$output_processor@DV?$stream_output_adapter@D@__crt_stdio_output@@V?$format_validation_base@DV?$stream_output_adapter@D@__crt_stdio_output@@@2@@__crt_stdio_output@@AEAAX_KI_N@Z 000000018005f980 f i libucrtd:output.obj
 0001:0005ead0       ??$type_case_integer_parse_into_buffer@_K@?$output_processor@DV?$stream_output_adapter@D@__crt_stdio_output@@V?$positional_parameter_base@DV?$stream_output_adapter@D@__crt_stdio_output@@@2@@__crt_stdio_output@@AEAAX_KI_N@Z 000000018005fad0 f i libucrtd:output.obj
 0001:0005ec20       ??$type_case_integer_parse_into_buffer@_K@?$output_processor@DV?$stream_output_adapter@D@__crt_stdio_output@@V?$standard_base@DV?$stream_output_adapter@D@__crt_stdio_output@@@2@@__crt_stdio_output@@AEAAX_KI_N@Z 000000018005fc20 f i libucrtd:output.obj
 0001:0005ed70       ??$type_case_integer_parse_into_buffer@_K@?$output_processor@DV?$string_output_adapter@D@__crt_stdio_output@@V?$format_validation_base@DV?$string_output_adapter@D@__crt_stdio_output@@@2@@__crt_stdio_output@@AEAAX_KI_N@Z 000000018005fd70 f i libucrtd:output.obj
 0001:0005eec0       ??$type_case_integer_parse_into_buffer@_K@?$output_processor@DV?$string_output_adapter@D@__crt_stdio_output@@V?$positional_parameter_base@DV?$string_output_adapter@D@__crt_stdio_output@@@2@@__crt_stdio_output@@AEAAX_KI_N@Z 000000018005fec0 f i libucrtd:output.obj
 0001:0005f010       ??$type_case_integer_parse_into_buffer@_K@?$output_processor@DV?$string_output_adapter@D@__crt_stdio_output@@V?$standard_base@DV?$string_output_adapter@D@__crt_stdio_output@@@2@@__crt_stdio_output@@AEAAX_KI_N@Z 0000000180060010 f i libucrtd:output.obj
 0001:0005f160       ??$type_case_integer_parse_into_buffer@_K@?$output_processor@_WV?$stream_output_adapter@_W@__crt_stdio_output@@V?$format_validation_base@_WV?$stream_output_adapter@_W@__crt_stdio_output@@@2@@__crt_stdio_output@@AEAAX_KI_N@Z 0000000180060160 f i libucrtd:output.obj
 0001:0005f2c0       ??$type_case_integer_parse_into_buffer@_K@?$output_processor@_WV?$stream_output_adapter@_W@__crt_stdio_output@@V?$positional_parameter_base@_WV?$stream_output_adapter@_W@__crt_stdio_output@@@2@@__crt_stdio_output@@AEAAX_KI_N@Z 00000001800602c0 f i libucrtd:output.obj
 0001:0005f420       ??$type_case_integer_parse_into_buffer@_K@?$output_processor@_WV?$stream_output_adapter@_W@__crt_stdio_output@@V?$standard_base@_WV?$stream_output_adapter@_W@__crt_stdio_output@@@2@@__crt_stdio_output@@AEAAX_KI_N@Z 0000000180060420 f i libucrtd:output.obj
 0001:0005f580       ??$type_case_integer_parse_into_buffer@_K@?$output_processor@_WV?$string_output_adapter@_W@__crt_stdio_output@@V?$format_validation_base@_WV?$string_output_adapter@_W@__crt_stdio_output@@@2@@__crt_stdio_output@@AEAAX_KI_N@Z 0000000180060580 f i libucrtd:output.obj
 0001:0005f6e0       ??$type_case_integer_parse_into_buffer@_K@?$output_processor@_WV?$string_output_adapter@_W@__crt_stdio_output@@V?$positional_parameter_base@_WV?$string_output_adapter@_W@__crt_stdio_output@@@2@@__crt_stdio_output@@AEAAX_KI_N@Z 00000001800606e0 f i libucrtd:output.obj
 0001:0005f840       ??$type_case_integer_parse_into_buffer@_K@?$output_processor@_WV?$string_output_adapter@_W@__crt_stdio_output@@V?$standard_base@_WV?$string_output_adapter@_W@__crt_stdio_output@@@2@@__crt_stdio_output@@AEAAX_KI_N@Z 0000000180060840 f i libucrtd:output.obj
 0001:0005f9a0       ??$write_multiple_characters@V?$stream_output_adapter@D@__crt_stdio_output@@D@__crt_stdio_output@@YAXAEBV?$stream_output_adapter@D@0@DHQEAH@Z 00000001800609a0 f i libucrtd:output.obj
 0001:0005fa00       ??$write_multiple_characters@V?$stream_output_adapter@_W@__crt_stdio_output@@D@__crt_stdio_output@@YAXAEBV?$stream_output_adapter@_W@0@DHQEAH@Z 0000000180060a00 f i libucrtd:output.obj
 0001:0005fa60       ??$write_multiple_characters@V?$string_output_adapter@D@__crt_stdio_output@@D@__crt_stdio_output@@YAXAEBV?$string_output_adapter@D@0@DHQEAH@Z 0000000180060a60 f i libucrtd:output.obj
 0001:0005fac0       ??$write_multiple_characters@V?$string_output_adapter@_W@__crt_stdio_output@@D@__crt_stdio_output@@YAXAEBV?$string_output_adapter@_W@0@DHQEAH@Z 0000000180060ac0 f i libucrtd:output.obj
 0001:0005fee0       ??0?$common_data@D@__crt_stdio_output@@IEAA@XZ 0000000180060ee0 f i libucrtd:output.obj
 0001:0005ffb0       ??0?$common_data@_W@__crt_stdio_output@@IEAA@XZ 0000000180060fb0 f i libucrtd:output.obj
 0001:00060080       ??0?$output_adapter_data@DV?$stream_output_adapter@D@__crt_stdio_output@@@__crt_stdio_output@@IEAA@AEBV?$stream_output_adapter@D@1@_KQEBDQEAU__crt_locale_pointers@@QEAD@Z 0000000180061080 f i libucrtd:output.obj
 0001:00060100       ??0?$output_adapter_data@DV?$string_output_adapter@D@__crt_stdio_output@@@__crt_stdio_output@@IEAA@AEBV?$string_output_adapter@D@1@_KQEBDQEAU__crt_locale_pointers@@QEAD@Z 0000000180061100 f i libucrtd:output.obj
 0001:00060180       ??0?$output_adapter_data@_WV?$stream_output_adapter@_W@__crt_stdio_output@@@__crt_stdio_output@@IEAA@AEBV?$stream_output_adapter@_W@1@_KQEB_WQEAU__crt_locale_pointers@@QEAD@Z 0000000180061180 f i libucrtd:output.obj
 0001:00060200       ??0?$output_adapter_data@_WV?$string_output_adapter@_W@__crt_stdio_output@@@__crt_stdio_output@@IEAA@AEBV?$string_output_adapter@_W@1@_KQEB_WQEAU__crt_locale_pointers@@QEAD@Z 0000000180061200 f i libucrtd:output.obj
 0001:00060280       ??0?$output_processor@DV?$stream_output_adapter@D@__crt_stdio_output@@V?$format_validation_base@DV?$stream_output_adapter@D@__crt_stdio_output@@@2@@__crt_stdio_output@@QEAA@AEBV?$stream_output_adapter@D@1@_KQEBDQEAU__crt_locale_pointers@@QEAD@Z 0000000180061280 f i libucrtd:output.obj
 0001:000602d0       ??0?$output_processor@DV?$stream_output_adapter@D@__crt_stdio_output@@V?$positional_parameter_base@DV?$stream_output_adapter@D@__crt_stdio_output@@@2@@__crt_stdio_output@@QEAA@AEBV?$stream_output_adapter@D@1@_KQEBDQEAU__crt_locale_pointers@@QEAD@Z 00000001800612d0 f i libucrtd:output.obj
 0001:00060320       ??0?$output_processor@DV?$stream_output_adapter@D@__crt_stdio_output@@V?$standard_base@DV?$stream_output_adapter@D@__crt_stdio_output@@@2@@__crt_stdio_output@@QEAA@AEBV?$stream_output_adapter@D@1@_KQEBDQEAU__crt_locale_pointers@@QEAD@Z 0000000180061320 f i libucrtd:output.obj
 0001:00060370       ??0?$output_processor@DV?$string_output_adapter@D@__crt_stdio_output@@V?$format_validation_base@DV?$string_output_adapter@D@__crt_stdio_output@@@2@@__crt_stdio_output@@QEAA@AEBV?$string_output_adapter@D@1@_KQEBDQEAU__crt_locale_pointers@@QEAD@Z 0000000180061370 f i libucrtd:output.obj
 0001:000603c0       ??0?$output_processor@DV?$string_output_adapter@D@__crt_stdio_output@@V?$positional_parameter_base@DV?$string_output_adapter@D@__crt_stdio_output@@@2@@__crt_stdio_output@@QEAA@AEBV?$string_output_adapter@D@1@_KQEBDQEAU__crt_locale_pointers@@QEAD@Z 00000001800613c0 f i libucrtd:output.obj
 0001:00060410       ??0?$output_processor@DV?$string_output_adapter@D@__crt_stdio_output@@V?$standard_base@DV?$string_output_adapter@D@__crt_stdio_output@@@2@@__crt_stdio_output@@QEAA@AEBV?$string_output_adapter@D@1@_KQEBDQEAU__crt_locale_pointers@@QEAD@Z 0000000180061410 f i libucrtd:output.obj
 0001:00060460       ??0?$output_processor@_WV?$stream_output_adapter@_W@__crt_stdio_output@@V?$format_validation_base@_WV?$stream_output_adapter@_W@__crt_stdio_output@@@2@@__crt_stdio_output@@QEAA@AEBV?$stream_output_adapter@_W@1@_KQEB_WQEAU__crt_locale_pointers@@QEAD@Z 0000000180061460 f i libucrtd:output.obj
 0001:000604b0       ??0?$output_processor@_WV?$stream_output_adapter@_W@__crt_stdio_output@@V?$positional_parameter_base@_WV?$stream_output_adapter@_W@__crt_stdio_output@@@2@@__crt_stdio_output@@QEAA@AEBV?$stream_output_adapter@_W@1@_KQEB_WQEAU__crt_locale_pointers@@QEAD@Z 00000001800614b0 f i libucrtd:output.obj
 0001:00060500       ??0?$output_processor@_WV?$stream_output_adapter@_W@__crt_stdio_output@@V?$standard_base@_WV?$stream_output_adapter@_W@__crt_stdio_output@@@2@@__crt_stdio_output@@QEAA@AEBV?$stream_output_adapter@_W@1@_KQEB_WQEAU__crt_locale_pointers@@QEAD@Z 0000000180061500 f i libucrtd:output.obj
 0001:00060550       ??0?$output_processor@_WV?$string_output_adapter@_W@__crt_stdio_output@@V?$format_validation_base@_WV?$string_output_adapter@_W@__crt_stdio_output@@@2@@__crt_stdio_output@@QEAA@AEBV?$string_output_adapter@_W@1@_KQEB_WQEAU__crt_locale_pointers@@QEAD@Z 0000000180061550 f i libucrtd:output.obj
 0001:000605a0       ??0?$output_processor@_WV?$string_output_adapter@_W@__crt_stdio_output@@V?$positional_parameter_base@_WV?$string_output_adapter@_W@__crt_stdio_output@@@2@@__crt_stdio_output@@QEAA@AEBV?$string_output_adapter@_W@1@_KQEB_WQEAU__crt_locale_pointers@@QEAD@Z 00000001800615a0 f i libucrtd:output.obj
 0001:000605f0       ??0?$output_processor@_WV?$string_output_adapter@_W@__crt_stdio_output@@V?$standard_base@_WV?$string_output_adapter@_W@__crt_stdio_output@@@2@@__crt_stdio_output@@QEAA@AEBV?$string_output_adapter@_W@1@_KQEB_WQEAU__crt_locale_pointers@@QEAD@Z 00000001800615f0 f i libucrtd:output.obj
 0001:00060640       ??0?$stream_output_adapter@D@__crt_stdio_output@@QEAA@QEAU_iobuf@@@Z 0000000180061640 f i libucrtd:output.obj
 0001:00060670       ??0?$stream_output_adapter@_W@__crt_stdio_output@@QEAA@QEAU_iobuf@@@Z 0000000180061670 f i libucrtd:output.obj
 0001:000606a0       ??0?$string_output_adapter@D@__crt_stdio_output@@QEAA@QEAU?$string_output_adapter_context@D@1@@Z 00000001800616a0 f i libucrtd:output.obj
 0001:000606c0       ??0?$string_output_adapter@_W@__crt_stdio_output@@QEAA@QEAU?$string_output_adapter_context@_W@1@@Z 00000001800616c0 f i libucrtd:output.obj
 0001:000606e0       ??0_LocaleUpdate@@QEAA@QEAU__crt_locale_pointers@@@Z 00000001800616e0 f i libucrtd:output.obj
 0001:00060800       ??0__acrt_stdio_temporary_buffering_guard@@QEAA@QEAU_iobuf@@@Z 0000000180061800 f i libucrtd:output.obj
 0001:00060840       ??0__crt_deferred_errno_cache@@QEAA@XZ 0000000180061840 f i libucrtd:output.obj
 0001:00060860       ??0__crt_errno_guard@@QEAA@QEAH@Z 0000000180061860 f i libucrtd:output.obj
 0001:000608a0       ??0__crt_stdio_stream@@QEAA@QEAU_iobuf@@@Z 00000001800618a0 f i libucrtd:output.obj
 0001:000608c0       ??0formatting_buffer@__crt_stdio_output@@QEAA@XZ 00000001800618c0 f i libucrtd:output.obj
 0001:00060900       ??1?$common_data@D@__crt_stdio_output@@QEAA@XZ 0000000180061900 f i libucrtd:output.obj
 0001:00060920       ??1?$common_data@_W@__crt_stdio_output@@QEAA@XZ 0000000180061920 f i libucrtd:output.obj
 0001:00060940       ??1?$format_validation_base@DV?$stream_output_adapter@D@__crt_stdio_output@@@__crt_stdio_output@@QEAA@XZ 0000000180061940 f i libucrtd:output.obj
 0001:00060960       ??1?$format_validation_base@DV?$string_output_adapter@D@__crt_stdio_output@@@__crt_stdio_output@@QEAA@XZ 0000000180061960 f i libucrtd:output.obj
 0001:00060980       ??1?$format_validation_base@_WV?$stream_output_adapter@_W@__crt_stdio_output@@@__crt_stdio_output@@QEAA@XZ 0000000180061980 f i libucrtd:output.obj
 0001:000609a0       ??1?$format_validation_base@_WV?$string_output_adapter@_W@__crt_stdio_output@@@__crt_stdio_output@@QEAA@XZ 00000001800619a0 f i libucrtd:output.obj
 0001:000609c0       ??1?$output_adapter_data@DV?$stream_output_adapter@D@__crt_stdio_output@@@__crt_stdio_output@@QEAA@XZ 00000001800619c0 f i libucrtd:output.obj
 0001:000609e0       ??1?$output_adapter_data@DV?$string_output_adapter@D@__crt_stdio_output@@@__crt_stdio_output@@QEAA@XZ 00000001800619e0 f i libucrtd:output.obj
 0001:00060a00       ??1?$output_adapter_data@_WV?$stream_output_adapter@_W@__crt_stdio_output@@@__crt_stdio_output@@QEAA@XZ 0000000180061a00 f i libucrtd:output.obj
 0001:00060a20       ??1?$output_adapter_data@_WV?$string_output_adapter@_W@__crt_stdio_output@@@__crt_stdio_output@@QEAA@XZ 0000000180061a20 f i libucrtd:output.obj
 0001:00060a40       ??1?$output_processor@DV?$stream_output_adapter@D@__crt_stdio_output@@V?$format_validation_base@DV?$stream_output_adapter@D@__crt_stdio_output@@@2@@__crt_stdio_output@@QEAA@XZ 0000000180061a40 f i libucrtd:output.obj
 0001:00060a60       ??1?$output_processor@DV?$stream_output_adapter@D@__crt_stdio_output@@V?$positional_parameter_base@DV?$stream_output_adapter@D@__crt_stdio_output@@@2@@__crt_stdio_output@@QEAA@XZ 0000000180061a60 f i libucrtd:output.obj
 0001:00060a80       ??1?$output_processor@DV?$stream_output_adapter@D@__crt_stdio_output@@V?$standard_base@DV?$stream_output_adapter@D@__crt_stdio_output@@@2@@__crt_stdio_output@@QEAA@XZ 0000000180061a80 f i libucrtd:output.obj
 0001:00060aa0       ??1?$output_processor@DV?$string_output_adapter@D@__crt_stdio_output@@V?$format_validation_base@DV?$string_output_adapter@D@__crt_stdio_output@@@2@@__crt_stdio_output@@QEAA@XZ 0000000180061aa0 f i libucrtd:output.obj
 0001:00060ac0       ??1?$output_processor@DV?$string_output_adapter@D@__crt_stdio_output@@V?$positional_parameter_base@DV?$string_output_adapter@D@__crt_stdio_output@@@2@@__crt_stdio_output@@QEAA@XZ 0000000180061ac0 f i libucrtd:output.obj
 0001:00060ae0       ??1?$output_processor@DV?$string_output_adapter@D@__crt_stdio_output@@V?$standard_base@DV?$string_output_adapter@D@__crt_stdio_output@@@2@@__crt_stdio_output@@QEAA@XZ 0000000180061ae0 f i libucrtd:output.obj
 0001:00060b00       ??1?$output_processor@_WV?$stream_output_adapter@_W@__crt_stdio_output@@V?$format_validation_base@_WV?$stream_output_adapter@_W@__crt_stdio_output@@@2@@__crt_stdio_output@@QEAA@XZ 0000000180061b00 f i libucrtd:output.obj
 0001:00060b20       ??1?$output_processor@_WV?$stream_output_adapter@_W@__crt_stdio_output@@V?$positional_parameter_base@_WV?$stream_output_adapter@_W@__crt_stdio_output@@@2@@__crt_stdio_output@@QEAA@XZ 0000000180061b20 f i libucrtd:output.obj
 0001:00060b40       ??1?$output_processor@_WV?$stream_output_adapter@_W@__crt_stdio_output@@V?$standard_base@_WV?$stream_output_adapter@_W@__crt_stdio_output@@@2@@__crt_stdio_output@@QEAA@XZ 0000000180061b40 f i libucrtd:output.obj
 0001:00060b60       ??1?$output_processor@_WV?$string_output_adapter@_W@__crt_stdio_output@@V?$format_validation_base@_WV?$string_output_adapter@_W@__crt_stdio_output@@@2@@__crt_stdio_output@@QEAA@XZ 0000000180061b60 f i libucrtd:output.obj
 0001:00060b80       ??1?$output_processor@_WV?$string_output_adapter@_W@__crt_stdio_output@@V?$positional_parameter_base@_WV?$string_output_adapter@_W@__crt_stdio_output@@@2@@__crt_stdio_output@@QEAA@XZ 0000000180061b80 f i libucrtd:output.obj
 0001:00060ba0       ??1?$output_processor@_WV?$string_output_adapter@_W@__crt_stdio_output@@V?$standard_base@_WV?$string_output_adapter@_W@__crt_stdio_output@@@2@@__crt_stdio_output@@QEAA@XZ 0000000180061ba0 f i libucrtd:output.obj
 0001:00060bc0       ??1?$positional_parameter_base@DV?$stream_output_adapter@D@__crt_stdio_output@@@__crt_stdio_output@@QEAA@XZ 0000000180061bc0 f i libucrtd:output.obj
 0001:00060be0       ??1?$positional_parameter_base@DV?$string_output_adapter@D@__crt_stdio_output@@@__crt_stdio_output@@QEAA@XZ 0000000180061be0 f i libucrtd:output.obj
 0001:00060c00       ??1?$positional_parameter_base@_WV?$stream_output_adapter@_W@__crt_stdio_output@@@__crt_stdio_output@@QEAA@XZ 0000000180061c00 f i libucrtd:output.obj
 0001:00060c20       ??1?$positional_parameter_base@_WV?$string_output_adapter@_W@__crt_stdio_output@@@__crt_stdio_output@@QEAA@XZ 0000000180061c20 f i libucrtd:output.obj
 0001:00060c40       ??1?$standard_base@DV?$stream_output_adapter@D@__crt_stdio_output@@@__crt_stdio_output@@QEAA@XZ 0000000180061c40 f i libucrtd:output.obj
 0001:00060c60       ??1?$standard_base@DV?$string_output_adapter@D@__crt_stdio_output@@@__crt_stdio_output@@QEAA@XZ 0000000180061c60 f i libucrtd:output.obj
 0001:00060c80       ??1?$standard_base@_WV?$stream_output_adapter@_W@__crt_stdio_output@@@__crt_stdio_output@@QEAA@XZ 0000000180061c80 f i libucrtd:output.obj
 0001:00060ca0       ??1?$standard_base@_WV?$string_output_adapter@_W@__crt_stdio_output@@@__crt_stdio_output@@QEAA@XZ 0000000180061ca0 f i libucrtd:output.obj
 0001:00060cc0       ??1_LocaleUpdate@@QEAA@XZ  0000000180061cc0 f i libucrtd:output.obj
 0001:00060cf0       ??1__acrt_stdio_temporary_buffering_guard@@QEAA@XZ 0000000180061cf0 f i libucrtd:output.obj
 0001:00060d20       ??1__crt_errno_guard@@QEAA@XZ 0000000180061d20 f i libucrtd:output.obj
 0001:00060d50       ??1formatting_buffer@__crt_stdio_output@@QEAA@XZ 0000000180061d50 f i libucrtd:output.obj
 0001:00060d80       ??4?$__crt_unique_heap_ptr@DU__crt_internal_free_policy@@@@QEAAAEAV0@$$QEAV0@@Z 0000000180061d80 f i libucrtd:output.obj
 0001:00060dc0       ??A?$spectre_mitigated_lookup_table@Ustate_transition_pair@__crt_stdio_output@@$0IA@@__crt_stdio_output@@QEBAAEBUstate_transition_pair@1@_K@Z 0000000180061dc0 f i libucrtd:output.obj
 0001:00060de0       ??C__crt_stdio_stream@@QEBAPEAU__crt_stdio_stream_data@@XZ 0000000180061de0 f i libucrtd:output.obj
 0001:00061690       ?GetLocaleT@_LocaleUpdate@@QEAAPEAU__crt_locale_pointers@@XZ 0000000180062690 f i libucrtd:output.obj
 0001:000616a0       ?__crt_interlocked_read_32@@YAHPEDH@Z 00000001800626a0 f i libucrtd:output.obj
 0001:000616c0       ?adjust_hexit@?$output_processor@DV?$stream_output_adapter@D@__crt_stdio_output@@V?$format_validation_base@DV?$stream_output_adapter@D@__crt_stdio_output@@@2@@__crt_stdio_output@@CADH_N@Z 00000001800626c0 f i libucrtd:output.obj
 0001:00061710       ?adjust_hexit@?$output_processor@DV?$stream_output_adapter@D@__crt_stdio_output@@V?$positional_parameter_base@DV?$stream_output_adapter@D@__crt_stdio_output@@@2@@__crt_stdio_output@@CADH_N@Z 0000000180062710 f i libucrtd:output.obj
 0001:00061760       ?adjust_hexit@?$output_processor@DV?$stream_output_adapter@D@__crt_stdio_output@@V?$standard_base@DV?$stream_output_adapter@D@__crt_stdio_output@@@2@@__crt_stdio_output@@CADH_N@Z 0000000180062760 f i libucrtd:output.obj
 0001:000617b0       ?adjust_hexit@?$output_processor@DV?$string_output_adapter@D@__crt_stdio_output@@V?$format_validation_base@DV?$string_output_adapter@D@__crt_stdio_output@@@2@@__crt_stdio_output@@CADH_N@Z 00000001800627b0 f i libucrtd:output.obj
 0001:00061800       ?adjust_hexit@?$output_processor@DV?$string_output_adapter@D@__crt_stdio_output@@V?$positional_parameter_base@DV?$string_output_adapter@D@__crt_stdio_output@@@2@@__crt_stdio_output@@CADH_N@Z 0000000180062800 f i libucrtd:output.obj
 0001:00061850       ?adjust_hexit@?$output_processor@DV?$string_output_adapter@D@__crt_stdio_output@@V?$standard_base@DV?$string_output_adapter@D@__crt_stdio_output@@@2@@__crt_stdio_output@@CADH_N@Z 0000000180062850 f i libucrtd:output.obj
 0001:000618a0       ?adjust_hexit@?$output_processor@_WV?$stream_output_adapter@_W@__crt_stdio_output@@V?$format_validation_base@_WV?$stream_output_adapter@_W@__crt_stdio_output@@@2@@__crt_stdio_output@@CADH_N@Z 00000001800628a0 f i libucrtd:output.obj
 0001:000618f0       ?adjust_hexit@?$output_processor@_WV?$stream_output_adapter@_W@__crt_stdio_output@@V?$positional_parameter_base@_WV?$stream_output_adapter@_W@__crt_stdio_output@@@2@@__crt_stdio_output@@CADH_N@Z 00000001800628f0 f i libucrtd:output.obj
 0001:00061940       ?adjust_hexit@?$output_processor@_WV?$stream_output_adapter@_W@__crt_stdio_output@@V?$standard_base@_WV?$stream_output_adapter@_W@__crt_stdio_output@@@2@@__crt_stdio_output@@CADH_N@Z 0000000180062940 f i libucrtd:output.obj
 0001:00061990       ?adjust_hexit@?$output_processor@_WV?$string_output_adapter@_W@__crt_stdio_output@@V?$format_validation_base@_WV?$string_output_adapter@_W@__crt_stdio_output@@@2@@__crt_stdio_output@@CADH_N@Z 0000000180062990 f i libucrtd:output.obj
 0001:000619e0       ?adjust_hexit@?$output_processor@_WV?$string_output_adapter@_W@__crt_stdio_output@@V?$positional_parameter_base@_WV?$string_output_adapter@_W@__crt_stdio_output@@@2@@__crt_stdio_output@@CADH_N@Z 00000001800629e0 f i libucrtd:output.obj
 0001:00061a30       ?adjust_hexit@?$output_processor@_WV?$string_output_adapter@_W@__crt_stdio_output@@V?$standard_base@_WV?$string_output_adapter@_W@__crt_stdio_output@@@2@@__crt_stdio_output@@CADH_N@Z 0000000180062a30 f i libucrtd:output.obj
 0001:00061a80       ?advance_to_next_pass@?$positional_parameter_base@DV?$stream_output_adapter@D@__crt_stdio_output@@@__crt_stdio_output@@IEAA_NXZ 0000000180062a80 f i libucrtd:output.obj
 0001:00061b30       ?advance_to_next_pass@?$positional_parameter_base@DV?$string_output_adapter@D@__crt_stdio_output@@@__crt_stdio_output@@IEAA_NXZ 0000000180062b30 f i libucrtd:output.obj
 0001:00061be0       ?advance_to_next_pass@?$positional_parameter_base@_WV?$stream_output_adapter@_W@__crt_stdio_output@@@__crt_stdio_output@@IEAA_NXZ 0000000180062be0 f i libucrtd:output.obj
 0001:00061c90       ?advance_to_next_pass@?$positional_parameter_base@_WV?$string_output_adapter@_W@__crt_stdio_output@@@__crt_stdio_output@@IEAA_NXZ 0000000180062c90 f i libucrtd:output.obj
 0001:00061d40       ?advance_to_next_pass@?$standard_base@DV?$stream_output_adapter@D@__crt_stdio_output@@@__crt_stdio_output@@IEAA_NXZ 0000000180062d40 f i libucrtd:output.obj
 0001:00061d90       ?advance_to_next_pass@?$standard_base@DV?$string_output_adapter@D@__crt_stdio_output@@@__crt_stdio_output@@IEAA_NXZ 0000000180062d90 f i libucrtd:output.obj
 0001:00061de0       ?advance_to_next_pass@?$standard_base@_WV?$stream_output_adapter@_W@__crt_stdio_output@@@__crt_stdio_output@@IEAA_NXZ 0000000180062de0 f i libucrtd:output.obj
 0001:00061e30       ?advance_to_next_pass@?$standard_base@_WV?$string_output_adapter@_W@__crt_stdio_output@@@__crt_stdio_output@@IEAA_NXZ 0000000180062e30 f i libucrtd:output.obj
 0001:00061e80       ?crop_zeroes@__crt_stdio_output@@YAXPEADQEAU__crt_locale_pointers@@@Z 0000000180062e80 f i libucrtd:output.obj
 0001:00061fc0       ?find_next_state@?$output_processor@DV?$stream_output_adapter@D@__crt_stdio_output@@V?$format_validation_base@DV?$stream_output_adapter@D@__crt_stdio_output@@@2@@__crt_stdio_output@@AEBA?AW4state@2@DW432@@Z 0000000180062fc0 f i libucrtd:output.obj
 0001:00062050       ?find_next_state@?$output_processor@DV?$stream_output_adapter@D@__crt_stdio_output@@V?$positional_parameter_base@DV?$stream_output_adapter@D@__crt_stdio_output@@@2@@__crt_stdio_output@@AEBA?AW4state@2@DW432@@Z 0000000180063050 f i libucrtd:output.obj
 0001:000620e0       ?find_next_state@?$output_processor@DV?$stream_output_adapter@D@__crt_stdio_output@@V?$standard_base@DV?$stream_output_adapter@D@__crt_stdio_output@@@2@@__crt_stdio_output@@AEBA?AW4state@2@DW432@@Z 00000001800630e0 f i libucrtd:output.obj
 0001:00062170       ?find_next_state@?$output_processor@DV?$string_output_adapter@D@__crt_stdio_output@@V?$format_validation_base@DV?$string_output_adapter@D@__crt_stdio_output@@@2@@__crt_stdio_output@@AEBA?AW4state@2@DW432@@Z 0000000180063170 f i libucrtd:output.obj
 0001:00062200       ?find_next_state@?$output_processor@DV?$string_output_adapter@D@__crt_stdio_output@@V?$positional_parameter_base@DV?$string_output_adapter@D@__crt_stdio_output@@@2@@__crt_stdio_output@@AEBA?AW4state@2@DW432@@Z 0000000180063200 f i libucrtd:output.obj
 0001:00062290       ?find_next_state@?$output_processor@DV?$string_output_adapter@D@__crt_stdio_output@@V?$standard_base@DV?$string_output_adapter@D@__crt_stdio_output@@@2@@__crt_stdio_output@@AEBA?AW4state@2@DW432@@Z 0000000180063290 f i libucrtd:output.obj
 0001:00062320       ?find_next_state@?$output_processor@_WV?$stream_output_adapter@_W@__crt_stdio_output@@V?$format_validation_base@_WV?$stream_output_adapter@_W@__crt_stdio_output@@@2@@__crt_stdio_output@@AEBA?AW4state@2@_WW432@@Z 0000000180063320 f i libucrtd:output.obj
 0001:000623b0       ?find_next_state@?$output_processor@_WV?$stream_output_adapter@_W@__crt_stdio_output@@V?$positional_parameter_base@_WV?$stream_output_adapter@_W@__crt_stdio_output@@@2@@__crt_stdio_output@@AEBA?AW4state@2@_WW432@@Z 00000001800633b0 f i libucrtd:output.obj
 0001:00062440       ?find_next_state@?$output_processor@_WV?$stream_output_adapter@_W@__crt_stdio_output@@V?$standard_base@_WV?$stream_output_adapter@_W@__crt_stdio_output@@@2@@__crt_stdio_output@@AEBA?AW4state@2@_WW432@@Z 0000000180063440 f i libucrtd:output.obj
 0001:000624d0       ?find_next_state@?$output_processor@_WV?$string_output_adapter@_W@__crt_stdio_output@@V?$format_validation_base@_WV?$string_output_adapter@_W@__crt_stdio_output@@@2@@__crt_stdio_output@@AEBA?AW4state@2@_WW432@@Z 00000001800634d0 f i libucrtd:output.obj
 0001:00062560       ?find_next_state@?$output_processor@_WV?$string_output_adapter@_W@__crt_stdio_output@@V?$positional_parameter_base@_WV?$string_output_adapter@_W@__crt_stdio_output@@@2@@__crt_stdio_output@@AEBA?AW4state@2@_WW432@@Z 0000000180063560 f i libucrtd:output.obj
 0001:000625f0       ?find_next_state@?$output_processor@_WV?$string_output_adapter@_W@__crt_stdio_output@@V?$standard_base@_WV?$string_output_adapter@_W@__crt_stdio_output@@@2@@__crt_stdio_output@@AEBA?AW4state@2@_WW432@@Z 00000001800635f0 f i libucrtd:output.obj
 0001:00062680       ?force_decimal_point@__crt_stdio_output@@YAXPEADQEAU__crt_locale_pointers@@@Z 0000000180063680 f i libucrtd:output.obj
 0001:00062780       ?get@__crt_deferred_errno_cache@@QEAAAEAHXZ 0000000180063780 f i libucrtd:output.obj
 0001:000627b0       ?get_flags@__crt_stdio_stream@@QEBAJXZ 00000001800637b0 f i libucrtd:output.obj
 0001:000627e0       ?get_parameter_type@?$positional_parameter_base@DV?$stream_output_adapter@D@__crt_stdio_output@@@__crt_stdio_output@@CA?AW4parameter_type@12@F@Z 00000001800637e0 f i libucrtd:output.obj
 0001:000627f0       ?get_parameter_type@?$positional_parameter_base@DV?$stream_output_adapter@D@__crt_stdio_output@@@__crt_stdio_output@@CA?AW4parameter_type@12@G@Z 00000001800637f0 f i libucrtd:output.obj
 0001:00062800       ?get_parameter_type@?$positional_parameter_base@DV?$stream_output_adapter@D@__crt_stdio_output@@@__crt_stdio_output@@CA?AW4parameter_type@12@H@Z 0000000180063800 f i libucrtd:output.obj
 0001:00062810       ?get_parameter_type@?$positional_parameter_base@DV?$stream_output_adapter@D@__crt_stdio_output@@@__crt_stdio_output@@CA?AW4parameter_type@12@I@Z 0000000180063810 f i libucrtd:output.obj
 0001:00062820       ?get_parameter_type@?$positional_parameter_base@DV?$stream_output_adapter@D@__crt_stdio_output@@@__crt_stdio_output@@CA?AW4parameter_type@12@U_CRT_DOUBLE@@@Z 0000000180063820 f i libucrtd:output.obj
 0001:00062830       ?get_parameter_type@?$positional_parameter_base@DV?$stream_output_adapter@D@__crt_stdio_output@@@__crt_stdio_output@@CA?AW4parameter_type@12@_J@Z 0000000180063830 f i libucrtd:output.obj
 0001:00062840       ?get_parameter_type@?$positional_parameter_base@DV?$stream_output_adapter@D@__crt_stdio_output@@@__crt_stdio_output@@CA?AW4parameter_type@12@_K@Z 0000000180063840 f i libucrtd:output.obj
 0001:00062850       ?get_parameter_type@?$positional_parameter_base@DV?$stream_output_adapter@D@__crt_stdio_output@@@__crt_stdio_output@@CA?AW4parameter_type@12@_W@Z 0000000180063850 f i libucrtd:output.obj
 0001:00062860       ?get_parameter_type@?$positional_parameter_base@DV?$string_output_adapter@D@__crt_stdio_output@@@__crt_stdio_output@@CA?AW4parameter_type@12@F@Z 0000000180063860 f i libucrtd:output.obj
 0001:00062870       ?get_parameter_type@?$positional_parameter_base@DV?$string_output_adapter@D@__crt_stdio_output@@@__crt_stdio_output@@CA?AW4parameter_type@12@G@Z 0000000180063870 f i libucrtd:output.obj
 0001:00062880       ?get_parameter_type@?$positional_parameter_base@DV?$string_output_adapter@D@__crt_stdio_output@@@__crt_stdio_output@@CA?AW4parameter_type@12@H@Z 0000000180063880 f i libucrtd:output.obj
 0001:00062890       ?get_parameter_type@?$positional_parameter_base@DV?$string_output_adapter@D@__crt_stdio_output@@@__crt_stdio_output@@CA?AW4parameter_type@12@I@Z 0000000180063890 f i libucrtd:output.obj
 0001:000628a0       ?get_parameter_type@?$positional_parameter_base@DV?$string_output_adapter@D@__crt_stdio_output@@@__crt_stdio_output@@CA?AW4parameter_type@12@U_CRT_DOUBLE@@@Z 00000001800638a0 f i libucrtd:output.obj
 0001:000628b0       ?get_parameter_type@?$positional_parameter_base@DV?$string_output_adapter@D@__crt_stdio_output@@@__crt_stdio_output@@CA?AW4parameter_type@12@_J@Z 00000001800638b0 f i libucrtd:output.obj
 0001:000628c0       ?get_parameter_type@?$positional_parameter_base@DV?$string_output_adapter@D@__crt_stdio_output@@@__crt_stdio_output@@CA?AW4parameter_type@12@_K@Z 00000001800638c0 f i libucrtd:output.obj
 0001:000628d0       ?get_parameter_type@?$positional_parameter_base@DV?$string_output_adapter@D@__crt_stdio_output@@@__crt_stdio_output@@CA?AW4parameter_type@12@_W@Z 00000001800638d0 f i libucrtd:output.obj
 0001:000628e0       ?get_parameter_type@?$positional_parameter_base@_WV?$stream_output_adapter@_W@__crt_stdio_output@@@__crt_stdio_output@@CA?AW4parameter_type@12@F@Z 00000001800638e0 f i libucrtd:output.obj
 0001:000628f0       ?get_parameter_type@?$positional_parameter_base@_WV?$stream_output_adapter@_W@__crt_stdio_output@@@__crt_stdio_output@@CA?AW4parameter_type@12@G@Z 00000001800638f0 f i libucrtd:output.obj
 0001:00062900       ?get_parameter_type@?$positional_parameter_base@_WV?$stream_output_adapter@_W@__crt_stdio_output@@@__crt_stdio_output@@CA?AW4parameter_type@12@H@Z 0000000180063900 f i libucrtd:output.obj
 0001:00062910       ?get_parameter_type@?$positional_parameter_base@_WV?$stream_output_adapter@_W@__crt_stdio_output@@@__crt_stdio_output@@CA?AW4parameter_type@12@I@Z 0000000180063910 f i libucrtd:output.obj
 0001:00062920       ?get_parameter_type@?$positional_parameter_base@_WV?$stream_output_adapter@_W@__crt_stdio_output@@@__crt_stdio_output@@CA?AW4parameter_type@12@U_CRT_DOUBLE@@@Z 0000000180063920 f i libucrtd:output.obj
 0001:00062930       ?get_parameter_type@?$positional_parameter_base@_WV?$stream_output_adapter@_W@__crt_stdio_output@@@__crt_stdio_output@@CA?AW4parameter_type@12@_J@Z 0000000180063930 f i libucrtd:output.obj
 0001:00062940       ?get_parameter_type@?$positional_parameter_base@_WV?$stream_output_adapter@_W@__crt_stdio_output@@@__crt_stdio_output@@CA?AW4parameter_type@12@_K@Z 0000000180063940 f i libucrtd:output.obj
 0001:00062950       ?get_parameter_type@?$positional_parameter_base@_WV?$stream_output_adapter@_W@__crt_stdio_output@@@__crt_stdio_output@@CA?AW4parameter_type@12@_W@Z 0000000180063950 f i libucrtd:output.obj
 0001:00062960       ?get_parameter_type@?$positional_parameter_base@_WV?$string_output_adapter@_W@__crt_stdio_output@@@__crt_stdio_output@@CA?AW4parameter_type@12@F@Z 0000000180063960 f i libucrtd:output.obj
 0001:00062970       ?get_parameter_type@?$positional_parameter_base@_WV?$string_output_adapter@_W@__crt_stdio_output@@@__crt_stdio_output@@CA?AW4parameter_type@12@G@Z 0000000180063970 f i libucrtd:output.obj
 0001:00062980       ?get_parameter_type@?$positional_parameter_base@_WV?$string_output_adapter@_W@__crt_stdio_output@@@__crt_stdio_output@@CA?AW4parameter_type@12@H@Z 0000000180063980 f i libucrtd:output.obj
 0001:00062990       ?get_parameter_type@?$positional_parameter_base@_WV?$string_output_adapter@_W@__crt_stdio_output@@@__crt_stdio_output@@CA?AW4parameter_type@12@I@Z 0000000180063990 f i libucrtd:output.obj
 0001:000629a0       ?get_parameter_type@?$positional_parameter_base@_WV?$string_output_adapter@_W@__crt_stdio_output@@@__crt_stdio_output@@CA?AW4parameter_type@12@U_CRT_DOUBLE@@@Z 00000001800639a0 f i libucrtd:output.obj
 0001:000629b0       ?get_parameter_type@?$positional_parameter_base@_WV?$string_output_adapter@_W@__crt_stdio_output@@@__crt_stdio_output@@CA?AW4parameter_type@12@_J@Z 00000001800639b0 f i libucrtd:output.obj
 0001:000629c0       ?get_parameter_type@?$positional_parameter_base@_WV?$string_output_adapter@_W@__crt_stdio_output@@@__crt_stdio_output@@CA?AW4parameter_type@12@_K@Z 00000001800639c0 f i libucrtd:output.obj
 0001:000629d0       ?get_parameter_type@?$positional_parameter_base@_WV?$string_output_adapter@_W@__crt_stdio_output@@@__crt_stdio_output@@CA?AW4parameter_type@12@_W@Z 00000001800639d0 f i libucrtd:output.obj
 0001:000629e0       ?has_flag@?$output_processor@DV?$stream_output_adapter@D@__crt_stdio_output@@V?$format_validation_base@DV?$stream_output_adapter@D@__crt_stdio_output@@@2@@__crt_stdio_output@@AEBA_NI@Z 00000001800639e0 f i libucrtd:output.obj
 0001:00062a20       ?has_flag@?$output_processor@DV?$stream_output_adapter@D@__crt_stdio_output@@V?$positional_parameter_base@DV?$stream_output_adapter@D@__crt_stdio_output@@@2@@__crt_stdio_output@@AEBA_NI@Z 0000000180063a20 f i libucrtd:output.obj
 0001:00062a60       ?has_flag@?$output_processor@DV?$stream_output_adapter@D@__crt_stdio_output@@V?$standard_base@DV?$stream_output_adapter@D@__crt_stdio_output@@@2@@__crt_stdio_output@@AEBA_NI@Z 0000000180063a60 f i libucrtd:output.obj
 0001:00062aa0       ?has_flag@?$output_processor@DV?$string_output_adapter@D@__crt_stdio_output@@V?$format_validation_base@DV?$string_output_adapter@D@__crt_stdio_output@@@2@@__crt_stdio_output@@AEBA_NI@Z 0000000180063aa0 f i libucrtd:output.obj
 0001:00062ae0       ?has_flag@?$output_processor@DV?$string_output_adapter@D@__crt_stdio_output@@V?$positional_parameter_base@DV?$string_output_adapter@D@__crt_stdio_output@@@2@@__crt_stdio_output@@AEBA_NI@Z 0000000180063ae0 f i libucrtd:output.obj
 0001:00062b20       ?has_flag@?$output_processor@DV?$string_output_adapter@D@__crt_stdio_output@@V?$standard_base@DV?$string_output_adapter@D@__crt_stdio_output@@@2@@__crt_stdio_output@@AEBA_NI@Z 0000000180063b20 f i libucrtd:output.obj
 0001:00062b60       ?has_flag@?$output_processor@_WV?$stream_output_adapter@_W@__crt_stdio_output@@V?$format_validation_base@_WV?$stream_output_adapter@_W@__crt_stdio_output@@@2@@__crt_stdio_output@@AEBA_NI@Z 0000000180063b60 f i libucrtd:output.obj
 0001:00062ba0       ?has_flag@?$output_processor@_WV?$stream_output_adapter@_W@__crt_stdio_output@@V?$positional_parameter_base@_WV?$stream_output_adapter@_W@__crt_stdio_output@@@2@@__crt_stdio_output@@AEBA_NI@Z 0000000180063ba0 f i libucrtd:output.obj
 0001:00062be0       ?has_flag@?$output_processor@_WV?$stream_output_adapter@_W@__crt_stdio_output@@V?$standard_base@_WV?$stream_output_adapter@_W@__crt_stdio_output@@@2@@__crt_stdio_output@@AEBA_NI@Z 0000000180063be0 f i libucrtd:output.obj
 0001:00062c20       ?has_flag@?$output_processor@_WV?$string_output_adapter@_W@__crt_stdio_output@@V?$format_validation_base@_WV?$string_output_adapter@_W@__crt_stdio_output@@@2@@__crt_stdio_output@@AEBA_NI@Z 0000000180063c20 f i libucrtd:output.obj
 0001:00062c60       ?has_flag@?$output_processor@_WV?$string_output_adapter@_W@__crt_stdio_output@@V?$positional_parameter_base@_WV?$string_output_adapter@_W@__crt_stdio_output@@@2@@__crt_stdio_output@@AEBA_NI@Z 0000000180063c60 f i libucrtd:output.obj
 0001:00062ca0       ?has_flag@?$output_processor@_WV?$string_output_adapter@_W@__crt_stdio_output@@V?$standard_base@_WV?$string_output_adapter@_W@__crt_stdio_output@@@2@@__crt_stdio_output@@AEBA_NI@Z 0000000180063ca0 f i libucrtd:output.obj
 0001:00062ce0       ?is_positional_parameter_reappearance_consistent@?$positional_parameter_base@DV?$stream_output_adapter@D@__crt_stdio_output@@@__crt_stdio_output@@AEAA_NAEBUparameter_data@12@W4parameter_type@12@DW4length_modifier@2@@Z 0000000180063ce0 f i libucrtd:output.obj
 0001:00062f40       ?is_positional_parameter_reappearance_consistent@?$positional_parameter_base@DV?$string_output_adapter@D@__crt_stdio_output@@@__crt_stdio_output@@AEAA_NAEBUparameter_data@12@W4parameter_type@12@DW4length_modifier@2@@Z 0000000180063f40 f i libucrtd:output.obj
 0001:000631a0       ?is_positional_parameter_reappearance_consistent@?$positional_parameter_base@_WV?$stream_output_adapter@_W@__crt_stdio_output@@@__crt_stdio_output@@AEAA_NAEBUparameter_data@12@W4parameter_type@12@_WW4length_modifier@2@@Z 00000001800641a0 f i libucrtd:output.obj
 0001:00063400       ?is_positional_parameter_reappearance_consistent@?$positional_parameter_base@_WV?$string_output_adapter@_W@__crt_stdio_output@@@__crt_stdio_output@@AEAA_NAEBUparameter_data@12@W4parameter_type@12@_WW4length_modifier@2@@Z 0000000180064400 f i libucrtd:output.obj
 0001:00063660       ?is_string_backed@__crt_stdio_stream@@QEBA_NXZ 0000000180064660 f i libucrtd:output.obj
 0001:000636a0       ?narrow_null_string@?$output_processor@DV?$stream_output_adapter@D@__crt_stdio_output@@V?$format_validation_base@DV?$stream_output_adapter@D@__crt_stdio_output@@@2@@__crt_stdio_output@@CAPEADXZ 00000001800646a0 f i libucrtd:output.obj
 0001:000636b0       ?narrow_null_string@?$output_processor@DV?$stream_output_adapter@D@__crt_stdio_output@@V?$positional_parameter_base@DV?$stream_output_adapter@D@__crt_stdio_output@@@2@@__crt_stdio_output@@CAPEADXZ 00000001800646b0 f i libucrtd:output.obj
 0001:000636c0       ?narrow_null_string@?$output_processor@DV?$stream_output_adapter@D@__crt_stdio_output@@V?$standard_base@DV?$stream_output_adapter@D@__crt_stdio_output@@@2@@__crt_stdio_output@@CAPEADXZ 00000001800646c0 f i libucrtd:output.obj
 0001:000636d0       ?narrow_null_string@?$output_processor@DV?$string_output_adapter@D@__crt_stdio_output@@V?$format_validation_base@DV?$string_output_adapter@D@__crt_stdio_output@@@2@@__crt_stdio_output@@CAPEADXZ 00000001800646d0 f i libucrtd:output.obj
 0001:000636e0       ?narrow_null_string@?$output_processor@DV?$string_output_adapter@D@__crt_stdio_output@@V?$positional_parameter_base@DV?$string_output_adapter@D@__crt_stdio_output@@@2@@__crt_stdio_output@@CAPEADXZ 00000001800646e0 f i libucrtd:output.obj
 0001:000636f0       ?narrow_null_string@?$output_processor@DV?$string_output_adapter@D@__crt_stdio_output@@V?$standard_base@DV?$string_output_adapter@D@__crt_stdio_output@@@2@@__crt_stdio_output@@CAPEADXZ 00000001800646f0 f i libucrtd:output.obj
 0001:00063700       ?narrow_null_string@?$output_processor@_WV?$stream_output_adapter@_W@__crt_stdio_output@@V?$format_validation_base@_WV?$stream_output_adapter@_W@__crt_stdio_output@@@2@@__crt_stdio_output@@CAPEADXZ 0000000180064700 f i libucrtd:output.obj
 0001:00063710       ?narrow_null_string@?$output_processor@_WV?$stream_output_adapter@_W@__crt_stdio_output@@V?$positional_parameter_base@_WV?$stream_output_adapter@_W@__crt_stdio_output@@@2@@__crt_stdio_output@@CAPEADXZ 0000000180064710 f i libucrtd:output.obj
 0001:00063720       ?narrow_null_string@?$output_processor@_WV?$stream_output_adapter@_W@__crt_stdio_output@@V?$standard_base@_WV?$stream_output_adapter@_W@__crt_stdio_output@@@2@@__crt_stdio_output@@CAPEADXZ 0000000180064720 f i libucrtd:output.obj
 0001:00063730       ?narrow_null_string@?$output_processor@_WV?$string_output_adapter@_W@__crt_stdio_output@@V?$format_validation_base@_WV?$string_output_adapter@_W@__crt_stdio_output@@@2@@__crt_stdio_output@@CAPEADXZ 0000000180064730 f i libucrtd:output.obj
 0001:00063740       ?narrow_null_string@?$output_processor@_WV?$string_output_adapter@_W@__crt_stdio_output@@V?$positional_parameter_base@_WV?$string_output_adapter@_W@__crt_stdio_output@@@2@@__crt_stdio_output@@CAPEADXZ 0000000180064740 f i libucrtd:output.obj
 0001:00063750       ?narrow_null_string@?$output_processor@_WV?$string_output_adapter@_W@__crt_stdio_output@@V?$standard_base@_WV?$string_output_adapter@_W@__crt_stdio_output@@@2@@__crt_stdio_output@@CAPEADXZ 0000000180064750 f i libucrtd:output.obj
 0001:00063760       ?parse_int_from_format_string@?$output_processor@DV?$stream_output_adapter@D@__crt_stdio_output@@V?$format_validation_base@DV?$stream_output_adapter@D@__crt_stdio_output@@@2@@__crt_stdio_output@@AEAA_NQEAH@Z 0000000180064760 f i libucrtd:output.obj
 0001:00063850       ?parse_int_from_format_string@?$output_processor@DV?$stream_output_adapter@D@__crt_stdio_output@@V?$positional_parameter_base@DV?$stream_output_adapter@D@__crt_stdio_output@@@2@@__crt_stdio_output@@AEAA_NQEAH@Z 0000000180064850 f i libucrtd:output.obj
 0001:00063940       ?parse_int_from_format_string@?$output_processor@DV?$stream_output_adapter@D@__crt_stdio_output@@V?$standard_base@DV?$stream_output_adapter@D@__crt_stdio_output@@@2@@__crt_stdio_output@@AEAA_NQEAH@Z 0000000180064940 f i libucrtd:output.obj
 0001:00063a30       ?parse_int_from_format_string@?$output_processor@DV?$string_output_adapter@D@__crt_stdio_output@@V?$format_validation_base@DV?$string_output_adapter@D@__crt_stdio_output@@@2@@__crt_stdio_output@@AEAA_NQEAH@Z 0000000180064a30 f i libucrtd:output.obj
 0001:00063b20       ?parse_int_from_format_string@?$output_processor@DV?$string_output_adapter@D@__crt_stdio_output@@V?$positional_parameter_base@DV?$string_output_adapter@D@__crt_stdio_output@@@2@@__crt_stdio_output@@AEAA_NQEAH@Z 0000000180064b20 f i libucrtd:output.obj
 0001:00063c10       ?parse_int_from_format_string@?$output_processor@DV?$string_output_adapter@D@__crt_stdio_output@@V?$standard_base@DV?$string_output_adapter@D@__crt_stdio_output@@@2@@__crt_stdio_output@@AEAA_NQEAH@Z 0000000180064c10 f i libucrtd:output.obj
 0001:00063d00       ?parse_int_from_format_string@?$output_processor@_WV?$stream_output_adapter@_W@__crt_stdio_output@@V?$format_validation_base@_WV?$stream_output_adapter@_W@__crt_stdio_output@@@2@@__crt_stdio_output@@AEAA_NQEAH@Z 0000000180064d00 f i libucrtd:output.obj
 0001:00063df0       ?parse_int_from_format_string@?$output_processor@_WV?$stream_output_adapter@_W@__crt_stdio_output@@V?$positional_parameter_base@_WV?$stream_output_adapter@_W@__crt_stdio_output@@@2@@__crt_stdio_output@@AEAA_NQEAH@Z 0000000180064df0 f i libucrtd:output.obj
 0001:00063ee0       ?parse_int_from_format_string@?$output_processor@_WV?$stream_output_adapter@_W@__crt_stdio_output@@V?$standard_base@_WV?$stream_output_adapter@_W@__crt_stdio_output@@@2@@__crt_stdio_output@@AEAA_NQEAH@Z 0000000180064ee0 f i libucrtd:output.obj
 0001:00063fd0       ?parse_int_from_format_string@?$output_processor@_WV?$string_output_adapter@_W@__crt_stdio_output@@V?$format_validation_base@_WV?$string_output_adapter@_W@__crt_stdio_output@@@2@@__crt_stdio_output@@AEAA_NQEAH@Z 0000000180064fd0 f i libucrtd:output.obj
 0001:000640c0       ?parse_int_from_format_string@?$output_processor@_WV?$string_output_adapter@_W@__crt_stdio_output@@V?$positional_parameter_base@_WV?$string_output_adapter@_W@__crt_stdio_output@@@2@@__crt_stdio_output@@AEAA_NQEAH@Z 00000001800650c0 f i libucrtd:output.obj
 0001:000641b0       ?parse_int_from_format_string@?$output_processor@_WV?$string_output_adapter@_W@__crt_stdio_output@@V?$standard_base@_WV?$string_output_adapter@_W@__crt_stdio_output@@@2@@__crt_stdio_output@@AEAA_NQEAH@Z 00000001800651b0 f i libucrtd:output.obj
 0001:000642a0       ?process@?$output_processor@DV?$stream_output_adapter@D@__crt_stdio_output@@V?$format_validation_base@DV?$stream_output_adapter@D@__crt_stdio_output@@@2@@__crt_stdio_output@@QEAAHXZ 00000001800652a0 f i libucrtd:output.obj
 0001:00064600       ?process@?$output_processor@DV?$stream_output_adapter@D@__crt_stdio_output@@V?$positional_parameter_base@DV?$stream_output_adapter@D@__crt_stdio_output@@@2@@__crt_stdio_output@@QEAAHXZ 0000000180065600 f i libucrtd:output.obj
 0001:00064960       ?process@?$output_processor@DV?$stream_output_adapter@D@__crt_stdio_output@@V?$standard_base@DV?$stream_output_adapter@D@__crt_stdio_output@@@2@@__crt_stdio_output@@QEAAHXZ 0000000180065960 f i libucrtd:output.obj
 0001:00064cc0       ?process@?$output_processor@DV?$string_output_adapter@D@__crt_stdio_output@@V?$format_validation_base@DV?$string_output_adapter@D@__crt_stdio_output@@@2@@__crt_stdio_output@@QEAAHXZ 0000000180065cc0 f i libucrtd:output.obj
 0001:00065020       ?process@?$output_processor@DV?$string_output_adapter@D@__crt_stdio_output@@V?$positional_parameter_base@DV?$string_output_adapter@D@__crt_stdio_output@@@2@@__crt_stdio_output@@QEAAHXZ 0000000180066020 f i libucrtd:output.obj
 0001:00065380       ?process@?$output_processor@DV?$string_output_adapter@D@__crt_stdio_output@@V?$standard_base@DV?$string_output_adapter@D@__crt_stdio_output@@@2@@__crt_stdio_output@@QEAAHXZ 0000000180066380 f i libucrtd:output.obj
 0001:000656e0       ?process@?$output_processor@_WV?$stream_output_adapter@_W@__crt_stdio_output@@V?$format_validation_base@_WV?$stream_output_adapter@_W@__crt_stdio_output@@@2@@__crt_stdio_output@@QEAAHXZ 00000001800666e0 f i libucrtd:output.obj
 0001:00065a40       ?process@?$output_processor@_WV?$stream_output_adapter@_W@__crt_stdio_output@@V?$positional_parameter_base@_WV?$stream_output_adapter@_W@__crt_stdio_output@@@2@@__crt_stdio_output@@QEAAHXZ 0000000180066a40 f i libucrtd:output.obj
 0001:00065da0       ?process@?$output_processor@_WV?$stream_output_adapter@_W@__crt_stdio_output@@V?$standard_base@_WV?$stream_output_adapter@_W@__crt_stdio_output@@@2@@__crt_stdio_output@@QEAAHXZ 0000000180066da0 f i libucrtd:output.obj
 0001:00066100       ?process@?$output_processor@_WV?$string_output_adapter@_W@__crt_stdio_output@@V?$format_validation_base@_WV?$string_output_adapter@_W@__crt_stdio_output@@@2@@__crt_stdio_output@@QEAAHXZ 0000000180067100 f i libucrtd:output.obj
 0001:00066460       ?process@?$output_processor@_WV?$string_output_adapter@_W@__crt_stdio_output@@V?$positional_parameter_base@_WV?$string_output_adapter@_W@__crt_stdio_output@@@2@@__crt_stdio_output@@QEAAHXZ 0000000180067460 f i libucrtd:output.obj
 0001:000667c0       ?process@?$output_processor@_WV?$string_output_adapter@_W@__crt_stdio_output@@V?$standard_base@_WV?$string_output_adapter@_W@__crt_stdio_output@@@2@@__crt_stdio_output@@QEAAHXZ 00000001800677c0 f i libucrtd:output.obj
 0001:00066b20       ?public_stream@__crt_stdio_stream@@QEBAPEAU_iobuf@@XZ 0000000180067b20 f i libucrtd:output.obj
 0001:00066b30       ?set_flag@?$output_processor@DV?$stream_output_adapter@D@__crt_stdio_output@@V?$format_validation_base@DV?$stream_output_adapter@D@__crt_stdio_output@@@2@@__crt_stdio_output@@AEAAXI@Z 0000000180067b30 f i libucrtd:output.obj
 0001:00066b50       ?set_flag@?$output_processor@DV?$stream_output_adapter@D@__crt_stdio_output@@V?$positional_parameter_base@DV?$stream_output_adapter@D@__crt_stdio_output@@@2@@__crt_stdio_output@@AEAAXI@Z 0000000180067b50 f i libucrtd:output.obj
 0001:00066b70       ?set_flag@?$output_processor@DV?$stream_output_adapter@D@__crt_stdio_output@@V?$standard_base@DV?$stream_output_adapter@D@__crt_stdio_output@@@2@@__crt_stdio_output@@AEAAXI@Z 0000000180067b70 f i libucrtd:output.obj
 0001:00066b90       ?set_flag@?$output_processor@DV?$string_output_adapter@D@__crt_stdio_output@@V?$format_validation_base@DV?$string_output_adapter@D@__crt_stdio_output@@@2@@__crt_stdio_output@@AEAAXI@Z 0000000180067b90 f i libucrtd:output.obj
 0001:00066bb0       ?set_flag@?$output_processor@DV?$string_output_adapter@D@__crt_stdio_output@@V?$positional_parameter_base@DV?$string_output_adapter@D@__crt_stdio_output@@@2@@__crt_stdio_output@@AEAAXI@Z 0000000180067bb0 f i libucrtd:output.obj
 0001:00066bd0       ?set_flag@?$output_processor@DV?$string_output_adapter@D@__crt_stdio_output@@V?$standard_base@DV?$string_output_adapter@D@__crt_stdio_output@@@2@@__crt_stdio_output@@AEAAXI@Z 0000000180067bd0 f i libucrtd:output.obj
 0001:00066bf0       ?set_flag@?$output_processor@_WV?$stream_output_adapter@_W@__crt_stdio_output@@V?$format_validation_base@_WV?$stream_output_adapter@_W@__crt_stdio_output@@@2@@__crt_stdio_output@@AEAAXI@Z 0000000180067bf0 f i libucrtd:output.obj
 0001:00066c10       ?set_flag@?$output_processor@_WV?$stream_output_adapter@_W@__crt_stdio_output@@V?$positional_parameter_base@_WV?$stream_output_adapter@_W@__crt_stdio_output@@@2@@__crt_stdio_output@@AEAAXI@Z 0000000180067c10 f i libucrtd:output.obj
 0001:00066c30       ?set_flag@?$output_processor@_WV?$stream_output_adapter@_W@__crt_stdio_output@@V?$standard_base@_WV?$stream_output_adapter@_W@__crt_stdio_output@@@2@@__crt_stdio_output@@AEAAXI@Z 0000000180067c30 f i libucrtd:output.obj
 0001:00066c50       ?set_flag@?$output_processor@_WV?$string_output_adapter@_W@__crt_stdio_output@@V?$format_validation_base@_WV?$string_output_adapter@_W@__crt_stdio_output@@@2@@__crt_stdio_output@@AEAAXI@Z 0000000180067c50 f i libucrtd:output.obj
 0001:00066c70       ?set_flag@?$output_processor@_WV?$string_output_adapter@_W@__crt_stdio_output@@V?$positional_parameter_base@_WV?$string_output_adapter@_W@__crt_stdio_output@@@2@@__crt_stdio_output@@AEAAXI@Z 0000000180067c70 f i libucrtd:output.obj
 0001:00066c90       ?set_flag@?$output_processor@_WV?$string_output_adapter@_W@__crt_stdio_output@@V?$standard_base@_WV?$string_output_adapter@_W@__crt_stdio_output@@@2@@__crt_stdio_output@@AEAAXI@Z 0000000180067c90 f i libucrtd:output.obj
 0001:00066cb0       ?should_format@?$positional_parameter_base@DV?$stream_output_adapter@D@__crt_stdio_output@@@__crt_stdio_output@@IEAA_NXZ 0000000180067cb0 f i libucrtd:output.obj
 0001:00066cf0       ?should_format@?$positional_parameter_base@DV?$string_output_adapter@D@__crt_stdio_output@@@__crt_stdio_output@@IEAA_NXZ 0000000180067cf0 f i libucrtd:output.obj
 0001:00066d30       ?should_format@?$positional_parameter_base@_WV?$stream_output_adapter@_W@__crt_stdio_output@@@__crt_stdio_output@@IEAA_NXZ 0000000180067d30 f i libucrtd:output.obj
 0001:00066d70       ?should_format@?$positional_parameter_base@_WV?$string_output_adapter@_W@__crt_stdio_output@@@__crt_stdio_output@@IEAA_NXZ 0000000180067d70 f i libucrtd:output.obj
 0001:00066db0       ?should_format@?$standard_base@DV?$stream_output_adapter@D@__crt_stdio_output@@@__crt_stdio_output@@IEAA_NXZ 0000000180067db0 f i libucrtd:output.obj
 0001:00066dc0       ?should_format@?$standard_base@DV?$string_output_adapter@D@__crt_stdio_output@@@__crt_stdio_output@@IEAA_NXZ 0000000180067dc0 f i libucrtd:output.obj
 0001:00066dd0       ?should_format@?$standard_base@_WV?$stream_output_adapter@_W@__crt_stdio_output@@@__crt_stdio_output@@IEAA_NXZ 0000000180067dd0 f i libucrtd:output.obj
 0001:00066de0       ?should_format@?$standard_base@_WV?$string_output_adapter@_W@__crt_stdio_output@@@__crt_stdio_output@@IEAA_NXZ 0000000180067de0 f i libucrtd:output.obj
 0001:00066df0       ?should_skip_normal_state_processing@?$positional_parameter_base@DV?$stream_output_adapter@D@__crt_stdio_output@@@__crt_stdio_output@@IEAA_NXZ 0000000180067df0 f i libucrtd:output.obj
 0001:00066e40       ?should_skip_normal_state_processing@?$positional_parameter_base@DV?$string_output_adapter@D@__crt_stdio_output@@@__crt_stdio_output@@IEAA_NXZ 0000000180067e40 f i libucrtd:output.obj
 0001:00066e90       ?should_skip_normal_state_processing@?$positional_parameter_base@_WV?$stream_output_adapter@_W@__crt_stdio_output@@@__crt_stdio_output@@IEAA_NXZ 0000000180067e90 f i libucrtd:output.obj
 0001:00066ee0       ?should_skip_normal_state_processing@?$positional_parameter_base@_WV?$string_output_adapter@_W@__crt_stdio_output@@@__crt_stdio_output@@IEAA_NXZ 0000000180067ee0 f i libucrtd:output.obj
 0001:00066f30       ?should_skip_normal_state_processing@?$standard_base@DV?$stream_output_adapter@D@__crt_stdio_output@@@__crt_stdio_output@@IEAA_NXZ 0000000180067f30 f i libucrtd:output.obj
 0001:00066f40       ?should_skip_normal_state_processing@?$standard_base@DV?$string_output_adapter@D@__crt_stdio_output@@@__crt_stdio_output@@IEAA_NXZ 0000000180067f40 f i libucrtd:output.obj
 0001:00066f50       ?should_skip_normal_state_processing@?$standard_base@_WV?$stream_output_adapter@_W@__crt_stdio_output@@@__crt_stdio_output@@IEAA_NXZ 0000000180067f50 f i libucrtd:output.obj
 0001:00066f60       ?should_skip_normal_state_processing@?$standard_base@_WV?$string_output_adapter@_W@__crt_stdio_output@@@__crt_stdio_output@@IEAA_NXZ 0000000180067f60 f i libucrtd:output.obj
 0001:00066f70       ?should_skip_type_state_output@?$positional_parameter_base@DV?$stream_output_adapter@D@__crt_stdio_output@@@__crt_stdio_output@@IEBA_NXZ 0000000180067f70 f i libucrtd:output.obj
 0001:00066fb0       ?should_skip_type_state_output@?$positional_parameter_base@DV?$string_output_adapter@D@__crt_stdio_output@@@__crt_stdio_output@@IEBA_NXZ 0000000180067fb0 f i libucrtd:output.obj
 0001:00066ff0       ?should_skip_type_state_output@?$positional_parameter_base@_WV?$stream_output_adapter@_W@__crt_stdio_output@@@__crt_stdio_output@@IEBA_NXZ 0000000180067ff0 f i libucrtd:output.obj
 0001:00067030       ?should_skip_type_state_output@?$positional_parameter_base@_WV?$string_output_adapter@_W@__crt_stdio_output@@@__crt_stdio_output@@IEBA_NXZ 0000000180068030 f i libucrtd:output.obj
 0001:00067070       ?should_skip_type_state_output@?$standard_base@DV?$stream_output_adapter@D@__crt_stdio_output@@@__crt_stdio_output@@IEBA_NXZ 0000000180068070 f i libucrtd:output.obj
 0001:00067080       ?should_skip_type_state_output@?$standard_base@DV?$string_output_adapter@D@__crt_stdio_output@@@__crt_stdio_output@@IEBA_NXZ 0000000180068080 f i libucrtd:output.obj
 0001:00067090       ?should_skip_type_state_output@?$standard_base@_WV?$stream_output_adapter@_W@__crt_stdio_output@@@__crt_stdio_output@@IEBA_NXZ 0000000180068090 f i libucrtd:output.obj
 0001:000670a0       ?should_skip_type_state_output@?$standard_base@_WV?$string_output_adapter@_W@__crt_stdio_output@@@__crt_stdio_output@@IEBA_NXZ 00000001800680a0 f i libucrtd:output.obj
 0001:000670b0       ?state_case_dot@?$output_processor@DV?$stream_output_adapter@D@__crt_stdio_output@@V?$format_validation_base@DV?$stream_output_adapter@D@__crt_stdio_output@@@2@@__crt_stdio_output@@AEAA_NXZ 00000001800680b0 f i libucrtd:output.obj
 0001:000670d0       ?state_case_dot@?$output_processor@DV?$stream_output_adapter@D@__crt_stdio_output@@V?$positional_parameter_base@DV?$stream_output_adapter@D@__crt_stdio_output@@@2@@__crt_stdio_output@@AEAA_NXZ 00000001800680d0 f i libucrtd:output.obj
 0001:000670f0       ?state_case_dot@?$output_processor@DV?$stream_output_adapter@D@__crt_stdio_output@@V?$standard_base@DV?$stream_output_adapter@D@__crt_stdio_output@@@2@@__crt_stdio_output@@AEAA_NXZ 00000001800680f0 f i libucrtd:output.obj
 0001:00067110       ?state_case_dot@?$output_processor@DV?$string_output_adapter@D@__crt_stdio_output@@V?$format_validation_base@DV?$string_output_adapter@D@__crt_stdio_output@@@2@@__crt_stdio_output@@AEAA_NXZ 0000000180068110 f i libucrtd:output.obj
 0001:00067130       ?state_case_dot@?$output_processor@DV?$string_output_adapter@D@__crt_stdio_output@@V?$positional_parameter_base@DV?$string_output_adapter@D@__crt_stdio_output@@@2@@__crt_stdio_output@@AEAA_NXZ 0000000180068130 f i libucrtd:output.obj
 0001:00067150       ?state_case_dot@?$output_processor@DV?$string_output_adapter@D@__crt_stdio_output@@V?$standard_base@DV?$string_output_adapter@D@__crt_stdio_output@@@2@@__crt_stdio_output@@AEAA_NXZ 0000000180068150 f i libucrtd:output.obj
 0001:00067170       ?state_case_dot@?$output_processor@_WV?$stream_output_adapter@_W@__crt_stdio_output@@V?$format_validation_base@_WV?$stream_output_adapter@_W@__crt_stdio_output@@@2@@__crt_stdio_output@@AEAA_NXZ 0000000180068170 f i libucrtd:output.obj
 0001:00067190       ?state_case_dot@?$output_processor@_WV?$stream_output_adapter@_W@__crt_stdio_output@@V?$positional_parameter_base@_WV?$stream_output_adapter@_W@__crt_stdio_output@@@2@@__crt_stdio_output@@AEAA_NXZ 0000000180068190 f i libucrtd:output.obj
 0001:000671b0       ?state_case_dot@?$output_processor@_WV?$stream_output_adapter@_W@__crt_stdio_output@@V?$standard_base@_WV?$stream_output_adapter@_W@__crt_stdio_output@@@2@@__crt_stdio_output@@AEAA_NXZ 00000001800681b0 f i libucrtd:output.obj
 0001:000671d0       ?state_case_dot@?$output_processor@_WV?$string_output_adapter@_W@__crt_stdio_output@@V?$format_validation_base@_WV?$string_output_adapter@_W@__crt_stdio_output@@@2@@__crt_stdio_output@@AEAA_NXZ 00000001800681d0 f i libucrtd:output.obj
 0001:000671f0       ?state_case_dot@?$output_processor@_WV?$string_output_adapter@_W@__crt_stdio_output@@V?$positional_parameter_base@_WV?$string_output_adapter@_W@__crt_stdio_output@@@2@@__crt_stdio_output@@AEAA_NXZ 00000001800681f0 f i libucrtd:output.obj
 0001:00067210       ?state_case_dot@?$output_processor@_WV?$string_output_adapter@_W@__crt_stdio_output@@V?$standard_base@_WV?$string_output_adapter@_W@__crt_stdio_output@@@2@@__crt_stdio_output@@AEAA_NXZ 0000000180068210 f i libucrtd:output.obj
 0001:00067230       ?state_case_flag@?$output_processor@DV?$stream_output_adapter@D@__crt_stdio_output@@V?$format_validation_base@DV?$stream_output_adapter@D@__crt_stdio_output@@@2@@__crt_stdio_output@@AEAA_NXZ 0000000180068230 f i libucrtd:output.obj
 0001:000672d0       ?state_case_flag@?$output_processor@DV?$stream_output_adapter@D@__crt_stdio_output@@V?$positional_parameter_base@DV?$stream_output_adapter@D@__crt_stdio_output@@@2@@__crt_stdio_output@@AEAA_NXZ 00000001800682d0 f i libucrtd:output.obj
 0001:00067370       ?state_case_flag@?$output_processor@DV?$stream_output_adapter@D@__crt_stdio_output@@V?$standard_base@DV?$stream_output_adapter@D@__crt_stdio_output@@@2@@__crt_stdio_output@@AEAA_NXZ 0000000180068370 f i libucrtd:output.obj
 0001:00067410       ?state_case_flag@?$output_processor@DV?$string_output_adapter@D@__crt_stdio_output@@V?$format_validation_base@DV?$string_output_adapter@D@__crt_stdio_output@@@2@@__crt_stdio_output@@AEAA_NXZ 0000000180068410 f i libucrtd:output.obj
 0001:000674b0       ?state_case_flag@?$output_processor@DV?$string_output_adapter@D@__crt_stdio_output@@V?$positional_parameter_base@DV?$string_output_adapter@D@__crt_stdio_output@@@2@@__crt_stdio_output@@AEAA_NXZ 00000001800684b0 f i libucrtd:output.obj
 0001:00067550       ?state_case_flag@?$output_processor@DV?$string_output_adapter@D@__crt_stdio_output@@V?$standard_base@DV?$string_output_adapter@D@__crt_stdio_output@@@2@@__crt_stdio_output@@AEAA_NXZ 0000000180068550 f i libucrtd:output.obj
 0001:000675f0       ?state_case_flag@?$output_processor@_WV?$stream_output_adapter@_W@__crt_stdio_output@@V?$format_validation_base@_WV?$stream_output_adapter@_W@__crt_stdio_output@@@2@@__crt_stdio_output@@AEAA_NXZ 00000001800685f0 f i libucrtd:output.obj
 0001:00067690       ?state_case_flag@?$output_processor@_WV?$stream_output_adapter@_W@__crt_stdio_output@@V?$positional_parameter_base@_WV?$stream_output_adapter@_W@__crt_stdio_output@@@2@@__crt_stdio_output@@AEAA_NXZ 0000000180068690 f i libucrtd:output.obj
 0001:00067730       ?state_case_flag@?$output_processor@_WV?$stream_output_adapter@_W@__crt_stdio_output@@V?$standard_base@_WV?$stream_output_adapter@_W@__crt_stdio_output@@@2@@__crt_stdio_output@@AEAA_NXZ 0000000180068730 f i libucrtd:output.obj
 0001:000677d0       ?state_case_flag@?$output_processor@_WV?$string_output_adapter@_W@__crt_stdio_output@@V?$format_validation_base@_WV?$string_output_adapter@_W@__crt_stdio_output@@@2@@__crt_stdio_output@@AEAA_NXZ 00000001800687d0 f i libucrtd:output.obj
 0001:00067870       ?state_case_flag@?$output_processor@_WV?$string_output_adapter@_W@__crt_stdio_output@@V?$positional_parameter_base@_WV?$string_output_adapter@_W@__crt_stdio_output@@@2@@__crt_stdio_output@@AEAA_NXZ 0000000180068870 f i libucrtd:output.obj
 0001:00067910       ?state_case_flag@?$output_processor@_WV?$string_output_adapter@_W@__crt_stdio_output@@V?$standard_base@_WV?$string_output_adapter@_W@__crt_stdio_output@@@2@@__crt_stdio_output@@AEAA_NXZ 0000000180068910 f i libucrtd:output.obj
 0001:000679b0       ?state_case_normal@?$output_processor@DV?$stream_output_adapter@D@__crt_stdio_output@@V?$format_validation_base@DV?$stream_output_adapter@D@__crt_stdio_output@@@2@@__crt_stdio_output@@AEAA_NXZ 00000001800689b0 f i libucrtd:output.obj
 0001:00067a90       ?state_case_normal@?$output_processor@DV?$stream_output_adapter@D@__crt_stdio_output@@V?$positional_parameter_base@DV?$stream_output_adapter@D@__crt_stdio_output@@@2@@__crt_stdio_output@@AEAA_NXZ 0000000180068a90 f i libucrtd:output.obj
 0001:00067b70       ?state_case_normal@?$output_processor@DV?$stream_output_adapter@D@__crt_stdio_output@@V?$standard_base@DV?$stream_output_adapter@D@__crt_stdio_output@@@2@@__crt_stdio_output@@AEAA_NXZ 0000000180068b70 f i libucrtd:output.obj
 0001:00067c50       ?state_case_normal@?$output_processor@DV?$string_output_adapter@D@__crt_stdio_output@@V?$format_validation_base@DV?$string_output_adapter@D@__crt_stdio_output@@@2@@__crt_stdio_output@@AEAA_NXZ 0000000180068c50 f i libucrtd:output.obj
 0001:00067d30       ?state_case_normal@?$output_processor@DV?$string_output_adapter@D@__crt_stdio_output@@V?$positional_parameter_base@DV?$string_output_adapter@D@__crt_stdio_output@@@2@@__crt_stdio_output@@AEAA_NXZ 0000000180068d30 f i libucrtd:output.obj
 0001:00067e10       ?state_case_normal@?$output_processor@DV?$string_output_adapter@D@__crt_stdio_output@@V?$standard_base@DV?$string_output_adapter@D@__crt_stdio_output@@@2@@__crt_stdio_output@@AEAA_NXZ 0000000180068e10 f i libucrtd:output.obj
 0001:00067ef0       ?state_case_normal@?$output_processor@_WV?$stream_output_adapter@_W@__crt_stdio_output@@V?$format_validation_base@_WV?$stream_output_adapter@_W@__crt_stdio_output@@@2@@__crt_stdio_output@@AEAA_NXZ 0000000180068ef0 f i libucrtd:output.obj
 0001:00067fd0       ?state_case_normal@?$output_processor@_WV?$stream_output_adapter@_W@__crt_stdio_output@@V?$positional_parameter_base@_WV?$stream_output_adapter@_W@__crt_stdio_output@@@2@@__crt_stdio_output@@AEAA_NXZ 0000000180068fd0 f i libucrtd:output.obj
 0001:000680b0       ?state_case_normal@?$output_processor@_WV?$stream_output_adapter@_W@__crt_stdio_output@@V?$standard_base@_WV?$stream_output_adapter@_W@__crt_stdio_output@@@2@@__crt_stdio_output@@AEAA_NXZ 00000001800690b0 f i libucrtd:output.obj
 0001:00068190       ?state_case_normal@?$output_processor@_WV?$string_output_adapter@_W@__crt_stdio_output@@V?$format_validation_base@_WV?$string_output_adapter@_W@__crt_stdio_output@@@2@@__crt_stdio_output@@AEAA_NXZ 0000000180069190 f i libucrtd:output.obj
 0001:00068270       ?state_case_normal@?$output_processor@_WV?$string_output_adapter@_W@__crt_stdio_output@@V?$positional_parameter_base@_WV?$string_output_adapter@_W@__crt_stdio_output@@@2@@__crt_stdio_output@@AEAA_NXZ 0000000180069270 f i libucrtd:output.obj
 0001:00068350       ?state_case_normal@?$output_processor@_WV?$string_output_adapter@_W@__crt_stdio_output@@V?$standard_base@_WV?$string_output_adapter@_W@__crt_stdio_output@@@2@@__crt_stdio_output@@AEAA_NXZ 0000000180069350 f i libucrtd:output.obj
 0001:00068430       ?state_case_normal_common@?$output_processor@DV?$stream_output_adapter@D@__crt_stdio_output@@V?$format_validation_base@DV?$stream_output_adapter@D@__crt_stdio_output@@@2@@__crt_stdio_output@@AEAA_NXZ 0000000180069430 f i libucrtd:output.obj
 0001:00068480       ?state_case_normal_common@?$output_processor@DV?$stream_output_adapter@D@__crt_stdio_output@@V?$positional_parameter_base@DV?$stream_output_adapter@D@__crt_stdio_output@@@2@@__crt_stdio_output@@AEAA_NXZ 0000000180069480 f i libucrtd:output.obj
 0001:000684d0       ?state_case_normal_common@?$output_processor@DV?$stream_output_adapter@D@__crt_stdio_output@@V?$standard_base@DV?$stream_output_adapter@D@__crt_stdio_output@@@2@@__crt_stdio_output@@AEAA_NXZ 00000001800694d0 f i libucrtd:output.obj
 0001:00068520       ?state_case_normal_common@?$output_processor@DV?$string_output_adapter@D@__crt_stdio_output@@V?$format_validation_base@DV?$string_output_adapter@D@__crt_stdio_output@@@2@@__crt_stdio_output@@AEAA_NXZ 0000000180069520 f i libucrtd:output.obj
 0001:00068570       ?state_case_normal_common@?$output_processor@DV?$string_output_adapter@D@__crt_stdio_output@@V?$positional_parameter_base@DV?$string_output_adapter@D@__crt_stdio_output@@@2@@__crt_stdio_output@@AEAA_NXZ 0000000180069570 f i libucrtd:output.obj
 0001:000685c0       ?state_case_normal_common@?$output_processor@DV?$string_output_adapter@D@__crt_stdio_output@@V?$standard_base@DV?$string_output_adapter@D@__crt_stdio_output@@@2@@__crt_stdio_output@@AEAA_NXZ 00000001800695c0 f i libucrtd:output.obj
 0001:00068610       ?state_case_normal_common@?$output_processor@_WV?$stream_output_adapter@_W@__crt_stdio_output@@V?$format_validation_base@_WV?$stream_output_adapter@_W@__crt_stdio_output@@@2@@__crt_stdio_output@@AEAA_NXZ 0000000180069610 f i libucrtd:output.obj
 0001:00068660       ?state_case_normal_common@?$output_processor@_WV?$stream_output_adapter@_W@__crt_stdio_output@@V?$positional_parameter_base@_WV?$stream_output_adapter@_W@__crt_stdio_output@@@2@@__crt_stdio_output@@AEAA_NXZ 0000000180069660 f i libucrtd:output.obj
 0001:000686b0       ?state_case_normal_common@?$output_processor@_WV?$stream_output_adapter@_W@__crt_stdio_output@@V?$standard_base@_WV?$stream_output_adapter@_W@__crt_stdio_output@@@2@@__crt_stdio_output@@AEAA_NXZ 00000001800696b0 f i libucrtd:output.obj
 0001:00068700       ?state_case_normal_common@?$output_processor@_WV?$string_output_adapter@_W@__crt_stdio_output@@V?$format_validation_base@_WV?$string_output_adapter@_W@__crt_stdio_output@@@2@@__crt_stdio_output@@AEAA_NXZ 0000000180069700 f i libucrtd:output.obj
 0001:00068750       ?state_case_normal_common@?$output_processor@_WV?$string_output_adapter@_W@__crt_stdio_output@@V?$positional_parameter_base@_WV?$string_output_adapter@_W@__crt_stdio_output@@@2@@__crt_stdio_output@@AEAA_NXZ 0000000180069750 f i libucrtd:output.obj
 0001:000687a0       ?state_case_normal_common@?$output_processor@_WV?$string_output_adapter@_W@__crt_stdio_output@@V?$standard_base@_WV?$string_output_adapter@_W@__crt_stdio_output@@@2@@__crt_stdio_output@@AEAA_NXZ 00000001800697a0 f i libucrtd:output.obj
 0001:000687f0       ?state_case_normal_tchar@?$output_processor@DV?$stream_output_adapter@D@__crt_stdio_output@@V?$format_validation_base@DV?$stream_output_adapter@D@__crt_stdio_output@@@2@@__crt_stdio_output@@AEAA_ND@Z 00000001800697f0 f i libucrtd:output.obj
 0001:00068930       ?state_case_normal_tchar@?$output_processor@DV?$stream_output_adapter@D@__crt_stdio_output@@V?$positional_parameter_base@DV?$stream_output_adapter@D@__crt_stdio_output@@@2@@__crt_stdio_output@@AEAA_ND@Z 0000000180069930 f i libucrtd:output.obj
 0001:00068a70       ?state_case_normal_tchar@?$output_processor@DV?$stream_output_adapter@D@__crt_stdio_output@@V?$standard_base@DV?$stream_output_adapter@D@__crt_stdio_output@@@2@@__crt_stdio_output@@AEAA_ND@Z 0000000180069a70 f i libucrtd:output.obj
 0001:00068bb0       ?state_case_normal_tchar@?$output_processor@DV?$string_output_adapter@D@__crt_stdio_output@@V?$format_validation_base@DV?$string_output_adapter@D@__crt_stdio_output@@@2@@__crt_stdio_output@@AEAA_ND@Z 0000000180069bb0 f i libucrtd:output.obj
 0001:00068cf0       ?state_case_normal_tchar@?$output_processor@DV?$string_output_adapter@D@__crt_stdio_output@@V?$positional_parameter_base@DV?$string_output_adapter@D@__crt_stdio_output@@@2@@__crt_stdio_output@@AEAA_ND@Z 0000000180069cf0 f i libucrtd:output.obj
 0001:00068e30       ?state_case_normal_tchar@?$output_processor@DV?$string_output_adapter@D@__crt_stdio_output@@V?$standard_base@DV?$string_output_adapter@D@__crt_stdio_output@@@2@@__crt_stdio_output@@AEAA_ND@Z 0000000180069e30 f i libucrtd:output.obj
 0001:00068f70       ?state_case_normal_tchar@?$output_processor@_WV?$stream_output_adapter@_W@__crt_stdio_output@@V?$format_validation_base@_WV?$stream_output_adapter@_W@__crt_stdio_output@@@2@@__crt_stdio_output@@AEAA_N_W@Z 0000000180069f70 f i libucrtd:output.obj
 0001:00068f90       ?state_case_normal_tchar@?$output_processor@_WV?$stream_output_adapter@_W@__crt_stdio_output@@V?$positional_parameter_base@_WV?$stream_output_adapter@_W@__crt_stdio_output@@@2@@__crt_stdio_output@@AEAA_N_W@Z 0000000180069f90 f i libucrtd:output.obj
 0001:00068fb0       ?state_case_normal_tchar@?$output_processor@_WV?$stream_output_adapter@_W@__crt_stdio_output@@V?$standard_base@_WV?$stream_output_adapter@_W@__crt_stdio_output@@@2@@__crt_stdio_output@@AEAA_N_W@Z 0000000180069fb0 f i libucrtd:output.obj
 0001:00068fd0       ?state_case_normal_tchar@?$output_processor@_WV?$string_output_adapter@_W@__crt_stdio_output@@V?$format_validation_base@_WV?$string_output_adapter@_W@__crt_stdio_output@@@2@@__crt_stdio_output@@AEAA_N_W@Z 0000000180069fd0 f i libucrtd:output.obj
 0001:00068ff0       ?state_case_normal_tchar@?$output_processor@_WV?$string_output_adapter@_W@__crt_stdio_output@@V?$positional_parameter_base@_WV?$string_output_adapter@_W@__crt_stdio_output@@@2@@__crt_stdio_output@@AEAA_N_W@Z 0000000180069ff0 f i libucrtd:output.obj
 0001:00069010       ?state_case_normal_tchar@?$output_processor@_WV?$string_output_adapter@_W@__crt_stdio_output@@V?$standard_base@_WV?$string_output_adapter@_W@__crt_stdio_output@@@2@@__crt_stdio_output@@AEAA_N_W@Z 000000018006a010 f i libucrtd:output.obj
 0001:00069030       ?state_case_percent@?$output_processor@DV?$stream_output_adapter@D@__crt_stdio_output@@V?$format_validation_base@DV?$stream_output_adapter@D@__crt_stdio_output@@@2@@__crt_stdio_output@@AEAA_NXZ 000000018006a030 f i libucrtd:output.obj
 0001:00069080       ?state_case_percent@?$output_processor@DV?$stream_output_adapter@D@__crt_stdio_output@@V?$positional_parameter_base@DV?$stream_output_adapter@D@__crt_stdio_output@@@2@@__crt_stdio_output@@AEAA_NXZ 000000018006a080 f i libucrtd:output.obj
 0001:000690d0       ?state_case_percent@?$output_processor@DV?$stream_output_adapter@D@__crt_stdio_output@@V?$standard_base@DV?$stream_output_adapter@D@__crt_stdio_output@@@2@@__crt_stdio_output@@AEAA_NXZ 000000018006a0d0 f i libucrtd:output.obj
 0001:00069120       ?state_case_percent@?$output_processor@DV?$string_output_adapter@D@__crt_stdio_output@@V?$format_validation_base@DV?$string_output_adapter@D@__crt_stdio_output@@@2@@__crt_stdio_output@@AEAA_NXZ 000000018006a120 f i libucrtd:output.obj
 0001:00069170       ?state_case_percent@?$output_processor@DV?$string_output_adapter@D@__crt_stdio_output@@V?$positional_parameter_base@DV?$string_output_adapter@D@__crt_stdio_output@@@2@@__crt_stdio_output@@AEAA_NXZ 000000018006a170 f i libucrtd:output.obj
 0001:000691c0       ?state_case_percent@?$output_processor@DV?$string_output_adapter@D@__crt_stdio_output@@V?$standard_base@DV?$string_output_adapter@D@__crt_stdio_output@@@2@@__crt_stdio_output@@AEAA_NXZ 000000018006a1c0 f i libucrtd:output.obj
 0001:00069210       ?state_case_percent@?$output_processor@_WV?$stream_output_adapter@_W@__crt_stdio_output@@V?$format_validation_base@_WV?$stream_output_adapter@_W@__crt_stdio_output@@@2@@__crt_stdio_output@@AEAA_NXZ 000000018006a210 f i libucrtd:output.obj
 0001:00069260       ?state_case_percent@?$output_processor@_WV?$stream_output_adapter@_W@__crt_stdio_output@@V?$positional_parameter_base@_WV?$stream_output_adapter@_W@__crt_stdio_output@@@2@@__crt_stdio_output@@AEAA_NXZ 000000018006a260 f i libucrtd:output.obj
 0001:000692b0       ?state_case_percent@?$output_processor@_WV?$stream_output_adapter@_W@__crt_stdio_output@@V?$standard_base@_WV?$stream_output_adapter@_W@__crt_stdio_output@@@2@@__crt_stdio_output@@AEAA_NXZ 000000018006a2b0 f i libucrtd:output.obj
 0001:00069300       ?state_case_percent@?$output_processor@_WV?$string_output_adapter@_W@__crt_stdio_output@@V?$format_validation_base@_WV?$string_output_adapter@_W@__crt_stdio_output@@@2@@__crt_stdio_output@@AEAA_NXZ 000000018006a300 f i libucrtd:output.obj
 0001:00069350       ?state_case_percent@?$output_processor@_WV?$string_output_adapter@_W@__crt_stdio_output@@V?$positional_parameter_base@_WV?$string_output_adapter@_W@__crt_stdio_output@@@2@@__crt_stdio_output@@AEAA_NXZ 000000018006a350 f i libucrtd:output.obj
 0001:000693a0       ?state_case_percent@?$output_processor@_WV?$string_output_adapter@_W@__crt_stdio_output@@V?$standard_base@_WV?$string_output_adapter@_W@__crt_stdio_output@@@2@@__crt_stdio_output@@AEAA_NXZ 000000018006a3a0 f i libucrtd:output.obj
 0001:000693f0       ?state_case_precision@?$output_processor@DV?$stream_output_adapter@D@__crt_stdio_output@@V?$format_validation_base@DV?$stream_output_adapter@D@__crt_stdio_output@@@2@@__crt_stdio_output@@AEAA_NXZ 000000018006a3f0 f i libucrtd:output.obj
 0001:00069470       ?state_case_precision@?$output_processor@DV?$stream_output_adapter@D@__crt_stdio_output@@V?$positional_parameter_base@DV?$stream_output_adapter@D@__crt_stdio_output@@@2@@__crt_stdio_output@@AEAA_NXZ 000000018006a470 f i libucrtd:output.obj
 0001:000694f0       ?state_case_precision@?$output_processor@DV?$stream_output_adapter@D@__crt_stdio_output@@V?$standard_base@DV?$stream_output_adapter@D@__crt_stdio_output@@@2@@__crt_stdio_output@@AEAA_NXZ 000000018006a4f0 f i libucrtd:output.obj
 0001:00069570       ?state_case_precision@?$output_processor@DV?$string_output_adapter@D@__crt_stdio_output@@V?$format_validation_base@DV?$string_output_adapter@D@__crt_stdio_output@@@2@@__crt_stdio_output@@AEAA_NXZ 000000018006a570 f i libucrtd:output.obj
 0001:000695f0       ?state_case_precision@?$output_processor@DV?$string_output_adapter@D@__crt_stdio_output@@V?$positional_parameter_base@DV?$string_output_adapter@D@__crt_stdio_output@@@2@@__crt_stdio_output@@AEAA_NXZ 000000018006a5f0 f i libucrtd:output.obj
 0001:00069670       ?state_case_precision@?$output_processor@DV?$string_output_adapter@D@__crt_stdio_output@@V?$standard_base@DV?$string_output_adapter@D@__crt_stdio_output@@@2@@__crt_stdio_output@@AEAA_NXZ 000000018006a670 f i libucrtd:output.obj
 0001:000696f0       ?state_case_precision@?$output_processor@_WV?$stream_output_adapter@_W@__crt_stdio_output@@V?$format_validation_base@_WV?$stream_output_adapter@_W@__crt_stdio_output@@@2@@__crt_stdio_output@@AEAA_NXZ 000000018006a6f0 f i libucrtd:output.obj
 0001:00069770       ?state_case_precision@?$output_processor@_WV?$stream_output_adapter@_W@__crt_stdio_output@@V?$positional_parameter_base@_WV?$stream_output_adapter@_W@__crt_stdio_output@@@2@@__crt_stdio_output@@AEAA_NXZ 000000018006a770 f i libucrtd:output.obj
 0001:000697f0       ?state_case_precision@?$output_processor@_WV?$stream_output_adapter@_W@__crt_stdio_output@@V?$standard_base@_WV?$stream_output_adapter@_W@__crt_stdio_output@@@2@@__crt_stdio_output@@AEAA_NXZ 000000018006a7f0 f i libucrtd:output.obj
 0001:00069870       ?state_case_precision@?$output_processor@_WV?$string_output_adapter@_W@__crt_stdio_output@@V?$format_validation_base@_WV?$string_output_adapter@_W@__crt_stdio_output@@@2@@__crt_stdio_output@@AEAA_NXZ 000000018006a870 f i libucrtd:output.obj
 0001:000698f0       ?state_case_precision@?$output_processor@_WV?$string_output_adapter@_W@__crt_stdio_output@@V?$positional_parameter_base@_WV?$string_output_adapter@_W@__crt_stdio_output@@@2@@__crt_stdio_output@@AEAA_NXZ 000000018006a8f0 f i libucrtd:output.obj
 0001:00069970       ?state_case_precision@?$output_processor@_WV?$string_output_adapter@_W@__crt_stdio_output@@V?$standard_base@_WV?$string_output_adapter@_W@__crt_stdio_output@@@2@@__crt_stdio_output@@AEAA_NXZ 000000018006a970 f i libucrtd:output.obj
 0001:000699f0       ?state_case_size@?$output_processor@DV?$stream_output_adapter@D@__crt_stdio_output@@V?$format_validation_base@DV?$stream_output_adapter@D@__crt_stdio_output@@@2@@__crt_stdio_output@@AEAA_NXZ 000000018006a9f0 f i libucrtd:output.obj
 0001:00069e70       ?state_case_size@?$output_processor@DV?$stream_output_adapter@D@__crt_stdio_output@@V?$positional_parameter_base@DV?$stream_output_adapter@D@__crt_stdio_output@@@2@@__crt_stdio_output@@AEAA_NXZ 000000018006ae70 f i libucrtd:output.obj
 0001:0006a2f0       ?state_case_size@?$output_processor@DV?$stream_output_adapter@D@__crt_stdio_output@@V?$standard_base@DV?$stream_output_adapter@D@__crt_stdio_output@@@2@@__crt_stdio_output@@AEAA_NXZ 000000018006b2f0 f i libucrtd:output.obj
 0001:0006a770       ?state_case_size@?$output_processor@DV?$string_output_adapter@D@__crt_stdio_output@@V?$format_validation_base@DV?$string_output_adapter@D@__crt_stdio_output@@@2@@__crt_stdio_output@@AEAA_NXZ 000000018006b770 f i libucrtd:output.obj
 0001:0006abf0       ?state_case_size@?$output_processor@DV?$string_output_adapter@D@__crt_stdio_output@@V?$positional_parameter_base@DV?$string_output_adapter@D@__crt_stdio_output@@@2@@__crt_stdio_output@@AEAA_NXZ 000000018006bbf0 f i libucrtd:output.obj
 0001:0006b070       ?state_case_size@?$output_processor@DV?$string_output_adapter@D@__crt_stdio_output@@V?$standard_base@DV?$string_output_adapter@D@__crt_stdio_output@@@2@@__crt_stdio_output@@AEAA_NXZ 000000018006c070 f i libucrtd:output.obj
 0001:0006b4f0       ?state_case_size@?$output_processor@_WV?$stream_output_adapter@_W@__crt_stdio_output@@V?$format_validation_base@_WV?$stream_output_adapter@_W@__crt_stdio_output@@@2@@__crt_stdio_output@@AEAA_NXZ 000000018006c4f0 f i libucrtd:output.obj
 0001:0006b970       ?state_case_size@?$output_processor@_WV?$stream_output_adapter@_W@__crt_stdio_output@@V?$positional_parameter_base@_WV?$stream_output_adapter@_W@__crt_stdio_output@@@2@@__crt_stdio_output@@AEAA_NXZ 000000018006c970 f i libucrtd:output.obj
 0001:0006bdf0       ?state_case_size@?$output_processor@_WV?$stream_output_adapter@_W@__crt_stdio_output@@V?$standard_base@_WV?$stream_output_adapter@_W@__crt_stdio_output@@@2@@__crt_stdio_output@@AEAA_NXZ 000000018006cdf0 f i libucrtd:output.obj
 0001:0006c270       ?state_case_size@?$output_processor@_WV?$string_output_adapter@_W@__crt_stdio_output@@V?$format_validation_base@_WV?$string_output_adapter@_W@__crt_stdio_output@@@2@@__crt_stdio_output@@AEAA_NXZ 000000018006d270 f i libucrtd:output.obj
 0001:0006c6f0       ?state_case_size@?$output_processor@_WV?$string_output_adapter@_W@__crt_stdio_output@@V?$positional_parameter_base@_WV?$string_output_adapter@_W@__crt_stdio_output@@@2@@__crt_stdio_output@@AEAA_NXZ 000000018006d6f0 f i libucrtd:output.obj
 0001:0006cb70       ?state_case_size@?$output_processor@_WV?$string_output_adapter@_W@__crt_stdio_output@@V?$standard_base@_WV?$string_output_adapter@_W@__crt_stdio_output@@@2@@__crt_stdio_output@@AEAA_NXZ 000000018006db70 f i libucrtd:output.obj
 0001:0006cff0       ?state_case_type@?$output_processor@DV?$stream_output_adapter@D@__crt_stdio_output@@V?$format_validation_base@DV?$stream_output_adapter@D@__crt_stdio_output@@@2@@__crt_stdio_output@@AEAA_NXZ 000000018006dff0 f i libucrtd:output.obj
 0001:0006d490       ?state_case_type@?$output_processor@DV?$stream_output_adapter@D@__crt_stdio_output@@V?$positional_parameter_base@DV?$stream_output_adapter@D@__crt_stdio_output@@@2@@__crt_stdio_output@@AEAA_NXZ 000000018006e490 f i libucrtd:output.obj
 0001:0006d930       ?state_case_type@?$output_processor@DV?$stream_output_adapter@D@__crt_stdio_output@@V?$standard_base@DV?$stream_output_adapter@D@__crt_stdio_output@@@2@@__crt_stdio_output@@AEAA_NXZ 000000018006e930 f i libucrtd:output.obj
 0001:0006ddd0       ?state_case_type@?$output_processor@DV?$string_output_adapter@D@__crt_stdio_output@@V?$format_validation_base@DV?$string_output_adapter@D@__crt_stdio_output@@@2@@__crt_stdio_output@@AEAA_NXZ 000000018006edd0 f i libucrtd:output.obj
 0001:0006e270       ?state_case_type@?$output_processor@DV?$string_output_adapter@D@__crt_stdio_output@@V?$positional_parameter_base@DV?$string_output_adapter@D@__crt_stdio_output@@@2@@__crt_stdio_output@@AEAA_NXZ 000000018006f270 f i libucrtd:output.obj
 0001:0006e710       ?state_case_type@?$output_processor@DV?$string_output_adapter@D@__crt_stdio_output@@V?$standard_base@DV?$string_output_adapter@D@__crt_stdio_output@@@2@@__crt_stdio_output@@AEAA_NXZ 000000018006f710 f i libucrtd:output.obj
 0001:0006ebb0       ?state_case_type@?$output_processor@_WV?$stream_output_adapter@_W@__crt_stdio_output@@V?$format_validation_base@_WV?$stream_output_adapter@_W@__crt_stdio_output@@@2@@__crt_stdio_output@@AEAA_NXZ 000000018006fbb0 f i libucrtd:output.obj
 0001:0006f110       ?state_case_type@?$output_processor@_WV?$stream_output_adapter@_W@__crt_stdio_output@@V?$positional_parameter_base@_WV?$stream_output_adapter@_W@__crt_stdio_output@@@2@@__crt_stdio_output@@AEAA_NXZ 0000000180070110 f i libucrtd:output.obj
 0001:0006f670       ?state_case_type@?$output_processor@_WV?$stream_output_adapter@_W@__crt_stdio_output@@V?$standard_base@_WV?$stream_output_adapter@_W@__crt_stdio_output@@@2@@__crt_stdio_output@@AEAA_NXZ 0000000180070670 f i libucrtd:output.obj
 0001:0006fbd0       ?state_case_type@?$output_processor@_WV?$string_output_adapter@_W@__crt_stdio_output@@V?$format_validation_base@_WV?$string_output_adapter@_W@__crt_stdio_output@@@2@@__crt_stdio_output@@AEAA_NXZ 0000000180070bd0 f i libucrtd:output.obj
 0001:00070130       ?state_case_type@?$output_processor@_WV?$string_output_adapter@_W@__crt_stdio_output@@V?$positional_parameter_base@_WV?$string_output_adapter@_W@__crt_stdio_output@@@2@@__crt_stdio_output@@AEAA_NXZ 0000000180071130 f i libucrtd:output.obj
 0001:00070690       ?state_case_type@?$output_processor@_WV?$string_output_adapter@_W@__crt_stdio_output@@V?$standard_base@_WV?$string_output_adapter@_W@__crt_stdio_output@@@2@@__crt_stdio_output@@AEAA_NXZ 0000000180071690 f i libucrtd:output.obj
 0001:00070bf0       ?state_case_width@?$output_processor@DV?$stream_output_adapter@D@__crt_stdio_output@@V?$format_validation_base@DV?$stream_output_adapter@D@__crt_stdio_output@@@2@@__crt_stdio_output@@AEAA_NXZ 0000000180071bf0 f i libucrtd:output.obj
 0001:00070c80       ?state_case_width@?$output_processor@DV?$stream_output_adapter@D@__crt_stdio_output@@V?$positional_parameter_base@DV?$stream_output_adapter@D@__crt_stdio_output@@@2@@__crt_stdio_output@@AEAA_NXZ 0000000180071c80 f i libucrtd:output.obj
 0001:00070d10       ?state_case_width@?$output_processor@DV?$stream_output_adapter@D@__crt_stdio_output@@V?$standard_base@DV?$stream_output_adapter@D@__crt_stdio_output@@@2@@__crt_stdio_output@@AEAA_NXZ 0000000180071d10 f i libucrtd:output.obj
 0001:00070da0       ?state_case_width@?$output_processor@DV?$string_output_adapter@D@__crt_stdio_output@@V?$format_validation_base@DV?$string_output_adapter@D@__crt_stdio_output@@@2@@__crt_stdio_output@@AEAA_NXZ 0000000180071da0 f i libucrtd:output.obj
 0001:00070e30       ?state_case_width@?$output_processor@DV?$string_output_adapter@D@__crt_stdio_output@@V?$positional_parameter_base@DV?$string_output_adapter@D@__crt_stdio_output@@@2@@__crt_stdio_output@@AEAA_NXZ 0000000180071e30 f i libucrtd:output.obj
 0001:00070ec0       ?state_case_width@?$output_processor@DV?$string_output_adapter@D@__crt_stdio_output@@V?$standard_base@DV?$string_output_adapter@D@__crt_stdio_output@@@2@@__crt_stdio_output@@AEAA_NXZ 0000000180071ec0 f i libucrtd:output.obj
 0001:00070f50       ?state_case_width@?$output_processor@_WV?$stream_output_adapter@_W@__crt_stdio_output@@V?$format_validation_base@_WV?$stream_output_adapter@_W@__crt_stdio_output@@@2@@__crt_stdio_output@@AEAA_NXZ 0000000180071f50 f i libucrtd:output.obj
 0001:00070fe0       ?state_case_width@?$output_processor@_WV?$stream_output_adapter@_W@__crt_stdio_output@@V?$positional_parameter_base@_WV?$stream_output_adapter@_W@__crt_stdio_output@@@2@@__crt_stdio_output@@AEAA_NXZ 0000000180071fe0 f i libucrtd:output.obj
 0001:00071070       ?state_case_width@?$output_processor@_WV?$stream_output_adapter@_W@__crt_stdio_output@@V?$standard_base@_WV?$stream_output_adapter@_W@__crt_stdio_output@@@2@@__crt_stdio_output@@AEAA_NXZ 0000000180072070 f i libucrtd:output.obj
 0001:00071100       ?state_case_width@?$output_processor@_WV?$string_output_adapter@_W@__crt_stdio_output@@V?$format_validation_base@_WV?$string_output_adapter@_W@__crt_stdio_output@@@2@@__crt_stdio_output@@AEAA_NXZ 0000000180072100 f i libucrtd:output.obj
 0001:00071190       ?state_case_width@?$output_processor@_WV?$string_output_adapter@_W@__crt_stdio_output@@V?$positional_parameter_base@_WV?$string_output_adapter@_W@__crt_stdio_output@@@2@@__crt_stdio_output@@AEAA_NXZ 0000000180072190 f i libucrtd:output.obj
 0001:00071220       ?state_case_width@?$output_processor@_WV?$string_output_adapter@_W@__crt_stdio_output@@V?$standard_base@_WV?$string_output_adapter@_W@__crt_stdio_output@@@2@@__crt_stdio_output@@AEAA_NXZ 0000000180072220 f i libucrtd:output.obj
 0001:000712b0       ?state_count@?$format_validation_base@DV?$stream_output_adapter@D@__crt_stdio_output@@@__crt_stdio_output@@KAIXZ 00000001800722b0 f i libucrtd:output.obj
 0001:000712c0       ?state_count@?$format_validation_base@DV?$string_output_adapter@D@__crt_stdio_output@@@__crt_stdio_output@@KAIXZ 00000001800722c0 f i libucrtd:output.obj
 0001:000712d0       ?state_count@?$format_validation_base@_WV?$stream_output_adapter@_W@__crt_stdio_output@@@__crt_stdio_output@@KAIXZ 00000001800722d0 f i libucrtd:output.obj
 0001:000712e0       ?state_count@?$format_validation_base@_WV?$string_output_adapter@_W@__crt_stdio_output@@@__crt_stdio_output@@KAIXZ 00000001800722e0 f i libucrtd:output.obj
 0001:000712f0       ?state_count@?$standard_base@DV?$stream_output_adapter@D@__crt_stdio_output@@@__crt_stdio_output@@KAIXZ 00000001800722f0 f i libucrtd:output.obj
 0001:00071300       ?state_count@?$standard_base@DV?$string_output_adapter@D@__crt_stdio_output@@@__crt_stdio_output@@KAIXZ 0000000180072300 f i libucrtd:output.obj
 0001:00071310       ?state_count@?$standard_base@_WV?$stream_output_adapter@_W@__crt_stdio_output@@@__crt_stdio_output@@KAIXZ 0000000180072310 f i libucrtd:output.obj
 0001:00071320       ?state_count@?$standard_base@_WV?$string_output_adapter@_W@__crt_stdio_output@@@__crt_stdio_output@@KAIXZ 0000000180072320 f i libucrtd:output.obj
 0001:00071330       ?state_transition_table@?$format_validation_base@DV?$stream_output_adapter@D@__crt_stdio_output@@@__crt_stdio_output@@KAAEBV?$spectre_mitigated_lookup_table@Ustate_transition_pair@__crt_stdio_output@@$0IA@@2@XZ 0000000180072330 f i libucrtd:output.obj
 0001:00071340       ?state_transition_table@?$format_validation_base@DV?$string_output_adapter@D@__crt_stdio_output@@@__crt_stdio_output@@KAAEBV?$spectre_mitigated_lookup_table@Ustate_transition_pair@__crt_stdio_output@@$0IA@@2@XZ 0000000180072340 f i libucrtd:output.obj
 0001:00071350       ?state_transition_table@?$format_validation_base@_WV?$stream_output_adapter@_W@__crt_stdio_output@@@__crt_stdio_output@@KAAEBV?$spectre_mitigated_lookup_table@Ustate_transition_pair@__crt_stdio_output@@$0IA@@2@XZ 0000000180072350 f i libucrtd:output.obj
 0001:00071360       ?state_transition_table@?$format_validation_base@_WV?$string_output_adapter@_W@__crt_stdio_output@@@__crt_stdio_output@@KAAEBV?$spectre_mitigated_lookup_table@Ustate_transition_pair@__crt_stdio_output@@$0IA@@2@XZ 0000000180072360 f i libucrtd:output.obj
 0001:00071370       ?state_transition_table@?$standard_base@DV?$stream_output_adapter@D@__crt_stdio_output@@@__crt_stdio_output@@KAAEBV?$spectre_mitigated_lookup_table@Ustate_transition_pair@__crt_stdio_output@@$0IA@@2@XZ 0000000180072370 f i libucrtd:output.obj
 0001:00071380       ?state_transition_table@?$standard_base@DV?$string_output_adapter@D@__crt_stdio_output@@@__crt_stdio_output@@KAAEBV?$spectre_mitigated_lookup_table@Ustate_transition_pair@__crt_stdio_output@@$0IA@@2@XZ 0000000180072380 f i libucrtd:output.obj
 0001:00071390       ?state_transition_table@?$standard_base@_WV?$stream_output_adapter@_W@__crt_stdio_output@@@__crt_stdio_output@@KAAEBV?$spectre_mitigated_lookup_table@Ustate_transition_pair@__crt_stdio_output@@$0IA@@2@XZ 0000000180072390 f i libucrtd:output.obj
 0001:000713a0       ?state_transition_table@?$standard_base@_WV?$string_output_adapter@_W@__crt_stdio_output@@@__crt_stdio_output@@KAAEBV?$spectre_mitigated_lookup_table@Ustate_transition_pair@__crt_stdio_output@@$0IA@@2@XZ 00000001800723a0 f i libucrtd:output.obj
 0001:000713b0       ?tchar_string@?$common_data@D@__crt_stdio_output@@IEAAAEAPEADD@Z 00000001800723b0 f i libucrtd:output.obj
 0001:000713d0       ?tchar_string@?$common_data@D@__crt_stdio_output@@IEAAAEAPEADXZ 00000001800723d0 f i libucrtd:output.obj
 0001:000713f0       ?tchar_string@?$common_data@_W@__crt_stdio_output@@IEAAAEAPEA_WXZ 00000001800723f0 f i libucrtd:output.obj
 0001:00071410       ?tchar_string@?$common_data@_W@__crt_stdio_output@@IEAAAEAPEA_W_W@Z 0000000180072410 f i libucrtd:output.obj
 0001:00071430       ?to_integer_size@__crt_stdio_output@@YA_KW4length_modifier@1@@Z 0000000180072430 f i libucrtd:output.obj
 0001:000714e0       ?type_case_X@?$output_processor@DV?$stream_output_adapter@D@__crt_stdio_output@@V?$format_validation_base@DV?$stream_output_adapter@D@__crt_stdio_output@@@2@@__crt_stdio_output@@AEAA_NXZ 00000001800724e0 f i libucrtd:output.obj
 0001:00071500       ?type_case_X@?$output_processor@DV?$stream_output_adapter@D@__crt_stdio_output@@V?$positional_parameter_base@DV?$stream_output_adapter@D@__crt_stdio_output@@@2@@__crt_stdio_output@@AEAA_NXZ 0000000180072500 f i libucrtd:output.obj
 0001:00071520       ?type_case_X@?$output_processor@DV?$stream_output_adapter@D@__crt_stdio_output@@V?$standard_base@DV?$stream_output_adapter@D@__crt_stdio_output@@@2@@__crt_stdio_output@@AEAA_NXZ 0000000180072520 f i libucrtd:output.obj
 0001:00071540       ?type_case_X@?$output_processor@DV?$string_output_adapter@D@__crt_stdio_output@@V?$format_validation_base@DV?$string_output_adapter@D@__crt_stdio_output@@@2@@__crt_stdio_output@@AEAA_NXZ 0000000180072540 f i libucrtd:output.obj
 0001:00071560       ?type_case_X@?$output_processor@DV?$string_output_adapter@D@__crt_stdio_output@@V?$positional_parameter_base@DV?$string_output_adapter@D@__crt_stdio_output@@@2@@__crt_stdio_output@@AEAA_NXZ 0000000180072560 f i libucrtd:output.obj
 0001:00071580       ?type_case_X@?$output_processor@DV?$string_output_adapter@D@__crt_stdio_output@@V?$standard_base@DV?$string_output_adapter@D@__crt_stdio_output@@@2@@__crt_stdio_output@@AEAA_NXZ 0000000180072580 f i libucrtd:output.obj
 0001:000715a0       ?type_case_X@?$output_processor@_WV?$stream_output_adapter@_W@__crt_stdio_output@@V?$format_validation_base@_WV?$stream_output_adapter@_W@__crt_stdio_output@@@2@@__crt_stdio_output@@AEAA_NXZ 00000001800725a0 f i libucrtd:output.obj
 0001:000715c0       ?type_case_X@?$output_processor@_WV?$stream_output_adapter@_W@__crt_stdio_output@@V?$positional_parameter_base@_WV?$stream_output_adapter@_W@__crt_stdio_output@@@2@@__crt_stdio_output@@AEAA_NXZ 00000001800725c0 f i libucrtd:output.obj
 0001:000715e0       ?type_case_X@?$output_processor@_WV?$stream_output_adapter@_W@__crt_stdio_output@@V?$standard_base@_WV?$stream_output_adapter@_W@__crt_stdio_output@@@2@@__crt_stdio_output@@AEAA_NXZ 00000001800725e0 f i libucrtd:output.obj
 0001:00071600       ?type_case_X@?$output_processor@_WV?$string_output_adapter@_W@__crt_stdio_output@@V?$format_validation_base@_WV?$string_output_adapter@_W@__crt_stdio_output@@@2@@__crt_stdio_output@@AEAA_NXZ 0000000180072600 f i libucrtd:output.obj
 0001:00071620       ?type_case_X@?$output_processor@_WV?$string_output_adapter@_W@__crt_stdio_output@@V?$positional_parameter_base@_WV?$string_output_adapter@_W@__crt_stdio_output@@@2@@__crt_stdio_output@@AEAA_NXZ 0000000180072620 f i libucrtd:output.obj
 0001:00071640       ?type_case_X@?$output_processor@_WV?$string_output_adapter@_W@__crt_stdio_output@@V?$standard_base@_WV?$string_output_adapter@_W@__crt_stdio_output@@@2@@__crt_stdio_output@@AEAA_NXZ 0000000180072640 f i libucrtd:output.obj
 0001:00071660       ?type_case_Z@?$output_processor@DV?$stream_output_adapter@D@__crt_stdio_output@@V?$format_validation_base@DV?$stream_output_adapter@D@__crt_stdio_output@@@2@@__crt_stdio_output@@AEAA_NXZ 0000000180072660 f i libucrtd:output.obj
 0001:00071780       ?type_case_Z@?$output_processor@DV?$stream_output_adapter@D@__crt_stdio_output@@V?$positional_parameter_base@DV?$stream_output_adapter@D@__crt_stdio_output@@@2@@__crt_stdio_output@@AEAA_NXZ 0000000180072780 f i libucrtd:output.obj
 0001:000718a0       ?type_case_Z@?$output_processor@DV?$stream_output_adapter@D@__crt_stdio_output@@V?$standard_base@DV?$stream_output_adapter@D@__crt_stdio_output@@@2@@__crt_stdio_output@@AEAA_NXZ 00000001800728a0 f i libucrtd:output.obj
 0001:000719c0       ?type_case_Z@?$output_processor@DV?$string_output_adapter@D@__crt_stdio_output@@V?$format_validation_base@DV?$string_output_adapter@D@__crt_stdio_output@@@2@@__crt_stdio_output@@AEAA_NXZ 00000001800729c0 f i libucrtd:output.obj
 0001:00071ae0       ?type_case_Z@?$output_processor@DV?$string_output_adapter@D@__crt_stdio_output@@V?$positional_parameter_base@DV?$string_output_adapter@D@__crt_stdio_output@@@2@@__crt_stdio_output@@AEAA_NXZ 0000000180072ae0 f i libucrtd:output.obj
 0001:00071c00       ?type_case_Z@?$output_processor@DV?$string_output_adapter@D@__crt_stdio_output@@V?$standard_base@DV?$string_output_adapter@D@__crt_stdio_output@@@2@@__crt_stdio_output@@AEAA_NXZ 0000000180072c00 f i libucrtd:output.obj
 0001:00071d20       ?type_case_Z@?$output_processor@_WV?$stream_output_adapter@_W@__crt_stdio_output@@V?$format_validation_base@_WV?$stream_output_adapter@_W@__crt_stdio_output@@@2@@__crt_stdio_output@@AEAA_NXZ 0000000180072d20 f i libucrtd:output.obj
 0001:00071e40       ?type_case_Z@?$output_processor@_WV?$stream_output_adapter@_W@__crt_stdio_output@@V?$positional_parameter_base@_WV?$stream_output_adapter@_W@__crt_stdio_output@@@2@@__crt_stdio_output@@AEAA_NXZ 0000000180072e40 f i libucrtd:output.obj
 0001:00071f60       ?type_case_Z@?$output_processor@_WV?$stream_output_adapter@_W@__crt_stdio_output@@V?$standard_base@_WV?$stream_output_adapter@_W@__crt_stdio_output@@@2@@__crt_stdio_output@@AEAA_NXZ 0000000180072f60 f i libucrtd:output.obj
 0001:00072080       ?type_case_Z@?$output_processor@_WV?$string_output_adapter@_W@__crt_stdio_output@@V?$format_validation_base@_WV?$string_output_adapter@_W@__crt_stdio_output@@@2@@__crt_stdio_output@@AEAA_NXZ 0000000180073080 f i libucrtd:output.obj
 0001:000721a0       ?type_case_Z@?$output_processor@_WV?$string_output_adapter@_W@__crt_stdio_output@@V?$positional_parameter_base@_WV?$string_output_adapter@_W@__crt_stdio_output@@@2@@__crt_stdio_output@@AEAA_NXZ 00000001800731a0 f i libucrtd:output.obj
 0001:000722c0       ?type_case_Z@?$output_processor@_WV?$string_output_adapter@_W@__crt_stdio_output@@V?$standard_base@_WV?$string_output_adapter@_W@__crt_stdio_output@@@2@@__crt_stdio_output@@AEAA_NXZ 00000001800732c0 f i libucrtd:output.obj
 0001:000723e0       ?type_case_a@?$output_processor@DV?$stream_output_adapter@D@__crt_stdio_output@@V?$format_validation_base@DV?$stream_output_adapter@D@__crt_stdio_output@@@2@@__crt_stdio_output@@AEAA_NXZ 00000001800733e0 f i libucrtd:output.obj
 0001:000727b0       ?type_case_a@?$output_processor@DV?$stream_output_adapter@D@__crt_stdio_output@@V?$positional_parameter_base@DV?$stream_output_adapter@D@__crt_stdio_output@@@2@@__crt_stdio_output@@AEAA_NXZ 00000001800737b0 f i libucrtd:output.obj
 0001:00072b80       ?type_case_a@?$output_processor@DV?$stream_output_adapter@D@__crt_stdio_output@@V?$standard_base@DV?$stream_output_adapter@D@__crt_stdio_output@@@2@@__crt_stdio_output@@AEAA_NXZ 0000000180073b80 f i libucrtd:output.obj
 0001:00072f50       ?type_case_a@?$output_processor@DV?$string_output_adapter@D@__crt_stdio_output@@V?$format_validation_base@DV?$string_output_adapter@D@__crt_stdio_output@@@2@@__crt_stdio_output@@AEAA_NXZ 0000000180073f50 f i libucrtd:output.obj
 0001:00073320       ?type_case_a@?$output_processor@DV?$string_output_adapter@D@__crt_stdio_output@@V?$positional_parameter_base@DV?$string_output_adapter@D@__crt_stdio_output@@@2@@__crt_stdio_output@@AEAA_NXZ 0000000180074320 f i libucrtd:output.obj
 0001:000736f0       ?type_case_a@?$output_processor@DV?$string_output_adapter@D@__crt_stdio_output@@V?$standard_base@DV?$string_output_adapter@D@__crt_stdio_output@@@2@@__crt_stdio_output@@AEAA_NXZ 00000001800746f0 f i libucrtd:output.obj
 0001:00073ac0       ?type_case_a@?$output_processor@_WV?$stream_output_adapter@_W@__crt_stdio_output@@V?$format_validation_base@_WV?$stream_output_adapter@_W@__crt_stdio_output@@@2@@__crt_stdio_output@@AEAA_NXZ 0000000180074ac0 f i libucrtd:output.obj
 0001:00073e90       ?type_case_a@?$output_processor@_WV?$stream_output_adapter@_W@__crt_stdio_output@@V?$positional_parameter_base@_WV?$stream_output_adapter@_W@__crt_stdio_output@@@2@@__crt_stdio_output@@AEAA_NXZ 0000000180074e90 f i libucrtd:output.obj
 0001:00074260       ?type_case_a@?$output_processor@_WV?$stream_output_adapter@_W@__crt_stdio_output@@V?$standard_base@_WV?$stream_output_adapter@_W@__crt_stdio_output@@@2@@__crt_stdio_output@@AEAA_NXZ 0000000180075260 f i libucrtd:output.obj
 0001:00074630       ?type_case_a@?$output_processor@_WV?$string_output_adapter@_W@__crt_stdio_output@@V?$format_validation_base@_WV?$string_output_adapter@_W@__crt_stdio_output@@@2@@__crt_stdio_output@@AEAA_NXZ 0000000180075630 f i libucrtd:output.obj
 0001:00074a00       ?type_case_a@?$output_processor@_WV?$string_output_adapter@_W@__crt_stdio_output@@V?$positional_parameter_base@_WV?$string_output_adapter@_W@__crt_stdio_output@@@2@@__crt_stdio_output@@AEAA_NXZ 0000000180075a00 f i libucrtd:output.obj
 0001:00074dd0       ?type_case_a@?$output_processor@_WV?$string_output_adapter@_W@__crt_stdio_output@@V?$standard_base@_WV?$string_output_adapter@_W@__crt_stdio_output@@@2@@__crt_stdio_output@@AEAA_NXZ 0000000180075dd0 f i libucrtd:output.obj
 0001:000751a0       ?type_case_c@?$output_processor@DV?$stream_output_adapter@D@__crt_stdio_output@@V?$format_validation_base@DV?$stream_output_adapter@D@__crt_stdio_output@@@2@@__crt_stdio_output@@AEAA_NXZ 00000001800761a0 f i libucrtd:output.obj
 0001:000751c0       ?type_case_c@?$output_processor@DV?$stream_output_adapter@D@__crt_stdio_output@@V?$positional_parameter_base@DV?$stream_output_adapter@D@__crt_stdio_output@@@2@@__crt_stdio_output@@AEAA_NXZ 00000001800761c0 f i libucrtd:output.obj
 0001:000751e0       ?type_case_c@?$output_processor@DV?$stream_output_adapter@D@__crt_stdio_output@@V?$standard_base@DV?$stream_output_adapter@D@__crt_stdio_output@@@2@@__crt_stdio_output@@AEAA_NXZ 00000001800761e0 f i libucrtd:output.obj
 0001:00075200       ?type_case_c@?$output_processor@DV?$string_output_adapter@D@__crt_stdio_output@@V?$format_validation_base@DV?$string_output_adapter@D@__crt_stdio_output@@@2@@__crt_stdio_output@@AEAA_NXZ 0000000180076200 f i libucrtd:output.obj
 0001:00075220       ?type_case_c@?$output_processor@DV?$string_output_adapter@D@__crt_stdio_output@@V?$positional_parameter_base@DV?$string_output_adapter@D@__crt_stdio_output@@@2@@__crt_stdio_output@@AEAA_NXZ 0000000180076220 f i libucrtd:output.obj
 0001:00075240       ?type_case_c@?$output_processor@DV?$string_output_adapter@D@__crt_stdio_output@@V?$standard_base@DV?$string_output_adapter@D@__crt_stdio_output@@@2@@__crt_stdio_output@@AEAA_NXZ 0000000180076240 f i libucrtd:output.obj
 0001:00075260       ?type_case_c@?$output_processor@_WV?$stream_output_adapter@_W@__crt_stdio_output@@V?$format_validation_base@_WV?$stream_output_adapter@_W@__crt_stdio_output@@@2@@__crt_stdio_output@@AEAA_NXZ 0000000180076260 f i libucrtd:output.obj
 0001:00075280       ?type_case_c@?$output_processor@_WV?$stream_output_adapter@_W@__crt_stdio_output@@V?$positional_parameter_base@_WV?$stream_output_adapter@_W@__crt_stdio_output@@@2@@__crt_stdio_output@@AEAA_NXZ 0000000180076280 f i libucrtd:output.obj
 0001:000752a0       ?type_case_c@?$output_processor@_WV?$stream_output_adapter@_W@__crt_stdio_output@@V?$standard_base@_WV?$stream_output_adapter@_W@__crt_stdio_output@@@2@@__crt_stdio_output@@AEAA_NXZ 00000001800762a0 f i libucrtd:output.obj
 0001:000752c0       ?type_case_c@?$output_processor@_WV?$string_output_adapter@_W@__crt_stdio_output@@V?$format_validation_base@_WV?$string_output_adapter@_W@__crt_stdio_output@@@2@@__crt_stdio_output@@AEAA_NXZ 00000001800762c0 f i libucrtd:output.obj
 0001:000752e0       ?type_case_c@?$output_processor@_WV?$string_output_adapter@_W@__crt_stdio_output@@V?$positional_parameter_base@_WV?$string_output_adapter@_W@__crt_stdio_output@@@2@@__crt_stdio_output@@AEAA_NXZ 00000001800762e0 f i libucrtd:output.obj
 0001:00075300       ?type_case_c@?$output_processor@_WV?$string_output_adapter@_W@__crt_stdio_output@@V?$standard_base@_WV?$string_output_adapter@_W@__crt_stdio_output@@@2@@__crt_stdio_output@@AEAA_NXZ 0000000180076300 f i libucrtd:output.obj
 0001:00075320       ?type_case_c_tchar@?$output_processor@DV?$stream_output_adapter@D@__crt_stdio_output@@V?$format_validation_base@DV?$stream_output_adapter@D@__crt_stdio_output@@@2@@__crt_stdio_output@@AEAA_ND@Z 0000000180076320 f i libucrtd:output.obj
 0001:00075480       ?type_case_c_tchar@?$output_processor@DV?$stream_output_adapter@D@__crt_stdio_output@@V?$positional_parameter_base@DV?$stream_output_adapter@D@__crt_stdio_output@@@2@@__crt_stdio_output@@AEAA_ND@Z 0000000180076480 f i libucrtd:output.obj
 0001:000755e0       ?type_case_c_tchar@?$output_processor@DV?$stream_output_adapter@D@__crt_stdio_output@@V?$standard_base@DV?$stream_output_adapter@D@__crt_stdio_output@@@2@@__crt_stdio_output@@AEAA_ND@Z 00000001800765e0 f i libucrtd:output.obj
 0001:00075740       ?type_case_c_tchar@?$output_processor@DV?$string_output_adapter@D@__crt_stdio_output@@V?$format_validation_base@DV?$string_output_adapter@D@__crt_stdio_output@@@2@@__crt_stdio_output@@AEAA_ND@Z 0000000180076740 f i libucrtd:output.obj
 0001:000758a0       ?type_case_c_tchar@?$output_processor@DV?$string_output_adapter@D@__crt_stdio_output@@V?$positional_parameter_base@DV?$string_output_adapter@D@__crt_stdio_output@@@2@@__crt_stdio_output@@AEAA_ND@Z 00000001800768a0 f i libucrtd:output.obj
 0001:00075a00       ?type_case_c_tchar@?$output_processor@DV?$string_output_adapter@D@__crt_stdio_output@@V?$standard_base@DV?$string_output_adapter@D@__crt_stdio_output@@@2@@__crt_stdio_output@@AEAA_ND@Z 0000000180076a00 f i libucrtd:output.obj
 0001:00075b60       ?type_case_c_tchar@?$output_processor@_WV?$stream_output_adapter@_W@__crt_stdio_output@@V?$format_validation_base@_WV?$stream_output_adapter@_W@__crt_stdio_output@@@2@@__crt_stdio_output@@AEAA_N_W@Z 0000000180076b60 f i libucrtd:output.obj
 0001:00075c90       ?type_case_c_tchar@?$output_processor@_WV?$stream_output_adapter@_W@__crt_stdio_output@@V?$positional_parameter_base@_WV?$stream_output_adapter@_W@__crt_stdio_output@@@2@@__crt_stdio_output@@AEAA_N_W@Z 0000000180076c90 f i libucrtd:output.obj
 0001:00075dc0       ?type_case_c_tchar@?$output_processor@_WV?$stream_output_adapter@_W@__crt_stdio_output@@V?$standard_base@_WV?$stream_output_adapter@_W@__crt_stdio_output@@@2@@__crt_stdio_output@@AEAA_N_W@Z 0000000180076dc0 f i libucrtd:output.obj
 0001:00075ef0       ?type_case_c_tchar@?$output_processor@_WV?$string_output_adapter@_W@__crt_stdio_output@@V?$format_validation_base@_WV?$string_output_adapter@_W@__crt_stdio_output@@@2@@__crt_stdio_output@@AEAA_N_W@Z 0000000180076ef0 f i libucrtd:output.obj
 0001:00076020       ?type_case_c_tchar@?$output_processor@_WV?$string_output_adapter@_W@__crt_stdio_output@@V?$positional_parameter_base@_WV?$string_output_adapter@_W@__crt_stdio_output@@@2@@__crt_stdio_output@@AEAA_N_W@Z 0000000180077020 f i libucrtd:output.obj
 0001:00076150       ?type_case_c_tchar@?$output_processor@_WV?$string_output_adapter@_W@__crt_stdio_output@@V?$standard_base@_WV?$string_output_adapter@_W@__crt_stdio_output@@@2@@__crt_stdio_output@@AEAA_N_W@Z 0000000180077150 f i libucrtd:output.obj
 0001:00076280       ?type_case_d@?$output_processor@DV?$stream_output_adapter@D@__crt_stdio_output@@V?$format_validation_base@DV?$stream_output_adapter@D@__crt_stdio_output@@@2@@__crt_stdio_output@@AEAA_NXZ 0000000180077280 f i libucrtd:output.obj
 0001:000762b0       ?type_case_d@?$output_processor@DV?$stream_output_adapter@D@__crt_stdio_output@@V?$positional_parameter_base@DV?$stream_output_adapter@D@__crt_stdio_output@@@2@@__crt_stdio_output@@AEAA_NXZ 00000001800772b0 f i libucrtd:output.obj
 0001:000762e0       ?type_case_d@?$output_processor@DV?$stream_output_adapter@D@__crt_stdio_output@@V?$standard_base@DV?$stream_output_adapter@D@__crt_stdio_output@@@2@@__crt_stdio_output@@AEAA_NXZ 00000001800772e0 f i libucrtd:output.obj
 0001:00076310       ?type_case_d@?$output_processor@DV?$string_output_adapter@D@__crt_stdio_output@@V?$format_validation_base@DV?$string_output_adapter@D@__crt_stdio_output@@@2@@__crt_stdio_output@@AEAA_NXZ 0000000180077310 f i libucrtd:output.obj
 0001:00076340       ?type_case_d@?$output_processor@DV?$string_output_adapter@D@__crt_stdio_output@@V?$positional_parameter_base@DV?$string_output_adapter@D@__crt_stdio_output@@@2@@__crt_stdio_output@@AEAA_NXZ 0000000180077340 f i libucrtd:output.obj
 0001:00076370       ?type_case_d@?$output_processor@DV?$string_output_adapter@D@__crt_stdio_output@@V?$standard_base@DV?$string_output_adapter@D@__crt_stdio_output@@@2@@__crt_stdio_output@@AEAA_NXZ 0000000180077370 f i libucrtd:output.obj
 0001:000763a0       ?type_case_d@?$output_processor@_WV?$stream_output_adapter@_W@__crt_stdio_output@@V?$format_validation_base@_WV?$stream_output_adapter@_W@__crt_stdio_output@@@2@@__crt_stdio_output@@AEAA_NXZ 00000001800773a0 f i libucrtd:output.obj
 0001:000763d0       ?type_case_d@?$output_processor@_WV?$stream_output_adapter@_W@__crt_stdio_output@@V?$positional_parameter_base@_WV?$stream_output_adapter@_W@__crt_stdio_output@@@2@@__crt_stdio_output@@AEAA_NXZ 00000001800773d0 f i libucrtd:output.obj
 0001:00076400       ?type_case_d@?$output_processor@_WV?$stream_output_adapter@_W@__crt_stdio_output@@V?$standard_base@_WV?$stream_output_adapter@_W@__crt_stdio_output@@@2@@__crt_stdio_output@@AEAA_NXZ 0000000180077400 f i libucrtd:output.obj
 0001:00076430       ?type_case_d@?$output_processor@_WV?$string_output_adapter@_W@__crt_stdio_output@@V?$format_validation_base@_WV?$string_output_adapter@_W@__crt_stdio_output@@@2@@__crt_stdio_output@@AEAA_NXZ 0000000180077430 f i libucrtd:output.obj
 0001:00076460       ?type_case_d@?$output_processor@_WV?$string_output_adapter@_W@__crt_stdio_output@@V?$positional_parameter_base@_WV?$string_output_adapter@_W@__crt_stdio_output@@@2@@__crt_stdio_output@@AEAA_NXZ 0000000180077460 f i libucrtd:output.obj
 0001:00076490       ?type_case_d@?$output_processor@_WV?$string_output_adapter@_W@__crt_stdio_output@@V?$standard_base@_WV?$string_output_adapter@_W@__crt_stdio_output@@@2@@__crt_stdio_output@@AEAA_NXZ 0000000180077490 f i libucrtd:output.obj
 0001:000764c0       ?type_case_integer@?$output_processor@DV?$stream_output_adapter@D@__crt_stdio_output@@V?$format_validation_base@DV?$stream_output_adapter@D@__crt_stdio_output@@@2@@__crt_stdio_output@@AEAA_NI_N@Z 00000001800774c0 f i libucrtd:output.obj
 0001:00076910       ?type_case_integer@?$output_processor@DV?$stream_output_adapter@D@__crt_stdio_output@@V?$positional_parameter_base@DV?$stream_output_adapter@D@__crt_stdio_output@@@2@@__crt_stdio_output@@AEAA_NI_N@Z 0000000180077910 f i libucrtd:output.obj
 0001:00076d60       ?type_case_integer@?$output_processor@DV?$stream_output_adapter@D@__crt_stdio_output@@V?$standard_base@DV?$stream_output_adapter@D@__crt_stdio_output@@@2@@__crt_stdio_output@@AEAA_NI_N@Z 0000000180077d60 f i libucrtd:output.obj
 0001:000771b0       ?type_case_integer@?$output_processor@DV?$string_output_adapter@D@__crt_stdio_output@@V?$format_validation_base@DV?$string_output_adapter@D@__crt_stdio_output@@@2@@__crt_stdio_output@@AEAA_NI_N@Z 00000001800781b0 f i libucrtd:output.obj
 0001:00077600       ?type_case_integer@?$output_processor@DV?$string_output_adapter@D@__crt_stdio_output@@V?$positional_parameter_base@DV?$string_output_adapter@D@__crt_stdio_output@@@2@@__crt_stdio_output@@AEAA_NI_N@Z 0000000180078600 f i libucrtd:output.obj
 0001:00077a50       ?type_case_integer@?$output_processor@DV?$string_output_adapter@D@__crt_stdio_output@@V?$standard_base@DV?$string_output_adapter@D@__crt_stdio_output@@@2@@__crt_stdio_output@@AEAA_NI_N@Z 0000000180078a50 f i libucrtd:output.obj
 0001:00077ea0       ?type_case_integer@?$output_processor@_WV?$stream_output_adapter@_W@__crt_stdio_output@@V?$format_validation_base@_WV?$stream_output_adapter@_W@__crt_stdio_output@@@2@@__crt_stdio_output@@AEAA_NI_N@Z 0000000180078ea0 f i libucrtd:output.obj
 0001:000782f0       ?type_case_integer@?$output_processor@_WV?$stream_output_adapter@_W@__crt_stdio_output@@V?$positional_parameter_base@_WV?$stream_output_adapter@_W@__crt_stdio_output@@@2@@__crt_stdio_output@@AEAA_NI_N@Z 00000001800792f0 f i libucrtd:output.obj
 0001:00078740       ?type_case_integer@?$output_processor@_WV?$stream_output_adapter@_W@__crt_stdio_output@@V?$standard_base@_WV?$stream_output_adapter@_W@__crt_stdio_output@@@2@@__crt_stdio_output@@AEAA_NI_N@Z 0000000180079740 f i libucrtd:output.obj
 0001:00078b90       ?type_case_integer@?$output_processor@_WV?$string_output_adapter@_W@__crt_stdio_output@@V?$format_validation_base@_WV?$string_output_adapter@_W@__crt_stdio_output@@@2@@__crt_stdio_output@@AEAA_NI_N@Z 0000000180079b90 f i libucrtd:output.obj
 0001:00078fe0       ?type_case_integer@?$output_processor@_WV?$string_output_adapter@_W@__crt_stdio_output@@V?$positional_parameter_base@_WV?$string_output_adapter@_W@__crt_stdio_output@@@2@@__crt_stdio_output@@AEAA_NI_N@Z 0000000180079fe0 f i libucrtd:output.obj
 0001:00079430       ?type_case_integer@?$output_processor@_WV?$string_output_adapter@_W@__crt_stdio_output@@V?$standard_base@_WV?$string_output_adapter@_W@__crt_stdio_output@@@2@@__crt_stdio_output@@AEAA_NI_N@Z 000000018007a430 f i libucrtd:output.obj
 0001:00079880       ?type_case_n@?$output_processor@DV?$stream_output_adapter@D@__crt_stdio_output@@V?$format_validation_base@DV?$stream_output_adapter@D@__crt_stdio_output@@@2@@__crt_stdio_output@@AEAA_NXZ 000000018007a880 f i libucrtd:output.obj
 0001:00079ac0       ?type_case_n@?$output_processor@DV?$stream_output_adapter@D@__crt_stdio_output@@V?$positional_parameter_base@DV?$stream_output_adapter@D@__crt_stdio_output@@@2@@__crt_stdio_output@@AEAA_NXZ 000000018007aac0 f i libucrtd:output.obj
 0001:00079d00       ?type_case_n@?$output_processor@DV?$stream_output_adapter@D@__crt_stdio_output@@V?$standard_base@DV?$stream_output_adapter@D@__crt_stdio_output@@@2@@__crt_stdio_output@@AEAA_NXZ 000000018007ad00 f i libucrtd:output.obj
 0001:00079f40       ?type_case_n@?$output_processor@DV?$string_output_adapter@D@__crt_stdio_output@@V?$format_validation_base@DV?$string_output_adapter@D@__crt_stdio_output@@@2@@__crt_stdio_output@@AEAA_NXZ 000000018007af40 f i libucrtd:output.obj
 0001:0007a180       ?type_case_n@?$output_processor@DV?$string_output_adapter@D@__crt_stdio_output@@V?$positional_parameter_base@DV?$string_output_adapter@D@__crt_stdio_output@@@2@@__crt_stdio_output@@AEAA_NXZ 000000018007b180 f i libucrtd:output.obj
 0001:0007a3c0       ?type_case_n@?$output_processor@DV?$string_output_adapter@D@__crt_stdio_output@@V?$standard_base@DV?$string_output_adapter@D@__crt_stdio_output@@@2@@__crt_stdio_output@@AEAA_NXZ 000000018007b3c0 f i libucrtd:output.obj
 0001:0007a600       ?type_case_n@?$output_processor@_WV?$stream_output_adapter@_W@__crt_stdio_output@@V?$format_validation_base@_WV?$stream_output_adapter@_W@__crt_stdio_output@@@2@@__crt_stdio_output@@AEAA_NXZ 000000018007b600 f i libucrtd:output.obj
 0001:0007a840       ?type_case_n@?$output_processor@_WV?$stream_output_adapter@_W@__crt_stdio_output@@V?$positional_parameter_base@_WV?$stream_output_adapter@_W@__crt_stdio_output@@@2@@__crt_stdio_output@@AEAA_NXZ 000000018007b840 f i libucrtd:output.obj
 0001:0007aa80       ?type_case_n@?$output_processor@_WV?$stream_output_adapter@_W@__crt_stdio_output@@V?$standard_base@_WV?$stream_output_adapter@_W@__crt_stdio_output@@@2@@__crt_stdio_output@@AEAA_NXZ 000000018007ba80 f i libucrtd:output.obj
 0001:0007acc0       ?type_case_n@?$output_processor@_WV?$string_output_adapter@_W@__crt_stdio_output@@V?$format_validation_base@_WV?$string_output_adapter@_W@__crt_stdio_output@@@2@@__crt_stdio_output@@AEAA_NXZ 000000018007bcc0 f i libucrtd:output.obj
 0001:0007af00       ?type_case_n@?$output_processor@_WV?$string_output_adapter@_W@__crt_stdio_output@@V?$positional_parameter_base@_WV?$string_output_adapter@_W@__crt_stdio_output@@@2@@__crt_stdio_output@@AEAA_NXZ 000000018007bf00 f i libucrtd:output.obj
 0001:0007b140       ?type_case_n@?$output_processor@_WV?$string_output_adapter@_W@__crt_stdio_output@@V?$standard_base@_WV?$string_output_adapter@_W@__crt_stdio_output@@@2@@__crt_stdio_output@@AEAA_NXZ 000000018007c140 f i libucrtd:output.obj
 0001:0007b380       ?type_case_o@?$output_processor@DV?$stream_output_adapter@D@__crt_stdio_output@@V?$format_validation_base@DV?$stream_output_adapter@D@__crt_stdio_output@@@2@@__crt_stdio_output@@AEAA_NXZ 000000018007c380 f i libucrtd:output.obj
 0001:0007b3d0       ?type_case_o@?$output_processor@DV?$stream_output_adapter@D@__crt_stdio_output@@V?$positional_parameter_base@DV?$stream_output_adapter@D@__crt_stdio_output@@@2@@__crt_stdio_output@@AEAA_NXZ 000000018007c3d0 f i libucrtd:output.obj
 0001:0007b420       ?type_case_o@?$output_processor@DV?$stream_output_adapter@D@__crt_stdio_output@@V?$standard_base@DV?$stream_output_adapter@D@__crt_stdio_output@@@2@@__crt_stdio_output@@AEAA_NXZ 000000018007c420 f i libucrtd:output.obj
 0001:0007b470       ?type_case_o@?$output_processor@DV?$string_output_adapter@D@__crt_stdio_output@@V?$format_validation_base@DV?$string_output_adapter@D@__crt_stdio_output@@@2@@__crt_stdio_output@@AEAA_NXZ 000000018007c470 f i libucrtd:output.obj
 0001:0007b4c0       ?type_case_o@?$output_processor@DV?$string_output_adapter@D@__crt_stdio_output@@V?$positional_parameter_base@DV?$string_output_adapter@D@__crt_stdio_output@@@2@@__crt_stdio_output@@AEAA_NXZ 000000018007c4c0 f i libucrtd:output.obj
 0001:0007b510       ?type_case_o@?$output_processor@DV?$string_output_adapter@D@__crt_stdio_output@@V?$standard_base@DV?$string_output_adapter@D@__crt_stdio_output@@@2@@__crt_stdio_output@@AEAA_NXZ 000000018007c510 f i libucrtd:output.obj
 0001:0007b560       ?type_case_o@?$output_processor@_WV?$stream_output_adapter@_W@__crt_stdio_output@@V?$format_validation_base@_WV?$stream_output_adapter@_W@__crt_stdio_output@@@2@@__crt_stdio_output@@AEAA_NXZ 000000018007c560 f i libucrtd:output.obj
 0001:0007b5b0       ?type_case_o@?$output_processor@_WV?$stream_output_adapter@_W@__crt_stdio_output@@V?$positional_parameter_base@_WV?$stream_output_adapter@_W@__crt_stdio_output@@@2@@__crt_stdio_output@@AEAA_NXZ 000000018007c5b0 f i libucrtd:output.obj
 0001:0007b600       ?type_case_o@?$output_processor@_WV?$stream_output_adapter@_W@__crt_stdio_output@@V?$standard_base@_WV?$stream_output_adapter@_W@__crt_stdio_output@@@2@@__crt_stdio_output@@AEAA_NXZ 000000018007c600 f i libucrtd:output.obj
 0001:0007b650       ?type_case_o@?$output_processor@_WV?$string_output_adapter@_W@__crt_stdio_output@@V?$format_validation_base@_WV?$string_output_adapter@_W@__crt_stdio_output@@@2@@__crt_stdio_output@@AEAA_NXZ 000000018007c650 f i libucrtd:output.obj
 0001:0007b6a0       ?type_case_o@?$output_processor@_WV?$string_output_adapter@_W@__crt_stdio_output@@V?$positional_parameter_base@_WV?$string_output_adapter@_W@__crt_stdio_output@@@2@@__crt_stdio_output@@AEAA_NXZ 000000018007c6a0 f i libucrtd:output.obj
 0001:0007b6f0       ?type_case_o@?$output_processor@_WV?$string_output_adapter@_W@__crt_stdio_output@@V?$standard_base@_WV?$string_output_adapter@_W@__crt_stdio_output@@@2@@__crt_stdio_output@@AEAA_NXZ 000000018007c6f0 f i libucrtd:output.obj
 0001:0007b740       ?type_case_p@?$output_processor@DV?$stream_output_adapter@D@__crt_stdio_output@@V?$format_validation_base@DV?$stream_output_adapter@D@__crt_stdio_output@@@2@@__crt_stdio_output@@AEAA_NXZ 000000018007c740 f i libucrtd:output.obj
 0001:0007b780       ?type_case_p@?$output_processor@DV?$stream_output_adapter@D@__crt_stdio_output@@V?$positional_parameter_base@DV?$stream_output_adapter@D@__crt_stdio_output@@@2@@__crt_stdio_output@@AEAA_NXZ 000000018007c780 f i libucrtd:output.obj
 0001:0007b7c0       ?type_case_p@?$output_processor@DV?$stream_output_adapter@D@__crt_stdio_output@@V?$standard_base@DV?$stream_output_adapter@D@__crt_stdio_output@@@2@@__crt_stdio_output@@AEAA_NXZ 000000018007c7c0 f i libucrtd:output.obj
 0001:0007b800       ?type_case_p@?$output_processor@DV?$string_output_adapter@D@__crt_stdio_output@@V?$format_validation_base@DV?$string_output_adapter@D@__crt_stdio_output@@@2@@__crt_stdio_output@@AEAA_NXZ 000000018007c800 f i libucrtd:output.obj
 0001:0007b840       ?type_case_p@?$output_processor@DV?$string_output_adapter@D@__crt_stdio_output@@V?$positional_parameter_base@DV?$string_output_adapter@D@__crt_stdio_output@@@2@@__crt_stdio_output@@AEAA_NXZ 000000018007c840 f i libucrtd:output.obj
 0001:0007b880       ?type_case_p@?$output_processor@DV?$string_output_adapter@D@__crt_stdio_output@@V?$standard_base@DV?$string_output_adapter@D@__crt_stdio_output@@@2@@__crt_stdio_output@@AEAA_NXZ 000000018007c880 f i libucrtd:output.obj
 0001:0007b8c0       ?type_case_p@?$output_processor@_WV?$stream_output_adapter@_W@__crt_stdio_output@@V?$format_validation_base@_WV?$stream_output_adapter@_W@__crt_stdio_output@@@2@@__crt_stdio_output@@AEAA_NXZ 000000018007c8c0 f i libucrtd:output.obj
 0001:0007b900       ?type_case_p@?$output_processor@_WV?$stream_output_adapter@_W@__crt_stdio_output@@V?$positional_parameter_base@_WV?$stream_output_adapter@_W@__crt_stdio_output@@@2@@__crt_stdio_output@@AEAA_NXZ 000000018007c900 f i libucrtd:output.obj
 0001:0007b940       ?type_case_p@?$output_processor@_WV?$stream_output_adapter@_W@__crt_stdio_output@@V?$standard_base@_WV?$stream_output_adapter@_W@__crt_stdio_output@@@2@@__crt_stdio_output@@AEAA_NXZ 000000018007c940 f i libucrtd:output.obj
 0001:0007b980       ?type_case_p@?$output_processor@_WV?$string_output_adapter@_W@__crt_stdio_output@@V?$format_validation_base@_WV?$string_output_adapter@_W@__crt_stdio_output@@@2@@__crt_stdio_output@@AEAA_NXZ 000000018007c980 f i libucrtd:output.obj
 0001:0007b9c0       ?type_case_p@?$output_processor@_WV?$string_output_adapter@_W@__crt_stdio_output@@V?$positional_parameter_base@_WV?$string_output_adapter@_W@__crt_stdio_output@@@2@@__crt_stdio_output@@AEAA_NXZ 000000018007c9c0 f i libucrtd:output.obj
 0001:0007ba00       ?type_case_p@?$output_processor@_WV?$string_output_adapter@_W@__crt_stdio_output@@V?$standard_base@_WV?$string_output_adapter@_W@__crt_stdio_output@@@2@@__crt_stdio_output@@AEAA_NXZ 000000018007ca00 f i libucrtd:output.obj
 0001:0007ba40       ?type_case_s@?$output_processor@DV?$stream_output_adapter@D@__crt_stdio_output@@V?$format_validation_base@DV?$stream_output_adapter@D@__crt_stdio_output@@@2@@__crt_stdio_output@@AEAA_NXZ 000000018007ca40 f i libucrtd:output.obj
 0001:0007bb60       ?type_case_s@?$output_processor@DV?$stream_output_adapter@D@__crt_stdio_output@@V?$positional_parameter_base@DV?$stream_output_adapter@D@__crt_stdio_output@@@2@@__crt_stdio_output@@AEAA_NXZ 000000018007cb60 f i libucrtd:output.obj
 0001:0007bc80       ?type_case_s@?$output_processor@DV?$stream_output_adapter@D@__crt_stdio_output@@V?$standard_base@DV?$stream_output_adapter@D@__crt_stdio_output@@@2@@__crt_stdio_output@@AEAA_NXZ 000000018007cc80 f i libucrtd:output.obj
 0001:0007bda0       ?type_case_s@?$output_processor@DV?$string_output_adapter@D@__crt_stdio_output@@V?$format_validation_base@DV?$string_output_adapter@D@__crt_stdio_output@@@2@@__crt_stdio_output@@AEAA_NXZ 000000018007cda0 f i libucrtd:output.obj
 0001:0007bec0       ?type_case_s@?$output_processor@DV?$string_output_adapter@D@__crt_stdio_output@@V?$positional_parameter_base@DV?$string_output_adapter@D@__crt_stdio_output@@@2@@__crt_stdio_output@@AEAA_NXZ 000000018007cec0 f i libucrtd:output.obj
 0001:0007bfe0       ?type_case_s@?$output_processor@DV?$string_output_adapter@D@__crt_stdio_output@@V?$standard_base@DV?$string_output_adapter@D@__crt_stdio_output@@@2@@__crt_stdio_output@@AEAA_NXZ 000000018007cfe0 f i libucrtd:output.obj
 0001:0007c100       ?type_case_s@?$output_processor@_WV?$stream_output_adapter@_W@__crt_stdio_output@@V?$format_validation_base@_WV?$stream_output_adapter@_W@__crt_stdio_output@@@2@@__crt_stdio_output@@AEAA_NXZ 000000018007d100 f i libucrtd:output.obj
 0001:0007c220       ?type_case_s@?$output_processor@_WV?$stream_output_adapter@_W@__crt_stdio_output@@V?$positional_parameter_base@_WV?$stream_output_adapter@_W@__crt_stdio_output@@@2@@__crt_stdio_output@@AEAA_NXZ 000000018007d220 f i libucrtd:output.obj
 0001:0007c340       ?type_case_s@?$output_processor@_WV?$stream_output_adapter@_W@__crt_stdio_output@@V?$standard_base@_WV?$stream_output_adapter@_W@__crt_stdio_output@@@2@@__crt_stdio_output@@AEAA_NXZ 000000018007d340 f i libucrtd:output.obj
 0001:0007c460       ?type_case_s@?$output_processor@_WV?$string_output_adapter@_W@__crt_stdio_output@@V?$format_validation_base@_WV?$string_output_adapter@_W@__crt_stdio_output@@@2@@__crt_stdio_output@@AEAA_NXZ 000000018007d460 f i libucrtd:output.obj
 0001:0007c580       ?type_case_s@?$output_processor@_WV?$string_output_adapter@_W@__crt_stdio_output@@V?$positional_parameter_base@_WV?$string_output_adapter@_W@__crt_stdio_output@@@2@@__crt_stdio_output@@AEAA_NXZ 000000018007d580 f i libucrtd:output.obj
 0001:0007c6a0       ?type_case_s@?$output_processor@_WV?$string_output_adapter@_W@__crt_stdio_output@@V?$standard_base@_WV?$string_output_adapter@_W@__crt_stdio_output@@@2@@__crt_stdio_output@@AEAA_NXZ 000000018007d6a0 f i libucrtd:output.obj
 0001:0007c7c0       ?type_case_s_compute_narrow_string_length@?$output_processor@DV?$stream_output_adapter@D@__crt_stdio_output@@V?$format_validation_base@DV?$stream_output_adapter@D@__crt_stdio_output@@@2@@__crt_stdio_output@@AEBAHHD@Z 000000018007d7c0 f i libucrtd:output.obj
 0001:0007c7f0       ?type_case_s_compute_narrow_string_length@?$output_processor@DV?$stream_output_adapter@D@__crt_stdio_output@@V?$positional_parameter_base@DV?$stream_output_adapter@D@__crt_stdio_output@@@2@@__crt_stdio_output@@AEBAHHD@Z 000000018007d7f0 f i libucrtd:output.obj
 0001:0007c820       ?type_case_s_compute_narrow_string_length@?$output_processor@DV?$stream_output_adapter@D@__crt_stdio_output@@V?$standard_base@DV?$stream_output_adapter@D@__crt_stdio_output@@@2@@__crt_stdio_output@@AEBAHHD@Z 000000018007d820 f i libucrtd:output.obj
 0001:0007c850       ?type_case_s_compute_narrow_string_length@?$output_processor@DV?$string_output_adapter@D@__crt_stdio_output@@V?$format_validation_base@DV?$string_output_adapter@D@__crt_stdio_output@@@2@@__crt_stdio_output@@AEBAHHD@Z 000000018007d850 f i libucrtd:output.obj
 0001:0007c880       ?type_case_s_compute_narrow_string_length@?$output_processor@DV?$string_output_adapter@D@__crt_stdio_output@@V?$positional_parameter_base@DV?$string_output_adapter@D@__crt_stdio_output@@@2@@__crt_stdio_output@@AEBAHHD@Z 000000018007d880 f i libucrtd:output.obj
 0001:0007c8b0       ?type_case_s_compute_narrow_string_length@?$output_processor@DV?$string_output_adapter@D@__crt_stdio_output@@V?$standard_base@DV?$string_output_adapter@D@__crt_stdio_output@@@2@@__crt_stdio_output@@AEBAHHD@Z 000000018007d8b0 f i libucrtd:output.obj
 0001:0007c8e0       ?type_case_s_compute_narrow_string_length@?$output_processor@_WV?$stream_output_adapter@_W@__crt_stdio_output@@V?$format_validation_base@_WV?$stream_output_adapter@_W@__crt_stdio_output@@@2@@__crt_stdio_output@@AEBAHH_W@Z 000000018007d8e0 f i libucrtd:output.obj
 0001:0007c970       ?type_case_s_compute_narrow_string_length@?$output_processor@_WV?$stream_output_adapter@_W@__crt_stdio_output@@V?$positional_parameter_base@_WV?$stream_output_adapter@_W@__crt_stdio_output@@@2@@__crt_stdio_output@@AEBAHH_W@Z 000000018007d970 f i libucrtd:output.obj
 0001:0007ca00       ?type_case_s_compute_narrow_string_length@?$output_processor@_WV?$stream_output_adapter@_W@__crt_stdio_output@@V?$standard_base@_WV?$stream_output_adapter@_W@__crt_stdio_output@@@2@@__crt_stdio_output@@AEBAHH_W@Z 000000018007da00 f i libucrtd:output.obj
 0001:0007ca90       ?type_case_s_compute_narrow_string_length@?$output_processor@_WV?$string_output_adapter@_W@__crt_stdio_output@@V?$format_validation_base@_WV?$string_output_adapter@_W@__crt_stdio_output@@@2@@__crt_stdio_output@@AEBAHH_W@Z 000000018007da90 f i libucrtd:output.obj
 0001:0007cb20       ?type_case_s_compute_narrow_string_length@?$output_processor@_WV?$string_output_adapter@_W@__crt_stdio_output@@V?$positional_parameter_base@_WV?$string_output_adapter@_W@__crt_stdio_output@@@2@@__crt_stdio_output@@AEBAHH_W@Z 000000018007db20 f i libucrtd:output.obj
 0001:0007cbb0       ?type_case_s_compute_narrow_string_length@?$output_processor@_WV?$string_output_adapter@_W@__crt_stdio_output@@V?$standard_base@_WV?$string_output_adapter@_W@__crt_stdio_output@@@2@@__crt_stdio_output@@AEBAHH_W@Z 000000018007dbb0 f i libucrtd:output.obj
 0001:0007cc40       ?type_case_u@?$output_processor@DV?$stream_output_adapter@D@__crt_stdio_output@@V?$format_validation_base@DV?$stream_output_adapter@D@__crt_stdio_output@@@2@@__crt_stdio_output@@AEAA_NXZ 000000018007dc40 f i libucrtd:output.obj
 0001:0007cc60       ?type_case_u@?$output_processor@DV?$stream_output_adapter@D@__crt_stdio_output@@V?$positional_parameter_base@DV?$stream_output_adapter@D@__crt_stdio_output@@@2@@__crt_stdio_output@@AEAA_NXZ 000000018007dc60 f i libucrtd:output.obj
 0001:0007cc80       ?type_case_u@?$output_processor@DV?$stream_output_adapter@D@__crt_stdio_output@@V?$standard_base@DV?$stream_output_adapter@D@__crt_stdio_output@@@2@@__crt_stdio_output@@AEAA_NXZ 000000018007dc80 f i libucrtd:output.obj
 0001:0007cca0       ?type_case_u@?$output_processor@DV?$string_output_adapter@D@__crt_stdio_output@@V?$format_validation_base@DV?$string_output_adapter@D@__crt_stdio_output@@@2@@__crt_stdio_output@@AEAA_NXZ 000000018007dca0 f i libucrtd:output.obj
 0001:0007ccc0       ?type_case_u@?$output_processor@DV?$string_output_adapter@D@__crt_stdio_output@@V?$positional_parameter_base@DV?$string_output_adapter@D@__crt_stdio_output@@@2@@__crt_stdio_output@@AEAA_NXZ 000000018007dcc0 f i libucrtd:output.obj
 0001:0007cce0       ?type_case_u@?$output_processor@DV?$string_output_adapter@D@__crt_stdio_output@@V?$standard_base@DV?$string_output_adapter@D@__crt_stdio_output@@@2@@__crt_stdio_output@@AEAA_NXZ 000000018007dce0 f i libucrtd:output.obj
 0001:0007cd00       ?type_case_u@?$output_processor@_WV?$stream_output_adapter@_W@__crt_stdio_output@@V?$format_validation_base@_WV?$stream_output_adapter@_W@__crt_stdio_output@@@2@@__crt_stdio_output@@AEAA_NXZ 000000018007dd00 f i libucrtd:output.obj
 0001:0007cd20       ?type_case_u@?$output_processor@_WV?$stream_output_adapter@_W@__crt_stdio_output@@V?$positional_parameter_base@_WV?$stream_output_adapter@_W@__crt_stdio_output@@@2@@__crt_stdio_output@@AEAA_NXZ 000000018007dd20 f i libucrtd:output.obj
 0001:0007cd40       ?type_case_u@?$output_processor@_WV?$stream_output_adapter@_W@__crt_stdio_output@@V?$standard_base@_WV?$stream_output_adapter@_W@__crt_stdio_output@@@2@@__crt_stdio_output@@AEAA_NXZ 000000018007dd40 f i libucrtd:output.obj
 0001:0007cd60       ?type_case_u@?$output_processor@_WV?$string_output_adapter@_W@__crt_stdio_output@@V?$format_validation_base@_WV?$string_output_adapter@_W@__crt_stdio_output@@@2@@__crt_stdio_output@@AEAA_NXZ 000000018007dd60 f i libucrtd:output.obj
 0001:0007cd80       ?type_case_u@?$output_processor@_WV?$string_output_adapter@_W@__crt_stdio_output@@V?$positional_parameter_base@_WV?$string_output_adapter@_W@__crt_stdio_output@@@2@@__crt_stdio_output@@AEAA_NXZ 000000018007dd80 f i libucrtd:output.obj
 0001:0007cda0       ?type_case_u@?$output_processor@_WV?$string_output_adapter@_W@__crt_stdio_output@@V?$standard_base@_WV?$string_output_adapter@_W@__crt_stdio_output@@@2@@__crt_stdio_output@@AEAA_NXZ 000000018007dda0 f i libucrtd:output.obj
 0001:0007cdc0       ?type_case_x@?$output_processor@DV?$stream_output_adapter@D@__crt_stdio_output@@V?$format_validation_base@DV?$stream_output_adapter@D@__crt_stdio_output@@@2@@__crt_stdio_output@@AEAA_NXZ 000000018007ddc0 f i libucrtd:output.obj
 0001:0007cde0       ?type_case_x@?$output_processor@DV?$stream_output_adapter@D@__crt_stdio_output@@V?$positional_parameter_base@DV?$stream_output_adapter@D@__crt_stdio_output@@@2@@__crt_stdio_output@@AEAA_NXZ 000000018007dde0 f i libucrtd:output.obj
 0001:0007ce00       ?type_case_x@?$output_processor@DV?$stream_output_adapter@D@__crt_stdio_output@@V?$standard_base@DV?$stream_output_adapter@D@__crt_stdio_output@@@2@@__crt_stdio_output@@AEAA_NXZ 000000018007de00 f i libucrtd:output.obj
 0001:0007ce20       ?type_case_x@?$output_processor@DV?$string_output_adapter@D@__crt_stdio_output@@V?$format_validation_base@DV?$string_output_adapter@D@__crt_stdio_output@@@2@@__crt_stdio_output@@AEAA_NXZ 000000018007de20 f i libucrtd:output.obj
 0001:0007ce40       ?type_case_x@?$output_processor@DV?$string_output_adapter@D@__crt_stdio_output@@V?$positional_parameter_base@DV?$string_output_adapter@D@__crt_stdio_output@@@2@@__crt_stdio_output@@AEAA_NXZ 000000018007de40 f i libucrtd:output.obj
 0001:0007ce60       ?type_case_x@?$output_processor@DV?$string_output_adapter@D@__crt_stdio_output@@V?$standard_base@DV?$string_output_adapter@D@__crt_stdio_output@@@2@@__crt_stdio_output@@AEAA_NXZ 000000018007de60 f i libucrtd:output.obj
 0001:0007ce80       ?type_case_x@?$output_processor@_WV?$stream_output_adapter@_W@__crt_stdio_output@@V?$format_validation_base@_WV?$stream_output_adapter@_W@__crt_stdio_output@@@2@@__crt_stdio_output@@AEAA_NXZ 000000018007de80 f i libucrtd:output.obj
 0001:0007cea0       ?type_case_x@?$output_processor@_WV?$stream_output_adapter@_W@__crt_stdio_output@@V?$positional_parameter_base@_WV?$stream_output_adapter@_W@__crt_stdio_output@@@2@@__crt_stdio_output@@AEAA_NXZ 000000018007dea0 f i libucrtd:output.obj
 0001:0007cec0       ?type_case_x@?$output_processor@_WV?$stream_output_adapter@_W@__crt_stdio_output@@V?$standard_base@_WV?$stream_output_adapter@_W@__crt_stdio_output@@@2@@__crt_stdio_output@@AEAA_NXZ 000000018007dec0 f i libucrtd:output.obj
 0001:0007cee0       ?type_case_x@?$output_processor@_WV?$string_output_adapter@_W@__crt_stdio_output@@V?$format_validation_base@_WV?$string_output_adapter@_W@__crt_stdio_output@@@2@@__crt_stdio_output@@AEAA_NXZ 000000018007dee0 f i libucrtd:output.obj
 0001:0007cf00       ?type_case_x@?$output_processor@_WV?$string_output_adapter@_W@__crt_stdio_output@@V?$positional_parameter_base@_WV?$string_output_adapter@_W@__crt_stdio_output@@@2@@__crt_stdio_output@@AEAA_NXZ 000000018007df00 f i libucrtd:output.obj
 0001:0007cf20       ?type_case_x@?$output_processor@_WV?$string_output_adapter@_W@__crt_stdio_output@@V?$standard_base@_WV?$string_output_adapter@_W@__crt_stdio_output@@@2@@__crt_stdio_output@@AEAA_NXZ 000000018007df20 f i libucrtd:output.obj
 0001:0007cf40       ?unset_flag@?$output_processor@DV?$stream_output_adapter@D@__crt_stdio_output@@V?$format_validation_base@DV?$stream_output_adapter@D@__crt_stdio_output@@@2@@__crt_stdio_output@@AEAAXI@Z 000000018007df40 f i libucrtd:output.obj
 0001:0007cf70       ?unset_flag@?$output_processor@DV?$stream_output_adapter@D@__crt_stdio_output@@V?$positional_parameter_base@DV?$stream_output_adapter@D@__crt_stdio_output@@@2@@__crt_stdio_output@@AEAAXI@Z 000000018007df70 f i libucrtd:output.obj
 0001:0007cfa0       ?unset_flag@?$output_processor@DV?$stream_output_adapter@D@__crt_stdio_output@@V?$standard_base@DV?$stream_output_adapter@D@__crt_stdio_output@@@2@@__crt_stdio_output@@AEAAXI@Z 000000018007dfa0 f i libucrtd:output.obj
 0001:0007cfd0       ?unset_flag@?$output_processor@DV?$string_output_adapter@D@__crt_stdio_output@@V?$format_validation_base@DV?$string_output_adapter@D@__crt_stdio_output@@@2@@__crt_stdio_output@@AEAAXI@Z 000000018007dfd0 f i libucrtd:output.obj
 0001:0007d000       ?unset_flag@?$output_processor@DV?$string_output_adapter@D@__crt_stdio_output@@V?$positional_parameter_base@DV?$string_output_adapter@D@__crt_stdio_output@@@2@@__crt_stdio_output@@AEAAXI@Z 000000018007e000 f i libucrtd:output.obj
 0001:0007d030       ?unset_flag@?$output_processor@DV?$string_output_adapter@D@__crt_stdio_output@@V?$standard_base@DV?$string_output_adapter@D@__crt_stdio_output@@@2@@__crt_stdio_output@@AEAAXI@Z 000000018007e030 f i libucrtd:output.obj
 0001:0007d060       ?unset_flag@?$output_processor@_WV?$stream_output_adapter@_W@__crt_stdio_output@@V?$format_validation_base@_WV?$stream_output_adapter@_W@__crt_stdio_output@@@2@@__crt_stdio_output@@AEAAXI@Z 000000018007e060 f i libucrtd:output.obj
 0001:0007d090       ?unset_flag@?$output_processor@_WV?$stream_output_adapter@_W@__crt_stdio_output@@V?$positional_parameter_base@_WV?$stream_output_adapter@_W@__crt_stdio_output@@@2@@__crt_stdio_output@@AEAAXI@Z 000000018007e090 f i libucrtd:output.obj
 0001:0007d0c0       ?unset_flag@?$output_processor@_WV?$stream_output_adapter@_W@__crt_stdio_output@@V?$standard_base@_WV?$stream_output_adapter@_W@__crt_stdio_output@@@2@@__crt_stdio_output@@AEAAXI@Z 000000018007e0c0 f i libucrtd:output.obj
 0001:0007d0f0       ?unset_flag@?$output_processor@_WV?$string_output_adapter@_W@__crt_stdio_output@@V?$format_validation_base@_WV?$string_output_adapter@_W@__crt_stdio_output@@@2@@__crt_stdio_output@@AEAAXI@Z 000000018007e0f0 f i libucrtd:output.obj
 0001:0007d120       ?unset_flag@?$output_processor@_WV?$string_output_adapter@_W@__crt_stdio_output@@V?$positional_parameter_base@_WV?$string_output_adapter@_W@__crt_stdio_output@@@2@@__crt_stdio_output@@AEAAXI@Z 000000018007e120 f i libucrtd:output.obj
 0001:0007d150       ?unset_flag@?$output_processor@_WV?$string_output_adapter@_W@__crt_stdio_output@@V?$standard_base@_WV?$string_output_adapter@_W@__crt_stdio_output@@@2@@__crt_stdio_output@@AEAAXI@Z 000000018007e150 f i libucrtd:output.obj
 0001:0007d180       ?update_field_width@?$positional_parameter_base@DV?$stream_output_adapter@D@__crt_stdio_output@@@__crt_stdio_output@@IEAA_NXZ 000000018007e180 f i libucrtd:output.obj
 0001:0007d370       ?update_field_width@?$positional_parameter_base@DV?$string_output_adapter@D@__crt_stdio_output@@@__crt_stdio_output@@IEAA_NXZ 000000018007e370 f i libucrtd:output.obj
 0001:0007d560       ?update_field_width@?$positional_parameter_base@_WV?$stream_output_adapter@_W@__crt_stdio_output@@@__crt_stdio_output@@IEAA_NXZ 000000018007e560 f i libucrtd:output.obj
 0001:0007d750       ?update_field_width@?$positional_parameter_base@_WV?$string_output_adapter@_W@__crt_stdio_output@@@__crt_stdio_output@@IEAA_NXZ 000000018007e750 f i libucrtd:output.obj
 0001:0007d940       ?update_field_width@?$standard_base@DV?$stream_output_adapter@D@__crt_stdio_output@@@__crt_stdio_output@@IEAA_NXZ 000000018007e940 f i libucrtd:output.obj
 0001:0007d970       ?update_field_width@?$standard_base@DV?$string_output_adapter@D@__crt_stdio_output@@@__crt_stdio_output@@IEAA_NXZ 000000018007e970 f i libucrtd:output.obj
 0001:0007d9a0       ?update_field_width@?$standard_base@_WV?$stream_output_adapter@_W@__crt_stdio_output@@@__crt_stdio_output@@IEAA_NXZ 000000018007e9a0 f i libucrtd:output.obj
 0001:0007d9d0       ?update_field_width@?$standard_base@_WV?$string_output_adapter@_W@__crt_stdio_output@@@__crt_stdio_output@@IEAA_NXZ 000000018007e9d0 f i libucrtd:output.obj
 0001:0007da00       ?update_precision@?$positional_parameter_base@DV?$stream_output_adapter@D@__crt_stdio_output@@@__crt_stdio_output@@IEAA_NXZ 000000018007ea00 f i libucrtd:output.obj
 0001:0007dbf0       ?update_precision@?$positional_parameter_base@DV?$string_output_adapter@D@__crt_stdio_output@@@__crt_stdio_output@@IEAA_NXZ 000000018007ebf0 f i libucrtd:output.obj
 0001:0007dde0       ?update_precision@?$positional_parameter_base@_WV?$stream_output_adapter@_W@__crt_stdio_output@@@__crt_stdio_output@@IEAA_NXZ 000000018007ede0 f i libucrtd:output.obj
 0001:0007dfd0       ?update_precision@?$positional_parameter_base@_WV?$string_output_adapter@_W@__crt_stdio_output@@@__crt_stdio_output@@IEAA_NXZ 000000018007efd0 f i libucrtd:output.obj
 0001:0007e1c0       ?update_precision@?$standard_base@DV?$stream_output_adapter@D@__crt_stdio_output@@@__crt_stdio_output@@IEAA_NXZ 000000018007f1c0 f i libucrtd:output.obj
 0001:0007e1f0       ?update_precision@?$standard_base@DV?$string_output_adapter@D@__crt_stdio_output@@@__crt_stdio_output@@IEAA_NXZ 000000018007f1f0 f i libucrtd:output.obj
 0001:0007e220       ?update_precision@?$standard_base@_WV?$stream_output_adapter@_W@__crt_stdio_output@@@__crt_stdio_output@@IEAA_NXZ 000000018007f220 f i libucrtd:output.obj
 0001:0007e250       ?update_precision@?$standard_base@_WV?$string_output_adapter@_W@__crt_stdio_output@@@__crt_stdio_output@@IEAA_NXZ 000000018007f250 f i libucrtd:output.obj
 0001:0007e280       ?valid@__crt_stdio_stream@@QEBA_NXZ 000000018007f280 f i libucrtd:output.obj
 0001:0007e2b0       ?validate@?$stream_output_adapter@D@__crt_stdio_output@@QEBA_NXZ 000000018007f2b0 f i libucrtd:output.obj
 0001:0007e390       ?validate@?$stream_output_adapter@_W@__crt_stdio_output@@QEBA_NXZ 000000018007f390 f i libucrtd:output.obj
 0001:0007e470       ?validate@?$string_output_adapter@D@__crt_stdio_output@@QEBA_NXZ 000000018007f470 f i libucrtd:output.obj
 0001:0007e530       ?validate@?$string_output_adapter@_W@__crt_stdio_output@@QEBA_NXZ 000000018007f530 f i libucrtd:output.obj
 0001:0007e5f0       ?validate_and_store_parameter_data@?$positional_parameter_base@DV?$stream_output_adapter@D@__crt_stdio_output@@@__crt_stdio_output@@AEAA_NAEAUparameter_data@12@W4parameter_type@12@DW4length_modifier@2@@Z 000000018007f5f0 f i libucrtd:output.obj
 0001:0007e710       ?validate_and_store_parameter_data@?$positional_parameter_base@DV?$string_output_adapter@D@__crt_stdio_output@@@__crt_stdio_output@@AEAA_NAEAUparameter_data@12@W4parameter_type@12@DW4length_modifier@2@@Z 000000018007f710 f i libucrtd:output.obj
 0001:0007e830       ?validate_and_store_parameter_data@?$positional_parameter_base@_WV?$stream_output_adapter@_W@__crt_stdio_output@@@__crt_stdio_output@@AEAA_NAEAUparameter_data@12@W4parameter_type@12@_WW4length_modifier@2@@Z 000000018007f830 f i libucrtd:output.obj
 0001:0007e950       ?validate_and_store_parameter_data@?$positional_parameter_base@_WV?$string_output_adapter@_W@__crt_stdio_output@@@__crt_stdio_output@@AEAA_NAEAUparameter_data@12@W4parameter_type@12@_WW4length_modifier@2@@Z 000000018007f950 f i libucrtd:output.obj
 0001:0007ea70       ?validate_and_update_state_at_beginning_of_format_character@?$positional_parameter_base@DV?$stream_output_adapter@D@__crt_stdio_output@@@__crt_stdio_output@@IEAA_NXZ 000000018007fa70 f i libucrtd:output.obj
 0001:0007ed50       ?validate_and_update_state_at_beginning_of_format_character@?$positional_parameter_base@DV?$string_output_adapter@D@__crt_stdio_output@@@__crt_stdio_output@@IEAA_NXZ 000000018007fd50 f i libucrtd:output.obj
 0001:0007f030       ?validate_and_update_state_at_beginning_of_format_character@?$positional_parameter_base@_WV?$stream_output_adapter@_W@__crt_stdio_output@@@__crt_stdio_output@@IEAA_NXZ 0000000180080030 f i libucrtd:output.obj
 0001:0007f310       ?validate_and_update_state_at_beginning_of_format_character@?$positional_parameter_base@_WV?$string_output_adapter@_W@__crt_stdio_output@@@__crt_stdio_output@@IEAA_NXZ 0000000180080310 f i libucrtd:output.obj
 0001:0007f5f0       ?validate_and_update_state_at_beginning_of_format_character@?$standard_base@DV?$stream_output_adapter@D@__crt_stdio_output@@@__crt_stdio_output@@IEAA_NXZ 00000001800805f0 f i libucrtd:output.obj
 0001:0007f600       ?validate_and_update_state_at_beginning_of_format_character@?$standard_base@DV?$string_output_adapter@D@__crt_stdio_output@@@__crt_stdio_output@@IEAA_NXZ 0000000180080600 f i libucrtd:output.obj
 0001:0007f610       ?validate_and_update_state_at_beginning_of_format_character@?$standard_base@_WV?$stream_output_adapter@_W@__crt_stdio_output@@@__crt_stdio_output@@IEAA_NXZ 0000000180080610 f i libucrtd:output.obj
 0001:0007f620       ?validate_and_update_state_at_beginning_of_format_character@?$standard_base@_WV?$string_output_adapter@_W@__crt_stdio_output@@@__crt_stdio_output@@IEAA_NXZ 0000000180080620 f i libucrtd:output.obj
 0001:0007f630       ?validate_and_update_state_at_end_of_format_string@?$format_validation_base@DV?$stream_output_adapter@D@__crt_stdio_output@@@__crt_stdio_output@@IEBA_NXZ 0000000180080630 f i libucrtd:output.obj
 0001:0007f6f0       ?validate_and_update_state_at_end_of_format_string@?$format_validation_base@DV?$string_output_adapter@D@__crt_stdio_output@@@__crt_stdio_output@@IEBA_NXZ 00000001800806f0 f i libucrtd:output.obj
 0001:0007f7b0       ?validate_and_update_state_at_end_of_format_string@?$format_validation_base@_WV?$stream_output_adapter@_W@__crt_stdio_output@@@__crt_stdio_output@@IEBA_NXZ 00000001800807b0 f i libucrtd:output.obj
 0001:0007f870       ?validate_and_update_state_at_end_of_format_string@?$format_validation_base@_WV?$string_output_adapter@_W@__crt_stdio_output@@@__crt_stdio_output@@IEBA_NXZ 0000000180080870 f i libucrtd:output.obj
 0001:0007f930       ?validate_and_update_state_at_end_of_format_string@?$positional_parameter_base@DV?$stream_output_adapter@D@__crt_stdio_output@@@__crt_stdio_output@@IEAA_NXZ 0000000180080930 f i libucrtd:output.obj
 0001:0007fb20       ?validate_and_update_state_at_end_of_format_string@?$positional_parameter_base@DV?$string_output_adapter@D@__crt_stdio_output@@@__crt_stdio_output@@IEAA_NXZ 0000000180080b20 f i libucrtd:output.obj
 0001:0007fd10       ?validate_and_update_state_at_end_of_format_string@?$positional_parameter_base@_WV?$stream_output_adapter@_W@__crt_stdio_output@@@__crt_stdio_output@@IEAA_NXZ 0000000180080d10 f i libucrtd:output.obj
 0001:0007ff00       ?validate_and_update_state_at_end_of_format_string@?$positional_parameter_base@_WV?$string_output_adapter@_W@__crt_stdio_output@@@__crt_stdio_output@@IEAA_NXZ 0000000180080f00 f i libucrtd:output.obj
 0001:000800f0       ?validate_and_update_state_at_end_of_format_string@?$standard_base@DV?$stream_output_adapter@D@__crt_stdio_output@@@__crt_stdio_output@@IEBA_NXZ 00000001800810f0 f i libucrtd:output.obj
 0001:00080100       ?validate_and_update_state_at_end_of_format_string@?$standard_base@DV?$string_output_adapter@D@__crt_stdio_output@@@__crt_stdio_output@@IEBA_NXZ 0000000180081100 f i libucrtd:output.obj
 0001:00080110       ?validate_and_update_state_at_end_of_format_string@?$standard_base@_WV?$stream_output_adapter@_W@__crt_stdio_output@@@__crt_stdio_output@@IEBA_NXZ 0000000180081110 f i libucrtd:output.obj
 0001:00080120       ?validate_and_update_state_at_end_of_format_string@?$standard_base@_WV?$string_output_adapter@_W@__crt_stdio_output@@@__crt_stdio_output@@IEBA_NXZ 0000000180081120 f i libucrtd:output.obj
 0001:00080130       ?validate_state_for_type_case_a@?$positional_parameter_base@DV?$stream_output_adapter@D@__crt_stdio_output@@@__crt_stdio_output@@IEAA_NXZ 0000000180081130 f i libucrtd:output.obj
 0001:00080270       ?validate_state_for_type_case_a@?$positional_parameter_base@DV?$string_output_adapter@D@__crt_stdio_output@@@__crt_stdio_output@@IEAA_NXZ 0000000180081270 f i libucrtd:output.obj
 0001:000803b0       ?validate_state_for_type_case_a@?$positional_parameter_base@_WV?$stream_output_adapter@_W@__crt_stdio_output@@@__crt_stdio_output@@IEAA_NXZ 00000001800813b0 f i libucrtd:output.obj
 0001:000804f0       ?validate_state_for_type_case_a@?$positional_parameter_base@_WV?$string_output_adapter@_W@__crt_stdio_output@@@__crt_stdio_output@@IEAA_NXZ 00000001800814f0 f i libucrtd:output.obj
 0001:00080630       ?validate_state_for_type_case_a@?$standard_base@DV?$stream_output_adapter@D@__crt_stdio_output@@@__crt_stdio_output@@IEBA_NXZ 0000000180081630 f i libucrtd:output.obj
 0001:00080640       ?validate_state_for_type_case_a@?$standard_base@DV?$string_output_adapter@D@__crt_stdio_output@@@__crt_stdio_output@@IEBA_NXZ 0000000180081640 f i libucrtd:output.obj
 0001:00080650       ?validate_state_for_type_case_a@?$standard_base@_WV?$stream_output_adapter@_W@__crt_stdio_output@@@__crt_stdio_output@@IEBA_NXZ 0000000180081650 f i libucrtd:output.obj
 0001:00080660       ?validate_state_for_type_case_a@?$standard_base@_WV?$string_output_adapter@_W@__crt_stdio_output@@@__crt_stdio_output@@IEBA_NXZ 0000000180081660 f i libucrtd:output.obj
 0001:00080670       ?validate_stream_is_ansi_if_required@?$__acrt_stdio_char_traits@D@@SA_NQEAU_iobuf@@@Z 0000000180081670 f i libucrtd:output.obj
 0001:00080800       ?validate_stream_is_ansi_if_required@?$__acrt_stdio_char_traits@_W@@SA_NQEAU_iobuf@@@Z 0000000180081800 f i libucrtd:output.obj
 0001:00080810       ?wide_null_string@?$output_processor@DV?$stream_output_adapter@D@__crt_stdio_output@@V?$format_validation_base@DV?$stream_output_adapter@D@__crt_stdio_output@@@2@@__crt_stdio_output@@CAPEA_WXZ 0000000180081810 f i libucrtd:output.obj
 0001:00080820       ?wide_null_string@?$output_processor@DV?$stream_output_adapter@D@__crt_stdio_output@@V?$positional_parameter_base@DV?$stream_output_adapter@D@__crt_stdio_output@@@2@@__crt_stdio_output@@CAPEA_WXZ 0000000180081820 f i libucrtd:output.obj
 0001:00080830       ?wide_null_string@?$output_processor@DV?$stream_output_adapter@D@__crt_stdio_output@@V?$standard_base@DV?$stream_output_adapter@D@__crt_stdio_output@@@2@@__crt_stdio_output@@CAPEA_WXZ 0000000180081830 f i libucrtd:output.obj
 0001:00080840       ?wide_null_string@?$output_processor@DV?$string_output_adapter@D@__crt_stdio_output@@V?$format_validation_base@DV?$string_output_adapter@D@__crt_stdio_output@@@2@@__crt_stdio_output@@CAPEA_WXZ 0000000180081840 f i libucrtd:output.obj
 0001:00080850       ?wide_null_string@?$output_processor@DV?$string_output_adapter@D@__crt_stdio_output@@V?$positional_parameter_base@DV?$string_output_adapter@D@__crt_stdio_output@@@2@@__crt_stdio_output@@CAPEA_WXZ 0000000180081850 f i libucrtd:output.obj
 0001:00080860       ?wide_null_string@?$output_processor@DV?$string_output_adapter@D@__crt_stdio_output@@V?$standard_base@DV?$string_output_adapter@D@__crt_stdio_output@@@2@@__crt_stdio_output@@CAPEA_WXZ 0000000180081860 f i libucrtd:output.obj
 0001:00080870       ?wide_null_string@?$output_processor@_WV?$stream_output_adapter@_W@__crt_stdio_output@@V?$format_validation_base@_WV?$stream_output_adapter@_W@__crt_stdio_output@@@2@@__crt_stdio_output@@CAPEA_WXZ 0000000180081870 f i libucrtd:output.obj
 0001:00080880       ?wide_null_string@?$output_processor@_WV?$stream_output_adapter@_W@__crt_stdio_output@@V?$positional_parameter_base@_WV?$stream_output_adapter@_W@__crt_stdio_output@@@2@@__crt_stdio_output@@CAPEA_WXZ 0000000180081880 f i libucrtd:output.obj
 0001:00080890       ?wide_null_string@?$output_processor@_WV?$stream_output_adapter@_W@__crt_stdio_output@@V?$standard_base@_WV?$stream_output_adapter@_W@__crt_stdio_output@@@2@@__crt_stdio_output@@CAPEA_WXZ 0000000180081890 f i libucrtd:output.obj
 0001:000808a0       ?wide_null_string@?$output_processor@_WV?$string_output_adapter@_W@__crt_stdio_output@@V?$format_validation_base@_WV?$string_output_adapter@_W@__crt_stdio_output@@@2@@__crt_stdio_output@@CAPEA_WXZ 00000001800818a0 f i libucrtd:output.obj
 0001:000808b0       ?wide_null_string@?$output_processor@_WV?$string_output_adapter@_W@__crt_stdio_output@@V?$positional_parameter_base@_WV?$string_output_adapter@_W@__crt_stdio_output@@@2@@__crt_stdio_output@@CAPEA_WXZ 00000001800818b0 f i libucrtd:output.obj
 0001:000808c0       ?wide_null_string@?$output_processor@_WV?$string_output_adapter@_W@__crt_stdio_output@@V?$standard_base@_WV?$string_output_adapter@_W@__crt_stdio_output@@@2@@__crt_stdio_output@@CAPEA_WXZ 00000001800818c0 f i libucrtd:output.obj
 0001:000808d0       ?write_character@?$output_adapter_common@DV?$stream_output_adapter@D@__crt_stdio_output@@@__crt_stdio_output@@QEBAXDQEAH@Z 00000001800818d0 f i libucrtd:output.obj
 0001:00080920       ?write_character@?$output_adapter_common@_WV?$stream_output_adapter@_W@__crt_stdio_output@@@__crt_stdio_output@@QEBAX_WQEAH@Z 0000000180081920 f i libucrtd:output.obj
 0001:00080970       ?write_character@?$string_output_adapter@D@__crt_stdio_output@@QEBA_NDQEAH@Z 0000000180081970 f i libucrtd:output.obj
 0001:00080a30       ?write_character@?$string_output_adapter@_W@__crt_stdio_output@@QEBA_N_WQEAH@Z 0000000180081a30 f i libucrtd:output.obj
 0001:00080af0       ?write_character_without_count_update@?$stream_output_adapter@D@__crt_stdio_output@@QEBA_ND@Z 0000000180081af0 f i libucrtd:output.obj
 0001:00080b70       ?write_character_without_count_update@?$stream_output_adapter@_W@__crt_stdio_output@@QEBA_N_W@Z 0000000180081b70 f i libucrtd:output.obj
 0001:00080c00       ?write_stored_string_tchar@?$output_processor@DV?$stream_output_adapter@D@__crt_stdio_output@@V?$format_validation_base@DV?$stream_output_adapter@D@__crt_stdio_output@@@2@@__crt_stdio_output@@AEAA_ND@Z 0000000180081c00 f i libucrtd:output.obj
 0001:00080dc0       ?write_stored_string_tchar@?$output_processor@DV?$stream_output_adapter@D@__crt_stdio_output@@V?$positional_parameter_base@DV?$stream_output_adapter@D@__crt_stdio_output@@@2@@__crt_stdio_output@@AEAA_ND@Z 0000000180081dc0 f i libucrtd:output.obj
 0001:00080f80       ?write_stored_string_tchar@?$output_processor@DV?$stream_output_adapter@D@__crt_stdio_output@@V?$standard_base@DV?$stream_output_adapter@D@__crt_stdio_output@@@2@@__crt_stdio_output@@AEAA_ND@Z 0000000180081f80 f i libucrtd:output.obj
 0001:00081140       ?write_stored_string_tchar@?$output_processor@DV?$string_output_adapter@D@__crt_stdio_output@@V?$format_validation_base@DV?$string_output_adapter@D@__crt_stdio_output@@@2@@__crt_stdio_output@@AEAA_ND@Z 0000000180082140 f i libucrtd:output.obj
 0001:00081300       ?write_stored_string_tchar@?$output_processor@DV?$string_output_adapter@D@__crt_stdio_output@@V?$positional_parameter_base@DV?$string_output_adapter@D@__crt_stdio_output@@@2@@__crt_stdio_output@@AEAA_ND@Z 0000000180082300 f i libucrtd:output.obj
 0001:000814c0       ?write_stored_string_tchar@?$output_processor@DV?$string_output_adapter@D@__crt_stdio_output@@V?$standard_base@DV?$string_output_adapter@D@__crt_stdio_output@@@2@@__crt_stdio_output@@AEAA_ND@Z 00000001800824c0 f i libucrtd:output.obj
 0001:00081680       ?write_stored_string_tchar@?$output_processor@_WV?$stream_output_adapter@_W@__crt_stdio_output@@V?$format_validation_base@_WV?$stream_output_adapter@_W@__crt_stdio_output@@@2@@__crt_stdio_output@@AEAA_N_W@Z 0000000180082680 f i libucrtd:output.obj
 0001:000817d0       ?write_stored_string_tchar@?$output_processor@_WV?$stream_output_adapter@_W@__crt_stdio_output@@V?$positional_parameter_base@_WV?$stream_output_adapter@_W@__crt_stdio_output@@@2@@__crt_stdio_output@@AEAA_N_W@Z 00000001800827d0 f i libucrtd:output.obj
 0001:00081920       ?write_stored_string_tchar@?$output_processor@_WV?$stream_output_adapter@_W@__crt_stdio_output@@V?$standard_base@_WV?$stream_output_adapter@_W@__crt_stdio_output@@@2@@__crt_stdio_output@@AEAA_N_W@Z 0000000180082920 f i libucrtd:output.obj
 0001:00081a70       ?write_stored_string_tchar@?$output_processor@_WV?$string_output_adapter@_W@__crt_stdio_output@@V?$format_validation_base@_WV?$string_output_adapter@_W@__crt_stdio_output@@@2@@__crt_stdio_output@@AEAA_N_W@Z 0000000180082a70 f i libucrtd:output.obj
 0001:00081bc0       ?write_stored_string_tchar@?$output_processor@_WV?$string_output_adapter@_W@__crt_stdio_output@@V?$positional_parameter_base@_WV?$string_output_adapter@_W@__crt_stdio_output@@@2@@__crt_stdio_output@@AEAA_N_W@Z 0000000180082bc0 f i libucrtd:output.obj
 0001:00081d10       ?write_stored_string_tchar@?$output_processor@_WV?$string_output_adapter@_W@__crt_stdio_output@@V?$standard_base@_WV?$string_output_adapter@_W@__crt_stdio_output@@@2@@__crt_stdio_output@@AEAA_N_W@Z 0000000180082d10 f i libucrtd:output.obj
 0001:00081e60       ?write_string@?$stream_output_adapter@D@__crt_stdio_output@@QEBAXQEBDHQEAHAEAV__crt_deferred_errno_cache@@@Z 0000000180082e60 f i libucrtd:output.obj
 0001:00081ee0       ?write_string@?$stream_output_adapter@_W@__crt_stdio_output@@QEBAXQEB_WHQEAHAEAV__crt_deferred_errno_cache@@@Z 0000000180082ee0 f i libucrtd:output.obj
 0001:00081f60       ?write_string@?$string_output_adapter@D@__crt_stdio_output@@QEBAXQEBDHQEAHAEAV__crt_deferred_errno_cache@@@Z 0000000180082f60 f i libucrtd:output.obj
 0001:000820d0       ?write_string@?$string_output_adapter@_W@__crt_stdio_output@@QEBAXQEB_WHQEAHAEAV__crt_deferred_errno_cache@@@Z 00000001800830d0 f i libucrtd:output.obj
 0001:00082240       ?write_string_impl@?$output_adapter_common@DV?$stream_output_adapter@D@__crt_stdio_output@@@__crt_stdio_output@@IEBAXQEBDHQEAHAEAV__crt_deferred_errno_cache@@@Z 0000000180083240 f i libucrtd:output.obj
 0001:00082320       ?write_string_impl@?$output_adapter_common@_WV?$stream_output_adapter@_W@__crt_stdio_output@@@__crt_stdio_output@@IEBAXQEB_WHQEAHAEAV__crt_deferred_errno_cache@@@Z 0000000180083320 f i libucrtd:output.obj
 0001:00082400       __acrt_disable_global_locale_sync 0000000180083400 f i libucrtd:output.obj
 0001:00082430       __acrt_enable_global_locale_sync 0000000180083430 f i libucrtd:output.obj
 0001:00082460       __acrt_isleadbyte_l_noupdate 0000000180083460 f i libucrtd:output.obj
 0001:00082490       __acrt_locale_changed      0000000180083490 f i libucrtd:output.obj
 0001:000824c0       __acrt_locale_get_ctype_array_value 00000001800834c0 f i libucrtd:output.obj
 0001:00082500       __stdio_common_vfprintf    0000000180083500 f   libucrtd:output.obj
 0001:00082540       __stdio_common_vfprintf_p  0000000180083540 f   libucrtd:output.obj
 0001:00082580       __stdio_common_vfprintf_s  0000000180083580 f   libucrtd:output.obj
 0001:000825c0       __stdio_common_vfwprintf   00000001800835c0 f   libucrtd:output.obj
 0001:00082600       __stdio_common_vfwprintf_p 0000000180083600 f   libucrtd:output.obj
 0001:00082640       __stdio_common_vfwprintf_s 0000000180083640 f   libucrtd:output.obj
 0001:00082680       __stdio_common_vsnprintf_s 0000000180083680 f   libucrtd:output.obj
 0001:000826e0       __stdio_common_vsnwprintf_s 00000001800836e0 f   libucrtd:output.obj
 0001:00082740       __stdio_common_vsprintf    0000000180083740 f   libucrtd:output.obj
 0001:00082790       __stdio_common_vsprintf_p  0000000180083790 f   libucrtd:output.obj
 0001:000827e0       __stdio_common_vsprintf_s  00000001800837e0 f   libucrtd:output.obj
 0001:00082830       __stdio_common_vswprintf   0000000180083830 f   libucrtd:output.obj
 0001:00082880       __stdio_common_vswprintf_p 0000000180083880 f   libucrtd:output.obj
 0001:000828d0       __stdio_common_vswprintf_s 00000001800838d0 f   libucrtd:output.obj
 0001:00082920       _ctype_fast_check_internal 0000000180083920 f i libucrtd:output.obj
 0001:00082950       _isdigit_fast_internal     0000000180083950 f i libucrtd:output.obj
 0001:00082980       _tolower_fast_internal     0000000180083980 f i libucrtd:output.obj
 0001:000829b0       free                       00000001800839b0 f   libucrtd:free.obj
 0001:000829e0       malloc                     00000001800839e0 f   libucrtd:malloc.obj
 0001:00082a10       ??$?RU?$__crt_report_hook_node@D@@@__crt_internal_free_policy@@QEBAXQEBU?$__crt_report_hook_node@D@@@Z 0000000180083a10 f i libucrtd:dbgrpt.obj
 0001:00082a40       ??$?RU?$__crt_report_hook_node@_W@@@__crt_internal_free_policy@@QEBAXQEBU?$__crt_report_hook_node@_W@@@Z 0000000180083a40 f i libucrtd:dbgrpt.obj
 0001:00083c80       ??$get_module_file_name@AEAPEAUHINSTANCE__@@AEAY0BAF@DK@?$__crt_char_traits@D@@SAKAEAPEAUHINSTANCE__@@AEAY0BAF@D$$QEAK@Z 0000000180084c80 f i libucrtd:dbgrpt.obj
 0001:00083cc0       ??$get_module_file_name@AEAPEAUHINSTANCE__@@AEAY0BAF@_WK@?$__crt_char_traits@_W@@SAKAEAPEAUHINSTANCE__@@AEAY0BAF@_W$$QEAK@Z 0000000180084cc0 f i libucrtd:dbgrpt.obj
 0001:00083d00       ??$tcscpy_s@AEAY0BAF@D_KPEBD@?$__crt_char_traits@D@@SAHAEAY0BAF@D$$QEA_K$$QEAPEBD@Z 0000000180084d00 f i libucrtd:dbgrpt.obj
 0001:00083d40       ??$tcscpy_s@AEAY0BAF@_W_KPEB_W@?$__crt_char_traits@_W@@SAHAEAY0BAF@_W$$QEA_K$$QEAPEB_W@Z 0000000180084d40 f i libucrtd:dbgrpt.obj
 0001:00083d80       ??$tcslen@AEAY0BAF@D@?$__crt_char_traits@D@@SA_KAEAY0BAF@D@Z 0000000180084d80 f i libucrtd:dbgrpt.obj
 0001:00083da0       ??$tcslen@AEAY0BAF@_W@?$__crt_char_traits@_W@@SA_KAEAY0BAF@_W@Z 0000000180084da0 f i libucrtd:dbgrpt.obj
 0001:00083dc0       ??$tcslen@AEBQEBD@?$__crt_char_traits@D@@SA_KAEBQEBD@Z 0000000180084dc0 f i libucrtd:dbgrpt.obj
 0001:00083de0       ??$tcslen@AEBQEB_W@?$__crt_char_traits@_W@@SA_KAEBQEB_W@Z 0000000180084de0 f i libucrtd:dbgrpt.obj
 0001:00083ee0       ??0?$__crt_unique_heap_ptr@U?$__crt_report_hook_node@D@@U__crt_internal_free_policy@@@@QEAA@QEAU?$__crt_report_hook_node@D@@@Z 0000000180084ee0 f i libucrtd:dbgrpt.obj
 0001:00083f00       ??0?$__crt_unique_heap_ptr@U?$__crt_report_hook_node@_W@@U__crt_internal_free_policy@@@@QEAA@QEAU?$__crt_report_hook_node@_W@@@Z 0000000180084f00 f i libucrtd:dbgrpt.obj
 0001:00083f20       ??1?$__crt_unique_heap_ptr@U?$__crt_report_hook_node@D@@U__crt_internal_free_policy@@@@QEAA@XZ 0000000180084f20 f i libucrtd:dbgrpt.obj
 0001:00083f40       ??1?$__crt_unique_heap_ptr@U?$__crt_report_hook_node@_W@@U__crt_internal_free_policy@@@@QEAA@XZ 0000000180084f40 f i libucrtd:dbgrpt.obj
 0001:00083f60       ??B?$__crt_unique_heap_ptr@U?$__crt_report_hook_node@D@@U__crt_internal_free_policy@@@@QEBA_NXZ 0000000180084f60 f i libucrtd:dbgrpt.obj
 0001:00083f80       ??B?$__crt_unique_heap_ptr@U?$__crt_report_hook_node@_W@@U__crt_internal_free_policy@@@@QEBA_NXZ 0000000180084f80 f i libucrtd:dbgrpt.obj
 0001:00084660       ?detach@?$__crt_unique_heap_ptr@U?$__crt_report_hook_node@D@@U__crt_internal_free_policy@@@@QEAAPEAU?$__crt_report_hook_node@D@@XZ 0000000180085660 f i libucrtd:dbgrpt.obj
 0001:00084690       ?detach@?$__crt_unique_heap_ptr@U?$__crt_report_hook_node@_W@@U__crt_internal_free_policy@@@@QEAAPEAU?$__crt_report_hook_node@_W@@XZ 0000000180085690 f i libucrtd:dbgrpt.obj
 0001:000846c0       ?get@?$__crt_unique_heap_ptr@U?$__crt_report_hook_node@D@@U__crt_internal_free_policy@@@@QEBAPEAU?$__crt_report_hook_node@D@@XZ 00000001800856c0 f i libucrtd:dbgrpt.obj
 0001:000846d0       ?get@?$__crt_unique_heap_ptr@U?$__crt_report_hook_node@_W@@U__crt_internal_free_policy@@@@QEBAPEAU?$__crt_report_hook_node@_W@@XZ 00000001800856d0 f i libucrtd:dbgrpt.obj
 0001:00084740       ?is_valid@?$__crt_unique_heap_ptr@U?$__crt_report_hook_node@D@@U__crt_internal_free_policy@@@@QEBA_NXZ 0000000180085740 f i libucrtd:dbgrpt.obj
 0001:00084770       ?is_valid@?$__crt_unique_heap_ptr@U?$__crt_report_hook_node@_W@@U__crt_internal_free_policy@@@@QEBA_NXZ 0000000180085770 f i libucrtd:dbgrpt.obj
 0001:000847a0       ?release@?$__crt_unique_heap_ptr@U?$__crt_report_hook_node@D@@U__crt_internal_free_policy@@@@QEAAXXZ 00000001800857a0 f i libucrtd:dbgrpt.obj
 0001:000847d0       ?release@?$__crt_unique_heap_ptr@U?$__crt_report_hook_node@_W@@U__crt_internal_free_policy@@@@QEAAXXZ 00000001800857d0 f i libucrtd:dbgrpt.obj
 0001:00084800       _CrtDbgReport              0000000180085800 f   libucrtd:dbgrpt.obj
 0001:00084880       _CrtDbgReportW             0000000180085880 f   libucrtd:dbgrpt.obj
 0001:00084900       _CrtSetReportHook2         0000000180085900 f   libucrtd:dbgrpt.obj
 0001:00084920       _CrtSetReportHookW2        0000000180085920 f   libucrtd:dbgrpt.obj
 0001:00084940       __acrt_MessageWindowA      0000000180085940 f   libucrtd:dbgrpt.obj
 0001:00084990       __acrt_MessageWindowW      0000000180085990 f   libucrtd:dbgrpt.obj
 0001:000849e0       _invoke_watson_if_error    00000001800859e0 f i libucrtd:dbgrpt.obj
 0001:00084a30       _invoke_watson_if_oneof    0000000180085a30 f i libucrtd:dbgrpt.obj
 0001:00084a90       _snwprintf_s               0000000180085a90 f i libucrtd:dbgrpt.obj
 0001:00084b00       _vsnwprintf_s_l            0000000180085b00 f i libucrtd:dbgrpt.obj
 0001:00085060       wcscpy_s                   0000000180086060 f   libucrtd:wcscpy_s.obj
 0001:000863f0       ??1?$__crt_simd_cleanup_guard@$00@@QEAA@XZ 00000001800873f0 f i libucrtd:strnlen.obj
 0001:00086400       ??1?$__crt_simd_cleanup_guard@$0A@@@QEAA@XZ 0000000180087400 f i libucrtd:strnlen.obj
 0001:00086410       ?compare_equals@?$__crt_simd_traits@$00E@@SA?AT__m256i@@T2@0@Z 0000000180087410 f i libucrtd:strnlen.obj
 0001:00086450       ?compare_equals@?$__crt_simd_traits@$00G@@SA?AT__m256i@@T2@0@Z 0000000180087450 f i libucrtd:strnlen.obj
 0001:00086490       ?compare_equals@?$__crt_simd_traits@$0A@E@@SA?AT__m128i@@T2@0@Z 0000000180087490 f i libucrtd:strnlen.obj
 0001:000864c0       ?compare_equals@?$__crt_simd_traits@$0A@G@@SA?AT__m128i@@T2@0@Z 00000001800874c0 f i libucrtd:strnlen.obj
 0001:000864f0       ?compute_byte_mask@?$__crt_simd_pack_traits@$00@@SAHT__m256i@@@Z 00000001800874f0 f i libucrtd:strnlen.obj
 0001:00086510       ?compute_byte_mask@?$__crt_simd_pack_traits@$0A@@@SAHT__m128i@@@Z 0000000180087510 f i libucrtd:strnlen.obj
 0001:00086530       ?get_zero_pack@?$__crt_simd_pack_traits@$00@@SA?AT__m256i@@XZ 0000000180087530 f i libucrtd:strnlen.obj
 0001:00086560       ?get_zero_pack@?$__crt_simd_pack_traits@$0A@@@SA?AT__m128i@@XZ 0000000180087560 f i libucrtd:strnlen.obj
 0001:00086580       strnlen                    0000000180087580 f   libucrtd:strnlen.obj
 0001:000865b0       wcslen                     00000001800875b0 f   libucrtd:strnlen.obj
 0001:000865d0       wcsnlen                    00000001800875d0 f   libucrtd:strnlen.obj
 0001:00086600       ??$__crt_fast_decode_pointer@P6AXPEB_W00I_K@Z@@YAP6AXPEB_W00I_K@ZQ6AX000I1@Z@Z 0000000180087600 f i libucrtd:invalid_parameter.obj
 0001:00086640       ??$__crt_fast_encode_pointer@P6AXPEB_W00I_K@Z@@YAP6AXPEB_W00I_K@ZQ6AX000I1@Z@Z 0000000180087640 f i libucrtd:invalid_parameter.obj
 0001:00086680       ??$initialize_from_array@$$BY00Q6AXPEB_W00I_K@Z@?$dual_state_global@P6AXPEB_W00I_K@Z@__crt_state_management@@QEAAXAEAY00Q6AXPEB_W00I_K@Z@Z 0000000180087680 f i libucrtd:invalid_parameter.obj
 0001:000866e0       ?__crt_rotate_pointer_value@@YA_K_KH@Z 00000001800876e0 f i libucrtd:invalid_parameter.obj
 0001:000867a0       ?dangerous_get_state_array@?$dual_state_global@P6AXPEB_W00I_K@Z@__crt_state_management@@QEAAPEAP6AXPEB_W00I_K@ZXZ 00000001800877a0 f i libucrtd:invalid_parameter.obj
 0001:000867b0       ?get_current_state_index@__crt_state_management@@YA_KXZ 00000001800877b0 f i libucrtd:invalid_parameter.obj
 0001:000867c0       ?value@?$dual_state_global@P6AXPEB_W00I_K@Z@__crt_state_management@@QEAAAEAP6AXPEB_W00I_K@ZXZ 00000001800877c0 f i libucrtd:invalid_parameter.obj
 0001:000867e0       __acrt_call_reportfault    00000001800877e0 f   libucrtd:invalid_parameter.obj
 0001:00086910       __acrt_initialize_invalid_parameter_handler 0000000180087910 f   libucrtd:invalid_parameter.obj
 0001:00086940       _get_invalid_parameter_handler 0000000180087940 f   libucrtd:invalid_parameter.obj
 0001:00086960       _get_thread_local_invalid_parameter_handler 0000000180087960 f   libucrtd:invalid_parameter.obj
 0001:00086990       _invalid_parameter         0000000180087990 f   libucrtd:invalid_parameter.obj
 0001:00086a90       _invalid_parameter_noinfo  0000000180087a90 f   libucrtd:invalid_parameter.obj
 0001:00086ac0       _invalid_parameter_noinfo_noreturn 0000000180087ac0 f   libucrtd:invalid_parameter.obj
 0001:00086b00       _invoke_watson             0000000180087b00 f   libucrtd:invalid_parameter.obj
 0001:00086b60       _set_invalid_parameter_handler 0000000180087b60 f   libucrtd:invalid_parameter.obj
 0001:00086bb0       _set_thread_local_invalid_parameter_handler 0000000180087bb0 f   libucrtd:invalid_parameter.obj
 0001:00086bf0       __acrt_errno_from_os_error 0000000180087bf0 f   libucrtd:errno.obj
 0001:00086c80       __acrt_errno_map_os_error  0000000180087c80 f   libucrtd:errno.obj
 0001:00086cb0       __doserrno                 0000000180087cb0 f   libucrtd:errno.obj
 0001:00086ce0       _errno                     0000000180087ce0 f   libucrtd:errno.obj
 0001:00086d10       _get_doserrno              0000000180087d10 f   libucrtd:errno.obj
 0001:00086dd0       _get_errno                 0000000180087dd0 f   libucrtd:errno.obj
 0001:00086e90       _set_doserrno              0000000180087e90 f   libucrtd:errno.obj
 0001:00086ed0       _set_errno                 0000000180087ed0 f   libucrtd:errno.obj
 0001:00086f10       calloc                     0000000180087f10 f   libucrtd:calloc.obj
 0001:00086f50       _recalloc                  0000000180087f50 f   libucrtd:recalloc.obj
 0001:00086fa0       _recalloc_base             0000000180087fa0 f   libucrtd:recalloc.obj
 0001:0008707c       _resetstkoflw              000000018008807c f   libucrtd:resetstk.obj
 0001:00087830       wcscat_s                   0000000180088830 f   libucrtd:wcscat_s.obj
 0001:00087f00       wcsncpy_s                  0000000180088f00 f   libucrtd:wcsncpy_s.obj
 0001:00088080       __isascii                  0000000180089080 f   libucrtd:_ctype.obj
 0001:000880b0       __iscsym                   00000001800890b0 f   libucrtd:_ctype.obj
 0001:000880f0       __iscsymf                  00000001800890f0 f   libucrtd:_ctype.obj
 0001:00088130       __toascii                  0000000180089130 f   libucrtd:_ctype.obj
 0001:00088140       _isalnum_l                 0000000180089140 f   libucrtd:_ctype.obj
 0001:00088170       _isalpha_l                 0000000180089170 f   libucrtd:_ctype.obj
 0001:000881a0       _isblank_l                 00000001800891a0 f   libucrtd:_ctype.obj
 0001:000881d0       _iscntrl_l                 00000001800891d0 f   libucrtd:_ctype.obj
 0001:00088200       _iscsym_l                  0000000180089200 f   libucrtd:_ctype.obj
 0001:00088250       _iscsymf_l                 0000000180089250 f   libucrtd:_ctype.obj
 0001:000882a0       _isdigit_l                 00000001800892a0 f   libucrtd:_ctype.obj
 0001:000882d0       _isgraph_l                 00000001800892d0 f   libucrtd:_ctype.obj
 0001:00088300       _islower_l                 0000000180089300 f   libucrtd:_ctype.obj
 0001:00088330       _isprint_l                 0000000180089330 f   libucrtd:_ctype.obj
 0001:00088360       _ispunct_l                 0000000180089360 f   libucrtd:_ctype.obj
 0001:00088390       _isspace_l                 0000000180089390 f   libucrtd:_ctype.obj
 0001:000883c0       _isupper_l                 00000001800893c0 f   libucrtd:_ctype.obj
 0001:000883f0       _isxdigit_l                00000001800893f0 f   libucrtd:_ctype.obj
 0001:00088420       isalnum                    0000000180089420 f   libucrtd:_ctype.obj
 0001:00088440       isalpha                    0000000180089440 f   libucrtd:_ctype.obj
 0001:00088460       isblank                    0000000180089460 f   libucrtd:_ctype.obj
 0001:00088490       iscntrl                    0000000180089490 f   libucrtd:_ctype.obj
 0001:000884b0       isdigit                    00000001800894b0 f   libucrtd:_ctype.obj
 0001:000884d0       isgraph                    00000001800894d0 f   libucrtd:_ctype.obj
 0001:000884f0       islower                    00000001800894f0 f   libucrtd:_ctype.obj
 0001:00088510       isprint                    0000000180089510 f   libucrtd:_ctype.obj
 0001:00088530       ispunct                    0000000180089530 f   libucrtd:_ctype.obj
 0001:00088550       isspace                    0000000180089550 f   libucrtd:_ctype.obj
 0001:00088570       isupper                    0000000180089570 f   libucrtd:_ctype.obj
 0001:00088590       isxdigit                   0000000180089590 f   libucrtd:_ctype.obj
 0001:000885b0       wcscat                     00000001800895b0 f   libucrtd:wcscat.obj
 0001:00088630       wcscpy                     0000000180089630 f   libucrtd:wcscpy.obj
 0001:00088de0       ??$open_file@AEBQEBDAEBQEBDAEBHPEAU_iobuf@@@?$__crt_char_traits@D@@SAPEAU_iobuf@@AEBQEBD0AEBH$$QEAPEAU1@@Z 0000000180089de0 f i libucrtd:fopen.obj
 0001:00088e30       ??$open_file@AEBQEB_WAEBQEB_WAEBHPEAU_iobuf@@@?$__crt_char_traits@_W@@SAPEAU_iobuf@@AEBQEB_W0AEBH$$QEAPEAU1@@Z 0000000180089e30 f i libucrtd:fopen.obj
 0001:00088e80       ?unlock@__crt_stdio_stream@@QEBAXXZ 0000000180089e80 f i libucrtd:fopen.obj
 0001:00088ea0       _fsopen                    0000000180089ea0 f   libucrtd:fopen.obj
 0001:00088ed0       _wfopen                    0000000180089ed0 f   libucrtd:fopen.obj
 0001:00088f00       _wfopen_s                  0000000180089f00 f   libucrtd:fopen.obj
 0001:00088f30       _wfsopen                   0000000180089f30 f   libucrtd:fopen.obj
 0001:00088f60       fopen                      0000000180089f60 f   libucrtd:fopen.obj
 0001:00088f90       fopen_s                    0000000180089f90 f   libucrtd:fopen.obj
 0001:00088fc0       ?is_in_use@__crt_stdio_stream@@QEBA_NXZ 0000000180089fc0 f i libucrtd:fclose.obj
 0001:00089000       _fclose_nolock             000000018008a000 f   libucrtd:fclose.obj
 0001:00089190       fclose                     000000018008a190 f   libucrtd:fclose.obj
 0001:000892d0       _fputc_nolock              000000018008a2d0 f   libucrtd:fputc.obj
 0001:00089380       _fputchar                  000000018008a380 f   libucrtd:fputc.obj
 0001:000893b0       _putc_nolock               000000018008a3b0 f   libucrtd:fputc.obj
 0001:000893d0       fputc                      000000018008a3d0 f   libucrtd:fputc.obj
 0001:00089670       putc                       000000018008a670 f   libucrtd:fputc.obj
 0001:00089690       putchar                    000000018008a690 f   libucrtd:fputc.obj
 0001:00089720       _seh_filter_dll            000000018008a720 f   libucrtd:exception_filter.obj
 0001:00089750       _seh_filter_exe            000000018008a750 f   libucrtd:exception_filter.obj
 0001:000899f0       ??$?B$$A6AXPEAXK0@Z@__crt_fast_encoded_nullptr_t@@QEBAP6AXPEAXK0@ZXZ 000000018008a9f0 f i libucrtd:exit.obj
 0001:00089aa0       ??$__crt_fast_decode_pointer@P6AXPEAXK0@Z@@YAP6AXPEAXK0@ZQ6AX0K0@Z@Z 000000018008aaa0 f i libucrtd:exit.obj
 0001:00089ae0       ??$__crt_fast_encode_pointer@P6AXPEAXK0@Z@@YAP6AXPEAXK0@ZQ6AX0K0@Z@Z 000000018008aae0 f i libucrtd:exit.obj
 0001:00089b20       ??$__crt_get_proc_address@P6AXI@Z@@YAP6AXI@ZQEAUHINSTANCE__@@QEBD@Z 000000018008ab20 f i libucrtd:exit.obj
 0001:00089be0       ??0?$__crt_unique_handle_t@U__crt_hmodule_traits@@@@QEAA@QEAUHINSTANCE__@@@Z 000000018008abe0 f i libucrtd:exit.obj
 0001:00089c00       ??1?$__crt_unique_handle_t@U__crt_hmodule_traits@@@@QEAA@XZ 000000018008ac00 f i libucrtd:exit.obj
 0001:00089d60       ?__acrt_select_exit_lock@@YA?AW4__acrt_lock_id@@XZ 000000018008ad60 f i libucrtd:exit.obj
 0001:00089d70       ?__crt_fast_encode_pointer@@YA?AU__crt_fast_encoded_nullptr_t@@$$T@Z 000000018008ad70 f i libucrtd:exit.obj
 0001:00089db0       ?close@?$__crt_unique_handle_t@U__crt_hmodule_traits@@@@QEAAXXZ 000000018008adb0 f i libucrtd:exit.obj
 0001:00089df0       ?close@__crt_hmodule_traits@@SA_NPEAUHINSTANCE__@@@Z 000000018008adf0 f i libucrtd:exit.obj
 0001:00089f00       ?get@?$__crt_unique_handle_t@U__crt_hmodule_traits@@@@QEBAPEAUHINSTANCE__@@XZ 000000018008af00 f i libucrtd:exit.obj
 0001:00089f10       ?get_address_of@?$__crt_unique_handle_t@U__crt_hmodule_traits@@@@QEAAPEAPEAUHINSTANCE__@@XZ 000000018008af10 f i libucrtd:exit.obj
 0001:00089f20       ?get_invalid_value@__crt_hmodule_traits@@SAPEAUHINSTANCE__@@XZ 000000018008af20 f i libucrtd:exit.obj
 0001:0008a0e0       _Exit                      000000018008b0e0 f   libucrtd:exit.obj
 0001:0008a100       __acrt_initialize_thread_local_exit_callback 000000018008b100 f   libucrtd:exit.obj
 0001:0008a120       _c_exit                    000000018008b120 f   libucrtd:exit.obj
 0001:0008a140       _cexit                     000000018008b140 f   libucrtd:exit.obj
 0001:0008a160       _exit                      000000018008b160 f   libucrtd:exit.obj
 0001:0008a180       _is_c_termination_complete 000000018008b180 f   libucrtd:exit.obj
 0001:0008a1a0       _register_thread_local_exe_atexit_callback 000000018008b1a0 f   libucrtd:exit.obj
 0001:0008a1f0       exit                       000000018008b1f0 f   libucrtd:exit.obj
 0001:0008a210       quick_exit                 000000018008b210 f   libucrtd:exit.obj
 0001:0008a230       ??$?RE@__crt_internal_free_policy@@QEBAXQEBE@Z 000000018008b230 f i libucrtd:argv_parsing.obj
 0001:0008a260       ??$?RPEAD@__crt_internal_free_policy@@QEBAXQEBQEAD@Z 000000018008b260 f i libucrtd:argv_parsing.obj
 0001:0008a290       ??$?RPEA_W@__crt_internal_free_policy@@QEBAXQEBQEA_W@Z 000000018008b290 f i libucrtd:argv_parsing.obj
 0001:0008a9e0       ??$get_module_file_name@$$TAEAY0BAF@DH@?$__crt_char_traits@D@@SAK$$QEA$$TAEAY0BAF@D$$QEAH@Z 000000018008b9e0 f i libucrtd:argv_parsing.obj
 0001:0008aa20       ??$get_module_file_name@$$TAEAY0BAF@_WH@?$__crt_char_traits@_W@@SAK$$QEA$$TAEAY0BAF@_W$$QEAH@Z 000000018008ba20 f i libucrtd:argv_parsing.obj
 0001:0008b3d0       ??$set_program_name@PEAD@?$__crt_char_traits@D@@SAX$$QEAPEAD@Z 000000018008c3d0 f i libucrtd:argv_parsing.obj
 0001:0008b3f0       ??$set_program_name@PEA_W@?$__crt_char_traits@_W@@SAX$$QEAPEA_W@Z 000000018008c3f0 f i libucrtd:argv_parsing.obj
 0001:0008b450       ??0?$__crt_unique_heap_ptr@EU__crt_internal_free_policy@@@@QEAA@QEAE@Z 000000018008c450 f i libucrtd:argv_parsing.obj
 0001:0008b470       ??0?$__crt_unique_heap_ptr@PEADU__crt_internal_free_policy@@@@QEAA@QEAPEAD@Z 000000018008c470 f i libucrtd:argv_parsing.obj
 0001:0008b490       ??0?$__crt_unique_heap_ptr@PEA_WU__crt_internal_free_policy@@@@QEAA@QEAPEA_W@Z 000000018008c490 f i libucrtd:argv_parsing.obj
 0001:0008b4b0       ??1?$__crt_unique_heap_ptr@EU__crt_internal_free_policy@@@@QEAA@XZ 000000018008c4b0 f i libucrtd:argv_parsing.obj
 0001:0008b4d0       ??1?$__crt_unique_heap_ptr@PEADU__crt_internal_free_policy@@@@QEAA@XZ 000000018008c4d0 f i libucrtd:argv_parsing.obj
 0001:0008b4f0       ??1?$__crt_unique_heap_ptr@PEA_WU__crt_internal_free_policy@@@@QEAA@XZ 000000018008c4f0 f i libucrtd:argv_parsing.obj
 0001:0008b510       ??B?$__crt_unique_heap_ptr@EU__crt_internal_free_policy@@@@QEBA_NXZ 000000018008c510 f i libucrtd:argv_parsing.obj
 0001:0008b5f0       ?detach@?$__crt_unique_heap_ptr@EU__crt_internal_free_policy@@@@QEAAPEAEXZ 000000018008c5f0 f i libucrtd:argv_parsing.obj
 0001:0008b620       ?detach@?$__crt_unique_heap_ptr@PEADU__crt_internal_free_policy@@@@QEAAPEAPEADXZ 000000018008c620 f i libucrtd:argv_parsing.obj
 0001:0008b650       ?detach@?$__crt_unique_heap_ptr@PEA_WU__crt_internal_free_policy@@@@QEAAPEAPEA_WXZ 000000018008c650 f i libucrtd:argv_parsing.obj
 0001:0008b710       ?get@?$__crt_unique_heap_ptr@EU__crt_internal_free_policy@@@@QEBAPEAEXZ 000000018008c710 f i libucrtd:argv_parsing.obj
 0001:0008b720       ?get@?$__crt_unique_heap_ptr@PEADU__crt_internal_free_policy@@@@QEBAPEAPEADXZ 000000018008c720 f i libucrtd:argv_parsing.obj
 0001:0008b730       ?get@?$__crt_unique_heap_ptr@PEA_WU__crt_internal_free_policy@@@@QEBAPEAPEA_WXZ 000000018008c730 f i libucrtd:argv_parsing.obj
 0001:0008b740       ?get_address_of@?$__crt_unique_heap_ptr@PEADU__crt_internal_free_policy@@@@QEAAPEAPEAPEADXZ 000000018008c740 f i libucrtd:argv_parsing.obj
 0001:0008b750       ?get_address_of@?$__crt_unique_heap_ptr@PEA_WU__crt_internal_free_policy@@@@QEAAPEAPEAPEA_WXZ 000000018008c750 f i libucrtd:argv_parsing.obj
 0001:0008b7a0       ?is_valid@?$__crt_unique_heap_ptr@EU__crt_internal_free_policy@@@@QEBA_NXZ 000000018008c7a0 f i libucrtd:argv_parsing.obj
 0001:0008b7d0       ?release@?$__crt_unique_heap_ptr@EU__crt_internal_free_policy@@@@QEAAXXZ 000000018008c7d0 f i libucrtd:argv_parsing.obj
 0001:0008b800       ?release@?$__crt_unique_heap_ptr@PEADU__crt_internal_free_policy@@@@QEAAXXZ 000000018008c800 f i libucrtd:argv_parsing.obj
 0001:0008b830       ?release@?$__crt_unique_heap_ptr@PEA_WU__crt_internal_free_policy@@@@QEAAXXZ 000000018008c830 f i libucrtd:argv_parsing.obj
 0001:0008b8b0       __acrt_allocate_buffer_for_argv 000000018008c8b0 f   libucrtd:argv_parsing.obj
 0001:0008b9d0       _configure_narrow_argv     000000018008c9d0 f   libucrtd:argv_parsing.obj
 0001:0008b9f0       _configure_wide_argv       000000018008c9f0 f   libucrtd:argv_parsing.obj
 0001:0008ba10       _set_pgmptr                000000018008ca10 f i libucrtd:argv_parsing.obj
 0001:0008ba30       _set_wpgmptr               000000018008ca30 f i libucrtd:argv_parsing.obj
 0001:0008ba44       ??$?R_W@__crt_internal_free_policy@@QEBAXQEB_W@Z 000000018008ca44 f i libucrtd:environment_initialization.obj
 0001:0008c01c       ??$get_environment_from_os@$$V@?$__crt_char_traits@D@@SAPEADXZ 000000018008d01c f i libucrtd:environment_initialization.obj
 0001:0008c024       ??$get_environment_from_os@$$V@?$__crt_char_traits@_W@@SAPEA_WXZ 000000018008d024 f i libucrtd:environment_initialization.obj
 0001:0008c1f4       ??$set_variable_in_environment_nolock@PEADH@?$__crt_char_traits@D@@SAH$$QEAPEAD$$QEAH@Z 000000018008d1f4 f i libucrtd:environment_initialization.obj
 0001:0008c200       ??$set_variable_in_environment_nolock@PEA_WH@?$__crt_char_traits@_W@@SAH$$QEAPEA_W$$QEAH@Z 000000018008d200 f i libucrtd:environment_initialization.obj
 0001:0008c20c       ??$tcscpy_s@PEADAEB_KAEAPEAD@?$__crt_char_traits@D@@SAH$$QEAPEADAEB_KAEAPEAD@Z 000000018008d20c f i libucrtd:environment_initialization.obj
 0001:0008c21c       ??$tcscpy_s@PEA_WAEB_KAEAPEA_W@?$__crt_char_traits@_W@@SAH$$QEAPEA_WAEB_KAEAPEA_W@Z 000000018008d21c f i libucrtd:environment_initialization.obj
 0001:0008c22c       ??$tcslen@AEAPEAD@?$__crt_char_traits@D@@SA_KAEAPEAD@Z 000000018008d22c f i libucrtd:environment_initialization.obj
 0001:0008c240       ??$tcslen@AEAPEA_W@?$__crt_char_traits@_W@@SA_KAEAPEA_W@Z 000000018008d240 f i libucrtd:environment_initialization.obj
 0001:0008c254       ??$uninitialize@A6AXAEAPEAPEAD@Z@?$dual_state_global@PEAPEAD@__crt_state_management@@QEAAXA6AXAEAPEAPEAD@Z@Z 000000018008d254 f i libucrtd:environment_initialization.obj
 0001:0008c298       ??$uninitialize@A6AXAEAPEAPEA_W@Z@?$dual_state_global@PEAPEA_W@__crt_state_management@@QEAAXA6AXAEAPEAPEA_W@Z@Z 000000018008d298 f i libucrtd:environment_initialization.obj
 0001:0008c314       ??0?$__crt_unique_heap_ptr@_WU__crt_internal_free_policy@@@@QEAA@QEA_W@Z 000000018008d314 f i libucrtd:environment_initialization.obj
 0001:0008c31c       ??1?$__crt_unique_heap_ptr@_WU__crt_internal_free_policy@@@@QEAA@XZ 000000018008d31c f i libucrtd:environment_initialization.obj
 0001:0008c33c       ??B?$__crt_unique_heap_ptr@PEADU__crt_internal_free_policy@@@@QEBA_NXZ 000000018008d33c f i libucrtd:environment_initialization.obj
 0001:0008c344       ??B?$__crt_unique_heap_ptr@PEA_WU__crt_internal_free_policy@@@@QEBA_NXZ 000000018008d344 f i libucrtd:environment_initialization.obj
 0001:0008c34c       ??B?$__crt_unique_heap_ptr@_WU__crt_internal_free_policy@@@@QEBA_NXZ 000000018008d34c f i libucrtd:environment_initialization.obj
 0001:0008c354       ?__crt_compute_required_transform_buffer_count@@YA_KIQEBD@Z 000000018008d354 f i libucrtd:environment_initialization.obj
 0001:0008c378       ?__crt_compute_required_transform_buffer_count@@YA_KIQEB_W@Z 000000018008d378 f i libucrtd:environment_initialization.obj
 0001:0008c3a8       ?__crt_transform_string@@YA_KIQEBDQEA_W_K@Z 000000018008d3a8 f i libucrtd:environment_initialization.obj
 0001:0008c3cc       ?__crt_transform_string@@YA_KIQEB_WQEAD_K@Z 000000018008d3cc f i libucrtd:environment_initialization.obj
 0001:0008c3fc       ?detach@?$__crt_unique_heap_ptr@DU__crt_internal_free_policy@@@@QEAAPEADXZ 000000018008d3fc f i libucrtd:environment_initialization.obj
 0001:0008c404       ?detach@?$__crt_unique_heap_ptr@_WU__crt_internal_free_policy@@@@QEAAPEA_WXZ 000000018008d404 f i libucrtd:environment_initialization.obj
 0001:0008c40c       ?get@?$__crt_unique_heap_ptr@_WU__crt_internal_free_policy@@@@QEBAPEA_WXZ 000000018008d40c f i libucrtd:environment_initialization.obj
 0001:0008c440       ?initialize@?$dual_state_global@PEAPEAD@__crt_state_management@@QEAAXQEAPEAD@Z 000000018008d440 f i libucrtd:environment_initialization.obj
 0001:0008c468       ?initialize@?$dual_state_global@PEAPEA_W@__crt_state_management@@QEAAXQEAPEA_W@Z 000000018008d468 f i libucrtd:environment_initialization.obj
 0001:0008c490       ?is_valid@?$__crt_unique_heap_ptr@PEADU__crt_internal_free_policy@@@@QEBA_NXZ 000000018008d490 f i libucrtd:environment_initialization.obj
 0001:0008c498       ?is_valid@?$__crt_unique_heap_ptr@PEA_WU__crt_internal_free_policy@@@@QEBA_NXZ 000000018008d498 f i libucrtd:environment_initialization.obj
 0001:0008c4a0       ?is_valid@?$__crt_unique_heap_ptr@_WU__crt_internal_free_policy@@@@QEBA_NXZ 000000018008d4a0 f i libucrtd:environment_initialization.obj
 0001:0008c4b4       ?release@?$__crt_unique_heap_ptr@_WU__crt_internal_free_policy@@@@QEAAXXZ 000000018008d4b4 f i libucrtd:environment_initialization.obj
 0001:0008c4d4       ?value@?$dual_state_global@PEAPEAD@__crt_state_management@@QEAAAEAPEAPEADXZ 000000018008d4d4 f i libucrtd:environment_initialization.obj
 0001:0008c4d8       ?value@?$dual_state_global@PEAPEA_W@__crt_state_management@@QEAAAEAPEAPEA_WXZ 000000018008d4d8 f i libucrtd:environment_initialization.obj
 0001:0008c4dc       __dcrt_get_or_create_narrow_environment_nolock 000000018008d4dc f   libucrtd:environment_initialization.obj
 0001:0008c518       __dcrt_get_or_create_wide_environment_nolock 000000018008d518 f   libucrtd:environment_initialization.obj
 0001:0008c554       __dcrt_uninitialize_environments_nolock 000000018008d554 f   libucrtd:environment_initialization.obj
 0001:0008c58c       __p__environ               000000018008d58c f   libucrtd:environment_initialization.obj
 0001:0008c594       __p__wenviron              000000018008d594 f   libucrtd:environment_initialization.obj
 0001:0008c59c       _get_initial_narrow_environment 000000018008d59c f   libucrtd:environment_initialization.obj
 0001:0008c5ec       _get_initial_wide_environment 000000018008d5ec f   libucrtd:environment_initialization.obj
 0001:0008c63c       _initialize_narrow_environment 000000018008d63c f   libucrtd:environment_initialization.obj
 0001:0008c644       _initialize_wide_environment 000000018008d644 f   libucrtd:environment_initialization.obj
 0001:0008c650       ??$?B$$A6AXXZ@__crt_fast_encoded_nullptr_t@@QEBAP6AXXZXZ 000000018008d650 f i libucrtd:onexit.obj
 0001:0008c670       ??$?BP6AXXZ@__crt_fast_encoded_nullptr_t@@QEBAPEAP6AXXZXZ 000000018008d670 f i libucrtd:onexit.obj
 0001:0008c690       ??$?RP6AXXZ@__crt_internal_free_policy@@QEBAXQEBQ6AXXZ@Z 000000018008d690 f i libucrtd:onexit.obj
 0001:0008c800       ??$__crt_fast_decode_pointer@P6AXXZ@@YAP6AXXZQ6AXXZ@Z 000000018008d800 f i libucrtd:onexit.obj
 0001:0008c840       ??$__crt_fast_decode_pointer@PEAP6AXXZ@@YAPEAP6AXXZQEAP6AXXZ@Z 000000018008d840 f i libucrtd:onexit.obj
 0001:0008c880       ??$__crt_fast_encode_pointer@P6AHXZ@@YAP6AHXZQ6AHXZ@Z 000000018008d880 f i libucrtd:onexit.obj
 0001:0008c8c0       ??$__crt_fast_encode_pointer@P6AXXZ@@YAP6AXXZQ6AXXZ@Z 000000018008d8c0 f i libucrtd:onexit.obj
 0001:0008c900       ??$__crt_fast_encode_pointer@PEAP6AXXZ@@YAPEAP6AXXZQEAP6AXXZ@Z 000000018008d900 f i libucrtd:onexit.obj
 0001:0008ca10       ??0?$__crt_unique_heap_ptr@P6AXXZU__crt_internal_free_policy@@@@QEAA@QEAP6AXXZ@Z 000000018008da10 f i libucrtd:onexit.obj
 0001:0008ca30       ??1?$__crt_unique_heap_ptr@P6AXXZU__crt_internal_free_policy@@@@QEAA@XZ 000000018008da30 f i libucrtd:onexit.obj
 0001:0008ca50       ??1scoped_global_state_reset@__crt_state_management@@QEAA@XZ 000000018008da50 f i libucrtd:onexit.obj
 0001:0008d020       ?detach@?$__crt_unique_heap_ptr@P6AXXZU__crt_internal_free_policy@@@@QEAAPEAP6AXXZXZ 000000018008e020 f i libucrtd:onexit.obj
 0001:0008d050       ?release@?$__crt_unique_heap_ptr@P6AXXZU__crt_internal_free_policy@@@@QEAAXXZ 000000018008e050 f i libucrtd:onexit.obj
 0001:0008d080       _crt_at_quick_exit         000000018008e080 f   libucrtd:onexit.obj
 0001:0008d0a0       _crt_atexit                000000018008e0a0 f   libucrtd:onexit.obj
 0001:0008d0c0       _execute_onexit_table      000000018008e0c0 f   libucrtd:onexit.obj
 0001:0008d100       _initialize_onexit_table   000000018008e100 f   libucrtd:onexit.obj
 0001:0008d180       _register_onexit_function  000000018008e180 f   libucrtd:onexit.obj
 0001:0008d3f0       ??$?BX@__crt_fast_encoded_nullptr_t@@QEBAPEAXXZ 000000018008e3f0 f i libucrtd:initialization.obj
 0001:0008d410       ??$__crt_fast_encode_pointer@PEAX@@YAPEAXQEAX@Z 000000018008e410 f i libucrtd:initialization.obj
 0001:0008d500       ?initialize@?$dual_state_global@PEAU__crt_locale_data@@@__crt_state_management@@QEAAXQEAU__crt_locale_data@@@Z 000000018008e500 f i libucrtd:initialization.obj
 0001:0008d550       __acrt_initialize          000000018008e550 f   libucrtd:initialization.obj
 0001:0008d580       __acrt_thread_attach       000000018008e580 f   libucrtd:initialization.obj
 0001:0008d5a0       __acrt_thread_detach       000000018008e5a0 f   libucrtd:initialization.obj
 0001:0008d5b0       __acrt_uninitialize        000000018008e5b0 f   libucrtd:initialization.obj
 0001:0008d5e0       __acrt_uninitialize_critical 000000018008e5e0 f   libucrtd:initialization.obj
 0001:0008f5d0       _CrtCheckMemory            00000001800905d0 f   libucrtd:debug_heap.obj
 0001:0008f760       _CrtDoForAllClientObjects  0000000180090760 f   libucrtd:debug_heap.obj
 0001:0008f890       _CrtDumpMemoryLeaks        0000000180090890 f   libucrtd:debug_heap.obj
 0001:0008f950       _CrtGetAllocHook           0000000180090950 f   libucrtd:debug_heap.obj
 0001:0008f960       _CrtGetDumpClient          0000000180090960 f   libucrtd:debug_heap.obj
 0001:0008f970       _CrtIsMemoryBlock          0000000180090970 f   libucrtd:debug_heap.obj
 0001:0008fab0       _CrtIsValidHeapPointer     0000000180090ab0 f   libucrtd:debug_heap.obj
 0001:0008faf0       _CrtIsValidPointer         0000000180090af0 f   libucrtd:debug_heap.obj
 0001:0008fb30       _CrtMemCheckpoint          0000000180090b30 f   libucrtd:debug_heap.obj
 0001:0008fdb0       _CrtMemDifference          0000000180090db0 f   libucrtd:debug_heap.obj
 0001:00090110       _CrtMemDumpAllObjectsSince 0000000180091110 f   libucrtd:debug_heap.obj
 0001:00090170       _CrtMemDumpStatistics      0000000180091170 f   libucrtd:debug_heap.obj
 0001:00090310       _CrtReportBlockType        0000000180091310 f   libucrtd:debug_heap.obj
 0001:00090340       _CrtSetAllocHook           0000000180091340 f   libucrtd:debug_heap.obj
 0001:00090370       _CrtSetBreakAlloc          0000000180091370 f   libucrtd:debug_heap.obj
 0001:000903a0       _CrtSetDbgBlockType        00000001800913a0 f   libucrtd:debug_heap.obj
 0001:00090440       _CrtSetDbgFlag             0000000180091440 f   libucrtd:debug_heap.obj
 0001:000905a0       _CrtSetDumpClient          00000001800915a0 f   libucrtd:debug_heap.obj
 0001:000905d0       __acrt_get_locale_data_prefix 00000001800915d0 f i libucrtd:debug_heap.obj
 0001:000905f0       __p__crtBreakAlloc         00000001800915f0 f   libucrtd:debug_heap.obj
 0001:00090600       __p__crtDbgFlag            0000000180091600 f   libucrtd:debug_heap.obj
 0001:00090610       _aligned_free_dbg          0000000180091610 f   libucrtd:debug_heap.obj
 0001:00090700       _aligned_malloc_dbg        0000000180091700 f   libucrtd:debug_heap.obj
 0001:00090740       _aligned_msize_dbg         0000000180091740 f   libucrtd:debug_heap.obj
 0001:00090910       _aligned_offset_malloc_dbg 0000000180091910 f   libucrtd:debug_heap.obj
 0001:00090c00       _aligned_offset_realloc_dbg 0000000180091c00 f   libucrtd:debug_heap.obj
 0001:000910b0       _aligned_offset_recalloc_dbg 00000001800920b0 f   libucrtd:debug_heap.obj
 0001:000911d0       _aligned_realloc_dbg       00000001800921d0 f   libucrtd:debug_heap.obj
 0001:00091220       _aligned_recalloc_dbg      0000000180092220 f   libucrtd:debug_heap.obj
 0001:00091280       _calloc_dbg                0000000180092280 f   libucrtd:debug_heap.obj
 0001:00091320       _chvalidchk_l              0000000180092320 f i libucrtd:debug_heap.obj
 0001:00091350       _expand_dbg                0000000180092350 f   libucrtd:debug_heap.obj
 0001:00091480       _free_dbg                  0000000180092480 f   libucrtd:debug_heap.obj
 0001:000914f0       _ischartype_l              00000001800924f0 f i libucrtd:debug_heap.obj
 0001:00091580       _malloc_dbg                0000000180092580 f   libucrtd:debug_heap.obj
 0001:000915c0       _msize_dbg                 00000001800925c0 f   libucrtd:debug_heap.obj
 0001:00091760       _realloc_dbg               0000000180092760 f   libucrtd:debug_heap.obj
 0001:000917d0       _recalloc_dbg              00000001800927d0 f   libucrtd:debug_heap.obj
 0001:000918d0       _initterm                  00000001800928d0 f   libucrtd:initterm.obj
 0001:00091930       _initterm_e                0000000180092930 f   libucrtd:initterm.obj
 0001:00091e80       strcpy_s                   0000000180092e80 f   libucrtd:strcpy_s.obj
 0001:00092520       strcat_s                   0000000180093520 f   libucrtd:strcat_s.obj
 0001:00092550       ??$?B$$A6AH_K@Z@__crt_fast_encoded_nullptr_t@@QEBAP6AH_K@ZXZ 0000000180093550 f i libucrtd:new_handler.obj
 0001:00092570       ??$__crt_fast_decode_pointer@P6AH_K@Z@@YAP6AH_K@ZQ6AH0@Z@Z 0000000180093570 f i libucrtd:new_handler.obj
 0001:000925b0       ??$__crt_fast_encode_pointer@P6AH_K@Z@@YAP6AH_K@ZQ6AH0@Z@Z 00000001800935b0 f i libucrtd:new_handler.obj
 0001:000925f0       ?_set_new_handler@@YAP6AH_K@ZH@Z 00000001800935f0 f   libucrtd:new_handler.obj
 0001:00092660       ?initialize@?$dual_state_global@P6AH_K@Z@__crt_state_management@@QEAAXQ6AH_K@Z@Z 0000000180093660 f i libucrtd:new_handler.obj
 0001:000926b0       ?value@?$dual_state_global@P6AH_K@Z@__crt_state_management@@QEAAAEAP6AH_K@ZXZ 00000001800936b0 f i libucrtd:new_handler.obj
 0001:000926d0       __acrt_initialize_new_handler 00000001800936d0 f   libucrtd:new_handler.obj
 0001:000926f0       _callnewh                  00000001800936f0 f   libucrtd:new_handler.obj
 0001:00092740       _query_new_handler         0000000180093740 f   libucrtd:new_handler.obj
 0001:00092780       _set_new_handler           0000000180093780 f   libucrtd:new_handler.obj
 0001:00092830       _get_terminate             0000000180093830 f   libucrtd:terminate.obj
 0001:00092850       set_terminate              0000000180093850 f   libucrtd:terminate.obj
 0001:00092890       terminate                  0000000180093890 f   libucrtd:terminate.obj
 0001:00093690       _makepath                  0000000180094690 f   libucrtd:makepath.obj
 0001:000936e0       _makepath_s                00000001800946e0 f   libucrtd:makepath.obj
 0001:00093730       _wmakepath                 0000000180094730 f   libucrtd:makepath.obj
 0001:00093780       _wmakepath_s               0000000180094780 f   libucrtd:makepath.obj
 0001:00095db0       ??$tcsncpy_s@AEAPEAD_KAEAPEBDAEB_K@?$__crt_char_traits@D@@SAHAEAPEAD$$QEA_KAEAPEBDAEB_K@Z 0000000180096db0 f i libucrtd:splitpath.obj
 0001:00095e00       ??$tcsncpy_s@AEAPEAD_KAEAPEBDH@?$__crt_char_traits@D@@SAHAEAPEAD$$QEA_KAEAPEBD$$QEAH@Z 0000000180096e00 f i libucrtd:splitpath.obj
 0001:00095e50       ??$tcsncpy_s@AEAPEA_W_KAEAPEB_WAEB_K@?$__crt_char_traits@_W@@SAHAEAPEA_W$$QEA_KAEAPEB_WAEB_K@Z 0000000180096e50 f i libucrtd:splitpath.obj
 0001:00095ea0       ??$tcsncpy_s@AEAPEA_W_KAEAPEB_WH@?$__crt_char_traits@_W@@SAHAEAPEA_W$$QEA_KAEAPEB_W$$QEAH@Z 0000000180096ea0 f i libucrtd:splitpath.obj
 0001:00096150       _splitpath                 0000000180097150 f   libucrtd:splitpath.obj
 0001:00096190       _splitpath_s               0000000180097190 f   libucrtd:splitpath.obj
 0001:00096230       _wsplitpath                0000000180097230 f   libucrtd:splitpath.obj
 0001:00096270       _wsplitpath_s              0000000180097270 f   libucrtd:splitpath.obj
 0001:00096310       _set_abort_behavior        0000000180097310 f   libucrtd:abort.obj
 0001:00096350       abort                      0000000180097350 f   libucrtd:abort.obj
 0001:000963e0       strcmp                     00000001800973e0 f   libucrtd:strcmp.obj
 0001:00096460       strlen                     0000000180097460 f   libucrtd:strlen.obj
 0001:00096510       ??$is_overflow_condition@K@__crt_strtox@@YA_NIK@Z 0000000180097510 f i libucrtd:atox.obj
 0001:00096580       ??$is_overflow_condition@_K@__crt_strtox@@YA_NI_K@Z 0000000180097580 f i libucrtd:atox.obj
 0001:000965f0       ??$make_c_string_character_source@D$$T@__crt_strtox@@YA?AV?$c_string_character_source@D@0@QEBD$$T@Z 00000001800975f0 f i libucrtd:atox.obj
 0001:00096630       ??$make_c_string_character_source@_W$$T@__crt_strtox@@YA?AV?$c_string_character_source@_W@0@QEB_W$$T@Z 0000000180097630 f i libucrtd:atox.obj
 0001:00096670       ??$parse_integer@KV?$c_string_character_source@D@__crt_strtox@@@__crt_strtox@@YAKQEAU__crt_locale_pointers@@V?$c_string_character_source@D@0@H_N@Z 0000000180097670 f i libucrtd:atox.obj
 0001:00096b00       ??$parse_integer@KV?$c_string_character_source@_W@__crt_strtox@@@__crt_strtox@@YAKQEAU__crt_locale_pointers@@V?$c_string_character_source@_W@0@H_N@Z 0000000180097b00 f i libucrtd:atox.obj
 0001:00096fb0       ??$parse_integer@_KV?$c_string_character_source@D@__crt_strtox@@@__crt_strtox@@YA_KQEAU__crt_locale_pointers@@V?$c_string_character_source@D@0@H_N@Z 0000000180097fb0 f i libucrtd:atox.obj
 0001:000974d0       ??$parse_integer@_KV?$c_string_character_source@_W@__crt_strtox@@@__crt_strtox@@YA_KQEAU__crt_locale_pointers@@V?$c_string_character_source@_W@0@H_N@Z 00000001800984d0 f i libucrtd:atox.obj
 0001:000979f0       ??$parse_integer_from_string@JD$$T@__crt_strtox@@YAJQEBD$$THQEAU__crt_locale_pointers@@@Z 00000001800989f0 f i libucrtd:atox.obj
 0001:00097a40       ??$parse_integer_from_string@J_W$$T@__crt_strtox@@YAJQEB_W$$THQEAU__crt_locale_pointers@@@Z 0000000180098a40 f i libucrtd:atox.obj
 0001:00097a90       ??$parse_integer_from_string@_JD$$T@__crt_strtox@@YA_JQEBD$$THQEAU__crt_locale_pointers@@@Z 0000000180098a90 f i libucrtd:atox.obj
 0001:00097ae0       ??$parse_integer_from_string@_J_W$$T@__crt_strtox@@YA_JQEB_W$$THQEAU__crt_locale_pointers@@@Z 0000000180098ae0 f i libucrtd:atox.obj
 0001:00097b30       ??0?$c_string_character_source@D@__crt_strtox@@QEAA@QEBDQEAPEBD@Z 0000000180098b30 f i libucrtd:atox.obj
 0001:00097b80       ??0?$c_string_character_source@_W@__crt_strtox@@QEAA@QEB_WQEAPEB_W@Z 0000000180098b80 f i libucrtd:atox.obj
 0001:00097bd0       ??1?$c_string_character_source@D@__crt_strtox@@QEAA@XZ 0000000180098bd0 f i libucrtd:atox.obj
 0001:00097c00       ??1?$c_string_character_source@_W@__crt_strtox@@QEAA@XZ 0000000180098c00 f i libucrtd:atox.obj
 0001:00097c30       ?get@?$c_string_character_source@D@__crt_strtox@@QEAADXZ 0000000180098c30 f i libucrtd:atox.obj
 0001:00097c70       ?get@?$c_string_character_source@_W@__crt_strtox@@QEAA_WXZ 0000000180098c70 f i libucrtd:atox.obj
 0001:00097cb0       ?is_space@__crt_strtox@@YA_NDQEAU__crt_locale_pointers@@@Z 0000000180098cb0 f i libucrtd:atox.obj
 0001:00097d00       ?is_space@__crt_strtox@@YA_N_WPEAU__crt_locale_pointers@@@Z 0000000180098d00 f i libucrtd:atox.obj
 0001:00097d40       ?maximum_signed_value@__crt_strtox@@YAJK@Z 0000000180098d40 f i libucrtd:atox.obj
 0001:00097d50       ?maximum_signed_value@__crt_strtox@@YA_J_K@Z 0000000180098d50 f i libucrtd:atox.obj
 0001:00097d60       ?minimum_signed_value@__crt_strtox@@YAJK@Z 0000000180098d60 f i libucrtd:atox.obj
 0001:00097d70       ?minimum_signed_value@__crt_strtox@@YA_J_K@Z 0000000180098d70 f i libucrtd:atox.obj
 0001:00097d80       ?parse_digit@__crt_strtox@@YAID@Z 0000000180098d80 f i libucrtd:atox.obj
 0001:00097df0       ?parse_digit@__crt_strtox@@YAI_W@Z 0000000180098df0 f i libucrtd:atox.obj
 0001:00097e40       ?restore_state@?$c_string_character_source@D@__crt_strtox@@QEAA_NQEBD@Z 0000000180098e40 f i libucrtd:atox.obj
 0001:00097e60       ?restore_state@?$c_string_character_source@_W@__crt_strtox@@QEAA_NQEB_W@Z 0000000180098e60 f i libucrtd:atox.obj
 0001:00097e80       ?save_state@?$c_string_character_source@D@__crt_strtox@@QEBAPEBDXZ 0000000180098e80 f i libucrtd:atox.obj
 0001:00097e90       ?save_state@?$c_string_character_source@_W@__crt_strtox@@QEBAPEB_WXZ 0000000180098e90 f i libucrtd:atox.obj
 0001:00097ea0       ?unget@?$c_string_character_source@D@__crt_strtox@@QEAAXD@Z 0000000180098ea0 f i libucrtd:atox.obj
 0001:00097f80       ?unget@?$c_string_character_source@_W@__crt_strtox@@QEAAX_W@Z 0000000180098f80 f i libucrtd:atox.obj
 0001:00098060       ?validate@?$c_string_character_source@D@__crt_strtox@@QEBA_NXZ 0000000180099060 f i libucrtd:atox.obj
 0001:00098120       ?validate@?$c_string_character_source@_W@__crt_strtox@@QEBA_NXZ 0000000180099120 f i libucrtd:atox.obj
 0001:000981e0       ?wide_character_to_digit@__crt_strtox@@YAH_W@Z 00000001800991e0 f i libucrtd:atox.obj
 0001:00098550       __ascii_iswalpha           0000000180099550 f i libucrtd:atox.obj
 0001:00098590       __ascii_toupper            0000000180099590 f i libucrtd:atox.obj
 0001:000985b0       __ascii_towupper           00000001800995b0 f i libucrtd:atox.obj
 0001:000985d0       _atoi64                    00000001800995d0 f   libucrtd:atox.obj
 0001:00098600       _atoi64_l                  0000000180099600 f   libucrtd:atox.obj
 0001:00098630       _atoi_l                    0000000180099630 f   libucrtd:atox.obj
 0001:00098660       _atol_l                    0000000180099660 f   libucrtd:atox.obj
 0001:00098690       _atoll_l                   0000000180099690 f   libucrtd:atox.obj
 0001:000986c0       _wtoi                      00000001800996c0 f   libucrtd:atox.obj
 0001:000986f0       _wtoi64                    00000001800996f0 f   libucrtd:atox.obj
 0001:00098720       _wtoi64_l                  0000000180099720 f   libucrtd:atox.obj
 0001:00098750       _wtoi_l                    0000000180099750 f   libucrtd:atox.obj
 0001:00098780       _wtol                      0000000180099780 f   libucrtd:atox.obj
 0001:000987b0       _wtol_l                    00000001800997b0 f   libucrtd:atox.obj
 0001:000987e0       _wtoll                     00000001800997e0 f   libucrtd:atox.obj
 0001:00098810       _wtoll_l                   0000000180099810 f   libucrtd:atox.obj
 0001:00098840       atoi                       0000000180099840 f   libucrtd:atox.obj
 0001:00098870       atol                       0000000180099870 f   libucrtd:atox.obj
 0001:000988a0       atoll                      00000001800998a0 f   libucrtd:atox.obj
 0001:000988e0       strncmp                    00000001800998e0 f   libucrtd:strncmp.obj
 0001:00098960       wcsncmp                    0000000180099960 f   libucrtd:wcsncmp.obj
 0001:000989f0       _CrtGetDebugFillThreshold  00000001800999f0 f   libucrtd:debug_fill_threshold.obj
 0001:00098a00       _CrtSetDebugFillThreshold  0000000180099a00 f   libucrtd:debug_fill_threshold.obj
 0001:00098a30       ??$make_c_string_character_source@DPEAPEAD@__crt_strtox@@YA?AV?$c_string_character_source@D@0@QEBDQEAPEAD@Z 0000000180099a30 f i libucrtd:strtox.obj
 0001:00098a70       ??$make_c_string_character_source@_WPEAPEA_W@__crt_strtox@@YA?AV?$c_string_character_source@_W@0@QEB_WQEAPEA_W@Z 0000000180099a70 f i libucrtd:strtox.obj
 0001:00098ab0       ??$parse_integer_from_string@JDPEAPEAD@__crt_strtox@@YAJQEBDQEAPEADHQEAU__crt_locale_pointers@@@Z 0000000180099ab0 f i libucrtd:strtox.obj
 0001:00098b00       ??$parse_integer_from_string@J_WPEAPEA_W@__crt_strtox@@YAJQEB_WQEAPEA_WHQEAU__crt_locale_pointers@@@Z 0000000180099b00 f i libucrtd:strtox.obj
 0001:00098b50       ??$parse_integer_from_string@KDPEAPEAD@__crt_strtox@@YAKQEBDQEAPEADHQEAU__crt_locale_pointers@@@Z 0000000180099b50 f i libucrtd:strtox.obj
 0001:00098ba0       ??$parse_integer_from_string@K_WPEAPEA_W@__crt_strtox@@YAKQEB_WQEAPEA_WHQEAU__crt_locale_pointers@@@Z 0000000180099ba0 f i libucrtd:strtox.obj
 0001:00098bf0       ??$parse_integer_from_string@_JDPEAPEAD@__crt_strtox@@YA_JQEBDQEAPEADHQEAU__crt_locale_pointers@@@Z 0000000180099bf0 f i libucrtd:strtox.obj
 0001:00098c40       ??$parse_integer_from_string@_J_WPEAPEA_W@__crt_strtox@@YA_JQEB_WQEAPEA_WHQEAU__crt_locale_pointers@@@Z 0000000180099c40 f i libucrtd:strtox.obj
 0001:00098c90       ??$parse_integer_from_string@_KDPEAPEAD@__crt_strtox@@YA_KQEBDQEAPEADHQEAU__crt_locale_pointers@@@Z 0000000180099c90 f i libucrtd:strtox.obj
 0001:00098ce0       ??$parse_integer_from_string@_K_WPEAPEA_W@__crt_strtox@@YA_KQEB_WQEAPEA_WHQEAU__crt_locale_pointers@@@Z 0000000180099ce0 f i libucrtd:strtox.obj
 0001:00098d30       _strtoi64                  0000000180099d30 f   libucrtd:strtox.obj
 0001:00098d60       _strtoi64_l                0000000180099d60 f   libucrtd:strtox.obj
 0001:00098da0       _strtoimax_l               0000000180099da0 f   libucrtd:strtox.obj
 0001:00098de0       _strtol_l                  0000000180099de0 f   libucrtd:strtox.obj
 0001:00098e20       _strtoll_l                 0000000180099e20 f   libucrtd:strtox.obj
 0001:00098e60       _strtoui64                 0000000180099e60 f   libucrtd:strtox.obj
 0001:00098e90       _strtoui64_l               0000000180099e90 f   libucrtd:strtox.obj
 0001:00098ed0       _strtoul_l                 0000000180099ed0 f   libucrtd:strtox.obj
 0001:00098f10       _strtoull_l                0000000180099f10 f   libucrtd:strtox.obj
 0001:00098f50       _strtoumax_l               0000000180099f50 f   libucrtd:strtox.obj
 0001:00098f90       _wcstoi64                  0000000180099f90 f   libucrtd:strtox.obj
 0001:00098fc0       _wcstoi64_l                0000000180099fc0 f   libucrtd:strtox.obj
 0001:00099000       _wcstoimax_l               000000018009a000 f   libucrtd:strtox.obj
 0001:00099040       _wcstol_l                  000000018009a040 f   libucrtd:strtox.obj
 0001:00099080       _wcstoll_l                 000000018009a080 f   libucrtd:strtox.obj
 0001:000990c0       _wcstoui64                 000000018009a0c0 f   libucrtd:strtox.obj
 0001:000990f0       _wcstoui64_l               000000018009a0f0 f   libucrtd:strtox.obj
 0001:00099130       _wcstoul_l                 000000018009a130 f   libucrtd:strtox.obj
 0001:00099170       _wcstoull_l                000000018009a170 f   libucrtd:strtox.obj
 0001:000991b0       _wcstoumax_l               000000018009a1b0 f   libucrtd:strtox.obj
 0001:000991f0       strtoimax                  000000018009a1f0 f   libucrtd:strtox.obj
 0001:00099220       strtol                     000000018009a220 f   libucrtd:strtox.obj
 0001:00099250       strtoll                    000000018009a250 f   libucrtd:strtox.obj
 0001:00099280       strtoul                    000000018009a280 f   libucrtd:strtox.obj
 0001:000992b0       strtoull                   000000018009a2b0 f   libucrtd:strtox.obj
 0001:000992e0       strtoumax                  000000018009a2e0 f   libucrtd:strtox.obj
 0001:00099310       wcstoimax                  000000018009a310 f   libucrtd:strtox.obj
 0001:00099340       wcstol                     000000018009a340 f   libucrtd:strtox.obj
 0001:00099370       wcstoll                    000000018009a370 f   libucrtd:strtox.obj
 0001:000993a0       wcstoul                    000000018009a3a0 f   libucrtd:strtox.obj
 0001:000993d0       wcstoull                   000000018009a3d0 f   libucrtd:strtox.obj
 0001:00099400       wcstoumax                  000000018009a400 f   libucrtd:strtox.obj
 0001:00099430       _mbtowc_l                  000000018009a430 f   libucrtd:mbtowc.obj
 0001:00099890       mbtowc                     000000018009a890 f   libucrtd:mbtowc.obj
 0001:000998c0       _wctomb_l                  000000018009a8c0 f   libucrtd:wctomb.obj
 0001:00099980       _wctomb_s_l                000000018009a980 f   libucrtd:wctomb.obj
 0001:00099f00       wctomb                     000000018009af00 f   libucrtd:wctomb.obj
 0001:00099f60       wctomb_s                   000000018009af60 f   libucrtd:wctomb.obj
 0001:00099fb0       ??$?RU__acrt_ptd@@@__crt_internal_free_policy@@QEBAXQEBU__acrt_ptd@@@Z 000000018009afb0 f i libucrtd:per_thread_data.obj
 0001:0009a3b0       ??0?$__crt_unique_heap_ptr@U__acrt_ptd@@U__crt_internal_free_policy@@@@QEAA@QEAU__acrt_ptd@@@Z 000000018009b3b0 f i libucrtd:per_thread_data.obj
 0001:0009a3d0       ??0__crt_scoped_get_last_error_reset@@QEAA@XZ 000000018009b3d0 f i libucrtd:per_thread_data.obj
 0001:0009a3f0       ??1?$__crt_unique_heap_ptr@U__acrt_ptd@@U__crt_internal_free_policy@@@@QEAA@XZ 000000018009b3f0 f i libucrtd:per_thread_data.obj
 0001:0009a410       ??1__crt_scoped_get_last_error_reset@@QEAA@XZ 000000018009b410 f i libucrtd:per_thread_data.obj
 0001:0009a430       ??B?$__crt_unique_heap_ptr@U__acrt_ptd@@U__crt_internal_free_policy@@@@QEBA_NXZ 000000018009b430 f i libucrtd:per_thread_data.obj
 0001:0009a780       ?dangerous_get_state_array@?$dual_state_global@PEAU__crt_locale_data@@@__crt_state_management@@QEAAPEAPEAU__crt_locale_data@@XZ 000000018009b780 f i libucrtd:per_thread_data.obj
 0001:0009a940       ?detach@?$__crt_unique_heap_ptr@U__acrt_ptd@@U__crt_internal_free_policy@@@@QEAAPEAU__acrt_ptd@@XZ 000000018009b940 f i libucrtd:per_thread_data.obj
 0001:0009a970       ?get@?$__crt_unique_heap_ptr@U__acrt_ptd@@U__crt_internal_free_policy@@@@QEBAPEAU__acrt_ptd@@XZ 000000018009b970 f i libucrtd:per_thread_data.obj
 0001:0009a980       ?get_current_state_index@__crt_state_management@@YA_KAEBV__crt_scoped_get_last_error_reset@@@Z 000000018009b980 f i libucrtd:per_thread_data.obj
 0001:0009ab30       ?is_valid@?$__crt_unique_heap_ptr@U__acrt_ptd@@U__crt_internal_free_policy@@@@QEBA_NXZ 000000018009bb30 f i libucrtd:per_thread_data.obj
 0001:0009ab60       ?release@?$__crt_unique_heap_ptr@U__acrt_ptd@@U__crt_internal_free_policy@@@@QEAAXXZ 000000018009bb60 f i libucrtd:per_thread_data.obj
 0001:0009ac90       ?value@?$dual_state_global@PEAU__crt_locale_data@@@__crt_state_management@@QEAAAEAPEAU__crt_locale_data@@XZ 000000018009bc90 f i libucrtd:per_thread_data.obj
 0001:0009acb0       __acrt_freeptd             000000018009bcb0 f   libucrtd:per_thread_data.obj
 0001:0009acf0       __acrt_getptd              000000018009bcf0 f   libucrtd:per_thread_data.obj
 0001:0009ad20       __acrt_getptd_head         000000018009bd20 f   libucrtd:per_thread_data.obj
 0001:0009ad50       __acrt_getptd_noexit       000000018009bd50 f   libucrtd:per_thread_data.obj
 0001:0009ad60       __acrt_initialize_ptd      000000018009bd60 f   libucrtd:per_thread_data.obj
 0001:0009ada0       __acrt_uninitialize_ptd    000000018009bda0 f   libucrtd:per_thread_data.obj
 0001:0009add0       __threadhandle             000000018009bdd0 f   libucrtd:per_thread_data.obj
 0001:0009ade0       __threadid                 000000018009bde0 f   libucrtd:per_thread_data.obj
 0001:0009adf0       ?value@?$dual_state_global@PEAU__crt_multibyte_data@@@__crt_state_management@@QEAAAEAPEAU__crt_multibyte_data@@XZ 000000018009bdf0 f i libucrtd:locale_update.obj
 0001:0009ae10       __acrt_should_sync_with_global_locale 000000018009be10 f i libucrtd:locale_update.obj
 0001:0009ae50       __acrt_update_locale_info  000000018009be50 f   libucrtd:locale_update.obj
 0001:0009aea0       __acrt_update_multibyte_info 000000018009bea0 f   libucrtd:locale_update.obj
 0001:0009aef0       ?__acrt_fp_classify@@YA?AW4__acrt_fp_class@@AEBN@Z 000000018009bef0 f i libucrtd:cvt.obj
 0001:0009aff0       ?__acrt_fp_is_negative@@YA_NAEBN@Z 000000018009bff0 f i libucrtd:cvt.obj
 0001:0009c9b0       ?strrchr@@YAPEADQEADH@Z    000000018009d9b0 f i libucrtd:cvt.obj
 0001:0009c9d0       __acrt_fp_format           000000018009d9d0 f   libucrtd:cvt.obj
 0001:0009d080       _fputwc_nolock             000000018009e080 f   libucrtd:fputwc.obj
 0001:0009d2f0       _fputwchar                 000000018009e2f0 f   libucrtd:fputwc.obj
 0001:0009d320       _putwc_nolock              000000018009e320 f   libucrtd:fputwc.obj
 0001:0009d350       fputwc                     000000018009e350 f   libucrtd:fputwc.obj
 0001:0009d440       putwc                      000000018009e440 f   libucrtd:fputwc.obj
 0001:0009d470       putwchar                   000000018009e470 f   libucrtd:fputwc.obj
 0001:0009d490       ?lowio_handle@__crt_stdio_stream@@QEBAHXZ 000000018009e490 f i libucrtd:fileno.obj
 0001:0009d4c0       _fileno                    000000018009e4c0 f   libucrtd:fileno.obj
 0001:0009d5a0       ??$?RPEAU__crt_stdio_stream_data@@@__crt_internal_free_policy@@QEBAXQEBQEAU__crt_stdio_stream_data@@@Z 000000018009e5a0 f i libucrtd:_file.obj
 0001:0009d5d0       ??0?$__crt_unique_heap_ptr@PEAU__crt_stdio_stream_data@@U__crt_internal_free_policy@@@@QEAA@QEAPEAU__crt_stdio_stream_data@@@Z 000000018009e5d0 f i libucrtd:_file.obj
 0001:0009d5f0       ??1?$__crt_unique_heap_ptr@PEAU__crt_stdio_stream_data@@U__crt_internal_free_policy@@@@QEAA@XZ 000000018009e5f0 f i libucrtd:_file.obj
 0001:0009d610       ?detach@?$__crt_unique_heap_ptr@PEAU__crt_stdio_stream_data@@U__crt_internal_free_policy@@@@QEAAPEAPEAU__crt_stdio_stream_data@@XZ 000000018009e610 f i libucrtd:_file.obj
 0001:0009d640       ?release@?$__crt_unique_heap_ptr@PEAU__crt_stdio_stream_data@@U__crt_internal_free_policy@@@@QEAAXXZ 000000018009e640 f i libucrtd:_file.obj
 0001:0009d670       __acrt_initialize_stdio    000000018009e670 f   libucrtd:_file.obj
 0001:0009d860       __acrt_iob_func            000000018009e860 f   libucrtd:_file.obj
 0001:0009d880       __acrt_uninitialize_stdio  000000018009e880 f   libucrtd:_file.obj
 0001:0009d910       _get_stream_buffer_pointers 000000018009e910 f   libucrtd:_file.obj
 0001:0009da40       _lock_file                 000000018009ea40 f   libucrtd:_file.obj
 0001:0009da80       _unlock_file               000000018009ea80 f   libucrtd:_file.obj
 0001:0009dac0       _get_printf_count_output   000000018009eac0 f   libucrtd:printf_count_output.obj
 0001:0009daf0       _set_printf_count_output   000000018009eaf0 f   libucrtd:printf_count_output.obj
 0001:0009db60       ?has_any_buffer@__crt_stdio_stream@@QEBA_NXZ 000000018009eb60 f i libucrtd:_sftbuf.obj
 0001:0009db80       ?has_any_of@__crt_stdio_stream@@QEBA_NJ@Z 000000018009eb80 f i libucrtd:_sftbuf.obj
 0001:0009dbc0       ?has_temporary_buffer@__crt_stdio_stream@@QEBA_NXZ 000000018009ebc0 f i libucrtd:_sftbuf.obj
 0001:0009dbe0       ?set_flags@__crt_stdio_stream@@QEBA_NJ@Z 000000018009ebe0 f i libucrtd:_sftbuf.obj
 0001:0009dc50       ?unset_flags@__crt_stdio_stream@@QEBA_NJ@Z 000000018009ec50 f i libucrtd:_sftbuf.obj
 0001:0009dcb0       __acrt_should_use_temporary_buffer 000000018009ecb0 f   libucrtd:_sftbuf.obj
 0001:0009dd00       __acrt_stdio_begin_temporary_buffering_nolock 000000018009ed00 f   libucrtd:_sftbuf.obj
 0001:0009df40       __acrt_stdio_end_temporary_buffering_nolock 000000018009ef40 f   libucrtd:_sftbuf.obj
 0001:0009dff0       ??$?RU__crt_locale_data@@@__crt_internal_free_policy@@QEBAXQEBU__crt_locale_data@@@Z 000000018009eff0 f i libucrtd:wsetlocale.obj
 0001:0009e020       ??$?RU__crt_locale_pointers@@@__crt_internal_free_policy@@QEBAXQEBU__crt_locale_pointers@@@Z 000000018009f020 f i libucrtd:wsetlocale.obj
 0001:0009e050       ??$?RU__crt_multibyte_data@@@__crt_internal_free_policy@@QEBAXQEBU__crt_multibyte_data@@@Z 000000018009f050 f i libucrtd:wsetlocale.obj
 0001:0009e5b0       ??0?$__crt_unique_heap_ptr@U__crt_locale_data@@U__crt_internal_free_policy@@@@QEAA@QEAU__crt_locale_data@@@Z 000000018009f5b0 f i libucrtd:wsetlocale.obj
 0001:0009e5d0       ??0?$__crt_unique_heap_ptr@U__crt_locale_pointers@@U__crt_internal_free_policy@@@@QEAA@QEAU__crt_locale_pointers@@@Z 000000018009f5d0 f i libucrtd:wsetlocale.obj
