 OPOSCAT

 Timestamp is 61a75a02 (Wed Dec  1 20:18:26 2021)

 Preferred load address is 0000000180000000

 Start         Length     Name                   Class
 0001:00000000 00000d90H .text$di                CODE
 0001:00000d90 000e57e0H .text$mn                CODE
 0001:000e6570 00000040H .text$mn$00             CODE
 0001:000e65b0 00001330H .text$x                 CODE
 0001:000e78e0 00000124H .text$yd                CODE
 0002:00000000 000006f8H .idata$5                DATA
 0002:000006f8 00000030H .00cfg                  DATA
 0002:00000728 00000008H .CRT$XCA                DATA
 0002:00000730 00000008H .CRT$XCL                DATA
 0002:00000738 000000d8H .CRT$XCU                DATA
 0002:00000810 00000008H .CRT$XCZ                DATA
 0002:00000818 00000008H .CRT$XIA                DATA
 0002:00000820 00000028H .CRT$XIC                DATA
 0002:00000848 00000008H .CRT$XIZ                DATA
 0002:00000850 00000008H .CRT$XLA                DATA
 0002:00000858 00000008H .CRT$XLZ                DATA
 0002:00000860 00000008H .CRT$XPA                DATA
 0002:00000868 00000010H .CRT$XPX                DATA
 0002:00000878 00000008H .CRT$XPXA               DATA
 0002:00000880 00000008H .CRT$XPZ                DATA
 0002:00000888 00000008H .CRT$XTA                DATA
 0002:00000890 00000010H .CRT$XTZ                DATA
 0002:00000898 00000000H .gehcont$y              DATA
 0002:00000898 00000000H .gfids$y                DATA
 0002:000008a0 0003cae0H .rdata                  DATA
 0002:0003d380 00000080H .rdata$CastGuardVftablesA DATA
 0002:0003d400 00000080H .rdata$CastGuardVftablesC DATA
 0002:0003d480 00000028H .rdata$T                DATA
 0002:0003d4a8 0000056cH .rdata$r                DATA
 0002:0003da14 000001d0H .rdata$voltmd           DATA
 0002:0003dbe4 0000049cH .rdata$zzzdbg           DATA
 0002:0003e080 00000008H .rtc$IAA                DATA
 0002:0003e088 00000030H .rtc$IMZ                DATA
 0002:0003e0b8 00000008H .rtc$IZZ                DATA
 0002:0003e0c0 00000008H .rtc$TAA                DATA
 0002:0003e0c8 00000030H .rtc$TMZ                DATA
 0002:0003e0f8 00000008H .rtc$TZZ                DATA
 0002:0003e100 00000004H .tls                    DATA
 0002:0003e104 00000004H .tls$                   DATA
 0002:0003e108 00000008H .tls$ZZZ                DATA
 0002:0003e110 0000a090H .xdata                  DATA
 0002:000481a0 00000150H .xdata$x                DATA
 0002:000482f0 00000008H ATL$__a                 DATA
 0002:000482f8 00000008H ATL$__z                 DATA
 0002:00048300 000000a4H .edata                  DATA
 0002:000483a4 00000078H .idata$2                DATA
 0002:0004841c 00000014H .idata$3                DATA
 0002:00048430 000006f8H .idata$4                DATA
 0002:00048b28 00000df0H .idata$6                DATA
 0003:00000000 00000f08H .data                   DATA
 0003:00000f08 000000a8H .data$r                 DATA
 0003:00000fb0 000000f0H .data$rs                DATA
 0003:000010a0 00003eacH .bss                    DATA
 0004:00000000 0000c948H .pdata                  DATA
 0005:00000000 000000fcH _RDATA                  DATA
 0006:00000000 00000220H .rsrc$01                DATA
 0006:00000220 000051e0H .rsrc$02                DATA

  Address         Publics by Value              Rva+Base               Lib:Object

 0000:00000000       __guard_iat_count          0000000000000000     <absolute>
 0000:00000000       __arm64x_extra_rfe_table_size 0000000000000000     <absolute>
 0000:00000000       __x64_code_ranges_to_entry_points 0000000000000000     <absolute>
 0000:00000000       __hybrid_code_map          0000000000000000     <absolute>
 0000:00000000       __guard_iat_table          0000000000000000     <absolute>
 0000:00000000       __guard_eh_cont_table      0000000000000000     <absolute>
 0000:00000000       __guard_longjmp_table      0000000000000000     <absolute>
 0000:00000000       __AbsoluteZero             0000000000000000     <absolute>
 0000:00000000       __hybrid_auxiliary_iat_copy 0000000000000000     <absolute>
 0000:00000000       ___safe_se_handler_table   0000000000000000     <absolute>
 0000:00000000       __hybrid_auxiliary_iat     0000000000000000     <absolute>
 0000:00000000       __guard_fids_table         0000000000000000     <absolute>
 0000:00000000       __hybrid_code_map_count    0000000000000000     <absolute>
 0000:00000000       __enclave_config           0000000000000000     <absolute>
 0000:00000000       __guard_check_icall_a64n_fptr 0000000000000000     <absolute>
 0000:00000000       __guard_longjmp_count      0000000000000000     <absolute>
 0000:00000000       __x64_code_ranges_to_entry_points_count 0000000000000000     <absolute>
 0000:00000000       __arm64x_redirection_metadata_count 0000000000000000     <absolute>
 0000:00000000       __guard_fids_count         0000000000000000     <absolute>
 0000:00000000       __dynamic_value_reloc_table 0000000000000000     <absolute>
 0000:00000000       __arm64x_redirection_metadata 0000000000000000     <absolute>
 0000:00000000       __guard_eh_cont_count      0000000000000000     <absolute>
 0000:00000000       __arm64x_native_entrypoint 0000000000000000     <absolute>
 0000:00000000       ___safe_se_handler_count   0000000000000000     <absolute>
 0000:00000000       __arm64x_extra_rfe_table   0000000000000000     <absolute>
 0000:00000100       __guard_flags              0000000000000100     <absolute>
 0000:00000000       __ImageBase                0000000180000000     <linker-defined>
 0001:00000d90       ?_assert@@YAXPEB_W0I@Z     0000000180001d90 f   Assert.obj
 0001:00000e90       __local_stdio_printf_options 0000000180001e90 f i Assert.obj
 0001:00000ea0       __vswprintf_l              0000000180001ea0 f i Assert.obj
 0001:00000ef0       _swprintf                  0000000180001ef0 f i Assert.obj
 0001:00000f70       _vswprintf_c_l             0000000180001f70 f i Assert.obj
 0001:00000fe0       _vswprintf_l               0000000180001fe0 f i Assert.obj
 0001:00001030       ?cw_memcpy@@YAHPEADPEB_WH@Z 0000000180002030 f   CWString.obj
 0001:000010b0       ?cw_memcpy@@YAHPEA_WPEBDH@Z 00000001800020b0 f   CWString.obj
 0001:00001120       ?cw_memcpy@@YAHPEADPEBDH@Z 0000000180002120 f   CWString.obj
 0001:000011b0       ?cw_memcpy@@YAHPEA_WPEB_WH@Z 00000001800021b0 f   CWString.obj
 0001:00001210       ?cw_memset@@YAXPEADDH@Z    0000000180002210 f   CWString.obj
 0001:00001270       ?cw_memset@@YAXPEA_W_WH@Z  0000000180002270 f   CWString.obj
 0001:00001300       ?cw_strlen@@YAHPEBD@Z      0000000180002300 f   CWString.obj
 0001:00001360       ?cw_strlen@@YAHPEB_W@Z     0000000180002360 f   CWString.obj
 0001:000013c0       ?cw_strcpy@@YAHPEADPEB_W@Z 00000001800023c0 f   CWString.obj
 0001:00001400       ?cw_strcpy@@YAHPEA_WPEBD@Z 0000000180002400 f   CWString.obj
 0001:00001440       ?cw_strcpy@@YAHPEADPEBD@Z  0000000180002440 f   CWString.obj
 0001:00001480       ?cw_strcpy@@YAHPEA_WPEB_W@Z 0000000180002480 f   CWString.obj
 0001:000014c0       ?cw_strcat@@YAHPEADPEB_W@Z 00000001800024c0 f   CWString.obj
 0001:00001510       ?cw_strcat@@YAHPEA_WPEBD@Z 0000000180002510 f   CWString.obj
 0001:00001560       ?cw_strcat@@YAHPEADPEBD@Z  0000000180002560 f   CWString.obj
 0001:000015b0       ?cw_strcat@@YAHPEA_WPEB_W@Z 00000001800025b0 f   CWString.obj
 0001:00001600       ?cw_dup@@YAXPEBDAEAHAEAPEA_W1@Z 0000000180002600 f   CWString.obj
 0001:00001700       ?cw_dup@@YAXPEB_WAEAHAEAPEAD1@Z 0000000180002700 f   CWString.obj
 0001:000017e0       ?DupChar@_CW@@AEAAXXZ      00000001800027e0 f   CWString.obj
 0001:00001830       ?DupWide@_CW@@AEAAXXZ      0000000180002830 f   CWString.obj
 0001:00001880       ?GetCharsMbcs@_CW@@QEAAHXZ 0000000180002880 f   CWString.obj
 0001:000018e0       ?GetCharsWide@_CW@@QEAAHXZ 00000001800028e0 f   CWString.obj
 0001:00001940       ?SetVARIANT_BOOL@OposVariant@@QEAAXF@Z 0000000180002940 f   OposVariant.obj
 0001:000019a0       ?SetVARIANT_BOOL_Ptr@OposVariant@@QEAAXPEAFAEAJ@Z 00000001800029a0 f   OposVariant.obj
 0001:00001a00       ?GetLONG@OposVariant@@QEAAJXZ 0000000180002a00 f   OposVariant.obj
 0001:00001a60       ?ChangeLONG@OposVariant@@QEAAXPEAJAEAJ@Z 0000000180002a60 f   OposVariant.obj
 0001:00001b10       ?SetLONG@OposVariant@@QEAAXJ@Z 0000000180002b10 f   OposVariant.obj
 0001:00001b50       ?SetLONG_Ptr@OposVariant@@QEAAXPEAJAEAJ@Z 0000000180002b50 f   OposVariant.obj
 0001:00001bb0       ?ChangeCURRENCY@OposVariant@@QEAAXPEATtagCY@@AEAJ@Z 0000000180002bb0 f   OposVariant.obj
 0001:00001c60       ?SetCURRENCY@OposVariant@@QEAAXTtagCY@@@Z 0000000180002c60 f   OposVariant.obj
 0001:00001ca0       ?SetCURRENCY_Ptr@OposVariant@@QEAAXPEATtagCY@@AEAJ@Z 0000000180002ca0 f   OposVariant.obj
 0001:00001d00       ?ChangeBSTR@OposVariant@@QEAAXPEAPEA_WAEAJ@Z 0000000180002d00 f   OposVariant.obj
 0001:00001db0       ?SetBSTR@OposVariant@@QEAAXPEA_WAEAJ@Z 0000000180002db0 f   OposVariant.obj
 0001:00001e10       ?SetBSTR_Copy@OposVariant@@QEAAXPEA_WAEAJ@Z 0000000180002e10 f   OposVariant.obj
 0001:00001eb0       ?SetBSTR_OutPtr@OposVariant@@QEAA_NPEAPEA_WAEAJ@Z 0000000180002eb0 f   OposVariant.obj
 0001:00001f10       ?SetBSTR_InOutPtr@OposVariant@@QEAA_NPEAPEA_WAEAJ@Z 0000000180002f10 f   OposVariant.obj
 0001:00001f70       ?SetVARIANT@OposVariant@@QEAAXAEAUtagVARIANT@@GAEAJ@Z 0000000180002f70 f   OposVariant.obj
 0001:00002000       ?SetVARIANT_Ptr@OposVariant@@QEAAXAEAPEAUtagVARIANT@@GAEAJ@Z 0000000180003000 f   OposVariant.obj
 0001:000020a0       ?SetString@OposVariant@@QEAAXPEB_WAEAJ@Z 00000001800030a0 f   OposVariant.obj
 0001:00002130       ?SetDispatch_Ptr@OposVariant@@QEAAXPEAUIDispatch@@AEAJ@Z 0000000180003130 f   OposVariant.obj
 0001:000021b0       ??0OposDispParms@@QEAA@PEAVOposVariant@@H@Z 00000001800031b0 f   OposVariant.obj
 0001:000022b0       ??1OposDispParms@@QEAA@XZ  00000001800032b0 f   OposVariant.obj
 0001:000022f0       ??$AtlMultiply@_K@ATL@@YAJPEA_K_K1@Z 00000001800032f0 f i OposVariant.obj
 0001:00002360       ??0?$CHeapPtr@_WVCCRTAllocator@ATL@@@ATL@@QEAA@XZ 0000000180003360 f i OposVariant.obj
 0001:00002380       ??0?$CHeapPtrBase@_WVCCRTAllocator@ATL@@@ATL@@IEAA@XZ 0000000180003380 f i OposVariant.obj
 0001:000023a0       ??0?$CSimpleArray@GV?$CSimpleArrayEqualHelper@G@ATL@@@ATL@@QEAA@XZ 00000001800033a0 f i OposVariant.obj
 0001:000023e0       ??0?$CTraceCategoryEx@$00$0A@@ATL@@QEAA@PEB_W@Z 00000001800033e0 f i OposVariant.obj
 0001:00002410       ??0?$CTraceCategoryEx@$01$0A@@ATL@@QEAA@PEB_W@Z 0000000180003410 f i OposVariant.obj
 0001:00002440       ??0?$CTraceCategoryEx@$03$0A@@ATL@@QEAA@PEB_W@Z 0000000180003440 f i OposVariant.obj
 0001:00002470       ??0?$CTraceCategoryEx@$07$0A@@ATL@@QEAA@PEB_W@Z 0000000180003470 f i OposVariant.obj
 0001:000024a0       ??0?$CTraceCategoryEx@$0BA@$0A@@ATL@@QEAA@PEB_W@Z 00000001800034a0 f i OposVariant.obj
 0001:000024d0       ??0?$CTraceCategoryEx@$0BAA@$0A@@ATL@@QEAA@PEB_W@Z 00000001800034d0 f i OposVariant.obj
 0001:00002500       ??0?$CTraceCategoryEx@$0BAAA@$0A@@ATL@@QEAA@PEB_W@Z 0000000180003500 f i OposVariant.obj
 0001:00002530       ??0?$CTraceCategoryEx@$0BAAAA@$0A@@ATL@@QEAA@PEB_W@Z 0000000180003530 f i OposVariant.obj
 0001:00002560       ??0?$CTraceCategoryEx@$0BAAAAA@$0A@@ATL@@QEAA@PEB_W@Z 0000000180003560 f i OposVariant.obj
 0001:00002590       ??0?$CTraceCategoryEx@$0CA@$0A@@ATL@@QEAA@PEB_W@Z 0000000180003590 f i OposVariant.obj
 0001:000025c0       ??0?$CTraceCategoryEx@$0CAA@$0A@@ATL@@QEAA@PEB_W@Z 00000001800035c0 f i OposVariant.obj
 0001:000025f0       ??0?$CTraceCategoryEx@$0CAAA@$0A@@ATL@@QEAA@PEB_W@Z 00000001800035f0 f i OposVariant.obj
 0001:00002620       ??0?$CTraceCategoryEx@$0CAAAA@$0A@@ATL@@QEAA@PEB_W@Z 0000000180003620 f i OposVariant.obj
 0001:00002650       ??0?$CTraceCategoryEx@$0CAAAAA@$0A@@ATL@@QEAA@PEB_W@Z 0000000180003650 f i OposVariant.obj
 0001:00002680       ??0?$CTraceCategoryEx@$0EA@$0A@@ATL@@QEAA@PEB_W@Z 0000000180003680 f i OposVariant.obj
 0001:000026b0       ??0?$CTraceCategoryEx@$0EAA@$0A@@ATL@@QEAA@PEB_W@Z 00000001800036b0 f i OposVariant.obj
 0001:000026e0       ??0?$CTraceCategoryEx@$0EAAA@$0A@@ATL@@QEAA@PEB_W@Z 00000001800036e0 f i OposVariant.obj
 0001:00002710       ??0?$CTraceCategoryEx@$0EAAAA@$0A@@ATL@@QEAA@PEB_W@Z 0000000180003710 f i OposVariant.obj
 0001:00002740       ??0?$CTraceCategoryEx@$0EAAAAA@$0A@@ATL@@QEAA@PEB_W@Z 0000000180003740 f i OposVariant.obj
 0001:00002770       ??0?$CTraceCategoryEx@$0IA@$0A@@ATL@@QEAA@PEB_W@Z 0000000180003770 f i OposVariant.obj
 0001:000027a0       ??0?$CTraceCategoryEx@$0IAA@$0A@@ATL@@QEAA@PEB_W@Z 00000001800037a0 f i OposVariant.obj
 0001:000027d0       ??0?$CTraceCategoryEx@$0IAAA@$0A@@ATL@@QEAA@PEB_W@Z 00000001800037d0 f i OposVariant.obj
 0001:00002800       ??0?$CTraceCategoryEx@$0IAAAA@$0A@@ATL@@QEAA@PEB_W@Z 0000000180003800 f i OposVariant.obj
 0001:00002830       ??0CAtlComModule@ATL@@QEAA@XZ 0000000180003830 f i OposVariant.obj
 0001:00002940       ??0CAtlWinModule@ATL@@QEAA@XZ 0000000180003940 f i OposVariant.obj
 0001:000029e0       ??0CComCriticalSection@ATL@@QEAA@XZ 00000001800039e0 f i OposVariant.obj
 0001:00002a10       ??0CPreserveLastError@ATL@@QEAA@XZ 0000000180003a10 f i OposVariant.obj
 0001:00002a40       ??0CTraceFileAndLineInfo@ATL@@QEAA@PEBDH@Z 0000000180003a40 f i OposVariant.obj
 0001:00002a70       ??0_ATL_COM_MODULE70@ATL@@QEAA@XZ 0000000180003a70 f i OposVariant.obj
 0001:00002aa0       ??0_ATL_WIN_MODULE70@ATL@@QEAA@XZ 0000000180003aa0 f i OposVariant.obj
 0001:00002ae0       ??1?$CHeapPtr@_WVCCRTAllocator@ATL@@@ATL@@QEAA@XZ 0000000180003ae0 f i OposVariant.obj
 0001:00002b00       ??1?$CHeapPtrBase@_WVCCRTAllocator@ATL@@@ATL@@QEAA@XZ 0000000180003b00 f i OposVariant.obj
 0001:00002b20       ??1?$CSimpleArray@GV?$CSimpleArrayEqualHelper@G@ATL@@@ATL@@QEAA@XZ 0000000180003b20 f i OposVariant.obj
 0001:00002b40       ??1CAtlComModule@ATL@@QEAA@XZ 0000000180003b40 f i OposVariant.obj
 0001:00002b70       ??1CAtlWinModule@ATL@@QEAA@XZ 0000000180003b70 f i OposVariant.obj
 0001:00002ba0       ??1CComBSTR@ATL@@QEAA@XZ   0000000180003ba0 f i OposVariant.obj
 0001:00002bc0       ??1CComCriticalSection@ATL@@QEAA@XZ 0000000180003bc0 f i OposVariant.obj
 0001:00002bd0       ??1CPreserveLastError@ATL@@QEAA@XZ 0000000180003bd0 f i OposVariant.obj
 0001:00002bf0       ??1_ATL_COM_MODULE70@ATL@@QEAA@XZ 0000000180003bf0 f i OposVariant.obj
 0001:00002c20       ??1_ATL_WIN_MODULE70@ATL@@QEAA@XZ 0000000180003c20 f i OposVariant.obj
 0001:00002c60       ??1stringdispid@CComTypeInfoHolder@ATL@@QEAA@XZ 0000000180003c60 f i OposVariant.obj
 0001:00002c80       ??A?$CSimpleArray@GV?$CSimpleArrayEqualHelper@G@ATL@@@ATL@@QEAAAEAGH@Z 0000000180003c80 f i OposVariant.obj
 0001:00002d20       ??B?$CHeapPtrBase@_WVCCRTAllocator@ATL@@@ATL@@QEBAPEA_WXZ 0000000180003d20 f i OposVariant.obj
 0001:00002d30       ??B?$CTraceCategoryEx@$01$0A@@ATL@@QEAAIXZ 0000000180003d30 f i OposVariant.obj
 0001:00002d40       ??B?$CTraceCategoryEx@$0CA@$0A@@ATL@@QEAAIXZ 0000000180003d40 f i OposVariant.obj
 0001:00002d50       ??RCTraceFileAndLineInfo@ATL@@QEBAXHIPEB_WZZ 0000000180003d50 f i OposVariant.obj
 0001:00002e10       ??_Estringdispid@CComTypeInfoHolder@ATL@@QEAAPEAXI@Z 0000000180003e10 f i OposVariant.obj
 0001:00002eb0       ??_H@YAXPEAX_K1P6APEAX0@Z@Z 0000000180003eb0 f i OposVariant.obj
 0001:00002f30       ??_I@YAXPEAX_K1P6AX0@Z@Z   0000000180003f30 f i OposVariant.obj
 0001:00002fd0       ?Allocate@?$CHeapPtr@_WVCCRTAllocator@ATL@@@ATL@@QEAA_N_K@Z 0000000180003fd0 f i OposVariant.obj
 0001:00003050       ?Allocate@CCRTAllocator@ATL@@SAPEAX_K@Z 0000000180004050 f i OposVariant.obj
 0001:00003070       ?AllocateBytes@?$CHeapPtrBase@_WVCCRTAllocator@ATL@@@ATL@@QEAA_N_K@Z 0000000180004070 f i OposVariant.obj
 0001:000030f0       ?AtlWinModuleInit@ATL@@YAJPEAU_ATL_WIN_MODULE70@1@@Z 00000001800040f0 f i OposVariant.obj
 0001:000031e0       ?AtlWinModuleTerm@ATL@@YAJPEAU_ATL_WIN_MODULE70@1@PEAUHINSTANCE__@@@Z 00000001800041e0 f i OposVariant.obj
 0001:000032b0       ?Clear@OposVariant@@QEAAJXZ 00000001800042b0 f i OposVariant.obj
 0001:000032e0       ?Free@?$CHeapPtrBase@_WVCCRTAllocator@ATL@@@ATL@@QEAAXXZ 00000001800042e0 f i OposVariant.obj
 0001:00003310       ?Free@CCRTAllocator@ATL@@SAXPEAX@Z 0000000180004310 f i OposVariant.obj
 0001:00003330       ?GetCategoryName@CTrace@ATL@@CAPEA_WI@Z 0000000180004330 f i OposVariant.obj
 0001:000033a0       ?GetModuleInstance@CAtlBaseModule@ATL@@QEAAPEAUHINSTANCE__@@XZ 00000001800043a0 f i OposVariant.obj
 0001:000033c0       ?GetSize@?$CSimpleArray@GV?$CSimpleArrayEqualHelper@G@ATL@@@ATL@@QEBAHXZ 00000001800043c0 f i OposVariant.obj
 0001:000033d0       ?Init@CComCriticalSection@ATL@@QEAAJXZ 00000001800043d0 f i OposVariant.obj
 0001:00003420       ?RegisterCategory@CTrace@ATL@@SAXPEB_WI@Z 0000000180004420 f i OposVariant.obj
 0001:000034e0       ?RemoveAll@?$CSimpleArray@GV?$CSimpleArrayEqualHelper@G@ATL@@@ATL@@QEAAXXZ 00000001800044e0 f i OposVariant.obj
 0001:00003550       ?Term@CAtlComModule@ATL@@QEAAXXZ 0000000180004550 f i OposVariant.obj
 0001:00003620       ?Term@CAtlWinModule@ATL@@QEAAXXZ 0000000180004620 f i OposVariant.obj
 0001:00003650       ?Term@CComCriticalSection@ATL@@QEAAJXZ 0000000180004650 f i OposVariant.obj
 0001:00003670       ?TraceV@CTrace@ATL@@CAXPEBDHIIPEB_W@Z 0000000180004670 f i OposVariant.obj
 0001:00003920       ?TraceV@CTrace@ATL@@SAXPEBDHIIPEB_WPEAD@Z 0000000180004920 f i OposVariant.obj
 0001:00003ad0       ?_AtlInitializeCriticalSectionEx@ATL@@YAHPEAU_RTL_CRITICAL_SECTION@@KK@Z 0000000180004ad0 f i OposVariant.obj
 0001:00003b00       ?_AtlRaiseException@ATL@@YAXKK@Z 0000000180004b00 f i OposVariant.obj
 0001:00003b30       HRESULT_FROM_WIN32         0000000180004b30 f i OposVariant.obj
 0001:00003b70       _vswprintf_s_l             0000000180004b70 f i OposVariant.obj
 0001:00003be0       swprintf_s                 0000000180004be0 f i OposVariant.obj
 0001:00003c70       ?ObjectMain@CComObjectRootBase@ATL@@SAX_N@Z 0000000180004c70 f i CAT.obj
 0001:00003c80       ?GetCategoryMap@CComObjectRootBase@ATL@@SAPEBU_ATL_CATMAP_ENTRY@2@XZ 0000000180004c80 f i CAT.obj
 0001:00003c90       ?GetObjectDescription@?$CComCoClass@VCOPOSCAT@@$1?CLSID_OPOSCAT@@3U_GUID@@B@ATL@@SAPEB_WXZ 0000000180004c90 f i CAT.obj
 0001:00003ca0       ?UpdateRegistry@COPOSCAT@@SAJH@Z 0000000180004ca0 f i CAT.obj
 0001:00003cd0       ?CreateInstance@?$CComCreator@V?$CComObjectCached@VCComClassFactory@ATL@@@ATL@@@ATL@@SAJPEAXAEBU_GUID@@PEAPEAX@Z 0000000180004cd0 f i CAT.obj
 0001:00003ea0       ?CreateInstance@?$CComCreator2@V?$CComCreator@V?$CComObject@VCOPOSCAT@@@ATL@@@ATL@@V?$CComCreator@V?$CComAggObject@VCOPOSCAT@@@ATL@@@2@@ATL@@SAJPEAXAEBU_GUID@@PEAPEAX@Z 0000000180004ea0 f i CAT.obj
 0001:00004090       DllGetClassObject          0000000180005090 f   CAT.obj
 0001:000040d0       DllCanUnloadNow            00000001800050d0 f   CAT.obj
 0001:00004110       DllRegisterServer          0000000180005110 f   CAT.obj
 0001:00004140       DllUnregisterServer        0000000180005140 f   CAT.obj
 0001:00004300       DllMain                    0000000180005300 f   CAT.obj
 0001:00004370       ??$?2G@Wrapper@?$CSimpleArray@GV?$CSimpleArrayEqualHelper@G@ATL@@@ATL@@SAPEAX_KPEAG@Z 0000000180005370 f i CAT.obj
 0001:00004390       ??$?2PEA_W@?$Wrapper@PEA_W@?$CSimpleMap@PEA_WPEA_WVCExpansionVectorEqualHelper@ATL@@@ATL@@SAPEAX_KPEAPEA_W@Z 0000000180005390 f i CAT.obj
 0001:000043b0       ??$?4UITypeInfo2@@@?$CComPtr@UITypeInfo@@@ATL@@QEAAPEAUITypeInfo@@AEBV?$CComPtr@UITypeInfo2@@@1@@Z 00000001800053b0 f i CAT.obj
 0001:00004410       ??$AtlAdd@_K@ATL@@YAJPEA_K_K1@Z 0000000180005410 f i CAT.obj
 0001:00004470       ??$AtlAddThrow@_K@ATL@@YA_K_K0@Z 0000000180005470 f i CAT.obj
 0001:000044e0       ??$AtlModuleRegisterWndClassInfoT@VAtlModuleRegisterWndClassInfoParamW@ATL@@@ATL@@YAGPEAU_ATL_BASE_MODULE70@0@PEAU_ATL_WIN_MODULE70@0@PEAU_ATL_WNDCLASSINFOW@0@PEAP6A_JPEAUHWND__@@I_K_J@ZVAtlModuleRegisterWndClassInfoParamW@0@@Z 00000001800054e0 f i CAT.obj
 0001:00004ab0       ??$AtlMultiply@H@ATL@@YAJPEAHHH@Z 0000000180005ab0 f i CAT.obj
 0001:00004b10       ??$AtlMultiply@K@ATL@@YAJPEAKKK@Z 0000000180005b10 f i CAT.obj
 0001:00004b60       ??$AtlMultiplyThrow@_K@ATL@@YA_K_K0@Z 0000000180005b60 f i CAT.obj
 0001:00004bd0       ??$QueryInterface@UIPersistStream@@@IUnknown@@QEAAJPEAPEAUIPersistStream@@@Z 0000000180005bd0 f i CAT.obj
 0001:00004c00       ??$QueryInterface@UITypeInfo2@@@IUnknown@@QEAAJPEAPEAUITypeInfo2@@@Z 0000000180005c00 f i CAT.obj
 0001:00004c30       ??0?$CAtlModuleT@VCComModule@ATL@@@ATL@@QEAA@XZ 0000000180005c30 f i CAT.obj
 0001:00004c60       ??0?$CAtlSafeAllocBufferManager@VCCRTAllocator@ATL@@@_ATL_SAFE_ALLOCA_IMPL@ATL@@QEAA@XZ 0000000180005c60 f i CAT.obj
 0001:00004c80       ??0?$CAutoVectorPtr@_W@ATL@@QEAA@XZ 0000000180005c80 f i CAT.obj
 0001:00004ca0       ??0?$CComAggObject@VCOPOSCAT@@@ATL@@QEAA@PEAX@Z 0000000180005ca0 f i CAT.obj
 0001:00004d10       ??0?$CComContainedObject@VCOPOSCAT@@@ATL@@QEAA@PEAX@Z 0000000180005d10 f i CAT.obj
 0001:00004ea0       ??0?$CComCritSecLock@VCComCriticalSection@ATL@@@ATL@@QEAA@AEAVCComCriticalSection@1@_N@Z 0000000180005ea0 f i CAT.obj
 0001:00004f00       ??0?$CComEnum@UIEnumConnectionPoints@@$1?_GUID_b196b285_bab4_101a_b69c_00aa00341d07@@3U__s_GUID@@BPEAUIConnectionPoint@@V?$_CopyInterface@UIConnectionPoint@@@ATL@@VCComSingleThreadModel@6@@ATL@@QEAA@XZ 0000000180005f00 f i CAT.obj
 0001:00004f30       ??0?$CComEnum@UIEnumConnections@@$1?_GUID_b196b287_bab4_101a_b69c_00aa00341d07@@3U__s_GUID@@BUtagCONNECTDATA@@V?$_Copy@UtagCONNECTDATA@@@ATL@@VCComSingleThreadModel@6@@ATL@@QEAA@XZ 0000000180005f30 f i CAT.obj
 0001:00004f60       ??0?$CComEnumImpl@UIEnumConnectionPoints@@$1?_GUID_b196b285_bab4_101a_b69c_00aa00341d07@@3U__s_GUID@@BPEAUIConnectionPoint@@V?$_CopyInterface@UIConnectionPoint@@@ATL@@@ATL@@QEAA@XZ 0000000180005f60 f i CAT.obj
 0001:00004fd0       ??0?$CComEnumImpl@UIEnumConnections@@$1?_GUID_b196b287_bab4_101a_b69c_00aa00341d07@@3U__s_GUID@@BUtagCONNECTDATA@@V?$_Copy@UtagCONNECTDATA@@@ATL@@@ATL@@QEAA@XZ 0000000180005fd0 f i CAT.obj
 0001:00005040       ??0?$CComObject@V?$CComEnum@UIEnumConnectionPoints@@$1?_GUID_b196b285_bab4_101a_b69c_00aa00341d07@@3U__s_GUID@@BPEAUIConnectionPoint@@V?$_CopyInterface@UIConnectionPoint@@@ATL@@VCComSingleThreadModel@6@@ATL@@@ATL@@QEAA@PEAX@Z 0000000180006040 f i CAT.obj
 0001:00005090       ??0?$CComObject@V?$CComEnum@UIEnumConnections@@$1?_GUID_b196b287_bab4_101a_b69c_00aa00341d07@@3U__s_GUID@@BUtagCONNECTDATA@@V?$_Copy@UtagCONNECTDATA@@@ATL@@VCComSingleThreadModel@6@@ATL@@@ATL@@QEAA@PEAX@Z 0000000180006090 f i CAT.obj
 0001:000050e0       ??0?$CComObject@VCOPOSCAT@@@ATL@@QEAA@PEAX@Z 00000001800060e0 f i CAT.obj
 0001:00005270       ??0?$CComObjectCached@VCComClassFactory@ATL@@@ATL@@QEAA@PEAX@Z 0000000180006270 f i CAT.obj
 0001:000052b0       ??0?$CComObjectRootEx@VCComMultiThreadModel@ATL@@@ATL@@QEAA@XZ 00000001800062b0 f i CAT.obj
 0001:000052e0       ??0?$CComObjectRootEx@VCComSingleThreadModel@ATL@@@ATL@@QEAA@XZ 00000001800062e0 f i CAT.obj
 0001:00005300       ??0?$CComPtr@UIAdviseSink@@@ATL@@QEAA@PEAUIAdviseSink@@@Z 0000000180006300 f i CAT.obj
 0001:00005330       ??0?$CComPtr@UICatRegister@@@ATL@@QEAA@XZ 0000000180006330 f i CAT.obj
 0001:00005350       ??0?$CComPtr@UIConnectionPoint@@@ATL@@QEAA@XZ 0000000180006350 f i CAT.obj
 0001:00005370       ??0?$CComPtr@UIConnectionPointContainer@@@ATL@@QEAA@XZ 0000000180006370 f i CAT.obj
 0001:00005390       ??0?$CComPtr@UIDataObject@@@ATL@@QEAA@XZ 0000000180006390 f i CAT.obj
 0001:000053b0       ??0?$CComPtr@UIDispatch@@@ATL@@QEAA@XZ 00000001800063b0 f i CAT.obj
 0001:000053d0       ??0?$CComPtr@UIOleClientSite@@@ATL@@QEAA@PEAUIOleClientSite@@@Z 00000001800063d0 f i CAT.obj
 0001:00005400       ??0?$CComPtr@UIOleControlSite@@@ATL@@QEAA@XZ 0000000180006400 f i CAT.obj
 0001:00005420       ??0?$CComPtr@UIOleInPlaceActiveObject@@@ATL@@QEAA@XZ 0000000180006420 f i CAT.obj
 0001:00005440       ??0?$CComPtr@UIOleInPlaceFrame@@@ATL@@QEAA@XZ 0000000180006440 f i CAT.obj
 0001:00005460       ??0?$CComPtr@UIOleInPlaceObject@@@ATL@@QEAA@XZ 0000000180006460 f i CAT.obj
 0001:00005480       ??0?$CComPtr@UIOleInPlaceUIWindow@@@ATL@@QEAA@XZ 0000000180006480 f i CAT.obj
 0001:000054a0       ??0?$CComPtr@UIOleObject@@@ATL@@QEAA@XZ 00000001800064a0 f i CAT.obj
 0001:000054c0       ??0?$CComPtr@UIPersistStream@@@ATL@@QEAA@XZ 00000001800064c0 f i CAT.obj
 0001:000054e0       ??0?$CComPtr@UIPersistStreamInit@@@ATL@@QEAA@XZ 00000001800064e0 f i CAT.obj
 0001:00005500       ??0?$CComPtr@UIPointerInactive@@@ATL@@QEAA@XZ 0000000180006500 f i CAT.obj
 0001:00005520       ??0?$CComPtr@UIProvideClassInfo2@@@ATL@@QEAA@XZ 0000000180006520 f i CAT.obj
 0001:00005540       ??0?$CComPtr@UISpecifyPropertyPages@@@ATL@@QEAA@XZ 0000000180006540 f i CAT.obj
 0001:00005560       ??0?$CComPtr@UIStream@@@ATL@@QEAA@XZ 0000000180006560 f i CAT.obj
 0001:00005580       ??0?$CComPtr@UITypeInfo2@@@ATL@@QEAA@XZ 0000000180006580 f i CAT.obj
 0001:000055a0       ??0?$CComPtr@UITypeInfo@@@ATL@@QEAA@AEBV01@@Z 00000001800065a0 f i CAT.obj
 0001:000055d0       ??0?$CComPtr@UITypeInfo@@@ATL@@QEAA@XZ 00000001800065d0 f i CAT.obj
 0001:000055f0       ??0?$CComPtr@UITypeLib@@@ATL@@QEAA@XZ 00000001800065f0 f i CAT.obj
 0001:00005610       ??0?$CComPtr@UIUnknown@@@ATL@@QEAA@AEBV01@@Z 0000000180006610 f i CAT.obj
 0001:00005640       ??0?$CComPtr@UIUnknown@@@ATL@@QEAA@PEAUIUnknown@@@Z 0000000180006640 f i CAT.obj
 0001:00005670       ??0?$CComPtr@UIUnknown@@@ATL@@QEAA@XZ 0000000180006670 f i CAT.obj
 0001:00005690       ??0?$CComPtr@UIViewObjectEx@@@ATL@@QEAA@XZ 0000000180006690 f i CAT.obj
 0001:000056b0       ??0?$CComPtrBase@UIAdviseSink@@@ATL@@IEAA@PEAUIAdviseSink@@@Z 00000001800066b0 f i CAT.obj
 0001:00005700       ??0?$CComPtrBase@UICatRegister@@@ATL@@IEAA@XZ 0000000180006700 f i CAT.obj
 0001:00005720       ??0?$CComPtrBase@UIConnectionPoint@@@ATL@@IEAA@XZ 0000000180006720 f i CAT.obj
 0001:00005740       ??0?$CComPtrBase@UIConnectionPointContainer@@@ATL@@IEAA@XZ 0000000180006740 f i CAT.obj
 0001:00005760       ??0?$CComPtrBase@UIDataObject@@@ATL@@IEAA@XZ 0000000180006760 f i CAT.obj
 0001:00005780       ??0?$CComPtrBase@UIDispatch@@@ATL@@IEAA@XZ 0000000180006780 f i CAT.obj
 0001:000057a0       ??0?$CComPtrBase@UIOleClientSite@@@ATL@@IEAA@PEAUIOleClientSite@@@Z 00000001800067a0 f i CAT.obj
 0001:000057f0       ??0?$CComPtrBase@UIOleControlSite@@@ATL@@IEAA@XZ 00000001800067f0 f i CAT.obj
 0001:00005810       ??0?$CComPtrBase@UIOleInPlaceActiveObject@@@ATL@@IEAA@XZ 0000000180006810 f i CAT.obj
 0001:00005830       ??0?$CComPtrBase@UIOleInPlaceFrame@@@ATL@@IEAA@XZ 0000000180006830 f i CAT.obj
 0001:00005850       ??0?$CComPtrBase@UIOleInPlaceObject@@@ATL@@IEAA@XZ 0000000180006850 f i CAT.obj
 0001:00005870       ??0?$CComPtrBase@UIOleInPlaceUIWindow@@@ATL@@IEAA@XZ 0000000180006870 f i CAT.obj
 0001:00005890       ??0?$CComPtrBase@UIOleObject@@@ATL@@IEAA@XZ 0000000180006890 f i CAT.obj
 0001:000058b0       ??0?$CComPtrBase@UIPersistStream@@@ATL@@IEAA@XZ 00000001800068b0 f i CAT.obj
 0001:000058d0       ??0?$CComPtrBase@UIPersistStreamInit@@@ATL@@IEAA@XZ 00000001800068d0 f i CAT.obj
 0001:000058f0       ??0?$CComPtrBase@UIPointerInactive@@@ATL@@IEAA@XZ 00000001800068f0 f i CAT.obj
 0001:00005910       ??0?$CComPtrBase@UIProvideClassInfo2@@@ATL@@IEAA@XZ 0000000180006910 f i CAT.obj
 0001:00005930       ??0?$CComPtrBase@UISpecifyPropertyPages@@@ATL@@IEAA@XZ 0000000180006930 f i CAT.obj
 0001:00005950       ??0?$CComPtrBase@UIStream@@@ATL@@IEAA@XZ 0000000180006950 f i CAT.obj
 0001:00005970       ??0?$CComPtrBase@UITypeInfo2@@@ATL@@IEAA@XZ 0000000180006970 f i CAT.obj
 0001:00005990       ??0?$CComPtrBase@UITypeInfo@@@ATL@@IEAA@PEAUITypeInfo@@@Z 0000000180006990 f i CAT.obj
 0001:000059e0       ??0?$CComPtrBase@UITypeInfo@@@ATL@@IEAA@XZ 00000001800069e0 f i CAT.obj
 0001:00005a00       ??0?$CComPtrBase@UITypeLib@@@ATL@@IEAA@XZ 0000000180006a00 f i CAT.obj
 0001:00005a20       ??0?$CComPtrBase@UIUnknown@@@ATL@@IEAA@PEAUIUnknown@@@Z 0000000180006a20 f i CAT.obj
 0001:00005a70       ??0?$CComPtrBase@UIUnknown@@@ATL@@IEAA@XZ 0000000180006a70 f i CAT.obj
 0001:00005a90       ??0?$CComPtrBase@UIViewObjectEx@@@ATL@@IEAA@XZ 0000000180006a90 f i CAT.obj
 0001:00005ab0       ??0?$CComQIPtr@UIOleControlSite@@$1?_GUID_b196b289_bab4_101a_b69c_00aa00341d07@@3U__s_GUID@@B@ATL@@QEAA@PEAUIUnknown@@@Z 0000000180006ab0 f i CAT.obj
 0001:00005b10       ??0?$CComQIPtr@UIOleObject@@$1?_GUID_00000112_0000_0000_c000_000000000046@@3U__s_GUID@@B@ATL@@QEAA@XZ 0000000180006b10 f i CAT.obj
 0001:00005b30       ??0?$CComQIPtr@UISpecifyPropertyPages@@$1?_GUID_b196b28b_bab4_101a_b69c_00aa00341d07@@3U__s_GUID@@B@ATL@@QEAA@XZ 0000000180006b30 f i CAT.obj
 0001:00005b50       ??0?$CSimpleMap@PEA_WPEA_WVCExpansionVectorEqualHelper@ATL@@@ATL@@QEAA@XZ 0000000180006b50 f i CAT.obj
 0001:00005b90       ??0?$CTempBuffer@E$0BAA@VCCRTAllocator@ATL@@@ATL@@QEAA@XZ 0000000180006b90 f i CAT.obj
 0001:00005bb0       ??0?$CTempBuffer@_W$0BAA@VCCRTAllocator@ATL@@@ATL@@QEAA@XZ 0000000180006bb0 f i CAT.obj
 0001:00005bd0       ??0?$CTempBuffer@_W$0EAA@VCCRTAllocator@ATL@@@ATL@@QEAA@XZ 0000000180006bd0 f i CAT.obj
 0001:00005bf0       ??0?$Wrapper@PEA_W@?$CSimpleMap@PEA_WPEA_WVCExpansionVectorEqualHelper@ATL@@@ATL@@QEAA@AEBQEA_W@Z 0000000180006bf0 f i CAT.obj
 0001:00005c20       ??0CAtlModule@ATL@@QEAA@XZ 0000000180006c20 f i CAT.obj
 0001:00005d80       ??0CComAutoDeleteCriticalSection@ATL@@QEAA@XZ 0000000180006d80 f i CAT.obj
 0001:00005da0       ??0CComBSTR@ATL@@QEAA@XZ   0000000180006da0 f i CAT.obj
 0001:00005dc0       ??0CComClassFactory@ATL@@QEAA@XZ 0000000180006dc0 f i CAT.obj
 0001:00005e00       ??0CComModule@ATL@@QEAA@XZ 0000000180006e00 f i CAT.obj
 0001:00005e80       ??0CComObjectRootBase@ATL@@QEAA@XZ 0000000180006e80 f i CAT.obj
 0001:00005ea0       ??0CComSafeDeleteCriticalSection@ATL@@QEAA@XZ 0000000180006ea0 f i CAT.obj
 0001:00005ed0       ??0CComVariant@ATL@@QEAA@XZ 0000000180006ed0 f i CAT.obj
 0001:00005f10       ??0CExpansionVector@ATL@@QEAA@XZ 0000000180006f10 f i CAT.obj
 0001:00005f30       ??0CParseBuffer@CRegParser@ATL@@QEAA@H@Z 0000000180006f30 f i CAT.obj
 0001:00005fb0       ??0CRegKey@ATL@@QEAA@PEAUHKEY__@@@Z 0000000180006fb0 f i CAT.obj
 0001:00005ff0       ??0CRegKey@ATL@@QEAA@PEAVCAtlTransactionManager@1@@Z 0000000180006ff0 f i CAT.obj
 0001:00006030       ??0CRegObject@ATL@@QEAA@XZ 0000000180007030 f i CAT.obj
 0001:00006070       ??0CRegParser@ATL@@QEAA@PEAVCRegObject@1@@Z 0000000180007070 f i CAT.obj
 0001:000060a0       ??0IClassFactory@@QEAA@XZ  00000001800070a0 f i CAT.obj
 0001:000060c0       ??0IEnumConnectionPoints@@QEAA@XZ 00000001800070c0 f i CAT.obj
 0001:000060e0       ??0IEnumConnections@@QEAA@XZ 00000001800070e0 f i CAT.obj
 0001:00006100       ??0IRegistrarBase@@QEAA@XZ 0000000180007100 f i CAT.obj
 0001:00006120       ??0IUnknown@@QEAA@XZ       0000000180007120 f i CAT.obj
 0001:00006130       ??0ModuleLockHelper@ATL@@QEAA@XZ 0000000180007130 f i CAT.obj
 0001:00006160       ??0OposVariant@@QEAA@XZ    0000000180007160 f i CAT.obj
 0001:00006180       ??0Wrapper@?$CSimpleArray@GV?$CSimpleArrayEqualHelper@G@ATL@@@ATL@@QEAA@AEBG@Z 0000000180007180 f i CAT.obj
 0001:000061b0       ??0_ATL_MODULE70@ATL@@QEAA@XZ 00000001800071b0 f i CAT.obj
 0001:000061e0       ??0_ATL_MSG@ATL@@QEAA@PEAUHWND__@@I_K_JH@Z 00000001800071e0 f i CAT.obj
 0001:00006270       ??0_U_MENUorID@ATL@@QEAA@I@Z 0000000180007270 f i CAT.obj
 0001:00006290       ??0_U_RECT@ATL@@QEAA@AEAUtagRECT@@@Z 0000000180007290 f i CAT.obj
 0001:000062b0       ??0stringdispid@CComTypeInfoHolder@ATL@@QEAA@XZ 00000001800072b0 f i CAT.obj
 0001:000062f0       ??1?$CAtlModuleT@VCComModule@ATL@@@ATL@@UEAA@XZ 00000001800072f0 f i CAT.obj
 0001:00006310       ??1?$CAtlSafeAllocBufferManager@VCCRTAllocator@ATL@@@_ATL_SAFE_ALLOCA_IMPL@ATL@@QEAA@XZ 0000000180007310 f i CAT.obj
 0001:00006360       ??1?$CAutoVectorPtr@_W@ATL@@QEAA@XZ 0000000180007360 f i CAT.obj
 0001:00006380       ??1?$CComAggObject@VCOPOSCAT@@@ATL@@UEAA@XZ 0000000180007380 f i CAT.obj
 0001:000063f0       ??1?$CComContainedObject@VCOPOSCAT@@@ATL@@UEAA@XZ 00000001800073f0 f i CAT.obj
 0001:00006410       ??1?$CComCritSecLock@VCComCriticalSection@ATL@@@ATL@@QEAA@XZ 0000000180007410 f i CAT.obj
 0001:00006440       ??1?$CComEnum@UIEnumConnectionPoints@@$1?_GUID_b196b285_bab4_101a_b69c_00aa00341d07@@3U__s_GUID@@BPEAUIConnectionPoint@@V?$_CopyInterface@UIConnectionPoint@@@ATL@@VCComSingleThreadModel@6@@ATL@@UEAA@XZ 0000000180007440 f i CAT.obj
 0001:00006470       ??1?$CComEnum@UIEnumConnections@@$1?_GUID_b196b287_bab4_101a_b69c_00aa00341d07@@3U__s_GUID@@BUtagCONNECTDATA@@V?$_Copy@UtagCONNECTDATA@@@ATL@@VCComSingleThreadModel@6@@ATL@@UEAA@XZ 0000000180007470 f i CAT.obj
 0001:000064a0       ??1?$CComEnumImpl@UIEnumConnectionPoints@@$1?_GUID_b196b285_bab4_101a_b69c_00aa00341d07@@3U__s_GUID@@BPEAUIConnectionPoint@@V?$_CopyInterface@UIConnectionPoint@@@ATL@@@ATL@@UEAA@XZ 00000001800074a0 f i CAT.obj
 0001:00006530       ??1?$CComEnumImpl@UIEnumConnections@@$1?_GUID_b196b287_bab4_101a_b69c_00aa00341d07@@3U__s_GUID@@BUtagCONNECTDATA@@V?$_Copy@UtagCONNECTDATA@@@ATL@@@ATL@@UEAA@XZ 0000000180007530 f i CAT.obj
 0001:000065c0       ??1?$CComObject@V?$CComEnum@UIEnumConnectionPoints@@$1?_GUID_b196b285_bab4_101a_b69c_00aa00341d07@@3U__s_GUID@@BPEAUIConnectionPoint@@V?$_CopyInterface@UIConnectionPoint@@@ATL@@VCComSingleThreadModel@6@@ATL@@@ATL@@UEAA@XZ 00000001800075c0 f i CAT.obj
 0001:00006620       ??1?$CComObject@V?$CComEnum@UIEnumConnections@@$1?_GUID_b196b287_bab4_101a_b69c_00aa00341d07@@3U__s_GUID@@BUtagCONNECTDATA@@V?$_Copy@UtagCONNECTDATA@@@ATL@@VCComSingleThreadModel@6@@ATL@@@ATL@@UEAA@XZ 0000000180007620 f i CAT.obj
 0001:00006680       ??1?$CComObject@VCOPOSCAT@@@ATL@@UEAA@XZ 0000000180007680 f i CAT.obj
 0001:00006820       ??1?$CComObjectCached@VCComClassFactory@ATL@@@ATL@@UEAA@XZ 0000000180007820 f i CAT.obj
 0001:00006870       ??1?$CComObjectRootEx@VCComMultiThreadModel@ATL@@@ATL@@QEAA@XZ 0000000180007870 f i CAT.obj
 0001:000068a0       ??1?$CComObjectRootEx@VCComSingleThreadModel@ATL@@@ATL@@QEAA@XZ 00000001800078a0 f i CAT.obj
 0001:000068c0       ??1?$CComPtr@UIAdviseSink@@@ATL@@QEAA@XZ 00000001800078c0 f i CAT.obj
 0001:000068e0       ??1?$CComPtr@UICatRegister@@@ATL@@QEAA@XZ 00000001800078e0 f i CAT.obj
 0001:00006900       ??1?$CComPtr@UIConnectionPoint@@@ATL@@QEAA@XZ 0000000180007900 f i CAT.obj
 0001:00006920       ??1?$CComPtr@UIConnectionPointContainer@@@ATL@@QEAA@XZ 0000000180007920 f i CAT.obj
 0001:00006940       ??1?$CComPtr@UIDataObject@@@ATL@@QEAA@XZ 0000000180007940 f i CAT.obj
 0001:00006960       ??1?$CComPtr@UIDispatch@@@ATL@@QEAA@XZ 0000000180007960 f i CAT.obj
 0001:00006980       ??1?$CComPtr@UIOleClientSite@@@ATL@@QEAA@XZ 0000000180007980 f i CAT.obj
 0001:000069a0       ??1?$CComPtr@UIOleControlSite@@@ATL@@QEAA@XZ 00000001800079a0 f i CAT.obj
 0001:000069c0       ??1?$CComPtr@UIOleInPlaceActiveObject@@@ATL@@QEAA@XZ 00000001800079c0 f i CAT.obj
 0001:000069e0       ??1?$CComPtr@UIOleInPlaceFrame@@@ATL@@QEAA@XZ 00000001800079e0 f i CAT.obj
 0001:00006a00       ??1?$CComPtr@UIOleInPlaceObject@@@ATL@@QEAA@XZ 0000000180007a00 f i CAT.obj
 0001:00006a20       ??1?$CComPtr@UIOleInPlaceUIWindow@@@ATL@@QEAA@XZ 0000000180007a20 f i CAT.obj
 0001:00006a40       ??1?$CComPtr@UIOleObject@@@ATL@@QEAA@XZ 0000000180007a40 f i CAT.obj
 0001:00006a60       ??1?$CComPtr@UIPersistStream@@@ATL@@QEAA@XZ 0000000180007a60 f i CAT.obj
 0001:00006a80       ??1?$CComPtr@UIPersistStreamInit@@@ATL@@QEAA@XZ 0000000180007a80 f i CAT.obj
 0001:00006aa0       ??1?$CComPtr@UIPointerInactive@@@ATL@@QEAA@XZ 0000000180007aa0 f i CAT.obj
 0001:00006ac0       ??1?$CComPtr@UIProvideClassInfo2@@@ATL@@QEAA@XZ 0000000180007ac0 f i CAT.obj
 0001:00006ae0       ??1?$CComPtr@UISpecifyPropertyPages@@@ATL@@QEAA@XZ 0000000180007ae0 f i CAT.obj
 0001:00006b00       ??1?$CComPtr@UIStream@@@ATL@@QEAA@XZ 0000000180007b00 f i CAT.obj
 0001:00006b20       ??1?$CComPtr@UITypeInfo2@@@ATL@@QEAA@XZ 0000000180007b20 f i CAT.obj
 0001:00006b40       ??1?$CComPtr@UITypeInfo@@@ATL@@QEAA@XZ 0000000180007b40 f i CAT.obj
 0001:00006b60       ??1?$CComPtr@UITypeLib@@@ATL@@QEAA@XZ 0000000180007b60 f i CAT.obj
 0001:00006b80       ??1?$CComPtr@UIUnknown@@@ATL@@QEAA@XZ 0000000180007b80 f i CAT.obj
 0001:00006ba0       ??1?$CComPtr@UIViewObjectEx@@@ATL@@QEAA@XZ 0000000180007ba0 f i CAT.obj
 0001:00006bc0       ??1?$CComPtrBase@UIAdviseSink@@@ATL@@QEAA@XZ 0000000180007bc0 f i CAT.obj
 0001:00006c00       ??1?$CComPtrBase@UICatRegister@@@ATL@@QEAA@XZ 0000000180007c00 f i CAT.obj
 0001:00006c40       ??1?$CComPtrBase@UIConnectionPoint@@@ATL@@QEAA@XZ 0000000180007c40 f i CAT.obj
 0001:00006c80       ??1?$CComPtrBase@UIConnectionPointContainer@@@ATL@@QEAA@XZ 0000000180007c80 f i CAT.obj
 0001:00006cc0       ??1?$CComPtrBase@UIDataObject@@@ATL@@QEAA@XZ 0000000180007cc0 f i CAT.obj
 0001:00006d00       ??1?$CComPtrBase@UIDispatch@@@ATL@@QEAA@XZ 0000000180007d00 f i CAT.obj
 0001:00006d40       ??1?$CComPtrBase@UIOleClientSite@@@ATL@@QEAA@XZ 0000000180007d40 f i CAT.obj
 0001:00006d80       ??1?$CComPtrBase@UIOleControlSite@@@ATL@@QEAA@XZ 0000000180007d80 f i CAT.obj
 0001:00006dc0       ??1?$CComPtrBase@UIOleInPlaceActiveObject@@@ATL@@QEAA@XZ 0000000180007dc0 f i CAT.obj
 0001:00006e00       ??1?$CComPtrBase@UIOleInPlaceFrame@@@ATL@@QEAA@XZ 0000000180007e00 f i CAT.obj
 0001:00006e40       ??1?$CComPtrBase@UIOleInPlaceObject@@@ATL@@QEAA@XZ 0000000180007e40 f i CAT.obj
 0001:00006e80       ??1?$CComPtrBase@UIOleInPlaceUIWindow@@@ATL@@QEAA@XZ 0000000180007e80 f i CAT.obj
 0001:00006ec0       ??1?$CComPtrBase@UIOleObject@@@ATL@@QEAA@XZ 0000000180007ec0 f i CAT.obj
 0001:00006f00       ??1?$CComPtrBase@UIPersistStream@@@ATL@@QEAA@XZ 0000000180007f00 f i CAT.obj
 0001:00006f40       ??1?$CComPtrBase@UIPersistStreamInit@@@ATL@@QEAA@XZ 0000000180007f40 f i CAT.obj
 0001:00006f80       ??1?$CComPtrBase@UIPointerInactive@@@ATL@@QEAA@XZ 0000000180007f80 f i CAT.obj
 0001:00006fc0       ??1?$CComPtrBase@UIProvideClassInfo2@@@ATL@@QEAA@XZ 0000000180007fc0 f i CAT.obj
 0001:00007000       ??1?$CComPtrBase@UISpecifyPropertyPages@@@ATL@@QEAA@XZ 0000000180008000 f i CAT.obj
 0001:00007040       ??1?$CComPtrBase@UIStream@@@ATL@@QEAA@XZ 0000000180008040 f i CAT.obj
 0001:00007080       ??1?$CComPtrBase@UITypeInfo2@@@ATL@@QEAA@XZ 0000000180008080 f i CAT.obj
 0001:000070c0       ??1?$CComPtrBase@UITypeInfo@@@ATL@@QEAA@XZ 00000001800080c0 f i CAT.obj
 0001:00007100       ??1?$CComPtrBase@UITypeLib@@@ATL@@QEAA@XZ 0000000180008100 f i CAT.obj
 0001:00007140       ??1?$CComPtrBase@UIUnknown@@@ATL@@QEAA@XZ 0000000180008140 f i CAT.obj
 0001:00007180       ??1?$CComPtrBase@UIViewObjectEx@@@ATL@@QEAA@XZ 0000000180008180 f i CAT.obj
 0001:000071c0       ??1?$CComQIPtr@UIOleControlSite@@$1?_GUID_b196b289_bab4_101a_b69c_00aa00341d07@@3U__s_GUID@@B@ATL@@QEAA@XZ 00000001800081c0 f i CAT.obj
 0001:000071e0       ??1?$CComQIPtr@UIOleObject@@$1?_GUID_00000112_0000_0000_c000_000000000046@@3U__s_GUID@@B@ATL@@QEAA@XZ 00000001800081e0 f i CAT.obj
 0001:00007200       ??1?$CComQIPtr@UISpecifyPropertyPages@@$1?_GUID_b196b28b_bab4_101a_b69c_00aa00341d07@@3U__s_GUID@@B@ATL@@QEAA@XZ 0000000180008200 f i CAT.obj
 0001:00007220       ??1?$CSimpleMap@PEA_WPEA_WVCExpansionVectorEqualHelper@ATL@@@ATL@@QEAA@XZ 0000000180008220 f i CAT.obj
 0001:00007240       ??1?$CTempBuffer@E$0BAA@VCCRTAllocator@ATL@@@ATL@@QEAA@XZ 0000000180008240 f i CAT.obj
 0001:00007270       ??1?$CTempBuffer@_W$0BAA@VCCRTAllocator@ATL@@@ATL@@QEAA@XZ 0000000180008270 f i CAT.obj
 0001:000072a0       ??1?$CTempBuffer@_W$0EAA@VCCRTAllocator@ATL@@@ATL@@QEAA@XZ 00000001800082a0 f i CAT.obj
 0001:000072d0       ??1CAtlModule@ATL@@UEAA@XZ 00000001800082d0 f i CAT.obj
 0001:00007300       ??1CComAutoDeleteCriticalSection@ATL@@QEAA@XZ 0000000180008300 f i CAT.obj
 0001:00007320       ??1CComClassFactory@ATL@@UEAA@XZ 0000000180008320 f i CAT.obj
 0001:00007350       ??1CComModule@ATL@@UEAA@XZ 0000000180008350 f i CAT.obj
 0001:00007380       ??1CComObjectRootBase@ATL@@QEAA@XZ 0000000180008380 f i CAT.obj
 0001:00007390       ??1CComSafeDeleteCriticalSection@ATL@@QEAA@XZ 0000000180008390 f i CAT.obj
 0001:000073d0       ??1CComVariant@ATL@@QEAA@XZ 00000001800083d0 f i CAT.obj
 0001:00007430       ??1CExpansionVector@ATL@@QEAA@XZ 0000000180008430 f i CAT.obj
 0001:00007460       ??1CParseBuffer@CRegParser@ATL@@QEAA@XZ 0000000180008460 f i CAT.obj
 0001:00007480       ??1CRegKey@ATL@@QEAA@XZ    0000000180008480 f i CAT.obj
 0001:000074a0       ??1CRegObject@ATL@@UEAA@XZ 00000001800084a0 f i CAT.obj
 0001:000074e0       ??1ModuleLockHelper@ATL@@QEAA@XZ 00000001800084e0 f i CAT.obj
 0001:00007510       ??1OposVariant@@QEAA@XZ    0000000180008510 f i CAT.obj
 0001:00007540       ??1_ATL_MODULE70@ATL@@QEAA@XZ 0000000180008540 f i CAT.obj
 0001:00007570       ??4?$CComPtr@UIAdviseSink@@@ATL@@QEAAPEAUIAdviseSink@@PEAU2@@Z 0000000180008570 f i CAT.obj
 0001:000075d0       ??4?$CComPtr@UIOleClientSite@@@ATL@@QEAAPEAUIOleClientSite@@PEAU2@@Z 00000001800085d0 f i CAT.obj
 0001:00007630       ??4?$CComPtr@UIUnknown@@@ATL@@QEAAPEAUIUnknown@@PEAU2@@Z 0000000180008630 f i CAT.obj
 0001:00007690       ??4?$CComQIPtr@UIOleObject@@$1?_GUID_00000112_0000_0000_c000_000000000046@@3U__s_GUID@@B@ATL@@QEAAPEAUIOleObject@@PEAUIUnknown@@@Z 0000000180008690 f i CAT.obj
 0001:000076e0       ??4?$CComQIPtr@UISpecifyPropertyPages@@$1?_GUID_b196b28b_bab4_101a_b69c_00aa00341d07@@3U__s_GUID@@B@ATL@@QEAAPEAUISpecifyPropertyPages@@PEAUIUnknown@@@Z 00000001800086e0 f i CAT.obj
 0001:00007730       ??7?$CComPtrBase@UIOleClientSite@@@ATL@@QEBA_NXZ 0000000180008730 f i CAT.obj
 0001:00007760       ??7?$CComPtrBase@UIOleInPlaceSiteWindowless@@@ATL@@QEBA_NXZ 0000000180008760 f i CAT.obj
 0001:00007790       ??7CComBSTR@ATL@@QEBA_NXZ  0000000180008790 f i CAT.obj
 0001:000077c0       ??8?$CComPtrBase@UIConnectionPointContainer@@@ATL@@QEBA_NPEAUIConnectionPointContainer@@@Z 00000001800087c0 f i CAT.obj
 0001:00007800       ??8?$CComPtrBase@UIDataAdviseHolder@@@ATL@@QEBA_NPEAUIDataAdviseHolder@@@Z 0000000180008800 f i CAT.obj
 0001:00007840       ??8?$CComPtrBase@UIOleAdviseHolder@@@ATL@@QEBA_NPEAUIOleAdviseHolder@@@Z 0000000180008840 f i CAT.obj
 0001:00007880       ??8?$CComPtrBase@UIOleClientSite@@@ATL@@QEBA_NPEAUIOleClientSite@@@Z 0000000180008880 f i CAT.obj
 0001:000078c0       ??8?$CComPtrBase@UIOleControlSite@@@ATL@@QEBA_NPEAUIOleControlSite@@@Z 00000001800088c0 f i CAT.obj
 0001:00007900       ??8?$CComPtrBase@UIOleInPlaceObject@@@ATL@@QEBA_NPEAUIOleInPlaceObject@@@Z 0000000180008900 f i CAT.obj
 0001:00007940       ??8?$CComPtrBase@UIOleInPlaceSiteWindowless@@@ATL@@QEBA_NPEAUIOleInPlaceSiteWindowless@@@Z 0000000180008940 f i CAT.obj
 0001:00007980       ??8?$CComPtrBase@UIOleObject@@@ATL@@QEBA_NPEAUIOleObject@@@Z 0000000180008980 f i CAT.obj
 0001:000079c0       ??8?$CComPtrBase@UIPersistStream@@@ATL@@QEBA_NPEAUIPersistStream@@@Z 00000001800089c0 f i CAT.obj
 0001:00007a00       ??8?$CComPtrBase@UIPersistStreamInit@@@ATL@@QEBA_NPEAUIPersistStreamInit@@@Z 0000000180008a00 f i CAT.obj
 0001:00007a40       ??8?$CComPtrBase@UIPointerInactive@@@ATL@@QEBA_NPEAUIPointerInactive@@@Z 0000000180008a40 f i CAT.obj
 0001:00007a80       ??8?$CComPtrBase@UIUnknown@@@ATL@@QEBA_NPEAUIUnknown@@@Z 0000000180008a80 f i CAT.obj
 0001:00007ac0       ??8?$CComPtrBase@UIViewObjectEx@@@ATL@@QEBA_NPEAUIViewObjectEx@@@Z 0000000180008ac0 f i CAT.obj
 0001:00007b00       ??8CComBSTR@ATL@@QEBA_NH@Z 0000000180008b00 f i CAT.obj
 0001:00007b60       ??9?$CComPtrBase@UIConnectionPointContainer@@@ATL@@QEBA_NPEAUIConnectionPointContainer@@@Z 0000000180008b60 f i CAT.obj
 0001:00007bb0       ??9?$CComPtrBase@UIDataAdviseHolder@@@ATL@@QEBA_NPEAUIDataAdviseHolder@@@Z 0000000180008bb0 f i CAT.obj
 0001:00007c00       ??9?$CComPtrBase@UIOleAdviseHolder@@@ATL@@QEBA_NPEAUIOleAdviseHolder@@@Z 0000000180008c00 f i CAT.obj
 0001:00007c50       ??9?$CComPtrBase@UIOleClientSite@@@ATL@@QEBA_NPEAUIOleClientSite@@@Z 0000000180008c50 f i CAT.obj
 0001:00007ca0       ??9?$CComPtrBase@UIOleControlSite@@@ATL@@QEBA_NPEAUIOleControlSite@@@Z 0000000180008ca0 f i CAT.obj
 0001:00007cf0       ??9?$CComPtrBase@UIOleInPlaceObject@@@ATL@@QEBA_NPEAUIOleInPlaceObject@@@Z 0000000180008cf0 f i CAT.obj
 0001:00007d40       ??9?$CComPtrBase@UIOleInPlaceSiteWindowless@@@ATL@@QEBA_NPEAUIOleInPlaceSiteWindowless@@@Z 0000000180008d40 f i CAT.obj
 0001:00007d90       ??9?$CComPtrBase@UIOleObject@@@ATL@@QEBA_NPEAUIOleObject@@@Z 0000000180008d90 f i CAT.obj
 0001:00007de0       ??9?$CComPtrBase@UIPersistStream@@@ATL@@QEBA_NPEAUIPersistStream@@@Z 0000000180008de0 f i CAT.obj
 0001:00007e30       ??9?$CComPtrBase@UIPersistStreamInit@@@ATL@@QEBA_NPEAUIPersistStreamInit@@@Z 0000000180008e30 f i CAT.obj
 0001:00007e80       ??9?$CComPtrBase@UIPointerInactive@@@ATL@@QEBA_NPEAUIPointerInactive@@@Z 0000000180008e80 f i CAT.obj
 0001:00007ed0       ??9?$CComPtrBase@UIUnknown@@@ATL@@QEBA_NPEAUIUnknown@@@Z 0000000180008ed0 f i CAT.obj
 0001:00007f20       ??9?$CComPtrBase@UIViewObjectEx@@@ATL@@QEBA_NPEAUIViewObjectEx@@@Z 0000000180008f20 f i CAT.obj
 0001:00007f70       ??9CComBSTR@ATL@@QEBA_NH@Z 0000000180008f70 f i CAT.obj
 0001:00007fb0       ??B?$CComPtrBase@UIAdviseSink@@@ATL@@QEBAPEAUIAdviseSink@@XZ 0000000180008fb0 f i CAT.obj
 0001:00007fc0       ??B?$CComPtrBase@UIDataAdviseHolder@@@ATL@@QEBAPEAUIDataAdviseHolder@@XZ 0000000180008fc0 f i CAT.obj
 0001:00007fd0       ??B?$CComPtrBase@UIDataObject@@@ATL@@QEBAPEAUIDataObject@@XZ 0000000180008fd0 f i CAT.obj
 0001:00007fe0       ??B?$CComPtrBase@UIOleAdviseHolder@@@ATL@@QEBAPEAUIOleAdviseHolder@@XZ 0000000180008fe0 f i CAT.obj
 0001:00007ff0       ??B?$CComPtrBase@UIOleClientSite@@@ATL@@QEBAPEAUIOleClientSite@@XZ 0000000180008ff0 f i CAT.obj
 0001:00008000       ??B?$CComPtrBase@UIOleControlSite@@@ATL@@QEBAPEAUIOleControlSite@@XZ 0000000180009000 f i CAT.obj
 0001:00008010       ??B?$CComPtrBase@UIOleInPlaceActiveObject@@@ATL@@QEBAPEAUIOleInPlaceActiveObject@@XZ 0000000180009010 f i CAT.obj
 0001:00008020       ??B?$CComPtrBase@UIOleInPlaceFrame@@@ATL@@QEBAPEAUIOleInPlaceFrame@@XZ 0000000180009020 f i CAT.obj
 0001:00008030       ??B?$CComPtrBase@UIOleInPlaceSiteWindowless@@@ATL@@QEBAPEAUIOleInPlaceSiteWindowless@@XZ 0000000180009030 f i CAT.obj
 0001:00008040       ??B?$CComPtrBase@UIOleInPlaceUIWindow@@@ATL@@QEBAPEAUIOleInPlaceUIWindow@@XZ 0000000180009040 f i CAT.obj
 0001:00008050       ??B?$CComPtrBase@UIOleObject@@@ATL@@QEBAPEAUIOleObject@@XZ 0000000180009050 f i CAT.obj
 0001:00008060       ??B?$CComPtrBase@UIPersistStream@@@ATL@@QEBAPEAUIPersistStream@@XZ 0000000180009060 f i CAT.obj
 0001:00008070       ??B?$CComPtrBase@UIProvideClassInfo2@@@ATL@@QEBAPEAUIProvideClassInfo2@@XZ 0000000180009070 f i CAT.obj
 0001:00008080       ??B?$CComPtrBase@UISpecifyPropertyPages@@@ATL@@QEBAPEAUISpecifyPropertyPages@@XZ 0000000180009080 f i CAT.obj
 0001:00008090       ??B?$CComPtrBase@UIStream@@@ATL@@QEBAPEAUIStream@@XZ 0000000180009090 f i CAT.obj
 0001:000080a0       ??B?$CComPtrBase@UITypeInfo2@@@ATL@@QEBAPEAUITypeInfo2@@XZ 00000001800090a0 f i CAT.obj
 0001:000080b0       ??B?$CComPtrBase@UITypeInfo@@@ATL@@QEBAPEAUITypeInfo@@XZ 00000001800090b0 f i CAT.obj
 0001:000080c0       ??B?$CComPtrBase@UITypeLib@@@ATL@@QEBAPEAUITypeLib@@XZ 00000001800090c0 f i CAT.obj
 0001:000080d0       ??B?$CComPtrBase@UIUnknown@@@ATL@@QEBAPEAUIUnknown@@XZ 00000001800090d0 f i CAT.obj
 0001:000080e0       ??B?$CTempBuffer@E$0BAA@VCCRTAllocator@ATL@@@ATL@@QEBAPEAEXZ 00000001800090e0 f i CAT.obj
 0001:000080f0       ??B?$CTempBuffer@_W$0BAA@VCCRTAllocator@ATL@@@ATL@@QEBAPEA_WXZ 00000001800090f0 f i CAT.obj
 0001:00008100       ??B?$CTempBuffer@_W$0EAA@VCCRTAllocator@ATL@@@ATL@@QEBAPEA_WXZ 0000000180009100 f i CAT.obj
 0001:00008110       ??B?$CTraceCategoryEx@$00$0A@@ATL@@QEAAIXZ 0000000180009110 f i CAT.obj
 0001:00008120       ??B?$CTraceCategoryEx@$07$0A@@ATL@@QEAAIXZ 0000000180009120 f i CAT.obj
 0001:00008130       ??B?$CTraceCategoryEx@$0CAAA@$0A@@ATL@@QEAAIXZ 0000000180009130 f i CAT.obj
 0001:00008140       ??B?$CTraceCategoryEx@$0EA@$0A@@ATL@@QEAAIXZ 0000000180009140 f i CAT.obj
 0001:00008150       ??B?$CTraceCategoryEx@$0IAA@$0A@@ATL@@QEAAIXZ 0000000180009150 f i CAT.obj
 0001:00008160       ??BCComBSTR@ATL@@QEBAPEA_WXZ 0000000180009160 f i CAT.obj
 0001:00008170       ??BCRegKey@ATL@@QEBAPEAUHKEY__@@XZ 0000000180009170 f i CAT.obj
 0001:00008180       ??C?$CComPtrBase@UIAdviseSink@@@ATL@@QEBAPEAV?$_NoAddRefReleaseOnCComPtr@UIAdviseSink@@@1@XZ 0000000180009180 f i CAT.obj
 0001:000081e0       ??C?$CComPtrBase@UICatRegister@@@ATL@@QEBAPEAV?$_NoAddRefReleaseOnCComPtr@UICatRegister@@@1@XZ 00000001800091e0 f i CAT.obj
 0001:00008240       ??C?$CComPtrBase@UIConnectionPoint@@@ATL@@QEBAPEAV?$_NoAddRefReleaseOnCComPtr@UIConnectionPoint@@@1@XZ 0000000180009240 f i CAT.obj
 0001:000082a0       ??C?$CComPtrBase@UIConnectionPointContainer@@@ATL@@QEBAPEAV?$_NoAddRefReleaseOnCComPtr@UIConnectionPointContainer@@@1@XZ 00000001800092a0 f i CAT.obj
 0001:00008300       ??C?$CComPtrBase@UIDataAdviseHolder@@@ATL@@QEBAPEAV?$_NoAddRefReleaseOnCComPtr@UIDataAdviseHolder@@@1@XZ 0000000180009300 f i CAT.obj
 0001:00008360       ??C?$CComPtrBase@UIOleAdviseHolder@@@ATL@@QEBAPEAV?$_NoAddRefReleaseOnCComPtr@UIOleAdviseHolder@@@1@XZ 0000000180009360 f i CAT.obj
 0001:000083c0       ??C?$CComPtrBase@UIOleClientSite@@@ATL@@QEBAPEAV?$_NoAddRefReleaseOnCComPtr@UIOleClientSite@@@1@XZ 00000001800093c0 f i CAT.obj
 0001:00008420       ??C?$CComPtrBase@UIOleControlSite@@@ATL@@QEBAPEAV?$_NoAddRefReleaseOnCComPtr@UIOleControlSite@@@1@XZ 0000000180009420 f i CAT.obj
 0001:00008480       ??C?$CComPtrBase@UIOleInPlaceFrame@@@ATL@@QEBAPEAV?$_NoAddRefReleaseOnCComPtr@UIOleInPlaceFrame@@@1@XZ 0000000180009480 f i CAT.obj
 0001:000084e0       ??C?$CComPtrBase@UIOleInPlaceObject@@@ATL@@QEBAPEAV?$_NoAddRefReleaseOnCComPtr@UIOleInPlaceObject@@@1@XZ 00000001800094e0 f i CAT.obj
 0001:00008540       ??C?$CComPtrBase@UIOleInPlaceSiteWindowless@@@ATL@@QEBAPEAV?$_NoAddRefReleaseOnCComPtr@UIOleInPlaceSiteWindowless@@@1@XZ 0000000180009540 f i CAT.obj
 0001:000085a0       ??C?$CComPtrBase@UIOleInPlaceUIWindow@@@ATL@@QEBAPEAV?$_NoAddRefReleaseOnCComPtr@UIOleInPlaceUIWindow@@@1@XZ 00000001800095a0 f i CAT.obj
 0001:00008600       ??C?$CComPtrBase@UIOleObject@@@ATL@@QEBAPEAV?$_NoAddRefReleaseOnCComPtr@UIOleObject@@@1@XZ 0000000180009600 f i CAT.obj
 0001:00008660       ??C?$CComPtrBase@UIPersistStream@@@ATL@@QEBAPEAV?$_NoAddRefReleaseOnCComPtr@UIPersistStream@@@1@XZ 0000000180009660 f i CAT.obj
 0001:000086c0       ??C?$CComPtrBase@UIPersistStreamInit@@@ATL@@QEBAPEAV?$_NoAddRefReleaseOnCComPtr@UIPersistStreamInit@@@1@XZ 00000001800096c0 f i CAT.obj
 0001:00008720       ??C?$CComPtrBase@UIPointerInactive@@@ATL@@QEBAPEAV?$_NoAddRefReleaseOnCComPtr@UIPointerInactive@@@1@XZ 0000000180009720 f i CAT.obj
 0001:00008780       ??C?$CComPtrBase@UIProvideClassInfo2@@@ATL@@QEBAPEAV?$_NoAddRefReleaseOnCComPtr@UIProvideClassInfo2@@@1@XZ 0000000180009780 f i CAT.obj
 0001:000087e0       ??C?$CComPtrBase@UISpecifyPropertyPages@@@ATL@@QEBAPEAV?$_NoAddRefReleaseOnCComPtr@UISpecifyPropertyPages@@@1@XZ 00000001800097e0 f i CAT.obj
 0001:00008840       ??C?$CComPtrBase@UITypeInfo@@@ATL@@QEBAPEAV?$_NoAddRefReleaseOnCComPtr@UITypeInfo@@@1@XZ 0000000180009840 f i CAT.obj
 0001:000088a0       ??C?$CComPtrBase@UITypeLib@@@ATL@@QEBAPEAV?$_NoAddRefReleaseOnCComPtr@UITypeLib@@@1@XZ 00000001800098a0 f i CAT.obj
 0001:00008900       ??C?$CComPtrBase@UIUnknown@@@ATL@@QEBAPEAV?$_NoAddRefReleaseOnCComPtr@UIUnknown@@@1@XZ 0000000180009900 f i CAT.obj
 0001:00008960       ??C?$CComPtrBase@UIViewObjectEx@@@ATL@@QEBAPEAV?$_NoAddRefReleaseOnCComPtr@UIViewObjectEx@@@1@XZ 0000000180009960 f i CAT.obj
 0001:000089c0       ??I?$CComPtrBase@UICatRegister@@@ATL@@QEAAPEAPEAUICatRegister@@XZ 00000001800099c0 f i CAT.obj
 0001:00008a20       ??I?$CComPtrBase@UIConnectionPoint@@@ATL@@QEAAPEAPEAUIConnectionPoint@@XZ 0000000180009a20 f i CAT.obj
 0001:00008a80       ??I?$CComPtrBase@UIConnectionPointContainer@@@ATL@@QEAAPEAPEAUIConnectionPointContainer@@XZ 0000000180009a80 f i CAT.obj
 0001:00008ae0       ??I?$CComPtrBase@UIDataAdviseHolder@@@ATL@@QEAAPEAPEAUIDataAdviseHolder@@XZ 0000000180009ae0 f i CAT.obj
 0001:00008b40       ??I?$CComPtrBase@UIDataObject@@@ATL@@QEAAPEAPEAUIDataObject@@XZ 0000000180009b40 f i CAT.obj
 0001:00008ba0       ??I?$CComPtrBase@UIDispatch@@@ATL@@QEAAPEAPEAUIDispatch@@XZ 0000000180009ba0 f i CAT.obj
 0001:00008c00       ??I?$CComPtrBase@UIOleAdviseHolder@@@ATL@@QEAAPEAPEAUIOleAdviseHolder@@XZ 0000000180009c00 f i CAT.obj
 0001:00008c60       ??I?$CComPtrBase@UIOleControlSite@@@ATL@@QEAAPEAPEAUIOleControlSite@@XZ 0000000180009c60 f i CAT.obj
 0001:00008cc0       ??I?$CComPtrBase@UIOleInPlaceActiveObject@@@ATL@@QEAAPEAPEAUIOleInPlaceActiveObject@@XZ 0000000180009cc0 f i CAT.obj
 0001:00008d20       ??I?$CComPtrBase@UIOleInPlaceFrame@@@ATL@@QEAAPEAPEAUIOleInPlaceFrame@@XZ 0000000180009d20 f i CAT.obj
 0001:00008d80       ??I?$CComPtrBase@UIOleInPlaceObject@@@ATL@@QEAAPEAPEAUIOleInPlaceObject@@XZ 0000000180009d80 f i CAT.obj
 0001:00008de0       ??I?$CComPtrBase@UIOleInPlaceSiteWindowless@@@ATL@@QEAAPEAPEAUIOleInPlaceSiteWindowless@@XZ 0000000180009de0 f i CAT.obj
 0001:00008e40       ??I?$CComPtrBase@UIOleInPlaceUIWindow@@@ATL@@QEAAPEAPEAUIOleInPlaceUIWindow@@XZ 0000000180009e40 f i CAT.obj
 0001:00008ea0       ??I?$CComPtrBase@UIOleObject@@@ATL@@QEAAPEAPEAUIOleObject@@XZ 0000000180009ea0 f i CAT.obj
 0001:00008f00       ??I?$CComPtrBase@UIPersistStream@@@ATL@@QEAAPEAPEAUIPersistStream@@XZ 0000000180009f00 f i CAT.obj
 0001:00008f60       ??I?$CComPtrBase@UIPointerInactive@@@ATL@@QEAAPEAPEAUIPointerInactive@@XZ 0000000180009f60 f i CAT.obj
 0001:00008fc0       ??I?$CComPtrBase@UIProvideClassInfo2@@@ATL@@QEAAPEAPEAUIProvideClassInfo2@@XZ 0000000180009fc0 f i CAT.obj
 0001:00009020       ??I?$CComPtrBase@UIStream@@@ATL@@QEAAPEAPEAUIStream@@XZ 000000018000a020 f i CAT.obj
 0001:00009080       ??I?$CComPtrBase@UITypeInfo2@@@ATL@@QEAAPEAPEAUITypeInfo2@@XZ 000000018000a080 f i CAT.obj
 0001:000090e0       ??I?$CComPtrBase@UITypeInfo@@@ATL@@QEAAPEAPEAUITypeInfo@@XZ 000000018000a0e0 f i CAT.obj
 0001:00009140       ??I?$CComPtrBase@UITypeLib@@@ATL@@QEAAPEAPEAUITypeLib@@XZ 000000018000a140 f i CAT.obj
 0001:000091a0       ??I?$CComPtrBase@UIUnknown@@@ATL@@QEAAPEAPEAUIUnknown@@XZ 000000018000a1a0 f i CAT.obj
 0001:00009200       ??I?$CComPtrBase@UIViewObjectEx@@@ATL@@QEAAPEAPEAUIViewObjectEx@@XZ 000000018000a200 f i CAT.obj
 0001:00009260       ??ICComBSTR@ATL@@QEAAPEAPEA_WXZ 000000018000a260 f i CAT.obj
 0001:00009270       ??_E?$CComContainedObject@VCOPOSCAT@@@ATL@@W7EAAPEAXI@Z 000000018000a270 f i CAT.obj
 0001:0000927c       ??_E?$CComContainedObject@VCOPOSCAT@@@ATL@@WHA@EAAPEAXI@Z 000000018000a27c f i CAT.obj
 0001:00009288       ??_E?$CComObject@VCOPOSCAT@@@ATL@@W7EAAPEAXI@Z 000000018000a288 f i CAT.obj
 0001:00009294       ??_E?$CComObject@VCOPOSCAT@@@ATL@@WHA@EAAPEAXI@Z 000000018000a294 f i CAT.obj
 0001:000092a0       ??_G?$CComAggObject@VCOPOSCAT@@@ATL@@UEAAPEAXI@Z 000000018000a2a0 f i CAT.obj
 0001:000092a0       ??_E?$CComAggObject@VCOPOSCAT@@@ATL@@UEAAPEAXI@Z 000000018000a2a0 f i CAT.obj
 0001:000092e0       ??_E?$CComContainedObject@VCOPOSCAT@@@ATL@@UEAAPEAXI@Z 000000018000a2e0 f i CAT.obj
 0001:000092e0       ??_G?$CComContainedObject@VCOPOSCAT@@@ATL@@UEAAPEAXI@Z 000000018000a2e0 f i CAT.obj
 0001:00009320       ??_G?$CComObject@V?$CComEnum@UIEnumConnectionPoints@@$1?_GUID_b196b285_bab4_101a_b69c_00aa00341d07@@3U__s_GUID@@BPEAUIConnectionPoint@@V?$_CopyInterface@UIConnectionPoint@@@ATL@@VCComSingleThreadModel@6@@ATL@@@ATL@@UEAAPEAXI@Z 000000018000a320 f i CAT.obj
 0001:00009320       ??_E?$CComObject@V?$CComEnum@UIEnumConnectionPoints@@$1?_GUID_b196b285_bab4_101a_b69c_00aa00341d07@@3U__s_GUID@@BPEAUIConnectionPoint@@V?$_CopyInterface@UIConnectionPoint@@@ATL@@VCComSingleThreadModel@6@@ATL@@@ATL@@UEAAPEAXI@Z 000000018000a320 f i CAT.obj
 0001:00009360       ??_G?$CComObject@V?$CComEnum@UIEnumConnections@@$1?_GUID_b196b287_bab4_101a_b69c_00aa00341d07@@3U__s_GUID@@BUtagCONNECTDATA@@V?$_Copy@UtagCONNECTDATA@@@ATL@@VCComSingleThreadModel@6@@ATL@@@ATL@@UEAAPEAXI@Z 000000018000a360 f i CAT.obj
 0001:00009360       ??_E?$CComObject@V?$CComEnum@UIEnumConnections@@$1?_GUID_b196b287_bab4_101a_b69c_00aa00341d07@@3U__s_GUID@@BUtagCONNECTDATA@@V?$_Copy@UtagCONNECTDATA@@@ATL@@VCComSingleThreadModel@6@@ATL@@@ATL@@UEAAPEAXI@Z 000000018000a360 f i CAT.obj
 0001:000093a0       ??_G?$CComObject@VCOPOSCAT@@@ATL@@UEAAPEAXI@Z 000000018000a3a0 f i CAT.obj
 0001:000093a0       ??_E?$CComObject@VCOPOSCAT@@@ATL@@UEAAPEAXI@Z 000000018000a3a0 f i CAT.obj
 0001:000093e0       ??_E?$CComObjectCached@VCComClassFactory@ATL@@@ATL@@UEAAPEAXI@Z 000000018000a3e0 f i CAT.obj
 0001:000093e0       ??_G?$CComObjectCached@VCComClassFactory@ATL@@@ATL@@UEAAPEAXI@Z 000000018000a3e0 f i CAT.obj
 0001:00009420       ??_GCComClassFactory@ATL@@UEAAPEAXI@Z 000000018000a420 f i CAT.obj
 0001:00009420       ??_ECComClassFactory@ATL@@UEAAPEAXI@Z 000000018000a420 f i CAT.obj
 0001:00009460       ??_GCComModule@ATL@@UEAAPEAXI@Z 000000018000a460 f i CAT.obj
 0001:00009460       ??_ECComModule@ATL@@UEAAPEAXI@Z 000000018000a460 f i CAT.obj
 0001:000094a0       ??_GCRegObject@ATL@@UEAAPEAXI@Z 000000018000a4a0 f i CAT.obj
 0001:000094a0       ??_ECRegObject@ATL@@UEAAPEAXI@Z 000000018000a4a0 f i CAT.obj
 0001:000094e0       ?Add@?$CSimpleArray@GV?$CSimpleArrayEqualHelper@G@ATL@@@ATL@@QEAAHAEBG@Z 000000018000a4e0 f i CAT.obj
 0001:00009670       ?Add@?$CSimpleMap@PEA_WPEA_WVCExpansionVectorEqualHelper@ATL@@@ATL@@QEAAHAEBQEA_W0@Z 000000018000a670 f i CAT.obj
 0001:00009750       ?Add@CComDynamicUnkArray@ATL@@QEAAKPEAUIUnknown@@@Z 000000018000a750 f i CAT.obj
 0001:00009930       ?Add@CExpansionVector@ATL@@QEAAHPEB_W0@Z 000000018000a930 f i CAT.obj
 0001:00009c70       ?AddChar@CParseBuffer@CRegParser@ATL@@QEAAHPEB_W@Z 000000018000ac70 f i CAT.obj
 0001:00009cb0       ?AddCommonRGSReplacements@?$CAtlModuleT@VCComModule@ATL@@@ATL@@UEAAJPEAUIRegistrarBase@@@Z 000000018000acb0 f i CAT.obj
 0001:00009cf0       ?AddCreateWndData@CAtlWinModule@ATL@@QEAAXPEAU_AtlCreateWndData@2@PEAX@Z 000000018000acf0 f i CAT.obj
 0001:00009d20       ?AddRef@?$CComAggObject@VCOPOSCAT@@@ATL@@UEAAKXZ 000000018000ad20 f i CAT.obj
 0001:00009d50       ?AddRef@?$CComContainedObject@VCOPOSCAT@@@ATL@@UEAAKXZ 000000018000ad50 f i CAT.obj
 0001:00009d74       ?AddRef@?$CComContainedObject@VCOPOSCAT@@@ATL@@WBAA@EAAKXZ 000000018000ad74 f i CAT.obj
 0001:00009d80       ?AddRef@?$CComContainedObject@VCOPOSCAT@@@ATL@@WBAI@EAAKXZ 000000018000ad80 f i CAT.obj
 0001:00009d8c       ?AddRef@?$CComContainedObject@VCOPOSCAT@@@ATL@@WBBA@EAAKXZ 000000018000ad8c f i CAT.obj
 0001:00009d98       ?AddRef@?$CComContainedObject@VCOPOSCAT@@@ATL@@WBBI@EAAKXZ 000000018000ad98 f i CAT.obj
 0001:00009da4       ?AddRef@?$CComContainedObject@VCOPOSCAT@@@ATL@@WBCI@EAAKXZ 000000018000ada4 f i CAT.obj
 0001:00009db0       ?AddRef@?$CComContainedObject@VCOPOSCAT@@@ATL@@WBEA@EAAKXZ 000000018000adb0 f i CAT.obj
 0001:00009dbc       ?AddRef@?$CComContainedObject@VCOPOSCAT@@@ATL@@WLI@EAAKXZ 000000018000adbc f i CAT.obj
 0001:00009dc8       ?AddRef@?$CComContainedObject@VCOPOSCAT@@@ATL@@WMA@EAAKXZ 000000018000adc8 f i CAT.obj
 0001:00009dd4       ?AddRef@?$CComContainedObject@VCOPOSCAT@@@ATL@@WMI@EAAKXZ 000000018000add4 f i CAT.obj
 0001:00009de0       ?AddRef@?$CComContainedObject@VCOPOSCAT@@@ATL@@WNA@EAAKXZ 000000018000ade0 f i CAT.obj
 0001:00009dec       ?AddRef@?$CComContainedObject@VCOPOSCAT@@@ATL@@WNI@EAAKXZ 000000018000adec f i CAT.obj
 0001:00009df8       ?AddRef@?$CComContainedObject@VCOPOSCAT@@@ATL@@WOA@EAAKXZ 000000018000adf8 f i CAT.obj
 0001:00009e04       ?AddRef@?$CComContainedObject@VCOPOSCAT@@@ATL@@WOI@EAAKXZ 000000018000ae04 f i CAT.obj
 0001:00009e10       ?AddRef@?$CComContainedObject@VCOPOSCAT@@@ATL@@WPA@EAAKXZ 000000018000ae10 f i CAT.obj
 0001:00009e1c       ?AddRef@?$CComContainedObject@VCOPOSCAT@@@ATL@@WPI@EAAKXZ 000000018000ae1c f i CAT.obj
 0001:00009e30       ?AddRef@?$CComObject@V?$CComEnum@UIEnumConnectionPoints@@$1?_GUID_b196b285_bab4_101a_b69c_00aa00341d07@@3U__s_GUID@@BPEAUIConnectionPoint@@V?$_CopyInterface@UIConnectionPoint@@@ATL@@VCComSingleThreadModel@6@@ATL@@@ATL@@UEAAKXZ 000000018000ae30 f i CAT.obj
 0001:00009e60       ?AddRef@?$CComObject@V?$CComEnum@UIEnumConnections@@$1?_GUID_b196b287_bab4_101a_b69c_00aa00341d07@@3U__s_GUID@@BUtagCONNECTDATA@@V?$_Copy@UtagCONNECTDATA@@@ATL@@VCComSingleThreadModel@6@@ATL@@@ATL@@UEAAKXZ 000000018000ae60 f i CAT.obj
 0001:00009e90       ?AddRef@?$CComObject@VCOPOSCAT@@@ATL@@UEAAKXZ 000000018000ae90 f i CAT.obj
 0001:00009eb4       ?AddRef@?$CComObject@VCOPOSCAT@@@ATL@@WBAA@EAAKXZ 000000018000aeb4 f i CAT.obj
 0001:00009ec0       ?AddRef@?$CComObject@VCOPOSCAT@@@ATL@@WBAI@EAAKXZ 000000018000aec0 f i CAT.obj
 0001:00009ecc       ?AddRef@?$CComObject@VCOPOSCAT@@@ATL@@WBBA@EAAKXZ 000000018000aecc f i CAT.obj
 0001:00009ed8       ?AddRef@?$CComObject@VCOPOSCAT@@@ATL@@WBBI@EAAKXZ 000000018000aed8 f i CAT.obj
 0001:00009ee4       ?AddRef@?$CComObject@VCOPOSCAT@@@ATL@@WBCI@EAAKXZ 000000018000aee4 f i CAT.obj
 0001:00009ef0       ?AddRef@?$CComObject@VCOPOSCAT@@@ATL@@WBEA@EAAKXZ 000000018000aef0 f i CAT.obj
 0001:00009efc       ?AddRef@?$CComObject@VCOPOSCAT@@@ATL@@WLI@EAAKXZ 000000018000aefc f i CAT.obj
 0001:00009f08       ?AddRef@?$CComObject@VCOPOSCAT@@@ATL@@WMA@EAAKXZ 000000018000af08 f i CAT.obj
 0001:00009f14       ?AddRef@?$CComObject@VCOPOSCAT@@@ATL@@WMI@EAAKXZ 000000018000af14 f i CAT.obj
 0001:00009f20       ?AddRef@?$CComObject@VCOPOSCAT@@@ATL@@WNA@EAAKXZ 000000018000af20 f i CAT.obj
 0001:00009f2c       ?AddRef@?$CComObject@VCOPOSCAT@@@ATL@@WNI@EAAKXZ 000000018000af2c f i CAT.obj
 0001:00009f38       ?AddRef@?$CComObject@VCOPOSCAT@@@ATL@@WOA@EAAKXZ 000000018000af38 f i CAT.obj
 0001:00009f44       ?AddRef@?$CComObject@VCOPOSCAT@@@ATL@@WOI@EAAKXZ 000000018000af44 f i CAT.obj
 0001:00009f50       ?AddRef@?$CComObject@VCOPOSCAT@@@ATL@@WPA@EAAKXZ 000000018000af50 f i CAT.obj
 0001:00009f5c       ?AddRef@?$CComObject@VCOPOSCAT@@@ATL@@WPI@EAAKXZ 000000018000af5c f i CAT.obj
 0001:00009f70       ?AddRef@?$CComObjectCached@VCComClassFactory@ATL@@@ATL@@UEAAKXZ 000000018000af70 f i CAT.obj
 0001:00009fc0       ?AddRef@CRegObject@ATL@@UEAAKXZ 000000018000afc0 f i CAT.obj
 0001:0000a020       ?AddReplacement@CRegObject@ATL@@UEAAJPEB_W0@Z 000000018000b020 f i CAT.obj
 0001:0000a150       ?AddString@CParseBuffer@CRegParser@ATL@@QEAAHPEB_W@Z 000000018000b150 f i CAT.obj
 0001:0000a240       ?AddTermFunc@CAtlModule@ATL@@QEAAJP6AX_K@Z0@Z 000000018000b240 f i CAT.obj
 0001:0000a290       ?AddValue@CRegParser@ATL@@IEAAJAEAVCRegKey@2@PEB_WPEA_W@Z 000000018000b290 f i CAT.obj
 0001:0000ab60       ?Advise@?$CProxy_IOPOSEvents@VCOPOSCAT@@@@UEAAJPEAUIUnknown@@PEAK@Z 000000018000bb60 f i CAT.obj
 0001:0000abc0       ?Advise@?$IConnectionPointImpl@VCOPOSCAT@@$1?DIID__IOPOSCATEvents@@3U_GUID@@BVCComDynamicUnkArray@ATL@@@ATL@@UEAAJPEAUIUnknown@@PEAK@Z 000000018000bbc0 f i CAT.obj
 0001:0000adc0       ?Advise@?$IConnectionPointImpl@VCOPOSCAT@@$1?IID_IPropertyNotifySink@@3U_GUID@@BVCComDynamicUnkArray@ATL@@@ATL@@UEAAJPEAUIUnknown@@PEAK@Z 000000018000bdc0 f i CAT.obj
 0001:0000afc0       ?Advise@?$IOleObjectImpl@VCOPOSCAT@@@ATL@@UEAAJPEAUIAdviseSink@@PEAK@Z 000000018000bfc0 f i CAT.obj
 0001:0000b070       ?Allocate@?$CAtlSafeAllocBufferManager@VCCRTAllocator@ATL@@@_ATL_SAFE_ALLOCA_IMPL@ATL@@QEAAPEAX_K@Z 000000018000c070 f i CAT.obj
 0001:0000b0e0       ?Allocate@?$CTempBuffer@E$0BAA@VCCRTAllocator@ATL@@@ATL@@QEAAPEAE_K@Z 000000018000c0e0 f i CAT.obj
 0001:0000b120       ?Allocate@?$CTempBuffer@_W$0BAA@VCCRTAllocator@ATL@@@ATL@@QEAAPEA_W_K@Z 000000018000c120 f i CAT.obj
 0001:0000b160       ?Allocate@?$CTempBuffer@_W$0EAA@VCCRTAllocator@ATL@@@ATL@@QEAAPEA_W_K@Z 000000018000c160 f i CAT.obj
 0001:0000b1a0       ?AllocateBytes@?$CTempBuffer@E$0BAA@VCCRTAllocator@ATL@@@ATL@@QEAAPEAE_K@Z 000000018000c1a0 f i CAT.obj
 0001:0000b230       ?AllocateBytes@?$CTempBuffer@_W$0BAA@VCCRTAllocator@ATL@@@ATL@@QEAAPEA_W_K@Z 000000018000c230 f i CAT.obj
 0001:0000b2c0       ?AllocateBytes@?$CTempBuffer@_W$0EAA@VCCRTAllocator@ATL@@@ATL@@QEAAPEA_W_K@Z 000000018000c2c0 f i CAT.obj
 0001:0000b350       ?AllocateHeap@?$CTempBuffer@E$0BAA@VCCRTAllocator@ATL@@@ATL@@AEAAX_K@Z 000000018000c350 f i CAT.obj
 0001:0000b3a0       ?AllocateHeap@?$CTempBuffer@_W$0BAA@VCCRTAllocator@ATL@@@ATL@@AEAAX_K@Z 000000018000c3a0 f i CAT.obj
 0001:0000b3f0       ?AllocateHeap@?$CTempBuffer@_W$0EAA@VCCRTAllocator@ATL@@@ATL@@AEAAX_K@Z 000000018000c3f0 f i CAT.obj
 0001:0000b440       ?Append@CParseBuffer@CRegParser@ATL@@QEAAHPEB_WH@Z 000000018000c440 f i CAT.obj
 0001:0000b660       ?AtlCallTermFunc@ATL@@YAXPEAU_ATL_MODULE70@1@@Z 000000018000c660 f i CAT.obj
 0001:0000b700       ?AtlCoTaskMemCAlloc@ATL@@YAPEAXKK@Z 000000018000c700 f i CAT.obj
 0001:0000b780       ?AtlCoTaskMemRecalloc@ATL@@YAPEAXPEAXKK@Z 000000018000c780 f i CAT.obj
 0001:0000b800       ?AtlComModuleGetClassObject@ATL@@YAJPEAU_ATL_COM_MODULE70@1@AEBU_GUID@@1PEAPEAX@Z 000000018000c800 f i CAT.obj
 0001:0000bb30       ?AtlComModuleRegisterServer@ATL@@YAJPEAU_ATL_COM_MODULE70@1@HPEBU_GUID@@@Z 000000018000cb30 f i CAT.obj
 0001:0000bd20       ?AtlComModuleUnregisterServer@ATL@@YAJPEAU_ATL_COM_MODULE70@1@HPEBU_GUID@@@Z 000000018000cd20 f i CAT.obj
 0001:0000be70       ?AtlComQIPtrAssign2@ATL@@YAXPEAPEAUIUnknown@@PEAU2@AEBU_GUID@@@Z 000000018000ce70 f i CAT.obj
 0001:0000bee0       ?AtlCreateTargetDC@ATL@@YAPEAUHDC__@@PEAU2@PEAUtagDVTARGETDEVICE@@@Z 000000018000cee0 f i CAT.obj
 0001:0000c110       ?AtlCrtErrorCheck@ATL@@YAHH@Z 000000018000d110 f i CAT.obj
 0001:0000c180       ?AtlGetPerUserRegistration@ATL@@YAJPEA_N@Z 000000018000d180 f i CAT.obj
 0001:0000c1b0       ?AtlHiMetricToPixel@ATL@@YAXPEBUtagSIZE@@PEAU2@@Z 000000018000d1b0 f i CAT.obj
 0001:0000c390       ?AtlHresultFromLastError@ATL@@YAJXZ 000000018000d390 f i CAT.obj
 0001:0000c3b0       ?AtlHresultFromWin32@ATL@@YAJK@Z 000000018000d3b0 f i CAT.obj
 0001:0000c3d0       ?AtlIPersistStreamInit_Load@ATL@@YAJPEAUIStream@@PEBUATL_PROPMAP_ENTRY@1@PEAXPEAUIUnknown@@@Z 000000018000d3d0 f i CAT.obj
 0001:0000ca50       ?AtlIPersistStreamInit_Save@ATL@@YAJPEAUIStream@@HPEBUATL_PROPMAP_ENTRY@1@PEAXPEAUIUnknown@@@Z 000000018000da50 f i CAT.obj
 0001:0000cfe0       ?AtlInternalOleLoadFromStream@ATL@@YAJPEAUIStream@@AEBU_GUID@@PEAPEAXTClassesAllowedInStream@1@K@Z 000000018000dfe0 f i CAT.obj
 0001:0000d320       ?AtlInternalQueryInterface@ATL@@YAJPEAXPEBU_ATL_INTMAP_ENTRY@1@AEBU_GUID@@PEAPEAX@Z 000000018000e320 f i CAT.obj
 0001:0000d5d0       ?AtlLoadTypeLib@ATL@@YAJPEAUHINSTANCE__@@PEB_WPEAPEA_WPEAPEAUITypeLib@@@Z 000000018000e5d0 f i CAT.obj
 0001:0000daa0       ?AtlModuleAddTermFunc@ATL@@YAJPEAU_ATL_MODULE70@1@P6AX_K@Z1@Z 000000018000eaa0 f i CAT.obj
 0001:0000dc70       ?AtlRegisterClassCategoriesHelper@ATL@@YAJAEBU_GUID@@PEBU_ATL_CATMAP_ENTRY@1@H@Z 000000018000ec70 f i CAT.obj
 0001:0000e440       ?AtlRegisterTypeLib@ATL@@YAJPEAUHINSTANCE__@@PEB_W@Z 000000018000f440 f i CAT.obj
 0001:0000e7a0       ?AtlThrowImpl@ATL@@YAXJ@Z  000000018000f7a0 f i CAT.obj
 0001:0000e870       ?AtlUnRegisterTypeLib@ATL@@YAJPEAUHINSTANCE__@@PEB_W@Z 000000018000f870 f i CAT.obj
 0001:0000eaa0       ?AtlWinModuleAddCreateWndData@ATL@@YAXPEAU_ATL_WIN_MODULE70@1@PEAU_AtlCreateWndData@1@PEAX@Z 000000018000faa0 f i CAT.obj
 0001:0000ec90       ?AtlWinModuleExtractCreateWndData@ATL@@YAPEAXPEAU_ATL_WIN_MODULE70@1@@Z 000000018000fc90 f i CAT.obj
 0001:0000ee90       ?AtlWinModuleRegisterClassExW@ATL@@YAGPEAU_ATL_WIN_MODULE70@1@PEBUtagWNDCLASSEXW@@@Z 000000018000fe90 f i CAT.obj
 0001:0000ef60       ?AtlWinModuleRegisterWndClassInfoW@ATL@@YAGPEAU_ATL_WIN_MODULE70@1@PEAU_ATL_BASE_MODULE70@1@PEAU_ATL_WNDCLASSINFOW@1@PEAP6A_JPEAUHWND__@@I_K_J@Z@Z 000000018000ff60 f i CAT.obj
 0001:0000efd0       ?Attach@?$CAutoVectorPtr@_W@ATL@@QEAAXPEA_W@Z 000000018000ffd0 f i CAT.obj
 0001:0000f040       ?Attach@CComBSTR@ATL@@QEAAXPEA_W@Z 0000000180010040 f i CAT.obj
 0001:0000f080       ?Attach@CRegKey@ATL@@QEAAXPEAUHKEY__@@@Z 0000000180010080 f i CAT.obj
 0001:0000f110       ?CanForceRemoveKey@CRegParser@ATL@@IEAAHPEB_W@Z 0000000180010110 f i CAT.obj
 0001:0000f170       ?ChToByte@CRegParser@ATL@@KAE_W@Z 0000000180010170 f i CAT.obj
 0001:0000f310       ?ChangeType@CComVariant@ATL@@QEAAJGPEBUtagVARIANT@@@Z 0000000180010310 f i CAT.obj
 0001:0000f360       ?Cleanup@CComTypeInfoHolder@ATL@@SAX_K@Z 0000000180010360 f i CAT.obj
 0001:0000f440       ?Clear@CComVariant@ATL@@QEAAJXZ 0000000180010440 f i CAT.obj
 0001:0000f460       ?ClearReplacements@CExpansionVector@ATL@@QEAAJXZ 0000000180010460 f i CAT.obj
 0001:0000f4f0       ?ClearReplacements@CRegObject@ATL@@UEAAJXZ 00000001800104f0 f i CAT.obj
 0001:0000f540       ?Clone@?$CComEnumImpl@UIEnumConnectionPoints@@$1?_GUID_b196b285_bab4_101a_b69c_00aa00341d07@@3U__s_GUID@@BPEAUIConnectionPoint@@V?$_CopyInterface@UIConnectionPoint@@@ATL@@@ATL@@UEAAJPEAPEAUIEnumConnectionPoints@@@Z 0000000180010540 f i CAT.obj
 0001:0000f730       ?Clone@?$CComEnumImpl@UIEnumConnections@@$1?_GUID_b196b287_bab4_101a_b69c_00aa00341d07@@3U__s_GUID@@BUtagCONNECTDATA@@V?$_Copy@UtagCONNECTDATA@@@ATL@@@ATL@@UEAAJPEAPEAUIEnumConnections@@@Z 0000000180010730 f i CAT.obj
 0001:0000f920       ?Close@?$IOleObjectImpl@VCOPOSCAT@@@ATL@@UEAAJK@Z 0000000180010920 f i CAT.obj
 0001:0000f9c0       ?Close@CRegKey@ATL@@QEAAJXZ 00000001800109c0 f i CAT.obj
 0001:0000fa20       ?ContextSensitiveHelp@?$IOleInPlaceActiveObjectImpl@VCOPOSCAT@@@ATL@@UEAAJH@Z 0000000180010a20 f i CAT.obj
 0001:0000fa90       ?ContextSensitiveHelp@?$IOleInPlaceObjectWindowlessImpl@VCOPOSCAT@@@ATL@@UEAAJH@Z 0000000180010a90 f i CAT.obj
 0001:0000fb00       ?ControlQueryInterface@?$CComControl@VCOPOSCAT@@V?$CWindowImpl@VCOPOSCAT@@VCWindow@ATL@@V?$CWinTraits@$0FGAAAAAA@$0A@@3@@ATL@@@ATL@@UEAAJAEBU_GUID@@PEAPEAX@Z 0000000180010b00 f i CAT.obj
 0001:0000fb70       ?CreateControlWindow@?$CComControl@VCOPOSCAT@@V?$CWindowImpl@VCOPOSCAT@@VCWindow@ATL@@V?$CWinTraits@$0FGAAAAAA@$0A@@3@@ATL@@@ATL@@UEAAPEAUHWND__@@PEAU3@AEAUtagRECT@@@Z 0000000180010b70 f i CAT.obj
 0001:0000fc40       ?CreateInstance@?$CComCreator@V?$CComAggObject@VCOPOSCAT@@@ATL@@@ATL@@SAJPEAXAEBU_GUID@@PEAPEAX@Z 0000000180010c40 f i CAT.obj
 0001:0000fe10       ?CreateInstance@?$CComCreator@V?$CComObject@VCOPOSCAT@@@ATL@@@ATL@@SAJPEAXAEBU_GUID@@PEAPEAX@Z 0000000180010e10 f i CAT.obj
 0001:0000fff0       ?CreateInstance@?$CComObject@V?$CComEnum@UIEnumConnectionPoints@@$1?_GUID_b196b285_bab4_101a_b69c_00aa00341d07@@3U__s_GUID@@BPEAUIConnectionPoint@@V?$_CopyInterface@UIConnectionPoint@@@ATL@@VCComSingleThreadModel@6@@ATL@@@ATL@@SAJPEAPEAV12@@Z 0000000180010ff0 f i CAT.obj
 0001:000101a0       ?CreateInstance@?$CComObject@V?$CComEnum@UIEnumConnections@@$1?_GUID_b196b287_bab4_101a_b69c_00aa00341d07@@3U__s_GUID@@BUtagCONNECTDATA@@V?$_Copy@UtagCONNECTDATA@@@ATL@@VCComSingleThreadModel@6@@ATL@@@ATL@@SAJPEAPEAV12@@Z 00000001800111a0 f i CAT.obj
 0001:00010350       ?CreateInstance@CComClassFactory@ATL@@UEAAJPEAUIUnknown@@AEBU_GUID@@PEAPEAX@Z 0000000180011350 f i CAT.obj
 0001:00010460       ?DAdvise@?$IDataObjectImpl@VCOPOSCAT@@@ATL@@UEAAJPEAUtagFORMATETC@@KPEAUIAdviseSink@@PEAK@Z 0000000180011460 f i CAT.obj
 0001:000105a0       ?DEVMODEOLE2T_EX@@YAPEAU_devicemodeW@@PEAU1@@Z 00000001800115a0 f i CAT.obj
 0001:000105b0       ?DUnadvise@?$IDataObjectImpl@VCOPOSCAT@@@ATL@@UEAAJK@Z 00000001800115b0 f i CAT.obj
 0001:000106a0       ?Decrement@CComMultiThreadModel@ATL@@SAKPEAJ@Z 00000001800116a0 f i CAT.obj
 0001:000106c0       ?Decrement@CComSingleThreadModel@ATL@@SAKPEAJ@Z 00000001800116c0 f i CAT.obj
 0001:000106e0       ?DefWindowProcW@?$CWindowImplBaseT@VCWindow@ATL@@V?$CWinTraits@$0FGAAAAAA@$0A@@2@@ATL@@QEAA_JI_K_J@Z 00000001800116e0 f i CAT.obj
 0001:00010730       ?DefaultReflectionHandler@?$CWindowImplRoot@VCWindow@ATL@@@ATL@@SAHPEAUHWND__@@I_K_JAEA_J@Z 0000000180011730 f i CAT.obj
 0001:00010a30       ?DeleteSubKey@CRegKey@ATL@@QEAAJPEB_W@Z 0000000180011a30 f i CAT.obj
 0001:00010b40       ?DeleteValue@CRegKey@ATL@@QEAAJPEB_W@Z 0000000180011b40 f i CAT.obj
 0001:00010bc0       ?Detach@?$CAutoVectorPtr@_W@ATL@@QEAAPEA_WXZ 0000000180011bc0 f i CAT.obj
 0001:00010bf0       ?Detach@?$CComPtrBase@UIPersistStream@@@ATL@@QEAAPEAUIPersistStream@@XZ 0000000180011bf0 f i CAT.obj
 0001:00010c20       ?Detach@?$CComPtrBase@UITypeInfo@@@ATL@@QEAAPEAUITypeInfo@@XZ 0000000180011c20 f i CAT.obj
 0001:00010c50       ?Detach@?$CComPtrBase@UIUnknown@@@ATL@@QEAAPEAUIUnknown@@XZ 0000000180011c50 f i CAT.obj
 0001:00010c80       ?Detach@CComBSTR@ATL@@QEAAPEA_WXZ 0000000180011c80 f i CAT.obj
 0001:00010cb0       ?Detach@CParseBuffer@CRegParser@ATL@@QEAAPEA_WXZ 0000000180011cb0 f i CAT.obj
 0001:00010d00       ?Detach@CRegKey@ATL@@QEAAPEAUHKEY__@@XZ 0000000180011d00 f i CAT.obj
 0001:00010d50       ?DoEvent@COPOSCAT@@IEAAXI_K_J@Z 0000000180011d50 f i CAT.obj
 0001:00010e70       ?DoVerb@?$IOleObjectImpl@VCOPOSCAT@@@ATL@@UEAAJJPEAUtagMSG@@PEAUIOleClientSite@@JPEAUHWND__@@PEBUtagRECT@@@Z 0000000180011e70 f i CAT.obj
 0001:00011170       ?DoVerbDiscardUndo@?$IOleObjectImpl@VCOPOSCAT@@@ATL@@QEAAJPEBUtagRECT@@PEAUHWND__@@@Z 0000000180012170 f i CAT.obj
 0001:000111f0       ?DoVerbHide@?$IOleObjectImpl@VCOPOSCAT@@@ATL@@QEAAJPEBUtagRECT@@PEAUHWND__@@@Z 00000001800121f0 f i CAT.obj
 0001:000112c0       ?DoVerbInPlaceActivate@?$IOleObjectImpl@VCOPOSCAT@@@ATL@@QEAAJPEBUtagRECT@@PEAUHWND__@@@Z 00000001800122c0 f i CAT.obj
 0001:00011380       ?DoVerbOpen@?$IOleObjectImpl@VCOPOSCAT@@@ATL@@QEAAJPEBUtagRECT@@PEAUHWND__@@@Z 0000000180012380 f i CAT.obj
 0001:00011400       ?DoVerbPrimary@?$IOleObjectImpl@VCOPOSCAT@@@ATL@@QEAAJPEBUtagRECT@@PEAUHWND__@@@Z 0000000180012400 f i CAT.obj
 0001:00011540       ?DoVerbProperties@CComControlBase@ATL@@QEAAJPEBUtagRECT@@PEAUHWND__@@@Z 0000000180012540 f i CAT.obj
 0001:000118f0       ?DoVerbShow@?$IOleObjectImpl@VCOPOSCAT@@@ATL@@QEAAJPEBUtagRECT@@PEAUHWND__@@@Z 00000001800128f0 f i CAT.obj
 0001:000119a0       ?DoVerbUIActivate@?$IOleObjectImpl@VCOPOSCAT@@@ATL@@QEAAJPEBUtagRECT@@PEAUHWND__@@@Z 00000001800129a0 f i CAT.obj
 0001:00011a60       ?DoesVerbActivate@CComControlBase@ATL@@QEAAHJ@Z 0000000180012a60 f i CAT.obj
 0001:00011ab0       ?DoesVerbUIActivate@CComControlBase@ATL@@QEAAHJ@Z 0000000180012ab0 f i CAT.obj
 0001:00011b20       ?Draw@?$IViewObjectExImpl@VCOPOSCAT@@@ATL@@UEAAJKJPEAXPEAUtagDVTARGETDEVICE@@PEAUHDC__@@2PEBU_RECTL@@3P6AH_K@Z4@Z 0000000180012b20 f i CAT.obj
 0001:00011c30       ?Empty@CComBSTR@ATL@@QEAAXXZ 0000000180012c30 f i CAT.obj
 0001:00011c60       ?EnableModeless@?$IOleInPlaceActiveObjectImpl@VCOPOSCAT@@@ATL@@UEAAJH@Z 0000000180012c60 f i CAT.obj
 0001:00011cc0       ?EndOfVar@CRegParser@ATL@@IEAAHXZ 0000000180012cc0 f i CAT.obj
 0001:00011d10       ?EnsureTI@CComTypeInfoHolder@ATL@@QEAAJK@Z 0000000180012d10 f i CAT.obj
 0001:00011d60       ?EnumAdvise@?$IOleObjectImpl@VCOPOSCAT@@@ATL@@UEAAJPEAPEAUIEnumSTATDATA@@@Z 0000000180012d60 f i CAT.obj
 0001:00011eb0       ?EnumConnectionPoints@?$IConnectionPointContainerImpl@VCOPOSCAT@@@ATL@@UEAAJPEAPEAUIEnumConnectionPoints@@@Z 0000000180012eb0 f i CAT.obj
 0001:000123a0       ?EnumConnections@?$IConnectionPointImpl@VCOPOSCAT@@$1?DIID__IOPOSCATEvents@@3U_GUID@@BVCComDynamicUnkArray@ATL@@@ATL@@UEAAJPEAPEAUIEnumConnections@@@Z 00000001800133a0 f i CAT.obj
 0001:000126d0       ?EnumConnections@?$IConnectionPointImpl@VCOPOSCAT@@$1?IID_IPropertyNotifySink@@3U_GUID@@BVCComDynamicUnkArray@ATL@@@ATL@@UEAAJPEAPEAUIEnumConnections@@@Z 00000001800136d0 f i CAT.obj
 0001:00012a00       ?EnumDAdvise@?$IDataObjectImpl@VCOPOSCAT@@@ATL@@UEAAJPEAPEAUIEnumSTATDATA@@@Z 0000000180013a00 f i CAT.obj
 0001:00012b30       ?EnumFormatEtc@?$IDataObjectImpl@VCOPOSCAT@@@ATL@@UEAAJKPEAPEAUIEnumFORMATETC@@@Z 0000000180013b30 f i CAT.obj
 0001:00012bb0       ?EnumVerbs@?$IOleObjectImpl@VCOPOSCAT@@@ATL@@UEAAJPEAPEAUIEnumOLEVERB@@@Z 0000000180013bb0 f i CAT.obj
 0001:00012c70       ?EscapeSingleQuote@CAtlModule@ATL@@SAXPEA_W_KPEB_W@Z 0000000180013c70 f i CAT.obj
 0001:00012d50       ?ExtractCreateWndData@CAtlWinModule@ATL@@QEAAPEAXXZ 0000000180013d50 f i CAT.obj
 0001:00012d70       ?FAccessAllowed@?$IObjectSafetyImpl@VCOPOSCAT@@$02@ATL@@MEAAHXZ 0000000180013d70 f i CAT.obj
 0001:00012d80       ?FinalConstruct@?$CComAggObject@VCOPOSCAT@@@ATL@@QEAAJXZ 0000000180013d80 f i CAT.obj
 0001:00012dc0       ?FinalConstruct@CComObjectRootBase@ATL@@QEAAJXZ 0000000180013dc0 f i CAT.obj
 0001:00012dd0       ?FinalConstruct@CRegObject@ATL@@QEAAJXZ 0000000180013dd0 f i CAT.obj
 0001:00012e00       ?FinalRelease@?$CComAggObject@VCOPOSCAT@@@ATL@@QEAAXXZ 0000000180013e00 f i CAT.obj
 0001:00012e40       ?FinalRelease@CComObjectRootBase@ATL@@QEAAXXZ 0000000180013e40 f i CAT.obj
 0001:00012e50       ?FindConnectionPoint@?$IConnectionPointContainerImpl@VCOPOSCAT@@@ATL@@UEAAJAEBU_GUID@@PEAPEAUIConnectionPoint@@@Z 0000000180013e50 f i CAT.obj
 0001:00012fc0       ?FindKey@?$CSimpleMap@PEA_WPEA_WVCExpansionVectorEqualHelper@ATL@@@ATL@@QEBAHAEBQEA_W@Z 0000000180013fc0 f i CAT.obj
 0001:00013030       ?FireTheEvent@?$CProxy_IOPOSEvents@VCOPOSCAT@@@@IEAAXPEAUIUnknown@@PEAVOposVariant@@IAEAJPEB_WJ@Z 0000000180014030 f i CAT.obj
 0001:00013210       ?FireViewChange@CComControlBase@ATL@@QEAAJXZ 0000000180014210 f i CAT.obj
 0001:000132e0       ?Fire_DirectIOEvent@?$CProxy_IOPOSEvents@VCOPOSCAT@@@@QEAAXJPEAJPEAPEA_W@Z 00000001800142e0 f i CAT.obj
 0001:00013580       ?Fire_ErrorEvent@?$CProxy_IOPOSEvents@VCOPOSCAT@@@@QEAAXJJJPEAJ@Z 0000000180014580 f i CAT.obj
 0001:00013830       ?Fire_OutputCompleteEvent@?$CProxy_IOPOSEvents@VCOPOSCAT@@@@QEAAXJ@Z 0000000180014830 f i CAT.obj
 0001:00013a20       ?Fire_StatusUpdateEvent@?$CProxy_IOPOSEvents@VCOPOSCAT@@@@QEAAXJ@Z 0000000180014a20 f i CAT.obj
 0001:00013c10       ?FormatWindowClassName@AtlModuleRegisterWndClassInfoParamW@ATL@@SAXPEA_WKPEAX@Z 0000000180014c10 f i CAT.obj
 0001:00013c50       ?Free@?$CAutoVectorPtr@_W@ATL@@QEAAXXZ 0000000180014c50 f i CAT.obj
 0001:00013c90       ?FreeHeap@?$CTempBuffer@E$0BAA@VCCRTAllocator@ATL@@@ATL@@AEAAXXZ 0000000180014c90 f i CAT.obj
 0001:00013cb0       ?FreeHeap@?$CTempBuffer@_W$0BAA@VCCRTAllocator@ATL@@@ATL@@AEAAXXZ 0000000180014cb0 f i CAT.obj
 0001:00013cd0       ?FreeHeap@?$CTempBuffer@_W$0EAA@VCCRTAllocator@ATL@@@ATL@@AEAAXXZ 0000000180014cd0 f i CAT.obj
 0001:00013cf0       ?Freeze@?$IViewObjectExImpl@VCOPOSCAT@@@ATL@@UEAAJKJPEAXPEAK@Z 0000000180014cf0 f i CAT.obj
 0001:00013d70       ?GenerateError@CRegParser@ATL@@IEAAJI@Z 0000000180014d70 f i CAT.obj
 0001:00013d90       ?GetAdvise@?$IViewObjectExImpl@VCOPOSCAT@@@ATL@@UEAAJPEAK0PEAPEAUIAdviseSink@@@Z 0000000180014d90 f i CAT.obj
 0001:00013ed0       ?GetAmbientLocaleID@CComControlBase@ATL@@QEAAJAEAK@Z 0000000180014ed0 f i CAT.obj
 0001:00013fb0       ?GetAmbientProperty@CComControlBase@ATL@@QEAAJJAEAUtagVARIANT@@@Z 0000000180014fb0 f i CAT.obj
 0001:00014000       ?GetAmbientUserMode@CComControlBase@ATL@@QEAAJAEAH@Z 0000000180015000 f i CAT.obj
 0001:00014120       ?GetAppId@?$CAtlModuleT@VCComModule@ATL@@@ATL@@SAPEB_WXZ 0000000180015120 f i CAT.obj
 0001:00014130       ?GetAt@CComDynamicUnkArray@ATL@@QEAAPEAUIUnknown@@H@Z 0000000180015130 f i CAT.obj
 0001:000141c0       ?GetCanonicalFormatEtc@?$IDataObjectImpl@VCOPOSCAT@@@ATL@@UEAAJPEAUtagFORMATETC@@0@Z 00000001800151c0 f i CAT.obj
 0001:00014240       ?GetClassID@?$IPersistStorageImpl@VCOPOSCAT@@@ATL@@UEAAJPEAU_GUID@@@Z 0000000180015240 f i CAT.obj
 0001:000142c0       ?GetClassID@?$IPersistStreamInitImpl@VCOPOSCAT@@@ATL@@UEAAJPEAU_GUID@@@Z 00000001800152c0 f i CAT.obj
 0001:00014340       ?GetClassInfoExW@AtlModuleRegisterWndClassInfoParamW@ATL@@SAHPEAUHINSTANCE__@@PEB_WPEAUtagWNDCLASSEXW@@@Z 0000000180015340 f i CAT.obj
 0001:00014370       ?GetClassInfoW@?$IProvideClassInfo2Impl@$1?CLSID_OPOSCAT@@3U_GUID@@B$1?DIID__IOPOSCATEvents@@3U2@B$1?LIBID_OposCAT_CCO@@3U2@B$00$0A@VCComTypeInfoHolder@ATL@@@ATL@@UEAAJPEAPEAUITypeInfo@@@Z 0000000180015370 f i CAT.obj
 0001:000143a0       ?GetClassObject@CComModule@ATL@@QEAAJAEBU_GUID@@0PEAPEAX@Z 00000001800153a0 f i CAT.obj
 0001:00014610       ?GetClientSite@?$IOleObjectImpl@VCOPOSCAT@@@ATL@@UEAAJPEAPEAUIOleClientSite@@@Z 0000000180015610 f i CAT.obj
 0001:000146b0       ?GetClipboardData@?$IOleObjectImpl@VCOPOSCAT@@@ATL@@UEAAJKPEAPEAUIDataObject@@@Z 00000001800156b0 f i CAT.obj
 0001:00014730       ?GetCodeAddress@CDynamicStdCallThunk2@ATL@@QEAAPEAXXZ 0000000180015730 f i CAT.obj
 0001:00014750       ?GetColorSet@?$IViewObjectExImpl@VCOPOSCAT@@@ATL@@UEAAJKJPEAXPEAUtagDVTARGETDEVICE@@PEAUHDC__@@PEAPEAUtagLOGPALETTE@@@Z 0000000180015750 f i CAT.obj
 0001:000147d0       ?GetConnMap@COPOSCAT@@SAPEBU_ATL_CONNMAP_ENTRY@ATL@@PEAH@Z 00000001800157d0 f i CAT.obj
 0001:00014920       ?GetConnectionInterface@?$IConnectionPointImpl@VCOPOSCAT@@$1?DIID__IOPOSCATEvents@@3U_GUID@@BVCComDynamicUnkArray@ATL@@@ATL@@UEAAJPEAU_GUID@@@Z 0000000180015920 f i CAT.obj
 0001:00014960       ?GetConnectionInterface@?$IConnectionPointImpl@VCOPOSCAT@@$1?IID_IPropertyNotifySink@@3U_GUID@@BVCComDynamicUnkArray@ATL@@@ATL@@UEAAJPEAU_GUID@@@Z 0000000180015960 f i CAT.obj
 0001:000149a0       ?GetConnectionPointContainer@?$IConnectionPointImpl@VCOPOSCAT@@$1?DIID__IOPOSCATEvents@@3U_GUID@@BVCComDynamicUnkArray@ATL@@@ATL@@UEAAJPEAPEAUIConnectionPointContainer@@@Z 00000001800159a0 f i CAT.obj
 0001:00014a00       ?GetConnectionPointContainer@?$IConnectionPointImpl@VCOPOSCAT@@$1?IID_IPropertyNotifySink@@3U_GUID@@BVCComDynamicUnkArray@ATL@@@ATL@@UEAAJPEAPEAUIConnectionPointContainer@@@Z 0000000180015a00 f i CAT.obj
 0001:00014a60       ?GetContentExtent@?$IQuickActivateImpl@VCOPOSCAT@@@ATL@@UEAAJPEAUtagSIZE@@@Z 0000000180015a60 f i CAT.obj
 0001:00014b10       ?GetControlInfo@?$IOleControlImpl@VCOPOSCAT@@@ATL@@UEAAJPEAUtagCONTROLINFO@@@Z 0000000180015b10 f i CAT.obj
 0001:00014b80       ?GetCookie@CComDynamicUnkArray@ATL@@QEAAKPEAPEAUIUnknown@@@Z 0000000180015b80 f i CAT.obj
 0001:00014c60       ?GetData@?$IDataObjectImpl@VCOPOSCAT@@@ATL@@UEAAJPEAUtagFORMATETC@@PEAUtagSTGMEDIUM@@@Z 0000000180015c60 f i CAT.obj
 0001:00014d10       ?GetData@CAtlSafeAllocBufferNode@?$CAtlSafeAllocBufferManager@VCCRTAllocator@ATL@@@_ATL_SAFE_ALLOCA_IMPL@ATL@@QEAAPEAXXZ 0000000180015d10 f i CAT.obj
 0001:00014d30       ?GetDataHere@?$IDataObjectImpl@VCOPOSCAT@@@ATL@@UEAAJPEAUtagFORMATETC@@PEAUtagSTGMEDIUM@@@Z 0000000180015d30 f i CAT.obj
 0001:00014db0       ?GetDropTarget@?$IOleInPlaceObjectWindowlessImpl@VCOPOSCAT@@@ATL@@UEAAJPEAPEAUIDropTarget@@@Z 0000000180015db0 f i CAT.obj
 0001:00014e20       ?GetExtent@?$IOleObjectImpl@VCOPOSCAT@@@ATL@@UEAAJKPEAUtagSIZE@@@Z 0000000180015e20 f i CAT.obj
 0001:00014ee0       ?GetExtent@?$IViewObjectExImpl@VCOPOSCAT@@@ATL@@UEAAJKJPEAUtagDVTARGETDEVICE@@PEAUtagSIZE@@@Z 0000000180015ee0 f i CAT.obj
 0001:00014fe0       ?GetGITPtr@CAtlModule@ATL@@UEAAJPEAPEAUIGlobalInterfaceTable@@@Z 0000000180015fe0 f i CAT.obj
 0001:00015110       ?GetGUID@?$IProvideClassInfo2Impl@$1?CLSID_OPOSCAT@@3U_GUID@@B$1?DIID__IOPOSCATEvents@@3U2@B$1?LIBID_OposCAT_CCO@@3U2@B$00$0A@VCComTypeInfoHolder@ATL@@@ATL@@UEAAJKPEAU_GUID@@@Z 0000000180016110 f i CAT.obj
 0001:00015190       ?GetIDsOfNames@?$IDispatchImpl@UIOPOSCAT@@$1?IID_IOPOSCAT@@3U_GUID@@B$1?LIBID_OposCAT_CCO@@3U3@B$00$0A@VCComTypeInfoHolder@ATL@@@ATL@@UEAAJAEBU_GUID@@PEAPEA_WIKPEAJ@Z 0000000180016190 f i CAT.obj
 0001:000151e0       ?GetIDsOfNames@CComTypeInfoHolder@ATL@@QEAAJAEBU_GUID@@PEAPEA_WIKPEAJ@Z 00000001800161e0 f i CAT.obj
 0001:000153f0       ?GetInterfaceSafetyOptions@?$IObjectSafetyImpl@VCOPOSCAT@@$02@ATL@@UEAAJAEBU_GUID@@PEAK1@Z 00000001800163f0 f i CAT.obj
 0001:00015590       ?GetKeyAt@?$CSimpleMap@PEA_WPEA_WVCExpansionVectorEqualHelper@ATL@@@ATL@@QEBAAEAPEA_WH@Z 0000000180016590 f i CAT.obj
 0001:00015630       ?GetLockCount@CAtlModule@ATL@@UEAAJXZ 0000000180016630 f i CAT.obj
 0001:00015640       ?GetMiscStatus@?$IOleObjectImpl@VCOPOSCAT@@@ATL@@UEAAJKPEAK@Z 0000000180016640 f i CAT.obj
 0001:000156c0       ?GetMoniker@?$IOleObjectImpl@VCOPOSCAT@@@ATL@@UEAAJKKPEAPEAUIMoniker@@@Z 00000001800166c0 f i CAT.obj
 0001:00015740       ?GetNaturalExtent@?$IViewObjectExImpl@VCOPOSCAT@@@ATL@@UEAAJKJPEAUtagDVTARGETDEVICE@@PEAUHDC__@@PEAUtagExtentInfo@@PEAUtagSIZE@@@Z 0000000180016740 f i CAT.obj
 0001:000158c0       ?GetObjectCLSID@?$CComCoClass@VCOPOSCAT@@$1?CLSID_OPOSCAT@@3U_GUID@@B@ATL@@SAAEBU_GUID@@XZ 00000001800168c0 f i CAT.obj
 0001:000158d0       ?GetPages@?$ISpecifyPropertyPagesImpl@VCOPOSCAT@@@ATL@@UEAAJPEAUtagCAUUID@@@Z 00000001800168d0 f i CAT.obj
 0001:00015950       ?GetPagesHelper@?$ISpecifyPropertyPagesImpl@VCOPOSCAT@@@ATL@@IEAAJPEAUtagCAUUID@@PEBUATL_PROPMAP_ENTRY@2@@Z 0000000180016950 f i CAT.obj
 0001:00015bb0       ?GetProperty@?$CComPtr@UIDispatch@@@ATL@@QEAAJJPEAUtagVARIANT@@@Z 0000000180016bb0 f i CAT.obj
 0001:00015be0       ?GetProperty@?$CComPtr@UIDispatch@@@ATL@@SAJPEAUIDispatch@@JPEAUtagVARIANT@@@Z 0000000180016be0 f i CAT.obj
 0001:00015db0       ?GetPropertyMap@COPOSCAT@@SAPEBUATL_PROPMAP_ENTRY@ATL@@XZ 0000000180016db0 f i CAT.obj
 0001:00015dc0       ?GetRect@?$IViewObjectExImpl@VCOPOSCAT@@@ATL@@UEAAJKPEAU_RECTL@@@Z 0000000180016dc0 f i CAT.obj
 0001:00015e40       ?GetSize@?$CSimpleMap@PEA_WPEA_WVCExpansionVectorEqualHelper@ATL@@@ATL@@QEBAHXZ 0000000180016e40 f i CAT.obj
 0001:00015e50       ?GetSize@CComDynamicUnkArray@ATL@@QEBAHXZ 0000000180016e50 f i CAT.obj
 0001:00015e60       ?GetSizeMax@?$IPersistStreamInitImpl@VCOPOSCAT@@@ATL@@UEAAJPEAT_ULARGE_INTEGER@@@Z 0000000180016e60 f i CAT.obj
 0001:00016600       ?GetSizeMax@CComVariant@ATL@@QEBAJPEAT_ULARGE_INTEGER@@@Z 0000000180017600 f i CAT.obj
 0001:00016a50       ?GetStreamSize@CComBSTR@ATL@@SAKPEA_W@Z 0000000180017a50 f i CAT.obj
 0001:00016a90       ?GetTI@CComTypeInfoHolder@ATL@@QEAAJK@Z 0000000180017a90 f i CAT.obj
 0001:00017360       ?GetTI@CComTypeInfoHolder@ATL@@QEAAJKPEAPEAUITypeInfo@@@Z 0000000180018360 f i CAT.obj
 0001:00017440       ?GetTypeInfo@?$IDispatchImpl@UIOPOSCAT@@$1?IID_IOPOSCAT@@3U_GUID@@B$1?LIBID_OposCAT_CCO@@3U3@B$00$0A@VCComTypeInfoHolder@ATL@@@ATL@@UEAAJIKPEAPEAUITypeInfo@@@Z 0000000180018440 f i CAT.obj
 0001:00017480       ?GetTypeInfo@CComTypeInfoHolder@ATL@@QEAAJIKPEAPEAUITypeInfo@@@Z 0000000180018480 f i CAT.obj
 0001:000174c0       ?GetTypeInfoCount@?$IDispatchImpl@UIOPOSCAT@@$1?IID_IOPOSCAT@@3U_GUID@@B$1?LIBID_OposCAT_CCO@@3U3@B$00$0A@VCComTypeInfoHolder@ATL@@@ATL@@UEAAJPEAI@Z 00000001800184c0 f i CAT.obj
 0001:000174f0       ?GetUnknown@CComDynamicUnkArray@ATL@@QEAAPEAUIUnknown@@K@Z 00000001800184f0 f i CAT.obj
 0001:00017580       ?GetUnknown@COPOSCAT@@QEAAPEAUIUnknown@@XZ 0000000180018580 f i CAT.obj
 0001:000175a0       ?GetUserClassID@?$IOleObjectImpl@VCOPOSCAT@@@ATL@@UEAAJPEAU_GUID@@@Z 00000001800185a0 f i CAT.obj
 0001:00017660       ?GetUserType@?$IOleObjectImpl@VCOPOSCAT@@@ATL@@UEAAJKPEAPEA_W@Z 0000000180018660 f i CAT.obj
 0001:000176e0       ?GetValueAt@?$CSimpleMap@PEA_WPEA_WVCExpansionVectorEqualHelper@ATL@@@ATL@@QEBAAEAPEA_WH@Z 00000001800186e0 f i CAT.obj
 0001:00017780       ?GetViewStatus@?$IViewObjectExImpl@VCOPOSCAT@@@ATL@@UEAAJPEAK@Z 0000000180018780 f i CAT.obj
 0001:00017870       ?GetWNDPROC@CWndProcThunk@ATL@@QEAAP6A_JPEAUHWND__@@I_K_J@ZXZ 0000000180018870 f i CAT.obj
 0001:000178a0       ?GetWindow@?$IOleInPlaceActiveObjectImpl@VCOPOSCAT@@@ATL@@UEAAJPEAPEAUHWND__@@@Z 00000001800188a0 f i CAT.obj
 0001:00017990       ?GetWindow@?$IOleInPlaceObjectWindowlessImpl@VCOPOSCAT@@@ATL@@UEAAJPEAPEAUHWND__@@@Z 0000000180018990 f i CAT.obj
 0001:00017a80       ?GetWindowProc@?$CWindowImplBaseT@VCWindow@ATL@@V?$CWinTraits@$0FGAAAAAA@$0A@@2@@ATL@@UEAAP6A_JPEAUHWND__@@I_K_J@ZXZ 0000000180018a80 f i CAT.obj
 0001:00017a90       ?GetWndCaption@?$CWindowImpl@VCOPOSCAT@@VCWindow@ATL@@V?$CWinTraits@$0FGAAAAAA@$0A@@3@@ATL@@SAPEB_WXZ 0000000180018a90 f i CAT.obj
 0001:00017aa0       ?GetWndClassInfo@?$CWindowImpl@VCOPOSCAT@@VCWindow@ATL@@V?$CWinTraits@$0FGAAAAAA@$0A@@3@@ATL@@SAAEAU_ATL_WNDCLASSINFOW@2@XZ 0000000180018aa0 f i CAT.obj
 0001:00017ab0       ?GetWndClassName@CWindow@ATL@@SAPEB_WXZ 0000000180018ab0 f i CAT.obj
 0001:00017ac0       ?GetWndExStyle@?$CWinTraits@$0FGAAAAAA@$0A@@ATL@@SAKK@Z 0000000180018ac0 f i CAT.obj
 0001:00017af0       ?GetWndExStyle@?$CWindowImplBaseT@VCWindow@ATL@@V?$CWinTraits@$0FGAAAAAA@$0A@@2@@ATL@@SAKK@Z 0000000180018af0 f i CAT.obj
 0001:00017b10       ?GetWndStyle@?$CWinTraits@$0FGAAAAAA@$0A@@ATL@@SAKK@Z 0000000180018b10 f i CAT.obj
 0001:00017b40       ?GetWndStyle@?$CWindowImplBaseT@VCWindow@ATL@@V?$CWinTraits@$0FGAAAAAA@$0A@@2@@ATL@@SAKK@Z 0000000180018b40 f i CAT.obj
 0001:00017b60       ?GetZoomInfo@CComControlBase@ATL@@QEAAXAEAUATL_DRAWINFO@@@Z 0000000180018b60 f i CAT.obj
 0001:00017d10       ?HKeyFromString@CRegParser@ATL@@KAPEAUHKEY__@@PEA_W@Z 0000000180018d10 f i CAT.obj
 0001:00017d80       ?HandsOffStorage@?$IPersistStorageImpl@VCOPOSCAT@@@ATL@@UEAAJXZ 0000000180018d80 f i CAT.obj
 0001:00017de0       ?HasSubKeys@CRegParser@ATL@@IEAAHPEAUHKEY__@@@Z 0000000180018de0 f i CAT.obj
 0001:00017f50       ?IDataObject_GetData@CComControlBase@ATL@@QEAAJPEAUtagFORMATETC@@PEAUtagSTGMEDIUM@@@Z 0000000180018f50 f i CAT.obj
 0001:00018400       ?IOleInPlaceObject_InPlaceDeactivate@CComControlBase@ATL@@QEAAJXZ 0000000180019400 f i CAT.obj
 0001:00018670       ?IOleInPlaceObject_SetObjectRects@CComControlBase@ATL@@QEAAJPEBUtagRECT@@0@Z 0000000180019670 f i CAT.obj
 0001:00018860       ?IOleInPlaceObject_UIDeactivate@CComControlBase@ATL@@QEAAJXZ 0000000180019860 f i CAT.obj
 0001:00018ad0       ?IOleObject_Advise@CComControlBase@ATL@@QEAAJPEAUIAdviseSink@@PEAK@Z 0000000180019ad0 f i CAT.obj
 0001:00018b70       ?IOleObject_Close@CComControlBase@ATL@@QEAAJK@Z 0000000180019b70 f i CAT.obj
 0001:00018ee0       ?IOleObject_GetClientSite@CComControlBase@ATL@@QEAAJPEAPEAUIOleClientSite@@@Z 0000000180019ee0 f i CAT.obj
 0001:00018fa0       ?IOleObject_SetClientSite@CComControlBase@ATL@@QEAAJPEAUIOleClientSite@@@Z 0000000180019fa0 f i CAT.obj
 0001:000190a0       ?IOleObject_SetExtent@CComControlBase@ATL@@QEAAJKPEAUtagSIZE@@@Z 000000018001a0a0 f i CAT.obj
 0001:000191f0       ?IPSI_GetIPersistStreamInit@?$IPersistStorageImpl@VCOPOSCAT@@@ATL@@AEAAPEAUIPersistStreamInit@@XZ 000000018001a1f0 f i CAT.obj
 0001:000192b0       ?IPersistStreamInit_Load@?$IPersistStreamInitImpl@VCOPOSCAT@@@ATL@@QEAAJPEAUIStream@@PEBUATL_PROPMAP_ENTRY@2@@Z 000000018001a2b0 f i CAT.obj
 0001:00019340       ?IPersistStreamInit_Save@?$IPersistStreamInitImpl@VCOPOSCAT@@@ATL@@QEAAJPEAUIStream@@HPEBUATL_PROPMAP_ENTRY@2@@Z 000000018001a340 f i CAT.obj
 0001:000193e0       ?IQuickActivate_QuickActivate@CComControlBase@ATL@@QEAAJPEAUtagQACONTAINER@@PEAUtagQACONTROL@@@Z 000000018001a3e0 f i CAT.obj
 0001:00019c20       ?IViewObject_Draw@CComControlBase@ATL@@QEAAJKJPEAXPEAUtagDVTARGETDEVICE@@PEAUHDC__@@2PEBU_RECTL@@3@Z 000000018001ac20 f i CAT.obj
 0001:0001a070       ?InPlaceActivate@CComControlBase@ATL@@QEAAJJPEBUtagRECT@@@Z 000000018001b070 f i CAT.obj
 0001:0001ac10       ?InPlaceDeactivate@?$IOleInPlaceObjectWindowlessImpl@VCOPOSCAT@@@ATL@@UEAAJXZ 000000018001bc10 f i CAT.obj
 0001:0001aca0       ?Increment@CComMultiThreadModel@ATL@@SAKPEAJ@Z 000000018001bca0 f i CAT.obj
 0001:0001acc0       ?Increment@CComSingleThreadModel@ATL@@SAKPEAJ@Z 000000018001bcc0 f i CAT.obj
 0001:0001ace0       ?Init@?$CComEnumImpl@UIEnumConnectionPoints@@$1?_GUID_b196b285_bab4_101a_b69c_00aa00341d07@@3U__s_GUID@@BPEAUIConnectionPoint@@V?$_CopyInterface@UIConnectionPoint@@@ATL@@@ATL@@QEAAJPEAPEAUIConnectionPoint@@0PEAUIUnknown@@W4CComEnumFlags@2@@Z 000000018001bce0 f i CAT.obj
 0001:0001afc0       ?Init@?$CComEnumImpl@UIEnumConnections@@$1?_GUID_b196b287_bab4_101a_b69c_00aa00341d07@@3U__s_GUID@@BUtagCONNECTDATA@@V?$_Copy@UtagCONNECTDATA@@@ATL@@@ATL@@QEAAJPEAUtagCONNECTDATA@@0PEAUIUnknown@@W4CComEnumFlags@2@@Z 000000018001bfc0 f i CAT.obj
 0001:0001b2a0       ?Init@CComFakeCriticalSection@ATL@@QEAAJXZ 000000018001c2a0 f i CAT.obj
 0001:0001b2b0       ?Init@CComModule@ATL@@QEAAJPEAU_ATL_OBJMAP_ENTRY30@2@PEAUHINSTANCE__@@PEBU_GUID@@@Z 000000018001c2b0 f i CAT.obj
 0001:0001b390       ?Init@CComSafeDeleteCriticalSection@ATL@@QEAAJXZ 000000018001c390 f i CAT.obj
 0001:0001b410       ?Init@CDynamicStdCallThunk2@ATL@@QEAAH_KPEAX@Z 000000018001c410 f i CAT.obj
 0001:0001b470       ?Init@CWndProcThunk@ATL@@QEAAHP6A_JPEAUHWND__@@I_K_J@ZPEAX@Z 000000018001c470 f i CAT.obj
 0001:0001b4b0       ?InitFromData@?$IOleObjectImpl@VCOPOSCAT@@@ATL@@UEAAJPEAUIDataObject@@HK@Z 000000018001c4b0 f i CAT.obj
 0001:0001b530       ?InitLibId@?$CAtlModuleT@VCComModule@ATL@@@ATL@@SAXXZ 000000018001c530 f i CAT.obj
 0001:0001b540       ?InitNew@?$IPersistStorageImpl@VCOPOSCAT@@@ATL@@UEAAJPEAUIStorage@@@Z 000000018001c540 f i CAT.obj
 0001:0001b630       ?InitNew@?$IPersistStreamInitImpl@VCOPOSCAT@@@ATL@@UEAAJXZ 000000018001c630 f i CAT.obj
 0001:0001b6d0       ?InlineIsEqualUnknown@ATL@@YAHAEBU_GUID@@@Z 000000018001c6d0 f i CAT.obj
 0001:0001b750       ?InternalAddRef@?$CComObjectRootEx@VCComMultiThreadModel@ATL@@@ATL@@QEAAKXZ 000000018001c750 f i CAT.obj
 0001:0001b7c0       ?InternalAddRef@?$CComObjectRootEx@VCComSingleThreadModel@ATL@@@ATL@@QEAAKXZ 000000018001c7c0 f i CAT.obj
 0001:0001b830       ?InternalFinalConstructAddRef@CComObjectRootBase@ATL@@QEAAXXZ 000000018001c830 f i CAT.obj
 0001:0001b840       ?InternalFinalConstructAddRef@COPOSCAT@@QEAAXXZ 000000018001c840 f i CAT.obj
 0001:0001b870       ?InternalFinalConstructRelease@CComObjectRootBase@ATL@@QEAAXXZ 000000018001c870 f i CAT.obj
 0001:0001b8d0       ?InternalFinalConstructRelease@COPOSCAT@@QEAAXXZ 000000018001c8d0 f i CAT.obj
 0001:0001b900       ?InternalGetSite@CComControlBase@ATL@@QEAAJAEBU_GUID@@PEAPEAX@Z 000000018001c900 f i CAT.obj
 0001:0001b9d0       ?InternalQueryInterface@CComObjectRootBase@ATL@@SAJPEAXPEBU_ATL_INTMAP_ENTRY@2@AEBU_GUID@@PEAPEAX@Z 000000018001c9d0 f i CAT.obj
 0001:0001bae0       ?InternalRelease@?$CComObjectRootEx@VCComMultiThreadModel@ATL@@@ATL@@QEAAKXZ 000000018001cae0 f i CAT.obj
 0001:0001bb50       ?InternalRelease@?$CComObjectRootEx@VCComSingleThreadModel@ATL@@@ATL@@QEAAKXZ 000000018001cb50 f i CAT.obj
 0001:0001bbc0       ?InternalSetAtIndex@?$CSimpleArray@GV?$CSimpleArrayEqualHelper@G@ATL@@@ATL@@QEAAXHAEBG@Z 000000018001cbc0 f i CAT.obj
 0001:0001bc30       ?InternalSetAtIndex@?$CSimpleMap@PEA_WPEA_WVCExpansionVectorEqualHelper@ATL@@@ATL@@QEAAXHAEBQEA_W0@Z 000000018001cc30 f i CAT.obj
 0001:0001bcf0       ?Invoke@?$IDispatchImpl@UIOPOSCAT@@$1?IID_IOPOSCAT@@3U_GUID@@B$1?LIBID_OposCAT_CCO@@3U3@B$00$0A@VCComTypeInfoHolder@ATL@@@ATL@@UEAAJJAEBU_GUID@@KGPEAUtagDISPPARAMS@@PEAUtagVARIANT@@PEAUtagEXCEPINFO@@PEAI@Z 000000018001ccf0 f i CAT.obj
 0001:0001bd80       ?Invoke@CComTypeInfoHolder@ATL@@QEAAJPEAUIDispatch@@JAEBU_GUID@@KGPEAUtagDISPPARAMS@@PEAUtagVARIANT@@PEAUtagEXCEPINFO@@PEAI@Z 000000018001cd80 f i CAT.obj
 0001:0001be30       ?IsDirty@?$IPersistStorageImpl@VCOPOSCAT@@@ATL@@UEAAJXZ 000000018001ce30 f i CAT.obj
 0001:0001bf20       ?IsDirty@?$IPersistStreamInitImpl@VCOPOSCAT@@@ATL@@UEAAJXZ 000000018001cf20 f i CAT.obj
 0001:0001bfd0       ?IsEqualKey@CExpansionVectorEqualHelper@ATL@@SA_NQEA_W0@Z 000000018001cfd0 f i CAT.obj
 0001:0001c000       ?IsEqualObject@?$CComPtrBase@UIOleClientSite@@@ATL@@QEAA_NPEAUIUnknown@@@Z 000000018001d000 f i CAT.obj
 0001:0001c150       ?IsEqualObject@?$CComPtrBase@UITypeInfo@@@ATL@@QEAA_NPEAUIUnknown@@@Z 000000018001d150 f i CAT.obj
 0001:0001c2a0       ?IsSpace@CRegParser@ATL@@IEAAH_W@Z 000000018001d2a0 f i CAT.obj
 0001:0001c2e0       ?IsUpToDate@?$IOleObjectImpl@VCOPOSCAT@@@ATL@@UEAAJXZ 000000018001d2e0 f i CAT.obj
 0001:0001c340       ?Length@CComBSTR@ATL@@QEBAIXZ 000000018001d340 f i CAT.obj
 0001:0001c360       ?Load@?$IPersistStorageImpl@VCOPOSCAT@@@ATL@@UEAAJPEAUIStorage@@@Z 000000018001d360 f i CAT.obj
 0001:0001c510       ?Load@?$IPersistStreamInitImpl@VCOPOSCAT@@@ATL@@UEAAJPEAUIStream@@@Z 000000018001d510 f i CAT.obj
 0001:0001c5c0       ?LoadCursorW@AtlModuleRegisterWndClassInfoParamW@ATL@@SAPEAUHICON__@@PEAUHINSTANCE__@@PEB_W@Z 000000018001d5c0 f i CAT.obj
 0001:0001c5f0       ?LoadNameCache@CComTypeInfoHolder@ATL@@QEAAJPEAUITypeInfo@@@Z 000000018001d5f0 f i CAT.obj
 0001:0001c930       ?Lock@?$CComCritSecLock@VCComCriticalSection@ATL@@@ATL@@QEAAJXZ 000000018001d930 f i CAT.obj
 0001:0001ca00       ?Lock@?$CComObjectRootEx@VCComSingleThreadModel@ATL@@@ATL@@QEAAXXZ 000000018001da00 f i CAT.obj
 0001:0001ca10       ?Lock@CAtlModule@ATL@@UEAAJXZ 000000018001da10 f i CAT.obj
 0001:0001ca40       ?Lock@CComCriticalSection@ATL@@QEAAJXZ 000000018001da40 f i CAT.obj
 0001:0001ca60       ?Lock@CComFakeCriticalSection@ATL@@QEAAJXZ 000000018001da60 f i CAT.obj
 0001:0001ca70       ?LockServer@CComClassFactory@ATL@@UEAAJH@Z 000000018001da70 f i CAT.obj
 0001:0001cac0       ?Lookup@?$CSimpleMap@PEA_WPEA_WVCExpansionVectorEqualHelper@ATL@@@ATL@@QEBAPEA_WAEBQEA_W@Z 000000018001dac0 f i CAT.obj
 0001:0001cb10       ?Next@?$CComEnumImpl@UIEnumConnectionPoints@@$1?_GUID_b196b285_bab4_101a_b69c_00aa00341d07@@3U__s_GUID@@BPEAUIConnectionPoint@@V?$_CopyInterface@UIConnectionPoint@@@ATL@@@ATL@@UEAAJKPEAPEAUIConnectionPoint@@PEAK@Z 000000018001db10 f i CAT.obj
 0001:0001ccc0       ?Next@?$CComEnumImpl@UIEnumConnections@@$1?_GUID_b196b287_bab4_101a_b69c_00aa00341d07@@3U__s_GUID@@BUtagCONNECTDATA@@V?$_Copy@UtagCONNECTDATA@@@ATL@@@ATL@@UEAAJKPEAUtagCONNECTDATA@@PEAK@Z 000000018001dcc0 f i CAT.obj
 0001:0001ce70       ?NextToken@CRegParser@ATL@@IEAAJPEA_W@Z 000000018001de70 f i CAT.obj
 0001:0001d1f0       ?OLE2CT_EX@@YAPEB_WPEB_WI@Z 000000018001e1f0 f i CAT.obj
 0001:0001d210       ?OLE2CT_EX_DEF@@YAPEB_WPEB_W@Z 000000018001e210 f i CAT.obj
 0001:0001d220       ?OLE2T_EX@@YAPEA_WPEA_WI@Z 000000018001e220 f i CAT.obj
 0001:0001d240       ?OnAmbientPropertyChange@?$IOleControlImpl@VCOPOSCAT@@@ATL@@UEAAJJ@Z 000000018001e240 f i CAT.obj
 0001:0001d2f0       ?OnDocWindowActivate@?$IOleInPlaceActiveObjectImpl@VCOPOSCAT@@@ATL@@UEAAJH@Z 000000018001e2f0 f i CAT.obj
 0001:0001d390       ?OnDrawAdvanced@CComControlBase@ATL@@UEAAJAEAUATL_DRAWINFO@@@Z 000000018001e390 f i CAT.obj
 0001:0001d5e0       ?OnFinalMessage@?$CWindowImplBaseT@VCWindow@ATL@@V?$CWinTraits@$0FGAAAAAA@$0A@@2@@ATL@@UEAAXPEAUHWND__@@@Z 000000018001e5e0 f i CAT.obj
 0001:0001d5f0       ?OnFrameWindowActivate@?$IOleInPlaceActiveObjectImpl@VCOPOSCAT@@@ATL@@UEAAJH@Z 000000018001e5f0 f i CAT.obj
 0001:0001d650       ?OnKillFocus@CComControlBase@ATL@@QEAA_JI_K_JAEAH@Z 000000018001e650 f i CAT.obj
 0001:0001d750       ?OnMnemonic@?$IOleControlImpl@VCOPOSCAT@@@ATL@@UEAAJPEAUtagMSG@@@Z 000000018001e750 f i CAT.obj
 0001:0001d7c0       ?OnMouseActivate@CComControlBase@ATL@@QEAA_JI_K_JAEAH@Z 000000018001e7c0 f i CAT.obj
 0001:0001d960       ?OnPaint@CComControlBase@ATL@@QEAA_JI_K_JAEAH@Z 000000018001e960 f i CAT.obj
 0001:0001daf0       ?OnPostVerbDiscardUndo@?$IOleObjectImpl@VCOPOSCAT@@@ATL@@QEAAJXZ 000000018001eaf0 f i CAT.obj
 0001:0001db00       ?OnPostVerbHide@?$IOleObjectImpl@VCOPOSCAT@@@ATL@@QEAAJXZ 000000018001eb00 f i CAT.obj
 0001:0001db10       ?OnPostVerbInPlaceActivate@?$IOleObjectImpl@VCOPOSCAT@@@ATL@@QEAAJXZ 000000018001eb10 f i CAT.obj
 0001:0001db20       ?OnPostVerbOpen@?$IOleObjectImpl@VCOPOSCAT@@@ATL@@QEAAJXZ 000000018001eb20 f i CAT.obj
 0001:0001db30       ?OnPostVerbShow@?$IOleObjectImpl@VCOPOSCAT@@@ATL@@QEAAJXZ 000000018001eb30 f i CAT.obj
 0001:0001db40       ?OnPostVerbUIActivate@?$IOleObjectImpl@VCOPOSCAT@@@ATL@@QEAAJXZ 000000018001eb40 f i CAT.obj
 0001:0001db50       ?OnPreVerbDiscardUndo@?$IOleObjectImpl@VCOPOSCAT@@@ATL@@QEAAJXZ 000000018001eb50 f i CAT.obj
 0001:0001db60       ?OnPreVerbHide@?$IOleObjectImpl@VCOPOSCAT@@@ATL@@QEAAJXZ 000000018001eb60 f i CAT.obj
 0001:0001db70       ?OnPreVerbInPlaceActivate@?$IOleObjectImpl@VCOPOSCAT@@@ATL@@QEAAJXZ 000000018001eb70 f i CAT.obj
 0001:0001db80       ?OnPreVerbOpen@?$IOleObjectImpl@VCOPOSCAT@@@ATL@@QEAAJXZ 000000018001eb80 f i CAT.obj
 0001:0001db90       ?OnPreVerbShow@?$IOleObjectImpl@VCOPOSCAT@@@ATL@@QEAAJXZ 000000018001eb90 f i CAT.obj
 0001:0001dba0       ?OnPreVerbUIActivate@?$IOleObjectImpl@VCOPOSCAT@@@ATL@@QEAAJXZ 000000018001eba0 f i CAT.obj
 0001:0001dbb0       ?OnSetFocus@CComControlBase@ATL@@QEAA_JI_K_JAEAH@Z 000000018001ebb0 f i CAT.obj
 0001:0001ddb0       ?OnWindowMessage@?$IOleInPlaceObjectWindowlessImpl@VCOPOSCAT@@@ATL@@UEAAJI_K_JPEA_J@Z 000000018001edb0 f i CAT.obj
 0001:0001dfd0       ?Open@CRegKey@ATL@@QEAAJPEAUHKEY__@@PEB_WK@Z 000000018001efd0 f i CAT.obj
 0001:0001e150       ?OuterAddRef@CComObjectRootBase@ATL@@QEAAKXZ 000000018001f150 f i CAT.obj
 0001:0001e180       ?OuterQueryInterface@CComObjectRootBase@ATL@@QEAAJAEBU_GUID@@PEAPEAX@Z 000000018001f180 f i CAT.obj
 0001:0001e1c0       ?OuterRelease@CComObjectRootBase@ATL@@QEAAKXZ 000000018001f1c0 f i CAT.obj
 0001:0001e1f0       ?PreProcessBuffer@CRegParser@ATL@@QEAAJPEA_WPEAPEA_W@Z 000000018001f1f0 f i CAT.obj
 0001:0001e8d0       ?PreTranslateAccelerator@CComControlBase@ATL@@QEAAHPEAUtagMSG@@AEAJ@Z 000000018001f8d0 f i CAT.obj
 0001:0001e8f0       ?ProcessWindowMessage@?$CComControl@VCOPOSCAT@@V?$CWindowImpl@VCOPOSCAT@@VCWindow@ATL@@V?$CWinTraits@$0FGAAAAAA@$0A@@3@@ATL@@@ATL@@UEAAHPEAUHWND__@@I_K_JAEA_JK@Z 000000018001f8f0 f i CAT.obj
 0001:0001eb70       ?ProcessWindowMessage@COPOSCAT@@UEAAHPEAUHWND__@@I_K_JAEA_JK@Z 000000018001fb70 f i CAT.obj
 0001:0001ecd0       ?PutProperty@?$CComPtr@UIDispatch@@@ATL@@QEAAJJPEAUtagVARIANT@@@Z 000000018001fcd0 f i CAT.obj
 0001:0001ed00       ?PutProperty@?$CComPtr@UIDispatch@@@ATL@@SAJPEAUIDispatch@@JPEAUtagVARIANT@@@Z 000000018001fd00 f i CAT.obj
 0001:0001efb0       ?QueryGetData@?$IDataObjectImpl@VCOPOSCAT@@@ATL@@UEAAJPEAUtagFORMATETC@@@Z 000000018001ffb0 f i CAT.obj
 0001:0001f020       ?QueryHitPoint@?$IViewObjectExImpl@VCOPOSCAT@@@ATL@@UEAAJKPEBUtagRECT@@UtagPOINT@@JPEAK@Z 0000000180020020 f i CAT.obj
 0001:0001f180       ?QueryHitRect@?$IViewObjectExImpl@VCOPOSCAT@@@ATL@@UEAAJKPEBUtagRECT@@0JPEAK@Z 0000000180020180 f i CAT.obj
 0001:0001f350       ?QueryInterface@?$CComAggObject@VCOPOSCAT@@@ATL@@UEAAJAEBU_GUID@@PEAPEAX@Z 0000000180020350 f i CAT.obj
 0001:0001f420       ?QueryInterface@?$CComContainedObject@VCOPOSCAT@@@ATL@@UEAAJAEBU_GUID@@PEAPEAX@Z 0000000180020420 f i CAT.obj
 0001:0001f458       ?QueryInterface@?$CComContainedObject@VCOPOSCAT@@@ATL@@WBAA@EAAJAEBU_GUID@@PEAPEAX@Z 0000000180020458 f i CAT.obj
 0001:0001f464       ?QueryInterface@?$CComContainedObject@VCOPOSCAT@@@ATL@@WBAI@EAAJAEBU_GUID@@PEAPEAX@Z 0000000180020464 f i CAT.obj
 0001:0001f470       ?QueryInterface@?$CComContainedObject@VCOPOSCAT@@@ATL@@WBBA@EAAJAEBU_GUID@@PEAPEAX@Z 0000000180020470 f i CAT.obj
 0001:0001f47c       ?QueryInterface@?$CComContainedObject@VCOPOSCAT@@@ATL@@WBBI@EAAJAEBU_GUID@@PEAPEAX@Z 000000018002047c f i CAT.obj
 0001:0001f488       ?QueryInterface@?$CComContainedObject@VCOPOSCAT@@@ATL@@WLI@EAAJAEBU_GUID@@PEAPEAX@Z 0000000180020488 f i CAT.obj
 0001:0001f494       ?QueryInterface@?$CComContainedObject@VCOPOSCAT@@@ATL@@WMA@EAAJAEBU_GUID@@PEAPEAX@Z 0000000180020494 f i CAT.obj
 0001:0001f4a0       ?QueryInterface@?$CComContainedObject@VCOPOSCAT@@@ATL@@WMI@EAAJAEBU_GUID@@PEAPEAX@Z 00000001800204a0 f i CAT.obj
 0001:0001f4ac       ?QueryInterface@?$CComContainedObject@VCOPOSCAT@@@ATL@@WNA@EAAJAEBU_GUID@@PEAPEAX@Z 00000001800204ac f i CAT.obj
 0001:0001f4b8       ?QueryInterface@?$CComContainedObject@VCOPOSCAT@@@ATL@@WNI@EAAJAEBU_GUID@@PEAPEAX@Z 00000001800204b8 f i CAT.obj
 0001:0001f4c4       ?QueryInterface@?$CComContainedObject@VCOPOSCAT@@@ATL@@WOA@EAAJAEBU_GUID@@PEAPEAX@Z 00000001800204c4 f i CAT.obj
 0001:0001f4d0       ?QueryInterface@?$CComContainedObject@VCOPOSCAT@@@ATL@@WOI@EAAJAEBU_GUID@@PEAPEAX@Z 00000001800204d0 f i CAT.obj
 0001:0001f4dc       ?QueryInterface@?$CComContainedObject@VCOPOSCAT@@@ATL@@WPA@EAAJAEBU_GUID@@PEAPEAX@Z 00000001800204dc f i CAT.obj
 0001:0001f4e8       ?QueryInterface@?$CComContainedObject@VCOPOSCAT@@@ATL@@WPI@EAAJAEBU_GUID@@PEAPEAX@Z 00000001800204e8 f i CAT.obj
 0001:0001f500       ?QueryInterface@?$CComObject@V?$CComEnum@UIEnumConnectionPoints@@$1?_GUID_b196b285_bab4_101a_b69c_00aa00341d07@@3U__s_GUID@@BPEAUIConnectionPoint@@V?$_CopyInterface@UIConnectionPoint@@@ATL@@VCComSingleThreadModel@6@@ATL@@@ATL@@UEAAJAEBU_GUID@@PEAPEAX@Z 0000000180020500 f i CAT.obj
 0001:0001f530       ?QueryInterface@?$CComObject@V?$CComEnum@UIEnumConnections@@$1?_GUID_b196b287_bab4_101a_b69c_00aa00341d07@@3U__s_GUID@@BUtagCONNECTDATA@@V?$_Copy@UtagCONNECTDATA@@@ATL@@VCComSingleThreadModel@6@@ATL@@@ATL@@UEAAJAEBU_GUID@@PEAPEAX@Z 0000000180020530 f i CAT.obj
 0001:0001f560       ?QueryInterface@?$CComObject@VCOPOSCAT@@@ATL@@UEAAJAEBU_GUID@@PEAPEAX@Z 0000000180020560 f i CAT.obj
 0001:0001f590       ?QueryInterface@?$CComObject@VCOPOSCAT@@@ATL@@WBAA@EAAJAEBU_GUID@@PEAPEAX@Z 0000000180020590 f i CAT.obj
 0001:0001f59c       ?QueryInterface@?$CComObject@VCOPOSCAT@@@ATL@@WBAI@EAAJAEBU_GUID@@PEAPEAX@Z 000000018002059c f i CAT.obj
 0001:0001f5a8       ?QueryInterface@?$CComObject@VCOPOSCAT@@@ATL@@WBBA@EAAJAEBU_GUID@@PEAPEAX@Z 00000001800205a8 f i CAT.obj
 0001:0001f5b4       ?QueryInterface@?$CComObject@VCOPOSCAT@@@ATL@@WBBI@EAAJAEBU_GUID@@PEAPEAX@Z 00000001800205b4 f i CAT.obj
 0001:0001f5c0       ?QueryInterface@?$CComObject@VCOPOSCAT@@@ATL@@WLI@EAAJAEBU_GUID@@PEAPEAX@Z 00000001800205c0 f i CAT.obj
 0001:0001f5cc       ?QueryInterface@?$CComObject@VCOPOSCAT@@@ATL@@WMA@EAAJAEBU_GUID@@PEAPEAX@Z 00000001800205cc f i CAT.obj
 0001:0001f5d8       ?QueryInterface@?$CComObject@VCOPOSCAT@@@ATL@@WMI@EAAJAEBU_GUID@@PEAPEAX@Z 00000001800205d8 f i CAT.obj
 0001:0001f5e4       ?QueryInterface@?$CComObject@VCOPOSCAT@@@ATL@@WNA@EAAJAEBU_GUID@@PEAPEAX@Z 00000001800205e4 f i CAT.obj
 0001:0001f5f0       ?QueryInterface@?$CComObject@VCOPOSCAT@@@ATL@@WNI@EAAJAEBU_GUID@@PEAPEAX@Z 00000001800205f0 f i CAT.obj
 0001:0001f5fc       ?QueryInterface@?$CComObject@VCOPOSCAT@@@ATL@@WOA@EAAJAEBU_GUID@@PEAPEAX@Z 00000001800205fc f i CAT.obj
 0001:0001f608       ?QueryInterface@?$CComObject@VCOPOSCAT@@@ATL@@WOI@EAAJAEBU_GUID@@PEAPEAX@Z 0000000180020608 f i CAT.obj
 0001:0001f614       ?QueryInterface@?$CComObject@VCOPOSCAT@@@ATL@@WPA@EAAJAEBU_GUID@@PEAPEAX@Z 0000000180020614 f i CAT.obj
 0001:0001f620       ?QueryInterface@?$CComObject@VCOPOSCAT@@@ATL@@WPI@EAAJAEBU_GUID@@PEAPEAX@Z 0000000180020620 f i CAT.obj
 0001:0001f630       ?QueryInterface@?$CComObjectCached@VCComClassFactory@ATL@@@ATL@@UEAAJAEBU_GUID@@PEAPEAX@Z 0000000180020630 f i CAT.obj
 0001:0001f660       ?QueryInterface@CRegObject@ATL@@UEAAJAEBU_GUID@@PEAPEAX@Z 0000000180020660 f i CAT.obj
 0001:0001f6d0       ?QuickActivate@?$IQuickActivateImpl@VCOPOSCAT@@@ATL@@UEAAJPEAUtagQACONTAINER@@PEAUtagQACONTROL@@@Z 00000001800206d0 f i CAT.obj
 0001:0001f780       ?ReactivateAndUndo@?$IOleInPlaceObjectWindowlessImpl@VCOPOSCAT@@@ATL@@UEAAJXZ 0000000180020780 f i CAT.obj
 0001:0001f7f0       ?ReadFromStream@CComBSTR@ATL@@QEAAJPEAUIStream@@@Z 00000001800207f0 f i CAT.obj
 0001:0001fcd0       ?ReadFromStream@CComVariant@ATL@@QEAAJPEAUIStream@@GTClassesAllowedInStream@2@K@Z 0000000180020cd0 f i CAT.obj
 0001:00020110       ?RecurseDeleteKey@CRegKey@ATL@@QEAAJPEB_W@Z 0000000180021110 f i CAT.obj
 0001:00020330       ?RegCreateKeyExW@CAtlTransactionManager@ATL@@QEAAJPEAUHKEY__@@PEB_WKPEA_WKKQEAU_SECURITY_ATTRIBUTES@@PEAPEAU3@PEAK@Z 0000000180021330 f i CAT.obj
 0001:000204e0       ?RegDeleteKeyW@CAtlTransactionManager@ATL@@QEAAJPEAUHKEY__@@PEB_W@Z 00000001800214e0 f i CAT.obj
 0001:000205e0       ?RegOpenKeyExW@CAtlTransactionManager@ATL@@QEAAJPEAUHKEY__@@PEB_WKKPEAPEAU3@@Z 00000001800215e0 f i CAT.obj
 0001:00020720       ?Register@_ATL_WNDCLASSINFOW@ATL@@QEAAGPEAP6A_JPEAUHWND__@@I_K_J@Z@Z 0000000180021720 f i CAT.obj
 0001:00020760       ?RegisterBuffer@CRegParser@ATL@@QEAAJPEA_WH@Z 0000000180021760 f i CAT.obj
 0001:00020b50       ?RegisterClassExW@AtlModuleRegisterWndClassInfoParamW@ATL@@SAGPEAU_ATL_WIN_MODULE70@2@PEBUtagWNDCLASSEXW@@@Z 0000000180021b50 f i CAT.obj
 0001:00020b80       ?RegisterFromResource@CRegObject@ATL@@IEAAJPEB_W00H@Z 0000000180021b80 f i CAT.obj
 0001:00020fe0       ?RegisterServer@?$CAtlModuleT@VCComModule@ATL@@@ATL@@QEAAJHPEBU_GUID@@@Z 0000000180021fe0 f i CAT.obj
 0001:00021040       ?RegisterServer@CAtlComModule@ATL@@QEAAJHPEBU_GUID@@@Z 0000000180022040 f i CAT.obj
 0001:00021070       ?RegisterServer@CComModule@ATL@@QEAAJHPEBU_GUID@@@Z 0000000180022070 f i CAT.obj
 0001:00021150       ?RegisterSubkeys@CRegParser@ATL@@IEAAJPEA_WPEAUHKEY__@@HH@Z 0000000180022150 f i CAT.obj
 0001:00021f30       ?Release@?$CComAggObject@VCOPOSCAT@@@ATL@@UEAAKXZ 0000000180022f30 f i CAT.obj
 0001:00021fe0       ?Release@?$CComContainedObject@VCOPOSCAT@@@ATL@@UEAAKXZ 0000000180022fe0 f i CAT.obj
 0001:00022004       ?Release@?$CComContainedObject@VCOPOSCAT@@@ATL@@WBAA@EAAKXZ 0000000180023004 f i CAT.obj
 0001:00022010       ?Release@?$CComContainedObject@VCOPOSCAT@@@ATL@@WBAI@EAAKXZ 0000000180023010 f i CAT.obj
 0001:0002201c       ?Release@?$CComContainedObject@VCOPOSCAT@@@ATL@@WBBA@EAAKXZ 000000018002301c f i CAT.obj
 0001:00022028       ?Release@?$CComContainedObject@VCOPOSCAT@@@ATL@@WBBI@EAAKXZ 0000000180023028 f i CAT.obj
 0001:00022034       ?Release@?$CComContainedObject@VCOPOSCAT@@@ATL@@WBCI@EAAKXZ 0000000180023034 f i CAT.obj
 0001:00022040       ?Release@?$CComContainedObject@VCOPOSCAT@@@ATL@@WBEA@EAAKXZ 0000000180023040 f i CAT.obj
 0001:0002204c       ?Release@?$CComContainedObject@VCOPOSCAT@@@ATL@@WLI@EAAKXZ 000000018002304c f i CAT.obj
 0001:00022058       ?Release@?$CComContainedObject@VCOPOSCAT@@@ATL@@WMA@EAAKXZ 0000000180023058 f i CAT.obj
 0001:00022064       ?Release@?$CComContainedObject@VCOPOSCAT@@@ATL@@WMI@EAAKXZ 0000000180023064 f i CAT.obj
 0001:00022070       ?Release@?$CComContainedObject@VCOPOSCAT@@@ATL@@WNA@EAAKXZ 0000000180023070 f i CAT.obj
 0001:0002207c       ?Release@?$CComContainedObject@VCOPOSCAT@@@ATL@@WNI@EAAKXZ 000000018002307c f i CAT.obj
 0001:00022088       ?Release@?$CComContainedObject@VCOPOSCAT@@@ATL@@WOA@EAAKXZ 0000000180023088 f i CAT.obj
 0001:00022094       ?Release@?$CComContainedObject@VCOPOSCAT@@@ATL@@WOI@EAAKXZ 0000000180023094 f i CAT.obj
 0001:000220a0       ?Release@?$CComContainedObject@VCOPOSCAT@@@ATL@@WPA@EAAKXZ 00000001800230a0 f i CAT.obj
 0001:000220ac       ?Release@?$CComContainedObject@VCOPOSCAT@@@ATL@@WPI@EAAKXZ 00000001800230ac f i CAT.obj
 0001:000220c0       ?Release@?$CComObject@V?$CComEnum@UIEnumConnectionPoints@@$1?_GUID_b196b285_bab4_101a_b69c_00aa00341d07@@3U__s_GUID@@BPEAUIConnectionPoint@@V?$_CopyInterface@UIConnectionPoint@@@ATL@@VCComSingleThreadModel@6@@ATL@@@ATL@@UEAAKXZ 00000001800230c0 f i CAT.obj
 0001:00022170       ?Release@?$CComObject@V?$CComEnum@UIEnumConnections@@$1?_GUID_b196b287_bab4_101a_b69c_00aa00341d07@@3U__s_GUID@@BUtagCONNECTDATA@@V?$_Copy@UtagCONNECTDATA@@@ATL@@VCComSingleThreadModel@6@@ATL@@@ATL@@UEAAKXZ 0000000180023170 f i CAT.obj
 0001:00022220       ?Release@?$CComObject@VCOPOSCAT@@@ATL@@UEAAKXZ 0000000180023220 f i CAT.obj
 0001:000222d8       ?Release@?$CComObject@VCOPOSCAT@@@ATL@@WBAA@EAAKXZ 00000001800232d8 f i CAT.obj
 0001:000222e4       ?Release@?$CComObject@VCOPOSCAT@@@ATL@@WBAI@EAAKXZ 00000001800232e4 f i CAT.obj
 0001:000222f0       ?Release@?$CComObject@VCOPOSCAT@@@ATL@@WBBA@EAAKXZ 00000001800232f0 f i CAT.obj
 0001:000222fc       ?Release@?$CComObject@VCOPOSCAT@@@ATL@@WBBI@EAAKXZ 00000001800232fc f i CAT.obj
 0001:00022308       ?Release@?$CComObject@VCOPOSCAT@@@ATL@@WBCI@EAAKXZ 0000000180023308 f i CAT.obj
 0001:00022314       ?Release@?$CComObject@VCOPOSCAT@@@ATL@@WBEA@EAAKXZ 0000000180023314 f i CAT.obj
 0001:00022320       ?Release@?$CComObject@VCOPOSCAT@@@ATL@@WLI@EAAKXZ 0000000180023320 f i CAT.obj
 0001:0002232c       ?Release@?$CComObject@VCOPOSCAT@@@ATL@@WMA@EAAKXZ 000000018002332c f i CAT.obj
 0001:00022338       ?Release@?$CComObject@VCOPOSCAT@@@ATL@@WMI@EAAKXZ 0000000180023338 f i CAT.obj
 0001:00022344       ?Release@?$CComObject@VCOPOSCAT@@@ATL@@WNA@EAAKXZ 0000000180023344 f i CAT.obj
 0001:00022350       ?Release@?$CComObject@VCOPOSCAT@@@ATL@@WNI@EAAKXZ 0000000180023350 f i CAT.obj
 0001:0002235c       ?Release@?$CComObject@VCOPOSCAT@@@ATL@@WOA@EAAKXZ 000000018002335c f i CAT.obj
 0001:00022368       ?Release@?$CComObject@VCOPOSCAT@@@ATL@@WOI@EAAKXZ 0000000180023368 f i CAT.obj
 0001:00022374       ?Release@?$CComObject@VCOPOSCAT@@@ATL@@WPA@EAAKXZ 0000000180023374 f i CAT.obj
 0001:00022380       ?Release@?$CComObject@VCOPOSCAT@@@ATL@@WPI@EAAKXZ 0000000180023380 f i CAT.obj
 0001:00022390       ?Release@?$CComObjectCached@VCComClassFactory@ATL@@@ATL@@UEAAKXZ 0000000180023390 f i CAT.obj
 0001:00022420       ?Release@?$CComPtrBase@UIAdviseSink@@@ATL@@QEAAXXZ 0000000180023420 f i CAT.obj
 0001:00022470       ?Release@?$CComPtrBase@UIDispatch@@@ATL@@QEAAXXZ 0000000180023470 f i CAT.obj
 0001:000224c0       ?Release@?$CComPtrBase@UIOleInPlaceSiteWindowless@@@ATL@@QEAAXXZ 00000001800234c0 f i CAT.obj
 0001:00022510       ?Release@CRegObject@ATL@@UEAAKXZ 0000000180023510 f i CAT.obj
 0001:00022570       ?Remove@CComDynamicUnkArray@ATL@@QEAAHK@Z 0000000180023570 f i CAT.obj
 0001:00022630       ?RemoveAll@?$CSimpleMap@PEA_WPEA_WVCExpansionVectorEqualHelper@ATL@@@ATL@@QEAAXXZ 0000000180023630 f i CAT.obj
 0001:000226c0       ?Reset@?$CComEnumImpl@UIEnumConnectionPoints@@$1?_GUID_b196b285_bab4_101a_b69c_00aa00341d07@@3U__s_GUID@@BPEAUIConnectionPoint@@V?$_CopyInterface@UIConnectionPoint@@@ATL@@@ATL@@UEAAJXZ 00000001800236c0 f i CAT.obj
 0001:000226e0       ?Reset@?$CComEnumImpl@UIEnumConnections@@$1?_GUID_b196b287_bab4_101a_b69c_00aa00341d07@@3U__s_GUID@@BUtagCONNECTDATA@@V?$_Copy@UtagCONNECTDATA@@@ATL@@@ATL@@UEAAJXZ 00000001800236e0 f i CAT.obj
 0001:00022700       ?ResizeBorder@?$IOleInPlaceActiveObjectImpl@VCOPOSCAT@@@ATL@@UEAAJPEBUtagRECT@@PEAUIOleInPlaceUIWindow@@H@Z 0000000180023700 f i CAT.obj
 0001:00022770       ?ResourceRegister@CRegObject@ATL@@QEAAJPEB_WI0@Z 0000000180023770 f i CAT.obj
 0001:00022850       ?ResourceRegisterSz@CRegObject@ATL@@QEAAJPEB_W00@Z 0000000180023850 f i CAT.obj
 0001:00022970       ?ResourceUnregister@CRegObject@ATL@@QEAAJPEB_WI0@Z 0000000180023970 f i CAT.obj
 0001:00022a50       ?ResourceUnregisterSz@CRegObject@ATL@@QEAAJPEB_W00@Z 0000000180023a50 f i CAT.obj
 0001:00022b70       ?SODataDummy@COPOSCAT@@MEAAJJ@Z 0000000180023b70 f i CAT.obj
 0001:00022b90       ?SODirectIO@COPOSCAT@@MEAAJJPEAJPEAPEA_W@Z 0000000180023b90 f i CAT.obj
 0001:00022dd0       ?SOError@COPOSCAT@@MEAAJJJJPEAJ@Z 0000000180023dd0 f i CAT.obj
 0001:00022ec0       ?SOOutputComplete@COPOSCAT@@MEAAJJ@Z 0000000180023ec0 f i CAT.obj
 0001:00022f50       ?SOStatusUpdate@COPOSCAT@@MEAAJJ@Z 0000000180023f50 f i CAT.obj
 0001:00022fe0       ?Save@?$IPersistStorageImpl@VCOPOSCAT@@@ATL@@UEAAJPEAUIStorage@@H@Z 0000000180023fe0 f i CAT.obj
 0001:000231a0       ?Save@?$IPersistStreamInitImpl@VCOPOSCAT@@@ATL@@UEAAJPEAUIStream@@H@Z 00000001800241a0 f i CAT.obj
 0001:00023250       ?SaveCompleted@?$IPersistStorageImpl@VCOPOSCAT@@@ATL@@UEAAJPEAUIStorage@@@Z 0000000180024250 f i CAT.obj
 0001:000232b0       ?SendOnDataChange@CComControlBase@ATL@@QEAAJK@Z 00000001800242b0 f i CAT.obj
 0001:000233b0       ?SendOnSave@CComControlBase@ATL@@QEAAJXZ 00000001800243b0 f i CAT.obj
 0001:00023410       ?SendOnViewChange@CComControlBase@ATL@@QEAAJKJ@Z 0000000180024410 f i CAT.obj
 0001:00023470       ?SetAdvise@?$IViewObjectExImpl@VCOPOSCAT@@@ATL@@UEAAJKKPEAUIAdviseSink@@@Z 0000000180024470 f i CAT.obj
 0001:00023520       ?SetClientSite@?$IOleObjectImpl@VCOPOSCAT@@@ATL@@UEAAJPEAUIOleClientSite@@@Z 0000000180024520 f i CAT.obj
 0001:000235c0       ?SetColorScheme@?$IOleObjectImpl@VCOPOSCAT@@@ATL@@UEAAJPEAUtagLOGPALETTE@@@Z 00000001800245c0 f i CAT.obj
 0001:00023630       ?SetContentExtent@?$IQuickActivateImpl@VCOPOSCAT@@@ATL@@UEAAJPEAUtagSIZE@@@Z 0000000180024630 f i CAT.obj
 0001:000236e0       ?SetControlFocus@CComControlBase@ATL@@QEAAHH@Z 00000001800246e0 f i CAT.obj
 0001:00023860       ?SetDWORDValue@CRegKey@ATL@@QEAAJPEB_WK@Z 0000000180024860 f i CAT.obj
 0001:00023900       ?SetData@?$IDataObjectImpl@VCOPOSCAT@@@ATL@@UEAAJPEAUtagFORMATETC@@PEAUtagSTGMEDIUM@@H@Z 0000000180024900 f i CAT.obj
 0001:00023980       ?SetExtent@?$IOleObjectImpl@VCOPOSCAT@@@ATL@@UEAAJKPEAUtagSIZE@@@Z 0000000180024980 f i CAT.obj
 0001:00023a30       ?SetHostNames@?$IOleObjectImpl@VCOPOSCAT@@@ATL@@UEAAJPEB_W0@Z 0000000180024a30 f i CAT.obj
 0001:00023a90       ?SetInterfaceSafetyOptions@?$IObjectSafetyImpl@VCOPOSCAT@@$02@ATL@@UEAAJAEBU_GUID@@KK@Z 0000000180024a90 f i CAT.obj
 0001:00023c30       ?SetMoniker@?$IOleObjectImpl@VCOPOSCAT@@@ATL@@UEAAJKPEAUIMoniker@@@Z 0000000180024c30 f i CAT.obj
 0001:00023cb0       ?SetMultiStringValue@CRegKey@ATL@@QEAAJPEB_W0@Z 0000000180024cb0 f i CAT.obj
 0001:00023e10       ?SetObjectRects@?$IOleInPlaceObjectWindowlessImpl@VCOPOSCAT@@@ATL@@UEAAJPEBUtagRECT@@0@Z 0000000180024e10 f i CAT.obj
 0001:00023ec0       ?SetStringValue@CRegKey@ATL@@QEAAJPEB_W0K@Z 0000000180024ec0 f i CAT.obj
 0001:00024030       ?SetVoid@CComClassFactory@ATL@@QEAAXPEAX@Z 0000000180025030 f i CAT.obj
 0001:00024050       ?SetVoid@CComObjectRootBase@ATL@@QEAAXPEAX@Z 0000000180025050 f i CAT.obj
 0001:00024060       ?ShowWindow@CWindow@ATL@@QEAAHH@Z 0000000180025060 f i CAT.obj
 0001:000240e0       ?Skip@?$CComEnumImpl@UIEnumConnectionPoints@@$1?_GUID_b196b285_bab4_101a_b69c_00aa00341d07@@3U__s_GUID@@BPEAUIConnectionPoint@@V?$_CopyInterface@UIConnectionPoint@@@ATL@@@ATL@@UEAAJK@Z 00000001800250e0 f i CAT.obj
 0001:00024170       ?Skip@?$CComEnumImpl@UIEnumConnections@@$1?_GUID_b196b287_bab4_101a_b69c_00aa00341d07@@3U__s_GUID@@BUtagCONNECTDATA@@V?$_Copy@UtagCONNECTDATA@@@ATL@@@ATL@@UEAAJK@Z 0000000180025170 f i CAT.obj
 0001:00024200       ?SkipAssignment@CRegParser@ATL@@IEAAJPEA_W@Z 0000000180025200 f i CAT.obj
 0001:00024300       ?SkipWhiteSpace@CRegParser@ATL@@IEAAXXZ 0000000180025300 f i CAT.obj
 0001:00024350       ?StartWindowProc@?$CWindowImplBaseT@VCWindow@ATL@@V?$CWinTraits@$0FGAAAAAA@$0A@@2@@ATL@@SA_JPEAUHWND__@@I_K_J@Z 0000000180025350 f i CAT.obj
 0001:000244a0       ?StrChrW@CRegParser@ATL@@KAPEA_WPEA_W_W@Z 00000001800254a0 f i CAT.obj
 0001:00024510       ?StrFromMap@CRegObject@ATL@@QEAAPEB_WPEA_W@Z 0000000180025510 f i CAT.obj
 0001:000245b0       ?Swap@?$CComPtrBase@UIAdviseSink@@@ATL@@IEAAXAEAV12@@Z 00000001800255b0 f i CAT.obj
 0001:000245f0       ?Swap@?$CComPtrBase@UIOleClientSite@@@ATL@@IEAAXAEAV12@@Z 00000001800255f0 f i CAT.obj
 0001:00024630       ?Swap@?$CComPtrBase@UIUnknown@@@ATL@@IEAAXAEAV12@@Z 0000000180025630 f i CAT.obj
 0001:00024670       ?T2COLE_EX@@YAPEB_WPEB_WI@Z 0000000180025670 f i CAT.obj
 0001:00024690       ?T2OLE_EX@@YAPEA_WPEA_WI@Z 0000000180025690 f i CAT.obj
 0001:000246b0       ?Term@CAtlModule@ATL@@QEAAXXZ 00000001800256b0 f i CAT.obj
 0001:00024760       ?Term@CComModule@ATL@@QEAAXXZ 0000000180025760 f i CAT.obj
 0001:00024840       ?TranslateAcceleratorW@?$IOleInPlaceActiveObjectImpl@VCOPOSCAT@@@ATL@@UEAAJPEAUtagMSG@@@Z 0000000180025840 f i CAT.obj
 0001:00024ab0       ?UIDeactivate@?$IOleInPlaceObjectWindowlessImpl@VCOPOSCAT@@@ATL@@UEAAJXZ 0000000180025ab0 f i CAT.obj
 0001:00024b40       ?Unadvise@?$CProxy_IOPOSEvents@VCOPOSCAT@@@@UEAAJK@Z 0000000180025b40 f i CAT.obj
 0001:00024b80       ?Unadvise@?$IConnectionPointImpl@VCOPOSCAT@@$1?DIID__IOPOSCATEvents@@3U_GUID@@BVCComDynamicUnkArray@ATL@@@ATL@@UEAAJK@Z 0000000180025b80 f i CAT.obj
 0001:00024c60       ?Unadvise@?$IConnectionPointImpl@VCOPOSCAT@@$1?IID_IPropertyNotifySink@@3U_GUID@@BVCComDynamicUnkArray@ATL@@@ATL@@UEAAJK@Z 0000000180025c60 f i CAT.obj
 0001:00024d40       ?Unadvise@?$IOleObjectImpl@VCOPOSCAT@@@ATL@@UEAAJK@Z 0000000180025d40 f i CAT.obj
 0001:00024e20       ?Unfreeze@?$IViewObjectExImpl@VCOPOSCAT@@@ATL@@UEAAJK@Z 0000000180025e20 f i CAT.obj
 0001:00024e90       ?Unlock@?$CComCritSecLock@VCComCriticalSection@ATL@@@ATL@@QEAAXXZ 0000000180025e90 f i CAT.obj
 0001:00024f10       ?Unlock@?$CComObjectRootEx@VCComSingleThreadModel@ATL@@@ATL@@QEAAXXZ 0000000180025f10 f i CAT.obj
 0001:00024f20       ?Unlock@CAtlModule@ATL@@UEAAJXZ 0000000180025f20 f i CAT.obj
 0001:00024f50       ?Unlock@CComCriticalSection@ATL@@QEAAJXZ 0000000180025f50 f i CAT.obj
 0001:00024f70       ?Unlock@CComFakeCriticalSection@ATL@@QEAAJXZ 0000000180025f70 f i CAT.obj
 0001:00024f80       ?UnregisterServer@?$CAtlModuleT@VCComModule@ATL@@@ATL@@QEAAJHPEBU_GUID@@@Z 0000000180025f80 f i CAT.obj
 0001:00024fe0       ?UnregisterServer@CAtlComModule@ATL@@QEAAJHPEBU_GUID@@@Z 0000000180025fe0 f i CAT.obj
 0001:00025010       ?UnregisterServer@CComModule@ATL@@QEAAJHPEBU_GUID@@@Z 0000000180026010 f i CAT.obj
 0001:000250f0       ?Update@?$IOleObjectImpl@VCOPOSCAT@@@ATL@@UEAAJXZ 00000001800260f0 f i CAT.obj
 0001:00025150       ?UpdateRegistryFromResource@CAtlModule@ATL@@QEAAJIHPEAU_ATL_REGMAP_ENTRY@2@@Z 0000000180026150 f i CAT.obj
 0001:00025690       ?UpdateRegistryFromResource@CAtlModule@ATL@@QEAAJPEB_WHPEAU_ATL_REGMAP_ENTRY@2@@Z 0000000180026690 f i CAT.obj
 0001:00025be0       ?UpdateRegistryFromResource@CComModule@ATL@@UEAAJIHPEAU_ATL_REGMAP_ENTRY@2@@Z 0000000180026be0 f i CAT.obj
 0001:00025c20       ?UpdateRegistryFromResource@CComModule@ATL@@UEAAJPEB_WHPEAU_ATL_REGMAP_ENTRY@2@@Z 0000000180026c20 f i CAT.obj
 0001:00025c60       ?UpdateRegistryFromResourceD@CComModule@ATL@@UEAAJIHPEAU_ATL_REGMAP_ENTRY@2@@Z 0000000180026c60 f i CAT.obj
 0001:00025c80       ?UpdateRegistryFromResourceD@CComModule@ATL@@UEAAJPEB_WHPEAU_ATL_REGMAP_ENTRY@2@@Z 0000000180026c80 f i CAT.obj
 0001:00025ca0       ?VTFromRegType@CRegParser@ATL@@KAHPEB_WAEAG@Z 0000000180026ca0 f i CAT.obj
 0001:00025d70       ?WindowProc@?$CWindowImplBaseT@VCWindow@ATL@@V?$CWinTraits@$0FGAAAAAA@$0A@@2@@ATL@@SA_JPEAUHWND__@@I_K_J@Z 0000000180026d70 f i CAT.obj
 0001:00026050       ?WriteToStream@CComBSTR@ATL@@QEAAJPEAUIStream@@@Z 0000000180027050 f i CAT.obj
 0001:000261c0       ?WriteToStream@CComVariant@ATL@@QEAAJPEAUIStream@@@Z 00000001800271c0 f i CAT.obj
 0001:000265f0       ?WriteToStream@CComVariant@ATL@@QEAAJPEAUIStream@@G@Z 00000001800275f0 f i CAT.obj
 0001:000266d0       ?_AtlFinalConstruct@CComObjectRootBase@ATL@@QEAAJXZ 00000001800276d0 f i CAT.obj
 0001:000266e0       ?_AtlGetConversionACP@ATL@@YAIXZ 00000001800276e0 f i CAT.obj
 0001:000266f0       ?_AtlInitialConstruct@?$CComAggObject@VCOPOSCAT@@@ATL@@QEAAJXZ 00000001800276f0 f i CAT.obj
 0001:00026740       ?_AtlInitialConstruct@?$CComObjectRootEx@VCComMultiThreadModel@ATL@@@ATL@@QEAAJXZ 0000000180027740 f i CAT.obj
 0001:00026770       ?_AtlInitialConstruct@?$CComObjectRootEx@VCComSingleThreadModel@ATL@@@ATL@@QEAAJXZ 0000000180027770 f i CAT.obj
 0001:00026780       ?_AtlVerifyStackAvailable@_ATL_SAFE_ALLOCA_IMPL@ATL@@YA_N_K@Z 0000000180027780 f i CAT.obj
 0001:000268e0       ?_GetEntries@?$CComEnum@UIEnumConnectionPoints@@$1?_GUID_b196b285_bab4_101a_b69c_00aa00341d07@@3U__s_GUID@@BPEAUIConnectionPoint@@V?$_CopyInterface@UIConnectionPoint@@@ATL@@VCComSingleThreadModel@6@@ATL@@SAPEBU_ATL_INTMAP_ENTRY@2@XZ 00000001800278e0 f i CAT.obj
 0001:00026900       ?_GetEntries@?$CComEnum@UIEnumConnections@@$1?_GUID_b196b287_bab4_101a_b69c_00aa00341d07@@3U__s_GUID@@BUtagCONNECTDATA@@V?$_Copy@UtagCONNECTDATA@@@ATL@@VCComSingleThreadModel@6@@ATL@@SAPEBU_ATL_INTMAP_ENTRY@2@XZ 0000000180027900 f i CAT.obj
 0001:00026920       ?_GetEntries@CComClassFactory@ATL@@SAPEBU_ATL_INTMAP_ENTRY@2@XZ 0000000180027920 f i CAT.obj
 0001:00026940       ?_GetEntries@COPOSCAT@@SAPEBU_ATL_INTMAP_ENTRY@ATL@@XZ 0000000180027940 f i CAT.obj
 0001:00026960       ?_GetRawUnknown@COPOSCAT@@QEAAPEAUIUnknown@@XZ 0000000180027960 f i CAT.obj
 0001:000269e0       ?_GetViewStatus@COPOSCAT@@QEAAKXZ 00000001800279e0 f i CAT.obj
 0001:000269f0       ?_InternalQueryInterface@?$CComEnum@UIEnumConnectionPoints@@$1?_GUID_b196b285_bab4_101a_b69c_00aa00341d07@@3U__s_GUID@@BPEAUIConnectionPoint@@V?$_CopyInterface@UIConnectionPoint@@@ATL@@VCComSingleThreadModel@6@@ATL@@QEAAJAEBU_GUID@@PEAPEAX@Z 00000001800279f0 f i CAT.obj
 0001:00026a30       ?_InternalQueryInterface@?$CComEnum@UIEnumConnections@@$1?_GUID_b196b287_bab4_101a_b69c_00aa00341d07@@3U__s_GUID@@BUtagCONNECTDATA@@V?$_Copy@UtagCONNECTDATA@@@ATL@@VCComSingleThreadModel@6@@ATL@@QEAAJAEBU_GUID@@PEAPEAX@Z 0000000180027a30 f i CAT.obj
 0001:00026a70       ?_InternalQueryInterface@CComClassFactory@ATL@@QEAAJAEBU_GUID@@PEAPEAX@Z 0000000180027a70 f i CAT.obj
 0001:00026ab0       ?_InternalQueryInterface@COPOSCAT@@QEAAJAEBU_GUID@@PEAPEAX@Z 0000000180027ab0 f i CAT.obj
 0001:00026af0       ?_LocCPQueryInterface@?$IConnectionPointImpl@VCOPOSCAT@@$1?DIID__IOPOSCATEvents@@3U_GUID@@BVCComDynamicUnkArray@ATL@@@ATL@@UEAAJAEBU_GUID@@PEAPEAX@Z 0000000180027af0 f i CAT.obj
 0001:00026bc0       ?_LocCPQueryInterface@?$IConnectionPointImpl@VCOPOSCAT@@$1?IID_IPropertyNotifySink@@3U_GUID@@BVCComDynamicUnkArray@ATL@@@ATL@@UEAAJAEBU_GUID@@PEAPEAX@Z 0000000180027bc0 f i CAT.obj
 0001:00026c90       ?atlCreate@?$CWindowImpl@VCOPOSCAT@@VCWindow@ATL@@V?$CWinTraits@$0FGAAAAAA@$0A@@3@@ATL@@QEAAPEAUHWND__@@PEAU3@V_U_RECT@2@PEB_WKKV_U_MENUorID@2@PEAX@Z 0000000180027c90 f i CAT.obj
 0001:00026da0       ?atlCreate@?$CWindowImplBaseT@VCWindow@ATL@@V?$CWinTraits@$0FGAAAAAA@$0A@@2@@ATL@@QEAAPEAUHWND__@@PEAU3@V_U_RECT@2@PEB_WKKV_U_MENUorID@2@GPEAX@Z 0000000180027da0 f i CAT.obj
 0001:00026ff0       ?atlCreate@CRegKey@ATL@@QEAAJPEAUHKEY__@@PEB_WPEA_WKKPEAU_SECURITY_ATTRIBUTES@@PEAK@Z 0000000180027ff0 f i CAT.obj
 0001:000271f0       ?begin@CComDynamicUnkArray@ATL@@QEAAPEAPEAUIUnknown@@XZ 00000001800281f0 f i CAT.obj
 0001:00027200       ?copy@?$_Copy@UtagCONNECTDATA@@@ATL@@SAJPEAUtagCONNECTDATA@@PEBU3@@Z 0000000180028200 f i CAT.obj
 0001:000272e0       ?copy@?$_CopyInterface@UIConnectionPoint@@@ATL@@SAJPEAPEAUIConnectionPoint@@PEBQEAU3@@Z 00000001800282e0 f i CAT.obj
 0001:000273c0       ?destroy@?$_Copy@UtagCONNECTDATA@@@ATL@@SAXPEAUtagCONNECTDATA@@@Z 00000001800283c0 f i CAT.obj
 0001:00027400       ?destroy@?$_CopyInterface@UIConnectionPoint@@@ATL@@SAXPEAPEAUIConnectionPoint@@@Z 0000000180028400 f i CAT.obj
 0001:00027440       ?end@CComDynamicUnkArray@ATL@@QEAAPEAPEAUIUnknown@@XZ 0000000180028440 f i CAT.obj
 0001:00027460       ?init@?$_Copy@UtagCONNECTDATA@@@ATL@@SAXPEAUtagCONNECTDATA@@@Z 0000000180028460 f i CAT.obj
 0001:00027470       ?init@?$_CopyInterface@UIConnectionPoint@@@ATL@@SAXPEAPEAUIConnectionPoint@@@Z 0000000180028470 f i CAT.obj
 0001:00027480       ?memcpy_s@Checked@ATL@@YAXPEAX_KPEBX1@Z 0000000180028480 f i CAT.obj
 0001:000274c0       ?ocscpy_s@@YA_NPEA_W_KPEB_W@Z 00000001800284c0 f i CAT.obj
 0001:00027530       ?ocslen@@YAHPEB_W@Z        0000000180028530 f i CAT.obj
 0001:00027560       ?tcsncpy_s@Checked@ATL@@YAHPEA_W_KPEB_W1@Z 0000000180028560 f i CAT.obj
 0001:000275a0       ?wcscat_s@Checked@ATL@@YAXPEA_W_KPEB_W@Z 00000001800285a0 f i CAT.obj
 0001:000275e0       ?wcscpy_s@Checked@ATL@@YAXPEA_W_KPEB_W@Z 00000001800285e0 f i CAT.obj
 0001:00027620       ?wcsncpy_s@Checked@ATL@@YAHPEA_W_KPEB_W1@Z 0000000180028620 f i CAT.obj
 0001:00027660       ?wcsstr@@YAPEA_WPEA_WPEB_W@Z 0000000180028660 f i CAT.obj
 0001:00027690       InlineIsEqualGUID          0000000180028690 f i CAT.obj
 0001:00027750       IsEqualGUID                0000000180028750 f i CAT.obj
 0001:000277a0       ??0COPOSCAT@@QEAA@XZ       00000001800287a0 f   CATImpl.obj
 0001:00027910       ?FinalConstruct@COPOSCAT@@QEAAJXZ 0000000180028910 f   CATImpl.obj
 0001:000279f0       ??1COPOSCAT@@UEAA@XZ       00000001800289f0 f   CATImpl.obj
 0001:00027ad0       ?WriteTrace@COPOSCAT@@QEAAXPEB_WZZ 0000000180028ad0 f   CATImpl.obj
 0001:00027ba0       ?WriteTraceString@COPOSCAT@@QEAAXPEB_WPEA_W@Z 0000000180028ba0 f   CATImpl.obj
 0001:00027fd0       ?WriteTraceString@COPOSCAT@@QEAAXPEAXHHHPEB_WZZ 0000000180028fd0 f   CATImpl.obj
 0001:00028260       ?WriteTraceError@COPOSCAT@@QEAAXPEB_WK@Z 0000000180029260 f   CATImpl.obj
 0001:00028360       ?WriteTraceMethods@COPOSCAT@@QEAAXPEAJH@Z 0000000180029360 f   CATImpl.obj
 0001:000283e0       ?FormatCurrency@COPOSCAT@@QEAAPEB_WTtagCY@@@Z 00000001800293e0 f   CATImpl.obj
 0001:000284e0       ?GetOposProp@COPOSCAT@@IEAAJPEBDJPEAJJ@Z 00000001800294e0 f   CATImpl.obj
 0001:00028800       ?SetOposProp@COPOSCAT@@IEAAJPEBDJJJ@Z 0000000180029800 f   CATImpl.obj
 0001:00028b70       ?GetOposProp@COPOSCAT@@IEAAJPEBDJPEAFJ@Z 0000000180029b70 f   CATImpl.obj
 0001:00028c20       ?SetOposProp@COPOSCAT@@IEAAJPEBDJFJ@Z 0000000180029c20 f   CATImpl.obj
 0001:00028c90       ?GetOposProp@COPOSCAT@@IEAAJPEBDJPEAPEA_WJ@Z 0000000180029c90 f   CATImpl.obj
 0001:00028fb0       ?SetOposProp@COPOSCAT@@IEAAJPEBDJPEA_WJ@Z 0000000180029fb0 f   CATImpl.obj
 0001:00029390       ?DoInvoke@COPOSCAT@@IEAAJPEBDJPEAVOposVariant@@IHPEAJ_N@Z 000000018002a390 f   CATImpl.obj
 0001:00029fd0       ?SetCOFreezeEvents@COPOSCAT@@IEAAXF@Z 000000018002afd0 f   CATImpl.obj
 0001:0002a160       ?FreezeEvents@COPOSCAT@@MEAAJH@Z 000000018002b160 f   CATImpl.obj
 0001:0002a280       ?OnDraw@COPOSCAT@@MEAAJAEAUATL_DRAWINFO@@@Z 000000018002b280 f   CATImpl.obj
 0001:0002a450       ?SOProcessID@COPOSCAT@@UEAAJPEAJ@Z 000000018002b450 f   CATImpl.obj
 0001:0002a4a0       ?get_OpenResult@COPOSCAT@@UEAAJPEAJ@Z 000000018002b4a0 f   CATImpl.obj
 0001:0002a4f0       ?get_BinaryConversion@COPOSCAT@@UEAAJPEAJ@Z 000000018002b4f0 f   CATImpl.obj
 0001:0002a530       ?put_BinaryConversion@COPOSCAT@@UEAAJJ@Z 000000018002b530 f   CATImpl.obj
 0001:0002a580       ?get_CapPowerReporting@COPOSCAT@@UEAAJPEAJ@Z 000000018002b580 f   CATImpl.obj
 0001:0002a5c0       ?get_CheckHealthText@COPOSCAT@@UEAAJPEAPEA_W@Z 000000018002b5c0 f   CATImpl.obj
 0001:0002a600       ?get_Claimed@COPOSCAT@@UEAAJPEAF@Z 000000018002b600 f   CATImpl.obj
 0001:0002a640       ?get_DeviceEnabled@COPOSCAT@@UEAAJPEAF@Z 000000018002b640 f   CATImpl.obj
 0001:0002a680       ?put_DeviceEnabled@COPOSCAT@@UEAAJF@Z 000000018002b680 f   CATImpl.obj
 0001:0002a6c0       ?get_FreezeEvents@COPOSCAT@@UEAAJPEAF@Z 000000018002b6c0 f   CATImpl.obj
 0001:0002a700       ?put_FreezeEvents@COPOSCAT@@UEAAJF@Z 000000018002b700 f   CATImpl.obj
 0001:0002a7c0       ?get_OutputID@COPOSCAT@@UEAAJPEAJ@Z 000000018002b7c0 f   CATImpl.obj
 0001:0002a800       ?get_PowerNotify@COPOSCAT@@UEAAJPEAJ@Z 000000018002b800 f   CATImpl.obj
 0001:0002a840       ?put_PowerNotify@COPOSCAT@@UEAAJJ@Z 000000018002b840 f   CATImpl.obj
 0001:0002a880       ?get_PowerState@COPOSCAT@@UEAAJPEAJ@Z 000000018002b880 f   CATImpl.obj
 0001:0002a8c0       ?get_ResultCode@COPOSCAT@@UEAAJPEAJ@Z 000000018002b8c0 f   CATImpl.obj
 0001:0002a970       ?get_ResultCodeExtended@COPOSCAT@@UEAAJPEAJ@Z 000000018002b970 f   CATImpl.obj
 0001:0002a9b0       ?get_State@COPOSCAT@@UEAAJPEAJ@Z 000000018002b9b0 f   CATImpl.obj
 0001:0002aa20       ?get_ControlObjectDescription@COPOSCAT@@UEAAJPEAPEA_W@Z 000000018002ba20 f   CATImpl.obj
 0001:0002aa90       ?get_ControlObjectVersion@COPOSCAT@@UEAAJPEAJ@Z 000000018002ba90 f   CATImpl.obj
 0001:0002aae0       ?get_ServiceObjectDescription@COPOSCAT@@UEAAJPEAPEA_W@Z 000000018002bae0 f   CATImpl.obj
 0001:0002ab20       ?get_ServiceObjectVersion@COPOSCAT@@UEAAJPEAJ@Z 000000018002bb20 f   CATImpl.obj
 0001:0002ab60       ?get_DeviceDescription@COPOSCAT@@UEAAJPEAPEA_W@Z 000000018002bb60 f   CATImpl.obj
 0001:0002aba0       ?get_DeviceName@COPOSCAT@@UEAAJPEAPEA_W@Z 000000018002bba0 f   CATImpl.obj
 0001:0002abe0       ?CheckHealth@COPOSCAT@@UEAAJJPEAJ@Z 000000018002bbe0 f   CATImpl.obj
 0001:0002aca0       ?ClaimDevice@COPOSCAT@@UEAAJJPEAJ@Z 000000018002bca0 f   CATImpl.obj
 0001:0002adc0       ?ClearOutput@COPOSCAT@@UEAAJPEAJ@Z 000000018002bdc0 f   CATImpl.obj
 0001:0002ae20       ?Close@COPOSCAT@@UEAAJPEAJ@Z 000000018002be20 f   CATImpl.obj
 0001:0002af20       ?DirectIO@COPOSCAT@@UEAAJJPEAJPEAPEA_W0@Z 000000018002bf20 f   CATImpl.obj
 0001:0002b0a0       ?Open@COPOSCAT@@UEAAJPEA_WPEAJ@Z 000000018002c0a0 f   CATImpl.obj
 0001:0002c580       ?ReleaseDevice@COPOSCAT@@UEAAJPEAJ@Z 000000018002d580 f   CATImpl.obj
 0001:0002c620       ?get_AccountNumber@COPOSCAT@@UEAAJPEAPEA_W@Z 000000018002d620 f   CATImpl.obj
 0001:0002c660       ?get_AdditionalSecurityInformation@COPOSCAT@@UEAAJPEAPEA_W@Z 000000018002d660 f   CATImpl.obj
 0001:0002c6a0       ?put_AdditionalSecurityInformation@COPOSCAT@@UEAAJPEA_W@Z 000000018002d6a0 f   CATImpl.obj
 0001:0002c6e0       ?get_ApprovalCode@COPOSCAT@@UEAAJPEAPEA_W@Z 000000018002d6e0 f   CATImpl.obj
 0001:0002c720       ?get_AsyncMode@COPOSCAT@@UEAAJPEAF@Z 000000018002d720 f   CATImpl.obj
 0001:0002c760       ?put_AsyncMode@COPOSCAT@@UEAAJF@Z 000000018002d760 f   CATImpl.obj
 0001:0002c7a0       ?get_CapAdditionalSecurityInformation@COPOSCAT@@UEAAJPEAF@Z 000000018002d7a0 f   CATImpl.obj
 0001:0002c7e0       ?get_CapAuthorizeCompletion@COPOSCAT@@UEAAJPEAF@Z 000000018002d7e0 f   CATImpl.obj
 0001:0002c820       ?get_CapAuthorizePreSales@COPOSCAT@@UEAAJPEAF@Z 000000018002d820 f   CATImpl.obj
 0001:0002c860       ?get_CapAuthorizeRefund@COPOSCAT@@UEAAJPEAF@Z 000000018002d860 f   CATImpl.obj
 0001:0002c8a0       ?get_CapAuthorizeVoid@COPOSCAT@@UEAAJPEAF@Z 000000018002d8a0 f   CATImpl.obj
 0001:0002c8e0       ?get_CapAuthorizeVoidPreSales@COPOSCAT@@UEAAJPEAF@Z 000000018002d8e0 f   CATImpl.obj
 0001:0002c920       ?get_CapCenterResultCode@COPOSCAT@@UEAAJPEAF@Z 000000018002d920 f   CATImpl.obj
 0001:0002c960       ?get_CapCheckCard@COPOSCAT@@UEAAJPEAF@Z 000000018002d960 f   CATImpl.obj
 0001:0002c9a0       ?get_CapDailyLog@COPOSCAT@@UEAAJPEAJ@Z 000000018002d9a0 f   CATImpl.obj
 0001:0002c9e0       ?get_CapInstallments@COPOSCAT@@UEAAJPEAF@Z 000000018002d9e0 f   CATImpl.obj
 0001:0002ca20       ?get_CapPaymentDetail@COPOSCAT@@UEAAJPEAF@Z 000000018002da20 f   CATImpl.obj
 0001:0002ca60       ?get_CapTaxOthers@COPOSCAT@@UEAAJPEAF@Z 000000018002da60 f   CATImpl.obj
 0001:0002caa0       ?get_CapTrainingMode@COPOSCAT@@UEAAJPEAF@Z 000000018002daa0 f   CATImpl.obj
 0001:0002cae0       ?get_CapTransactionNumber@COPOSCAT@@UEAAJPEAF@Z 000000018002dae0 f   CATImpl.obj
 0001:0002cb20       ?get_CardCompanyID@COPOSCAT@@UEAAJPEAPEA_W@Z 000000018002db20 f   CATImpl.obj
 0001:0002cb60       ?get_CenterResultCode@COPOSCAT@@UEAAJPEAPEA_W@Z 000000018002db60 f   CATImpl.obj
 0001:0002cba0       ?get_DailyLog@COPOSCAT@@UEAAJPEAPEA_W@Z 000000018002dba0 f   CATImpl.obj
 0001:0002cbe0       ?get_PaymentCondition@COPOSCAT@@UEAAJPEAJ@Z 000000018002dbe0 f   CATImpl.obj
 0001:0002cc20       ?get_PaymentDetail@COPOSCAT@@UEAAJPEAPEA_W@Z 000000018002dc20 f   CATImpl.obj
 0001:0002cc60       ?get_SequenceNumber@COPOSCAT@@UEAAJPEAJ@Z 000000018002dc60 f   CATImpl.obj
 0001:0002cca0       ?get_SlipNumber@COPOSCAT@@UEAAJPEAPEA_W@Z 000000018002dca0 f   CATImpl.obj
 0001:0002cce0       ?get_TrainingMode@COPOSCAT@@UEAAJPEAF@Z 000000018002dce0 f   CATImpl.obj
 0001:0002cd20       ?put_TrainingMode@COPOSCAT@@UEAAJF@Z 000000018002dd20 f   CATImpl.obj
 0001:0002cd60       ?get_TransactionNumber@COPOSCAT@@UEAAJPEAPEA_W@Z 000000018002dd60 f   CATImpl.obj
 0001:0002cda0       ?get_TransactionType@COPOSCAT@@UEAAJPEAJ@Z 000000018002dda0 f   CATImpl.obj
 0001:0002cde0       ?AccessDailyLog@COPOSCAT@@UEAAJJJJPEAJ@Z 000000018002dde0 f   CATImpl.obj
 0001:0002cf40       ?AuthorizeCompletion@COPOSCAT@@UEAAJJTtagCY@@0JPEAJ@Z 000000018002df40 f   CATImpl.obj
 0001:0002d0c0       ?AuthorizePreSales@COPOSCAT@@UEAAJJTtagCY@@0JPEAJ@Z 000000018002e0c0 f   CATImpl.obj
 0001:0002d240       ?AuthorizeRefund@COPOSCAT@@UEAAJJTtagCY@@0JPEAJ@Z 000000018002e240 f   CATImpl.obj
 0001:0002d3c0       ?AuthorizeSales@COPOSCAT@@UEAAJJTtagCY@@0JPEAJ@Z 000000018002e3c0 f   CATImpl.obj
 0001:0002d540       ?AuthorizeVoid@COPOSCAT@@UEAAJJTtagCY@@0JPEAJ@Z 000000018002e540 f   CATImpl.obj
 0001:0002d6c0       ?AuthorizeVoidPreSales@COPOSCAT@@UEAAJJTtagCY@@0JPEAJ@Z 000000018002e6c0 f   CATImpl.obj
 0001:0002d840       ?CheckCard@COPOSCAT@@UEAAJJJPEAJ@Z 000000018002e840 f   CATImpl.obj
 0001:0002d960       ?get_PaymentMedia@COPOSCAT@@UEAAJPEAJ@Z 000000018002e960 f   CATImpl.obj
 0001:0002d9a0       ?put_PaymentMedia@COPOSCAT@@UEAAJJ@Z 000000018002e9a0 f   CATImpl.obj
 0001:0002d9e0       ?get_CapStatisticsReporting@COPOSCAT@@UEAAJPEAF@Z 000000018002e9e0 f   CATImpl.obj
 0001:0002da20       ?get_CapUpdateStatistics@COPOSCAT@@UEAAJPEAF@Z 000000018002ea20 f   CATImpl.obj
 0001:0002da60       ?ResetStatistics@COPOSCAT@@UEAAJPEA_WPEAJ@Z 000000018002ea60 f   CATImpl.obj
 0001:0002db40       ?RetrieveStatistics@COPOSCAT@@UEAAJPEAPEA_WPEAJ@Z 000000018002eb40 f   CATImpl.obj
 0001:0002dc20       ?UpdateStatistics@COPOSCAT@@UEAAJPEA_WPEAJ@Z 000000018002ec20 f   CATImpl.obj
 0001:0002dd00       ?get_CapCompareFirmwareVersion@COPOSCAT@@UEAAJPEAF@Z 000000018002ed00 f   CATImpl.obj
 0001:0002dd40       ?get_CapUpdateFirmware@COPOSCAT@@UEAAJPEAF@Z 000000018002ed40 f   CATImpl.obj
 0001:0002dd80       ?CompareFirmwareVersion@COPOSCAT@@UEAAJPEA_WPEAJ1@Z 000000018002ed80 f   CATImpl.obj
 0001:0002dec0       ?UpdateFirmware@COPOSCAT@@UEAAJPEA_WPEAJ@Z 000000018002eec0 f   CATImpl.obj
 0001:0002dfa0       ?get_Balance@COPOSCAT@@UEAAJPEATtagCY@@@Z 000000018002efa0 f   CATImpl.obj
 0001:0002e230       ?get_CapCashDeposit@COPOSCAT@@UEAAJPEAF@Z 000000018002f230 f   CATImpl.obj
 0001:0002e270       ?get_CapLockTerminal@COPOSCAT@@UEAAJPEAF@Z 000000018002f270 f   CATImpl.obj
 0001:0002e2b0       ?get_CapLogStatus@COPOSCAT@@UEAAJPEAF@Z 000000018002f2b0 f   CATImpl.obj
 0001:0002e2f0       ?get_CapUnlockTerminal@COPOSCAT@@UEAAJPEAF@Z 000000018002f2f0 f   CATImpl.obj
 0001:0002e330       ?get_LogStatus@COPOSCAT@@UEAAJPEAJ@Z 000000018002f330 f   CATImpl.obj
 0001:0002e370       ?get_SettledAmount@COPOSCAT@@UEAAJPEATtagCY@@@Z 000000018002f370 f   CATImpl.obj
 0001:0002e600       ?CashDeposit@COPOSCAT@@UEAAJJTtagCY@@JPEAJ@Z 000000018002f600 f   CATImpl.obj
 0001:0002e760       ?LockTerminal@COPOSCAT@@UEAAJPEAJ@Z 000000018002f760 f   CATImpl.obj
 0001:0002e7c0       ?UnlockTerminal@COPOSCAT@@UEAAJPEAJ@Z 000000018002f7c0 f   CATImpl.obj
 0001:0002e810       ??0?$CComControl@VCOPOSCAT@@V?$CWindowImpl@VCOPOSCAT@@VCWindow@ATL@@V?$CWinTraits@$0FGAAAAAA@$0A@@3@@ATL@@@ATL@@QEAA@XZ 000000018002f810 f i CATImpl.obj
 0001:0002e850       ??0?$CComPtr@UIAdviseSink@@@ATL@@QEAA@XZ 000000018002f850 f i CATImpl.obj
 0001:0002e870       ??0?$CComPtr@UIDataAdviseHolder@@@ATL@@QEAA@XZ 000000018002f870 f i CATImpl.obj
 0001:0002e890       ??0?$CComPtr@UIOleAdviseHolder@@@ATL@@QEAA@XZ 000000018002f890 f i CATImpl.obj
 0001:0002e8b0       ??0?$CComPtr@UIOleClientSite@@@ATL@@QEAA@XZ 000000018002f8b0 f i CATImpl.obj
 0001:0002e8d0       ??0?$CComPtr@UIOleInPlaceSiteWindowless@@@ATL@@QEAA@XZ 000000018002f8d0 f i CATImpl.obj
 0001:0002e8f0       ??0?$CComPtrBase@UIAdviseSink@@@ATL@@IEAA@XZ 000000018002f8f0 f i CATImpl.obj
 0001:0002e910       ??0?$CComPtrBase@UIDataAdviseHolder@@@ATL@@IEAA@XZ 000000018002f910 f i CATImpl.obj
 0001:0002e930       ??0?$CComPtrBase@UIOleAdviseHolder@@@ATL@@IEAA@XZ 000000018002f930 f i CATImpl.obj
 0001:0002e950       ??0?$CComPtrBase@UIOleClientSite@@@ATL@@IEAA@XZ 000000018002f950 f i CATImpl.obj
 0001:0002e970       ??0?$CComPtrBase@UIOleInPlaceSiteWindowless@@@ATL@@IEAA@XZ 000000018002f970 f i CATImpl.obj
 0001:0002e990       ??0?$CComQIPtr@UIDispatch@@$1?_GUID_00020400_0000_0000_c000_000000000046@@3U__s_GUID@@B@ATL@@QEAA@XZ 000000018002f990 f i CATImpl.obj
 0001:0002e9b0       ??0?$CProxy_IOPOSEvents@VCOPOSCAT@@@@QEAA@PEAVCOPOSCAT@@@Z 000000018002f9b0 f i CATImpl.obj
 0001:0002ea30       ??0?$CWindowImpl@VCOPOSCAT@@VCWindow@ATL@@V?$CWinTraits@$0FGAAAAAA@$0A@@3@@ATL@@QEAA@XZ 000000018002fa30 f i CATImpl.obj
 0001:0002ea50       ??0?$CWindowImplBaseT@VCWindow@ATL@@V?$CWinTraits@$0FGAAAAAA@$0A@@2@@ATL@@QEAA@XZ 000000018002fa50 f i CATImpl.obj
 0001:0002ea80       ??0?$CWindowImplRoot@VCWindow@ATL@@@ATL@@QEAA@XZ 000000018002fa80 f i CATImpl.obj
 0001:0002eae0       ??0?$IConnectionPointContainerImpl@VCOPOSCAT@@@ATL@@QEAA@XZ 000000018002fae0 f i CATImpl.obj
 0001:0002eb00       ??0?$IConnectionPointImpl@VCOPOSCAT@@$1?DIID__IOPOSCATEvents@@3U_GUID@@BVCComDynamicUnkArray@ATL@@@ATL@@QEAA@XZ 000000018002fb00 f i CATImpl.obj
 0001:0002eb30       ??0?$IConnectionPointImpl@VCOPOSCAT@@$1?IID_IPropertyNotifySink@@3U_GUID@@BVCComDynamicUnkArray@ATL@@@ATL@@QEAA@XZ 000000018002fb30 f i CATImpl.obj
 0001:0002eb60       ??0?$IDataObjectImpl@VCOPOSCAT@@@ATL@@QEAA@XZ 000000018002fb60 f i CATImpl.obj
 0001:0002eb80       ??0?$IDispatchImpl@UIOPOSCAT@@$1?IID_IOPOSCAT@@3U_GUID@@B$1?LIBID_OposCAT_CCO@@3U3@B$00$0A@VCComTypeInfoHolder@ATL@@@ATL@@QEAA@XZ 000000018002fb80 f i CATImpl.obj
 0001:0002eba0       ??0?$IObjectSafetyImpl@VCOPOSCAT@@$02@ATL@@QEAA@XZ 000000018002fba0 f i CATImpl.obj
 0001:0002ebd0       ??0?$IOleControlImpl@VCOPOSCAT@@@ATL@@QEAA@XZ 000000018002fbd0 f i CATImpl.obj
 0001:0002ebf0       ??0?$IOleInPlaceActiveObjectImpl@VCOPOSCAT@@@ATL@@QEAA@XZ 000000018002fbf0 f i CATImpl.obj
 0001:0002ec10       ??0?$IOleInPlaceObjectWindowlessImpl@VCOPOSCAT@@@ATL@@QEAA@XZ 000000018002fc10 f i CATImpl.obj
 0001:0002ec30       ??0?$IOleObjectImpl@VCOPOSCAT@@@ATL@@QEAA@XZ 000000018002fc30 f i CATImpl.obj
 0001:0002ec50       ??0?$IPersistStorageImpl@VCOPOSCAT@@@ATL@@QEAA@XZ 000000018002fc50 f i CATImpl.obj
 0001:0002ec70       ??0?$IPersistStreamInitImpl@VCOPOSCAT@@@ATL@@QEAA@XZ 000000018002fc70 f i CATImpl.obj
 0001:0002ec90       ??0?$IPropertyNotifySinkCP@VCOPOSCAT@@VCComDynamicUnkArray@ATL@@@ATL@@QEAA@XZ 000000018002fc90 f i CATImpl.obj
 0001:0002ecb0       ??0?$IProvideClassInfo2Impl@$1?CLSID_OPOSCAT@@3U_GUID@@B$1?DIID__IOPOSCATEvents@@3U2@B$1?LIBID_OposCAT_CCO@@3U2@B$00$0A@VCComTypeInfoHolder@ATL@@@ATL@@QEAA@XZ 000000018002fcb0 f i CATImpl.obj
 0001:0002ecd0       ??0?$IQuickActivateImpl@VCOPOSCAT@@@ATL@@QEAA@XZ 000000018002fcd0 f i CATImpl.obj
 0001:0002ecf0       ??0?$ISpecifyPropertyPagesImpl@VCOPOSCAT@@@ATL@@QEAA@XZ 000000018002fcf0 f i CATImpl.obj
 0001:0002ed10       ??0?$IViewObjectExImpl@VCOPOSCAT@@@ATL@@QEAA@XZ 000000018002fd10 f i CATImpl.obj
 0001:0002ed30       ??0?$_ICPLocator@$1?DIID__IOPOSCATEvents@@3U_GUID@@B@ATL@@QEAA@XZ 000000018002fd30 f i CATImpl.obj
 0001:0002ed40       ??0?$_ICPLocator@$1?IID_IPropertyNotifySink@@3U_GUID@@B@ATL@@QEAA@XZ 000000018002fd40 f i CATImpl.obj
 0001:0002ed50       ??0CComControlBase@ATL@@QEAA@AEAPEAUHWND__@@@Z 000000018002fd50 f i CATImpl.obj
 0001:0002ef60       ??0CComDynamicUnkArray@ATL@@QEAA@XZ 000000018002ff60 f i CATImpl.obj
 0001:0002ef90       ??0CDynamicStdCallThunk2@ATL@@QEAA@XZ 000000018002ff90 f i CATImpl.obj
 0001:0002efb0       ??0CMessageMap@ATL@@QEAA@XZ 000000018002ffb0 f i CATImpl.obj
 0001:0002efc0       ??0CWindow@ATL@@QEAA@PEAUHWND__@@@Z 000000018002ffc0 f i CATImpl.obj
 0001:0002efe0       ??0CWndProcThunk@ATL@@QEAA@XZ 000000018002ffe0 f i CATImpl.obj
 0001:0002f010       ??0IConnectionPointContainer@@QEAA@XZ 0000000180030010 f i CATImpl.obj
 0001:0002f030       ??0IDataObject@@QEAA@XZ    0000000180030030 f i CATImpl.obj
 0001:0002f050       ??0IDispatch@@QEAA@XZ      0000000180030050 f i CATImpl.obj
 0001:0002f070       ??0IOPOSCAT@@QEAA@XZ       0000000180030070 f i CATImpl.obj
 0001:0002f090       ??0IOPOSCAT_1_5@@QEAA@XZ   0000000180030090 f i CATImpl.obj
 0001:0002f0b0       ??0IOPOSCAT_1_8@@QEAA@XZ   00000001800300b0 f i CATImpl.obj
 0001:0002f0d0       ??0IOPOSCAT_1_9@@QEAA@XZ   00000001800300d0 f i CATImpl.obj
 0001:0002f0f0       ??0IObjectSafety@@QEAA@XZ  00000001800300f0 f i CATImpl.obj
 0001:0002f110       ??0IOleControl@@QEAA@XZ    0000000180030110 f i CATImpl.obj
 0001:0002f130       ??0IOleInPlaceActiveObject@@QEAA@XZ 0000000180030130 f i CATImpl.obj
 0001:0002f150       ??0IOleInPlaceObject@@QEAA@XZ 0000000180030150 f i CATImpl.obj
 0001:0002f170       ??0IOleInPlaceObjectWindowless@@QEAA@XZ 0000000180030170 f i CATImpl.obj
 0001:0002f190       ??0IOleObject@@QEAA@XZ     0000000180030190 f i CATImpl.obj
 0001:0002f1b0       ??0IOleWindow@@QEAA@XZ     00000001800301b0 f i CATImpl.obj
 0001:0002f1d0       ??0IPersist@@QEAA@XZ       00000001800301d0 f i CATImpl.obj
 0001:0002f1f0       ??0IPersistStorage@@QEAA@XZ 00000001800301f0 f i CATImpl.obj
 0001:0002f210       ??0IPersistStreamInit@@QEAA@XZ 0000000180030210 f i CATImpl.obj
 0001:0002f230       ??0IProvideClassInfo2@@QEAA@XZ 0000000180030230 f i CATImpl.obj
 0001:0002f250       ??0IProvideClassInfo@@QEAA@XZ 0000000180030250 f i CATImpl.obj
 0001:0002f270       ??0IQuickActivate@@QEAA@XZ 0000000180030270 f i CATImpl.obj
 0001:0002f290       ??0ISpecifyPropertyPages@@QEAA@XZ 0000000180030290 f i CATImpl.obj
 0001:0002f2b0       ??0IViewObject2@@QEAA@XZ   00000001800302b0 f i CATImpl.obj
 0001:0002f2d0       ??0IViewObject@@QEAA@XZ    00000001800302d0 f i CATImpl.obj
 0001:0002f2f0       ??0IViewObjectEx@@QEAA@XZ  00000001800302f0 f i CATImpl.obj
 0001:0002f310       ??0OposVariantResult@@QEAA@XZ 0000000180030310 f i CATImpl.obj
 0001:0002f330       ??0_CW@@QEAA@PEBD@Z        0000000180030330 f i CATImpl.obj
 0001:0002f380       ??0_CW@@QEAA@PEB_W@Z       0000000180030380 f i CATImpl.obj
 0001:0002f3d0       ??0_CWNCC@@QEAA@PEBD@Z     00000001800303d0 f i CATImpl.obj
 0001:0002f400       ??1?$CComControl@VCOPOSCAT@@V?$CWindowImpl@VCOPOSCAT@@VCWindow@ATL@@V?$CWinTraits@$0FGAAAAAA@$0A@@3@@ATL@@@ATL@@UEAA@XZ 0000000180030400 f i CATImpl.obj
 0001:0002f430       ??1?$CComPtr@UIDataAdviseHolder@@@ATL@@QEAA@XZ 0000000180030430 f i CATImpl.obj
 0001:0002f450       ??1?$CComPtr@UIOleAdviseHolder@@@ATL@@QEAA@XZ 0000000180030450 f i CATImpl.obj
 0001:0002f470       ??1?$CComPtr@UIOleInPlaceSiteWindowless@@@ATL@@QEAA@XZ 0000000180030470 f i CATImpl.obj
 0001:0002f490       ??1?$CComPtrBase@UIDataAdviseHolder@@@ATL@@QEAA@XZ 0000000180030490 f i CATImpl.obj
 0001:0002f4d0       ??1?$CComPtrBase@UIOleAdviseHolder@@@ATL@@QEAA@XZ 00000001800304d0 f i CATImpl.obj
 0001:0002f510       ??1?$CComPtrBase@UIOleInPlaceSiteWindowless@@@ATL@@QEAA@XZ 0000000180030510 f i CATImpl.obj
 0001:0002f550       ??1?$CComQIPtr@UIDispatch@@$1?_GUID_00020400_0000_0000_c000_000000000046@@3U__s_GUID@@B@ATL@@QEAA@XZ 0000000180030550 f i CATImpl.obj
 0001:0002f570       ??1?$CProxy_IOPOSEvents@VCOPOSCAT@@@@QEAA@XZ 0000000180030570 f i CATImpl.obj
 0001:0002f590       ??1?$CWindowImpl@VCOPOSCAT@@VCWindow@ATL@@V?$CWinTraits@$0FGAAAAAA@$0A@@3@@ATL@@UEAA@XZ 0000000180030590 f i CATImpl.obj
 0001:0002f5b0       ??1?$CWindowImplBaseT@VCWindow@ATL@@V?$CWinTraits@$0FGAAAAAA@$0A@@2@@ATL@@UEAA@XZ 00000001800305b0 f i CATImpl.obj
 0001:0002f5d0       ??1?$CWindowImplRoot@VCWindow@ATL@@@ATL@@UEAA@XZ 00000001800305d0 f i CATImpl.obj
 0001:0002f680       ??1?$IConnectionPointImpl@VCOPOSCAT@@$1?DIID__IOPOSCATEvents@@3U_GUID@@BVCComDynamicUnkArray@ATL@@@ATL@@QEAA@XZ 0000000180030680 f i CATImpl.obj
 0001:0002f700       ??1?$IConnectionPointImpl@VCOPOSCAT@@$1?IID_IPropertyNotifySink@@3U_GUID@@BVCComDynamicUnkArray@ATL@@@ATL@@QEAA@XZ 0000000180030700 f i CATImpl.obj
 0001:0002f780       ??1?$IPropertyNotifySinkCP@VCOPOSCAT@@VCComDynamicUnkArray@ATL@@@ATL@@QEAA@XZ 0000000180030780 f i CATImpl.obj
 0001:0002f7a0       ??1CComControlBase@ATL@@UEAA@XZ 00000001800307a0 f i CATImpl.obj
 0001:0002f880       ??1CComDynamicUnkArray@ATL@@QEAA@XZ 0000000180030880 f i CATImpl.obj
 0001:0002f8b0       ??1CDynamicStdCallThunk2@ATL@@QEAA@XZ 00000001800308b0 f i CATImpl.obj
 0001:0002f8e0       ??1CWndProcThunk@ATL@@QEAA@XZ 00000001800308e0 f i CATImpl.obj
 0001:0002f910       ??1OposVariantResult@@QEAA@XZ 0000000180030910 f i CATImpl.obj
 0001:0002f940       ??1_CW@@QEAA@XZ            0000000180030940 f i CATImpl.obj
 0001:0002f9a0       ??1_CWNCC@@QEAA@XZ         00000001800309a0 f i CATImpl.obj
 0001:0002f9c0       ??B_CW@@QEAAPEB_WXZ        00000001800309c0 f i CATImpl.obj
 0001:0002f9f0       ??B_CWNCC@@QEAAPEA_WXZ     00000001800309f0 f i CATImpl.obj
 0001:0002fa10       ??_EOposVariant@@QEAAPEAXI@Z 0000000180030a10 f i CATImpl.obj
 0001:0002fab0       ?EventClaim@COPOSCAT@@IEAAXXZ 0000000180030ab0 f i CATImpl.obj
 0001:0002fae0       ?EventClose@COPOSCAT@@IEAAXXZ 0000000180030ae0 f i CATImpl.obj
 0001:0002fb80       ?EventInit@COPOSCAT@@IEAAJXZ 0000000180030b80 f i CATImpl.obj
 0001:0002fe30       ?EventOpen@COPOSCAT@@IEAAXXZ 0000000180030e30 f i CATImpl.obj
 0001:0002fe70       ?EventPreCloseRelease@COPOSCAT@@IEAAXXZ 0000000180030e70 f i CATImpl.obj
 0001:0002fee0       ?EventUninit@COPOSCAT@@IEAAXXZ 0000000180030ee0 f i CATImpl.obj
 0001:00030000       ?EventWindowProc@COPOSCAT@@IEAA_JI_K_J@Z 0000000180031000 f i CATImpl.obj
 0001:000301c0       ?FireEventCleanup@COPOSCAT@@IEAAXXZ 00000001800311c0 f i CATImpl.obj
 0001:00030200       ?FireEventSetup@COPOSCAT@@IEAA_NXZ 0000000180031200 f i CATImpl.obj
 0001:00030270       ?GetModuleInstance@CComModule@ATL@@QEAAPEAUHINSTANCE__@@XZ 0000000180031270 f i CATImpl.obj
 0001:00030280       ?SetRC@COPOSCAT@@IEAAJJ@Z  0000000180031280 f i CATImpl.obj
 0001:000302a0       ?s_EventWindowProc@COPOSCAT@@KA_JPEAUHWND__@@I_K_J@Z 00000001800312a0 f i CATImpl.obj
 0001:00030340       _snwprintf                 0000000180031340 f i CATImpl.obj
 0001:000303d0       _vfwprintf_l               00000001800313d0 f i CATImpl.obj
 0001:00030420       _vsnwprintf                0000000180031420 f i CATImpl.obj
 0001:00030460       _vsnwprintf_l              0000000180031460 f i CATImpl.obj
 0001:000304e0       vfwprintf                  00000001800314e0 f i CATImpl.obj
 0001:00030511       DebugBreak                 0000000180031511 f   kernel32:KERNEL32.dll
 0001:00030517       Sleep                      0000000180031517 f   kernel32:KERNEL32.dll
 0001:0003051d       GetCurrentProcess          000000018003151d f   kernel32:KERNEL32.dll
 0001:00030523       TerminateProcess           0000000180031523 f   kernel32:KERNEL32.dll
 0001:00030529       MultiByteToWideChar        0000000180031529 f   kernel32:KERNEL32.dll
 0001:0003052f       WideCharToMultiByte        000000018003152f f   kernel32:KERNEL32.dll
 0001:00030535       DecodePointer              0000000180031535 f   kernel32:KERNEL32.dll
 0001:0003053b       RaiseException             000000018003153b f   kernel32:KERNEL32.dll
 0001:00030541       GetLastError               0000000180031541 f   kernel32:KERNEL32.dll
 0001:00030547       SetLastError               0000000180031547 f   kernel32:KERNEL32.dll
 0001:0003054d       InitializeCriticalSectionEx 000000018003154d f   kernel32:KERNEL32.dll
 0001:00030553       DeleteCriticalSection      0000000180031553 f   kernel32:KERNEL32.dll
 0001:00030559       EncodePointer              0000000180031559 f   kernel32:KERNEL32.dll
 0001:0003055f       EnterCriticalSection       000000018003155f f   kernel32:KERNEL32.dll
 0001:00030565       LeaveCriticalSection       0000000180031565 f   kernel32:KERNEL32.dll
 0001:0003056b       ResetEvent                 000000018003156b f   kernel32:KERNEL32.dll
 0001:00030571       ReleaseMutex               0000000180031571 f   kernel32:KERNEL32.dll
 0001:00030577       WaitForSingleObject        0000000180031577 f   kernel32:KERNEL32.dll
 0001:0003057d       GetCurrentThreadId         000000018003157d f   kernel32:KERNEL32.dll
 0001:00030583       DisableThreadLibraryCalls  0000000180031583 f   kernel32:KERNEL32.dll
 0001:00030589       FreeLibrary                0000000180031589 f   kernel32:KERNEL32.dll
 0001:0003058f       GetModuleFileNameW         000000018003158f f   kernel32:KERNEL32.dll
 0001:00030595       GetModuleHandleW           0000000180031595 f   kernel32:KERNEL32.dll
 0001:0003059b       GetProcAddress             000000018003159b f   kernel32:KERNEL32.dll
 0001:000305a1       LoadLibraryExW             00000001800315a1 f   kernel32:KERNEL32.dll
 0001:000305a7       LoadResource               00000001800315a7 f   kernel32:KERNEL32.dll
 0001:000305ad       SizeofResource             00000001800315ad f   kernel32:KERNEL32.dll
 0001:000305b3       FindResourceW              00000001800315b3 f   kernel32:KERNEL32.dll
 0001:000305b9       GlobalAlloc                00000001800315b9 f   kernel32:KERNEL32.dll
 0001:000305bf       GlobalUnlock               00000001800315bf f   kernel32:KERNEL32.dll
 0001:000305c5       GlobalLock                 00000001800315c5 f   kernel32:KERNEL32.dll
 0001:000305cb       MulDiv                     00000001800315cb f   kernel32:KERNEL32.dll
 0001:000305d1       lstrcmpiW                  00000001800315d1 f   kernel32:KERNEL32.dll
 0001:000305d7       DeleteFileW                00000001800315d7 f   kernel32:KERNEL32.dll
 0001:000305dd       CloseHandle                00000001800315dd f   kernel32:KERNEL32.dll
 0001:000305e3       SetEvent                   00000001800315e3 f   kernel32:KERNEL32.dll
 0001:000305e9       CreateMutexW               00000001800315e9 f   kernel32:KERNEL32.dll
 0001:000305ef       CreateEventW               00000001800315ef f   kernel32:KERNEL32.dll
 0001:000305f5       GetCurrentProcessId        00000001800315f5 f   kernel32:KERNEL32.dll
 0001:000305fb       LocalFree                  00000001800315fb f   kernel32:KERNEL32.dll
 0001:00030601       FormatMessageW             0000000180031601 f   kernel32:KERNEL32.dll
 0001:00030607       GetActiveWindow            0000000180031607 f   user32:USER32.dll
 0001:0003060d       MessageBoxW                000000018003160d f   user32:USER32.dll
 0001:00030613       UnregisterClassW           0000000180031613 f   user32:USER32.dll
 0001:00030619       PostMessageW               0000000180031619 f   user32:USER32.dll
 0001:0003061f       DefWindowProcW             000000018003161f f   user32:USER32.dll
 0001:00030625       CallWindowProcW            0000000180031625 f   user32:USER32.dll
 0001:0003062b       RegisterClassExW           000000018003162b f   user32:USER32.dll
 0001:00030631       GetClassInfoExW            0000000180031631 f   user32:USER32.dll
 0001:00030637       CreateWindowExW            0000000180031637 f   user32:USER32.dll
 0001:0003063d       IsWindow                   000000018003163d f   user32:USER32.dll
 0001:00030643       IsChild                    0000000180031643 f   user32:USER32.dll
 0001:00030649       DestroyWindow              0000000180031649 f   user32:USER32.dll
 0001:0003064f       ShowWindow                 000000018003164f f   user32:USER32.dll
 0001:00030655       SetWindowPos               0000000180031655 f   user32:USER32.dll
 0001:0003065b       CharNextW                  000000018003165b f   user32:USER32.dll
 0001:00030661       SetFocus                   0000000180031661 f   user32:USER32.dll
 0001:00030667       GetFocus                   0000000180031667 f   user32:USER32.dll
 0001:0003066d       GetKeyState                000000018003166d f   user32:USER32.dll
 0001:00030673       GetDC                      0000000180031673 f   user32:USER32.dll
 0001:00030679       ReleaseDC                  0000000180031679 f   user32:USER32.dll
 0001:0003067f       BeginPaint                 000000018003167f f   user32:USER32.dll
 0001:00030685       EndPaint                   0000000180031685 f   user32:USER32.dll
 0001:0003068b       SetWindowRgn               000000018003168b f   user32:USER32.dll
 0001:00030691       InvalidateRect             0000000180031691 f   user32:USER32.dll
 0001:00030697       GetClientRect              0000000180031697 f   user32:USER32.dll
 0001:0003069d       IntersectRect              000000018003169d f   user32:USER32.dll
 0001:000306a3       UnionRect                  00000001800316a3 f   user32:USER32.dll
 0001:000306a9       OffsetRect                 00000001800316a9 f   user32:USER32.dll
 0001:000306af       EqualRect                  00000001800316af f   user32:USER32.dll
 0001:000306b5       PtInRect                   00000001800316b5 f   user32:USER32.dll
 0001:000306bb       GetWindowLongPtrW          00000001800316bb f   user32:USER32.dll
 0001:000306c1       SetWindowLongPtrW          00000001800316c1 f   user32:USER32.dll
 0001:000306c7       GetParent                  00000001800316c7 f   user32:USER32.dll
 0001:000306cd       LoadCursorW                00000001800316cd f   user32:USER32.dll
 0001:000306d3       PeekMessageW               00000001800316d3 f   user32:USER32.dll
 0001:000306d9       RegisterClassW             00000001800316d9 f   user32:USER32.dll
 0001:000306df       LoadBitmapW                00000001800316df f   user32:USER32.dll
 0001:000306e5       CloseMetaFile              00000001800316e5 f   gdi32:GDI32.dll
 0001:000306eb       CreateDCW                  00000001800316eb f   gdi32:GDI32.dll
 0001:000306f1       CreateMetaFileW            00000001800316f1 f   gdi32:GDI32.dll
 0001:000306f7       CreateRectRgnIndirect      00000001800316f7 f   gdi32:GDI32.dll
 0001:000306fd       DeleteDC                   00000001800316fd f   gdi32:GDI32.dll
 0001:00030703       DeleteMetaFile             0000000180031703 f   gdi32:GDI32.dll
 0001:00030709       GetDeviceCaps              0000000180031709 f   gdi32:GDI32.dll
 0001:0003070f       RestoreDC                  000000018003170f f   gdi32:GDI32.dll
 0001:00030715       SaveDC                     0000000180031715 f   gdi32:GDI32.dll
 0001:0003071b       SetMapMode                 000000018003171b f   gdi32:GDI32.dll
 0001:00030721       LPtoDP                     0000000180031721 f   gdi32:GDI32.dll
 0001:00030727       SetViewportOrgEx           0000000180031727 f   gdi32:GDI32.dll
 0001:0003072d       SetWindowExtEx             000000018003172d f   gdi32:GDI32.dll
 0001:00030733       SetWindowOrgEx             0000000180031733 f   gdi32:GDI32.dll
 0001:00030739       BitBlt                     0000000180031739 f   gdi32:GDI32.dll
 0001:0003073f       CreateCompatibleDC         000000018003173f f   gdi32:GDI32.dll
 0001:00030745       DeleteObject               0000000180031745 f   gdi32:GDI32.dll
 0001:0003074b       SelectObject               000000018003174b f   gdi32:GDI32.dll
 0001:00030751       GetObjectW                 0000000180031751 f   gdi32:GDI32.dll
 0001:00030757       RegCloseKey                0000000180031757 f   advapi32:ADVAPI32.dll
 0001:0003075d       RegCreateKeyExW            000000018003175d f   advapi32:ADVAPI32.dll
 0001:00030763       RegDeleteKeyW              0000000180031763 f   advapi32:ADVAPI32.dll
 0001:00030769       RegDeleteValueW            0000000180031769 f   advapi32:ADVAPI32.dll
 0001:0003076f       RegEnumKeyExW              000000018003176f f   advapi32:ADVAPI32.dll
 0001:00030775       RegOpenKeyExW              0000000180031775 f   advapi32:ADVAPI32.dll
 0001:0003077b       RegQueryInfoKeyW           000000018003177b f   advapi32:ADVAPI32.dll
 0001:00030781       RegSetValueExW             0000000180031781 f   advapi32:ADVAPI32.dll
 0001:00030787       RegQueryValueExW           0000000180031787 f   advapi32:ADVAPI32.dll
 0001:0003078d       CoCreateInstance           000000018003178d f   ole32:ole32.dll
 0001:00030793       StringFromGUID2            0000000180031793 f   ole32:ole32.dll
 0001:00030799       CoTaskMemAlloc             0000000180031799 f   ole32:ole32.dll
 0001:0003079f       CoTaskMemRealloc           000000018003179f f   ole32:ole32.dll
 0001:000307a5       CoTaskMemFree              00000001800317a5 f   ole32:ole32.dll
 0001:000307ab       ReadClassStm               00000001800317ab f   ole32:ole32.dll
 0001:000307b1       WriteClassStm              00000001800317b1 f   ole32:ole32.dll
 0001:000307b7       CreateDataAdviseHolder     00000001800317b7 f   ole32:ole32.dll
 0001:000307bd       OleSaveToStream            00000001800317bd f   ole32:ole32.dll
 0001:000307c3       CreateOleAdviseHolder      00000001800317c3 f   ole32:ole32.dll
 0001:000307c9       OleRegGetUserType          00000001800317c9 f   ole32:ole32.dll
 0001:000307cf       OleRegGetMiscStatus        00000001800317cf f   ole32:ole32.dll
 0001:000307d5       OleRegEnumVerbs            00000001800317d5 f   ole32:ole32.dll
 0001:000307db       CLSIDFromProgID            00000001800317db f   ole32:ole32.dll
 0001:000307e1       SysAllocString             00000001800317e1 f   oleaut32:OLEAUT32.dll
 0001:000307e7       SysAllocStringLen          00000001800317e7 f   oleaut32:OLEAUT32.dll
 0001:000307ed       SysFreeString              00000001800317ed f   oleaut32:OLEAUT32.dll
 0001:000307f3       SysStringLen               00000001800317f3 f   oleaut32:OLEAUT32.dll
 0001:000307f9       VariantClear               00000001800317f9 f   oleaut32:OLEAUT32.dll
 0001:000307ff       VariantCopyInd             00000001800317ff f   oleaut32:OLEAUT32.dll
 0001:00030805       VariantChangeType          0000000180031805 f   oleaut32:OLEAUT32.dll
 0001:0003080b       SysStringByteLen           000000018003180b f   oleaut32:OLEAUT32.dll
 0001:00030811       SysAllocStringByteLen      0000000180031811 f   oleaut32:OLEAUT32.dll
 0001:00030817       VariantInit                0000000180031817 f   oleaut32:OLEAUT32.dll
 0001:0003081d       VarUI4FromStr              000000018003181d f   oleaut32:OLEAUT32.dll
 0001:00030823       LoadTypeLib                0000000180031823 f   oleaut32:OLEAUT32.dll
 0001:00030829       LoadRegTypeLib             0000000180031829 f   oleaut32:OLEAUT32.dll
 0001:0003082f       RegisterTypeLib            000000018003182f f   oleaut32:OLEAUT32.dll
 0001:00030835       UnRegisterTypeLib          0000000180031835 f   oleaut32:OLEAUT32.dll
 0001:0003083b       OleCreatePropertyFrame     000000018003183b f   oleaut32:OLEAUT32.dll
 0001:00030850       _RTC_AllocaHelper          0000000180031850 f   LIBCMTD:stack.obj
 0001:00030890       _RTC_CheckStackVars        0000000180031890 f   LIBCMTD:stack.obj
 0001:00030920       _RTC_CheckStackVars2       0000000180031920 f   LIBCMTD:stack.obj
 0001:00030a30       _CRT_RTC_INIT              0000000180031a30 f   LIBCMTD:init.obj
 0001:00030a40       _CRT_RTC_INITW             0000000180031a40 f   LIBCMTD:init.obj
 0001:00030a50       _RTC_InitBase              0000000180031a50 f   LIBCMTD:init.obj
 0001:00030a90       _RTC_Shutdown              0000000180031a90 f   LIBCMTD:init.obj
 0001:00030ac0       __GSHandlerCheck           0000000180031ac0 f   LIBCMTD:gshandler.obj
 0001:00030b00       __GSHandlerCheckCommon     0000000180031b00 f   LIBCMTD:gshandler.obj
 0001:00030c10       __security_check_cookie    0000000180031c10 f   LIBCMTD:amdsecgs.obj
 0001:00030c30       ??_U@YAPEAX_K@Z            0000000180031c30 f   LIBCMTD:new_array.obj
 0001:00030c50       ??3@YAXPEAX_K@Z            0000000180031c50 f   LIBCMTD:delete_scalar_size.obj
 0001:00030c70       ??_V@YAXPEAX@Z             0000000180031c70 f   LIBCMTD:delete_array.obj
 0001:00030c90       ??_V@YAXPEAX_K@Z           0000000180031c90 f   LIBCMTD:delete_array_size.obj
 0001:00030cb0       ?configure_argv@__scrt_narrow_argv_policy@@SAHXZ 0000000180031cb0 f i LIBCMTD:utility.obj
 0001:00030da0       ?initialize_environment@__scrt_narrow_environment_policy@@SAHXZ 0000000180031da0 f i LIBCMTD:utility.obj
 0001:00030e40       NtCurrentTeb               0000000180031e40 f i LIBCMTD:utility.obj
 0001:00030e50       __scrt_acquire_startup_lock 0000000180031e50 f   LIBCMTD:utility.obj
 0001:00030ec0       __scrt_dllmain_after_initialize_c 0000000180031ec0 f   LIBCMTD:utility.obj
 0001:00030ef0       __scrt_dllmain_before_initialize_c 0000000180031ef0 f   LIBCMTD:utility.obj
 0001:00030f10       __scrt_dllmain_crt_thread_attach 0000000180031f10 f   LIBCMTD:utility.obj
 0001:00030f40       __scrt_dllmain_crt_thread_detach 0000000180031f40 f   LIBCMTD:utility.obj
 0001:00030f60       __scrt_dllmain_exception_filter 0000000180031f60 f   LIBCMTD:utility.obj
 0001:00030fd0       __scrt_dllmain_uninitialize_c 0000000180031fd0 f   LIBCMTD:utility.obj
 0001:00031000       __scrt_dllmain_uninitialize_critical 0000000180032000 f   LIBCMTD:utility.obj
 0001:00031020       __scrt_initialize_crt      0000000180032020 f   LIBCMTD:utility.obj
 0001:00031070       __scrt_initialize_onexit_tables 0000000180032070 f   LIBCMTD:utility.obj
 0001:00031180       __scrt_is_nonwritable_in_current_image 0000000180032180 f   LIBCMTD:utility.obj
 0001:00031210       __scrt_release_startup_lock 0000000180032210 f   LIBCMTD:utility.obj
 0001:00031240       __scrt_uninitialize_crt    0000000180032240 f   LIBCMTD:utility.obj
 0001:00031280       _onexit                    0000000180032280 f   LIBCMTD:utility.obj
 0001:00031300       at_quick_exit              0000000180032300 f   LIBCMTD:utility.obj
 0001:00031350       atexit                     0000000180032350 f   LIBCMTD:utility.obj
 0001:00031390       ??3@YAXPEAX@Z              0000000180032390 f   LIBCMTD:delete_scalar.obj
 0001:000313b0       __raise_securityfailure    00000001800323b0 f   LIBCMTD:gs_report.obj
 0001:000313f0       __report_gsfailure         00000001800323f0 f   LIBCMTD:gs_report.obj
 0001:000314d0       __report_rangecheckfailure 00000001800324d0 f   LIBCMTD:gs_report.obj
 0001:000314f0       __report_securityfailure   00000001800324f0 f   LIBCMTD:gs_report.obj
 0001:00031590       __report_securityfailureEx 0000000180032590 f   LIBCMTD:gs_report.obj
 0001:00031950       _Init_thread_abort         0000000180032950 f   LIBCMTD:thread_safe_statics.obj
 0001:00031980       _Init_thread_footer        0000000180032980 f   LIBCMTD:thread_safe_statics.obj
 0001:000319e0       _Init_thread_header        00000001800329e0 f   LIBCMTD:thread_safe_statics.obj
 0001:00031a70       _Init_thread_lock          0000000180032a70 f   LIBCMTD:thread_safe_statics.obj
 0001:00031a90       _Init_thread_notify        0000000180032a90 f   LIBCMTD:thread_safe_statics.obj
 0001:00031af0       _Init_thread_unlock        0000000180032af0 f   LIBCMTD:thread_safe_statics.obj
 0001:00031b10       _Init_thread_wait          0000000180032b10 f   LIBCMTD:thread_safe_statics.obj
 0001:00031bc0       ??2@YAPEAX_KAEBUnothrow_t@std@@@Z 0000000180032bc0 f   LIBCMTD:new_scalar_nothrow.obj
 0001:00031c00       ??_U@YAPEAX_KAEBUnothrow_t@std@@@Z 0000000180032c00 f   LIBCMTD:new_array_nothrow.obj
 0001:00031c30       __GSHandlerCheck_SEH       0000000180032c30 f   LIBCMTD:gshandlerseh.obj
 0001:00031d00       _alloca_probe              0000000180032d00 f   LIBCMTD:chkstk.obj
 0001:00031d00       __chkstk                   0000000180032d00 f   LIBCMTD:chkstk.obj
 0001:00032160       _CRT_INIT                  0000000180033160 f   LIBCMTD:dll_dllmain.obj
 0001:00032190       _DllMainCRTStartup         0000000180033190 f   LIBCMTD:dll_dllmain.obj
 0001:00032260       ?_RTC_AllocaFailure@@YAXPEAXPEAU_RTC_ALLOCA_NODE@@H@Z 0000000180033260 f   LIBCMTD:error.obj
 0001:000323c0       ?_RTC_Failure@@YAXPEAXH@Z  00000001800333c0 f   LIBCMTD:error.obj
 0001:00032410       ?_RTC_StackFailure@@YAXPEAXPEBD@Z 0000000180033410 f   LIBCMTD:error.obj
 0001:00032840       _RTC_UninitUse             0000000180033840 f   LIBCMTD:error.obj
 0001:00032910       _vsprintf_s_l              0000000180033910 f i LIBCMTD:error.obj
 0001:00032980       sprintf_s                  0000000180033980 f i LIBCMTD:error.obj
 0001:000329b0       ?_RTC_GetErrorFunc@@YAP6AHHPEBDH00ZZPEBX@Z 00000001800339b0 f   LIBCMTD:userapi.obj
 0001:000329c0       ?_RTC_GetErrorFuncW@@YAP6AHHPEB_WH00ZZPEBX@Z 00000001800339c0 f   LIBCMTD:userapi.obj
 0001:000329d0       _RTC_GetErrDesc            00000001800339d0 f   LIBCMTD:userapi.obj
 0001:000329f0       _RTC_NumErrors             00000001800339f0 f   LIBCMTD:userapi.obj
 0001:00032a00       _RTC_SetErrorFunc          0000000180033a00 f   LIBCMTD:userapi.obj
 0001:00032a20       _RTC_SetErrorFuncW         0000000180033a20 f   LIBCMTD:userapi.obj
 0001:00032a40       _RTC_SetErrorType          0000000180033a40 f   LIBCMTD:userapi.obj
 0001:00032a60       ??2@YAPEAX_K@Z             0000000180033a60 f   LIBCMTD:new_scalar.obj
 0001:00032ab0       __isa_available_init       0000000180033ab0 f   LIBCMTD:cpu_disp.obj
 0001:00032e50       _get_startup_argv_mode     0000000180033e50 f   LIBCMTD:argv_mode.obj
 0001:00032e60       __scrt_is_ucrt_dll_in_use  0000000180033e60 f   LIBCMTD:ucrt_detection.obj
 0001:00032e90       __crt_debugger_hook        0000000180033e90 f   LIBCMTD:utility_desktop.obj
 0001:00032ea0       __scrt_fastfail            0000000180033ea0 f   LIBCMTD:utility_desktop.obj
 0001:00033040       __scrt_get_show_window_mode 0000000180034040 f   LIBCMTD:utility_desktop.obj
 0001:000330a0       __scrt_initialize_mta      00000001800340a0 f   LIBCMTD:utility_desktop.obj
 0001:000330b0       __scrt_initialize_winrt    00000001800340b0 f   LIBCMTD:utility_desktop.obj
 0001:000330c0       __scrt_is_managed_app      00000001800340c0 f   LIBCMTD:utility_desktop.obj
 0001:00033170       __scrt_set_unhandled_exception_filter 0000000180034170 f   LIBCMTD:utility_desktop.obj
 0001:00033190       __scrt_stub_for_initialize_mta 0000000180034190 f   LIBCMTD:utility_desktop.obj
 0001:00033190       __scrt_exe_initialize_mta  0000000180034190 f   LIBCMTD:utility_desktop.obj
 0001:000331a0       __scrt_unhandled_exception_filter 00000001800341a0 f   LIBCMTD:utility_desktop.obj
 0001:00033240       _guard_check_icall_nop     0000000180034240 f i LIBCMTD:guard_support.obj
 0001:00033250       ReadNoFence64              0000000180034250 f i LIBCMTD:guard_support.obj
 0001:00033270       ReadPointerNoFence         0000000180034270 f i LIBCMTD:guard_support.obj
 0001:00033290       __castguard_check_failure_debugbreak 0000000180034290 f i LIBCMTD:guard_support.obj
 0001:000332b0       __castguard_check_failure_fastfail 00000001800342b0 f i LIBCMTD:guard_support.obj
 0001:000332e0       __castguard_check_failure_nop 00000001800342e0 f i LIBCMTD:guard_support.obj
 0001:000332f0       __castguard_check_failure_os_handled 00000001800342f0 f i LIBCMTD:guard_support.obj
 0001:000333c0       __castguard_slow_path_check_debugbreak 00000001800343c0 f i LIBCMTD:guard_support.obj
 0001:00033400       __castguard_slow_path_check_fastfail 0000000180034400 f i LIBCMTD:guard_support.obj
 0001:00033450       __castguard_slow_path_check_nop 0000000180034450 f i LIBCMTD:guard_support.obj
 0001:00033460       __castguard_slow_path_check_os_handled 0000000180034460 f i LIBCMTD:guard_support.obj
 0001:00033520       _guard_icall_checks_enforced 0000000180034520 f i LIBCMTD:guard_support.obj
 0001:00033560       _guard_rf_checks_enforced  0000000180034560 f i LIBCMTD:guard_support.obj
 0001:00033630       __security_init_cookie     0000000180034630 f   LIBCMTD:gs_support.obj
 0001:000336b0       ?__scrt_initialize_type_info@@YAXXZ 00000001800346b0 f   LIBCMTD:tncleanup.obj
 0001:000336d0       ?__scrt_uninitialize_type_info@@YAXXZ 00000001800346d0 f   LIBCMTD:tncleanup.obj
 0001:000336f0       __local_stdio_scanf_options 00000001800346f0 f i LIBCMTD:default_local_stdio_options.obj
 0001:00033700       __scrt_initialize_default_local_stdio_options 0000000180034700 f   LIBCMTD:default_local_stdio_options.obj
 0001:00033750       __scrt_get_dyn_tls_init_callback 0000000180034750 f   LIBCMTD:dyn_tls_init.obj
 0001:00033760       _RTC_Initialize            0000000180034760 f   LIBCMTD:initsect.obj
 0001:000337b0       _RTC_Terminate             00000001800347b0 f   LIBCMTD:initsect.obj
 0001:00033d20       ?_RTC_GetSrcLine@@YAHPEAEPEA_WKPEAH1K@Z 0000000180034d20 f   LIBCMTD:pdblkup.obj
 0001:000340f0       ??0bad_alloc@std@@AEAA@QEBD@Z 00000001800350f0 f i LIBCMTD:throw_bad_alloc.obj
 0001:00034130       ??0bad_alloc@std@@QEAA@AEBV01@@Z 0000000180035130 f i LIBCMTD:throw_bad_alloc.obj
 0001:00034170       ??0bad_alloc@std@@QEAA@XZ  0000000180035170 f i LIBCMTD:throw_bad_alloc.obj
 0001:000341b0       ??0bad_array_new_length@std@@QEAA@AEBV01@@Z 00000001800351b0 f i LIBCMTD:throw_bad_alloc.obj
 0001:000341f0       ??0bad_array_new_length@std@@QEAA@XZ 00000001800351f0 f i LIBCMTD:throw_bad_alloc.obj
 0001:00034230       ??0exception@std@@QEAA@AEBV01@@Z 0000000180035230 f i LIBCMTD:throw_bad_alloc.obj
 0001:00034290       ??0exception@std@@QEAA@QEBDH@Z 0000000180035290 f i LIBCMTD:throw_bad_alloc.obj
 0001:000342e0       ??1bad_alloc@std@@UEAA@XZ  00000001800352e0 f i LIBCMTD:throw_bad_alloc.obj
 0001:00034300       ??1bad_array_new_length@std@@UEAA@XZ 0000000180035300 f i LIBCMTD:throw_bad_alloc.obj
 0001:00034320       ??1exception@std@@UEAA@XZ  0000000180035320 f i LIBCMTD:throw_bad_alloc.obj
 0001:00034350       ??_Ebad_alloc@std@@UEAAPEAXI@Z 0000000180035350 f i LIBCMTD:throw_bad_alloc.obj
 0001:00034350       ??_Gbad_alloc@std@@UEAAPEAXI@Z 0000000180035350 f i LIBCMTD:throw_bad_alloc.obj
 0001:00034390       ??_Ebad_array_new_length@std@@UEAAPEAXI@Z 0000000180035390 f i LIBCMTD:throw_bad_alloc.obj
 0001:00034390       ??_Gbad_array_new_length@std@@UEAAPEAXI@Z 0000000180035390 f i LIBCMTD:throw_bad_alloc.obj
 0001:000343d0       ??_Gexception@std@@UEAAPEAXI@Z 00000001800353d0 f i LIBCMTD:throw_bad_alloc.obj
 0001:000343d0       ??_Eexception@std@@UEAAPEAXI@Z 00000001800353d0 f i LIBCMTD:throw_bad_alloc.obj
 0001:00034410       ?__scrt_throw_std_bad_alloc@@YAXXZ 0000000180035410 f   LIBCMTD:throw_bad_alloc.obj
 0001:00034440       ?__scrt_throw_std_bad_array_new_length@@YAXXZ 0000000180035440 f   LIBCMTD:throw_bad_alloc.obj
 0001:00034470       ?what@exception@std@@UEBAPEBDXZ 0000000180035470 f i LIBCMTD:throw_bad_alloc.obj
 0001:000344b0       ??1type_info@@UEAA@XZ      00000001800354b0 f   LIBCMTD:std_type_info_static.obj
 0001:000344d0       ??_Etype_info@@UEAAPEAXI@Z 00000001800354d0 f i LIBCMTD:std_type_info_static.obj
 0001:000344d0       ??_Gtype_info@@UEAAPEAXI@Z 00000001800354d0 f i LIBCMTD:std_type_info_static.obj
 0001:0003450c       ??$?2PEAUHINSTANCE__@@@Wrapper@?$CSimpleArray@PEAUHINSTANCE__@@V?$CSimpleArrayEqualHelper@PEAUHINSTANCE__@@@ATL@@@ATL@@SAPEAX_KPEAPEAUHINSTANCE__@@@Z 000000018003550c f i atls:atlbase.obj
 0001:00034510       ??0?$CSimpleArray@PEAUHINSTANCE__@@V?$CSimpleArrayEqualHelper@PEAUHINSTANCE__@@@ATL@@@ATL@@QEAA@XZ 0000000180035510 f i atls:atlbase.obj
 0001:00034520       ??0CAtlBaseModule@ATL@@QEAA@XZ 0000000180035520 f   atls:atlbase.obj
 0001:000345c8       ??0Wrapper@?$CSimpleArray@PEAUHINSTANCE__@@V?$CSimpleArrayEqualHelper@PEAUHINSTANCE__@@@ATL@@@ATL@@QEAA@AEBQEAUHINSTANCE__@@@Z 00000001800355c8 f i atls:atlbase.obj
 0001:000345d4       ??0_ATL_BASE_MODULE70@ATL@@QEAA@XZ 00000001800355d4 f i atls:atlbase.obj
 0001:00034600       ??1?$CSimpleArray@PEAUHINSTANCE__@@V?$CSimpleArrayEqualHelper@PEAUHINSTANCE__@@@ATL@@@ATL@@QEAA@XZ 0000000180035600 f i atls:atlbase.obj
 0001:00034628       ??1CAtlBaseModule@ATL@@QEAA@XZ 0000000180035628 f   atls:atlbase.obj
 0001:0003465c       ??1_ATL_BASE_MODULE70@ATL@@QEAA@XZ 000000018003565c f i atls:atlbase.obj
 0001:00034688       ??A?$CSimpleArray@PEAUHINSTANCE__@@V?$CSimpleArrayEqualHelper@PEAUHINSTANCE__@@@ATL@@@ATL@@QEAAAEAPEAUHINSTANCE__@@H@Z 0000000180035688 f i atls:atlbase.obj
 0001:000346b4       ?Add@?$CSimpleArray@PEAUHINSTANCE__@@V?$CSimpleArrayEqualHelper@PEAUHINSTANCE__@@@ATL@@@ATL@@QEAAHAEBQEAUHINSTANCE__@@@Z 00000001800356b4 f i atls:atlbase.obj
 0001:00034754       ?AddResourceInstance@CAtlBaseModule@ATL@@QEAA_NPEAUHINSTANCE__@@@Z 0000000180035754 f   atls:atlbase.obj
 0001:0003479c       ?GetHInstanceAt@CAtlBaseModule@ATL@@QEAAPEAUHINSTANCE__@@H@Z 000000018003579c f   atls:atlbase.obj
 0001:00034814       ?GetSize@?$CSimpleArray@PEAUHINSTANCE__@@V?$CSimpleArrayEqualHelper@PEAUHINSTANCE__@@@ATL@@@ATL@@QEBAHXZ 0000000180035814 f i atls:atlbase.obj
 0001:00034818       ?InternalSetAtIndex@?$CSimpleArray@PEAUHINSTANCE__@@V?$CSimpleArrayEqualHelper@PEAUHINSTANCE__@@@ATL@@@ATL@@QEAAXHAEBQEAUHINSTANCE__@@@Z 0000000180035818 f i atls:atlbase.obj
 0001:00034830       ?RemoveAll@?$CSimpleArray@PEAUHINSTANCE__@@V?$CSimpleArrayEqualHelper@PEAUHINSTANCE__@@@ATL@@@ATL@@QEAAXXZ 0000000180035830 f i atls:atlbase.obj
 0001:00034858       ?RemoveAt@?$CSimpleArray@PEAUHINSTANCE__@@V?$CSimpleArrayEqualHelper@PEAUHINSTANCE__@@@ATL@@@ATL@@QEAAHH@Z 0000000180035858 f i atls:atlbase.obj
 0001:000348f0       ?RemoveResourceInstance@CAtlBaseModule@ATL@@QEAA_NPEAUHINSTANCE__@@@Z 00000001800358f0 f   atls:atlbase.obj
 0001:00034978       ?memmove_s@Checked@ATL@@YAXPEAX_KPEBX1@Z 0000000180035978 f i atls:atlbase.obj
 0001:00034e20       ?GetCodeAddress@_stdcallthunk@ATL@@QEAAPEAXXZ 0000000180035e20 f i atls:atlthunk.obj
 0001:00034e4c       ?Init@_stdcallthunk@ATL@@QEAAH_KPEAX@Z 0000000180035e4c f i atls:atlthunk.obj
 0001:00034e9c       ?__AllocStdCallThunk@@YAPEAXXZ 0000000180035e9c f   atls:atlthunk.obj
 0001:00034ea4       ?__AllocStdCallThunk@ATL@@YAPEAXXZ 0000000180035ea4 f   atls:atlthunk.obj
 0001:00034eac       ?__AllocStdCallThunk_cmn@@YAPEAXXZ 0000000180035eac f   atls:atlthunk.obj
 0001:00034f84       ?__FreeStdCallThunk@@YAXPEAX@Z 0000000180035f84 f   atls:atlthunk.obj
 0001:00034fa4       ?__FreeStdCallThunk@ATL@@YAXPEAX@Z 0000000180035fa4 f   atls:atlthunk.obj
 0001:00034fc4       ?__FreeStdCallThunk_cmn@@YAXPEAX@Z 0000000180035fc4 f   atls:atlthunk.obj
 0001:00035064       AtlThunk_AllocateData      0000000180036064 f   atls:atlthunk.obj
 0001:000350e0       AtlThunk_DataToCode        00000001800360e0 f   atls:atlthunk.obj
 0001:00035134       AtlThunk_FreeData          0000000180036134 f   atls:atlthunk.obj
 0001:00035194       AtlThunk_InitData          0000000180036194 f   atls:atlthunk.obj
 0001:00035250       memset_repmovs             0000000180036250 f   libvcruntimed:memset.obj
 0001:00035270       memset                     0000000180036270 f   libvcruntimed:memset.obj
 0001:00035400       ??$__crt_interlocked_exchange_pointer@$$A6AXXZP6AXXZ@@YAP6AXXZPEDS6AXXZQ6AXXZ@Z 0000000180036400 f i libvcruntimed:purevirt.obj
 0001:00035420       ??$__crt_interlocked_read_pointer@$$A6AXXZ@@YAP6AXXZPEDS6AXXZ@Z 0000000180036420 f i libvcruntimed:purevirt.obj
 0001:00035440       ?__crt_interlocked_read_64@@YA_JPED_J@Z 0000000180036440 f i libvcruntimed:purevirt.obj
 0001:00035460       _get_purecall_handler      0000000180036460 f   libvcruntimed:purevirt.obj
 0001:00035480       _purecall                  0000000180036480 f   libvcruntimed:purevirt.obj
 0001:000354c0       _set_purecall_handler      00000001800364c0 f   libvcruntimed:purevirt.obj
 0001:000354f0       memcmp                     00000001800364f0 f   libvcruntimed:memcmp.obj
 0001:000355d0       memcpy_repmovs             00000001800365d0 f   libvcruntimed:memcpy.obj
 0001:000355f0       memmove                    00000001800365f0 f   libvcruntimed:memcpy.obj
 0001:000355f0       memcpy                     00000001800365f0 f   libvcruntimed:memcpy.obj
 0001:00035c70       wcsstr                     0000000180036c70 f   libvcruntimed:wcsstr.obj
 0001:000362d0       __vcrt_initialize          00000001800372d0 f   libvcruntimed:initialization.obj
 0001:00036310       __vcrt_thread_attach       0000000180037310 f   libvcruntimed:initialization.obj
 0001:00036330       __vcrt_thread_detach       0000000180037330 f   libvcruntimed:initialization.obj
 0001:00036350       __vcrt_uninitialize        0000000180037350 f   libvcruntimed:initialization.obj
 0001:00036370       __vcrt_uninitialize_critical 0000000180037370 f   libvcruntimed:initialization.obj
 0001:00036390       __C_specific_handler       0000000180037390 f   libvcruntimed:riscchandler.obj
 0001:00036800       ??$?0AEAViterator@TryBlockMap4@FH4@@AEAV012@$0A@@?$pair@Viterator@TryBlockMap4@FH4@@V123@@std@@QEAA@AEAViterator@TryBlockMap4@FH4@@0@Z 0000000180037800 f i libvcruntimed:risctrnsctrl.obj
 0001:00036860       ??$?0AEAViterator@TryBlockMap@__FrameHandler3@@AEAV012@$0A@@?$pair@Viterator@TryBlockMap@__FrameHandler3@@V123@@std@@QEAA@AEAViterator@TryBlockMap@__FrameHandler3@@0@Z 0000000180037860 f i libvcruntimed:risctrnsctrl.obj
 0001:00036a30       ??$_CallSETranslator@V__FrameHandler3@@@@YAHPEAUEHExceptionRecord@@PEA_KPEAU_CONTEXT@@PEAU_xDISPATCHER_CONTEXT@@PEBU_s_FuncInfo@@K1H@Z 0000000180037a30 f i libvcruntimed:risctrnsctrl.obj
 0001:00036ac0       ??$_CallSETranslator@V__FrameHandler4@@@@YAHPEAUEHExceptionRecord@@PEA_KPEAU_CONTEXT@@PEAU_xDISPATCHER_CONTEXT@@PEAUFuncInfo4@FH4@@K1H@Z 0000000180037ac0 f i libvcruntimed:risctrnsctrl.obj
 0001:00036b50       ??$forward@AEAViterator@TryBlockMap4@FH4@@@std@@YAAEAViterator@TryBlockMap4@FH4@@AEAV123@@Z 0000000180037b50 f i libvcruntimed:risctrnsctrl.obj
 0001:00036b60       ??$forward@AEAViterator@TryBlockMap@__FrameHandler3@@@std@@YAAEAViterator@TryBlockMap@__FrameHandler3@@AEAV123@@Z 0000000180037b60 f i libvcruntimed:risctrnsctrl.obj
 0001:00036b70       ??0FuncInfo4@FH4@@QEAA@XZ  0000000180037b70 f i libvcruntimed:risctrnsctrl.obj
 0001:00036be0       ??0FuncInfoHeader@FH4@@QEAA@XZ 0000000180037be0 f i libvcruntimed:risctrnsctrl.obj
 0001:00036c00       ??0iterator@TryBlockMap4@FH4@@QEAA@AEAV12@I@Z 0000000180037c00 f i libvcruntimed:risctrnsctrl.obj
 0001:00036c30       ??0iterator@TryBlockMap@__FrameHandler3@@QEAA@AEAV12@I@Z 0000000180037c30 f i libvcruntimed:risctrnsctrl.obj
 0001:00036c60       ??4iterator@TryBlockMap4@FH4@@QEAAAEAV012@AEBV012@@Z 0000000180037c60 f i libvcruntimed:risctrnsctrl.obj
 0001:00036c80       ??9iterator@TryBlockMap4@FH4@@QEBA_NAEBV012@@Z 0000000180037c80 f i libvcruntimed:risctrnsctrl.obj
 0001:00036cc0       ??Diterator@TryBlockMap4@FH4@@QEAA?AUTryBlockMapEntry4@2@XZ 0000000180037cc0 f i libvcruntimed:risctrnsctrl.obj
 0001:00036cf0       ??Eiterator@TryBlockMap4@FH4@@QEAAAEAV012@XZ 0000000180037cf0 f i libvcruntimed:risctrnsctrl.obj
 0001:00036d30       ?CatchTryBlock@__FrameHandler3@@SAPEBU_s_TryBlockMapEntry@@PEBU_s_FuncInfo@@H@Z 0000000180037d30 f   libvcruntimed:risctrnsctrl.obj
 0001:00036dc0       ?DecompFuncInfo@FH4@@YA_JPEAEAEAUFuncInfo4@1@_KH@Z 0000000180037dc0 f i libvcruntimed:risctrnsctrl.obj
 0001:00036e00       ?DecompFuncInfo@FH4@@YA_JPEAEAEAUFuncInfo4@1@_KH_N@Z 0000000180037e00 f i libvcruntimed:risctrnsctrl.obj
 0001:00036fd0       ?DecompTryBlock@TryBlockMap4@FH4@@AEAAXXZ 0000000180037fd0 f i libvcruntimed:risctrnsctrl.obj
 0001:00037050       ?ExecutionInCatch@__FrameHandler3@@SA_NPEAU_xDISPATCHER_CONTEXT@@PEBU_s_FuncInfo@@@Z 0000000180038050 f   libvcruntimed:risctrnsctrl.obj
 0001:000370a0       ?ExecutionInCatch@__FrameHandler4@@SA_NPEAU_xDISPATCHER_CONTEXT@@PEAUFuncInfo4@FH4@@@Z 00000001800380a0 f   libvcruntimed:risctrnsctrl.obj
 0001:000370c0       ?FrameUnwindToEmptyState@__FrameHandler3@@SAXPEA_KPEAU_xDISPATCHER_CONTEXT@@PEBU_s_FuncInfo@@@Z 00000001800380c0 f   libvcruntimed:risctrnsctrl.obj
 0001:00037160       ?FrameUnwindToEmptyState@__FrameHandler4@@SAXPEA_KPEAU_xDISPATCHER_CONTEXT@@PEAUFuncInfo4@FH4@@@Z 0000000180038160 f   libvcruntimed:risctrnsctrl.obj
 0001:000371b0       ?GetEstablisherFrame@__FrameHandler3@@SAPEA_KPEA_KPEAU_xDISPATCHER_CONTEXT@@PEBU_s_FuncInfo@@0@Z 00000001800381b0 f   libvcruntimed:risctrnsctrl.obj
 0001:00037320       ?GetEstablisherFrame@__FrameHandler4@@SAPEA_KPEA_KPEAU_xDISPATCHER_CONTEXT@@PEAUFuncInfo4@FH4@@0@Z 0000000180038320 f   libvcruntimed:risctrnsctrl.obj
 0001:00037390       ?GetRangeOfTrysToCheck@__FrameHandler3@@SA?AU?$pair@Viterator@TryBlockMap@__FrameHandler3@@V123@@std@@AEAVTryBlockMap@1@HPEAU_xDISPATCHER_CONTEXT@@PEBU_s_FuncInfo@@H@Z 0000000180038390 f   libvcruntimed:risctrnsctrl.obj
 0001:000375d0       ?GetRangeOfTrysToCheck@__FrameHandler4@@SA?AU?$pair@Viterator@TryBlockMap4@FH4@@V123@@std@@AEAVTryBlockMap4@FH4@@HPEAU_xDISPATCHER_CONTEXT@@PEAUFuncInfo4@5@H@Z 00000001800385d0 f   libvcruntimed:risctrnsctrl.obj
 0001:00037780       ?ReadInt@FH4@@YAHPEAPEAE@Z 0000000180038780 f i libvcruntimed:risctrnsctrl.obj
 0001:000377c0       ?ReadUnsigned@FH4@@YAIPEAPEAE@Z 00000001800387c0 f i libvcruntimed:risctrnsctrl.obj
 0001:00037850       ?UnwindNestedFrames@__FrameHandler3@@SAXPEA_KPEAUEHExceptionRecord@@PEAU_CONTEXT@@0PEAXPEBU_s_FuncInfo@@HHPEBU_s_HandlerType@@PEAU_xDISPATCHER_CONTEXT@@E@Z 0000000180038850 f   libvcruntimed:risctrnsctrl.obj
 0001:000379c0       ?UnwindNestedFrames@__FrameHandler4@@SAXPEA_KPEAUEHExceptionRecord@@PEAU_CONTEXT@@0PEAXPEAUFuncInfo4@FH4@@HHPEAUHandlerType4@5@PEAU_xDISPATCHER_CONTEXT@@E@Z 00000001800389c0 f   libvcruntimed:risctrnsctrl.obj
 0001:00037b90       ?begin@TryBlockMap4@FH4@@QEAA?AViterator@12@XZ 0000000180038b90 f i libvcruntimed:risctrnsctrl.obj
 0001:00037bc0       ?end@TryBlockMap4@FH4@@QEAA?AViterator@12@XZ 0000000180038bc0 f i libvcruntimed:risctrnsctrl.obj
 0001:00037bf0       ?imageRelToByteBuffer@FH4@@YAPEAE_KH@Z 0000000180038bf0 f i libvcruntimed:risctrnsctrl.obj
 0001:00037c10       ?incrementToSentinel@iterator@TryBlockMap4@FH4@@QEAAXXZ 0000000180038c10 f i libvcruntimed:risctrnsctrl.obj
 0001:00037c30       ?setBuffer@TryBlockMap4@FH4@@QEAAXViterator@12@@Z 0000000180038c30 f i libvcruntimed:risctrnsctrl.obj
 0001:00037ca0       _CreateFrameInfo           0000000180038ca0 f   libvcruntimed:risctrnsctrl.obj
 0001:00037d10       _FindAndUnlinkFrame        0000000180038d10 f   libvcruntimed:risctrnsctrl.obj
 0001:00037d90       _GetImageBase              0000000180038d90 f   libvcruntimed:risctrnsctrl.obj
 0001:00037db0       _GetThrowImageBase         0000000180038db0 f   libvcruntimed:risctrnsctrl.obj
 0001:00037dd0       _SetImageBase              0000000180038dd0 f   libvcruntimed:risctrnsctrl.obj
 0001:00037df0       _SetThrowImageBase         0000000180038df0 f   libvcruntimed:risctrnsctrl.obj
 0001:00037e10       __CxxFrameHandler          0000000180038e10 f   libvcruntimed:risctrnsctrl.obj
 0001:00037e50       __CxxFrameHandler2         0000000180038e50 f   libvcruntimed:risctrnsctrl.obj
 0001:00037e90       __CxxFrameHandler3         0000000180038e90 f   libvcruntimed:risctrnsctrl.obj
 0001:00037f70       __CxxFrameHandler4         0000000180038f70 f   libvcruntimed:risctrnsctrl.obj
 0001:00038080       __C_specific_handler_noexcept 0000000180039080 f   libvcruntimed:chandler_noexcept.obj
 0001:00038110       __DestructExceptionObject  0000000180039110 f   libvcruntimed:ehhelpers.obj
 0001:00038210       ?_CallMemberFunction0@@YAXQEAX0@Z 0000000180039210 f i libvcruntimed:ehhelpers.obj
 0001:000382e0       ?raw_name@type_info@@QEBAPEBDXZ 00000001800392e0 f i libvcruntimed:ehhelpers.obj
 0001:000382f0       _IsExceptionObjectToBeDestroyed 00000001800392f0 f   libvcruntimed:ehhelpers.obj
 0001:00038340       _SetWinRTOutOfMemoryExceptionCallback 0000000180039340 f   libvcruntimed:ehhelpers.obj
 0001:00038360       __AdjustPointer            0000000180039360 f   libvcruntimed:ehhelpers.obj
 0001:000383e0       __FrameUnwindFilter        00000001800393e0 f   libvcruntimed:ehhelpers.obj
 0001:00038490       __GetPlatformExceptionInfo 0000000180039490 f   libvcruntimed:ehhelpers.obj
 0001:00038540       __current_exception        0000000180039540 f   libvcruntimed:ehhelpers.obj
 0001:00038560       __current_exception_context 0000000180039560 f   libvcruntimed:ehhelpers.obj
 0001:00038580       __processing_throw         0000000180039580 f   libvcruntimed:ehhelpers.obj
 0001:000385a0       __std_terminate            00000001800395a0 f   libvcruntimed:ehhelpers.obj
 0001:000385b0       _is_exception_typeof       00000001800395b0 f   libvcruntimed:ehhelpers.obj
 0001:00038740       ??$?RD@__crt_internal_free_policy@@QEBAXQEBD@Z 0000000180039740 f i libvcruntimed:std_type_info.obj
 0001:00038770       ??$?RX@__crt_internal_free_policy@@QEBAXQEBX@Z 0000000180039770 f i libvcruntimed:std_type_info.obj
 0001:000387a0       ??$__crt_interlocked_compare_exchange_pointer@$$CBDPEAD$$T@@YAPEBDPEDSEBDQEAD$$T@Z 00000001800397a0 f i libvcruntimed:std_type_info.obj
 0001:000387e0       ??$__crt_interlocked_read_pointer@$$CBD@@YAPEBDPEDSEBD@Z 00000001800397e0 f i libvcruntimed:std_type_info.obj
 0001:00038800       ??0?$__crt_unique_heap_ptr@DU__crt_internal_free_policy@@@@QEAA@QEAD@Z 0000000180039800 f i libvcruntimed:std_type_info.obj
 0001:00038820       ??0?$__crt_unique_heap_ptr@XU__crt_internal_free_policy@@@@QEAA@QEAX@Z 0000000180039820 f i libvcruntimed:std_type_info.obj
 0001:00038840       ??1?$__crt_unique_heap_ptr@DU__crt_internal_free_policy@@@@QEAA@XZ 0000000180039840 f i libvcruntimed:std_type_info.obj
 0001:00038860       ??1?$__crt_unique_heap_ptr@XU__crt_internal_free_policy@@@@QEAA@XZ 0000000180039860 f i libvcruntimed:std_type_info.obj
 0001:00038880       ??B?$__crt_unique_heap_ptr@DU__crt_internal_free_policy@@@@QEBA_NXZ 0000000180039880 f i libvcruntimed:std_type_info.obj
 0001:000388a0       ??B?$__crt_unique_heap_ptr@XU__crt_internal_free_policy@@@@QEBA_NXZ 00000001800398a0 f i libvcruntimed:std_type_info.obj
 0001:00038940       ?detach@?$__crt_unique_heap_ptr@XU__crt_internal_free_policy@@@@QEAAPEAXXZ 0000000180039940 f i libvcruntimed:std_type_info.obj
 0001:00038970       ?get@?$__crt_unique_heap_ptr@DU__crt_internal_free_policy@@@@QEBAPEADXZ 0000000180039970 f i libvcruntimed:std_type_info.obj
 0001:00038980       ?get@?$__crt_unique_heap_ptr@XU__crt_internal_free_policy@@@@QEBAPEAXXZ 0000000180039980 f i libvcruntimed:std_type_info.obj
 0001:00038990       ?is_valid@?$__crt_unique_heap_ptr@DU__crt_internal_free_policy@@@@QEBA_NXZ 0000000180039990 f i libvcruntimed:std_type_info.obj
 0001:000389c0       ?is_valid@?$__crt_unique_heap_ptr@XU__crt_internal_free_policy@@@@QEBA_NXZ 00000001800399c0 f i libvcruntimed:std_type_info.obj
 0001:000389f0       ?release@?$__crt_unique_heap_ptr@DU__crt_internal_free_policy@@@@QEAAXXZ 00000001800399f0 f i libvcruntimed:std_type_info.obj
 0001:00038a20       ?release@?$__crt_unique_heap_ptr@XU__crt_internal_free_policy@@@@QEAAXXZ 0000000180039a20 f i libvcruntimed:std_type_info.obj
 0001:00038a50       __std_type_info_compare    0000000180039a50 f   libvcruntimed:std_type_info.obj
 0001:00038a90       __std_type_info_destroy_list 0000000180039a90 f   libvcruntimed:std_type_info.obj
 0001:00038af0       __std_type_info_hash       0000000180039af0 f   libvcruntimed:std_type_info.obj
 0001:00038ba0       __std_type_info_name       0000000180039ba0 f   libvcruntimed:std_type_info.obj
 0001:00038e50       __vcrt_GetModuleFileNameW  0000000180039e50 f   libvcruntimed:winapi_thunks.obj
 0001:00038e80       __vcrt_GetModuleHandleW    0000000180039e80 f   libvcruntimed:winapi_thunks.obj
 0001:00038ea0       __vcrt_LoadLibraryExW      0000000180039ea0 f   libvcruntimed:winapi_thunks.obj
 0001:00038ed0       ??$?RD@__crt_public_free_policy@@QEBAXQEBD@Z 0000000180039ed0 f i libvcruntimed:std_exception.obj
 0001:00038ef0       ??0?$__crt_unique_heap_ptr@DU__crt_public_free_policy@@@@QEAA@QEAD@Z 0000000180039ef0 f i libvcruntimed:std_exception.obj
 0001:00038f10       ??1?$__crt_unique_heap_ptr@DU__crt_public_free_policy@@@@QEAA@XZ 0000000180039f10 f i libvcruntimed:std_exception.obj
 0001:00038f30       ??B?$__crt_unique_heap_ptr@DU__crt_public_free_policy@@@@QEBA_NXZ 0000000180039f30 f i libvcruntimed:std_exception.obj
 0001:00038f50       ?detach@?$__crt_unique_heap_ptr@DU__crt_public_free_policy@@@@QEAAPEADXZ 0000000180039f50 f i libvcruntimed:std_exception.obj
 0001:00038f80       ?get@?$__crt_unique_heap_ptr@DU__crt_public_free_policy@@@@QEBAPEADXZ 0000000180039f80 f i libvcruntimed:std_exception.obj
 0001:00038f90       ?is_valid@?$__crt_unique_heap_ptr@DU__crt_public_free_policy@@@@QEBA_NXZ 0000000180039f90 f i libvcruntimed:std_exception.obj
 0001:00038fc0       ?release@?$__crt_unique_heap_ptr@DU__crt_public_free_policy@@@@QEAAXXZ 0000000180039fc0 f i libvcruntimed:std_exception.obj
 0001:00038ff0       __std_exception_copy       0000000180039ff0 f   libvcruntimed:std_exception.obj
 0001:00039130       __std_exception_destroy    000000018003a130 f   libvcruntimed:std_exception.obj
 0001:00039170       _CxxThrowException         000000018003a170 f   libvcruntimed:throw.obj
 0001:000392a0       ??$?RU__vcrt_ptd@@@__crt_internal_free_policy@@QEBAXQEBU__vcrt_ptd@@@Z 000000018003a2a0 f i libvcruntimed:per_thread_data.obj
 0001:000392d0       ??0?$__crt_unique_heap_ptr@U__vcrt_ptd@@U__crt_internal_free_policy@@@@QEAA@QEAU__vcrt_ptd@@@Z 000000018003a2d0 f i libvcruntimed:per_thread_data.obj
 0001:00039310       ??1?$__crt_unique_heap_ptr@U__vcrt_ptd@@U__crt_internal_free_policy@@@@QEAA@XZ 000000018003a310 f i libvcruntimed:per_thread_data.obj
 0001:00039350       ??B?$__crt_unique_heap_ptr@U__vcrt_ptd@@U__crt_internal_free_policy@@@@QEBA_NXZ 000000018003a350 f i libvcruntimed:per_thread_data.obj
 0001:00039370       ?detach@?$__crt_unique_heap_ptr@U__vcrt_ptd@@U__crt_internal_free_policy@@@@QEAAPEAU__vcrt_ptd@@XZ 000000018003a370 f i libvcruntimed:per_thread_data.obj
 0001:000393a0       ?get@?$__crt_unique_heap_ptr@U__vcrt_ptd@@U__crt_internal_free_policy@@@@QEBAPEAU__vcrt_ptd@@XZ 000000018003a3a0 f i libvcruntimed:per_thread_data.obj
 0001:000393b0       ?is_valid@?$__crt_unique_heap_ptr@U__vcrt_ptd@@U__crt_internal_free_policy@@@@QEBA_NXZ 000000018003a3b0 f i libvcruntimed:per_thread_data.obj
 0001:000393e0       ?release@?$__crt_unique_heap_ptr@U__vcrt_ptd@@U__crt_internal_free_policy@@@@QEAAXXZ 000000018003a3e0 f i libvcruntimed:per_thread_data.obj
 0001:00039450       __vcrt_freefls             000000018003a450 f   libvcruntimed:per_thread_data.obj
 0001:00039490       __vcrt_freeptd             000000018003a490 f   libvcruntimed:per_thread_data.obj
 0001:000394f0       __vcrt_getptd              000000018003a4f0 f   libvcruntimed:per_thread_data.obj
 0001:00039520       __vcrt_getptd_noexit       000000018003a520 f   libvcruntimed:per_thread_data.obj
 0001:000396c0       __vcrt_getptd_noinit       000000018003a6c0 f   libvcruntimed:per_thread_data.obj
 0001:00039720       __vcrt_initialize_ptd      000000018003a720 f   libvcruntimed:per_thread_data.obj
 0001:00039770       __vcrt_uninitialize_ptd    000000018003a770 f   libvcruntimed:per_thread_data.obj
 0001:000397a0       __vcrt_initialize_locks    000000018003a7a0 f   libvcruntimed:locks.obj
 0001:00039810       __vcrt_lock                000000018003a810 f   libvcruntimed:locks.obj
 0001:00039840       __vcrt_uninitialize_locks  000000018003a840 f   libvcruntimed:locks.obj
 0001:000398a0       __vcrt_unlock              000000018003a8a0 f   libvcruntimed:locks.obj
 0001:000398e0       _NLG_Notify                000000018003a8e0 f   libvcruntimed:notify.obj
 0001:00039900       __NLG_Dispatch2            000000018003a900 f   libvcruntimed:notify.obj
 0001:00039910       __NLG_Return2              000000018003a910 f   libvcruntimed:notify.obj
 0001:00039930       __except_validate_context_record 000000018003a930 f   libvcruntimed:jbcxrval.obj
 0001:00039990       __except_validate_jump_buffer 000000018003a990 f   libvcruntimed:jbcxrval.obj
 0001:000399b0       __except_validate_jump_buffer_common 000000018003a9b0 f i libvcruntimed:jbcxrval.obj
 0001:00039a30       ?GetCurrentState@__FrameHandler3@@SAHPEA_KPEAU_xDISPATCHER_CONTEXT@@PEBU_s_FuncInfo@@@Z 000000018003aa30 f   libvcruntimed:ehstate.obj
 0001:00039a90       ?GetUnwindTryBlock@__FrameHandler3@@SAHPEA_KPEAU_xDISPATCHER_CONTEXT@@PEBU_s_FuncInfo@@@Z 000000018003aa90 f   libvcruntimed:ehstate.obj
 0001:00039ae0       ?SetState@__FrameHandler3@@SAXPEA_KPEBU_s_FuncInfo@@H@Z 000000018003aae0 f   libvcruntimed:ehstate.obj
 0001:00039b10       ?SetUnwindTryBlock@__FrameHandler3@@SAXPEA_KPEAU_xDISPATCHER_CONTEXT@@PEBU_s_FuncInfo@@H@Z 000000018003ab10 f   libvcruntimed:ehstate.obj
 0001:00039b80       ?StateFromControlPc@__FrameHandler3@@SAHPEBU_s_FuncInfo@@PEAU_xDISPATCHER_CONTEXT@@@Z 000000018003ab80 f   libvcruntimed:ehstate.obj
 0001:00039bc0       ?StateFromControlPc@__FrameHandler4@@SAHPEAUFuncInfo4@FH4@@PEAU_xDISPATCHER_CONTEXT@@@Z 000000018003abc0 f   libvcruntimed:ehstate.obj
 0001:00039c00       ?StateFromIp@__FrameHandler3@@SAHPEBU_s_FuncInfo@@PEAU_xDISPATCHER_CONTEXT@@_K@Z 000000018003ac00 f   libvcruntimed:ehstate.obj
 0001:00039cf0       ?StateFromIp@__FrameHandler4@@SAHPEAUFuncInfo4@FH4@@PEAU_xDISPATCHER_CONTEXT@@_K@Z 000000018003acf0 f   libvcruntimed:ehstate.obj
 0001:00039de0       ?__FuncRelToRealOffset@@YA_KPEAU_xDISPATCHER_CONTEXT@@I@Z 000000018003ade0 f i libvcruntimed:ehstate.obj
 0001:00039e10       ?__RVAtoRealOffset@@YA_KPEAU_xDISPATCHER_CONTEXT@@H@Z 000000018003ae10 f i libvcruntimed:ehstate.obj
 0001:0003c070       ??$TypeMatchHelper@V__FrameHandler3@@@@YAHPEBU_s_HandlerType@@PEBU_s_CatchableType@@PEBU_s_ThrowInfo@@@Z 000000018003d070 f i libvcruntimed:frame.obj
 0001:0003c270       ??$TypeMatchHelper@V__FrameHandler4@@@@YAHPEAUHandlerType4@FH4@@PEBU_s_CatchableType@@PEBU_s_ThrowInfo@@@Z 000000018003d270 f i libvcruntimed:frame.obj
 0001:0003c480       ??$__InternalCxxFrameHandler@V__FrameHandler3@@@@YA?AW4_EXCEPTION_DISPOSITION@@PEAUEHExceptionRecord@@PEA_KPEAU_CONTEXT@@PEAU_xDISPATCHER_CONTEXT@@PEBU_s_FuncInfo@@H1E@Z 000000018003d480 f i libvcruntimed:frame.obj
 0001:0003c8f0       ??$__InternalCxxFrameHandler@V__FrameHandler4@@@@YA?AW4_EXCEPTION_DISPOSITION@@PEAUEHExceptionRecord@@PEA_KPEAU_CONTEXT@@PEAU_xDISPATCHER_CONTEXT@@PEAUFuncInfo4@FH4@@H1E@Z 000000018003d8f0 f i libvcruntimed:frame.obj
 0001:0003cd80       ??0HandlerMap4@FH4@@QEAA@PEBUTryBlockMapEntry4@1@_KH@Z 000000018003dd80 f i libvcruntimed:frame.obj
 0001:0003ce40       ??0HandlerMap@__FrameHandler3@@QEAA@PEBU_s_TryBlockMapEntry@@_KI@Z 000000018003de40 f i libvcruntimed:frame.obj
 0001:0003ce90       ??0HandlerType4@FH4@@QEAA@XZ 000000018003de90 f i libvcruntimed:frame.obj
 0001:0003ceb0       ??0TryBlockMap4@FH4@@QEAA@PEBUFuncInfo4@1@_K@Z 000000018003deb0 f i libvcruntimed:frame.obj
 0001:0003cf40       ??0TryBlockMap@__FrameHandler3@@QEAA@PEBU_s_FuncInfo@@_K@Z 000000018003df40 f i libvcruntimed:frame.obj
 0001:0003cf70       ??0UWMap4@FH4@@QEAA@PEBUFuncInfo4@1@_K@Z 000000018003df70 f i libvcruntimed:frame.obj
 0001:0003cfe0       ??0bad_exception@std@@QEAA@AEBV01@@Z 000000018003dfe0 f i libvcruntimed:frame.obj
 0001:0003d020       ??0bad_exception@std@@QEAA@XZ 000000018003e020 f i libvcruntimed:frame.obj
 0001:0003d060       ??0iterator@HandlerMap4@FH4@@QEAA@AEAV12@I@Z 000000018003e060 f i libvcruntimed:frame.obj
 0001:0003d090       ??0iterator@HandlerMap@__FrameHandler3@@QEAA@AEAV12@I@Z 000000018003e090 f i libvcruntimed:frame.obj
 0001:0003d0c0       ??0iterator@UWMap4@FH4@@QEAA@AEAV12@PEAE@Z 000000018003e0c0 f i libvcruntimed:frame.obj
 0001:0003d0f0       ??1bad_exception@std@@UEAA@XZ 000000018003e0f0 f i libvcruntimed:frame.obj
 0001:0003d110       ??4iterator@UWMap4@FH4@@QEAAAEAV012@AEBV012@@Z 000000018003e110 f i libvcruntimed:frame.obj
 0001:0003d160       ??8iterator@HandlerMap4@FH4@@QEBA_NAEBV012@@Z 000000018003e160 f i libvcruntimed:frame.obj
 0001:0003d1a0       ??8iterator@HandlerMap@__FrameHandler3@@QEBA_NAEBV012@@Z 000000018003e1a0 f i libvcruntimed:frame.obj
 0001:0003d1e0       ??8type_info@@QEBA_NAEBV0@@Z 000000018003e1e0 f i libvcruntimed:frame.obj
 0001:0003d230       ??9iterator@HandlerMap4@FH4@@QEBA_NAEBV012@@Z 000000018003e230 f i libvcruntimed:frame.obj
 0001:0003d270       ??9iterator@HandlerMap@__FrameHandler3@@QEBA_NAEBV012@@Z 000000018003e270 f i libvcruntimed:frame.obj
 0001:0003d2b0       ??Diterator@HandlerMap4@FH4@@QEAA?AUHandlerType4@2@XZ 000000018003e2b0 f i libvcruntimed:frame.obj
 0001:0003d2e0       ??Diterator@HandlerMap@__FrameHandler3@@QEAA?BU_s_HandlerType@@XZ 000000018003e2e0 f i libvcruntimed:frame.obj
 0001:0003d320       ??Diterator@TryBlockMap@__FrameHandler3@@QEAA?BU_s_TryBlockMapEntry@@XZ 000000018003e320 f i libvcruntimed:frame.obj
 0001:0003d370       ??Diterator@UWMap4@FH4@@QEAA?AUUnwindMapEntry4@2@XZ 000000018003e370 f i libvcruntimed:frame.obj
 0001:0003d3f0       ??Eiterator@HandlerMap4@FH4@@QEAAAEAV012@XZ 000000018003e3f0 f i libvcruntimed:frame.obj
 0001:0003d430       ??Eiterator@HandlerMap@__FrameHandler3@@QEAAAEAV012@XZ 000000018003e430 f i libvcruntimed:frame.obj
 0001:0003d450       ??Eiterator@TryBlockMap@__FrameHandler3@@QEAAAEAV012@XZ 000000018003e450 f i libvcruntimed:frame.obj
 0001:0003d470       ??Eiterator@UWMap4@FH4@@QEAAAEAV012@XZ 000000018003e470 f i libvcruntimed:frame.obj
 0001:0003d4b0       ??Giterator@UWMap4@FH4@@QEBA_JAEBV012@@Z 000000018003e4b0 f i libvcruntimed:frame.obj
 0001:0003d4d0       ??Miterator@TryBlockMap4@FH4@@QEBA_NAEBV012@@Z 000000018003e4d0 f i libvcruntimed:frame.obj
 0001:0003d510       ??Miterator@TryBlockMap@__FrameHandler3@@QEBA_NAEBV012@@Z 000000018003e510 f i libvcruntimed:frame.obj
 0001:0003d550       ??Oiterator@UWMap4@FH4@@QEBA_NAEBV012@@Z 000000018003e550 f i libvcruntimed:frame.obj
 0001:0003d590       ??Piterator@UWMap4@FH4@@QEBA_NAEBV012@@Z 000000018003e590 f i libvcruntimed:frame.obj
 0001:0003d5d0       ??_Ebad_exception@std@@UEAAPEAXI@Z 000000018003e5d0 f i libvcruntimed:frame.obj
 0001:0003d5d0       ??_Gbad_exception@std@@UEAAPEAXI@Z 000000018003e5d0 f i libvcruntimed:frame.obj
 0001:0003d610       ?BuildCatchObject@__FrameHandler3@@SAXPEAUEHExceptionRecord@@PEAXPEBU_s_HandlerType@@PEBU_s_CatchableType@@@Z 000000018003e610 f   libvcruntimed:frame.obj
 0001:0003d650       ?BuildCatchObject@__FrameHandler4@@SAXPEAUEHExceptionRecord@@PEAXPEAUHandlerType4@FH4@@PEBU_s_CatchableType@@@Z 000000018003e650 f   libvcruntimed:frame.obj
 0001:0003d690       ?BuildCatchObjectHelper@__FrameHandler3@@SAHPEAUEHExceptionRecord@@PEAXPEBU_s_HandlerType@@PEBU_s_CatchableType@@@Z 000000018003e690 f   libvcruntimed:frame.obj
 0001:0003d6d0       ?BuildCatchObjectHelper@__FrameHandler4@@SAHPEAUEHExceptionRecord@@PEAXPEAUHandlerType4@FH4@@PEBU_s_CatchableType@@@Z 000000018003e6d0 f   libvcruntimed:frame.obj
 0001:0003d710       ?CxxCallCatchBlock@__FrameHandler3@@SAPEAXPEAU_EXCEPTION_RECORD@@@Z 000000018003e710 f   libvcruntimed:frame.obj
 0001:0003d970       ?CxxCallCatchBlock@__FrameHandler4@@SAPEAXPEAU_EXCEPTION_RECORD@@@Z 000000018003e970 f   libvcruntimed:frame.obj
 0001:0003dca0       ?DecompHandler@HandlerMap4@FH4@@AEAAXXZ 000000018003eca0 f i libvcruntimed:frame.obj
 0001:0003e070       ?FrameUnwindToState@__FrameHandler3@@SAXPEA_KPEAU_xDISPATCHER_CONTEXT@@PEBU_s_FuncInfo@@H@Z 000000018003f070 f   libvcruntimed:frame.obj
 0001:0003e2c0       ?FrameUnwindToState@__FrameHandler4@@SAXPEA_KPEAU_xDISPATCHER_CONTEXT@@PEAUFuncInfo4@FH4@@H@Z 000000018003f2c0 f   libvcruntimed:frame.obj
 0001:0003e5d0       ?GetHandlerSearchState@__FrameHandler3@@SAHPEA_KPEAU_xDISPATCHER_CONTEXT@@PEBU_s_FuncInfo@@@Z 000000018003f5d0 f i libvcruntimed:frame.obj
 0001:0003e680       ?GetHandlerSearchState@__FrameHandler4@@SAHPEA_KPEAU_xDISPATCHER_CONTEXT@@PEAUFuncInfo4@FH4@@@Z 000000018003f680 f i libvcruntimed:frame.obj
 0001:0003e700       ?GetMaxState@__FrameHandler3@@SAHPEAU_xDISPATCHER_CONTEXT@@PEBU_s_FuncInfo@@@Z 000000018003f700 f i libvcruntimed:frame.obj
 0001:0003e720       ?GetMaxState@__FrameHandler4@@SAHPEAU_xDISPATCHER_CONTEXT@@PEAUFuncInfo4@FH4@@@Z 000000018003f720 f i libvcruntimed:frame.obj
 0001:0003e950       ?ReadEntry@UWMap4@FH4@@AEAAXPEAPEAE@Z 000000018003f950 f i libvcruntimed:frame.obj
 0001:0003ea00       ?TypeMatch@__FrameHandler3@@SAHPEBU_s_HandlerType@@PEBU_s_CatchableType@@PEBU_s_ThrowInfo@@@Z 000000018003fa00 f   libvcruntimed:frame.obj
 0001:0003ea30       ?TypeMatch@__FrameHandler4@@SAHPEAUHandlerType4@FH4@@PEBU_s_CatchableType@@PEBU_s_ThrowInfo@@@Z 000000018003fa30 f   libvcruntimed:frame.obj
 0001:0003ea60       ?WalkBack@UWMap4@FH4@@AEAAXPEAPEAE@Z 000000018003fa60 f i libvcruntimed:frame.obj
 0001:0003eab0       ?WalkBack@iterator@UWMap4@FH4@@QEAAXXZ 000000018003fab0 f i libvcruntimed:frame.obj
 0001:0003eaf0       ?WalkForward@UWMap4@FH4@@AEAAXPEAPEAE@Z 000000018003faf0 f i libvcruntimed:frame.obj
 0001:0003eb20       ?_CallMemberFunction1@@YAXQEAX00@Z 000000018003fb20 f i libvcruntimed:frame.obj
 0001:0003eb60       ?_CallMemberFunction2@@YAXQEAX00H@Z 000000018003fb60 f i libvcruntimed:frame.obj
 0001:0003ebf0       ?begin@HandlerMap4@FH4@@QEAA?AViterator@12@XZ 000000018003fbf0 f i libvcruntimed:frame.obj
 0001:0003ec20       ?begin@HandlerMap@__FrameHandler3@@QEAA?AViterator@12@XZ 000000018003fc20 f i libvcruntimed:frame.obj
 0001:0003ec50       ?begin@UWMap4@FH4@@QEAA?AViterator@12@XZ 000000018003fc50 f i libvcruntimed:frame.obj
 0001:0003ec80       ?end@HandlerMap4@FH4@@QEAA?AViterator@12@XZ 000000018003fc80 f i libvcruntimed:frame.obj
 0001:0003ecb0       ?end@HandlerMap@__FrameHandler3@@QEAA?AViterator@12@XZ 000000018003fcb0 f i libvcruntimed:frame.obj
 0001:0003ece0       ?getESTypes@__FrameHandler3@@SAPEBU_s_ESTypeList@@PEBU_s_FuncInfo@@@Z 000000018003fce0 f i libvcruntimed:frame.obj
 0001:0003ed20       ?getESTypes@__FrameHandler4@@SAPEBU_s_ESTypeList@@PEAUFuncInfo4@FH4@@@Z 000000018003fd20 f i libvcruntimed:frame.obj
 0001:0003ed30       ?getLastEntry@HandlerMap4@FH4@@QEAAPEAUHandlerType4@2@XZ 000000018003fd30 f i libvcruntimed:frame.obj
 0001:0003ed70       ?getLastEntry@HandlerMap@__FrameHandler3@@QEAAPEBU_s_HandlerType@@XZ 000000018003fd70 f i libvcruntimed:frame.obj
 0001:0003ed90       ?getMagicNum@__FrameHandler3@@SAIPEBU_s_FuncInfo@@@Z 000000018003fd90 f i libvcruntimed:frame.obj
 0001:0003edb0       ?getMagicNum@__FrameHandler4@@SAIPEAUFuncInfo4@FH4@@@Z 000000018003fdb0 f i libvcruntimed:frame.obj
 0001:0003edc0       ?getNumTryBlocks@TryBlockMap4@FH4@@QEAAIXZ 000000018003fdc0 f i libvcruntimed:frame.obj
 0001:0003edd0       ?getNumTryBlocks@TryBlockMap@__FrameHandler3@@QEAAIXZ 000000018003fdd0 f i libvcruntimed:frame.obj
 0001:0003edf0       ?getStartStop@UWMap4@FH4@@QEAAXHHAEAViterator@12@0@Z 000000018003fdf0 f i libvcruntimed:frame.obj
 0001:0003ef10       ?getStateFromIterators@UWMap4@FH4@@SAHAEBViterator@12@H0H0@Z 000000018003ff10 f i libvcruntimed:frame.obj
 0001:0003f050       ?isEHs@__FrameHandler3@@SA_NPEBU_s_FuncInfo@@@Z 0000000180040050 f i libvcruntimed:frame.obj
 0001:0003f090       ?isEHs@__FrameHandler4@@SA_NPEAUFuncInfo4@FH4@@@Z 0000000180040090 f i libvcruntimed:frame.obj
 0001:0003f0b0       ?isNoExcept@__FrameHandler3@@SA_NPEBU_s_FuncInfo@@@Z 00000001800400b0 f i libvcruntimed:frame.obj
 0001:0003f0f0       ?isNoExcept@__FrameHandler4@@SA_NPEAUFuncInfo4@FH4@@@Z 00000001800400f0 f i libvcruntimed:frame.obj
 0001:0003f110       ?reset@HandlerType4@FH4@@QEAAXXZ 0000000180040110 f i libvcruntimed:frame.obj
 0001:0003f170       ?resetBuffer@HandlerMap4@FH4@@QEAAXXZ 0000000180040170 f i libvcruntimed:frame.obj
 0001:0003f190       ?setBuffer@HandlerMap4@FH4@@QEAAXI@Z 0000000180040190 f i libvcruntimed:frame.obj
 0001:0003f1f0       __BuildCatchObject         00000001800401f0 f   libvcruntimed:frame.obj
 0001:0003f230       __BuildCatchObjectHelper   0000000180040230 f   libvcruntimed:frame.obj
 0001:0003f270       __TypeMatch                0000000180040270 f   libvcruntimed:frame.obj
 0001:0003f2a0       __vcrt_EncodePointer       00000001800402a0 f i libvcruntimed:frame.obj
 0001:0003f2c0       ??$?0$00@DName@@QEAA@PEBDU?$StringLifeSelector@$00@@@Z 00000001800402c0 f i libvcruntimed:undname.obj
 0001:0003f330       ??$?0$00@pcharNode@@QEAA@PEBDHU?$StringLifeSelector@$00@@@Z 0000000180040330 f i libvcruntimed:undname.obj
 0001:0003f390       ??$?0$01@DName@@QEAA@PEBDU?$StringLifeSelector@$01@@@Z 0000000180040390 f i libvcruntimed:undname.obj
 0001:0003f400       ??$?0$01@pcharNode@@QEAA@PEBDHU?$StringLifeSelector@$01@@@Z 0000000180040400 f i libvcruntimed:undname.obj
 0001:0003f4b0       ??$?0$0A@@DName@@QEAA@PEBDU?$StringLifeSelector@$0A@@@@Z 00000001800404b0 f i libvcruntimed:undname.obj
 0001:0003f520       ??$?0$0A@@pcharNode@@QEAA@PEBDHU?$StringLifeSelector@$0A@@@@Z 0000000180040520 f i libvcruntimed:undname.obj
 0001:0003f5d0       ??$?0_K$0A@@?$optional@_K@std@@QEAA@$$QEA_K@Z 00000001800405d0 f i libvcruntimed:undname.obj
 0001:0003f620       ??$?0_K@?$_Optional_construct_base@_K@std@@QEAA@Uin_place_t@1@$$QEA_K@Z 0000000180040620 f i libvcruntimed:undname.obj
 0001:0003f650       ??$?0_K@?$_Optional_destruct_base@_K$00@std@@QEAA@Uin_place_t@1@$$QEA_K@Z 0000000180040650 f i libvcruntimed:undname.obj
 0001:0003f690       ??$append@VDNameNode@@@DName@@AEAAXPEBVDNameNode@@@Z 0000000180040690 f i libvcruntimed:undname.obj
 0001:0003f740       ??$append@VDNameStatusNode@@@DName@@AEAAXPEBVDNameStatusNode@@@Z 0000000180040740 f i libvcruntimed:undname.obj
 0001:0003f7f0       ??$append@VcharNode@@@DName@@AEAAXPEBVcharNode@@@Z 00000001800407f0 f i libvcruntimed:undname.obj
 0001:0003f8a0       ??$append@VpDNameNode@@@DName@@AEAAXPEBVpDNameNode@@@Z 00000001800408a0 f i libvcruntimed:undname.obj
 0001:0003f950       ??$append@VpcharNode@@@DName@@AEAAXPEBVpcharNode@@@Z 0000000180040950 f i libvcruntimed:undname.obj
 0001:0003fa00       ??$doPchar@$00@DName@@AEAAXPEBDH@Z 0000000180040a00 f i libvcruntimed:undname.obj
 0001:0003fb60       ??$doPchar@$01@DName@@AEAAXPEBDH@Z 0000000180040b60 f i libvcruntimed:undname.obj
 0001:0003fcc0       ??$doPchar@$0A@@DName@@AEAAXPEBDH@Z 0000000180040cc0 f i libvcruntimed:undname.obj
 0001:0003fe20       ??$forward@_K@std@@YA$$QEA_KAEA_K@Z 0000000180040e20 f i libvcruntimed:undname.obj
 0001:0003fe30       ??$size@D$04@std@@YA_KAEAY04$$CBD@Z 0000000180040e30 f i libvcruntimed:undname.obj
 0001:0003fe40       ??$size@D$0EB@@std@@YA_KAEAY0EB@$$CBD@Z 0000000180040e40 f i libvcruntimed:undname.obj
 0001:0003fe50       ??0?$_Optional_construct_base@_K@std@@QEAA@XZ 0000000180040e50 f i libvcruntimed:undname.obj
 0001:0003fe70       ??0?$_Optional_destruct_base@_K$00@std@@QEAA@XZ 0000000180040e70 f i libvcruntimed:undname.obj
 0001:0003fea0       ??0?$optional@_K@std@@QEAA@XZ 0000000180040ea0 f i libvcruntimed:undname.obj
 0001:0003fec0       ??0Block@_HeapManager@@QEAA@XZ 0000000180040ec0 f i libvcruntimed:undname.obj
 0001:0003fee0       ??0DName@@QEAA@AEAPEBDD@Z  0000000180040ee0 f   libvcruntimed:undname.obj
 0001:000400b0       ??0DName@@QEAA@AEBUStringLiteral@@@Z 00000001800410b0 f   libvcruntimed:undname.obj
 0001:00040110       ??0DName@@QEAA@AEBV0@@Z    0000000180041110 f i libvcruntimed:undname.obj
 0001:00040140       ??0DName@@QEAA@D@Z         0000000180041140 f   libvcruntimed:undname.obj
 0001:00040180       ??0DName@@QEAA@PEAV0@@Z    0000000180041180 f   libvcruntimed:undname.obj
 0001:00040260       ??0DName@@QEAA@W4DNameStatus@@@Z 0000000180041260 f   libvcruntimed:undname.obj
 0001:00040310       ??0DName@@QEAA@XZ          0000000180041310 f i libvcruntimed:undname.obj
 0001:00040340       ??0DName@@QEAA@_J@Z        0000000180041340 f   libvcruntimed:undname.obj
 0001:00040450       ??0DName@@QEAA@_K@Z        0000000180041450 f   libvcruntimed:undname.obj
 0001:00040520       ??0DNameNode@@IEAA@XZ      0000000180041520 f i libvcruntimed:undname.obj
 0001:00040540       ??0Replicator@@QEAA@XZ     0000000180041540 f i libvcruntimed:undname.obj
 0001:00040580       ??0UnDecorator@@QEAA@PEBDP6APEADJ@ZK@Z 0000000180041580 f i libvcruntimed:undname.obj
 0001:00040630       ??0_Nontrivial_dummy_type@std@@QEAA@XZ 0000000180041630 f i libvcruntimed:undname.obj
 0001:00040640       ??0charNode@@QEAA@D@Z      0000000180041640 f i libvcruntimed:undname.obj
 0001:00040680       ??0pDNameNode@@QEAA@PEAVDName@@@Z 0000000180041680 f   libvcruntimed:undname.obj
 0001:00040700       ??0pairNode@@QEAA@PEBVDNameNode@@0@Z 0000000180041700 f i libvcruntimed:undname.obj
 0001:00040780       ??2@YAPEAX_KAEAV_HeapManager@@H@Z 0000000180041780 f   libvcruntimed:undname.obj
 0001:000407e0       ??4DName@@QEAAAEAV0@AEBUStringLiteral@@@Z 00000001800417e0 f   libvcruntimed:undname.obj
 0001:00040830       ??4DName@@QEAAAEAV0@AEBV0@@Z 0000000180041830 f   libvcruntimed:undname.obj
 0001:00040860       ??4DName@@QEAAAEAV0@D@Z    0000000180041860 f i libvcruntimed:undname.obj
 0001:000408a0       ??4DName@@QEAAAEAV0@PEAV0@@Z 00000001800418a0 f   libvcruntimed:undname.obj
 0001:00040970       ??4DName@@QEAAAEAV0@W4DNameStatus@@@Z 0000000180041970 f   libvcruntimed:undname.obj
 0001:00040a00       ??AReplicator@@QEBA?AVDName@@H@Z 0000000180041a00 f   libvcruntimed:undname.obj
 0001:00040a90       ??B?$optional@_K@std@@QEBA_NXZ 0000000180041a90 f i libvcruntimed:undname.obj
 0001:00040aa0       ??D?$optional@_K@std@@QEGAAAEA_KXZ 0000000180041aa0 f i libvcruntimed:undname.obj
 0001:00040b40       ??H@YA?AVDName@@AEBUStringLiteral@@AEBV0@@Z 0000000180041b40 f i libvcruntimed:undname.obj
 0001:00040b90       ??H@YA?AVDName@@DAEBV0@@Z  0000000180041b90 f i libvcruntimed:undname.obj
 0001:00040be0       ??H@YA?AVDName@@W4DNameStatus@@AEBV0@@Z 0000000180041be0 f i libvcruntimed:undname.obj
 0001:00040c30       ??HDName@@QEBA?AV0@AEBUStringLiteral@@@Z 0000000180041c30 f   libvcruntimed:undname.obj
 0001:00040c80       ??HDName@@QEBA?AV0@AEBV0@@Z 0000000180041c80 f   libvcruntimed:undname.obj
 0001:00040cd0       ??HDName@@QEBA?AV0@D@Z     0000000180041cd0 f   libvcruntimed:undname.obj
 0001:00040d20       ??HDName@@QEBA?AV0@PEAV0@@Z 0000000180041d20 f   libvcruntimed:undname.obj
 0001:00040d70       ??HDName@@QEBA?AV0@W4DNameStatus@@@Z 0000000180041d70 f   libvcruntimed:undname.obj
 0001:00040dc0       ??HStringLiteral@@QEBA?AU0@H@Z 0000000180041dc0 f i libvcruntimed:undname.obj
 0001:00040e00       ??YDName@@QEAAAEAV0@AEBUStringLiteral@@@Z 0000000180041e00 f   libvcruntimed:undname.obj
 0001:00040ed0       ??YDName@@QEAAAEAV0@AEBV0@@Z 0000000180041ed0 f   libvcruntimed:undname.obj
 0001:00040f90       ??YDName@@QEAAAEAV0@D@Z    0000000180041f90 f   libvcruntimed:undname.obj
 0001:00041030       ??YDName@@QEAAAEAV0@PEAV0@@Z 0000000180042030 f   libvcruntimed:undname.obj
 0001:00041110       ??YDName@@QEAAAEAV0@W4DNameStatus@@@Z 0000000180042110 f   libvcruntimed:undname.obj
 0001:00041180       ??YReplicator@@QEAAAEAV0@AEBVDName@@@Z 0000000180042180 f   libvcruntimed:undname.obj
 0001:00041240       ??_5DName@@QEAAAEAV0@AEBV0@@Z 0000000180042240 f   libvcruntimed:undname.obj
 0001:000412b0       ??__K_l@@YA?AUStringLiteral@@PEBD_K@Z 00000001800422b0 f i libvcruntimed:undname.obj
 0001:00041300       ?Constructor@_HeapManager@@QEAAXP6APEAX_K@ZP6AXPEAX@Z@Z 0000000180042300 f i libvcruntimed:undname.obj
 0001:00041360       ?Destructor@_HeapManager@@QEAAXXZ 0000000180042360 f i libvcruntimed:undname.obj
 0001:00041400       ?UScore@UnDecorator@@SA?AUStringLiteral@@W4Tokens@@@Z 0000000180042400 f   libvcruntimed:undname.obj
 0001:00041490       ?composeDeclaration@UnDecorator@@CA?AVDName@@AEBV2@@Z 0000000180042490 f i libvcruntimed:undname.obj
 0001:00043990       ?dbGetString@DName@@QEBAPEADXZ 0000000180044990 f   libvcruntimed:undname.obj
 0001:000439c0       ?doAccessSpecifiers@UnDecorator@@SAHXZ 00000001800449c0 f i libvcruntimed:undname.obj
 0001:000439f0       ?doAllocationLanguage@UnDecorator@@SAHXZ 00000001800449f0 f i libvcruntimed:undname.obj
 0001:00043a20       ?doAllocationModel@UnDecorator@@SAHXZ 0000000180044a20 f i libvcruntimed:undname.obj
 0001:00043a50       ?doEcsu@UnDecorator@@SAHXZ 0000000180044a50 f i libvcruntimed:undname.obj
 0001:00043a80       ?doEllipsis@UnDecorator@@SAHXZ 0000000180044a80 f i libvcruntimed:undname.obj
 0001:00043ab0       ?doFunctionReturns@UnDecorator@@SAHXZ 0000000180044ab0 f i libvcruntimed:undname.obj
 0001:00043ae0       ?doMSKeywords@UnDecorator@@SAHXZ 0000000180044ae0 f i libvcruntimed:undname.obj
 0001:00043b10       ?doMemberTypes@UnDecorator@@SAHXZ 0000000180044b10 f i libvcruntimed:undname.obj
 0001:00043b40       ?doNameOnly@UnDecorator@@SAHXZ 0000000180044b40 f i libvcruntimed:undname.obj
 0001:00043b50       ?doNoIdentCharCheck@UnDecorator@@SAHXZ 0000000180044b50 f i libvcruntimed:undname.obj
 0001:00043b60       ?doPchar@DName@@AEAAXD@Z   0000000180044b60 f   libvcruntimed:undname.obj
 0001:00043bf0       ?doPtr64@UnDecorator@@SAHXZ 0000000180044bf0 f i libvcruntimed:undname.obj
 0001:00043c20       ?doRestrictionSpec@UnDecorator@@SAHXZ 0000000180044c20 f i libvcruntimed:undname.obj
 0001:00043c50       ?doThisTypes@UnDecorator@@SAHXZ 0000000180044c50 f i libvcruntimed:undname.obj
 0001:00043c80       ?doThrowTypes@UnDecorator@@SAHXZ 0000000180044c80 f i libvcruntimed:undname.obj
 0001:00043cb0       ?doTypeOnly@UnDecorator@@SAHXZ 0000000180044cb0 f i libvcruntimed:undname.obj
 0001:00043cc0       ?doUnderScore@UnDecorator@@SAHXZ 0000000180044cc0 f i libvcruntimed:undname.obj
 0001:00043cf0       ?getAddressOf@UnDecorator@@CA?AVDName@@XZ 0000000180044cf0 f   libvcruntimed:undname.obj
 0001:00043d90       ?getArgumentList@UnDecorator@@CA?AVDName@@XZ 0000000180044d90 f   libvcruntimed:undname.obj
 0001:00043f30       ?getArgumentTypes@UnDecorator@@CA?AVDName@@XZ 0000000180044f30 f   libvcruntimed:undname.obj
 0001:00044210       ?getArrayAccess@UnDecorator@@CA?AVDName@@XZ 0000000180045210 f   libvcruntimed:undname.obj
 0001:000442d0       ?getArrayObject@UnDecorator@@CA?AVDName@@XZ 00000001800452d0 f   libvcruntimed:undname.obj
 0001:000443f0       ?getArrayType@UnDecorator@@CA?AVDName@@AEBV2@@Z 00000001800453f0 f i libvcruntimed:undname.obj
 0001:000447b0       ?getBasedType@UnDecorator@@CA?AVDName@@XZ 00000001800457b0 f   libvcruntimed:undname.obj
 0001:00044920       ?getBasicDataType@UnDecorator@@CA?AVDName@@AEBV2@@Z 0000000180045920 f   libvcruntimed:undname.obj
 0001:000456c0       ?getCHPEName@UnDecorator@@QEAAPEADPEADH@Z 00000001800466c0 f i libvcruntimed:undname.obj
 0001:00045890       ?getCallIndex@UnDecorator@@CA?AVDName@@XZ 0000000180046890 f i libvcruntimed:undname.obj
 0001:000458b0       ?getCallingConvention@UnDecorator@@CA?AVDName@@XZ 00000001800468b0 f   libvcruntimed:undname.obj
 0001:00045ca0       ?getDataIndirectType@UnDecorator@@CA?AVDName@@AEBV2@W4IndirectionKind@@0H@Z 0000000180046ca0 f   libvcruntimed:undname.obj
 0001:00046940       ?getDataIndirectType@UnDecorator@@CA?AVDName@@XZ 0000000180047940 f i libvcruntimed:undname.obj
 0001:00046990       ?getDataType@UnDecorator@@CA?AVDName@@PEAV2@@Z 0000000180047990 f   libvcruntimed:undname.obj
 0001:00046b70       ?getDecoratedName@UnDecorator@@CA?AVDName@@XZ 0000000180047b70 f   libvcruntimed:undname.obj
 0001:00047060       ?getDimension@UnDecorator@@CA?AVDName@@_N@Z 0000000180048060 f   libvcruntimed:undname.obj
 0001:00047370       ?getDispatchTarget@UnDecorator@@CA?AVDName@@XZ 0000000180048370 f   libvcruntimed:undname.obj
 0001:00047440       ?getDisplacement@UnDecorator@@CA?AVDName@@XZ 0000000180048440 f i libvcruntimed:undname.obj
 0001:00047460       ?getECSUDataType@UnDecorator@@CA?AVDName@@XZ 0000000180048460 f   libvcruntimed:undname.obj
 0001:000477f0       ?getECSUName@UnDecorator@@CA?AVDName@@XZ 00000001800487f0 f i libvcruntimed:undname.obj
 0001:00047810       ?getEnumType@UnDecorator@@CA?AVDName@@XZ 0000000180048810 f i libvcruntimed:undname.obj
 0001:00047aa0       ?getExtendedDataIndirectType@UnDecorator@@CA?AVDName@@AEAW4IndirectionKind@@AEA_NH@Z 0000000180048aa0 f   libvcruntimed:undname.obj
 0001:00047dc0       ?getExternalDataType@UnDecorator@@CA?AVDName@@AEBV2@@Z 0000000180048dc0 f i libvcruntimed:undname.obj
 0001:00047ea0       ?getFloatingPoint@UnDecorator@@CA?AVDName@@H@Z 0000000180048ea0 f   libvcruntimed:undname.obj
 0001:00048120       ?getFunctionIndirectType@UnDecorator@@CA?AVDName@@AEBV2@@Z 0000000180049120 f   libvcruntimed:undname.obj
 0001:00048750       ?getGuardNumber@UnDecorator@@CA?AVDName@@XZ 0000000180049750 f i libvcruntimed:undname.obj
 0001:00048770       ?getLastChar@DName@@QEBADXZ 0000000180049770 f i libvcruntimed:undname.obj
 0001:000487c0       ?getLastChar@DNameStatusNode@@UEBADXZ 00000001800497c0 f i libvcruntimed:undname.obj
 0001:00048800       ?getLastChar@charNode@@UEBADXZ 0000000180049800 f i libvcruntimed:undname.obj
 0001:00048810       ?getLastChar@pDNameNode@@UEBADXZ 0000000180049810 f i libvcruntimed:undname.obj
 0001:00048850       ?getLastChar@pairNode@@UEBADXZ 0000000180049850 f i libvcruntimed:undname.obj
 0001:000488d0       ?getLastChar@pcharNode@@UEBADXZ 00000001800498d0 f i libvcruntimed:undname.obj
 0001:00048910       ?getLexicalFrame@UnDecorator@@CA?AVDName@@XZ 0000000180049910 f i libvcruntimed:undname.obj
 0001:00048960       ?getMemberAccess@UnDecorator@@CA?AVDName@@XZ 0000000180049960 f   libvcruntimed:undname.obj
 0001:00048a10       ?getMemoryWithBuffer@_HeapManager@@QEAAPEAX_K@Z 0000000180049a10 f   libvcruntimed:undname.obj
 0001:00048b60       ?getMemoryWithoutBuffer@_HeapManager@@QEAAPEAX_K@Z 0000000180049b60 f   libvcruntimed:undname.obj
 0001:00048bb0       ?getNoexcept@UnDecorator@@CA?AVDName@@XZ 0000000180049bb0 f   libvcruntimed:undname.obj
 0001:00048c60       ?getNumberOfDimensions@UnDecorator@@CAHXZ 0000000180049c60 f   libvcruntimed:undname.obj
 0001:00048d80       ?getOperatorName@UnDecorator@@CA?AVDName@@_NPEA_N@Z 0000000180049d80 f i libvcruntimed:undname.obj
 0001:00049d70       ?getPointerToMember@UnDecorator@@CA?AVDName@@XZ 000000018004ad70 f   libvcruntimed:undname.obj
 0001:00049ec0       ?getPointerType@UnDecorator@@CA?AVDName@@AEBV2@0@Z 000000018004aec0 f i libvcruntimed:undname.obj
 0001:00049f00       ?getPointerTypeArray@UnDecorator@@CA?AVDName@@AEBV2@0@Z 000000018004af00 f i libvcruntimed:undname.obj
 0001:00049f40       ?getPrimaryDataType@UnDecorator@@CA?AVDName@@AEBV2@@Z 000000018004af40 f   libvcruntimed:undname.obj
 0001:0004a570       ?getPtrRefDataType@UnDecorator@@CA?AVDName@@AEBV2@H@Z 000000018004b570 f   libvcruntimed:undname.obj
 0001:0004a960       ?getPtrRefType@UnDecorator@@CA?AVDName@@AEBV2@0W4IndirectionKind@@@Z 000000018004b960 f   libvcruntimed:undname.obj
 0001:0004aba0       ?getReferenceType@UnDecorator@@CA?AVDName@@AEBV2@0W4IndirectionKind@@@Z 000000018004bba0 f i libvcruntimed:undname.obj
 0001:0004abe0       ?getRestrictionSpec@UnDecorator@@CA?AVDName@@XZ 000000018004bbe0 f   libvcruntimed:undname.obj
 0001:0004ae70       ?getReturnType@UnDecorator@@CA?AVDName@@PEAV2@@Z 000000018004be70 f   libvcruntimed:undname.obj
 0001:0004aed0       ?getScope@UnDecorator@@CA?AVDName@@XZ 000000018004bed0 f   libvcruntimed:undname.obj
 0001:0004b630       ?getScopedName@UnDecorator@@CA?AVDName@@XZ 000000018004c630 f   libvcruntimed:undname.obj
 0001:0004b830       ?getSignedDimension@UnDecorator@@CA?AVDName@@XZ 000000018004c830 f   libvcruntimed:undname.obj
 0001:0004b8c0       ?getStorageConvention@UnDecorator@@CA?AVDName@@XZ 000000018004c8c0 f i libvcruntimed:undname.obj
 0001:0004b8e0       ?getString@DName@@QEBAPEADPEAD0@Z 000000018004c8e0 f i libvcruntimed:undname.obj
 0001:0004b960       ?getString@DName@@QEBAPEADPEADH@Z 000000018004c960 f i libvcruntimed:undname.obj
 0001:0004ba20       ?getString@DNameStatusNode@@UEBAPEADPEAD0@Z 000000018004ca20 f i libvcruntimed:undname.obj
 0001:0004ba70       ?getString@charNode@@UEBAPEADPEAD0@Z 000000018004ca70 f i libvcruntimed:undname.obj
 0001:0004bab0       ?getString@pDNameNode@@UEBAPEADPEAD0@Z 000000018004cab0 f i libvcruntimed:undname.obj
 0001:0004bb10       ?getString@pairNode@@UEBAPEADPEAD0@Z 000000018004cb10 f i libvcruntimed:undname.obj
 0001:0004bbe0       ?getString@pcharNode@@UEBAPEADPEAD0@Z 000000018004cbe0 f i libvcruntimed:undname.obj
 0001:0004bc20       ?getStringEncoding@UnDecorator@@CA?AVDName@@W4PrefixKind@@H@Z 000000018004cc20 f   libvcruntimed:undname.obj
 0001:0004bd80       ?getStringHelper@@YAPEADPEADPEBD1H@Z 000000018004cd80 f i libvcruntimed:undname.obj
 0001:0004bdf0       ?getStringObject@UnDecorator@@CA?AVDName@@XZ 000000018004cdf0 f   libvcruntimed:undname.obj
 0001:0004bed0       ?getSymbolName@UnDecorator@@CA?AVDName@@XZ 000000018004ced0 f i libvcruntimed:undname.obj
 0001:0004bf70       ?getTemplateArgumentList@UnDecorator@@CA?AVDName@@XZ 000000018004cf70 f   libvcruntimed:undname.obj
 0001:0004c2b0       ?getTemplateName@UnDecorator@@CA?AVDName@@_N@Z 000000018004d2b0 f   libvcruntimed:undname.obj
 0001:0004c4f0       ?getTemplateNonTypeArgument@UnDecorator@@CA?AVDName@@XZ 000000018004d4f0 f   libvcruntimed:undname.obj
 0001:0004cd90       ?getTemplateTypeArgument@UnDecorator@@CA?AVDName@@XZ 000000018004dd90 f   libvcruntimed:undname.obj
 0001:0004d000       ?getThisType@UnDecorator@@CA?AVDName@@XZ 000000018004e000 f i libvcruntimed:undname.obj
 0001:0004d050       ?getThrowTypes@UnDecorator@@CA?AVDName@@XZ 000000018004e050 f   libvcruntimed:undname.obj
 0001:0004d0a0       ?getTypeEncoding@UnDecorator@@CAHXZ 000000018004e0a0 f i libvcruntimed:undname.obj
 0001:0004dd00       ?getUndecoratedName@UnDecorator@@QEAAPEADPEADH@Z 000000018004ed00 f i libvcruntimed:undname.obj
 0001:0004def0       ?getUnionObject@UnDecorator@@CA?AVDName@@XZ 000000018004eef0 f   libvcruntimed:undname.obj
 0001:0004e000       ?getVCallThunkType@UnDecorator@@CA?AVDName@@XZ 000000018004f000 f i libvcruntimed:undname.obj
 0001:0004e0b0       ?getValue@UnDecorator@@CA?AV?$optional@_K@std@@XZ 000000018004f0b0 f   libvcruntimed:undname.obj
 0001:0004e180       ?getValueObject@UnDecorator@@CA?AVDName@@XZ 000000018004f180 f   libvcruntimed:undname.obj
 0001:0004e3a0       ?getVbTableType@UnDecorator@@CA?AVDName@@AEBV2@@Z 000000018004f3a0 f i libvcruntimed:undname.obj
 0001:0004e3d0       ?getVdispMapType@UnDecorator@@CA?AVDName@@AEBV2@@Z 000000018004f3d0 f i libvcruntimed:undname.obj
 0001:0004e490       ?getVfTableType@UnDecorator@@CA?AVDName@@AEBV2@@Z 000000018004f490 f i libvcruntimed:undname.obj
 0001:0004e730       ?getZName@UnDecorator@@CA?AVDName@@_N0@Z 000000018004f730 f   libvcruntimed:undname.obj
 0001:0004eba0       ?haveTemplateParameters@UnDecorator@@SAHXZ 000000018004fba0 f i libvcruntimed:undname.obj
 0001:0004ebb0       ?isArray@DName@@QEBAHXZ    000000018004fbb0 f i libvcruntimed:undname.obj
 0001:0004ebd0       ?isComArray@DName@@QEBAHXZ 000000018004fbd0 f i libvcruntimed:undname.obj
 0001:0004ebf0       ?isEmpty@DName@@QEBAHXZ    000000018004fbf0 f i libvcruntimed:undname.obj
 0001:0004ec20       ?isFull@Replicator@@QEBAHXZ 000000018004fc20 f i libvcruntimed:undname.obj
 0001:0004ec50       ?isNoTE@DName@@QEBAHXZ     000000018004fc50 f i libvcruntimed:undname.obj
 0001:0004ec70       ?isPinPtr@DName@@QEBAHXZ   000000018004fc70 f i libvcruntimed:undname.obj
 0001:0004ec90       ?isPtrRef@DName@@QEBAHXZ   000000018004fc90 f i libvcruntimed:undname.obj
 0001:0004ecb0       ?isUDC@DName@@QEBAHXZ      000000018004fcb0 f i libvcruntimed:undname.obj
 0001:0004ed00       ?isUDTThunk@DName@@QEBAHXZ 000000018004fd00 f i libvcruntimed:undname.obj
 0001:0004ed50       ?isVCallThunk@DName@@QEBAHXZ 000000018004fd50 f i libvcruntimed:undname.obj
 0001:0004ed70       ?isValid@DName@@QEBAHXZ    000000018004fd70 f i libvcruntimed:undname.obj
 0001:0004edb0       ?length@DName@@QEBAHXZ     000000018004fdb0 f i libvcruntimed:undname.obj
 0001:0004ee00       ?length@DNameStatusNode@@UEBAHXZ 000000018004fe00 f i libvcruntimed:undname.obj
 0001:0004ee10       ?length@charNode@@UEBAHXZ  000000018004fe10 f i libvcruntimed:undname.obj
 0001:0004ee20       ?length@pDNameNode@@UEBAHXZ 000000018004fe20 f i libvcruntimed:undname.obj
 0001:0004ee60       ?length@pairNode@@UEBAHXZ  000000018004fe60 f i libvcruntimed:undname.obj
 0001:0004eef0       ?length@pcharNode@@UEBAHXZ 000000018004fef0 f i libvcruntimed:undname.obj
 0001:0004ef00       ?make@DNameStatusNode@@SAPEBV1@W4DNameStatus@@@Z 000000018004ff00 f i libvcruntimed:undname.obj
 0001:0004ef50       ?parseDecoratedName@UnDecorator@@CA?AVDName@@XZ 000000018004ff50 f   libvcruntimed:undname.obj
 0001:0004f140       ?raw_length@DNameStatusNode@@UEBAHXZ 0000000180050140 f i libvcruntimed:undname.obj
 0001:0004f160       ?raw_length@charNode@@UEBAHXZ 0000000180050160 f i libvcruntimed:undname.obj
 0001:0004f180       ?raw_length@pDNameNode@@UEBAHXZ 0000000180050180 f i libvcruntimed:undname.obj
 0001:0004f190       ?raw_length@pairNode@@UEBAHXZ 0000000180050190 f i libvcruntimed:undname.obj
 0001:0004f1a0       ?raw_length@pcharNode@@UEBAHXZ 00000001800501a0 f i libvcruntimed:undname.obj
 0001:0004f1c0       ?setIsArray@DName@@QEAAXXZ 00000001800501c0 f i libvcruntimed:undname.obj
 0001:0004f1e0       ?setIsComArray@DName@@QEAAXXZ 00000001800501e0 f i libvcruntimed:undname.obj
 0001:0004f200       ?setIsNoTE@DName@@QEAAXXZ  0000000180050200 f i libvcruntimed:undname.obj
 0001:0004f220       ?setIsPinPtr@DName@@QEAAXXZ 0000000180050220 f i libvcruntimed:undname.obj
 0001:0004f240       ?setIsUDC@DName@@QEAAXXZ   0000000180050240 f i libvcruntimed:undname.obj
 0001:0004f270       ?setIsVCallThunk@DName@@QEAAXXZ 0000000180050270 f i libvcruntimed:undname.obj
 0001:0004f290       ?setPtrRef@DName@@QEAAAEAV1@XZ 0000000180050290 f i libvcruntimed:undname.obj
 0001:0004f2b0       ?status@DName@@QEBA?AW4DNameStatus@@XZ 00000001800502b0 f i libvcruntimed:undname.obj
 0001:0004f3e0       __unDName                  00000001800503e0 f   libvcruntimed:undname.obj
 0001:0004f440       __unDNameEx                0000000180050440 f   libvcruntimed:undname.obj
 0001:0004f500       unDNameGenerateCHPE        0000000180050500 f   libvcruntimed:undname.obj
 0001:0004f5b0       ??$__crt_interlocked_exchange_pointer@UHINSTANCE__@@PEAU1@@@YAPEAUHINSTANCE__@@PEDSEAU0@QEAU0@@Z 00000001800505b0 f i libvcruntimed:winapi_downlevel.obj
 0001:0004f5d0       ??$__crt_interlocked_exchange_pointer@UHINSTANCE__@@PEAX@@YAPEAUHINSTANCE__@@PEDSEAU0@QEAX@Z 00000001800505d0 f i libvcruntimed:winapi_downlevel.obj
 0001:0004f5f0       ??$__crt_interlocked_exchange_pointer@XPEAX@@YAPEAXPEDSEAXQEAX@Z 00000001800505f0 f i libvcruntimed:winapi_downlevel.obj
 0001:0004f610       ??$__crt_interlocked_read_pointer@UHINSTANCE__@@@@YAPEAUHINSTANCE__@@PEDSEAU0@@Z 0000000180050610 f i libvcruntimed:winapi_downlevel.obj
 0001:0004f630       ??$__crt_interlocked_read_pointer@X@@YAPEAXPEDSEAX@Z 0000000180050630 f i libvcruntimed:winapi_downlevel.obj
 0001:0004fb40       __vcrt_FlsAlloc            0000000180050b40 f   libvcruntimed:winapi_downlevel.obj
 0001:0004fb90       __vcrt_FlsFree             0000000180050b90 f   libvcruntimed:winapi_downlevel.obj
 0001:0004fbe0       __vcrt_FlsGetValue         0000000180050be0 f   libvcruntimed:winapi_downlevel.obj
 0001:0004fc30       __vcrt_FlsSetValue         0000000180050c30 f   libvcruntimed:winapi_downlevel.obj
 0001:0004fc90       __vcrt_InitializeCriticalSectionEx 0000000180050c90 f   libvcruntimed:winapi_downlevel.obj
 0001:0004fd10       _CallSettingFrame          0000000180050d10 f   libvcruntimed:handlers.obj
 0001:0004fd60       _CallSettingFrame_LookupContinuationIndex 0000000180050d60 f   libvcruntimed:handlers.obj
 0001:0004fd90       _CallSettingFrame_NotifyContinuationAddr 0000000180050d90 f   libvcruntimed:handlers.obj
 0001:0004fdc0       _CallSettingFrameEncoded   0000000180050dc0 f   libvcruntimed:handlers.obj
 0001:0004fe10       ??$?0AEBV?$stream_output_adapter@D@__crt_stdio_output@@AEB_KAEBQEBDAEAV__crt_cached_ptd_host@@AEBQEAD@?$format_validation_base@DV?$stream_output_adapter@D@__crt_stdio_output@@@__crt_stdio_output@@IEAA@AEBV?$stream_output_adapter@D@1@AEB_KAEBQEBDAEAV__crt_cached_ptd_host@@AEBQEAD@Z 0000000180050e10 f i libucrtd:output.obj
 0001:0004fe60       ??$?0AEBV?$stream_output_adapter@D@__crt_stdio_output@@AEB_KAEBQEBDAEAV__crt_cached_ptd_host@@AEBQEAD@?$positional_parameter_base@DV?$stream_output_adapter@D@__crt_stdio_output@@@__crt_stdio_output@@IEAA@AEBV?$stream_output_adapter@D@1@AEB_KAEBQEBDAEAV__crt_cached_ptd_host@@AEBQEAD@Z 0000000180050e60 f i libucrtd:output.obj
 0001:0004ff00       ??$?0AEBV?$stream_output_adapter@D@__crt_stdio_output@@AEB_KAEBQEBDAEAV__crt_cached_ptd_host@@AEBQEAD@?$standard_base@DV?$stream_output_adapter@D@__crt_stdio_output@@@__crt_stdio_output@@IEAA@AEBV?$stream_output_adapter@D@1@AEB_KAEBQEBDAEAV__crt_cached_ptd_host@@AEBQEAD@Z 0000000180050f00 f i libucrtd:output.obj
 0001:0004ff70       ??$?0AEBV?$stream_output_adapter@_W@__crt_stdio_output@@AEB_KAEBQEB_WAEAV__crt_cached_ptd_host@@AEBQEAD@?$format_validation_base@_WV?$stream_output_adapter@_W@__crt_stdio_output@@@__crt_stdio_output@@IEAA@AEBV?$stream_output_adapter@_W@1@AEB_KAEBQEB_WAEAV__crt_cached_ptd_host@@AEBQEAD@Z 0000000180050f70 f i libucrtd:output.obj
 0001:0004ffc0       ??$?0AEBV?$stream_output_adapter@_W@__crt_stdio_output@@AEB_KAEBQEB_WAEAV__crt_cached_ptd_host@@AEBQEAD@?$positional_parameter_base@_WV?$stream_output_adapter@_W@__crt_stdio_output@@@__crt_stdio_output@@IEAA@AEBV?$stream_output_adapter@_W@1@AEB_KAEBQEB_WAEAV__crt_cached_ptd_host@@AEBQEAD@Z 0000000180050fc0 f i libucrtd:output.obj
 0001:00050060       ??$?0AEBV?$stream_output_adapter@_W@__crt_stdio_output@@AEB_KAEBQEB_WAEAV__crt_cached_ptd_host@@AEBQEAD@?$standard_base@_WV?$stream_output_adapter@_W@__crt_stdio_output@@@__crt_stdio_output@@IEAA@AEBV?$stream_output_adapter@_W@1@AEB_KAEBQEB_WAEAV__crt_cached_ptd_host@@AEBQEAD@Z 0000000180051060 f i libucrtd:output.obj
 0001:000500d0       ??$?0AEBV?$string_output_adapter@D@__crt_stdio_output@@AEB_KAEBQEBDAEAV__crt_cached_ptd_host@@AEBQEAD@?$format_validation_base@DV?$string_output_adapter@D@__crt_stdio_output@@@__crt_stdio_output@@IEAA@AEBV?$string_output_adapter@D@1@AEB_KAEBQEBDAEAV__crt_cached_ptd_host@@AEBQEAD@Z 00000001800510d0 f i libucrtd:output.obj
 0001:00050120       ??$?0AEBV?$string_output_adapter@D@__crt_stdio_output@@AEB_KAEBQEBDAEAV__crt_cached_ptd_host@@AEBQEAD@?$positional_parameter_base@DV?$string_output_adapter@D@__crt_stdio_output@@@__crt_stdio_output@@IEAA@AEBV?$string_output_adapter@D@1@AEB_KAEBQEBDAEAV__crt_cached_ptd_host@@AEBQEAD@Z 0000000180051120 f i libucrtd:output.obj
 0001:000501c0       ??$?0AEBV?$string_output_adapter@D@__crt_stdio_output@@AEB_KAEBQEBDAEAV__crt_cached_ptd_host@@AEBQEAD@?$standard_base@DV?$string_output_adapter@D@__crt_stdio_output@@@__crt_stdio_output@@IEAA@AEBV?$string_output_adapter@D@1@AEB_KAEBQEBDAEAV__crt_cached_ptd_host@@AEBQEAD@Z 00000001800511c0 f i libucrtd:output.obj
 0001:00050230       ??$?0AEBV?$string_output_adapter@_W@__crt_stdio_output@@AEB_KAEBQEB_WAEAV__crt_cached_ptd_host@@AEBQEAD@?$format_validation_base@_WV?$string_output_adapter@_W@__crt_stdio_output@@@__crt_stdio_output@@IEAA@AEBV?$string_output_adapter@_W@1@AEB_KAEBQEB_WAEAV__crt_cached_ptd_host@@AEBQEAD@Z 0000000180051230 f i libucrtd:output.obj
 0001:00050280       ??$?0AEBV?$string_output_adapter@_W@__crt_stdio_output@@AEB_KAEBQEB_WAEAV__crt_cached_ptd_host@@AEBQEAD@?$positional_parameter_base@_WV?$string_output_adapter@_W@__crt_stdio_output@@@__crt_stdio_output@@IEAA@AEBV?$string_output_adapter@_W@1@AEB_KAEBQEB_WAEAV__crt_cached_ptd_host@@AEBQEAD@Z 0000000180051280 f i libucrtd:output.obj
 0001:00050320       ??$?0AEBV?$string_output_adapter@_W@__crt_stdio_output@@AEB_KAEBQEB_WAEAV__crt_cached_ptd_host@@AEBQEAD@?$standard_base@_WV?$string_output_adapter@_W@__crt_stdio_output@@@__crt_stdio_output@@IEAA@AEBV?$string_output_adapter@_W@1@AEB_KAEBQEB_WAEAV__crt_cached_ptd_host@@AEBQEAD@Z 0000000180051320 f i libucrtd:output.obj
 0001:000507b0       ??$__crt_interlocked_read@J@@YAJPEDJ@Z 00000001800517b0 f i libucrtd:output.obj
 0001:000507d0       ??$_tcstol_internal@DPEAPEAD$0A@@@YAJAEAV__crt_cached_ptd_host@@QEBDQEAPEADH@Z 00000001800517d0 f i libucrtd:output.obj
 0001:00050820       ??$_tcstol_internal@_WPEAPEA_W$0A@@@YAJAEAV__crt_cached_ptd_host@@QEB_WQEAPEA_WH@Z 0000000180051820 f i libucrtd:output.obj
 0001:00054840       ??$count@D@formatting_buffer@__crt_stdio_output@@QEBA_KXZ 0000000180055840 f i libucrtd:output.obj
 0001:00054890       ??$count@_W@formatting_buffer@__crt_stdio_output@@QEBA_KXZ 0000000180055890 f i libucrtd:output.obj
 0001:000548e0       ??$data@D@formatting_buffer@__crt_stdio_output@@QEAAPEADXZ 00000001800558e0 f i libucrtd:output.obj
 0001:00054930       ??$data@_W@formatting_buffer@__crt_stdio_output@@QEAAPEA_WXZ 0000000180055930 f i libucrtd:output.obj
 0001:00054980       ??$ensure_buffer_is_big_enough@D@formatting_buffer@__crt_stdio_output@@QEAA_N_KAEAV__crt_cached_ptd_host@@@Z 0000000180055980 f i libucrtd:output.obj
 0001:00054ac0       ??$ensure_buffer_is_big_enough@_W@formatting_buffer@__crt_stdio_output@@QEAA_N_KAEAV__crt_cached_ptd_host@@@Z 0000000180055ac0 f i libucrtd:output.obj
 0001:00054c00       ??$extract_argument_from_va_list@C_J@?$positional_parameter_base@DV?$stream_output_adapter@D@__crt_stdio_output@@@__crt_stdio_output@@IEAA_NAEA_J@Z 0000000180055c00 f i libucrtd:output.obj
 0001:00054dc0       ??$extract_argument_from_va_list@C_J@?$positional_parameter_base@DV?$string_output_adapter@D@__crt_stdio_output@@@__crt_stdio_output@@IEAA_NAEA_J@Z 0000000180055dc0 f i libucrtd:output.obj
 0001:00054f80       ??$extract_argument_from_va_list@C_J@?$positional_parameter_base@_WV?$stream_output_adapter@_W@__crt_stdio_output@@@__crt_stdio_output@@IEAA_NAEA_J@Z 0000000180055f80 f i libucrtd:output.obj
 0001:00055140       ??$extract_argument_from_va_list@C_J@?$positional_parameter_base@_WV?$string_output_adapter@_W@__crt_stdio_output@@@__crt_stdio_output@@IEAA_NAEA_J@Z 0000000180056140 f i libucrtd:output.obj
 0001:00055300       ??$extract_argument_from_va_list@C_J@?$standard_base@DV?$stream_output_adapter@D@__crt_stdio_output@@@__crt_stdio_output@@IEAA_NAEA_J@Z 0000000180056300 f i libucrtd:output.obj
 0001:00055340       ??$extract_argument_from_va_list@C_J@?$standard_base@DV?$string_output_adapter@D@__crt_stdio_output@@@__crt_stdio_output@@IEAA_NAEA_J@Z 0000000180056340 f i libucrtd:output.obj
 0001:00055380       ??$extract_argument_from_va_list@C_J@?$standard_base@_WV?$stream_output_adapter@_W@__crt_stdio_output@@@__crt_stdio_output@@IEAA_NAEA_J@Z 0000000180056380 f i libucrtd:output.obj
 0001:000553c0       ??$extract_argument_from_va_list@C_J@?$standard_base@_WV?$string_output_adapter@_W@__crt_stdio_output@@@__crt_stdio_output@@IEAA_NAEA_J@Z 00000001800563c0 f i libucrtd:output.obj
 0001:00055400       ??$extract_argument_from_va_list@E_J@?$positional_parameter_base@DV?$stream_output_adapter@D@__crt_stdio_output@@@__crt_stdio_output@@IEAA_NAEA_J@Z 0000000180056400 f i libucrtd:output.obj
 0001:000555c0       ??$extract_argument_from_va_list@E_J@?$positional_parameter_base@DV?$string_output_adapter@D@__crt_stdio_output@@@__crt_stdio_output@@IEAA_NAEA_J@Z 00000001800565c0 f i libucrtd:output.obj
 0001:00055780       ??$extract_argument_from_va_list@E_J@?$positional_parameter_base@_WV?$stream_output_adapter@_W@__crt_stdio_output@@@__crt_stdio_output@@IEAA_NAEA_J@Z 0000000180056780 f i libucrtd:output.obj
 0001:00055940       ??$extract_argument_from_va_list@E_J@?$positional_parameter_base@_WV?$string_output_adapter@_W@__crt_stdio_output@@@__crt_stdio_output@@IEAA_NAEA_J@Z 0000000180056940 f i libucrtd:output.obj
 0001:00055b00       ??$extract_argument_from_va_list@E_J@?$standard_base@DV?$stream_output_adapter@D@__crt_stdio_output@@@__crt_stdio_output@@IEAA_NAEA_J@Z 0000000180056b00 f i libucrtd:output.obj
 0001:00055b40       ??$extract_argument_from_va_list@E_J@?$standard_base@DV?$string_output_adapter@D@__crt_stdio_output@@@__crt_stdio_output@@IEAA_NAEA_J@Z 0000000180056b40 f i libucrtd:output.obj
 0001:00055b80       ??$extract_argument_from_va_list@E_J@?$standard_base@_WV?$stream_output_adapter@_W@__crt_stdio_output@@@__crt_stdio_output@@IEAA_NAEA_J@Z 0000000180056b80 f i libucrtd:output.obj
 0001:00055bc0       ??$extract_argument_from_va_list@E_J@?$standard_base@_WV?$string_output_adapter@_W@__crt_stdio_output@@@__crt_stdio_output@@IEAA_NAEA_J@Z 0000000180056bc0 f i libucrtd:output.obj
 0001:00055c00       ??$extract_argument_from_va_list@F_J@?$positional_parameter_base@DV?$stream_output_adapter@D@__crt_stdio_output@@@__crt_stdio_output@@IEAA_NAEA_J@Z 0000000180056c00 f i libucrtd:output.obj
 0001:00055dc0       ??$extract_argument_from_va_list@F_J@?$positional_parameter_base@DV?$string_output_adapter@D@__crt_stdio_output@@@__crt_stdio_output@@IEAA_NAEA_J@Z 0000000180056dc0 f i libucrtd:output.obj
 0001:00055f80       ??$extract_argument_from_va_list@F_J@?$positional_parameter_base@_WV?$stream_output_adapter@_W@__crt_stdio_output@@@__crt_stdio_output@@IEAA_NAEA_J@Z 0000000180056f80 f i libucrtd:output.obj
 0001:00056140       ??$extract_argument_from_va_list@F_J@?$positional_parameter_base@_WV?$string_output_adapter@_W@__crt_stdio_output@@@__crt_stdio_output@@IEAA_NAEA_J@Z 0000000180057140 f i libucrtd:output.obj
 0001:00056300       ??$extract_argument_from_va_list@F_J@?$standard_base@DV?$stream_output_adapter@D@__crt_stdio_output@@@__crt_stdio_output@@IEAA_NAEA_J@Z 0000000180057300 f i libucrtd:output.obj
 0001:00056340       ??$extract_argument_from_va_list@F_J@?$standard_base@DV?$string_output_adapter@D@__crt_stdio_output@@@__crt_stdio_output@@IEAA_NAEA_J@Z 0000000180057340 f i libucrtd:output.obj
 0001:00056380       ??$extract_argument_from_va_list@F_J@?$standard_base@_WV?$stream_output_adapter@_W@__crt_stdio_output@@@__crt_stdio_output@@IEAA_NAEA_J@Z 0000000180057380 f i libucrtd:output.obj
 0001:000563c0       ??$extract_argument_from_va_list@F_J@?$standard_base@_WV?$string_output_adapter@_W@__crt_stdio_output@@@__crt_stdio_output@@IEAA_NAEA_J@Z 00000001800573c0 f i libucrtd:output.obj
 0001:00056400       ??$extract_argument_from_va_list@GD@?$positional_parameter_base@DV?$stream_output_adapter@D@__crt_stdio_output@@@__crt_stdio_output@@IEAA_NAEAD@Z 0000000180057400 f i libucrtd:output.obj
 0001:000565c0       ??$extract_argument_from_va_list@GD@?$positional_parameter_base@DV?$string_output_adapter@D@__crt_stdio_output@@@__crt_stdio_output@@IEAA_NAEAD@Z 00000001800575c0 f i libucrtd:output.obj
 0001:00056780       ??$extract_argument_from_va_list@GD@?$standard_base@DV?$stream_output_adapter@D@__crt_stdio_output@@@__crt_stdio_output@@IEAA_NAEAD@Z 0000000180057780 f i libucrtd:output.obj
 0001:000567b0       ??$extract_argument_from_va_list@GD@?$standard_base@DV?$string_output_adapter@D@__crt_stdio_output@@@__crt_stdio_output@@IEAA_NAEAD@Z 00000001800577b0 f i libucrtd:output.obj
 0001:000567e0       ??$extract_argument_from_va_list@G_J@?$positional_parameter_base@DV?$stream_output_adapter@D@__crt_stdio_output@@@__crt_stdio_output@@IEAA_NAEA_J@Z 00000001800577e0 f i libucrtd:output.obj
 0001:000569a0       ??$extract_argument_from_va_list@G_J@?$positional_parameter_base@DV?$string_output_adapter@D@__crt_stdio_output@@@__crt_stdio_output@@IEAA_NAEA_J@Z 00000001800579a0 f i libucrtd:output.obj
 0001:00056b60       ??$extract_argument_from_va_list@G_J@?$positional_parameter_base@_WV?$stream_output_adapter@_W@__crt_stdio_output@@@__crt_stdio_output@@IEAA_NAEA_J@Z 0000000180057b60 f i libucrtd:output.obj
 0001:00056d20       ??$extract_argument_from_va_list@G_J@?$positional_parameter_base@_WV?$string_output_adapter@_W@__crt_stdio_output@@@__crt_stdio_output@@IEAA_NAEA_J@Z 0000000180057d20 f i libucrtd:output.obj
 0001:00056ee0       ??$extract_argument_from_va_list@G_J@?$standard_base@DV?$stream_output_adapter@D@__crt_stdio_output@@@__crt_stdio_output@@IEAA_NAEA_J@Z 0000000180057ee0 f i libucrtd:output.obj
 0001:00056f20       ??$extract_argument_from_va_list@G_J@?$standard_base@DV?$string_output_adapter@D@__crt_stdio_output@@@__crt_stdio_output@@IEAA_NAEA_J@Z 0000000180057f20 f i libucrtd:output.obj
 0001:00056f60       ??$extract_argument_from_va_list@G_J@?$standard_base@_WV?$stream_output_adapter@_W@__crt_stdio_output@@@__crt_stdio_output@@IEAA_NAEA_J@Z 0000000180057f60 f i libucrtd:output.obj
 0001:00056fa0       ??$extract_argument_from_va_list@G_J@?$standard_base@_WV?$string_output_adapter@_W@__crt_stdio_output@@@__crt_stdio_output@@IEAA_NAEA_J@Z 0000000180057fa0 f i libucrtd:output.obj
 0001:00056fe0       ??$extract_argument_from_va_list@H_J@?$positional_parameter_base@DV?$stream_output_adapter@D@__crt_stdio_output@@@__crt_stdio_output@@IEAA_NAEA_J@Z 0000000180057fe0 f i libucrtd:output.obj
 0001:000571a0       ??$extract_argument_from_va_list@H_J@?$positional_parameter_base@DV?$string_output_adapter@D@__crt_stdio_output@@@__crt_stdio_output@@IEAA_NAEA_J@Z 00000001800581a0 f i libucrtd:output.obj
 0001:00057360       ??$extract_argument_from_va_list@H_J@?$positional_parameter_base@_WV?$stream_output_adapter@_W@__crt_stdio_output@@@__crt_stdio_output@@IEAA_NAEA_J@Z 0000000180058360 f i libucrtd:output.obj
 0001:00057520       ??$extract_argument_from_va_list@H_J@?$positional_parameter_base@_WV?$string_output_adapter@_W@__crt_stdio_output@@@__crt_stdio_output@@IEAA_NAEA_J@Z 0000000180058520 f i libucrtd:output.obj
 0001:000576e0       ??$extract_argument_from_va_list@H_J@?$standard_base@DV?$stream_output_adapter@D@__crt_stdio_output@@@__crt_stdio_output@@IEAA_NAEA_J@Z 00000001800586e0 f i libucrtd:output.obj
 0001:00057710       ??$extract_argument_from_va_list@H_J@?$standard_base@DV?$string_output_adapter@D@__crt_stdio_output@@@__crt_stdio_output@@IEAA_NAEA_J@Z 0000000180058710 f i libucrtd:output.obj
 0001:00057740       ??$extract_argument_from_va_list@H_J@?$standard_base@_WV?$stream_output_adapter@_W@__crt_stdio_output@@@__crt_stdio_output@@IEAA_NAEA_J@Z 0000000180058740 f i libucrtd:output.obj
 0001:00057770       ??$extract_argument_from_va_list@H_J@?$standard_base@_WV?$string_output_adapter@_W@__crt_stdio_output@@@__crt_stdio_output@@IEAA_NAEA_J@Z 0000000180058770 f i libucrtd:output.obj
 0001:000577a0       ??$extract_argument_from_va_list@I_J@?$positional_parameter_base@DV?$stream_output_adapter@D@__crt_stdio_output@@@__crt_stdio_output@@IEAA_NAEA_J@Z 00000001800587a0 f i libucrtd:output.obj
 0001:00057960       ??$extract_argument_from_va_list@I_J@?$positional_parameter_base@DV?$string_output_adapter@D@__crt_stdio_output@@@__crt_stdio_output@@IEAA_NAEA_J@Z 0000000180058960 f i libucrtd:output.obj
 0001:00057b20       ??$extract_argument_from_va_list@I_J@?$positional_parameter_base@_WV?$stream_output_adapter@_W@__crt_stdio_output@@@__crt_stdio_output@@IEAA_NAEA_J@Z 0000000180058b20 f i libucrtd:output.obj
 0001:00057ce0       ??$extract_argument_from_va_list@I_J@?$positional_parameter_base@_WV?$string_output_adapter@_W@__crt_stdio_output@@@__crt_stdio_output@@IEAA_NAEA_J@Z 0000000180058ce0 f i libucrtd:output.obj
 0001:00057ea0       ??$extract_argument_from_va_list@I_J@?$standard_base@DV?$stream_output_adapter@D@__crt_stdio_output@@@__crt_stdio_output@@IEAA_NAEA_J@Z 0000000180058ea0 f i libucrtd:output.obj
 0001:00057ed0       ??$extract_argument_from_va_list@I_J@?$standard_base@DV?$string_output_adapter@D@__crt_stdio_output@@@__crt_stdio_output@@IEAA_NAEA_J@Z 0000000180058ed0 f i libucrtd:output.obj
 0001:00057f00       ??$extract_argument_from_va_list@I_J@?$standard_base@_WV?$stream_output_adapter@_W@__crt_stdio_output@@@__crt_stdio_output@@IEAA_NAEA_J@Z 0000000180058f00 f i libucrtd:output.obj
 0001:00057f30       ??$extract_argument_from_va_list@I_J@?$standard_base@_WV?$string_output_adapter@_W@__crt_stdio_output@@@__crt_stdio_output@@IEAA_NAEA_J@Z 0000000180058f30 f i libucrtd:output.obj
 0001:00057f60       ??$extract_argument_from_va_list@PEADPEAD@?$positional_parameter_base@DV?$stream_output_adapter@D@__crt_stdio_output@@@__crt_stdio_output@@IEAA_NAEAPEAD@Z 0000000180058f60 f i libucrtd:output.obj
 0001:00058120       ??$extract_argument_from_va_list@PEADPEAD@?$positional_parameter_base@DV?$string_output_adapter@D@__crt_stdio_output@@@__crt_stdio_output@@IEAA_NAEAPEAD@Z 0000000180059120 f i libucrtd:output.obj
 0001:000582e0       ??$extract_argument_from_va_list@PEADPEAD@?$positional_parameter_base@_WV?$stream_output_adapter@_W@__crt_stdio_output@@@__crt_stdio_output@@IEAA_NAEAPEAD@Z 00000001800592e0 f i libucrtd:output.obj
 0001:000584a0       ??$extract_argument_from_va_list@PEADPEAD@?$positional_parameter_base@_WV?$string_output_adapter@_W@__crt_stdio_output@@@__crt_stdio_output@@IEAA_NAEAPEAD@Z 00000001800594a0 f i libucrtd:output.obj
 0001:00058660       ??$extract_argument_from_va_list@PEADPEAD@?$standard_base@DV?$stream_output_adapter@D@__crt_stdio_output@@@__crt_stdio_output@@IEAA_NAEAPEAD@Z 0000000180059660 f i libucrtd:output.obj
 0001:00058690       ??$extract_argument_from_va_list@PEADPEAD@?$standard_base@DV?$string_output_adapter@D@__crt_stdio_output@@@__crt_stdio_output@@IEAA_NAEAPEAD@Z 0000000180059690 f i libucrtd:output.obj
 0001:000586c0       ??$extract_argument_from_va_list@PEADPEAD@?$standard_base@_WV?$stream_output_adapter@_W@__crt_stdio_output@@@__crt_stdio_output@@IEAA_NAEAPEAD@Z 00000001800596c0 f i libucrtd:output.obj
 0001:000586f0       ??$extract_argument_from_va_list@PEADPEAD@?$standard_base@_WV?$string_output_adapter@_W@__crt_stdio_output@@@__crt_stdio_output@@IEAA_NAEAPEAD@Z 00000001800596f0 f i libucrtd:output.obj
 0001:00058720       ??$extract_argument_from_va_list@PEAUansi_string@?1??type_case_Z@?$output_processor@DV?$stream_output_adapter@D@__crt_stdio_output@@V?$format_validation_base@DV?$stream_output_adapter@D@__crt_stdio_output@@@2@@__crt_stdio_output@@AEAA_NXZ@PEAU1?1??234@AEAA_NXZ@@?$standard_base@DV?$stream_output_adapter@D@__crt_stdio_output@@@__crt_stdio_output@@IEAA_NAEAPEAUansi_string@?1??type_case_Z@?$output_processor@DV?$stream_output_adapter@D@__crt_stdio_output@@V?$format_validation_base@DV?$stream_output_adapter@D@__crt_stdio_output@@@2@@1@AEAA_NXZ@@Z 0000000180059720 f i libucrtd:output.obj
 0001:00058750       ??$extract_argument_from_va_list@PEAUansi_string@?1??type_case_Z@?$output_processor@DV?$stream_output_adapter@D@__crt_stdio_output@@V?$positional_parameter_base@DV?$stream_output_adapter@D@__crt_stdio_output@@@2@@__crt_stdio_output@@AEAA_NXZ@PEAU1?1??234@AEAA_NXZ@@?$positional_parameter_base@DV?$stream_output_adapter@D@__crt_stdio_output@@@__crt_stdio_output@@IEAA_NAEAPEAUansi_string@?1??type_case_Z@?$output_processor@DV?$stream_output_adapter@D@__crt_stdio_output@@V?$positional_parameter_base@DV?$stream_output_adapter@D@__crt_stdio_output@@@2@@1@AEAA_NXZ@@Z 0000000180059750 f i libucrtd:output.obj
 0001:00058910       ??$extract_argument_from_va_list@PEAUansi_string@?1??type_case_Z@?$output_processor@DV?$stream_output_adapter@D@__crt_stdio_output@@V?$positional_parameter_base@DV?$stream_output_adapter@D@__crt_stdio_output@@@2@@__crt_stdio_output@@AEAA_NXZ@PEAU1?1??234@AEAA_NXZ@@?$standard_base@DV?$stream_output_adapter@D@__crt_stdio_output@@@__crt_stdio_output@@IEAA_NAEAPEAUansi_string@?1??type_case_Z@?$output_processor@DV?$stream_output_adapter@D@__crt_stdio_output@@V?$positional_parameter_base@DV?$stream_output_adapter@D@__crt_stdio_output@@@2@@1@AEAA_NXZ@@Z 0000000180059910 f i libucrtd:output.obj
 0001:00058940       ??$extract_argument_from_va_list@PEAUansi_string@?1??type_case_Z@?$output_processor@DV?$stream_output_adapter@D@__crt_stdio_output@@V?$standard_base@DV?$stream_output_adapter@D@__crt_stdio_output@@@2@@__crt_stdio_output@@AEAA_NXZ@PEAU1?1??234@AEAA_NXZ@@?$standard_base@DV?$stream_output_adapter@D@__crt_stdio_output@@@__crt_stdio_output@@IEAA_NAEAPEAUansi_string@?1??type_case_Z@?$output_processor@DV?$stream_output_adapter@D@__crt_stdio_output@@V?$standard_base@DV?$stream_output_adapter@D@__crt_stdio_output@@@2@@1@AEAA_NXZ@@Z 0000000180059940 f i libucrtd:output.obj
 0001:00058970       ??$extract_argument_from_va_list@PEAUansi_string@?1??type_case_Z@?$output_processor@DV?$string_output_adapter@D@__crt_stdio_output@@V?$format_validation_base@DV?$string_output_adapter@D@__crt_stdio_output@@@2@@__crt_stdio_output@@AEAA_NXZ@PEAU1?1??234@AEAA_NXZ@@?$standard_base@DV?$string_output_adapter@D@__crt_stdio_output@@@__crt_stdio_output@@IEAA_NAEAPEAUansi_string@?1??type_case_Z@?$output_processor@DV?$string_output_adapter@D@__crt_stdio_output@@V?$format_validation_base@DV?$string_output_adapter@D@__crt_stdio_output@@@2@@1@AEAA_NXZ@@Z 0000000180059970 f i libucrtd:output.obj
 0001:000589a0       ??$extract_argument_from_va_list@PEAUansi_string@?1??type_case_Z@?$output_processor@DV?$string_output_adapter@D@__crt_stdio_output@@V?$positional_parameter_base@DV?$string_output_adapter@D@__crt_stdio_output@@@2@@__crt_stdio_output@@AEAA_NXZ@PEAU1?1??234@AEAA_NXZ@@?$positional_parameter_base@DV?$string_output_adapter@D@__crt_stdio_output@@@__crt_stdio_output@@IEAA_NAEAPEAUansi_string@?1??type_case_Z@?$output_processor@DV?$string_output_adapter@D@__crt_stdio_output@@V?$positional_parameter_base@DV?$string_output_adapter@D@__crt_stdio_output@@@2@@1@AEAA_NXZ@@Z 00000001800599a0 f i libucrtd:output.obj
 0001:00058b60       ??$extract_argument_from_va_list@PEAUansi_string@?1??type_case_Z@?$output_processor@DV?$string_output_adapter@D@__crt_stdio_output@@V?$positional_parameter_base@DV?$string_output_adapter@D@__crt_stdio_output@@@2@@__crt_stdio_output@@AEAA_NXZ@PEAU1?1??234@AEAA_NXZ@@?$standard_base@DV?$string_output_adapter@D@__crt_stdio_output@@@__crt_stdio_output@@IEAA_NAEAPEAUansi_string@?1??type_case_Z@?$output_processor@DV?$string_output_adapter@D@__crt_stdio_output@@V?$positional_parameter_base@DV?$string_output_adapter@D@__crt_stdio_output@@@2@@1@AEAA_NXZ@@Z 0000000180059b60 f i libucrtd:output.obj
 0001:00058b90       ??$extract_argument_from_va_list@PEAUansi_string@?1??type_case_Z@?$output_processor@DV?$string_output_adapter@D@__crt_stdio_output@@V?$standard_base@DV?$string_output_adapter@D@__crt_stdio_output@@@2@@__crt_stdio_output@@AEAA_NXZ@PEAU1?1??234@AEAA_NXZ@@?$standard_base@DV?$string_output_adapter@D@__crt_stdio_output@@@__crt_stdio_output@@IEAA_NAEAPEAUansi_string@?1??type_case_Z@?$output_processor@DV?$string_output_adapter@D@__crt_stdio_output@@V?$standard_base@DV?$string_output_adapter@D@__crt_stdio_output@@@2@@1@AEAA_NXZ@@Z 0000000180059b90 f i libucrtd:output.obj
 0001:00058bc0       ??$extract_argument_from_va_list@PEAUansi_string@?1??type_case_Z@?$output_processor@_WV?$stream_output_adapter@_W@__crt_stdio_output@@V?$format_validation_base@_WV?$stream_output_adapter@_W@__crt_stdio_output@@@2@@__crt_stdio_output@@AEAA_NXZ@PEAU1?1??234@AEAA_NXZ@@?$standard_base@_WV?$stream_output_adapter@_W@__crt_stdio_output@@@__crt_stdio_output@@IEAA_NAEAPEAUansi_string@?1??type_case_Z@?$output_processor@_WV?$stream_output_adapter@_W@__crt_stdio_output@@V?$format_validation_base@_WV?$stream_output_adapter@_W@__crt_stdio_output@@@2@@1@AEAA_NXZ@@Z 0000000180059bc0 f i libucrtd:output.obj
 0001:00058bf0       ??$extract_argument_from_va_list@PEAUansi_string@?1??type_case_Z@?$output_processor@_WV?$stream_output_adapter@_W@__crt_stdio_output@@V?$positional_parameter_base@_WV?$stream_output_adapter@_W@__crt_stdio_output@@@2@@__crt_stdio_output@@AEAA_NXZ@PEAU1?1??234@AEAA_NXZ@@?$positional_parameter_base@_WV?$stream_output_adapter@_W@__crt_stdio_output@@@__crt_stdio_output@@IEAA_NAEAPEAUansi_string@?1??type_case_Z@?$output_processor@_WV?$stream_output_adapter@_W@__crt_stdio_output@@V?$positional_parameter_base@_WV?$stream_output_adapter@_W@__crt_stdio_output@@@2@@1@AEAA_NXZ@@Z 0000000180059bf0 f i libucrtd:output.obj
 0001:00058db0       ??$extract_argument_from_va_list@PEAUansi_string@?1??type_case_Z@?$output_processor@_WV?$stream_output_adapter@_W@__crt_stdio_output@@V?$positional_parameter_base@_WV?$stream_output_adapter@_W@__crt_stdio_output@@@2@@__crt_stdio_output@@AEAA_NXZ@PEAU1?1??234@AEAA_NXZ@@?$standard_base@_WV?$stream_output_adapter@_W@__crt_stdio_output@@@__crt_stdio_output@@IEAA_NAEAPEAUansi_string@?1??type_case_Z@?$output_processor@_WV?$stream_output_adapter@_W@__crt_stdio_output@@V?$positional_parameter_base@_WV?$stream_output_adapter@_W@__crt_stdio_output@@@2@@1@AEAA_NXZ@@Z 0000000180059db0 f i libucrtd:output.obj
 0001:00058de0       ??$extract_argument_from_va_list@PEAUansi_string@?1??type_case_Z@?$output_processor@_WV?$stream_output_adapter@_W@__crt_stdio_output@@V?$standard_base@_WV?$stream_output_adapter@_W@__crt_stdio_output@@@2@@__crt_stdio_output@@AEAA_NXZ@PEAU1?1??234@AEAA_NXZ@@?$standard_base@_WV?$stream_output_adapter@_W@__crt_stdio_output@@@__crt_stdio_output@@IEAA_NAEAPEAUansi_string@?1??type_case_Z@?$output_processor@_WV?$stream_output_adapter@_W@__crt_stdio_output@@V?$standard_base@_WV?$stream_output_adapter@_W@__crt_stdio_output@@@2@@1@AEAA_NXZ@@Z 0000000180059de0 f i libucrtd:output.obj
 0001:00058e10       ??$extract_argument_from_va_list@PEAUansi_string@?1??type_case_Z@?$output_processor@_WV?$string_output_adapter@_W@__crt_stdio_output@@V?$format_validation_base@_WV?$string_output_adapter@_W@__crt_stdio_output@@@2@@__crt_stdio_output@@AEAA_NXZ@PEAU1?1??234@AEAA_NXZ@@?$standard_base@_WV?$string_output_adapter@_W@__crt_stdio_output@@@__crt_stdio_output@@IEAA_NAEAPEAUansi_string@?1??type_case_Z@?$output_processor@_WV?$string_output_adapter@_W@__crt_stdio_output@@V?$format_validation_base@_WV?$string_output_adapter@_W@__crt_stdio_output@@@2@@1@AEAA_NXZ@@Z 0000000180059e10 f i libucrtd:output.obj
 0001:00058e40       ??$extract_argument_from_va_list@PEAUansi_string@?1??type_case_Z@?$output_processor@_WV?$string_output_adapter@_W@__crt_stdio_output@@V?$positional_parameter_base@_WV?$string_output_adapter@_W@__crt_stdio_output@@@2@@__crt_stdio_output@@AEAA_NXZ@PEAU1?1??234@AEAA_NXZ@@?$positional_parameter_base@_WV?$string_output_adapter@_W@__crt_stdio_output@@@__crt_stdio_output@@IEAA_NAEAPEAUansi_string@?1??type_case_Z@?$output_processor@_WV?$string_output_adapter@_W@__crt_stdio_output@@V?$positional_parameter_base@_WV?$string_output_adapter@_W@__crt_stdio_output@@@2@@1@AEAA_NXZ@@Z 0000000180059e40 f i libucrtd:output.obj
 0001:00059000       ??$extract_argument_from_va_list@PEAUansi_string@?1??type_case_Z@?$output_processor@_WV?$string_output_adapter@_W@__crt_stdio_output@@V?$positional_parameter_base@_WV?$string_output_adapter@_W@__crt_stdio_output@@@2@@__crt_stdio_output@@AEAA_NXZ@PEAU1?1??234@AEAA_NXZ@@?$standard_base@_WV?$string_output_adapter@_W@__crt_stdio_output@@@__crt_stdio_output@@IEAA_NAEAPEAUansi_string@?1??type_case_Z@?$output_processor@_WV?$string_output_adapter@_W@__crt_stdio_output@@V?$positional_parameter_base@_WV?$string_output_adapter@_W@__crt_stdio_output@@@2@@1@AEAA_NXZ@@Z 000000018005a000 f i libucrtd:output.obj
 0001:00059030       ??$extract_argument_from_va_list@PEAUansi_string@?1??type_case_Z@?$output_processor@_WV?$string_output_adapter@_W@__crt_stdio_output@@V?$standard_base@_WV?$string_output_adapter@_W@__crt_stdio_output@@@2@@__crt_stdio_output@@AEAA_NXZ@PEAU1?1??234@AEAA_NXZ@@?$standard_base@_WV?$string_output_adapter@_W@__crt_stdio_output@@@__crt_stdio_output@@IEAA_NAEAPEAUansi_string@?1??type_case_Z@?$output_processor@_WV?$string_output_adapter@_W@__crt_stdio_output@@V?$standard_base@_WV?$string_output_adapter@_W@__crt_stdio_output@@@2@@1@AEAA_NXZ@@Z 000000018005a030 f i libucrtd:output.obj
 0001:00059060       ??$extract_argument_from_va_list@PEAXPEAX@?$positional_parameter_base@DV?$stream_output_adapter@D@__crt_stdio_output@@@__crt_stdio_output@@IEAA_NAEAPEAX@Z 000000018005a060 f i libucrtd:output.obj
 0001:00059220       ??$extract_argument_from_va_list@PEAXPEAX@?$positional_parameter_base@DV?$string_output_adapter@D@__crt_stdio_output@@@__crt_stdio_output@@IEAA_NAEAPEAX@Z 000000018005a220 f i libucrtd:output.obj
 0001:000593e0       ??$extract_argument_from_va_list@PEAXPEAX@?$positional_parameter_base@_WV?$stream_output_adapter@_W@__crt_stdio_output@@@__crt_stdio_output@@IEAA_NAEAPEAX@Z 000000018005a3e0 f i libucrtd:output.obj
 0001:000595a0       ??$extract_argument_from_va_list@PEAXPEAX@?$positional_parameter_base@_WV?$string_output_adapter@_W@__crt_stdio_output@@@__crt_stdio_output@@IEAA_NAEAPEAX@Z 000000018005a5a0 f i libucrtd:output.obj
 0001:00059760       ??$extract_argument_from_va_list@PEAXPEAX@?$standard_base@DV?$stream_output_adapter@D@__crt_stdio_output@@@__crt_stdio_output@@IEAA_NAEAPEAX@Z 000000018005a760 f i libucrtd:output.obj
 0001:00059790       ??$extract_argument_from_va_list@PEAXPEAX@?$standard_base@DV?$string_output_adapter@D@__crt_stdio_output@@@__crt_stdio_output@@IEAA_NAEAPEAX@Z 000000018005a790 f i libucrtd:output.obj
 0001:000597c0       ??$extract_argument_from_va_list@PEAXPEAX@?$standard_base@_WV?$stream_output_adapter@_W@__crt_stdio_output@@@__crt_stdio_output@@IEAA_NAEAPEAX@Z 000000018005a7c0 f i libucrtd:output.obj
 0001:000597f0       ??$extract_argument_from_va_list@PEAXPEAX@?$standard_base@_WV?$string_output_adapter@_W@__crt_stdio_output@@@__crt_stdio_output@@IEAA_NAEAPEAX@Z 000000018005a7f0 f i libucrtd:output.obj
 0001:00059820       ??$extract_argument_from_va_list@U_CRT_DOUBLE@@U1@@?$positional_parameter_base@DV?$stream_output_adapter@D@__crt_stdio_output@@@__crt_stdio_output@@IEAA_NAEAU_CRT_DOUBLE@@@Z 000000018005a820 f i libucrtd:output.obj
 0001:00059a40       ??$extract_argument_from_va_list@U_CRT_DOUBLE@@U1@@?$positional_parameter_base@DV?$string_output_adapter@D@__crt_stdio_output@@@__crt_stdio_output@@IEAA_NAEAU_CRT_DOUBLE@@@Z 000000018005aa40 f i libucrtd:output.obj
 0001:00059c60       ??$extract_argument_from_va_list@U_CRT_DOUBLE@@U1@@?$positional_parameter_base@_WV?$stream_output_adapter@_W@__crt_stdio_output@@@__crt_stdio_output@@IEAA_NAEAU_CRT_DOUBLE@@@Z 000000018005ac60 f i libucrtd:output.obj
 0001:00059e80       ??$extract_argument_from_va_list@U_CRT_DOUBLE@@U1@@?$positional_parameter_base@_WV?$string_output_adapter@_W@__crt_stdio_output@@@__crt_stdio_output@@IEAA_NAEAU_CRT_DOUBLE@@@Z 000000018005ae80 f i libucrtd:output.obj
 0001:0005a0a0       ??$extract_argument_from_va_list@U_CRT_DOUBLE@@U1@@?$standard_base@DV?$stream_output_adapter@D@__crt_stdio_output@@@__crt_stdio_output@@IEAA_NAEAU_CRT_DOUBLE@@@Z 000000018005b0a0 f i libucrtd:output.obj
 0001:0005a0f0       ??$extract_argument_from_va_list@U_CRT_DOUBLE@@U1@@?$standard_base@DV?$string_output_adapter@D@__crt_stdio_output@@@__crt_stdio_output@@IEAA_NAEAU_CRT_DOUBLE@@@Z 000000018005b0f0 f i libucrtd:output.obj
 0001:0005a140       ??$extract_argument_from_va_list@U_CRT_DOUBLE@@U1@@?$standard_base@_WV?$stream_output_adapter@_W@__crt_stdio_output@@@__crt_stdio_output@@IEAA_NAEAU_CRT_DOUBLE@@@Z 000000018005b140 f i libucrtd:output.obj
 0001:0005a190       ??$extract_argument_from_va_list@U_CRT_DOUBLE@@U1@@?$standard_base@_WV?$string_output_adapter@_W@__crt_stdio_output@@@__crt_stdio_output@@IEAA_NAEAU_CRT_DOUBLE@@@Z 000000018005b190 f i libucrtd:output.obj
 0001:0005a1e0       ??$extract_argument_from_va_list@_J_J@?$positional_parameter_base@DV?$stream_output_adapter@D@__crt_stdio_output@@@__crt_stdio_output@@IEAA_NAEA_J@Z 000000018005b1e0 f i libucrtd:output.obj
 0001:0005a3a0       ??$extract_argument_from_va_list@_J_J@?$positional_parameter_base@DV?$string_output_adapter@D@__crt_stdio_output@@@__crt_stdio_output@@IEAA_NAEA_J@Z 000000018005b3a0 f i libucrtd:output.obj
 0001:0005a560       ??$extract_argument_from_va_list@_J_J@?$positional_parameter_base@_WV?$stream_output_adapter@_W@__crt_stdio_output@@@__crt_stdio_output@@IEAA_NAEA_J@Z 000000018005b560 f i libucrtd:output.obj
 0001:0005a720       ??$extract_argument_from_va_list@_J_J@?$positional_parameter_base@_WV?$string_output_adapter@_W@__crt_stdio_output@@@__crt_stdio_output@@IEAA_NAEA_J@Z 000000018005b720 f i libucrtd:output.obj
 0001:0005a8e0       ??$extract_argument_from_va_list@_J_J@?$standard_base@DV?$stream_output_adapter@D@__crt_stdio_output@@@__crt_stdio_output@@IEAA_NAEA_J@Z 000000018005b8e0 f i libucrtd:output.obj
 0001:0005a910       ??$extract_argument_from_va_list@_J_J@?$standard_base@DV?$string_output_adapter@D@__crt_stdio_output@@@__crt_stdio_output@@IEAA_NAEA_J@Z 000000018005b910 f i libucrtd:output.obj
 0001:0005a940       ??$extract_argument_from_va_list@_J_J@?$standard_base@_WV?$stream_output_adapter@_W@__crt_stdio_output@@@__crt_stdio_output@@IEAA_NAEA_J@Z 000000018005b940 f i libucrtd:output.obj
 0001:0005a970       ??$extract_argument_from_va_list@_J_J@?$standard_base@_WV?$string_output_adapter@_W@__crt_stdio_output@@@__crt_stdio_output@@IEAA_NAEA_J@Z 000000018005b970 f i libucrtd:output.obj
 0001:0005a9a0       ??$extract_argument_from_va_list@_K_J@?$positional_parameter_base@DV?$stream_output_adapter@D@__crt_stdio_output@@@__crt_stdio_output@@IEAA_NAEA_J@Z 000000018005b9a0 f i libucrtd:output.obj
 0001:0005ab60       ??$extract_argument_from_va_list@_K_J@?$positional_parameter_base@DV?$string_output_adapter@D@__crt_stdio_output@@@__crt_stdio_output@@IEAA_NAEA_J@Z 000000018005bb60 f i libucrtd:output.obj
 0001:0005ad20       ??$extract_argument_from_va_list@_K_J@?$positional_parameter_base@_WV?$stream_output_adapter@_W@__crt_stdio_output@@@__crt_stdio_output@@IEAA_NAEA_J@Z 000000018005bd20 f i libucrtd:output.obj
 0001:0005aee0       ??$extract_argument_from_va_list@_K_J@?$positional_parameter_base@_WV?$string_output_adapter@_W@__crt_stdio_output@@@__crt_stdio_output@@IEAA_NAEA_J@Z 000000018005bee0 f i libucrtd:output.obj
 0001:0005b0a0       ??$extract_argument_from_va_list@_K_J@?$standard_base@DV?$stream_output_adapter@D@__crt_stdio_output@@@__crt_stdio_output@@IEAA_NAEA_J@Z 000000018005c0a0 f i libucrtd:output.obj
 0001:0005b0d0       ??$extract_argument_from_va_list@_K_J@?$standard_base@DV?$string_output_adapter@D@__crt_stdio_output@@@__crt_stdio_output@@IEAA_NAEA_J@Z 000000018005c0d0 f i libucrtd:output.obj
 0001:0005b100       ??$extract_argument_from_va_list@_K_J@?$standard_base@_WV?$stream_output_adapter@_W@__crt_stdio_output@@@__crt_stdio_output@@IEAA_NAEA_J@Z 000000018005c100 f i libucrtd:output.obj
 0001:0005b130       ??$extract_argument_from_va_list@_K_J@?$standard_base@_WV?$string_output_adapter@_W@__crt_stdio_output@@@__crt_stdio_output@@IEAA_NAEA_J@Z 000000018005c130 f i libucrtd:output.obj
 0001:0005b160       ??$extract_argument_from_va_list@_W_W@?$positional_parameter_base@DV?$stream_output_adapter@D@__crt_stdio_output@@@__crt_stdio_output@@IEAA_NAEA_W@Z 000000018005c160 f i libucrtd:output.obj
 0001:0005b320       ??$extract_argument_from_va_list@_W_W@?$positional_parameter_base@DV?$string_output_adapter@D@__crt_stdio_output@@@__crt_stdio_output@@IEAA_NAEA_W@Z 000000018005c320 f i libucrtd:output.obj
 0001:0005b4e0       ??$extract_argument_from_va_list@_W_W@?$positional_parameter_base@_WV?$stream_output_adapter@_W@__crt_stdio_output@@@__crt_stdio_output@@IEAA_NAEA_W@Z 000000018005c4e0 f i libucrtd:output.obj
 0001:0005b6a0       ??$extract_argument_from_va_list@_W_W@?$positional_parameter_base@_WV?$string_output_adapter@_W@__crt_stdio_output@@@__crt_stdio_output@@IEAA_NAEA_W@Z 000000018005c6a0 f i libucrtd:output.obj
 0001:0005b860       ??$extract_argument_from_va_list@_W_W@?$standard_base@DV?$stream_output_adapter@D@__crt_stdio_output@@@__crt_stdio_output@@IEAA_NAEA_W@Z 000000018005c860 f i libucrtd:output.obj
 0001:0005b890       ??$extract_argument_from_va_list@_W_W@?$standard_base@DV?$string_output_adapter@D@__crt_stdio_output@@@__crt_stdio_output@@IEAA_NAEA_W@Z 000000018005c890 f i libucrtd:output.obj
 0001:0005b8c0       ??$extract_argument_from_va_list@_W_W@?$standard_base@_WV?$stream_output_adapter@_W@__crt_stdio_output@@@__crt_stdio_output@@IEAA_NAEA_W@Z 000000018005c8c0 f i libucrtd:output.obj
 0001:0005b8f0       ??$extract_argument_from_va_list@_W_W@?$standard_base@_WV?$string_output_adapter@_W@__crt_stdio_output@@@__crt_stdio_output@@IEAA_NAEA_W@Z 000000018005c8f0 f i libucrtd:output.obj
 0001:0005b920       ??$get_parameter_type@D@?$positional_parameter_base@DV?$stream_output_adapter@D@__crt_stdio_output@@@__crt_stdio_output@@CA?AW4parameter_type@01@PEAD@Z 000000018005c920 f i libucrtd:output.obj
 0001:0005b930       ??$get_parameter_type@D@?$positional_parameter_base@DV?$string_output_adapter@D@__crt_stdio_output@@@__crt_stdio_output@@CA?AW4parameter_type@01@PEAD@Z 000000018005c930 f i libucrtd:output.obj
 0001:0005b940       ??$get_parameter_type@D@?$positional_parameter_base@_WV?$stream_output_adapter@_W@__crt_stdio_output@@@__crt_stdio_output@@CA?AW4parameter_type@01@PEAD@Z 000000018005c940 f i libucrtd:output.obj
 0001:0005b950       ??$get_parameter_type@D@?$positional_parameter_base@_WV?$string_output_adapter@_W@__crt_stdio_output@@@__crt_stdio_output@@CA?AW4parameter_type@01@PEAD@Z 000000018005c950 f i libucrtd:output.obj
 0001:0005b960       ??$get_parameter_type@Uansi_string@?1??type_case_Z@?$output_processor@DV?$stream_output_adapter@D@__crt_stdio_output@@V?$positional_parameter_base@DV?$stream_output_adapter@D@__crt_stdio_output@@@2@@__crt_stdio_output@@AEAA_NXZ@@?$positional_parameter_base@DV?$stream_output_adapter@D@__crt_stdio_output@@@__crt_stdio_output@@CA?AW4parameter_type@01@PEAUansi_string@?1??type_case_Z@?$output_processor@DV?$stream_output_adapter@D@__crt_stdio_output@@V?$positional_parameter_base@DV?$stream_output_adapter@D@__crt_stdio_output@@@2@@1@AEAA_NXZ@@Z 000000018005c960 f i libucrtd:output.obj
 0001:0005b970       ??$get_parameter_type@Uansi_string@?1??type_case_Z@?$output_processor@DV?$string_output_adapter@D@__crt_stdio_output@@V?$positional_parameter_base@DV?$string_output_adapter@D@__crt_stdio_output@@@2@@__crt_stdio_output@@AEAA_NXZ@@?$positional_parameter_base@DV?$string_output_adapter@D@__crt_stdio_output@@@__crt_stdio_output@@CA?AW4parameter_type@01@PEAUansi_string@?1??type_case_Z@?$output_processor@DV?$string_output_adapter@D@__crt_stdio_output@@V?$positional_parameter_base@DV?$string_output_adapter@D@__crt_stdio_output@@@2@@1@AEAA_NXZ@@Z 000000018005c970 f i libucrtd:output.obj
 0001:0005b980       ??$get_parameter_type@Uansi_string@?1??type_case_Z@?$output_processor@_WV?$stream_output_adapter@_W@__crt_stdio_output@@V?$positional_parameter_base@_WV?$stream_output_adapter@_W@__crt_stdio_output@@@2@@__crt_stdio_output@@AEAA_NXZ@@?$positional_parameter_base@_WV?$stream_output_adapter@_W@__crt_stdio_output@@@__crt_stdio_output@@CA?AW4parameter_type@01@PEAUansi_string@?1??type_case_Z@?$output_processor@_WV?$stream_output_adapter@_W@__crt_stdio_output@@V?$positional_parameter_base@_WV?$stream_output_adapter@_W@__crt_stdio_output@@@2@@1@AEAA_NXZ@@Z 000000018005c980 f i libucrtd:output.obj
 0001:0005b990       ??$get_parameter_type@Uansi_string@?1??type_case_Z@?$output_processor@_WV?$string_output_adapter@_W@__crt_stdio_output@@V?$positional_parameter_base@_WV?$string_output_adapter@_W@__crt_stdio_output@@@2@@__crt_stdio_output@@AEAA_NXZ@@?$positional_parameter_base@_WV?$string_output_adapter@_W@__crt_stdio_output@@@__crt_stdio_output@@CA?AW4parameter_type@01@PEAUansi_string@?1??type_case_Z@?$output_processor@_WV?$string_output_adapter@_W@__crt_stdio_output@@V?$positional_parameter_base@_WV?$string_output_adapter@_W@__crt_stdio_output@@@2@@1@AEAA_NXZ@@Z 000000018005c990 f i libucrtd:output.obj
 0001:0005b9a0       ??$get_parameter_type@X@?$positional_parameter_base@DV?$stream_output_adapter@D@__crt_stdio_output@@@__crt_stdio_output@@CA?AW4parameter_type@01@PEAX@Z 000000018005c9a0 f i libucrtd:output.obj
 0001:0005b9b0       ??$get_parameter_type@X@?$positional_parameter_base@DV?$string_output_adapter@D@__crt_stdio_output@@@__crt_stdio_output@@CA?AW4parameter_type@01@PEAX@Z 000000018005c9b0 f i libucrtd:output.obj
 0001:0005b9c0       ??$get_parameter_type@X@?$positional_parameter_base@_WV?$stream_output_adapter@_W@__crt_stdio_output@@@__crt_stdio_output@@CA?AW4parameter_type@01@PEAX@Z 000000018005c9c0 f i libucrtd:output.obj
 0001:0005b9d0       ??$get_parameter_type@X@?$positional_parameter_base@_WV?$string_output_adapter@_W@__crt_stdio_output@@@__crt_stdio_output@@CA?AW4parameter_type@01@PEAX@Z 000000018005c9d0 f i libucrtd:output.obj
 0001:0005b9e0       ??$is_character_specifier@D@?$positional_parameter_base@DV?$stream_output_adapter@D@__crt_stdio_output@@@__crt_stdio_output@@CA_ND@Z 000000018005c9e0 f i libucrtd:output.obj
 0001:0005ba20       ??$is_character_specifier@D@?$positional_parameter_base@DV?$string_output_adapter@D@__crt_stdio_output@@@__crt_stdio_output@@CA_ND@Z 000000018005ca20 f i libucrtd:output.obj
 0001:0005ba60       ??$is_character_specifier@_W@?$positional_parameter_base@_WV?$stream_output_adapter@_W@__crt_stdio_output@@@__crt_stdio_output@@CA_N_W@Z 000000018005ca60 f i libucrtd:output.obj
 0001:0005baa0       ??$is_character_specifier@_W@?$positional_parameter_base@_WV?$string_output_adapter@_W@__crt_stdio_output@@@__crt_stdio_output@@CA_N_W@Z 000000018005caa0 f i libucrtd:output.obj
 0001:0005bae0       ??$is_integral_specifier@D@?$positional_parameter_base@DV?$stream_output_adapter@D@__crt_stdio_output@@@__crt_stdio_output@@CA_ND@Z 000000018005cae0 f i libucrtd:output.obj
 0001:0005bb50       ??$is_integral_specifier@D@?$positional_parameter_base@DV?$string_output_adapter@D@__crt_stdio_output@@@__crt_stdio_output@@CA_ND@Z 000000018005cb50 f i libucrtd:output.obj
 0001:0005bbc0       ??$is_integral_specifier@_W@?$positional_parameter_base@_WV?$stream_output_adapter@_W@__crt_stdio_output@@@__crt_stdio_output@@CA_N_W@Z 000000018005cbc0 f i libucrtd:output.obj
 0001:0005bc30       ??$is_integral_specifier@_W@?$positional_parameter_base@_WV?$string_output_adapter@_W@__crt_stdio_output@@@__crt_stdio_output@@CA_N_W@Z 000000018005cc30 f i libucrtd:output.obj
 0001:0005bca0       ??$is_overflow_condition@K@__crt_strtox@@YA_NIK@Z 000000018005cca0 f i libucrtd:output.obj
 0001:0005bd10       ??$is_pointer_specifier@D@?$positional_parameter_base@DV?$stream_output_adapter@D@__crt_stdio_output@@@__crt_stdio_output@@CA_ND@Z 000000018005cd10 f i libucrtd:output.obj
 0001:0005bd40       ??$is_pointer_specifier@D@?$positional_parameter_base@DV?$string_output_adapter@D@__crt_stdio_output@@@__crt_stdio_output@@CA_ND@Z 000000018005cd40 f i libucrtd:output.obj
 0001:0005bd70       ??$is_pointer_specifier@_W@?$positional_parameter_base@_WV?$stream_output_adapter@_W@__crt_stdio_output@@@__crt_stdio_output@@CA_N_W@Z 000000018005cd70 f i libucrtd:output.obj
 0001:0005bda0       ??$is_pointer_specifier@_W@?$positional_parameter_base@_WV?$string_output_adapter@_W@__crt_stdio_output@@@__crt_stdio_output@@CA_N_W@Z 000000018005cda0 f i libucrtd:output.obj
 0001:0005bdd0       ??$is_string_specifier@D@?$positional_parameter_base@DV?$stream_output_adapter@D@__crt_stdio_output@@@__crt_stdio_output@@CA_ND@Z 000000018005cdd0 f i libucrtd:output.obj
 0001:0005be10       ??$is_string_specifier@D@?$positional_parameter_base@DV?$string_output_adapter@D@__crt_stdio_output@@@__crt_stdio_output@@CA_ND@Z 000000018005ce10 f i libucrtd:output.obj
 0001:0005be50       ??$is_string_specifier@_W@?$positional_parameter_base@_WV?$stream_output_adapter@_W@__crt_stdio_output@@@__crt_stdio_output@@CA_N_W@Z 000000018005ce50 f i libucrtd:output.obj
 0001:0005be90       ??$is_string_specifier@_W@?$positional_parameter_base@_WV?$string_output_adapter@_W@__crt_stdio_output@@@__crt_stdio_output@@CA_N_W@Z 000000018005ce90 f i libucrtd:output.obj
 0001:0005bed0       ??$is_wide_character_specifier@D@__crt_stdio_output@@YA_N_KDW4length_modifier@0@@Z 000000018005ced0 f i libucrtd:output.obj
 0001:0005bf70       ??$is_wide_character_specifier@_W@__crt_stdio_output@@YA_N_K_WW4length_modifier@0@@Z 000000018005cf70 f i libucrtd:output.obj
 0001:0005c040       ??$make_c_string_character_source@DPEAPEAD@__crt_strtox@@YA?AV?$c_string_character_source@D@0@QEBDQEAPEAD@Z 000000018005d040 f i libucrtd:output.obj
 0001:0005c080       ??$make_c_string_character_source@_WPEAPEA_W@__crt_strtox@@YA?AV?$c_string_character_source@_W@0@QEB_WQEAPEA_W@Z 000000018005d080 f i libucrtd:output.obj
 0001:0005c0c0       ??$parse_integer@KV?$c_string_character_source@D@__crt_strtox@@$0A@@__crt_strtox@@YAKAEAV__crt_cached_ptd_host@@V?$c_string_character_source@D@0@H_N@Z 000000018005d0c0 f i libucrtd:output.obj
 0001:0005c540       ??$parse_integer@KV?$c_string_character_source@_W@__crt_strtox@@$0A@@__crt_strtox@@YAKAEAV__crt_cached_ptd_host@@V?$c_string_character_source@_W@0@H_N@Z 000000018005d540 f i libucrtd:output.obj
 0001:0005c9c0       ??$peek_va_arg@C@__crt_stdio_output@@YACPEAD@Z 000000018005d9c0 f i libucrtd:output.obj
 0001:0005ca20       ??$peek_va_arg@E@__crt_stdio_output@@YAEPEAD@Z 000000018005da20 f i libucrtd:output.obj
 0001:0005ca80       ??$peek_va_arg@F@__crt_stdio_output@@YAFPEAD@Z 000000018005da80 f i libucrtd:output.obj
 0001:0005cae0       ??$peek_va_arg@G@__crt_stdio_output@@YAGPEAD@Z 000000018005dae0 f i libucrtd:output.obj
 0001:0005cb40       ??$peek_va_arg@H@__crt_stdio_output@@YAHPEAD@Z 000000018005db40 f i libucrtd:output.obj
 0001:0005cb90       ??$peek_va_arg@I@__crt_stdio_output@@YAIPEAD@Z 000000018005db90 f i libucrtd:output.obj
 0001:0005cbe0       ??$peek_va_arg@PEAD@__crt_stdio_output@@YAPEADPEAD@Z 000000018005dbe0 f i libucrtd:output.obj
 0001:0005cc40       ??$peek_va_arg@PEAUansi_string@?1??type_case_Z@?$output_processor@DV?$stream_output_adapter@D@__crt_stdio_output@@V?$positional_parameter_base@DV?$stream_output_adapter@D@__crt_stdio_output@@@2@@__crt_stdio_output@@AEAA_NXZ@@__crt_stdio_output@@YAPEAUansi_string@?1??type_case_Z@?$output_processor@DV?$stream_output_adapter@D@__crt_stdio_output@@V?$positional_parameter_base@DV?$stream_output_adapter@D@__crt_stdio_output@@@2@@0@AEAA_NXZ@PEAD@Z 000000018005dc40 f i libucrtd:output.obj
 0001:0005cca0       ??$peek_va_arg@PEAUansi_string@?1??type_case_Z@?$output_processor@DV?$string_output_adapter@D@__crt_stdio_output@@V?$positional_parameter_base@DV?$string_output_adapter@D@__crt_stdio_output@@@2@@__crt_stdio_output@@AEAA_NXZ@@__crt_stdio_output@@YAPEAUansi_string@?1??type_case_Z@?$output_processor@DV?$string_output_adapter@D@__crt_stdio_output@@V?$positional_parameter_base@DV?$string_output_adapter@D@__crt_stdio_output@@@2@@0@AEAA_NXZ@PEAD@Z 000000018005dca0 f i libucrtd:output.obj
 0001:0005cd00       ??$peek_va_arg@PEAUansi_string@?1??type_case_Z@?$output_processor@_WV?$stream_output_adapter@_W@__crt_stdio_output@@V?$positional_parameter_base@_WV?$stream_output_adapter@_W@__crt_stdio_output@@@2@@__crt_stdio_output@@AEAA_NXZ@@__crt_stdio_output@@YAPEAUansi_string@?1??type_case_Z@?$output_processor@_WV?$stream_output_adapter@_W@__crt_stdio_output@@V?$positional_parameter_base@_WV?$stream_output_adapter@_W@__crt_stdio_output@@@2@@0@AEAA_NXZ@PEAD@Z 000000018005dd00 f i libucrtd:output.obj
 0001:0005cd60       ??$peek_va_arg@PEAUansi_string@?1??type_case_Z@?$output_processor@_WV?$string_output_adapter@_W@__crt_stdio_output@@V?$positional_parameter_base@_WV?$string_output_adapter@_W@__crt_stdio_output@@@2@@__crt_stdio_output@@AEAA_NXZ@@__crt_stdio_output@@YAPEAUansi_string@?1??type_case_Z@?$output_processor@_WV?$string_output_adapter@_W@__crt_stdio_output@@V?$positional_parameter_base@_WV?$string_output_adapter@_W@__crt_stdio_output@@@2@@0@AEAA_NXZ@PEAD@Z 000000018005dd60 f i libucrtd:output.obj
 0001:0005cdc0       ??$peek_va_arg@PEAX@__crt_stdio_output@@YAPEAXPEAD@Z 000000018005ddc0 f i libucrtd:output.obj
 0001:0005ce20       ??$peek_va_arg@U_CRT_DOUBLE@@@__crt_stdio_output@@YA?AU_CRT_DOUBLE@@PEAD@Z 000000018005de20 f i libucrtd:output.obj
 0001:0005ce80       ??$peek_va_arg@_J@__crt_stdio_output@@YA_JPEAD@Z 000000018005de80 f i libucrtd:output.obj
 0001:0005cee0       ??$peek_va_arg@_K@__crt_stdio_output@@YA_KPEAD@Z 000000018005dee0 f i libucrtd:output.obj
 0001:0005cf40       ??$peek_va_arg@_W@__crt_stdio_output@@YA_WPEAD@Z 000000018005df40 f i libucrtd:output.obj
 0001:0005cfa0       ??$puttc_nolock_internal@AEBDPEAU_iobuf@@AEAV__crt_cached_ptd_host@@@?$__crt_char_traits@D@@SAHAEBD$$QEAPEAU_iobuf@@AEAV__crt_cached_ptd_host@@@Z 000000018005dfa0 f i libucrtd:output.obj
 0001:0005cfe0       ??$puttc_nolock_internal@AEB_WPEAU_iobuf@@AEAV__crt_cached_ptd_host@@@?$__crt_char_traits@_W@@SAGAEB_W$$QEAPEAU_iobuf@@AEAV__crt_cached_ptd_host@@@Z 000000018005dfe0 f i libucrtd:output.obj
 0001:0005d020       ??$read_va_arg@C@__crt_stdio_output@@YACAEAPEAD@Z 000000018005e020 f i libucrtd:output.obj
 0001:0005d090       ??$read_va_arg@E@__crt_stdio_output@@YAEAEAPEAD@Z 000000018005e090 f i libucrtd:output.obj
 0001:0005d100       ??$read_va_arg@F@__crt_stdio_output@@YAFAEAPEAD@Z 000000018005e100 f i libucrtd:output.obj
 0001:0005d170       ??$read_va_arg@G@__crt_stdio_output@@YAGAEAPEAD@Z 000000018005e170 f i libucrtd:output.obj
 0001:0005d1e0       ??$read_va_arg@H@__crt_stdio_output@@YAHAEAPEAD@Z 000000018005e1e0 f i libucrtd:output.obj
 0001:0005d240       ??$read_va_arg@I@__crt_stdio_output@@YAIAEAPEAD@Z 000000018005e240 f i libucrtd:output.obj
 0001:0005d2a0       ??$read_va_arg@PEAD@__crt_stdio_output@@YAPEADAEAPEAD@Z 000000018005e2a0 f i libucrtd:output.obj
 0001:0005d310       ??$read_va_arg@PEAUansi_string@?1??type_case_Z@?$output_processor@DV?$stream_output_adapter@D@__crt_stdio_output@@V?$format_validation_base@DV?$stream_output_adapter@D@__crt_stdio_output@@@2@@__crt_stdio_output@@AEAA_NXZ@@__crt_stdio_output@@YAPEAUansi_string@?1??type_case_Z@?$output_processor@DV?$stream_output_adapter@D@__crt_stdio_output@@V?$format_validation_base@DV?$stream_output_adapter@D@__crt_stdio_output@@@2@@0@AEAA_NXZ@AEAPEAD@Z 000000018005e310 f i libucrtd:output.obj
 0001:0005d380       ??$read_va_arg@PEAUansi_string@?1??type_case_Z@?$output_processor@DV?$stream_output_adapter@D@__crt_stdio_output@@V?$positional_parameter_base@DV?$stream_output_adapter@D@__crt_stdio_output@@@2@@__crt_stdio_output@@AEAA_NXZ@@__crt_stdio_output@@YAPEAUansi_string@?1??type_case_Z@?$output_processor@DV?$stream_output_adapter@D@__crt_stdio_output@@V?$positional_parameter_base@DV?$stream_output_adapter@D@__crt_stdio_output@@@2@@0@AEAA_NXZ@AEAPEAD@Z 000000018005e380 f i libucrtd:output.obj
 0001:0005d3f0       ??$read_va_arg@PEAUansi_string@?1??type_case_Z@?$output_processor@DV?$stream_output_adapter@D@__crt_stdio_output@@V?$standard_base@DV?$stream_output_adapter@D@__crt_stdio_output@@@2@@__crt_stdio_output@@AEAA_NXZ@@__crt_stdio_output@@YAPEAUansi_string@?1??type_case_Z@?$output_processor@DV?$stream_output_adapter@D@__crt_stdio_output@@V?$standard_base@DV?$stream_output_adapter@D@__crt_stdio_output@@@2@@0@AEAA_NXZ@AEAPEAD@Z 000000018005e3f0 f i libucrtd:output.obj
 0001:0005d460       ??$read_va_arg@PEAUansi_string@?1??type_case_Z@?$output_processor@DV?$string_output_adapter@D@__crt_stdio_output@@V?$format_validation_base@DV?$string_output_adapter@D@__crt_stdio_output@@@2@@__crt_stdio_output@@AEAA_NXZ@@__crt_stdio_output@@YAPEAUansi_string@?1??type_case_Z@?$output_processor@DV?$string_output_adapter@D@__crt_stdio_output@@V?$format_validation_base@DV?$string_output_adapter@D@__crt_stdio_output@@@2@@0@AEAA_NXZ@AEAPEAD@Z 000000018005e460 f i libucrtd:output.obj
 0001:0005d4d0       ??$read_va_arg@PEAUansi_string@?1??type_case_Z@?$output_processor@DV?$string_output_adapter@D@__crt_stdio_output@@V?$positional_parameter_base@DV?$string_output_adapter@D@__crt_stdio_output@@@2@@__crt_stdio_output@@AEAA_NXZ@@__crt_stdio_output@@YAPEAUansi_string@?1??type_case_Z@?$output_processor@DV?$string_output_adapter@D@__crt_stdio_output@@V?$positional_parameter_base@DV?$string_output_adapter@D@__crt_stdio_output@@@2@@0@AEAA_NXZ@AEAPEAD@Z 000000018005e4d0 f i libucrtd:output.obj
 0001:0005d540       ??$read_va_arg@PEAUansi_string@?1??type_case_Z@?$output_processor@DV?$string_output_adapter@D@__crt_stdio_output@@V?$standard_base@DV?$string_output_adapter@D@__crt_stdio_output@@@2@@__crt_stdio_output@@AEAA_NXZ@@__crt_stdio_output@@YAPEAUansi_string@?1??type_case_Z@?$output_processor@DV?$string_output_adapter@D@__crt_stdio_output@@V?$standard_base@DV?$string_output_adapter@D@__crt_stdio_output@@@2@@0@AEAA_NXZ@AEAPEAD@Z 000000018005e540 f i libucrtd:output.obj
 0001:0005d5b0       ??$read_va_arg@PEAUansi_string@?1??type_case_Z@?$output_processor@_WV?$stream_output_adapter@_W@__crt_stdio_output@@V?$format_validation_base@_WV?$stream_output_adapter@_W@__crt_stdio_output@@@2@@__crt_stdio_output@@AEAA_NXZ@@__crt_stdio_output@@YAPEAUansi_string@?1??type_case_Z@?$output_processor@_WV?$stream_output_adapter@_W@__crt_stdio_output@@V?$format_validation_base@_WV?$stream_output_adapter@_W@__crt_stdio_output@@@2@@0@AEAA_NXZ@AEAPEAD@Z 000000018005e5b0 f i libucrtd:output.obj
 0001:0005d620       ??$read_va_arg@PEAUansi_string@?1??type_case_Z@?$output_processor@_WV?$stream_output_adapter@_W@__crt_stdio_output@@V?$positional_parameter_base@_WV?$stream_output_adapter@_W@__crt_stdio_output@@@2@@__crt_stdio_output@@AEAA_NXZ@@__crt_stdio_output@@YAPEAUansi_string@?1??type_case_Z@?$output_processor@_WV?$stream_output_adapter@_W@__crt_stdio_output@@V?$positional_parameter_base@_WV?$stream_output_adapter@_W@__crt_stdio_output@@@2@@0@AEAA_NXZ@AEAPEAD@Z 000000018005e620 f i libucrtd:output.obj
 0001:0005d690       ??$read_va_arg@PEAUansi_string@?1??type_case_Z@?$output_processor@_WV?$stream_output_adapter@_W@__crt_stdio_output@@V?$standard_base@_WV?$stream_output_adapter@_W@__crt_stdio_output@@@2@@__crt_stdio_output@@AEAA_NXZ@@__crt_stdio_output@@YAPEAUansi_string@?1??type_case_Z@?$output_processor@_WV?$stream_output_adapter@_W@__crt_stdio_output@@V?$standard_base@_WV?$stream_output_adapter@_W@__crt_stdio_output@@@2@@0@AEAA_NXZ@AEAPEAD@Z 000000018005e690 f i libucrtd:output.obj
 0001:0005d700       ??$read_va_arg@PEAUansi_string@?1??type_case_Z@?$output_processor@_WV?$string_output_adapter@_W@__crt_stdio_output@@V?$format_validation_base@_WV?$string_output_adapter@_W@__crt_stdio_output@@@2@@__crt_stdio_output@@AEAA_NXZ@@__crt_stdio_output@@YAPEAUansi_string@?1??type_case_Z@?$output_processor@_WV?$string_output_adapter@_W@__crt_stdio_output@@V?$format_validation_base@_WV?$string_output_adapter@_W@__crt_stdio_output@@@2@@0@AEAA_NXZ@AEAPEAD@Z 000000018005e700 f i libucrtd:output.obj
 0001:0005d770       ??$read_va_arg@PEAUansi_string@?1??type_case_Z@?$output_processor@_WV?$string_output_adapter@_W@__crt_stdio_output@@V?$positional_parameter_base@_WV?$string_output_adapter@_W@__crt_stdio_output@@@2@@__crt_stdio_output@@AEAA_NXZ@@__crt_stdio_output@@YAPEAUansi_string@?1??type_case_Z@?$output_processor@_WV?$string_output_adapter@_W@__crt_stdio_output@@V?$positional_parameter_base@_WV?$string_output_adapter@_W@__crt_stdio_output@@@2@@0@AEAA_NXZ@AEAPEAD@Z 000000018005e770 f i libucrtd:output.obj
 0001:0005d7e0       ??$read_va_arg@PEAUansi_string@?1??type_case_Z@?$output_processor@_WV?$string_output_adapter@_W@__crt_stdio_output@@V?$standard_base@_WV?$string_output_adapter@_W@__crt_stdio_output@@@2@@__crt_stdio_output@@AEAA_NXZ@@__crt_stdio_output@@YAPEAUansi_string@?1??type_case_Z@?$output_processor@_WV?$string_output_adapter@_W@__crt_stdio_output@@V?$standard_base@_WV?$string_output_adapter@_W@__crt_stdio_output@@@2@@0@AEAA_NXZ@AEAPEAD@Z 000000018005e7e0 f i libucrtd:output.obj
 0001:0005d850       ??$read_va_arg@PEAX@__crt_stdio_output@@YAPEAXAEAPEAD@Z 000000018005e850 f i libucrtd:output.obj
 0001:0005d8c0       ??$read_va_arg@U_CRT_DOUBLE@@@__crt_stdio_output@@YA?AU_CRT_DOUBLE@@AEAPEAD@Z 000000018005e8c0 f i libucrtd:output.obj
 0001:0005d930       ??$read_va_arg@_J@__crt_stdio_output@@YA_JAEAPEAD@Z 000000018005e930 f i libucrtd:output.obj
 0001:0005d9a0       ??$read_va_arg@_K@__crt_stdio_output@@YA_KAEAPEAD@Z 000000018005e9a0 f i libucrtd:output.obj
 0001:0005da10       ??$read_va_arg@_W@__crt_stdio_output@@YA_WAEAPEAD@Z 000000018005ea10 f i libucrtd:output.obj
 0001:0005da80       ??$scratch_count@D@formatting_buffer@__crt_stdio_output@@QEBA_KXZ 000000018005ea80 f i libucrtd:output.obj
 0001:0005daa0       ??$scratch_data@D@formatting_buffer@__crt_stdio_output@@QEAAPEADXZ 000000018005eaa0 f i libucrtd:output.obj
 0001:0005db10       ??$type_case_integer@$07@?$output_processor@DV?$stream_output_adapter@D@__crt_stdio_output@@V?$format_validation_base@DV?$stream_output_adapter@D@__crt_stdio_output@@@2@@__crt_stdio_output@@AEAA_N_N@Z 000000018005eb10 f i libucrtd:output.obj
 0001:0005df90       ??$type_case_integer@$07@?$output_processor@DV?$stream_output_adapter@D@__crt_stdio_output@@V?$positional_parameter_base@DV?$stream_output_adapter@D@__crt_stdio_output@@@2@@__crt_stdio_output@@AEAA_N_N@Z 000000018005ef90 f i libucrtd:output.obj
 0001:0005e410       ??$type_case_integer@$07@?$output_processor@DV?$stream_output_adapter@D@__crt_stdio_output@@V?$standard_base@DV?$stream_output_adapter@D@__crt_stdio_output@@@2@@__crt_stdio_output@@AEAA_N_N@Z 000000018005f410 f i libucrtd:output.obj
 0001:0005e890       ??$type_case_integer@$07@?$output_processor@DV?$string_output_adapter@D@__crt_stdio_output@@V?$format_validation_base@DV?$string_output_adapter@D@__crt_stdio_output@@@2@@__crt_stdio_output@@AEAA_N_N@Z 000000018005f890 f i libucrtd:output.obj
 0001:0005ed10       ??$type_case_integer@$07@?$output_processor@DV?$string_output_adapter@D@__crt_stdio_output@@V?$positional_parameter_base@DV?$string_output_adapter@D@__crt_stdio_output@@@2@@__crt_stdio_output@@AEAA_N_N@Z 000000018005fd10 f i libucrtd:output.obj
 0001:0005f190       ??$type_case_integer@$07@?$output_processor@DV?$string_output_adapter@D@__crt_stdio_output@@V?$standard_base@DV?$string_output_adapter@D@__crt_stdio_output@@@2@@__crt_stdio_output@@AEAA_N_N@Z 0000000180060190 f i libucrtd:output.obj
 0001:0005f610       ??$type_case_integer@$07@?$output_processor@_WV?$stream_output_adapter@_W@__crt_stdio_output@@V?$format_validation_base@_WV?$stream_output_adapter@_W@__crt_stdio_output@@@2@@__crt_stdio_output@@AEAA_N_N@Z 0000000180060610 f i libucrtd:output.obj
 0001:0005fa90       ??$type_case_integer@$07@?$output_processor@_WV?$stream_output_adapter@_W@__crt_stdio_output@@V?$positional_parameter_base@_WV?$stream_output_adapter@_W@__crt_stdio_output@@@2@@__crt_stdio_output@@AEAA_N_N@Z 0000000180060a90 f i libucrtd:output.obj
 0001:0005ff10       ??$type_case_integer@$07@?$output_processor@_WV?$stream_output_adapter@_W@__crt_stdio_output@@V?$standard_base@_WV?$stream_output_adapter@_W@__crt_stdio_output@@@2@@__crt_stdio_output@@AEAA_N_N@Z 0000000180060f10 f i libucrtd:output.obj
 0001:00060390       ??$type_case_integer@$07@?$output_processor@_WV?$string_output_adapter@_W@__crt_stdio_output@@V?$format_validation_base@_WV?$string_output_adapter@_W@__crt_stdio_output@@@2@@__crt_stdio_output@@AEAA_N_N@Z 0000000180061390 f i libucrtd:output.obj
 0001:00060810       ??$type_case_integer@$07@?$output_processor@_WV?$string_output_adapter@_W@__crt_stdio_output@@V?$positional_parameter_base@_WV?$string_output_adapter@_W@__crt_stdio_output@@@2@@__crt_stdio_output@@AEAA_N_N@Z 0000000180061810 f i libucrtd:output.obj
 0001:00060c90       ??$type_case_integer@$07@?$output_processor@_WV?$string_output_adapter@_W@__crt_stdio_output@@V?$standard_base@_WV?$string_output_adapter@_W@__crt_stdio_output@@@2@@__crt_stdio_output@@AEAA_N_N@Z 0000000180061c90 f i libucrtd:output.obj
 0001:00061110       ??$type_case_integer@$09@?$output_processor@DV?$stream_output_adapter@D@__crt_stdio_output@@V?$format_validation_base@DV?$stream_output_adapter@D@__crt_stdio_output@@@2@@__crt_stdio_output@@AEAA_N_N@Z 0000000180062110 f i libucrtd:output.obj
 0001:00061590       ??$type_case_integer@$09@?$output_processor@DV?$stream_output_adapter@D@__crt_stdio_output@@V?$positional_parameter_base@DV?$stream_output_adapter@D@__crt_stdio_output@@@2@@__crt_stdio_output@@AEAA_N_N@Z 0000000180062590 f i libucrtd:output.obj
 0001:00061a10       ??$type_case_integer@$09@?$output_processor@DV?$stream_output_adapter@D@__crt_stdio_output@@V?$standard_base@DV?$stream_output_adapter@D@__crt_stdio_output@@@2@@__crt_stdio_output@@AEAA_N_N@Z 0000000180062a10 f i libucrtd:output.obj
 0001:00061e90       ??$type_case_integer@$09@?$output_processor@DV?$string_output_adapter@D@__crt_stdio_output@@V?$format_validation_base@DV?$string_output_adapter@D@__crt_stdio_output@@@2@@__crt_stdio_output@@AEAA_N_N@Z 0000000180062e90 f i libucrtd:output.obj
 0001:00062310       ??$type_case_integer@$09@?$output_processor@DV?$string_output_adapter@D@__crt_stdio_output@@V?$positional_parameter_base@DV?$string_output_adapter@D@__crt_stdio_output@@@2@@__crt_stdio_output@@AEAA_N_N@Z 0000000180063310 f i libucrtd:output.obj
 0001:00062790       ??$type_case_integer@$09@?$output_processor@DV?$string_output_adapter@D@__crt_stdio_output@@V?$standard_base@DV?$string_output_adapter@D@__crt_stdio_output@@@2@@__crt_stdio_output@@AEAA_N_N@Z 0000000180063790 f i libucrtd:output.obj
 0001:00062c10       ??$type_case_integer@$09@?$output_processor@_WV?$stream_output_adapter@_W@__crt_stdio_output@@V?$format_validation_base@_WV?$stream_output_adapter@_W@__crt_stdio_output@@@2@@__crt_stdio_output@@AEAA_N_N@Z 0000000180063c10 f i libucrtd:output.obj
 0001:00063090       ??$type_case_integer@$09@?$output_processor@_WV?$stream_output_adapter@_W@__crt_stdio_output@@V?$positional_parameter_base@_WV?$stream_output_adapter@_W@__crt_stdio_output@@@2@@__crt_stdio_output@@AEAA_N_N@Z 0000000180064090 f i libucrtd:output.obj
 0001:00063510       ??$type_case_integer@$09@?$output_processor@_WV?$stream_output_adapter@_W@__crt_stdio_output@@V?$standard_base@_WV?$stream_output_adapter@_W@__crt_stdio_output@@@2@@__crt_stdio_output@@AEAA_N_N@Z 0000000180064510 f i libucrtd:output.obj
 0001:00063990       ??$type_case_integer@$09@?$output_processor@_WV?$string_output_adapter@_W@__crt_stdio_output@@V?$format_validation_base@_WV?$string_output_adapter@_W@__crt_stdio_output@@@2@@__crt_stdio_output@@AEAA_N_N@Z 0000000180064990 f i libucrtd:output.obj
 0001:00063e10       ??$type_case_integer@$09@?$output_processor@_WV?$string_output_adapter@_W@__crt_stdio_output@@V?$positional_parameter_base@_WV?$string_output_adapter@_W@__crt_stdio_output@@@2@@__crt_stdio_output@@AEAA_N_N@Z 0000000180064e10 f i libucrtd:output.obj
 0001:00064290       ??$type_case_integer@$09@?$output_processor@_WV?$string_output_adapter@_W@__crt_stdio_output@@V?$standard_base@_WV?$string_output_adapter@_W@__crt_stdio_output@@@2@@__crt_stdio_output@@AEAA_N_N@Z 0000000180065290 f i libucrtd:output.obj
 0001:00064710       ??$type_case_integer@$0BA@@?$output_processor@DV?$stream_output_adapter@D@__crt_stdio_output@@V?$format_validation_base@DV?$stream_output_adapter@D@__crt_stdio_output@@@2@@__crt_stdio_output@@AEAA_N_N@Z 0000000180065710 f i libucrtd:output.obj
 0001:00064b90       ??$type_case_integer@$0BA@@?$output_processor@DV?$stream_output_adapter@D@__crt_stdio_output@@V?$positional_parameter_base@DV?$stream_output_adapter@D@__crt_stdio_output@@@2@@__crt_stdio_output@@AEAA_N_N@Z 0000000180065b90 f i libucrtd:output.obj
 0001:00065010       ??$type_case_integer@$0BA@@?$output_processor@DV?$stream_output_adapter@D@__crt_stdio_output@@V?$standard_base@DV?$stream_output_adapter@D@__crt_stdio_output@@@2@@__crt_stdio_output@@AEAA_N_N@Z 0000000180066010 f i libucrtd:output.obj
 0001:00065490       ??$type_case_integer@$0BA@@?$output_processor@DV?$string_output_adapter@D@__crt_stdio_output@@V?$format_validation_base@DV?$string_output_adapter@D@__crt_stdio_output@@@2@@__crt_stdio_output@@AEAA_N_N@Z 0000000180066490 f i libucrtd:output.obj
 0001:00065910       ??$type_case_integer@$0BA@@?$output_processor@DV?$string_output_adapter@D@__crt_stdio_output@@V?$positional_parameter_base@DV?$string_output_adapter@D@__crt_stdio_output@@@2@@__crt_stdio_output@@AEAA_N_N@Z 0000000180066910 f i libucrtd:output.obj
 0001:00065d90       ??$type_case_integer@$0BA@@?$output_processor@DV?$string_output_adapter@D@__crt_stdio_output@@V?$standard_base@DV?$string_output_adapter@D@__crt_stdio_output@@@2@@__crt_stdio_output@@AEAA_N_N@Z 0000000180066d90 f i libucrtd:output.obj
 0001:00066210       ??$type_case_integer@$0BA@@?$output_processor@_WV?$stream_output_adapter@_W@__crt_stdio_output@@V?$format_validation_base@_WV?$stream_output_adapter@_W@__crt_stdio_output@@@2@@__crt_stdio_output@@AEAA_N_N@Z 0000000180067210 f i libucrtd:output.obj
 0001:00066690       ??$type_case_integer@$0BA@@?$output_processor@_WV?$stream_output_adapter@_W@__crt_stdio_output@@V?$positional_parameter_base@_WV?$stream_output_adapter@_W@__crt_stdio_output@@@2@@__crt_stdio_output@@AEAA_N_N@Z 0000000180067690 f i libucrtd:output.obj
 0001:00066b10       ??$type_case_integer@$0BA@@?$output_processor@_WV?$stream_output_adapter@_W@__crt_stdio_output@@V?$standard_base@_WV?$stream_output_adapter@_W@__crt_stdio_output@@@2@@__crt_stdio_output@@AEAA_N_N@Z 0000000180067b10 f i libucrtd:output.obj
 0001:00066f90       ??$type_case_integer@$0BA@@?$output_processor@_WV?$string_output_adapter@_W@__crt_stdio_output@@V?$format_validation_base@_WV?$string_output_adapter@_W@__crt_stdio_output@@@2@@__crt_stdio_output@@AEAA_N_N@Z 0000000180067f90 f i libucrtd:output.obj
 0001:00067410       ??$type_case_integer@$0BA@@?$output_processor@_WV?$string_output_adapter@_W@__crt_stdio_output@@V?$positional_parameter_base@_WV?$string_output_adapter@_W@__crt_stdio_output@@@2@@__crt_stdio_output@@AEAA_N_N@Z 0000000180068410 f i libucrtd:output.obj
 0001:00067890       ??$type_case_integer@$0BA@@?$output_processor@_WV?$string_output_adapter@_W@__crt_stdio_output@@V?$standard_base@_WV?$string_output_adapter@_W@__crt_stdio_output@@@2@@__crt_stdio_output@@AEAA_N_N@Z 0000000180068890 f i libucrtd:output.obj
 0001:00067d10       ??$type_case_integer_parse_into_buffer@I$07@?$output_processor@DV?$stream_output_adapter@D@__crt_stdio_output@@V?$format_validation_base@DV?$stream_output_adapter@D@__crt_stdio_output@@@2@@__crt_stdio_output@@AEAAXI_N@Z 0000000180068d10 f i libucrtd:output.obj
 0001:00067e40       ??$type_case_integer_parse_into_buffer@I$07@?$output_processor@DV?$stream_output_adapter@D@__crt_stdio_output@@V?$positional_parameter_base@DV?$stream_output_adapter@D@__crt_stdio_output@@@2@@__crt_stdio_output@@AEAAXI_N@Z 0000000180068e40 f i libucrtd:output.obj
 0001:00067f70       ??$type_case_integer_parse_into_buffer@I$07@?$output_processor@DV?$stream_output_adapter@D@__crt_stdio_output@@V?$standard_base@DV?$stream_output_adapter@D@__crt_stdio_output@@@2@@__crt_stdio_output@@AEAAXI_N@Z 0000000180068f70 f i libucrtd:output.obj
 0001:000680a0       ??$type_case_integer_parse_into_buffer@I$07@?$output_processor@DV?$string_output_adapter@D@__crt_stdio_output@@V?$format_validation_base@DV?$string_output_adapter@D@__crt_stdio_output@@@2@@__crt_stdio_output@@AEAAXI_N@Z 00000001800690a0 f i libucrtd:output.obj
 0001:000681d0       ??$type_case_integer_parse_into_buffer@I$07@?$output_processor@DV?$string_output_adapter@D@__crt_stdio_output@@V?$positional_parameter_base@DV?$string_output_adapter@D@__crt_stdio_output@@@2@@__crt_stdio_output@@AEAAXI_N@Z 00000001800691d0 f i libucrtd:output.obj
 0001:00068300       ??$type_case_integer_parse_into_buffer@I$07@?$output_processor@DV?$string_output_adapter@D@__crt_stdio_output@@V?$standard_base@DV?$string_output_adapter@D@__crt_stdio_output@@@2@@__crt_stdio_output@@AEAAXI_N@Z 0000000180069300 f i libucrtd:output.obj
 0001:00068430       ??$type_case_integer_parse_into_buffer@I$07@?$output_processor@_WV?$stream_output_adapter@_W@__crt_stdio_output@@V?$format_validation_base@_WV?$stream_output_adapter@_W@__crt_stdio_output@@@2@@__crt_stdio_output@@AEAAXI_N@Z 0000000180069430 f i libucrtd:output.obj
 0001:00068570       ??$type_case_integer_parse_into_buffer@I$07@?$output_processor@_WV?$stream_output_adapter@_W@__crt_stdio_output@@V?$positional_parameter_base@_WV?$stream_output_adapter@_W@__crt_stdio_output@@@2@@__crt_stdio_output@@AEAAXI_N@Z 0000000180069570 f i libucrtd:output.obj
 0001:000686b0       ??$type_case_integer_parse_into_buffer@I$07@?$output_processor@_WV?$stream_output_adapter@_W@__crt_stdio_output@@V?$standard_base@_WV?$stream_output_adapter@_W@__crt_stdio_output@@@2@@__crt_stdio_output@@AEAAXI_N@Z 00000001800696b0 f i libucrtd:output.obj
 0001:000687f0       ??$type_case_integer_parse_into_buffer@I$07@?$output_processor@_WV?$string_output_adapter@_W@__crt_stdio_output@@V?$format_validation_base@_WV?$string_output_adapter@_W@__crt_stdio_output@@@2@@__crt_stdio_output@@AEAAXI_N@Z 00000001800697f0 f i libucrtd:output.obj
 0001:00068930       ??$type_case_integer_parse_into_buffer@I$07@?$output_processor@_WV?$string_output_adapter@_W@__crt_stdio_output@@V?$positional_parameter_base@_WV?$string_output_adapter@_W@__crt_stdio_output@@@2@@__crt_stdio_output@@AEAAXI_N@Z 0000000180069930 f i libucrtd:output.obj
 0001:00068a70       ??$type_case_integer_parse_into_buffer@I$07@?$output_processor@_WV?$string_output_adapter@_W@__crt_stdio_output@@V?$standard_base@_WV?$string_output_adapter@_W@__crt_stdio_output@@@2@@__crt_stdio_output@@AEAAXI_N@Z 0000000180069a70 f i libucrtd:output.obj
 0001:00068bb0       ??$type_case_integer_parse_into_buffer@I$09@?$output_processor@DV?$stream_output_adapter@D@__crt_stdio_output@@V?$format_validation_base@DV?$stream_output_adapter@D@__crt_stdio_output@@@2@@__crt_stdio_output@@AEAAXI_N@Z 0000000180069bb0 f i libucrtd:output.obj
 0001:00068ce0       ??$type_case_integer_parse_into_buffer@I$09@?$output_processor@DV?$stream_output_adapter@D@__crt_stdio_output@@V?$positional_parameter_base@DV?$stream_output_adapter@D@__crt_stdio_output@@@2@@__crt_stdio_output@@AEAAXI_N@Z 0000000180069ce0 f i libucrtd:output.obj
 0001:00068e10       ??$type_case_integer_parse_into_buffer@I$09@?$output_processor@DV?$stream_output_adapter@D@__crt_stdio_output@@V?$standard_base@DV?$stream_output_adapter@D@__crt_stdio_output@@@2@@__crt_stdio_output@@AEAAXI_N@Z 0000000180069e10 f i libucrtd:output.obj
 0001:00068f40       ??$type_case_integer_parse_into_buffer@I$09@?$output_processor@DV?$string_output_adapter@D@__crt_stdio_output@@V?$format_validation_base@DV?$string_output_adapter@D@__crt_stdio_output@@@2@@__crt_stdio_output@@AEAAXI_N@Z 0000000180069f40 f i libucrtd:output.obj
 0001:00069070       ??$type_case_integer_parse_into_buffer@I$09@?$output_processor@DV?$string_output_adapter@D@__crt_stdio_output@@V?$positional_parameter_base@DV?$string_output_adapter@D@__crt_stdio_output@@@2@@__crt_stdio_output@@AEAAXI_N@Z 000000018006a070 f i libucrtd:output.obj
 0001:000691a0       ??$type_case_integer_parse_into_buffer@I$09@?$output_processor@DV?$string_output_adapter@D@__crt_stdio_output@@V?$standard_base@DV?$string_output_adapter@D@__crt_stdio_output@@@2@@__crt_stdio_output@@AEAAXI_N@Z 000000018006a1a0 f i libucrtd:output.obj
 0001:000692d0       ??$type_case_integer_parse_into_buffer@I$09@?$output_processor@_WV?$stream_output_adapter@_W@__crt_stdio_output@@V?$format_validation_base@_WV?$stream_output_adapter@_W@__crt_stdio_output@@@2@@__crt_stdio_output@@AEAAXI_N@Z 000000018006a2d0 f i libucrtd:output.obj
 0001:00069410       ??$type_case_integer_parse_into_buffer@I$09@?$output_processor@_WV?$stream_output_adapter@_W@__crt_stdio_output@@V?$positional_parameter_base@_WV?$stream_output_adapter@_W@__crt_stdio_output@@@2@@__crt_stdio_output@@AEAAXI_N@Z 000000018006a410 f i libucrtd:output.obj
 0001:00069550       ??$type_case_integer_parse_into_buffer@I$09@?$output_processor@_WV?$stream_output_adapter@_W@__crt_stdio_output@@V?$standard_base@_WV?$stream_output_adapter@_W@__crt_stdio_output@@@2@@__crt_stdio_output@@AEAAXI_N@Z 000000018006a550 f i libucrtd:output.obj
 0001:00069690       ??$type_case_integer_parse_into_buffer@I$09@?$output_processor@_WV?$string_output_adapter@_W@__crt_stdio_output@@V?$format_validation_base@_WV?$string_output_adapter@_W@__crt_stdio_output@@@2@@__crt_stdio_output@@AEAAXI_N@Z 000000018006a690 f i libucrtd:output.obj
 0001:000697d0       ??$type_case_integer_parse_into_buffer@I$09@?$output_processor@_WV?$string_output_adapter@_W@__crt_stdio_output@@V?$positional_parameter_base@_WV?$string_output_adapter@_W@__crt_stdio_output@@@2@@__crt_stdio_output@@AEAAXI_N@Z 000000018006a7d0 f i libucrtd:output.obj
 0001:00069910       ??$type_case_integer_parse_into_buffer@I$09@?$output_processor@_WV?$string_output_adapter@_W@__crt_stdio_output@@V?$standard_base@_WV?$string_output_adapter@_W@__crt_stdio_output@@@2@@__crt_stdio_output@@AEAAXI_N@Z 000000018006a910 f i libucrtd:output.obj
 0001:00069a50       ??$type_case_integer_parse_into_buffer@I$0BA@@?$output_processor@DV?$stream_output_adapter@D@__crt_stdio_output@@V?$format_validation_base@DV?$stream_output_adapter@D@__crt_stdio_output@@@2@@__crt_stdio_output@@AEAAXI_N@Z 000000018006aa50 f i libucrtd:output.obj
 0001:00069b80       ??$type_case_integer_parse_into_buffer@I$0BA@@?$output_processor@DV?$stream_output_adapter@D@__crt_stdio_output@@V?$positional_parameter_base@DV?$stream_output_adapter@D@__crt_stdio_output@@@2@@__crt_stdio_output@@AEAAXI_N@Z 000000018006ab80 f i libucrtd:output.obj
 0001:00069cb0       ??$type_case_integer_parse_into_buffer@I$0BA@@?$output_processor@DV?$stream_output_adapter@D@__crt_stdio_output@@V?$standard_base@DV?$stream_output_adapter@D@__crt_stdio_output@@@2@@__crt_stdio_output@@AEAAXI_N@Z 000000018006acb0 f i libucrtd:output.obj
 0001:00069de0       ??$type_case_integer_parse_into_buffer@I$0BA@@?$output_processor@DV?$string_output_adapter@D@__crt_stdio_output@@V?$format_validation_base@DV?$string_output_adapter@D@__crt_stdio_output@@@2@@__crt_stdio_output@@AEAAXI_N@Z 000000018006ade0 f i libucrtd:output.obj
 0001:00069f10       ??$type_case_integer_parse_into_buffer@I$0BA@@?$output_processor@DV?$string_output_adapter@D@__crt_stdio_output@@V?$positional_parameter_base@DV?$string_output_adapter@D@__crt_stdio_output@@@2@@__crt_stdio_output@@AEAAXI_N@Z 000000018006af10 f i libucrtd:output.obj
 0001:0006a040       ??$type_case_integer_parse_into_buffer@I$0BA@@?$output_processor@DV?$string_output_adapter@D@__crt_stdio_output@@V?$standard_base@DV?$string_output_adapter@D@__crt_stdio_output@@@2@@__crt_stdio_output@@AEAAXI_N@Z 000000018006b040 f i libucrtd:output.obj
 0001:0006a170       ??$type_case_integer_parse_into_buffer@I$0BA@@?$output_processor@_WV?$stream_output_adapter@_W@__crt_stdio_output@@V?$format_validation_base@_WV?$stream_output_adapter@_W@__crt_stdio_output@@@2@@__crt_stdio_output@@AEAAXI_N@Z 000000018006b170 f i libucrtd:output.obj
 0001:0006a2b0       ??$type_case_integer_parse_into_buffer@I$0BA@@?$output_processor@_WV?$stream_output_adapter@_W@__crt_stdio_output@@V?$positional_parameter_base@_WV?$stream_output_adapter@_W@__crt_stdio_output@@@2@@__crt_stdio_output@@AEAAXI_N@Z 000000018006b2b0 f i libucrtd:output.obj
 0001:0006a3f0       ??$type_case_integer_parse_into_buffer@I$0BA@@?$output_processor@_WV?$stream_output_adapter@_W@__crt_stdio_output@@V?$standard_base@_WV?$stream_output_adapter@_W@__crt_stdio_output@@@2@@__crt_stdio_output@@AEAAXI_N@Z 000000018006b3f0 f i libucrtd:output.obj
 0001:0006a530       ??$type_case_integer_parse_into_buffer@I$0BA@@?$output_processor@_WV?$string_output_adapter@_W@__crt_stdio_output@@V?$format_validation_base@_WV?$string_output_adapter@_W@__crt_stdio_output@@@2@@__crt_stdio_output@@AEAAXI_N@Z 000000018006b530 f i libucrtd:output.obj
 0001:0006a670       ??$type_case_integer_parse_into_buffer@I$0BA@@?$output_processor@_WV?$string_output_adapter@_W@__crt_stdio_output@@V?$positional_parameter_base@_WV?$string_output_adapter@_W@__crt_stdio_output@@@2@@__crt_stdio_output@@AEAAXI_N@Z 000000018006b670 f i libucrtd:output.obj
 0001:0006a7b0       ??$type_case_integer_parse_into_buffer@I$0BA@@?$output_processor@_WV?$string_output_adapter@_W@__crt_stdio_output@@V?$standard_base@_WV?$string_output_adapter@_W@__crt_stdio_output@@@2@@__crt_stdio_output@@AEAAXI_N@Z 000000018006b7b0 f i libucrtd:output.obj
 0001:0006a8f0       ??$type_case_integer_parse_into_buffer@_K$07@?$output_processor@DV?$stream_output_adapter@D@__crt_stdio_output@@V?$format_validation_base@DV?$stream_output_adapter@D@__crt_stdio_output@@@2@@__crt_stdio_output@@AEAAX_K_N@Z 000000018006b8f0 f i libucrtd:output.obj
 0001:0006aa30       ??$type_case_integer_parse_into_buffer@_K$07@?$output_processor@DV?$stream_output_adapter@D@__crt_stdio_output@@V?$positional_parameter_base@DV?$stream_output_adapter@D@__crt_stdio_output@@@2@@__crt_stdio_output@@AEAAX_K_N@Z 000000018006ba30 f i libucrtd:output.obj
 0001:0006ab70       ??$type_case_integer_parse_into_buffer@_K$07@?$output_processor@DV?$stream_output_adapter@D@__crt_stdio_output@@V?$standard_base@DV?$stream_output_adapter@D@__crt_stdio_output@@@2@@__crt_stdio_output@@AEAAX_K_N@Z 000000018006bb70 f i libucrtd:output.obj
 0001:0006acb0       ??$type_case_integer_parse_into_buffer@_K$07@?$output_processor@DV?$string_output_adapter@D@__crt_stdio_output@@V?$format_validation_base@DV?$string_output_adapter@D@__crt_stdio_output@@@2@@__crt_stdio_output@@AEAAX_K_N@Z 000000018006bcb0 f i libucrtd:output.obj
 0001:0006adf0       ??$type_case_integer_parse_into_buffer@_K$07@?$output_processor@DV?$string_output_adapter@D@__crt_stdio_output@@V?$positional_parameter_base@DV?$string_output_adapter@D@__crt_stdio_output@@@2@@__crt_stdio_output@@AEAAX_K_N@Z 000000018006bdf0 f i libucrtd:output.obj
 0001:0006af30       ??$type_case_integer_parse_into_buffer@_K$07@?$output_processor@DV?$string_output_adapter@D@__crt_stdio_output@@V?$standard_base@DV?$string_output_adapter@D@__crt_stdio_output@@@2@@__crt_stdio_output@@AEAAX_K_N@Z 000000018006bf30 f i libucrtd:output.obj
 0001:0006b070       ??$type_case_integer_parse_into_buffer@_K$07@?$output_processor@_WV?$stream_output_adapter@_W@__crt_stdio_output@@V?$format_validation_base@_WV?$stream_output_adapter@_W@__crt_stdio_output@@@2@@__crt_stdio_output@@AEAAX_K_N@Z 000000018006c070 f i libucrtd:output.obj
 0001:0006b1b0       ??$type_case_integer_parse_into_buffer@_K$07@?$output_processor@_WV?$stream_output_adapter@_W@__crt_stdio_output@@V?$positional_parameter_base@_WV?$stream_output_adapter@_W@__crt_stdio_output@@@2@@__crt_stdio_output@@AEAAX_K_N@Z 000000018006c1b0 f i libucrtd:output.obj
 0001:0006b2f0       ??$type_case_integer_parse_into_buffer@_K$07@?$output_processor@_WV?$stream_output_adapter@_W@__crt_stdio_output@@V?$standard_base@_WV?$stream_output_adapter@_W@__crt_stdio_output@@@2@@__crt_stdio_output@@AEAAX_K_N@Z 000000018006c2f0 f i libucrtd:output.obj
 0001:0006b430       ??$type_case_integer_parse_into_buffer@_K$07@?$output_processor@_WV?$string_output_adapter@_W@__crt_stdio_output@@V?$format_validation_base@_WV?$string_output_adapter@_W@__crt_stdio_output@@@2@@__crt_stdio_output@@AEAAX_K_N@Z 000000018006c430 f i libucrtd:output.obj
 0001:0006b570       ??$type_case_integer_parse_into_buffer@_K$07@?$output_processor@_WV?$string_output_adapter@_W@__crt_stdio_output@@V?$positional_parameter_base@_WV?$string_output_adapter@_W@__crt_stdio_output@@@2@@__crt_stdio_output@@AEAAX_K_N@Z 000000018006c570 f i libucrtd:output.obj
 0001:0006b6b0       ??$type_case_integer_parse_into_buffer@_K$07@?$output_processor@_WV?$string_output_adapter@_W@__crt_stdio_output@@V?$standard_base@_WV?$string_output_adapter@_W@__crt_stdio_output@@@2@@__crt_stdio_output@@AEAAX_K_N@Z 000000018006c6b0 f i libucrtd:output.obj
 0001:0006b7f0       ??$type_case_integer_parse_into_buffer@_K$09@?$output_processor@DV?$stream_output_adapter@D@__crt_stdio_output@@V?$format_validation_base@DV?$stream_output_adapter@D@__crt_stdio_output@@@2@@__crt_stdio_output@@AEAAX_K_N@Z 000000018006c7f0 f i libucrtd:output.obj
 0001:0006b930       ??$type_case_integer_parse_into_buffer@_K$09@?$output_processor@DV?$stream_output_adapter@D@__crt_stdio_output@@V?$positional_parameter_base@DV?$stream_output_adapter@D@__crt_stdio_output@@@2@@__crt_stdio_output@@AEAAX_K_N@Z 000000018006c930 f i libucrtd:output.obj
 0001:0006ba70       ??$type_case_integer_parse_into_buffer@_K$09@?$output_processor@DV?$stream_output_adapter@D@__crt_stdio_output@@V?$standard_base@DV?$stream_output_adapter@D@__crt_stdio_output@@@2@@__crt_stdio_output@@AEAAX_K_N@Z 000000018006ca70 f i libucrtd:output.obj
 0001:0006bbb0       ??$type_case_integer_parse_into_buffer@_K$09@?$output_processor@DV?$string_output_adapter@D@__crt_stdio_output@@V?$format_validation_base@DV?$string_output_adapter@D@__crt_stdio_output@@@2@@__crt_stdio_output@@AEAAX_K_N@Z 000000018006cbb0 f i libucrtd:output.obj
 0001:0006bcf0       ??$type_case_integer_parse_into_buffer@_K$09@?$output_processor@DV?$string_output_adapter@D@__crt_stdio_output@@V?$positional_parameter_base@DV?$string_output_adapter@D@__crt_stdio_output@@@2@@__crt_stdio_output@@AEAAX_K_N@Z 000000018006ccf0 f i libucrtd:output.obj
 0001:0006be30       ??$type_case_integer_parse_into_buffer@_K$09@?$output_processor@DV?$string_output_adapter@D@__crt_stdio_output@@V?$standard_base@DV?$string_output_adapter@D@__crt_stdio_output@@@2@@__crt_stdio_output@@AEAAX_K_N@Z 000000018006ce30 f i libucrtd:output.obj
 0001:0006bf70       ??$type_case_integer_parse_into_buffer@_K$09@?$output_processor@_WV?$stream_output_adapter@_W@__crt_stdio_output@@V?$format_validation_base@_WV?$stream_output_adapter@_W@__crt_stdio_output@@@2@@__crt_stdio_output@@AEAAX_K_N@Z 000000018006cf70 f i libucrtd:output.obj
 0001:0006c0b0       ??$type_case_integer_parse_into_buffer@_K$09@?$output_processor@_WV?$stream_output_adapter@_W@__crt_stdio_output@@V?$positional_parameter_base@_WV?$stream_output_adapter@_W@__crt_stdio_output@@@2@@__crt_stdio_output@@AEAAX_K_N@Z 000000018006d0b0 f i libucrtd:output.obj
 0001:0006c1f0       ??$type_case_integer_parse_into_buffer@_K$09@?$output_processor@_WV?$stream_output_adapter@_W@__crt_stdio_output@@V?$standard_base@_WV?$stream_output_adapter@_W@__crt_stdio_output@@@2@@__crt_stdio_output@@AEAAX_K_N@Z 000000018006d1f0 f i libucrtd:output.obj
 0001:0006c330       ??$type_case_integer_parse_into_buffer@_K$09@?$output_processor@_WV?$string_output_adapter@_W@__crt_stdio_output@@V?$format_validation_base@_WV?$string_output_adapter@_W@__crt_stdio_output@@@2@@__crt_stdio_output@@AEAAX_K_N@Z 000000018006d330 f i libucrtd:output.obj
 0001:0006c470       ??$type_case_integer_parse_into_buffer@_K$09@?$output_processor@_WV?$string_output_adapter@_W@__crt_stdio_output@@V?$positional_parameter_base@_WV?$string_output_adapter@_W@__crt_stdio_output@@@2@@__crt_stdio_output@@AEAAX_K_N@Z 000000018006d470 f i libucrtd:output.obj
 0001:0006c5b0       ??$type_case_integer_parse_into_buffer@_K$09@?$output_processor@_WV?$string_output_adapter@_W@__crt_stdio_output@@V?$standard_base@_WV?$string_output_adapter@_W@__crt_stdio_output@@@2@@__crt_stdio_output@@AEAAX_K_N@Z 000000018006d5b0 f i libucrtd:output.obj
 0001:0006c6f0       ??$type_case_integer_parse_into_buffer@_K$0BA@@?$output_processor@DV?$stream_output_adapter@D@__crt_stdio_output@@V?$format_validation_base@DV?$stream_output_adapter@D@__crt_stdio_output@@@2@@__crt_stdio_output@@AEAAX_K_N@Z 000000018006d6f0 f i libucrtd:output.obj
 0001:0006c830       ??$type_case_integer_parse_into_buffer@_K$0BA@@?$output_processor@DV?$stream_output_adapter@D@__crt_stdio_output@@V?$positional_parameter_base@DV?$stream_output_adapter@D@__crt_stdio_output@@@2@@__crt_stdio_output@@AEAAX_K_N@Z 000000018006d830 f i libucrtd:output.obj
 0001:0006c970       ??$type_case_integer_parse_into_buffer@_K$0BA@@?$output_processor@DV?$stream_output_adapter@D@__crt_stdio_output@@V?$standard_base@DV?$stream_output_adapter@D@__crt_stdio_output@@@2@@__crt_stdio_output@@AEAAX_K_N@Z 000000018006d970 f i libucrtd:output.obj
 0001:0006cab0       ??$type_case_integer_parse_into_buffer@_K$0BA@@?$output_processor@DV?$string_output_adapter@D@__crt_stdio_output@@V?$format_validation_base@DV?$string_output_adapter@D@__crt_stdio_output@@@2@@__crt_stdio_output@@AEAAX_K_N@Z 000000018006dab0 f i libucrtd:output.obj
 0001:0006cbf0       ??$type_case_integer_parse_into_buffer@_K$0BA@@?$output_processor@DV?$string_output_adapter@D@__crt_stdio_output@@V?$positional_parameter_base@DV?$string_output_adapter@D@__crt_stdio_output@@@2@@__crt_stdio_output@@AEAAX_K_N@Z 000000018006dbf0 f i libucrtd:output.obj
 0001:0006cd30       ??$type_case_integer_parse_into_buffer@_K$0BA@@?$output_processor@DV?$string_output_adapter@D@__crt_stdio_output@@V?$standard_base@DV?$string_output_adapter@D@__crt_stdio_output@@@2@@__crt_stdio_output@@AEAAX_K_N@Z 000000018006dd30 f i libucrtd:output.obj
 0001:0006ce70       ??$type_case_integer_parse_into_buffer@_K$0BA@@?$output_processor@_WV?$stream_output_adapter@_W@__crt_stdio_output@@V?$format_validation_base@_WV?$stream_output_adapter@_W@__crt_stdio_output@@@2@@__crt_stdio_output@@AEAAX_K_N@Z 000000018006de70 f i libucrtd:output.obj
 0001:0006cfb0       ??$type_case_integer_parse_into_buffer@_K$0BA@@?$output_processor@_WV?$stream_output_adapter@_W@__crt_stdio_output@@V?$positional_parameter_base@_WV?$stream_output_adapter@_W@__crt_stdio_output@@@2@@__crt_stdio_output@@AEAAX_K_N@Z 000000018006dfb0 f i libucrtd:output.obj
 0001:0006d0f0       ??$type_case_integer_parse_into_buffer@_K$0BA@@?$output_processor@_WV?$stream_output_adapter@_W@__crt_stdio_output@@V?$standard_base@_WV?$stream_output_adapter@_W@__crt_stdio_output@@@2@@__crt_stdio_output@@AEAAX_K_N@Z 000000018006e0f0 f i libucrtd:output.obj
 0001:0006d230       ??$type_case_integer_parse_into_buffer@_K$0BA@@?$output_processor@_WV?$string_output_adapter@_W@__crt_stdio_output@@V?$format_validation_base@_WV?$string_output_adapter@_W@__crt_stdio_output@@@2@@__crt_stdio_output@@AEAAX_K_N@Z 000000018006e230 f i libucrtd:output.obj
 0001:0006d370       ??$type_case_integer_parse_into_buffer@_K$0BA@@?$output_processor@_WV?$string_output_adapter@_W@__crt_stdio_output@@V?$positional_parameter_base@_WV?$string_output_adapter@_W@__crt_stdio_output@@@2@@__crt_stdio_output@@AEAAX_K_N@Z 000000018006e370 f i libucrtd:output.obj
 0001:0006d4b0       ??$type_case_integer_parse_into_buffer@_K$0BA@@?$output_processor@_WV?$string_output_adapter@_W@__crt_stdio_output@@V?$standard_base@_WV?$string_output_adapter@_W@__crt_stdio_output@@@2@@__crt_stdio_output@@AEAAX_K_N@Z 000000018006e4b0 f i libucrtd:output.obj
 0001:0006d5f0       ??$write_multiple_characters@V?$stream_output_adapter@D@__crt_stdio_output@@D@__crt_stdio_output@@YAXAEBV?$stream_output_adapter@D@0@DHQEAHAEAV__crt_cached_ptd_host@@@Z 000000018006e5f0 f i libucrtd:output.obj
 0001:0006d660       ??$write_multiple_characters@V?$stream_output_adapter@_W@__crt_stdio_output@@D@__crt_stdio_output@@YAXAEBV?$stream_output_adapter@_W@0@DHQEAHAEAV__crt_cached_ptd_host@@@Z 000000018006e660 f i libucrtd:output.obj
 0001:0006d6d0       ??$write_multiple_characters@V?$string_output_adapter@D@__crt_stdio_output@@D@__crt_stdio_output@@YAXAEBV?$string_output_adapter@D@0@DHQEAHAEAV__crt_cached_ptd_host@@@Z 000000018006e6d0 f i libucrtd:output.obj
 0001:0006d740       ??$write_multiple_characters@V?$string_output_adapter@_W@__crt_stdio_output@@D@__crt_stdio_output@@YAXAEBV?$string_output_adapter@_W@0@DHQEAHAEAV__crt_cached_ptd_host@@@Z 000000018006e740 f i libucrtd:output.obj
 0001:0006db70       ??0?$c_string_character_source@D@__crt_strtox@@QEAA@QEBDQEAPEBD@Z 000000018006eb70 f i libucrtd:output.obj
 0001:0006dbc0       ??0?$c_string_character_source@_W@__crt_strtox@@QEAA@QEB_WQEAPEB_W@Z 000000018006ebc0 f i libucrtd:output.obj
 0001:0006dc10       ??0?$cached@H@__crt_cached_ptd_host@@QEAA@XZ 000000018006ec10 f i libucrtd:output.obj
 0001:0006dc30       ??0?$cached@K@__crt_cached_ptd_host@@QEAA@XZ 000000018006ec30 f i libucrtd:output.obj
 0001:0006dc50       ??0?$common_data@D@__crt_stdio_output@@IEAA@AEAV__crt_cached_ptd_host@@@Z 000000018006ec50 f i libucrtd:output.obj
 0001:0006dd10       ??0?$common_data@_W@__crt_stdio_output@@IEAA@AEAV__crt_cached_ptd_host@@@Z 000000018006ed10 f i libucrtd:output.obj
 0001:0006ddd0       ??0?$output_adapter_data@DV?$stream_output_adapter@D@__crt_stdio_output@@@__crt_stdio_output@@IEAA@AEBV?$stream_output_adapter@D@1@_KQEBDAEAV__crt_cached_ptd_host@@QEAD@Z 000000018006edd0 f i libucrtd:output.obj
 0001:0006de50       ??0?$output_adapter_data@DV?$string_output_adapter@D@__crt_stdio_output@@@__crt_stdio_output@@IEAA@AEBV?$string_output_adapter@D@1@_KQEBDAEAV__crt_cached_ptd_host@@QEAD@Z 000000018006ee50 f i libucrtd:output.obj
 0001:0006ded0       ??0?$output_adapter_data@_WV?$stream_output_adapter@_W@__crt_stdio_output@@@__crt_stdio_output@@IEAA@AEBV?$stream_output_adapter@_W@1@_KQEB_WAEAV__crt_cached_ptd_host@@QEAD@Z 000000018006eed0 f i libucrtd:output.obj
 0001:0006df50       ??0?$output_adapter_data@_WV?$string_output_adapter@_W@__crt_stdio_output@@@__crt_stdio_output@@IEAA@AEBV?$string_output_adapter@_W@1@_KQEB_WAEAV__crt_cached_ptd_host@@QEAD@Z 000000018006ef50 f i libucrtd:output.obj
 0001:0006dfd0       ??0?$output_processor@DV?$stream_output_adapter@D@__crt_stdio_output@@V?$format_validation_base@DV?$stream_output_adapter@D@__crt_stdio_output@@@2@@__crt_stdio_output@@QEAA@AEBV?$stream_output_adapter@D@1@_KQEBDAEAV__crt_cached_ptd_host@@QEAD@Z 000000018006efd0 f i libucrtd:output.obj
 0001:0006e020       ??0?$output_processor@DV?$stream_output_adapter@D@__crt_stdio_output@@V?$positional_parameter_base@DV?$stream_output_adapter@D@__crt_stdio_output@@@2@@__crt_stdio_output@@QEAA@AEBV?$stream_output_adapter@D@1@_KQEBDAEAV__crt_cached_ptd_host@@QEAD@Z 000000018006f020 f i libucrtd:output.obj
 0001:0006e070       ??0?$output_processor@DV?$stream_output_adapter@D@__crt_stdio_output@@V?$standard_base@DV?$stream_output_adapter@D@__crt_stdio_output@@@2@@__crt_stdio_output@@QEAA@AEBV?$stream_output_adapter@D@1@_KQEBDAEAV__crt_cached_ptd_host@@QEAD@Z 000000018006f070 f i libucrtd:output.obj
 0001:0006e0c0       ??0?$output_processor@DV?$string_output_adapter@D@__crt_stdio_output@@V?$format_validation_base@DV?$string_output_adapter@D@__crt_stdio_output@@@2@@__crt_stdio_output@@QEAA@AEBV?$string_output_adapter@D@1@_KQEBDAEAV__crt_cached_ptd_host@@QEAD@Z 000000018006f0c0 f i libucrtd:output.obj
 0001:0006e110       ??0?$output_processor@DV?$string_output_adapter@D@__crt_stdio_output@@V?$positional_parameter_base@DV?$string_output_adapter@D@__crt_stdio_output@@@2@@__crt_stdio_output@@QEAA@AEBV?$string_output_adapter@D@1@_KQEBDAEAV__crt_cached_ptd_host@@QEAD@Z 000000018006f110 f i libucrtd:output.obj
 0001:0006e160       ??0?$output_processor@DV?$string_output_adapter@D@__crt_stdio_output@@V?$standard_base@DV?$string_output_adapter@D@__crt_stdio_output@@@2@@__crt_stdio_output@@QEAA@AEBV?$string_output_adapter@D@1@_KQEBDAEAV__crt_cached_ptd_host@@QEAD@Z 000000018006f160 f i libucrtd:output.obj
 0001:0006e1b0       ??0?$output_processor@_WV?$stream_output_adapter@_W@__crt_stdio_output@@V?$format_validation_base@_WV?$stream_output_adapter@_W@__crt_stdio_output@@@2@@__crt_stdio_output@@QEAA@AEBV?$stream_output_adapter@_W@1@_KQEB_WAEAV__crt_cached_ptd_host@@QEAD@Z 000000018006f1b0 f i libucrtd:output.obj
 0001:0006e200       ??0?$output_processor@_WV?$stream_output_adapter@_W@__crt_stdio_output@@V?$positional_parameter_base@_WV?$stream_output_adapter@_W@__crt_stdio_output@@@2@@__crt_stdio_output@@QEAA@AEBV?$stream_output_adapter@_W@1@_KQEB_WAEAV__crt_cached_ptd_host@@QEAD@Z 000000018006f200 f i libucrtd:output.obj
 0001:0006e250       ??0?$output_processor@_WV?$stream_output_adapter@_W@__crt_stdio_output@@V?$standard_base@_WV?$stream_output_adapter@_W@__crt_stdio_output@@@2@@__crt_stdio_output@@QEAA@AEBV?$stream_output_adapter@_W@1@_KQEB_WAEAV__crt_cached_ptd_host@@QEAD@Z 000000018006f250 f i libucrtd:output.obj
 0001:0006e2a0       ??0?$output_processor@_WV?$string_output_adapter@_W@__crt_stdio_output@@V?$format_validation_base@_WV?$string_output_adapter@_W@__crt_stdio_output@@@2@@__crt_stdio_output@@QEAA@AEBV?$string_output_adapter@_W@1@_KQEB_WAEAV__crt_cached_ptd_host@@QEAD@Z 000000018006f2a0 f i libucrtd:output.obj
 0001:0006e2f0       ??0?$output_processor@_WV?$string_output_adapter@_W@__crt_stdio_output@@V?$positional_parameter_base@_WV?$string_output_adapter@_W@__crt_stdio_output@@@2@@__crt_stdio_output@@QEAA@AEBV?$string_output_adapter@_W@1@_KQEB_WAEAV__crt_cached_ptd_host@@QEAD@Z 000000018006f2f0 f i libucrtd:output.obj
 0001:0006e340       ??0?$output_processor@_WV?$string_output_adapter@_W@__crt_stdio_output@@V?$standard_base@_WV?$string_output_adapter@_W@__crt_stdio_output@@@2@@__crt_stdio_output@@QEAA@AEBV?$string_output_adapter@_W@1@_KQEB_WAEAV__crt_cached_ptd_host@@QEAD@Z 000000018006f340 f i libucrtd:output.obj
 0001:0006e390       ??0?$stream_output_adapter@D@__crt_stdio_output@@QEAA@QEAU_iobuf@@@Z 000000018006f390 f i libucrtd:output.obj
 0001:0006e3d0       ??0?$stream_output_adapter@_W@__crt_stdio_output@@QEAA@QEAU_iobuf@@@Z 000000018006f3d0 f i libucrtd:output.obj
 0001:0006e410       ??0?$string_output_adapter@D@__crt_stdio_output@@QEAA@QEAU?$string_output_adapter_context@D@1@@Z 000000018006f410 f i libucrtd:output.obj
 0001:0006e430       ??0?$string_output_adapter@_W@__crt_stdio_output@@QEAA@QEAU?$string_output_adapter_context@_W@1@@Z 000000018006f430 f i libucrtd:output.obj
 0001:0006e450       ??0__acrt_stdio_temporary_buffering_guard@@QEAA@QEAU_iobuf@@AEAV__crt_cached_ptd_host@@@Z 000000018006f450 f i libucrtd:output.obj
 0001:0006e4a0       ??0__crt_cached_ptd_host@@QEAA@QEAU__crt_locale_pointers@@@Z 000000018006f4a0 f i libucrtd:output.obj
 0001:0006e560       ??0__crt_scoped_get_last_error_reset@@QEAA@XZ 000000018006f560 f i libucrtd:output.obj
 0001:0006e580       ??0__crt_stdio_stream@@QEAA@QEAU_iobuf@@@Z 000000018006f580 f i libucrtd:output.obj
 0001:0006e5a0       ??0formatting_buffer@__crt_stdio_output@@QEAA@XZ 000000018006f5a0 f i libucrtd:output.obj
 0001:0006e5e0       ??0guard@?$cached@H@__crt_cached_ptd_host@@QEAA@AEAU12@@Z 000000018006f5e0 f i libucrtd:output.obj
 0001:0006e620       ??1?$c_string_character_source@D@__crt_strtox@@QEAA@XZ 000000018006f620 f i libucrtd:output.obj
 0001:0006e650       ??1?$c_string_character_source@_W@__crt_strtox@@QEAA@XZ 000000018006f650 f i libucrtd:output.obj
 0001:0006e680       ??1?$common_data@D@__crt_stdio_output@@QEAA@XZ 000000018006f680 f i libucrtd:output.obj
 0001:0006e6a0       ??1?$common_data@_W@__crt_stdio_output@@QEAA@XZ 000000018006f6a0 f i libucrtd:output.obj
 0001:0006e6c0       ??1?$format_validation_base@DV?$stream_output_adapter@D@__crt_stdio_output@@@__crt_stdio_output@@QEAA@XZ 000000018006f6c0 f i libucrtd:output.obj
 0001:0006e6e0       ??1?$format_validation_base@DV?$string_output_adapter@D@__crt_stdio_output@@@__crt_stdio_output@@QEAA@XZ 000000018006f6e0 f i libucrtd:output.obj
 0001:0006e700       ??1?$format_validation_base@_WV?$stream_output_adapter@_W@__crt_stdio_output@@@__crt_stdio_output@@QEAA@XZ 000000018006f700 f i libucrtd:output.obj
 0001:0006e720       ??1?$format_validation_base@_WV?$string_output_adapter@_W@__crt_stdio_output@@@__crt_stdio_output@@QEAA@XZ 000000018006f720 f i libucrtd:output.obj
 0001:0006e740       ??1?$output_adapter_data@DV?$stream_output_adapter@D@__crt_stdio_output@@@__crt_stdio_output@@QEAA@XZ 000000018006f740 f i libucrtd:output.obj
 0001:0006e760       ??1?$output_adapter_data@DV?$string_output_adapter@D@__crt_stdio_output@@@__crt_stdio_output@@QEAA@XZ 000000018006f760 f i libucrtd:output.obj
 0001:0006e780       ??1?$output_adapter_data@_WV?$stream_output_adapter@_W@__crt_stdio_output@@@__crt_stdio_output@@QEAA@XZ 000000018006f780 f i libucrtd:output.obj
 0001:0006e7a0       ??1?$output_adapter_data@_WV?$string_output_adapter@_W@__crt_stdio_output@@@__crt_stdio_output@@QEAA@XZ 000000018006f7a0 f i libucrtd:output.obj
 0001:0006e7c0       ??1?$output_processor@DV?$stream_output_adapter@D@__crt_stdio_output@@V?$format_validation_base@DV?$stream_output_adapter@D@__crt_stdio_output@@@2@@__crt_stdio_output@@QEAA@XZ 000000018006f7c0 f i libucrtd:output.obj
 0001:0006e7e0       ??1?$output_processor@DV?$stream_output_adapter@D@__crt_stdio_output@@V?$positional_parameter_base@DV?$stream_output_adapter@D@__crt_stdio_output@@@2@@__crt_stdio_output@@QEAA@XZ 000000018006f7e0 f i libucrtd:output.obj
 0001:0006e800       ??1?$output_processor@DV?$stream_output_adapter@D@__crt_stdio_output@@V?$standard_base@DV?$stream_output_adapter@D@__crt_stdio_output@@@2@@__crt_stdio_output@@QEAA@XZ 000000018006f800 f i libucrtd:output.obj
 0001:0006e820       ??1?$output_processor@DV?$string_output_adapter@D@__crt_stdio_output@@V?$format_validation_base@DV?$string_output_adapter@D@__crt_stdio_output@@@2@@__crt_stdio_output@@QEAA@XZ 000000018006f820 f i libucrtd:output.obj
 0001:0006e840       ??1?$output_processor@DV?$string_output_adapter@D@__crt_stdio_output@@V?$positional_parameter_base@DV?$string_output_adapter@D@__crt_stdio_output@@@2@@__crt_stdio_output@@QEAA@XZ 000000018006f840 f i libucrtd:output.obj
 0001:0006e860       ??1?$output_processor@DV?$string_output_adapter@D@__crt_stdio_output@@V?$standard_base@DV?$string_output_adapter@D@__crt_stdio_output@@@2@@__crt_stdio_output@@QEAA@XZ 000000018006f860 f i libucrtd:output.obj
 0001:0006e880       ??1?$output_processor@_WV?$stream_output_adapter@_W@__crt_stdio_output@@V?$format_validation_base@_WV?$stream_output_adapter@_W@__crt_stdio_output@@@2@@__crt_stdio_output@@QEAA@XZ 000000018006f880 f i libucrtd:output.obj
 0001:0006e8a0       ??1?$output_processor@_WV?$stream_output_adapter@_W@__crt_stdio_output@@V?$positional_parameter_base@_WV?$stream_output_adapter@_W@__crt_stdio_output@@@2@@__crt_stdio_output@@QEAA@XZ 000000018006f8a0 f i libucrtd:output.obj
 0001:0006e8c0       ??1?$output_processor@_WV?$stream_output_adapter@_W@__crt_stdio_output@@V?$standard_base@_WV?$stream_output_adapter@_W@__crt_stdio_output@@@2@@__crt_stdio_output@@QEAA@XZ 000000018006f8c0 f i libucrtd:output.obj
 0001:0006e8e0       ??1?$output_processor@_WV?$string_output_adapter@_W@__crt_stdio_output@@V?$format_validation_base@_WV?$string_output_adapter@_W@__crt_stdio_output@@@2@@__crt_stdio_output@@QEAA@XZ 000000018006f8e0 f i libucrtd:output.obj
 0001:0006e900       ??1?$output_processor@_WV?$string_output_adapter@_W@__crt_stdio_output@@V?$positional_parameter_base@_WV?$string_output_adapter@_W@__crt_stdio_output@@@2@@__crt_stdio_output@@QEAA@XZ 000000018006f900 f i libucrtd:output.obj
 0001:0006e920       ??1?$output_processor@_WV?$string_output_adapter@_W@__crt_stdio_output@@V?$standard_base@_WV?$string_output_adapter@_W@__crt_stdio_output@@@2@@__crt_stdio_output@@QEAA@XZ 000000018006f920 f i libucrtd:output.obj
 0001:0006e940       ??1?$positional_parameter_base@DV?$stream_output_adapter@D@__crt_stdio_output@@@__crt_stdio_output@@QEAA@XZ 000000018006f940 f i libucrtd:output.obj
 0001:0006e960       ??1?$positional_parameter_base@DV?$string_output_adapter@D@__crt_stdio_output@@@__crt_stdio_output@@QEAA@XZ 000000018006f960 f i libucrtd:output.obj
 0001:0006e980       ??1?$positional_parameter_base@_WV?$stream_output_adapter@_W@__crt_stdio_output@@@__crt_stdio_output@@QEAA@XZ 000000018006f980 f i libucrtd:output.obj
 0001:0006e9a0       ??1?$positional_parameter_base@_WV?$string_output_adapter@_W@__crt_stdio_output@@@__crt_stdio_output@@QEAA@XZ 000000018006f9a0 f i libucrtd:output.obj
 0001:0006e9c0       ??1?$standard_base@DV?$stream_output_adapter@D@__crt_stdio_output@@@__crt_stdio_output@@QEAA@XZ 000000018006f9c0 f i libucrtd:output.obj
 0001:0006e9e0       ??1?$standard_base@DV?$string_output_adapter@D@__crt_stdio_output@@@__crt_stdio_output@@QEAA@XZ 000000018006f9e0 f i libucrtd:output.obj
 0001:0006ea00       ??1?$standard_base@_WV?$stream_output_adapter@_W@__crt_stdio_output@@@__crt_stdio_output@@QEAA@XZ 000000018006fa00 f i libucrtd:output.obj
 0001:0006ea20       ??1?$standard_base@_WV?$string_output_adapter@_W@__crt_stdio_output@@@__crt_stdio_output@@QEAA@XZ 000000018006fa20 f i libucrtd:output.obj
 0001:0006ea40       ??1__acrt_stdio_temporary_buffering_guard@@QEAA@XZ 000000018006fa40 f i libucrtd:output.obj
 0001:0006ea70       ??1__crt_cached_ptd_host@@QEAA@XZ 000000018006fa70 f i libucrtd:output.obj
 0001:0006eb20       ??1__crt_scoped_get_last_error_reset@@QEAA@XZ 000000018006fb20 f i libucrtd:output.obj
 0001:0006eb40       ??1formatting_buffer@__crt_stdio_output@@QEAA@XZ 000000018006fb40 f i libucrtd:output.obj
 0001:0006eb70       ??1guard@?$cached@H@__crt_cached_ptd_host@@QEAA@XZ 000000018006fb70 f i libucrtd:output.obj
 0001:0006eba0       ??4?$__crt_unique_heap_ptr@DU__crt_internal_free_policy@@@@QEAAAEAV0@$$QEAV0@@Z 000000018006fba0 f i libucrtd:output.obj
 0001:0006ebe0       ??A?$spectre_mitigated_lookup_table@Ustate_transition_pair@__crt_stdio_output@@$0IA@@__crt_stdio_output@@QEBAAEBUstate_transition_pair@1@_K@Z 000000018006fbe0 f i libucrtd:output.obj
 0001:0006ec00       ??C__crt_stdio_stream@@QEBAPEAU__crt_stdio_stream_data@@XZ 000000018006fc00 f i libucrtd:output.obj
 0001:0006f450       ?__crt_interlocked_read_32@@YAHPEDH@Z 0000000180070450 f i libucrtd:output.obj
 0001:0006f470       ?adjust_hexit@?$output_processor@DV?$stream_output_adapter@D@__crt_stdio_output@@V?$format_validation_base@DV?$stream_output_adapter@D@__crt_stdio_output@@@2@@__crt_stdio_output@@CADH_N@Z 0000000180070470 f i libucrtd:output.obj
 0001:0006f4c0       ?adjust_hexit@?$output_processor@DV?$stream_output_adapter@D@__crt_stdio_output@@V?$positional_parameter_base@DV?$stream_output_adapter@D@__crt_stdio_output@@@2@@__crt_stdio_output@@CADH_N@Z 00000001800704c0 f i libucrtd:output.obj
 0001:0006f510       ?adjust_hexit@?$output_processor@DV?$stream_output_adapter@D@__crt_stdio_output@@V?$standard_base@DV?$stream_output_adapter@D@__crt_stdio_output@@@2@@__crt_stdio_output@@CADH_N@Z 0000000180070510 f i libucrtd:output.obj
 0001:0006f560       ?adjust_hexit@?$output_processor@DV?$string_output_adapter@D@__crt_stdio_output@@V?$format_validation_base@DV?$string_output_adapter@D@__crt_stdio_output@@@2@@__crt_stdio_output@@CADH_N@Z 0000000180070560 f i libucrtd:output.obj
 0001:0006f5b0       ?adjust_hexit@?$output_processor@DV?$string_output_adapter@D@__crt_stdio_output@@V?$positional_parameter_base@DV?$string_output_adapter@D@__crt_stdio_output@@@2@@__crt_stdio_output@@CADH_N@Z 00000001800705b0 f i libucrtd:output.obj
 0001:0006f600       ?adjust_hexit@?$output_processor@DV?$string_output_adapter@D@__crt_stdio_output@@V?$standard_base@DV?$string_output_adapter@D@__crt_stdio_output@@@2@@__crt_stdio_output@@CADH_N@Z 0000000180070600 f i libucrtd:output.obj
 0001:0006f650       ?adjust_hexit@?$output_processor@_WV?$stream_output_adapter@_W@__crt_stdio_output@@V?$format_validation_base@_WV?$stream_output_adapter@_W@__crt_stdio_output@@@2@@__crt_stdio_output@@CADH_N@Z 0000000180070650 f i libucrtd:output.obj
 0001:0006f6a0       ?adjust_hexit@?$output_processor@_WV?$stream_output_adapter@_W@__crt_stdio_output@@V?$positional_parameter_base@_WV?$stream_output_adapter@_W@__crt_stdio_output@@@2@@__crt_stdio_output@@CADH_N@Z 00000001800706a0 f i libucrtd:output.obj
 0001:0006f6f0       ?adjust_hexit@?$output_processor@_WV?$stream_output_adapter@_W@__crt_stdio_output@@V?$standard_base@_WV?$stream_output_adapter@_W@__crt_stdio_output@@@2@@__crt_stdio_output@@CADH_N@Z 00000001800706f0 f i libucrtd:output.obj
 0001:0006f740       ?adjust_hexit@?$output_processor@_WV?$string_output_adapter@_W@__crt_stdio_output@@V?$format_validation_base@_WV?$string_output_adapter@_W@__crt_stdio_output@@@2@@__crt_stdio_output@@CADH_N@Z 0000000180070740 f i libucrtd:output.obj
 0001:0006f790       ?adjust_hexit@?$output_processor@_WV?$string_output_adapter@_W@__crt_stdio_output@@V?$positional_parameter_base@_WV?$string_output_adapter@_W@__crt_stdio_output@@@2@@__crt_stdio_output@@CADH_N@Z 0000000180070790 f i libucrtd:output.obj
 0001:0006f7e0       ?adjust_hexit@?$output_processor@_WV?$string_output_adapter@_W@__crt_stdio_output@@V?$standard_base@_WV?$string_output_adapter@_W@__crt_stdio_output@@@2@@__crt_stdio_output@@CADH_N@Z 00000001800707e0 f i libucrtd:output.obj
 0001:0006f830       ?advance_to_next_pass@?$positional_parameter_base@DV?$stream_output_adapter@D@__crt_stdio_output@@@__crt_stdio_output@@IEAA_NXZ 0000000180070830 f i libucrtd:output.obj
 0001:0006f8e0       ?advance_to_next_pass@?$positional_parameter_base@DV?$string_output_adapter@D@__crt_stdio_output@@@__crt_stdio_output@@IEAA_NXZ 00000001800708e0 f i libucrtd:output.obj
 0001:0006f990       ?advance_to_next_pass@?$positional_parameter_base@_WV?$stream_output_adapter@_W@__crt_stdio_output@@@__crt_stdio_output@@IEAA_NXZ 0000000180070990 f i libucrtd:output.obj
 0001:0006fa40       ?advance_to_next_pass@?$positional_parameter_base@_WV?$string_output_adapter@_W@__crt_stdio_output@@@__crt_stdio_output@@IEAA_NXZ 0000000180070a40 f i libucrtd:output.obj
 0001:0006faf0       ?advance_to_next_pass@?$standard_base@DV?$stream_output_adapter@D@__crt_stdio_output@@@__crt_stdio_output@@IEAA_NXZ 0000000180070af0 f i libucrtd:output.obj
 0001:0006fb40       ?advance_to_next_pass@?$standard_base@DV?$string_output_adapter@D@__crt_stdio_output@@@__crt_stdio_output@@IEAA_NXZ 0000000180070b40 f i libucrtd:output.obj
 0001:0006fb90       ?advance_to_next_pass@?$standard_base@_WV?$stream_output_adapter@_W@__crt_stdio_output@@@__crt_stdio_output@@IEAA_NXZ 0000000180070b90 f i libucrtd:output.obj
 0001:0006fbe0       ?advance_to_next_pass@?$standard_base@_WV?$string_output_adapter@_W@__crt_stdio_output@@@__crt_stdio_output@@IEAA_NXZ 0000000180070be0 f i libucrtd:output.obj
 0001:0006fc30       ?check@?$cached@H@__crt_cached_ptd_host@@QEBA_NH@Z 0000000180070c30 f i libucrtd:output.obj
 0001:0006fc70       ?check_synchronize_global_state_index@__crt_cached_ptd_host@@AEAA_KAEBV__crt_scoped_get_last_error_reset@@@Z 0000000180070c70 f i libucrtd:output.obj
 0001:0006fcb0       ?check_synchronize_per_thread_data@__crt_cached_ptd_host@@AEAAPEAU__acrt_ptd@@XZ 0000000180070cb0 f i libucrtd:output.obj
 0001:0006fcf0       ?create_guard@?$cached@H@__crt_cached_ptd_host@@QEAA?AVguard@12@XZ 0000000180070cf0 f i libucrtd:output.obj
 0001:0006fd20       ?crop_zeroes@__crt_stdio_output@@YAXPEADQEAU__crt_locale_pointers@@@Z 0000000180070d20 f i libucrtd:output.obj
 0001:0006fe70       ?disable@guard@?$cached@H@__crt_cached_ptd_host@@QEAAXXZ 0000000180070e70 f i libucrtd:output.obj
 0001:0006fe80       ?enable@guard@?$cached@H@__crt_cached_ptd_host@@QEAAXXZ 0000000180070e80 f i libucrtd:output.obj
 0001:0006fe90       ?find_next_state@?$output_processor@DV?$stream_output_adapter@D@__crt_stdio_output@@V?$format_validation_base@DV?$stream_output_adapter@D@__crt_stdio_output@@@2@@__crt_stdio_output@@AEBA?AW4state@2@DW432@@Z 0000000180070e90 f i libucrtd:output.obj
 0001:0006ff30       ?find_next_state@?$output_processor@DV?$stream_output_adapter@D@__crt_stdio_output@@V?$positional_parameter_base@DV?$stream_output_adapter@D@__crt_stdio_output@@@2@@__crt_stdio_output@@AEBA?AW4state@2@DW432@@Z 0000000180070f30 f i libucrtd:output.obj
 0001:0006ffd0       ?find_next_state@?$output_processor@DV?$stream_output_adapter@D@__crt_stdio_output@@V?$standard_base@DV?$stream_output_adapter@D@__crt_stdio_output@@@2@@__crt_stdio_output@@AEBA?AW4state@2@DW432@@Z 0000000180070fd0 f i libucrtd:output.obj
 0001:00070070       ?find_next_state@?$output_processor@DV?$string_output_adapter@D@__crt_stdio_output@@V?$format_validation_base@DV?$string_output_adapter@D@__crt_stdio_output@@@2@@__crt_stdio_output@@AEBA?AW4state@2@DW432@@Z 0000000180071070 f i libucrtd:output.obj
 0001:00070110       ?find_next_state@?$output_processor@DV?$string_output_adapter@D@__crt_stdio_output@@V?$positional_parameter_base@DV?$string_output_adapter@D@__crt_stdio_output@@@2@@__crt_stdio_output@@AEBA?AW4state@2@DW432@@Z 0000000180071110 f i libucrtd:output.obj
 0001:000701b0       ?find_next_state@?$output_processor@DV?$string_output_adapter@D@__crt_stdio_output@@V?$standard_base@DV?$string_output_adapter@D@__crt_stdio_output@@@2@@__crt_stdio_output@@AEBA?AW4state@2@DW432@@Z 00000001800711b0 f i libucrtd:output.obj
 0001:00070250       ?find_next_state@?$output_processor@_WV?$stream_output_adapter@_W@__crt_stdio_output@@V?$format_validation_base@_WV?$stream_output_adapter@_W@__crt_stdio_output@@@2@@__crt_stdio_output@@AEBA?AW4state@2@_WW432@@Z 0000000180071250 f i libucrtd:output.obj
 0001:000702f0       ?find_next_state@?$output_processor@_WV?$stream_output_adapter@_W@__crt_stdio_output@@V?$positional_parameter_base@_WV?$stream_output_adapter@_W@__crt_stdio_output@@@2@@__crt_stdio_output@@AEBA?AW4state@2@_WW432@@Z 00000001800712f0 f i libucrtd:output.obj
 0001:00070390       ?find_next_state@?$output_processor@_WV?$stream_output_adapter@_W@__crt_stdio_output@@V?$standard_base@_WV?$stream_output_adapter@_W@__crt_stdio_output@@@2@@__crt_stdio_output@@AEBA?AW4state@2@_WW432@@Z 0000000180071390 f i libucrtd:output.obj
 0001:00070430       ?find_next_state@?$output_processor@_WV?$string_output_adapter@_W@__crt_stdio_output@@V?$format_validation_base@_WV?$string_output_adapter@_W@__crt_stdio_output@@@2@@__crt_stdio_output@@AEBA?AW4state@2@_WW432@@Z 0000000180071430 f i libucrtd:output.obj
 0001:000704d0       ?find_next_state@?$output_processor@_WV?$string_output_adapter@_W@__crt_stdio_output@@V?$positional_parameter_base@_WV?$string_output_adapter@_W@__crt_stdio_output@@@2@@__crt_stdio_output@@AEBA?AW4state@2@_WW432@@Z 00000001800714d0 f i libucrtd:output.obj
 0001:00070570       ?find_next_state@?$output_processor@_WV?$string_output_adapter@_W@__crt_stdio_output@@V?$standard_base@_WV?$string_output_adapter@_W@__crt_stdio_output@@@2@@__crt_stdio_output@@AEBA?AW4state@2@_WW432@@Z 0000000180071570 f i libucrtd:output.obj
 0001:00070610       ?force_decimal_point@__crt_stdio_output@@YAXPEADQEAU__crt_locale_pointers@@@Z 0000000180071610 f i libucrtd:output.obj
 0001:00070710       ?force_synchronize_global_state_index@__crt_cached_ptd_host@@AEAA_KAEBV__crt_scoped_get_last_error_reset@@@Z 0000000180071710 f i libucrtd:output.obj
 0001:00070750       ?force_synchronize_per_thread_data@__crt_cached_ptd_host@@AEAAPEAU__acrt_ptd@@XZ 0000000180071750 f i libucrtd:output.obj
 0001:000707b0       ?get@?$c_string_character_source@D@__crt_strtox@@QEAADXZ 00000001800717b0 f i libucrtd:output.obj
 0001:000707f0       ?get@?$c_string_character_source@_W@__crt_strtox@@QEAA_WXZ 00000001800717f0 f i libucrtd:output.obj
 0001:00070830       ?get_current_state_index@__crt_state_management@@YA_KAEBV__crt_scoped_get_last_error_reset@@@Z 0000000180071830 f i libucrtd:output.obj
 0001:00070840       ?get_errno@__crt_cached_ptd_host@@QEAAAEAU?$cached@H@1@XZ 0000000180071840 f i libucrtd:output.obj
 0001:00070850       ?get_flags@__crt_stdio_stream@@QEBAJXZ 0000000180071850 f i libucrtd:output.obj
 0001:00070880       ?get_locale@__crt_cached_ptd_host@@QEAAPEAU__crt_locale_pointers@@XZ 0000000180071880 f i libucrtd:output.obj
 0001:000708b0       ?get_parameter_type@?$positional_parameter_base@DV?$stream_output_adapter@D@__crt_stdio_output@@@__crt_stdio_output@@CA?AW4parameter_type@12@F@Z 00000001800718b0 f i libucrtd:output.obj
 0001:000708c0       ?get_parameter_type@?$positional_parameter_base@DV?$stream_output_adapter@D@__crt_stdio_output@@@__crt_stdio_output@@CA?AW4parameter_type@12@G@Z 00000001800718c0 f i libucrtd:output.obj
 0001:000708d0       ?get_parameter_type@?$positional_parameter_base@DV?$stream_output_adapter@D@__crt_stdio_output@@@__crt_stdio_output@@CA?AW4parameter_type@12@H@Z 00000001800718d0 f i libucrtd:output.obj
 0001:000708e0       ?get_parameter_type@?$positional_parameter_base@DV?$stream_output_adapter@D@__crt_stdio_output@@@__crt_stdio_output@@CA?AW4parameter_type@12@I@Z 00000001800718e0 f i libucrtd:output.obj
 0001:000708f0       ?get_parameter_type@?$positional_parameter_base@DV?$stream_output_adapter@D@__crt_stdio_output@@@__crt_stdio_output@@CA?AW4parameter_type@12@U_CRT_DOUBLE@@@Z 00000001800718f0 f i libucrtd:output.obj
 0001:00070900       ?get_parameter_type@?$positional_parameter_base@DV?$stream_output_adapter@D@__crt_stdio_output@@@__crt_stdio_output@@CA?AW4parameter_type@12@_J@Z 0000000180071900 f i libucrtd:output.obj
 0001:00070910       ?get_parameter_type@?$positional_parameter_base@DV?$stream_output_adapter@D@__crt_stdio_output@@@__crt_stdio_output@@CA?AW4parameter_type@12@_K@Z 0000000180071910 f i libucrtd:output.obj
 0001:00070920       ?get_parameter_type@?$positional_parameter_base@DV?$stream_output_adapter@D@__crt_stdio_output@@@__crt_stdio_output@@CA?AW4parameter_type@12@_W@Z 0000000180071920 f i libucrtd:output.obj
 0001:00070930       ?get_parameter_type@?$positional_parameter_base@DV?$string_output_adapter@D@__crt_stdio_output@@@__crt_stdio_output@@CA?AW4parameter_type@12@F@Z 0000000180071930 f i libucrtd:output.obj
 0001:00070940       ?get_parameter_type@?$positional_parameter_base@DV?$string_output_adapter@D@__crt_stdio_output@@@__crt_stdio_output@@CA?AW4parameter_type@12@G@Z 0000000180071940 f i libucrtd:output.obj
 0001:00070950       ?get_parameter_type@?$positional_parameter_base@DV?$string_output_adapter@D@__crt_stdio_output@@@__crt_stdio_output@@CA?AW4parameter_type@12@H@Z 0000000180071950 f i libucrtd:output.obj
 0001:00070960       ?get_parameter_type@?$positional_parameter_base@DV?$string_output_adapter@D@__crt_stdio_output@@@__crt_stdio_output@@CA?AW4parameter_type@12@I@Z 0000000180071960 f i libucrtd:output.obj
 0001:00070970       ?get_parameter_type@?$positional_parameter_base@DV?$string_output_adapter@D@__crt_stdio_output@@@__crt_stdio_output@@CA?AW4parameter_type@12@U_CRT_DOUBLE@@@Z 0000000180071970 f i libucrtd:output.obj
 0001:00070980       ?get_parameter_type@?$positional_parameter_base@DV?$string_output_adapter@D@__crt_stdio_output@@@__crt_stdio_output@@CA?AW4parameter_type@12@_J@Z 0000000180071980 f i libucrtd:output.obj
 0001:00070990       ?get_parameter_type@?$positional_parameter_base@DV?$string_output_adapter@D@__crt_stdio_output@@@__crt_stdio_output@@CA?AW4parameter_type@12@_K@Z 0000000180071990 f i libucrtd:output.obj
 0001:000709a0       ?get_parameter_type@?$positional_parameter_base@DV?$string_output_adapter@D@__crt_stdio_output@@@__crt_stdio_output@@CA?AW4parameter_type@12@_W@Z 00000001800719a0 f i libucrtd:output.obj
 0001:000709b0       ?get_parameter_type@?$positional_parameter_base@_WV?$stream_output_adapter@_W@__crt_stdio_output@@@__crt_stdio_output@@CA?AW4parameter_type@12@F@Z 00000001800719b0 f i libucrtd:output.obj
 0001:000709c0       ?get_parameter_type@?$positional_parameter_base@_WV?$stream_output_adapter@_W@__crt_stdio_output@@@__crt_stdio_output@@CA?AW4parameter_type@12@G@Z 00000001800719c0 f i libucrtd:output.obj
 0001:000709d0       ?get_parameter_type@?$positional_parameter_base@_WV?$stream_output_adapter@_W@__crt_stdio_output@@@__crt_stdio_output@@CA?AW4parameter_type@12@H@Z 00000001800719d0 f i libucrtd:output.obj
 0001:000709e0       ?get_parameter_type@?$positional_parameter_base@_WV?$stream_output_adapter@_W@__crt_stdio_output@@@__crt_stdio_output@@CA?AW4parameter_type@12@I@Z 00000001800719e0 f i libucrtd:output.obj
 0001:000709f0       ?get_parameter_type@?$positional_parameter_base@_WV?$stream_output_adapter@_W@__crt_stdio_output@@@__crt_stdio_output@@CA?AW4parameter_type@12@U_CRT_DOUBLE@@@Z 00000001800719f0 f i libucrtd:output.obj
 0001:00070a00       ?get_parameter_type@?$positional_parameter_base@_WV?$stream_output_adapter@_W@__crt_stdio_output@@@__crt_stdio_output@@CA?AW4parameter_type@12@_J@Z 0000000180071a00 f i libucrtd:output.obj
 0001:00070a10       ?get_parameter_type@?$positional_parameter_base@_WV?$stream_output_adapter@_W@__crt_stdio_output@@@__crt_stdio_output@@CA?AW4parameter_type@12@_K@Z 0000000180071a10 f i libucrtd:output.obj
 0001:00070a20       ?get_parameter_type@?$positional_parameter_base@_WV?$stream_output_adapter@_W@__crt_stdio_output@@@__crt_stdio_output@@CA?AW4parameter_type@12@_W@Z 0000000180071a20 f i libucrtd:output.obj
 0001:00070a30       ?get_parameter_type@?$positional_parameter_base@_WV?$string_output_adapter@_W@__crt_stdio_output@@@__crt_stdio_output@@CA?AW4parameter_type@12@F@Z 0000000180071a30 f i libucrtd:output.obj
 0001:00070a40       ?get_parameter_type@?$positional_parameter_base@_WV?$string_output_adapter@_W@__crt_stdio_output@@@__crt_stdio_output@@CA?AW4parameter_type@12@G@Z 0000000180071a40 f i libucrtd:output.obj
 0001:00070a50       ?get_parameter_type@?$positional_parameter_base@_WV?$string_output_adapter@_W@__crt_stdio_output@@@__crt_stdio_output@@CA?AW4parameter_type@12@H@Z 0000000180071a50 f i libucrtd:output.obj
 0001:00070a60       ?get_parameter_type@?$positional_parameter_base@_WV?$string_output_adapter@_W@__crt_stdio_output@@@__crt_stdio_output@@CA?AW4parameter_type@12@I@Z 0000000180071a60 f i libucrtd:output.obj
 0001:00070a70       ?get_parameter_type@?$positional_parameter_base@_WV?$string_output_adapter@_W@__crt_stdio_output@@@__crt_stdio_output@@CA?AW4parameter_type@12@U_CRT_DOUBLE@@@Z 0000000180071a70 f i libucrtd:output.obj
 0001:00070a80       ?get_parameter_type@?$positional_parameter_base@_WV?$string_output_adapter@_W@__crt_stdio_output@@@__crt_stdio_output@@CA?AW4parameter_type@12@_J@Z 0000000180071a80 f i libucrtd:output.obj
 0001:00070a90       ?get_parameter_type@?$positional_parameter_base@_WV?$string_output_adapter@_W@__crt_stdio_output@@@__crt_stdio_output@@CA?AW4parameter_type@12@_K@Z 0000000180071a90 f i libucrtd:output.obj
 0001:00070aa0       ?get_parameter_type@?$positional_parameter_base@_WV?$string_output_adapter@_W@__crt_stdio_output@@@__crt_stdio_output@@CA?AW4parameter_type@12@_W@Z 0000000180071aa0 f i libucrtd:output.obj
 0001:00070ab0       ?get_raw_ptd@__crt_cached_ptd_host@@QEAAPEAU__acrt_ptd@@XZ 0000000180071ab0 f i libucrtd:output.obj
 0001:00070ad0       ?has_flag@?$output_processor@DV?$stream_output_adapter@D@__crt_stdio_output@@V?$format_validation_base@DV?$stream_output_adapter@D@__crt_stdio_output@@@2@@__crt_stdio_output@@AEBA_NI@Z 0000000180071ad0 f i libucrtd:output.obj
 0001:00070b10       ?has_flag@?$output_processor@DV?$stream_output_adapter@D@__crt_stdio_output@@V?$positional_parameter_base@DV?$stream_output_adapter@D@__crt_stdio_output@@@2@@__crt_stdio_output@@AEBA_NI@Z 0000000180071b10 f i libucrtd:output.obj
 0001:00070b50       ?has_flag@?$output_processor@DV?$stream_output_adapter@D@__crt_stdio_output@@V?$standard_base@DV?$stream_output_adapter@D@__crt_stdio_output@@@2@@__crt_stdio_output@@AEBA_NI@Z 0000000180071b50 f i libucrtd:output.obj
 0001:00070b90       ?has_flag@?$output_processor@DV?$string_output_adapter@D@__crt_stdio_output@@V?$format_validation_base@DV?$string_output_adapter@D@__crt_stdio_output@@@2@@__crt_stdio_output@@AEBA_NI@Z 0000000180071b90 f i libucrtd:output.obj
 0001:00070bd0       ?has_flag@?$output_processor@DV?$string_output_adapter@D@__crt_stdio_output@@V?$positional_parameter_base@DV?$string_output_adapter@D@__crt_stdio_output@@@2@@__crt_stdio_output@@AEBA_NI@Z 0000000180071bd0 f i libucrtd:output.obj
 0001:00070c10       ?has_flag@?$output_processor@DV?$string_output_adapter@D@__crt_stdio_output@@V?$standard_base@DV?$string_output_adapter@D@__crt_stdio_output@@@2@@__crt_stdio_output@@AEBA_NI@Z 0000000180071c10 f i libucrtd:output.obj
 0001:00070c50       ?has_flag@?$output_processor@_WV?$stream_output_adapter@_W@__crt_stdio_output@@V?$format_validation_base@_WV?$stream_output_adapter@_W@__crt_stdio_output@@@2@@__crt_stdio_output@@AEBA_NI@Z 0000000180071c50 f i libucrtd:output.obj
 0001:00070c90       ?has_flag@?$output_processor@_WV?$stream_output_adapter@_W@__crt_stdio_output@@V?$positional_parameter_base@_WV?$stream_output_adapter@_W@__crt_stdio_output@@@2@@__crt_stdio_output@@AEBA_NI@Z 0000000180071c90 f i libucrtd:output.obj
 0001:00070cd0       ?has_flag@?$output_processor@_WV?$stream_output_adapter@_W@__crt_stdio_output@@V?$standard_base@_WV?$stream_output_adapter@_W@__crt_stdio_output@@@2@@__crt_stdio_output@@AEBA_NI@Z 0000000180071cd0 f i libucrtd:output.obj
 0001:00070d10       ?has_flag@?$output_processor@_WV?$string_output_adapter@_W@__crt_stdio_output@@V?$format_validation_base@_WV?$string_output_adapter@_W@__crt_stdio_output@@@2@@__crt_stdio_output@@AEBA_NI@Z 0000000180071d10 f i libucrtd:output.obj
 0001:00070d50       ?has_flag@?$output_processor@_WV?$string_output_adapter@_W@__crt_stdio_output@@V?$positional_parameter_base@_WV?$string_output_adapter@_W@__crt_stdio_output@@@2@@__crt_stdio_output@@AEBA_NI@Z 0000000180071d50 f i libucrtd:output.obj
 0001:00070d90       ?has_flag@?$output_processor@_WV?$string_output_adapter@_W@__crt_stdio_output@@V?$standard_base@_WV?$string_output_adapter@_W@__crt_stdio_output@@@2@@__crt_stdio_output@@AEBA_NI@Z 0000000180071d90 f i libucrtd:output.obj
 0001:00070dd0       ?is_positional_parameter_reappearance_consistent@?$positional_parameter_base@DV?$stream_output_adapter@D@__crt_stdio_output@@@__crt_stdio_output@@AEAA_NAEBUparameter_data@12@W4parameter_type@12@DW4length_modifier@2@@Z 0000000180071dd0 f i libucrtd:output.obj
 0001:00071030       ?is_positional_parameter_reappearance_consistent@?$positional_parameter_base@DV?$string_output_adapter@D@__crt_stdio_output@@@__crt_stdio_output@@AEAA_NAEBUparameter_data@12@W4parameter_type@12@DW4length_modifier@2@@Z 0000000180072030 f i libucrtd:output.obj
 0001:00071290       ?is_positional_parameter_reappearance_consistent@?$positional_parameter_base@_WV?$stream_output_adapter@_W@__crt_stdio_output@@@__crt_stdio_output@@AEAA_NAEBUparameter_data@12@W4parameter_type@12@_WW4length_modifier@2@@Z 0000000180072290 f i libucrtd:output.obj
 0001:000714f0       ?is_positional_parameter_reappearance_consistent@?$positional_parameter_base@_WV?$string_output_adapter@_W@__crt_stdio_output@@@__crt_stdio_output@@AEAA_NAEBUparameter_data@12@W4parameter_type@12@_WW4length_modifier@2@@Z 00000001800724f0 f i libucrtd:output.obj
 0001:00071750       ?is_string_backed@__crt_stdio_stream@@QEBA_NXZ 0000000180072750 f i libucrtd:output.obj
 0001:00071790       ?maximum_signed_value@__crt_strtox@@YAJK@Z 0000000180072790 f i libucrtd:output.obj
 0001:000717a0       ?minimum_signed_value@__crt_strtox@@YAJK@Z 00000001800727a0 f i libucrtd:output.obj
 0001:000717b0       ?narrow_null_string@?$output_processor@DV?$stream_output_adapter@D@__crt_stdio_output@@V?$format_validation_base@DV?$stream_output_adapter@D@__crt_stdio_output@@@2@@__crt_stdio_output@@CAPEADXZ 00000001800727b0 f i libucrtd:output.obj
 0001:000717c0       ?narrow_null_string@?$output_processor@DV?$stream_output_adapter@D@__crt_stdio_output@@V?$positional_parameter_base@DV?$stream_output_adapter@D@__crt_stdio_output@@@2@@__crt_stdio_output@@CAPEADXZ 00000001800727c0 f i libucrtd:output.obj
 0001:000717d0       ?narrow_null_string@?$output_processor@DV?$stream_output_adapter@D@__crt_stdio_output@@V?$standard_base@DV?$stream_output_adapter@D@__crt_stdio_output@@@2@@__crt_stdio_output@@CAPEADXZ 00000001800727d0 f i libucrtd:output.obj
 0001:000717e0       ?narrow_null_string@?$output_processor@DV?$string_output_adapter@D@__crt_stdio_output@@V?$format_validation_base@DV?$string_output_adapter@D@__crt_stdio_output@@@2@@__crt_stdio_output@@CAPEADXZ 00000001800727e0 f i libucrtd:output.obj
 0001:000717f0       ?narrow_null_string@?$output_processor@DV?$string_output_adapter@D@__crt_stdio_output@@V?$positional_parameter_base@DV?$string_output_adapter@D@__crt_stdio_output@@@2@@__crt_stdio_output@@CAPEADXZ 00000001800727f0 f i libucrtd:output.obj
 0001:00071800       ?narrow_null_string@?$output_processor@DV?$string_output_adapter@D@__crt_stdio_output@@V?$standard_base@DV?$string_output_adapter@D@__crt_stdio_output@@@2@@__crt_stdio_output@@CAPEADXZ 0000000180072800 f i libucrtd:output.obj
 0001:00071810       ?narrow_null_string@?$output_processor@_WV?$stream_output_adapter@_W@__crt_stdio_output@@V?$format_validation_base@_WV?$stream_output_adapter@_W@__crt_stdio_output@@@2@@__crt_stdio_output@@CAPEADXZ 0000000180072810 f i libucrtd:output.obj
 0001:00071820       ?narrow_null_string@?$output_processor@_WV?$stream_output_adapter@_W@__crt_stdio_output@@V?$positional_parameter_base@_WV?$stream_output_adapter@_W@__crt_stdio_output@@@2@@__crt_stdio_output@@CAPEADXZ 0000000180072820 f i libucrtd:output.obj
 0001:00071830       ?narrow_null_string@?$output_processor@_WV?$stream_output_adapter@_W@__crt_stdio_output@@V?$standard_base@_WV?$stream_output_adapter@_W@__crt_stdio_output@@@2@@__crt_stdio_output@@CAPEADXZ 0000000180072830 f i libucrtd:output.obj
 0001:00071840       ?narrow_null_string@?$output_processor@_WV?$string_output_adapter@_W@__crt_stdio_output@@V?$format_validation_base@_WV?$string_output_adapter@_W@__crt_stdio_output@@@2@@__crt_stdio_output@@CAPEADXZ 0000000180072840 f i libucrtd:output.obj
 0001:00071850       ?narrow_null_string@?$output_processor@_WV?$string_output_adapter@_W@__crt_stdio_output@@V?$positional_parameter_base@_WV?$string_output_adapter@_W@__crt_stdio_output@@@2@@__crt_stdio_output@@CAPEADXZ 0000000180072850 f i libucrtd:output.obj
 0001:00071860       ?narrow_null_string@?$output_processor@_WV?$string_output_adapter@_W@__crt_stdio_output@@V?$standard_base@_WV?$string_output_adapter@_W@__crt_stdio_output@@@2@@__crt_stdio_output@@CAPEADXZ 0000000180072860 f i libucrtd:output.obj
 0001:00071870       ?parse_digit@__crt_strtox@@YAID@Z 0000000180072870 f i libucrtd:output.obj
 0001:000718e0       ?parse_digit@__crt_strtox@@YAI_W@Z 00000001800728e0 f i libucrtd:output.obj
 0001:00071930       ?parse_int_from_format_string@?$output_processor@DV?$stream_output_adapter@D@__crt_stdio_output@@V?$format_validation_base@DV?$stream_output_adapter@D@__crt_stdio_output@@@2@@__crt_stdio_output@@AEAA_NQEAH@Z 0000000180072930 f i libucrtd:output.obj
 0001:00071a30       ?parse_int_from_format_string@?$output_processor@DV?$stream_output_adapter@D@__crt_stdio_output@@V?$positional_parameter_base@DV?$stream_output_adapter@D@__crt_stdio_output@@@2@@__crt_stdio_output@@AEAA_NQEAH@Z 0000000180072a30 f i libucrtd:output.obj
 0001:00071b30       ?parse_int_from_format_string@?$output_processor@DV?$stream_output_adapter@D@__crt_stdio_output@@V?$standard_base@DV?$stream_output_adapter@D@__crt_stdio_output@@@2@@__crt_stdio_output@@AEAA_NQEAH@Z 0000000180072b30 f i libucrtd:output.obj
 0001:00071c30       ?parse_int_from_format_string@?$output_processor@DV?$string_output_adapter@D@__crt_stdio_output@@V?$format_validation_base@DV?$string_output_adapter@D@__crt_stdio_output@@@2@@__crt_stdio_output@@AEAA_NQEAH@Z 0000000180072c30 f i libucrtd:output.obj
 0001:00071d30       ?parse_int_from_format_string@?$output_processor@DV?$string_output_adapter@D@__crt_stdio_output@@V?$positional_parameter_base@DV?$string_output_adapter@D@__crt_stdio_output@@@2@@__crt_stdio_output@@AEAA_NQEAH@Z 0000000180072d30 f i libucrtd:output.obj
 0001:00071e30       ?parse_int_from_format_string@?$output_processor@DV?$string_output_adapter@D@__crt_stdio_output@@V?$standard_base@DV?$string_output_adapter@D@__crt_stdio_output@@@2@@__crt_stdio_output@@AEAA_NQEAH@Z 0000000180072e30 f i libucrtd:output.obj
 0001:00071f30       ?parse_int_from_format_string@?$output_processor@_WV?$stream_output_adapter@_W@__crt_stdio_output@@V?$format_validation_base@_WV?$stream_output_adapter@_W@__crt_stdio_output@@@2@@__crt_stdio_output@@AEAA_NQEAH@Z 0000000180072f30 f i libucrtd:output.obj
 0001:00072030       ?parse_int_from_format_string@?$output_processor@_WV?$stream_output_adapter@_W@__crt_stdio_output@@V?$positional_parameter_base@_WV?$stream_output_adapter@_W@__crt_stdio_output@@@2@@__crt_stdio_output@@AEAA_NQEAH@Z 0000000180073030 f i libucrtd:output.obj
 0001:00072130       ?parse_int_from_format_string@?$output_processor@_WV?$stream_output_adapter@_W@__crt_stdio_output@@V?$standard_base@_WV?$stream_output_adapter@_W@__crt_stdio_output@@@2@@__crt_stdio_output@@AEAA_NQEAH@Z 0000000180073130 f i libucrtd:output.obj
 0001:00072230       ?parse_int_from_format_string@?$output_processor@_WV?$string_output_adapter@_W@__crt_stdio_output@@V?$format_validation_base@_WV?$string_output_adapter@_W@__crt_stdio_output@@@2@@__crt_stdio_output@@AEAA_NQEAH@Z 0000000180073230 f i libucrtd:output.obj
 0001:00072330       ?parse_int_from_format_string@?$output_processor@_WV?$string_output_adapter@_W@__crt_stdio_output@@V?$positional_parameter_base@_WV?$string_output_adapter@_W@__crt_stdio_output@@@2@@__crt_stdio_output@@AEAA_NQEAH@Z 0000000180073330 f i libucrtd:output.obj
 0001:00072430       ?parse_int_from_format_string@?$output_processor@_WV?$string_output_adapter@_W@__crt_stdio_output@@V?$standard_base@_WV?$string_output_adapter@_W@__crt_stdio_output@@@2@@__crt_stdio_output@@AEAA_NQEAH@Z 0000000180073430 f i libucrtd:output.obj
 0001:00072530       ?process@?$output_processor@DV?$stream_output_adapter@D@__crt_stdio_output@@V?$format_validation_base@DV?$stream_output_adapter@D@__crt_stdio_output@@@2@@__crt_stdio_output@@QEAAHXZ 0000000180073530 f i libucrtd:output.obj
 0001:000728f0       ?process@?$output_processor@DV?$stream_output_adapter@D@__crt_stdio_output@@V?$positional_parameter_base@DV?$stream_output_adapter@D@__crt_stdio_output@@@2@@__crt_stdio_output@@QEAAHXZ 00000001800738f0 f i libucrtd:output.obj
 0001:00072cb0       ?process@?$output_processor@DV?$stream_output_adapter@D@__crt_stdio_output@@V?$standard_base@DV?$stream_output_adapter@D@__crt_stdio_output@@@2@@__crt_stdio_output@@QEAAHXZ 0000000180073cb0 f i libucrtd:output.obj
 0001:00073070       ?process@?$output_processor@DV?$string_output_adapter@D@__crt_stdio_output@@V?$format_validation_base@DV?$string_output_adapter@D@__crt_stdio_output@@@2@@__crt_stdio_output@@QEAAHXZ 0000000180074070 f i libucrtd:output.obj
 0001:00073430       ?process@?$output_processor@DV?$string_output_adapter@D@__crt_stdio_output@@V?$positional_parameter_base@DV?$string_output_adapter@D@__crt_stdio_output@@@2@@__crt_stdio_output@@QEAAHXZ 0000000180074430 f i libucrtd:output.obj
 0001:000737f0       ?process@?$output_processor@DV?$string_output_adapter@D@__crt_stdio_output@@V?$standard_base@DV?$string_output_adapter@D@__crt_stdio_output@@@2@@__crt_stdio_output@@QEAAHXZ 00000001800747f0 f i libucrtd:output.obj
 0001:00073bb0       ?process@?$output_processor@_WV?$stream_output_adapter@_W@__crt_stdio_output@@V?$format_validation_base@_WV?$stream_output_adapter@_W@__crt_stdio_output@@@2@@__crt_stdio_output@@QEAAHXZ 0000000180074bb0 f i libucrtd:output.obj
 0001:00073f70       ?process@?$output_processor@_WV?$stream_output_adapter@_W@__crt_stdio_output@@V?$positional_parameter_base@_WV?$stream_output_adapter@_W@__crt_stdio_output@@@2@@__crt_stdio_output@@QEAAHXZ 0000000180074f70 f i libucrtd:output.obj
 0001:00074330       ?process@?$output_processor@_WV?$stream_output_adapter@_W@__crt_stdio_output@@V?$standard_base@_WV?$stream_output_adapter@_W@__crt_stdio_output@@@2@@__crt_stdio_output@@QEAAHXZ 0000000180075330 f i libucrtd:output.obj
 0001:000746f0       ?process@?$output_processor@_WV?$string_output_adapter@_W@__crt_stdio_output@@V?$format_validation_base@_WV?$string_output_adapter@_W@__crt_stdio_output@@@2@@__crt_stdio_output@@QEAAHXZ 00000001800756f0 f i libucrtd:output.obj
 0001:00074ab0       ?process@?$output_processor@_WV?$string_output_adapter@_W@__crt_stdio_output@@V?$positional_parameter_base@_WV?$string_output_adapter@_W@__crt_stdio_output@@@2@@__crt_stdio_output@@QEAAHXZ 0000000180075ab0 f i libucrtd:output.obj
 0001:00074e70       ?process@?$output_processor@_WV?$string_output_adapter@_W@__crt_stdio_output@@V?$standard_base@_WV?$string_output_adapter@_W@__crt_stdio_output@@@2@@__crt_stdio_output@@QEAAHXZ 0000000180075e70 f i libucrtd:output.obj
 0001:00075230       ?public_stream@__crt_stdio_stream@@QEBAPEAU_iobuf@@XZ 0000000180076230 f i libucrtd:output.obj
 0001:00075240       ?restore_state@?$c_string_character_source@D@__crt_strtox@@QEAA_NQEBD@Z 0000000180076240 f i libucrtd:output.obj
 0001:00075260       ?restore_state@?$c_string_character_source@_W@__crt_strtox@@QEAA_NQEB_W@Z 0000000180076260 f i libucrtd:output.obj
 0001:00075280       ?save_state@?$c_string_character_source@D@__crt_strtox@@QEBAPEBDXZ 0000000180076280 f i libucrtd:output.obj
 0001:00075290       ?save_state@?$c_string_character_source@_W@__crt_strtox@@QEBAPEB_WXZ 0000000180076290 f i libucrtd:output.obj
 0001:000752a0       ?set@?$cached@H@__crt_cached_ptd_host@@QEAAHH@Z 00000001800762a0 f i libucrtd:output.obj
 0001:000752d0       ?set_flag@?$output_processor@DV?$stream_output_adapter@D@__crt_stdio_output@@V?$format_validation_base@DV?$stream_output_adapter@D@__crt_stdio_output@@@2@@__crt_stdio_output@@AEAAXI@Z 00000001800762d0 f i libucrtd:output.obj
 0001:000752f0       ?set_flag@?$output_processor@DV?$stream_output_adapter@D@__crt_stdio_output@@V?$positional_parameter_base@DV?$stream_output_adapter@D@__crt_stdio_output@@@2@@__crt_stdio_output@@AEAAXI@Z 00000001800762f0 f i libucrtd:output.obj
 0001:00075310       ?set_flag@?$output_processor@DV?$stream_output_adapter@D@__crt_stdio_output@@V?$standard_base@DV?$stream_output_adapter@D@__crt_stdio_output@@@2@@__crt_stdio_output@@AEAAXI@Z 0000000180076310 f i libucrtd:output.obj
 0001:00075330       ?set_flag@?$output_processor@DV?$string_output_adapter@D@__crt_stdio_output@@V?$format_validation_base@DV?$string_output_adapter@D@__crt_stdio_output@@@2@@__crt_stdio_output@@AEAAXI@Z 0000000180076330 f i libucrtd:output.obj
 0001:00075350       ?set_flag@?$output_processor@DV?$string_output_adapter@D@__crt_stdio_output@@V?$positional_parameter_base@DV?$string_output_adapter@D@__crt_stdio_output@@@2@@__crt_stdio_output@@AEAAXI@Z 0000000180076350 f i libucrtd:output.obj
 0001:00075370       ?set_flag@?$output_processor@DV?$string_output_adapter@D@__crt_stdio_output@@V?$standard_base@DV?$string_output_adapter@D@__crt_stdio_output@@@2@@__crt_stdio_output@@AEAAXI@Z 0000000180076370 f i libucrtd:output.obj
 0001:00075390       ?set_flag@?$output_processor@_WV?$stream_output_adapter@_W@__crt_stdio_output@@V?$format_validation_base@_WV?$stream_output_adapter@_W@__crt_stdio_output@@@2@@__crt_stdio_output@@AEAAXI@Z 0000000180076390 f i libucrtd:output.obj
 0001:000753b0       ?set_flag@?$output_processor@_WV?$stream_output_adapter@_W@__crt_stdio_output@@V?$positional_parameter_base@_WV?$stream_output_adapter@_W@__crt_stdio_output@@@2@@__crt_stdio_output@@AEAAXI@Z 00000001800763b0 f i libucrtd:output.obj
 0001:000753d0       ?set_flag@?$output_processor@_WV?$stream_output_adapter@_W@__crt_stdio_output@@V?$standard_base@_WV?$stream_output_adapter@_W@__crt_stdio_output@@@2@@__crt_stdio_output@@AEAAXI@Z 00000001800763d0 f i libucrtd:output.obj
 0001:000753f0       ?set_flag@?$output_processor@_WV?$string_output_adapter@_W@__crt_stdio_output@@V?$format_validation_base@_WV?$string_output_adapter@_W@__crt_stdio_output@@@2@@__crt_stdio_output@@AEAAXI@Z 00000001800763f0 f i libucrtd:output.obj
 0001:00075410       ?set_flag@?$output_processor@_WV?$string_output_adapter@_W@__crt_stdio_output@@V?$positional_parameter_base@_WV?$string_output_adapter@_W@__crt_stdio_output@@@2@@__crt_stdio_output@@AEAAXI@Z 0000000180076410 f i libucrtd:output.obj
 0001:00075430       ?set_flag@?$output_processor@_WV?$string_output_adapter@_W@__crt_stdio_output@@V?$standard_base@_WV?$string_output_adapter@_W@__crt_stdio_output@@@2@@__crt_stdio_output@@AEAAXI@Z 0000000180076430 f i libucrtd:output.obj
 0001:00075450       ?should_format@?$positional_parameter_base@DV?$stream_output_adapter@D@__crt_stdio_output@@@__crt_stdio_output@@IEAA_NXZ 0000000180076450 f i libucrtd:output.obj
 0001:00075490       ?should_format@?$positional_parameter_base@DV?$string_output_adapter@D@__crt_stdio_output@@@__crt_stdio_output@@IEAA_NXZ 0000000180076490 f i libucrtd:output.obj
 0001:000754d0       ?should_format@?$positional_parameter_base@_WV?$stream_output_adapter@_W@__crt_stdio_output@@@__crt_stdio_output@@IEAA_NXZ 00000001800764d0 f i libucrtd:output.obj
 0001:00075510       ?should_format@?$positional_parameter_base@_WV?$string_output_adapter@_W@__crt_stdio_output@@@__crt_stdio_output@@IEAA_NXZ 0000000180076510 f i libucrtd:output.obj
 0001:00075550       ?should_format@?$standard_base@DV?$stream_output_adapter@D@__crt_stdio_output@@@__crt_stdio_output@@IEAA_NXZ 0000000180076550 f i libucrtd:output.obj
 0001:00075560       ?should_format@?$standard_base@DV?$string_output_adapter@D@__crt_stdio_output@@@__crt_stdio_output@@IEAA_NXZ 0000000180076560 f i libucrtd:output.obj
 0001:00075570       ?should_format@?$standard_base@_WV?$stream_output_adapter@_W@__crt_stdio_output@@@__crt_stdio_output@@IEAA_NXZ 0000000180076570 f i libucrtd:output.obj
 0001:00075580       ?should_format@?$standard_base@_WV?$string_output_adapter@_W@__crt_stdio_output@@@__crt_stdio_output@@IEAA_NXZ 0000000180076580 f i libucrtd:output.obj
 0001:00075590       ?should_skip_normal_state_processing@?$positional_parameter_base@DV?$stream_output_adapter@D@__crt_stdio_output@@@__crt_stdio_output@@IEAA_NXZ 0000000180076590 f i libucrtd:output.obj
 0001:000755e0       ?should_skip_normal_state_processing@?$positional_parameter_base@DV?$string_output_adapter@D@__crt_stdio_output@@@__crt_stdio_output@@IEAA_NXZ 00000001800765e0 f i libucrtd:output.obj
 0001:00075630       ?should_skip_normal_state_processing@?$positional_parameter_base@_WV?$stream_output_adapter@_W@__crt_stdio_output@@@__crt_stdio_output@@IEAA_NXZ 0000000180076630 f i libucrtd:output.obj
 0001:00075680       ?should_skip_normal_state_processing@?$positional_parameter_base@_WV?$string_output_adapter@_W@__crt_stdio_output@@@__crt_stdio_output@@IEAA_NXZ 0000000180076680 f i libucrtd:output.obj
 0001:000756d0       ?should_skip_normal_state_processing@?$standard_base@DV?$stream_output_adapter@D@__crt_stdio_output@@@__crt_stdio_output@@IEAA_NXZ 00000001800766d0 f i libucrtd:output.obj
 0001:000756e0       ?should_skip_normal_state_processing@?$standard_base@DV?$string_output_adapter@D@__crt_stdio_output@@@__crt_stdio_output@@IEAA_NXZ 00000001800766e0 f i libucrtd:output.obj
 0001:000756f0       ?should_skip_normal_state_processing@?$standard_base@_WV?$stream_output_adapter@_W@__crt_stdio_output@@@__crt_stdio_output@@IEAA_NXZ 00000001800766f0 f i libucrtd:output.obj
 0001:00075700       ?should_skip_normal_state_processing@?$standard_base@_WV?$string_output_adapter@_W@__crt_stdio_output@@@__crt_stdio_output@@IEAA_NXZ 0000000180076700 f i libucrtd:output.obj
 0001:00075710       ?should_skip_type_state_output@?$positional_parameter_base@DV?$stream_output_adapter@D@__crt_stdio_output@@@__crt_stdio_output@@IEBA_NXZ 0000000180076710 f i libucrtd:output.obj
 0001:00075750       ?should_skip_type_state_output@?$positional_parameter_base@DV?$string_output_adapter@D@__crt_stdio_output@@@__crt_stdio_output@@IEBA_NXZ 0000000180076750 f i libucrtd:output.obj
 0001:00075790       ?should_skip_type_state_output@?$positional_parameter_base@_WV?$stream_output_adapter@_W@__crt_stdio_output@@@__crt_stdio_output@@IEBA_NXZ 0000000180076790 f i libucrtd:output.obj
 0001:000757d0       ?should_skip_type_state_output@?$positional_parameter_base@_WV?$string_output_adapter@_W@__crt_stdio_output@@@__crt_stdio_output@@IEBA_NXZ 00000001800767d0 f i libucrtd:output.obj
 0001:00075810       ?should_skip_type_state_output@?$standard_base@DV?$stream_output_adapter@D@__crt_stdio_output@@@__crt_stdio_output@@IEBA_NXZ 0000000180076810 f i libucrtd:output.obj
 0001:00075820       ?should_skip_type_state_output@?$standard_base@DV?$string_output_adapter@D@__crt_stdio_output@@@__crt_stdio_output@@IEBA_NXZ 0000000180076820 f i libucrtd:output.obj
 0001:00075830       ?should_skip_type_state_output@?$standard_base@_WV?$stream_output_adapter@_W@__crt_stdio_output@@@__crt_stdio_output@@IEBA_NXZ 0000000180076830 f i libucrtd:output.obj
 0001:00075840       ?should_skip_type_state_output@?$standard_base@_WV?$string_output_adapter@_W@__crt_stdio_output@@@__crt_stdio_output@@IEBA_NXZ 0000000180076840 f i libucrtd:output.obj
 0001:00075850       ?state_case_dot@?$output_processor@DV?$stream_output_adapter@D@__crt_stdio_output@@V?$format_validation_base@DV?$stream_output_adapter@D@__crt_stdio_output@@@2@@__crt_stdio_output@@AEAA_NXZ 0000000180076850 f i libucrtd:output.obj
 0001:00075870       ?state_case_dot@?$output_processor@DV?$stream_output_adapter@D@__crt_stdio_output@@V?$positional_parameter_base@DV?$stream_output_adapter@D@__crt_stdio_output@@@2@@__crt_stdio_output@@AEAA_NXZ 0000000180076870 f i libucrtd:output.obj
 0001:00075890       ?state_case_dot@?$output_processor@DV?$stream_output_adapter@D@__crt_stdio_output@@V?$standard_base@DV?$stream_output_adapter@D@__crt_stdio_output@@@2@@__crt_stdio_output@@AEAA_NXZ 0000000180076890 f i libucrtd:output.obj
 0001:000758b0       ?state_case_dot@?$output_processor@DV?$string_output_adapter@D@__crt_stdio_output@@V?$format_validation_base@DV?$string_output_adapter@D@__crt_stdio_output@@@2@@__crt_stdio_output@@AEAA_NXZ 00000001800768b0 f i libucrtd:output.obj
 0001:000758d0       ?state_case_dot@?$output_processor@DV?$string_output_adapter@D@__crt_stdio_output@@V?$positional_parameter_base@DV?$string_output_adapter@D@__crt_stdio_output@@@2@@__crt_stdio_output@@AEAA_NXZ 00000001800768d0 f i libucrtd:output.obj
 0001:000758f0       ?state_case_dot@?$output_processor@DV?$string_output_adapter@D@__crt_stdio_output@@V?$standard_base@DV?$string_output_adapter@D@__crt_stdio_output@@@2@@__crt_stdio_output@@AEAA_NXZ 00000001800768f0 f i libucrtd:output.obj
 0001:00075910       ?state_case_dot@?$output_processor@_WV?$stream_output_adapter@_W@__crt_stdio_output@@V?$format_validation_base@_WV?$stream_output_adapter@_W@__crt_stdio_output@@@2@@__crt_stdio_output@@AEAA_NXZ 0000000180076910 f i libucrtd:output.obj
 0001:00075930       ?state_case_dot@?$output_processor@_WV?$stream_output_adapter@_W@__crt_stdio_output@@V?$positional_parameter_base@_WV?$stream_output_adapter@_W@__crt_stdio_output@@@2@@__crt_stdio_output@@AEAA_NXZ 0000000180076930 f i libucrtd:output.obj
 0001:00075950       ?state_case_dot@?$output_processor@_WV?$stream_output_adapter@_W@__crt_stdio_output@@V?$standard_base@_WV?$stream_output_adapter@_W@__crt_stdio_output@@@2@@__crt_stdio_output@@AEAA_NXZ 0000000180076950 f i libucrtd:output.obj
 0001:00075970       ?state_case_dot@?$output_processor@_WV?$string_output_adapter@_W@__crt_stdio_output@@V?$format_validation_base@_WV?$string_output_adapter@_W@__crt_stdio_output@@@2@@__crt_stdio_output@@AEAA_NXZ 0000000180076970 f i libucrtd:output.obj
 0001:00075990       ?state_case_dot@?$output_processor@_WV?$string_output_adapter@_W@__crt_stdio_output@@V?$positional_parameter_base@_WV?$string_output_adapter@_W@__crt_stdio_output@@@2@@__crt_stdio_output@@AEAA_NXZ 0000000180076990 f i libucrtd:output.obj
 0001:000759b0       ?state_case_dot@?$output_processor@_WV?$string_output_adapter@_W@__crt_stdio_output@@V?$standard_base@_WV?$string_output_adapter@_W@__crt_stdio_output@@@2@@__crt_stdio_output@@AEAA_NXZ 00000001800769b0 f i libucrtd:output.obj
 0001:000759d0       ?state_case_flag@?$output_processor@DV?$stream_output_adapter@D@__crt_stdio_output@@V?$format_validation_base@DV?$stream_output_adapter@D@__crt_stdio_output@@@2@@__crt_stdio_output@@AEAA_NXZ 00000001800769d0 f i libucrtd:output.obj
 0001:00075a70       ?state_case_flag@?$output_processor@DV?$stream_output_adapter@D@__crt_stdio_output@@V?$positional_parameter_base@DV?$stream_output_adapter@D@__crt_stdio_output@@@2@@__crt_stdio_output@@AEAA_NXZ 0000000180076a70 f i libucrtd:output.obj
 0001:00075b10       ?state_case_flag@?$output_processor@DV?$stream_output_adapter@D@__crt_stdio_output@@V?$standard_base@DV?$stream_output_adapter@D@__crt_stdio_output@@@2@@__crt_stdio_output@@AEAA_NXZ 0000000180076b10 f i libucrtd:output.obj
 0001:00075bb0       ?state_case_flag@?$output_processor@DV?$string_output_adapter@D@__crt_stdio_output@@V?$format_validation_base@DV?$string_output_adapter@D@__crt_stdio_output@@@2@@__crt_stdio_output@@AEAA_NXZ 0000000180076bb0 f i libucrtd:output.obj
 0001:00075c50       ?state_case_flag@?$output_processor@DV?$string_output_adapter@D@__crt_stdio_output@@V?$positional_parameter_base@DV?$string_output_adapter@D@__crt_stdio_output@@@2@@__crt_stdio_output@@AEAA_NXZ 0000000180076c50 f i libucrtd:output.obj
 0001:00075cf0       ?state_case_flag@?$output_processor@DV?$string_output_adapter@D@__crt_stdio_output@@V?$standard_base@DV?$string_output_adapter@D@__crt_stdio_output@@@2@@__crt_stdio_output@@AEAA_NXZ 0000000180076cf0 f i libucrtd:output.obj
 0001:00075d90       ?state_case_flag@?$output_processor@_WV?$stream_output_adapter@_W@__crt_stdio_output@@V?$format_validation_base@_WV?$stream_output_adapter@_W@__crt_stdio_output@@@2@@__crt_stdio_output@@AEAA_NXZ 0000000180076d90 f i libucrtd:output.obj
 0001:00075e30       ?state_case_flag@?$output_processor@_WV?$stream_output_adapter@_W@__crt_stdio_output@@V?$positional_parameter_base@_WV?$stream_output_adapter@_W@__crt_stdio_output@@@2@@__crt_stdio_output@@AEAA_NXZ 0000000180076e30 f i libucrtd:output.obj
 0001:00075ed0       ?state_case_flag@?$output_processor@_WV?$stream_output_adapter@_W@__crt_stdio_output@@V?$standard_base@_WV?$stream_output_adapter@_W@__crt_stdio_output@@@2@@__crt_stdio_output@@AEAA_NXZ 0000000180076ed0 f i libucrtd:output.obj
 0001:00075f70       ?state_case_flag@?$output_processor@_WV?$string_output_adapter@_W@__crt_stdio_output@@V?$format_validation_base@_WV?$string_output_adapter@_W@__crt_stdio_output@@@2@@__crt_stdio_output@@AEAA_NXZ 0000000180076f70 f i libucrtd:output.obj
 0001:00076010       ?state_case_flag@?$output_processor@_WV?$string_output_adapter@_W@__crt_stdio_output@@V?$positional_parameter_base@_WV?$string_output_adapter@_W@__crt_stdio_output@@@2@@__crt_stdio_output@@AEAA_NXZ 0000000180077010 f i libucrtd:output.obj
 0001:000760b0       ?state_case_flag@?$output_processor@_WV?$string_output_adapter@_W@__crt_stdio_output@@V?$standard_base@_WV?$string_output_adapter@_W@__crt_stdio_output@@@2@@__crt_stdio_output@@AEAA_NXZ 00000001800770b0 f i libucrtd:output.obj
 0001:00076150       ?state_case_normal@?$output_processor@DV?$stream_output_adapter@D@__crt_stdio_output@@V?$format_validation_base@DV?$stream_output_adapter@D@__crt_stdio_output@@@2@@__crt_stdio_output@@AEAA_NXZ 0000000180077150 f i libucrtd:output.obj
 0001:00076250       ?state_case_normal@?$output_processor@DV?$stream_output_adapter@D@__crt_stdio_output@@V?$positional_parameter_base@DV?$stream_output_adapter@D@__crt_stdio_output@@@2@@__crt_stdio_output@@AEAA_NXZ 0000000180077250 f i libucrtd:output.obj
 0001:00076350       ?state_case_normal@?$output_processor@DV?$stream_output_adapter@D@__crt_stdio_output@@V?$standard_base@DV?$stream_output_adapter@D@__crt_stdio_output@@@2@@__crt_stdio_output@@AEAA_NXZ 0000000180077350 f i libucrtd:output.obj
 0001:00076450       ?state_case_normal@?$output_processor@DV?$string_output_adapter@D@__crt_stdio_output@@V?$format_validation_base@DV?$string_output_adapter@D@__crt_stdio_output@@@2@@__crt_stdio_output@@AEAA_NXZ 0000000180077450 f i libucrtd:output.obj
 0001:00076550       ?state_case_normal@?$output_processor@DV?$string_output_adapter@D@__crt_stdio_output@@V?$positional_parameter_base@DV?$string_output_adapter@D@__crt_stdio_output@@@2@@__crt_stdio_output@@AEAA_NXZ 0000000180077550 f i libucrtd:output.obj
 0001:00076650       ?state_case_normal@?$output_processor@DV?$string_output_adapter@D@__crt_stdio_output@@V?$standard_base@DV?$string_output_adapter@D@__crt_stdio_output@@@2@@__crt_stdio_output@@AEAA_NXZ 0000000180077650 f i libucrtd:output.obj
 0001:00076750       ?state_case_normal@?$output_processor@_WV?$stream_output_adapter@_W@__crt_stdio_output@@V?$format_validation_base@_WV?$stream_output_adapter@_W@__crt_stdio_output@@@2@@__crt_stdio_output@@AEAA_NXZ 0000000180077750 f i libucrtd:output.obj
 0001:00076850       ?state_case_normal@?$output_processor@_WV?$stream_output_adapter@_W@__crt_stdio_output@@V?$positional_parameter_base@_WV?$stream_output_adapter@_W@__crt_stdio_output@@@2@@__crt_stdio_output@@AEAA_NXZ 0000000180077850 f i libucrtd:output.obj
 0001:00076950       ?state_case_normal@?$output_processor@_WV?$stream_output_adapter@_W@__crt_stdio_output@@V?$standard_base@_WV?$stream_output_adapter@_W@__crt_stdio_output@@@2@@__crt_stdio_output@@AEAA_NXZ 0000000180077950 f i libucrtd:output.obj
 0001:00076a50       ?state_case_normal@?$output_processor@_WV?$string_output_adapter@_W@__crt_stdio_output@@V?$format_validation_base@_WV?$string_output_adapter@_W@__crt_stdio_output@@@2@@__crt_stdio_output@@AEAA_NXZ 0000000180077a50 f i libucrtd:output.obj
 0001:00076b50       ?state_case_normal@?$output_processor@_WV?$string_output_adapter@_W@__crt_stdio_output@@V?$positional_parameter_base@_WV?$string_output_adapter@_W@__crt_stdio_output@@@2@@__crt_stdio_output@@AEAA_NXZ 0000000180077b50 f i libucrtd:output.obj
 0001:00076c50       ?state_case_normal@?$output_processor@_WV?$string_output_adapter@_W@__crt_stdio_output@@V?$standard_base@_WV?$string_output_adapter@_W@__crt_stdio_output@@@2@@__crt_stdio_output@@AEAA_NXZ 0000000180077c50 f i libucrtd:output.obj
 0001:00076d50       ?state_case_normal_common@?$output_processor@DV?$stream_output_adapter@D@__crt_stdio_output@@V?$format_validation_base@DV?$stream_output_adapter@D@__crt_stdio_output@@@2@@__crt_stdio_output@@AEAA_NXZ 0000000180077d50 f i libucrtd:output.obj
 0001:00076db0       ?state_case_normal_common@?$output_processor@DV?$stream_output_adapter@D@__crt_stdio_output@@V?$positional_parameter_base@DV?$stream_output_adapter@D@__crt_stdio_output@@@2@@__crt_stdio_output@@AEAA_NXZ 0000000180077db0 f i libucrtd:output.obj
 0001:00076e10       ?state_case_normal_common@?$output_processor@DV?$stream_output_adapter@D@__crt_stdio_output@@V?$standard_base@DV?$stream_output_adapter@D@__crt_stdio_output@@@2@@__crt_stdio_output@@AEAA_NXZ 0000000180077e10 f i libucrtd:output.obj
 0001:00076e70       ?state_case_normal_common@?$output_processor@DV?$string_output_adapter@D@__crt_stdio_output@@V?$format_validation_base@DV?$string_output_adapter@D@__crt_stdio_output@@@2@@__crt_stdio_output@@AEAA_NXZ 0000000180077e70 f i libucrtd:output.obj
 0001:00076ed0       ?state_case_normal_common@?$output_processor@DV?$string_output_adapter@D@__crt_stdio_output@@V?$positional_parameter_base@DV?$string_output_adapter@D@__crt_stdio_output@@@2@@__crt_stdio_output@@AEAA_NXZ 0000000180077ed0 f i libucrtd:output.obj
 0001:00076f30       ?state_case_normal_common@?$output_processor@DV?$string_output_adapter@D@__crt_stdio_output@@V?$standard_base@DV?$string_output_adapter@D@__crt_stdio_output@@@2@@__crt_stdio_output@@AEAA_NXZ 0000000180077f30 f i libucrtd:output.obj
 0001:00076f90       ?state_case_normal_common@?$output_processor@_WV?$stream_output_adapter@_W@__crt_stdio_output@@V?$format_validation_base@_WV?$stream_output_adapter@_W@__crt_stdio_output@@@2@@__crt_stdio_output@@AEAA_NXZ 0000000180077f90 f i libucrtd:output.obj
 0001:00076ff0       ?state_case_normal_common@?$output_processor@_WV?$stream_output_adapter@_W@__crt_stdio_output@@V?$positional_parameter_base@_WV?$stream_output_adapter@_W@__crt_stdio_output@@@2@@__crt_stdio_output@@AEAA_NXZ 0000000180077ff0 f i libucrtd:output.obj
 0001:00077050       ?state_case_normal_common@?$output_processor@_WV?$stream_output_adapter@_W@__crt_stdio_output@@V?$standard_base@_WV?$stream_output_adapter@_W@__crt_stdio_output@@@2@@__crt_stdio_output@@AEAA_NXZ 0000000180078050 f i libucrtd:output.obj
 0001:000770b0       ?state_case_normal_common@?$output_processor@_WV?$string_output_adapter@_W@__crt_stdio_output@@V?$format_validation_base@_WV?$string_output_adapter@_W@__crt_stdio_output@@@2@@__crt_stdio_output@@AEAA_NXZ 00000001800780b0 f i libucrtd:output.obj
 0001:00077110       ?state_case_normal_common@?$output_processor@_WV?$string_output_adapter@_W@__crt_stdio_output@@V?$positional_parameter_base@_WV?$string_output_adapter@_W@__crt_stdio_output@@@2@@__crt_stdio_output@@AEAA_NXZ 0000000180078110 f i libucrtd:output.obj
 0001:00077170       ?state_case_normal_common@?$output_processor@_WV?$string_output_adapter@_W@__crt_stdio_output@@V?$standard_base@_WV?$string_output_adapter@_W@__crt_stdio_output@@@2@@__crt_stdio_output@@AEAA_NXZ 0000000180078170 f i libucrtd:output.obj
 0001:000771d0       ?state_case_normal_tchar@?$output_processor@DV?$stream_output_adapter@D@__crt_stdio_output@@V?$format_validation_base@DV?$stream_output_adapter@D@__crt_stdio_output@@@2@@__crt_stdio_output@@AEAA_ND@Z 00000001800781d0 f i libucrtd:output.obj
 0001:00077360       ?state_case_normal_tchar@?$output_processor@DV?$stream_output_adapter@D@__crt_stdio_output@@V?$positional_parameter_base@DV?$stream_output_adapter@D@__crt_stdio_output@@@2@@__crt_stdio_output@@AEAA_ND@Z 0000000180078360 f i libucrtd:output.obj
 0001:000774f0       ?state_case_normal_tchar@?$output_processor@DV?$stream_output_adapter@D@__crt_stdio_output@@V?$standard_base@DV?$stream_output_adapter@D@__crt_stdio_output@@@2@@__crt_stdio_output@@AEAA_ND@Z 00000001800784f0 f i libucrtd:output.obj
 0001:00077680       ?state_case_normal_tchar@?$output_processor@DV?$string_output_adapter@D@__crt_stdio_output@@V?$format_validation_base@DV?$string_output_adapter@D@__crt_stdio_output@@@2@@__crt_stdio_output@@AEAA_ND@Z 0000000180078680 f i libucrtd:output.obj
 0001:00077810       ?state_case_normal_tchar@?$output_processor@DV?$string_output_adapter@D@__crt_stdio_output@@V?$positional_parameter_base@DV?$string_output_adapter@D@__crt_stdio_output@@@2@@__crt_stdio_output@@AEAA_ND@Z 0000000180078810 f i libucrtd:output.obj
 0001:000779a0       ?state_case_normal_tchar@?$output_processor@DV?$string_output_adapter@D@__crt_stdio_output@@V?$standard_base@DV?$string_output_adapter@D@__crt_stdio_output@@@2@@__crt_stdio_output@@AEAA_ND@Z 00000001800789a0 f i libucrtd:output.obj
 0001:00077b30       ?state_case_normal_tchar@?$output_processor@_WV?$stream_output_adapter@_W@__crt_stdio_output@@V?$format_validation_base@_WV?$stream_output_adapter@_W@__crt_stdio_output@@@2@@__crt_stdio_output@@AEAA_N_W@Z 0000000180078b30 f i libucrtd:output.obj
 0001:00077b50       ?state_case_normal_tchar@?$output_processor@_WV?$stream_output_adapter@_W@__crt_stdio_output@@V?$positional_parameter_base@_WV?$stream_output_adapter@_W@__crt_stdio_output@@@2@@__crt_stdio_output@@AEAA_N_W@Z 0000000180078b50 f i libucrtd:output.obj
 0001:00077b70       ?state_case_normal_tchar@?$output_processor@_WV?$stream_output_adapter@_W@__crt_stdio_output@@V?$standard_base@_WV?$stream_output_adapter@_W@__crt_stdio_output@@@2@@__crt_stdio_output@@AEAA_N_W@Z 0000000180078b70 f i libucrtd:output.obj
 0001:00077b90       ?state_case_normal_tchar@?$output_processor@_WV?$string_output_adapter@_W@__crt_stdio_output@@V?$format_validation_base@_WV?$string_output_adapter@_W@__crt_stdio_output@@@2@@__crt_stdio_output@@AEAA_N_W@Z 0000000180078b90 f i libucrtd:output.obj
 0001:00077bb0       ?state_case_normal_tchar@?$output_processor@_WV?$string_output_adapter@_W@__crt_stdio_output@@V?$positional_parameter_base@_WV?$string_output_adapter@_W@__crt_stdio_output@@@2@@__crt_stdio_output@@AEAA_N_W@Z 0000000180078bb0 f i libucrtd:output.obj
 0001:00077bd0       ?state_case_normal_tchar@?$output_processor@_WV?$string_output_adapter@_W@__crt_stdio_output@@V?$standard_base@_WV?$string_output_adapter@_W@__crt_stdio_output@@@2@@__crt_stdio_output@@AEAA_N_W@Z 0000000180078bd0 f i libucrtd:output.obj
 0001:00077bf0       ?state_case_percent@?$output_processor@DV?$stream_output_adapter@D@__crt_stdio_output@@V?$format_validation_base@DV?$stream_output_adapter@D@__crt_stdio_output@@@2@@__crt_stdio_output@@AEAA_NXZ 0000000180078bf0 f i libucrtd:output.obj
 0001:00077c40       ?state_case_percent@?$output_processor@DV?$stream_output_adapter@D@__crt_stdio_output@@V?$positional_parameter_base@DV?$stream_output_adapter@D@__crt_stdio_output@@@2@@__crt_stdio_output@@AEAA_NXZ 0000000180078c40 f i libucrtd:output.obj
 0001:00077c90       ?state_case_percent@?$output_processor@DV?$stream_output_adapter@D@__crt_stdio_output@@V?$standard_base@DV?$stream_output_adapter@D@__crt_stdio_output@@@2@@__crt_stdio_output@@AEAA_NXZ 0000000180078c90 f i libucrtd:output.obj
 0001:00077ce0       ?state_case_percent@?$output_processor@DV?$string_output_adapter@D@__crt_stdio_output@@V?$format_validation_base@DV?$string_output_adapter@D@__crt_stdio_output@@@2@@__crt_stdio_output@@AEAA_NXZ 0000000180078ce0 f i libucrtd:output.obj
 0001:00077d30       ?state_case_percent@?$output_processor@DV?$string_output_adapter@D@__crt_stdio_output@@V?$positional_parameter_base@DV?$string_output_adapter@D@__crt_stdio_output@@@2@@__crt_stdio_output@@AEAA_NXZ 0000000180078d30 f i libucrtd:output.obj
 0001:00077d80       ?state_case_percent@?$output_processor@DV?$string_output_adapter@D@__crt_stdio_output@@V?$standard_base@DV?$string_output_adapter@D@__crt_stdio_output@@@2@@__crt_stdio_output@@AEAA_NXZ 0000000180078d80 f i libucrtd:output.obj
 0001:00077dd0       ?state_case_percent@?$output_processor@_WV?$stream_output_adapter@_W@__crt_stdio_output@@V?$format_validation_base@_WV?$stream_output_adapter@_W@__crt_stdio_output@@@2@@__crt_stdio_output@@AEAA_NXZ 0000000180078dd0 f i libucrtd:output.obj
 0001:00077e20       ?state_case_percent@?$output_processor@_WV?$stream_output_adapter@_W@__crt_stdio_output@@V?$positional_parameter_base@_WV?$stream_output_adapter@_W@__crt_stdio_output@@@2@@__crt_stdio_output@@AEAA_NXZ 0000000180078e20 f i libucrtd:output.obj
 0001:00077e70       ?state_case_percent@?$output_processor@_WV?$stream_output_adapter@_W@__crt_stdio_output@@V?$standard_base@_WV?$stream_output_adapter@_W@__crt_stdio_output@@@2@@__crt_stdio_output@@AEAA_NXZ 0000000180078e70 f i libucrtd:output.obj
 0001:00077ec0       ?state_case_percent@?$output_processor@_WV?$string_output_adapter@_W@__crt_stdio_output@@V?$format_validation_base@_WV?$string_output_adapter@_W@__crt_stdio_output@@@2@@__crt_stdio_output@@AEAA_NXZ 0000000180078ec0 f i libucrtd:output.obj
 0001:00077f10       ?state_case_percent@?$output_processor@_WV?$string_output_adapter@_W@__crt_stdio_output@@V?$positional_parameter_base@_WV?$string_output_adapter@_W@__crt_stdio_output@@@2@@__crt_stdio_output@@AEAA_NXZ 0000000180078f10 f i libucrtd:output.obj
 0001:00077f60       ?state_case_percent@?$output_processor@_WV?$string_output_adapter@_W@__crt_stdio_output@@V?$standard_base@_WV?$string_output_adapter@_W@__crt_stdio_output@@@2@@__crt_stdio_output@@AEAA_NXZ 0000000180078f60 f i libucrtd:output.obj
 0001:00077fb0       ?state_case_precision@?$output_processor@DV?$stream_output_adapter@D@__crt_stdio_output@@V?$format_validation_base@DV?$stream_output_adapter@D@__crt_stdio_output@@@2@@__crt_stdio_output@@AEAA_NXZ 0000000180078fb0 f i libucrtd:output.obj
 0001:00078030       ?state_case_precision@?$output_processor@DV?$stream_output_adapter@D@__crt_stdio_output@@V?$positional_parameter_base@DV?$stream_output_adapter@D@__crt_stdio_output@@@2@@__crt_stdio_output@@AEAA_NXZ 0000000180079030 f i libucrtd:output.obj
 0001:000780b0       ?state_case_precision@?$output_processor@DV?$stream_output_adapter@D@__crt_stdio_output@@V?$standard_base@DV?$stream_output_adapter@D@__crt_stdio_output@@@2@@__crt_stdio_output@@AEAA_NXZ 00000001800790b0 f i libucrtd:output.obj
 0001:00078130       ?state_case_precision@?$output_processor@DV?$string_output_adapter@D@__crt_stdio_output@@V?$format_validation_base@DV?$string_output_adapter@D@__crt_stdio_output@@@2@@__crt_stdio_output@@AEAA_NXZ 0000000180079130 f i libucrtd:output.obj
 0001:000781b0       ?state_case_precision@?$output_processor@DV?$string_output_adapter@D@__crt_stdio_output@@V?$positional_parameter_base@DV?$string_output_adapter@D@__crt_stdio_output@@@2@@__crt_stdio_output@@AEAA_NXZ 00000001800791b0 f i libucrtd:output.obj
 0001:00078230       ?state_case_precision@?$output_processor@DV?$string_output_adapter@D@__crt_stdio_output@@V?$standard_base@DV?$string_output_adapter@D@__crt_stdio_output@@@2@@__crt_stdio_output@@AEAA_NXZ 0000000180079230 f i libucrtd:output.obj
 0001:000782b0       ?state_case_precision@?$output_processor@_WV?$stream_output_adapter@_W@__crt_stdio_output@@V?$format_validation_base@_WV?$stream_output_adapter@_W@__crt_stdio_output@@@2@@__crt_stdio_output@@AEAA_NXZ 00000001800792b0 f i libucrtd:output.obj
 0001:00078330       ?state_case_precision@?$output_processor@_WV?$stream_output_adapter@_W@__crt_stdio_output@@V?$positional_parameter_base@_WV?$stream_output_adapter@_W@__crt_stdio_output@@@2@@__crt_stdio_output@@AEAA_NXZ 0000000180079330 f i libucrtd:output.obj
 0001:000783b0       ?state_case_precision@?$output_processor@_WV?$stream_output_adapter@_W@__crt_stdio_output@@V?$standard_base@_WV?$stream_output_adapter@_W@__crt_stdio_output@@@2@@__crt_stdio_output@@AEAA_NXZ 00000001800793b0 f i libucrtd:output.obj
 0001:00078430       ?state_case_precision@?$output_processor@_WV?$string_output_adapter@_W@__crt_stdio_output@@V?$format_validation_base@_WV?$string_output_adapter@_W@__crt_stdio_output@@@2@@__crt_stdio_output@@AEAA_NXZ 0000000180079430 f i libucrtd:output.obj
 0001:000784b0       ?state_case_precision@?$output_processor@_WV?$string_output_adapter@_W@__crt_stdio_output@@V?$positional_parameter_base@_WV?$string_output_adapter@_W@__crt_stdio_output@@@2@@__crt_stdio_output@@AEAA_NXZ 00000001800794b0 f i libucrtd:output.obj
 0001:00078530       ?state_case_precision@?$output_processor@_WV?$string_output_adapter@_W@__crt_stdio_output@@V?$standard_base@_WV?$string_output_adapter@_W@__crt_stdio_output@@@2@@__crt_stdio_output@@AEAA_NXZ 0000000180079530 f i libucrtd:output.obj
 0001:000785b0       ?state_case_size@?$output_processor@DV?$stream_output_adapter@D@__crt_stdio_output@@V?$format_validation_base@DV?$stream_output_adapter@D@__crt_stdio_output@@@2@@__crt_stdio_output@@AEAA_NXZ 00000001800795b0 f i libucrtd:output.obj
 0001:00078a70       ?state_case_size@?$output_processor@DV?$stream_output_adapter@D@__crt_stdio_output@@V?$positional_parameter_base@DV?$stream_output_adapter@D@__crt_stdio_output@@@2@@__crt_stdio_output@@AEAA_NXZ 0000000180079a70 f i libucrtd:output.obj
 0001:00078f30       ?state_case_size@?$output_processor@DV?$stream_output_adapter@D@__crt_stdio_output@@V?$standard_base@DV?$stream_output_adapter@D@__crt_stdio_output@@@2@@__crt_stdio_output@@AEAA_NXZ 0000000180079f30 f i libucrtd:output.obj
 0001:000793f0       ?state_case_size@?$output_processor@DV?$string_output_adapter@D@__crt_stdio_output@@V?$format_validation_base@DV?$string_output_adapter@D@__crt_stdio_output@@@2@@__crt_stdio_output@@AEAA_NXZ 000000018007a3f0 f i libucrtd:output.obj
 0001:000798b0       ?state_case_size@?$output_processor@DV?$string_output_adapter@D@__crt_stdio_output@@V?$positional_parameter_base@DV?$string_output_adapter@D@__crt_stdio_output@@@2@@__crt_stdio_output@@AEAA_NXZ 000000018007a8b0 f i libucrtd:output.obj
 0001:00079d70       ?state_case_size@?$output_processor@DV?$string_output_adapter@D@__crt_stdio_output@@V?$standard_base@DV?$string_output_adapter@D@__crt_stdio_output@@@2@@__crt_stdio_output@@AEAA_NXZ 000000018007ad70 f i libucrtd:output.obj
 0001:0007a230       ?state_case_size@?$output_processor@_WV?$stream_output_adapter@_W@__crt_stdio_output@@V?$format_validation_base@_WV?$stream_output_adapter@_W@__crt_stdio_output@@@2@@__crt_stdio_output@@AEAA_NXZ 000000018007b230 f i libucrtd:output.obj
 0001:0007a6f0       ?state_case_size@?$output_processor@_WV?$stream_output_adapter@_W@__crt_stdio_output@@V?$positional_parameter_base@_WV?$stream_output_adapter@_W@__crt_stdio_output@@@2@@__crt_stdio_output@@AEAA_NXZ 000000018007b6f0 f i libucrtd:output.obj
 0001:0007abb0       ?state_case_size@?$output_processor@_WV?$stream_output_adapter@_W@__crt_stdio_output@@V?$standard_base@_WV?$stream_output_adapter@_W@__crt_stdio_output@@@2@@__crt_stdio_output@@AEAA_NXZ 000000018007bbb0 f i libucrtd:output.obj
 0001:0007b070       ?state_case_size@?$output_processor@_WV?$string_output_adapter@_W@__crt_stdio_output@@V?$format_validation_base@_WV?$string_output_adapter@_W@__crt_stdio_output@@@2@@__crt_stdio_output@@AEAA_NXZ 000000018007c070 f i libucrtd:output.obj
 0001:0007b530       ?state_case_size@?$output_processor@_WV?$string_output_adapter@_W@__crt_stdio_output@@V?$positional_parameter_base@_WV?$string_output_adapter@_W@__crt_stdio_output@@@2@@__crt_stdio_output@@AEAA_NXZ 000000018007c530 f i libucrtd:output.obj
 0001:0007b9f0       ?state_case_size@?$output_processor@_WV?$string_output_adapter@_W@__crt_stdio_output@@V?$standard_base@_WV?$string_output_adapter@_W@__crt_stdio_output@@@2@@__crt_stdio_output@@AEAA_NXZ 000000018007c9f0 f i libucrtd:output.obj
 0001:0007beb0       ?state_case_type@?$output_processor@DV?$stream_output_adapter@D@__crt_stdio_output@@V?$format_validation_base@DV?$stream_output_adapter@D@__crt_stdio_output@@@2@@__crt_stdio_output@@AEAA_NXZ 000000018007ceb0 f i libucrtd:output.obj
 0001:0007c370       ?state_case_type@?$output_processor@DV?$stream_output_adapter@D@__crt_stdio_output@@V?$positional_parameter_base@DV?$stream_output_adapter@D@__crt_stdio_output@@@2@@__crt_stdio_output@@AEAA_NXZ 000000018007d370 f i libucrtd:output.obj
 0001:0007c830       ?state_case_type@?$output_processor@DV?$stream_output_adapter@D@__crt_stdio_output@@V?$standard_base@DV?$stream_output_adapter@D@__crt_stdio_output@@@2@@__crt_stdio_output@@AEAA_NXZ 000000018007d830 f i libucrtd:output.obj
 0001:0007ccf0       ?state_case_type@?$output_processor@DV?$string_output_adapter@D@__crt_stdio_output@@V?$format_validation_base@DV?$string_output_adapter@D@__crt_stdio_output@@@2@@__crt_stdio_output@@AEAA_NXZ 000000018007dcf0 f i libucrtd:output.obj
 0001:0007d1b0       ?state_case_type@?$output_processor@DV?$string_output_adapter@D@__crt_stdio_output@@V?$positional_parameter_base@DV?$string_output_adapter@D@__crt_stdio_output@@@2@@__crt_stdio_output@@AEAA_NXZ 000000018007e1b0 f i libucrtd:output.obj
 0001:0007d670       ?state_case_type@?$output_processor@DV?$string_output_adapter@D@__crt_stdio_output@@V?$standard_base@DV?$string_output_adapter@D@__crt_stdio_output@@@2@@__crt_stdio_output@@AEAA_NXZ 000000018007e670 f i libucrtd:output.obj
 0001:0007db30       ?state_case_type@?$output_processor@_WV?$stream_output_adapter@_W@__crt_stdio_output@@V?$format_validation_base@_WV?$stream_output_adapter@_W@__crt_stdio_output@@@2@@__crt_stdio_output@@AEAA_NXZ 000000018007eb30 f i libucrtd:output.obj
 0001:0007e0c0       ?state_case_type@?$output_processor@_WV?$stream_output_adapter@_W@__crt_stdio_output@@V?$positional_parameter_base@_WV?$stream_output_adapter@_W@__crt_stdio_output@@@2@@__crt_stdio_output@@AEAA_NXZ 000000018007f0c0 f i libucrtd:output.obj
 0001:0007e650       ?state_case_type@?$output_processor@_WV?$stream_output_adapter@_W@__crt_stdio_output@@V?$standard_base@_WV?$stream_output_adapter@_W@__crt_stdio_output@@@2@@__crt_stdio_output@@AEAA_NXZ 000000018007f650 f i libucrtd:output.obj
 0001:0007ebe0       ?state_case_type@?$output_processor@_WV?$string_output_adapter@_W@__crt_stdio_output@@V?$format_validation_base@_WV?$string_output_adapter@_W@__crt_stdio_output@@@2@@__crt_stdio_output@@AEAA_NXZ 000000018007fbe0 f i libucrtd:output.obj
 0001:0007f170       ?state_case_type@?$output_processor@_WV?$string_output_adapter@_W@__crt_stdio_output@@V?$positional_parameter_base@_WV?$string_output_adapter@_W@__crt_stdio_output@@@2@@__crt_stdio_output@@AEAA_NXZ 0000000180080170 f i libucrtd:output.obj
 0001:0007f700       ?state_case_type@?$output_processor@_WV?$string_output_adapter@_W@__crt_stdio_output@@V?$standard_base@_WV?$string_output_adapter@_W@__crt_stdio_output@@@2@@__crt_stdio_output@@AEAA_NXZ 0000000180080700 f i libucrtd:output.obj
 0001:0007fc90       ?state_case_width@?$output_processor@DV?$stream_output_adapter@D@__crt_stdio_output@@V?$format_validation_base@DV?$stream_output_adapter@D@__crt_stdio_output@@@2@@__crt_stdio_output@@AEAA_NXZ 0000000180080c90 f i libucrtd:output.obj
 0001:0007fd20       ?state_case_width@?$output_processor@DV?$stream_output_adapter@D@__crt_stdio_output@@V?$positional_parameter_base@DV?$stream_output_adapter@D@__crt_stdio_output@@@2@@__crt_stdio_output@@AEAA_NXZ 0000000180080d20 f i libucrtd:output.obj
 0001:0007fdb0       ?state_case_width@?$output_processor@DV?$stream_output_adapter@D@__crt_stdio_output@@V?$standard_base@DV?$stream_output_adapter@D@__crt_stdio_output@@@2@@__crt_stdio_output@@AEAA_NXZ 0000000180080db0 f i libucrtd:output.obj
 0001:0007fe40       ?state_case_width@?$output_processor@DV?$string_output_adapter@D@__crt_stdio_output@@V?$format_validation_base@DV?$string_output_adapter@D@__crt_stdio_output@@@2@@__crt_stdio_output@@AEAA_NXZ 0000000180080e40 f i libucrtd:output.obj
 0001:0007fed0       ?state_case_width@?$output_processor@DV?$string_output_adapter@D@__crt_stdio_output@@V?$positional_parameter_base@DV?$string_output_adapter@D@__crt_stdio_output@@@2@@__crt_stdio_output@@AEAA_NXZ 0000000180080ed0 f i libucrtd:output.obj
 0001:0007ff60       ?state_case_width@?$output_processor@DV?$string_output_adapter@D@__crt_stdio_output@@V?$standard_base@DV?$string_output_adapter@D@__crt_stdio_output@@@2@@__crt_stdio_output@@AEAA_NXZ 0000000180080f60 f i libucrtd:output.obj
 0001:0007fff0       ?state_case_width@?$output_processor@_WV?$stream_output_adapter@_W@__crt_stdio_output@@V?$format_validation_base@_WV?$stream_output_adapter@_W@__crt_stdio_output@@@2@@__crt_stdio_output@@AEAA_NXZ 0000000180080ff0 f i libucrtd:output.obj
 0001:00080080       ?state_case_width@?$output_processor@_WV?$stream_output_adapter@_W@__crt_stdio_output@@V?$positional_parameter_base@_WV?$stream_output_adapter@_W@__crt_stdio_output@@@2@@__crt_stdio_output@@AEAA_NXZ 0000000180081080 f i libucrtd:output.obj
 0001:00080110       ?state_case_width@?$output_processor@_WV?$stream_output_adapter@_W@__crt_stdio_output@@V?$standard_base@_WV?$stream_output_adapter@_W@__crt_stdio_output@@@2@@__crt_stdio_output@@AEAA_NXZ 0000000180081110 f i libucrtd:output.obj
 0001:000801a0       ?state_case_width@?$output_processor@_WV?$string_output_adapter@_W@__crt_stdio_output@@V?$format_validation_base@_WV?$string_output_adapter@_W@__crt_stdio_output@@@2@@__crt_stdio_output@@AEAA_NXZ 00000001800811a0 f i libucrtd:output.obj
 0001:00080230       ?state_case_width@?$output_processor@_WV?$string_output_adapter@_W@__crt_stdio_output@@V?$positional_parameter_base@_WV?$string_output_adapter@_W@__crt_stdio_output@@@2@@__crt_stdio_output@@AEAA_NXZ 0000000180081230 f i libucrtd:output.obj
 0001:000802c0       ?state_case_width@?$output_processor@_WV?$string_output_adapter@_W@__crt_stdio_output@@V?$standard_base@_WV?$string_output_adapter@_W@__crt_stdio_output@@@2@@__crt_stdio_output@@AEAA_NXZ 00000001800812c0 f i libucrtd:output.obj
 0001:00080350       ?state_count@?$format_validation_base@DV?$stream_output_adapter@D@__crt_stdio_output@@@__crt_stdio_output@@KAIXZ 0000000180081350 f i libucrtd:output.obj
 0001:00080360       ?state_count@?$format_validation_base@DV?$string_output_adapter@D@__crt_stdio_output@@@__crt_stdio_output@@KAIXZ 0000000180081360 f i libucrtd:output.obj
 0001:00080370       ?state_count@?$format_validation_base@_WV?$stream_output_adapter@_W@__crt_stdio_output@@@__crt_stdio_output@@KAIXZ 0000000180081370 f i libucrtd:output.obj
 0001:00080380       ?state_count@?$format_validation_base@_WV?$string_output_adapter@_W@__crt_stdio_output@@@__crt_stdio_output@@KAIXZ 0000000180081380 f i libucrtd:output.obj
 0001:00080390       ?state_count@?$standard_base@DV?$stream_output_adapter@D@__crt_stdio_output@@@__crt_stdio_output@@KAIXZ 0000000180081390 f i libucrtd:output.obj
 0001:000803a0       ?state_count@?$standard_base@DV?$string_output_adapter@D@__crt_stdio_output@@@__crt_stdio_output@@KAIXZ 00000001800813a0 f i libucrtd:output.obj
 0001:000803b0       ?state_count@?$standard_base@_WV?$stream_output_adapter@_W@__crt_stdio_output@@@__crt_stdio_output@@KAIXZ 00000001800813b0 f i libucrtd:output.obj
 0001:000803c0       ?state_count@?$standard_base@_WV?$string_output_adapter@_W@__crt_stdio_output@@@__crt_stdio_output@@KAIXZ 00000001800813c0 f i libucrtd:output.obj
 0001:000803d0       ?state_transition_table@?$format_validation_base@DV?$stream_output_adapter@D@__crt_stdio_output@@@__crt_stdio_output@@KAAEBV?$spectre_mitigated_lookup_table@Ustate_transition_pair@__crt_stdio_output@@$0IA@@2@XZ 00000001800813d0 f i libucrtd:output.obj
 0001:000803e0       ?state_transition_table@?$format_validation_base@DV?$string_output_adapter@D@__crt_stdio_output@@@__crt_stdio_output@@KAAEBV?$spectre_mitigated_lookup_table@Ustate_transition_pair@__crt_stdio_output@@$0IA@@2@XZ 00000001800813e0 f i libucrtd:output.obj
 0001:000803f0       ?state_transition_table@?$format_validation_base@_WV?$stream_output_adapter@_W@__crt_stdio_output@@@__crt_stdio_output@@KAAEBV?$spectre_mitigated_lookup_table@Ustate_transition_pair@__crt_stdio_output@@$0IA@@2@XZ 00000001800813f0 f i libucrtd:output.obj
 0001:00080400       ?state_transition_table@?$format_validation_base@_WV?$string_output_adapter@_W@__crt_stdio_output@@@__crt_stdio_output@@KAAEBV?$spectre_mitigated_lookup_table@Ustate_transition_pair@__crt_stdio_output@@$0IA@@2@XZ 0000000180081400 f i libucrtd:output.obj
 0001:00080410       ?state_transition_table@?$standard_base@DV?$stream_output_adapter@D@__crt_stdio_output@@@__crt_stdio_output@@KAAEBV?$spectre_mitigated_lookup_table@Ustate_transition_pair@__crt_stdio_output@@$0IA@@2@XZ 0000000180081410 f i libucrtd:output.obj
 0001:00080420       ?state_transition_table@?$standard_base@DV?$string_output_adapter@D@__crt_stdio_output@@@__crt_stdio_output@@KAAEBV?$spectre_mitigated_lookup_table@Ustate_transition_pair@__crt_stdio_output@@$0IA@@2@XZ 0000000180081420 f i libucrtd:output.obj
 0001:00080430       ?state_transition_table@?$standard_base@_WV?$stream_output_adapter@_W@__crt_stdio_output@@@__crt_stdio_output@@KAAEBV?$spectre_mitigated_lookup_table@Ustate_transition_pair@__crt_stdio_output@@$0IA@@2@XZ 0000000180081430 f i libucrtd:output.obj
 0001:00080440       ?state_transition_table@?$standard_base@_WV?$string_output_adapter@_W@__crt_stdio_output@@@__crt_stdio_output@@KAAEBV?$spectre_mitigated_lookup_table@Ustate_transition_pair@__crt_stdio_output@@$0IA@@2@XZ 0000000180081440 f i libucrtd:output.obj
 0001:00080450       ?tchar_string@?$common_data@D@__crt_stdio_output@@IEAAAEAPEADD@Z 0000000180081450 f i libucrtd:output.obj
 0001:00080470       ?tchar_string@?$common_data@D@__crt_stdio_output@@IEAAAEAPEADXZ 0000000180081470 f i libucrtd:output.obj
 0001:00080490       ?tchar_string@?$common_data@_W@__crt_stdio_output@@IEAAAEAPEA_WXZ 0000000180081490 f i libucrtd:output.obj
 0001:000804b0       ?tchar_string@?$common_data@_W@__crt_stdio_output@@IEAAAEAPEA_W_W@Z 00000001800814b0 f i libucrtd:output.obj
 0001:000804d0       ?to_integer_size@__crt_stdio_output@@YA_KW4length_modifier@1@@Z 00000001800814d0 f i libucrtd:output.obj
 0001:00080580       ?type_case_X@?$output_processor@DV?$stream_output_adapter@D@__crt_stdio_output@@V?$format_validation_base@DV?$stream_output_adapter@D@__crt_stdio_output@@@2@@__crt_stdio_output@@AEAA_NXZ 0000000180081580 f i libucrtd:output.obj
 0001:000805a0       ?type_case_X@?$output_processor@DV?$stream_output_adapter@D@__crt_stdio_output@@V?$positional_parameter_base@DV?$stream_output_adapter@D@__crt_stdio_output@@@2@@__crt_stdio_output@@AEAA_NXZ 00000001800815a0 f i libucrtd:output.obj
 0001:000805c0       ?type_case_X@?$output_processor@DV?$stream_output_adapter@D@__crt_stdio_output@@V?$standard_base@DV?$stream_output_adapter@D@__crt_stdio_output@@@2@@__crt_stdio_output@@AEAA_NXZ 00000001800815c0 f i libucrtd:output.obj
 0001:000805e0       ?type_case_X@?$output_processor@DV?$string_output_adapter@D@__crt_stdio_output@@V?$format_validation_base@DV?$string_output_adapter@D@__crt_stdio_output@@@2@@__crt_stdio_output@@AEAA_NXZ 00000001800815e0 f i libucrtd:output.obj
 0001:00080600       ?type_case_X@?$output_processor@DV?$string_output_adapter@D@__crt_stdio_output@@V?$positional_parameter_base@DV?$string_output_adapter@D@__crt_stdio_output@@@2@@__crt_stdio_output@@AEAA_NXZ 0000000180081600 f i libucrtd:output.obj
 0001:00080620       ?type_case_X@?$output_processor@DV?$string_output_adapter@D@__crt_stdio_output@@V?$standard_base@DV?$string_output_adapter@D@__crt_stdio_output@@@2@@__crt_stdio_output@@AEAA_NXZ 0000000180081620 f i libucrtd:output.obj
 0001:00080640       ?type_case_X@?$output_processor@_WV?$stream_output_adapter@_W@__crt_stdio_output@@V?$format_validation_base@_WV?$stream_output_adapter@_W@__crt_stdio_output@@@2@@__crt_stdio_output@@AEAA_NXZ 0000000180081640 f i libucrtd:output.obj
 0001:00080660       ?type_case_X@?$output_processor@_WV?$stream_output_adapter@_W@__crt_stdio_output@@V?$positional_parameter_base@_WV?$stream_output_adapter@_W@__crt_stdio_output@@@2@@__crt_stdio_output@@AEAA_NXZ 0000000180081660 f i libucrtd:output.obj
 0001:00080680       ?type_case_X@?$output_processor@_WV?$stream_output_adapter@_W@__crt_stdio_output@@V?$standard_base@_WV?$stream_output_adapter@_W@__crt_stdio_output@@@2@@__crt_stdio_output@@AEAA_NXZ 0000000180081680 f i libucrtd:output.obj
 0001:000806a0       ?type_case_X@?$output_processor@_WV?$string_output_adapter@_W@__crt_stdio_output@@V?$format_validation_base@_WV?$string_output_adapter@_W@__crt_stdio_output@@@2@@__crt_stdio_output@@AEAA_NXZ 00000001800816a0 f i libucrtd:output.obj
 0001:000806c0       ?type_case_X@?$output_processor@_WV?$string_output_adapter@_W@__crt_stdio_output@@V?$positional_parameter_base@_WV?$string_output_adapter@_W@__crt_stdio_output@@@2@@__crt_stdio_output@@AEAA_NXZ 00000001800816c0 f i libucrtd:output.obj
 0001:000806e0       ?type_case_X@?$output_processor@_WV?$string_output_adapter@_W@__crt_stdio_output@@V?$standard_base@_WV?$string_output_adapter@_W@__crt_stdio_output@@@2@@__crt_stdio_output@@AEAA_NXZ 00000001800816e0 f i libucrtd:output.obj
 0001:00080700       ?type_case_Z@?$output_processor@DV?$stream_output_adapter@D@__crt_stdio_output@@V?$format_validation_base@DV?$stream_output_adapter@D@__crt_stdio_output@@@2@@__crt_stdio_output@@AEAA_NXZ 0000000180081700 f i libucrtd:output.obj
 0001:00080820       ?type_case_Z@?$output_processor@DV?$stream_output_adapter@D@__crt_stdio_output@@V?$positional_parameter_base@DV?$stream_output_adapter@D@__crt_stdio_output@@@2@@__crt_stdio_output@@AEAA_NXZ 0000000180081820 f i libucrtd:output.obj
 0001:00080940       ?type_case_Z@?$output_processor@DV?$stream_output_adapter@D@__crt_stdio_output@@V?$standard_base@DV?$stream_output_adapter@D@__crt_stdio_output@@@2@@__crt_stdio_output@@AEAA_NXZ 0000000180081940 f i libucrtd:output.obj
 0001:00080a60       ?type_case_Z@?$output_processor@DV?$string_output_adapter@D@__crt_stdio_output@@V?$format_validation_base@DV?$string_output_adapter@D@__crt_stdio_output@@@2@@__crt_stdio_output@@AEAA_NXZ 0000000180081a60 f i libucrtd:output.obj
 0001:00080b80       ?type_case_Z@?$output_processor@DV?$string_output_adapter@D@__crt_stdio_output@@V?$positional_parameter_base@DV?$string_output_adapter@D@__crt_stdio_output@@@2@@__crt_stdio_output@@AEAA_NXZ 0000000180081b80 f i libucrtd:output.obj
 0001:00080ca0       ?type_case_Z@?$output_processor@DV?$string_output_adapter@D@__crt_stdio_output@@V?$standard_base@DV?$string_output_adapter@D@__crt_stdio_output@@@2@@__crt_stdio_output@@AEAA_NXZ 0000000180081ca0 f i libucrtd:output.obj
 0001:00080dc0       ?type_case_Z@?$output_processor@_WV?$stream_output_adapter@_W@__crt_stdio_output@@V?$format_validation_base@_WV?$stream_output_adapter@_W@__crt_stdio_output@@@2@@__crt_stdio_output@@AEAA_NXZ 0000000180081dc0 f i libucrtd:output.obj
 0001:00080ee0       ?type_case_Z@?$output_processor@_WV?$stream_output_adapter@_W@__crt_stdio_output@@V?$positional_parameter_base@_WV?$stream_output_adapter@_W@__crt_stdio_output@@@2@@__crt_stdio_output@@AEAA_NXZ 0000000180081ee0 f i libucrtd:output.obj
 0001:00081000       ?type_case_Z@?$output_processor@_WV?$stream_output_adapter@_W@__crt_stdio_output@@V?$standard_base@_WV?$stream_output_adapter@_W@__crt_stdio_output@@@2@@__crt_stdio_output@@AEAA_NXZ 0000000180082000 f i libucrtd:output.obj
 0001:00081120       ?type_case_Z@?$output_processor@_WV?$string_output_adapter@_W@__crt_stdio_output@@V?$format_validation_base@_WV?$string_output_adapter@_W@__crt_stdio_output@@@2@@__crt_stdio_output@@AEAA_NXZ 0000000180082120 f i libucrtd:output.obj
 0001:00081240       ?type_case_Z@?$output_processor@_WV?$string_output_adapter@_W@__crt_stdio_output@@V?$positional_parameter_base@_WV?$string_output_adapter@_W@__crt_stdio_output@@@2@@__crt_stdio_output@@AEAA_NXZ 0000000180082240 f i libucrtd:output.obj
 0001:00081360       ?type_case_Z@?$output_processor@_WV?$string_output_adapter@_W@__crt_stdio_output@@V?$standard_base@_WV?$string_output_adapter@_W@__crt_stdio_output@@@2@@__crt_stdio_output@@AEAA_NXZ 0000000180082360 f i libucrtd:output.obj
 0001:00081480       ?type_case_a@?$output_processor@DV?$stream_output_adapter@D@__crt_stdio_output@@V?$format_validation_base@DV?$stream_output_adapter@D@__crt_stdio_output@@@2@@__crt_stdio_output@@AEAA_NXZ 0000000180082480 f i libucrtd:output.obj
 0001:000818e0       ?type_case_a@?$output_processor@DV?$stream_output_adapter@D@__crt_stdio_output@@V?$positional_parameter_base@DV?$stream_output_adapter@D@__crt_stdio_output@@@2@@__crt_stdio_output@@AEAA_NXZ 00000001800828e0 f i libucrtd:output.obj
 0001:00081d40       ?type_case_a@?$output_processor@DV?$stream_output_adapter@D@__crt_stdio_output@@V?$standard_base@DV?$stream_output_adapter@D@__crt_stdio_output@@@2@@__crt_stdio_output@@AEAA_NXZ 0000000180082d40 f i libucrtd:output.obj
 0001:000821a0       ?type_case_a@?$output_processor@DV?$string_output_adapter@D@__crt_stdio_output@@V?$format_validation_base@DV?$string_output_adapter@D@__crt_stdio_output@@@2@@__crt_stdio_output@@AEAA_NXZ 00000001800831a0 f i libucrtd:output.obj
 0001:00082600       ?type_case_a@?$output_processor@DV?$string_output_adapter@D@__crt_stdio_output@@V?$positional_parameter_base@DV?$string_output_adapter@D@__crt_stdio_output@@@2@@__crt_stdio_output@@AEAA_NXZ 0000000180083600 f i libucrtd:output.obj
 0001:00082a60       ?type_case_a@?$output_processor@DV?$string_output_adapter@D@__crt_stdio_output@@V?$standard_base@DV?$string_output_adapter@D@__crt_stdio_output@@@2@@__crt_stdio_output@@AEAA_NXZ 0000000180083a60 f i libucrtd:output.obj
 0001:00082ec0       ?type_case_a@?$output_processor@_WV?$stream_output_adapter@_W@__crt_stdio_output@@V?$format_validation_base@_WV?$stream_output_adapter@_W@__crt_stdio_output@@@2@@__crt_stdio_output@@AEAA_NXZ 0000000180083ec0 f i libucrtd:output.obj
 0001:00083330       ?type_case_a@?$output_processor@_WV?$stream_output_adapter@_W@__crt_stdio_output@@V?$positional_parameter_base@_WV?$stream_output_adapter@_W@__crt_stdio_output@@@2@@__crt_stdio_output@@AEAA_NXZ 0000000180084330 f i libucrtd:output.obj
 0001:000837a0       ?type_case_a@?$output_processor@_WV?$stream_output_adapter@_W@__crt_stdio_output@@V?$standard_base@_WV?$stream_output_adapter@_W@__crt_stdio_output@@@2@@__crt_stdio_output@@AEAA_NXZ 00000001800847a0 f i libucrtd:output.obj
 0001:00083c10       ?type_case_a@?$output_processor@_WV?$string_output_adapter@_W@__crt_stdio_output@@V?$format_validation_base@_WV?$string_output_adapter@_W@__crt_stdio_output@@@2@@__crt_stdio_output@@AEAA_NXZ 0000000180084c10 f i libucrtd:output.obj
 0001:00084080       ?type_case_a@?$output_processor@_WV?$string_output_adapter@_W@__crt_stdio_output@@V?$positional_parameter_base@_WV?$string_output_adapter@_W@__crt_stdio_output@@@2@@__crt_stdio_output@@AEAA_NXZ 0000000180085080 f i libucrtd:output.obj
 0001:000844f0       ?type_case_a@?$output_processor@_WV?$string_output_adapter@_W@__crt_stdio_output@@V?$standard_base@_WV?$string_output_adapter@_W@__crt_stdio_output@@@2@@__crt_stdio_output@@AEAA_NXZ 00000001800854f0 f i libucrtd:output.obj
 0001:00084960       ?type_case_c@?$output_processor@DV?$stream_output_adapter@D@__crt_stdio_output@@V?$format_validation_base@DV?$stream_output_adapter@D@__crt_stdio_output@@@2@@__crt_stdio_output@@AEAA_NXZ 0000000180085960 f i libucrtd:output.obj
 0001:00084980       ?type_case_c@?$output_processor@DV?$stream_output_adapter@D@__crt_stdio_output@@V?$positional_parameter_base@DV?$stream_output_adapter@D@__crt_stdio_output@@@2@@__crt_stdio_output@@AEAA_NXZ 0000000180085980 f i libucrtd:output.obj
 0001:000849a0       ?type_case_c@?$output_processor@DV?$stream_output_adapter@D@__crt_stdio_output@@V?$standard_base@DV?$stream_output_adapter@D@__crt_stdio_output@@@2@@__crt_stdio_output@@AEAA_NXZ 00000001800859a0 f i libucrtd:output.obj
 0001:000849c0       ?type_case_c@?$output_processor@DV?$string_output_adapter@D@__crt_stdio_output@@V?$format_validation_base@DV?$string_output_adapter@D@__crt_stdio_output@@@2@@__crt_stdio_output@@AEAA_NXZ 00000001800859c0 f i libucrtd:output.obj
 0001:000849e0       ?type_case_c@?$output_processor@DV?$string_output_adapter@D@__crt_stdio_output@@V?$positional_parameter_base@DV?$string_output_adapter@D@__crt_stdio_output@@@2@@__crt_stdio_output@@AEAA_NXZ 00000001800859e0 f i libucrtd:output.obj
 0001:00084a00       ?type_case_c@?$output_processor@DV?$string_output_adapter@D@__crt_stdio_output@@V?$standard_base@DV?$string_output_adapter@D@__crt_stdio_output@@@2@@__crt_stdio_output@@AEAA_NXZ 0000000180085a00 f i libucrtd:output.obj
 0001:00084a20       ?type_case_c@?$output_processor@_WV?$stream_output_adapter@_W@__crt_stdio_output@@V?$format_validation_base@_WV?$stream_output_adapter@_W@__crt_stdio_output@@@2@@__crt_stdio_output@@AEAA_NXZ 0000000180085a20 f i libucrtd:output.obj
 0001:00084a40       ?type_case_c@?$output_processor@_WV?$stream_output_adapter@_W@__crt_stdio_output@@V?$positional_parameter_base@_WV?$stream_output_adapter@_W@__crt_stdio_output@@@2@@__crt_stdio_output@@AEAA_NXZ 0000000180085a40 f i libucrtd:output.obj
 0001:00084a60       ?type_case_c@?$output_processor@_WV?$stream_output_adapter@_W@__crt_stdio_output@@V?$standard_base@_WV?$stream_output_adapter@_W@__crt_stdio_output@@@2@@__crt_stdio_output@@AEAA_NXZ 0000000180085a60 f i libucrtd:output.obj
 0001:00084a80       ?type_case_c@?$output_processor@_WV?$string_output_adapter@_W@__crt_stdio_output@@V?$format_validation_base@_WV?$string_output_adapter@_W@__crt_stdio_output@@@2@@__crt_stdio_output@@AEAA_NXZ 0000000180085a80 f i libucrtd:output.obj
 0001:00084aa0       ?type_case_c@?$output_processor@_WV?$string_output_adapter@_W@__crt_stdio_output@@V?$positional_parameter_base@_WV?$string_output_adapter@_W@__crt_stdio_output@@@2@@__crt_stdio_output@@AEAA_NXZ 0000000180085aa0 f i libucrtd:output.obj
 0001:00084ac0       ?type_case_c@?$output_processor@_WV?$string_output_adapter@_W@__crt_stdio_output@@V?$standard_base@_WV?$string_output_adapter@_W@__crt_stdio_output@@@2@@__crt_stdio_output@@AEAA_NXZ 0000000180085ac0 f i libucrtd:output.obj
 0001:00084ae0       ?type_case_c_tchar@?$output_processor@DV?$stream_output_adapter@D@__crt_stdio_output@@V?$format_validation_base@DV?$stream_output_adapter@D@__crt_stdio_output@@@2@@__crt_stdio_output@@AEAA_ND@Z 0000000180085ae0 f i libucrtd:output.obj
 0001:00084c50       ?type_case_c_tchar@?$output_processor@DV?$stream_output_adapter@D@__crt_stdio_output@@V?$positional_parameter_base@DV?$stream_output_adapter@D@__crt_stdio_output@@@2@@__crt_stdio_output@@AEAA_ND@Z 0000000180085c50 f i libucrtd:output.obj
 0001:00084dc0       ?type_case_c_tchar@?$output_processor@DV?$stream_output_adapter@D@__crt_stdio_output@@V?$standard_base@DV?$stream_output_adapter@D@__crt_stdio_output@@@2@@__crt_stdio_output@@AEAA_ND@Z 0000000180085dc0 f i libucrtd:output.obj
 0001:00084f30       ?type_case_c_tchar@?$output_processor@DV?$string_output_adapter@D@__crt_stdio_output@@V?$format_validation_base@DV?$string_output_adapter@D@__crt_stdio_output@@@2@@__crt_stdio_output@@AEAA_ND@Z 0000000180085f30 f i libucrtd:output.obj
 0001:000850a0       ?type_case_c_tchar@?$output_processor@DV?$string_output_adapter@D@__crt_stdio_output@@V?$positional_parameter_base@DV?$string_output_adapter@D@__crt_stdio_output@@@2@@__crt_stdio_output@@AEAA_ND@Z 00000001800860a0 f i libucrtd:output.obj
 0001:00085210       ?type_case_c_tchar@?$output_processor@DV?$string_output_adapter@D@__crt_stdio_output@@V?$standard_base@DV?$string_output_adapter@D@__crt_stdio_output@@@2@@__crt_stdio_output@@AEAA_ND@Z 0000000180086210 f i libucrtd:output.obj
 0001:00085380       ?type_case_c_tchar@?$output_processor@_WV?$stream_output_adapter@_W@__crt_stdio_output@@V?$format_validation_base@_WV?$stream_output_adapter@_W@__crt_stdio_output@@@2@@__crt_stdio_output@@AEAA_N_W@Z 0000000180086380 f i libucrtd:output.obj
 0001:000854e0       ?type_case_c_tchar@?$output_processor@_WV?$stream_output_adapter@_W@__crt_stdio_output@@V?$positional_parameter_base@_WV?$stream_output_adapter@_W@__crt_stdio_output@@@2@@__crt_stdio_output@@AEAA_N_W@Z 00000001800864e0 f i libucrtd:output.obj
 0001:00085640       ?type_case_c_tchar@?$output_processor@_WV?$stream_output_adapter@_W@__crt_stdio_output@@V?$standard_base@_WV?$stream_output_adapter@_W@__crt_stdio_output@@@2@@__crt_stdio_output@@AEAA_N_W@Z 0000000180086640 f i libucrtd:output.obj
 0001:000857a0       ?type_case_c_tchar@?$output_processor@_WV?$string_output_adapter@_W@__crt_stdio_output@@V?$format_validation_base@_WV?$string_output_adapter@_W@__crt_stdio_output@@@2@@__crt_stdio_output@@AEAA_N_W@Z 00000001800867a0 f i libucrtd:output.obj
 0001:00085900       ?type_case_c_tchar@?$output_processor@_WV?$string_output_adapter@_W@__crt_stdio_output@@V?$positional_parameter_base@_WV?$string_output_adapter@_W@__crt_stdio_output@@@2@@__crt_stdio_output@@AEAA_N_W@Z 0000000180086900 f i libucrtd:output.obj
 0001:00085a60       ?type_case_c_tchar@?$output_processor@_WV?$string_output_adapter@_W@__crt_stdio_output@@V?$standard_base@_WV?$string_output_adapter@_W@__crt_stdio_output@@@2@@__crt_stdio_output@@AEAA_N_W@Z 0000000180086a60 f i libucrtd:output.obj
 0001:00085bc0       ?type_case_d@?$output_processor@DV?$stream_output_adapter@D@__crt_stdio_output@@V?$format_validation_base@DV?$stream_output_adapter@D@__crt_stdio_output@@@2@@__crt_stdio_output@@AEAA_NXZ 0000000180086bc0 f i libucrtd:output.obj
 0001:00085bf0       ?type_case_d@?$output_processor@DV?$stream_output_adapter@D@__crt_stdio_output@@V?$positional_parameter_base@DV?$stream_output_adapter@D@__crt_stdio_output@@@2@@__crt_stdio_output@@AEAA_NXZ 0000000180086bf0 f i libucrtd:output.obj
 0001:00085c20       ?type_case_d@?$output_processor@DV?$stream_output_adapter@D@__crt_stdio_output@@V?$standard_base@DV?$stream_output_adapter@D@__crt_stdio_output@@@2@@__crt_stdio_output@@AEAA_NXZ 0000000180086c20 f i libucrtd:output.obj
 0001:00085c50       ?type_case_d@?$output_processor@DV?$string_output_adapter@D@__crt_stdio_output@@V?$format_validation_base@DV?$string_output_adapter@D@__crt_stdio_output@@@2@@__crt_stdio_output@@AEAA_NXZ 0000000180086c50 f i libucrtd:output.obj
 0001:00085c80       ?type_case_d@?$output_processor@DV?$string_output_adapter@D@__crt_stdio_output@@V?$positional_parameter_base@DV?$string_output_adapter@D@__crt_stdio_output@@@2@@__crt_stdio_output@@AEAA_NXZ 0000000180086c80 f i libucrtd:output.obj
 0001:00085cb0       ?type_case_d@?$output_processor@DV?$string_output_adapter@D@__crt_stdio_output@@V?$standard_base@DV?$string_output_adapter@D@__crt_stdio_output@@@2@@__crt_stdio_output@@AEAA_NXZ 0000000180086cb0 f i libucrtd:output.obj
 0001:00085ce0       ?type_case_d@?$output_processor@_WV?$stream_output_adapter@_W@__crt_stdio_output@@V?$format_validation_base@_WV?$stream_output_adapter@_W@__crt_stdio_output@@@2@@__crt_stdio_output@@AEAA_NXZ 0000000180086ce0 f i libucrtd:output.obj
 0001:00085d10       ?type_case_d@?$output_processor@_WV?$stream_output_adapter@_W@__crt_stdio_output@@V?$positional_parameter_base@_WV?$stream_output_adapter@_W@__crt_stdio_output@@@2@@__crt_stdio_output@@AEAA_NXZ 0000000180086d10 f i libucrtd:output.obj
 0001:00085d40       ?type_case_d@?$output_processor@_WV?$stream_output_adapter@_W@__crt_stdio_output@@V?$standard_base@_WV?$stream_output_adapter@_W@__crt_stdio_output@@@2@@__crt_stdio_output@@AEAA_NXZ 0000000180086d40 f i libucrtd:output.obj
 0001:00085d70       ?type_case_d@?$output_processor@_WV?$string_output_adapter@_W@__crt_stdio_output@@V?$format_validation_base@_WV?$string_output_adapter@_W@__crt_stdio_output@@@2@@__crt_stdio_output@@AEAA_NXZ 0000000180086d70 f i libucrtd:output.obj
 0001:00085da0       ?type_case_d@?$output_processor@_WV?$string_output_adapter@_W@__crt_stdio_output@@V?$positional_parameter_base@_WV?$string_output_adapter@_W@__crt_stdio_output@@@2@@__crt_stdio_output@@AEAA_NXZ 0000000180086da0 f i libucrtd:output.obj
 0001:00085dd0       ?type_case_d@?$output_processor@_WV?$string_output_adapter@_W@__crt_stdio_output@@V?$standard_base@_WV?$string_output_adapter@_W@__crt_stdio_output@@@2@@__crt_stdio_output@@AEAA_NXZ 0000000180086dd0 f i libucrtd:output.obj
 0001:00085e00       ?type_case_n@?$output_processor@DV?$stream_output_adapter@D@__crt_stdio_output@@V?$format_validation_base@DV?$stream_output_adapter@D@__crt_stdio_output@@@2@@__crt_stdio_output@@AEAA_NXZ 0000000180086e00 f i libucrtd:output.obj
 0001:00086090       ?type_case_n@?$output_processor@DV?$stream_output_adapter@D@__crt_stdio_output@@V?$positional_parameter_base@DV?$stream_output_adapter@D@__crt_stdio_output@@@2@@__crt_stdio_output@@AEAA_NXZ 0000000180087090 f i libucrtd:output.obj
 0001:00086320       ?type_case_n@?$output_processor@DV?$stream_output_adapter@D@__crt_stdio_output@@V?$standard_base@DV?$stream_output_adapter@D@__crt_stdio_output@@@2@@__crt_stdio_output@@AEAA_NXZ 0000000180087320 f i libucrtd:output.obj
 0001:000865b0       ?type_case_n@?$output_processor@DV?$string_output_adapter@D@__crt_stdio_output@@V?$format_validation_base@DV?$string_output_adapter@D@__crt_stdio_output@@@2@@__crt_stdio_output@@AEAA_NXZ 00000001800875b0 f i libucrtd:output.obj
 0001:00086840       ?type_case_n@?$output_processor@DV?$string_output_adapter@D@__crt_stdio_output@@V?$positional_parameter_base@DV?$string_output_adapter@D@__crt_stdio_output@@@2@@__crt_stdio_output@@AEAA_NXZ 0000000180087840 f i libucrtd:output.obj
 0001:00086ad0       ?type_case_n@?$output_processor@DV?$string_output_adapter@D@__crt_stdio_output@@V?$standard_base@DV?$string_output_adapter@D@__crt_stdio_output@@@2@@__crt_stdio_output@@AEAA_NXZ 0000000180087ad0 f i libucrtd:output.obj
 0001:00086d60       ?type_case_n@?$output_processor@_WV?$stream_output_adapter@_W@__crt_stdio_output@@V?$format_validation_base@_WV?$stream_output_adapter@_W@__crt_stdio_output@@@2@@__crt_stdio_output@@AEAA_NXZ 0000000180087d60 f i libucrtd:output.obj
 0001:00086ff0       ?type_case_n@?$output_processor@_WV?$stream_output_adapter@_W@__crt_stdio_output@@V?$positional_parameter_base@_WV?$stream_output_adapter@_W@__crt_stdio_output@@@2@@__crt_stdio_output@@AEAA_NXZ 0000000180087ff0 f i libucrtd:output.obj
 0001:00087280       ?type_case_n@?$output_processor@_WV?$stream_output_adapter@_W@__crt_stdio_output@@V?$standard_base@_WV?$stream_output_adapter@_W@__crt_stdio_output@@@2@@__crt_stdio_output@@AEAA_NXZ 0000000180088280 f i libucrtd:output.obj
 0001:00087510       ?type_case_n@?$output_processor@_WV?$string_output_adapter@_W@__crt_stdio_output@@V?$format_validation_base@_WV?$string_output_adapter@_W@__crt_stdio_output@@@2@@__crt_stdio_output@@AEAA_NXZ 0000000180088510 f i libucrtd:output.obj
 0001:000877a0       ?type_case_n@?$output_processor@_WV?$string_output_adapter@_W@__crt_stdio_output@@V?$positional_parameter_base@_WV?$string_output_adapter@_W@__crt_stdio_output@@@2@@__crt_stdio_output@@AEAA_NXZ 00000001800887a0 f i libucrtd:output.obj
 0001:00087a30       ?type_case_n@?$output_processor@_WV?$string_output_adapter@_W@__crt_stdio_output@@V?$standard_base@_WV?$string_output_adapter@_W@__crt_stdio_output@@@2@@__crt_stdio_output@@AEAA_NXZ 0000000180088a30 f i libucrtd:output.obj
 0001:00087cc0       ?type_case_o@?$output_processor@DV?$stream_output_adapter@D@__crt_stdio_output@@V?$format_validation_base@DV?$stream_output_adapter@D@__crt_stdio_output@@@2@@__crt_stdio_output@@AEAA_NXZ 0000000180088cc0 f i libucrtd:output.obj
 0001:00087d00       ?type_case_o@?$output_processor@DV?$stream_output_adapter@D@__crt_stdio_output@@V?$positional_parameter_base@DV?$stream_output_adapter@D@__crt_stdio_output@@@2@@__crt_stdio_output@@AEAA_NXZ 0000000180088d00 f i libucrtd:output.obj
 0001:00087d40       ?type_case_o@?$output_processor@DV?$stream_output_adapter@D@__crt_stdio_output@@V?$standard_base@DV?$stream_output_adapter@D@__crt_stdio_output@@@2@@__crt_stdio_output@@AEAA_NXZ 0000000180088d40 f i libucrtd:output.obj
 0001:00087d80       ?type_case_o@?$output_processor@DV?$string_output_adapter@D@__crt_stdio_output@@V?$format_validation_base@DV?$string_output_adapter@D@__crt_stdio_output@@@2@@__crt_stdio_output@@AEAA_NXZ 0000000180088d80 f i libucrtd:output.obj
 0001:00087dc0       ?type_case_o@?$output_processor@DV?$string_output_adapter@D@__crt_stdio_output@@V?$positional_parameter_base@DV?$string_output_adapter@D@__crt_stdio_output@@@2@@__crt_stdio_output@@AEAA_NXZ 0000000180088dc0 f i libucrtd:output.obj
 0001:00087e00       ?type_case_o@?$output_processor@DV?$string_output_adapter@D@__crt_stdio_output@@V?$standard_base@DV?$string_output_adapter@D@__crt_stdio_output@@@2@@__crt_stdio_output@@AEAA_NXZ 0000000180088e00 f i libucrtd:output.obj
 0001:00087e40       ?type_case_o@?$output_processor@_WV?$stream_output_adapter@_W@__crt_stdio_output@@V?$format_validation_base@_WV?$stream_output_adapter@_W@__crt_stdio_output@@@2@@__crt_stdio_output@@AEAA_NXZ 0000000180088e40 f i libucrtd:output.obj
 0001:00087e80       ?type_case_o@?$output_processor@_WV?$stream_output_adapter@_W@__crt_stdio_output@@V?$positional_parameter_base@_WV?$stream_output_adapter@_W@__crt_stdio_output@@@2@@__crt_stdio_output@@AEAA_NXZ 0000000180088e80 f i libucrtd:output.obj
 0001:00087ec0       ?type_case_o@?$output_processor@_WV?$stream_output_adapter@_W@__crt_stdio_output@@V?$standard_base@_WV?$stream_output_adapter@_W@__crt_stdio_output@@@2@@__crt_stdio_output@@AEAA_NXZ 0000000180088ec0 f i libucrtd:output.obj
 0001:00087f00       ?type_case_o@?$output_processor@_WV?$string_output_adapter@_W@__crt_stdio_output@@V?$format_validation_base@_WV?$string_output_adapter@_W@__crt_stdio_output@@@2@@__crt_stdio_output@@AEAA_NXZ 0000000180088f00 f i libucrtd:output.obj
 0001:00087f40       ?type_case_o@?$output_processor@_WV?$string_output_adapter@_W@__crt_stdio_output@@V?$positional_parameter_base@_WV?$string_output_adapter@_W@__crt_stdio_output@@@2@@__crt_stdio_output@@AEAA_NXZ 0000000180088f40 f i libucrtd:output.obj
 0001:00087f80       ?type_case_o@?$output_processor@_WV?$string_output_adapter@_W@__crt_stdio_output@@V?$standard_base@_WV?$string_output_adapter@_W@__crt_stdio_output@@@2@@__crt_stdio_output@@AEAA_NXZ 0000000180088f80 f i libucrtd:output.obj
 0001:00087fc0       ?type_case_p@?$output_processor@DV?$stream_output_adapter@D@__crt_stdio_output@@V?$format_validation_base@DV?$stream_output_adapter@D@__crt_stdio_output@@@2@@__crt_stdio_output@@AEAA_NXZ 0000000180088fc0 f i libucrtd:output.obj
 0001:00088000       ?type_case_p@?$output_processor@DV?$stream_output_adapter@D@__crt_stdio_output@@V?$positional_parameter_base@DV?$stream_output_adapter@D@__crt_stdio_output@@@2@@__crt_stdio_output@@AEAA_NXZ 0000000180089000 f i libucrtd:output.obj
 0001:00088040       ?type_case_p@?$output_processor@DV?$stream_output_adapter@D@__crt_stdio_output@@V?$standard_base@DV?$stream_output_adapter@D@__crt_stdio_output@@@2@@__crt_stdio_output@@AEAA_NXZ 0000000180089040 f i libucrtd:output.obj
 0001:00088080       ?type_case_p@?$output_processor@DV?$string_output_adapter@D@__crt_stdio_output@@V?$format_validation_base@DV?$string_output_adapter@D@__crt_stdio_output@@@2@@__crt_stdio_output@@AEAA_NXZ 0000000180089080 f i libucrtd:output.obj
 0001:000880c0       ?type_case_p@?$output_processor@DV?$string_output_adapter@D@__crt_stdio_output@@V?$positional_parameter_base@DV?$string_output_adapter@D@__crt_stdio_output@@@2@@__crt_stdio_output@@AEAA_NXZ 00000001800890c0 f i libucrtd:output.obj
 0001:00088100       ?type_case_p@?$output_processor@DV?$string_output_adapter@D@__crt_stdio_output@@V?$standard_base@DV?$string_output_adapter@D@__crt_stdio_output@@@2@@__crt_stdio_output@@AEAA_NXZ 0000000180089100 f i libucrtd:output.obj
 0001:00088140       ?type_case_p@?$output_processor@_WV?$stream_output_adapter@_W@__crt_stdio_output@@V?$format_validation_base@_WV?$stream_output_adapter@_W@__crt_stdio_output@@@2@@__crt_stdio_output@@AEAA_NXZ 0000000180089140 f i libucrtd:output.obj
 0001:00088180       ?type_case_p@?$output_processor@_WV?$stream_output_adapter@_W@__crt_stdio_output@@V?$positional_parameter_base@_WV?$stream_output_adapter@_W@__crt_stdio_output@@@2@@__crt_stdio_output@@AEAA_NXZ 0000000180089180 f i libucrtd:output.obj
 0001:000881c0       ?type_case_p@?$output_processor@_WV?$stream_output_adapter@_W@__crt_stdio_output@@V?$standard_base@_WV?$stream_output_adapter@_W@__crt_stdio_output@@@2@@__crt_stdio_output@@AEAA_NXZ 00000001800891c0 f i libucrtd:output.obj
 0001:00088200       ?type_case_p@?$output_processor@_WV?$string_output_adapter@_W@__crt_stdio_output@@V?$format_validation_base@_WV?$string_output_adapter@_W@__crt_stdio_output@@@2@@__crt_stdio_output@@AEAA_NXZ 0000000180089200 f i libucrtd:output.obj
 0001:00088240       ?type_case_p@?$output_processor@_WV?$string_output_adapter@_W@__crt_stdio_output@@V?$positional_parameter_base@_WV?$string_output_adapter@_W@__crt_stdio_output@@@2@@__crt_stdio_output@@AEAA_NXZ 0000000180089240 f i libucrtd:output.obj
 0001:00088280       ?type_case_p@?$output_processor@_WV?$string_output_adapter@_W@__crt_stdio_output@@V?$standard_base@_WV?$string_output_adapter@_W@__crt_stdio_output@@@2@@__crt_stdio_output@@AEAA_NXZ 0000000180089280 f i libucrtd:output.obj
 0001:000882c0       ?type_case_s@?$output_processor@DV?$stream_output_adapter@D@__crt_stdio_output@@V?$format_validation_base@DV?$stream_output_adapter@D@__crt_stdio_output@@@2@@__crt_stdio_output@@AEAA_NXZ 00000001800892c0 f i libucrtd:output.obj
 0001:000883e0       ?type_case_s@?$output_processor@DV?$stream_output_adapter@D@__crt_stdio_output@@V?$positional_parameter_base@DV?$stream_output_adapter@D@__crt_stdio_output@@@2@@__crt_stdio_output@@AEAA_NXZ 00000001800893e0 f i libucrtd:output.obj
 0001:00088500       ?type_case_s@?$output_processor@DV?$stream_output_adapter@D@__crt_stdio_output@@V?$standard_base@DV?$stream_output_adapter@D@__crt_stdio_output@@@2@@__crt_stdio_output@@AEAA_NXZ 0000000180089500 f i libucrtd:output.obj
 0001:00088620       ?type_case_s@?$output_processor@DV?$string_output_adapter@D@__crt_stdio_output@@V?$format_validation_base@DV?$string_output_adapter@D@__crt_stdio_output@@@2@@__crt_stdio_output@@AEAA_NXZ 0000000180089620 f i libucrtd:output.obj
 0001:00088740       ?type_case_s@?$output_processor@DV?$string_output_adapter@D@__crt_stdio_output@@V?$positional_parameter_base@DV?$string_output_adapter@D@__crt_stdio_output@@@2@@__crt_stdio_output@@AEAA_NXZ 0000000180089740 f i libucrtd:output.obj
 0001:00088860       ?type_case_s@?$output_processor@DV?$string_output_adapter@D@__crt_stdio_output@@V?$standard_base@DV?$string_output_adapter@D@__crt_stdio_output@@@2@@__crt_stdio_output@@AEAA_NXZ 0000000180089860 f i libucrtd:output.obj
 0001:00088980       ?type_case_s@?$output_processor@_WV?$stream_output_adapter@_W@__crt_stdio_output@@V?$format_validation_base@_WV?$stream_output_adapter@_W@__crt_stdio_output@@@2@@__crt_stdio_output@@AEAA_NXZ 0000000180089980 f i libucrtd:output.obj
 0001:00088aa0       ?type_case_s@?$output_processor@_WV?$stream_output_adapter@_W@__crt_stdio_output@@V?$positional_parameter_base@_WV?$stream_output_adapter@_W@__crt_stdio_output@@@2@@__crt_stdio_output@@AEAA_NXZ 0000000180089aa0 f i libucrtd:output.obj
 0001:00088bc0       ?type_case_s@?$output_processor@_WV?$stream_output_adapter@_W@__crt_stdio_output@@V?$standard_base@_WV?$stream_output_adapter@_W@__crt_stdio_output@@@2@@__crt_stdio_output@@AEAA_NXZ 0000000180089bc0 f i libucrtd:output.obj
 0001:00088ce0       ?type_case_s@?$output_processor@_WV?$string_output_adapter@_W@__crt_stdio_output@@V?$format_validation_base@_WV?$string_output_adapter@_W@__crt_stdio_output@@@2@@__crt_stdio_output@@AEAA_NXZ 0000000180089ce0 f i libucrtd:output.obj
 0001:00088e00       ?type_case_s@?$output_processor@_WV?$string_output_adapter@_W@__crt_stdio_output@@V?$positional_parameter_base@_WV?$string_output_adapter@_W@__crt_stdio_output@@@2@@__crt_stdio_output@@AEAA_NXZ 0000000180089e00 f i libucrtd:output.obj
 0001:00088f20       ?type_case_s@?$output_processor@_WV?$string_output_adapter@_W@__crt_stdio_output@@V?$standard_base@_WV?$string_output_adapter@_W@__crt_stdio_output@@@2@@__crt_stdio_output@@AEAA_NXZ 0000000180089f20 f i libucrtd:output.obj
 0001:00089040       ?type_case_s_compute_narrow_string_length@?$output_processor@DV?$stream_output_adapter@D@__crt_stdio_output@@V?$format_validation_base@DV?$stream_output_adapter@D@__crt_stdio_output@@@2@@__crt_stdio_output@@AEAAHHD@Z 000000018008a040 f i libucrtd:output.obj
 0001:00089070       ?type_case_s_compute_narrow_string_length@?$output_processor@DV?$stream_output_adapter@D@__crt_stdio_output@@V?$positional_parameter_base@DV?$stream_output_adapter@D@__crt_stdio_output@@@2@@__crt_stdio_output@@AEAAHHD@Z 000000018008a070 f i libucrtd:output.obj
 0001:000890a0       ?type_case_s_compute_narrow_string_length@?$output_processor@DV?$stream_output_adapter@D@__crt_stdio_output@@V?$standard_base@DV?$stream_output_adapter@D@__crt_stdio_output@@@2@@__crt_stdio_output@@AEAAHHD@Z 000000018008a0a0 f i libucrtd:output.obj
 0001:000890d0       ?type_case_s_compute_narrow_string_length@?$output_processor@DV?$string_output_adapter@D@__crt_stdio_output@@V?$format_validation_base@DV?$string_output_adapter@D@__crt_stdio_output@@@2@@__crt_stdio_output@@AEAAHHD@Z 000000018008a0d0 f i libucrtd:output.obj
 0001:00089100       ?type_case_s_compute_narrow_string_length@?$output_processor@DV?$string_output_adapter@D@__crt_stdio_output@@V?$positional_parameter_base@DV?$string_output_adapter@D@__crt_stdio_output@@@2@@__crt_stdio_output@@AEAAHHD@Z 000000018008a100 f i libucrtd:output.obj
 0001:00089130       ?type_case_s_compute_narrow_string_length@?$output_processor@DV?$string_output_adapter@D@__crt_stdio_output@@V?$standard_base@DV?$string_output_adapter@D@__crt_stdio_output@@@2@@__crt_stdio_output@@AEAAHHD@Z 000000018008a130 f i libucrtd:output.obj
 0001:00089160       ?type_case_s_compute_narrow_string_length@?$output_processor@_WV?$stream_output_adapter@_W@__crt_stdio_output@@V?$format_validation_base@_WV?$stream_output_adapter@_W@__crt_stdio_output@@@2@@__crt_stdio_output@@AEAAHH_W@Z 000000018008a160 f i libucrtd:output.obj
 0001:00089200       ?type_case_s_compute_narrow_string_length@?$output_processor@_WV?$stream_output_adapter@_W@__crt_stdio_output@@V?$positional_parameter_base@_WV?$stream_output_adapter@_W@__crt_stdio_output@@@2@@__crt_stdio_output@@AEAAHH_W@Z 000000018008a200 f i libucrtd:output.obj
 0001:000892a0       ?type_case_s_compute_narrow_string_length@?$output_processor@_WV?$stream_output_adapter@_W@__crt_stdio_output@@V?$standard_base@_WV?$stream_output_adapter@_W@__crt_stdio_output@@@2@@__crt_stdio_output@@AEAAHH_W@Z 000000018008a2a0 f i libucrtd:output.obj
 0001:00089340       ?type_case_s_compute_narrow_string_length@?$output_processor@_WV?$string_output_adapter@_W@__crt_stdio_output@@V?$format_validation_base@_WV?$string_output_adapter@_W@__crt_stdio_output@@@2@@__crt_stdio_output@@AEAAHH_W@Z 000000018008a340 f i libucrtd:output.obj
 0001:000893e0       ?type_case_s_compute_narrow_string_length@?$output_processor@_WV?$string_output_adapter@_W@__crt_stdio_output@@V?$positional_parameter_base@_WV?$string_output_adapter@_W@__crt_stdio_output@@@2@@__crt_stdio_output@@AEAAHH_W@Z 000000018008a3e0 f i libucrtd:output.obj
 0001:00089480       ?type_case_s_compute_narrow_string_length@?$output_processor@_WV?$string_output_adapter@_W@__crt_stdio_output@@V?$standard_base@_WV?$string_output_adapter@_W@__crt_stdio_output@@@2@@__crt_stdio_output@@AEAAHH_W@Z 000000018008a480 f i libucrtd:output.obj
 0001:00089520       ?type_case_u@?$output_processor@DV?$stream_output_adapter@D@__crt_stdio_output@@V?$format_validation_base@DV?$stream_output_adapter@D@__crt_stdio_output@@@2@@__crt_stdio_output@@AEAA_NXZ 000000018008a520 f i libucrtd:output.obj
 0001:00089540       ?type_case_u@?$output_processor@DV?$stream_output_adapter@D@__crt_stdio_output@@V?$positional_parameter_base@DV?$stream_output_adapter@D@__crt_stdio_output@@@2@@__crt_stdio_output@@AEAA_NXZ 000000018008a540 f i libucrtd:output.obj
 0001:00089560       ?type_case_u@?$output_processor@DV?$stream_output_adapter@D@__crt_stdio_output@@V?$standard_base@DV?$stream_output_adapter@D@__crt_stdio_output@@@2@@__crt_stdio_output@@AEAA_NXZ 000000018008a560 f i libucrtd:output.obj
 0001:00089580       ?type_case_u@?$output_processor@DV?$string_output_adapter@D@__crt_stdio_output@@V?$format_validation_base@DV?$string_output_adapter@D@__crt_stdio_output@@@2@@__crt_stdio_output@@AEAA_NXZ 000000018008a580 f i libucrtd:output.obj
 0001:000895a0       ?type_case_u@?$output_processor@DV?$string_output_adapter@D@__crt_stdio_output@@V?$positional_parameter_base@DV?$string_output_adapter@D@__crt_stdio_output@@@2@@__crt_stdio_output@@AEAA_NXZ 000000018008a5a0 f i libucrtd:output.obj
 0001:000895c0       ?type_case_u@?$output_processor@DV?$string_output_adapter@D@__crt_stdio_output@@V?$standard_base@DV?$string_output_adapter@D@__crt_stdio_output@@@2@@__crt_stdio_output@@AEAA_NXZ 000000018008a5c0 f i libucrtd:output.obj
 0001:000895e0       ?type_case_u@?$output_processor@_WV?$stream_output_adapter@_W@__crt_stdio_output@@V?$format_validation_base@_WV?$stream_output_adapter@_W@__crt_stdio_output@@@2@@__crt_stdio_output@@AEAA_NXZ 000000018008a5e0 f i libucrtd:output.obj
 0001:00089600       ?type_case_u@?$output_processor@_WV?$stream_output_adapter@_W@__crt_stdio_output@@V?$positional_parameter_base@_WV?$stream_output_adapter@_W@__crt_stdio_output@@@2@@__crt_stdio_output@@AEAA_NXZ 000000018008a600 f i libucrtd:output.obj
 0001:00089620       ?type_case_u@?$output_processor@_WV?$stream_output_adapter@_W@__crt_stdio_output@@V?$standard_base@_WV?$stream_output_adapter@_W@__crt_stdio_output@@@2@@__crt_stdio_output@@AEAA_NXZ 000000018008a620 f i libucrtd:output.obj
 0001:00089640       ?type_case_u@?$output_processor@_WV?$string_output_adapter@_W@__crt_stdio_output@@V?$format_validation_base@_WV?$string_output_adapter@_W@__crt_stdio_output@@@2@@__crt_stdio_output@@AEAA_NXZ 000000018008a640 f i libucrtd:output.obj
 0001:00089660       ?type_case_u@?$output_processor@_WV?$string_output_adapter@_W@__crt_stdio_output@@V?$positional_parameter_base@_WV?$string_output_adapter@_W@__crt_stdio_output@@@2@@__crt_stdio_output@@AEAA_NXZ 000000018008a660 f i libucrtd:output.obj
 0001:00089680       ?type_case_u@?$output_processor@_WV?$string_output_adapter@_W@__crt_stdio_output@@V?$standard_base@_WV?$string_output_adapter@_W@__crt_stdio_output@@@2@@__crt_stdio_output@@AEAA_NXZ 000000018008a680 f i libucrtd:output.obj
 0001:000896a0       ?type_case_x@?$output_processor@DV?$stream_output_adapter@D@__crt_stdio_output@@V?$format_validation_base@DV?$stream_output_adapter@D@__crt_stdio_output@@@2@@__crt_stdio_output@@AEAA_NXZ 000000018008a6a0 f i libucrtd:output.obj
 0001:000896c0       ?type_case_x@?$output_processor@DV?$stream_output_adapter@D@__crt_stdio_output@@V?$positional_parameter_base@DV?$stream_output_adapter@D@__crt_stdio_output@@@2@@__crt_stdio_output@@AEAA_NXZ 000000018008a6c0 f i libucrtd:output.obj
 0001:000896e0       ?type_case_x@?$output_processor@DV?$stream_output_adapter@D@__crt_stdio_output@@V?$standard_base@DV?$stream_output_adapter@D@__crt_stdio_output@@@2@@__crt_stdio_output@@AEAA_NXZ 000000018008a6e0 f i libucrtd:output.obj
 0001:00089700       ?type_case_x@?$output_processor@DV?$string_output_adapter@D@__crt_stdio_output@@V?$format_validation_base@DV?$string_output_adapter@D@__crt_stdio_output@@@2@@__crt_stdio_output@@AEAA_NXZ 000000018008a700 f i libucrtd:output.obj
 0001:00089720       ?type_case_x@?$output_processor@DV?$string_output_adapter@D@__crt_stdio_output@@V?$positional_parameter_base@DV?$string_output_adapter@D@__crt_stdio_output@@@2@@__crt_stdio_output@@AEAA_NXZ 000000018008a720 f i libucrtd:output.obj
 0001:00089740       ?type_case_x@?$output_processor@DV?$string_output_adapter@D@__crt_stdio_output@@V?$standard_base@DV?$string_output_adapter@D@__crt_stdio_output@@@2@@__crt_stdio_output@@AEAA_NXZ 000000018008a740 f i libucrtd:output.obj
 0001:00089760       ?type_case_x@?$output_processor@_WV?$stream_output_adapter@_W@__crt_stdio_output@@V?$format_validation_base@_WV?$stream_output_adapter@_W@__crt_stdio_output@@@2@@__crt_stdio_output@@AEAA_NXZ 000000018008a760 f i libucrtd:output.obj
 0001:00089780       ?type_case_x@?$output_processor@_WV?$stream_output_adapter@_W@__crt_stdio_output@@V?$positional_parameter_base@_WV?$stream_output_adapter@_W@__crt_stdio_output@@@2@@__crt_stdio_output@@AEAA_NXZ 000000018008a780 f i libucrtd:output.obj
 0001:000897a0       ?type_case_x@?$output_processor@_WV?$stream_output_adapter@_W@__crt_stdio_output@@V?$standard_base@_WV?$stream_output_adapter@_W@__crt_stdio_output@@@2@@__crt_stdio_output@@AEAA_NXZ 000000018008a7a0 f i libucrtd:output.obj
 0001:000897c0       ?type_case_x@?$output_processor@_WV?$string_output_adapter@_W@__crt_stdio_output@@V?$format_validation_base@_WV?$string_output_adapter@_W@__crt_stdio_output@@@2@@__crt_stdio_output@@AEAA_NXZ 000000018008a7c0 f i libucrtd:output.obj
 0001:000897e0       ?type_case_x@?$output_processor@_WV?$string_output_adapter@_W@__crt_stdio_output@@V?$positional_parameter_base@_WV?$string_output_adapter@_W@__crt_stdio_output@@@2@@__crt_stdio_output@@AEAA_NXZ 000000018008a7e0 f i libucrtd:output.obj
 0001:00089800       ?type_case_x@?$output_processor@_WV?$string_output_adapter@_W@__crt_stdio_output@@V?$standard_base@_WV?$string_output_adapter@_W@__crt_stdio_output@@@2@@__crt_stdio_output@@AEAA_NXZ 000000018008a800 f i libucrtd:output.obj
 0001:00089820       ?unget@?$c_string_character_source@D@__crt_strtox@@QEAAXD@Z 000000018008a820 f i libucrtd:output.obj
 0001:00089900       ?unget@?$c_string_character_source@_W@__crt_strtox@@QEAAX_W@Z 000000018008a900 f i libucrtd:output.obj
 0001:000899e0       ?unsafe_value@?$cached@H@__crt_cached_ptd_host@@QEAAHXZ 000000018008a9e0 f i libucrtd:output.obj
 0001:000899f0       ?unsafe_value@?$cached@K@__crt_cached_ptd_host@@QEAAKXZ 000000018008a9f0 f i libucrtd:output.obj
 0001:00089a00       ?unset_flag@?$output_processor@DV?$stream_output_adapter@D@__crt_stdio_output@@V?$format_validation_base@DV?$stream_output_adapter@D@__crt_stdio_output@@@2@@__crt_stdio_output@@AEAAXI@Z 000000018008aa00 f i libucrtd:output.obj
 0001:00089a30       ?unset_flag@?$output_processor@DV?$stream_output_adapter@D@__crt_stdio_output@@V?$positional_parameter_base@DV?$stream_output_adapter@D@__crt_stdio_output@@@2@@__crt_stdio_output@@AEAAXI@Z 000000018008aa30 f i libucrtd:output.obj
 0001:00089a60       ?unset_flag@?$output_processor@DV?$stream_output_adapter@D@__crt_stdio_output@@V?$standard_base@DV?$stream_output_adapter@D@__crt_stdio_output@@@2@@__crt_stdio_output@@AEAAXI@Z 000000018008aa60 f i libucrtd:output.obj
 0001:00089a90       ?unset_flag@?$output_processor@DV?$string_output_adapter@D@__crt_stdio_output@@V?$format_validation_base@DV?$string_output_adapter@D@__crt_stdio_output@@@2@@__crt_stdio_output@@AEAAXI@Z 000000018008aa90 f i libucrtd:output.obj
 0001:00089ac0       ?unset_flag@?$output_processor@DV?$string_output_adapter@D@__crt_stdio_output@@V?$positional_parameter_base@DV?$string_output_adapter@D@__crt_stdio_output@@@2@@__crt_stdio_output@@AEAAXI@Z 000000018008aac0 f i libucrtd:output.obj
 0001:00089af0       ?unset_flag@?$output_processor@DV?$string_output_adapter@D@__crt_stdio_output@@V?$standard_base@DV?$string_output_adapter@D@__crt_stdio_output@@@2@@__crt_stdio_output@@AEAAXI@Z 000000018008aaf0 f i libucrtd:output.obj
 0001:00089b20       ?unset_flag@?$output_processor@_WV?$stream_output_adapter@_W@__crt_stdio_output@@V?$format_validation_base@_WV?$stream_output_adapter@_W@__crt_stdio_output@@@2@@__crt_stdio_output@@AEAAXI@Z 000000018008ab20 f i libucrtd:output.obj
 0001:00089b50       ?unset_flag@?$output_processor@_WV?$stream_output_adapter@_W@__crt_stdio_output@@V?$positional_parameter_base@_WV?$stream_output_adapter@_W@__crt_stdio_output@@@2@@__crt_stdio_output@@AEAAXI@Z 000000018008ab50 f i libucrtd:output.obj
 0001:00089b80       ?unset_flag@?$output_processor@_WV?$stream_output_adapter@_W@__crt_stdio_output@@V?$standard_base@_WV?$stream_output_adapter@_W@__crt_stdio_output@@@2@@__crt_stdio_output@@AEAAXI@Z 000000018008ab80 f i libucrtd:output.obj
 0001:00089bb0       ?unset_flag@?$output_processor@_WV?$string_output_adapter@_W@__crt_stdio_output@@V?$format_validation_base@_WV?$string_output_adapter@_W@__crt_stdio_output@@@2@@__crt_stdio_output@@AEAAXI@Z 000000018008abb0 f i libucrtd:output.obj
 0001:00089be0       ?unset_flag@?$output_processor@_WV?$string_output_adapter@_W@__crt_stdio_output@@V?$positional_parameter_base@_WV?$string_output_adapter@_W@__crt_stdio_output@@@2@@__crt_stdio_output@@AEAAXI@Z 000000018008abe0 f i libucrtd:output.obj
 0001:00089c10       ?unset_flag@?$output_processor@_WV?$string_output_adapter@_W@__crt_stdio_output@@V?$standard_base@_WV?$string_output_adapter@_W@__crt_stdio_output@@@2@@__crt_stdio_output@@AEAAXI@Z 000000018008ac10 f i libucrtd:output.obj
 0001:00089c40       ?update_field_width@?$positional_parameter_base@DV?$stream_output_adapter@D@__crt_stdio_output@@@__crt_stdio_output@@IEAA_NXZ 000000018008ac40 f i libucrtd:output.obj
 0001:00089e40       ?update_field_width@?$positional_parameter_base@DV?$string_output_adapter@D@__crt_stdio_output@@@__crt_stdio_output@@IEAA_NXZ 000000018008ae40 f i libucrtd:output.obj
 0001:0008a040       ?update_field_width@?$positional_parameter_base@_WV?$stream_output_adapter@_W@__crt_stdio_output@@@__crt_stdio_output@@IEAA_NXZ 000000018008b040 f i libucrtd:output.obj
 0001:0008a240       ?update_field_width@?$positional_parameter_base@_WV?$string_output_adapter@_W@__crt_stdio_output@@@__crt_stdio_output@@IEAA_NXZ 000000018008b240 f i libucrtd:output.obj
 0001:0008a440       ?update_field_width@?$standard_base@DV?$stream_output_adapter@D@__crt_stdio_output@@@__crt_stdio_output@@IEAA_NXZ 000000018008b440 f i libucrtd:output.obj
 0001:0008a470       ?update_field_width@?$standard_base@DV?$string_output_adapter@D@__crt_stdio_output@@@__crt_stdio_output@@IEAA_NXZ 000000018008b470 f i libucrtd:output.obj
 0001:0008a4a0       ?update_field_width@?$standard_base@_WV?$stream_output_adapter@_W@__crt_stdio_output@@@__crt_stdio_output@@IEAA_NXZ 000000018008b4a0 f i libucrtd:output.obj
 0001:0008a4d0       ?update_field_width@?$standard_base@_WV?$string_output_adapter@_W@__crt_stdio_output@@@__crt_stdio_output@@IEAA_NXZ 000000018008b4d0 f i libucrtd:output.obj
 0001:0008a500       ?update_locale@__crt_cached_ptd_host@@AEAAXXZ 000000018008b500 f i libucrtd:output.obj
 0001:0008a530       ?update_locale_slow@__crt_cached_ptd_host@@AEAAXXZ 000000018008b530 f i libucrtd:output.obj
 0001:0008a5e0       ?update_precision@?$positional_parameter_base@DV?$stream_output_adapter@D@__crt_stdio_output@@@__crt_stdio_output@@IEAA_NXZ 000000018008b5e0 f i libucrtd:output.obj
 0001:0008a7e0       ?update_precision@?$positional_parameter_base@DV?$string_output_adapter@D@__crt_stdio_output@@@__crt_stdio_output@@IEAA_NXZ 000000018008b7e0 f i libucrtd:output.obj
 0001:0008a9e0       ?update_precision@?$positional_parameter_base@_WV?$stream_output_adapter@_W@__crt_stdio_output@@@__crt_stdio_output@@IEAA_NXZ 000000018008b9e0 f i libucrtd:output.obj
 0001:0008abe0       ?update_precision@?$positional_parameter_base@_WV?$string_output_adapter@_W@__crt_stdio_output@@@__crt_stdio_output@@IEAA_NXZ 000000018008bbe0 f i libucrtd:output.obj
 0001:0008ade0       ?update_precision@?$standard_base@DV?$stream_output_adapter@D@__crt_stdio_output@@@__crt_stdio_output@@IEAA_NXZ 000000018008bde0 f i libucrtd:output.obj
 0001:0008ae10       ?update_precision@?$standard_base@DV?$string_output_adapter@D@__crt_stdio_output@@@__crt_stdio_output@@IEAA_NXZ 000000018008be10 f i libucrtd:output.obj
 0001:0008ae40       ?update_precision@?$standard_base@_WV?$stream_output_adapter@_W@__crt_stdio_output@@@__crt_stdio_output@@IEAA_NXZ 000000018008be40 f i libucrtd:output.obj
 0001:0008ae70       ?update_precision@?$standard_base@_WV?$string_output_adapter@_W@__crt_stdio_output@@@__crt_stdio_output@@IEAA_NXZ 000000018008be70 f i libucrtd:output.obj
 0001:0008aea0       ?valid@?$cached@H@__crt_cached_ptd_host@@QEBA_NXZ 000000018008bea0 f i libucrtd:output.obj
 0001:0008aeb0       ?valid@?$cached@K@__crt_cached_ptd_host@@QEBA_NXZ 000000018008beb0 f i libucrtd:output.obj
 0001:0008aec0       ?valid@__crt_stdio_stream@@QEBA_NXZ 000000018008bec0 f i libucrtd:output.obj
 0001:0008aef0       ?validate@?$c_string_character_source@D@__crt_strtox@@QEBA_NXZ 000000018008bef0 f i libucrtd:output.obj
 0001:0008afb0       ?validate@?$c_string_character_source@_W@__crt_strtox@@QEBA_NXZ 000000018008bfb0 f i libucrtd:output.obj
 0001:0008b070       ?validate@?$stream_output_adapter@D@__crt_stdio_output@@QEBA_NAEAV__crt_cached_ptd_host@@@Z 000000018008c070 f i libucrtd:output.obj
 0001:0008b170       ?validate@?$stream_output_adapter@_W@__crt_stdio_output@@QEBA_NAEAV__crt_cached_ptd_host@@@Z 000000018008c170 f i libucrtd:output.obj
 0001:0008b270       ?validate@?$string_output_adapter@D@__crt_stdio_output@@QEBA_NAEAV__crt_cached_ptd_host@@@Z 000000018008c270 f i libucrtd:output.obj
 0001:0008b350       ?validate@?$string_output_adapter@_W@__crt_stdio_output@@QEBA_NAEAV__crt_cached_ptd_host@@@Z 000000018008c350 f i libucrtd:output.obj
 0001:0008b430       ?validate_and_store_parameter_data@?$positional_parameter_base@DV?$stream_output_adapter@D@__crt_stdio_output@@@__crt_stdio_output@@AEAA_NAEAUparameter_data@12@W4parameter_type@12@DW4length_modifier@2@@Z 000000018008c430 f i libucrtd:output.obj
 0001:0008b570       ?validate_and_store_parameter_data@?$positional_parameter_base@DV?$string_output_adapter@D@__crt_stdio_output@@@__crt_stdio_output@@AEAA_NAEAUparameter_data@12@W4parameter_type@12@DW4length_modifier@2@@Z 000000018008c570 f i libucrtd:output.obj
 0001:0008b6b0       ?validate_and_store_parameter_data@?$positional_parameter_base@_WV?$stream_output_adapter@_W@__crt_stdio_output@@@__crt_stdio_output@@AEAA_NAEAUparameter_data@12@W4parameter_type@12@_WW4length_modifier@2@@Z 000000018008c6b0 f i libucrtd:output.obj
 0001:0008b7f0       ?validate_and_store_parameter_data@?$positional_parameter_base@_WV?$string_output_adapter@_W@__crt_stdio_output@@@__crt_stdio_output@@AEAA_NAEAUparameter_data@12@W4parameter_type@12@_WW4length_modifier@2@@Z 000000018008c7f0 f i libucrtd:output.obj
 0001:0008b930       ?validate_and_update_state_at_beginning_of_format_character@?$positional_parameter_base@DV?$stream_output_adapter@D@__crt_stdio_output@@@__crt_stdio_output@@IEAA_NXZ 000000018008c930 f i libucrtd:output.obj
 0001:0008bbd0       ?validate_and_update_state_at_beginning_of_format_character@?$positional_parameter_base@DV?$string_output_adapter@D@__crt_stdio_output@@@__crt_stdio_output@@IEAA_NXZ 000000018008cbd0 f i libucrtd:output.obj
 0001:0008be70       ?validate_and_update_state_at_beginning_of_format_character@?$positional_parameter_base@_WV?$stream_output_adapter@_W@__crt_stdio_output@@@__crt_stdio_output@@IEAA_NXZ 000000018008ce70 f i libucrtd:output.obj
 0001:0008c110       ?validate_and_update_state_at_beginning_of_format_character@?$positional_parameter_base@_WV?$string_output_adapter@_W@__crt_stdio_output@@@__crt_stdio_output@@IEAA_NXZ 000000018008d110 f i libucrtd:output.obj
 0001:0008c3b0       ?validate_and_update_state_at_beginning_of_format_character@?$standard_base@DV?$stream_output_adapter@D@__crt_stdio_output@@@__crt_stdio_output@@IEAA_NXZ 000000018008d3b0 f i libucrtd:output.obj
 0001:0008c3c0       ?validate_and_update_state_at_beginning_of_format_character@?$standard_base@DV?$string_output_adapter@D@__crt_stdio_output@@@__crt_stdio_output@@IEAA_NXZ 000000018008d3c0 f i libucrtd:output.obj
 0001:0008c3d0       ?validate_and_update_state_at_beginning_of_format_character@?$standard_base@_WV?$stream_output_adapter@_W@__crt_stdio_output@@@__crt_stdio_output@@IEAA_NXZ 000000018008d3d0 f i libucrtd:output.obj
 0001:0008c3e0       ?validate_and_update_state_at_beginning_of_format_character@?$standard_base@_WV?$string_output_adapter@_W@__crt_stdio_output@@@__crt_stdio_output@@IEAA_NXZ 000000018008d3e0 f i libucrtd:output.obj
 0001:0008c3f0       ?validate_and_update_state_at_end_of_format_string@?$format_validation_base@DV?$stream_output_adapter@D@__crt_stdio_output@@@__crt_stdio_output@@IEAA_NXZ 000000018008d3f0 f i libucrtd:output.obj
 0001:0008c4e0       ?validate_and_update_state_at_end_of_format_string@?$format_validation_base@DV?$string_output_adapter@D@__crt_stdio_output@@@__crt_stdio_output@@IEAA_NXZ 000000018008d4e0 f i libucrtd:output.obj
 0001:0008c5d0       ?validate_and_update_state_at_end_of_format_string@?$format_validation_base@_WV?$stream_output_adapter@_W@__crt_stdio_output@@@__crt_stdio_output@@IEAA_NXZ 000000018008d5d0 f i libucrtd:output.obj
 0001:0008c6c0       ?validate_and_update_state_at_end_of_format_string@?$format_validation_base@_WV?$string_output_adapter@_W@__crt_stdio_output@@@__crt_stdio_output@@IEAA_NXZ 000000018008d6c0 f i libucrtd:output.obj
 0001:0008c7b0       ?validate_and_update_state_at_end_of_format_string@?$positional_parameter_base@DV?$stream_output_adapter@D@__crt_stdio_output@@@__crt_stdio_output@@IEAA_NXZ 000000018008d7b0 f i libucrtd:output.obj
 0001:0008c9e0       ?validate_and_update_state_at_end_of_format_string@?$positional_parameter_base@DV?$string_output_adapter@D@__crt_stdio_output@@@__crt_stdio_output@@IEAA_NXZ 000000018008d9e0 f i libucrtd:output.obj
 0001:0008cc10       ?validate_and_update_state_at_end_of_format_string@?$positional_parameter_base@_WV?$stream_output_adapter@_W@__crt_stdio_output@@@__crt_stdio_output@@IEAA_NXZ 000000018008dc10 f i libucrtd:output.obj
 0001:0008ce40       ?validate_and_update_state_at_end_of_format_string@?$positional_parameter_base@_WV?$string_output_adapter@_W@__crt_stdio_output@@@__crt_stdio_output@@IEAA_NXZ 000000018008de40 f i libucrtd:output.obj
 0001:0008d070       ?validate_and_update_state_at_end_of_format_string@?$standard_base@DV?$stream_output_adapter@D@__crt_stdio_output@@@__crt_stdio_output@@IEBA_NXZ 000000018008e070 f i libucrtd:output.obj
 0001:0008d080       ?validate_and_update_state_at_end_of_format_string@?$standard_base@DV?$string_output_adapter@D@__crt_stdio_output@@@__crt_stdio_output@@IEBA_NXZ 000000018008e080 f i libucrtd:output.obj
 0001:0008d090       ?validate_and_update_state_at_end_of_format_string@?$standard_base@_WV?$stream_output_adapter@_W@__crt_stdio_output@@@__crt_stdio_output@@IEBA_NXZ 000000018008e090 f i libucrtd:output.obj
 0001:0008d0a0       ?validate_and_update_state_at_end_of_format_string@?$standard_base@_WV?$string_output_adapter@_W@__crt_stdio_output@@@__crt_stdio_output@@IEBA_NXZ 000000018008e0a0 f i libucrtd:output.obj
 0001:0008d0b0       ?validate_state_for_type_case_a@?$positional_parameter_base@DV?$stream_output_adapter@D@__crt_stdio_output@@@__crt_stdio_output@@IEAA_NXZ 000000018008e0b0 f i libucrtd:output.obj
 0001:0008d210       ?validate_state_for_type_case_a@?$positional_parameter_base@DV?$string_output_adapter@D@__crt_stdio_output@@@__crt_stdio_output@@IEAA_NXZ 000000018008e210 f i libucrtd:output.obj
 0001:0008d370       ?validate_state_for_type_case_a@?$positional_parameter_base@_WV?$stream_output_adapter@_W@__crt_stdio_output@@@__crt_stdio_output@@IEAA_NXZ 000000018008e370 f i libucrtd:output.obj
 0001:0008d4d0       ?validate_state_for_type_case_a@?$positional_parameter_base@_WV?$string_output_adapter@_W@__crt_stdio_output@@@__crt_stdio_output@@IEAA_NXZ 000000018008e4d0 f i libucrtd:output.obj
 0001:0008d630       ?validate_state_for_type_case_a@?$standard_base@DV?$stream_output_adapter@D@__crt_stdio_output@@@__crt_stdio_output@@IEBA_NXZ 000000018008e630 f i libucrtd:output.obj
 0001:0008d640       ?validate_state_for_type_case_a@?$standard_base@DV?$string_output_adapter@D@__crt_stdio_output@@@__crt_stdio_output@@IEBA_NXZ 000000018008e640 f i libucrtd:output.obj
 0001:0008d650       ?validate_state_for_type_case_a@?$standard_base@_WV?$stream_output_adapter@_W@__crt_stdio_output@@@__crt_stdio_output@@IEBA_NXZ 000000018008e650 f i libucrtd:output.obj
 0001:0008d660       ?validate_state_for_type_case_a@?$standard_base@_WV?$string_output_adapter@_W@__crt_stdio_output@@@__crt_stdio_output@@IEBA_NXZ 000000018008e660 f i libucrtd:output.obj
 0001:0008d670       ?validate_stream_is_ansi_if_required@?$__acrt_stdio_char_traits@D@@SA_NQEAU_iobuf@@@Z 000000018008e670 f i libucrtd:output.obj
 0001:0008d800       ?validate_stream_is_ansi_if_required@?$__acrt_stdio_char_traits@_W@@SA_NQEAU_iobuf@@@Z 000000018008e800 f i libucrtd:output.obj
 0001:0008d810       ?wide_character_to_digit@__crt_strtox@@YAH_W@Z 000000018008e810 f i libucrtd:output.obj
 0001:0008db80       ?wide_null_string@?$output_processor@DV?$stream_output_adapter@D@__crt_stdio_output@@V?$format_validation_base@DV?$stream_output_adapter@D@__crt_stdio_output@@@2@@__crt_stdio_output@@CAPEA_WXZ 000000018008eb80 f i libucrtd:output.obj
 0001:0008db90       ?wide_null_string@?$output_processor@DV?$stream_output_adapter@D@__crt_stdio_output@@V?$positional_parameter_base@DV?$stream_output_adapter@D@__crt_stdio_output@@@2@@__crt_stdio_output@@CAPEA_WXZ 000000018008eb90 f i libucrtd:output.obj
 0001:0008dba0       ?wide_null_string@?$output_processor@DV?$stream_output_adapter@D@__crt_stdio_output@@V?$standard_base@DV?$stream_output_adapter@D@__crt_stdio_output@@@2@@__crt_stdio_output@@CAPEA_WXZ 000000018008eba0 f i libucrtd:output.obj
 0001:0008dbb0       ?wide_null_string@?$output_processor@DV?$string_output_adapter@D@__crt_stdio_output@@V?$format_validation_base@DV?$string_output_adapter@D@__crt_stdio_output@@@2@@__crt_stdio_output@@CAPEA_WXZ 000000018008ebb0 f i libucrtd:output.obj
 0001:0008dbc0       ?wide_null_string@?$output_processor@DV?$string_output_adapter@D@__crt_stdio_output@@V?$positional_parameter_base@DV?$string_output_adapter@D@__crt_stdio_output@@@2@@__crt_stdio_output@@CAPEA_WXZ 000000018008ebc0 f i libucrtd:output.obj
 0001:0008dbd0       ?wide_null_string@?$output_processor@DV?$string_output_adapter@D@__crt_stdio_output@@V?$standard_base@DV?$string_output_adapter@D@__crt_stdio_output@@@2@@__crt_stdio_output@@CAPEA_WXZ 000000018008ebd0 f i libucrtd:output.obj
 0001:0008dbe0       ?wide_null_string@?$output_processor@_WV?$stream_output_adapter@_W@__crt_stdio_output@@V?$format_validation_base@_WV?$stream_output_adapter@_W@__crt_stdio_output@@@2@@__crt_stdio_output@@CAPEA_WXZ 000000018008ebe0 f i libucrtd:output.obj
 0001:0008dbf0       ?wide_null_string@?$output_processor@_WV?$stream_output_adapter@_W@__crt_stdio_output@@V?$positional_parameter_base@_WV?$stream_output_adapter@_W@__crt_stdio_output@@@2@@__crt_stdio_output@@CAPEA_WXZ 000000018008ebf0 f i libucrtd:output.obj
 0001:0008dc00       ?wide_null_string@?$output_processor@_WV?$stream_output_adapter@_W@__crt_stdio_output@@V?$standard_base@_WV?$stream_output_adapter@_W@__crt_stdio_output@@@2@@__crt_stdio_output@@CAPEA_WXZ 000000018008ec00 f i libucrtd:output.obj
 0001:0008dc10       ?wide_null_string@?$output_processor@_WV?$string_output_adapter@_W@__crt_stdio_output@@V?$format_validation_base@_WV?$string_output_adapter@_W@__crt_stdio_output@@@2@@__crt_stdio_output@@CAPEA_WXZ 000000018008ec10 f i libucrtd:output.obj
 0001:0008dc20       ?wide_null_string@?$output_processor@_WV?$string_output_adapter@_W@__crt_stdio_output@@V?$positional_parameter_base@_WV?$string_output_adapter@_W@__crt_stdio_output@@@2@@__crt_stdio_output@@CAPEA_WXZ 000000018008ec20 f i libucrtd:output.obj
 0001:0008dc30       ?wide_null_string@?$output_processor@_WV?$string_output_adapter@_W@__crt_stdio_output@@V?$standard_base@_WV?$string_output_adapter@_W@__crt_stdio_output@@@2@@__crt_stdio_output@@CAPEA_WXZ 000000018008ec30 f i libucrtd:output.obj
 0001:0008dc40       ?write_character@?$output_adapter_common@DV?$stream_output_adapter@D@__crt_stdio_output@@@__crt_stdio_output@@QEBAXDQEAHAEAV__crt_cached_ptd_host@@@Z 000000018008ec40 f i libucrtd:output.obj
 0001:0008dca0       ?write_character@?$output_adapter_common@_WV?$stream_output_adapter@_W@__crt_stdio_output@@@__crt_stdio_output@@QEBAX_WQEAHAEAV__crt_cached_ptd_host@@@Z 000000018008eca0 f i libucrtd:output.obj
 0001:0008dd00       ?write_character@?$string_output_adapter@D@__crt_stdio_output@@QEBA_NDQEAHAEAV__crt_cached_ptd_host@@@Z 000000018008ed00 f i libucrtd:output.obj
 0001:0008ddd0       ?write_character@?$string_output_adapter@_W@__crt_stdio_output@@QEBA_N_WQEAHAEAV__crt_cached_ptd_host@@@Z 000000018008edd0 f i libucrtd:output.obj
 0001:0008dea0       ?write_character_without_count_update@?$stream_output_adapter@D@__crt_stdio_output@@QEBA_NDAEAV__crt_cached_ptd_host@@@Z 000000018008eea0 f i libucrtd:output.obj
 0001:0008df30       ?write_character_without_count_update@?$stream_output_adapter@_W@__crt_stdio_output@@QEBA_N_WAEAV__crt_cached_ptd_host@@@Z 000000018008ef30 f i libucrtd:output.obj
 0001:0008dfc0       ?write_stored_string_tchar@?$output_processor@DV?$stream_output_adapter@D@__crt_stdio_output@@V?$format_validation_base@DV?$stream_output_adapter@D@__crt_stdio_output@@@2@@__crt_stdio_output@@AEAA_ND@Z 000000018008efc0 f i libucrtd:output.obj
 0001:0008e170       ?write_stored_string_tchar@?$output_processor@DV?$stream_output_adapter@D@__crt_stdio_output@@V?$positional_parameter_base@DV?$stream_output_adapter@D@__crt_stdio_output@@@2@@__crt_stdio_output@@AEAA_ND@Z 000000018008f170 f i libucrtd:output.obj
 0001:0008e320       ?write_stored_string_tchar@?$output_processor@DV?$stream_output_adapter@D@__crt_stdio_output@@V?$standard_base@DV?$stream_output_adapter@D@__crt_stdio_output@@@2@@__crt_stdio_output@@AEAA_ND@Z 000000018008f320 f i libucrtd:output.obj
 0001:0008e4d0       ?write_stored_string_tchar@?$output_processor@DV?$string_output_adapter@D@__crt_stdio_output@@V?$format_validation_base@DV?$string_output_adapter@D@__crt_stdio_output@@@2@@__crt_stdio_output@@AEAA_ND@Z 000000018008f4d0 f i libucrtd:output.obj
 0001:0008e680       ?write_stored_string_tchar@?$output_processor@DV?$string_output_adapter@D@__crt_stdio_output@@V?$positional_parameter_base@DV?$string_output_adapter@D@__crt_stdio_output@@@2@@__crt_stdio_output@@AEAA_ND@Z 000000018008f680 f i libucrtd:output.obj
 0001:0008e830       ?write_stored_string_tchar@?$output_processor@DV?$string_output_adapter@D@__crt_stdio_output@@V?$standard_base@DV?$string_output_adapter@D@__crt_stdio_output@@@2@@__crt_stdio_output@@AEAA_ND@Z 000000018008f830 f i libucrtd:output.obj
 0001:0008e9e0       ?write_stored_string_tchar@?$output_processor@_WV?$stream_output_adapter@_W@__crt_stdio_output@@V?$format_validation_base@_WV?$stream_output_adapter@_W@__crt_stdio_output@@@2@@__crt_stdio_output@@AEAA_N_W@Z 000000018008f9e0 f i libucrtd:output.obj
 0001:0008eb40       ?write_stored_string_tchar@?$output_processor@_WV?$stream_output_adapter@_W@__crt_stdio_output@@V?$positional_parameter_base@_WV?$stream_output_adapter@_W@__crt_stdio_output@@@2@@__crt_stdio_output@@AEAA_N_W@Z 000000018008fb40 f i libucrtd:output.obj
 0001:0008eca0       ?write_stored_string_tchar@?$output_processor@_WV?$stream_output_adapter@_W@__crt_stdio_output@@V?$standard_base@_WV?$stream_output_adapter@_W@__crt_stdio_output@@@2@@__crt_stdio_output@@AEAA_N_W@Z 000000018008fca0 f i libucrtd:output.obj
 0001:0008ee00       ?write_stored_string_tchar@?$output_processor@_WV?$string_output_adapter@_W@__crt_stdio_output@@V?$format_validation_base@_WV?$string_output_adapter@_W@__crt_stdio_output@@@2@@__crt_stdio_output@@AEAA_N_W@Z 000000018008fe00 f i libucrtd:output.obj
 0001:0008ef60       ?write_stored_string_tchar@?$output_processor@_WV?$string_output_adapter@_W@__crt_stdio_output@@V?$positional_parameter_base@_WV?$string_output_adapter@_W@__crt_stdio_output@@@2@@__crt_stdio_output@@AEAA_N_W@Z 000000018008ff60 f i libucrtd:output.obj
 0001:0008f0c0       ?write_stored_string_tchar@?$output_processor@_WV?$string_output_adapter@_W@__crt_stdio_output@@V?$standard_base@_WV?$string_output_adapter@_W@__crt_stdio_output@@@2@@__crt_stdio_output@@AEAA_N_W@Z 00000001800900c0 f i libucrtd:output.obj
 0001:0008f220       ?write_string@?$stream_output_adapter@D@__crt_stdio_output@@QEBAXQEBDHQEAHAEAV__crt_cached_ptd_host@@@Z 0000000180090220 f i libucrtd:output.obj
 0001:0008f2a0       ?write_string@?$stream_output_adapter@_W@__crt_stdio_output@@QEBAXQEB_WHQEAHAEAV__crt_cached_ptd_host@@@Z 00000001800902a0 f i libucrtd:output.obj
 0001:0008f320       ?write_string@?$string_output_adapter@D@__crt_stdio_output@@QEBAXQEBDHQEAHAEAV__crt_cached_ptd_host@@@Z 0000000180090320 f i libucrtd:output.obj
 0001:0008f490       ?write_string@?$string_output_adapter@_W@__crt_stdio_output@@QEBAXQEB_WHQEAHAEAV__crt_cached_ptd_host@@@Z 0000000180090490 f i libucrtd:output.obj
 0001:0008f600       ?write_string_impl@?$output_adapter_common@DV?$stream_output_adapter@D@__crt_stdio_output@@@__crt_stdio_output@@IEBAXQEBDHQEAHAEAV__crt_cached_ptd_host@@@Z 0000000180090600 f i libucrtd:output.obj
 0001:0008f720       ?write_string_impl@?$output_adapter_common@_WV?$stream_output_adapter@_W@__crt_stdio_output@@@__crt_stdio_output@@IEBAXQEB_WHQEAHAEAV__crt_cached_ptd_host@@@Z 0000000180090720 f i libucrtd:output.obj
 0001:0008f840       __acrt_disable_global_locale_sync 0000000180090840 f i libucrtd:output.obj
 0001:0008f870       __acrt_enable_global_locale_sync 0000000180090870 f i libucrtd:output.obj
 0001:0008f8a0       __acrt_isleadbyte_l_noupdate 00000001800908a0 f i libucrtd:output.obj
 0001:0008f8d0       __acrt_locale_changed      00000001800908d0 f i libucrtd:output.obj
 0001:0008f900       __acrt_locale_get_ctype_array_value 0000000180090900 f i libucrtd:output.obj
 0001:0008f940       __ascii_iswalpha           0000000180090940 f i libucrtd:output.obj
 0001:0008f980       __ascii_toupper            0000000180090980 f i libucrtd:output.obj
 0001:0008f9a0       __ascii_towupper           00000001800909a0 f i libucrtd:output.obj
 0001:0008f9c0       __stdio_common_vfprintf    00000001800909c0 f   libucrtd:output.obj
 0001:0008fa40       __stdio_common_vfprintf_p  0000000180090a40 f   libucrtd:output.obj
 0001:0008fac0       __stdio_common_vfprintf_s  0000000180090ac0 f   libucrtd:output.obj
 0001:0008fb40       __stdio_common_vfwprintf   0000000180090b40 f   libucrtd:output.obj
 0001:0008fbc0       __stdio_common_vfwprintf_p 0000000180090bc0 f   libucrtd:output.obj
 0001:0008fc40       __stdio_common_vfwprintf_s 0000000180090c40 f   libucrtd:output.obj
 0001:0008fcc0       __stdio_common_vsnprintf_s 0000000180090cc0 f   libucrtd:output.obj
 0001:0008fd50       __stdio_common_vsnwprintf_s 0000000180090d50 f   libucrtd:output.obj
 0001:0008fde0       __stdio_common_vsprintf    0000000180090de0 f   libucrtd:output.obj
 0001:0008fe70       __stdio_common_vsprintf_p  0000000180090e70 f   libucrtd:output.obj
 0001:0008ff00       __stdio_common_vsprintf_s  0000000180090f00 f   libucrtd:output.obj
 0001:0008ff90       __stdio_common_vswprintf   0000000180090f90 f   libucrtd:output.obj
 0001:00090020       __stdio_common_vswprintf_p 0000000180091020 f   libucrtd:output.obj
 0001:000900b0       __stdio_common_vswprintf_s 00000001800910b0 f   libucrtd:output.obj
 0001:00090140       _ctype_fast_check_internal 0000000180091140 f i libucrtd:output.obj
 0001:00090170       _isdigit_fast_internal     0000000180091170 f i libucrtd:output.obj
 0001:000901a0       _tolower_fast_internal     00000001800911a0 f i libucrtd:output.obj
 0001:000901d0       free                       00000001800911d0 f   libucrtd:free.obj
 0001:00090200       malloc                     0000000180091200 f   libucrtd:malloc.obj
 0001:00090230       ??$?RU?$__crt_report_hook_node@D@@@__crt_internal_free_policy@@QEBAXQEBU?$__crt_report_hook_node@D@@@Z 0000000180091230 f i libucrtd:dbgrpt.obj
 0001:00090260       ??$?RU?$__crt_report_hook_node@_W@@@__crt_internal_free_policy@@QEBAXQEBU?$__crt_report_hook_node@_W@@@Z 0000000180091260 f i libucrtd:dbgrpt.obj
 0001:000914c0       ??$get_module_file_name@AEAPEAUHINSTANCE__@@AEAY0BAF@DK@?$__crt_char_traits@D@@SAKAEAPEAUHINSTANCE__@@AEAY0BAF@D$$QEAK@Z 00000001800924c0 f i libucrtd:dbgrpt.obj
 0001:00091500       ??$get_module_file_name@AEAPEAUHINSTANCE__@@AEAY0BAF@_WK@?$__crt_char_traits@_W@@SAKAEAPEAUHINSTANCE__@@AEAY0BAF@_W$$QEAK@Z 0000000180092500 f i libucrtd:dbgrpt.obj
 0001:00091540       ??$tcscpy_s@AEAY0BAF@D_KPEBD@?$__crt_char_traits@D@@SAHAEAY0BAF@D$$QEA_K$$QEAPEBD@Z 0000000180092540 f i libucrtd:dbgrpt.obj
 0001:00091580       ??$tcscpy_s@AEAY0BAF@_W_KPEB_W@?$__crt_char_traits@_W@@SAHAEAY0BAF@_W$$QEA_K$$QEAPEB_W@Z 0000000180092580 f i libucrtd:dbgrpt.obj
 0001:000915c0       ??$tcslen@AEAY0BAF@D@?$__crt_char_traits@D@@SA_KAEAY0BAF@D@Z 00000001800925c0 f i libucrtd:dbgrpt.obj
 0001:000915e0       ??$tcslen@AEAY0BAF@_W@?$__crt_char_traits@_W@@SA_KAEAY0BAF@_W@Z 00000001800925e0 f i libucrtd:dbgrpt.obj
 0001:00091600       ??$tcslen@AEBQEBD@?$__crt_char_traits@D@@SA_KAEBQEBD@Z 0000000180092600 f i libucrtd:dbgrpt.obj
 0001:00091620       ??$tcslen@AEBQEB_W@?$__crt_char_traits@_W@@SA_KAEBQEB_W@Z 0000000180092620 f i libucrtd:dbgrpt.obj
 0001:00091720       ??0?$__crt_unique_heap_ptr@U?$__crt_report_hook_node@D@@U__crt_internal_free_policy@@@@QEAA@QEAU?$__crt_report_hook_node@D@@@Z 0000000180092720 f i libucrtd:dbgrpt.obj
 0001:00091740       ??0?$__crt_unique_heap_ptr@U?$__crt_report_hook_node@_W@@U__crt_internal_free_policy@@@@QEAA@QEAU?$__crt_report_hook_node@_W@@@Z 0000000180092740 f i libucrtd:dbgrpt.obj
 0001:00091760       ??1?$__crt_unique_heap_ptr@U?$__crt_report_hook_node@D@@U__crt_internal_free_policy@@@@QEAA@XZ 0000000180092760 f i libucrtd:dbgrpt.obj
 0001:00091780       ??1?$__crt_unique_heap_ptr@U?$__crt_report_hook_node@_W@@U__crt_internal_free_policy@@@@QEAA@XZ 0000000180092780 f i libucrtd:dbgrpt.obj
 0001:000917a0       ??B?$__crt_unique_heap_ptr@U?$__crt_report_hook_node@D@@U__crt_internal_free_policy@@@@QEBA_NXZ 00000001800927a0 f i libucrtd:dbgrpt.obj
 0001:000917c0       ??B?$__crt_unique_heap_ptr@U?$__crt_report_hook_node@_W@@U__crt_internal_free_policy@@@@QEBA_NXZ 00000001800927c0 f i libucrtd:dbgrpt.obj
 0001:00091ee0       ?detach@?$__crt_unique_heap_ptr@U?$__crt_report_hook_node@D@@U__crt_internal_free_policy@@@@QEAAPEAU?$__crt_report_hook_node@D@@XZ 0000000180092ee0 f i libucrtd:dbgrpt.obj
 0001:00091f10       ?detach@?$__crt_unique_heap_ptr@U?$__crt_report_hook_node@_W@@U__crt_internal_free_policy@@@@QEAAPEAU?$__crt_report_hook_node@_W@@XZ 0000000180092f10 f i libucrtd:dbgrpt.obj
 0001:00091f40       ?get@?$__crt_unique_heap_ptr@U?$__crt_report_hook_node@D@@U__crt_internal_free_policy@@@@QEBAPEAU?$__crt_report_hook_node@D@@XZ 0000000180092f40 f i libucrtd:dbgrpt.obj
 0001:00091f50       ?get@?$__crt_unique_heap_ptr@U?$__crt_report_hook_node@_W@@U__crt_internal_free_policy@@@@QEBAPEAU?$__crt_report_hook_node@_W@@XZ 0000000180092f50 f i libucrtd:dbgrpt.obj
 0001:00091fc0       ?is_valid@?$__crt_unique_heap_ptr@U?$__crt_report_hook_node@D@@U__crt_internal_free_policy@@@@QEBA_NXZ 0000000180092fc0 f i libucrtd:dbgrpt.obj
 0001:00091ff0       ?is_valid@?$__crt_unique_heap_ptr@U?$__crt_report_hook_node@_W@@U__crt_internal_free_policy@@@@QEBA_NXZ 0000000180092ff0 f i libucrtd:dbgrpt.obj
 0001:00092020       ?release@?$__crt_unique_heap_ptr@U?$__crt_report_hook_node@D@@U__crt_internal_free_policy@@@@QEAAXXZ 0000000180093020 f i libucrtd:dbgrpt.obj
 0001:00092050       ?release@?$__crt_unique_heap_ptr@U?$__crt_report_hook_node@_W@@U__crt_internal_free_policy@@@@QEAAXXZ 0000000180093050 f i libucrtd:dbgrpt.obj
 0001:00092080       _CrtDbgReport              0000000180093080 f   libucrtd:dbgrpt.obj
 0001:00092100       _CrtDbgReportW             0000000180093100 f   libucrtd:dbgrpt.obj
 0001:00092180       _CrtSetReportHook2         0000000180093180 f   libucrtd:dbgrpt.obj
 0001:000921a0       _CrtSetReportHookW2        00000001800931a0 f   libucrtd:dbgrpt.obj
 0001:000921c0       __acrt_MessageWindowA      00000001800931c0 f   libucrtd:dbgrpt.obj
 0001:00092210       __acrt_MessageWindowW      0000000180093210 f   libucrtd:dbgrpt.obj
 0001:00092260       _invoke_watson_if_error    0000000180093260 f i libucrtd:dbgrpt.obj
 0001:000922b0       _invoke_watson_if_oneof    00000001800932b0 f i libucrtd:dbgrpt.obj
 0001:00092310       _snwprintf_s               0000000180093310 f i libucrtd:dbgrpt.obj
 0001:00092380       _vsnwprintf_s_l            0000000180093380 f i libucrtd:dbgrpt.obj
 0001:00092900       wcscpy_s                   0000000180093900 f   libucrtd:wcscpy_s.obj
 0001:00093c90       ??1?$__crt_simd_cleanup_guard@$00@@QEAA@XZ 0000000180094c90 f i libucrtd:strnlen.obj
 0001:00093ca0       ??1?$__crt_simd_cleanup_guard@$0A@@@QEAA@XZ 0000000180094ca0 f i libucrtd:strnlen.obj
 0001:00093cb0       ?compare_equals@?$__crt_simd_traits@$00E@@SA?AT__m256i@@T2@0@Z 0000000180094cb0 f i libucrtd:strnlen.obj
 0001:00093cf0       ?compare_equals@?$__crt_simd_traits@$00G@@SA?AT__m256i@@T2@0@Z 0000000180094cf0 f i libucrtd:strnlen.obj
 0001:00093d30       ?compare_equals@?$__crt_simd_traits@$0A@E@@SA?AT__m128i@@T2@0@Z 0000000180094d30 f i libucrtd:strnlen.obj
 0001:00093d60       ?compare_equals@?$__crt_simd_traits@$0A@G@@SA?AT__m128i@@T2@0@Z 0000000180094d60 f i libucrtd:strnlen.obj
 0001:00093d90       ?compute_byte_mask@?$__crt_simd_pack_traits@$00@@SAHT__m256i@@@Z 0000000180094d90 f i libucrtd:strnlen.obj
 0001:00093db0       ?compute_byte_mask@?$__crt_simd_pack_traits@$0A@@@SAHT__m128i@@@Z 0000000180094db0 f i libucrtd:strnlen.obj
 0001:00093dd0       ?get_zero_pack@?$__crt_simd_pack_traits@$00@@SA?AT__m256i@@XZ 0000000180094dd0 f i libucrtd:strnlen.obj
 0001:00093e00       ?get_zero_pack@?$__crt_simd_pack_traits@$0A@@@SA?AT__m128i@@XZ 0000000180094e00 f i libucrtd:strnlen.obj
 0001:00093e20       strnlen                    0000000180094e20 f   libucrtd:strnlen.obj
 0001:00093e50       wcslen                     0000000180094e50 f   libucrtd:strnlen.obj
 0001:00093e70       wcsnlen                    0000000180094e70 f   libucrtd:strnlen.obj
 0001:00093ea0       ??$__crt_fast_decode_pointer@P6AXPEB_W00I_K@Z@@YAP6AXPEB_W00I_K@ZQ6AX000I1@Z@Z 0000000180094ea0 f i libucrtd:invalid_parameter.obj
 0001:00093ee0       ??$__crt_fast_encode_pointer@P6AXPEB_W00I_K@Z@@YAP6AXPEB_W00I_K@ZQ6AX000I1@Z@Z 0000000180094ee0 f i libucrtd:invalid_parameter.obj
 0001:00093f20       ??$initialize_from_array@$$BY00Q6AXPEB_W00I_K@Z@?$dual_state_global@P6AXPEB_W00I_K@Z@__crt_state_management@@QEAAXAEAY00Q6AXPEB_W00I_K@Z@Z 0000000180094f20 f i libucrtd:invalid_parameter.obj
 0001:00093f80       ?__crt_rotate_pointer_value@@YA_K_KH@Z 0000000180094f80 f i libucrtd:invalid_parameter.obj
 0001:00094040       ?check_synchronize_global_state_index@__crt_cached_ptd_host@@AEAA_KXZ 0000000180095040 f i libucrtd:invalid_parameter.obj
 0001:000940a0       ?dangerous_get_state_array@?$dual_state_global@P6AXPEB_W00I_K@Z@__crt_state_management@@QEAAPEAP6AXPEB_W00I_K@ZXZ 00000001800950a0 f i libucrtd:invalid_parameter.obj
 0001:000940b0       ?get_current_global_state_index@__crt_cached_ptd_host@@QEAA_KXZ 00000001800950b0 f i libucrtd:invalid_parameter.obj
 0001:000940d0       ?get_current_state_index@__crt_state_management@@YA_KXZ 00000001800950d0 f i libucrtd:invalid_parameter.obj
 0001:000940e0       ?get_raw_ptd_noexit@__crt_cached_ptd_host@@QEAAPEAU__acrt_ptd@@XZ 00000001800950e0 f i libucrtd:invalid_parameter.obj
 0001:00094100       ?try_synchronize_per_thread_data@__crt_cached_ptd_host@@AEAAPEAU__acrt_ptd@@XZ 0000000180095100 f i libucrtd:invalid_parameter.obj
 0001:00094130       ?value@?$dual_state_global@P6AXPEB_W00I_K@Z@__crt_state_management@@QEAAAEAP6AXPEB_W00I_K@ZAEAV__crt_cached_ptd_host@@@Z 0000000180095130 f i libucrtd:invalid_parameter.obj
 0001:00094160       ?value@?$dual_state_global@P6AXPEB_W00I_K@Z@__crt_state_management@@QEAAAEAP6AXPEB_W00I_K@ZXZ 0000000180095160 f i libucrtd:invalid_parameter.obj
 0001:00094180       __acrt_call_reportfault    0000000180095180 f   libucrtd:invalid_parameter.obj
 0001:000942b0       __acrt_initialize_invalid_parameter_handler 00000001800952b0 f   libucrtd:invalid_parameter.obj
 0001:000942e0       _get_invalid_parameter_handler 00000001800952e0 f   libucrtd:invalid_parameter.obj
 0001:00094300       _get_thread_local_invalid_parameter_handler 0000000180095300 f   libucrtd:invalid_parameter.obj
 0001:00094330       _invalid_parameter         0000000180095330 f   libucrtd:invalid_parameter.obj
 0001:000943a0       _invalid_parameter_internal 00000001800953a0 f   libucrtd:invalid_parameter.obj
 0001:000944f0       _invalid_parameter_noinfo  00000001800954f0 f   libucrtd:invalid_parameter.obj
 0001:00094520       _invalid_parameter_noinfo_noreturn 0000000180095520 f   libucrtd:invalid_parameter.obj
 0001:00094560       _invoke_watson             0000000180095560 f   libucrtd:invalid_parameter.obj
 0001:000945c0       _set_invalid_parameter_handler 00000001800955c0 f   libucrtd:invalid_parameter.obj
 0001:00094610       _set_thread_local_invalid_parameter_handler 0000000180095610 f   libucrtd:invalid_parameter.obj
 0001:00094650       ?get_doserrno@__crt_cached_ptd_host@@QEAAAEAU?$cached@K@1@XZ 0000000180095650 f i libucrtd:errno.obj
 0001:00094660       ?set@?$cached@K@__crt_cached_ptd_host@@QEAAKK@Z 0000000180095660 f i libucrtd:errno.obj
 0001:00094690       __acrt_errno_from_os_error 0000000180095690 f   libucrtd:errno.obj
 0001:00094720       __acrt_errno_map_os_error  0000000180095720 f   libucrtd:errno.obj
 0001:00094750       __acrt_errno_map_os_error_ptd 0000000180095750 f   libucrtd:errno.obj
 0001:000947b0       __doserrno                 00000001800957b0 f   libucrtd:errno.obj
 0001:000947e0       _errno                     00000001800957e0 f   libucrtd:errno.obj
 0001:00094810       _get_doserrno              0000000180095810 f   libucrtd:errno.obj
 0001:000948d0       _get_errno                 00000001800958d0 f   libucrtd:errno.obj
 0001:00094990       _set_doserrno              0000000180095990 f   libucrtd:errno.obj
 0001:000949d0       _set_errno                 00000001800959d0 f   libucrtd:errno.obj
 0001:00094a10       calloc                     0000000180095a10 f   libucrtd:calloc.obj
 0001:00094a50       _recalloc                  0000000180095a50 f   libucrtd:recalloc.obj
 0001:00094aa0       _recalloc_base             0000000180095aa0 f   libucrtd:recalloc.obj
 0001:00094b80       _resetstkoflw              0000000180095b80 f   libucrtd:resetstk.obj
 0001:00095380       wcscat_s                   0000000180096380 f   libucrtd:wcscat_s.obj
 0001:00095a60       wcsncpy_s                  0000000180096a60 f   libucrtd:wcsncpy_s.obj
 0001:00095be0       __isascii                  0000000180096be0 f   libucrtd:_ctype.obj
 0001:00095c10       __iscsym                   0000000180096c10 f   libucrtd:_ctype.obj
 0001:00095c50       __iscsymf                  0000000180096c50 f   libucrtd:_ctype.obj
 0001:00095c90       __toascii                  0000000180096c90 f   libucrtd:_ctype.obj
 0001:00095ca0       _isalnum_l                 0000000180096ca0 f   libucrtd:_ctype.obj
 0001:00095cd0       _isalpha_l                 0000000180096cd0 f   libucrtd:_ctype.obj
 0001:00095d00       _isblank_l                 0000000180096d00 f   libucrtd:_ctype.obj
 0001:00095d30       _iscntrl_l                 0000000180096d30 f   libucrtd:_ctype.obj
 0001:00095d60       _iscsym_l                  0000000180096d60 f   libucrtd:_ctype.obj
 0001:00095db0       _iscsymf_l                 0000000180096db0 f   libucrtd:_ctype.obj
 0001:00095e00       _isdigit_l                 0000000180096e00 f   libucrtd:_ctype.obj
 0001:00095e30       _isgraph_l                 0000000180096e30 f   libucrtd:_ctype.obj
 0001:00095e60       _islower_l                 0000000180096e60 f   libucrtd:_ctype.obj
 0001:00095e90       _isprint_l                 0000000180096e90 f   libucrtd:_ctype.obj
 0001:00095ec0       _ispunct_l                 0000000180096ec0 f   libucrtd:_ctype.obj
 0001:00095ef0       _isspace_l                 0000000180096ef0 f   libucrtd:_ctype.obj
 0001:00095f20       _isupper_l                 0000000180096f20 f   libucrtd:_ctype.obj
 0001:00095f50       _isxdigit_l                0000000180096f50 f   libucrtd:_ctype.obj
 0001:00095f80       isalnum                    0000000180096f80 f   libucrtd:_ctype.obj
 0001:00095fa0       isalpha                    0000000180096fa0 f   libucrtd:_ctype.obj
 0001:00095fc0       isblank                    0000000180096fc0 f   libucrtd:_ctype.obj
 0001:00095ff0       iscntrl                    0000000180096ff0 f   libucrtd:_ctype.obj
 0001:00096010       isdigit                    0000000180097010 f   libucrtd:_ctype.obj
 0001:00096030       isgraph                    0000000180097030 f   libucrtd:_ctype.obj
 0001:00096050       islower                    0000000180097050 f   libucrtd:_ctype.obj
 0001:00096070       isprint                    0000000180097070 f   libucrtd:_ctype.obj
 0001:00096090       ispunct                    0000000180097090 f   libucrtd:_ctype.obj
 0001:000960b0       isspace                    00000001800970b0 f   libucrtd:_ctype.obj
 0001:000960d0       isupper                    00000001800970d0 f   libucrtd:_ctype.obj
 0001:000960f0       isxdigit                   00000001800970f0 f   libucrtd:_ctype.obj
 0001:00096110       wcscat                     0000000180097110 f   libucrtd:wcscat.obj
 0001:000961a0       wcscpy                     00000001800971a0 f   libucrtd:wcscpy.obj
 0001:00096950       ??$open_file@AEBQEBDAEBQEBDAEBHPEAU_iobuf@@@?$__crt_char_traits@D@@SAPEAU_iobuf@@AEBQEBD0AEBH$$QEAPEAU1@@Z 0000000180097950 f i libucrtd:fopen.obj
 0001:000969a0       ??$open_file@AEBQEB_WAEBQEB_WAEBHPEAU_iobuf@@@?$__crt_char_traits@_W@@SAPEAU_iobuf@@AEBQEB_W0AEBH$$QEAPEAU1@@Z 00000001800979a0 f i libucrtd:fopen.obj
 0001:000969f0       ?unlock@__crt_stdio_stream@@QEBAXXZ 00000001800979f0 f i libucrtd:fopen.obj
 0001:00096a10       _fsopen                    0000000180097a10 f   libucrtd:fopen.obj
 0001:00096a40       _wfopen                    0000000180097a40 f   libucrtd:fopen.obj
 0001:00096a70       _wfopen_s                  0000000180097a70 f   libucrtd:fopen.obj
 0001:00096aa0       _wfsopen                   0000000180097aa0 f   libucrtd:fopen.obj
 0001:00096ad0       fopen                      0000000180097ad0 f   libucrtd:fopen.obj
 0001:00096b00       fopen_s                    0000000180097b00 f   libucrtd:fopen.obj
 0001:00096e40       ?is_in_use@__crt_stdio_stream@@QEBA_NXZ 0000000180097e40 f i libucrtd:fclose.obj
 0001:00096e80       _fclose_nolock             0000000180097e80 f   libucrtd:fclose.obj
 0001:00096ec0       fclose                     0000000180097ec0 f   libucrtd:fclose.obj
 0001:00097200       _fputc_nolock              0000000180098200 f   libucrtd:fputc.obj
 0001:00097250       _fputc_nolock_internal     0000000180098250 f   libucrtd:fputc.obj
 0001:00097310       _fputchar                  0000000180098310 f   libucrtd:fputc.obj
 0001:00097340       _putc_nolock               0000000180098340 f   libucrtd:fputc.obj
 0001:00097360       fputc                      0000000180098360 f   libucrtd:fputc.obj
 0001:000973b0       putc                       00000001800983b0 f   libucrtd:fputc.obj
 0001:000973d0       putchar                    00000001800983d0 f   libucrtd:fputc.obj
 0001:00097460       _seh_filter_dll            0000000180098460 f   libucrtd:exception_filter.obj
 0001:00097490       _seh_filter_exe            0000000180098490 f   libucrtd:exception_filter.obj
 0001:00097760       ??$?B$$A6AXPEAXK0@Z@__crt_fast_encoded_nullptr_t@@QEBAP6AXPEAXK0@ZXZ 0000000180098760 f i libucrtd:exit.obj
 0001:00097820       ??$__crt_fast_decode_pointer@P6AXPEAXK0@Z@@YAP6AXPEAXK0@ZQ6AX0K0@Z@Z 0000000180098820 f i libucrtd:exit.obj
 0001:00097860       ??$__crt_fast_encode_pointer@P6AXPEAXK0@Z@@YAP6AXPEAXK0@ZQ6AX0K0@Z@Z 0000000180098860 f i libucrtd:exit.obj
 0001:000978a0       ??$__crt_get_proc_address@P6AXI@Z@@YAP6AXI@ZQEAUHINSTANCE__@@QEBD@Z 00000001800988a0 f i libucrtd:exit.obj
 0001:00097960       ??0?$__crt_unique_handle_t@U__crt_hmodule_traits@@@@QEAA@QEAUHINSTANCE__@@@Z 0000000180098960 f i libucrtd:exit.obj
 0001:00097980       ??1?$__crt_unique_handle_t@U__crt_hmodule_traits@@@@QEAA@XZ 0000000180098980 f i libucrtd:exit.obj
 0001:00097b00       ?__acrt_select_exit_lock@@YA?AW4__acrt_lock_id@@XZ 0000000180098b00 f i libucrtd:exit.obj
 0001:00097b10       ?__crt_fast_encode_pointer@@YA?AU__crt_fast_encoded_nullptr_t@@$$T@Z 0000000180098b10 f i libucrtd:exit.obj
 0001:00097b50       ?close@?$__crt_unique_handle_t@U__crt_hmodule_traits@@@@QEAAXXZ 0000000180098b50 f i libucrtd:exit.obj
 0001:00097b90       ?close@__crt_hmodule_traits@@SA_NPEAUHINSTANCE__@@@Z 0000000180098b90 f i libucrtd:exit.obj
 0001:00097cb0       ?get@?$__crt_unique_handle_t@U__crt_hmodule_traits@@@@QEBAPEAUHINSTANCE__@@XZ 0000000180098cb0 f i libucrtd:exit.obj
 0001:00097cc0       ?get_address_of@?$__crt_unique_handle_t@U__crt_hmodule_traits@@@@QEAAPEAPEAUHINSTANCE__@@XZ 0000000180098cc0 f i libucrtd:exit.obj
 0001:00097cd0       ?get_invalid_value@__crt_hmodule_traits@@SAPEAUHINSTANCE__@@XZ 0000000180098cd0 f i libucrtd:exit.obj
 0001:00097eb0       _Exit                      0000000180098eb0 f   libucrtd:exit.obj
 0001:00097ed0       __acrt_initialize_thread_local_exit_callback 0000000180098ed0 f   libucrtd:exit.obj
 0001:00097ef0       _c_exit                    0000000180098ef0 f   libucrtd:exit.obj
 0001:00097f10       _cexit                     0000000180098f10 f   libucrtd:exit.obj
 0001:00097f30       _exit                      0000000180098f30 f   libucrtd:exit.obj
 0001:00097f50       _is_c_termination_complete 0000000180098f50 f   libucrtd:exit.obj
 0001:00097f70       _register_thread_local_exe_atexit_callback 0000000180098f70 f   libucrtd:exit.obj
 0001:00097fc0       exit                       0000000180098fc0 f   libucrtd:exit.obj
 0001:00097fe0       quick_exit                 0000000180098fe0 f   libucrtd:exit.obj
 0001:00098000       ??$?RE@__crt_internal_free_policy@@QEBAXQEBE@Z 0000000180099000 f i libucrtd:argv_parsing.obj
 0001:00098030       ??$?RPEAD@__crt_internal_free_policy@@QEBAXQEBQEAD@Z 0000000180099030 f i libucrtd:argv_parsing.obj
 0001:00098060       ??$?RPEA_W@__crt_internal_free_policy@@QEBAXQEBQEA_W@Z 0000000180099060 f i libucrtd:argv_parsing.obj
 0001:000987b0       ??$get_module_file_name@$$TAEAY0BAF@DH@?$__crt_char_traits@D@@SAK$$QEA$$TAEAY0BAF@D$$QEAH@Z 00000001800997b0 f i libucrtd:argv_parsing.obj
 0001:000987f0       ??$get_module_file_name@$$TAEAY0BAF@_WH@?$__crt_char_traits@_W@@SAK$$QEA$$TAEAY0BAF@_W$$QEAH@Z 00000001800997f0 f i libucrtd:argv_parsing.obj
 0001:000991f0       ??$set_program_name@PEAD@?$__crt_char_traits@D@@SAX$$QEAPEAD@Z 000000018009a1f0 f i libucrtd:argv_parsing.obj
 0001:00099210       ??$set_program_name@PEA_W@?$__crt_char_traits@_W@@SAX$$QEAPEA_W@Z 000000018009a210 f i libucrtd:argv_parsing.obj
 0001:00099270       ??0?$__crt_unique_heap_ptr@EU__crt_internal_free_policy@@@@QEAA@QEAE@Z 000000018009a270 f i libucrtd:argv_parsing.obj
 0001:00099290       ??0?$__crt_unique_heap_ptr@PEADU__crt_internal_free_policy@@@@QEAA@QEAPEAD@Z 000000018009a290 f i libucrtd:argv_parsing.obj
 0001:000992b0       ??0?$__crt_unique_heap_ptr@PEA_WU__crt_internal_free_policy@@@@QEAA@QEAPEA_W@Z 000000018009a2b0 f i libucrtd:argv_parsing.obj
 0001:000992d0       ??1?$__crt_unique_heap_ptr@EU__crt_internal_free_policy@@@@QEAA@XZ 000000018009a2d0 f i libucrtd:argv_parsing.obj
 0001:000992f0       ??1?$__crt_unique_heap_ptr@PEADU__crt_internal_free_policy@@@@QEAA@XZ 000000018009a2f0 f i libucrtd:argv_parsing.obj
 0001:00099310       ??1?$__crt_unique_heap_ptr@PEA_WU__crt_internal_free_policy@@@@QEAA@XZ 000000018009a310 f i libucrtd:argv_parsing.obj
 0001:00099330       ??B?$__crt_unique_heap_ptr@EU__crt_internal_free_policy@@@@QEBA_NXZ 000000018009a330 f i libucrtd:argv_parsing.obj
 0001:00099410       ?detach@?$__crt_unique_heap_ptr@EU__crt_internal_free_policy@@@@QEAAPEAEXZ 000000018009a410 f i libucrtd:argv_parsing.obj
 0001:00099440       ?detach@?$__crt_unique_heap_ptr@PEADU__crt_internal_free_policy@@@@QEAAPEAPEADXZ 000000018009a440 f i libucrtd:argv_parsing.obj
 0001:00099470       ?detach@?$__crt_unique_heap_ptr@PEA_WU__crt_internal_free_policy@@@@QEAAPEAPEA_WXZ 000000018009a470 f i libucrtd:argv_parsing.obj
 0001:00099530       ?get@?$__crt_unique_heap_ptr@EU__crt_internal_free_policy@@@@QEBAPEAEXZ 000000018009a530 f i libucrtd:argv_parsing.obj
 0001:00099540       ?get@?$__crt_unique_heap_ptr@PEADU__crt_internal_free_policy@@@@QEBAPEAPEADXZ 000000018009a540 f i libucrtd:argv_parsing.obj
 0001:00099550       ?get@?$__crt_unique_heap_ptr@PEA_WU__crt_internal_free_policy@@@@QEBAPEAPEA_WXZ 000000018009a550 f i libucrtd:argv_parsing.obj
 0001:00099560       ?get_address_of@?$__crt_unique_heap_ptr@PEADU__crt_internal_free_policy@@@@QEAAPEAPEAPEADXZ 000000018009a560 f i libucrtd:argv_parsing.obj
 0001:00099570       ?get_address_of@?$__crt_unique_heap_ptr@PEA_WU__crt_internal_free_policy@@@@QEAAPEAPEAPEA_WXZ 000000018009a570 f i libucrtd:argv_parsing.obj
 0001:000995c0       ?is_valid@?$__crt_unique_heap_ptr@EU__crt_internal_free_policy@@@@QEBA_NXZ 000000018009a5c0 f i libucrtd:argv_parsing.obj
 0001:000995f0       ?release@?$__crt_unique_heap_ptr@EU__crt_internal_free_policy@@@@QEAAXXZ 000000018009a5f0 f i libucrtd:argv_parsing.obj
 0001:00099620       ?release@?$__crt_unique_heap_ptr@PEADU__crt_internal_free_policy@@@@QEAAXXZ 000000018009a620 f i libucrtd:argv_parsing.obj
 0001:00099650       ?release@?$__crt_unique_heap_ptr@PEA_WU__crt_internal_free_policy@@@@QEAAXXZ 000000018009a650 f i libucrtd:argv_parsing.obj
 0001:000996d0       __acrt_allocate_buffer_for_argv 000000018009a6d0 f   libucrtd:argv_parsing.obj
 0001:000997f0       _configure_narrow_argv     000000018009a7f0 f   libucrtd:argv_parsing.obj
 0001:00099810       _configure_wide_argv       000000018009a810 f   libucrtd:argv_parsing.obj
 0001:00099830       _set_pgmptr                000000018009a830 f i libucrtd:argv_parsing.obj
 0001:00099850       _set_wpgmptr               000000018009a850 f i libucrtd:argv_parsing.obj
 0001:00099870       ??$?R_W@__crt_internal_free_policy@@QEBAXQEB_W@Z 000000018009a870 f i libucrtd:environment_initialization.obj
 0001:0009a230       ??$get_environment_from_os@$$V@?$__crt_char_traits@D@@SAPEADXZ 000000018009b230 f i libucrtd:environment_initialization.obj
 0001:0009a240       ??$get_environment_from_os@$$V@?$__crt_char_traits@_W@@SAPEA_WXZ 000000018009b240 f i libucrtd:environment_initialization.obj
 0001:0009a550       ??$set_variable_in_environment_nolock@PEADH@?$__crt_char_traits@D@@SAH$$QEAPEAD$$QEAH@Z 000000018009b550 f i libucrtd:environment_initialization.obj
 0001:0009a580       ??$set_variable_in_environment_nolock@PEA_WH@?$__crt_char_traits@_W@@SAH$$QEAPEA_W$$QEAH@Z 000000018009b580 f i libucrtd:environment_initialization.obj
 0001:0009a5b0       ??$tcscpy_s@PEADAEB_KAEAPEAD@?$__crt_char_traits@D@@SAH$$QEAPEADAEB_KAEAPEAD@Z 000000018009b5b0 f i libucrtd:environment_initialization.obj
 0001:0009a5f0       ??$tcscpy_s@PEA_WAEB_KAEAPEA_W@?$__crt_char_traits@_W@@SAH$$QEAPEA_WAEB_KAEAPEA_W@Z 000000018009b5f0 f i libucrtd:environment_initialization.obj
 0001:0009a630       ??$tcslen@AEAPEAD@?$__crt_char_traits@D@@SA_KAEAPEAD@Z 000000018009b630 f i libucrtd:environment_initialization.obj
 0001:0009a650       ??$tcslen@AEAPEA_W@?$__crt_char_traits@_W@@SA_KAEAPEA_W@Z 000000018009b650 f i libucrtd:environment_initialization.obj
 0001:0009a670       ??$uninitialize@A6AXAEAPEAPEAD@_E@?$dual_state_global@PEAPEAD@__crt_state_management@@QEAAXA6AXAEAPEAPEAD@_E@Z 000000018009b670 f i libucrtd:environment_initialization.obj
 0001:0009a6f0       ??$uninitialize@A6AXAEAPEAPEA_W@_E@?$dual_state_global@PEAPEA_W@__crt_state_management@@QEAAXA6AXAEAPEAPEA_W@_E@Z 000000018009b6f0 f i libucrtd:environment_initialization.obj
 0001:0009a7f0       ??0?$__crt_unique_heap_ptr@_WU__crt_internal_free_policy@@@@QEAA@QEA_W@Z 000000018009b7f0 f i libucrtd:environment_initialization.obj
 0001:0009a810       ??1?$__crt_unique_heap_ptr@_WU__crt_internal_free_policy@@@@QEAA@XZ 000000018009b810 f i libucrtd:environment_initialization.obj
 0001:0009a830       ??B?$__crt_unique_heap_ptr@PEADU__crt_internal_free_policy@@@@QEBA_NXZ 000000018009b830 f i libucrtd:environment_initialization.obj
 0001:0009a850       ??B?$__crt_unique_heap_ptr@PEA_WU__crt_internal_free_policy@@@@QEBA_NXZ 000000018009b850 f i libucrtd:environment_initialization.obj
 0001:0009a870       ??B?$__crt_unique_heap_ptr@_WU__crt_internal_free_policy@@@@QEBA_NXZ 000000018009b870 f i libucrtd:environment_initialization.obj
 0001:0009a890       ?__crt_compute_required_transform_buffer_count@@YA_KIQEBD@Z 000000018009b890 f i libucrtd:environment_initialization.obj
 0001:0009a8d0       ?__crt_compute_required_transform_buffer_count@@YA_KIQEB_W@Z 000000018009b8d0 f i libucrtd:environment_initialization.obj
 0001:0009a920       ?__crt_transform_string@@YA_KIQEBDQEA_W_K@Z 000000018009b920 f i libucrtd:environment_initialization.obj
 0001:0009a970       ?__crt_transform_string@@YA_KIQEB_WQEAD_K@Z 000000018009b970 f i libucrtd:environment_initialization.obj
 0001:0009a9d0       ?detach@?$__crt_unique_heap_ptr@DU__crt_internal_free_policy@@@@QEAAPEADXZ 000000018009b9d0 f i libucrtd:environment_initialization.obj
 0001:0009aa00       ?detach@?$__crt_unique_heap_ptr@_WU__crt_internal_free_policy@@@@QEAAPEA_WXZ 000000018009ba00 f i libucrtd:environment_initialization.obj
 0001:0009aa30       ?get@?$__crt_unique_heap_ptr@_WU__crt_internal_free_policy@@@@QEBAPEA_WXZ 000000018009ba30 f i libucrtd:environment_initialization.obj
 0001:0009aac0       ?initialize@?$dual_state_global@PEAPEAD@__crt_state_management@@QEAAXQEAPEAD@Z 000000018009bac0 f i libucrtd:environment_initialization.obj
 0001:0009ab10       ?initialize@?$dual_state_global@PEAPEA_W@__crt_state_management@@QEAAXQEAPEA_W@Z 000000018009bb10 f i libucrtd:environment_initialization.obj
 0001:0009ab60       ?is_valid@?$__crt_unique_heap_ptr@PEADU__crt_internal_free_policy@@@@QEBA_NXZ 000000018009bb60 f i libucrtd:environment_initialization.obj
 0001:0009ab90       ?is_valid@?$__crt_unique_heap_ptr@PEA_WU__crt_internal_free_policy@@@@QEBA_NXZ 000000018009bb90 f i libucrtd:environment_initialization.obj
 0001:0009abc0       ?is_valid@?$__crt_unique_heap_ptr@_WU__crt_internal_free_policy@@@@QEBA_NXZ 000000018009bbc0 f i libucrtd:environment_initialization.obj
 0001:0009ac20       ?release@?$__crt_unique_heap_ptr@_WU__crt_internal_free_policy@@@@QEAAXXZ 000000018009bc20 f i libucrtd:environment_initialization.obj
 0001:0009ac50       ?value@?$dual_state_global@PEAPEAD@__crt_state_management@@QEAAAEAPEAPEADXZ 000000018009bc50 f i libucrtd:environment_initialization.obj
 0001:0009ac70       ?value@?$dual_state_global@PEAPEA_W@__crt_state_management@@QEAAAEAPEAPEA_WXZ 000000018009bc70 f i libucrtd:environment_initialization.obj
 0001:0009ac90       __dcrt_get_or_create_narrow_environment_nolock 000000018009bc90 f   libucrtd:environment_initialization.obj
 0001:0009aca0       __dcrt_get_or_create_wide_environment_nolock 000000018009bca0 f   libucrtd:environment_initialization.obj
 0001:0009acb0       __dcrt_uninitialize_environments_nolock 000000018009bcb0 f   libucrtd:environment_initialization.obj
 0001:0009ad00       __p__environ               000000018009bd00 f   libucrtd:environment_initialization.obj
 0001:0009ad20       __p__wenviron              000000018009bd20 f   libucrtd:environment_initialization.obj
 0001:0009ad40       _get_initial_narrow_environment 000000018009bd40 f   libucrtd:environment_initialization.obj
 0001:0009ad50       _get_initial_wide_environment 000000018009bd50 f   libucrtd:environment_initialization.obj
 0001:0009ad60       _initialize_narrow_environment 000000018009bd60 f   libucrtd:environment_initialization.obj
 0001:0009ad70       _initialize_wide_environment 000000018009bd70 f   libucrtd:environment_initialization.obj
 0001:0009ad80       ??$?B$$A6AXXZ@__crt_fast_encoded_nullptr_t@@QEBAP6AXXZXZ 000000018009bd80 f i libucrtd:onexit.obj
 0001:0009ada0       ??$?BP6AXXZ@__crt_fast_encoded_nullptr_t@@QEBAPEAP6AXXZXZ 000000018009bda0 f i libucrtd:onexit.obj
 0001:0009adc0       ??$?RP6AXXZ@__crt_internal_free_policy@@QEBAXQEBQ6AXXZ@Z 000000018009bdc0 f i libucrtd:onexit.obj
 0001:0009af50       ??$__crt_fast_decode_pointer@P6AXXZ@@YAP6AXXZQ6AXXZ@Z 000000018009bf50 f i libucrtd:onexit.obj
 0001:0009af90       ??$__crt_fast_decode_pointer@PEAP6AXXZ@@YAPEAP6AXXZQEAP6AXXZ@Z 000000018009bf90 f i libucrtd:onexit.obj
 0001:0009afd0       ??$__crt_fast_encode_pointer@P6AHXZ@@YAP6AHXZQ6AHXZ@Z 000000018009bfd0 f i libucrtd:onexit.obj
 0001:0009b010       ??$__crt_fast_encode_pointer@P6AXXZ@@YAP6AXXZQ6AXXZ@Z 000000018009c010 f i libucrtd:onexit.obj
 0001:0009b050       ??$__crt_fast_encode_pointer@PEAP6AXXZ@@YAPEAP6AXXZQEAP6AXXZ@Z 000000018009c050 f i libucrtd:onexit.obj
 0001:0009b160       ??0?$__crt_unique_heap_ptr@P6AXXZU__crt_internal_free_policy@@@@QEAA@QEAP6AXXZ@Z 000000018009c160 f i libucrtd:onexit.obj
 0001:0009b180       ??1?$__crt_unique_heap_ptr@P6AXXZU__crt_internal_free_policy@@@@QEAA@XZ 000000018009c180 f i libucrtd:onexit.obj
 0001:0009b1a0       ??1scoped_global_state_reset@__crt_state_management@@QEAA@XZ 000000018009c1a0 f i libucrtd:onexit.obj
 0001:0009b7a0       ?detach@?$__crt_unique_heap_ptr@P6AXXZU__crt_internal_free_policy@@@@QEAAPEAP6AXXZXZ 000000018009c7a0 f i libucrtd:onexit.obj
 0001:0009b7d0       ?release@?$__crt_unique_heap_ptr@P6AXXZU__crt_internal_free_policy@@@@QEAAXXZ 000000018009c7d0 f i libucrtd:onexit.obj
 0001:0009b800       _crt_at_quick_exit         000000018009c800 f   libucrtd:onexit.obj
 0001:0009b820       _crt_atexit                000000018009c820 f   libucrtd:onexit.obj
